		Time			Cycle	PC		Insn	Decoded instruction	Register and memory contents
          65000	         5	80000004	00000293	addi	x5,x0,0	  x0:0x00000000  x5=0x00000000
          75000	         6	80000008	00000313	addi	x6,x0,0	  x0:0x00000000  x6=0x00000000
          85000	         7	8000000c	00628263	beq	x5,x6,80000010	  x5:0x00000000  x6:0x00000000
          95000	         8	00000000	00000013	addi	x0,x0,0	  x0:0x00000000
         105000	         9	8000000c	00000013	addi	x0,x0,0	  x0:0x00000000
         115000	        10	80000010	00000397	auipc	x7,0x0	  x7=0x8000000c
         125000	        11	80000014	00c38393	addi	x7,x7,12	  x7:0x8000000c  x7=0x80000018
         135000	        12	80000018	00038067	jalr	x0,x7,0	  x7:0x80000018
         145000	        13	00000000	00000013	addi	x0,x0,0	  x0:0x00000000
         155000	        14	80000018	00000013	addi	x0,x0,0	  x0:0x00000000
         165000	        15	8000001c	40000537	lui	x10,0x40000	 x10=0x40000000
         175000	        16	80000020	10050513	addi	x10,x10,256	 x10:0x40000000 x10=0x40000100
         185000	        17	80000024	00000013	addi	x0,x0,0	  x0:0x00000000
         195000	        18	80000028	0000ab97	auipc	x23,0xa	 x23=0x8000a024
         205000	        19	8000002c	fa0b8b93	addi	x23,x23,-96	 x23:0x8000a024 x23=0x80009fc4
         215000	        20	80000030	00004517	auipc	x10,0x4	 x10=0x8000402c
         225000	        21	80000034	80450513	addi	x10,x10,-2044	 x10:0x8000402c x10=0x80003830
         235000	        22	80000038	00156513	ori	x10,x10,1	 x10:0x80003830 x10=0x80003831
         245000	        23	8000003c	00000013	addi	x0,x0,0	  x0:0x00000000
         255000	        24	80000040	00000517	auipc	x10,0x0	 x10=0x8000003c
         265000	        25	80000044	02050513	addi	x10,x10,32	 x10:0x8000003c x10=0x8000005c
         275000	        26	80000048	00000013	addi	x0,x0,0	  x0:0x00000000
         285000	        27	8000004c	00000013	addi	x0,x0,0	  x0:0x00000000
         295000	        28	80000050	00002537	lui	x10,0x2	 x10=0x00002000
         305000	        29	80000054	80050513	addi	x10,x10,-2048	 x10:0x00002000 x10=0x00001800
         315000	        30	80000058	00000013	addi	x0,x0,0	  x0:0x00000000
         325000	        31	8000005c	00000013	addi	x0,x0,0	  x0:0x00000000
         335000	        32	80000060	00000013	addi	x0,x0,0	  x0:0x00000000
         345000	        33	80000064	00100093	addi	x1,x0,1	  x0:0x00000000  x1=0x00000001
         355000	        34	80000068	f1615137	lui	x2,0xf1615	  x2=0xf1615000
         365000	        35	8000006c	99c10113	addi	x2,x2,-1636	  x2:0xf1615000  x2=0xf161499c
         375000	        36	80000070	601c71b7	lui	x3,0x601c7	  x3=0x601c7000
         385000	        37	80000074	75018193	addi	x3,x3,1872	  x3:0x601c7000  x3=0x601c7750
         395000	        38	80000078	00600213	addi	x4,x0,6	  x0:0x00000000  x4=0x00000006
         405000	        39	8000007c	00600293	addi	x5,x0,6	  x0:0x00000000  x5=0x00000006
         415000	        40	80000080	80000337	lui	x6,0x80000	  x6=0x80000000
         425000	        41	80000084	91dc33b7	lui	x7,0x91dc3	  x7=0x91dc3000
         435000	        42	80000088	5ca38393	addi	x7,x7,1482	  x7:0x91dc3000  x7=0x91dc35ca
         445000	        43	8000008c	fe26d437	lui	x8,0xfe26d	  x8=0xfe26d000
         455000	        44	80000090	45b40413	addi	x8,x8,1115	  x8:0xfe26d000  x8=0xfe26d45b
         465000	        45	80000094	00800493	addi	x9,x0,8	  x0:0x00000000  x9=0x00000008
         475000	        46	80000098	00900513	addi	x10,x0,9	  x0:0x00000000 x10=0x00000009
         485000	        47	8000009c	517a25b7	lui	x11,0x517a2	 x11=0x517a2000
         495000	        48	800000a0	69058593	addi	x11,x11,1680	 x11:0x517a2000 x11=0x517a2690
         505000	        49	800000a4	00e00613	addi	x12,x0,14	  x0:0x00000000 x12=0x0000000e
         515000	        50	800000a8	5e29d6b7	lui	x13,0x5e29d	 x13=0x5e29d000
         525000	        51	800000ac	e1168693	addi	x13,x13,-495	 x13:0x5e29d000 x13=0x5e29ce11
         535000	        52	800000b0	00000713	addi	x14,x0,0	  x0:0x00000000 x14=0x00000000
         545000	        53	800000b4	00100793	addi	x15,x0,1	  x0:0x00000000 x15=0x00000001
         555000	        54	800000b8	80000837	lui	x16,0x80000	 x16=0x80000000
         565000	        55	800000bc	800008b7	lui	x17,0x80000	 x17=0x80000000
         575000	        56	800000c0	80000937	lui	x18,0x80000	 x18=0x80000000
         585000	        57	800000c4	00000993	addi	x19,x0,0	  x0:0x00000000 x19=0x00000000
         595000	        58	800000c8	fc217a37	lui	x20,0xfc217	 x20=0xfc217000
         605000	        59	800000cc	551a0a13	addi	x20,x20,1361	 x20:0xfc217000 x20=0xfc217551
         615000	        60	800000d0	00000a93	addi	x21,x0,0	  x0:0x00000000 x21=0x00000000
         625000	        61	800000d4	00000b13	addi	x22,x0,0	  x0:0x00000000 x22=0x00000000
         635000	        62	800000d8	80000c37	lui	x24,0x80000	 x24=0x80000000
         645000	        63	800000dc	00000c93	addi	x25,x0,0	  x0:0x00000000 x25=0x00000000
         655000	        64	800000e0	00000d13	addi	x26,x0,0	  x0:0x00000000 x26=0x00000000
         665000	        65	800000e4	9debcdb7	lui	x27,0x9debc	 x27=0x9debc000
         675000	        66	800000e8	6ccd8d93	addi	x27,x27,1740	 x27:0x9debc000 x27=0x9debc6cc
         685000	        67	800000ec	00600e13	addi	x28,x0,6	  x0:0x00000000 x28=0x00000006
         695000	        68	800000f0	fee59eb7	lui	x29,0xfee59	 x29=0xfee59000
         705000	        69	800000f4	a12e8e93	addi	x29,x29,-1518	 x29:0xfee59000 x29=0xfee58a12
         715000	        70	800000f8	00b00f93	addi	x31,x0,11	  x0:0x00000000 x31=0x0000000b
         725000	        71	800000fc	0000af17	auipc	x30,0xa	 x30=0x8000a0f8
         735000	        72	80000100	e8cf0f13	addi	x30,x30,-372	 x30:0x8000a0f8 x30=0x80009f84
         745000	        73	80000104	00002617	auipc	x12,0x2	 x12=0x80002100
         755000	        74	80000108	4f460613	addi	x12,x12,1268	 x12:0x80002100 x12=0x800025f4
         765000	        75	8000010c	409f5013	srai	x0,x30,0x9	 x30:0x80009f84
         775000	        76	80000110	19b60613	addi	x12,x12,411	 x12:0x800025f4 x12=0x8000278f
         785000	        77	80000114	0120e033	or	x0,x1,x18	  x1:0x00000001 x18:0x80000000
         795000	        78	80000118	000c1013	slli	x0,x24,0x0	 x24:0x80000000
         805000	        79	8000011c	402edb33	sra	x22,x29,x2	 x29:0xfee58a12  x2:0xf161499c x22=0xffffffff
         815000	        80	80000120	01d6ae33	slt	x28,x13,x29	 x13:0x5e29ce11 x29:0xfee58a12 x28=0x00000000
         825000	        81	80000124	0115dc63	bge	x11,x17,8000013c	 x11:0x517a2690 x17:0x80000000
         835000	        82	00000000	00000013	addi	x0,x0,0	  x0:0x00000000
         845000	        83	80000138	00000013	addi	x0,x0,0	  x0:0x00000000
         855000	        84	8000013c	e66609e7	jalr	x19,x12,-410	 x12:0x8000278f x19=0x8000013c
         865000	        85	00000000	00000013	addi	x0,x0,0	  x0:0x00000000
         875000	        86	800025f4	00000013	addi	x0,x0,0	  x0:0x00000000
         885000	        87	800025f8	00fbd413	srli	x8,x23,0xf	 x23:0x80009fc4  x8=0x00010001
         895000	        88	800025fc	6a5be013	ori	x0,x23,1701	 x23:0x80009fc4
         905000	        89	80002600	ff8f0f13	addi	x30,x30,-8	 x30:0x80009f84 x30=0x80009f7c
         915000	        90	80002604	1d14ec13	ori	x24,x9,465	  x9:0x00000008 x24=0x000001d9
         925000	        91	80002608	013f2223	sw	x19,4(x30)	 x30:0x80009f7c x19:0x8000013c PA:0x80009f80
         935000	        92	8000260c	40c00cb3	sub	x25,x0,x12	  x0:0x00000000 x12:0x8000278f x25=0x7fffd871
         945000	        93	80002610	41b8d5b3	sra	x11,x17,x27	 x17:0x80000000 x27:0x9debc6cc x11=0xfff80000
         955000	        94	80002614	cee8c893	xori	x17,x17,-786	 x17:0x80000000 x17=0x7ffffcee
         965000	        95	80002618	00000013	addi	x0,x0,0	  x0:0x00000000
         975000	        96	8000261c	fffffc97	auipc	x25,0xfffff	 x25=0x80001618
         985000	        97	80002620	75cc8c93	addi	x25,x25,1884	 x25:0x80001618 x25=0x80001d74
         995000	        98	80002624	01cebc33	sltu	x24,x29,x28	 x29:0xfee58a12 x28:0x00000000 x24=0x00000000
        1005000	        99	80002628	c8dc8c93	addi	x25,x25,-883	 x25:0x80001d74 x25=0x80001a01
        1015000	       100	8000262c	01b47463	bgeu	x8,x27,80002634	  x8:0x00010001 x27:0x9debc6cc
        1025000	       101	80002630	01f63b33	sltu	x22,x12,x31	 x12:0x8000278f x31:0x0000000b x22=0x00000000
        1035000	       102	80002634	373c89e7	jalr	x19,x25,883	 x25:0x80001a01 x19=0x80002634
        1045000	       103	00000000	00000013	addi	x0,x0,0	  x0:0x00000000
        1055000	       104	80001d74	00000013	addi	x0,x0,0	  x0:0x00000000
        1065000	       105	80001d78	01b38663	beq	x7,x27,80001d84	  x7:0x91dc35ca x27:0x9debc6cc
        1075000	       106	80001d7c	015a9db3	sll	x27,x21,x21	 x21:0x00000000 x21:0x00000000 x27=0x00000000
        1085000	       107	80001d80	f30dae13	slti	x28,x27,-208	 x27:0x00000000 x28=0x00000000
        1095000	       108	80001d84	fc4f0f13	addi	x30,x30,-60	 x30:0x80009f7c x30=0x80009f40
        1105000	       109	80001d88	01094db3	xor	x27,x18,x16	 x18:0x80000000 x16:0x80000000 x27=0x00000000
        1115000	       110	80001d8c	5fa572b7	lui	x5,0x5fa57	  x5=0x5fa57000
        1125000	       111	80001d90	00aca933	slt	x18,x25,x10	 x25:0x80001a01 x10:0x00000009 x18=0x00000001
        1135000	       112	80001d94	015e55b3	srl	x11,x28,x21	 x28:0x00000000 x21:0x00000000 x11=0x00000000
        1145000	       113	80001d98	013f2223	sw	x19,4(x30)	 x30:0x80009f40 x19:0x80002634 PA:0x80009f44
        1155000	       114	80001d9c	62959e17	auipc	x28,0x62959	 x28=0xe295ad98
        1165000	       115	80001da0	008881b3	add	x3,x17,x8	 x17:0x7ffffcee  x8:0x00010001  x3=0x8000fcef
        1175000	       116	80001da4	00b46833	or	x16,x8,x11	  x8:0x00010001 x11:0x00000000 x16=0x00010001
        1185000	       117	80001da8	ffd2ea93	ori	x21,x5,-3	  x5:0x5fa57000 x21=0xfffffffd
        1195000	       118	80001dac	01f76ab3	or	x21,x14,x31	 x14:0x00000000 x31:0x0000000b x21=0x0000000b
        1205000	       119	80001db0	014097b3	sll	x15,x1,x20	  x1:0x00000001 x20:0xfc217551 x15=0x00020000
        1215000	       120	80001db4	27f3b613	sltiu	x12,x7,639	  x7:0x91dc35ca x12=0x00000000
        1225000	       121	80001db8	30a436b7	lui	x13,0x30a43	 x13=0x30a43000
        1235000	       122	80001dbc	41700db3	sub	x27,x0,x23	  x0:0x00000000 x23:0x80009fc4 x27=0x7fff603c
        1245000	       123	80001dc0	40f98c33	sub	x24,x19,x15	 x19:0x80002634 x15:0x00020000 x24=0x7ffe2634
        1255000	       124	80001dc4	014fb6b3	sltu	x13,x31,x20	 x31:0x0000000b x20:0xfc217551 x13=0x00000001
        1265000	       125	80001dc8	db58b193	sltiu	x3,x17,-587	 x17:0x7ffffcee  x3=0x00000001
        1275000	       126	80001dcc	014bc933	xor	x18,x23,x20	 x23:0x80009fc4 x20:0xfc217551 x18=0x7c21ea95
        1285000	       127	80001dd0	01bc8263	beq	x25,x27,80001dd4	 x25:0x80001a01 x27:0x7fff603c
        1295000	       128	80001dd4	0092eab3	or	x21,x5,x9	  x5:0x5fa57000  x9:0x00000008 x21=0x5fa57008
        1305000	       129	80001dd8	004f2983	lw	x19,4(x30)	 x30:0x80009f40 x19=0x80002634 PA:0x80009f44
        1315000	       130	80001ddc	03cf0f13	addi	x30,x30,60	 x30:0x80009f40 x30=0x80009f7c
        1325000	       131	80001de0	015e4333	xor	x6,x28,x21	 x28:0xe295ad98 x21:0x5fa57008  x6=0xbd30dd90
        1335000	       132	80001de4	00d331b3	sltu	x3,x6,x13	  x6:0xbd30dd90 x13:0x00000001  x3=0x00000000
        1345000	       133	80001de8	0171bab3	sltu	x21,x3,x23	  x3:0x00000000 x23:0x80009fc4 x21=0x00000001
        1355000	       134	80001dec	00098613	addi	x12,x19,0	 x19:0x80002634 x12=0x80002634
        1365000	       135	80001df0	00060667	jalr	x12,x12,0	 x12:0x80002634 x12=0x80001df0
        1375000	       136	00000000	00000013	addi	x0,x0,0	  x0:0x00000000
        1385000	       137	80002634	00000013	addi	x0,x0,0	  x0:0x00000000
        1395000	       138	80002638	00da5113	srli	x2,x20,0xd	 x20:0xfc217551  x2=0x0007e10b
        1405000	       139	8000263c	00b95833	srl	x16,x18,x11	 x18:0x7c21ea95 x11:0x00000000 x16=0x7c21ea95
        1415000	       140	80002640	7fbda493	slti	x9,x27,2043	 x27:0x7fff603c  x9=0x00000000
        1425000	       141	80002644	01895d33	srl	x26,x18,x24	 x18:0x7c21ea95 x24:0x7ffe2634 x26=0x000007c2
        1435000	       142	80002648	018ee863	bltu	x29,x24,80002658	 x29:0xfee58a12 x24:0x7ffe2634
        1445000	       143	8000264c	01038663	beq	x7,x16,80002658	  x7:0x91dc35ca x16:0x7c21ea95
        1455000	       144	80002650	4aefb493	sltiu	x9,x31,1198	 x31:0x0000000b  x9=0x00000001
        1465000	       145	80002654	ed1ef117	auipc	x2,0xed1ef	  x2=0x6d1f1650
        1475000	       146	80002658	010ccfb3	xor	x31,x25,x16	 x25:0x80001a01 x16:0x7c21ea95 x31=0xfc21f094
        1485000	       147	8000265c	004f2983	lw	x19,4(x30)	 x30:0x80009f7c x19=0x8000013c PA:0x80009f80
        1495000	       148	80002660	008f0f13	addi	x30,x30,8	 x30:0x80009f7c x30=0x80009f84
        1505000	       149	80002664	002d4533	xor	x10,x26,x2	 x26:0x000007c2  x2:0x6d1f1650 x10=0x6d1f1192
        1515000	       150	80002668	0014edb3	or	x27,x9,x1	  x9:0x00000001  x1:0x00000001 x27=0x00000001
        1525000	       151	8000266c	40b80633	sub	x12,x16,x11	 x16:0x7c21ea95 x11:0x00000000 x12=0x7c21ea95
        1535000	       152	80002670	462bb413	sltiu	x8,x23,1122	 x23:0x80009fc4  x8=0x00000000
        1545000	       153	80002674	38012013	slti	x0,x2,896	  x2:0x6d1f1650
        1555000	       154	80002678	67047913	andi	x18,x8,1648	  x8:0x00000000 x18=0x00000000
        1565000	       155	8000267c	df17c793	xori	x15,x15,-527	 x15:0x00020000 x15=0xfffdfdf1
        1575000	       156	80002680	00198493	addi	x9,x19,1	 x19:0x8000013c  x9=0x8000013d
        1585000	       157	80002684	000484e7	jalr	x9,x9,0	  x9:0x8000013d  x9=0x80002684
        1595000	       158	00000000	00000013	addi	x0,x0,0	  x0:0x00000000
        1605000	       159	8000013c	00000013	addi	x0,x0,0	  x0:0x00000000
        1615000	       160	80000140	00a00d13	addi	x26,x0,10	  x0:0x00000000 x26=0x0000000a
        1625000	       161	80000144	0193d4b3	srl	x9,x7,x25	  x7:0x91dc35ca x25:0x80001a01  x9=0x48ee1ae5
        1635000	       162	80000148	b0854593	xori	x11,x10,-1272	 x10:0x6d1f1192 x11=0x92e0ea9a
        1645000	       163	8000014c	00a00113	addi	x2,x0,10	  x0:0x00000000  x2=0x0000000a
        1655000	       164	80000150	00e400b3	add	x1,x8,x14	  x8:0x00000000 x14:0x00000000  x1=0x00000000
        1665000	       165	80000154	0001f4b3	and	x9,x3,x0	  x3:0x00000000  x0:0x00000000  x9=0x00000000
        1675000	       166	80000158	d4865837	lui	x16,0xd4865	 x16=0xd4865000
        1685000	       167	8000015c	00f02833	slt	x16,x0,x15	  x0:0x00000000 x15:0xfffdfdf1 x16=0x00000000
        1695000	       168	80000160	ff7d0d13	addi	x26,x26,-9	 x26:0x0000000a x26=0x00000001
        1705000	       169	80000164	37f32093	slti	x1,x6,895	  x6:0xbd30dd90  x1=0x00000001
        1715000	       170	80000168	22b7f693	andi	x13,x15,555	 x15:0xfffdfdf1 x13=0x00000021
        1725000	       171	8000016c	00a00613	addi	x12,x0,10	  x0:0x00000000 x12=0x0000000a
        1735000	       172	80000170	00761c93	slli	x25,x12,0x7	 x12:0x0000000a x25=0x00000500
        1745000	       173	80000174	ffd40f93	addi	x31,x8,-3	  x8:0x00000000 x31=0xfffffffd
        1755000	       174	80000178	003a28b3	slt	x17,x20,x3	 x20:0xfc217551  x3:0x00000000 x17=0x00000001
        1765000	       175	8000017c	01200713	addi	x14,x0,18	  x0:0x00000000 x14=0x00000012
        1775000	       176	80000180	00e6f933	and	x18,x13,x14	 x13:0x00000021 x14:0x00000012 x18=0x00000000
        1785000	       177	80000184	008bffb3	and	x31,x23,x8	 x23:0x80009fc4  x8:0x00000000 x31=0x00000000
        1795000	       178	80000188	417187b3	sub	x15,x3,x23	  x3:0x00000000 x23:0x80009fc4 x15=0x7fff603c
        1805000	       179	8000018c	b2e9af93	slti	x31,x19,-1234	 x19:0x8000013c x31=0x00000001
        1815000	       180	80000190	0a676413	ori	x8,x14,166	 x14:0x00000012  x8=0x000000b6
        1825000	       181	80000194	a7d99d97	auipc	x27,0xa7d99	 x27=0x27d99190
        1835000	       182	80000198	012b86b3	add	x13,x23,x18	 x23:0x80009fc4 x18:0x00000000 x13=0x80009fc4
        1845000	       183	8000019c	00560613	addi	x12,x12,5	 x12:0x0000000a x12=0x0000000f
        1855000	       184	800001a0	00331933	sll	x18,x6,x3	  x6:0xbd30dd90  x3:0x00000000 x18=0xbd30dd90
        1865000	       185	800001a4	1f5ea697	auipc	x13,0x1f5ea	 x13=0x9f5ea1a0
        1875000	       186	800001a8	01b11593	slli	x11,x2,0x1b	  x2:0x0000000a x11=0x50000000
        1885000	       187	800001ac	019c2b33	slt	x22,x24,x25	 x24:0x7ffe2634 x25:0x00000500 x22=0x00000000
        1895000	       188	800001b0	fce64ce3	blt	x12,x14,80000188	 x12:0x0000000f x14:0x00000012
        1905000	       189	00000000	00000013	addi	x0,x0,0	  x0:0x00000000
        1915000	       190	80000184	00000013	addi	x0,x0,0	  x0:0x00000000
        1925000	       191	80000188	417187b3	sub	x15,x3,x23	  x3:0x00000000 x23:0x80009fc4 x15=0x7fff603c
        1935000	       192	8000018c	b2e9af93	slti	x31,x19,-1234	 x19:0x8000013c x31=0x00000001
        1945000	       193	80000190	0a676413	ori	x8,x14,166	 x14:0x00000012  x8=0x000000b6
        1955000	       194	80000194	a7d99d97	auipc	x27,0xa7d99	 x27=0x27d99190
        1965000	       195	80000198	012b86b3	add	x13,x23,x18	 x23:0x80009fc4 x18:0xbd30dd90 x13=0x3d317d54
        1975000	       196	8000019c	00560613	addi	x12,x12,5	 x12:0x0000000f x12=0x00000014
        1985000	       197	800001a0	00331933	sll	x18,x6,x3	  x6:0xbd30dd90  x3:0x00000000 x18=0xbd30dd90
        1995000	       198	800001a4	1f5ea697	auipc	x13,0x1f5ea	 x13=0x9f5ea1a0
        2005000	       199	800001a8	01b11593	slli	x11,x2,0x1b	  x2:0x0000000a x11=0x50000000
        2015000	       200	800001ac	019c2b33	slt	x22,x24,x25	 x24:0x7ffe2634 x25:0x00000500 x22=0x00000000
        2025000	       201	800001b0	fce64ce3	blt	x12,x14,80000188	 x12:0x00000014 x14:0x00000012
        2035000	       202	800001b4	1cd12b17	auipc	x22,0x1cd12	 x22=0x9cd121b0
        2045000	       203	800001b8	012b8e33	add	x28,x23,x18	 x23:0x80009fc4 x18:0xbd30dd90 x28=0x3d317d54
        2055000	       204	800001bc	f82d7ee3	bgeu	x26,x2,80000158	 x26:0x00000001  x2:0x0000000a
        2065000	       205	800001c0	67f6ce93	xori	x29,x13,1663	 x13:0x9f5ea1a0 x29=0x9f5ea7df
        2075000	       206	800001c4	ff700313	addi	x6,x0,-9	  x0:0x00000000  x6=0xfffffff7
        2085000	       207	800001c8	401652b3	sra	x5,x12,x1	 x12:0x00000014  x1:0x00000001  x5=0x0000000a
        2095000	       208	800001cc	01300493	addi	x9,x0,19	  x0:0x00000000  x9=0x00000013
        2105000	       209	800001d0	0123d193	srli	x3,x7,0x12	  x7:0x91dc35ca  x3=0x00002477
        2115000	       210	800001d4	016c6fb3	or	x31,x24,x22	 x24:0x7ffe2634 x22:0x9cd121b0 x31=0xffff27b4
        2125000	       211	800001d8	0184a133	slt	x2,x9,x24	  x9:0x00000013 x24:0x7ffe2634  x2=0x00000001
        2135000	       212	800001dc	00930313	addi	x6,x6,9	  x6:0xfffffff7  x6=0x00000000
        2145000	       213	800001e0	00500613	addi	x12,x0,5	  x0:0x00000000 x12=0x00000005
        2155000	       214	800001e4	0115be33	sltu	x28,x11,x17	 x11:0x50000000 x17:0x00000001 x28=0x00000000
        2165000	       215	800001e8	00500033	add	x0,x0,x5	  x0:0x00000000  x5:0x0000000a
        2175000	       216	800001ec	ff600813	addi	x16,x0,-10	  x0:0x00000000 x16=0xfffffff6
        2185000	       217	800001f0	81fcca93	xori	x21,x25,-2017	 x25:0x00000500 x21=0xfffffd1f
        2195000	       218	800001f4	900ce093	ori	x1,x25,-1792	 x25:0x00000500  x1=0xfffffd00
        2205000	       219	800001f8	ffb60613	addi	x12,x12,-5	 x12:0x00000005 x12=0x00000000
        2215000	       220	800001fc	ff060ae3	beq	x12,x16,800001f0	 x12:0x00000000 x16:0xfffffff6
        2225000	       221	80000200	01f82b33	slt	x22,x16,x31	 x16:0xfffffff6 x31:0xffff27b4 x22=0x00000000
        2235000	       222	80000204	4065d1b3	sra	x3,x11,x6	 x11:0x50000000  x6:0x00000000  x3=0x50000000
        2245000	       223	80000208	51393213	sltiu	x4,x18,1299	 x18:0xbd30dd90  x4=0x00000000
        2255000	       224	8000020c	01f89033	sll	x0,x17,x31	 x17:0x00000001 x31:0xffff27b4
        2265000	       225	80000210	488c8713	addi	x14,x25,1160	 x25:0x00000500 x14=0x00000988
        2275000	       226	80000214	fc9340e3	blt	x6,x9,800001d4	  x6:0x00000000  x9:0x00000013
        2285000	       227	00000000	00000013	addi	x0,x0,0	  x0:0x00000000
        2295000	       228	800001d0	00000013	addi	x0,x0,0	  x0:0x00000000
        2305000	       229	800001d4	016c6fb3	or	x31,x24,x22	 x24:0x7ffe2634 x22:0x00000000 x31=0x7ffe2634
        2315000	       230	800001d8	0184a133	slt	x2,x9,x24	  x9:0x00000013 x24:0x7ffe2634  x2=0x00000001
        2325000	       231	800001dc	00930313	addi	x6,x6,9	  x6:0x00000000  x6=0x00000009
        2335000	       232	800001e0	00500613	addi	x12,x0,5	  x0:0x00000000 x12=0x00000005
        2345000	       233	800001e4	0115be33	sltu	x28,x11,x17	 x11:0x50000000 x17:0x00000001 x28=0x00000000
        2355000	       234	800001e8	00500033	add	x0,x0,x5	  x0:0x00000000  x5:0x0000000a
        2365000	       235	800001ec	ff600813	addi	x16,x0,-10	  x0:0x00000000 x16=0xfffffff6
        2375000	       236	800001f0	81fcca93	xori	x21,x25,-2017	 x25:0x00000500 x21=0xfffffd1f
        2385000	       237	800001f4	900ce093	ori	x1,x25,-1792	 x25:0x00000500  x1=0xfffffd00
        2395000	       238	800001f8	ffb60613	addi	x12,x12,-5	 x12:0x00000005 x12=0x00000000
        2405000	       239	800001fc	ff060ae3	beq	x12,x16,800001f0	 x12:0x00000000 x16:0xfffffff6
        2415000	       240	80000200	01f82b33	slt	x22,x16,x31	 x16:0xfffffff6 x31:0x7ffe2634 x22=0x00000001
        2425000	       241	80000204	4065d1b3	sra	x3,x11,x6	 x11:0x50000000  x6:0x00000009  x3=0x00280000
        2435000	       242	80000208	51393213	sltiu	x4,x18,1299	 x18:0xbd30dd90  x4=0x00000000
        2445000	       243	8000020c	01f89033	sll	x0,x17,x31	 x17:0x00000001 x31:0x7ffe2634
        2455000	       244	80000210	488c8713	addi	x14,x25,1160	 x25:0x00000500 x14=0x00000988
        2465000	       245	80000214	fc9340e3	blt	x6,x9,800001d4	  x6:0x00000009  x9:0x00000013
        2475000	       246	00000000	00000013	addi	x0,x0,0	  x0:0x00000000
        2485000	       247	800001d0	00000013	addi	x0,x0,0	  x0:0x00000000
        2495000	       248	800001d4	016c6fb3	or	x31,x24,x22	 x24:0x7ffe2634 x22:0x00000001 x31=0x7ffe2635
        2505000	       249	800001d8	0184a133	slt	x2,x9,x24	  x9:0x00000013 x24:0x7ffe2634  x2=0x00000001
        2515000	       250	800001dc	00930313	addi	x6,x6,9	  x6:0x00000009  x6=0x00000012
        2525000	       251	800001e0	00500613	addi	x12,x0,5	  x0:0x00000000 x12=0x00000005
        2535000	       252	800001e4	0115be33	sltu	x28,x11,x17	 x11:0x50000000 x17:0x00000001 x28=0x00000000
        2545000	       253	800001e8	00500033	add	x0,x0,x5	  x0:0x00000000  x5:0x0000000a
        2555000	       254	800001ec	ff600813	addi	x16,x0,-10	  x0:0x00000000 x16=0xfffffff6
        2565000	       255	800001f0	81fcca93	xori	x21,x25,-2017	 x25:0x00000500 x21=0xfffffd1f
        2575000	       256	800001f4	900ce093	ori	x1,x25,-1792	 x25:0x00000500  x1=0xfffffd00
        2585000	       257	800001f8	ffb60613	addi	x12,x12,-5	 x12:0x00000005 x12=0x00000000
        2595000	       258	800001fc	ff060ae3	beq	x12,x16,800001f0	 x12:0x00000000 x16:0xfffffff6
        2605000	       259	80000200	01f82b33	slt	x22,x16,x31	 x16:0xfffffff6 x31:0x7ffe2635 x22=0x00000001
        2615000	       260	80000204	4065d1b3	sra	x3,x11,x6	 x11:0x50000000  x6:0x00000012  x3=0x00001400
        2625000	       261	80000208	51393213	sltiu	x4,x18,1299	 x18:0xbd30dd90  x4=0x00000000
        2635000	       262	8000020c	01f89033	sll	x0,x17,x31	 x17:0x00000001 x31:0x7ffe2635
        2645000	       263	80000210	488c8713	addi	x14,x25,1160	 x25:0x00000500 x14=0x00000988
        2655000	       264	80000214	fc9340e3	blt	x6,x9,800001d4	  x6:0x00000012  x9:0x00000013
        2665000	       265	00000000	00000013	addi	x0,x0,0	  x0:0x00000000
        2675000	       266	800001d0	00000013	addi	x0,x0,0	  x0:0x00000000
        2685000	       267	800001d4	016c6fb3	or	x31,x24,x22	 x24:0x7ffe2634 x22:0x00000001 x31=0x7ffe2635
        2695000	       268	800001d8	0184a133	slt	x2,x9,x24	  x9:0x00000013 x24:0x7ffe2634  x2=0x00000001
        2705000	       269	800001dc	00930313	addi	x6,x6,9	  x6:0x00000012  x6=0x0000001b
        2715000	       270	800001e0	00500613	addi	x12,x0,5	  x0:0x00000000 x12=0x00000005
        2725000	       271	800001e4	0115be33	sltu	x28,x11,x17	 x11:0x50000000 x17:0x00000001 x28=0x00000000
        2735000	       272	800001e8	00500033	add	x0,x0,x5	  x0:0x00000000  x5:0x0000000a
        2745000	       273	800001ec	ff600813	addi	x16,x0,-10	  x0:0x00000000 x16=0xfffffff6
        2755000	       274	800001f0	81fcca93	xori	x21,x25,-2017	 x25:0x00000500 x21=0xfffffd1f
        2765000	       275	800001f4	900ce093	ori	x1,x25,-1792	 x25:0x00000500  x1=0xfffffd00
        2775000	       276	800001f8	ffb60613	addi	x12,x12,-5	 x12:0x00000005 x12=0x00000000
        2785000	       277	800001fc	ff060ae3	beq	x12,x16,800001f0	 x12:0x00000000 x16:0xfffffff6
        2795000	       278	80000200	01f82b33	slt	x22,x16,x31	 x16:0xfffffff6 x31:0x7ffe2635 x22=0x00000001
        2805000	       279	80000204	4065d1b3	sra	x3,x11,x6	 x11:0x50000000  x6:0x0000001b  x3=0x0000000a
        2815000	       280	80000208	51393213	sltiu	x4,x18,1299	 x18:0xbd30dd90  x4=0x00000000
        2825000	       281	8000020c	01f89033	sll	x0,x17,x31	 x17:0x00000001 x31:0x7ffe2635
        2835000	       282	80000210	488c8713	addi	x14,x25,1160	 x25:0x00000500 x14=0x00000988
        2845000	       283	80000214	fc9340e3	blt	x6,x9,800001d4	  x6:0x0000001b  x9:0x00000013
        2855000	       284	80000218	00668d33	add	x26,x13,x6	 x13:0x9f5ea1a0  x6:0x0000001b x26=0x9f5ea1bb
        2865000	       285	8000021c	00a00993	addi	x19,x0,10	  x0:0x00000000 x19=0x0000000a
        2875000	       286	80000220	009c34b3	sltu	x9,x24,x9	 x24:0x7ffe2634  x9:0x00000013  x9=0x00000000
        2885000	       287	80000224	014b24b3	slt	x9,x22,x20	 x22:0x00000001 x20:0xfc217551  x9=0x00000000
        2895000	       288	80000228	003ebeb3	sltu	x29,x29,x3	 x29:0x9f5ea7df  x3:0x0000000a x29=0x00000000
        2905000	       289	8000022c	00a00f93	addi	x31,x0,10	  x0:0x00000000 x31=0x0000000a
        2915000	       290	80000230	f007c897	auipc	x17,0xf007c	 x17=0x7007c22c
        2925000	       291	80000234	00b09db3	sll	x27,x1,x11	  x1:0xfffffd00 x11:0x50000000 x27=0xfffffd00
        2935000	       292	80000238	bfc93693	sltiu	x13,x18,-1028	 x18:0xbd30dd90 x13=0x00000001
        2945000	       293	8000023c	2dfbfc13	andi	x24,x23,735	 x23:0x80009fc4 x24=0x000002c4
        2955000	       294	80000240	00000013	addi	x0,x0,0	  x0:0x00000000
        2965000	       295	80000244	ff898993	addi	x19,x19,-8	 x19:0x0000000a x19=0x00000002
        2975000	       296	80000248	00c294b3	sll	x9,x5,x12	  x5:0x0000000a x12:0x00000000  x9=0x0000000a
        2985000	       297	8000024c	9e53f2b7	lui	x5,0x9e53f	  x5=0x9e53f000
        2995000	       298	80000250	fff9f0e3	bgeu	x19,x31,80000230	 x19:0x00000002 x31:0x0000000a
        3005000	       299	80000254	013e2ab3	slt	x21,x28,x19	 x28:0x00000000 x19:0x00000002 x21=0x00000001
        3015000	       300	80000258	00200993	addi	x19,x0,2	  x0:0x00000000 x19=0x00000002
        3025000	       301	8000025c	00c00813	addi	x16,x0,12	  x0:0x00000000 x16=0x0000000c
        3035000	       302	80000260	005fc433	xor	x8,x31,x5	 x31:0x0000000a  x5:0x9e53f000  x8=0x9e53f00a
        3045000	       303	80000264	00398993	addi	x19,x19,3	 x19:0x00000002 x19=0x00000005
        3055000	       304	80000268	00800793	addi	x15,x0,8	  x0:0x00000000 x15=0x00000008
        3065000	       305	8000026c	00b00193	addi	x3,x0,11	  x0:0x00000000  x3=0x0000000b
        3075000	       306	80000270	71a00293	addi	x5,x0,1818	  x0:0x00000000  x5=0x0000071a
        3085000	       307	80000274	00a78793	addi	x15,x15,10	 x15:0x00000008 x15=0x00000012
        3095000	       308	80000278	fe37ece3	bltu	x15,x3,80000270	 x15:0x00000012  x3:0x0000000b
        3105000	       309	8000027c	ff09c2e3	blt	x19,x16,80000260	 x19:0x00000005 x16:0x0000000c
        3115000	       310	00000000	00000013	addi	x0,x0,0	  x0:0x00000000
        3125000	       311	8000025c	00000013	addi	x0,x0,0	  x0:0x00000000
        3135000	       312	80000260	005fc433	xor	x8,x31,x5	 x31:0x0000000a  x5:0x0000071a  x8=0x00000710
        3145000	       313	80000264	00398993	addi	x19,x19,3	 x19:0x00000005 x19=0x00000008
        3155000	       314	80000268	00800793	addi	x15,x0,8	  x0:0x00000000 x15=0x00000008
        3165000	       315	8000026c	00b00193	addi	x3,x0,11	  x0:0x00000000  x3=0x0000000b
        3175000	       316	80000270	71a00293	addi	x5,x0,1818	  x0:0x00000000  x5=0x0000071a
        3185000	       317	80000274	00a78793	addi	x15,x15,10	 x15:0x00000008 x15=0x00000012
        3195000	       318	80000278	fe37ece3	bltu	x15,x3,80000270	 x15:0x00000012  x3:0x0000000b
        3205000	       319	8000027c	ff09c2e3	blt	x19,x16,80000260	 x19:0x00000008 x16:0x0000000c
        3215000	       320	00000000	00000013	addi	x0,x0,0	  x0:0x00000000
        3225000	       321	8000025c	00000013	addi	x0,x0,0	  x0:0x00000000
        3235000	       322	80000260	005fc433	xor	x8,x31,x5	 x31:0x0000000a  x5:0x0000071a  x8=0x00000710
        3245000	       323	80000264	00398993	addi	x19,x19,3	 x19:0x00000008 x19=0x0000000b
        3255000	       324	80000268	00800793	addi	x15,x0,8	  x0:0x00000000 x15=0x00000008
        3265000	       325	8000026c	00b00193	addi	x3,x0,11	  x0:0x00000000  x3=0x0000000b
        3275000	       326	80000270	71a00293	addi	x5,x0,1818	  x0:0x00000000  x5=0x0000071a
        3285000	       327	80000274	00a78793	addi	x15,x15,10	 x15:0x00000008 x15=0x00000012
        3295000	       328	80000278	fe37ece3	bltu	x15,x3,80000270	 x15:0x00000012  x3:0x0000000b
        3305000	       329	8000027c	ff09c2e3	blt	x19,x16,80000260	 x19:0x0000000b x16:0x0000000c
        3315000	       330	00000000	00000013	addi	x0,x0,0	  x0:0x00000000
        3325000	       331	8000025c	00000013	addi	x0,x0,0	  x0:0x00000000
        3335000	       332	80000260	005fc433	xor	x8,x31,x5	 x31:0x0000000a  x5:0x0000071a  x8=0x00000710
        3345000	       333	80000264	00398993	addi	x19,x19,3	 x19:0x0000000b x19=0x0000000e
        3355000	       334	80000268	00800793	addi	x15,x0,8	  x0:0x00000000 x15=0x00000008
        3365000	       335	8000026c	00b00193	addi	x3,x0,11	  x0:0x00000000  x3=0x0000000b
        3375000	       336	80000270	71a00293	addi	x5,x0,1818	  x0:0x00000000  x5=0x0000071a
        3385000	       337	80000274	00a78793	addi	x15,x15,10	 x15:0x00000008 x15=0x00000012
        3395000	       338	80000278	fe37ece3	bltu	x15,x3,80000270	 x15:0x00000012  x3:0x0000000b
        3405000	       339	8000027c	ff09c2e3	blt	x19,x16,80000260	 x19:0x0000000e x16:0x0000000c
        3415000	       340	80000280	010d6233	or	x4,x26,x16	 x26:0x9f5ea1bb x16:0x0000000c  x4=0x9f5ea1bf
        3425000	       341	80000284	00600893	addi	x17,x0,6	  x0:0x00000000 x17=0x00000006
        3435000	       342	80000288	001cda93	srli	x21,x25,0x1	 x25:0x00000500 x21=0x00000280
        3445000	       343	8000028c	0179d633	srl	x12,x19,x23	 x19:0x0000000e x23:0x80009fc4 x12=0x00000000
        3455000	       344	80000290	1ecfca93	xori	x21,x31,492	 x31:0x0000000a x21=0x000001e6
        3465000	       345	80000294	db3c7337	lui	x6,0xdb3c7	  x6=0xdb3c7000
        3475000	       346	80000298	01000693	addi	x13,x0,16	  x0:0x00000000 x13=0x00000010
        3485000	       347	8000029c	00075793	srli	x15,x14,0x0	 x14:0x00000988 x15=0x00000988
        3495000	       348	800002a0	400c5db3	sra	x27,x24,x0	 x24:0x000002c4  x0:0x00000000 x27=0x000002c4
        3505000	       349	800002a4	00184733	xor	x14,x16,x1	 x16:0x0000000c  x1:0xfffffd00 x14=0xfffffd0c
        3515000	       350	800002a8	016854b3	srl	x9,x16,x22	 x16:0x0000000c x22:0x00000001  x9=0x00000006
        3525000	       351	800002ac	41c88e33	sub	x28,x17,x28	 x17:0x00000006 x28:0x00000000 x28=0x00000006
        3535000	       352	800002b0	41b75313	srai	x6,x14,0x1b	 x14:0xfffffd0c  x6=0xffffffff
        3545000	       353	800002b4	e0f58a13	addi	x20,x11,-497	 x11:0x50000000 x20=0x4ffffe0f
        3555000	       354	800002b8	7e18f7b7	lui	x15,0x7e18f	 x15=0x7e18f000
        3565000	       355	800002bc	01d6fa33	and	x20,x13,x29	 x13:0x00000010 x29:0x00000000 x20=0x00000000
        3575000	       356	800002c0	40b5d1b3	sra	x3,x11,x11	 x11:0x50000000 x11:0x50000000  x3=0x50000000
        3585000	       357	800002c4	009ac833	xor	x16,x21,x9	 x21:0x000001e6  x9:0x00000006 x16=0x000001e0
        3595000	       358	800002c8	03e4f913	andi	x18,x9,62	  x9:0x00000006 x18=0x00000006
        3605000	       359	800002cc	bb046793	ori	x15,x8,-1104	  x8:0x00000710 x15=0xffffffb0
        3615000	       360	800002d0	001f9d93	slli	x27,x31,0x1	 x31:0x0000000a x27=0x00000014
        3625000	       361	800002d4	00eec633	xor	x12,x29,x14	 x29:0x00000000 x14:0xfffffd0c x12=0xfffffd0c
        3635000	       362	800002d8	00588893	addi	x17,x17,5	 x17:0x00000006 x17=0x0000000b
        3645000	       363	800002dc	419f0e33	sub	x28,x30,x25	 x30:0x80009f84 x25:0x00000500 x28=0x80009a84
        3655000	       364	800002e0	edd00413	addi	x8,x0,-291	  x0:0x00000000  x8=0xfffffedd
        3665000	       365	800002e4	091eca13	xori	x20,x29,145	 x29:0x00000000 x20=0x00000091
        3675000	       366	800002e8	007d61b3	or	x3,x26,x7	 x26:0x9f5ea1bb  x7:0x91dc35ca  x3=0x9fdeb5fb
        3685000	       367	800002ec	fcd8e0e3	bltu	x17,x13,800002ac	 x17:0x0000000b x13:0x00000010
        3695000	       368	00000000	00000013	addi	x0,x0,0	  x0:0x00000000
        3705000	       369	800002a8	00000013	addi	x0,x0,0	  x0:0x00000000
        3715000	       370	800002ac	41c88e33	sub	x28,x17,x28	 x17:0x0000000b x28:0x80009a84 x28=0x7fff6587
        3725000	       371	800002b0	41b75313	srai	x6,x14,0x1b	 x14:0xfffffd0c  x6=0xffffffff
        3735000	       372	800002b4	e0f58a13	addi	x20,x11,-497	 x11:0x50000000 x20=0x4ffffe0f
        3745000	       373	800002b8	7e18f7b7	lui	x15,0x7e18f	 x15=0x7e18f000
        3755000	       374	800002bc	01d6fa33	and	x20,x13,x29	 x13:0x00000010 x29:0x00000000 x20=0x00000000
        3765000	       375	800002c0	40b5d1b3	sra	x3,x11,x11	 x11:0x50000000 x11:0x50000000  x3=0x50000000
        3775000	       376	800002c4	009ac833	xor	x16,x21,x9	 x21:0x000001e6  x9:0x00000006 x16=0x000001e0
        3785000	       377	800002c8	03e4f913	andi	x18,x9,62	  x9:0x00000006 x18=0x00000006
        3795000	       378	800002cc	bb046793	ori	x15,x8,-1104	  x8:0xfffffedd x15=0xfffffffd
        3805000	       379	800002d0	001f9d93	slli	x27,x31,0x1	 x31:0x0000000a x27=0x00000014
        3815000	       380	800002d4	00eec633	xor	x12,x29,x14	 x29:0x00000000 x14:0xfffffd0c x12=0xfffffd0c
        3825000	       381	800002d8	00588893	addi	x17,x17,5	 x17:0x0000000b x17=0x00000010
        3835000	       382	800002dc	419f0e33	sub	x28,x30,x25	 x30:0x80009f84 x25:0x00000500 x28=0x80009a84
        3845000	       383	800002e0	edd00413	addi	x8,x0,-291	  x0:0x00000000  x8=0xfffffedd
        3855000	       384	800002e4	091eca13	xori	x20,x29,145	 x29:0x00000000 x20=0x00000091
        3865000	       385	800002e8	007d61b3	or	x3,x26,x7	 x26:0x9f5ea1bb  x7:0x91dc35ca  x3=0x9fdeb5fb
        3875000	       386	800002ec	fcd8e0e3	bltu	x17,x13,800002ac	 x17:0x00000010 x13:0x00000010
        3885000	       387	800002f0	00572133	slt	x2,x14,x5	 x14:0xfffffd0c  x5:0x0000071a  x2=0x00000001
        3895000	       388	800002f4	00300f93	addi	x31,x0,3	  x0:0x00000000 x31=0x00000003
        3905000	       389	800002f8	aa548113	addi	x2,x9,-1371	  x9:0x00000006  x2=0xfffffaab
        3915000	       390	800002fc	ff600613	addi	x12,x0,-10	  x0:0x00000000 x12=0xfffffff6
        3925000	       391	80000300	01aa44b3	xor	x9,x20,x26	 x20:0x00000091 x26:0x9f5ea1bb  x9=0x9f5ea12a
        3935000	       392	80000304	dab8c813	xori	x16,x17,-597	 x17:0x00000010 x16=0xfffffdbb
        3945000	       393	80000308	410582b3	sub	x5,x11,x16	 x11:0x50000000 x16:0xfffffdbb  x5=0x50000245
        3955000	       394	8000030c	ffdf8f93	addi	x31,x31,-3	 x31:0x00000003 x31=0x00000000
        3965000	       395	80000310	00600713	addi	x14,x0,6	  x0:0x00000000 x14=0x00000006
        3975000	       396	80000314	0b432097	auipc	x1,0xb432	  x1=0x8b432310
        3985000	       397	80000318	ff600c93	addi	x25,x0,-10	  x0:0x00000000 x25=0xfffffff6
        3995000	       398	8000031c	0094a033	slt	x0,x9,x9	  x9:0x9f5ea12a  x9:0x9f5ea12a
        4005000	       399	80000320	00427933	and	x18,x4,x4	  x4:0x9f5ea1bf  x4:0x9f5ea1bf x18=0x9f5ea1bf
        4015000	       400	80000324	e5308113	addi	x2,x1,-429	  x1:0x8b432310  x2=0x8b432163
        4025000	       401	80000328	fff70713	addi	x14,x14,-1	 x14:0x00000006 x14=0x00000005
        4035000	       402	8000032c	ff975ae3	bge	x14,x25,80000320	 x14:0x00000005 x25:0xfffffff6
        4045000	       403	00000000	00000013	addi	x0,x0,0	  x0:0x00000000
        4055000	       404	8000031c	00000013	addi	x0,x0,0	  x0:0x00000000
        4065000	       405	80000320	00427933	and	x18,x4,x4	  x4:0x9f5ea1bf  x4:0x9f5ea1bf x18=0x9f5ea1bf
        4075000	       406	80000324	e5308113	addi	x2,x1,-429	  x1:0x8b432310  x2=0x8b432163
        4085000	       407	80000328	fff70713	addi	x14,x14,-1	 x14:0x00000005 x14=0x00000004
        4095000	       408	8000032c	ff975ae3	bge	x14,x25,80000320	 x14:0x00000004 x25:0xfffffff6
        4105000	       409	00000000	00000013	addi	x0,x0,0	  x0:0x00000000
        4115000	       410	8000031c	00000013	addi	x0,x0,0	  x0:0x00000000
        4125000	       411	80000320	00427933	and	x18,x4,x4	  x4:0x9f5ea1bf  x4:0x9f5ea1bf x18=0x9f5ea1bf
        4135000	       412	80000324	e5308113	addi	x2,x1,-429	  x1:0x8b432310  x2=0x8b432163
        4145000	       413	80000328	fff70713	addi	x14,x14,-1	 x14:0x00000004 x14=0x00000003
        4155000	       414	8000032c	ff975ae3	bge	x14,x25,80000320	 x14:0x00000003 x25:0xfffffff6
        4165000	       415	00000000	00000013	addi	x0,x0,0	  x0:0x00000000
        4175000	       416	8000031c	00000013	addi	x0,x0,0	  x0:0x00000000
        4185000	       417	80000320	00427933	and	x18,x4,x4	  x4:0x9f5ea1bf  x4:0x9f5ea1bf x18=0x9f5ea1bf
        4195000	       418	80000324	e5308113	addi	x2,x1,-429	  x1:0x8b432310  x2=0x8b432163
        4205000	       419	80000328	fff70713	addi	x14,x14,-1	 x14:0x00000003 x14=0x00000002
        4215000	       420	8000032c	ff975ae3	bge	x14,x25,80000320	 x14:0x00000002 x25:0xfffffff6
        4225000	       421	00000000	00000013	addi	x0,x0,0	  x0:0x00000000
        4235000	       422	8000031c	00000013	addi	x0,x0,0	  x0:0x00000000
        4245000	       423	80000320	00427933	and	x18,x4,x4	  x4:0x9f5ea1bf  x4:0x9f5ea1bf x18=0x9f5ea1bf
        4255000	       424	80000324	e5308113	addi	x2,x1,-429	  x1:0x8b432310  x2=0x8b432163
        4265000	       425	80000328	fff70713	addi	x14,x14,-1	 x14:0x00000002 x14=0x00000001
        4275000	       426	8000032c	ff975ae3	bge	x14,x25,80000320	 x14:0x00000001 x25:0xfffffff6
        4285000	       427	00000000	00000013	addi	x0,x0,0	  x0:0x00000000
        4295000	       428	8000031c	00000013	addi	x0,x0,0	  x0:0x00000000
        4305000	       429	80000320	00427933	and	x18,x4,x4	  x4:0x9f5ea1bf  x4:0x9f5ea1bf x18=0x9f5ea1bf
        4315000	       430	80000324	e5308113	addi	x2,x1,-429	  x1:0x8b432310  x2=0x8b432163
        4325000	       431	80000328	fff70713	addi	x14,x14,-1	 x14:0x00000001 x14=0x00000000
        4335000	       432	8000032c	ff975ae3	bge	x14,x25,80000320	 x14:0x00000000 x25:0xfffffff6
        4345000	       433	00000000	00000013	addi	x0,x0,0	  x0:0x00000000
        4355000	       434	8000031c	00000013	addi	x0,x0,0	  x0:0x00000000
        4365000	       435	80000320	00427933	and	x18,x4,x4	  x4:0x9f5ea1bf  x4:0x9f5ea1bf x18=0x9f5ea1bf
        4375000	       436	80000324	e5308113	addi	x2,x1,-429	  x1:0x8b432310  x2=0x8b432163
        4385000	       437	80000328	fff70713	addi	x14,x14,-1	 x14:0x00000000 x14=0xffffffff
        4395000	       438	8000032c	ff975ae3	bge	x14,x25,80000320	 x14:0xffffffff x25:0xfffffff6
        4405000	       439	00000000	00000013	addi	x0,x0,0	  x0:0x00000000
        4415000	       440	8000031c	00000013	addi	x0,x0,0	  x0:0x00000000
        4425000	       441	80000320	00427933	and	x18,x4,x4	  x4:0x9f5ea1bf  x4:0x9f5ea1bf x18=0x9f5ea1bf
        4435000	       442	80000324	e5308113	addi	x2,x1,-429	  x1:0x8b432310  x2=0x8b432163
        4445000	       443	80000328	fff70713	addi	x14,x14,-1	 x14:0xffffffff x14=0xfffffffe
        4455000	       444	8000032c	ff975ae3	bge	x14,x25,80000320	 x14:0xfffffffe x25:0xfffffff6
        4465000	       445	00000000	00000013	addi	x0,x0,0	  x0:0x00000000
        4475000	       446	8000031c	00000013	addi	x0,x0,0	  x0:0x00000000
        4485000	       447	80000320	00427933	and	x18,x4,x4	  x4:0x9f5ea1bf  x4:0x9f5ea1bf x18=0x9f5ea1bf
        4495000	       448	80000324	e5308113	addi	x2,x1,-429	  x1:0x8b432310  x2=0x8b432163
        4505000	       449	80000328	fff70713	addi	x14,x14,-1	 x14:0xfffffffe x14=0xfffffffd
        4515000	       450	8000032c	ff975ae3	bge	x14,x25,80000320	 x14:0xfffffffd x25:0xfffffff6
        4525000	       451	00000000	00000013	addi	x0,x0,0	  x0:0x00000000
        4535000	       452	8000031c	00000013	addi	x0,x0,0	  x0:0x00000000
        4545000	       453	80000320	00427933	and	x18,x4,x4	  x4:0x9f5ea1bf  x4:0x9f5ea1bf x18=0x9f5ea1bf
        4555000	       454	80000324	e5308113	addi	x2,x1,-429	  x1:0x8b432310  x2=0x8b432163
        4565000	       455	80000328	fff70713	addi	x14,x14,-1	 x14:0xfffffffd x14=0xfffffffc
        4575000	       456	8000032c	ff975ae3	bge	x14,x25,80000320	 x14:0xfffffffc x25:0xfffffff6
        4585000	       457	00000000	00000013	addi	x0,x0,0	  x0:0x00000000
        4595000	       458	8000031c	00000013	addi	x0,x0,0	  x0:0x00000000
        4605000	       459	80000320	00427933	and	x18,x4,x4	  x4:0x9f5ea1bf  x4:0x9f5ea1bf x18=0x9f5ea1bf
        4615000	       460	80000324	e5308113	addi	x2,x1,-429	  x1:0x8b432310  x2=0x8b432163
        4625000	       461	80000328	fff70713	addi	x14,x14,-1	 x14:0xfffffffc x14=0xfffffffb
        4635000	       462	8000032c	ff975ae3	bge	x14,x25,80000320	 x14:0xfffffffb x25:0xfffffff6
        4645000	       463	00000000	00000013	addi	x0,x0,0	  x0:0x00000000
        4655000	       464	8000031c	00000013	addi	x0,x0,0	  x0:0x00000000
        4665000	       465	80000320	00427933	and	x18,x4,x4	  x4:0x9f5ea1bf  x4:0x9f5ea1bf x18=0x9f5ea1bf
        4675000	       466	80000324	e5308113	addi	x2,x1,-429	  x1:0x8b432310  x2=0x8b432163
        4685000	       467	80000328	fff70713	addi	x14,x14,-1	 x14:0xfffffffb x14=0xfffffffa
        4695000	       468	8000032c	ff975ae3	bge	x14,x25,80000320	 x14:0xfffffffa x25:0xfffffff6
        4705000	       469	00000000	00000013	addi	x0,x0,0	  x0:0x00000000
        4715000	       470	8000031c	00000013	addi	x0,x0,0	  x0:0x00000000
        4725000	       471	80000320	00427933	and	x18,x4,x4	  x4:0x9f5ea1bf  x4:0x9f5ea1bf x18=0x9f5ea1bf
        4735000	       472	80000324	e5308113	addi	x2,x1,-429	  x1:0x8b432310  x2=0x8b432163
        4745000	       473	80000328	fff70713	addi	x14,x14,-1	 x14:0xfffffffa x14=0xfffffff9
        4755000	       474	8000032c	ff975ae3	bge	x14,x25,80000320	 x14:0xfffffff9 x25:0xfffffff6
        4765000	       475	00000000	00000013	addi	x0,x0,0	  x0:0x00000000
        4775000	       476	8000031c	00000013	addi	x0,x0,0	  x0:0x00000000
        4785000	       477	80000320	00427933	and	x18,x4,x4	  x4:0x9f5ea1bf  x4:0x9f5ea1bf x18=0x9f5ea1bf
        4795000	       478	80000324	e5308113	addi	x2,x1,-429	  x1:0x8b432310  x2=0x8b432163
        4805000	       479	80000328	fff70713	addi	x14,x14,-1	 x14:0xfffffff9 x14=0xfffffff8
        4815000	       480	8000032c	ff975ae3	bge	x14,x25,80000320	 x14:0xfffffff8 x25:0xfffffff6
        4825000	       481	00000000	00000013	addi	x0,x0,0	  x0:0x00000000
        4835000	       482	8000031c	00000013	addi	x0,x0,0	  x0:0x00000000
        4845000	       483	80000320	00427933	and	x18,x4,x4	  x4:0x9f5ea1bf  x4:0x9f5ea1bf x18=0x9f5ea1bf
        4855000	       484	80000324	e5308113	addi	x2,x1,-429	  x1:0x8b432310  x2=0x8b432163
        4865000	       485	80000328	fff70713	addi	x14,x14,-1	 x14:0xfffffff8 x14=0xfffffff7
        4875000	       486	8000032c	ff975ae3	bge	x14,x25,80000320	 x14:0xfffffff7 x25:0xfffffff6
        4885000	       487	00000000	00000013	addi	x0,x0,0	  x0:0x00000000
        4895000	       488	8000031c	00000013	addi	x0,x0,0	  x0:0x00000000
        4905000	       489	80000320	00427933	and	x18,x4,x4	  x4:0x9f5ea1bf  x4:0x9f5ea1bf x18=0x9f5ea1bf
        4915000	       490	80000324	e5308113	addi	x2,x1,-429	  x1:0x8b432310  x2=0x8b432163
        4925000	       491	80000328	fff70713	addi	x14,x14,-1	 x14:0xfffffff7 x14=0xfffffff6
        4935000	       492	8000032c	ff975ae3	bge	x14,x25,80000320	 x14:0xfffffff6 x25:0xfffffff6
        4945000	       493	00000000	00000013	addi	x0,x0,0	  x0:0x00000000
        4955000	       494	8000031c	00000013	addi	x0,x0,0	  x0:0x00000000
        4965000	       495	80000320	00427933	and	x18,x4,x4	  x4:0x9f5ea1bf  x4:0x9f5ea1bf x18=0x9f5ea1bf
        4975000	       496	80000324	e5308113	addi	x2,x1,-429	  x1:0x8b432310  x2=0x8b432163
        4985000	       497	80000328	fff70713	addi	x14,x14,-1	 x14:0xfffffff6 x14=0xfffffff5
        4995000	       498	8000032c	ff975ae3	bge	x14,x25,80000320	 x14:0xfffffff5 x25:0xfffffff6
        5005000	       499	80000330	fccfdae3	bge	x31,x12,80000304	 x31:0x00000000 x12:0xfffffff6
        5015000	       500	00000000	00000013	addi	x0,x0,0	  x0:0x00000000
        5025000	       501	80000300	00000013	addi	x0,x0,0	  x0:0x00000000
        5035000	       502	80000304	dab8c813	xori	x16,x17,-597	 x17:0x00000010 x16=0xfffffdbb
        5045000	       503	80000308	410582b3	sub	x5,x11,x16	 x11:0x50000000 x16:0xfffffdbb  x5=0x50000245
        5055000	       504	8000030c	ffdf8f93	addi	x31,x31,-3	 x31:0x00000000 x31=0xfffffffd
        5065000	       505	80000310	00600713	addi	x14,x0,6	  x0:0x00000000 x14=0x00000006
        5075000	       506	80000314	0b432097	auipc	x1,0xb432	  x1=0x8b432310
        5085000	       507	80000318	ff600c93	addi	x25,x0,-10	  x0:0x00000000 x25=0xfffffff6
        5095000	       508	8000031c	0094a033	slt	x0,x9,x9	  x9:0x9f5ea12a  x9:0x9f5ea12a
        5105000	       509	80000320	00427933	and	x18,x4,x4	  x4:0x9f5ea1bf  x4:0x9f5ea1bf x18=0x9f5ea1bf
        5115000	       510	80000324	e5308113	addi	x2,x1,-429	  x1:0x8b432310  x2=0x8b432163
        5125000	       511	80000328	fff70713	addi	x14,x14,-1	 x14:0x00000006 x14=0x00000005
        5135000	       512	8000032c	ff975ae3	bge	x14,x25,80000320	 x14:0x00000005 x25:0xfffffff6
        5145000	       513	00000000	00000013	addi	x0,x0,0	  x0:0x00000000
        5155000	       514	8000031c	00000013	addi	x0,x0,0	  x0:0x00000000
        5165000	       515	80000320	00427933	and	x18,x4,x4	  x4:0x9f5ea1bf  x4:0x9f5ea1bf x18=0x9f5ea1bf
        5175000	       516	80000324	e5308113	addi	x2,x1,-429	  x1:0x8b432310  x2=0x8b432163
        5185000	       517	80000328	fff70713	addi	x14,x14,-1	 x14:0x00000005 x14=0x00000004
        5195000	       518	8000032c	ff975ae3	bge	x14,x25,80000320	 x14:0x00000004 x25:0xfffffff6
        5205000	       519	00000000	00000013	addi	x0,x0,0	  x0:0x00000000
        5215000	       520	8000031c	00000013	addi	x0,x0,0	  x0:0x00000000
        5225000	       521	80000320	00427933	and	x18,x4,x4	  x4:0x9f5ea1bf  x4:0x9f5ea1bf x18=0x9f5ea1bf
        5235000	       522	80000324	e5308113	addi	x2,x1,-429	  x1:0x8b432310  x2=0x8b432163
        5245000	       523	80000328	fff70713	addi	x14,x14,-1	 x14:0x00000004 x14=0x00000003
        5255000	       524	8000032c	ff975ae3	bge	x14,x25,80000320	 x14:0x00000003 x25:0xfffffff6
        5265000	       525	00000000	00000013	addi	x0,x0,0	  x0:0x00000000
        5275000	       526	8000031c	00000013	addi	x0,x0,0	  x0:0x00000000
        5285000	       527	80000320	00427933	and	x18,x4,x4	  x4:0x9f5ea1bf  x4:0x9f5ea1bf x18=0x9f5ea1bf
        5295000	       528	80000324	e5308113	addi	x2,x1,-429	  x1:0x8b432310  x2=0x8b432163
        5305000	       529	80000328	fff70713	addi	x14,x14,-1	 x14:0x00000003 x14=0x00000002
        5315000	       530	8000032c	ff975ae3	bge	x14,x25,80000320	 x14:0x00000002 x25:0xfffffff6
        5325000	       531	00000000	00000013	addi	x0,x0,0	  x0:0x00000000
        5335000	       532	8000031c	00000013	addi	x0,x0,0	  x0:0x00000000
        5345000	       533	80000320	00427933	and	x18,x4,x4	  x4:0x9f5ea1bf  x4:0x9f5ea1bf x18=0x9f5ea1bf
        5355000	       534	80000324	e5308113	addi	x2,x1,-429	  x1:0x8b432310  x2=0x8b432163
        5365000	       535	80000328	fff70713	addi	x14,x14,-1	 x14:0x00000002 x14=0x00000001
        5375000	       536	8000032c	ff975ae3	bge	x14,x25,80000320	 x14:0x00000001 x25:0xfffffff6
        5385000	       537	00000000	00000013	addi	x0,x0,0	  x0:0x00000000
        5395000	       538	8000031c	00000013	addi	x0,x0,0	  x0:0x00000000
        5405000	       539	80000320	00427933	and	x18,x4,x4	  x4:0x9f5ea1bf  x4:0x9f5ea1bf x18=0x9f5ea1bf
        5415000	       540	80000324	e5308113	addi	x2,x1,-429	  x1:0x8b432310  x2=0x8b432163
        5425000	       541	80000328	fff70713	addi	x14,x14,-1	 x14:0x00000001 x14=0x00000000
        5435000	       542	8000032c	ff975ae3	bge	x14,x25,80000320	 x14:0x00000000 x25:0xfffffff6
        5445000	       543	00000000	00000013	addi	x0,x0,0	  x0:0x00000000
        5455000	       544	8000031c	00000013	addi	x0,x0,0	  x0:0x00000000
        5465000	       545	80000320	00427933	and	x18,x4,x4	  x4:0x9f5ea1bf  x4:0x9f5ea1bf x18=0x9f5ea1bf
        5475000	       546	80000324	e5308113	addi	x2,x1,-429	  x1:0x8b432310  x2=0x8b432163
        5485000	       547	80000328	fff70713	addi	x14,x14,-1	 x14:0x00000000 x14=0xffffffff
        5495000	       548	8000032c	ff975ae3	bge	x14,x25,80000320	 x14:0xffffffff x25:0xfffffff6
        5505000	       549	00000000	00000013	addi	x0,x0,0	  x0:0x00000000
        5515000	       550	8000031c	00000013	addi	x0,x0,0	  x0:0x00000000
        5525000	       551	80000320	00427933	and	x18,x4,x4	  x4:0x9f5ea1bf  x4:0x9f5ea1bf x18=0x9f5ea1bf
        5535000	       552	80000324	e5308113	addi	x2,x1,-429	  x1:0x8b432310  x2=0x8b432163
        5545000	       553	80000328	fff70713	addi	x14,x14,-1	 x14:0xffffffff x14=0xfffffffe
        5555000	       554	8000032c	ff975ae3	bge	x14,x25,80000320	 x14:0xfffffffe x25:0xfffffff6
        5565000	       555	00000000	00000013	addi	x0,x0,0	  x0:0x00000000
        5575000	       556	8000031c	00000013	addi	x0,x0,0	  x0:0x00000000
        5585000	       557	80000320	00427933	and	x18,x4,x4	  x4:0x9f5ea1bf  x4:0x9f5ea1bf x18=0x9f5ea1bf
        5595000	       558	80000324	e5308113	addi	x2,x1,-429	  x1:0x8b432310  x2=0x8b432163
        5605000	       559	80000328	fff70713	addi	x14,x14,-1	 x14:0xfffffffe x14=0xfffffffd
        5615000	       560	8000032c	ff975ae3	bge	x14,x25,80000320	 x14:0xfffffffd x25:0xfffffff6
        5625000	       561	00000000	00000013	addi	x0,x0,0	  x0:0x00000000
        5635000	       562	8000031c	00000013	addi	x0,x0,0	  x0:0x00000000
        5645000	       563	80000320	00427933	and	x18,x4,x4	  x4:0x9f5ea1bf  x4:0x9f5ea1bf x18=0x9f5ea1bf
        5655000	       564	80000324	e5308113	addi	x2,x1,-429	  x1:0x8b432310  x2=0x8b432163
        5665000	       565	80000328	fff70713	addi	x14,x14,-1	 x14:0xfffffffd x14=0xfffffffc
        5675000	       566	8000032c	ff975ae3	bge	x14,x25,80000320	 x14:0xfffffffc x25:0xfffffff6
        5685000	       567	00000000	00000013	addi	x0,x0,0	  x0:0x00000000
        5695000	       568	8000031c	00000013	addi	x0,x0,0	  x0:0x00000000
        5705000	       569	80000320	00427933	and	x18,x4,x4	  x4:0x9f5ea1bf  x4:0x9f5ea1bf x18=0x9f5ea1bf
        5715000	       570	80000324	e5308113	addi	x2,x1,-429	  x1:0x8b432310  x2=0x8b432163
        5725000	       571	80000328	fff70713	addi	x14,x14,-1	 x14:0xfffffffc x14=0xfffffffb
        5735000	       572	8000032c	ff975ae3	bge	x14,x25,80000320	 x14:0xfffffffb x25:0xfffffff6
        5745000	       573	00000000	00000013	addi	x0,x0,0	  x0:0x00000000
        5755000	       574	8000031c	00000013	addi	x0,x0,0	  x0:0x00000000
        5765000	       575	80000320	00427933	and	x18,x4,x4	  x4:0x9f5ea1bf  x4:0x9f5ea1bf x18=0x9f5ea1bf
        5775000	       576	80000324	e5308113	addi	x2,x1,-429	  x1:0x8b432310  x2=0x8b432163
        5785000	       577	80000328	fff70713	addi	x14,x14,-1	 x14:0xfffffffb x14=0xfffffffa
        5795000	       578	8000032c	ff975ae3	bge	x14,x25,80000320	 x14:0xfffffffa x25:0xfffffff6
        5805000	       579	00000000	00000013	addi	x0,x0,0	  x0:0x00000000
        5815000	       580	8000031c	00000013	addi	x0,x0,0	  x0:0x00000000
        5825000	       581	80000320	00427933	and	x18,x4,x4	  x4:0x9f5ea1bf  x4:0x9f5ea1bf x18=0x9f5ea1bf
        5835000	       582	80000324	e5308113	addi	x2,x1,-429	  x1:0x8b432310  x2=0x8b432163
        5845000	       583	80000328	fff70713	addi	x14,x14,-1	 x14:0xfffffffa x14=0xfffffff9
        5855000	       584	8000032c	ff975ae3	bge	x14,x25,80000320	 x14:0xfffffff9 x25:0xfffffff6
        5865000	       585	00000000	00000013	addi	x0,x0,0	  x0:0x00000000
        5875000	       586	8000031c	00000013	addi	x0,x0,0	  x0:0x00000000
        5885000	       587	80000320	00427933	and	x18,x4,x4	  x4:0x9f5ea1bf  x4:0x9f5ea1bf x18=0x9f5ea1bf
        5895000	       588	80000324	e5308113	addi	x2,x1,-429	  x1:0x8b432310  x2=0x8b432163
        5905000	       589	80000328	fff70713	addi	x14,x14,-1	 x14:0xfffffff9 x14=0xfffffff8
        5915000	       590	8000032c	ff975ae3	bge	x14,x25,80000320	 x14:0xfffffff8 x25:0xfffffff6
        5925000	       591	00000000	00000013	addi	x0,x0,0	  x0:0x00000000
        5935000	       592	8000031c	00000013	addi	x0,x0,0	  x0:0x00000000
        5945000	       593	80000320	00427933	and	x18,x4,x4	  x4:0x9f5ea1bf  x4:0x9f5ea1bf x18=0x9f5ea1bf
        5955000	       594	80000324	e5308113	addi	x2,x1,-429	  x1:0x8b432310  x2=0x8b432163
        5965000	       595	80000328	fff70713	addi	x14,x14,-1	 x14:0xfffffff8 x14=0xfffffff7
        5975000	       596	8000032c	ff975ae3	bge	x14,x25,80000320	 x14:0xfffffff7 x25:0xfffffff6
        5985000	       597	00000000	00000013	addi	x0,x0,0	  x0:0x00000000
        5995000	       598	8000031c	00000013	addi	x0,x0,0	  x0:0x00000000
        6005000	       599	80000320	00427933	and	x18,x4,x4	  x4:0x9f5ea1bf  x4:0x9f5ea1bf x18=0x9f5ea1bf
        6015000	       600	80000324	e5308113	addi	x2,x1,-429	  x1:0x8b432310  x2=0x8b432163
        6025000	       601	80000328	fff70713	addi	x14,x14,-1	 x14:0xfffffff7 x14=0xfffffff6
        6035000	       602	8000032c	ff975ae3	bge	x14,x25,80000320	 x14:0xfffffff6 x25:0xfffffff6
        6045000	       603	00000000	00000013	addi	x0,x0,0	  x0:0x00000000
        6055000	       604	8000031c	00000013	addi	x0,x0,0	  x0:0x00000000
        6065000	       605	80000320	00427933	and	x18,x4,x4	  x4:0x9f5ea1bf  x4:0x9f5ea1bf x18=0x9f5ea1bf
        6075000	       606	80000324	e5308113	addi	x2,x1,-429	  x1:0x8b432310  x2=0x8b432163
        6085000	       607	80000328	fff70713	addi	x14,x14,-1	 x14:0xfffffff6 x14=0xfffffff5
        6095000	       608	8000032c	ff975ae3	bge	x14,x25,80000320	 x14:0xfffffff5 x25:0xfffffff6
        6105000	       609	80000330	fccfdae3	bge	x31,x12,80000304	 x31:0xfffffffd x12:0xfffffff6
        6115000	       610	00000000	00000013	addi	x0,x0,0	  x0:0x00000000
        6125000	       611	80000300	00000013	addi	x0,x0,0	  x0:0x00000000
        6135000	       612	80000304	dab8c813	xori	x16,x17,-597	 x17:0x00000010 x16=0xfffffdbb
        6145000	       613	80000308	410582b3	sub	x5,x11,x16	 x11:0x50000000 x16:0xfffffdbb  x5=0x50000245
        6155000	       614	8000030c	ffdf8f93	addi	x31,x31,-3	 x31:0xfffffffd x31=0xfffffffa
        6165000	       615	80000310	00600713	addi	x14,x0,6	  x0:0x00000000 x14=0x00000006
        6175000	       616	80000314	0b432097	auipc	x1,0xb432	  x1=0x8b432310
        6185000	       617	80000318	ff600c93	addi	x25,x0,-10	  x0:0x00000000 x25=0xfffffff6
        6195000	       618	8000031c	0094a033	slt	x0,x9,x9	  x9:0x9f5ea12a  x9:0x9f5ea12a
        6205000	       619	80000320	00427933	and	x18,x4,x4	  x4:0x9f5ea1bf  x4:0x9f5ea1bf x18=0x9f5ea1bf
        6215000	       620	80000324	e5308113	addi	x2,x1,-429	  x1:0x8b432310  x2=0x8b432163
        6225000	       621	80000328	fff70713	addi	x14,x14,-1	 x14:0x00000006 x14=0x00000005
        6235000	       622	8000032c	ff975ae3	bge	x14,x25,80000320	 x14:0x00000005 x25:0xfffffff6
        6245000	       623	00000000	00000013	addi	x0,x0,0	  x0:0x00000000
        6255000	       624	8000031c	00000013	addi	x0,x0,0	  x0:0x00000000
        6265000	       625	80000320	00427933	and	x18,x4,x4	  x4:0x9f5ea1bf  x4:0x9f5ea1bf x18=0x9f5ea1bf
        6275000	       626	80000324	e5308113	addi	x2,x1,-429	  x1:0x8b432310  x2=0x8b432163
        6285000	       627	80000328	fff70713	addi	x14,x14,-1	 x14:0x00000005 x14=0x00000004
        6295000	       628	8000032c	ff975ae3	bge	x14,x25,80000320	 x14:0x00000004 x25:0xfffffff6
        6305000	       629	00000000	00000013	addi	x0,x0,0	  x0:0x00000000
        6315000	       630	8000031c	00000013	addi	x0,x0,0	  x0:0x00000000
        6325000	       631	80000320	00427933	and	x18,x4,x4	  x4:0x9f5ea1bf  x4:0x9f5ea1bf x18=0x9f5ea1bf
        6335000	       632	80000324	e5308113	addi	x2,x1,-429	  x1:0x8b432310  x2=0x8b432163
        6345000	       633	80000328	fff70713	addi	x14,x14,-1	 x14:0x00000004 x14=0x00000003
        6355000	       634	8000032c	ff975ae3	bge	x14,x25,80000320	 x14:0x00000003 x25:0xfffffff6
        6365000	       635	00000000	00000013	addi	x0,x0,0	  x0:0x00000000
        6375000	       636	8000031c	00000013	addi	x0,x0,0	  x0:0x00000000
        6385000	       637	80000320	00427933	and	x18,x4,x4	  x4:0x9f5ea1bf  x4:0x9f5ea1bf x18=0x9f5ea1bf
        6395000	       638	80000324	e5308113	addi	x2,x1,-429	  x1:0x8b432310  x2=0x8b432163
        6405000	       639	80000328	fff70713	addi	x14,x14,-1	 x14:0x00000003 x14=0x00000002
        6415000	       640	8000032c	ff975ae3	bge	x14,x25,80000320	 x14:0x00000002 x25:0xfffffff6
        6425000	       641	00000000	00000013	addi	x0,x0,0	  x0:0x00000000
        6435000	       642	8000031c	00000013	addi	x0,x0,0	  x0:0x00000000
        6445000	       643	80000320	00427933	and	x18,x4,x4	  x4:0x9f5ea1bf  x4:0x9f5ea1bf x18=0x9f5ea1bf
        6455000	       644	80000324	e5308113	addi	x2,x1,-429	  x1:0x8b432310  x2=0x8b432163
        6465000	       645	80000328	fff70713	addi	x14,x14,-1	 x14:0x00000002 x14=0x00000001
        6475000	       646	8000032c	ff975ae3	bge	x14,x25,80000320	 x14:0x00000001 x25:0xfffffff6
        6485000	       647	00000000	00000013	addi	x0,x0,0	  x0:0x00000000
        6495000	       648	8000031c	00000013	addi	x0,x0,0	  x0:0x00000000
        6505000	       649	80000320	00427933	and	x18,x4,x4	  x4:0x9f5ea1bf  x4:0x9f5ea1bf x18=0x9f5ea1bf
        6515000	       650	80000324	e5308113	addi	x2,x1,-429	  x1:0x8b432310  x2=0x8b432163
        6525000	       651	80000328	fff70713	addi	x14,x14,-1	 x14:0x00000001 x14=0x00000000
        6535000	       652	8000032c	ff975ae3	bge	x14,x25,80000320	 x14:0x00000000 x25:0xfffffff6
        6545000	       653	00000000	00000013	addi	x0,x0,0	  x0:0x00000000
        6555000	       654	8000031c	00000013	addi	x0,x0,0	  x0:0x00000000
        6565000	       655	80000320	00427933	and	x18,x4,x4	  x4:0x9f5ea1bf  x4:0x9f5ea1bf x18=0x9f5ea1bf
        6575000	       656	80000324	e5308113	addi	x2,x1,-429	  x1:0x8b432310  x2=0x8b432163
        6585000	       657	80000328	fff70713	addi	x14,x14,-1	 x14:0x00000000 x14=0xffffffff
        6595000	       658	8000032c	ff975ae3	bge	x14,x25,80000320	 x14:0xffffffff x25:0xfffffff6
        6605000	       659	00000000	00000013	addi	x0,x0,0	  x0:0x00000000
        6615000	       660	8000031c	00000013	addi	x0,x0,0	  x0:0x00000000
        6625000	       661	80000320	00427933	and	x18,x4,x4	  x4:0x9f5ea1bf  x4:0x9f5ea1bf x18=0x9f5ea1bf
        6635000	       662	80000324	e5308113	addi	x2,x1,-429	  x1:0x8b432310  x2=0x8b432163
        6645000	       663	80000328	fff70713	addi	x14,x14,-1	 x14:0xffffffff x14=0xfffffffe
        6655000	       664	8000032c	ff975ae3	bge	x14,x25,80000320	 x14:0xfffffffe x25:0xfffffff6
        6665000	       665	00000000	00000013	addi	x0,x0,0	  x0:0x00000000
        6675000	       666	8000031c	00000013	addi	x0,x0,0	  x0:0x00000000
        6685000	       667	80000320	00427933	and	x18,x4,x4	  x4:0x9f5ea1bf  x4:0x9f5ea1bf x18=0x9f5ea1bf
        6695000	       668	80000324	e5308113	addi	x2,x1,-429	  x1:0x8b432310  x2=0x8b432163
        6705000	       669	80000328	fff70713	addi	x14,x14,-1	 x14:0xfffffffe x14=0xfffffffd
        6715000	       670	8000032c	ff975ae3	bge	x14,x25,80000320	 x14:0xfffffffd x25:0xfffffff6
        6725000	       671	00000000	00000013	addi	x0,x0,0	  x0:0x00000000
        6735000	       672	8000031c	00000013	addi	x0,x0,0	  x0:0x00000000
        6745000	       673	80000320	00427933	and	x18,x4,x4	  x4:0x9f5ea1bf  x4:0x9f5ea1bf x18=0x9f5ea1bf
        6755000	       674	80000324	e5308113	addi	x2,x1,-429	  x1:0x8b432310  x2=0x8b432163
        6765000	       675	80000328	fff70713	addi	x14,x14,-1	 x14:0xfffffffd x14=0xfffffffc
        6775000	       676	8000032c	ff975ae3	bge	x14,x25,80000320	 x14:0xfffffffc x25:0xfffffff6
        6785000	       677	00000000	00000013	addi	x0,x0,0	  x0:0x00000000
        6795000	       678	8000031c	00000013	addi	x0,x0,0	  x0:0x00000000
        6805000	       679	80000320	00427933	and	x18,x4,x4	  x4:0x9f5ea1bf  x4:0x9f5ea1bf x18=0x9f5ea1bf
        6815000	       680	80000324	e5308113	addi	x2,x1,-429	  x1:0x8b432310  x2=0x8b432163
        6825000	       681	80000328	fff70713	addi	x14,x14,-1	 x14:0xfffffffc x14=0xfffffffb
        6835000	       682	8000032c	ff975ae3	bge	x14,x25,80000320	 x14:0xfffffffb x25:0xfffffff6
        6845000	       683	00000000	00000013	addi	x0,x0,0	  x0:0x00000000
        6855000	       684	8000031c	00000013	addi	x0,x0,0	  x0:0x00000000
        6865000	       685	80000320	00427933	and	x18,x4,x4	  x4:0x9f5ea1bf  x4:0x9f5ea1bf x18=0x9f5ea1bf
        6875000	       686	80000324	e5308113	addi	x2,x1,-429	  x1:0x8b432310  x2=0x8b432163
        6885000	       687	80000328	fff70713	addi	x14,x14,-1	 x14:0xfffffffb x14=0xfffffffa
        6895000	       688	8000032c	ff975ae3	bge	x14,x25,80000320	 x14:0xfffffffa x25:0xfffffff6
        6905000	       689	00000000	00000013	addi	x0,x0,0	  x0:0x00000000
        6915000	       690	8000031c	00000013	addi	x0,x0,0	  x0:0x00000000
        6925000	       691	80000320	00427933	and	x18,x4,x4	  x4:0x9f5ea1bf  x4:0x9f5ea1bf x18=0x9f5ea1bf
        6935000	       692	80000324	e5308113	addi	x2,x1,-429	  x1:0x8b432310  x2=0x8b432163
        6945000	       693	80000328	fff70713	addi	x14,x14,-1	 x14:0xfffffffa x14=0xfffffff9
        6955000	       694	8000032c	ff975ae3	bge	x14,x25,80000320	 x14:0xfffffff9 x25:0xfffffff6
        6965000	       695	00000000	00000013	addi	x0,x0,0	  x0:0x00000000
        6975000	       696	8000031c	00000013	addi	x0,x0,0	  x0:0x00000000
        6985000	       697	80000320	00427933	and	x18,x4,x4	  x4:0x9f5ea1bf  x4:0x9f5ea1bf x18=0x9f5ea1bf
        6995000	       698	80000324	e5308113	addi	x2,x1,-429	  x1:0x8b432310  x2=0x8b432163
        7005000	       699	80000328	fff70713	addi	x14,x14,-1	 x14:0xfffffff9 x14=0xfffffff8
        7015000	       700	8000032c	ff975ae3	bge	x14,x25,80000320	 x14:0xfffffff8 x25:0xfffffff6
        7025000	       701	00000000	00000013	addi	x0,x0,0	  x0:0x00000000
        7035000	       702	8000031c	00000013	addi	x0,x0,0	  x0:0x00000000
        7045000	       703	80000320	00427933	and	x18,x4,x4	  x4:0x9f5ea1bf  x4:0x9f5ea1bf x18=0x9f5ea1bf
        7055000	       704	80000324	e5308113	addi	x2,x1,-429	  x1:0x8b432310  x2=0x8b432163
        7065000	       705	80000328	fff70713	addi	x14,x14,-1	 x14:0xfffffff8 x14=0xfffffff7
        7075000	       706	8000032c	ff975ae3	bge	x14,x25,80000320	 x14:0xfffffff7 x25:0xfffffff6
        7085000	       707	00000000	00000013	addi	x0,x0,0	  x0:0x00000000
        7095000	       708	8000031c	00000013	addi	x0,x0,0	  x0:0x00000000
        7105000	       709	80000320	00427933	and	x18,x4,x4	  x4:0x9f5ea1bf  x4:0x9f5ea1bf x18=0x9f5ea1bf
        7115000	       710	80000324	e5308113	addi	x2,x1,-429	  x1:0x8b432310  x2=0x8b432163
        7125000	       711	80000328	fff70713	addi	x14,x14,-1	 x14:0xfffffff7 x14=0xfffffff6
        7135000	       712	8000032c	ff975ae3	bge	x14,x25,80000320	 x14:0xfffffff6 x25:0xfffffff6
        7145000	       713	00000000	00000013	addi	x0,x0,0	  x0:0x00000000
        7155000	       714	8000031c	00000013	addi	x0,x0,0	  x0:0x00000000
        7165000	       715	80000320	00427933	and	x18,x4,x4	  x4:0x9f5ea1bf  x4:0x9f5ea1bf x18=0x9f5ea1bf
        7175000	       716	80000324	e5308113	addi	x2,x1,-429	  x1:0x8b432310  x2=0x8b432163
        7185000	       717	80000328	fff70713	addi	x14,x14,-1	 x14:0xfffffff6 x14=0xfffffff5
        7195000	       718	8000032c	ff975ae3	bge	x14,x25,80000320	 x14:0xfffffff5 x25:0xfffffff6
        7205000	       719	80000330	fccfdae3	bge	x31,x12,80000304	 x31:0xfffffffa x12:0xfffffff6
        7215000	       720	00000000	00000013	addi	x0,x0,0	  x0:0x00000000
        7225000	       721	80000300	00000013	addi	x0,x0,0	  x0:0x00000000
        7235000	       722	80000304	dab8c813	xori	x16,x17,-597	 x17:0x00000010 x16=0xfffffdbb
        7245000	       723	80000308	410582b3	sub	x5,x11,x16	 x11:0x50000000 x16:0xfffffdbb  x5=0x50000245
        7255000	       724	8000030c	ffdf8f93	addi	x31,x31,-3	 x31:0xfffffffa x31=0xfffffff7
        7265000	       725	80000310	00600713	addi	x14,x0,6	  x0:0x00000000 x14=0x00000006
        7275000	       726	80000314	0b432097	auipc	x1,0xb432	  x1=0x8b432310
        7285000	       727	80000318	ff600c93	addi	x25,x0,-10	  x0:0x00000000 x25=0xfffffff6
        7295000	       728	8000031c	0094a033	slt	x0,x9,x9	  x9:0x9f5ea12a  x9:0x9f5ea12a
        7305000	       729	80000320	00427933	and	x18,x4,x4	  x4:0x9f5ea1bf  x4:0x9f5ea1bf x18=0x9f5ea1bf
        7315000	       730	80000324	e5308113	addi	x2,x1,-429	  x1:0x8b432310  x2=0x8b432163
        7325000	       731	80000328	fff70713	addi	x14,x14,-1	 x14:0x00000006 x14=0x00000005
        7335000	       732	8000032c	ff975ae3	bge	x14,x25,80000320	 x14:0x00000005 x25:0xfffffff6
        7345000	       733	00000000	00000013	addi	x0,x0,0	  x0:0x00000000
        7355000	       734	8000031c	00000013	addi	x0,x0,0	  x0:0x00000000
        7365000	       735	80000320	00427933	and	x18,x4,x4	  x4:0x9f5ea1bf  x4:0x9f5ea1bf x18=0x9f5ea1bf
        7375000	       736	80000324	e5308113	addi	x2,x1,-429	  x1:0x8b432310  x2=0x8b432163
        7385000	       737	80000328	fff70713	addi	x14,x14,-1	 x14:0x00000005 x14=0x00000004
        7395000	       738	8000032c	ff975ae3	bge	x14,x25,80000320	 x14:0x00000004 x25:0xfffffff6
        7405000	       739	00000000	00000013	addi	x0,x0,0	  x0:0x00000000
        7415000	       740	8000031c	00000013	addi	x0,x0,0	  x0:0x00000000
        7425000	       741	80000320	00427933	and	x18,x4,x4	  x4:0x9f5ea1bf  x4:0x9f5ea1bf x18=0x9f5ea1bf
        7435000	       742	80000324	e5308113	addi	x2,x1,-429	  x1:0x8b432310  x2=0x8b432163
        7445000	       743	80000328	fff70713	addi	x14,x14,-1	 x14:0x00000004 x14=0x00000003
        7455000	       744	8000032c	ff975ae3	bge	x14,x25,80000320	 x14:0x00000003 x25:0xfffffff6
        7465000	       745	00000000	00000013	addi	x0,x0,0	  x0:0x00000000
        7475000	       746	8000031c	00000013	addi	x0,x0,0	  x0:0x00000000
        7485000	       747	80000320	00427933	and	x18,x4,x4	  x4:0x9f5ea1bf  x4:0x9f5ea1bf x18=0x9f5ea1bf
        7495000	       748	80000324	e5308113	addi	x2,x1,-429	  x1:0x8b432310  x2=0x8b432163
        7505000	       749	80000328	fff70713	addi	x14,x14,-1	 x14:0x00000003 x14=0x00000002
        7515000	       750	8000032c	ff975ae3	bge	x14,x25,80000320	 x14:0x00000002 x25:0xfffffff6
        7525000	       751	00000000	00000013	addi	x0,x0,0	  x0:0x00000000
        7535000	       752	8000031c	00000013	addi	x0,x0,0	  x0:0x00000000
        7545000	       753	80000320	00427933	and	x18,x4,x4	  x4:0x9f5ea1bf  x4:0x9f5ea1bf x18=0x9f5ea1bf
        7555000	       754	80000324	e5308113	addi	x2,x1,-429	  x1:0x8b432310  x2=0x8b432163
        7565000	       755	80000328	fff70713	addi	x14,x14,-1	 x14:0x00000002 x14=0x00000001
        7575000	       756	8000032c	ff975ae3	bge	x14,x25,80000320	 x14:0x00000001 x25:0xfffffff6
        7585000	       757	00000000	00000013	addi	x0,x0,0	  x0:0x00000000
        7595000	       758	8000031c	00000013	addi	x0,x0,0	  x0:0x00000000
        7605000	       759	80000320	00427933	and	x18,x4,x4	  x4:0x9f5ea1bf  x4:0x9f5ea1bf x18=0x9f5ea1bf
        7615000	       760	80000324	e5308113	addi	x2,x1,-429	  x1:0x8b432310  x2=0x8b432163
        7625000	       761	80000328	fff70713	addi	x14,x14,-1	 x14:0x00000001 x14=0x00000000
        7635000	       762	8000032c	ff975ae3	bge	x14,x25,80000320	 x14:0x00000000 x25:0xfffffff6
        7645000	       763	00000000	00000013	addi	x0,x0,0	  x0:0x00000000
        7655000	       764	8000031c	00000013	addi	x0,x0,0	  x0:0x00000000
        7665000	       765	80000320	00427933	and	x18,x4,x4	  x4:0x9f5ea1bf  x4:0x9f5ea1bf x18=0x9f5ea1bf
        7675000	       766	80000324	e5308113	addi	x2,x1,-429	  x1:0x8b432310  x2=0x8b432163
        7685000	       767	80000328	fff70713	addi	x14,x14,-1	 x14:0x00000000 x14=0xffffffff
        7695000	       768	8000032c	ff975ae3	bge	x14,x25,80000320	 x14:0xffffffff x25:0xfffffff6
        7705000	       769	00000000	00000013	addi	x0,x0,0	  x0:0x00000000
        7715000	       770	8000031c	00000013	addi	x0,x0,0	  x0:0x00000000
        7725000	       771	80000320	00427933	and	x18,x4,x4	  x4:0x9f5ea1bf  x4:0x9f5ea1bf x18=0x9f5ea1bf
        7735000	       772	80000324	e5308113	addi	x2,x1,-429	  x1:0x8b432310  x2=0x8b432163
        7745000	       773	80000328	fff70713	addi	x14,x14,-1	 x14:0xffffffff x14=0xfffffffe
        7755000	       774	8000032c	ff975ae3	bge	x14,x25,80000320	 x14:0xfffffffe x25:0xfffffff6
        7765000	       775	00000000	00000013	addi	x0,x0,0	  x0:0x00000000
        7775000	       776	8000031c	00000013	addi	x0,x0,0	  x0:0x00000000
        7785000	       777	80000320	00427933	and	x18,x4,x4	  x4:0x9f5ea1bf  x4:0x9f5ea1bf x18=0x9f5ea1bf
        7795000	       778	80000324	e5308113	addi	x2,x1,-429	  x1:0x8b432310  x2=0x8b432163
        7805000	       779	80000328	fff70713	addi	x14,x14,-1	 x14:0xfffffffe x14=0xfffffffd
        7815000	       780	8000032c	ff975ae3	bge	x14,x25,80000320	 x14:0xfffffffd x25:0xfffffff6
        7825000	       781	00000000	00000013	addi	x0,x0,0	  x0:0x00000000
        7835000	       782	8000031c	00000013	addi	x0,x0,0	  x0:0x00000000
        7845000	       783	80000320	00427933	and	x18,x4,x4	  x4:0x9f5ea1bf  x4:0x9f5ea1bf x18=0x9f5ea1bf
        7855000	       784	80000324	e5308113	addi	x2,x1,-429	  x1:0x8b432310  x2=0x8b432163
        7865000	       785	80000328	fff70713	addi	x14,x14,-1	 x14:0xfffffffd x14=0xfffffffc
        7875000	       786	8000032c	ff975ae3	bge	x14,x25,80000320	 x14:0xfffffffc x25:0xfffffff6
        7885000	       787	00000000	00000013	addi	x0,x0,0	  x0:0x00000000
        7895000	       788	8000031c	00000013	addi	x0,x0,0	  x0:0x00000000
        7905000	       789	80000320	00427933	and	x18,x4,x4	  x4:0x9f5ea1bf  x4:0x9f5ea1bf x18=0x9f5ea1bf
        7915000	       790	80000324	e5308113	addi	x2,x1,-429	  x1:0x8b432310  x2=0x8b432163
        7925000	       791	80000328	fff70713	addi	x14,x14,-1	 x14:0xfffffffc x14=0xfffffffb
        7935000	       792	8000032c	ff975ae3	bge	x14,x25,80000320	 x14:0xfffffffb x25:0xfffffff6
        7945000	       793	00000000	00000013	addi	x0,x0,0	  x0:0x00000000
        7955000	       794	8000031c	00000013	addi	x0,x0,0	  x0:0x00000000
        7965000	       795	80000320	00427933	and	x18,x4,x4	  x4:0x9f5ea1bf  x4:0x9f5ea1bf x18=0x9f5ea1bf
        7975000	       796	80000324	e5308113	addi	x2,x1,-429	  x1:0x8b432310  x2=0x8b432163
        7985000	       797	80000328	fff70713	addi	x14,x14,-1	 x14:0xfffffffb x14=0xfffffffa
        7995000	       798	8000032c	ff975ae3	bge	x14,x25,80000320	 x14:0xfffffffa x25:0xfffffff6
        8005000	       799	00000000	00000013	addi	x0,x0,0	  x0:0x00000000
        8015000	       800	8000031c	00000013	addi	x0,x0,0	  x0:0x00000000
        8025000	       801	80000320	00427933	and	x18,x4,x4	  x4:0x9f5ea1bf  x4:0x9f5ea1bf x18=0x9f5ea1bf
        8035000	       802	80000324	e5308113	addi	x2,x1,-429	  x1:0x8b432310  x2=0x8b432163
        8045000	       803	80000328	fff70713	addi	x14,x14,-1	 x14:0xfffffffa x14=0xfffffff9
        8055000	       804	8000032c	ff975ae3	bge	x14,x25,80000320	 x14:0xfffffff9 x25:0xfffffff6
        8065000	       805	00000000	00000013	addi	x0,x0,0	  x0:0x00000000
        8075000	       806	8000031c	00000013	addi	x0,x0,0	  x0:0x00000000
        8085000	       807	80000320	00427933	and	x18,x4,x4	  x4:0x9f5ea1bf  x4:0x9f5ea1bf x18=0x9f5ea1bf
        8095000	       808	80000324	e5308113	addi	x2,x1,-429	  x1:0x8b432310  x2=0x8b432163
        8105000	       809	80000328	fff70713	addi	x14,x14,-1	 x14:0xfffffff9 x14=0xfffffff8
        8115000	       810	8000032c	ff975ae3	bge	x14,x25,80000320	 x14:0xfffffff8 x25:0xfffffff6
        8125000	       811	00000000	00000013	addi	x0,x0,0	  x0:0x00000000
        8135000	       812	8000031c	00000013	addi	x0,x0,0	  x0:0x00000000
        8145000	       813	80000320	00427933	and	x18,x4,x4	  x4:0x9f5ea1bf  x4:0x9f5ea1bf x18=0x9f5ea1bf
        8155000	       814	80000324	e5308113	addi	x2,x1,-429	  x1:0x8b432310  x2=0x8b432163
        8165000	       815	80000328	fff70713	addi	x14,x14,-1	 x14:0xfffffff8 x14=0xfffffff7
        8175000	       816	8000032c	ff975ae3	bge	x14,x25,80000320	 x14:0xfffffff7 x25:0xfffffff6
        8185000	       817	00000000	00000013	addi	x0,x0,0	  x0:0x00000000
        8195000	       818	8000031c	00000013	addi	x0,x0,0	  x0:0x00000000
        8205000	       819	80000320	00427933	and	x18,x4,x4	  x4:0x9f5ea1bf  x4:0x9f5ea1bf x18=0x9f5ea1bf
        8215000	       820	80000324	e5308113	addi	x2,x1,-429	  x1:0x8b432310  x2=0x8b432163
        8225000	       821	80000328	fff70713	addi	x14,x14,-1	 x14:0xfffffff7 x14=0xfffffff6
        8235000	       822	8000032c	ff975ae3	bge	x14,x25,80000320	 x14:0xfffffff6 x25:0xfffffff6
        8245000	       823	00000000	00000013	addi	x0,x0,0	  x0:0x00000000
        8255000	       824	8000031c	00000013	addi	x0,x0,0	  x0:0x00000000
        8265000	       825	80000320	00427933	and	x18,x4,x4	  x4:0x9f5ea1bf  x4:0x9f5ea1bf x18=0x9f5ea1bf
        8275000	       826	80000324	e5308113	addi	x2,x1,-429	  x1:0x8b432310  x2=0x8b432163
        8285000	       827	80000328	fff70713	addi	x14,x14,-1	 x14:0xfffffff6 x14=0xfffffff5
        8295000	       828	8000032c	ff975ae3	bge	x14,x25,80000320	 x14:0xfffffff5 x25:0xfffffff6
        8305000	       829	80000330	fccfdae3	bge	x31,x12,80000304	 x31:0xfffffff7 x12:0xfffffff6
        8315000	       830	00000000	00000013	addi	x0,x0,0	  x0:0x00000000
        8325000	       831	80000300	00000013	addi	x0,x0,0	  x0:0x00000000
        8335000	       832	80000304	dab8c813	xori	x16,x17,-597	 x17:0x00000010 x16=0xfffffdbb
        8345000	       833	80000308	410582b3	sub	x5,x11,x16	 x11:0x50000000 x16:0xfffffdbb  x5=0x50000245
        8355000	       834	8000030c	ffdf8f93	addi	x31,x31,-3	 x31:0xfffffff7 x31=0xfffffff4
        8365000	       835	80000310	00600713	addi	x14,x0,6	  x0:0x00000000 x14=0x00000006
        8375000	       836	80000314	0b432097	auipc	x1,0xb432	  x1=0x8b432310
        8385000	       837	80000318	ff600c93	addi	x25,x0,-10	  x0:0x00000000 x25=0xfffffff6
        8395000	       838	8000031c	0094a033	slt	x0,x9,x9	  x9:0x9f5ea12a  x9:0x9f5ea12a
        8405000	       839	80000320	00427933	and	x18,x4,x4	  x4:0x9f5ea1bf  x4:0x9f5ea1bf x18=0x9f5ea1bf
        8415000	       840	80000324	e5308113	addi	x2,x1,-429	  x1:0x8b432310  x2=0x8b432163
        8425000	       841	80000328	fff70713	addi	x14,x14,-1	 x14:0x00000006 x14=0x00000005
        8435000	       842	8000032c	ff975ae3	bge	x14,x25,80000320	 x14:0x00000005 x25:0xfffffff6
        8445000	       843	00000000	00000013	addi	x0,x0,0	  x0:0x00000000
        8455000	       844	8000031c	00000013	addi	x0,x0,0	  x0:0x00000000
        8465000	       845	80000320	00427933	and	x18,x4,x4	  x4:0x9f5ea1bf  x4:0x9f5ea1bf x18=0x9f5ea1bf
        8475000	       846	80000324	e5308113	addi	x2,x1,-429	  x1:0x8b432310  x2=0x8b432163
        8485000	       847	80000328	fff70713	addi	x14,x14,-1	 x14:0x00000005 x14=0x00000004
        8495000	       848	8000032c	ff975ae3	bge	x14,x25,80000320	 x14:0x00000004 x25:0xfffffff6
        8505000	       849	00000000	00000013	addi	x0,x0,0	  x0:0x00000000
        8515000	       850	8000031c	00000013	addi	x0,x0,0	  x0:0x00000000
        8525000	       851	80000320	00427933	and	x18,x4,x4	  x4:0x9f5ea1bf  x4:0x9f5ea1bf x18=0x9f5ea1bf
        8535000	       852	80000324	e5308113	addi	x2,x1,-429	  x1:0x8b432310  x2=0x8b432163
        8545000	       853	80000328	fff70713	addi	x14,x14,-1	 x14:0x00000004 x14=0x00000003
        8555000	       854	8000032c	ff975ae3	bge	x14,x25,80000320	 x14:0x00000003 x25:0xfffffff6
        8565000	       855	00000000	00000013	addi	x0,x0,0	  x0:0x00000000
        8575000	       856	8000031c	00000013	addi	x0,x0,0	  x0:0x00000000
        8585000	       857	80000320	00427933	and	x18,x4,x4	  x4:0x9f5ea1bf  x4:0x9f5ea1bf x18=0x9f5ea1bf
        8595000	       858	80000324	e5308113	addi	x2,x1,-429	  x1:0x8b432310  x2=0x8b432163
        8605000	       859	80000328	fff70713	addi	x14,x14,-1	 x14:0x00000003 x14=0x00000002
        8615000	       860	8000032c	ff975ae3	bge	x14,x25,80000320	 x14:0x00000002 x25:0xfffffff6
        8625000	       861	00000000	00000013	addi	x0,x0,0	  x0:0x00000000
        8635000	       862	8000031c	00000013	addi	x0,x0,0	  x0:0x00000000
        8645000	       863	80000320	00427933	and	x18,x4,x4	  x4:0x9f5ea1bf  x4:0x9f5ea1bf x18=0x9f5ea1bf
        8655000	       864	80000324	e5308113	addi	x2,x1,-429	  x1:0x8b432310  x2=0x8b432163
        8665000	       865	80000328	fff70713	addi	x14,x14,-1	 x14:0x00000002 x14=0x00000001
        8675000	       866	8000032c	ff975ae3	bge	x14,x25,80000320	 x14:0x00000001 x25:0xfffffff6
        8685000	       867	00000000	00000013	addi	x0,x0,0	  x0:0x00000000
        8695000	       868	8000031c	00000013	addi	x0,x0,0	  x0:0x00000000
        8705000	       869	80000320	00427933	and	x18,x4,x4	  x4:0x9f5ea1bf  x4:0x9f5ea1bf x18=0x9f5ea1bf
        8715000	       870	80000324	e5308113	addi	x2,x1,-429	  x1:0x8b432310  x2=0x8b432163
        8725000	       871	80000328	fff70713	addi	x14,x14,-1	 x14:0x00000001 x14=0x00000000
        8735000	       872	8000032c	ff975ae3	bge	x14,x25,80000320	 x14:0x00000000 x25:0xfffffff6
        8745000	       873	00000000	00000013	addi	x0,x0,0	  x0:0x00000000
        8755000	       874	8000031c	00000013	addi	x0,x0,0	  x0:0x00000000
        8765000	       875	80000320	00427933	and	x18,x4,x4	  x4:0x9f5ea1bf  x4:0x9f5ea1bf x18=0x9f5ea1bf
        8775000	       876	80000324	e5308113	addi	x2,x1,-429	  x1:0x8b432310  x2=0x8b432163
        8785000	       877	80000328	fff70713	addi	x14,x14,-1	 x14:0x00000000 x14=0xffffffff
        8795000	       878	8000032c	ff975ae3	bge	x14,x25,80000320	 x14:0xffffffff x25:0xfffffff6
        8805000	       879	00000000	00000013	addi	x0,x0,0	  x0:0x00000000
        8815000	       880	8000031c	00000013	addi	x0,x0,0	  x0:0x00000000
        8825000	       881	80000320	00427933	and	x18,x4,x4	  x4:0x9f5ea1bf  x4:0x9f5ea1bf x18=0x9f5ea1bf
        8835000	       882	80000324	e5308113	addi	x2,x1,-429	  x1:0x8b432310  x2=0x8b432163
        8845000	       883	80000328	fff70713	addi	x14,x14,-1	 x14:0xffffffff x14=0xfffffffe
        8855000	       884	8000032c	ff975ae3	bge	x14,x25,80000320	 x14:0xfffffffe x25:0xfffffff6
        8865000	       885	00000000	00000013	addi	x0,x0,0	  x0:0x00000000
        8875000	       886	8000031c	00000013	addi	x0,x0,0	  x0:0x00000000
        8885000	       887	80000320	00427933	and	x18,x4,x4	  x4:0x9f5ea1bf  x4:0x9f5ea1bf x18=0x9f5ea1bf
        8895000	       888	80000324	e5308113	addi	x2,x1,-429	  x1:0x8b432310  x2=0x8b432163
        8905000	       889	80000328	fff70713	addi	x14,x14,-1	 x14:0xfffffffe x14=0xfffffffd
        8915000	       890	8000032c	ff975ae3	bge	x14,x25,80000320	 x14:0xfffffffd x25:0xfffffff6
        8925000	       891	00000000	00000013	addi	x0,x0,0	  x0:0x00000000
        8935000	       892	8000031c	00000013	addi	x0,x0,0	  x0:0x00000000
        8945000	       893	80000320	00427933	and	x18,x4,x4	  x4:0x9f5ea1bf  x4:0x9f5ea1bf x18=0x9f5ea1bf
        8955000	       894	80000324	e5308113	addi	x2,x1,-429	  x1:0x8b432310  x2=0x8b432163
        8965000	       895	80000328	fff70713	addi	x14,x14,-1	 x14:0xfffffffd x14=0xfffffffc
        8975000	       896	8000032c	ff975ae3	bge	x14,x25,80000320	 x14:0xfffffffc x25:0xfffffff6
        8985000	       897	00000000	00000013	addi	x0,x0,0	  x0:0x00000000
        8995000	       898	8000031c	00000013	addi	x0,x0,0	  x0:0x00000000
        9005000	       899	80000320	00427933	and	x18,x4,x4	  x4:0x9f5ea1bf  x4:0x9f5ea1bf x18=0x9f5ea1bf
        9015000	       900	80000324	e5308113	addi	x2,x1,-429	  x1:0x8b432310  x2=0x8b432163
        9025000	       901	80000328	fff70713	addi	x14,x14,-1	 x14:0xfffffffc x14=0xfffffffb
        9035000	       902	8000032c	ff975ae3	bge	x14,x25,80000320	 x14:0xfffffffb x25:0xfffffff6
        9045000	       903	00000000	00000013	addi	x0,x0,0	  x0:0x00000000
        9055000	       904	8000031c	00000013	addi	x0,x0,0	  x0:0x00000000
        9065000	       905	80000320	00427933	and	x18,x4,x4	  x4:0x9f5ea1bf  x4:0x9f5ea1bf x18=0x9f5ea1bf
        9075000	       906	80000324	e5308113	addi	x2,x1,-429	  x1:0x8b432310  x2=0x8b432163
        9085000	       907	80000328	fff70713	addi	x14,x14,-1	 x14:0xfffffffb x14=0xfffffffa
        9095000	       908	8000032c	ff975ae3	bge	x14,x25,80000320	 x14:0xfffffffa x25:0xfffffff6
        9105000	       909	00000000	00000013	addi	x0,x0,0	  x0:0x00000000
        9115000	       910	8000031c	00000013	addi	x0,x0,0	  x0:0x00000000
        9125000	       911	80000320	00427933	and	x18,x4,x4	  x4:0x9f5ea1bf  x4:0x9f5ea1bf x18=0x9f5ea1bf
        9135000	       912	80000324	e5308113	addi	x2,x1,-429	  x1:0x8b432310  x2=0x8b432163
        9145000	       913	80000328	fff70713	addi	x14,x14,-1	 x14:0xfffffffa x14=0xfffffff9
        9155000	       914	8000032c	ff975ae3	bge	x14,x25,80000320	 x14:0xfffffff9 x25:0xfffffff6
        9165000	       915	00000000	00000013	addi	x0,x0,0	  x0:0x00000000
        9175000	       916	8000031c	00000013	addi	x0,x0,0	  x0:0x00000000
        9185000	       917	80000320	00427933	and	x18,x4,x4	  x4:0x9f5ea1bf  x4:0x9f5ea1bf x18=0x9f5ea1bf
        9195000	       918	80000324	e5308113	addi	x2,x1,-429	  x1:0x8b432310  x2=0x8b432163
        9205000	       919	80000328	fff70713	addi	x14,x14,-1	 x14:0xfffffff9 x14=0xfffffff8
        9215000	       920	8000032c	ff975ae3	bge	x14,x25,80000320	 x14:0xfffffff8 x25:0xfffffff6
        9225000	       921	00000000	00000013	addi	x0,x0,0	  x0:0x00000000
        9235000	       922	8000031c	00000013	addi	x0,x0,0	  x0:0x00000000
        9245000	       923	80000320	00427933	and	x18,x4,x4	  x4:0x9f5ea1bf  x4:0x9f5ea1bf x18=0x9f5ea1bf
        9255000	       924	80000324	e5308113	addi	x2,x1,-429	  x1:0x8b432310  x2=0x8b432163
        9265000	       925	80000328	fff70713	addi	x14,x14,-1	 x14:0xfffffff8 x14=0xfffffff7
        9275000	       926	8000032c	ff975ae3	bge	x14,x25,80000320	 x14:0xfffffff7 x25:0xfffffff6
        9285000	       927	00000000	00000013	addi	x0,x0,0	  x0:0x00000000
        9295000	       928	8000031c	00000013	addi	x0,x0,0	  x0:0x00000000
        9305000	       929	80000320	00427933	and	x18,x4,x4	  x4:0x9f5ea1bf  x4:0x9f5ea1bf x18=0x9f5ea1bf
        9315000	       930	80000324	e5308113	addi	x2,x1,-429	  x1:0x8b432310  x2=0x8b432163
        9325000	       931	80000328	fff70713	addi	x14,x14,-1	 x14:0xfffffff7 x14=0xfffffff6
        9335000	       932	8000032c	ff975ae3	bge	x14,x25,80000320	 x14:0xfffffff6 x25:0xfffffff6
        9345000	       933	00000000	00000013	addi	x0,x0,0	  x0:0x00000000
        9355000	       934	8000031c	00000013	addi	x0,x0,0	  x0:0x00000000
        9365000	       935	80000320	00427933	and	x18,x4,x4	  x4:0x9f5ea1bf  x4:0x9f5ea1bf x18=0x9f5ea1bf
        9375000	       936	80000324	e5308113	addi	x2,x1,-429	  x1:0x8b432310  x2=0x8b432163
        9385000	       937	80000328	fff70713	addi	x14,x14,-1	 x14:0xfffffff6 x14=0xfffffff5
        9395000	       938	8000032c	ff975ae3	bge	x14,x25,80000320	 x14:0xfffffff5 x25:0xfffffff6
        9405000	       939	80000330	fccfdae3	bge	x31,x12,80000304	 x31:0xfffffff4 x12:0xfffffff6
        9415000	       940	80000334	014e9a13	slli	x20,x29,0x14	 x29:0x00000000 x20=0x00000000
        9425000	       941	80000338	00500313	addi	x6,x0,5	  x0:0x00000000  x6=0x00000005
        9435000	       942	8000033c	01ba4db3	xor	x27,x20,x27	 x20:0x00000000 x27:0x00000014 x27=0x00000014
        9445000	       943	80000340	7f967297	auipc	x5,0x7f967	  x5=0xff96733c
        9455000	       944	80000344	004fbab3	sltu	x21,x31,x4	 x31:0xfffffff4  x4:0x9f5ea1bf x21=0x00000000
        9465000	       945	80000348	01cd4933	xor	x18,x26,x28	 x26:0x9f5ea1bb x28:0x80009a84 x18=0x1f5e3b3f
        9475000	       946	8000034c	00000013	addi	x0,x0,0	  x0:0x00000000
        9485000	       947	80000350	ffb00e93	addi	x29,x0,-5	  x0:0x00000000 x29=0xfffffffb
        9495000	       948	80000354	0182f833	and	x16,x5,x24	  x5:0xff96733c x24:0x000002c4 x16=0x00000204
        9505000	       949	80000358	dbe44a13	xori	x20,x8,-578	  x8:0xfffffedd x20=0x00000363
        9515000	       950	8000035c	01a939b3	sltu	x19,x18,x26	 x18:0x1f5e3b3f x26:0x9f5ea1bb x19=0x00000001
        9525000	       951	80000360	3ba18717	auipc	x14,0x3ba18	 x14=0xbba1835c
        9535000	       952	80000364	60568b13	addi	x22,x13,1541	 x13:0x00000010 x22=0x00000615
        9545000	       953	80000368	ff630313	addi	x6,x6,-10	  x6:0x00000005  x6=0xfffffffb
        9555000	       954	8000036c	dc287a13	andi	x20,x16,-574	 x16:0x00000204 x20=0x00000000
        9565000	       955	80000370	00b7e8b3	or	x17,x15,x11	 x15:0xfffffffd x11:0x50000000 x17=0xfffffffd
        9575000	       956	80000374	6d807693	andi	x13,x0,1752	  x0:0x00000000 x13=0x00000000
        9585000	       957	80000378	ffe00d13	addi	x26,x0,-2	  x0:0x00000000 x26=0xfffffffe
        9595000	       958	8000037c	02e4ad93	slti	x27,x9,46	  x9:0x9f5ea12a x27=0x00000001
        9605000	       959	80000380	01000793	addi	x15,x0,16	  x0:0x00000000 x15=0x00000010
        9615000	       960	80000384	007472b3	and	x5,x8,x7	  x8:0xfffffedd  x7:0x91dc35ca  x5=0x91dc34c8
        9625000	       961	80000388	009d0d13	addi	x26,x26,9	 x26:0xfffffffe x26=0x00000007
        9635000	       962	8000038c	9359ecb7	lui	x25,0x9359e	 x25=0x9359e000
        9645000	       963	80000390	fefd0ae3	beq	x26,x15,80000384	 x26:0x00000007 x15:0x00000010
        9655000	       964	80000394	008d2a33	slt	x20,x26,x8	 x26:0x00000007  x8:0xfffffedd x20=0x00000000
        9665000	       965	80000398	48337093	andi	x1,x6,1155	  x6:0xfffffffb  x1=0x00000483
        9675000	       966	8000039c	00426fb3	or	x31,x4,x4	  x4:0x9f5ea1bf  x4:0x9f5ea1bf x31=0x9f5ea1bf
        9685000	       967	800003a0	fbd30ee3	beq	x6,x29,8000035c	  x6:0xfffffffb x29:0xfffffffb
        9695000	       968	00000000	00000013	addi	x0,x0,0	  x0:0x00000000
        9705000	       969	80000358	00000013	addi	x0,x0,0	  x0:0x00000000
        9715000	       970	8000035c	01a939b3	sltu	x19,x18,x26	 x18:0x1f5e3b3f x26:0x00000007 x19=0x00000000
        9725000	       971	80000360	3ba18717	auipc	x14,0x3ba18	 x14=0xbba1835c
        9735000	       972	80000364	60568b13	addi	x22,x13,1541	 x13:0x00000000 x22=0x00000605
        9745000	       973	80000368	ff630313	addi	x6,x6,-10	  x6:0xfffffffb  x6=0xfffffff1
        9755000	       974	8000036c	dc287a13	andi	x20,x16,-574	 x16:0x00000204 x20=0x00000000
        9765000	       975	80000370	00b7e8b3	or	x17,x15,x11	 x15:0x00000010 x11:0x50000000 x17=0x50000010
        9775000	       976	80000374	6d807693	andi	x13,x0,1752	  x0:0x00000000 x13=0x00000000
        9785000	       977	80000378	ffe00d13	addi	x26,x0,-2	  x0:0x00000000 x26=0xfffffffe
        9795000	       978	8000037c	02e4ad93	slti	x27,x9,46	  x9:0x9f5ea12a x27=0x00000001
        9805000	       979	80000380	01000793	addi	x15,x0,16	  x0:0x00000000 x15=0x00000010
        9815000	       980	80000384	007472b3	and	x5,x8,x7	  x8:0xfffffedd  x7:0x91dc35ca  x5=0x91dc34c8
        9825000	       981	80000388	009d0d13	addi	x26,x26,9	 x26:0xfffffffe x26=0x00000007
        9835000	       982	8000038c	9359ecb7	lui	x25,0x9359e	 x25=0x9359e000
        9845000	       983	80000390	fefd0ae3	beq	x26,x15,80000384	 x26:0x00000007 x15:0x00000010
        9855000	       984	80000394	008d2a33	slt	x20,x26,x8	 x26:0x00000007  x8:0xfffffedd x20=0x00000000
        9865000	       985	80000398	48337093	andi	x1,x6,1155	  x6:0xfffffff1  x1=0x00000481
        9875000	       986	8000039c	00426fb3	or	x31,x4,x4	  x4:0x9f5ea1bf  x4:0x9f5ea1bf x31=0x9f5ea1bf
        9885000	       987	800003a0	fbd30ee3	beq	x6,x29,8000035c	  x6:0xfffffff1 x29:0xfffffffb
        9895000	       988	800003a4	01ee02b3	add	x5,x28,x30	 x28:0x80009a84 x30:0x80009f84  x5=0x00013a08
        9905000	       989	800003a8	00a00213	addi	x4,x0,10	  x0:0x00000000  x4=0x0000000a
        9915000	       990	800003ac	fec00513	addi	x10,x0,-20	  x0:0x00000000 x10=0xffffffec
        9925000	       991	800003b0	b93cc5b7	lui	x11,0xb93cc	 x11=0xb93cc000
        9935000	       992	800003b4	0163ffb3	and	x31,x7,x22	  x7:0x91dc35ca x22:0x00000605 x31=0x00000400
        9945000	       993	800003b8	ffd20213	addi	x4,x4,-3	  x4:0x0000000a  x4=0x00000007
        9955000	       994	800003bc	016c4fb3	xor	x31,x24,x22	 x24:0x000002c4 x22:0x00000605 x31=0x000004c1
        9965000	       995	800003c0	ff900d93	addi	x27,x0,-7	  x0:0x00000000 x27=0xfffffff9
        9975000	       996	800003c4	01400913	addi	x18,x0,20	  x0:0x00000000 x18=0x00000014
        9985000	       997	800003c8	01598eb3	add	x29,x19,x21	 x19:0x00000000 x21:0x00000000 x29=0x00000000
        9995000	       998	800003cc	6e59b293	sltiu	x5,x19,1765	 x19:0x00000000  x5=0x00000001
       10005000	       999	800003d0	009d8d93	addi	x27,x27,9	 x27:0xfffffff9 x27=0x00000002
       10015000	      1000	800003d4	ff2d9ae3	bne	x27,x18,800003c8	 x27:0x00000002 x18:0x00000014
       10025000	      1001	00000000	00000013	addi	x0,x0,0	  x0:0x00000000
       10035000	      1002	800003c4	00000013	addi	x0,x0,0	  x0:0x00000000
       10045000	      1003	800003c8	01598eb3	add	x29,x19,x21	 x19:0x00000000 x21:0x00000000 x29=0x00000000
       10055000	      1004	800003cc	6e59b293	sltiu	x5,x19,1765	 x19:0x00000000  x5=0x00000001
       10065000	      1005	800003d0	009d8d93	addi	x27,x27,9	 x27:0x00000002 x27=0x0000000b
       10075000	      1006	800003d4	ff2d9ae3	bne	x27,x18,800003c8	 x27:0x0000000b x18:0x00000014
       10085000	      1007	00000000	00000013	addi	x0,x0,0	  x0:0x00000000
       10095000	      1008	800003c4	00000013	addi	x0,x0,0	  x0:0x00000000
       10105000	      1009	800003c8	01598eb3	add	x29,x19,x21	 x19:0x00000000 x21:0x00000000 x29=0x00000000
       10115000	      1010	800003cc	6e59b293	sltiu	x5,x19,1765	 x19:0x00000000  x5=0x00000001
       10125000	      1011	800003d0	009d8d93	addi	x27,x27,9	 x27:0x0000000b x27=0x00000014
       10135000	      1012	800003d4	ff2d9ae3	bne	x27,x18,800003c8	 x27:0x00000014 x18:0x00000014
       10145000	      1013	800003d8	41ff0433	sub	x8,x30,x31	 x30:0x80009f84 x31:0x000004c1  x8=0x80009ac3
       10155000	      1014	800003dc	00a8e133	or	x2,x17,x10	 x17:0x50000010 x10:0xffffffec  x2=0xfffffffc
       10165000	      1015	800003e0	fca208e3	beq	x4,x10,800003b0	  x4:0x00000007 x10:0xffffffec
       10175000	      1016	800003e4	00000013	addi	x0,x0,0	  x0:0x00000000
       10185000	      1017	800003e8	00900713	addi	x14,x0,9	  x0:0x00000000 x14=0x00000009
       10195000	      1018	800003ec	013924b3	slt	x9,x18,x19	 x18:0x00000014 x19:0x00000000  x9=0x00000000
       10205000	      1019	800003f0	243e2193	slti	x3,x28,579	 x28:0x80009a84  x3=0x00000001
       10215000	      1020	800003f4	00900e13	addi	x28,x0,9	  x0:0x00000000 x28=0x00000009
       10225000	      1021	800003f8	71614013	xori	x0,x2,1814	  x2:0xfffffffc
       10235000	      1022	800003fc	0079f4b3	and	x9,x19,x7	 x19:0x00000000  x7:0x91dc35ca  x9=0x00000000
       10245000	      1023	80000400	003078b3	and	x17,x0,x3	  x0:0x00000000  x3:0x00000001 x17=0x00000000
       10255000	      1024	80000404	ff870713	addi	x14,x14,-8	 x14:0x00000009 x14=0x00000001
       10265000	      1025	80000408	41790433	sub	x8,x18,x23	 x18:0x00000014 x23:0x80009fc4  x8=0x7fff6050
       10275000	      1026	8000040c	00400d13	addi	x26,x0,4	  x0:0x00000000 x26=0x00000004
       10285000	      1027	80000410	00000013	addi	x0,x0,0	  x0:0x00000000
       10295000	      1028	80000414	00f00a93	addi	x21,x0,15	  x0:0x00000000 x21=0x0000000f
       10305000	      1029	80000418	56348193	addi	x3,x9,1379	  x9:0x00000000  x3=0x00000563
       10315000	      1030	8000041c	019d6333	or	x6,x26,x25	 x26:0x00000004 x25:0x9359e000  x6=0x9359e004
       10325000	      1031	80000420	006dc133	xor	x2,x27,x6	 x27:0x00000014  x6:0x9359e004  x2=0x9359e010
       10335000	      1032	80000424	00ad0d13	addi	x26,x26,10	 x26:0x00000004 x26=0x0000000e
       10345000	      1033	80000428	ff5d6ae3	bltu	x26,x21,8000041c	 x26:0x0000000e x21:0x0000000f
       10355000	      1034	00000000	00000013	addi	x0,x0,0	  x0:0x00000000
       10365000	      1035	80000418	00000013	addi	x0,x0,0	  x0:0x00000000
       10375000	      1036	8000041c	019d6333	or	x6,x26,x25	 x26:0x0000000e x25:0x9359e000  x6=0x9359e00e
       10385000	      1037	80000420	006dc133	xor	x2,x27,x6	 x27:0x00000014  x6:0x9359e00e  x2=0x9359e01a
       10395000	      1038	80000424	00ad0d13	addi	x26,x26,10	 x26:0x0000000e x26=0x00000018
       10405000	      1039	80000428	ff5d6ae3	bltu	x26,x21,8000041c	 x26:0x00000018 x21:0x0000000f
       10415000	      1040	8000042c	008eddb3	srl	x27,x29,x8	 x29:0x00000000  x8:0x7fff6050 x27=0x00000000
       10425000	      1041	80000430	fdc776e3	bgeu	x14,x28,800003fc	 x14:0x00000001 x28:0x00000009
       10435000	      1042	80000434	6e0de137	lui	x2,0x6e0de	  x2=0x6e0de000
       10445000	      1043	80000438	01f71133	sll	x2,x14,x31	 x14:0x00000001 x31:0x000004c1  x2=0x00000002
       10455000	      1044	8000043c	0096e0b3	or	x1,x13,x9	 x13:0x00000000  x9:0x00000000  x1=0x00000000
       10465000	      1045	80000440	958e2293	slti	x5,x28,-1704	 x28:0x00000009  x5=0x00000000
       10475000	      1046	80000444	01d65e63	bge	x12,x29,80000460	 x12:0xfffffff6 x29:0x00000000
       10485000	      1047	80000448	00a79ab3	sll	x21,x15,x10	 x15:0x00000010 x10:0xffffffec x21=0x00010000
       10495000	      1048	8000044c	018cd713	srli	x14,x25,0x18	 x25:0x9359e000 x14=0x00000093
       10505000	      1049	80000450	413f5013	srai	x0,x30,0x13	 x30:0x80009f84
       10515000	      1050	80000454	413cd093	srai	x1,x25,0x13	 x25:0x9359e000  x1=0xfffff26b
       10525000	      1051	80000458	41d0dc33	sra	x24,x1,x29	  x1:0xfffff26b x29:0x00000000 x24=0xfffff26b
       10535000	      1052	8000045c	01f6fa63	bgeu	x13,x31,80000470	 x13:0x00000000 x31:0x000004c1
       10545000	      1053	80000460	015ab033	sltu	x0,x21,x21	 x21:0x00010000 x21:0x00010000
       10555000	      1054	80000464	00aa1663	bne	x20,x10,80000470	 x20:0x00000000 x10:0xffffffec
       10565000	      1055	00000000	00000013	addi	x0,x0,0	  x0:0x00000000
       10575000	      1056	8000046c	00000013	addi	x0,x0,0	  x0:0x00000000
       10585000	      1057	80000470	00d29863	bne	x5,x13,80000480	  x5:0x00000000 x13:0x00000000
       10595000	      1058	80000474	0009eab3	or	x21,x19,x0	 x19:0x00000000  x0:0x00000000 x21=0x00000000
       10605000	      1059	80000478	1483e537	lui	x10,0x1483e	 x10=0x1483e000
       10615000	      1060	8000047c	c6bdb413	sltiu	x8,x27,-917	 x27:0x00000000  x8=0x00000001
       10625000	      1061	80000480	e8d8dab7	lui	x21,0xe8d8d	 x21=0xe8d8d000
       10635000	      1062	80000484	7a863997	auipc	x19,0x7a863	 x19=0xfa863480
       10645000	      1063	80000488	02ff0e63	beq	x30,x15,800004c4	 x30:0x80009f84 x15:0x00000010
       10655000	      1064	8000048c	021f8663	beq	x31,x1,800004b8	 x31:0x000004c1  x1:0xfffff26b
       10665000	      1065	80000490	2fcc7313	andi	x6,x24,764	 x24:0xfffff26b  x6=0x00000268
       10675000	      1066	80000494	c28cd6b7	lui	x13,0xc28cd	 x13=0xc28cd000
       10685000	      1067	80000498	34103e93	sltiu	x29,x0,833	  x0:0x00000000 x29=0x00000001
       10695000	      1068	8000049c	01c4e463	bltu	x9,x28,800004a4	  x9:0x00000000 x28:0x00000009
       10705000	      1069	00000000	00000013	addi	x0,x0,0	  x0:0x00000000
       10715000	      1070	800004a0	00000013	addi	x0,x0,0	  x0:0x00000000
       10725000	      1071	800004a4	014d72b3	and	x5,x26,x20	 x26:0x00000018 x20:0x00000000  x5=0x00000000
       10735000	      1072	800004a8	01f59b13	slli	x22,x11,0x1f	 x11:0xb93cc000 x22=0x00000000
       10745000	      1073	800004ac	00000013	addi	x0,x0,0	  x0:0x00000000
       10755000	      1074	800004b0	00be6fb3	or	x31,x28,x11	 x28:0x00000009 x11:0xb93cc000 x31=0xb93cc009
       10765000	      1075	800004b4	003c99b3	sll	x19,x25,x3	 x25:0x9359e000  x3:0x00000563 x19=0x9acf0000
       10775000	      1076	800004b8	04479863	bne	x15,x4,80000508	 x15:0x00000010  x4:0x00000007
       10785000	      1077	00000000	00000013	addi	x0,x0,0	  x0:0x00000000
       10795000	      1078	80000504	00000013	addi	x0,x0,0	  x0:0x00000000
       10805000	      1079	80000508	01ec5433	srl	x8,x24,x30	 x24:0xfffff26b x30:0x80009f84  x8=0x0fffff26
       10815000	      1080	8000050c	fcda4493	xori	x9,x20,-51	 x20:0x00000000  x9=0xffffffcd
       10825000	      1081	80000510	390dff93	andi	x31,x27,912	 x27:0x00000000 x31=0x00000000
       10835000	      1082	80000514	c5e1ec17	auipc	x24,0xc5e1e	 x24=0x45e1e510
       10845000	      1083	80000518	4006d633	sra	x12,x13,x0	 x13:0xc28cd000  x0:0x00000000 x12=0xc28cd000
       10855000	      1084	8000051c	00d260b3	or	x1,x4,x13	  x4:0x00000007 x13:0xc28cd000  x1=0xc28cd007
       10865000	      1085	80000520	016671b3	and	x3,x12,x22	 x12:0xc28cd000 x22:0x00000000  x3=0x00000000
       10875000	      1086	80000524	413b08b3	sub	x17,x22,x19	 x22:0x00000000 x19:0x9acf0000 x17=0x65310000
       10885000	      1087	80000528	01635d33	srl	x26,x6,x22	  x6:0x00000268 x22:0x00000000 x26=0x00000268
       10895000	      1088	8000052c	41f25093	srai	x1,x4,0x1f	  x4:0x00000007  x1=0x00000000
       10905000	      1089	80000530	9d5abe13	sltiu	x28,x21,-1579	 x21:0xe8d8d000 x28=0x00000001
       10915000	      1090	80000534	01d01e63	bne	x0,x29,80000550	  x0:0x00000000 x29:0x00000001
       10925000	      1091	00000000	00000013	addi	x0,x0,0	  x0:0x00000000
       10935000	      1092	8000054c	00000013	addi	x0,x0,0	  x0:0x00000000
       10945000	      1093	80000550	009864b3	or	x9,x16,x9	 x16:0x00000204  x9:0xffffffcd  x9=0xffffffcd
       10955000	      1094	80000554	45643e13	sltiu	x28,x8,1110	  x8:0x0fffff26 x28=0x00000000
       10965000	      1095	80000558	0118a233	slt	x4,x17,x17	 x17:0x65310000 x17:0x65310000  x4=0x00000000
       10975000	      1096	8000055c	0120a7b3	slt	x15,x1,x18	  x1:0x00000000 x18:0x00000014 x15=0x00000001
       10985000	      1097	80000560	933b4093	xori	x1,x22,-1741	 x22:0x00000000  x1=0xfffff933
       10995000	      1098	80000564	bec7cf97	auipc	x31,0xbec7c	 x31=0x3ec7c560
       11005000	      1099	80000568	b5bac693	xori	x13,x21,-1189	 x21:0xe8d8d000 x13=0x17272b5b
       11015000	      1100	8000056c	d2abba13	sltiu	x20,x23,-726	 x23:0x80009fc4 x20=0x00000001
       11025000	      1101	80000570	009edf93	srli	x31,x29,0x9	 x29:0x00000001 x31=0x00000000
       11035000	      1102	80000574	01df97b3	sll	x15,x31,x29	 x31:0x00000000 x29:0x00000001 x15=0x00000000
       11045000	      1103	80000578	01dea033	slt	x0,x29,x29	 x29:0x00000001 x29:0x00000001
       11055000	      1104	8000057c	01af3833	sltu	x16,x30,x26	 x30:0x80009f84 x26:0x00000268 x16=0x00000000
       11065000	      1105	80000580	40cb5a13	srai	x20,x22,0xc	 x22:0x00000000 x20=0x00000000
       11075000	      1106	80000584	00000013	addi	x0,x0,0	  x0:0x00000000
       11085000	      1107	80000588	02091663	bne	x18,x0,800005b4	 x18:0x00000014  x0:0x00000000
       11095000	      1108	00000000	00000013	addi	x0,x0,0	  x0:0x00000000
       11105000	      1109	800005b0	00000013	addi	x0,x0,0	  x0:0x00000000
       11115000	      1110	800005b4	01481c93	slli	x25,x16,0x14	 x16:0x00000000 x25=0x00000000
       11125000	      1111	800005b8	127c8113	addi	x2,x25,295	 x25:0x00000000  x2=0x00000127
       11135000	      1112	800005bc	e8942013	slti	x0,x8,-375	  x8:0x0fffff26
       11145000	      1113	800005c0	00e5eab3	or	x21,x11,x14	 x11:0xb93cc000 x14:0x00000093 x21=0xb93cc093
       11155000	      1114	800005c4	00e692b3	sll	x5,x13,x14	 x13:0x17272b5b x14:0x00000093  x5=0x5ad80000
       11165000	      1115	800005c8	001629b3	slt	x19,x12,x1	 x12:0xc28cd000  x1:0xfffff933 x19=0x00000001
       11175000	      1116	800005cc	41a8d8b3	sra	x17,x17,x26	 x17:0x65310000 x26:0x00000268 x17=0x00653100
       11185000	      1117	800005d0	411f5213	srai	x4,x30,0x11	 x30:0x80009f84  x4=0xffffc000
       11195000	      1118	800005d4	01075b33	srl	x22,x14,x16	 x14:0x00000093 x16:0x00000000 x22=0x00000093
       11205000	      1119	800005d8	324bde37	lui	x28,0x324bd	 x28=0x324bd000
       11215000	      1120	800005dc	01f5f5b3	and	x11,x11,x31	 x11:0xb93cc000 x31:0x00000000 x11=0x00000000
       11225000	      1121	800005e0	41138133	sub	x2,x7,x17	  x7:0x91dc35ca x17:0x00653100  x2=0x917704ca
       11235000	      1122	800005e4	da642813	slti	x16,x8,-602	  x8:0x0fffff26 x16=0x00000000
       11245000	      1123	800005e8	00732533	slt	x10,x6,x7	  x6:0x00000268  x7:0x91dc35ca x10=0x00000000
       11255000	      1124	800005ec	0162e2b3	or	x5,x5,x22	  x5:0x5ad80000 x22:0x00000093  x5=0x5ad80093
       11265000	      1125	800005f0	00851833	sll	x16,x10,x8	 x10:0x00000000  x8:0x0fffff26 x16=0x00000000
       11275000	      1126	800005f4	01fc6d33	or	x26,x24,x31	 x24:0x45e1e510 x31:0x00000000 x26=0x45e1e510
       11285000	      1127	800005f8	415c8533	sub	x10,x25,x21	 x25:0x00000000 x21:0xb93cc093 x10=0x46c33f6d
       11295000	      1128	800005fc	00c164b3	or	x9,x2,x12	  x2:0x917704ca x12:0xc28cd000  x9=0xd3ffd4ca
       11305000	      1129	80000600	04394463	blt	x18,x3,80000648	 x18:0x00000014  x3:0x00000000
       11315000	      1130	80000604	40118033	sub	x0,x3,x1	  x3:0x00000000  x1:0xfffff933
       11325000	      1131	80000608	d6837137	lui	x2,0xd6837	  x2=0xd6837000
       11335000	      1132	8000060c	00b26d33	or	x26,x4,x11	  x4:0xffffc000 x11:0x00000000 x26=0xffffc000
       11345000	      1133	80000610	41bd56b3	sra	x13,x26,x27	 x26:0xffffc000 x27:0x00000000 x13=0xffffc000
       11355000	      1134	80000614	258a2413	slti	x8,x20,600	 x20:0x00000000  x8=0x00000001
       11365000	      1135	80000618	52aa1497	auipc	x9,0x52aa1	  x9=0xd2aa1614
       11375000	      1136	8000061c	00714133	xor	x2,x2,x7	  x2:0xd6837000  x7:0x91dc35ca  x2=0x475f45ca
       11385000	      1137	80000620	01e29a33	sll	x20,x5,x30	  x5:0x5ad80093 x30:0x80009f84 x20=0xad800930
       11395000	      1138	80000624	0044da63	bge	x9,x4,80000638	  x9:0xd2aa1614  x4:0xffffc000
       11405000	      1139	80000628	114fe413	ori	x8,x31,276	 x31:0x00000000  x8=0x00000114
       11415000	      1140	8000062c	c5bdca13	xori	x20,x27,-933	 x27:0x00000000 x20=0xfffffc5b
       11425000	      1141	80000630	b2f0e793	ori	x15,x1,-1233	  x1:0xfffff933 x15=0xfffffb3f
       11435000	      1142	80000634	01688e63	beq	x17,x22,80000650	 x17:0x00653100 x22:0x00000093
       11445000	      1143	80000638	fb9f4013	xori	x0,x30,-71	 x30:0x80009f84
       11455000	      1144	8000063c	36572813	slti	x16,x14,869	 x14:0x00000093 x16=0x00000001
       11465000	      1145	80000640	0ec30897	auipc	x17,0xec30	 x17=0x8ec3063c
       11475000	      1146	80000644	2920a013	slti	x0,x1,658	  x1:0xfffff933
       11485000	      1147	80000648	01f7ae33	slt	x28,x15,x31	 x15:0xfffffb3f x31:0x00000000 x28=0x00000001
       11495000	      1148	8000064c	85e48017	auipc	x0,0x85e48	
       11505000	      1149	80000650	00b05293	srli	x5,x0,0xb	  x0:0x00000000  x5=0x00000000
       11515000	      1150	80000654	44000493	addi	x9,x0,1088	  x0:0x00000000  x9=0x00000440
       11525000	      1151	80000658	02eadc63	bge	x21,x14,80000690	 x21:0xb93cc093 x14:0x00000093
       11535000	      1152	8000065c	004a6233	or	x4,x20,x4	 x20:0xfffffc5b  x4:0xffffc000  x4=0xfffffc5b
       11545000	      1153	80000660	002a08b3	add	x17,x20,x2	 x20:0xfffffc5b  x2:0x475f45ca x17=0x475f4225
       11555000	      1154	80000664	419302b3	sub	x5,x6,x25	  x6:0x00000268 x25:0x00000000  x5=0x00000268
       11565000	      1155	80000668	cc905d97	auipc	x27,0xcc905	 x27=0x4c905664
       11575000	      1156	8000066c	036b8e63	beq	x23,x22,800006a8	 x23:0x80009fc4 x22:0x00000093
       11585000	      1157	80000670	36f32493	slti	x9,x6,879	  x6:0x00000268  x9=0x00000001
       11595000	      1158	80000674	0de8a813	slti	x16,x17,222	 x17:0x475f4225 x16=0x00000000
       11605000	      1159	80000678	00bddb13	srli	x22,x27,0xb	 x27:0x4c905664 x22=0x0009920a
       11615000	      1160	8000067c	00184eb3	xor	x29,x16,x1	 x16:0x00000000  x1:0xfffff933 x29=0xfffff933
       11625000	      1161	80000680	5b30b293	sltiu	x5,x1,1459	  x1:0xfffff933  x5=0x00000000
       11635000	      1162	80000684	00b91e63	bne	x18,x11,800006a0	 x18:0x00000014 x11:0x00000000
       11645000	      1163	00000000	00000013	addi	x0,x0,0	  x0:0x00000000
       11655000	      1164	8000069c	00000013	addi	x0,x0,0	  x0:0x00000000
       11665000	      1165	800006a0	0440d063	bge	x1,x4,800006e0	  x1:0xfffff933  x4:0xfffffc5b
       11675000	      1166	800006a4	41c205b3	sub	x11,x4,x28	  x4:0xfffffc5b x28:0x00000001 x11=0xfffffc5a
       11685000	      1167	800006a8	88e9e013	ori	x0,x19,-1906	 x19:0x00000001
       11695000	      1168	800006ac	e29ebf93	sltiu	x31,x29,-471	 x29:0xfffff933 x31=0x00000001
       11705000	      1169	800006b0	01fea233	slt	x4,x29,x31	 x29:0xfffff933 x31:0x00000001  x4=0x00000001
       11715000	      1170	800006b4	018dd463	bge	x27,x24,800006bc	 x27:0x4c905664 x24:0x45e1e510
       11725000	      1171	00000000	00000013	addi	x0,x0,0	  x0:0x00000000
       11735000	      1172	800006b8	00000013	addi	x0,x0,0	  x0:0x00000000
       11745000	      1173	800006bc	1b9dc513	xori	x10,x27,441	 x27:0x4c905664 x10=0x4c9057dd
       11755000	      1174	800006c0	3ae6f813	andi	x16,x13,942	 x13:0xffffc000 x16=0x00000000
       11765000	      1175	800006c4	016217b3	sll	x15,x4,x22	  x4:0x00000001 x22:0x0009920a x15=0x00000400
       11775000	      1176	800006c8	01b25733	srl	x14,x4,x27	  x4:0x00000001 x27:0x4c905664 x14=0x00000000
       11785000	      1177	800006cc	007e0cb3	add	x25,x28,x7	 x28:0x00000001  x7:0x91dc35ca x25=0x91dc35cb
       11795000	      1178	800006d0	01ad9eb3	sll	x29,x27,x26	 x27:0x4c905664 x26:0xffffc000 x29=0x4c905664
       11805000	      1179	800006d4	4b046b13	ori	x22,x8,1200	  x8:0x00000114 x22=0x000005b4
       11815000	      1180	800006d8	056fd063	bge	x31,x22,80000718	 x31:0x00000001 x22:0x000005b4
       11825000	      1181	800006dc	03cd4c63	blt	x26,x28,80000714	 x26:0xffffc000 x28:0x00000001
       11835000	      1182	00000000	00000013	addi	x0,x0,0	  x0:0x00000000
       11845000	      1183	80000710	00000013	addi	x0,x0,0	  x0:0x00000000
       11855000	      1184	80000714	0013ac33	slt	x24,x7,x1	  x7:0x91dc35ca  x1:0xfffff933 x24=0x00000001
       11865000	      1185	80000718	00cb5e13	srli	x28,x22,0xc	 x22:0x000005b4 x28=0x00000000
       11875000	      1186	8000071c	02f61663	bne	x12,x15,80000748	 x12:0xc28cd000 x15:0x00000400
       11885000	      1187	00000000	00000013	addi	x0,x0,0	  x0:0x00000000
       11895000	      1188	80000744	00000013	addi	x0,x0,0	  x0:0x00000000
       11905000	      1189	80000748	38e71b17	auipc	x22,0x38e71	 x22=0xb8e71744
       11915000	      1190	8000074c	0032d4b3	srl	x9,x5,x3	  x5:0x00000000  x3:0x00000000  x9=0x00000000
       11925000	      1191	80000750	01870c33	add	x24,x14,x24	 x14:0x00000000 x24:0x00000001 x24=0x00000001
       11935000	      1192	80000754	02c4cc63	blt	x9,x12,8000078c	  x9:0x00000000 x12:0xc28cd000
       11945000	      1193	80000758	048cd863	bge	x25,x8,800007a8	 x25:0x91dc35cb  x8:0x00000114
       11955000	      1194	8000075c	011b0ab3	add	x21,x22,x17	 x22:0xb8e71744 x17:0x475f4225 x21=0x00465969
       11965000	      1195	80000760	50731437	lui	x8,0x50731	  x8=0x50731000
       11975000	      1196	80000764	00b40263	beq	x8,x11,80000768	  x8:0x50731000 x11:0xfffffc5a
       11985000	      1197	80000768	316a3093	sltiu	x1,x20,790	 x20:0xfffffc5b  x1=0x00000000
       11995000	      1198	8000076c	01cf9233	sll	x4,x31,x28	 x31:0x00000001 x28:0x00000000  x4=0x00000001
       12005000	      1199	80000770	00000013	addi	x0,x0,0	  x0:0x00000000
       12015000	      1200	80000774	11988c93	addi	x25,x17,281	 x17:0x475f4225 x25=0x475f433e
       12025000	      1201	80000778	40cc5c93	srai	x25,x24,0xc	 x24:0x00000001 x25=0x00000000
       12035000	      1202	8000077c	0007a233	slt	x4,x15,x0	 x15:0x00000400  x0:0x00000000  x4=0x00000000
       12045000	      1203	80000780	01fb6933	or	x18,x22,x31	 x22:0xb8e71744 x31:0x00000001 x18=0xb8e71745
       12055000	      1204	80000784	2c86f797	auipc	x15,0x2c86f	 x15=0xac86f780
       12065000	      1205	80000788	005485b3	add	x11,x9,x5	  x9:0x00000000  x5:0x00000000 x11=0x00000000
       12075000	      1206	8000078c	03e11e63	bne	x2,x30,800007c8	  x2:0x475f45ca x30:0x80009f84
       12085000	      1207	00000000	00000013	addi	x0,x0,0	  x0:0x00000000
       12095000	      1208	800007c4	00000013	addi	x0,x0,0	  x0:0x00000000
       12105000	      1209	800007c8	01adfa63	bgeu	x27,x26,800007dc	 x27:0x4c905664 x26:0xffffc000
       12115000	      1210	800007cc	044fa293	slti	x5,x31,68	 x31:0x00000001  x5=0x00000001
       12125000	      1211	800007d0	001268b3	or	x17,x4,x1	  x4:0x00000000  x1:0x00000000 x17=0x00000000
       12135000	      1212	800007d4	04d58063	beq	x11,x13,80000814	 x11:0x00000000 x13:0xffffc000
       12145000	      1213	800007d8	016efa33	and	x20,x29,x22	 x29:0x4c905664 x22:0xb8e71744 x20=0x08801644
       12155000	      1214	800007dc	36746513	ori	x10,x8,871	  x8:0x50731000 x10=0x50731367
       12165000	      1215	800007e0	03804e63	blt	x0,x24,8000081c	  x0:0x00000000 x24:0x00000001
       12175000	      1216	00000000	00000013	addi	x0,x0,0	  x0:0x00000000
       12185000	      1217	80000818	00000013	addi	x0,x0,0	  x0:0x00000000
       12195000	      1218	8000081c	41c48333	sub	x6,x9,x28	  x9:0x00000000 x28:0x00000000  x6=0x00000000
       12205000	      1219	80000820	25a8ed93	ori	x27,x17,602	 x17:0x00000000 x27=0x0000025a
       12215000	      1220	80000824	412854b3	sra	x9,x16,x18	 x16:0x00000000 x18:0xb8e71745  x9=0x00000000
       12225000	      1221	80000828	d70d8a17	auipc	x20,0xd70d8	 x20=0x570d8824
       12235000	      1222	8000082c	04880063	beq	x16,x8,8000086c	 x16:0x00000000  x8:0x50731000
       12245000	      1223	80000830	6b40e693	ori	x13,x1,1716	  x1:0x00000000 x13=0x000006b4
       12255000	      1224	80000834	0343fe63	bgeu	x7,x20,80000870	  x7:0x91dc35ca x20:0x570d8824
       12265000	      1225	00000000	00000013	addi	x0,x0,0	  x0:0x00000000
       12275000	      1226	8000086c	00000013	addi	x0,x0,0	  x0:0x00000000
       12285000	      1227	80000870	8f7ab013	sltiu	x0,x21,-1801	 x21:0x00465969
       12295000	      1228	80000874	5a36e593	ori	x11,x13,1443	 x13:0x000006b4 x11=0x000007b7
       12305000	      1229	80000878	a9d0cc97	auipc	x25,0xa9d0c	 x25=0x29d0c874
       12315000	      1230	8000087c	01791213	slli	x4,x18,0x17	 x18:0xb8e71745  x4=0xa2800000
       12325000	      1231	80000880	0146d233	srl	x4,x13,x20	 x13:0x000006b4 x20:0x570d8824  x4=0x0000006b
       12335000	      1232	80000884	9308ab13	slti	x22,x17,-1744	 x17:0x00000000 x22=0x00000000
       12345000	      1233	80000888	0194f663	bgeu	x9,x25,80000894	  x9:0x00000000 x25:0x29d0c874
       12355000	      1234	8000088c	00456e63	bltu	x10,x4,800008a8	 x10:0x50731367  x4:0x0000006b
       12365000	      1235	80000890	00252913	slti	x18,x10,2	 x10:0x50731367 x18=0x00000000
       12375000	      1236	80000894	00319cb3	sll	x25,x3,x3	  x3:0x00000000  x3:0x00000000 x25=0x00000000
       12385000	      1237	80000898	00000013	addi	x0,x0,0	  x0:0x00000000
       12395000	      1238	8000089c	675951b7	lui	x3,0x67595	  x3=0x67595000
       12405000	      1239	800008a0	a247c937	lui	x18,0xa247c	 x18=0xa247c000
       12415000	      1240	800008a4	01e08863	beq	x1,x30,800008b4	  x1:0x00000000 x30:0x80009f84
       12425000	      1241	800008a8	41de5233	sra	x4,x28,x29	 x28:0x00000000 x29:0x4c905664  x4=0x00000000
       12435000	      1242	800008ac	6fb10217	auipc	x4,0x6fb10	  x4=0xefb108a8
       12445000	      1243	800008b0	015e9813	slli	x16,x29,0x15	 x29:0x4c905664 x16=0xcc800000
       12455000	      1244	800008b4	00000013	addi	x0,x0,0	  x0:0x00000000
       12465000	      1245	800008b8	01599a63	bne	x19,x21,800008cc	 x19:0x00000001 x21:0x00465969
       12475000	      1246	00000000	00000013	addi	x0,x0,0	  x0:0x00000000
       12485000	      1247	800008c8	00000013	addi	x0,x0,0	  x0:0x00000000
       12495000	      1248	800008cc	ca76f193	andi	x3,x13,-857	 x13:0x000006b4  x3=0x000004a4
       12505000	      1249	800008d0	0aa77337	lui	x6,0xaa77	  x6=0x0aa77000
       12515000	      1250	800008d4	4059d513	srai	x10,x19,0x5	 x19:0x00000001 x10=0x00000000
       12525000	      1251	800008d8	0193e533	or	x10,x7,x25	  x7:0x91dc35ca x25:0x00000000 x10=0x91dc35ca
       12535000	      1252	800008dc	02606c63	bltu	x0,x6,80000914	  x0:0x00000000  x6:0x0aa77000
       12545000	      1253	00000000	00000013	addi	x0,x0,0	  x0:0x00000000
       12555000	      1254	80000910	00000013	addi	x0,x0,0	  x0:0x00000000
       12565000	      1255	80000914	001e1693	slli	x13,x28,0x1	 x28:0x00000000 x13=0x00000000
       12575000	      1256	80000918	00e4c263	blt	x9,x14,8000091c	  x9:0x00000000 x14:0x00000000
       12585000	      1257	8000091c	47c0fa13	andi	x20,x1,1148	  x1:0x00000000 x20=0x00000000
       12595000	      1258	80000920	2d7aaf97	auipc	x31,0x2d7aa	 x31=0xad7aa91c
       12605000	      1259	80000924	00c44833	xor	x16,x8,x12	  x8:0x50731000 x12:0xc28cd000 x16=0x92ffc000
       12615000	      1260	80000928	72bd0193	addi	x3,x26,1835	 x26:0xffffc000  x3=0xffffc72b
       12625000	      1261	8000092c	0b496013	ori	x0,x18,180	 x18:0xa247c000
       12635000	      1262	80000930	014eb6b3	sltu	x13,x29,x20	 x29:0x4c905664 x20:0x00000000 x13=0x00000000
       12645000	      1263	80000934	00dcde63	bge	x25,x13,80000950	 x25:0x00000000 x13:0x00000000
       12655000	      1264	00000000	00000013	addi	x0,x0,0	  x0:0x00000000
       12665000	      1265	8000094c	00000013	addi	x0,x0,0	  x0:0x00000000
       12675000	      1266	80000950	00f9c463	blt	x19,x15,80000958	 x19:0x00000001 x15:0xac86f780
       12685000	      1267	80000954	4a290613	addi	x12,x18,1186	 x18:0xa247c000 x12=0xa247c4a2
       12695000	      1268	80000958	8963a493	slti	x9,x7,-1898	  x7:0x91dc35ca  x9=0x00000001
       12705000	      1269	8000095c	0598f063	bgeu	x17,x25,8000099c	 x17:0x00000000 x25:0x00000000
       12715000	      1270	00000000	00000013	addi	x0,x0,0	  x0:0x00000000
       12725000	      1271	80000998	00000013	addi	x0,x0,0	  x0:0x00000000
       12735000	      1272	8000099c	25a6e713	ori	x14,x13,602	 x13:0x00000000 x14=0x0000025a
       12745000	      1273	800009a0	008b1013	slli	x0,x22,0x8	 x22:0x00000000
       12755000	      1274	800009a4	009f6d33	or	x26,x30,x9	 x30:0x80009f84  x9:0x00000001 x26=0x80009f85
       12765000	      1275	800009a8	01e09c13	slli	x24,x1,0x1e	  x1:0x00000000 x24=0x00000000
       12775000	      1276	800009ac	40468ab3	sub	x21,x13,x4	 x13:0x00000000  x4:0xefb108a8 x21=0x104ef758
       12785000	      1277	800009b0	12fc7693	andi	x13,x24,303	 x24:0x00000000 x13=0x00000000
       12795000	      1278	800009b4	60203c13	sltiu	x24,x0,1538	  x0:0x00000000 x24=0x00000001
       12805000	      1279	800009b8	006c7b33	and	x22,x24,x6	 x24:0x00000001  x6:0x0aa77000 x22=0x00000000
       12815000	      1280	800009bc	00000d17	auipc	x26,0x0	 x26=0x800009b8
       12825000	      1281	800009c0	348d0d13	addi	x26,x26,840	 x26:0x800009b8 x26=0x80000d00
       12835000	      1282	800009c4	01e69813	slli	x16,x13,0x1e	 x13:0x00000000 x16=0x00000000
       12845000	      1283	800009c8	0131d7b3	srl	x15,x3,x19	  x3:0xffffc72b x19:0x00000001 x15=0x7fffe395
       12855000	      1284	800009cc	1cbd0d13	addi	x26,x26,459	 x26:0x80000d00 x26=0x80000ecb
       12865000	      1285	800009d0	40998633	sub	x12,x19,x9	 x19:0x00000001  x9:0x00000001 x12=0x00000000
       12875000	      1286	800009d4	9df96613	ori	x12,x18,-1569	 x18:0xa247c000 x12=0xfffff9df
       12885000	      1287	800009d8	896f8937	lui	x18,0x896f8	 x18=0x896f8000
       12895000	      1288	800009dc	e35d09e7	jalr	x19,x26,-459	 x26:0x80000ecb x19=0x800009dc
       12905000	      1289	00000000	00000013	addi	x0,x0,0	  x0:0x00000000
       12915000	      1290	80000d00	00000013	addi	x0,x0,0	  x0:0x00000000
       12925000	      1291	80000d04	ff4f0f13	addi	x30,x30,-12	 x30:0x80009f84 x30=0x80009f78
       12935000	      1292	80000d08	009557b3	srl	x15,x10,x9	 x10:0x91dc35ca  x9:0x00000001 x15=0x48ee1ae5
       12945000	      1293	80000d0c	013f2223	sw	x19,4(x30)	 x30:0x80009f78 x19:0x800009dc PA:0x80009f7c
       12955000	      1294	80000d10	01e26833	or	x16,x4,x30	  x4:0xefb108a8 x30:0x80009f78 x16=0xefb19ff8
       12965000	      1295	80000d14	018401b3	add	x3,x8,x24	  x8:0x50731000 x24:0x00000001  x3=0x50731001
       12975000	      1296	80000d18	00800e93	addi	x29,x0,8	  x0:0x00000000 x29=0x00000008
       12985000	      1297	80000d1c	01ada0b3	slt	x1,x27,x26	 x27:0x0000025a x26:0x80000ecb  x1=0x00000000
       12995000	      1298	80000d20	011eedb3	or	x27,x29,x17	 x29:0x00000008 x17:0x00000000 x27=0x00000008
       13005000	      1299	80000d24	00500513	addi	x10,x0,5	  x0:0x00000000 x10=0x00000005
       13015000	      1300	80000d28	91b3e693	ori	x13,x7,-1765	  x7:0x91dc35ca x13=0xfffffddb
       13025000	      1301	80000d2c	001cf2b3	and	x5,x25,x1	 x25:0x00000000  x1:0x00000000  x5=0x00000000
       13035000	      1302	80000d30	00958333	add	x6,x11,x9	 x11:0x000007b7  x9:0x00000001  x6=0x000007b8
       13045000	      1303	80000d34	008ab1b3	sltu	x3,x21,x8	 x21:0x104ef758  x8:0x50731000  x3=0x00000001
       13055000	      1304	80000d38	006f5d33	srl	x26,x30,x6	 x30:0x80009f78  x6:0x000007b8 x26=0x00000080
       13065000	      1305	80000d3c	8bdd8213	addi	x4,x27,-1859	 x27:0x00000008  x4=0xfffff8c5
       13075000	      1306	80000d40	01b294b3	sll	x9,x5,x27	  x5:0x00000000 x27:0x00000008  x9=0x00000000
       13085000	      1307	80000d44	7d902713	slti	x14,x0,2009	  x0:0x00000000 x14=0x00000001
       13095000	      1308	80000d48	0043de33	srl	x28,x7,x4	  x7:0x91dc35ca  x4:0xfffff8c5 x28=0x048ee1ae
       13105000	      1309	80000d4c	1d757c93	andi	x25,x10,471	 x10:0x00000005 x25=0x00000005
       13115000	      1310	80000d50	ffde8e93	addi	x29,x29,-3	 x29:0x00000008 x29=0x00000005
       13125000	      1311	80000d54	70c005b7	lui	x11,0x70c00	 x11=0x70c00000
       13135000	      1312	80000d58	79b2c2b7	lui	x5,0x79b2c	  x5=0x79b2c000
       13145000	      1313	80000d5c	ffd00113	addi	x2,x0,-3	  x0:0x00000000  x2=0xfffffffd
       13155000	      1314	80000d60	01a5d793	srli	x15,x11,0x1a	 x11:0x70c00000 x15=0x0000001c
       13165000	      1315	80000d64	001ddd33	srl	x26,x27,x1	 x27:0x00000008  x1:0x00000000 x26=0x00000008
       13175000	      1316	80000d68	67a53293	sltiu	x5,x10,1658	 x10:0x00000005  x5=0x00000001
       13185000	      1317	80000d6c	00c00a93	addi	x21,x0,12	  x0:0x00000000 x21=0x0000000c
       13195000	      1318	80000d70	0033f6b3	and	x13,x7,x3	  x7:0x91dc35ca  x3:0x00000001 x13=0x00000000
       13205000	      1319	80000d74	41bbd593	srai	x11,x23,0x1b	 x23:0x80009fc4 x11=0xfffffff0
       13215000	      1320	80000d78	41d8d6b3	sra	x13,x17,x29	 x17:0x00000000 x29:0x00000005 x13=0x00000000
       13225000	      1321	80000d7c	00910113	addi	x2,x2,9	  x2:0xfffffffd  x2=0x00000006
       13235000	      1322	80000d80	ff5168e3	bltu	x2,x21,80000d70	  x2:0x00000006 x21:0x0000000c
       13245000	      1323	00000000	00000013	addi	x0,x0,0	  x0:0x00000000
       13255000	      1324	80000d6c	00000013	addi	x0,x0,0	  x0:0x00000000
       13265000	      1325	80000d70	0033f6b3	and	x13,x7,x3	  x7:0x91dc35ca  x3:0x00000001 x13=0x00000000
       13275000	      1326	80000d74	41bbd593	srai	x11,x23,0x1b	 x23:0x80009fc4 x11=0xfffffff0
       13285000	      1327	80000d78	41d8d6b3	sra	x13,x17,x29	 x17:0x00000000 x29:0x00000005 x13=0x00000000
       13295000	      1328	80000d7c	00910113	addi	x2,x2,9	  x2:0x00000006  x2=0x0000000f
       13305000	      1329	80000d80	ff5168e3	bltu	x2,x21,80000d70	  x2:0x0000000f x21:0x0000000c
       13315000	      1330	80000d84	faaef8e3	bgeu	x29,x10,80000d34	 x29:0x00000005 x10:0x00000005
       13325000	      1331	00000000	00000013	addi	x0,x0,0	  x0:0x00000000
       13335000	      1332	80000d30	00000013	addi	x0,x0,0	  x0:0x00000000
       13345000	      1333	80000d34	008ab1b3	sltu	x3,x21,x8	 x21:0x0000000c  x8:0x50731000  x3=0x00000001
       13355000	      1334	80000d38	006f5d33	srl	x26,x30,x6	 x30:0x80009f78  x6:0x000007b8 x26=0x00000080
       13365000	      1335	80000d3c	8bdd8213	addi	x4,x27,-1859	 x27:0x00000008  x4=0xfffff8c5
       13375000	      1336	80000d40	01b294b3	sll	x9,x5,x27	  x5:0x00000001 x27:0x00000008  x9=0x00000100
       13385000	      1337	80000d44	7d902713	slti	x14,x0,2009	  x0:0x00000000 x14=0x00000001
       13395000	      1338	80000d48	0043de33	srl	x28,x7,x4	  x7:0x91dc35ca  x4:0xfffff8c5 x28=0x048ee1ae
       13405000	      1339	80000d4c	1d757c93	andi	x25,x10,471	 x10:0x00000005 x25=0x00000005
       13415000	      1340	80000d50	ffde8e93	addi	x29,x29,-3	 x29:0x00000005 x29=0x00000002
       13425000	      1341	80000d54	70c005b7	lui	x11,0x70c00	 x11=0x70c00000
       13435000	      1342	80000d58	79b2c2b7	lui	x5,0x79b2c	  x5=0x79b2c000
       13445000	      1343	80000d5c	ffd00113	addi	x2,x0,-3	  x0:0x00000000  x2=0xfffffffd
       13455000	      1344	80000d60	01a5d793	srli	x15,x11,0x1a	 x11:0x70c00000 x15=0x0000001c
       13465000	      1345	80000d64	001ddd33	srl	x26,x27,x1	 x27:0x00000008  x1:0x00000000 x26=0x00000008
       13475000	      1346	80000d68	67a53293	sltiu	x5,x10,1658	 x10:0x00000005  x5=0x00000001
       13485000	      1347	80000d6c	00c00a93	addi	x21,x0,12	  x0:0x00000000 x21=0x0000000c
       13495000	      1348	80000d70	0033f6b3	and	x13,x7,x3	  x7:0x91dc35ca  x3:0x00000001 x13=0x00000000
       13505000	      1349	80000d74	41bbd593	srai	x11,x23,0x1b	 x23:0x80009fc4 x11=0xfffffff0
       13515000	      1350	80000d78	41d8d6b3	sra	x13,x17,x29	 x17:0x00000000 x29:0x00000002 x13=0x00000000
       13525000	      1351	80000d7c	00910113	addi	x2,x2,9	  x2:0xfffffffd  x2=0x00000006
       13535000	      1352	80000d80	ff5168e3	bltu	x2,x21,80000d70	  x2:0x00000006 x21:0x0000000c
       13545000	      1353	00000000	00000013	addi	x0,x0,0	  x0:0x00000000
       13555000	      1354	80000d6c	00000013	addi	x0,x0,0	  x0:0x00000000
       13565000	      1355	80000d70	0033f6b3	and	x13,x7,x3	  x7:0x91dc35ca  x3:0x00000001 x13=0x00000000
       13575000	      1356	80000d74	41bbd593	srai	x11,x23,0x1b	 x23:0x80009fc4 x11=0xfffffff0
       13585000	      1357	80000d78	41d8d6b3	sra	x13,x17,x29	 x17:0x00000000 x29:0x00000002 x13=0x00000000
       13595000	      1358	80000d7c	00910113	addi	x2,x2,9	  x2:0x00000006  x2=0x0000000f
       13605000	      1359	80000d80	ff5168e3	bltu	x2,x21,80000d70	  x2:0x0000000f x21:0x0000000c
       13615000	      1360	80000d84	faaef8e3	bgeu	x29,x10,80000d34	 x29:0x00000002 x10:0x00000005
       13625000	      1361	80000d88	40d0d893	srai	x17,x1,0xd	  x1:0x00000000 x17=0x00000000
       13635000	      1362	80000d8c	ffe00413	addi	x8,x0,-2	  x0:0x00000000  x8=0xfffffffe
       13645000	      1363	80000d90	00d11813	slli	x16,x2,0xd	  x2:0x0000000f x16=0x0001e000
       13655000	      1364	80000d94	ff600593	addi	x11,x0,-10	  x0:0x00000000 x11=0xfffffff6
       13665000	      1365	80000d98	0154a0b3	slt	x1,x9,x21	  x9:0x00000100 x21:0x0000000c  x1=0x00000000
       13675000	      1366	80000d9c	ffb40413	addi	x8,x8,-5	  x8:0xfffffffe  x8=0xfffffff9
       13685000	      1367	80000da0	feb45ce3	bge	x8,x11,80000d98	  x8:0xfffffff9 x11:0xfffffff6
       13695000	      1368	00000000	00000013	addi	x0,x0,0	  x0:0x00000000
       13705000	      1369	80000d94	00000013	addi	x0,x0,0	  x0:0x00000000
       13715000	      1370	80000d98	0154a0b3	slt	x1,x9,x21	  x9:0x00000100 x21:0x0000000c  x1=0x00000000
       13725000	      1371	80000d9c	ffb40413	addi	x8,x8,-5	  x8:0xfffffff9  x8=0xfffffff4
       13735000	      1372	80000da0	feb45ce3	bge	x8,x11,80000d98	  x8:0xfffffff4 x11:0xfffffff6
       13745000	      1373	80000da4	4098d613	srai	x12,x17,0x9	 x17:0x00000000 x12=0x00000000
       13755000	      1374	80000da8	00800413	addi	x8,x0,8	  x0:0x00000000  x8=0x00000008
       13765000	      1375	80000dac	403350b3	sra	x1,x6,x3	  x6:0x000007b8  x3:0x00000001  x1=0x000003dc
       13775000	      1376	80000db0	414981b3	sub	x3,x19,x20	 x19:0x800009dc x20:0x00000000  x3=0x800009dc
       13785000	      1377	80000db4	005f9593	slli	x11,x31,0x5	 x31:0xad7aa91c x11=0xaf552380
       13795000	      1378	80000db8	f808c1b7	lui	x3,0xf808c	  x3=0xf808c000
       13805000	      1379	80000dbc	01c02db3	slt	x27,x0,x28	  x0:0x00000000 x28:0x048ee1ae x27=0x00000001
       13815000	      1380	80000dc0	41725633	sra	x12,x4,x23	  x4:0xfffff8c5 x23:0x80009fc4 x12=0xffffff8c
       13825000	      1381	80000dc4	00700c93	addi	x25,x0,7	  x0:0x00000000 x25=0x00000007
       13835000	      1382	80000dc8	401550b3	sra	x1,x10,x1	 x10:0x00000005  x1:0x000003dc  x1=0x00000000
       13845000	      1383	80000dcc	f7b41c37	lui	x24,0xf7b41	 x24=0xf7b41000
       13855000	      1384	80000dd0	00a4b933	sltu	x18,x9,x10	  x9:0x00000100 x10:0x00000005 x18=0x00000000
       13865000	      1385	80000dd4	ffa40413	addi	x8,x8,-6	  x8:0x00000008  x8=0x00000002
       13875000	      1386	80000dd8	00800713	addi	x14,x0,8	  x0:0x00000000 x14=0x00000008
       13885000	      1387	80000ddc	00000013	addi	x0,x0,0	  x0:0x00000000
       13895000	      1388	80000de0	ff600d13	addi	x26,x0,-10	  x0:0x00000000 x26=0xfffffff6
       13905000	      1389	80000de4	f7ea3917	auipc	x18,0xf7ea3	 x18=0x77ea3de0
       13915000	      1390	80000de8	006508b3	add	x17,x10,x6	 x10:0x00000005  x6:0x000007b8 x17=0x000007bd
       13925000	      1391	80000dec	01ed5793	srli	x15,x26,0x1e	 x26:0xfffffff6 x15=0x00000003
       13935000	      1392	80000df0	4964e213	ori	x4,x9,1174	  x9:0x00000100  x4=0x00000596
       13945000	      1393	80000df4	009f2633	slt	x12,x30,x9	 x30:0x80009f78  x9:0x00000100 x12=0x00000001
       13955000	      1394	80000df8	520c4213	xori	x4,x24,1312	 x24:0xf7b41000  x4=0xf7b41520
       13965000	      1395	80000dfc	4967a513	slti	x10,x15,1174	 x15:0x00000003 x10=0x00000001
       13975000	      1396	80000e00	ffa70713	addi	x14,x14,-6	 x14:0x00000008 x14=0x00000002
       13985000	      1397	80000e04	ffc58993	addi	x19,x11,-4	 x11:0xaf552380 x19=0xaf55237c
       13995000	      1398	80000e08	01d0e6b3	or	x13,x1,x29	  x1:0x00000000 x29:0x00000002 x13=0x00000002
       14005000	      1399	80000e0c	01cfe7b3	or	x15,x31,x28	 x31:0xad7aa91c x28:0x048ee1ae x15=0xadfee9be
       14015000	      1400	80000e10	ffa702e3	beq	x14,x26,80000df4	 x14:0x00000002 x26:0xfffffff6
       14025000	      1401	80000e14	28c42193	slti	x3,x8,652	  x8:0x00000002  x3=0x00000001
       14035000	      1402	80000e18	0127f633	and	x12,x15,x18	 x15:0xadfee9be x18:0x77ea3de0 x12=0x25ea29a0
       14045000	      1403	80000e1c	fb9478e3	bgeu	x8,x25,80000dcc	  x8:0x00000002 x25:0x00000007
       14055000	      1404	80000e20	41e85833	sra	x16,x16,x30	 x16:0x0001e000 x30:0x80009f78 x16=0x00000000
       14065000	      1405	80000e24	00a00c13	addi	x24,x0,10	  x0:0x00000000 x24=0x0000000a
       14075000	      1406	80000e28	01770933	add	x18,x14,x23	 x14:0x00000002 x23:0x80009fc4 x18=0x80009fc6
       14085000	      1407	80000e2c	ecfd0e93	addi	x29,x26,-305	 x26:0xfffffff6 x29=0xfffffec5
       14095000	      1408	80000e30	ba5a3fb7	lui	x31,0xba5a3	 x31=0xba5a3000
       14105000	      1409	80000e34	00a00193	addi	x3,x0,10	  x0:0x00000000  x3=0x0000000a
       14115000	      1410	80000e38	007dc433	xor	x8,x27,x7	 x27:0x00000001  x7:0x91dc35ca  x8=0x91dc35cb
       14125000	      1411	80000e3c	c861e5b7	lui	x11,0xc861e	 x11=0xc861e000
       14135000	      1412	80000e40	00116333	or	x6,x2,x1	  x2:0x0000000f  x1:0x00000000  x6=0x0000000f
       14145000	      1413	80000e44	40f58e33	sub	x28,x11,x15	 x11:0xc861e000 x15:0xadfee9be x28=0x1a62f642
       14155000	      1414	80000e48	eafd1c97	auipc	x25,0xeafd1	 x25=0x6afd1e44
       14165000	      1415	80000e4c	4ec3e417	auipc	x8,0x4ec3e	  x8=0xcec3ee48
       14175000	      1416	80000e50	ff8c0c13	addi	x24,x24,-8	 x24:0x0000000a x24=0x00000002
       14185000	      1417	80000e54	01c0e6b3	or	x13,x1,x28	  x1:0x00000000 x28:0x1a62f642 x13=0x1a62f642
       14195000	      1418	80000e58	946b3713	sltiu	x14,x22,-1722	 x22:0x00000000 x14=0x00000001
       14205000	      1419	80000e5c	00600113	addi	x2,x0,6	  x0:0x00000000  x2=0x00000006
       14215000	      1420	80000e60	00600d13	addi	x26,x0,6	  x0:0x00000000 x26=0x00000006
       14225000	      1421	80000e64	5099fa93	andi	x21,x19,1289	 x19:0xaf55237c x21=0x00000108
       14235000	      1422	80000e68	001379b3	and	x19,x6,x1	  x6:0x0000000f  x1:0x00000000 x19=0x00000000
       14245000	      1423	80000e6c	00876fb3	or	x31,x14,x8	 x14:0x00000001  x8:0xcec3ee48 x31=0xcec3ee49
       14255000	      1424	80000e70	41b2dc93	srai	x25,x5,0x1b	  x5:0x00000001 x25=0x00000000
       14265000	      1425	80000e74	ffd10113	addi	x2,x2,-3	  x2:0x00000006  x2=0x00000003
       14275000	      1426	80000e78	016a04b3	add	x9,x20,x22	 x20:0x00000000 x22:0x00000000  x9=0x00000000
       14285000	      1427	80000e7c	ffa178e3	bgeu	x2,x26,80000e6c	  x2:0x00000003 x26:0x00000006
       14295000	      1428	80000e80	00000013	addi	x0,x0,0	  x0:0x00000000
       14305000	      1429	80000e84	fa3c7ee3	bgeu	x24,x3,80000e40	 x24:0x00000002  x3:0x0000000a
       14315000	      1430	80000e88	82a2f937	lui	x18,0x82a2f	 x18=0x82a2f000
       14325000	      1431	80000e8c	00700913	addi	x18,x0,7	  x0:0x00000000 x18=0x00000007
       14335000	      1432	80000e90	00500793	addi	x15,x0,5	  x0:0x00000000 x15=0x00000005
       14345000	      1433	80000e94	003d45b3	xor	x11,x26,x3	 x26:0x00000006  x3:0x0000000a x11=0x0000000c
       14355000	      1434	80000e98	0134a1b3	slt	x3,x9,x19	  x9:0x00000000 x19:0x00000000  x3=0x00000000
       14365000	      1435	80000e9c	ffc90913	addi	x18,x18,-4	 x18:0x00000007 x18=0x00000003
       14375000	      1436	80000ea0	00a00113	addi	x2,x0,10	  x0:0x00000000  x2=0x0000000a
       14385000	      1437	80000ea4	4f57f193	andi	x3,x15,1269	 x15:0x00000005  x3=0x00000005
       14395000	      1438	80000ea8	01200b13	addi	x22,x0,18	  x0:0x00000000 x22=0x00000012
       14405000	      1439	80000eac	40a950b3	sra	x1,x18,x10	 x18:0x00000003 x10:0x00000001  x1=0x00000001
       14415000	      1440	80000eb0	da442a13	slti	x20,x8,-604	  x8:0xcec3ee48 x20=0x00000001
       14425000	      1441	80000eb4	00000013	addi	x0,x0,0	  x0:0x00000000
       14435000	      1442	80000eb8	70ba4993	xori	x19,x20,1803	 x20:0x00000001 x19=0x0000070a
       14445000	      1443	80000ebc	00410113	addi	x2,x2,4	  x2:0x0000000a  x2=0x0000000e
       14455000	      1444	80000ec0	a92ec993	xori	x19,x29,-1390	 x29:0xfffffec5 x19=0x00000457
       14465000	      1445	80000ec4	69f3ac93	slti	x25,x7,1695	  x7:0x91dc35ca x25=0x00000001
       14475000	      1446	80000ec8	00000013	addi	x0,x0,0	  x0:0x00000000
       14485000	      1447	80000ecc	f72d7213	andi	x4,x26,-142	 x26:0x00000006  x4=0x00000002
       14495000	      1448	80000ed0	4802b313	sltiu	x6,x5,1152	  x5:0x00000001  x6=0x00000001
       14505000	      1449	80000ed4	1c0ea417	auipc	x8,0x1c0ea	  x8=0x9c0eaed0
       14515000	      1450	80000ed8	010db533	sltu	x10,x27,x16	 x27:0x00000001 x16:0x00000000 x10=0x00000000
       14525000	      1451	80000edc	fd616ae3	bltu	x2,x22,80000eb0	  x2:0x0000000e x22:0x00000012
       14535000	      1452	00000000	00000013	addi	x0,x0,0	  x0:0x00000000
       14545000	      1453	80000eac	00000013	addi	x0,x0,0	  x0:0x00000000
       14555000	      1454	80000eb0	da442a13	slti	x20,x8,-604	  x8:0x9c0eaed0 x20=0x00000001
       14565000	      1455	80000eb4	00000013	addi	x0,x0,0	  x0:0x00000000
       14575000	      1456	80000eb8	70ba4993	xori	x19,x20,1803	 x20:0x00000001 x19=0x0000070a
       14585000	      1457	80000ebc	00410113	addi	x2,x2,4	  x2:0x0000000e  x2=0x00000012
       14595000	      1458	80000ec0	a92ec993	xori	x19,x29,-1390	 x29:0xfffffec5 x19=0x00000457
       14605000	      1459	80000ec4	69f3ac93	slti	x25,x7,1695	  x7:0x91dc35ca x25=0x00000001
       14615000	      1460	80000ec8	00000013	addi	x0,x0,0	  x0:0x00000000
       14625000	      1461	80000ecc	f72d7213	andi	x4,x26,-142	 x26:0x00000006  x4=0x00000002
       14635000	      1462	80000ed0	4802b313	sltiu	x6,x5,1152	  x5:0x00000001  x6=0x00000001
       14645000	      1463	80000ed4	1c0ea417	auipc	x8,0x1c0ea	  x8=0x9c0eaed0
       14655000	      1464	80000ed8	010db533	sltu	x10,x27,x16	 x27:0x00000001 x16:0x00000000 x10=0x00000000
       14665000	      1465	80000edc	fd616ae3	bltu	x2,x22,80000eb0	  x2:0x00000012 x22:0x00000012
       14675000	      1466	80000ee0	006be433	or	x8,x23,x6	 x23:0x80009fc4  x6:0x00000001  x8=0x80009fc5
       14685000	      1467	80000ee4	00fab1b3	sltu	x3,x21,x15	 x21:0x00000108 x15:0x00000005  x3=0x00000000
       14695000	      1468	80000ee8	5ca4ca13	xori	x20,x9,1482	  x9:0x00000000 x20=0x000005ca
       14705000	      1469	80000eec	008a16b3	sll	x13,x20,x8	 x20:0x000005ca  x8:0x80009fc5 x13=0x0000b940
       14715000	      1470	80000ef0	00b96833	or	x16,x18,x11	 x18:0x00000003 x11:0x0000000c x16=0x0000000f
       14725000	      1471	80000ef4	faf970e3	bgeu	x18,x15,80000e94	 x18:0x00000003 x15:0x00000005
       14735000	      1472	80000ef8	00f92533	slt	x10,x18,x15	 x18:0x00000003 x15:0x00000005 x10=0x00000001
       14745000	      1473	80000efc	00000e13	addi	x28,x0,0	  x0:0x00000000 x28=0x00000000
       14755000	      1474	80000f00	0077a4b3	slt	x9,x15,x7	 x15:0x00000005  x7:0x91dc35ca  x9=0x00000000
       14765000	      1475	80000f04	41af5313	srai	x6,x30,0x1a	 x30:0x80009f78  x6=0xffffffe0
       14775000	      1476	80000f08	8e3e2013	slti	x0,x28,-1821	 x28:0x00000000
       14785000	      1477	80000f0c	8756b817	auipc	x16,0x8756b	 x16=0x0756bf08
       14795000	      1478	80000f10	e148e613	ori	x12,x17,-492	 x17:0x000007bd x12=0xffffffbd
       14805000	      1479	80000f14	01455293	srli	x5,x10,0x14	 x10:0x00000001  x5=0x00000000
       14815000	      1480	80000f18	5e53ac37	lui	x24,0x5e53a	 x24=0x5e53a000
       14825000	      1481	80000f1c	01000213	addi	x4,x0,16	  x0:0x00000000  x4=0x00000010
       14835000	      1482	80000f20	7ffc2a97	auipc	x21,0x7ffc2	 x21=0xfffc2f1c
       14845000	      1483	80000f24	010d4333	xor	x6,x26,x16	 x26:0x00000006 x16:0x0756bf08  x6=0x0756bf0e
       14855000	      1484	80000f28	00c49b13	slli	x22,x9,0xc	  x9:0x00000000 x22=0x00000000
       14865000	      1485	80000f2c	00ecbcb3	sltu	x25,x25,x14	 x25:0x00000001 x14:0x00000001 x25=0x00000000
       14875000	      1486	80000f30	375c2513	slti	x10,x24,885	 x24:0x5e53a000 x10=0x00000000
       14885000	      1487	80000f34	00f9f833	and	x16,x19,x15	 x19:0x00000457 x15:0x00000005 x16=0x00000005
       14895000	      1488	80000f38	002365b3	or	x11,x6,x2	  x6:0x0756bf0e  x2:0x00000012 x11=0x0756bf1e
       14905000	      1489	80000f3c	7f78ee93	ori	x29,x17,2039	 x17:0x000007bd x29=0x000007ff
       14915000	      1490	80000f40	008e0e13	addi	x28,x28,8	 x28:0x00000000 x28=0x00000008
       14925000	      1491	80000f44	4172d2b3	sra	x5,x5,x23	  x5:0x00000000 x23:0x80009fc4  x5=0x00000000
       14935000	      1492	80000f48	00691113	slli	x2,x18,0x6	 x18:0x00000003  x2=0x000000c0
       14945000	      1493	80000f4c	01406133	or	x2,x0,x20	  x0:0x00000000 x20:0x000005ca  x2=0x000005ca
       14955000	      1494	80000f50	fc4e6ee3	bltu	x28,x4,80000f2c	 x28:0x00000008  x4:0x00000010
       14965000	      1495	00000000	00000013	addi	x0,x0,0	  x0:0x00000000
       14975000	      1496	80000f28	00000013	addi	x0,x0,0	  x0:0x00000000
       14985000	      1497	80000f2c	00ecbcb3	sltu	x25,x25,x14	 x25:0x00000000 x14:0x00000001 x25=0x00000001
       14995000	      1498	80000f30	375c2513	slti	x10,x24,885	 x24:0x5e53a000 x10=0x00000000
       15005000	      1499	80000f34	00f9f833	and	x16,x19,x15	 x19:0x00000457 x15:0x00000005 x16=0x00000005
       15015000	      1500	80000f38	002365b3	or	x11,x6,x2	  x6:0x0756bf0e  x2:0x000005ca x11=0x0756bfce
       15025000	      1501	80000f3c	7f78ee93	ori	x29,x17,2039	 x17:0x000007bd x29=0x000007ff
       15035000	      1502	80000f40	008e0e13	addi	x28,x28,8	 x28:0x00000008 x28=0x00000010
       15045000	      1503	80000f44	4172d2b3	sra	x5,x5,x23	  x5:0x00000000 x23:0x80009fc4  x5=0x00000000
       15055000	      1504	80000f48	00691113	slli	x2,x18,0x6	 x18:0x00000003  x2=0x000000c0
       15065000	      1505	80000f4c	01406133	or	x2,x0,x20	  x0:0x00000000 x20:0x000005ca  x2=0x000005ca
       15075000	      1506	80000f50	fc4e6ee3	bltu	x28,x4,80000f2c	 x28:0x00000010  x4:0x00000010
       15085000	      1507	80000f54	010ef933	and	x18,x29,x16	 x29:0x000007ff x16:0x00000005 x18=0x00000005
       15095000	      1508	80000f58	00a00213	addi	x4,x0,10	  x0:0x00000000  x4=0x0000000a
       15105000	      1509	80000f5c	00000d13	addi	x26,x0,0	  x0:0x00000000 x26=0x00000000
       15115000	      1510	80000f60	41370e33	sub	x28,x14,x19	 x14:0x00000001 x19:0x00000457 x28=0xfffffbaa
       15125000	      1511	80000f64	ffb20213	addi	x4,x4,-5	  x4:0x0000000a  x4=0x00000005
       15135000	      1512	80000f68	ffa20ce3	beq	x4,x26,80000f60	  x4:0x00000005 x26:0x00000000
       15145000	      1513	80000f6c	2f4d8113	addi	x2,x27,756	 x27:0x00000001  x2=0x000002f5
       15155000	      1514	80000f70	ff900593	addi	x11,x0,-7	  x0:0x00000000 x11=0xfffffff9
       15165000	      1515	80000f74	005c44b3	xor	x9,x24,x5	 x24:0x5e53a000  x5:0x00000000  x9=0x5e53a000
       15175000	      1516	80000f78	40d20833	sub	x16,x4,x13	  x4:0x00000005 x13:0x0000b940 x16=0xffff46c5
       15185000	      1517	80000f7c	0f8a8893	addi	x17,x21,248	 x21:0xfffc2f1c x17=0xfffc3014
       15195000	      1518	80000f80	ffd00d13	addi	x26,x0,-3	  x0:0x00000000 x26=0xfffffffd
       15205000	      1519	80000f84	01b2d433	srl	x8,x5,x27	  x5:0x00000000 x27:0x00000001  x8=0x00000000
       15215000	      1520	80000f88	0158afb3	slt	x31,x17,x21	 x17:0xfffc3014 x21:0xfffc2f1c x31=0x00000000
       15225000	      1521	80000f8c	012a6233	or	x4,x20,x18	 x20:0x000005ca x18:0x00000005  x4=0x000005cf
       15235000	      1522	80000f90	aec4ac13	slti	x24,x9,-1300	  x9:0x5e53a000 x24=0x00000000
       15245000	      1523	80000f94	00858593	addi	x11,x11,8	 x11:0xfffffff9 x11=0x00000001
       15255000	      1524	80000f98	ffa5c8e3	blt	x11,x26,80000f88	 x11:0x00000001 x26:0xfffffffd
       15265000	      1525	80000f9c	01491413	slli	x8,x18,0x14	 x18:0x00000005  x8=0x00500000
       15275000	      1526	80000fa0	ff800c93	addi	x25,x0,-8	  x0:0x00000000 x25=0xfffffff8
       15285000	      1527	80000fa4	4046dc13	srai	x24,x13,0x4	 x13:0x0000b940 x24=0x00000b94
       15295000	      1528	80000fa8	f9d79197	auipc	x3,0xf9d79	  x3=0x79d79fa4
       15305000	      1529	80000fac	7786c213	xori	x4,x13,1912	 x13:0x0000b940  x4=0x0000be38
       15315000	      1530	80000fb0	008569b3	or	x19,x10,x8	 x10:0x00000000  x8:0x00500000 x19=0x00500000
       15325000	      1531	80000fb4	7368a913	slti	x18,x17,1846	 x17:0xfffc3014 x18=0x00000001
       15335000	      1532	80000fb8	cfc87593	andi	x11,x16,-772	 x16:0xffff46c5 x11=0xffff44c4
       15345000	      1533	80000fbc	0117edb3	or	x27,x15,x17	 x15:0x00000005 x17:0xfffc3014 x27=0xfffc3015
       15355000	      1534	80000fc0	fee00113	addi	x2,x0,-18	  x0:0x00000000  x2=0xffffffee
       15365000	      1535	80000fc4	7d5c7193	andi	x3,x24,2005	 x24:0x00000b94  x3=0x00000394
       15375000	      1536	80000fc8	00041013	slli	x0,x8,0x0	  x8:0x00500000
       15385000	      1537	80000fcc	00000013	addi	x0,x0,0	  x0:0x00000000
       15395000	      1538	80000fd0	9dceeb37	lui	x22,0x9dcee	 x22=0x9dcee000
       15405000	      1539	80000fd4	002c1933	sll	x18,x24,x2	 x24:0x00000b94  x2:0xffffffee x18=0x02e50000
       15415000	      1540	80000fd8	01a51a13	slli	x20,x10,0x1a	 x10:0x00000000 x20=0x00000000
       15425000	      1541	80000fdc	fffc8c93	addi	x25,x25,-1	 x25:0xfffffff8 x25=0xfffffff7
       15435000	      1542	80000fe0	001fc2b3	xor	x5,x31,x1	 x31:0x00000000  x1:0x00000001  x5=0x00000001
       15445000	      1543	80000fe4	a6c58693	addi	x13,x11,-1428	 x11:0xffff44c4 x13=0xffff3f30
       15455000	      1544	80000fe8	018e1313	slli	x6,x28,0x18	 x28:0xfffffbaa  x6=0xaa000000
       15465000	      1545	80000fec	0935f213	andi	x4,x11,147	 x11:0xffff44c4  x4=0x00000080
       15475000	      1546	80000ff0	8dd8ef93	ori	x31,x17,-1827	 x17:0xfffc3014 x31=0xfffff8dd
       15485000	      1547	80000ff4	0057d9b3	srl	x19,x15,x5	 x15:0x00000005  x5:0x00000001 x19=0x00000002
       15495000	      1548	80000ff8	baca0513	addi	x10,x20,-1108	 x20:0x00000000 x10=0xfffffbac
       15505000	      1549	80000ffc	fc2cd4e3	bge	x25,x2,80000fc4	 x25:0xfffffff7  x2:0xffffffee
       15515000	      1550	00000000	00000013	addi	x0,x0,0	  x0:0x00000000
       15525000	      1551	80000fc0	00000013	addi	x0,x0,0	  x0:0x00000000
       15535000	      1552	80000fc4	7d5c7193	andi	x3,x24,2005	 x24:0x00000b94  x3=0x00000394
       15545000	      1553	80000fc8	00041013	slli	x0,x8,0x0	  x8:0x00500000
       15555000	      1554	80000fcc	00000013	addi	x0,x0,0	  x0:0x00000000
       15565000	      1555	80000fd0	9dceeb37	lui	x22,0x9dcee	 x22=0x9dcee000
       15575000	      1556	80000fd4	002c1933	sll	x18,x24,x2	 x24:0x00000b94  x2:0xffffffee x18=0x02e50000
       15585000	      1557	80000fd8	01a51a13	slli	x20,x10,0x1a	 x10:0xfffffbac x20=0xb0000000
       15595000	      1558	80000fdc	fffc8c93	addi	x25,x25,-1	 x25:0xfffffff7 x25=0xfffffff6
       15605000	      1559	80000fe0	001fc2b3	xor	x5,x31,x1	 x31:0xfffff8dd  x1:0x00000001  x5=0xfffff8dc
       15615000	      1560	80000fe4	a6c58693	addi	x13,x11,-1428	 x11:0xffff44c4 x13=0xffff3f30
       15625000	      1561	80000fe8	018e1313	slli	x6,x28,0x18	 x28:0xfffffbaa  x6=0xaa000000
       15635000	      1562	80000fec	0935f213	andi	x4,x11,147	 x11:0xffff44c4  x4=0x00000080
       15645000	      1563	80000ff0	8dd8ef93	ori	x31,x17,-1827	 x17:0xfffc3014 x31=0xfffff8dd
       15655000	      1564	80000ff4	0057d9b3	srl	x19,x15,x5	 x15:0x00000005  x5:0xfffff8dc x19=0x00000000
       15665000	      1565	80000ff8	baca0513	addi	x10,x20,-1108	 x20:0xb0000000 x10=0xaffffbac
       15675000	      1566	80000ffc	fc2cd4e3	bge	x25,x2,80000fc4	 x25:0xfffffff6  x2:0xffffffee
       15685000	      1567	00000000	00000013	addi	x0,x0,0	  x0:0x00000000
       15695000	      1568	80000fc0	00000013	addi	x0,x0,0	  x0:0x00000000
       15705000	      1569	80000fc4	7d5c7193	andi	x3,x24,2005	 x24:0x00000b94  x3=0x00000394
       15715000	      1570	80000fc8	00041013	slli	x0,x8,0x0	  x8:0x00500000
       15725000	      1571	80000fcc	00000013	addi	x0,x0,0	  x0:0x00000000
       15735000	      1572	80000fd0	9dceeb37	lui	x22,0x9dcee	 x22=0x9dcee000
       15745000	      1573	80000fd4	002c1933	sll	x18,x24,x2	 x24:0x00000b94  x2:0xffffffee x18=0x02e50000
       15755000	      1574	80000fd8	01a51a13	slli	x20,x10,0x1a	 x10:0xaffffbac x20=0xb0000000
       15765000	      1575	80000fdc	fffc8c93	addi	x25,x25,-1	 x25:0xfffffff6 x25=0xfffffff5
       15775000	      1576	80000fe0	001fc2b3	xor	x5,x31,x1	 x31:0xfffff8dd  x1:0x00000001  x5=0xfffff8dc
       15785000	      1577	80000fe4	a6c58693	addi	x13,x11,-1428	 x11:0xffff44c4 x13=0xffff3f30
       15795000	      1578	80000fe8	018e1313	slli	x6,x28,0x18	 x28:0xfffffbaa  x6=0xaa000000
       15805000	      1579	80000fec	0935f213	andi	x4,x11,147	 x11:0xffff44c4  x4=0x00000080
       15815000	      1580	80000ff0	8dd8ef93	ori	x31,x17,-1827	 x17:0xfffc3014 x31=0xfffff8dd
       15825000	      1581	80000ff4	0057d9b3	srl	x19,x15,x5	 x15:0x00000005  x5:0xfffff8dc x19=0x00000000
       15835000	      1582	80000ff8	baca0513	addi	x10,x20,-1108	 x20:0xb0000000 x10=0xaffffbac
       15845000	      1583	80000ffc	fc2cd4e3	bge	x25,x2,80000fc4	 x25:0xfffffff5  x2:0xffffffee
       15855000	      1584	00000000	00000013	addi	x0,x0,0	  x0:0x00000000
       15865000	      1585	80000fc0	00000013	addi	x0,x0,0	  x0:0x00000000
       15875000	      1586	80000fc4	7d5c7193	andi	x3,x24,2005	 x24:0x00000b94  x3=0x00000394
       15885000	      1587	80000fc8	00041013	slli	x0,x8,0x0	  x8:0x00500000
       15895000	      1588	80000fcc	00000013	addi	x0,x0,0	  x0:0x00000000
       15905000	      1589	80000fd0	9dceeb37	lui	x22,0x9dcee	 x22=0x9dcee000
       15915000	      1590	80000fd4	002c1933	sll	x18,x24,x2	 x24:0x00000b94  x2:0xffffffee x18=0x02e50000
       15925000	      1591	80000fd8	01a51a13	slli	x20,x10,0x1a	 x10:0xaffffbac x20=0xb0000000
       15935000	      1592	80000fdc	fffc8c93	addi	x25,x25,-1	 x25:0xfffffff5 x25=0xfffffff4
       15945000	      1593	80000fe0	001fc2b3	xor	x5,x31,x1	 x31:0xfffff8dd  x1:0x00000001  x5=0xfffff8dc
       15955000	      1594	80000fe4	a6c58693	addi	x13,x11,-1428	 x11:0xffff44c4 x13=0xffff3f30
       15965000	      1595	80000fe8	018e1313	slli	x6,x28,0x18	 x28:0xfffffbaa  x6=0xaa000000
       15975000	      1596	80000fec	0935f213	andi	x4,x11,147	 x11:0xffff44c4  x4=0x00000080
       15985000	      1597	80000ff0	8dd8ef93	ori	x31,x17,-1827	 x17:0xfffc3014 x31=0xfffff8dd
       15995000	      1598	80000ff4	0057d9b3	srl	x19,x15,x5	 x15:0x00000005  x5:0xfffff8dc x19=0x00000000
       16005000	      1599	80000ff8	baca0513	addi	x10,x20,-1108	 x20:0xb0000000 x10=0xaffffbac
       16015000	      1600	80000ffc	fc2cd4e3	bge	x25,x2,80000fc4	 x25:0xfffffff4  x2:0xffffffee
       16025000	      1601	00000000	00000013	addi	x0,x0,0	  x0:0x00000000
       16035000	      1602	80000fc0	00000013	addi	x0,x0,0	  x0:0x00000000
       16045000	      1603	80000fc4	7d5c7193	andi	x3,x24,2005	 x24:0x00000b94  x3=0x00000394
       16055000	      1604	80000fc8	00041013	slli	x0,x8,0x0	  x8:0x00500000
       16065000	      1605	80000fcc	00000013	addi	x0,x0,0	  x0:0x00000000
       16075000	      1606	80000fd0	9dceeb37	lui	x22,0x9dcee	 x22=0x9dcee000
       16085000	      1607	80000fd4	002c1933	sll	x18,x24,x2	 x24:0x00000b94  x2:0xffffffee x18=0x02e50000
       16095000	      1608	80000fd8	01a51a13	slli	x20,x10,0x1a	 x10:0xaffffbac x20=0xb0000000
       16105000	      1609	80000fdc	fffc8c93	addi	x25,x25,-1	 x25:0xfffffff4 x25=0xfffffff3
       16115000	      1610	80000fe0	001fc2b3	xor	x5,x31,x1	 x31:0xfffff8dd  x1:0x00000001  x5=0xfffff8dc
       16125000	      1611	80000fe4	a6c58693	addi	x13,x11,-1428	 x11:0xffff44c4 x13=0xffff3f30
       16135000	      1612	80000fe8	018e1313	slli	x6,x28,0x18	 x28:0xfffffbaa  x6=0xaa000000
       16145000	      1613	80000fec	0935f213	andi	x4,x11,147	 x11:0xffff44c4  x4=0x00000080
       16155000	      1614	80000ff0	8dd8ef93	ori	x31,x17,-1827	 x17:0xfffc3014 x31=0xfffff8dd
       16165000	      1615	80000ff4	0057d9b3	srl	x19,x15,x5	 x15:0x00000005  x5:0xfffff8dc x19=0x00000000
       16175000	      1616	80000ff8	baca0513	addi	x10,x20,-1108	 x20:0xb0000000 x10=0xaffffbac
       16185000	      1617	80000ffc	fc2cd4e3	bge	x25,x2,80000fc4	 x25:0xfffffff3  x2:0xffffffee
       16195000	      1618	00000000	00000013	addi	x0,x0,0	  x0:0x00000000
       16205000	      1619	80000fc0	00000013	addi	x0,x0,0	  x0:0x00000000
       16215000	      1620	80000fc4	7d5c7193	andi	x3,x24,2005	 x24:0x00000b94  x3=0x00000394
       16225000	      1621	80000fc8	00041013	slli	x0,x8,0x0	  x8:0x00500000
       16235000	      1622	80000fcc	00000013	addi	x0,x0,0	  x0:0x00000000
       16245000	      1623	80000fd0	9dceeb37	lui	x22,0x9dcee	 x22=0x9dcee000
       16255000	      1624	80000fd4	002c1933	sll	x18,x24,x2	 x24:0x00000b94  x2:0xffffffee x18=0x02e50000
       16265000	      1625	80000fd8	01a51a13	slli	x20,x10,0x1a	 x10:0xaffffbac x20=0xb0000000
       16275000	      1626	80000fdc	fffc8c93	addi	x25,x25,-1	 x25:0xfffffff3 x25=0xfffffff2
       16285000	      1627	80000fe0	001fc2b3	xor	x5,x31,x1	 x31:0xfffff8dd  x1:0x00000001  x5=0xfffff8dc
       16295000	      1628	80000fe4	a6c58693	addi	x13,x11,-1428	 x11:0xffff44c4 x13=0xffff3f30
       16305000	      1629	80000fe8	018e1313	slli	x6,x28,0x18	 x28:0xfffffbaa  x6=0xaa000000
       16315000	      1630	80000fec	0935f213	andi	x4,x11,147	 x11:0xffff44c4  x4=0x00000080
       16325000	      1631	80000ff0	8dd8ef93	ori	x31,x17,-1827	 x17:0xfffc3014 x31=0xfffff8dd
       16335000	      1632	80000ff4	0057d9b3	srl	x19,x15,x5	 x15:0x00000005  x5:0xfffff8dc x19=0x00000000
       16345000	      1633	80000ff8	baca0513	addi	x10,x20,-1108	 x20:0xb0000000 x10=0xaffffbac
       16355000	      1634	80000ffc	fc2cd4e3	bge	x25,x2,80000fc4	 x25:0xfffffff2  x2:0xffffffee
       16365000	      1635	00000000	00000013	addi	x0,x0,0	  x0:0x00000000
       16375000	      1636	80000fc0	00000013	addi	x0,x0,0	  x0:0x00000000
       16385000	      1637	80000fc4	7d5c7193	andi	x3,x24,2005	 x24:0x00000b94  x3=0x00000394
       16395000	      1638	80000fc8	00041013	slli	x0,x8,0x0	  x8:0x00500000
       16405000	      1639	80000fcc	00000013	addi	x0,x0,0	  x0:0x00000000
       16415000	      1640	80000fd0	9dceeb37	lui	x22,0x9dcee	 x22=0x9dcee000
       16425000	      1641	80000fd4	002c1933	sll	x18,x24,x2	 x24:0x00000b94  x2:0xffffffee x18=0x02e50000
       16435000	      1642	80000fd8	01a51a13	slli	x20,x10,0x1a	 x10:0xaffffbac x20=0xb0000000
       16445000	      1643	80000fdc	fffc8c93	addi	x25,x25,-1	 x25:0xfffffff2 x25=0xfffffff1
       16455000	      1644	80000fe0	001fc2b3	xor	x5,x31,x1	 x31:0xfffff8dd  x1:0x00000001  x5=0xfffff8dc
       16465000	      1645	80000fe4	a6c58693	addi	x13,x11,-1428	 x11:0xffff44c4 x13=0xffff3f30
       16475000	      1646	80000fe8	018e1313	slli	x6,x28,0x18	 x28:0xfffffbaa  x6=0xaa000000
       16485000	      1647	80000fec	0935f213	andi	x4,x11,147	 x11:0xffff44c4  x4=0x00000080
       16495000	      1648	80000ff0	8dd8ef93	ori	x31,x17,-1827	 x17:0xfffc3014 x31=0xfffff8dd
       16505000	      1649	80000ff4	0057d9b3	srl	x19,x15,x5	 x15:0x00000005  x5:0xfffff8dc x19=0x00000000
       16515000	      1650	80000ff8	baca0513	addi	x10,x20,-1108	 x20:0xb0000000 x10=0xaffffbac
       16525000	      1651	80000ffc	fc2cd4e3	bge	x25,x2,80000fc4	 x25:0xfffffff1  x2:0xffffffee
       16535000	      1652	00000000	00000013	addi	x0,x0,0	  x0:0x00000000
       16545000	      1653	80000fc0	00000013	addi	x0,x0,0	  x0:0x00000000
       16555000	      1654	80000fc4	7d5c7193	andi	x3,x24,2005	 x24:0x00000b94  x3=0x00000394
       16565000	      1655	80000fc8	00041013	slli	x0,x8,0x0	  x8:0x00500000
       16575000	      1656	80000fcc	00000013	addi	x0,x0,0	  x0:0x00000000
       16585000	      1657	80000fd0	9dceeb37	lui	x22,0x9dcee	 x22=0x9dcee000
       16595000	      1658	80000fd4	002c1933	sll	x18,x24,x2	 x24:0x00000b94  x2:0xffffffee x18=0x02e50000
       16605000	      1659	80000fd8	01a51a13	slli	x20,x10,0x1a	 x10:0xaffffbac x20=0xb0000000
       16615000	      1660	80000fdc	fffc8c93	addi	x25,x25,-1	 x25:0xfffffff1 x25=0xfffffff0
       16625000	      1661	80000fe0	001fc2b3	xor	x5,x31,x1	 x31:0xfffff8dd  x1:0x00000001  x5=0xfffff8dc
       16635000	      1662	80000fe4	a6c58693	addi	x13,x11,-1428	 x11:0xffff44c4 x13=0xffff3f30
       16645000	      1663	80000fe8	018e1313	slli	x6,x28,0x18	 x28:0xfffffbaa  x6=0xaa000000
       16655000	      1664	80000fec	0935f213	andi	x4,x11,147	 x11:0xffff44c4  x4=0x00000080
       16665000	      1665	80000ff0	8dd8ef93	ori	x31,x17,-1827	 x17:0xfffc3014 x31=0xfffff8dd
       16675000	      1666	80000ff4	0057d9b3	srl	x19,x15,x5	 x15:0x00000005  x5:0xfffff8dc x19=0x00000000
       16685000	      1667	80000ff8	baca0513	addi	x10,x20,-1108	 x20:0xb0000000 x10=0xaffffbac
       16695000	      1668	80000ffc	fc2cd4e3	bge	x25,x2,80000fc4	 x25:0xfffffff0  x2:0xffffffee
       16705000	      1669	00000000	00000013	addi	x0,x0,0	  x0:0x00000000
       16715000	      1670	80000fc0	00000013	addi	x0,x0,0	  x0:0x00000000
       16725000	      1671	80000fc4	7d5c7193	andi	x3,x24,2005	 x24:0x00000b94  x3=0x00000394
       16735000	      1672	80000fc8	00041013	slli	x0,x8,0x0	  x8:0x00500000
       16745000	      1673	80000fcc	00000013	addi	x0,x0,0	  x0:0x00000000
       16755000	      1674	80000fd0	9dceeb37	lui	x22,0x9dcee	 x22=0x9dcee000
       16765000	      1675	80000fd4	002c1933	sll	x18,x24,x2	 x24:0x00000b94  x2:0xffffffee x18=0x02e50000
       16775000	      1676	80000fd8	01a51a13	slli	x20,x10,0x1a	 x10:0xaffffbac x20=0xb0000000
       16785000	      1677	80000fdc	fffc8c93	addi	x25,x25,-1	 x25:0xfffffff0 x25=0xffffffef
       16795000	      1678	80000fe0	001fc2b3	xor	x5,x31,x1	 x31:0xfffff8dd  x1:0x00000001  x5=0xfffff8dc
       16805000	      1679	80000fe4	a6c58693	addi	x13,x11,-1428	 x11:0xffff44c4 x13=0xffff3f30
       16815000	      1680	80000fe8	018e1313	slli	x6,x28,0x18	 x28:0xfffffbaa  x6=0xaa000000
       16825000	      1681	80000fec	0935f213	andi	x4,x11,147	 x11:0xffff44c4  x4=0x00000080
       16835000	      1682	80000ff0	8dd8ef93	ori	x31,x17,-1827	 x17:0xfffc3014 x31=0xfffff8dd
       16845000	      1683	80000ff4	0057d9b3	srl	x19,x15,x5	 x15:0x00000005  x5:0xfffff8dc x19=0x00000000
       16855000	      1684	80000ff8	baca0513	addi	x10,x20,-1108	 x20:0xb0000000 x10=0xaffffbac
       16865000	      1685	80000ffc	fc2cd4e3	bge	x25,x2,80000fc4	 x25:0xffffffef  x2:0xffffffee
       16875000	      1686	00000000	00000013	addi	x0,x0,0	  x0:0x00000000
       16885000	      1687	80000fc0	00000013	addi	x0,x0,0	  x0:0x00000000
       16895000	      1688	80000fc4	7d5c7193	andi	x3,x24,2005	 x24:0x00000b94  x3=0x00000394
       16905000	      1689	80000fc8	00041013	slli	x0,x8,0x0	  x8:0x00500000
       16915000	      1690	80000fcc	00000013	addi	x0,x0,0	  x0:0x00000000
       16925000	      1691	80000fd0	9dceeb37	lui	x22,0x9dcee	 x22=0x9dcee000
       16935000	      1692	80000fd4	002c1933	sll	x18,x24,x2	 x24:0x00000b94  x2:0xffffffee x18=0x02e50000
       16945000	      1693	80000fd8	01a51a13	slli	x20,x10,0x1a	 x10:0xaffffbac x20=0xb0000000
       16955000	      1694	80000fdc	fffc8c93	addi	x25,x25,-1	 x25:0xffffffef x25=0xffffffee
       16965000	      1695	80000fe0	001fc2b3	xor	x5,x31,x1	 x31:0xfffff8dd  x1:0x00000001  x5=0xfffff8dc
       16975000	      1696	80000fe4	a6c58693	addi	x13,x11,-1428	 x11:0xffff44c4 x13=0xffff3f30
       16985000	      1697	80000fe8	018e1313	slli	x6,x28,0x18	 x28:0xfffffbaa  x6=0xaa000000
       16995000	      1698	80000fec	0935f213	andi	x4,x11,147	 x11:0xffff44c4  x4=0x00000080
       17005000	      1699	80000ff0	8dd8ef93	ori	x31,x17,-1827	 x17:0xfffc3014 x31=0xfffff8dd
       17015000	      1700	80000ff4	0057d9b3	srl	x19,x15,x5	 x15:0x00000005  x5:0xfffff8dc x19=0x00000000
       17025000	      1701	80000ff8	baca0513	addi	x10,x20,-1108	 x20:0xb0000000 x10=0xaffffbac
       17035000	      1702	80000ffc	fc2cd4e3	bge	x25,x2,80000fc4	 x25:0xffffffee  x2:0xffffffee
       17045000	      1703	00000000	00000013	addi	x0,x0,0	  x0:0x00000000
       17055000	      1704	80000fc0	00000013	addi	x0,x0,0	  x0:0x00000000
       17065000	      1705	80000fc4	7d5c7193	andi	x3,x24,2005	 x24:0x00000b94  x3=0x00000394
       17075000	      1706	80000fc8	00041013	slli	x0,x8,0x0	  x8:0x00500000
       17085000	      1707	80000fcc	00000013	addi	x0,x0,0	  x0:0x00000000
       17095000	      1708	80000fd0	9dceeb37	lui	x22,0x9dcee	 x22=0x9dcee000
       17105000	      1709	80000fd4	002c1933	sll	x18,x24,x2	 x24:0x00000b94  x2:0xffffffee x18=0x02e50000
       17115000	      1710	80000fd8	01a51a13	slli	x20,x10,0x1a	 x10:0xaffffbac x20=0xb0000000
       17125000	      1711	80000fdc	fffc8c93	addi	x25,x25,-1	 x25:0xffffffee x25=0xffffffed
       17135000	      1712	80000fe0	001fc2b3	xor	x5,x31,x1	 x31:0xfffff8dd  x1:0x00000001  x5=0xfffff8dc
       17145000	      1713	80000fe4	a6c58693	addi	x13,x11,-1428	 x11:0xffff44c4 x13=0xffff3f30
       17155000	      1714	80000fe8	018e1313	slli	x6,x28,0x18	 x28:0xfffffbaa  x6=0xaa000000
       17165000	      1715	80000fec	0935f213	andi	x4,x11,147	 x11:0xffff44c4  x4=0x00000080
       17175000	      1716	80000ff0	8dd8ef93	ori	x31,x17,-1827	 x17:0xfffc3014 x31=0xfffff8dd
       17185000	      1717	80000ff4	0057d9b3	srl	x19,x15,x5	 x15:0x00000005  x5:0xfffff8dc x19=0x00000000
       17195000	      1718	80000ff8	baca0513	addi	x10,x20,-1108	 x20:0xb0000000 x10=0xaffffbac
       17205000	      1719	80000ffc	fc2cd4e3	bge	x25,x2,80000fc4	 x25:0xffffffed  x2:0xffffffee
       17215000	      1720	80001000	00000013	addi	x0,x0,0	  x0:0x00000000
       17225000	      1721	80001004	ffc00713	addi	x14,x0,-4	  x0:0x00000000 x14=0xfffffffc
       17235000	      1722	80001008	117d7d13	andi	x26,x26,279	 x26:0xfffffffd x26=0x00000115
       17245000	      1723	8000100c	90792993	slti	x19,x18,-1785	 x18:0x02e50000 x19=0x00000000
       17255000	      1724	80001010	00d00f93	addi	x31,x0,13	  x0:0x00000000 x31=0x0000000d
       17265000	      1725	80001014	01ee69b3	or	x19,x28,x30	 x28:0xfffffbaa x30:0x80009f78 x19=0xfffffffa
       17275000	      1726	80001018	8d75b1b7	lui	x3,0x8d75b	  x3=0x8d75b000
       17285000	      1727	8000101c	4198dd13	srai	x26,x17,0x19	 x17:0xfffc3014 x26=0xffffffff
       17295000	      1728	80001020	01ed02b3	add	x5,x26,x30	 x26:0xffffffff x30:0x80009f78  x5=0x80009f77
       17305000	      1729	80001024	00470713	addi	x14,x14,4	 x14:0xfffffffc x14=0x00000000
       17315000	      1730	80001028	015d4633	xor	x12,x26,x21	 x26:0xffffffff x21:0xfffc2f1c x12=0x0003d0e3
       17325000	      1731	8000102c	00624d33	xor	x26,x4,x6	  x4:0x00000080  x6:0xaa000000 x26=0xaa000080
       17335000	      1732	80001030	00900e93	addi	x29,x0,9	  x0:0x00000000 x29=0x00000009
       17345000	      1733	80001034	d28d0c13	addi	x24,x26,-728	 x26:0xaa000080 x24=0xa9fffda8
       17355000	      1734	80001038	01200b13	addi	x22,x0,18	  x0:0x00000000 x22=0x00000012
       17365000	      1735	8000103c	0a76f593	andi	x11,x13,167	 x13:0xffff3f30 x11=0x00000020
       17375000	      1736	80001040	005e8e93	addi	x29,x29,5	 x29:0x00000009 x29=0x0000000e
       17385000	      1737	80001044	6e258a13	addi	x20,x11,1762	 x11:0x00000020 x20=0x00000702
       17395000	      1738	80001048	129be493	ori	x9,x23,297	 x23:0x80009fc4  x9=0x80009fed
       17405000	      1739	8000104c	ff6ee8e3	bltu	x29,x22,8000103c	 x29:0x0000000e x22:0x00000012
       17415000	      1740	00000000	00000013	addi	x0,x0,0	  x0:0x00000000
       17425000	      1741	80001038	00000013	addi	x0,x0,0	  x0:0x00000000
       17435000	      1742	8000103c	0a76f593	andi	x11,x13,167	 x13:0xffff3f30 x11=0x00000020
       17445000	      1743	80001040	005e8e93	addi	x29,x29,5	 x29:0x0000000e x29=0x00000013
       17455000	      1744	80001044	6e258a13	addi	x20,x11,1762	 x11:0x00000020 x20=0x00000702
       17465000	      1745	80001048	129be493	ori	x9,x23,297	 x23:0x80009fc4  x9=0x80009fed
       17475000	      1746	8000104c	ff6ee8e3	bltu	x29,x22,8000103c	 x29:0x00000013 x22:0x00000012
       17485000	      1747	80001050	fdf764e3	bltu	x14,x31,80001018	 x14:0x00000000 x31:0x0000000d
       17495000	      1748	00000000	00000013	addi	x0,x0,0	  x0:0x00000000
       17505000	      1749	80001014	00000013	addi	x0,x0,0	  x0:0x00000000
       17515000	      1750	80001018	8d75b1b7	lui	x3,0x8d75b	  x3=0x8d75b000
       17525000	      1751	8000101c	4198dd13	srai	x26,x17,0x19	 x17:0xfffc3014 x26=0xffffffff
       17535000	      1752	80001020	01ed02b3	add	x5,x26,x30	 x26:0xffffffff x30:0x80009f78  x5=0x80009f77
       17545000	      1753	80001024	00470713	addi	x14,x14,4	 x14:0x00000000 x14=0x00000004
       17555000	      1754	80001028	015d4633	xor	x12,x26,x21	 x26:0xffffffff x21:0xfffc2f1c x12=0x0003d0e3
       17565000	      1755	8000102c	00624d33	xor	x26,x4,x6	  x4:0x00000080  x6:0xaa000000 x26=0xaa000080
       17575000	      1756	80001030	00900e93	addi	x29,x0,9	  x0:0x00000000 x29=0x00000009
       17585000	      1757	80001034	d28d0c13	addi	x24,x26,-728	 x26:0xaa000080 x24=0xa9fffda8
       17595000	      1758	80001038	01200b13	addi	x22,x0,18	  x0:0x00000000 x22=0x00000012
       17605000	      1759	8000103c	0a76f593	andi	x11,x13,167	 x13:0xffff3f30 x11=0x00000020
       17615000	      1760	80001040	005e8e93	addi	x29,x29,5	 x29:0x00000009 x29=0x0000000e
       17625000	      1761	80001044	6e258a13	addi	x20,x11,1762	 x11:0x00000020 x20=0x00000702
       17635000	      1762	80001048	129be493	ori	x9,x23,297	 x23:0x80009fc4  x9=0x80009fed
       17645000	      1763	8000104c	ff6ee8e3	bltu	x29,x22,8000103c	 x29:0x0000000e x22:0x00000012
       17655000	      1764	00000000	00000013	addi	x0,x0,0	  x0:0x00000000
       17665000	      1765	80001038	00000013	addi	x0,x0,0	  x0:0x00000000
       17675000	      1766	8000103c	0a76f593	andi	x11,x13,167	 x13:0xffff3f30 x11=0x00000020
       17685000	      1767	80001040	005e8e93	addi	x29,x29,5	 x29:0x0000000e x29=0x00000013
       17695000	      1768	80001044	6e258a13	addi	x20,x11,1762	 x11:0x00000020 x20=0x00000702
       17705000	      1769	80001048	129be493	ori	x9,x23,297	 x23:0x80009fc4  x9=0x80009fed
       17715000	      1770	8000104c	ff6ee8e3	bltu	x29,x22,8000103c	 x29:0x00000013 x22:0x00000012
       17725000	      1771	80001050	fdf764e3	bltu	x14,x31,80001018	 x14:0x00000004 x31:0x0000000d
       17735000	      1772	00000000	00000013	addi	x0,x0,0	  x0:0x00000000
       17745000	      1773	80001014	00000013	addi	x0,x0,0	  x0:0x00000000
       17755000	      1774	80001018	8d75b1b7	lui	x3,0x8d75b	  x3=0x8d75b000
       17765000	      1775	8000101c	4198dd13	srai	x26,x17,0x19	 x17:0xfffc3014 x26=0xffffffff
       17775000	      1776	80001020	01ed02b3	add	x5,x26,x30	 x26:0xffffffff x30:0x80009f78  x5=0x80009f77
       17785000	      1777	80001024	00470713	addi	x14,x14,4	 x14:0x00000004 x14=0x00000008
       17795000	      1778	80001028	015d4633	xor	x12,x26,x21	 x26:0xffffffff x21:0xfffc2f1c x12=0x0003d0e3
       17805000	      1779	8000102c	00624d33	xor	x26,x4,x6	  x4:0x00000080  x6:0xaa000000 x26=0xaa000080
       17815000	      1780	80001030	00900e93	addi	x29,x0,9	  x0:0x00000000 x29=0x00000009
       17825000	      1781	80001034	d28d0c13	addi	x24,x26,-728	 x26:0xaa000080 x24=0xa9fffda8
       17835000	      1782	80001038	01200b13	addi	x22,x0,18	  x0:0x00000000 x22=0x00000012
       17845000	      1783	8000103c	0a76f593	andi	x11,x13,167	 x13:0xffff3f30 x11=0x00000020
       17855000	      1784	80001040	005e8e93	addi	x29,x29,5	 x29:0x00000009 x29=0x0000000e
       17865000	      1785	80001044	6e258a13	addi	x20,x11,1762	 x11:0x00000020 x20=0x00000702
       17875000	      1786	80001048	129be493	ori	x9,x23,297	 x23:0x80009fc4  x9=0x80009fed
       17885000	      1787	8000104c	ff6ee8e3	bltu	x29,x22,8000103c	 x29:0x0000000e x22:0x00000012
       17895000	      1788	00000000	00000013	addi	x0,x0,0	  x0:0x00000000
       17905000	      1789	80001038	00000013	addi	x0,x0,0	  x0:0x00000000
       17915000	      1790	8000103c	0a76f593	andi	x11,x13,167	 x13:0xffff3f30 x11=0x00000020
       17925000	      1791	80001040	005e8e93	addi	x29,x29,5	 x29:0x0000000e x29=0x00000013
       17935000	      1792	80001044	6e258a13	addi	x20,x11,1762	 x11:0x00000020 x20=0x00000702
       17945000	      1793	80001048	129be493	ori	x9,x23,297	 x23:0x80009fc4  x9=0x80009fed
       17955000	      1794	8000104c	ff6ee8e3	bltu	x29,x22,8000103c	 x29:0x00000013 x22:0x00000012
       17965000	      1795	80001050	fdf764e3	bltu	x14,x31,80001018	 x14:0x00000008 x31:0x0000000d
       17975000	      1796	00000000	00000013	addi	x0,x0,0	  x0:0x00000000
       17985000	      1797	80001014	00000013	addi	x0,x0,0	  x0:0x00000000
       17995000	      1798	80001018	8d75b1b7	lui	x3,0x8d75b	  x3=0x8d75b000
       18005000	      1799	8000101c	4198dd13	srai	x26,x17,0x19	 x17:0xfffc3014 x26=0xffffffff
       18015000	      1800	80001020	01ed02b3	add	x5,x26,x30	 x26:0xffffffff x30:0x80009f78  x5=0x80009f77
       18025000	      1801	80001024	00470713	addi	x14,x14,4	 x14:0x00000008 x14=0x0000000c
       18035000	      1802	80001028	015d4633	xor	x12,x26,x21	 x26:0xffffffff x21:0xfffc2f1c x12=0x0003d0e3
       18045000	      1803	8000102c	00624d33	xor	x26,x4,x6	  x4:0x00000080  x6:0xaa000000 x26=0xaa000080
       18055000	      1804	80001030	00900e93	addi	x29,x0,9	  x0:0x00000000 x29=0x00000009
       18065000	      1805	80001034	d28d0c13	addi	x24,x26,-728	 x26:0xaa000080 x24=0xa9fffda8
       18075000	      1806	80001038	01200b13	addi	x22,x0,18	  x0:0x00000000 x22=0x00000012
       18085000	      1807	8000103c	0a76f593	andi	x11,x13,167	 x13:0xffff3f30 x11=0x00000020
       18095000	      1808	80001040	005e8e93	addi	x29,x29,5	 x29:0x00000009 x29=0x0000000e
       18105000	      1809	80001044	6e258a13	addi	x20,x11,1762	 x11:0x00000020 x20=0x00000702
       18115000	      1810	80001048	129be493	ori	x9,x23,297	 x23:0x80009fc4  x9=0x80009fed
       18125000	      1811	8000104c	ff6ee8e3	bltu	x29,x22,8000103c	 x29:0x0000000e x22:0x00000012
       18135000	      1812	00000000	00000013	addi	x0,x0,0	  x0:0x00000000
       18145000	      1813	80001038	00000013	addi	x0,x0,0	  x0:0x00000000
       18155000	      1814	8000103c	0a76f593	andi	x11,x13,167	 x13:0xffff3f30 x11=0x00000020
       18165000	      1815	80001040	005e8e93	addi	x29,x29,5	 x29:0x0000000e x29=0x00000013
       18175000	      1816	80001044	6e258a13	addi	x20,x11,1762	 x11:0x00000020 x20=0x00000702
       18185000	      1817	80001048	129be493	ori	x9,x23,297	 x23:0x80009fc4  x9=0x80009fed
       18195000	      1818	8000104c	ff6ee8e3	bltu	x29,x22,8000103c	 x29:0x00000013 x22:0x00000012
       18205000	      1819	80001050	fdf764e3	bltu	x14,x31,80001018	 x14:0x0000000c x31:0x0000000d
       18215000	      1820	00000000	00000013	addi	x0,x0,0	  x0:0x00000000
       18225000	      1821	80001014	00000013	addi	x0,x0,0	  x0:0x00000000
       18235000	      1822	80001018	8d75b1b7	lui	x3,0x8d75b	  x3=0x8d75b000
       18245000	      1823	8000101c	4198dd13	srai	x26,x17,0x19	 x17:0xfffc3014 x26=0xffffffff
       18255000	      1824	80001020	01ed02b3	add	x5,x26,x30	 x26:0xffffffff x30:0x80009f78  x5=0x80009f77
       18265000	      1825	80001024	00470713	addi	x14,x14,4	 x14:0x0000000c x14=0x00000010
       18275000	      1826	80001028	015d4633	xor	x12,x26,x21	 x26:0xffffffff x21:0xfffc2f1c x12=0x0003d0e3
       18285000	      1827	8000102c	00624d33	xor	x26,x4,x6	  x4:0x00000080  x6:0xaa000000 x26=0xaa000080
       18295000	      1828	80001030	00900e93	addi	x29,x0,9	  x0:0x00000000 x29=0x00000009
       18305000	      1829	80001034	d28d0c13	addi	x24,x26,-728	 x26:0xaa000080 x24=0xa9fffda8
       18315000	      1830	80001038	01200b13	addi	x22,x0,18	  x0:0x00000000 x22=0x00000012
       18325000	      1831	8000103c	0a76f593	andi	x11,x13,167	 x13:0xffff3f30 x11=0x00000020
       18335000	      1832	80001040	005e8e93	addi	x29,x29,5	 x29:0x00000009 x29=0x0000000e
       18345000	      1833	80001044	6e258a13	addi	x20,x11,1762	 x11:0x00000020 x20=0x00000702
       18355000	      1834	80001048	129be493	ori	x9,x23,297	 x23:0x80009fc4  x9=0x80009fed
       18365000	      1835	8000104c	ff6ee8e3	bltu	x29,x22,8000103c	 x29:0x0000000e x22:0x00000012
       18375000	      1836	00000000	00000013	addi	x0,x0,0	  x0:0x00000000
       18385000	      1837	80001038	00000013	addi	x0,x0,0	  x0:0x00000000
       18395000	      1838	8000103c	0a76f593	andi	x11,x13,167	 x13:0xffff3f30 x11=0x00000020
       18405000	      1839	80001040	005e8e93	addi	x29,x29,5	 x29:0x0000000e x29=0x00000013
       18415000	      1840	80001044	6e258a13	addi	x20,x11,1762	 x11:0x00000020 x20=0x00000702
       18425000	      1841	80001048	129be493	ori	x9,x23,297	 x23:0x80009fc4  x9=0x80009fed
       18435000	      1842	8000104c	ff6ee8e3	bltu	x29,x22,8000103c	 x29:0x00000013 x22:0x00000012
       18445000	      1843	80001050	fdf764e3	bltu	x14,x31,80001018	 x14:0x00000010 x31:0x0000000d
       18455000	      1844	80001054	debe2013	slti	x0,x28,-533	 x28:0xfffffbaa
       18465000	      1845	80001058	00100513	addi	x10,x0,1	  x0:0x00000000 x10=0x00000001
       18475000	      1846	8000105c	0166b2b3	sltu	x5,x13,x22	 x13:0xffff3f30 x22:0x00000012  x5=0x00000000
       18485000	      1847	80001060	00a00e93	addi	x29,x0,10	  x0:0x00000000 x29=0x0000000a
       18495000	      1848	80001064	0001b833	sltu	x16,x3,x0	  x3:0x8d75b000  x0:0x00000000 x16=0x00000000
       18505000	      1849	80001068	40a6d913	srai	x18,x13,0xa	 x13:0xffff3f30 x18=0xffffffcf
       18515000	      1850	8000106c	00350513	addi	x10,x10,3	 x10:0x00000001 x10=0x00000004
       18525000	      1851	80001070	0004a8b3	slt	x17,x9,x0	  x9:0x80009fed  x0:0x00000000 x17=0x00000001
       18535000	      1852	80001074	ff600713	addi	x14,x0,-10	  x0:0x00000000 x14=0xfffffff6
       18545000	      1853	80001078	41fe8033	sub	x0,x29,x31	 x29:0x0000000a x31:0x0000000d
       18555000	      1854	8000107c	fec00093	addi	x1,x0,-20	  x0:0x00000000  x1=0xffffffec
       18565000	      1855	80001080	56312b13	slti	x22,x2,1379	  x2:0xffffffee x22=0x00000001
       18575000	      1856	80001084	00000013	addi	x0,x0,0	  x0:0x00000000
       18585000	      1857	80001088	1bf36213	ori	x4,x6,447	  x6:0xaa000000  x4=0xaa0001bf
       18595000	      1858	8000108c	00f06933	or	x18,x0,x15	  x0:0x00000000 x15:0x00000005 x18=0x00000005
       18605000	      1859	80001090	ff670713	addi	x14,x14,-10	 x14:0xfffffff6 x14=0xffffffec
       18615000	      1860	80001094	00b41413	slli	x8,x8,0xb	  x8:0x00500000  x8=0x80000000
       18625000	      1861	80001098	033bfa93	andi	x21,x23,51	 x23:0x80009fc4 x21=0x00000000
       18635000	      1862	8000109c	fe1704e3	beq	x14,x1,80001084	 x14:0xffffffec  x1:0xffffffec
       18645000	      1863	00000000	00000013	addi	x0,x0,0	  x0:0x00000000
       18655000	      1864	80001080	00000013	addi	x0,x0,0	  x0:0x00000000
       18665000	      1865	80001084	00000013	addi	x0,x0,0	  x0:0x00000000
       18675000	      1866	80001088	1bf36213	ori	x4,x6,447	  x6:0xaa000000  x4=0xaa0001bf
       18685000	      1867	8000108c	00f06933	or	x18,x0,x15	  x0:0x00000000 x15:0x00000005 x18=0x00000005
       18695000	      1868	80001090	ff670713	addi	x14,x14,-10	 x14:0xffffffec x14=0xffffffe2
       18705000	      1869	80001094	00b41413	slli	x8,x8,0xb	  x8:0x80000000  x8=0x00000000
       18715000	      1870	80001098	033bfa93	andi	x21,x23,51	 x23:0x80009fc4 x21=0x00000000
       18725000	      1871	8000109c	fe1704e3	beq	x14,x1,80001084	 x14:0xffffffe2  x1:0xffffffec
       18735000	      1872	800010a0	00492633	slt	x12,x18,x4	 x18:0x00000005  x4:0xaa0001bf x12=0x00000000
       18745000	      1873	800010a4	00355913	srli	x18,x10,0x3	 x10:0x00000004 x18=0x00000000
       18755000	      1874	800010a8	fbd51ee3	bne	x10,x29,80001064	 x10:0x00000004 x29:0x0000000a
       18765000	      1875	00000000	00000013	addi	x0,x0,0	  x0:0x00000000
       18775000	      1876	80001060	00000013	addi	x0,x0,0	  x0:0x00000000
       18785000	      1877	80001064	0001b833	sltu	x16,x3,x0	  x3:0x8d75b000  x0:0x00000000 x16=0x00000000
       18795000	      1878	80001068	40a6d913	srai	x18,x13,0xa	 x13:0xffff3f30 x18=0xffffffcf
       18805000	      1879	8000106c	00350513	addi	x10,x10,3	 x10:0x00000004 x10=0x00000007
       18815000	      1880	80001070	0004a8b3	slt	x17,x9,x0	  x9:0x80009fed  x0:0x00000000 x17=0x00000001
       18825000	      1881	80001074	ff600713	addi	x14,x0,-10	  x0:0x00000000 x14=0xfffffff6
       18835000	      1882	80001078	41fe8033	sub	x0,x29,x31	 x29:0x0000000a x31:0x0000000d
       18845000	      1883	8000107c	fec00093	addi	x1,x0,-20	  x0:0x00000000  x1=0xffffffec
       18855000	      1884	80001080	56312b13	slti	x22,x2,1379	  x2:0xffffffee x22=0x00000001
       18865000	      1885	80001084	00000013	addi	x0,x0,0	  x0:0x00000000
       18875000	      1886	80001088	1bf36213	ori	x4,x6,447	  x6:0xaa000000  x4=0xaa0001bf
       18885000	      1887	8000108c	00f06933	or	x18,x0,x15	  x0:0x00000000 x15:0x00000005 x18=0x00000005
       18895000	      1888	80001090	ff670713	addi	x14,x14,-10	 x14:0xfffffff6 x14=0xffffffec
       18905000	      1889	80001094	00b41413	slli	x8,x8,0xb	  x8:0x00000000  x8=0x00000000
       18915000	      1890	80001098	033bfa93	andi	x21,x23,51	 x23:0x80009fc4 x21=0x00000000
       18925000	      1891	8000109c	fe1704e3	beq	x14,x1,80001084	 x14:0xffffffec  x1:0xffffffec
       18935000	      1892	00000000	00000013	addi	x0,x0,0	  x0:0x00000000
       18945000	      1893	80001080	00000013	addi	x0,x0,0	  x0:0x00000000
       18955000	      1894	80001084	00000013	addi	x0,x0,0	  x0:0x00000000
       18965000	      1895	80001088	1bf36213	ori	x4,x6,447	  x6:0xaa000000  x4=0xaa0001bf
       18975000	      1896	8000108c	00f06933	or	x18,x0,x15	  x0:0x00000000 x15:0x00000005 x18=0x00000005
       18985000	      1897	80001090	ff670713	addi	x14,x14,-10	 x14:0xffffffec x14=0xffffffe2
       18995000	      1898	80001094	00b41413	slli	x8,x8,0xb	  x8:0x00000000  x8=0x00000000
       19005000	      1899	80001098	033bfa93	andi	x21,x23,51	 x23:0x80009fc4 x21=0x00000000
       19015000	      1900	8000109c	fe1704e3	beq	x14,x1,80001084	 x14:0xffffffe2  x1:0xffffffec
       19025000	      1901	800010a0	00492633	slt	x12,x18,x4	 x18:0x00000005  x4:0xaa0001bf x12=0x00000000
       19035000	      1902	800010a4	00355913	srli	x18,x10,0x3	 x10:0x00000007 x18=0x00000000
       19045000	      1903	800010a8	fbd51ee3	bne	x10,x29,80001064	 x10:0x00000007 x29:0x0000000a
       19055000	      1904	00000000	00000013	addi	x0,x0,0	  x0:0x00000000
       19065000	      1905	80001060	00000013	addi	x0,x0,0	  x0:0x00000000
       19075000	      1906	80001064	0001b833	sltu	x16,x3,x0	  x3:0x8d75b000  x0:0x00000000 x16=0x00000000
       19085000	      1907	80001068	40a6d913	srai	x18,x13,0xa	 x13:0xffff3f30 x18=0xffffffcf
       19095000	      1908	8000106c	00350513	addi	x10,x10,3	 x10:0x00000007 x10=0x0000000a
       19105000	      1909	80001070	0004a8b3	slt	x17,x9,x0	  x9:0x80009fed  x0:0x00000000 x17=0x00000001
       19115000	      1910	80001074	ff600713	addi	x14,x0,-10	  x0:0x00000000 x14=0xfffffff6
       19125000	      1911	80001078	41fe8033	sub	x0,x29,x31	 x29:0x0000000a x31:0x0000000d
       19135000	      1912	8000107c	fec00093	addi	x1,x0,-20	  x0:0x00000000  x1=0xffffffec
       19145000	      1913	80001080	56312b13	slti	x22,x2,1379	  x2:0xffffffee x22=0x00000001
       19155000	      1914	80001084	00000013	addi	x0,x0,0	  x0:0x00000000
       19165000	      1915	80001088	1bf36213	ori	x4,x6,447	  x6:0xaa000000  x4=0xaa0001bf
       19175000	      1916	8000108c	00f06933	or	x18,x0,x15	  x0:0x00000000 x15:0x00000005 x18=0x00000005
       19185000	      1917	80001090	ff670713	addi	x14,x14,-10	 x14:0xfffffff6 x14=0xffffffec
       19195000	      1918	80001094	00b41413	slli	x8,x8,0xb	  x8:0x00000000  x8=0x00000000
       19205000	      1919	80001098	033bfa93	andi	x21,x23,51	 x23:0x80009fc4 x21=0x00000000
       19215000	      1920	8000109c	fe1704e3	beq	x14,x1,80001084	 x14:0xffffffec  x1:0xffffffec
       19225000	      1921	00000000	00000013	addi	x0,x0,0	  x0:0x00000000
       19235000	      1922	80001080	00000013	addi	x0,x0,0	  x0:0x00000000
       19245000	      1923	80001084	00000013	addi	x0,x0,0	  x0:0x00000000
       19255000	      1924	80001088	1bf36213	ori	x4,x6,447	  x6:0xaa000000  x4=0xaa0001bf
       19265000	      1925	8000108c	00f06933	or	x18,x0,x15	  x0:0x00000000 x15:0x00000005 x18=0x00000005
       19275000	      1926	80001090	ff670713	addi	x14,x14,-10	 x14:0xffffffec x14=0xffffffe2
       19285000	      1927	80001094	00b41413	slli	x8,x8,0xb	  x8:0x00000000  x8=0x00000000
       19295000	      1928	80001098	033bfa93	andi	x21,x23,51	 x23:0x80009fc4 x21=0x00000000
       19305000	      1929	8000109c	fe1704e3	beq	x14,x1,80001084	 x14:0xffffffe2  x1:0xffffffec
       19315000	      1930	800010a0	00492633	slt	x12,x18,x4	 x18:0x00000005  x4:0xaa0001bf x12=0x00000000
       19325000	      1931	800010a4	00355913	srli	x18,x10,0x3	 x10:0x0000000a x18=0x00000001
       19335000	      1932	800010a8	fbd51ee3	bne	x10,x29,80001064	 x10:0x0000000a x29:0x0000000a
       19345000	      1933	800010ac	00762a33	slt	x20,x12,x7	 x12:0x00000000  x7:0x91dc35ca x20=0x00000000
       19355000	      1934	800010b0	de954097	auipc	x1,0xde954	  x1=0x5e9550ac
       19365000	      1935	800010b4	008609b3	add	x19,x12,x8	 x12:0x00000000  x8:0x00000000 x19=0x00000000
       19375000	      1936	800010b8	40b95ab3	sra	x21,x18,x11	 x18:0x00000001 x11:0x00000020 x21=0x00000001
       19385000	      1937	800010bc	000ceb33	or	x22,x25,x0	 x25:0xffffffed  x0:0x00000000 x22=0xffffffed
       19395000	      1938	800010c0	04175263	bge	x14,x1,80001104	 x14:0xffffffe2  x1:0x5e9550ac
       19405000	      1939	800010c4	00e121b3	slt	x3,x2,x14	  x2:0xffffffee x14:0xffffffe2  x3=0x00000000
       19415000	      1940	800010c8	d7328713	addi	x14,x5,-653	  x5:0x00000000 x14=0xfffffd73
       19425000	      1941	800010cc	010a9613	slli	x12,x21,0x10	 x21:0x00000001 x12=0x00010000
       19435000	      1942	800010d0	02066c63	bltu	x12,x0,80001108	 x12:0x00010000  x0:0x00000000
       19445000	      1943	800010d4	0082f233	and	x4,x5,x8	  x5:0x00000000  x8:0x00000000  x4=0x00000000
       19455000	      1944	800010d8	b033a217	auipc	x4,0xb033a	  x4=0x3033b0d4
       19465000	      1945	800010dc	c3864c17	auipc	x24,0xc3864	 x24=0x438650d8
       19475000	      1946	800010e0	ad228893	addi	x17,x5,-1326	  x5:0x00000000 x17=0xfffffad2
       19485000	      1947	800010e4	929c0113	addi	x2,x24,-1751	 x24:0x438650d8  x2=0x43864a01
       19495000	      1948	800010e8	b18fcc93	xori	x25,x31,-1256	 x31:0x0000000d x25=0xfffffb15
       19505000	      1949	800010ec	00348ab3	add	x21,x9,x3	  x9:0x80009fed  x3:0x00000000 x21=0x80009fed
       19515000	      1950	800010f0	007a9193	slli	x3,x21,0x7	 x21:0x80009fed  x3=0x004ff680
       19525000	      1951	800010f4	01f62b33	slt	x22,x12,x31	 x12:0x00010000 x31:0x0000000d x22=0x00000000
       19535000	      1952	800010f8	0079c333	xor	x6,x19,x7	 x19:0x00000000  x7:0x91dc35ca  x6=0x91dc35ca
       19545000	      1953	800010fc	041ae263	bltu	x21,x1,80001140	 x21:0x80009fed  x1:0x5e9550ac
       19555000	      1954	80001100	02a46463	bltu	x8,x10,80001128	  x8:0x00000000 x10:0x0000000a
       19565000	      1955	00000000	00000013	addi	x0,x0,0	  x0:0x00000000
       19575000	      1956	80001124	00000013	addi	x0,x0,0	  x0:0x00000000
       19585000	      1957	80001128	756c7993	andi	x19,x24,1878	 x24:0x438650d8 x19=0x00000050
       19595000	      1958	8000112c	949ec613	xori	x12,x29,-1719	 x29:0x0000000a x12=0xfffff943
       19605000	      1959	80001130	28e22197	auipc	x3,0x28e22	  x3=0xa8e2312c
       19615000	      1960	80001134	0075e433	or	x8,x11,x7	 x11:0x00000020  x7:0x91dc35ca  x8=0x91dc35ea
       19625000	      1961	80001138	41930eb3	sub	x29,x6,x25	  x6:0x91dc35ca x25:0xfffffb15 x29=0x91dc3ab5
       19635000	      1962	8000113c	01b725b3	slt	x11,x14,x27	 x14:0xfffffd73 x27:0xfffc3015 x11=0x00000000
       19645000	      1963	80001140	415a0ab3	sub	x21,x20,x21	 x20:0x00000000 x21:0x80009fed x21=0x7fff6013
       19655000	      1964	80001144	00f50ab3	add	x21,x10,x15	 x10:0x0000000a x15:0x00000005 x21=0x0000000f
       19665000	      1965	80001148	ef142913	slti	x18,x8,-271	  x8:0x91dc35ea x18=0x00000001
       19675000	      1966	8000114c	02ab7a63	bgeu	x22,x10,80001180	 x22:0x00000000 x10:0x0000000a
       19685000	      1967	80001150	415687b3	sub	x15,x13,x21	 x13:0xffff3f30 x21:0x0000000f x15=0xffff3f21
       19695000	      1968	80001154	01e858b3	srl	x17,x16,x30	 x16:0x00000000 x30:0x80009f78 x17=0x00000000
       19705000	      1969	80001158	004b5cb3	srl	x25,x22,x4	 x22:0x00000000  x4:0x3033b0d4 x25=0x00000000
       19715000	      1970	8000115c	00229993	slli	x19,x5,0x2	  x5:0x00000000 x19=0x00000000
       19725000	      1971	80001160	00ab1eb3	sll	x29,x22,x10	 x22:0x00000000 x10:0x0000000a x29=0x00000000
       19735000	      1972	80001164	033b1c63	bne	x22,x19,8000119c	 x22:0x00000000 x19:0x00000000
       19745000	      1973	80001168	00b132b3	sltu	x5,x2,x11	  x2:0x43864a01 x11:0x00000000  x5=0x00000000
       19755000	      1974	8000116c	22787613	andi	x12,x16,551	 x16:0x00000000 x12=0x00000000
       19765000	      1975	80001170	03cc4a63	blt	x24,x28,800011a4	 x24:0x438650d8 x28:0xfffffbaa
       19775000	      1976	80001174	0136ab33	slt	x22,x13,x19	 x13:0xffff3f30 x19:0x00000000 x22=0x00000001
       19785000	      1977	80001178	00e1ed33	or	x26,x3,x14	  x3:0xa8e2312c x14:0xfffffd73 x26=0xfffffd7f
       19795000	      1978	8000117c	01528633	add	x12,x5,x21	  x5:0x00000000 x21:0x0000000f x12=0x0000000f
       19805000	      1979	80001180	a2cd6093	ori	x1,x26,-1492	 x26:0xfffffd7f  x1=0xffffff7f
       19815000	      1980	80001184	de5f4493	xori	x9,x30,-539	 x30:0x80009f78  x9=0x7fff629d
       19825000	      1981	80001188	1baff013	andi	x0,x31,442	 x31:0x0000000d
       19835000	      1982	8000118c	6fc0ee13	ori	x28,x1,1788	  x1:0xffffff7f x28=0xffffffff
       19845000	      1983	80001190	008cd513	srli	x10,x25,0x8	 x25:0x00000000 x10=0x00000000
       19855000	      1984	80001194	01d0ccb3	xor	x25,x1,x29	  x1:0xffffff7f x29:0x00000000 x25=0xffffff7f
       19865000	      1985	80001198	0048ae33	slt	x28,x17,x4	 x17:0x00000000  x4:0x3033b0d4 x28=0x00000001
       19875000	      1986	8000119c	6790b817	auipc	x16,0x6790b	 x16=0xe790c198
       19885000	      1987	800011a0	6d6b0113	addi	x2,x22,1750	 x22:0x00000001  x2=0x000006d7
       19895000	      1988	800011a4	8e923113	sltiu	x2,x4,-1815	  x4:0x3033b0d4  x2=0x00000001
       19905000	      1989	800011a8	019daeb3	slt	x29,x27,x25	 x27:0xfffc3015 x25:0xffffff7f x29=0x00000001
       19915000	      1990	800011ac	4ec51097	auipc	x1,0x4ec51	  x1=0xcec521a8
       19925000	      1991	800011b0	9b35fc93	andi	x25,x11,-1613	 x11:0x00000000 x25=0x00000000
       19935000	      1992	800011b4	012df9b3	and	x19,x27,x18	 x27:0xfffc3015 x18:0x00000001 x19=0x00000001
       19945000	      1993	800011b8	e5d77093	andi	x1,x14,-419	 x14:0xfffffd73  x1=0xfffffc51
       19955000	      1994	800011bc	02d30a63	beq	x6,x13,800011f0	  x6:0x91dc35ca x13:0xffff3f30
       19965000	      1995	800011c0	0181c033	xor	x0,x3,x24	  x3:0xa8e2312c x24:0x438650d8
       19975000	      1996	800011c4	02fb6063	bltu	x22,x15,800011e4	 x22:0x00000001 x15:0xffff3f21
       19985000	      1997	00000000	00000013	addi	x0,x0,0	  x0:0x00000000
       19995000	      1998	800011e0	00000013	addi	x0,x0,0	  x0:0x00000000
       20005000	      1999	800011e4	d566c593	xori	x11,x13,-682	 x13:0xffff3f30 x11=0x0000c266
       20015000	      2000	800011e8	04389863	bne	x17,x3,80001238	 x17:0x00000000  x3:0xa8e2312c
       20025000	      2001	00000000	00000013	addi	x0,x0,0	  x0:0x00000000
       20035000	      2002	80001234	00000013	addi	x0,x0,0	  x0:0x00000000
       20045000	      2003	80001238	001b60b3	or	x1,x22,x1	 x22:0x00000001  x1:0xfffffc51  x1=0xfffffc51
       20055000	      2004	8000123c	01fe89b3	add	x19,x29,x31	 x29:0x00000001 x31:0x0000000d x19=0x0000000e
       20065000	      2005	80001240	059ae463	bltu	x21,x25,80001288	 x21:0x0000000f x25:0x00000000
       20075000	      2006	80001244	99984d13	xori	x26,x16,-1639	 x16:0xe790c198 x26=0x186f3801
       20085000	      2007	80001248	0059dfb3	srl	x31,x19,x5	 x19:0x0000000e  x5:0x00000000 x31=0x0000000e
       20095000	      2008	8000124c	8b754b37	lui	x22,0x8b754	 x22=0x8b754000
       20105000	      2009	80001250	02176e63	bltu	x14,x1,8000128c	 x14:0xfffffd73  x1:0xfffffc51
       20115000	      2010	80001254	033d8e63	beq	x27,x19,80001290	 x27:0xfffc3015 x19:0x0000000e
       20125000	      2011	80001258	0267f263	bgeu	x15,x6,8000127c	 x15:0xffff3f21  x6:0x91dc35ca
       20135000	      2012	00000000	00000013	addi	x0,x0,0	  x0:0x00000000
       20145000	      2013	80001278	00000013	addi	x0,x0,0	  x0:0x00000000
       20155000	      2014	8000127c	02e97a63	bgeu	x18,x14,800012b0	 x18:0x00000001 x14:0xfffffd73
       20165000	      2015	80001280	03951e63	bne	x10,x25,800012bc	 x10:0x00000000 x25:0x00000000
       20175000	      2016	80001284	00000013	addi	x0,x0,0	  x0:0x00000000
       20185000	      2017	80001288	e54687b7	lui	x15,0xe5468	 x15=0xe5468000
       20195000	      2018	8000128c	0415f663	bgeu	x11,x1,800012d8	 x11:0x0000c266  x1:0xfffffc51
       20205000	      2019	80001290	4085d9b3	sra	x19,x11,x8	 x11:0x0000c266  x8:0x91dc35ea x19=0x00000030
       20215000	      2020	80001294	407484b3	sub	x9,x9,x7	  x9:0x7fff629d  x7:0x91dc35ca  x9=0xee232cd3
       20225000	      2021	80001298	2d48d017	auipc	x0,0x2d48d	
       20235000	      2022	8000129c	01ac6c63	bltu	x24,x26,800012b4	 x24:0x438650d8 x26:0x186f3801
       20245000	      2023	800012a0	00043a33	sltu	x20,x8,x0	  x8:0x91dc35ea  x0:0x00000000 x20=0x00000000
       20255000	      2024	800012a4	01ad4933	xor	x18,x26,x26	 x26:0x186f3801 x26:0x186f3801 x18=0x00000000
       20265000	      2025	800012a8	04cb0463	beq	x22,x12,800012f0	 x22:0x8b754000 x12:0x0000000f
       20275000	      2026	800012ac	4e81f113	andi	x2,x3,1256	  x3:0xa8e2312c  x2=0x00000028
       20285000	      2027	800012b0	019fea63	bltu	x31,x25,800012c4	 x31:0x0000000e x25:0x00000000
       20295000	      2028	800012b4	03a90c63	beq	x18,x26,800012ec	 x18:0x00000000 x26:0x186f3801
       20305000	      2029	800012b8	a2bc8e93	addi	x29,x25,-1493	 x25:0x00000000 x29=0xfffffa2b
       20315000	      2030	800012bc	41d65333	sra	x6,x12,x29	 x12:0x0000000f x29:0xfffffa2b  x6=0x00000000
       20325000	      2031	800012c0	00843db3	sltu	x27,x8,x8	  x8:0x91dc35ea  x8:0x91dc35ea x27=0x00000000
       20335000	      2032	800012c4	418edf93	srai	x31,x29,0x18	 x29:0xfffffa2b x31=0xffffffff
       20345000	      2033	800012c8	04f70663	beq	x14,x15,80001314	 x14:0xfffffd73 x15:0xe5468000
       20355000	      2034	800012cc	41f350b3	sra	x1,x6,x31	  x6:0x00000000 x31:0xffffffff  x1=0x00000000
       20365000	      2035	800012d0	05ddd263	bge	x27,x29,80001314	 x27:0x00000000 x29:0xfffffa2b
       20375000	      2036	00000000	00000013	addi	x0,x0,0	  x0:0x00000000
       20385000	      2037	80001310	00000013	addi	x0,x0,0	  x0:0x00000000
       20395000	      2038	80001314	01921833	sll	x16,x4,x25	  x4:0x3033b0d4 x25:0x00000000 x16=0x3033b0d4
       20405000	      2039	80001318	00805c93	srli	x25,x0,0x8	  x0:0x00000000 x25=0x00000000
       20415000	      2040	8000131c	032a8c63	beq	x21,x18,80001354	 x21:0x0000000f x18:0x00000000
       20425000	      2041	80001320	363b7893	andi	x17,x22,867	 x22:0x8b754000 x17=0x00000000
       20435000	      2042	80001324	01b64db3	xor	x27,x12,x27	 x12:0x0000000f x27:0x00000000 x27=0x0000000f
       20445000	      2043	80001328	0147bdb3	sltu	x27,x15,x20	 x15:0xe5468000 x20:0x00000000 x27=0x00000000
       20455000	      2044	8000132c	03984063	blt	x16,x25,8000134c	 x16:0x3033b0d4 x25:0x00000000
       20465000	      2045	80001330	f5bada17	auipc	x20,0xf5bad	 x20=0x75bae32c
       20475000	      2046	80001334	00a798b3	sll	x17,x15,x10	 x15:0xe5468000 x10:0x00000000 x17=0xe5468000
       20485000	      2047	80001338	d3cd6113	ori	x2,x26,-708	 x26:0x186f3801  x2=0xfffffd3d
       20495000	      2048	8000133c	fb8426b7	lui	x13,0xfb842	 x13=0xfb842000
       20505000	      2049	80001340	40bf5c93	srai	x25,x30,0xb	 x30:0x80009f78 x25=0xfff00013
       20515000	      2050	80001344	01ad2db3	slt	x27,x26,x26	 x26:0x186f3801 x26:0x186f3801 x27=0x00000000
       20525000	      2051	80001348	0138de63	bge	x17,x19,80001364	 x17:0xe5468000 x19:0x00000030
       20535000	      2052	8000134c	01ec61b3	or	x3,x24,x30	 x24:0x438650d8 x30:0x80009f78  x3=0xc386dff8
       20545000	      2053	80001350	0038cd33	xor	x26,x17,x3	 x17:0xe5468000  x3:0xc386dff8 x26=0x26c05ff8
       20555000	      2054	80001354	013f5d13	srli	x26,x30,0x13	 x30:0x80009f78 x26=0x00001000
       20565000	      2055	80001358	006cde93	srli	x29,x25,0x6	 x25:0xfff00013 x29=0x03ffc000
       20575000	      2056	8000135c	41345833	sra	x16,x8,x19	  x8:0x91dc35ea x19:0x00000030 x16=0xffff91dc
       20585000	      2057	80001360	01c7ca63	blt	x15,x28,80001374	 x15:0xe5468000 x28:0x00000001
       20595000	      2058	00000000	00000013	addi	x0,x0,0	  x0:0x00000000
       20605000	      2059	80001370	00000013	addi	x0,x0,0	  x0:0x00000000
       20615000	      2060	80001374	03918463	beq	x3,x25,8000139c	  x3:0xc386dff8 x25:0xfff00013
       20625000	      2061	80001378	008cd693	srli	x13,x25,0x8	 x25:0xfff00013 x13=0x00fff000
       20635000	      2062	8000137c	01489497	auipc	x9,0x1489	  x9=0x8148a378
       20645000	      2063	80001380	02848c63	beq	x9,x8,800013b8	  x9:0x8148a378  x8:0x91dc35ea
       20655000	      2064	80001384	0094f2b3	and	x5,x9,x9	  x9:0x8148a378  x9:0x8148a378  x5=0x8148a378
       20665000	      2065	80001388	e4714613	xori	x12,x2,-441	  x2:0xfffffd3d x12=0x0000037a
       20675000	      2066	8000138c	024a6e63	bltu	x20,x4,800013c8	 x20:0x75bae32c  x4:0x3033b0d4
       20685000	      2067	80001390	00ef1733	sll	x14,x30,x14	 x30:0x80009f78 x14:0xfffffd73 x14=0xfbc00000
       20695000	      2068	80001394	77b23093	sltiu	x1,x4,1915	  x4:0x3033b0d4  x1=0x00000000
       20705000	      2069	80001398	306b0c13	addi	x24,x22,774	 x22:0x8b754000 x24=0x8b754306
       20715000	      2070	8000139c	00b2f633	and	x12,x5,x11	  x5:0x8148a378 x11:0x0000c266 x12=0x00008260
       20725000	      2071	800013a0	03970263	beq	x14,x25,800013c4	 x14:0xfbc00000 x25:0xfff00013
       20735000	      2072	800013a4	404500b3	sub	x1,x10,x4	 x10:0x00000000  x4:0x3033b0d4  x1=0xcfcc4f2c
       20745000	      2073	800013a8	1e66e993	ori	x19,x13,486	 x13:0x00fff000 x19=0x00fff1e6
       20755000	      2074	800013ac	00885c93	srli	x25,x16,0x8	 x16:0xffff91dc x25=0x00ffff91
       20765000	      2075	800013b0	00f622b3	slt	x5,x12,x15	 x12:0x00008260 x15:0xe5468000  x5=0x00000000
       20775000	      2076	800013b4	6649b097	auipc	x1,0x6649b	  x1=0xe649c3b0
       20785000	      2077	800013b8	5b22a693	slti	x13,x5,1458	  x5:0x00000000 x13=0x00000001
       20795000	      2078	800013bc	015e66b3	or	x13,x28,x21	 x28:0x00000001 x21:0x0000000f x13=0x0000000f
       20805000	      2079	800013c0	003c57b3	srl	x15,x24,x3	 x24:0x8b754306  x3:0xc386dff8 x15=0x0000008b
       20815000	      2080	800013c4	01ec5213	srli	x4,x24,0x1e	 x24:0x8b754306  x4=0x00000002
       20825000	      2081	800013c8	01c40ab3	add	x21,x8,x28	  x8:0x91dc35ea x28:0x00000001 x21=0x91dc35eb
       20835000	      2082	800013cc	01d7e233	or	x4,x15,x29	 x15:0x0000008b x29:0x03ffc000  x4=0x03ffc08b
       20845000	      2083	800013d0	01765c33	srl	x24,x12,x23	 x12:0x00008260 x23:0x80009fc4 x24=0x00000826
       20855000	      2084	800013d4	47ab3d93	sltiu	x27,x22,1146	 x22:0x8b754000 x27=0x00000000
       20865000	      2085	800013d8	7e17ef93	ori	x31,x15,2017	 x15:0x0000008b x31=0x000007eb
       20875000	      2086	800013dc	41f1d093	srai	x1,x3,0x1f	  x3:0xc386dff8  x1=0xffffffff
       20885000	      2087	800013e0	051f7863	bgeu	x30,x17,80001430	 x30:0x80009f78 x17:0xe5468000
       20895000	      2088	800013e4	d132c4b7	lui	x9,0xd132c	  x9=0xd132c000
       20905000	      2089	800013e8	cf70cd13	xori	x26,x1,-777	  x1:0xffffffff x26=0x00000308
       20915000	      2090	800013ec	01cf6c63	bltu	x30,x28,80001404	 x30:0x80009f78 x28:0x00000001
       20925000	      2091	800013f0	16d7fc93	andi	x25,x15,365	 x15:0x0000008b x25=0x00000009
       20935000	      2092	800013f4	0198dd33	srl	x26,x17,x25	 x17:0xe5468000 x25:0x00000009 x26=0x0072a340
       20945000	      2093	800013f8	01b64233	xor	x4,x12,x27	 x12:0x00008260 x27:0x00000000  x4=0x00008260
       20955000	      2094	800013fc	49aa8013	addi	x0,x21,1178	 x21:0x91dc35eb
       20965000	      2095	80001400	48584593	xori	x11,x16,1157	 x16:0xffff91dc x11=0xffff9559
       20975000	      2096	80001404	00fdf7b3	and	x15,x27,x15	 x27:0x00000000 x15:0x0000008b x15=0x00000000
       20985000	      2097	80001408	41750d33	sub	x26,x10,x23	 x10:0x00000000 x23:0x80009fc4 x26=0x7fff603c
       20995000	      2098	8000140c	048fd463	bge	x31,x8,80001454	 x31:0x000007eb  x8:0x91dc35ea
       21005000	      2099	00000000	00000013	addi	x0,x0,0	  x0:0x00000000
       21015000	      2100	80001450	00000013	addi	x0,x0,0	  x0:0x00000000
       21025000	      2101	80001454	00000013	addi	x0,x0,0	  x0:0x00000000
       21035000	      2102	80001458	0148f933	and	x18,x17,x20	 x17:0xe5468000 x20:0x75bae32c x18=0x65028000
       21045000	      2103	8000145c	411e88b3	sub	x17,x29,x17	 x29:0x03ffc000 x17:0xe5468000 x17=0x1eb94000
       21055000	      2104	80001460	00ec9eb3	sll	x29,x25,x14	 x25:0x00000009 x14:0xfbc00000 x29=0x00000009
       21065000	      2105	80001464	01b3bb33	sltu	x22,x7,x27	  x7:0x91dc35ca x27:0x00000000 x22=0x00000000
       21075000	      2106	80001468	00352733	slt	x14,x10,x3	 x10:0x00000000  x3:0xc386dff8 x14=0x00000000
       21085000	      2107	8000146c	f7accc93	xori	x25,x25,-134	 x25:0x00000009 x25=0xffffff73
       21095000	      2108	80001470	caa2bd13	sltiu	x26,x5,-854	  x5:0x00000000 x26=0x00000001
       21105000	      2109	80001474	0169deb3	srl	x29,x19,x22	 x19:0x00fff1e6 x22:0x00000000 x29=0x00fff1e6
       21115000	      2110	80001478	02e3da63	bge	x7,x14,800014ac	  x7:0x91dc35ca x14:0x00000000
       21125000	      2111	8000147c	005cd093	srli	x1,x25,0x5	 x25:0xffffff73  x1=0x07fffffb
       21135000	      2112	80001480	01f7d513	srli	x10,x15,0x1f	 x15:0x00000000 x10=0x00000000
       21145000	      2113	80001484	968e4493	xori	x9,x28,-1688	 x28:0x00000001  x9=0xfffff969
       21155000	      2114	80001488	034bca63	blt	x23,x20,800014bc	 x23:0x80009fc4 x20:0x75bae32c
       21165000	      2115	00000000	00000013	addi	x0,x0,0	  x0:0x00000000
       21175000	      2116	800014b8	00000013	addi	x0,x0,0	  x0:0x00000000
       21185000	      2117	800014bc	01649e33	sll	x28,x9,x22	  x9:0xfffff969 x22:0x00000000 x28=0xfffff969
       21195000	      2118	800014c0	01447663	bgeu	x8,x20,800014cc	  x8:0x91dc35ea x20:0x75bae32c
       21205000	      2119	00000000	00000013	addi	x0,x0,0	  x0:0x00000000
       21215000	      2120	800014c8	00000013	addi	x0,x0,0	  x0:0x00000000
       21225000	      2121	800014cc	01f5ea33	or	x20,x11,x31	 x11:0xffff9559 x31:0x000007eb x20=0xffff97fb
       21235000	      2122	800014d0	04ce6663	bltu	x28,x12,8000151c	 x28:0xfffff969 x12:0x00008260
       21245000	      2123	800014d4	419e0133	sub	x2,x28,x25	 x28:0xfffff969 x25:0xffffff73  x2=0xfffff9f6
       21255000	      2124	800014d8	01aaed33	or	x26,x21,x26	 x21:0x91dc35eb x26:0x00000001 x26=0x91dc35eb
       21265000	      2125	800014dc	0f9db337	lui	x6,0xf9db	  x6=0x0f9db000
       21275000	      2126	800014e0	01ecec63	bltu	x25,x30,800014f8	 x25:0xffffff73 x30:0x80009f78
       21285000	      2127	800014e4	00654033	xor	x0,x10,x6	 x10:0x00000000  x6:0x0f9db000
       21295000	      2128	800014e8	012e9f93	slli	x31,x29,0x12	 x29:0x00fff1e6 x31=0xc7980000
       21305000	      2129	800014ec	45f74413	xori	x8,x14,1119	 x14:0x00000000  x8=0x0000045f
       21315000	      2130	800014f0	005fb1b3	sltu	x3,x31,x5	 x31:0xc7980000  x5:0x00000000  x3=0x00000000
       21325000	      2131	800014f4	a6a1c9b7	lui	x19,0xa6a1c	 x19=0xa6a1c000
       21335000	      2132	800014f8	190019ef	jal	x19,800014f8	 x19=0x800014f8
       21345000	      2133	00000000	00000013	addi	x0,x0,0	  x0:0x00000000
       21355000	      2134	80002684	00000013	addi	x0,x0,0	  x0:0x00000000
       21365000	      2135	80002688	0177f263	bgeu	x15,x23,8000268c	 x15:0x00000000 x23:0x80009fc4
       21375000	      2136	8000268c	fe0f0f13	addi	x30,x30,-32	 x30:0x80009f78 x30=0x80009f58
       21385000	      2137	80002690	01954d33	xor	x26,x10,x25	 x10:0x00000000 x25:0xffffff73 x26=0xffffff73
       21395000	      2138	80002694	5950f713	andi	x14,x1,1429	  x1:0x07fffffb x14=0x00000591
       21405000	      2139	80002698	0171f7b3	and	x15,x3,x23	  x3:0x00000000 x23:0x80009fc4 x15=0x00000000
       21415000	      2140	8000269c	00e6a4b3	slt	x9,x13,x14	 x13:0x0000000f x14:0x00000591  x9=0x00000001
       21425000	      2141	800026a0	004127b3	slt	x15,x2,x4	  x2:0xfffff9f6  x4:0x00008260 x15=0x00000001
       21435000	      2142	800026a4	415207b3	sub	x15,x4,x21	  x4:0x00008260 x21:0x91dc35eb x15=0x6e244c75
       21445000	      2143	800026a8	40520133	sub	x2,x4,x5	  x4:0x00008260  x5:0x00000000  x2=0x00008260
       21455000	      2144	800026ac	01544c33	xor	x24,x8,x21	  x8:0x0000045f x21:0x91dc35eb x24=0x91dc31b4
       21465000	      2145	800026b0	013f2223	sw	x19,4(x30)	 x30:0x80009f58 x19:0x800014f8 PA:0x80009f5c
       21475000	      2146	800026b4	40618733	sub	x14,x3,x6	  x3:0x00000000  x6:0x0f9db000 x14=0xf0625000
       21485000	      2147	800026b8	fff00413	addi	x8,x0,-1	  x0:0x00000000  x8=0xffffffff
       21495000	      2148	800026bc	00e60d33	add	x26,x12,x14	 x12:0x00008260 x14:0xf0625000 x26=0xf062d260
       21505000	      2149	800026c0	ff700493	addi	x9,x0,-9	  x0:0x00000000  x9=0xfffffff7
       21515000	      2150	800026c4	0012e233	or	x4,x5,x1	  x5:0x00000000  x1:0x07fffffb  x4=0x07fffffb
       21525000	      2151	800026c8	f4ebc313	xori	x6,x23,-178	 x23:0x80009fc4  x6=0x7fff608a
       21535000	      2152	800026cc	01e18e33	add	x28,x3,x30	  x3:0x00000000 x30:0x80009f58 x28=0x80009f58
       21545000	      2153	800026d0	fff40413	addi	x8,x8,-1	  x8:0xffffffff  x8=0xfffffffe
       21555000	      2154	800026d4	00600513	addi	x10,x0,6	  x0:0x00000000 x10=0x00000006
       21565000	      2155	800026d8	01200a13	addi	x20,x0,18	  x0:0x00000000 x20=0x00000012
       21575000	      2156	800026dc	70191997	auipc	x19,0x70191	 x19=0xf01936d8
       21585000	      2157	800026e0	01a32ab3	slt	x21,x6,x26	  x6:0x7fff608a x26:0xf062d260 x21=0x00000000
       21595000	      2158	800026e4	0189b2b3	sltu	x5,x19,x24	 x19:0xf01936d8 x24:0x91dc31b4  x5=0x00000000
       21605000	      2159	800026e8	00450513	addi	x10,x10,4	 x10:0x00000006 x10=0x0000000a
       21615000	      2160	800026ec	015b1633	sll	x12,x22,x21	 x22:0x00000000 x21:0x00000000 x12=0x00000000
       21625000	      2161	800026f0	4332bd13	sltiu	x26,x5,1075	  x5:0x00000000 x26=0x00000001
       21635000	      2162	800026f4	00864833	xor	x16,x12,x8	 x12:0x00000000  x8:0xfffffffe x16=0xfffffffe
       21645000	      2163	800026f8	01475e93	srli	x29,x14,0x14	 x14:0xf0625000 x29=0x00000f06
       21655000	      2164	800026fc	4184df93	srai	x31,x9,0x18	  x9:0xfffffff7 x31=0xffffffff
       21665000	      2165	80002700	ff4500e3	beq	x10,x20,800026e0	 x10:0x0000000a x20:0x00000012
       21675000	      2166	80002704	01b41eb3	sll	x29,x8,x27	  x8:0xfffffffe x27:0x00000000 x29=0xfffffffe
       21685000	      2167	80002708	4d930b13	addi	x22,x6,1241	  x6:0x7fff608a x22=0x7fff6563
       21695000	      2168	8000270c	41b780b3	sub	x1,x15,x27	 x15:0x6e244c75 x27:0x00000000  x1=0x6e244c75
       21705000	      2169	80002710	fa945ce3	bge	x8,x9,800026c8	  x8:0xfffffffe  x9:0xfffffff7
       21715000	      2170	00000000	00000013	addi	x0,x0,0	  x0:0x00000000
       21725000	      2171	800026c4	00000013	addi	x0,x0,0	  x0:0x00000000
       21735000	      2172	800026c8	f4ebc313	xori	x6,x23,-178	 x23:0x80009fc4  x6=0x7fff608a
       21745000	      2173	800026cc	01e18e33	add	x28,x3,x30	  x3:0x00000000 x30:0x80009f58 x28=0x80009f58
       21755000	      2174	800026d0	fff40413	addi	x8,x8,-1	  x8:0xfffffffe  x8=0xfffffffd
       21765000	      2175	800026d4	00600513	addi	x10,x0,6	  x0:0x00000000 x10=0x00000006
       21775000	      2176	800026d8	01200a13	addi	x20,x0,18	  x0:0x00000000 x20=0x00000012
       21785000	      2177	800026dc	70191997	auipc	x19,0x70191	 x19=0xf01936d8
       21795000	      2178	800026e0	01a32ab3	slt	x21,x6,x26	  x6:0x7fff608a x26:0x00000001 x21=0x00000000
       21805000	      2179	800026e4	0189b2b3	sltu	x5,x19,x24	 x19:0xf01936d8 x24:0x91dc31b4  x5=0x00000000
       21815000	      2180	800026e8	00450513	addi	x10,x10,4	 x10:0x00000006 x10=0x0000000a
       21825000	      2181	800026ec	015b1633	sll	x12,x22,x21	 x22:0x7fff6563 x21:0x00000000 x12=0x7fff6563
       21835000	      2182	800026f0	4332bd13	sltiu	x26,x5,1075	  x5:0x00000000 x26=0x00000001
       21845000	      2183	800026f4	00864833	xor	x16,x12,x8	 x12:0x7fff6563  x8:0xfffffffd x16=0x80009a9e
       21855000	      2184	800026f8	01475e93	srli	x29,x14,0x14	 x14:0xf0625000 x29=0x00000f06
       21865000	      2185	800026fc	4184df93	srai	x31,x9,0x18	  x9:0xfffffff7 x31=0xffffffff
       21875000	      2186	80002700	ff4500e3	beq	x10,x20,800026e0	 x10:0x0000000a x20:0x00000012
       21885000	      2187	80002704	01b41eb3	sll	x29,x8,x27	  x8:0xfffffffd x27:0x00000000 x29=0xfffffffd
       21895000	      2188	80002708	4d930b13	addi	x22,x6,1241	  x6:0x7fff608a x22=0x7fff6563
       21905000	      2189	8000270c	41b780b3	sub	x1,x15,x27	 x15:0x6e244c75 x27:0x00000000  x1=0x6e244c75
       21915000	      2190	80002710	fa945ce3	bge	x8,x9,800026c8	  x8:0xfffffffd  x9:0xfffffff7
       21925000	      2191	00000000	00000013	addi	x0,x0,0	  x0:0x00000000
       21935000	      2192	800026c4	00000013	addi	x0,x0,0	  x0:0x00000000
       21945000	      2193	800026c8	f4ebc313	xori	x6,x23,-178	 x23:0x80009fc4  x6=0x7fff608a
       21955000	      2194	800026cc	01e18e33	add	x28,x3,x30	  x3:0x00000000 x30:0x80009f58 x28=0x80009f58
       21965000	      2195	800026d0	fff40413	addi	x8,x8,-1	  x8:0xfffffffd  x8=0xfffffffc
       21975000	      2196	800026d4	00600513	addi	x10,x0,6	  x0:0x00000000 x10=0x00000006
       21985000	      2197	800026d8	01200a13	addi	x20,x0,18	  x0:0x00000000 x20=0x00000012
       21995000	      2198	800026dc	70191997	auipc	x19,0x70191	 x19=0xf01936d8
       22005000	      2199	800026e0	01a32ab3	slt	x21,x6,x26	  x6:0x7fff608a x26:0x00000001 x21=0x00000000
       22015000	      2200	800026e4	0189b2b3	sltu	x5,x19,x24	 x19:0xf01936d8 x24:0x91dc31b4  x5=0x00000000
       22025000	      2201	800026e8	00450513	addi	x10,x10,4	 x10:0x00000006 x10=0x0000000a
       22035000	      2202	800026ec	015b1633	sll	x12,x22,x21	 x22:0x7fff6563 x21:0x00000000 x12=0x7fff6563
       22045000	      2203	800026f0	4332bd13	sltiu	x26,x5,1075	  x5:0x00000000 x26=0x00000001
       22055000	      2204	800026f4	00864833	xor	x16,x12,x8	 x12:0x7fff6563  x8:0xfffffffc x16=0x80009a9f
       22065000	      2205	800026f8	01475e93	srli	x29,x14,0x14	 x14:0xf0625000 x29=0x00000f06
       22075000	      2206	800026fc	4184df93	srai	x31,x9,0x18	  x9:0xfffffff7 x31=0xffffffff
       22085000	      2207	80002700	ff4500e3	beq	x10,x20,800026e0	 x10:0x0000000a x20:0x00000012
       22095000	      2208	80002704	01b41eb3	sll	x29,x8,x27	  x8:0xfffffffc x27:0x00000000 x29=0xfffffffc
       22105000	      2209	80002708	4d930b13	addi	x22,x6,1241	  x6:0x7fff608a x22=0x7fff6563
       22115000	      2210	8000270c	41b780b3	sub	x1,x15,x27	 x15:0x6e244c75 x27:0x00000000  x1=0x6e244c75
       22125000	      2211	80002710	fa945ce3	bge	x8,x9,800026c8	  x8:0xfffffffc  x9:0xfffffff7
       22135000	      2212	00000000	00000013	addi	x0,x0,0	  x0:0x00000000
       22145000	      2213	800026c4	00000013	addi	x0,x0,0	  x0:0x00000000
       22155000	      2214	800026c8	f4ebc313	xori	x6,x23,-178	 x23:0x80009fc4  x6=0x7fff608a
       22165000	      2215	800026cc	01e18e33	add	x28,x3,x30	  x3:0x00000000 x30:0x80009f58 x28=0x80009f58
       22175000	      2216	800026d0	fff40413	addi	x8,x8,-1	  x8:0xfffffffc  x8=0xfffffffb
       22185000	      2217	800026d4	00600513	addi	x10,x0,6	  x0:0x00000000 x10=0x00000006
       22195000	      2218	800026d8	01200a13	addi	x20,x0,18	  x0:0x00000000 x20=0x00000012
       22205000	      2219	800026dc	70191997	auipc	x19,0x70191	 x19=0xf01936d8
       22215000	      2220	800026e0	01a32ab3	slt	x21,x6,x26	  x6:0x7fff608a x26:0x00000001 x21=0x00000000
       22225000	      2221	800026e4	0189b2b3	sltu	x5,x19,x24	 x19:0xf01936d8 x24:0x91dc31b4  x5=0x00000000
       22235000	      2222	800026e8	00450513	addi	x10,x10,4	 x10:0x00000006 x10=0x0000000a
       22245000	      2223	800026ec	015b1633	sll	x12,x22,x21	 x22:0x7fff6563 x21:0x00000000 x12=0x7fff6563
       22255000	      2224	800026f0	4332bd13	sltiu	x26,x5,1075	  x5:0x00000000 x26=0x00000001
       22265000	      2225	800026f4	00864833	xor	x16,x12,x8	 x12:0x7fff6563  x8:0xfffffffb x16=0x80009a98
       22275000	      2226	800026f8	01475e93	srli	x29,x14,0x14	 x14:0xf0625000 x29=0x00000f06
       22285000	      2227	800026fc	4184df93	srai	x31,x9,0x18	  x9:0xfffffff7 x31=0xffffffff
       22295000	      2228	80002700	ff4500e3	beq	x10,x20,800026e0	 x10:0x0000000a x20:0x00000012
       22305000	      2229	80002704	01b41eb3	sll	x29,x8,x27	  x8:0xfffffffb x27:0x00000000 x29=0xfffffffb
       22315000	      2230	80002708	4d930b13	addi	x22,x6,1241	  x6:0x7fff608a x22=0x7fff6563
       22325000	      2231	8000270c	41b780b3	sub	x1,x15,x27	 x15:0x6e244c75 x27:0x00000000  x1=0x6e244c75
       22335000	      2232	80002710	fa945ce3	bge	x8,x9,800026c8	  x8:0xfffffffb  x9:0xfffffff7
       22345000	      2233	00000000	00000013	addi	x0,x0,0	  x0:0x00000000
       22355000	      2234	800026c4	00000013	addi	x0,x0,0	  x0:0x00000000
       22365000	      2235	800026c8	f4ebc313	xori	x6,x23,-178	 x23:0x80009fc4  x6=0x7fff608a
       22375000	      2236	800026cc	01e18e33	add	x28,x3,x30	  x3:0x00000000 x30:0x80009f58 x28=0x80009f58
       22385000	      2237	800026d0	fff40413	addi	x8,x8,-1	  x8:0xfffffffb  x8=0xfffffffa
       22395000	      2238	800026d4	00600513	addi	x10,x0,6	  x0:0x00000000 x10=0x00000006
       22405000	      2239	800026d8	01200a13	addi	x20,x0,18	  x0:0x00000000 x20=0x00000012
       22415000	      2240	800026dc	70191997	auipc	x19,0x70191	 x19=0xf01936d8
       22425000	      2241	800026e0	01a32ab3	slt	x21,x6,x26	  x6:0x7fff608a x26:0x00000001 x21=0x00000000
       22435000	      2242	800026e4	0189b2b3	sltu	x5,x19,x24	 x19:0xf01936d8 x24:0x91dc31b4  x5=0x00000000
       22445000	      2243	800026e8	00450513	addi	x10,x10,4	 x10:0x00000006 x10=0x0000000a
       22455000	      2244	800026ec	015b1633	sll	x12,x22,x21	 x22:0x7fff6563 x21:0x00000000 x12=0x7fff6563
       22465000	      2245	800026f0	4332bd13	sltiu	x26,x5,1075	  x5:0x00000000 x26=0x00000001
       22475000	      2246	800026f4	00864833	xor	x16,x12,x8	 x12:0x7fff6563  x8:0xfffffffa x16=0x80009a99
       22485000	      2247	800026f8	01475e93	srli	x29,x14,0x14	 x14:0xf0625000 x29=0x00000f06
       22495000	      2248	800026fc	4184df93	srai	x31,x9,0x18	  x9:0xfffffff7 x31=0xffffffff
       22505000	      2249	80002700	ff4500e3	beq	x10,x20,800026e0	 x10:0x0000000a x20:0x00000012
       22515000	      2250	80002704	01b41eb3	sll	x29,x8,x27	  x8:0xfffffffa x27:0x00000000 x29=0xfffffffa
       22525000	      2251	80002708	4d930b13	addi	x22,x6,1241	  x6:0x7fff608a x22=0x7fff6563
       22535000	      2252	8000270c	41b780b3	sub	x1,x15,x27	 x15:0x6e244c75 x27:0x00000000  x1=0x6e244c75
       22545000	      2253	80002710	fa945ce3	bge	x8,x9,800026c8	  x8:0xfffffffa  x9:0xfffffff7
       22555000	      2254	00000000	00000013	addi	x0,x0,0	  x0:0x00000000
       22565000	      2255	800026c4	00000013	addi	x0,x0,0	  x0:0x00000000
       22575000	      2256	800026c8	f4ebc313	xori	x6,x23,-178	 x23:0x80009fc4  x6=0x7fff608a
       22585000	      2257	800026cc	01e18e33	add	x28,x3,x30	  x3:0x00000000 x30:0x80009f58 x28=0x80009f58
       22595000	      2258	800026d0	fff40413	addi	x8,x8,-1	  x8:0xfffffffa  x8=0xfffffff9
       22605000	      2259	800026d4	00600513	addi	x10,x0,6	  x0:0x00000000 x10=0x00000006
       22615000	      2260	800026d8	01200a13	addi	x20,x0,18	  x0:0x00000000 x20=0x00000012
       22625000	      2261	800026dc	70191997	auipc	x19,0x70191	 x19=0xf01936d8
       22635000	      2262	800026e0	01a32ab3	slt	x21,x6,x26	  x6:0x7fff608a x26:0x00000001 x21=0x00000000
       22645000	      2263	800026e4	0189b2b3	sltu	x5,x19,x24	 x19:0xf01936d8 x24:0x91dc31b4  x5=0x00000000
       22655000	      2264	800026e8	00450513	addi	x10,x10,4	 x10:0x00000006 x10=0x0000000a
       22665000	      2265	800026ec	015b1633	sll	x12,x22,x21	 x22:0x7fff6563 x21:0x00000000 x12=0x7fff6563
       22675000	      2266	800026f0	4332bd13	sltiu	x26,x5,1075	  x5:0x00000000 x26=0x00000001
       22685000	      2267	800026f4	00864833	xor	x16,x12,x8	 x12:0x7fff6563  x8:0xfffffff9 x16=0x80009a9a
       22695000	      2268	800026f8	01475e93	srli	x29,x14,0x14	 x14:0xf0625000 x29=0x00000f06
       22705000	      2269	800026fc	4184df93	srai	x31,x9,0x18	  x9:0xfffffff7 x31=0xffffffff
       22715000	      2270	80002700	ff4500e3	beq	x10,x20,800026e0	 x10:0x0000000a x20:0x00000012
       22725000	      2271	80002704	01b41eb3	sll	x29,x8,x27	  x8:0xfffffff9 x27:0x00000000 x29=0xfffffff9
       22735000	      2272	80002708	4d930b13	addi	x22,x6,1241	  x6:0x7fff608a x22=0x7fff6563
       22745000	      2273	8000270c	41b780b3	sub	x1,x15,x27	 x15:0x6e244c75 x27:0x00000000  x1=0x6e244c75
       22755000	      2274	80002710	fa945ce3	bge	x8,x9,800026c8	  x8:0xfffffff9  x9:0xfffffff7
       22765000	      2275	00000000	00000013	addi	x0,x0,0	  x0:0x00000000
       22775000	      2276	800026c4	00000013	addi	x0,x0,0	  x0:0x00000000
       22785000	      2277	800026c8	f4ebc313	xori	x6,x23,-178	 x23:0x80009fc4  x6=0x7fff608a
       22795000	      2278	800026cc	01e18e33	add	x28,x3,x30	  x3:0x00000000 x30:0x80009f58 x28=0x80009f58
       22805000	      2279	800026d0	fff40413	addi	x8,x8,-1	  x8:0xfffffff9  x8=0xfffffff8
       22815000	      2280	800026d4	00600513	addi	x10,x0,6	  x0:0x00000000 x10=0x00000006
       22825000	      2281	800026d8	01200a13	addi	x20,x0,18	  x0:0x00000000 x20=0x00000012
       22835000	      2282	800026dc	70191997	auipc	x19,0x70191	 x19=0xf01936d8
       22845000	      2283	800026e0	01a32ab3	slt	x21,x6,x26	  x6:0x7fff608a x26:0x00000001 x21=0x00000000
       22855000	      2284	800026e4	0189b2b3	sltu	x5,x19,x24	 x19:0xf01936d8 x24:0x91dc31b4  x5=0x00000000
       22865000	      2285	800026e8	00450513	addi	x10,x10,4	 x10:0x00000006 x10=0x0000000a
       22875000	      2286	800026ec	015b1633	sll	x12,x22,x21	 x22:0x7fff6563 x21:0x00000000 x12=0x7fff6563
       22885000	      2287	800026f0	4332bd13	sltiu	x26,x5,1075	  x5:0x00000000 x26=0x00000001
       22895000	      2288	800026f4	00864833	xor	x16,x12,x8	 x12:0x7fff6563  x8:0xfffffff8 x16=0x80009a9b
       22905000	      2289	800026f8	01475e93	srli	x29,x14,0x14	 x14:0xf0625000 x29=0x00000f06
       22915000	      2290	800026fc	4184df93	srai	x31,x9,0x18	  x9:0xfffffff7 x31=0xffffffff
       22925000	      2291	80002700	ff4500e3	beq	x10,x20,800026e0	 x10:0x0000000a x20:0x00000012
       22935000	      2292	80002704	01b41eb3	sll	x29,x8,x27	  x8:0xfffffff8 x27:0x00000000 x29=0xfffffff8
       22945000	      2293	80002708	4d930b13	addi	x22,x6,1241	  x6:0x7fff608a x22=0x7fff6563
       22955000	      2294	8000270c	41b780b3	sub	x1,x15,x27	 x15:0x6e244c75 x27:0x00000000  x1=0x6e244c75
       22965000	      2295	80002710	fa945ce3	bge	x8,x9,800026c8	  x8:0xfffffff8  x9:0xfffffff7
       22975000	      2296	00000000	00000013	addi	x0,x0,0	  x0:0x00000000
       22985000	      2297	800026c4	00000013	addi	x0,x0,0	  x0:0x00000000
       22995000	      2298	800026c8	f4ebc313	xori	x6,x23,-178	 x23:0x80009fc4  x6=0x7fff608a
       23005000	      2299	800026cc	01e18e33	add	x28,x3,x30	  x3:0x00000000 x30:0x80009f58 x28=0x80009f58
       23015000	      2300	800026d0	fff40413	addi	x8,x8,-1	  x8:0xfffffff8  x8=0xfffffff7
       23025000	      2301	800026d4	00600513	addi	x10,x0,6	  x0:0x00000000 x10=0x00000006
       23035000	      2302	800026d8	01200a13	addi	x20,x0,18	  x0:0x00000000 x20=0x00000012
       23045000	      2303	800026dc	70191997	auipc	x19,0x70191	 x19=0xf01936d8
       23055000	      2304	800026e0	01a32ab3	slt	x21,x6,x26	  x6:0x7fff608a x26:0x00000001 x21=0x00000000
       23065000	      2305	800026e4	0189b2b3	sltu	x5,x19,x24	 x19:0xf01936d8 x24:0x91dc31b4  x5=0x00000000
       23075000	      2306	800026e8	00450513	addi	x10,x10,4	 x10:0x00000006 x10=0x0000000a
       23085000	      2307	800026ec	015b1633	sll	x12,x22,x21	 x22:0x7fff6563 x21:0x00000000 x12=0x7fff6563
       23095000	      2308	800026f0	4332bd13	sltiu	x26,x5,1075	  x5:0x00000000 x26=0x00000001
       23105000	      2309	800026f4	00864833	xor	x16,x12,x8	 x12:0x7fff6563  x8:0xfffffff7 x16=0x80009a94
       23115000	      2310	800026f8	01475e93	srli	x29,x14,0x14	 x14:0xf0625000 x29=0x00000f06
       23125000	      2311	800026fc	4184df93	srai	x31,x9,0x18	  x9:0xfffffff7 x31=0xffffffff
       23135000	      2312	80002700	ff4500e3	beq	x10,x20,800026e0	 x10:0x0000000a x20:0x00000012
       23145000	      2313	80002704	01b41eb3	sll	x29,x8,x27	  x8:0xfffffff7 x27:0x00000000 x29=0xfffffff7
       23155000	      2314	80002708	4d930b13	addi	x22,x6,1241	  x6:0x7fff608a x22=0x7fff6563
       23165000	      2315	8000270c	41b780b3	sub	x1,x15,x27	 x15:0x6e244c75 x27:0x00000000  x1=0x6e244c75
       23175000	      2316	80002710	fa945ce3	bge	x8,x9,800026c8	  x8:0xfffffff7  x9:0xfffffff7
       23185000	      2317	00000000	00000013	addi	x0,x0,0	  x0:0x00000000
       23195000	      2318	800026c4	00000013	addi	x0,x0,0	  x0:0x00000000
       23205000	      2319	800026c8	f4ebc313	xori	x6,x23,-178	 x23:0x80009fc4  x6=0x7fff608a
       23215000	      2320	800026cc	01e18e33	add	x28,x3,x30	  x3:0x00000000 x30:0x80009f58 x28=0x80009f58
       23225000	      2321	800026d0	fff40413	addi	x8,x8,-1	  x8:0xfffffff7  x8=0xfffffff6
       23235000	      2322	800026d4	00600513	addi	x10,x0,6	  x0:0x00000000 x10=0x00000006
       23245000	      2323	800026d8	01200a13	addi	x20,x0,18	  x0:0x00000000 x20=0x00000012
       23255000	      2324	800026dc	70191997	auipc	x19,0x70191	 x19=0xf01936d8
       23265000	      2325	800026e0	01a32ab3	slt	x21,x6,x26	  x6:0x7fff608a x26:0x00000001 x21=0x00000000
       23275000	      2326	800026e4	0189b2b3	sltu	x5,x19,x24	 x19:0xf01936d8 x24:0x91dc31b4  x5=0x00000000
       23285000	      2327	800026e8	00450513	addi	x10,x10,4	 x10:0x00000006 x10=0x0000000a
       23295000	      2328	800026ec	015b1633	sll	x12,x22,x21	 x22:0x7fff6563 x21:0x00000000 x12=0x7fff6563
       23305000	      2329	800026f0	4332bd13	sltiu	x26,x5,1075	  x5:0x00000000 x26=0x00000001
       23315000	      2330	800026f4	00864833	xor	x16,x12,x8	 x12:0x7fff6563  x8:0xfffffff6 x16=0x80009a95
       23325000	      2331	800026f8	01475e93	srli	x29,x14,0x14	 x14:0xf0625000 x29=0x00000f06
       23335000	      2332	800026fc	4184df93	srai	x31,x9,0x18	  x9:0xfffffff7 x31=0xffffffff
       23345000	      2333	80002700	ff4500e3	beq	x10,x20,800026e0	 x10:0x0000000a x20:0x00000012
       23355000	      2334	80002704	01b41eb3	sll	x29,x8,x27	  x8:0xfffffff6 x27:0x00000000 x29=0xfffffff6
       23365000	      2335	80002708	4d930b13	addi	x22,x6,1241	  x6:0x7fff608a x22=0x7fff6563
       23375000	      2336	8000270c	41b780b3	sub	x1,x15,x27	 x15:0x6e244c75 x27:0x00000000  x1=0x6e244c75
       23385000	      2337	80002710	fa945ce3	bge	x8,x9,800026c8	  x8:0xfffffff6  x9:0xfffffff7
       23395000	      2338	80002714	00498d33	add	x26,x19,x4	 x19:0xf01936d8  x4:0x07fffffb x26=0xf81936d3
       23405000	      2339	80002718	ffc00f93	addi	x31,x0,-4	  x0:0x00000000 x31=0xfffffffc
       23415000	      2340	8000271c	01d93833	sltu	x16,x18,x29	 x18:0x65028000 x29:0xfffffff6 x16=0x00000001
       23425000	      2341	80002720	40915d93	srai	x27,x2,0x9	  x2:0x00008260 x27=0x00000041
       23435000	      2342	80002724	00e00113	addi	x2,x0,14	  x0:0x00000000  x2=0x0000000e
       23445000	      2343	80002728	00000013	addi	x0,x0,0	  x0:0x00000000
       23455000	      2344	8000272c	0048a6b3	slt	x13,x17,x4	 x17:0x1eb94000  x4:0x07fffffb x13=0x00000000
       23465000	      2345	80002730	41008db3	sub	x27,x1,x16	  x1:0x6e244c75 x16:0x00000001 x27=0x6e244c74
       23475000	      2346	80002734	00bf1593	slli	x11,x30,0xb	 x30:0x80009f58 x11=0x04fac000
       23485000	      2347	80002738	1c58a513	slti	x10,x17,453	 x17:0x1eb94000 x10=0x00000000
       23495000	      2348	8000273c	00a84433	xor	x8,x16,x10	 x16:0x00000001 x10:0x00000000  x8=0x00000001
       23505000	      2349	80002740	00c7c7b3	xor	x15,x15,x12	 x15:0x6e244c75 x12:0x7fff6563 x15=0x11db2916
       23515000	      2350	80002744	402e84b3	sub	x9,x29,x2	 x29:0xfffffff6  x2:0x0000000e  x9=0xffffffe8
       23525000	      2351	80002748	01f7f1b3	and	x3,x15,x31	 x15:0x11db2916 x31:0xfffffffc  x3=0x11db2914
       23535000	      2352	8000274c	013d5733	srl	x14,x26,x19	 x26:0xf81936d3 x19:0xf01936d8 x14=0x000000f8
       23545000	      2353	80002750	006f8f93	addi	x31,x31,6	 x31:0xfffffffc x31=0x00000002
       23555000	      2354	80002754	411fd2b3	sra	x5,x31,x17	 x31:0x00000002 x17:0x1eb94000  x5=0x00000002
       23565000	      2355	80002758	0122c733	xor	x14,x5,x18	  x5:0x00000002 x18:0x65028000 x14=0x65028002
       23575000	      2356	8000275c	80813213	sltiu	x4,x2,-2040	  x2:0x0000000e  x4=0x00000001
       23585000	      2357	80002760	016a20b3	slt	x1,x20,x22	 x20:0x00000012 x22:0x7fff6563  x1=0x00000001
       23595000	      2358	80002764	003e6eb3	or	x29,x28,x3	 x28:0x80009f58  x3:0x11db2914 x29=0x91dbbf5c
       23605000	      2359	80002768	00a74ab3	xor	x21,x14,x10	 x14:0x65028002 x10:0x00000000 x21=0x65028002
       23615000	      2360	8000276c	40e5da13	srai	x20,x11,0xe	 x11:0x04fac000 x20=0x000013eb
       23625000	      2361	80002770	1e12e413	ori	x8,x5,481	  x5:0x00000002  x8=0x000001e3
       23635000	      2362	80002774	fc2f92e3	bne	x31,x2,80002738	 x31:0x00000002  x2:0x0000000e
       23645000	      2363	00000000	00000013	addi	x0,x0,0	  x0:0x00000000
       23655000	      2364	80002734	00000013	addi	x0,x0,0	  x0:0x00000000
       23665000	      2365	80002738	1c58a513	slti	x10,x17,453	 x17:0x1eb94000 x10=0x00000000
       23675000	      2366	8000273c	00a84433	xor	x8,x16,x10	 x16:0x00000001 x10:0x00000000  x8=0x00000001
       23685000	      2367	80002740	00c7c7b3	xor	x15,x15,x12	 x15:0x11db2916 x12:0x7fff6563 x15=0x6e244c75
       23695000	      2368	80002744	402e84b3	sub	x9,x29,x2	 x29:0x91dbbf5c  x2:0x0000000e  x9=0x91dbbf4e
       23705000	      2369	80002748	01f7f1b3	and	x3,x15,x31	 x15:0x6e244c75 x31:0x00000002  x3=0x00000000
       23715000	      2370	8000274c	013d5733	srl	x14,x26,x19	 x26:0xf81936d3 x19:0xf01936d8 x14=0x000000f8
       23725000	      2371	80002750	006f8f93	addi	x31,x31,6	 x31:0x00000002 x31=0x00000008
       23735000	      2372	80002754	411fd2b3	sra	x5,x31,x17	 x31:0x00000008 x17:0x1eb94000  x5=0x00000008
       23745000	      2373	80002758	0122c733	xor	x14,x5,x18	  x5:0x00000008 x18:0x65028000 x14=0x65028008
       23755000	      2374	8000275c	80813213	sltiu	x4,x2,-2040	  x2:0x0000000e  x4=0x00000001
       23765000	      2375	80002760	016a20b3	slt	x1,x20,x22	 x20:0x000013eb x22:0x7fff6563  x1=0x00000001
       23775000	      2376	80002764	003e6eb3	or	x29,x28,x3	 x28:0x80009f58  x3:0x00000000 x29=0x80009f58
       23785000	      2377	80002768	00a74ab3	xor	x21,x14,x10	 x14:0x65028008 x10:0x00000000 x21=0x65028008
       23795000	      2378	8000276c	40e5da13	srai	x20,x11,0xe	 x11:0x04fac000 x20=0x000013eb
       23805000	      2379	80002770	1e12e413	ori	x8,x5,481	  x5:0x00000008  x8=0x000001e9
       23815000	      2380	80002774	fc2f92e3	bne	x31,x2,80002738	 x31:0x00000008  x2:0x0000000e
       23825000	      2381	00000000	00000013	addi	x0,x0,0	  x0:0x00000000
       23835000	      2382	80002734	00000013	addi	x0,x0,0	  x0:0x00000000
       23845000	      2383	80002738	1c58a513	slti	x10,x17,453	 x17:0x1eb94000 x10=0x00000000
       23855000	      2384	8000273c	00a84433	xor	x8,x16,x10	 x16:0x00000001 x10:0x00000000  x8=0x00000001
       23865000	      2385	80002740	00c7c7b3	xor	x15,x15,x12	 x15:0x6e244c75 x12:0x7fff6563 x15=0x11db2916
       23875000	      2386	80002744	402e84b3	sub	x9,x29,x2	 x29:0x80009f58  x2:0x0000000e  x9=0x80009f4a
       23885000	      2387	80002748	01f7f1b3	and	x3,x15,x31	 x15:0x11db2916 x31:0x00000008  x3=0x00000000
       23895000	      2388	8000274c	013d5733	srl	x14,x26,x19	 x26:0xf81936d3 x19:0xf01936d8 x14=0x000000f8
       23905000	      2389	80002750	006f8f93	addi	x31,x31,6	 x31:0x00000008 x31=0x0000000e
       23915000	      2390	80002754	411fd2b3	sra	x5,x31,x17	 x31:0x0000000e x17:0x1eb94000  x5=0x0000000e
       23925000	      2391	80002758	0122c733	xor	x14,x5,x18	  x5:0x0000000e x18:0x65028000 x14=0x6502800e
       23935000	      2392	8000275c	80813213	sltiu	x4,x2,-2040	  x2:0x0000000e  x4=0x00000001
       23945000	      2393	80002760	016a20b3	slt	x1,x20,x22	 x20:0x000013eb x22:0x7fff6563  x1=0x00000001
       23955000	      2394	80002764	003e6eb3	or	x29,x28,x3	 x28:0x80009f58  x3:0x00000000 x29=0x80009f58
       23965000	      2395	80002768	00a74ab3	xor	x21,x14,x10	 x14:0x6502800e x10:0x00000000 x21=0x6502800e
       23975000	      2396	8000276c	40e5da13	srai	x20,x11,0xe	 x11:0x04fac000 x20=0x000013eb
       23985000	      2397	80002770	1e12e413	ori	x8,x5,481	  x5:0x0000000e  x8=0x000001ef
       23995000	      2398	80002774	fc2f92e3	bne	x31,x2,80002738	 x31:0x0000000e  x2:0x0000000e
       24005000	      2399	80002778	00400eb3	add	x29,x0,x4	  x0:0x00000000  x4:0x00000001 x29=0x00000001
       24015000	      2400	8000277c	ffb00d93	addi	x27,x0,-5	  x0:0x00000000 x27=0xfffffffb
       24025000	      2401	80002780	fed00c13	addi	x24,x0,-19	  x0:0x00000000 x24=0xffffffed
       24035000	      2402	80002784	e84b0717	auipc	x14,0xe84b0	 x14=0x684b2780
       24045000	      2403	80002788	ff9d8d93	addi	x27,x27,-7	 x27:0xfffffffb x27=0xfffffff4
       24055000	      2404	8000278c	006b5a33	srl	x20,x22,x6	 x22:0x7fff6563  x6:0x7fff608a x20=0x001fffd9
       24065000	      2405	80002790	ffa00113	addi	x2,x0,-6	  x0:0x00000000  x2=0xfffffffa
       24075000	      2406	80002794	fef00a93	addi	x21,x0,-17	  x0:0x00000000 x21=0xffffffef
       24085000	      2407	80002798	41a5d913	srai	x18,x11,0x1a	 x11:0x04fac000 x18=0x00000001
       24095000	      2408	8000279c	01a6e6b3	or	x13,x13,x26	 x13:0x00000000 x26:0xf81936d3 x13=0xf81936d3
       24105000	      2409	800027a0	fff10113	addi	x2,x2,-1	  x2:0xfffffffa  x2=0xfffffff9
       24115000	      2410	800027a4	ff511ce3	bne	x2,x21,8000279c	  x2:0xfffffff9 x21:0xffffffef
       24125000	      2411	00000000	00000013	addi	x0,x0,0	  x0:0x00000000
       24135000	      2412	80002798	00000013	addi	x0,x0,0	  x0:0x00000000
       24145000	      2413	8000279c	01a6e6b3	or	x13,x13,x26	 x13:0xf81936d3 x26:0xf81936d3 x13=0xf81936d3
       24155000	      2414	800027a0	fff10113	addi	x2,x2,-1	  x2:0xfffffff9  x2=0xfffffff8
       24165000	      2415	800027a4	ff511ce3	bne	x2,x21,8000279c	  x2:0xfffffff8 x21:0xffffffef
       24175000	      2416	00000000	00000013	addi	x0,x0,0	  x0:0x00000000
       24185000	      2417	80002798	00000013	addi	x0,x0,0	  x0:0x00000000
       24195000	      2418	8000279c	01a6e6b3	or	x13,x13,x26	 x13:0xf81936d3 x26:0xf81936d3 x13=0xf81936d3
       24205000	      2419	800027a0	fff10113	addi	x2,x2,-1	  x2:0xfffffff8  x2=0xfffffff7
       24215000	      2420	800027a4	ff511ce3	bne	x2,x21,8000279c	  x2:0xfffffff7 x21:0xffffffef
       24225000	      2421	00000000	00000013	addi	x0,x0,0	  x0:0x00000000
       24235000	      2422	80002798	00000013	addi	x0,x0,0	  x0:0x00000000
       24245000	      2423	8000279c	01a6e6b3	or	x13,x13,x26	 x13:0xf81936d3 x26:0xf81936d3 x13=0xf81936d3
       24255000	      2424	800027a0	fff10113	addi	x2,x2,-1	  x2:0xfffffff7  x2=0xfffffff6
       24265000	      2425	800027a4	ff511ce3	bne	x2,x21,8000279c	  x2:0xfffffff6 x21:0xffffffef
       24275000	      2426	00000000	00000013	addi	x0,x0,0	  x0:0x00000000
       24285000	      2427	80002798	00000013	addi	x0,x0,0	  x0:0x00000000
       24295000	      2428	8000279c	01a6e6b3	or	x13,x13,x26	 x13:0xf81936d3 x26:0xf81936d3 x13=0xf81936d3
       24305000	      2429	800027a0	fff10113	addi	x2,x2,-1	  x2:0xfffffff6  x2=0xfffffff5
       24315000	      2430	800027a4	ff511ce3	bne	x2,x21,8000279c	  x2:0xfffffff5 x21:0xffffffef
       24325000	      2431	00000000	00000013	addi	x0,x0,0	  x0:0x00000000
       24335000	      2432	80002798	00000013	addi	x0,x0,0	  x0:0x00000000
       24345000	      2433	8000279c	01a6e6b3	or	x13,x13,x26	 x13:0xf81936d3 x26:0xf81936d3 x13=0xf81936d3
       24355000	      2434	800027a0	fff10113	addi	x2,x2,-1	  x2:0xfffffff5  x2=0xfffffff4
       24365000	      2435	800027a4	ff511ce3	bne	x2,x21,8000279c	  x2:0xfffffff4 x21:0xffffffef
       24375000	      2436	00000000	00000013	addi	x0,x0,0	  x0:0x00000000
       24385000	      2437	80002798	00000013	addi	x0,x0,0	  x0:0x00000000
       24395000	      2438	8000279c	01a6e6b3	or	x13,x13,x26	 x13:0xf81936d3 x26:0xf81936d3 x13=0xf81936d3
       24405000	      2439	800027a0	fff10113	addi	x2,x2,-1	  x2:0xfffffff4  x2=0xfffffff3
       24415000	      2440	800027a4	ff511ce3	bne	x2,x21,8000279c	  x2:0xfffffff3 x21:0xffffffef
       24425000	      2441	00000000	00000013	addi	x0,x0,0	  x0:0x00000000
       24435000	      2442	80002798	00000013	addi	x0,x0,0	  x0:0x00000000
       24445000	      2443	8000279c	01a6e6b3	or	x13,x13,x26	 x13:0xf81936d3 x26:0xf81936d3 x13=0xf81936d3
       24455000	      2444	800027a0	fff10113	addi	x2,x2,-1	  x2:0xfffffff3  x2=0xfffffff2
       24465000	      2445	800027a4	ff511ce3	bne	x2,x21,8000279c	  x2:0xfffffff2 x21:0xffffffef
       24475000	      2446	00000000	00000013	addi	x0,x0,0	  x0:0x00000000
       24485000	      2447	80002798	00000013	addi	x0,x0,0	  x0:0x00000000
       24495000	      2448	8000279c	01a6e6b3	or	x13,x13,x26	 x13:0xf81936d3 x26:0xf81936d3 x13=0xf81936d3
       24505000	      2449	800027a0	fff10113	addi	x2,x2,-1	  x2:0xfffffff2  x2=0xfffffff1
       24515000	      2450	800027a4	ff511ce3	bne	x2,x21,8000279c	  x2:0xfffffff1 x21:0xffffffef
       24525000	      2451	00000000	00000013	addi	x0,x0,0	  x0:0x00000000
       24535000	      2452	80002798	00000013	addi	x0,x0,0	  x0:0x00000000
       24545000	      2453	8000279c	01a6e6b3	or	x13,x13,x26	 x13:0xf81936d3 x26:0xf81936d3 x13=0xf81936d3
       24555000	      2454	800027a0	fff10113	addi	x2,x2,-1	  x2:0xfffffff1  x2=0xfffffff0
       24565000	      2455	800027a4	ff511ce3	bne	x2,x21,8000279c	  x2:0xfffffff0 x21:0xffffffef
       24575000	      2456	00000000	00000013	addi	x0,x0,0	  x0:0x00000000
       24585000	      2457	80002798	00000013	addi	x0,x0,0	  x0:0x00000000
       24595000	      2458	8000279c	01a6e6b3	or	x13,x13,x26	 x13:0xf81936d3 x26:0xf81936d3 x13=0xf81936d3
       24605000	      2459	800027a0	fff10113	addi	x2,x2,-1	  x2:0xfffffff0  x2=0xffffffef
       24615000	      2460	800027a4	ff511ce3	bne	x2,x21,8000279c	  x2:0xffffffef x21:0xffffffef
       24625000	      2461	800027a8	451e3d13	sltiu	x26,x28,1105	 x28:0x80009f58 x26=0x00000000
       24635000	      2462	800027ac	40e9d6b3	sra	x13,x19,x14	 x19:0xf01936d8 x14:0x684b2780 x13=0xf01936d8
       24645000	      2463	800027b0	e8317693	andi	x13,x2,-381	  x2:0xffffffef x13=0xfffffe83
       24655000	      2464	800027b4	095bb993	sltiu	x19,x23,149	 x23:0x80009fc4 x19=0x00000000
       24665000	      2465	800027b8	fd8dd6e3	bge	x27,x24,80002784	 x27:0xfffffff4 x24:0xffffffed
       24675000	      2466	00000000	00000013	addi	x0,x0,0	  x0:0x00000000
       24685000	      2467	80002780	00000013	addi	x0,x0,0	  x0:0x00000000
       24695000	      2468	80002784	e84b0717	auipc	x14,0xe84b0	 x14=0x684b2780
       24705000	      2469	80002788	ff9d8d93	addi	x27,x27,-7	 x27:0xfffffff4 x27=0xffffffed
       24715000	      2470	8000278c	006b5a33	srl	x20,x22,x6	 x22:0x7fff6563  x6:0x7fff608a x20=0x001fffd9
       24725000	      2471	80002790	ffa00113	addi	x2,x0,-6	  x0:0x00000000  x2=0xfffffffa
       24735000	      2472	80002794	fef00a93	addi	x21,x0,-17	  x0:0x00000000 x21=0xffffffef
       24745000	      2473	80002798	41a5d913	srai	x18,x11,0x1a	 x11:0x04fac000 x18=0x00000001
       24755000	      2474	8000279c	01a6e6b3	or	x13,x13,x26	 x13:0xfffffe83 x26:0x00000000 x13=0xfffffe83
       24765000	      2475	800027a0	fff10113	addi	x2,x2,-1	  x2:0xfffffffa  x2=0xfffffff9
       24775000	      2476	800027a4	ff511ce3	bne	x2,x21,8000279c	  x2:0xfffffff9 x21:0xffffffef
       24785000	      2477	00000000	00000013	addi	x0,x0,0	  x0:0x00000000
       24795000	      2478	80002798	00000013	addi	x0,x0,0	  x0:0x00000000
       24805000	      2479	8000279c	01a6e6b3	or	x13,x13,x26	 x13:0xfffffe83 x26:0x00000000 x13=0xfffffe83
       24815000	      2480	800027a0	fff10113	addi	x2,x2,-1	  x2:0xfffffff9  x2=0xfffffff8
       24825000	      2481	800027a4	ff511ce3	bne	x2,x21,8000279c	  x2:0xfffffff8 x21:0xffffffef
       24835000	      2482	00000000	00000013	addi	x0,x0,0	  x0:0x00000000
       24845000	      2483	80002798	00000013	addi	x0,x0,0	  x0:0x00000000
       24855000	      2484	8000279c	01a6e6b3	or	x13,x13,x26	 x13:0xfffffe83 x26:0x00000000 x13=0xfffffe83
       24865000	      2485	800027a0	fff10113	addi	x2,x2,-1	  x2:0xfffffff8  x2=0xfffffff7
       24875000	      2486	800027a4	ff511ce3	bne	x2,x21,8000279c	  x2:0xfffffff7 x21:0xffffffef
       24885000	      2487	00000000	00000013	addi	x0,x0,0	  x0:0x00000000
       24895000	      2488	80002798	00000013	addi	x0,x0,0	  x0:0x00000000
       24905000	      2489	8000279c	01a6e6b3	or	x13,x13,x26	 x13:0xfffffe83 x26:0x00000000 x13=0xfffffe83
       24915000	      2490	800027a0	fff10113	addi	x2,x2,-1	  x2:0xfffffff7  x2=0xfffffff6
       24925000	      2491	800027a4	ff511ce3	bne	x2,x21,8000279c	  x2:0xfffffff6 x21:0xffffffef
       24935000	      2492	00000000	00000013	addi	x0,x0,0	  x0:0x00000000
       24945000	      2493	80002798	00000013	addi	x0,x0,0	  x0:0x00000000
       24955000	      2494	8000279c	01a6e6b3	or	x13,x13,x26	 x13:0xfffffe83 x26:0x00000000 x13=0xfffffe83
       24965000	      2495	800027a0	fff10113	addi	x2,x2,-1	  x2:0xfffffff6  x2=0xfffffff5
       24975000	      2496	800027a4	ff511ce3	bne	x2,x21,8000279c	  x2:0xfffffff5 x21:0xffffffef
       24985000	      2497	00000000	00000013	addi	x0,x0,0	  x0:0x00000000
       24995000	      2498	80002798	00000013	addi	x0,x0,0	  x0:0x00000000
       25005000	      2499	8000279c	01a6e6b3	or	x13,x13,x26	 x13:0xfffffe83 x26:0x00000000 x13=0xfffffe83
       25015000	      2500	800027a0	fff10113	addi	x2,x2,-1	  x2:0xfffffff5  x2=0xfffffff4
       25025000	      2501	800027a4	ff511ce3	bne	x2,x21,8000279c	  x2:0xfffffff4 x21:0xffffffef
       25035000	      2502	00000000	00000013	addi	x0,x0,0	  x0:0x00000000
       25045000	      2503	80002798	00000013	addi	x0,x0,0	  x0:0x00000000
       25055000	      2504	8000279c	01a6e6b3	or	x13,x13,x26	 x13:0xfffffe83 x26:0x00000000 x13=0xfffffe83
       25065000	      2505	800027a0	fff10113	addi	x2,x2,-1	  x2:0xfffffff4  x2=0xfffffff3
       25075000	      2506	800027a4	ff511ce3	bne	x2,x21,8000279c	  x2:0xfffffff3 x21:0xffffffef
       25085000	      2507	00000000	00000013	addi	x0,x0,0	  x0:0x00000000
       25095000	      2508	80002798	00000013	addi	x0,x0,0	  x0:0x00000000
       25105000	      2509	8000279c	01a6e6b3	or	x13,x13,x26	 x13:0xfffffe83 x26:0x00000000 x13=0xfffffe83
       25115000	      2510	800027a0	fff10113	addi	x2,x2,-1	  x2:0xfffffff3  x2=0xfffffff2
       25125000	      2511	800027a4	ff511ce3	bne	x2,x21,8000279c	  x2:0xfffffff2 x21:0xffffffef
       25135000	      2512	00000000	00000013	addi	x0,x0,0	  x0:0x00000000
       25145000	      2513	80002798	00000013	addi	x0,x0,0	  x0:0x00000000
       25155000	      2514	8000279c	01a6e6b3	or	x13,x13,x26	 x13:0xfffffe83 x26:0x00000000 x13=0xfffffe83
       25165000	      2515	800027a0	fff10113	addi	x2,x2,-1	  x2:0xfffffff2  x2=0xfffffff1
       25175000	      2516	800027a4	ff511ce3	bne	x2,x21,8000279c	  x2:0xfffffff1 x21:0xffffffef
       25185000	      2517	00000000	00000013	addi	x0,x0,0	  x0:0x00000000
       25195000	      2518	80002798	00000013	addi	x0,x0,0	  x0:0x00000000
       25205000	      2519	8000279c	01a6e6b3	or	x13,x13,x26	 x13:0xfffffe83 x26:0x00000000 x13=0xfffffe83
       25215000	      2520	800027a0	fff10113	addi	x2,x2,-1	  x2:0xfffffff1  x2=0xfffffff0
       25225000	      2521	800027a4	ff511ce3	bne	x2,x21,8000279c	  x2:0xfffffff0 x21:0xffffffef
       25235000	      2522	00000000	00000013	addi	x0,x0,0	  x0:0x00000000
       25245000	      2523	80002798	00000013	addi	x0,x0,0	  x0:0x00000000
       25255000	      2524	8000279c	01a6e6b3	or	x13,x13,x26	 x13:0xfffffe83 x26:0x00000000 x13=0xfffffe83
       25265000	      2525	800027a0	fff10113	addi	x2,x2,-1	  x2:0xfffffff0  x2=0xffffffef
       25275000	      2526	800027a4	ff511ce3	bne	x2,x21,8000279c	  x2:0xffffffef x21:0xffffffef
       25285000	      2527	800027a8	451e3d13	sltiu	x26,x28,1105	 x28:0x80009f58 x26=0x00000000
       25295000	      2528	800027ac	40e9d6b3	sra	x13,x19,x14	 x19:0x00000000 x14:0x684b2780 x13=0x00000000
       25305000	      2529	800027b0	e8317693	andi	x13,x2,-381	  x2:0xffffffef x13=0xfffffe83
       25315000	      2530	800027b4	095bb993	sltiu	x19,x23,149	 x23:0x80009fc4 x19=0x00000000
       25325000	      2531	800027b8	fd8dd6e3	bge	x27,x24,80002784	 x27:0xffffffed x24:0xffffffed
       25335000	      2532	00000000	00000013	addi	x0,x0,0	  x0:0x00000000
       25345000	      2533	80002780	00000013	addi	x0,x0,0	  x0:0x00000000
       25355000	      2534	80002784	e84b0717	auipc	x14,0xe84b0	 x14=0x684b2780
       25365000	      2535	80002788	ff9d8d93	addi	x27,x27,-7	 x27:0xffffffed x27=0xffffffe6
       25375000	      2536	8000278c	006b5a33	srl	x20,x22,x6	 x22:0x7fff6563  x6:0x7fff608a x20=0x001fffd9
       25385000	      2537	80002790	ffa00113	addi	x2,x0,-6	  x0:0x00000000  x2=0xfffffffa
       25395000	      2538	80002794	fef00a93	addi	x21,x0,-17	  x0:0x00000000 x21=0xffffffef
       25405000	      2539	80002798	41a5d913	srai	x18,x11,0x1a	 x11:0x04fac000 x18=0x00000001
       25415000	      2540	8000279c	01a6e6b3	or	x13,x13,x26	 x13:0xfffffe83 x26:0x00000000 x13=0xfffffe83
       25425000	      2541	800027a0	fff10113	addi	x2,x2,-1	  x2:0xfffffffa  x2=0xfffffff9
       25435000	      2542	800027a4	ff511ce3	bne	x2,x21,8000279c	  x2:0xfffffff9 x21:0xffffffef
       25445000	      2543	00000000	00000013	addi	x0,x0,0	  x0:0x00000000
       25455000	      2544	80002798	00000013	addi	x0,x0,0	  x0:0x00000000
       25465000	      2545	8000279c	01a6e6b3	or	x13,x13,x26	 x13:0xfffffe83 x26:0x00000000 x13=0xfffffe83
       25475000	      2546	800027a0	fff10113	addi	x2,x2,-1	  x2:0xfffffff9  x2=0xfffffff8
       25485000	      2547	800027a4	ff511ce3	bne	x2,x21,8000279c	  x2:0xfffffff8 x21:0xffffffef
       25495000	      2548	00000000	00000013	addi	x0,x0,0	  x0:0x00000000
       25505000	      2549	80002798	00000013	addi	x0,x0,0	  x0:0x00000000
       25515000	      2550	8000279c	01a6e6b3	or	x13,x13,x26	 x13:0xfffffe83 x26:0x00000000 x13=0xfffffe83
       25525000	      2551	800027a0	fff10113	addi	x2,x2,-1	  x2:0xfffffff8  x2=0xfffffff7
       25535000	      2552	800027a4	ff511ce3	bne	x2,x21,8000279c	  x2:0xfffffff7 x21:0xffffffef
       25545000	      2553	00000000	00000013	addi	x0,x0,0	  x0:0x00000000
       25555000	      2554	80002798	00000013	addi	x0,x0,0	  x0:0x00000000
       25565000	      2555	8000279c	01a6e6b3	or	x13,x13,x26	 x13:0xfffffe83 x26:0x00000000 x13=0xfffffe83
       25575000	      2556	800027a0	fff10113	addi	x2,x2,-1	  x2:0xfffffff7  x2=0xfffffff6
       25585000	      2557	800027a4	ff511ce3	bne	x2,x21,8000279c	  x2:0xfffffff6 x21:0xffffffef
       25595000	      2558	00000000	00000013	addi	x0,x0,0	  x0:0x00000000
       25605000	      2559	80002798	00000013	addi	x0,x0,0	  x0:0x00000000
       25615000	      2560	8000279c	01a6e6b3	or	x13,x13,x26	 x13:0xfffffe83 x26:0x00000000 x13=0xfffffe83
       25625000	      2561	800027a0	fff10113	addi	x2,x2,-1	  x2:0xfffffff6  x2=0xfffffff5
       25635000	      2562	800027a4	ff511ce3	bne	x2,x21,8000279c	  x2:0xfffffff5 x21:0xffffffef
       25645000	      2563	00000000	00000013	addi	x0,x0,0	  x0:0x00000000
       25655000	      2564	80002798	00000013	addi	x0,x0,0	  x0:0x00000000
       25665000	      2565	8000279c	01a6e6b3	or	x13,x13,x26	 x13:0xfffffe83 x26:0x00000000 x13=0xfffffe83
       25675000	      2566	800027a0	fff10113	addi	x2,x2,-1	  x2:0xfffffff5  x2=0xfffffff4
       25685000	      2567	800027a4	ff511ce3	bne	x2,x21,8000279c	  x2:0xfffffff4 x21:0xffffffef
       25695000	      2568	00000000	00000013	addi	x0,x0,0	  x0:0x00000000
       25705000	      2569	80002798	00000013	addi	x0,x0,0	  x0:0x00000000
       25715000	      2570	8000279c	01a6e6b3	or	x13,x13,x26	 x13:0xfffffe83 x26:0x00000000 x13=0xfffffe83
       25725000	      2571	800027a0	fff10113	addi	x2,x2,-1	  x2:0xfffffff4  x2=0xfffffff3
       25735000	      2572	800027a4	ff511ce3	bne	x2,x21,8000279c	  x2:0xfffffff3 x21:0xffffffef
       25745000	      2573	00000000	00000013	addi	x0,x0,0	  x0:0x00000000
       25755000	      2574	80002798	00000013	addi	x0,x0,0	  x0:0x00000000
       25765000	      2575	8000279c	01a6e6b3	or	x13,x13,x26	 x13:0xfffffe83 x26:0x00000000 x13=0xfffffe83
       25775000	      2576	800027a0	fff10113	addi	x2,x2,-1	  x2:0xfffffff3  x2=0xfffffff2
       25785000	      2577	800027a4	ff511ce3	bne	x2,x21,8000279c	  x2:0xfffffff2 x21:0xffffffef
       25795000	      2578	00000000	00000013	addi	x0,x0,0	  x0:0x00000000
       25805000	      2579	80002798	00000013	addi	x0,x0,0	  x0:0x00000000
       25815000	      2580	8000279c	01a6e6b3	or	x13,x13,x26	 x13:0xfffffe83 x26:0x00000000 x13=0xfffffe83
       25825000	      2581	800027a0	fff10113	addi	x2,x2,-1	  x2:0xfffffff2  x2=0xfffffff1
       25835000	      2582	800027a4	ff511ce3	bne	x2,x21,8000279c	  x2:0xfffffff1 x21:0xffffffef
       25845000	      2583	00000000	00000013	addi	x0,x0,0	  x0:0x00000000
       25855000	      2584	80002798	00000013	addi	x0,x0,0	  x0:0x00000000
       25865000	      2585	8000279c	01a6e6b3	or	x13,x13,x26	 x13:0xfffffe83 x26:0x00000000 x13=0xfffffe83
       25875000	      2586	800027a0	fff10113	addi	x2,x2,-1	  x2:0xfffffff1  x2=0xfffffff0
       25885000	      2587	800027a4	ff511ce3	bne	x2,x21,8000279c	  x2:0xfffffff0 x21:0xffffffef
       25895000	      2588	00000000	00000013	addi	x0,x0,0	  x0:0x00000000
       25905000	      2589	80002798	00000013	addi	x0,x0,0	  x0:0x00000000
       25915000	      2590	8000279c	01a6e6b3	or	x13,x13,x26	 x13:0xfffffe83 x26:0x00000000 x13=0xfffffe83
       25925000	      2591	800027a0	fff10113	addi	x2,x2,-1	  x2:0xfffffff0  x2=0xffffffef
       25935000	      2592	800027a4	ff511ce3	bne	x2,x21,8000279c	  x2:0xffffffef x21:0xffffffef
       25945000	      2593	800027a8	451e3d13	sltiu	x26,x28,1105	 x28:0x80009f58 x26=0x00000000
       25955000	      2594	800027ac	40e9d6b3	sra	x13,x19,x14	 x19:0x00000000 x14:0x684b2780 x13=0x00000000
       25965000	      2595	800027b0	e8317693	andi	x13,x2,-381	  x2:0xffffffef x13=0xfffffe83
       25975000	      2596	800027b4	095bb993	sltiu	x19,x23,149	 x23:0x80009fc4 x19=0x00000000
       25985000	      2597	800027b8	fd8dd6e3	bge	x27,x24,80002784	 x27:0xffffffe6 x24:0xffffffed
       25995000	      2598	800027bc	00c3a833	slt	x16,x7,x12	  x7:0x91dc35ca x12:0x7fff6563 x16=0x00000001
       26005000	      2599	800027c0	ffd00313	addi	x6,x0,-3	  x0:0x00000000  x6=0xfffffffd
       26015000	      2600	800027c4	ff100d93	addi	x27,x0,-15	  x0:0x00000000 x27=0xfffffff1
       26025000	      2601	800027c8	f6840913	addi	x18,x8,-152	  x8:0x000001ef x18=0x00000157
       26035000	      2602	800027cc	ffe30313	addi	x6,x6,-2	  x6:0xfffffffd  x6=0xfffffffb
       26045000	      2603	800027d0	ffb35ce3	bge	x6,x27,800027c8	  x6:0xfffffffb x27:0xfffffff1
       26055000	      2604	00000000	00000013	addi	x0,x0,0	  x0:0x00000000
       26065000	      2605	800027c4	00000013	addi	x0,x0,0	  x0:0x00000000
       26075000	      2606	800027c8	f6840913	addi	x18,x8,-152	  x8:0x000001ef x18=0x00000157
       26085000	      2607	800027cc	ffe30313	addi	x6,x6,-2	  x6:0xfffffffb  x6=0xfffffff9
       26095000	      2608	800027d0	ffb35ce3	bge	x6,x27,800027c8	  x6:0xfffffff9 x27:0xfffffff1
       26105000	      2609	00000000	00000013	addi	x0,x0,0	  x0:0x00000000
       26115000	      2610	800027c4	00000013	addi	x0,x0,0	  x0:0x00000000
       26125000	      2611	800027c8	f6840913	addi	x18,x8,-152	  x8:0x000001ef x18=0x00000157
       26135000	      2612	800027cc	ffe30313	addi	x6,x6,-2	  x6:0xfffffff9  x6=0xfffffff7
       26145000	      2613	800027d0	ffb35ce3	bge	x6,x27,800027c8	  x6:0xfffffff7 x27:0xfffffff1
       26155000	      2614	00000000	00000013	addi	x0,x0,0	  x0:0x00000000
       26165000	      2615	800027c4	00000013	addi	x0,x0,0	  x0:0x00000000
       26175000	      2616	800027c8	f6840913	addi	x18,x8,-152	  x8:0x000001ef x18=0x00000157
       26185000	      2617	800027cc	ffe30313	addi	x6,x6,-2	  x6:0xfffffff7  x6=0xfffffff5
       26195000	      2618	800027d0	ffb35ce3	bge	x6,x27,800027c8	  x6:0xfffffff5 x27:0xfffffff1
       26205000	      2619	00000000	00000013	addi	x0,x0,0	  x0:0x00000000
       26215000	      2620	800027c4	00000013	addi	x0,x0,0	  x0:0x00000000
       26225000	      2621	800027c8	f6840913	addi	x18,x8,-152	  x8:0x000001ef x18=0x00000157
       26235000	      2622	800027cc	ffe30313	addi	x6,x6,-2	  x6:0xfffffff5  x6=0xfffffff3
       26245000	      2623	800027d0	ffb35ce3	bge	x6,x27,800027c8	  x6:0xfffffff3 x27:0xfffffff1
       26255000	      2624	00000000	00000013	addi	x0,x0,0	  x0:0x00000000
       26265000	      2625	800027c4	00000013	addi	x0,x0,0	  x0:0x00000000
       26275000	      2626	800027c8	f6840913	addi	x18,x8,-152	  x8:0x000001ef x18=0x00000157
       26285000	      2627	800027cc	ffe30313	addi	x6,x6,-2	  x6:0xfffffff3  x6=0xfffffff1
       26295000	      2628	800027d0	ffb35ce3	bge	x6,x27,800027c8	  x6:0xfffffff1 x27:0xfffffff1
       26305000	      2629	00000000	00000013	addi	x0,x0,0	  x0:0x00000000
       26315000	      2630	800027c4	00000013	addi	x0,x0,0	  x0:0x00000000
       26325000	      2631	800027c8	f6840913	addi	x18,x8,-152	  x8:0x000001ef x18=0x00000157
       26335000	      2632	800027cc	ffe30313	addi	x6,x6,-2	  x6:0xfffffff1  x6=0xffffffef
       26345000	      2633	800027d0	ffb35ce3	bge	x6,x27,800027c8	  x6:0xffffffef x27:0xfffffff1
       26355000	      2634	800027d4	21b68c93	addi	x25,x13,539	 x13:0xfffffe83 x25=0x0000009e
       26365000	      2635	800027d8	00a00493	addi	x9,x0,10	  x0:0x00000000  x9=0x0000000a
       26375000	      2636	800027dc	06992c17	auipc	x24,0x6992	 x24=0x869947d8
       26385000	      2637	800027e0	00000d93	addi	x27,x0,0	  x0:0x00000000 x27=0x00000000
       26395000	      2638	800027e4	00917633	and	x12,x2,x9	  x2:0xffffffef  x9:0x0000000a x12=0x0000000a
       26405000	      2639	800027e8	00c45313	srli	x6,x8,0xc	  x8:0x000001ef  x6=0x00000000
       26415000	      2640	800027ec	7274bc37	lui	x24,0x7274b	 x24=0x7274b000
       26425000	      2641	800027f0	ffe48493	addi	x9,x9,-2	  x9:0x0000000a  x9=0x00000008
       26435000	      2642	800027f4	6a438717	auipc	x14,0x6a438	 x14=0xea43a7f0
       26445000	      2643	800027f8	00300a93	addi	x21,x0,3	  x0:0x00000000 x21=0x00000003
       26455000	      2644	800027fc	00c00293	addi	x5,x0,12	  x0:0x00000000  x5=0x0000000c
       26465000	      2645	80002800	014e00b3	add	x1,x28,x20	 x28:0x80009f58 x20:0x001fffd9  x1=0x80209f31
       26475000	      2646	80002804	295c2637	lui	x12,0x295c2	 x12=0x295c2000
       26485000	      2647	80002808	c88f9a17	auipc	x20,0xc88f9	 x20=0x488fb804
       26495000	      2648	8000280c	001a8a93	addi	x21,x21,1	 x21:0x00000003 x21=0x00000004
       26505000	      2649	80002810	40838333	sub	x6,x7,x8	  x7:0x91dc35ca  x8:0x000001ef  x6=0x91dc33db
       26515000	      2650	80002814	fe5aeae3	bltu	x21,x5,80002808	 x21:0x00000004  x5:0x0000000c
       26525000	      2651	00000000	00000013	addi	x0,x0,0	  x0:0x00000000
       26535000	      2652	80002804	00000013	addi	x0,x0,0	  x0:0x00000000
       26545000	      2653	80002808	c88f9a17	auipc	x20,0xc88f9	 x20=0x488fb804
       26555000	      2654	8000280c	001a8a93	addi	x21,x21,1	 x21:0x00000004 x21=0x00000005
       26565000	      2655	80002810	40838333	sub	x6,x7,x8	  x7:0x91dc35ca  x8:0x000001ef  x6=0x91dc33db
       26575000	      2656	80002814	fe5aeae3	bltu	x21,x5,80002808	 x21:0x00000005  x5:0x0000000c
       26585000	      2657	00000000	00000013	addi	x0,x0,0	  x0:0x00000000
       26595000	      2658	80002804	00000013	addi	x0,x0,0	  x0:0x00000000
       26605000	      2659	80002808	c88f9a17	auipc	x20,0xc88f9	 x20=0x488fb804
       26615000	      2660	8000280c	001a8a93	addi	x21,x21,1	 x21:0x00000005 x21=0x00000006
       26625000	      2661	80002810	40838333	sub	x6,x7,x8	  x7:0x91dc35ca  x8:0x000001ef  x6=0x91dc33db
       26635000	      2662	80002814	fe5aeae3	bltu	x21,x5,80002808	 x21:0x00000006  x5:0x0000000c
       26645000	      2663	00000000	00000013	addi	x0,x0,0	  x0:0x00000000
       26655000	      2664	80002804	00000013	addi	x0,x0,0	  x0:0x00000000
       26665000	      2665	80002808	c88f9a17	auipc	x20,0xc88f9	 x20=0x488fb804
       26675000	      2666	8000280c	001a8a93	addi	x21,x21,1	 x21:0x00000006 x21=0x00000007
       26685000	      2667	80002810	40838333	sub	x6,x7,x8	  x7:0x91dc35ca  x8:0x000001ef  x6=0x91dc33db
       26695000	      2668	80002814	fe5aeae3	bltu	x21,x5,80002808	 x21:0x00000007  x5:0x0000000c
       26705000	      2669	00000000	00000013	addi	x0,x0,0	  x0:0x00000000
       26715000	      2670	80002804	00000013	addi	x0,x0,0	  x0:0x00000000
       26725000	      2671	80002808	c88f9a17	auipc	x20,0xc88f9	 x20=0x488fb804
       26735000	      2672	8000280c	001a8a93	addi	x21,x21,1	 x21:0x00000007 x21=0x00000008
       26745000	      2673	80002810	40838333	sub	x6,x7,x8	  x7:0x91dc35ca  x8:0x000001ef  x6=0x91dc33db
       26755000	      2674	80002814	fe5aeae3	bltu	x21,x5,80002808	 x21:0x00000008  x5:0x0000000c
       26765000	      2675	00000000	00000013	addi	x0,x0,0	  x0:0x00000000
       26775000	      2676	80002804	00000013	addi	x0,x0,0	  x0:0x00000000
       26785000	      2677	80002808	c88f9a17	auipc	x20,0xc88f9	 x20=0x488fb804
       26795000	      2678	8000280c	001a8a93	addi	x21,x21,1	 x21:0x00000008 x21=0x00000009
       26805000	      2679	80002810	40838333	sub	x6,x7,x8	  x7:0x91dc35ca  x8:0x000001ef  x6=0x91dc33db
       26815000	      2680	80002814	fe5aeae3	bltu	x21,x5,80002808	 x21:0x00000009  x5:0x0000000c
       26825000	      2681	00000000	00000013	addi	x0,x0,0	  x0:0x00000000
       26835000	      2682	80002804	00000013	addi	x0,x0,0	  x0:0x00000000
       26845000	      2683	80002808	c88f9a17	auipc	x20,0xc88f9	 x20=0x488fb804
       26855000	      2684	8000280c	001a8a93	addi	x21,x21,1	 x21:0x00000009 x21=0x0000000a
       26865000	      2685	80002810	40838333	sub	x6,x7,x8	  x7:0x91dc35ca  x8:0x000001ef  x6=0x91dc33db
       26875000	      2686	80002814	fe5aeae3	bltu	x21,x5,80002808	 x21:0x0000000a  x5:0x0000000c
       26885000	      2687	00000000	00000013	addi	x0,x0,0	  x0:0x00000000
       26895000	      2688	80002804	00000013	addi	x0,x0,0	  x0:0x00000000
       26905000	      2689	80002808	c88f9a17	auipc	x20,0xc88f9	 x20=0x488fb804
       26915000	      2690	8000280c	001a8a93	addi	x21,x21,1	 x21:0x0000000a x21=0x0000000b
       26925000	      2691	80002810	40838333	sub	x6,x7,x8	  x7:0x91dc35ca  x8:0x000001ef  x6=0x91dc33db
       26935000	      2692	80002814	fe5aeae3	bltu	x21,x5,80002808	 x21:0x0000000b  x5:0x0000000c
       26945000	      2693	00000000	00000013	addi	x0,x0,0	  x0:0x00000000
       26955000	      2694	80002804	00000013	addi	x0,x0,0	  x0:0x00000000
       26965000	      2695	80002808	c88f9a17	auipc	x20,0xc88f9	 x20=0x488fb804
       26975000	      2696	8000280c	001a8a93	addi	x21,x21,1	 x21:0x0000000b x21=0x0000000c
       26985000	      2697	80002810	40838333	sub	x6,x7,x8	  x7:0x91dc35ca  x8:0x000001ef  x6=0x91dc33db
       26995000	      2698	80002814	fe5aeae3	bltu	x21,x5,80002808	 x21:0x0000000c  x5:0x0000000c
       27005000	      2699	80002818	fdb486e3	beq	x9,x27,800027e4	  x9:0x00000008 x27:0x00000000
       27015000	      2700	8000281c	c2c0a313	slti	x6,x1,-980	  x1:0x80209f31  x6=0x00000001
       27025000	      2701	80002820	fff00213	addi	x4,x0,-1	  x0:0x00000000  x4=0xffffffff
       27035000	      2702	80002824	01359b13	slli	x22,x11,0x13	 x11:0x04fac000 x22=0x00000000
       27045000	      2703	80002828	41b050b3	sra	x1,x0,x27	  x0:0x00000000 x27:0x00000000  x1=0x00000000
       27055000	      2704	8000282c	415ddc33	sra	x24,x27,x21	 x27:0x00000000 x21:0x0000000c x24=0x00000000
       27065000	      2705	80002830	41c03a93	sltiu	x21,x0,1052	  x0:0x00000000 x21=0x00000001
       27075000	      2706	80002834	01219433	sll	x8,x3,x18	  x3:0x00000000 x18:0x00000157  x8=0x00000000
       27085000	      2707	80002838	00400813	addi	x16,x0,4	  x0:0x00000000 x16=0x00000004
       27095000	      2708	8000283c	00fa3433	sltu	x8,x20,x15	 x20:0x488fb804 x15:0x11db2916  x8=0x00000000
       27105000	      2709	80002840	00006933	or	x18,x0,x0	  x0:0x00000000  x0:0x00000000 x18=0x00000000
       27115000	      2710	80002844	55d4c693	xori	x13,x9,1373	  x9:0x00000008 x13=0x00000555
       27125000	      2711	80002848	fe7b3cb7	lui	x25,0xfe7b3	 x25=0xfe7b3000
       27135000	      2712	8000284c	00259fb3	sll	x31,x11,x2	 x11:0x04fac000  x2:0xffffffef x31=0x60000000
       27145000	      2713	80002850	0154cb33	xor	x22,x9,x21	  x9:0x00000008 x21:0x00000001 x22=0x00000009
       27155000	      2714	80002854	00120213	addi	x4,x4,1	  x4:0xffffffff  x4=0x00000000
       27165000	      2715	80002858	eb746613	ori	x12,x8,-329	  x8:0x00000000 x12=0xfffffeb7
       27175000	      2716	8000285c	ffd00293	addi	x5,x0,-3	  x0:0x00000000  x5=0xfffffffd
       27185000	      2717	80002860	00000013	addi	x0,x0,0	  x0:0x00000000
       27195000	      2718	80002864	ff300513	addi	x10,x0,-13	  x0:0x00000000 x10=0xfffffff3
       27205000	      2719	80002868	7345c993	xori	x19,x11,1844	 x11:0x04fac000 x19=0x04fac734
       27215000	      2720	8000286c	0171e333	or	x6,x3,x23	  x3:0x00000000 x23:0x80009fc4  x6=0x80009fc4
       27225000	      2721	80002870	ff628293	addi	x5,x5,-10	  x5:0xfffffffd  x5=0xfffffff3
       27235000	      2722	80002874	f13df793	andi	x15,x27,-237	 x27:0x00000000 x15=0x00000000
       27245000	      2723	80002878	004e9493	slli	x9,x29,0x4	 x29:0x00000001  x9=0x00000010
       27255000	      2724	8000287c	fea288e3	beq	x5,x10,8000286c	  x5:0xfffffff3 x10:0xfffffff3
       27265000	      2725	00000000	00000013	addi	x0,x0,0	  x0:0x00000000
       27275000	      2726	80002868	00000013	addi	x0,x0,0	  x0:0x00000000
       27285000	      2727	8000286c	0171e333	or	x6,x3,x23	  x3:0x00000000 x23:0x80009fc4  x6=0x80009fc4
       27295000	      2728	80002870	ff628293	addi	x5,x5,-10	  x5:0xfffffff3  x5=0xffffffe9
       27305000	      2729	80002874	f13df793	andi	x15,x27,-237	 x27:0x00000000 x15=0x00000000
       27315000	      2730	80002878	004e9493	slli	x9,x29,0x4	 x29:0x00000001  x9=0x00000010
       27325000	      2731	8000287c	fea288e3	beq	x5,x10,8000286c	  x5:0xffffffe9 x10:0xfffffff3
       27335000	      2732	80002880	414257b3	sra	x15,x4,x20	  x4:0x00000000 x20:0x488fb804 x15=0x00000000
       27345000	      2733	80002884	01b0e1b3	or	x3,x1,x27	  x1:0x00000000 x27:0x00000000  x3=0x00000000
       27355000	      2734	80002888	00dbd913	srli	x18,x23,0xd	 x23:0x80009fc4 x18=0x00040004
       27365000	      2735	8000288c	0108f733	and	x14,x17,x16	 x17:0x1eb94000 x16:0x00000004 x14=0x00000000
       27375000	      2736	80002890	40f981b3	sub	x3,x19,x15	 x19:0x04fac734 x15:0x00000000  x3=0x04fac734
       27385000	      2737	80002894	5e270113	addi	x2,x14,1506	 x14:0x00000000  x2=0x000005e2
       27395000	      2738	80002898	00000013	addi	x0,x0,0	  x0:0x00000000
       27405000	      2739	8000289c	7237a693	slti	x13,x15,1827	 x15:0x00000000 x13=0x00000001
       27415000	      2740	800028a0	f9024ee3	blt	x4,x16,8000283c	  x4:0x00000000 x16:0x00000004
       27425000	      2741	00000000	00000013	addi	x0,x0,0	  x0:0x00000000
       27435000	      2742	80002838	00000013	addi	x0,x0,0	  x0:0x00000000
       27445000	      2743	8000283c	00fa3433	sltu	x8,x20,x15	 x20:0x488fb804 x15:0x00000000  x8=0x00000000
       27455000	      2744	80002840	00006933	or	x18,x0,x0	  x0:0x00000000  x0:0x00000000 x18=0x00000000
       27465000	      2745	80002844	55d4c693	xori	x13,x9,1373	  x9:0x00000010 x13=0x0000054d
       27475000	      2746	80002848	fe7b3cb7	lui	x25,0xfe7b3	 x25=0xfe7b3000
       27485000	      2747	8000284c	00259fb3	sll	x31,x11,x2	 x11:0x04fac000  x2:0x000005e2 x31=0x13eb0000
       27495000	      2748	80002850	0154cb33	xor	x22,x9,x21	  x9:0x00000010 x21:0x00000001 x22=0x00000011
       27505000	      2749	80002854	00120213	addi	x4,x4,1	  x4:0x00000000  x4=0x00000001
       27515000	      2750	80002858	eb746613	ori	x12,x8,-329	  x8:0x00000000 x12=0xfffffeb7
       27525000	      2751	8000285c	ffd00293	addi	x5,x0,-3	  x0:0x00000000  x5=0xfffffffd
       27535000	      2752	80002860	00000013	addi	x0,x0,0	  x0:0x00000000
       27545000	      2753	80002864	ff300513	addi	x10,x0,-13	  x0:0x00000000 x10=0xfffffff3
       27555000	      2754	80002868	7345c993	xori	x19,x11,1844	 x11:0x04fac000 x19=0x04fac734
       27565000	      2755	8000286c	0171e333	or	x6,x3,x23	  x3:0x04fac734 x23:0x80009fc4  x6=0x84fadff4
       27575000	      2756	80002870	ff628293	addi	x5,x5,-10	  x5:0xfffffffd  x5=0xfffffff3
       27585000	      2757	80002874	f13df793	andi	x15,x27,-237	 x27:0x00000000 x15=0x00000000
       27595000	      2758	80002878	004e9493	slli	x9,x29,0x4	 x29:0x00000001  x9=0x00000010
       27605000	      2759	8000287c	fea288e3	beq	x5,x10,8000286c	  x5:0xfffffff3 x10:0xfffffff3
       27615000	      2760	00000000	00000013	addi	x0,x0,0	  x0:0x00000000
       27625000	      2761	80002868	00000013	addi	x0,x0,0	  x0:0x00000000
       27635000	      2762	8000286c	0171e333	or	x6,x3,x23	  x3:0x04fac734 x23:0x80009fc4  x6=0x84fadff4
       27645000	      2763	80002870	ff628293	addi	x5,x5,-10	  x5:0xfffffff3  x5=0xffffffe9
       27655000	      2764	80002874	f13df793	andi	x15,x27,-237	 x27:0x00000000 x15=0x00000000
       27665000	      2765	80002878	004e9493	slli	x9,x29,0x4	 x29:0x00000001  x9=0x00000010
       27675000	      2766	8000287c	fea288e3	beq	x5,x10,8000286c	  x5:0xffffffe9 x10:0xfffffff3
       27685000	      2767	80002880	414257b3	sra	x15,x4,x20	  x4:0x00000001 x20:0x488fb804 x15=0x00000000
       27695000	      2768	80002884	01b0e1b3	or	x3,x1,x27	  x1:0x00000000 x27:0x00000000  x3=0x00000000
       27705000	      2769	80002888	00dbd913	srli	x18,x23,0xd	 x23:0x80009fc4 x18=0x00040004
       27715000	      2770	8000288c	0108f733	and	x14,x17,x16	 x17:0x1eb94000 x16:0x00000004 x14=0x00000000
       27725000	      2771	80002890	40f981b3	sub	x3,x19,x15	 x19:0x04fac734 x15:0x00000000  x3=0x04fac734
       27735000	      2772	80002894	5e270113	addi	x2,x14,1506	 x14:0x00000000  x2=0x000005e2
       27745000	      2773	80002898	00000013	addi	x0,x0,0	  x0:0x00000000
       27755000	      2774	8000289c	7237a693	slti	x13,x15,1827	 x15:0x00000000 x13=0x00000001
       27765000	      2775	800028a0	f9024ee3	blt	x4,x16,8000283c	  x4:0x00000001 x16:0x00000004
       27775000	      2776	00000000	00000013	addi	x0,x0,0	  x0:0x00000000
       27785000	      2777	80002838	00000013	addi	x0,x0,0	  x0:0x00000000
       27795000	      2778	8000283c	00fa3433	sltu	x8,x20,x15	 x20:0x488fb804 x15:0x00000000  x8=0x00000000
       27805000	      2779	80002840	00006933	or	x18,x0,x0	  x0:0x00000000  x0:0x00000000 x18=0x00000000
       27815000	      2780	80002844	55d4c693	xori	x13,x9,1373	  x9:0x00000010 x13=0x0000054d
       27825000	      2781	80002848	fe7b3cb7	lui	x25,0xfe7b3	 x25=0xfe7b3000
       27835000	      2782	8000284c	00259fb3	sll	x31,x11,x2	 x11:0x04fac000  x2:0x000005e2 x31=0x13eb0000
       27845000	      2783	80002850	0154cb33	xor	x22,x9,x21	  x9:0x00000010 x21:0x00000001 x22=0x00000011
       27855000	      2784	80002854	00120213	addi	x4,x4,1	  x4:0x00000001  x4=0x00000002
       27865000	      2785	80002858	eb746613	ori	x12,x8,-329	  x8:0x00000000 x12=0xfffffeb7
       27875000	      2786	8000285c	ffd00293	addi	x5,x0,-3	  x0:0x00000000  x5=0xfffffffd
       27885000	      2787	80002860	00000013	addi	x0,x0,0	  x0:0x00000000
       27895000	      2788	80002864	ff300513	addi	x10,x0,-13	  x0:0x00000000 x10=0xfffffff3
       27905000	      2789	80002868	7345c993	xori	x19,x11,1844	 x11:0x04fac000 x19=0x04fac734
       27915000	      2790	8000286c	0171e333	or	x6,x3,x23	  x3:0x04fac734 x23:0x80009fc4  x6=0x84fadff4
       27925000	      2791	80002870	ff628293	addi	x5,x5,-10	  x5:0xfffffffd  x5=0xfffffff3
       27935000	      2792	80002874	f13df793	andi	x15,x27,-237	 x27:0x00000000 x15=0x00000000
       27945000	      2793	80002878	004e9493	slli	x9,x29,0x4	 x29:0x00000001  x9=0x00000010
       27955000	      2794	8000287c	fea288e3	beq	x5,x10,8000286c	  x5:0xfffffff3 x10:0xfffffff3
       27965000	      2795	00000000	00000013	addi	x0,x0,0	  x0:0x00000000
       27975000	      2796	80002868	00000013	addi	x0,x0,0	  x0:0x00000000
       27985000	      2797	8000286c	0171e333	or	x6,x3,x23	  x3:0x04fac734 x23:0x80009fc4  x6=0x84fadff4
       27995000	      2798	80002870	ff628293	addi	x5,x5,-10	  x5:0xfffffff3  x5=0xffffffe9
       28005000	      2799	80002874	f13df793	andi	x15,x27,-237	 x27:0x00000000 x15=0x00000000
       28015000	      2800	80002878	004e9493	slli	x9,x29,0x4	 x29:0x00000001  x9=0x00000010
       28025000	      2801	8000287c	fea288e3	beq	x5,x10,8000286c	  x5:0xffffffe9 x10:0xfffffff3
       28035000	      2802	80002880	414257b3	sra	x15,x4,x20	  x4:0x00000002 x20:0x488fb804 x15=0x00000000
       28045000	      2803	80002884	01b0e1b3	or	x3,x1,x27	  x1:0x00000000 x27:0x00000000  x3=0x00000000
       28055000	      2804	80002888	00dbd913	srli	x18,x23,0xd	 x23:0x80009fc4 x18=0x00040004
       28065000	      2805	8000288c	0108f733	and	x14,x17,x16	 x17:0x1eb94000 x16:0x00000004 x14=0x00000000
       28075000	      2806	80002890	40f981b3	sub	x3,x19,x15	 x19:0x04fac734 x15:0x00000000  x3=0x04fac734
       28085000	      2807	80002894	5e270113	addi	x2,x14,1506	 x14:0x00000000  x2=0x000005e2
       28095000	      2808	80002898	00000013	addi	x0,x0,0	  x0:0x00000000
       28105000	      2809	8000289c	7237a693	slti	x13,x15,1827	 x15:0x00000000 x13=0x00000001
       28115000	      2810	800028a0	f9024ee3	blt	x4,x16,8000283c	  x4:0x00000002 x16:0x00000004
       28125000	      2811	00000000	00000013	addi	x0,x0,0	  x0:0x00000000
       28135000	      2812	80002838	00000013	addi	x0,x0,0	  x0:0x00000000
       28145000	      2813	8000283c	00fa3433	sltu	x8,x20,x15	 x20:0x488fb804 x15:0x00000000  x8=0x00000000
       28155000	      2814	80002840	00006933	or	x18,x0,x0	  x0:0x00000000  x0:0x00000000 x18=0x00000000
       28165000	      2815	80002844	55d4c693	xori	x13,x9,1373	  x9:0x00000010 x13=0x0000054d
       28175000	      2816	80002848	fe7b3cb7	lui	x25,0xfe7b3	 x25=0xfe7b3000
       28185000	      2817	8000284c	00259fb3	sll	x31,x11,x2	 x11:0x04fac000  x2:0x000005e2 x31=0x13eb0000
       28195000	      2818	80002850	0154cb33	xor	x22,x9,x21	  x9:0x00000010 x21:0x00000001 x22=0x00000011
       28205000	      2819	80002854	00120213	addi	x4,x4,1	  x4:0x00000002  x4=0x00000003
       28215000	      2820	80002858	eb746613	ori	x12,x8,-329	  x8:0x00000000 x12=0xfffffeb7
       28225000	      2821	8000285c	ffd00293	addi	x5,x0,-3	  x0:0x00000000  x5=0xfffffffd
       28235000	      2822	80002860	00000013	addi	x0,x0,0	  x0:0x00000000
       28245000	      2823	80002864	ff300513	addi	x10,x0,-13	  x0:0x00000000 x10=0xfffffff3
       28255000	      2824	80002868	7345c993	xori	x19,x11,1844	 x11:0x04fac000 x19=0x04fac734
       28265000	      2825	8000286c	0171e333	or	x6,x3,x23	  x3:0x04fac734 x23:0x80009fc4  x6=0x84fadff4
       28275000	      2826	80002870	ff628293	addi	x5,x5,-10	  x5:0xfffffffd  x5=0xfffffff3
       28285000	      2827	80002874	f13df793	andi	x15,x27,-237	 x27:0x00000000 x15=0x00000000
       28295000	      2828	80002878	004e9493	slli	x9,x29,0x4	 x29:0x00000001  x9=0x00000010
       28305000	      2829	8000287c	fea288e3	beq	x5,x10,8000286c	  x5:0xfffffff3 x10:0xfffffff3
       28315000	      2830	00000000	00000013	addi	x0,x0,0	  x0:0x00000000
       28325000	      2831	80002868	00000013	addi	x0,x0,0	  x0:0x00000000
       28335000	      2832	8000286c	0171e333	or	x6,x3,x23	  x3:0x04fac734 x23:0x80009fc4  x6=0x84fadff4
       28345000	      2833	80002870	ff628293	addi	x5,x5,-10	  x5:0xfffffff3  x5=0xffffffe9
       28355000	      2834	80002874	f13df793	andi	x15,x27,-237	 x27:0x00000000 x15=0x00000000
       28365000	      2835	80002878	004e9493	slli	x9,x29,0x4	 x29:0x00000001  x9=0x00000010
       28375000	      2836	8000287c	fea288e3	beq	x5,x10,8000286c	  x5:0xffffffe9 x10:0xfffffff3
       28385000	      2837	80002880	414257b3	sra	x15,x4,x20	  x4:0x00000003 x20:0x488fb804 x15=0x00000000
       28395000	      2838	80002884	01b0e1b3	or	x3,x1,x27	  x1:0x00000000 x27:0x00000000  x3=0x00000000
       28405000	      2839	80002888	00dbd913	srli	x18,x23,0xd	 x23:0x80009fc4 x18=0x00040004
       28415000	      2840	8000288c	0108f733	and	x14,x17,x16	 x17:0x1eb94000 x16:0x00000004 x14=0x00000000
       28425000	      2841	80002890	40f981b3	sub	x3,x19,x15	 x19:0x04fac734 x15:0x00000000  x3=0x04fac734
       28435000	      2842	80002894	5e270113	addi	x2,x14,1506	 x14:0x00000000  x2=0x000005e2
       28445000	      2843	80002898	00000013	addi	x0,x0,0	  x0:0x00000000
       28455000	      2844	8000289c	7237a693	slti	x13,x15,1827	 x15:0x00000000 x13=0x00000001
       28465000	      2845	800028a0	f9024ee3	blt	x4,x16,8000283c	  x4:0x00000003 x16:0x00000004
       28475000	      2846	00000000	00000013	addi	x0,x0,0	  x0:0x00000000
       28485000	      2847	80002838	00000013	addi	x0,x0,0	  x0:0x00000000
       28495000	      2848	8000283c	00fa3433	sltu	x8,x20,x15	 x20:0x488fb804 x15:0x00000000  x8=0x00000000
       28505000	      2849	80002840	00006933	or	x18,x0,x0	  x0:0x00000000  x0:0x00000000 x18=0x00000000
       28515000	      2850	80002844	55d4c693	xori	x13,x9,1373	  x9:0x00000010 x13=0x0000054d
       28525000	      2851	80002848	fe7b3cb7	lui	x25,0xfe7b3	 x25=0xfe7b3000
       28535000	      2852	8000284c	00259fb3	sll	x31,x11,x2	 x11:0x04fac000  x2:0x000005e2 x31=0x13eb0000
       28545000	      2853	80002850	0154cb33	xor	x22,x9,x21	  x9:0x00000010 x21:0x00000001 x22=0x00000011
       28555000	      2854	80002854	00120213	addi	x4,x4,1	  x4:0x00000003  x4=0x00000004
       28565000	      2855	80002858	eb746613	ori	x12,x8,-329	  x8:0x00000000 x12=0xfffffeb7
       28575000	      2856	8000285c	ffd00293	addi	x5,x0,-3	  x0:0x00000000  x5=0xfffffffd
       28585000	      2857	80002860	00000013	addi	x0,x0,0	  x0:0x00000000
       28595000	      2858	80002864	ff300513	addi	x10,x0,-13	  x0:0x00000000 x10=0xfffffff3
       28605000	      2859	80002868	7345c993	xori	x19,x11,1844	 x11:0x04fac000 x19=0x04fac734
       28615000	      2860	8000286c	0171e333	or	x6,x3,x23	  x3:0x04fac734 x23:0x80009fc4  x6=0x84fadff4
       28625000	      2861	80002870	ff628293	addi	x5,x5,-10	  x5:0xfffffffd  x5=0xfffffff3
       28635000	      2862	80002874	f13df793	andi	x15,x27,-237	 x27:0x00000000 x15=0x00000000
       28645000	      2863	80002878	004e9493	slli	x9,x29,0x4	 x29:0x00000001  x9=0x00000010
       28655000	      2864	8000287c	fea288e3	beq	x5,x10,8000286c	  x5:0xfffffff3 x10:0xfffffff3
       28665000	      2865	00000000	00000013	addi	x0,x0,0	  x0:0x00000000
       28675000	      2866	80002868	00000013	addi	x0,x0,0	  x0:0x00000000
       28685000	      2867	8000286c	0171e333	or	x6,x3,x23	  x3:0x04fac734 x23:0x80009fc4  x6=0x84fadff4
       28695000	      2868	80002870	ff628293	addi	x5,x5,-10	  x5:0xfffffff3  x5=0xffffffe9
       28705000	      2869	80002874	f13df793	andi	x15,x27,-237	 x27:0x00000000 x15=0x00000000
       28715000	      2870	80002878	004e9493	slli	x9,x29,0x4	 x29:0x00000001  x9=0x00000010
       28725000	      2871	8000287c	fea288e3	beq	x5,x10,8000286c	  x5:0xffffffe9 x10:0xfffffff3
       28735000	      2872	80002880	414257b3	sra	x15,x4,x20	  x4:0x00000004 x20:0x488fb804 x15=0x00000000
       28745000	      2873	80002884	01b0e1b3	or	x3,x1,x27	  x1:0x00000000 x27:0x00000000  x3=0x00000000
       28755000	      2874	80002888	00dbd913	srli	x18,x23,0xd	 x23:0x80009fc4 x18=0x00040004
       28765000	      2875	8000288c	0108f733	and	x14,x17,x16	 x17:0x1eb94000 x16:0x00000004 x14=0x00000000
       28775000	      2876	80002890	40f981b3	sub	x3,x19,x15	 x19:0x04fac734 x15:0x00000000  x3=0x04fac734
       28785000	      2877	80002894	5e270113	addi	x2,x14,1506	 x14:0x00000000  x2=0x000005e2
       28795000	      2878	80002898	00000013	addi	x0,x0,0	  x0:0x00000000
       28805000	      2879	8000289c	7237a693	slti	x13,x15,1827	 x15:0x00000000 x13=0x00000001
       28815000	      2880	800028a0	f9024ee3	blt	x4,x16,8000283c	  x4:0x00000004 x16:0x00000004
       28825000	      2881	800028a4	00000013	addi	x0,x0,0	  x0:0x00000000
       28835000	      2882	800028a8	ff800713	addi	x14,x0,-8	  x0:0x00000000 x14=0xfffffff8
       28845000	      2883	800028ac	00892433	slt	x8,x18,x8	 x18:0x00040004  x8:0x00000000  x8=0x00000000
       28855000	      2884	800028b0	fef00f93	addi	x31,x0,-17	  x0:0x00000000 x31=0xffffffef
       28865000	      2885	800028b4	0009ccb3	xor	x25,x19,x0	 x19:0x04fac734  x0:0x00000000 x25=0x04fac734
       28875000	      2886	800028b8	0097d213	srli	x4,x15,0x9	 x15:0x00000000  x4=0x00000000
       28885000	      2887	800028bc	01ecb433	sltu	x8,x25,x30	 x25:0x04fac734 x30:0x80009f58  x8=0x00000001
       28895000	      2888	800028c0	00000013	addi	x0,x0,0	  x0:0x00000000
       28905000	      2889	800028c4	c26d1a37	lui	x20,0xc26d1	 x20=0xc26d1000
       28915000	      2890	800028c8	0014de93	srli	x29,x9,0x1	  x9:0x00000010 x29=0x00000008
       28925000	      2891	800028cc	007fe4b3	or	x9,x31,x7	 x31:0xffffffef  x7:0x91dc35ca  x9=0xffffffef
       28935000	      2892	800028d0	00f371b3	and	x3,x6,x15	  x6:0x84fadff4 x15:0x00000000  x3=0x00000000
       28945000	      2893	800028d4	c53ce213	ori	x4,x25,-941	 x25:0x04fac734  x4=0xffffff77
       28955000	      2894	800028d8	00549793	slli	x15,x9,0x5	  x9:0xffffffef x15=0xfffffde0
       28965000	      2895	800028dc	ffd70713	addi	x14,x14,-3	 x14:0xfffffff8 x14=0xfffffff5
       28975000	      2896	800028e0	01dc9613	slli	x12,x25,0x1d	 x25:0x04fac734 x12=0x80000000
       28985000	      2897	800028e4	0f4e2293	slti	x5,x28,244	 x28:0x80009f58  x5=0x00000001
       28995000	      2898	800028e8	01145b13	srli	x22,x8,0x11	  x8:0x00000001 x22=0x00000000
       29005000	      2899	800028ec	fff714e3	bne	x14,x31,800028d4	 x14:0xfffffff5 x31:0xffffffef
       29015000	      2900	00000000	00000013	addi	x0,x0,0	  x0:0x00000000
       29025000	      2901	800028d0	00000013	addi	x0,x0,0	  x0:0x00000000
       29035000	      2902	800028d4	c53ce213	ori	x4,x25,-941	 x25:0x04fac734  x4=0xffffff77
       29045000	      2903	800028d8	00549793	slli	x15,x9,0x5	  x9:0xffffffef x15=0xfffffde0
       29055000	      2904	800028dc	ffd70713	addi	x14,x14,-3	 x14:0xfffffff5 x14=0xfffffff2
       29065000	      2905	800028e0	01dc9613	slli	x12,x25,0x1d	 x25:0x04fac734 x12=0x80000000
       29075000	      2906	800028e4	0f4e2293	slti	x5,x28,244	 x28:0x80009f58  x5=0x00000001
       29085000	      2907	800028e8	01145b13	srli	x22,x8,0x11	  x8:0x00000001 x22=0x00000000
       29095000	      2908	800028ec	fff714e3	bne	x14,x31,800028d4	 x14:0xfffffff2 x31:0xffffffef
       29105000	      2909	00000000	00000013	addi	x0,x0,0	  x0:0x00000000
       29115000	      2910	800028d0	00000013	addi	x0,x0,0	  x0:0x00000000
       29125000	      2911	800028d4	c53ce213	ori	x4,x25,-941	 x25:0x04fac734  x4=0xffffff77
       29135000	      2912	800028d8	00549793	slli	x15,x9,0x5	  x9:0xffffffef x15=0xfffffde0
       29145000	      2913	800028dc	ffd70713	addi	x14,x14,-3	 x14:0xfffffff2 x14=0xffffffef
       29155000	      2914	800028e0	01dc9613	slli	x12,x25,0x1d	 x25:0x04fac734 x12=0x80000000
       29165000	      2915	800028e4	0f4e2293	slti	x5,x28,244	 x28:0x80009f58  x5=0x00000001
       29175000	      2916	800028e8	01145b13	srli	x22,x8,0x11	  x8:0x00000001 x22=0x00000000
       29185000	      2917	800028ec	fff714e3	bne	x14,x31,800028d4	 x14:0xffffffef x31:0xffffffef
       29195000	      2918	800028f0	00759533	sll	x10,x11,x7	 x11:0x04fac000  x7:0x91dc35ca x10=0xeb000000
       29205000	      2919	800028f4	cb616693	ori	x13,x2,-842	  x2:0x000005e2 x13=0xfffffdf6
       29215000	      2920	800028f8	2dec8f93	addi	x31,x25,734	 x25:0x04fac734 x31=0x04faca12
       29225000	      2921	800028fc	00549c63	bne	x9,x5,80002914	  x9:0xffffffef  x5:0x00000001
       29235000	      2922	00000000	00000013	addi	x0,x0,0	  x0:0x00000000
       29245000	      2923	80002910	00000013	addi	x0,x0,0	  x0:0x00000000
       29255000	      2924	80002914	0076fe63	bgeu	x13,x7,80002930	 x13:0xfffffdf6  x7:0x91dc35ca
       29265000	      2925	00000000	00000013	addi	x0,x0,0	  x0:0x00000000
       29275000	      2926	8000292c	00000013	addi	x0,x0,0	  x0:0x00000000
       29285000	      2927	80002930	01241b33	sll	x22,x8,x18	  x8:0x00000001 x18:0x00040004 x22=0x00000010
       29295000	      2928	80002934	f42c0693	addi	x13,x24,-190	 x24:0x00000000 x13=0xffffff42
       29305000	      2929	80002938	01459d93	slli	x27,x11,0x14	 x11:0x04fac000 x27=0x00000000
       29315000	      2930	8000293c	02df5663	bge	x30,x13,80002968	 x30:0x80009f58 x13:0xffffff42
       29325000	      2931	80002940	8f027d93	andi	x27,x4,-1808	  x4:0xffffff77 x27=0xfffff870
       29335000	      2932	80002944	4b72e613	ori	x12,x5,1207	  x5:0x00000001 x12=0x000004b7
       29345000	      2933	80002948	40c8dab3	sra	x21,x17,x12	 x17:0x1eb94000 x12:0x000004b7 x21=0x0000003d
       29355000	      2934	8000294c	41865793	srai	x15,x12,0x18	 x12:0x000004b7 x15=0x00000000
       29365000	      2935	80002950	0164d7b3	srl	x15,x9,x22	  x9:0xffffffef x22:0x00000010 x15=0x0000ffff
       29375000	      2936	80002954	026f1063	bne	x30,x6,80002974	 x30:0x80009f58  x6:0x84fadff4
       29385000	      2937	00000000	00000013	addi	x0,x0,0	  x0:0x00000000
       29395000	      2938	80002970	00000013	addi	x0,x0,0	  x0:0x00000000
       29405000	      2939	80002974	40b65f93	srai	x31,x12,0xb	 x12:0x000004b7 x31=0x00000000
       29415000	      2940	80002978	009ff663	bgeu	x31,x9,80002984	 x31:0x00000000  x9:0xffffffef
       29425000	      2941	8000297c	05516463	bltu	x2,x21,800029c4	  x2:0x000005e2 x21:0x0000003d
       29435000	      2942	80002980	015ddf93	srli	x31,x27,0x15	 x27:0xfffff870 x31=0x000007ff
       29445000	      2943	80002984	00cdafb3	slt	x31,x27,x12	 x27:0xfffff870 x12:0x000004b7 x31=0x00000001
       29455000	      2944	80002988	019fe433	or	x8,x31,x25	 x31:0x00000001 x25:0x04fac734  x8=0x04fac735
       29465000	      2945	8000298c	00d1dc63	bge	x3,x13,800029a4	  x3:0x00000000 x13:0xffffff42
       29475000	      2946	00000000	00000013	addi	x0,x0,0	  x0:0x00000000
       29485000	      2947	800029a0	00000013	addi	x0,x0,0	  x0:0x00000000
       29495000	      2948	800029a4	00689213	slli	x4,x17,0x6	 x17:0x1eb94000  x4=0xae500000
       29505000	      2949	800029a8	4194d913	srai	x18,x9,0x19	  x9:0xffffffef x18=0xffffffff
       29515000	      2950	800029ac	d4be4593	xori	x11,x28,-693	 x28:0x80009f58 x11=0x7fff6213
       29525000	      2951	800029b0	0063b6b3	sltu	x13,x7,x6	  x7:0x91dc35ca  x6:0x84fadff4 x13=0x00000000
       29535000	      2952	800029b4	05fdd863	bge	x27,x31,80002a04	 x27:0xfffff870 x31:0x00000001
       29545000	      2953	800029b8	0009c863	blt	x19,x0,800029c8	 x19:0x04fac734  x0:0x00000000
       29555000	      2954	800029bc	03d1d263	bge	x3,x29,800029e0	  x3:0x00000000 x29:0x00000008
       29565000	      2955	800029c0	005b7c33	and	x24,x22,x5	 x22:0x00000010  x5:0x00000001 x24=0x00000000
       29575000	      2956	800029c4	0183f863	bgeu	x7,x24,800029d4	  x7:0x91dc35ca x24:0x00000000
       29585000	      2957	00000000	00000013	addi	x0,x0,0	  x0:0x00000000
       29595000	      2958	800029d0	00000013	addi	x0,x0,0	  x0:0x00000000
       29605000	      2959	800029d4	019c5c63	bge	x24,x25,800029ec	 x24:0x00000000 x25:0x04fac734
       29615000	      2960	800029d8	0074d913	srli	x18,x9,0x7	  x9:0xffffffef x18=0x01ffffff
       29625000	      2961	800029dc	011a9a13	slli	x20,x21,0x11	 x21:0x0000003d x20=0x007a0000
       29635000	      2962	800029e0	00d2ec63	bltu	x5,x13,800029f8	  x5:0x00000001 x13:0x00000000
       29645000	      2963	800029e4	00b0b4b3	sltu	x9,x1,x11	  x1:0x00000000 x11:0x7fff6213  x9=0x00000001
       29655000	      2964	800029e8	41155cb3	sra	x25,x10,x17	 x10:0xeb000000 x17:0x1eb94000 x25=0xeb000000
       29665000	      2965	800029ec	1c326e97	auipc	x29,0x1c326	 x29=0x9c3289e8
       29675000	      2966	800029f0	be458897	auipc	x17,0xbe458	 x17=0x3e45a9ec
       29685000	      2967	800029f4	01b47433	and	x8,x8,x27	  x8:0x04fac735 x27:0xfffff870  x8=0x04fac030
       29695000	      2968	800029f8	011c9993	slli	x19,x25,0x11	 x25:0xeb000000 x19=0x00000000
       29705000	      2969	800029fc	69387f93	andi	x31,x16,1683	 x16:0x00000004 x31=0x00000000
       29715000	      2970	80002a00	012a1833	sll	x16,x20,x18	 x20:0x007a0000 x18:0x01ffffff x16=0x00000000
       29725000	      2971	80002a04	40c2d813	srai	x16,x5,0xc	  x5:0x00000001 x16=0x00000000
       29735000	      2972	80002a08	00000013	addi	x0,x0,0	  x0:0x00000000
       29745000	      2973	80002a0c	001626b3	slt	x13,x12,x1	 x12:0x000004b7  x1:0x00000000 x13=0x00000000
       29755000	      2974	80002a10	02438a63	beq	x7,x4,80002a44	  x7:0x91dc35ca  x4:0xae500000
       29765000	      2975	80002a14	02c2fc63	bgeu	x5,x12,80002a4c	  x5:0x00000001 x12:0x000004b7
       29775000	      2976	80002a18	00000013	addi	x0,x0,0	  x0:0x00000000
       29785000	      2977	80002a1c	0198bd33	sltu	x26,x17,x25	 x17:0x3e45a9ec x25:0xeb000000 x26=0x00000001
       29795000	      2978	80002a20	00da4263	blt	x20,x13,80002a24	 x20:0x007a0000 x13:0x00000000
       29805000	      2979	80002a24	412f5293	srai	x5,x30,0x12	 x30:0x80009f58  x5=0xffffe000
       29815000	      2980	80002a28	00a8cab3	xor	x21,x17,x10	 x17:0x3e45a9ec x10:0xeb000000 x21=0xd545a9ec
       29825000	      2981	80002a2c	c0f52513	slti	x10,x10,-1009	 x10:0xeb000000 x10=0x00000001
       29835000	      2982	80002a30	8ab50513	addi	x10,x10,-1877	 x10:0x00000001 x10=0xfffff8ac
       29845000	      2983	80002a34	002802b3	add	x5,x16,x2	 x16:0x00000000  x2:0x000005e2  x5=0x000005e2
       29855000	      2984	80002a38	00363633	sltu	x12,x12,x3	 x12:0x000004b7  x3:0x00000000 x12=0x00000000
       29865000	      2985	80002a3c	04ab9663	bne	x23,x10,80002a88	 x23:0x80009fc4 x10:0xfffff8ac
       29875000	      2986	00000000	00000013	addi	x0,x0,0	  x0:0x00000000
       29885000	      2987	80002a84	00000013	addi	x0,x0,0	  x0:0x00000000
       29895000	      2988	80002a88	00a49ab3	sll	x21,x9,x10	  x9:0x00000001 x10:0xfffff8ac x21=0x00001000
       29905000	      2989	80002a8c	2867e613	ori	x12,x15,646	 x15:0x0000ffff x12=0x0000ffff
       29915000	      2990	80002a90	41cf50b3	sra	x1,x30,x28	 x30:0x80009f58 x28:0x80009f58  x1=0xffffff80
       29925000	      2991	80002a94	3735cb13	xori	x22,x11,883	 x11:0x7fff6213 x22=0x7fff6160
       29935000	      2992	80002a98	7436ce93	xori	x29,x13,1859	 x13:0x00000000 x29=0x00000743
       29945000	      2993	80002a9c	0211e063	bltu	x3,x1,80002abc	  x3:0x00000000  x1:0xffffff80
       29955000	      2994	00000000	00000013	addi	x0,x0,0	  x0:0x00000000
       29965000	      2995	80002ab8	00000013	addi	x0,x0,0	  x0:0x00000000
       29975000	      2996	80002abc	01d05613	srli	x12,x0,0x1d	  x0:0x00000000 x12=0x00000000
       29985000	      2997	80002ac0	82128113	addi	x2,x5,-2015	  x5:0x000005e2  x2=0xfffffe03
       29995000	      2998	80002ac4	011cfcb3	and	x25,x25,x17	 x25:0xeb000000 x17:0x3e45a9ec x25=0x2a000000
       30005000	      2999	80002ac8	00c98a33	add	x20,x19,x12	 x19:0x00000000 x12:0x00000000 x20=0x00000000
       30015000	      3000	80002acc	8d098a13	addi	x20,x19,-1840	 x19:0x00000000 x20=0xfffff8d0
       30025000	      3001	80002ad0	74ae2b13	slti	x22,x28,1866	 x28:0x80009f58 x22=0x00000001
       30035000	      3002	80002ad4	01d74c33	xor	x24,x14,x29	 x14:0xffffffef x29:0x00000743 x24=0xfffff8ac
       30045000	      3003	80002ad8	00ca1c13	slli	x24,x20,0xc	 x20:0xfffff8d0 x24=0xff8d0000
       30055000	      3004	80002adc	c4906893	ori	x17,x0,-951	  x0:0x00000000 x17=0xfffffc49
       30065000	      3005	80002ae0	008d5d93	srli	x27,x26,0x8	 x26:0x00000001 x27=0x00000000
       30075000	      3006	80002ae4	020bfe63	bgeu	x23,x0,80002b20	 x23:0x80009fc4  x0:0x00000000
       30085000	      3007	00000000	00000013	addi	x0,x0,0	  x0:0x00000000
       30095000	      3008	80002b1c	00000013	addi	x0,x0,0	  x0:0x00000000
       30105000	      3009	80002b20	f839e493	ori	x9,x19,-125	 x19:0x00000000  x9=0xffffff83
       30115000	      3010	80002b24	015ed313	srli	x6,x29,0x15	 x29:0x00000743  x6=0x00000000
       30125000	      3011	80002b28	01010eb3	add	x29,x2,x16	  x2:0xfffffe03 x16:0x00000000 x29=0xfffffe03
       30135000	      3012	80002b2c	033d8063	beq	x27,x19,80002b4c	 x27:0x00000000 x19:0x00000000
       30145000	      3013	00000000	00000013	addi	x0,x0,0	  x0:0x00000000
       30155000	      3014	80002b48	00000013	addi	x0,x0,0	  x0:0x00000000
       30165000	      3015	80002b4c	b418b613	sltiu	x12,x17,-1215	 x17:0xfffffc49 x12=0x00000000
       30175000	      3016	80002b50	00000013	addi	x0,x0,0	  x0:0x00000000
       30185000	      3017	80002b54	005c1b13	slli	x22,x24,0x5	 x24:0xff8d0000 x22=0xf1a00000
       30195000	      3018	80002b58	015c4663	blt	x24,x21,80002b64	 x24:0xff8d0000 x21:0x00001000
       30205000	      3019	00000000	00000013	addi	x0,x0,0	  x0:0x00000000
       30215000	      3020	80002b60	00000013	addi	x0,x0,0	  x0:0x00000000
       30225000	      3021	80002b64	405859b3	sra	x19,x16,x5	 x16:0x00000000  x5:0x000005e2 x19=0x00000000
       30235000	      3022	80002b68	8589b693	sltiu	x13,x19,-1960	 x19:0x00000000 x13=0x00000001
       30245000	      3023	80002b6c	65c36993	ori	x19,x6,1628	  x6:0x00000000 x19=0x0000065c
       30255000	      3024	80002b70	00e35493	srli	x9,x6,0xe	  x6:0x00000000  x9=0x00000000
       30265000	      3025	80002b74	003bd133	srl	x2,x23,x3	 x23:0x80009fc4  x3:0x00000000  x2=0x80009fc4
       30275000	      3026	80002b78	fc8bb113	sltiu	x2,x23,-56	 x23:0x80009fc4  x2=0x00000001
       30285000	      3027	80002b7c	00000013	addi	x0,x0,0	  x0:0x00000000
       30295000	      3028	80002b80	00944833	xor	x16,x8,x9	  x8:0x04fac030  x9:0x00000000 x16=0x04fac030
       30305000	      3029	80002b84	01879693	slli	x13,x15,0x18	 x15:0x0000ffff x13=0xff000000
       30315000	      3030	80002b88	35096013	ori	x0,x18,848	 x18:0x01ffffff
       30325000	      3031	80002b8c	49adc093	xori	x1,x27,1178	 x27:0x00000000  x1=0x0000049a
       30335000	      3032	80002b90	8de97613	andi	x12,x18,-1826	 x18:0x01ffffff x12=0x01fff8de
       30345000	      3033	80002b94	0047d133	srl	x2,x15,x4	 x15:0x0000ffff  x4:0xae500000  x2=0x0000ffff
       30355000	      3034	80002b98	00bd3933	sltu	x18,x26,x11	 x26:0x00000001 x11:0x7fff6213 x18=0x00000001
       30365000	      3035	80002b9c	0183c733	xor	x14,x7,x24	  x7:0x91dc35ca x24:0xff8d0000 x14=0x6e5135ca
       30375000	      3036	80002ba0	41b30cb3	sub	x25,x6,x27	  x6:0x00000000 x27:0x00000000 x25=0x00000000
       30385000	      3037	80002ba4	00610033	add	x0,x2,x6	  x2:0x0000ffff  x6:0x00000000
       30395000	      3038	80002ba8	40175d13	srai	x26,x14,0x1	 x14:0x6e5135ca x26=0x37289ae5
       30405000	      3039	80002bac	0080c333	xor	x6,x1,x8	  x1:0x0000049a  x8:0x04fac030  x6=0x04fac4aa
       30415000	      3040	80002bb0	041a6463	bltu	x20,x1,80002bf8	 x20:0xfffff8d0  x1:0x0000049a
       30425000	      3041	80002bb4	a450c313	xori	x6,x1,-1467	  x1:0x0000049a  x6=0xfffffedf
       30435000	      3042	80002bb8	03c61663	bne	x12,x28,80002be4	 x12:0x01fff8de x28:0x80009f58
       30445000	      3043	00000000	00000013	addi	x0,x0,0	  x0:0x00000000
       30455000	      3044	80002be0	00000013	addi	x0,x0,0	  x0:0x00000000
       30465000	      3045	80002be4	07166493	ori	x9,x12,113	 x12:0x01fff8de  x9=0x01fff8ff
       30475000	      3046	80002be8	40c48733	sub	x14,x9,x12	  x9:0x01fff8ff x12:0x01fff8de x14=0x00000021
       30485000	      3047	80002bec	014f8033	add	x0,x31,x20	 x31:0x00000000 x20:0xfffff8d0
       30495000	      3048	80002bf0	417f5933	sra	x18,x30,x23	 x30:0x80009f58 x23:0x80009fc4 x18=0xf80009f5
       30505000	      3049	80002bf4	0131deb3	srl	x29,x3,x19	  x3:0x00000000 x19:0x0000065c x29=0x00000000
       30515000	      3050	80002bf8	01eef033	and	x0,x29,x30	 x29:0x00000000 x30:0x80009f58
       30525000	      3051	80002bfc	00c0cc63	blt	x1,x12,80002c14	  x1:0x0000049a x12:0x01fff8de
       30535000	      3052	00000000	00000013	addi	x0,x0,0	  x0:0x00000000
       30545000	      3053	80002c10	00000013	addi	x0,x0,0	  x0:0x00000000
       30555000	      3054	80002c14	bea8fe13	andi	x28,x17,-1046	 x17:0xfffffc49 x28=0xfffff848
       30565000	      3055	80002c18	3fe37f93	andi	x31,x6,1022	  x6:0xfffffedf x31=0x000002de
       30575000	      3056	80002c1c	01b04a63	blt	x0,x27,80002c30	  x0:0x00000000 x27:0x00000000
       30585000	      3057	80002c20	4076d333	sra	x6,x13,x7	 x13:0xff000000  x7:0x91dc35ca  x6=0xffffc000
       30595000	      3058	80002c24	41280333	sub	x6,x16,x18	 x16:0x04fac030 x18:0xf80009f5  x6=0x0cfab63b
       30605000	      3059	80002c28	411350b3	sra	x1,x6,x17	  x6:0x0cfab63b x17:0xfffffc49  x1=0x00067d5b
       30615000	      3060	80002c2c	01dd9813	slli	x16,x27,0x1d	 x27:0x00000000 x16=0x00000000
       30625000	      3061	80002c30	01387a63	bgeu	x16,x19,80002c44	 x16:0x00000000 x19:0x0000065c
       30635000	      3062	80002c34	00375c33	srl	x24,x14,x3	 x14:0x00000021  x3:0x00000000 x24=0x00000021
       30645000	      3063	80002c38	88cf3513	sltiu	x10,x30,-1908	 x30:0x80009f58 x10=0x00000001
       30655000	      3064	80002c3c	010e1733	sll	x14,x28,x16	 x28:0xfffff848 x16:0x00000000 x14=0xfffff848
       30665000	      3065	80002c40	3606ea13	ori	x20,x13,864	 x13:0xff000000 x20=0xff000360
       30675000	      3066	80002c44	71d53913	sltiu	x18,x10,1821	 x10:0x00000001 x18=0x00000001
       30685000	      3067	80002c48	9d3a4113	xori	x2,x20,-1581	 x20:0xff000360  x2=0x00fffab3
       30695000	      3068	80002c4c	007277b3	and	x15,x4,x7	  x4:0xae500000  x7:0x91dc35ca x15=0x80500000
       30705000	      3069	80002c50	40ea07b3	sub	x15,x20,x14	 x20:0xff000360 x14:0xfffff848 x15=0xff000b18
       30715000	      3070	80002c54	01a04b33	xor	x22,x0,x26	  x0:0x00000000 x26:0x37289ae5 x22=0x37289ae5
       30725000	      3071	80002c58	04fb7863	bgeu	x22,x15,80002ca8	 x22:0x37289ae5 x15:0xff000b18
       30735000	      3072	80002c5c	64c27617	auipc	x12,0x64c27	 x12=0xe4c29c58
       30745000	      3073	80002c60	b62f6937	lui	x18,0xb62f6	 x18=0xb62f6000
       30755000	      3074	80002c64	01965333	srl	x6,x12,x25	 x12:0xe4c29c58 x25:0x00000000  x6=0xe4c29c58
       30765000	      3075	80002c68	01bca933	slt	x18,x25,x27	 x25:0x00000000 x27:0x00000000 x18=0x00000000
       30775000	      3076	80002c6c	406b5a93	srai	x21,x22,0x6	 x22:0x37289ae5 x21=0x00dca26b
       30785000	      3077	80002c70	016f8333	add	x6,x31,x22	 x31:0x000002de x22:0x37289ae5  x6=0x37289dc3
       30795000	      3078	80002c74	053e4063	blt	x28,x19,80002cb4	 x28:0xfffff848 x19:0x0000065c
       30805000	      3079	00000000	00000013	addi	x0,x0,0	  x0:0x00000000
       30815000	      3080	80002cb0	00000013	addi	x0,x0,0	  x0:0x00000000
       30825000	      3081	80002cb4	00000013	addi	x0,x0,0	  x0:0x00000000
       30835000	      3082	80002cb8	000e8933	add	x18,x29,x0	 x29:0x00000000  x0:0x00000000 x18=0x00000000
       30845000	      3083	80002cbc	40b70133	sub	x2,x14,x11	 x14:0xfffff848 x11:0x7fff6213  x2=0x80009635
       30855000	      3084	80002cc0	3d4bb093	sltiu	x1,x23,980	 x23:0x80009fc4  x1=0x00000000
       30865000	      3085	80002cc4	498f8513	addi	x10,x31,1176	 x31:0x000002de x10=0x00000776
       30875000	      3086	80002cc8	56e34893	xori	x17,x6,1390	  x6:0x37289dc3 x17=0x372898ad
       30885000	      3087	80002ccc	010c1293	slli	x5,x24,0x10	 x24:0x00000021  x5=0x00210000
       30895000	      3088	80002cd0	01fae833	or	x16,x21,x31	 x21:0x00dca26b x31:0x000002de x16=0x00dca2ff
       30905000	      3089	80002cd4	3b20ac13	slti	x24,x1,946	  x1:0x00000000 x24=0x00000001
       30915000	      3090	80002cd8	015d9593	slli	x11,x27,0x15	 x27:0x00000000 x11=0x00000000
       30925000	      3091	80002cdc	5fae8593	addi	x11,x29,1530	 x29:0x00000000 x11=0x000005fa
       30935000	      3092	80002ce0	0184d493	srli	x9,x9,0x18	  x9:0x01fff8ff  x9=0x00000001
       30945000	      3093	80002ce4	01387a63	bgeu	x16,x19,80002cf8	 x16:0x00dca2ff x19:0x0000065c
       30955000	      3094	00000000	00000013	addi	x0,x0,0	  x0:0x00000000
       30965000	      3095	80002cf4	00000013	addi	x0,x0,0	  x0:0x00000000
       30975000	      3096	80002cf8	91d40617	auipc	x12,0x91d40	 x12=0x11d42cf4
       30985000	      3097	80002cfc	010db233	sltu	x4,x27,x16	 x27:0x00000000 x16:0x00dca2ff  x4=0x00000001
       30995000	      3098	80002d00	00c1b333	sltu	x6,x3,x12	  x3:0x00000000 x12:0x11d42cf4  x6=0x00000001
       31005000	      3099	80002d04	017bf8b3	and	x17,x23,x23	 x23:0x80009fc4 x23:0x80009fc4 x17=0x80009fc4
       31015000	      3100	80002d08	ba54e693	ori	x13,x9,-1115	  x9:0x00000001 x13=0xfffffba5
       31025000	      3101	80002d0c	0074cc63	blt	x9,x7,80002d24	  x9:0x00000001  x7:0x91dc35ca
       31035000	      3102	80002d10	5573c013	xori	x0,x7,1367	  x7:0x91dc35ca
       31045000	      3103	80002d14	01db1c63	bne	x22,x29,80002d2c	 x22:0x37289ae5 x29:0x00000000
       31055000	      3104	00000000	00000013	addi	x0,x0,0	  x0:0x00000000
       31065000	      3105	80002d28	00000013	addi	x0,x0,0	  x0:0x00000000
       31075000	      3106	80002d2c	05526263	bltu	x4,x21,80002d70	  x4:0x00000001 x21:0x00dca26b
       31085000	      3107	00000000	00000013	addi	x0,x0,0	  x0:0x00000000
       31095000	      3108	80002d6c	00000013	addi	x0,x0,0	  x0:0x00000000
       31105000	      3109	80002d70	01471a13	slli	x20,x14,0x14	 x14:0xfffff848 x20=0x84800000
       31115000	      3110	80002d74	00501c63	bne	x0,x5,80002d8c	  x0:0x00000000  x5:0x00210000
       31125000	      3111	00000000	00000013	addi	x0,x0,0	  x0:0x00000000
       31135000	      3112	80002d88	00000013	addi	x0,x0,0	  x0:0x00000000
       31145000	      3113	80002d8c	01aa8863	beq	x21,x26,80002d9c	 x21:0x00dca26b x26:0x37289ae5
       31155000	      3114	80002d90	01bdc4b3	xor	x9,x27,x27	 x27:0x00000000 x27:0x00000000  x9=0x00000000
       31165000	      3115	80002d94	0081cc63	blt	x3,x8,80002dac	  x3:0x00000000  x8:0x04fac030
       31175000	      3116	00000000	00000013	addi	x0,x0,0	  x0:0x00000000
       31185000	      3117	80002da8	00000013	addi	x0,x0,0	  x0:0x00000000
       31195000	      3118	80002dac	01c8ce33	xor	x28,x17,x28	 x17:0x80009fc4 x28:0xfffff848 x28=0x7fff678c
       31205000	      3119	80002db0	01c51213	slli	x4,x10,0x1c	 x10:0x00000776  x4=0x60000000
       31215000	      3120	80002db4	03b55863	bge	x10,x27,80002de4	 x10:0x00000776 x27:0x00000000
       31225000	      3121	00000000	00000013	addi	x0,x0,0	  x0:0x00000000
       31235000	      3122	80002de0	00000013	addi	x0,x0,0	  x0:0x00000000
       31245000	      3123	80002de4	c3c2f693	andi	x13,x5,-964	  x5:0x00210000 x13=0x00210000
       31255000	      3124	80002de8	03717063	bgeu	x2,x23,80002e08	  x2:0x80009635 x23:0x80009fc4
       31265000	      3125	80002dec	cccc5517	auipc	x10,0xcccc5	 x10=0x4ccc7de8
       31275000	      3126	80002df0	005238b3	sltu	x17,x4,x5	  x4:0x60000000  x5:0x00210000 x17=0x00000000
       31285000	      3127	80002df4	00000013	addi	x0,x0,0	  x0:0x00000000
       31295000	      3128	80002df8	01569813	slli	x16,x13,0x15	 x13:0x00210000 x16=0x00000000
       31305000	      3129	80002dfc	193fe113	ori	x2,x31,403	 x31:0x000002de  x2=0x000003df
       31315000	      3130	80002e00	00e79b33	sll	x22,x15,x14	 x15:0xff000b18 x14:0xfffff848 x22=0x000b1800
       31325000	      3131	80002e04	0115f533	and	x10,x11,x17	 x11:0x000005fa x17:0x00000000 x10=0x00000000
       31335000	      3132	80002e08	00b26c33	or	x24,x4,x11	  x4:0x60000000 x11:0x000005fa x24=0x600005fa
       31345000	      3133	80002e0c	01e60433	add	x8,x12,x30	 x12:0x11d42cf4 x30:0x80009f58  x8=0x91d4cc4c
       31355000	      3134	80002e10	71ba4a97	auipc	x21,0x71ba4	 x21=0xf1ba6e0c
       31365000	      3135	80002e14	abecb513	sltiu	x10,x25,-1346	 x25:0x00000000 x10=0x00000001
       31375000	      3136	80002e18	41b557b3	sra	x15,x10,x27	 x10:0x00000001 x27:0x00000000 x15=0x00000001
       31385000	      3137	80002e1c	dab82e93	slti	x29,x16,-597	 x16:0x00000000 x29=0x00000000
       31395000	      3138	80002e20	fcf52193	slti	x3,x10,-49	 x10:0x00000001  x3=0x00000000
       31405000	      3139	80002e24	05484663	blt	x16,x20,80002e70	 x16:0x00000000 x20:0x84800000
       31415000	      3140	80002e28	40e6d733	sra	x14,x13,x14	 x13:0x00210000 x14:0xfffff848 x14=0x00002100
       31425000	      3141	80002e2c	30b2a013	slti	x0,x5,779	  x5:0x00210000
       31435000	      3142	80002e30	949799b7	lui	x19,0x94979	 x19=0x94979000
       31445000	      3143	80002e34	013d7233	and	x4,x26,x19	 x26:0x37289ae5 x19:0x94979000  x4=0x14009000
       31455000	      3144	80002e38	18d06813	ori	x16,x0,397	  x0:0x00000000 x16=0x0000018d
       31465000	      3145	80002e3c	4156d613	srai	x12,x13,0x15	 x13:0x00210000 x12=0x00000001
       31475000	      3146	80002e40	01084ab3	xor	x21,x16,x16	 x16:0x0000018d x16:0x0000018d x21=0x00000000
       31485000	      3147	80002e44	01f066b3	or	x13,x0,x31	  x0:0x00000000 x31:0x000002de x13=0x000002de
       31495000	      3148	80002e48	033cf663	bgeu	x25,x19,80002e74	 x25:0x00000000 x19:0x94979000
       31505000	      3149	80002e4c	92ebd5b7	lui	x11,0x92ebd	 x11=0x92ebd000
       31515000	      3150	80002e50	eca68c93	addi	x25,x13,-310	 x13:0x000002de x25=0x000001a8
       31525000	      3151	80002e54	ffac3437	lui	x8,0xffac3	  x8=0xffac3000
       31535000	      3152	80002e58	41acd613	srai	x12,x25,0x1a	 x25:0x000001a8 x12=0x00000000
       31545000	      3153	80002e5c	00132d33	slt	x26,x6,x1	  x6:0x00000001  x1:0x00000000 x26=0x00000000
       31555000	      3154	80002e60	7307ce13	xori	x28,x15,1840	 x15:0x00000001 x28=0x00000731
       31565000	      3155	80002e64	019efb33	and	x22,x29,x25	 x29:0x00000000 x25:0x000001a8 x22=0x00000000
       31575000	      3156	80002e68	02308063	beq	x1,x3,80002e88	  x1:0x00000000  x3:0x00000000
       31585000	      3157	00000000	00000013	addi	x0,x0,0	  x0:0x00000000
       31595000	      3158	80002e84	00000013	addi	x0,x0,0	  x0:0x00000000
       31605000	      3159	80002e88	00440c33	add	x24,x8,x4	  x8:0xffac3000  x4:0x14009000 x24=0x13acc000
       31615000	      3160	80002e8c	01e69d13	slli	x26,x13,0x1e	 x13:0x000002de x26=0x80000000
       31625000	      3161	80002e90	408cdd33	sra	x26,x25,x8	 x25:0x000001a8  x8:0xffac3000 x26=0x000001a8
       31635000	      3162	80002e94	002e91b3	sll	x3,x29,x2	 x29:0x00000000  x2:0x000003df  x3=0x00000000
       31645000	      3163	80002e98	09aba493	slti	x9,x23,154	 x23:0x80009fc4  x9=0x00000001
       31655000	      3164	80002e9c	00236d33	or	x26,x6,x2	  x6:0x00000001  x2:0x000003df x26=0x000003df
       31665000	      3165	80002ea0	004f2983	lw	x19,4(x30)	 x30:0x80009f58 x19=0x800014f8 PA:0x80009f5c
       31675000	      3166	80002ea4	010ee333	or	x6,x29,x16	 x29:0x00000000 x16:0x0000018d  x6=0x0000018d
       31685000	      3167	80002ea8	4186d513	srai	x10,x13,0x18	 x13:0x000002de x10=0x00000000
       31695000	      3168	80002eac	020f0f13	addi	x30,x30,32	 x30:0x80009f58 x30=0x80009f78
       31705000	      3169	80002eb0	74267793	andi	x15,x12,1858	 x12:0x00000000 x15=0x00000000
       31715000	      3170	80002eb4	01b2da13	srli	x20,x5,0x1b	  x5:0x00210000 x20=0x00000000
       31725000	      3171	80002eb8	00198113	addi	x2,x19,1	 x19:0x800014f8  x2=0x800014f9
       31735000	      3172	80002ebc	00010167	jalr	x2,x2,0	  x2:0x800014f9  x2=0x80002ebc
       31745000	      3173	00000000	00000013	addi	x0,x0,0	  x0:0x00000000
       31755000	      3174	800014f8	00000013	addi	x0,x0,0	  x0:0x00000000
       31765000	      3175	800014fc	013a7d33	and	x26,x20,x19	 x20:0x00000000 x19:0x800014f8 x26=0x00000000
       31775000	      3176	80001500	e849e337	lui	x6,0xe849e	  x6=0xe849e000
       31785000	      3177	80001504	03b3fc63	bgeu	x7,x27,8000153c	  x7:0x91dc35ca x27:0x00000000
       31795000	      3178	00000000	00000013	addi	x0,x0,0	  x0:0x00000000
       31805000	      3179	80001538	00000013	addi	x0,x0,0	  x0:0x00000000
       31815000	      3180	8000153c	00a89793	slli	x15,x17,0xa	 x17:0x00000000 x15=0x00000000
       31825000	      3181	80001540	0279e263	bltu	x19,x7,80001564	 x19:0x800014f8  x7:0x91dc35ca
       31835000	      3182	00000000	00000013	addi	x0,x0,0	  x0:0x00000000
       31845000	      3183	80001560	00000013	addi	x0,x0,0	  x0:0x00000000
       31855000	      3184	80001564	89c0e893	ori	x17,x1,-1892	  x1:0x00000000 x17=0xfffff89c
       31865000	      3185	80001568	00691a63	bne	x18,x6,8000157c	 x18:0x00000000  x6:0xe849e000
       31875000	      3186	00000000	00000013	addi	x0,x0,0	  x0:0x00000000
       31885000	      3187	80001578	00000013	addi	x0,x0,0	  x0:0x00000000
       31895000	      3188	8000157c	046c5463	bge	x24,x6,800015c4	 x24:0x13acc000  x6:0xe849e000
       31905000	      3189	00000000	00000013	addi	x0,x0,0	  x0:0x00000000
       31915000	      3190	800015c0	00000013	addi	x0,x0,0	  x0:0x00000000
       31925000	      3191	800015c4	084e38b7	lui	x17,0x84e3	 x17=0x084e3000
       31935000	      3192	800015c8	07886463	bltu	x16,x24,80001630	 x16:0x0000018d x24:0x13acc000
       31945000	      3193	00000000	00000013	addi	x0,x0,0	  x0:0x00000000
       31955000	      3194	8000162c	00000013	addi	x0,x0,0	  x0:0x00000000
       31965000	      3195	80001630	00379093	slli	x1,x15,0x3	 x15:0x00000000  x1=0x00000000
       31975000	      3196	80001634	60550893	addi	x17,x10,1541	 x10:0x00000000 x17=0x00000605
       31985000	      3197	80001638	fd107d93	andi	x27,x0,-47	  x0:0x00000000 x27=0x00000000
       31995000	      3198	8000163c	0168fb33	and	x22,x17,x22	 x17:0x00000605 x22:0x00000000 x22=0x00000000
       32005000	      3199	80001640	006687b3	add	x15,x13,x6	 x13:0x000002de  x6:0xe849e000 x15=0xe849e2de
       32015000	      3200	80001644	00000013	addi	x0,x0,0	  x0:0x00000000
       32025000	      3201	80001648	00c06533	or	x10,x0,x12	  x0:0x00000000 x12:0x00000000 x10=0x00000000
       32035000	      3202	8000164c	00000013	addi	x0,x0,0	  x0:0x00000000
       32045000	      3203	80001650	8bffa897	auipc	x17,0x8bffa	 x17=0x0bffb64c
       32055000	      3204	80001654	41025a13	srai	x20,x4,0x10	  x4:0x14009000 x20=0x00001400
       32065000	      3205	80001658	0365de63	bge	x11,x22,80001694	 x11:0x92ebd000 x22:0x00000000
       32075000	      3206	8000165c	0071f733	and	x14,x3,x7	  x3:0x00000000  x7:0x91dc35ca x14=0x00000000
       32085000	      3207	80001660	df3ea113	slti	x2,x29,-525	 x29:0x00000000  x2=0x00000000
       32095000	      3208	80001664	4107da93	srai	x21,x15,0x10	 x15:0xe849e2de x21=0xffffe849
       32105000	      3209	80001668	01519333	sll	x6,x3,x21	  x3:0x00000000 x21:0xffffe849  x6=0x00000000
       32115000	      3210	8000166c	009b17b3	sll	x15,x22,x9	 x22:0x00000000  x9:0x00000001 x15=0x00000000
       32125000	      3211	80001670	7135aa93	slti	x21,x11,1811	 x11:0x92ebd000 x21=0x00000001
       32135000	      3212	80001674	7c49cc93	xori	x25,x19,1988	 x19:0x800014f8 x25=0x8000133c
       32145000	      3213	80001678	407e5813	srai	x16,x28,0x7	 x28:0x00000731 x16=0x0000000e
       32155000	      3214	8000167c	002f4c63	blt	x30,x2,80001694	 x30:0x80009f78  x2:0x00000000
       32165000	      3215	00000000	00000013	addi	x0,x0,0	  x0:0x00000000
       32175000	      3216	80001690	00000013	addi	x0,x0,0	  x0:0x00000000
       32185000	      3217	80001694	01fc9663	bne	x25,x31,800016a0	 x25:0x8000133c x31:0x000002de
       32195000	      3218	00000000	00000013	addi	x0,x0,0	  x0:0x00000000
       32205000	      3219	8000169c	00000013	addi	x0,x0,0	  x0:0x00000000
       32215000	      3220	800016a0	d3853e93	sltiu	x29,x10,-712	 x10:0x00000000 x29=0x00000001
       32225000	      3221	800016a4	047e4263	blt	x28,x7,800016e8	 x28:0x00000731  x7:0x91dc35ca
       32235000	      3222	800016a8	033b7c63	bgeu	x22,x19,800016e0	 x22:0x00000000 x19:0x800014f8
       32245000	      3223	800016ac	00f39533	sll	x10,x7,x15	  x7:0x91dc35ca x15:0x00000000 x10=0x91dc35ca
       32255000	      3224	800016b0	01b368b3	or	x17,x6,x27	  x6:0x00000000 x27:0x00000000 x17=0x00000000
       32265000	      3225	800016b4	40278fb3	sub	x31,x15,x2	 x15:0x00000000  x2:0x00000000 x31=0x00000000
       32275000	      3226	800016b8	00000013	addi	x0,x0,0	  x0:0x00000000
       32285000	      3227	800016bc	52e82c93	slti	x25,x16,1326	 x16:0x0000000e x25=0x00000001
       32295000	      3228	800016c0	83d79537	lui	x10,0x83d79	 x10=0x83d79000
       32305000	      3229	800016c4	013639b3	sltu	x19,x12,x19	 x12:0x00000000 x19:0x800014f8 x19=0x00000001
       32315000	      3230	800016c8	01d1eb33	or	x22,x3,x29	  x3:0x00000000 x29:0x00000001 x22=0x00000001
       32325000	      3231	800016cc	63918f93	addi	x31,x3,1593	  x3:0x00000000 x31=0x00000639
       32335000	      3232	800016d0	00721fb3	sll	x31,x4,x7	  x4:0x14009000  x7:0x91dc35ca x31=0x02400000
       32345000	      3233	800016d4	00863233	sltu	x4,x12,x8	 x12:0x00000000  x8:0xffac3000  x4=0x00000001
       32355000	      3234	800016d8	00d3e2b3	or	x5,x7,x13	  x7:0x91dc35ca x13:0x000002de  x5=0x91dc37de
       32365000	      3235	800016dc	00000013	addi	x0,x0,0	  x0:0x00000000
       32375000	      3236	800016e0	41710333	sub	x6,x2,x23	  x2:0x00000000 x23:0x80009fc4  x6=0x7fff603c
       32385000	      3237	800016e4	01742c93	slti	x25,x8,23	  x8:0xffac3000 x25=0x00000001
       32395000	      3238	800016e8	41e28ab3	sub	x21,x5,x30	  x5:0x91dc37de x30:0x80009f78 x21=0x11db9866
       32405000	      3239	800016ec	d6170713	addi	x14,x14,-671	 x14:0x00000000 x14=0xfffffd61
       32415000	      3240	800016f0	d06c3213	sltiu	x4,x24,-762	 x24:0x13acc000  x4=0x00000001
       32425000	      3241	800016f4	41b182b3	sub	x5,x3,x27	  x3:0x00000000 x27:0x00000000  x5=0x00000000
       32435000	      3242	800016f8	02c24e63	blt	x4,x12,80001734	  x4:0x00000001 x12:0x00000000
       32445000	      3243	800016fc	6e0e4a13	xori	x20,x28,1760	 x28:0x00000731 x20=0x000001d1
       32455000	      3244	80001700	002735b3	sltu	x11,x14,x2	 x14:0xfffffd61  x2:0x00000000 x11=0x00000000
       32465000	      3245	80001704	5ded8693	addi	x13,x27,1502	 x27:0x00000000 x13=0x000005de
       32475000	      3246	80001708	02730463	beq	x6,x7,80001730	  x6:0x7fff603c  x7:0x91dc35ca
       32485000	      3247	8000170c	0032dfb3	srl	x31,x5,x3	  x5:0x00000000  x3:0x00000000 x31=0x00000000
       32495000	      3248	80001710	c5406a13	ori	x20,x0,-940	  x0:0x00000000 x20=0xfffffc54
       32505000	      3249	80001714	05761663	bne	x12,x23,80001760	 x12:0x00000000 x23:0x80009fc4
       32515000	      3250	00000000	00000013	addi	x0,x0,0	  x0:0x00000000
       32525000	      3251	8000175c	00000013	addi	x0,x0,0	  x0:0x00000000
       32535000	      3252	80001760	72817693	andi	x13,x2,1832	  x2:0x00000000 x13=0x00000000
       32545000	      3253	80001764	51e4a913	slti	x18,x9,1310	  x9:0x00000001 x18=0x00000001
       32555000	      3254	80001768	400b5013	srai	x0,x22,0x0	 x22:0x00000001
       32565000	      3255	8000176c	00dccb33	xor	x22,x25,x13	 x25:0x00000001 x13:0x00000000 x22=0x00000001
       32575000	      3256	80001770	156550b7	lui	x1,0x15655	  x1=0x15655000
       32585000	      3257	80001774	0497f263	bgeu	x15,x9,800017b8	 x15:0x00000000  x9:0x00000001
       32595000	      3258	80001778	01aece63	blt	x29,x26,80001794	 x29:0x00000001 x26:0x00000000
       32605000	      3259	8000177c	14e96e93	ori	x29,x18,334	 x18:0x00000001 x29=0x0000014f
       32615000	      3260	80001780	005d6263	bltu	x26,x5,80001784	 x26:0x00000000  x5:0x00000000
       32625000	      3261	80001784	7c5bf913	andi	x18,x23,1989	 x23:0x80009fc4 x18=0x000007c4
       32635000	      3262	80001788	031acc63	blt	x21,x17,800017c0	 x21:0x11db9866 x17:0x00000000
       32645000	      3263	8000178c	401d8b33	sub	x22,x27,x1	 x27:0x00000000  x1:0x15655000 x22=0xea9ab000
       32655000	      3264	80001790	00e41613	slli	x12,x8,0xe	  x8:0xffac3000 x12=0x0c000000
       32665000	      3265	80001794	b8ed01b7	lui	x3,0xb8ed0	  x3=0xb8ed0000
       32675000	      3266	80001798	019e5913	srli	x18,x28,0x19	 x28:0x00000731 x18=0x00000000
       32685000	      3267	8000179c	01696663	bltu	x18,x22,800017a8	 x18:0x00000000 x22:0xea9ab000
       32695000	      3268	00000000	00000013	addi	x0,x0,0	  x0:0x00000000
       32705000	      3269	800017a4	00000013	addi	x0,x0,0	  x0:0x00000000
       32715000	      3270	800017a8	a5212337	lui	x6,0xa5212	  x6=0xa5212000
       32725000	      3271	800017ac	02b6f063	bgeu	x13,x11,800017cc	 x13:0x00000000 x11:0x00000000
       32735000	      3272	00000000	00000013	addi	x0,x0,0	  x0:0x00000000
       32745000	      3273	800017c8	00000013	addi	x0,x0,0	  x0:0x00000000
       32755000	      3274	800017cc	41d45593	srai	x11,x8,0x1d	  x8:0xffac3000 x11=0xffffffff
       32765000	      3275	800017d0	f8893513	sltiu	x10,x18,-120	 x18:0x00000000 x10=0x00000001
       32775000	      3276	800017d4	078f6463	bltu	x30,x24,8000183c	 x30:0x80009f78 x24:0x13acc000
       32785000	      3277	800017d8	06c44863	blt	x8,x12,80001848	  x8:0xffac3000 x12:0x0c000000
       32795000	      3278	00000000	00000013	addi	x0,x0,0	  x0:0x00000000
       32805000	      3279	80001844	00000013	addi	x0,x0,0	  x0:0x00000000
       32815000	      3280	80001848	b8eec493	xori	x9,x29,-1138	 x29:0x0000014f  x9=0xfffffac1
       32825000	      3281	8000184c	41510db3	sub	x27,x2,x21	  x2:0x00000000 x21:0x11db9866 x27=0xee24679a
       32835000	      3282	80001850	3defae13	slti	x28,x31,990	 x31:0x00000000 x28=0x00000001
       32845000	      3283	80001854	880e7093	andi	x1,x28,-1920	 x28:0x00000001  x1=0x00000000
       32855000	      3284	80001858	0067d333	srl	x6,x15,x6	 x15:0x00000000  x6:0xa5212000  x6=0x00000000
       32865000	      3285	8000185c	01b539b3	sltu	x19,x10,x27	 x10:0x00000001 x27:0xee24679a x19=0x00000001
       32875000	      3286	80001860	00d3c233	xor	x4,x7,x13	  x7:0x91dc35ca x13:0x00000000  x4=0x91dc35ca
       32885000	      3287	80001864	83090f93	addi	x31,x18,-2000	 x18:0x00000000 x31=0xfffff830
       32895000	      3288	80001868	01d81a93	slli	x21,x16,0x1d	 x16:0x0000000e x21=0xc0000000
       32905000	      3289	8000186c	019e1793	slli	x15,x28,0x19	 x28:0x00000001 x15=0x02000000
       32915000	      3290	80001870	40aa01b3	sub	x3,x20,x10	 x20:0xfffffc54 x10:0x00000001  x3=0xfffffc53
       32925000	      3291	80001874	05685263	bge	x16,x22,800018b8	 x16:0x0000000e x22:0xea9ab000
       32935000	      3292	00000000	00000013	addi	x0,x0,0	  x0:0x00000000
       32945000	      3293	800018b4	00000013	addi	x0,x0,0	  x0:0x00000000
       32955000	      3294	800018b8	03817263	bgeu	x2,x24,800018dc	  x2:0x00000000 x24:0x13acc000
       32965000	      3295	800018bc	b86c6293	ori	x5,x24,-1146	 x24:0x13acc000  x5=0xfffffb86
       32975000	      3296	800018c0	004c9113	slli	x2,x25,0x4	 x25:0x00000001  x2=0x00000010
       32985000	      3297	800018c4	495d2b37	lui	x22,0x495d2	 x22=0x495d2000
       32995000	      3298	800018c8	01db4233	xor	x4,x22,x29	 x22:0x495d2000 x29:0x0000014f  x4=0x495d214f
       33005000	      3299	800018cc	4a0dd717	auipc	x14,0x4a0dd	 x14=0xca0de8c8
       33015000	      3300	800018d0	004474b3	and	x9,x8,x4	  x8:0xffac3000  x4:0x495d214f  x9=0x490c2000
       33025000	      3301	800018d4	00b3e433	or	x8,x7,x11	  x7:0x91dc35ca x11:0xffffffff  x8=0xffffffff
       33035000	      3302	800018d8	01eed993	srli	x19,x29,0x1e	 x29:0x0000014f x19=0x00000000
       33045000	      3303	800018dc	410850b3	sra	x1,x16,x16	 x16:0x0000000e x16:0x0000000e  x1=0x00000000
       33055000	      3304	800018e0	006a08b3	add	x17,x20,x6	 x20:0xfffffc54  x6:0x00000000 x17=0xfffffc54
       33065000	      3305	800018e4	0229fe63	bgeu	x19,x2,80001920	 x19:0x00000000  x2:0x00000010
       33075000	      3306	800018e8	0155a533	slt	x10,x11,x21	 x11:0xffffffff x21:0xc0000000 x10=0x00000000
       33085000	      3307	800018ec	01b81193	slli	x3,x16,0x1b	 x16:0x0000000e  x3=0x70000000
       33095000	      3308	800018f0	00a70e33	add	x28,x14,x10	 x14:0xca0de8c8 x10:0x00000000 x28=0xca0de8c8
       33105000	      3309	800018f4	40a15933	sra	x18,x2,x10	  x2:0x00000010 x10:0x00000000 x18=0x00000010
       33115000	      3310	800018f8	41b35733	sra	x14,x6,x27	  x6:0x00000000 x27:0xee24679a x14=0x00000000
       33125000	      3311	800018fc	26adb037	lui	x0,0x26adb	
       33135000	      3312	80001900	001439b3	sltu	x19,x8,x1	  x8:0xffffffff  x1:0x00000000 x19=0x00000000
       33145000	      3313	80001904	027b7c63	bgeu	x22,x7,8000193c	 x22:0x495d2000  x7:0x91dc35ca
       33155000	      3314	80001908	01099833	sll	x16,x19,x16	 x19:0x00000000 x16:0x0000000e x16=0x00000000
       33165000	      3315	8000190c	03f6cc63	blt	x13,x31,80001944	 x13:0x00000000 x31:0xfffff830
       33175000	      3316	80001910	f705acb7	lui	x25,0xf705a	 x25=0xf705a000
       33185000	      3317	80001914	8efb7613	andi	x12,x22,-1809	 x22:0x495d2000 x12=0x495d2000
       33195000	      3318	80001918	99cb2d93	slti	x27,x22,-1636	 x22:0x495d2000 x27=0x00000000
       33205000	      3319	8000191c	005d2ab3	slt	x21,x26,x5	 x26:0x00000000  x5:0xfffffb86 x21=0x00000000
       33215000	      3320	80001920	00000013	addi	x0,x0,0	  x0:0x00000000
       33225000	      3321	80001924	58f32237	lui	x4,0x58f32	  x4=0x58f32000
       33235000	      3322	80001928	002ec133	xor	x2,x29,x2	 x29:0x0000014f  x2:0x00000010  x2=0x0000015f
       33245000	      3323	8000192c	01f56db3	or	x27,x10,x31	 x10:0x00000000 x31:0xfffff830 x27=0xfffff830
       33255000	      3324	80001930	03367a63	bgeu	x12,x19,80001964	 x12:0x495d2000 x19:0x00000000
       33265000	      3325	00000000	00000013	addi	x0,x0,0	  x0:0x00000000
       33275000	      3326	80001960	00000013	addi	x0,x0,0	  x0:0x00000000
       33285000	      3327	80001964	027dea63	bltu	x27,x7,80001998	 x27:0xfffff830  x7:0x91dc35ca
       33295000	      3328	80001968	41925693	srai	x13,x4,0x19	  x4:0x58f32000 x13=0x0000002c
       33305000	      3329	8000196c	532d3993	sltiu	x19,x26,1330	 x26:0x00000000 x19=0x00000001
       33315000	      3330	80001970	54128113	addi	x2,x5,1345	  x5:0xfffffb86  x2=0x000000c7
       33325000	      3331	80001974	403652b3	sra	x5,x12,x3	 x12:0x495d2000  x3:0x70000000  x5=0x495d2000
       33335000	      3332	80001978	02917c63	bgeu	x2,x9,800019b0	  x2:0x000000c7  x9:0x490c2000
       33345000	      3333	8000197c	0007deb3	srl	x29,x15,x0	 x15:0x02000000  x0:0x00000000 x29=0x02000000
       33355000	      3334	80001980	01059793	slli	x15,x11,0x10	 x11:0xffffffff x15=0xffff0000
       33365000	      3335	80001984	01d71713	slli	x14,x14,0x1d	 x14:0x00000000 x14=0x00000000
       33375000	      3336	80001988	3dbde813	ori	x16,x27,987	 x27:0xfffff830 x16=0xfffffbfb
       33385000	      3337	8000198c	41d5dc93	srai	x25,x11,0x1d	 x11:0xffffffff x25=0xffffffff
       33395000	      3338	80001990	005ecd93	xori	x27,x29,5	 x29:0x02000000 x27=0x02000005
       33405000	      3339	80001994	00000013	addi	x0,x0,0	  x0:0x00000000
       33415000	      3340	80001998	5fb86313	ori	x6,x16,1531	 x16:0xfffffbfb  x6=0xfffffffb
       33425000	      3341	8000199c	df3f2e13	slti	x28,x30,-525	 x30:0x80009f78 x28=0x00000001
       33435000	      3342	800019a0	026cd463	bge	x25,x6,800019c8	 x25:0xffffffff  x6:0xfffffffb
       33445000	      3343	00000000	00000013	addi	x0,x0,0	  x0:0x00000000
       33455000	      3344	800019c4	00000013	addi	x0,x0,0	  x0:0x00000000
       33465000	      3345	800019c8	4ac28ab7	lui	x21,0x4ac28	 x21=0x4ac28000
       33475000	      3346	800019cc	419d57b3	sra	x15,x26,x25	 x26:0x00000000 x25:0xffffffff x15=0x00000000
       33485000	      3347	800019d0	0164de33	srl	x28,x9,x22	  x9:0x490c2000 x22:0x495d2000 x28=0x490c2000
       33495000	      3348	800019d4	c67186b7	lui	x13,0xc6718	 x13=0xc6718000
       33505000	      3349	800019d8	000b9c63	bne	x23,x0,800019f0	 x23:0x80009fc4  x0:0x00000000
       33515000	      3350	00000000	00000013	addi	x0,x0,0	  x0:0x00000000
       33525000	      3351	800019ec	00000013	addi	x0,x0,0	  x0:0x00000000
       33535000	      3352	800019f0	0078fb33	and	x22,x17,x7	 x17:0xfffffc54  x7:0x91dc35ca x22=0x91dc3440
       33545000	      3353	800019f4	40e35033	sra	x0,x6,x14	  x6:0xfffffffb x14:0x00000000
       33555000	      3354	800019f8	71ac6f93	ori	x31,x24,1818	 x24:0x13acc000 x31=0x13acc71a
       33565000	      3355	800019fc	72462d93	slti	x27,x12,1828	 x12:0x495d2000 x27=0x00000000
       33575000	      3356	80001a00	40dc5833	sra	x16,x24,x13	 x24:0x13acc000 x13:0xc6718000 x16=0x13acc000
       33585000	      3357	80001a04	ffc00893	addi	x17,x0,-4	  x0:0x00000000 x17=0xfffffffc
       33595000	      3358	80001a08	00c26633	or	x12,x4,x12	  x4:0x58f32000 x12:0x495d2000 x12=0x59ff2000
       33605000	      3359	80001a0c	37fb2693	slti	x13,x22,895	 x22:0x91dc3440 x13=0x00000001
       33615000	      3360	80001a10	01300913	addi	x18,x0,19	  x0:0x00000000 x18=0x00000013
       33625000	      3361	80001a14	01488033	add	x0,x17,x20	 x17:0xfffffffc x20:0xfffffc54
       33635000	      3362	80001a18	00b554b3	srl	x9,x10,x11	 x10:0x00000000 x11:0xffffffff  x9=0x00000000
       33645000	      3363	80001a1c	01e74333	xor	x6,x14,x30	 x14:0x00000000 x30:0x80009f78  x6=0x80009f78
       33655000	      3364	80001a20	01c95a33	srl	x20,x18,x28	 x18:0x00000013 x28:0x490c2000 x20=0x00000013
       33665000	      3365	80001a24	00977533	and	x10,x14,x9	 x14:0x00000000  x9:0x00000000 x10=0x00000000
       33675000	      3366	80001a28	0121ea33	or	x20,x3,x18	  x3:0x70000000 x18:0x00000013 x20=0x70000013
       33685000	      3367	80001a2c	00000013	addi	x0,x0,0	  x0:0x00000000
       33695000	      3368	80001a30	00488893	addi	x17,x17,4	 x17:0xfffffffc x17=0x00000000
       33705000	      3369	80001a34	003225b3	slt	x11,x4,x3	  x4:0x58f32000  x3:0x70000000 x11=0x00000001
       33715000	      3370	80001a38	00800d13	addi	x26,x0,8	  x0:0x00000000 x26=0x00000008
       33725000	      3371	80001a3c	00ab7833	and	x16,x22,x10	 x22:0x91dc3440 x10:0x00000000 x16=0x00000000
       33735000	      3372	80001a40	00800713	addi	x14,x0,8	  x0:0x00000000 x14=0x00000008
       33745000	      3373	80001a44	0192b833	sltu	x16,x5,x25	  x5:0x495d2000 x25:0xffffffff x16=0x00000001
       33755000	      3374	80001a48	00000013	addi	x0,x0,0	  x0:0x00000000
       33765000	      3375	80001a4c	ff9d0d13	addi	x26,x26,-7	 x26:0x00000008 x26=0x00000001
       33775000	      3376	80001a50	1e230e93	addi	x29,x6,482	  x6:0x80009f78 x29=0x8000a15a
       33785000	      3377	80001a54	feed78e3	bgeu	x26,x14,80001a44	 x26:0x00000001 x14:0x00000008
       33795000	      3378	80001a58	db690217	auipc	x4,0xdb690	  x4=0x5b691a54
       33805000	      3379	80001a5c	40c98233	sub	x4,x19,x12	 x19:0x00000001 x12:0x59ff2000  x4=0xa600e001
       33815000	      3380	80001a60	47c9c813	xori	x16,x19,1148	 x19:0x00000001 x16=0x0000047d
       33825000	      3381	80001a64	fd28c4e3	blt	x17,x18,80001a2c	 x17:0x00000000 x18:0x00000013
       33835000	      3382	00000000	00000013	addi	x0,x0,0	  x0:0x00000000
       33845000	      3383	80001a28	00000013	addi	x0,x0,0	  x0:0x00000000
       33855000	      3384	80001a2c	00000013	addi	x0,x0,0	  x0:0x00000000
       33865000	      3385	80001a30	00488893	addi	x17,x17,4	 x17:0x00000000 x17=0x00000004
       33875000	      3386	80001a34	003225b3	slt	x11,x4,x3	  x4:0xa600e001  x3:0x70000000 x11=0x00000001
       33885000	      3387	80001a38	00800d13	addi	x26,x0,8	  x0:0x00000000 x26=0x00000008
       33895000	      3388	80001a3c	00ab7833	and	x16,x22,x10	 x22:0x91dc3440 x10:0x00000000 x16=0x00000000
       33905000	      3389	80001a40	00800713	addi	x14,x0,8	  x0:0x00000000 x14=0x00000008
       33915000	      3390	80001a44	0192b833	sltu	x16,x5,x25	  x5:0x495d2000 x25:0xffffffff x16=0x00000001
       33925000	      3391	80001a48	00000013	addi	x0,x0,0	  x0:0x00000000
       33935000	      3392	80001a4c	ff9d0d13	addi	x26,x26,-7	 x26:0x00000008 x26=0x00000001
       33945000	      3393	80001a50	1e230e93	addi	x29,x6,482	  x6:0x80009f78 x29=0x8000a15a
       33955000	      3394	80001a54	feed78e3	bgeu	x26,x14,80001a44	 x26:0x00000001 x14:0x00000008
       33965000	      3395	80001a58	db690217	auipc	x4,0xdb690	  x4=0x5b691a54
       33975000	      3396	80001a5c	40c98233	sub	x4,x19,x12	 x19:0x00000001 x12:0x59ff2000  x4=0xa600e001
       33985000	      3397	80001a60	47c9c813	xori	x16,x19,1148	 x19:0x00000001 x16=0x0000047d
       33995000	      3398	80001a64	fd28c4e3	blt	x17,x18,80001a2c	 x17:0x00000004 x18:0x00000013
       34005000	      3399	00000000	00000013	addi	x0,x0,0	  x0:0x00000000
       34015000	      3400	80001a28	00000013	addi	x0,x0,0	  x0:0x00000000
       34025000	      3401	80001a2c	00000013	addi	x0,x0,0	  x0:0x00000000
       34035000	      3402	80001a30	00488893	addi	x17,x17,4	 x17:0x00000004 x17=0x00000008
       34045000	      3403	80001a34	003225b3	slt	x11,x4,x3	  x4:0xa600e001  x3:0x70000000 x11=0x00000001
       34055000	      3404	80001a38	00800d13	addi	x26,x0,8	  x0:0x00000000 x26=0x00000008
       34065000	      3405	80001a3c	00ab7833	and	x16,x22,x10	 x22:0x91dc3440 x10:0x00000000 x16=0x00000000
       34075000	      3406	80001a40	00800713	addi	x14,x0,8	  x0:0x00000000 x14=0x00000008
       34085000	      3407	80001a44	0192b833	sltu	x16,x5,x25	  x5:0x495d2000 x25:0xffffffff x16=0x00000001
       34095000	      3408	80001a48	00000013	addi	x0,x0,0	  x0:0x00000000
       34105000	      3409	80001a4c	ff9d0d13	addi	x26,x26,-7	 x26:0x00000008 x26=0x00000001
       34115000	      3410	80001a50	1e230e93	addi	x29,x6,482	  x6:0x80009f78 x29=0x8000a15a
       34125000	      3411	80001a54	feed78e3	bgeu	x26,x14,80001a44	 x26:0x00000001 x14:0x00000008
       34135000	      3412	80001a58	db690217	auipc	x4,0xdb690	  x4=0x5b691a54
       34145000	      3413	80001a5c	40c98233	sub	x4,x19,x12	 x19:0x00000001 x12:0x59ff2000  x4=0xa600e001
       34155000	      3414	80001a60	47c9c813	xori	x16,x19,1148	 x19:0x00000001 x16=0x0000047d
       34165000	      3415	80001a64	fd28c4e3	blt	x17,x18,80001a2c	 x17:0x00000008 x18:0x00000013
       34175000	      3416	00000000	00000013	addi	x0,x0,0	  x0:0x00000000
       34185000	      3417	80001a28	00000013	addi	x0,x0,0	  x0:0x00000000
       34195000	      3418	80001a2c	00000013	addi	x0,x0,0	  x0:0x00000000
       34205000	      3419	80001a30	00488893	addi	x17,x17,4	 x17:0x00000008 x17=0x0000000c
       34215000	      3420	80001a34	003225b3	slt	x11,x4,x3	  x4:0xa600e001  x3:0x70000000 x11=0x00000001
       34225000	      3421	80001a38	00800d13	addi	x26,x0,8	  x0:0x00000000 x26=0x00000008
       34235000	      3422	80001a3c	00ab7833	and	x16,x22,x10	 x22:0x91dc3440 x10:0x00000000 x16=0x00000000
       34245000	      3423	80001a40	00800713	addi	x14,x0,8	  x0:0x00000000 x14=0x00000008
       34255000	      3424	80001a44	0192b833	sltu	x16,x5,x25	  x5:0x495d2000 x25:0xffffffff x16=0x00000001
       34265000	      3425	80001a48	00000013	addi	x0,x0,0	  x0:0x00000000
       34275000	      3426	80001a4c	ff9d0d13	addi	x26,x26,-7	 x26:0x00000008 x26=0x00000001
       34285000	      3427	80001a50	1e230e93	addi	x29,x6,482	  x6:0x80009f78 x29=0x8000a15a
       34295000	      3428	80001a54	feed78e3	bgeu	x26,x14,80001a44	 x26:0x00000001 x14:0x00000008
       34305000	      3429	80001a58	db690217	auipc	x4,0xdb690	  x4=0x5b691a54
       34315000	      3430	80001a5c	40c98233	sub	x4,x19,x12	 x19:0x00000001 x12:0x59ff2000  x4=0xa600e001
       34325000	      3431	80001a60	47c9c813	xori	x16,x19,1148	 x19:0x00000001 x16=0x0000047d
       34335000	      3432	80001a64	fd28c4e3	blt	x17,x18,80001a2c	 x17:0x0000000c x18:0x00000013
       34345000	      3433	00000000	00000013	addi	x0,x0,0	  x0:0x00000000
       34355000	      3434	80001a28	00000013	addi	x0,x0,0	  x0:0x00000000
       34365000	      3435	80001a2c	00000013	addi	x0,x0,0	  x0:0x00000000
       34375000	      3436	80001a30	00488893	addi	x17,x17,4	 x17:0x0000000c x17=0x00000010
       34385000	      3437	80001a34	003225b3	slt	x11,x4,x3	  x4:0xa600e001  x3:0x70000000 x11=0x00000001
       34395000	      3438	80001a38	00800d13	addi	x26,x0,8	  x0:0x00000000 x26=0x00000008
       34405000	      3439	80001a3c	00ab7833	and	x16,x22,x10	 x22:0x91dc3440 x10:0x00000000 x16=0x00000000
       34415000	      3440	80001a40	00800713	addi	x14,x0,8	  x0:0x00000000 x14=0x00000008
       34425000	      3441	80001a44	0192b833	sltu	x16,x5,x25	  x5:0x495d2000 x25:0xffffffff x16=0x00000001
       34435000	      3442	80001a48	00000013	addi	x0,x0,0	  x0:0x00000000
       34445000	      3443	80001a4c	ff9d0d13	addi	x26,x26,-7	 x26:0x00000008 x26=0x00000001
       34455000	      3444	80001a50	1e230e93	addi	x29,x6,482	  x6:0x80009f78 x29=0x8000a15a
       34465000	      3445	80001a54	feed78e3	bgeu	x26,x14,80001a44	 x26:0x00000001 x14:0x00000008
       34475000	      3446	80001a58	db690217	auipc	x4,0xdb690	  x4=0x5b691a54
       34485000	      3447	80001a5c	40c98233	sub	x4,x19,x12	 x19:0x00000001 x12:0x59ff2000  x4=0xa600e001
       34495000	      3448	80001a60	47c9c813	xori	x16,x19,1148	 x19:0x00000001 x16=0x0000047d
       34505000	      3449	80001a64	fd28c4e3	blt	x17,x18,80001a2c	 x17:0x00000010 x18:0x00000013
       34515000	      3450	00000000	00000013	addi	x0,x0,0	  x0:0x00000000
       34525000	      3451	80001a28	00000013	addi	x0,x0,0	  x0:0x00000000
       34535000	      3452	80001a2c	00000013	addi	x0,x0,0	  x0:0x00000000
       34545000	      3453	80001a30	00488893	addi	x17,x17,4	 x17:0x00000010 x17=0x00000014
       34555000	      3454	80001a34	003225b3	slt	x11,x4,x3	  x4:0xa600e001  x3:0x70000000 x11=0x00000001
       34565000	      3455	80001a38	00800d13	addi	x26,x0,8	  x0:0x00000000 x26=0x00000008
       34575000	      3456	80001a3c	00ab7833	and	x16,x22,x10	 x22:0x91dc3440 x10:0x00000000 x16=0x00000000
       34585000	      3457	80001a40	00800713	addi	x14,x0,8	  x0:0x00000000 x14=0x00000008
       34595000	      3458	80001a44	0192b833	sltu	x16,x5,x25	  x5:0x495d2000 x25:0xffffffff x16=0x00000001
       34605000	      3459	80001a48	00000013	addi	x0,x0,0	  x0:0x00000000
       34615000	      3460	80001a4c	ff9d0d13	addi	x26,x26,-7	 x26:0x00000008 x26=0x00000001
       34625000	      3461	80001a50	1e230e93	addi	x29,x6,482	  x6:0x80009f78 x29=0x8000a15a
       34635000	      3462	80001a54	feed78e3	bgeu	x26,x14,80001a44	 x26:0x00000001 x14:0x00000008
       34645000	      3463	80001a58	db690217	auipc	x4,0xdb690	  x4=0x5b691a54
       34655000	      3464	80001a5c	40c98233	sub	x4,x19,x12	 x19:0x00000001 x12:0x59ff2000  x4=0xa600e001
       34665000	      3465	80001a60	47c9c813	xori	x16,x19,1148	 x19:0x00000001 x16=0x0000047d
       34675000	      3466	80001a64	fd28c4e3	blt	x17,x18,80001a2c	 x17:0x00000014 x18:0x00000013
       34685000	      3467	80001a68	01e376b3	and	x13,x6,x30	  x6:0x80009f78 x30:0x80009f78 x13=0x80009f78
       34695000	      3468	80001a6c	007cce33	xor	x28,x25,x7	 x25:0xffffffff  x7:0x91dc35ca x28=0x6e23ca35
       34705000	      3469	80001a70	2fb74a93	xori	x21,x14,763	 x14:0x00000008 x21=0x000002f3
       34715000	      3470	80001a74	c7ed2893	slti	x17,x26,-898	 x26:0x00000001 x17=0x00000000
       34725000	      3471	80001a78	005f65b3	or	x11,x30,x5	 x30:0x80009f78  x5:0x495d2000 x11=0xc95dbf78
       34735000	      3472	80001a7c	056a1663	bne	x20,x22,80001ac8	 x20:0x70000013 x22:0x91dc3440
       34745000	      3473	00000000	00000013	addi	x0,x0,0	  x0:0x00000000
       34755000	      3474	80001ac4	00000013	addi	x0,x0,0	  x0:0x00000000
       34765000	      3475	80001ac8	413989b3	sub	x19,x19,x19	 x19:0x00000001 x19:0x00000001 x19=0x00000000
       34775000	      3476	80001acc	94b88a13	addi	x20,x17,-1717	 x17:0x00000000 x20=0xfffff94b
       34785000	      3477	80001ad0	01a69733	sll	x14,x13,x26	 x13:0x80009f78 x26:0x00000001 x14=0x00013ef0
       34795000	      3478	80001ad4	04be7463	bgeu	x28,x11,80001b1c	 x28:0x6e23ca35 x11:0xc95dbf78
       34805000	      3479	80001ad8	0151d893	srli	x17,x3,0x15	  x3:0x70000000 x17=0x00000380
       34815000	      3480	80001adc	02bd1263	bne	x26,x11,80001b00	 x26:0x00000001 x11:0xc95dbf78
       34825000	      3481	00000000	00000013	addi	x0,x0,0	  x0:0x00000000
       34835000	      3482	80001afc	00000013	addi	x0,x0,0	  x0:0x00000000
       34845000	      3483	80001b00	412c8a33	sub	x20,x25,x18	 x25:0xffffffff x18:0x00000013 x20=0xffffffec
       34855000	      3484	80001b04	01635193	srli	x3,x6,0x16	  x6:0x80009f78  x3=0x00000200
       34865000	      3485	80001b08	6c397097	auipc	x1,0x6c397	  x1=0xec398b04
       34875000	      3486	80001b0c	00903533	sltu	x10,x0,x9	  x0:0x00000000  x9:0x00000000 x10=0x00000000
       34885000	      3487	80001b10	fcfb72b7	lui	x5,0xfcfb7	  x5=0xfcfb7000
       34895000	      3488	80001b14	0001e663	bltu	x3,x0,80001b20	  x3:0x00000200  x0:0x00000000
       34905000	      3489	80001b18	398ca993	slti	x19,x25,920	 x25:0xffffffff x19=0x00000001
       34915000	      3490	80001b1c	05b86263	bltu	x16,x27,80001b60	 x16:0x0000047d x27:0x00000000
       34925000	      3491	80001b20	015a7233	and	x4,x20,x21	 x20:0xffffffec x21:0x000002f3  x4=0x000002e0
       34935000	      3492	80001b24	00000013	addi	x0,x0,0	  x0:0x00000000
       34945000	      3493	80001b28	fd200493	addi	x9,x0,-46	  x0:0x00000000  x9=0xffffffd2
       34955000	      3494	80001b2c	0120dd33	srl	x26,x1,x18	  x1:0xec398b04 x18:0x00000013 x26=0x00001d87
       34965000	      3495	80001b30	003dd593	srli	x11,x27,0x3	 x27:0x00000000 x11=0x00000000
       34975000	      3496	80001b34	400c0233	sub	x4,x24,x0	 x24:0x13acc000  x0:0x00000000  x4=0x13acc000
       34985000	      3497	80001b38	00d39633	sll	x12,x7,x13	  x7:0x91dc35ca x13:0x80009f78 x12=0xca000000
       34995000	      3498	80001b3c	41c250b3	sra	x1,x4,x28	  x4:0x13acc000 x28:0x6e23ca35  x1=0x0000009d
       35005000	      3499	80001b40	d4353ab7	lui	x21,0xd4353	 x21=0xd4353000
       35015000	      3500	80001b44	00100e33	add	x28,x0,x1	  x0:0x00000000  x1:0x0000009d x28=0x0000009d
       35025000	      3501	80001b48	0351ca63	blt	x3,x21,80001b7c	  x3:0x00000200 x21:0xd4353000
       35035000	      3502	80001b4c	04ab9863	bne	x23,x10,80001b9c	 x23:0x80009fc4 x10:0x00000000
       35045000	      3503	00000000	00000013	addi	x0,x0,0	  x0:0x00000000
       35055000	      3504	80001b98	00000013	addi	x0,x0,0	  x0:0x00000000
       35065000	      3505	80001b9c	02ced463	bge	x29,x12,80001bc4	 x29:0x8000a15a x12:0xca000000
       35075000	      3506	80001ba0	00870833	add	x16,x14,x8	 x14:0x00013ef0  x8:0xffffffff x16=0x00013eef
       35085000	      3507	80001ba4	e2b6f893	andi	x17,x13,-469	 x13:0x80009f78 x17=0x80009e28
       35095000	      3508	80001ba8	026cec63	bltu	x25,x6,80001be0	 x25:0xffffffff  x6:0x80009f78
       35105000	      3509	80001bac	9dbafc13	andi	x24,x21,-1573	 x21:0xd4353000 x24=0xd4353000
       35115000	      3510	80001bb0	01a037b3	sltu	x15,x0,x26	  x0:0x00000000 x26:0x00001d87 x15=0x00000001
       35125000	      3511	80001bb4	d1753993	sltiu	x19,x10,-745	 x10:0x00000000 x19=0x00000001
       35135000	      3512	80001bb8	0062b5b3	sltu	x11,x5,x6	  x5:0xfcfb7000  x6:0x80009f78 x11=0x00000000
       35145000	      3513	80001bbc	586def93	ori	x31,x27,1414	 x27:0x00000000 x31=0x00000586
       35155000	      3514	80001bc0	01489593	slli	x11,x17,0x14	 x17:0x80009e28 x11=0xe2800000
       35165000	      3515	80001bc4	04f77463	bgeu	x14,x15,80001c0c	 x14:0x00013ef0 x15:0x00000001
       35175000	      3516	00000000	00000013	addi	x0,x0,0	  x0:0x00000000
       35185000	      3517	80001c08	00000013	addi	x0,x0,0	  x0:0x00000000
       35195000	      3518	80001c0c	01c66c63	bltu	x12,x28,80001c24	 x12:0xca000000 x28:0x0000009d
       35205000	      3519	80001c10	00e49893	slli	x17,x9,0xe	  x9:0xffffffd2 x17=0xfff48000
       35215000	      3520	80001c14	02301e63	bne	x0,x3,80001c50	  x0:0x00000000  x3:0x00000200
       35225000	      3521	00000000	00000013	addi	x0,x0,0	  x0:0x00000000
       35235000	      3522	80001c4c	00000013	addi	x0,x0,0	  x0:0x00000000
       35245000	      3523	80001c50	00edfa63	bgeu	x27,x14,80001c64	 x27:0x00000000 x14:0x00013ef0
       35255000	      3524	80001c54	01fb1933	sll	x18,x22,x31	 x22:0x91dc3440 x31:0x00000586 x18=0x770d1000
       35265000	      3525	80001c58	41625913	srai	x18,x4,0x16	  x4:0x13acc000 x18=0x0000004e
       35275000	      3526	80001c5c	df10b117	auipc	x2,0xdf10b	  x2=0x5f10cc58
       35285000	      3527	80001c60	03f34e63	blt	x6,x31,80001c9c	  x6:0x80009f78 x31:0x00000586
       35295000	      3528	00000000	00000013	addi	x0,x0,0	  x0:0x00000000
       35305000	      3529	80001c98	00000013	addi	x0,x0,0	  x0:0x00000000
       35315000	      3530	80001c9c	02468263	beq	x13,x4,80001cc0	 x13:0x80009f78  x4:0x13acc000
       35325000	      3531	80001ca0	05154663	blt	x10,x17,80001cec	 x10:0x00000000 x17:0xfff48000
       35335000	      3532	80001ca4	1506e493	ori	x9,x13,336	 x13:0x80009f78  x9=0x80009f78
       35345000	      3533	80001ca8	0170e2b3	or	x5,x1,x23	  x1:0x0000009d x23:0x80009fc4  x5=0x80009fdd
       35355000	      3534	80001cac	01eb3a33	sltu	x20,x22,x30	 x22:0x91dc3440 x30:0x80009f78 x20=0x00000000
       35365000	      3535	80001cb0	002e9c63	bne	x29,x2,80001cc8	 x29:0x8000a15a  x2:0x5f10cc58
       35375000	      3536	00000000	00000013	addi	x0,x0,0	  x0:0x00000000
       35385000	      3537	80001cc4	00000013	addi	x0,x0,0	  x0:0x00000000
       35395000	      3538	80001cc8	da71cc13	xori	x24,x3,-601	  x3:0x00000200 x24=0xffffffa7
       35405000	      3539	80001ccc	005c3a33	sltu	x20,x24,x5	 x24:0xffffffa7  x5:0x80009fdd x20=0x00000000
       35415000	      3540	80001cd0	00000013	addi	x0,x0,0	  x0:0x00000000
       35425000	      3541	80001cd4	00000013	addi	x0,x0,0	  x0:0x00000000
       35435000	      3542	80001cd8	02459e63	bne	x11,x4,80001d14	 x11:0xe2800000  x4:0x13acc000
       35445000	      3543	00000000	00000013	addi	x0,x0,0	  x0:0x00000000
       35455000	      3544	80001d10	00000013	addi	x0,x0,0	  x0:0x00000000
       35465000	      3545	80001d14	01fa90b3	sll	x1,x21,x31	 x21:0xd4353000 x31:0x00000586  x1=0x0d4c0000
       35475000	      3546	80001d18	00c09e63	bne	x1,x12,80001d34	  x1:0x0d4c0000 x12:0xca000000
       35485000	      3547	00000000	00000013	addi	x0,x0,0	  x0:0x00000000
       35495000	      3548	80001d30	00000013	addi	x0,x0,0	  x0:0x00000000
       35505000	      3549	80001d34	00409663	bne	x1,x4,80001d40	  x1:0x0d4c0000  x4:0x13acc000
       35515000	      3550	00000000	00000013	addi	x0,x0,0	  x0:0x00000000
       35525000	      3551	80001d3c	00000013	addi	x0,x0,0	  x0:0x00000000
       35535000	      3552	80001d40	016204b3	add	x9,x4,x22	  x4:0x13acc000 x22:0x91dc3440  x9=0xa588f440
       35545000	      3553	80001d44	0116ca63	blt	x13,x17,80001d58	 x13:0x80009f78 x17:0xfff48000
       35555000	      3554	00000000	00000013	addi	x0,x0,0	  x0:0x00000000
       35565000	      3555	80001d54	00000013	addi	x0,x0,0	  x0:0x00000000
       35575000	      3556	80001d58	017ce8b3	or	x17,x25,x23	 x25:0xffffffff x23:0x80009fc4 x17=0xffffffff
       35585000	      3557	80001d5c	004f2983	lw	x19,4(x30)	 x30:0x80009f78 x19=0x800009dc PA:0x80009f7c
       35595000	      3558	80001d60	00cf0f13	addi	x30,x30,12	 x30:0x80009f78 x30=0x80009f84
       35605000	      3559	80001d64	d0ddb613	sltiu	x12,x27,-755	 x27:0x00000000 x12=0x00000001
       35615000	      3560	80001d68	4034de93	srai	x29,x9,0x3	  x9:0xa588f440 x29=0xf4b11e88
       35625000	      3561	80001d6c	c7804593	xori	x11,x0,-904	  x0:0x00000000 x11=0xfffffc78
       35635000	      3562	80001d70	00198513	addi	x10,x19,1	 x19:0x800009dc x10=0x800009dd
       35645000	      3563	80001d74	00050567	jalr	x10,x10,0	 x10:0x800009dd x10=0x80001d74
       35655000	      3564	00000000	00000013	addi	x0,x0,0	  x0:0x00000000
       35665000	      3565	800009dc	00000013	addi	x0,x0,0	  x0:0x00000000
       35675000	      3566	800009e0	ae7d1e37	lui	x28,0xae7d1	 x28=0xae7d1000
       35685000	      3567	800009e4	00d14833	xor	x16,x2,x13	  x2:0x5f10cc58 x13:0x80009f78 x16=0xdf105320
       35695000	      3568	800009e8	e12acd37	lui	x26,0xe12ac	 x26=0xe12ac000
       35705000	      3569	800009ec	000565b3	or	x11,x10,x0	 x10:0x80001d74  x0:0x00000000 x11=0x80001d74
       35715000	      3570	800009f0	408bdd13	srai	x26,x23,0x8	 x23:0x80009fc4 x26=0xff80009f
       35725000	      3571	800009f4	411856b3	sra	x13,x16,x17	 x16:0xdf105320 x17:0xffffffff x13=0xffffffff
       35735000	      3572	800009f8	41135193	srai	x3,x6,0x11	  x6:0x80009f78  x3=0xffffc000
       35745000	      3573	800009fc	01849863	bne	x9,x24,80000a0c	  x9:0xa588f440 x24:0xffffffa7
       35755000	      3574	00000000	00000013	addi	x0,x0,0	  x0:0x00000000
       35765000	      3575	80000a08	00000013	addi	x0,x0,0	  x0:0x00000000
       35775000	      3576	80000a0c	b1794137	lui	x2,0xb1794	  x2=0xb1794000
       35785000	      3577	80000a10	55596c37	lui	x24,0x55596	 x24=0x55596000
       35795000	      3578	80000a14	0317d663	bge	x15,x17,80000a40	 x15:0x00000001 x17:0xffffffff
       35805000	      3579	00000000	00000013	addi	x0,x0,0	  x0:0x00000000
       35815000	      3580	80000a3c	00000013	addi	x0,x0,0	  x0:0x00000000
       35825000	      3581	80000a40	01686eb3	or	x29,x16,x22	 x16:0xdf105320 x22:0x91dc3440 x29=0xdfdc7760
       35835000	      3582	80000a44	d23f5a17	auipc	x20,0xd23f5	 x20=0x523f5a40
       35845000	      3583	80000a48	ef4ec297	auipc	x5,0xef4ec	  x5=0x6f4eca44
       35855000	      3584	80000a4c	db9c8213	addi	x4,x25,-583	 x25:0xffffffff  x4=0xfffffdb8
       35865000	      3585	80000a50	019c19b3	sll	x19,x24,x25	 x24:0x55596000 x25:0xffffffff x19=0x00000000
       35875000	      3586	80000a54	093a8c63	beq	x21,x19,80000aec	 x21:0xd4353000 x19:0x00000000
       35885000	      3587	80000a58	0d4a4663	blt	x20,x20,80000b24	 x20:0x523f5a40 x20:0x523f5a40
       35895000	      3588	80000a5c	017c5f93	srli	x31,x24,0x17	 x24:0x55596000 x31=0x000000aa
       35905000	      3589	80000a60	00a00793	addi	x15,x0,10	  x0:0x00000000 x15=0x0000000a
       35915000	      3590	80000a64	00938033	add	x0,x7,x9	  x7:0x91dc35ca  x9:0xa588f440
       35925000	      3591	80000a68	01da6233	or	x4,x20,x29	 x20:0x523f5a40 x29:0xdfdc7760  x4=0xdfff7f60
       35935000	      3592	80000a6c	00700f93	addi	x31,x0,7	  x0:0x00000000 x31=0x00000007
       35945000	      3593	80000a70	7e764513	xori	x10,x12,2023	 x12:0x00000001 x10=0x000007e6
       35955000	      3594	80000a74	c7a96e93	ori	x29,x18,-902	 x18:0x0000004e x29=0xfffffc7e
       35965000	      3595	80000a78	ffc78793	addi	x15,x15,-4	 x15:0x0000000a x15=0x00000006
       35975000	      3596	80000a7c	00700893	addi	x17,x0,7	  x0:0x00000000 x17=0x00000007
       35985000	      3597	80000a80	bca46a93	ori	x21,x8,-1078	  x8:0xffffffff x21=0xffffffff
       35995000	      3598	80000a84	00500b13	addi	x22,x0,5	  x0:0x00000000 x22=0x00000005
       36005000	      3599	80000a88	cc2ea113	slti	x2,x29,-830	 x29:0xfffffc7e  x2=0x00000001
       36015000	      3600	80000a8c	7964a493	slti	x9,x9,1942	  x9:0xa588f440  x9=0x00000001
       36025000	      3601	80000a90	a45f4d17	auipc	x26,0xa45f4	 x26=0x245f4a8c
       36035000	      3602	80000a94	fff88893	addi	x17,x17,-1	 x17:0x00000007 x17=0x00000006
       36045000	      3603	80000a98	ff688ae3	beq	x17,x22,80000a8c	 x17:0x00000006 x22:0x00000005
       36055000	      3604	80000a9c	00d42933	slt	x18,x8,x13	  x8:0xffffffff x13:0xffffffff x18=0x00000000
       36065000	      3605	80000aa0	fdf7f8e3	bgeu	x15,x31,80000a70	 x15:0x00000006 x31:0x00000007
       36075000	      3606	80000aa4	00e674b3	and	x9,x12,x14	 x12:0x00000001 x14:0x00013ef0  x9=0x00000000
       36085000	      3607	80000aa8	01a7ed33	or	x26,x15,x26	 x15:0x00000006 x26:0x245f4a8c x26=0x245f4a8e
       36095000	      3608	80000aac	25b46c13	ori	x24,x8,603	  x8:0xffffffff x24=0xffffffff
       36105000	      3609	80000ab0	01d0a917	auipc	x18,0x1d0a	 x18=0x81d0aaac
       36115000	      3610	80000ab4	00001d17	auipc	x26,0x1	 x26=0x80001ab0
       36125000	      3611	80000ab8	340d0d13	addi	x26,x26,832	 x26:0x80001ab0 x26=0x80001df0
       36135000	      3612	80000abc	b0d0c097	auipc	x1,0xb0d0c	  x1=0x30d0cab8
       36145000	      3613	80000ac0	00000013	addi	x0,x0,0	  x0:0x00000000
       36155000	      3614	80000ac4	02fd0d13	addi	x26,x26,47	 x26:0x80001df0 x26=0x80001e1f
       36165000	      3615	80000ac8	00000013	addi	x0,x0,0	  x0:0x00000000
       36175000	      3616	80000acc	cbb67c13	andi	x24,x12,-837	 x12:0x00000001 x24=0x00000001
       36185000	      3617	80000ad0	412b5613	srai	x12,x22,0x12	 x22:0x00000005 x12=0x00000000
       36195000	      3618	80000ad4	010b6463	bltu	x22,x16,80000adc	 x22:0x00000005 x16:0xdf105320
       36205000	      3619	00000000	00000013	addi	x0,x0,0	  x0:0x00000000
       36215000	      3620	80000ad8	00000013	addi	x0,x0,0	  x0:0x00000000
       36225000	      3621	80000adc	fd1d09e7	jalr	x19,x26,-47	 x26:0x80001e1f x19=0x80000adc
       36235000	      3622	00000000	00000013	addi	x0,x0,0	  x0:0x00000000
       36245000	      3623	80001df0	00000013	addi	x0,x0,0	  x0:0x00000000
       36255000	      3624	80001df4	00489833	sll	x16,x17,x4	 x17:0x00000006  x4:0xdfff7f60 x16=0x00000006
       36265000	      3625	80001df8	fecf0f13	addi	x30,x30,-20	 x30:0x80009f84 x30=0x80009f70
       36275000	      3626	80001dfc	01c8b5b3	sltu	x11,x17,x28	 x17:0x00000006 x28:0xae7d1000 x11=0x00000001
       36285000	      3627	80001e00	013f2223	sw	x19,4(x30)	 x30:0x80009f70 x19:0x80000adc PA:0x80009f74
       36295000	      3628	80001e04	0014d493	srli	x9,x9,0x1	  x9:0x00000000  x9=0x00000000
       36305000	      3629	80001e08	01fa4133	xor	x2,x20,x31	 x20:0x523f5a40 x31:0x00000007  x2=0x523f5a47
       36315000	      3630	80001e0c	019ddeb3	srl	x29,x27,x25	 x27:0x00000000 x25:0xffffffff x29=0x00000000
       36325000	      3631	80001e10	f1a2dd37	lui	x26,0xf1a2d	 x26=0xf1a2d000
       36335000	      3632	80001e14	400a8ab3	sub	x21,x21,x0	 x21:0xffffffff  x0:0x00000000 x21=0xffffffff
       36345000	      3633	80001e18	40368033	sub	x0,x13,x3	 x13:0xffffffff  x3:0xffffc000
       36355000	      3634	80001e1c	002651b3	srl	x3,x12,x2	 x12:0x00000000  x2:0x523f5a47  x3=0x00000000
       36365000	      3635	80001e20	ff700413	addi	x8,x0,-9	  x0:0x00000000  x8=0xfffffff7
       36375000	      3636	80001e24	00900c13	addi	x24,x0,9	  x0:0x00000000 x24=0x00000009
       36385000	      3637	80001e28	b77cbe13	sltiu	x28,x25,-1161	 x25:0xffffffff x28=0x00000000
       36395000	      3638	80001e2c	00c35593	srli	x11,x6,0xc	  x6:0x80009f78 x11=0x00080009
       36405000	      3639	80001e30	2e5f3a13	sltiu	x20,x30,741	 x30:0x80009f70 x20=0x00000000
       36415000	      3640	80001e34	c682f013	andi	x0,x5,-920	  x5:0x6f4eca44
       36425000	      3641	80001e38	00640413	addi	x8,x8,6	  x8:0xfffffff7  x8=0xfffffffd
       36435000	      3642	80001e3c	00000013	addi	x0,x0,0	  x0:0x00000000
       36445000	      3643	80001e40	00400513	addi	x10,x0,4	  x0:0x00000000 x10=0x00000004
       36455000	      3644	80001e44	41658d33	sub	x26,x11,x22	 x11:0x00080009 x22:0x00000005 x26=0x00080004
       36465000	      3645	80001e48	00ce00b3	add	x1,x28,x12	 x28:0x00000000 x12:0x00000000  x1=0x00000000
       36475000	      3646	80001e4c	f2bc4893	xori	x17,x24,-213	 x24:0x00000009 x17=0xffffff22
       36485000	      3647	80001e50	00e00c93	addi	x25,x0,14	  x0:0x00000000 x25=0x0000000e
       36495000	      3648	80001e54	0984b493	sltiu	x9,x9,152	  x9:0x00000000  x9=0x00000001
       36505000	      3649	80001e58	b35cf813	andi	x16,x25,-1227	 x25:0x0000000e x16=0x00000004
       36515000	      3650	80001e5c	015a2933	slt	x18,x20,x21	 x20:0x00000000 x21:0xffffffff x18=0x00000000
       36525000	      3651	80001e60	0074e4b3	or	x9,x9,x7	  x9:0x00000001  x7:0x91dc35ca  x9=0x91dc35cb
       36535000	      3652	80001e64	00f7bfb3	sltu	x31,x15,x15	 x15:0x00000006 x15:0x00000006 x31=0x00000000
       36545000	      3653	80001e68	6a614093	xori	x1,x2,1702	  x2:0x523f5a47  x1=0x523f5ce1
       36555000	      3654	80001e6c	9463f693	andi	x13,x7,-1722	  x7:0x91dc35ca x13=0x91dc3142
       36565000	      3655	80001e70	00250513	addi	x10,x10,2	 x10:0x00000004 x10=0x00000006
       36575000	      3656	80001e74	ff954ae3	blt	x10,x25,80001e68	 x10:0x00000006 x25:0x0000000e
       36585000	      3657	00000000	00000013	addi	x0,x0,0	  x0:0x00000000
       36595000	      3658	80001e64	00000013	addi	x0,x0,0	  x0:0x00000000
       36605000	      3659	80001e68	6a614093	xori	x1,x2,1702	  x2:0x523f5a47  x1=0x523f5ce1
       36615000	      3660	80001e6c	9463f693	andi	x13,x7,-1722	  x7:0x91dc35ca x13=0x91dc3142
       36625000	      3661	80001e70	00250513	addi	x10,x10,2	 x10:0x00000006 x10=0x00000008
       36635000	      3662	80001e74	ff954ae3	blt	x10,x25,80001e68	 x10:0x00000008 x25:0x0000000e
       36645000	      3663	00000000	00000013	addi	x0,x0,0	  x0:0x00000000
       36655000	      3664	80001e64	00000013	addi	x0,x0,0	  x0:0x00000000
       36665000	      3665	80001e68	6a614093	xori	x1,x2,1702	  x2:0x523f5a47  x1=0x523f5ce1
       36675000	      3666	80001e6c	9463f693	andi	x13,x7,-1722	  x7:0x91dc35ca x13=0x91dc3142
       36685000	      3667	80001e70	00250513	addi	x10,x10,2	 x10:0x00000008 x10=0x0000000a
       36695000	      3668	80001e74	ff954ae3	blt	x10,x25,80001e68	 x10:0x0000000a x25:0x0000000e
       36705000	      3669	00000000	00000013	addi	x0,x0,0	  x0:0x00000000
       36715000	      3670	80001e64	00000013	addi	x0,x0,0	  x0:0x00000000
       36725000	      3671	80001e68	6a614093	xori	x1,x2,1702	  x2:0x523f5a47  x1=0x523f5ce1
       36735000	      3672	80001e6c	9463f693	andi	x13,x7,-1722	  x7:0x91dc35ca x13=0x91dc3142
       36745000	      3673	80001e70	00250513	addi	x10,x10,2	 x10:0x0000000a x10=0x0000000c
       36755000	      3674	80001e74	ff954ae3	blt	x10,x25,80001e68	 x10:0x0000000c x25:0x0000000e
       36765000	      3675	00000000	00000013	addi	x0,x0,0	  x0:0x00000000
       36775000	      3676	80001e64	00000013	addi	x0,x0,0	  x0:0x00000000
       36785000	      3677	80001e68	6a614093	xori	x1,x2,1702	  x2:0x523f5a47  x1=0x523f5ce1
       36795000	      3678	80001e6c	9463f693	andi	x13,x7,-1722	  x7:0x91dc35ca x13=0x91dc3142
       36805000	      3679	80001e70	00250513	addi	x10,x10,2	 x10:0x0000000c x10=0x0000000e
       36815000	      3680	80001e74	ff954ae3	blt	x10,x25,80001e68	 x10:0x0000000e x25:0x0000000e
       36825000	      3681	80001e78	015f10b3	sll	x1,x30,x21	 x30:0x80009f70 x21:0xffffffff  x1=0x00000000
       36835000	      3682	80001e7c	cb5c8e13	addi	x28,x25,-843	 x25:0x0000000e x28=0xfffffcc3
       36845000	      3683	80001e80	01aa88b3	add	x17,x21,x26	 x21:0xffffffff x26:0x00080004 x17=0x00080003
       36855000	      3684	80001e84	fb8416e3	bne	x8,x24,80001e30	  x8:0xfffffffd x24:0x00000009
       36865000	      3685	00000000	00000013	addi	x0,x0,0	  x0:0x00000000
       36875000	      3686	80001e2c	00000013	addi	x0,x0,0	  x0:0x00000000
       36885000	      3687	80001e30	2e5f3a13	sltiu	x20,x30,741	 x30:0x80009f70 x20=0x00000000
       36895000	      3688	80001e34	c682f013	andi	x0,x5,-920	  x5:0x6f4eca44
       36905000	      3689	80001e38	00640413	addi	x8,x8,6	  x8:0xfffffffd  x8=0x00000003
       36915000	      3690	80001e3c	00000013	addi	x0,x0,0	  x0:0x00000000
       36925000	      3691	80001e40	00400513	addi	x10,x0,4	  x0:0x00000000 x10=0x00000004
       36935000	      3692	80001e44	41658d33	sub	x26,x11,x22	 x11:0x00080009 x22:0x00000005 x26=0x00080004
       36945000	      3693	80001e48	00ce00b3	add	x1,x28,x12	 x28:0xfffffcc3 x12:0x00000000  x1=0xfffffcc3
       36955000	      3694	80001e4c	f2bc4893	xori	x17,x24,-213	 x24:0x00000009 x17=0xffffff22
       36965000	      3695	80001e50	00e00c93	addi	x25,x0,14	  x0:0x00000000 x25=0x0000000e
       36975000	      3696	80001e54	0984b493	sltiu	x9,x9,152	  x9:0x91dc35cb  x9=0x00000000
       36985000	      3697	80001e58	b35cf813	andi	x16,x25,-1227	 x25:0x0000000e x16=0x00000004
       36995000	      3698	80001e5c	015a2933	slt	x18,x20,x21	 x20:0x00000000 x21:0xffffffff x18=0x00000000
       37005000	      3699	80001e60	0074e4b3	or	x9,x9,x7	  x9:0x00000000  x7:0x91dc35ca  x9=0x91dc35ca
       37015000	      3700	80001e64	00f7bfb3	sltu	x31,x15,x15	 x15:0x00000006 x15:0x00000006 x31=0x00000000
       37025000	      3701	80001e68	6a614093	xori	x1,x2,1702	  x2:0x523f5a47  x1=0x523f5ce1
       37035000	      3702	80001e6c	9463f693	andi	x13,x7,-1722	  x7:0x91dc35ca x13=0x91dc3142
       37045000	      3703	80001e70	00250513	addi	x10,x10,2	 x10:0x00000004 x10=0x00000006
       37055000	      3704	80001e74	ff954ae3	blt	x10,x25,80001e68	 x10:0x00000006 x25:0x0000000e
       37065000	      3705	00000000	00000013	addi	x0,x0,0	  x0:0x00000000
       37075000	      3706	80001e64	00000013	addi	x0,x0,0	  x0:0x00000000
       37085000	      3707	80001e68	6a614093	xori	x1,x2,1702	  x2:0x523f5a47  x1=0x523f5ce1
       37095000	      3708	80001e6c	9463f693	andi	x13,x7,-1722	  x7:0x91dc35ca x13=0x91dc3142
       37105000	      3709	80001e70	00250513	addi	x10,x10,2	 x10:0x00000006 x10=0x00000008
       37115000	      3710	80001e74	ff954ae3	blt	x10,x25,80001e68	 x10:0x00000008 x25:0x0000000e
       37125000	      3711	00000000	00000013	addi	x0,x0,0	  x0:0x00000000
       37135000	      3712	80001e64	00000013	addi	x0,x0,0	  x0:0x00000000
       37145000	      3713	80001e68	6a614093	xori	x1,x2,1702	  x2:0x523f5a47  x1=0x523f5ce1
       37155000	      3714	80001e6c	9463f693	andi	x13,x7,-1722	  x7:0x91dc35ca x13=0x91dc3142
       37165000	      3715	80001e70	00250513	addi	x10,x10,2	 x10:0x00000008 x10=0x0000000a
       37175000	      3716	80001e74	ff954ae3	blt	x10,x25,80001e68	 x10:0x0000000a x25:0x0000000e
       37185000	      3717	00000000	00000013	addi	x0,x0,0	  x0:0x00000000
       37195000	      3718	80001e64	00000013	addi	x0,x0,0	  x0:0x00000000
       37205000	      3719	80001e68	6a614093	xori	x1,x2,1702	  x2:0x523f5a47  x1=0x523f5ce1
       37215000	      3720	80001e6c	9463f693	andi	x13,x7,-1722	  x7:0x91dc35ca x13=0x91dc3142
       37225000	      3721	80001e70	00250513	addi	x10,x10,2	 x10:0x0000000a x10=0x0000000c
       37235000	      3722	80001e74	ff954ae3	blt	x10,x25,80001e68	 x10:0x0000000c x25:0x0000000e
       37245000	      3723	00000000	00000013	addi	x0,x0,0	  x0:0x00000000
       37255000	      3724	80001e64	00000013	addi	x0,x0,0	  x0:0x00000000
       37265000	      3725	80001e68	6a614093	xori	x1,x2,1702	  x2:0x523f5a47  x1=0x523f5ce1
       37275000	      3726	80001e6c	9463f693	andi	x13,x7,-1722	  x7:0x91dc35ca x13=0x91dc3142
       37285000	      3727	80001e70	00250513	addi	x10,x10,2	 x10:0x0000000c x10=0x0000000e
       37295000	      3728	80001e74	ff954ae3	blt	x10,x25,80001e68	 x10:0x0000000e x25:0x0000000e
       37305000	      3729	80001e78	015f10b3	sll	x1,x30,x21	 x30:0x80009f70 x21:0xffffffff  x1=0x00000000
       37315000	      3730	80001e7c	cb5c8e13	addi	x28,x25,-843	 x25:0x0000000e x28=0xfffffcc3
       37325000	      3731	80001e80	01aa88b3	add	x17,x21,x26	 x21:0xffffffff x26:0x00080004 x17=0x00080003
       37335000	      3732	80001e84	fb8416e3	bne	x8,x24,80001e30	  x8:0x00000003 x24:0x00000009
       37345000	      3733	00000000	00000013	addi	x0,x0,0	  x0:0x00000000
       37355000	      3734	80001e2c	00000013	addi	x0,x0,0	  x0:0x00000000
       37365000	      3735	80001e30	2e5f3a13	sltiu	x20,x30,741	 x30:0x80009f70 x20=0x00000000
       37375000	      3736	80001e34	c682f013	andi	x0,x5,-920	  x5:0x6f4eca44
       37385000	      3737	80001e38	00640413	addi	x8,x8,6	  x8:0x00000003  x8=0x00000009
       37395000	      3738	80001e3c	00000013	addi	x0,x0,0	  x0:0x00000000
       37405000	      3739	80001e40	00400513	addi	x10,x0,4	  x0:0x00000000 x10=0x00000004
       37415000	      3740	80001e44	41658d33	sub	x26,x11,x22	 x11:0x00080009 x22:0x00000005 x26=0x00080004
       37425000	      3741	80001e48	00ce00b3	add	x1,x28,x12	 x28:0xfffffcc3 x12:0x00000000  x1=0xfffffcc3
       37435000	      3742	80001e4c	f2bc4893	xori	x17,x24,-213	 x24:0x00000009 x17=0xffffff22
       37445000	      3743	80001e50	00e00c93	addi	x25,x0,14	  x0:0x00000000 x25=0x0000000e
       37455000	      3744	80001e54	0984b493	sltiu	x9,x9,152	  x9:0x91dc35ca  x9=0x00000000
       37465000	      3745	80001e58	b35cf813	andi	x16,x25,-1227	 x25:0x0000000e x16=0x00000004
       37475000	      3746	80001e5c	015a2933	slt	x18,x20,x21	 x20:0x00000000 x21:0xffffffff x18=0x00000000
       37485000	      3747	80001e60	0074e4b3	or	x9,x9,x7	  x9:0x00000000  x7:0x91dc35ca  x9=0x91dc35ca
       37495000	      3748	80001e64	00f7bfb3	sltu	x31,x15,x15	 x15:0x00000006 x15:0x00000006 x31=0x00000000
       37505000	      3749	80001e68	6a614093	xori	x1,x2,1702	  x2:0x523f5a47  x1=0x523f5ce1
       37515000	      3750	80001e6c	9463f693	andi	x13,x7,-1722	  x7:0x91dc35ca x13=0x91dc3142
       37525000	      3751	80001e70	00250513	addi	x10,x10,2	 x10:0x00000004 x10=0x00000006
       37535000	      3752	80001e74	ff954ae3	blt	x10,x25,80001e68	 x10:0x00000006 x25:0x0000000e
       37545000	      3753	00000000	00000013	addi	x0,x0,0	  x0:0x00000000
       37555000	      3754	80001e64	00000013	addi	x0,x0,0	  x0:0x00000000
       37565000	      3755	80001e68	6a614093	xori	x1,x2,1702	  x2:0x523f5a47  x1=0x523f5ce1
       37575000	      3756	80001e6c	9463f693	andi	x13,x7,-1722	  x7:0x91dc35ca x13=0x91dc3142
       37585000	      3757	80001e70	00250513	addi	x10,x10,2	 x10:0x00000006 x10=0x00000008
       37595000	      3758	80001e74	ff954ae3	blt	x10,x25,80001e68	 x10:0x00000008 x25:0x0000000e
       37605000	      3759	00000000	00000013	addi	x0,x0,0	  x0:0x00000000
       37615000	      3760	80001e64	00000013	addi	x0,x0,0	  x0:0x00000000
       37625000	      3761	80001e68	6a614093	xori	x1,x2,1702	  x2:0x523f5a47  x1=0x523f5ce1
       37635000	      3762	80001e6c	9463f693	andi	x13,x7,-1722	  x7:0x91dc35ca x13=0x91dc3142
       37645000	      3763	80001e70	00250513	addi	x10,x10,2	 x10:0x00000008 x10=0x0000000a
       37655000	      3764	80001e74	ff954ae3	blt	x10,x25,80001e68	 x10:0x0000000a x25:0x0000000e
       37665000	      3765	00000000	00000013	addi	x0,x0,0	  x0:0x00000000
       37675000	      3766	80001e64	00000013	addi	x0,x0,0	  x0:0x00000000
       37685000	      3767	80001e68	6a614093	xori	x1,x2,1702	  x2:0x523f5a47  x1=0x523f5ce1
       37695000	      3768	80001e6c	9463f693	andi	x13,x7,-1722	  x7:0x91dc35ca x13=0x91dc3142
       37705000	      3769	80001e70	00250513	addi	x10,x10,2	 x10:0x0000000a x10=0x0000000c
       37715000	      3770	80001e74	ff954ae3	blt	x10,x25,80001e68	 x10:0x0000000c x25:0x0000000e
       37725000	      3771	00000000	00000013	addi	x0,x0,0	  x0:0x00000000
       37735000	      3772	80001e64	00000013	addi	x0,x0,0	  x0:0x00000000
       37745000	      3773	80001e68	6a614093	xori	x1,x2,1702	  x2:0x523f5a47  x1=0x523f5ce1
       37755000	      3774	80001e6c	9463f693	andi	x13,x7,-1722	  x7:0x91dc35ca x13=0x91dc3142
       37765000	      3775	80001e70	00250513	addi	x10,x10,2	 x10:0x0000000c x10=0x0000000e
       37775000	      3776	80001e74	ff954ae3	blt	x10,x25,80001e68	 x10:0x0000000e x25:0x0000000e
       37785000	      3777	80001e78	015f10b3	sll	x1,x30,x21	 x30:0x80009f70 x21:0xffffffff  x1=0x00000000
       37795000	      3778	80001e7c	cb5c8e13	addi	x28,x25,-843	 x25:0x0000000e x28=0xfffffcc3
       37805000	      3779	80001e80	01aa88b3	add	x17,x21,x26	 x21:0xffffffff x26:0x00080004 x17=0x00080003
       37815000	      3780	80001e84	fb8416e3	bne	x8,x24,80001e30	  x8:0x00000009 x24:0x00000009
       37825000	      3781	80001e88	00218333	add	x6,x3,x2	  x3:0x00000000  x2:0x523f5a47  x6=0x523f5a47
       37835000	      3782	80001e8c	00100893	addi	x17,x0,1	  x0:0x00000000 x17=0x00000001
       37845000	      3783	80001e90	00f00713	addi	x14,x0,15	  x0:0x00000000 x14=0x0000000f
       37855000	      3784	80001e94	41b07b13	andi	x22,x0,1051	  x0:0x00000000 x22=0x00000000
       37865000	      3785	80001e98	e247b793	sltiu	x15,x15,-476	 x15:0x00000006 x15=0x00000001
       37875000	      3786	80001e9c	00188893	addi	x17,x17,1	 x17:0x00000001 x17=0x00000002
       37885000	      3787	80001ea0	fee89ae3	bne	x17,x14,80001e94	 x17:0x00000002 x14:0x0000000f
       37895000	      3788	00000000	00000013	addi	x0,x0,0	  x0:0x00000000
       37905000	      3789	80001e90	00000013	addi	x0,x0,0	  x0:0x00000000
       37915000	      3790	80001e94	41b07b13	andi	x22,x0,1051	  x0:0x00000000 x22=0x00000000
       37925000	      3791	80001e98	e247b793	sltiu	x15,x15,-476	 x15:0x00000001 x15=0x00000001
       37935000	      3792	80001e9c	00188893	addi	x17,x17,1	 x17:0x00000002 x17=0x00000003
       37945000	      3793	80001ea0	fee89ae3	bne	x17,x14,80001e94	 x17:0x00000003 x14:0x0000000f
       37955000	      3794	00000000	00000013	addi	x0,x0,0	  x0:0x00000000
       37965000	      3795	80001e90	00000013	addi	x0,x0,0	  x0:0x00000000
       37975000	      3796	80001e94	41b07b13	andi	x22,x0,1051	  x0:0x00000000 x22=0x00000000
       37985000	      3797	80001e98	e247b793	sltiu	x15,x15,-476	 x15:0x00000001 x15=0x00000001
       37995000	      3798	80001e9c	00188893	addi	x17,x17,1	 x17:0x00000003 x17=0x00000004
       38005000	      3799	80001ea0	fee89ae3	bne	x17,x14,80001e94	 x17:0x00000004 x14:0x0000000f
       38015000	      3800	00000000	00000013	addi	x0,x0,0	  x0:0x00000000
       38025000	      3801	80001e90	00000013	addi	x0,x0,0	  x0:0x00000000
       38035000	      3802	80001e94	41b07b13	andi	x22,x0,1051	  x0:0x00000000 x22=0x00000000
       38045000	      3803	80001e98	e247b793	sltiu	x15,x15,-476	 x15:0x00000001 x15=0x00000001
       38055000	      3804	80001e9c	00188893	addi	x17,x17,1	 x17:0x00000004 x17=0x00000005
       38065000	      3805	80001ea0	fee89ae3	bne	x17,x14,80001e94	 x17:0x00000005 x14:0x0000000f
       38075000	      3806	00000000	00000013	addi	x0,x0,0	  x0:0x00000000
       38085000	      3807	80001e90	00000013	addi	x0,x0,0	  x0:0x00000000
       38095000	      3808	80001e94	41b07b13	andi	x22,x0,1051	  x0:0x00000000 x22=0x00000000
       38105000	      3809	80001e98	e247b793	sltiu	x15,x15,-476	 x15:0x00000001 x15=0x00000001
       38115000	      3810	80001e9c	00188893	addi	x17,x17,1	 x17:0x00000005 x17=0x00000006
       38125000	      3811	80001ea0	fee89ae3	bne	x17,x14,80001e94	 x17:0x00000006 x14:0x0000000f
       38135000	      3812	00000000	00000013	addi	x0,x0,0	  x0:0x00000000
       38145000	      3813	80001e90	00000013	addi	x0,x0,0	  x0:0x00000000
       38155000	      3814	80001e94	41b07b13	andi	x22,x0,1051	  x0:0x00000000 x22=0x00000000
       38165000	      3815	80001e98	e247b793	sltiu	x15,x15,-476	 x15:0x00000001 x15=0x00000001
       38175000	      3816	80001e9c	00188893	addi	x17,x17,1	 x17:0x00000006 x17=0x00000007
       38185000	      3817	80001ea0	fee89ae3	bne	x17,x14,80001e94	 x17:0x00000007 x14:0x0000000f
       38195000	      3818	00000000	00000013	addi	x0,x0,0	  x0:0x00000000
       38205000	      3819	80001e90	00000013	addi	x0,x0,0	  x0:0x00000000
       38215000	      3820	80001e94	41b07b13	andi	x22,x0,1051	  x0:0x00000000 x22=0x00000000
       38225000	      3821	80001e98	e247b793	sltiu	x15,x15,-476	 x15:0x00000001 x15=0x00000001
       38235000	      3822	80001e9c	00188893	addi	x17,x17,1	 x17:0x00000007 x17=0x00000008
       38245000	      3823	80001ea0	fee89ae3	bne	x17,x14,80001e94	 x17:0x00000008 x14:0x0000000f
       38255000	      3824	00000000	00000013	addi	x0,x0,0	  x0:0x00000000
       38265000	      3825	80001e90	00000013	addi	x0,x0,0	  x0:0x00000000
       38275000	      3826	80001e94	41b07b13	andi	x22,x0,1051	  x0:0x00000000 x22=0x00000000
       38285000	      3827	80001e98	e247b793	sltiu	x15,x15,-476	 x15:0x00000001 x15=0x00000001
       38295000	      3828	80001e9c	00188893	addi	x17,x17,1	 x17:0x00000008 x17=0x00000009
       38305000	      3829	80001ea0	fee89ae3	bne	x17,x14,80001e94	 x17:0x00000009 x14:0x0000000f
       38315000	      3830	00000000	00000013	addi	x0,x0,0	  x0:0x00000000
       38325000	      3831	80001e90	00000013	addi	x0,x0,0	  x0:0x00000000
       38335000	      3832	80001e94	41b07b13	andi	x22,x0,1051	  x0:0x00000000 x22=0x00000000
       38345000	      3833	80001e98	e247b793	sltiu	x15,x15,-476	 x15:0x00000001 x15=0x00000001
       38355000	      3834	80001e9c	00188893	addi	x17,x17,1	 x17:0x00000009 x17=0x0000000a
       38365000	      3835	80001ea0	fee89ae3	bne	x17,x14,80001e94	 x17:0x0000000a x14:0x0000000f
       38375000	      3836	00000000	00000013	addi	x0,x0,0	  x0:0x00000000
       38385000	      3837	80001e90	00000013	addi	x0,x0,0	  x0:0x00000000
       38395000	      3838	80001e94	41b07b13	andi	x22,x0,1051	  x0:0x00000000 x22=0x00000000
       38405000	      3839	80001e98	e247b793	sltiu	x15,x15,-476	 x15:0x00000001 x15=0x00000001
       38415000	      3840	80001e9c	00188893	addi	x17,x17,1	 x17:0x0000000a x17=0x0000000b
       38425000	      3841	80001ea0	fee89ae3	bne	x17,x14,80001e94	 x17:0x0000000b x14:0x0000000f
       38435000	      3842	00000000	00000013	addi	x0,x0,0	  x0:0x00000000
       38445000	      3843	80001e90	00000013	addi	x0,x0,0	  x0:0x00000000
       38455000	      3844	80001e94	41b07b13	andi	x22,x0,1051	  x0:0x00000000 x22=0x00000000
       38465000	      3845	80001e98	e247b793	sltiu	x15,x15,-476	 x15:0x00000001 x15=0x00000001
       38475000	      3846	80001e9c	00188893	addi	x17,x17,1	 x17:0x0000000b x17=0x0000000c
       38485000	      3847	80001ea0	fee89ae3	bne	x17,x14,80001e94	 x17:0x0000000c x14:0x0000000f
       38495000	      3848	00000000	00000013	addi	x0,x0,0	  x0:0x00000000
       38505000	      3849	80001e90	00000013	addi	x0,x0,0	  x0:0x00000000
       38515000	      3850	80001e94	41b07b13	andi	x22,x0,1051	  x0:0x00000000 x22=0x00000000
       38525000	      3851	80001e98	e247b793	sltiu	x15,x15,-476	 x15:0x00000001 x15=0x00000001
       38535000	      3852	80001e9c	00188893	addi	x17,x17,1	 x17:0x0000000c x17=0x0000000d
       38545000	      3853	80001ea0	fee89ae3	bne	x17,x14,80001e94	 x17:0x0000000d x14:0x0000000f
       38555000	      3854	00000000	00000013	addi	x0,x0,0	  x0:0x00000000
       38565000	      3855	80001e90	00000013	addi	x0,x0,0	  x0:0x00000000
       38575000	      3856	80001e94	41b07b13	andi	x22,x0,1051	  x0:0x00000000 x22=0x00000000
       38585000	      3857	80001e98	e247b793	sltiu	x15,x15,-476	 x15:0x00000001 x15=0x00000001
       38595000	      3858	80001e9c	00188893	addi	x17,x17,1	 x17:0x0000000d x17=0x0000000e
       38605000	      3859	80001ea0	fee89ae3	bne	x17,x14,80001e94	 x17:0x0000000e x14:0x0000000f
       38615000	      3860	00000000	00000013	addi	x0,x0,0	  x0:0x00000000
       38625000	      3861	80001e90	00000013	addi	x0,x0,0	  x0:0x00000000
       38635000	      3862	80001e94	41b07b13	andi	x22,x0,1051	  x0:0x00000000 x22=0x00000000
       38645000	      3863	80001e98	e247b793	sltiu	x15,x15,-476	 x15:0x00000001 x15=0x00000001
       38655000	      3864	80001e9c	00188893	addi	x17,x17,1	 x17:0x0000000e x17=0x0000000f
       38665000	      3865	80001ea0	fee89ae3	bne	x17,x14,80001e94	 x17:0x0000000f x14:0x0000000f
       38675000	      3866	80001ea4	0057e433	or	x8,x15,x5	 x15:0x00000001  x5:0x6f4eca44  x8=0x6f4eca45
       38685000	      3867	80001ea8	00800913	addi	x18,x0,8	  x0:0x00000000 x18=0x00000008
       38695000	      3868	80001eac	000759b3	srl	x19,x14,x0	 x14:0x0000000f  x0:0x00000000 x19=0x0000000f
       38705000	      3869	80001eb0	00b4b8b3	sltu	x17,x9,x11	  x9:0x91dc35ca x11:0x00080009 x17=0x00000000
       38715000	      3870	80001eb4	00c00493	addi	x9,x0,12	  x0:0x00000000  x9=0x0000000c
       38725000	      3871	80001eb8	81d5a213	slti	x4,x11,-2019	 x11:0x00080009  x4=0x00000000
       38735000	      3872	80001ebc	14337213	andi	x4,x6,323	  x6:0x523f5a47  x4=0x00000043
       38745000	      3873	80001ec0	00490913	addi	x18,x18,4	 x18:0x00000008 x18=0x0000000c
       38755000	      3874	80001ec4	00300293	addi	x5,x0,3	  x0:0x00000000  x5=0x00000003
       38765000	      3875	80001ec8	418809b3	sub	x19,x16,x24	 x16:0x00000004 x24:0x00000009 x19=0xfffffffb
       38775000	      3876	80001ecc	00000013	addi	x0,x0,0	  x0:0x00000000
       38785000	      3877	80001ed0	00600313	addi	x6,x0,6	  x0:0x00000000  x6=0x00000006
       38795000	      3878	80001ed4	015e3433	sltu	x8,x28,x21	 x28:0xfffffcc3 x21:0xffffffff  x8=0x00000001
       38805000	      3879	80001ed8	01ebf5b3	and	x11,x23,x30	 x23:0x80009fc4 x30:0x80009f70 x11=0x80009f40
       38815000	      3880	80001edc	01455b13	srli	x22,x10,0x14	 x10:0x0000000e x22=0x00000000
       38825000	      3881	80001ee0	01ae10b3	sll	x1,x28,x26	 x28:0xfffffcc3 x26:0x00080004  x1=0xffffcc30
       38835000	      3882	80001ee4	006c41b3	xor	x3,x24,x6	 x24:0x00000009  x6:0x00000006  x3=0x0000000f
       38845000	      3883	80001ee8	00551793	slli	x15,x10,0x5	 x10:0x0000000e x15=0x000001c0
       38855000	      3884	80001eec	00528293	addi	x5,x5,5	  x5:0x00000003  x5=0x00000008
       38865000	      3885	80001ef0	00766a33	or	x20,x12,x7	 x12:0x00000000  x7:0x91dc35ca x20=0x91dc35ca
       38875000	      3886	80001ef4	7a1d0e93	addi	x29,x26,1953	 x26:0x00080004 x29=0x000807a5
       38885000	      3887	80001ef8	fe62c0e3	blt	x5,x6,80001ed8	  x5:0x00000008  x6:0x00000006
       38895000	      3888	80001efc	40ba0833	sub	x16,x20,x11	 x20:0x91dc35ca x11:0x80009f40 x16=0x11db968a
       38905000	      3889	80001f00	fa996ce3	bltu	x18,x9,80001eb8	 x18:0x0000000c  x9:0x0000000c
       38915000	      3890	80001f04	00000013	addi	x0,x0,0	  x0:0x00000000
       38925000	      3891	80001f08	00a00993	addi	x19,x0,10	  x0:0x00000000 x19=0x0000000a
       38935000	      3892	80001f0c	01300193	addi	x3,x0,19	  x0:0x00000000  x3=0x00000013
       38945000	      3893	80001f10	fc5df593	andi	x11,x27,-59	 x27:0x00000000 x11=0x00000000
       38955000	      3894	80001f14	00398993	addi	x19,x19,3	 x19:0x0000000a x19=0x0000000d
       38965000	      3895	80001f18	01facb33	xor	x22,x21,x31	 x21:0xffffffff x31:0x00000000 x22=0xffffffff
       38975000	      3896	80001f1c	00900f93	addi	x31,x0,9	  x0:0x00000000 x31=0x00000009
       38985000	      3897	80001f20	fee00713	addi	x14,x0,-18	  x0:0x00000000 x14=0xffffffee
       38995000	      3898	80001f24	0172db33	srl	x22,x5,x23	  x5:0x00000008 x23:0x80009fc4 x22=0x00000000
       39005000	      3899	80001f28	f1384937	lui	x18,0xf1384	 x18=0xf1384000
       39015000	      3900	80001f2c	7023f293	andi	x5,x7,1794	  x7:0x91dc35ca  x5=0x00000502
       39025000	      3901	80001f30	ff7f8f93	addi	x31,x31,-9	 x31:0x00000009 x31=0x00000000
       39035000	      3902	80001f34	feef9ae3	bne	x31,x14,80001f28	 x31:0x00000000 x14:0xffffffee
       39045000	      3903	00000000	00000013	addi	x0,x0,0	  x0:0x00000000
       39055000	      3904	80001f24	00000013	addi	x0,x0,0	  x0:0x00000000
       39065000	      3905	80001f28	f1384937	lui	x18,0xf1384	 x18=0xf1384000
       39075000	      3906	80001f2c	7023f293	andi	x5,x7,1794	  x7:0x91dc35ca  x5=0x00000502
       39085000	      3907	80001f30	ff7f8f93	addi	x31,x31,-9	 x31:0x00000000 x31=0xfffffff7
       39095000	      3908	80001f34	feef9ae3	bne	x31,x14,80001f28	 x31:0xfffffff7 x14:0xffffffee
       39105000	      3909	00000000	00000013	addi	x0,x0,0	  x0:0x00000000
       39115000	      3910	80001f24	00000013	addi	x0,x0,0	  x0:0x00000000
       39125000	      3911	80001f28	f1384937	lui	x18,0xf1384	 x18=0xf1384000
       39135000	      3912	80001f2c	7023f293	andi	x5,x7,1794	  x7:0x91dc35ca  x5=0x00000502
       39145000	      3913	80001f30	ff7f8f93	addi	x31,x31,-9	 x31:0xfffffff7 x31=0xffffffee
       39155000	      3914	80001f34	feef9ae3	bne	x31,x14,80001f28	 x31:0xffffffee x14:0xffffffee
       39165000	      3915	80001f38	019ad893	srli	x17,x21,0x19	 x21:0xffffffff x17=0x0000007f
       39175000	      3916	80001f3c	fc399ae3	bne	x19,x3,80001f10	 x19:0x0000000d  x3:0x00000013
       39185000	      3917	00000000	00000013	addi	x0,x0,0	  x0:0x00000000
       39195000	      3918	80001f0c	00000013	addi	x0,x0,0	  x0:0x00000000
       39205000	      3919	80001f10	fc5df593	andi	x11,x27,-59	 x27:0x00000000 x11=0x00000000
       39215000	      3920	80001f14	00398993	addi	x19,x19,3	 x19:0x0000000d x19=0x00000010
       39225000	      3921	80001f18	01facb33	xor	x22,x21,x31	 x21:0xffffffff x31:0xffffffee x22=0x00000011
       39235000	      3922	80001f1c	00900f93	addi	x31,x0,9	  x0:0x00000000 x31=0x00000009
       39245000	      3923	80001f20	fee00713	addi	x14,x0,-18	  x0:0x00000000 x14=0xffffffee
       39255000	      3924	80001f24	0172db33	srl	x22,x5,x23	  x5:0x00000502 x23:0x80009fc4 x22=0x00000050
       39265000	      3925	80001f28	f1384937	lui	x18,0xf1384	 x18=0xf1384000
       39275000	      3926	80001f2c	7023f293	andi	x5,x7,1794	  x7:0x91dc35ca  x5=0x00000502
       39285000	      3927	80001f30	ff7f8f93	addi	x31,x31,-9	 x31:0x00000009 x31=0x00000000
       39295000	      3928	80001f34	feef9ae3	bne	x31,x14,80001f28	 x31:0x00000000 x14:0xffffffee
       39305000	      3929	00000000	00000013	addi	x0,x0,0	  x0:0x00000000
       39315000	      3930	80001f24	00000013	addi	x0,x0,0	  x0:0x00000000
       39325000	      3931	80001f28	f1384937	lui	x18,0xf1384	 x18=0xf1384000
       39335000	      3932	80001f2c	7023f293	andi	x5,x7,1794	  x7:0x91dc35ca  x5=0x00000502
       39345000	      3933	80001f30	ff7f8f93	addi	x31,x31,-9	 x31:0x00000000 x31=0xfffffff7
       39355000	      3934	80001f34	feef9ae3	bne	x31,x14,80001f28	 x31:0xfffffff7 x14:0xffffffee
       39365000	      3935	00000000	00000013	addi	x0,x0,0	  x0:0x00000000
       39375000	      3936	80001f24	00000013	addi	x0,x0,0	  x0:0x00000000
       39385000	      3937	80001f28	f1384937	lui	x18,0xf1384	 x18=0xf1384000
       39395000	      3938	80001f2c	7023f293	andi	x5,x7,1794	  x7:0x91dc35ca  x5=0x00000502
       39405000	      3939	80001f30	ff7f8f93	addi	x31,x31,-9	 x31:0xfffffff7 x31=0xffffffee
       39415000	      3940	80001f34	feef9ae3	bne	x31,x14,80001f28	 x31:0xffffffee x14:0xffffffee
       39425000	      3941	80001f38	019ad893	srli	x17,x21,0x19	 x21:0xffffffff x17=0x0000007f
       39435000	      3942	80001f3c	fc399ae3	bne	x19,x3,80001f10	 x19:0x00000010  x3:0x00000013
       39445000	      3943	00000000	00000013	addi	x0,x0,0	  x0:0x00000000
       39455000	      3944	80001f0c	00000013	addi	x0,x0,0	  x0:0x00000000
       39465000	      3945	80001f10	fc5df593	andi	x11,x27,-59	 x27:0x00000000 x11=0x00000000
       39475000	      3946	80001f14	00398993	addi	x19,x19,3	 x19:0x00000010 x19=0x00000013
       39485000	      3947	80001f18	01facb33	xor	x22,x21,x31	 x21:0xffffffff x31:0xffffffee x22=0x00000011
       39495000	      3948	80001f1c	00900f93	addi	x31,x0,9	  x0:0x00000000 x31=0x00000009
       39505000	      3949	80001f20	fee00713	addi	x14,x0,-18	  x0:0x00000000 x14=0xffffffee
       39515000	      3950	80001f24	0172db33	srl	x22,x5,x23	  x5:0x00000502 x23:0x80009fc4 x22=0x00000050
       39525000	      3951	80001f28	f1384937	lui	x18,0xf1384	 x18=0xf1384000
       39535000	      3952	80001f2c	7023f293	andi	x5,x7,1794	  x7:0x91dc35ca  x5=0x00000502
       39545000	      3953	80001f30	ff7f8f93	addi	x31,x31,-9	 x31:0x00000009 x31=0x00000000
       39555000	      3954	80001f34	feef9ae3	bne	x31,x14,80001f28	 x31:0x00000000 x14:0xffffffee
       39565000	      3955	00000000	00000013	addi	x0,x0,0	  x0:0x00000000
       39575000	      3956	80001f24	00000013	addi	x0,x0,0	  x0:0x00000000
       39585000	      3957	80001f28	f1384937	lui	x18,0xf1384	 x18=0xf1384000
       39595000	      3958	80001f2c	7023f293	andi	x5,x7,1794	  x7:0x91dc35ca  x5=0x00000502
       39605000	      3959	80001f30	ff7f8f93	addi	x31,x31,-9	 x31:0x00000000 x31=0xfffffff7
       39615000	      3960	80001f34	feef9ae3	bne	x31,x14,80001f28	 x31:0xfffffff7 x14:0xffffffee
       39625000	      3961	00000000	00000013	addi	x0,x0,0	  x0:0x00000000
       39635000	      3962	80001f24	00000013	addi	x0,x0,0	  x0:0x00000000
       39645000	      3963	80001f28	f1384937	lui	x18,0xf1384	 x18=0xf1384000
       39655000	      3964	80001f2c	7023f293	andi	x5,x7,1794	  x7:0x91dc35ca  x5=0x00000502
       39665000	      3965	80001f30	ff7f8f93	addi	x31,x31,-9	 x31:0xfffffff7 x31=0xffffffee
       39675000	      3966	80001f34	feef9ae3	bne	x31,x14,80001f28	 x31:0xffffffee x14:0xffffffee
       39685000	      3967	80001f38	019ad893	srli	x17,x21,0x19	 x21:0xffffffff x17=0x0000007f
       39695000	      3968	80001f3c	fc399ae3	bne	x19,x3,80001f10	 x19:0x00000013  x3:0x00000013
       39705000	      3969	80001f40	013f8ab3	add	x21,x31,x19	 x31:0xffffffee x19:0x00000013 x21=0x00000001
       39715000	      3970	80001f44	00400593	addi	x11,x0,4	  x0:0x00000000 x11=0x00000004
       39725000	      3971	80001f48	00a021b3	slt	x3,x0,x10	  x0:0x00000000 x10:0x0000000e  x3=0x00000001
       39735000	      3972	80001f4c	00e8b2b3	sltu	x5,x17,x14	 x17:0x0000007f x14:0xffffffee  x5=0x00000001
       39745000	      3973	80001f50	79616893	ori	x17,x2,1942	  x2:0x523f5a47 x17=0x523f5fd7
       39755000	      3974	80001f54	00c5ccb3	xor	x25,x11,x12	 x11:0x00000004 x12:0x00000000 x25=0x00000004
       39765000	      3975	80001f58	ff400513	addi	x10,x0,-12	  x0:0x00000000 x10=0xfffffff4
       39775000	      3976	80001f5c	8ea56d13	ori	x26,x10,-1814	 x10:0xfffffff4 x26=0xfffffffe
       39785000	      3977	80001f60	6137c793	xori	x15,x15,1555	 x15:0x000001c0 x15=0x000007d3
       39795000	      3978	80001f64	ffb58593	addi	x11,x11,-5	 x11:0x00000004 x11=0xffffffff
       39805000	      3979	80001f68	018f5633	srl	x12,x30,x24	 x30:0x80009f70 x24:0x00000009 x12=0x0040004f
       39815000	      3980	80001f6c	00ed9c13	slli	x24,x27,0xe	 x27:0x00000000 x24=0x00000000
       39825000	      3981	80001f70	fea5d8e3	bge	x11,x10,80001f60	 x11:0xffffffff x10:0xfffffff4
       39835000	      3982	00000000	00000013	addi	x0,x0,0	  x0:0x00000000
       39845000	      3983	80001f5c	00000013	addi	x0,x0,0	  x0:0x00000000
       39855000	      3984	80001f60	6137c793	xori	x15,x15,1555	 x15:0x000007d3 x15=0x000001c0
       39865000	      3985	80001f64	ffb58593	addi	x11,x11,-5	 x11:0xffffffff x11=0xfffffffa
       39875000	      3986	80001f68	018f5633	srl	x12,x30,x24	 x30:0x80009f70 x24:0x00000000 x12=0x80009f70
       39885000	      3987	80001f6c	00ed9c13	slli	x24,x27,0xe	 x27:0x00000000 x24=0x00000000
       39895000	      3988	80001f70	fea5d8e3	bge	x11,x10,80001f60	 x11:0xfffffffa x10:0xfffffff4
       39905000	      3989	00000000	00000013	addi	x0,x0,0	  x0:0x00000000
       39915000	      3990	80001f5c	00000013	addi	x0,x0,0	  x0:0x00000000
       39925000	      3991	80001f60	6137c793	xori	x15,x15,1555	 x15:0x000001c0 x15=0x000007d3
       39935000	      3992	80001f64	ffb58593	addi	x11,x11,-5	 x11:0xfffffffa x11=0xfffffff5
       39945000	      3993	80001f68	018f5633	srl	x12,x30,x24	 x30:0x80009f70 x24:0x00000000 x12=0x80009f70
       39955000	      3994	80001f6c	00ed9c13	slli	x24,x27,0xe	 x27:0x00000000 x24=0x00000000
       39965000	      3995	80001f70	fea5d8e3	bge	x11,x10,80001f60	 x11:0xfffffff5 x10:0xfffffff4
       39975000	      3996	00000000	00000013	addi	x0,x0,0	  x0:0x00000000
       39985000	      3997	80001f5c	00000013	addi	x0,x0,0	  x0:0x00000000
       39995000	      3998	80001f60	6137c793	xori	x15,x15,1555	 x15:0x000007d3 x15=0x000001c0
       40005000	      3999	80001f64	ffb58593	addi	x11,x11,-5	 x11:0xfffffff5 x11=0xfffffff0
       40015000	      4000	80001f68	018f5633	srl	x12,x30,x24	 x30:0x80009f70 x24:0x00000000 x12=0x80009f70
       40025000	      4001	80001f6c	00ed9c13	slli	x24,x27,0xe	 x27:0x00000000 x24=0x00000000
       40035000	      4002	80001f70	fea5d8e3	bge	x11,x10,80001f60	 x11:0xfffffff0 x10:0xfffffff4
       40045000	      4003	80001f74	403fde93	srai	x29,x31,0x3	 x31:0xffffffee x29=0xfffffffd
       40055000	      4004	80001f78	ffe00e13	addi	x28,x0,-2	  x0:0x00000000 x28=0xfffffffe
       40065000	      4005	80001f7c	ff700093	addi	x1,x0,-9	  x0:0x00000000  x1=0xfffffff7
       40075000	      4006	80001f80	403959b3	sra	x19,x18,x3	 x18:0xf1384000  x3:0x00000001 x19=0xf89c2000
       40085000	      4007	80001f84	41a781b3	sub	x3,x15,x26	 x15:0x000001c0 x26:0xfffffffe  x3=0x000001c2
       40095000	      4008	80001f88	1bdef817	auipc	x16,0x1bdef	 x16=0x9bdf0f84
       40105000	      4009	80001f8c	ff9e0e13	addi	x28,x28,-7	 x28:0xfffffffe x28=0xfffffff7
       40115000	      4010	80001f90	0180bab3	sltu	x21,x1,x24	  x1:0xfffffff7 x24:0x00000000 x21=0x00000000
       40125000	      4011	80001f94	fe1e08e3	beq	x28,x1,80001f84	 x28:0xfffffff7  x1:0xfffffff7
       40135000	      4012	00000000	00000013	addi	x0,x0,0	  x0:0x00000000
       40145000	      4013	80001f80	00000013	addi	x0,x0,0	  x0:0x00000000
       40155000	      4014	80001f84	41a781b3	sub	x3,x15,x26	 x15:0x000001c0 x26:0xfffffffe  x3=0x000001c2
       40165000	      4015	80001f88	1bdef817	auipc	x16,0x1bdef	 x16=0x9bdf0f84
       40175000	      4016	80001f8c	ff9e0e13	addi	x28,x28,-7	 x28:0xfffffff7 x28=0xfffffff0
       40185000	      4017	80001f90	0180bab3	sltu	x21,x1,x24	  x1:0xfffffff7 x24:0x00000000 x21=0x00000000
       40195000	      4018	80001f94	fe1e08e3	beq	x28,x1,80001f84	 x28:0xfffffff0  x1:0xfffffff7
       40205000	      4019	80001f98	ef21b793	sltiu	x15,x3,-270	  x3:0x000001c2 x15=0x00000001
       40215000	      4020	80001f9c	01e4deb3	srl	x29,x9,x30	  x9:0x0000000c x30:0x80009f70 x29=0x00000000
       40225000	      4021	80001fa0	045d0663	beq	x26,x5,80001fec	 x26:0xfffffffe  x5:0x00000001
       40235000	      4022	80001fa4	c4e74f93	xori	x31,x14,-946	 x14:0xffffffee x31=0x000003a0
       40245000	      4023	80001fa8	05d4c263	blt	x9,x29,80001fec	  x9:0x0000000c x29:0x00000000
       40255000	      4024	80001fac	0181f2b3	and	x5,x3,x24	  x3:0x000001c2 x24:0x00000000  x5=0x00000000
       40265000	      4025	80001fb0	016a4263	blt	x20,x22,80001fb4	 x20:0x91dc35ca x22:0x00000050
       40275000	      4026	00000000	00000013	addi	x0,x0,0	  x0:0x00000000
       40285000	      4027	80001fb0	00000013	addi	x0,x0,0	  x0:0x00000000
       40295000	      4028	80001fb4	00cb5e13	srli	x28,x22,0xc	 x22:0x00000050 x28=0x00000000
       40305000	      4029	80001fb8	00000013	addi	x0,x0,0	  x0:0x00000000
       40315000	      4030	80001fbc	044e4463	blt	x28,x4,80002004	 x28:0x00000000  x4:0x00000043
       40325000	      4031	00000000	00000013	addi	x0,x0,0	  x0:0x00000000
       40335000	      4032	80002000	00000013	addi	x0,x0,0	  x0:0x00000000
       40345000	      4033	80002004	c1c6a093	slti	x1,x13,-996	 x13:0x91dc3142  x1=0x00000001
       40355000	      4034	80002008	401f5193	srai	x3,x30,0x1	 x30:0x80009f70  x3=0xc0004fb8
       40365000	      4035	8000200c	793fe513	ori	x10,x31,1939	 x31:0x000003a0 x10=0x000007b3
       40375000	      4036	80002010	02df7e63	bgeu	x30,x13,8000204c	 x30:0x80009f70 x13:0x91dc3142
       40385000	      4037	80002014	00000013	addi	x0,x0,0	  x0:0x00000000
       40395000	      4038	80002018	00dd5e63	bge	x26,x13,80002034	 x26:0xfffffffe x13:0x91dc3142
       40405000	      4039	00000000	00000013	addi	x0,x0,0	  x0:0x00000000
       40415000	      4040	80002030	00000013	addi	x0,x0,0	  x0:0x00000000
       40425000	      4041	80002034	00fbad33	slt	x26,x23,x15	 x23:0x80009fc4 x15:0x00000001 x26=0x00000001
       40435000	      4042	80002038	02edd663	bge	x27,x14,80002064	 x27:0x00000000 x14:0xffffffee
       40445000	      4043	00000000	00000013	addi	x0,x0,0	  x0:0x00000000
       40455000	      4044	80002060	00000013	addi	x0,x0,0	  x0:0x00000000
       40465000	      4045	80002064	00b085b3	add	x11,x1,x11	  x1:0x00000001 x11:0xfffffff0 x11=0xfffffff1
       40475000	      4046	80002068	f153cfb7	lui	x31,0xf153c	 x31=0xf153c000
       40485000	      4047	8000206c	063e2813	slti	x16,x28,99	 x28:0x00000000 x16=0x00000001
       40495000	      4048	80002070	00b57233	and	x4,x10,x11	 x10:0x000007b3 x11:0xfffffff1  x4=0x000007b1
       40505000	      4049	80002074	02f5c463	blt	x11,x15,8000209c	 x11:0xfffffff1 x15:0x00000001
       40515000	      4050	00000000	00000013	addi	x0,x0,0	  x0:0x00000000
       40525000	      4051	80002098	00000013	addi	x0,x0,0	  x0:0x00000000
       40535000	      4052	8000209c	00ad0a33	add	x20,x26,x10	 x26:0x00000001 x10:0x000007b3 x20=0x000007b4
       40545000	      4053	800020a0	404a5433	sra	x8,x20,x4	 x20:0x000007b4  x4:0x000007b1  x8=0x00000000
       40555000	      4054	800020a4	6e514913	xori	x18,x2,1765	  x2:0x523f5a47 x18=0x523f5ca2
       40565000	      4055	800020a8	21d66413	ori	x8,x12,541	 x12:0x80009f70  x8=0x80009f7d
       40575000	      4056	800020ac	00200a93	addi	x21,x0,2	  x0:0x00000000 x21=0x00000002
       40585000	      4057	800020b0	aafdb093	sltiu	x1,x27,-1361	 x27:0x00000000  x1=0x00000001
       40595000	      4058	800020b4	ff100313	addi	x6,x0,-15	  x0:0x00000000  x6=0xfffffff1
       40605000	      4059	800020b8	00000013	addi	x0,x0,0	  x0:0x00000000
       40615000	      4060	800020bc	32276593	ori	x11,x14,802	 x14:0xffffffee x11=0xffffffee
       40625000	      4061	800020c0	404806b3	sub	x13,x16,x4	 x16:0x00000001  x4:0x000007b1 x13=0xfffff850
       40635000	      4062	800020c4	ffba8a93	addi	x21,x21,-5	 x21:0x00000002 x21=0xfffffffd
       40645000	      4063	800020c8	00800293	addi	x5,x0,8	  x0:0x00000000  x5=0x00000008
       40655000	      4064	800020cc	41b9d8b3	sra	x17,x19,x27	 x19:0xf89c2000 x27:0x00000000 x17=0xf89c2000
       40665000	      4065	800020d0	41a65813	srai	x16,x12,0x1a	 x12:0x80009f70 x16=0xffffffe0
       40675000	      4066	800020d4	41a95e13	srai	x28,x18,0x1a	 x18:0x523f5ca2 x28=0x00000014
       40685000	      4067	800020d8	00300613	addi	x12,x0,3	  x0:0x00000000 x12=0x00000003
       40695000	      4068	800020dc	00975013	srli	x0,x14,0x9	 x14:0xffffffee
       40705000	      4069	800020e0	e8dbee13	ori	x28,x23,-371	 x23:0x80009fc4 x28=0xffffffcd
       40715000	      4070	800020e4	27852593	slti	x11,x10,632	 x10:0x000007b3 x11=0x00000000
       40725000	      4071	800020e8	9b97f713	andi	x14,x15,-1607	 x15:0x00000001 x14=0x00000001
       40735000	      4072	800020ec	7c65ed13	ori	x26,x11,1990	 x11:0x00000000 x26=0x000007c6
       40745000	      4073	800020f0	0050c1b3	xor	x3,x1,x5	  x1:0x00000001  x5:0x00000008  x3=0x00000009
       40755000	      4074	800020f4	0389e213	ori	x4,x19,56	 x19:0xf89c2000  x4=0xf89c2038
       40765000	      4075	800020f8	004fe4b3	or	x9,x31,x4	 x31:0xf153c000  x4:0xf89c2038  x9=0xf9dfe038
       40775000	      4076	800020fc	fff28293	addi	x5,x5,-1	  x5:0x00000008  x5=0x00000007
       40785000	      4077	80002100	fec2f6e3	bgeu	x5,x12,800020ec	  x5:0x00000007 x12:0x00000003
       40795000	      4078	00000000	00000013	addi	x0,x0,0	  x0:0x00000000
       40805000	      4079	800020e8	00000013	addi	x0,x0,0	  x0:0x00000000
       40815000	      4080	800020ec	7c65ed13	ori	x26,x11,1990	 x11:0x00000000 x26=0x000007c6
       40825000	      4081	800020f0	0050c1b3	xor	x3,x1,x5	  x1:0x00000001  x5:0x00000007  x3=0x00000006
       40835000	      4082	800020f4	0389e213	ori	x4,x19,56	 x19:0xf89c2000  x4=0xf89c2038
       40845000	      4083	800020f8	004fe4b3	or	x9,x31,x4	 x31:0xf153c000  x4:0xf89c2038  x9=0xf9dfe038
       40855000	      4084	800020fc	fff28293	addi	x5,x5,-1	  x5:0x00000007  x5=0x00000006
       40865000	      4085	80002100	fec2f6e3	bgeu	x5,x12,800020ec	  x5:0x00000006 x12:0x00000003
       40875000	      4086	00000000	00000013	addi	x0,x0,0	  x0:0x00000000
       40885000	      4087	800020e8	00000013	addi	x0,x0,0	  x0:0x00000000
       40895000	      4088	800020ec	7c65ed13	ori	x26,x11,1990	 x11:0x00000000 x26=0x000007c6
       40905000	      4089	800020f0	0050c1b3	xor	x3,x1,x5	  x1:0x00000001  x5:0x00000006  x3=0x00000007
       40915000	      4090	800020f4	0389e213	ori	x4,x19,56	 x19:0xf89c2000  x4=0xf89c2038
       40925000	      4091	800020f8	004fe4b3	or	x9,x31,x4	 x31:0xf153c000  x4:0xf89c2038  x9=0xf9dfe038
       40935000	      4092	800020fc	fff28293	addi	x5,x5,-1	  x5:0x00000006  x5=0x00000005
       40945000	      4093	80002100	fec2f6e3	bgeu	x5,x12,800020ec	  x5:0x00000005 x12:0x00000003
       40955000	      4094	00000000	00000013	addi	x0,x0,0	  x0:0x00000000
       40965000	      4095	800020e8	00000013	addi	x0,x0,0	  x0:0x00000000
       40975000	      4096	800020ec	7c65ed13	ori	x26,x11,1990	 x11:0x00000000 x26=0x000007c6
       40985000	      4097	800020f0	0050c1b3	xor	x3,x1,x5	  x1:0x00000001  x5:0x00000005  x3=0x00000004
       40995000	      4098	800020f4	0389e213	ori	x4,x19,56	 x19:0xf89c2000  x4=0xf89c2038
       41005000	      4099	800020f8	004fe4b3	or	x9,x31,x4	 x31:0xf153c000  x4:0xf89c2038  x9=0xf9dfe038
       41015000	      4100	800020fc	fff28293	addi	x5,x5,-1	  x5:0x00000005  x5=0x00000004
       41025000	      4101	80002100	fec2f6e3	bgeu	x5,x12,800020ec	  x5:0x00000004 x12:0x00000003
       41035000	      4102	00000000	00000013	addi	x0,x0,0	  x0:0x00000000
       41045000	      4103	800020e8	00000013	addi	x0,x0,0	  x0:0x00000000
       41055000	      4104	800020ec	7c65ed13	ori	x26,x11,1990	 x11:0x00000000 x26=0x000007c6
       41065000	      4105	800020f0	0050c1b3	xor	x3,x1,x5	  x1:0x00000001  x5:0x00000004  x3=0x00000005
       41075000	      4106	800020f4	0389e213	ori	x4,x19,56	 x19:0xf89c2000  x4=0xf89c2038
       41085000	      4107	800020f8	004fe4b3	or	x9,x31,x4	 x31:0xf153c000  x4:0xf89c2038  x9=0xf9dfe038
       41095000	      4108	800020fc	fff28293	addi	x5,x5,-1	  x5:0x00000004  x5=0x00000003
       41105000	      4109	80002100	fec2f6e3	bgeu	x5,x12,800020ec	  x5:0x00000003 x12:0x00000003
       41115000	      4110	00000000	00000013	addi	x0,x0,0	  x0:0x00000000
       41125000	      4111	800020e8	00000013	addi	x0,x0,0	  x0:0x00000000
       41135000	      4112	800020ec	7c65ed13	ori	x26,x11,1990	 x11:0x00000000 x26=0x000007c6
       41145000	      4113	800020f0	0050c1b3	xor	x3,x1,x5	  x1:0x00000001  x5:0x00000003  x3=0x00000002
       41155000	      4114	800020f4	0389e213	ori	x4,x19,56	 x19:0xf89c2000  x4=0xf89c2038
       41165000	      4115	800020f8	004fe4b3	or	x9,x31,x4	 x31:0xf153c000  x4:0xf89c2038  x9=0xf9dfe038
       41175000	      4116	800020fc	fff28293	addi	x5,x5,-1	  x5:0x00000003  x5=0x00000002
       41185000	      4117	80002100	fec2f6e3	bgeu	x5,x12,800020ec	  x5:0x00000002 x12:0x00000003
       41195000	      4118	80002104	b5598413	addi	x8,x19,-1195	 x19:0xf89c2000  x8=0xf89c1b55
       41205000	      4119	80002108	004ea0b3	slt	x1,x29,x4	 x29:0x00000000  x4:0xf89c2038  x1=0x00000000
       41215000	      4120	8000210c	1288bdb7	lui	x27,0x1288b	 x27=0x1288b000
       41225000	      4121	80002110	419580b3	sub	x1,x11,x25	 x11:0x00000000 x25:0x00000004  x1=0xfffffffc
       41235000	      4122	80002114	003dd113	srli	x2,x27,0x3	 x27:0x1288b000  x2=0x02511600
       41245000	      4123	80002118	d1f28997	auipc	x19,0xd1f28	 x19=0x51f2a114
       41255000	      4124	8000211c	fa6ad0e3	bge	x21,x6,800020bc	 x21:0xfffffffd  x6:0xfffffff1
       41265000	      4125	00000000	00000013	addi	x0,x0,0	  x0:0x00000000
       41275000	      4126	800020b8	00000013	addi	x0,x0,0	  x0:0x00000000
       41285000	      4127	800020bc	32276593	ori	x11,x14,802	 x14:0x00000001 x11=0x00000323
       41295000	      4128	800020c0	404806b3	sub	x13,x16,x4	 x16:0xffffffe0  x4:0xf89c2038 x13=0x0763dfa8
       41305000	      4129	800020c4	ffba8a93	addi	x21,x21,-5	 x21:0xfffffffd x21=0xfffffff8
       41315000	      4130	800020c8	00800293	addi	x5,x0,8	  x0:0x00000000  x5=0x00000008
       41325000	      4131	800020cc	41b9d8b3	sra	x17,x19,x27	 x19:0x51f2a114 x27:0x1288b000 x17=0x51f2a114
       41335000	      4132	800020d0	41a65813	srai	x16,x12,0x1a	 x12:0x00000003 x16=0x00000000
       41345000	      4133	800020d4	41a95e13	srai	x28,x18,0x1a	 x18:0x523f5ca2 x28=0x00000014
       41355000	      4134	800020d8	00300613	addi	x12,x0,3	  x0:0x00000000 x12=0x00000003
       41365000	      4135	800020dc	00975013	srli	x0,x14,0x9	 x14:0x00000001
       41375000	      4136	800020e0	e8dbee13	ori	x28,x23,-371	 x23:0x80009fc4 x28=0xffffffcd
       41385000	      4137	800020e4	27852593	slti	x11,x10,632	 x10:0x000007b3 x11=0x00000000
       41395000	      4138	800020e8	9b97f713	andi	x14,x15,-1607	 x15:0x00000001 x14=0x00000001
       41405000	      4139	800020ec	7c65ed13	ori	x26,x11,1990	 x11:0x00000000 x26=0x000007c6
       41415000	      4140	800020f0	0050c1b3	xor	x3,x1,x5	  x1:0xfffffffc  x5:0x00000008  x3=0xfffffff4
       41425000	      4141	800020f4	0389e213	ori	x4,x19,56	 x19:0x51f2a114  x4=0x51f2a13c
       41435000	      4142	800020f8	004fe4b3	or	x9,x31,x4	 x31:0xf153c000  x4:0x51f2a13c  x9=0xf1f3e13c
       41445000	      4143	800020fc	fff28293	addi	x5,x5,-1	  x5:0x00000008  x5=0x00000007
       41455000	      4144	80002100	fec2f6e3	bgeu	x5,x12,800020ec	  x5:0x00000007 x12:0x00000003
       41465000	      4145	00000000	00000013	addi	x0,x0,0	  x0:0x00000000
       41475000	      4146	800020e8	00000013	addi	x0,x0,0	  x0:0x00000000
       41485000	      4147	800020ec	7c65ed13	ori	x26,x11,1990	 x11:0x00000000 x26=0x000007c6
       41495000	      4148	800020f0	0050c1b3	xor	x3,x1,x5	  x1:0xfffffffc  x5:0x00000007  x3=0xfffffffb
       41505000	      4149	800020f4	0389e213	ori	x4,x19,56	 x19:0x51f2a114  x4=0x51f2a13c
       41515000	      4150	800020f8	004fe4b3	or	x9,x31,x4	 x31:0xf153c000  x4:0x51f2a13c  x9=0xf1f3e13c
       41525000	      4151	800020fc	fff28293	addi	x5,x5,-1	  x5:0x00000007  x5=0x00000006
       41535000	      4152	80002100	fec2f6e3	bgeu	x5,x12,800020ec	  x5:0x00000006 x12:0x00000003
       41545000	      4153	00000000	00000013	addi	x0,x0,0	  x0:0x00000000
       41555000	      4154	800020e8	00000013	addi	x0,x0,0	  x0:0x00000000
       41565000	      4155	800020ec	7c65ed13	ori	x26,x11,1990	 x11:0x00000000 x26=0x000007c6
       41575000	      4156	800020f0	0050c1b3	xor	x3,x1,x5	  x1:0xfffffffc  x5:0x00000006  x3=0xfffffffa
       41585000	      4157	800020f4	0389e213	ori	x4,x19,56	 x19:0x51f2a114  x4=0x51f2a13c
       41595000	      4158	800020f8	004fe4b3	or	x9,x31,x4	 x31:0xf153c000  x4:0x51f2a13c  x9=0xf1f3e13c
       41605000	      4159	800020fc	fff28293	addi	x5,x5,-1	  x5:0x00000006  x5=0x00000005
       41615000	      4160	80002100	fec2f6e3	bgeu	x5,x12,800020ec	  x5:0x00000005 x12:0x00000003
       41625000	      4161	00000000	00000013	addi	x0,x0,0	  x0:0x00000000
       41635000	      4162	800020e8	00000013	addi	x0,x0,0	  x0:0x00000000
       41645000	      4163	800020ec	7c65ed13	ori	x26,x11,1990	 x11:0x00000000 x26=0x000007c6
       41655000	      4164	800020f0	0050c1b3	xor	x3,x1,x5	  x1:0xfffffffc  x5:0x00000005  x3=0xfffffff9
       41665000	      4165	800020f4	0389e213	ori	x4,x19,56	 x19:0x51f2a114  x4=0x51f2a13c
       41675000	      4166	800020f8	004fe4b3	or	x9,x31,x4	 x31:0xf153c000  x4:0x51f2a13c  x9=0xf1f3e13c
       41685000	      4167	800020fc	fff28293	addi	x5,x5,-1	  x5:0x00000005  x5=0x00000004
       41695000	      4168	80002100	fec2f6e3	bgeu	x5,x12,800020ec	  x5:0x00000004 x12:0x00000003
       41705000	      4169	00000000	00000013	addi	x0,x0,0	  x0:0x00000000
       41715000	      4170	800020e8	00000013	addi	x0,x0,0	  x0:0x00000000
       41725000	      4171	800020ec	7c65ed13	ori	x26,x11,1990	 x11:0x00000000 x26=0x000007c6
       41735000	      4172	800020f0	0050c1b3	xor	x3,x1,x5	  x1:0xfffffffc  x5:0x00000004  x3=0xfffffff8
       41745000	      4173	800020f4	0389e213	ori	x4,x19,56	 x19:0x51f2a114  x4=0x51f2a13c
       41755000	      4174	800020f8	004fe4b3	or	x9,x31,x4	 x31:0xf153c000  x4:0x51f2a13c  x9=0xf1f3e13c
       41765000	      4175	800020fc	fff28293	addi	x5,x5,-1	  x5:0x00000004  x5=0x00000003
       41775000	      4176	80002100	fec2f6e3	bgeu	x5,x12,800020ec	  x5:0x00000003 x12:0x00000003
       41785000	      4177	00000000	00000013	addi	x0,x0,0	  x0:0x00000000
       41795000	      4178	800020e8	00000013	addi	x0,x0,0	  x0:0x00000000
       41805000	      4179	800020ec	7c65ed13	ori	x26,x11,1990	 x11:0x00000000 x26=0x000007c6
       41815000	      4180	800020f0	0050c1b3	xor	x3,x1,x5	  x1:0xfffffffc  x5:0x00000003  x3=0xffffffff
       41825000	      4181	800020f4	0389e213	ori	x4,x19,56	 x19:0x51f2a114  x4=0x51f2a13c
       41835000	      4182	800020f8	004fe4b3	or	x9,x31,x4	 x31:0xf153c000  x4:0x51f2a13c  x9=0xf1f3e13c
       41845000	      4183	800020fc	fff28293	addi	x5,x5,-1	  x5:0x00000003  x5=0x00000002
       41855000	      4184	80002100	fec2f6e3	bgeu	x5,x12,800020ec	  x5:0x00000002 x12:0x00000003
       41865000	      4185	80002104	b5598413	addi	x8,x19,-1195	 x19:0x51f2a114  x8=0x51f29c69
       41875000	      4186	80002108	004ea0b3	slt	x1,x29,x4	 x29:0x00000000  x4:0x51f2a13c  x1=0x00000001
       41885000	      4187	8000210c	1288bdb7	lui	x27,0x1288b	 x27=0x1288b000
       41895000	      4188	80002110	419580b3	sub	x1,x11,x25	 x11:0x00000000 x25:0x00000004  x1=0xfffffffc
       41905000	      4189	80002114	003dd113	srli	x2,x27,0x3	 x27:0x1288b000  x2=0x02511600
       41915000	      4190	80002118	d1f28997	auipc	x19,0xd1f28	 x19=0x51f2a114
       41925000	      4191	8000211c	fa6ad0e3	bge	x21,x6,800020bc	 x21:0xfffffff8  x6:0xfffffff1
       41935000	      4192	00000000	00000013	addi	x0,x0,0	  x0:0x00000000
       41945000	      4193	800020b8	00000013	addi	x0,x0,0	  x0:0x00000000
       41955000	      4194	800020bc	32276593	ori	x11,x14,802	 x14:0x00000001 x11=0x00000323
       41965000	      4195	800020c0	404806b3	sub	x13,x16,x4	 x16:0x00000000  x4:0x51f2a13c x13=0xae0d5ec4
       41975000	      4196	800020c4	ffba8a93	addi	x21,x21,-5	 x21:0xfffffff8 x21=0xfffffff3
       41985000	      4197	800020c8	00800293	addi	x5,x0,8	  x0:0x00000000  x5=0x00000008
       41995000	      4198	800020cc	41b9d8b3	sra	x17,x19,x27	 x19:0x51f2a114 x27:0x1288b000 x17=0x51f2a114
       42005000	      4199	800020d0	41a65813	srai	x16,x12,0x1a	 x12:0x00000003 x16=0x00000000
       42015000	      4200	800020d4	41a95e13	srai	x28,x18,0x1a	 x18:0x523f5ca2 x28=0x00000014
       42025000	      4201	800020d8	00300613	addi	x12,x0,3	  x0:0x00000000 x12=0x00000003
       42035000	      4202	800020dc	00975013	srli	x0,x14,0x9	 x14:0x00000001
       42045000	      4203	800020e0	e8dbee13	ori	x28,x23,-371	 x23:0x80009fc4 x28=0xffffffcd
       42055000	      4204	800020e4	27852593	slti	x11,x10,632	 x10:0x000007b3 x11=0x00000000
       42065000	      4205	800020e8	9b97f713	andi	x14,x15,-1607	 x15:0x00000001 x14=0x00000001
       42075000	      4206	800020ec	7c65ed13	ori	x26,x11,1990	 x11:0x00000000 x26=0x000007c6
       42085000	      4207	800020f0	0050c1b3	xor	x3,x1,x5	  x1:0xfffffffc  x5:0x00000008  x3=0xfffffff4
       42095000	      4208	800020f4	0389e213	ori	x4,x19,56	 x19:0x51f2a114  x4=0x51f2a13c
       42105000	      4209	800020f8	004fe4b3	or	x9,x31,x4	 x31:0xf153c000  x4:0x51f2a13c  x9=0xf1f3e13c
       42115000	      4210	800020fc	fff28293	addi	x5,x5,-1	  x5:0x00000008  x5=0x00000007
       42125000	      4211	80002100	fec2f6e3	bgeu	x5,x12,800020ec	  x5:0x00000007 x12:0x00000003
       42135000	      4212	00000000	00000013	addi	x0,x0,0	  x0:0x00000000
       42145000	      4213	800020e8	00000013	addi	x0,x0,0	  x0:0x00000000
       42155000	      4214	800020ec	7c65ed13	ori	x26,x11,1990	 x11:0x00000000 x26=0x000007c6
       42165000	      4215	800020f0	0050c1b3	xor	x3,x1,x5	  x1:0xfffffffc  x5:0x00000007  x3=0xfffffffb
       42175000	      4216	800020f4	0389e213	ori	x4,x19,56	 x19:0x51f2a114  x4=0x51f2a13c
       42185000	      4217	800020f8	004fe4b3	or	x9,x31,x4	 x31:0xf153c000  x4:0x51f2a13c  x9=0xf1f3e13c
       42195000	      4218	800020fc	fff28293	addi	x5,x5,-1	  x5:0x00000007  x5=0x00000006
       42205000	      4219	80002100	fec2f6e3	bgeu	x5,x12,800020ec	  x5:0x00000006 x12:0x00000003
       42215000	      4220	00000000	00000013	addi	x0,x0,0	  x0:0x00000000
       42225000	      4221	800020e8	00000013	addi	x0,x0,0	  x0:0x00000000
       42235000	      4222	800020ec	7c65ed13	ori	x26,x11,1990	 x11:0x00000000 x26=0x000007c6
       42245000	      4223	800020f0	0050c1b3	xor	x3,x1,x5	  x1:0xfffffffc  x5:0x00000006  x3=0xfffffffa
       42255000	      4224	800020f4	0389e213	ori	x4,x19,56	 x19:0x51f2a114  x4=0x51f2a13c
       42265000	      4225	800020f8	004fe4b3	or	x9,x31,x4	 x31:0xf153c000  x4:0x51f2a13c  x9=0xf1f3e13c
       42275000	      4226	800020fc	fff28293	addi	x5,x5,-1	  x5:0x00000006  x5=0x00000005
       42285000	      4227	80002100	fec2f6e3	bgeu	x5,x12,800020ec	  x5:0x00000005 x12:0x00000003
       42295000	      4228	00000000	00000013	addi	x0,x0,0	  x0:0x00000000
       42305000	      4229	800020e8	00000013	addi	x0,x0,0	  x0:0x00000000
       42315000	      4230	800020ec	7c65ed13	ori	x26,x11,1990	 x11:0x00000000 x26=0x000007c6
       42325000	      4231	800020f0	0050c1b3	xor	x3,x1,x5	  x1:0xfffffffc  x5:0x00000005  x3=0xfffffff9
       42335000	      4232	800020f4	0389e213	ori	x4,x19,56	 x19:0x51f2a114  x4=0x51f2a13c
       42345000	      4233	800020f8	004fe4b3	or	x9,x31,x4	 x31:0xf153c000  x4:0x51f2a13c  x9=0xf1f3e13c
       42355000	      4234	800020fc	fff28293	addi	x5,x5,-1	  x5:0x00000005  x5=0x00000004
       42365000	      4235	80002100	fec2f6e3	bgeu	x5,x12,800020ec	  x5:0x00000004 x12:0x00000003
       42375000	      4236	00000000	00000013	addi	x0,x0,0	  x0:0x00000000
       42385000	      4237	800020e8	00000013	addi	x0,x0,0	  x0:0x00000000
       42395000	      4238	800020ec	7c65ed13	ori	x26,x11,1990	 x11:0x00000000 x26=0x000007c6
       42405000	      4239	800020f0	0050c1b3	xor	x3,x1,x5	  x1:0xfffffffc  x5:0x00000004  x3=0xfffffff8
       42415000	      4240	800020f4	0389e213	ori	x4,x19,56	 x19:0x51f2a114  x4=0x51f2a13c
       42425000	      4241	800020f8	004fe4b3	or	x9,x31,x4	 x31:0xf153c000  x4:0x51f2a13c  x9=0xf1f3e13c
       42435000	      4242	800020fc	fff28293	addi	x5,x5,-1	  x5:0x00000004  x5=0x00000003
       42445000	      4243	80002100	fec2f6e3	bgeu	x5,x12,800020ec	  x5:0x00000003 x12:0x00000003
       42455000	      4244	00000000	00000013	addi	x0,x0,0	  x0:0x00000000
       42465000	      4245	800020e8	00000013	addi	x0,x0,0	  x0:0x00000000
       42475000	      4246	800020ec	7c65ed13	ori	x26,x11,1990	 x11:0x00000000 x26=0x000007c6
       42485000	      4247	800020f0	0050c1b3	xor	x3,x1,x5	  x1:0xfffffffc  x5:0x00000003  x3=0xffffffff
       42495000	      4248	800020f4	0389e213	ori	x4,x19,56	 x19:0x51f2a114  x4=0x51f2a13c
       42505000	      4249	800020f8	004fe4b3	or	x9,x31,x4	 x31:0xf153c000  x4:0x51f2a13c  x9=0xf1f3e13c
       42515000	      4250	800020fc	fff28293	addi	x5,x5,-1	  x5:0x00000003  x5=0x00000002
       42525000	      4251	80002100	fec2f6e3	bgeu	x5,x12,800020ec	  x5:0x00000002 x12:0x00000003
       42535000	      4252	80002104	b5598413	addi	x8,x19,-1195	 x19:0x51f2a114  x8=0x51f29c69
       42545000	      4253	80002108	004ea0b3	slt	x1,x29,x4	 x29:0x00000000  x4:0x51f2a13c  x1=0x00000001
       42555000	      4254	8000210c	1288bdb7	lui	x27,0x1288b	 x27=0x1288b000
       42565000	      4255	80002110	419580b3	sub	x1,x11,x25	 x11:0x00000000 x25:0x00000004  x1=0xfffffffc
       42575000	      4256	80002114	003dd113	srli	x2,x27,0x3	 x27:0x1288b000  x2=0x02511600
       42585000	      4257	80002118	d1f28997	auipc	x19,0xd1f28	 x19=0x51f2a114
       42595000	      4258	8000211c	fa6ad0e3	bge	x21,x6,800020bc	 x21:0xfffffff3  x6:0xfffffff1
       42605000	      4259	00000000	00000013	addi	x0,x0,0	  x0:0x00000000
       42615000	      4260	800020b8	00000013	addi	x0,x0,0	  x0:0x00000000
       42625000	      4261	800020bc	32276593	ori	x11,x14,802	 x14:0x00000001 x11=0x00000323
       42635000	      4262	800020c0	404806b3	sub	x13,x16,x4	 x16:0x00000000  x4:0x51f2a13c x13=0xae0d5ec4
       42645000	      4263	800020c4	ffba8a93	addi	x21,x21,-5	 x21:0xfffffff3 x21=0xffffffee
       42655000	      4264	800020c8	00800293	addi	x5,x0,8	  x0:0x00000000  x5=0x00000008
       42665000	      4265	800020cc	41b9d8b3	sra	x17,x19,x27	 x19:0x51f2a114 x27:0x1288b000 x17=0x51f2a114
       42675000	      4266	800020d0	41a65813	srai	x16,x12,0x1a	 x12:0x00000003 x16=0x00000000
       42685000	      4267	800020d4	41a95e13	srai	x28,x18,0x1a	 x18:0x523f5ca2 x28=0x00000014
       42695000	      4268	800020d8	00300613	addi	x12,x0,3	  x0:0x00000000 x12=0x00000003
       42705000	      4269	800020dc	00975013	srli	x0,x14,0x9	 x14:0x00000001
       42715000	      4270	800020e0	e8dbee13	ori	x28,x23,-371	 x23:0x80009fc4 x28=0xffffffcd
       42725000	      4271	800020e4	27852593	slti	x11,x10,632	 x10:0x000007b3 x11=0x00000000
       42735000	      4272	800020e8	9b97f713	andi	x14,x15,-1607	 x15:0x00000001 x14=0x00000001
       42745000	      4273	800020ec	7c65ed13	ori	x26,x11,1990	 x11:0x00000000 x26=0x000007c6
       42755000	      4274	800020f0	0050c1b3	xor	x3,x1,x5	  x1:0xfffffffc  x5:0x00000008  x3=0xfffffff4
       42765000	      4275	800020f4	0389e213	ori	x4,x19,56	 x19:0x51f2a114  x4=0x51f2a13c
       42775000	      4276	800020f8	004fe4b3	or	x9,x31,x4	 x31:0xf153c000  x4:0x51f2a13c  x9=0xf1f3e13c
       42785000	      4277	800020fc	fff28293	addi	x5,x5,-1	  x5:0x00000008  x5=0x00000007
       42795000	      4278	80002100	fec2f6e3	bgeu	x5,x12,800020ec	  x5:0x00000007 x12:0x00000003
       42805000	      4279	00000000	00000013	addi	x0,x0,0	  x0:0x00000000
       42815000	      4280	800020e8	00000013	addi	x0,x0,0	  x0:0x00000000
       42825000	      4281	800020ec	7c65ed13	ori	x26,x11,1990	 x11:0x00000000 x26=0x000007c6
       42835000	      4282	800020f0	0050c1b3	xor	x3,x1,x5	  x1:0xfffffffc  x5:0x00000007  x3=0xfffffffb
       42845000	      4283	800020f4	0389e213	ori	x4,x19,56	 x19:0x51f2a114  x4=0x51f2a13c
       42855000	      4284	800020f8	004fe4b3	or	x9,x31,x4	 x31:0xf153c000  x4:0x51f2a13c  x9=0xf1f3e13c
       42865000	      4285	800020fc	fff28293	addi	x5,x5,-1	  x5:0x00000007  x5=0x00000006
       42875000	      4286	80002100	fec2f6e3	bgeu	x5,x12,800020ec	  x5:0x00000006 x12:0x00000003
       42885000	      4287	00000000	00000013	addi	x0,x0,0	  x0:0x00000000
       42895000	      4288	800020e8	00000013	addi	x0,x0,0	  x0:0x00000000
       42905000	      4289	800020ec	7c65ed13	ori	x26,x11,1990	 x11:0x00000000 x26=0x000007c6
       42915000	      4290	800020f0	0050c1b3	xor	x3,x1,x5	  x1:0xfffffffc  x5:0x00000006  x3=0xfffffffa
       42925000	      4291	800020f4	0389e213	ori	x4,x19,56	 x19:0x51f2a114  x4=0x51f2a13c
       42935000	      4292	800020f8	004fe4b3	or	x9,x31,x4	 x31:0xf153c000  x4:0x51f2a13c  x9=0xf1f3e13c
       42945000	      4293	800020fc	fff28293	addi	x5,x5,-1	  x5:0x00000006  x5=0x00000005
       42955000	      4294	80002100	fec2f6e3	bgeu	x5,x12,800020ec	  x5:0x00000005 x12:0x00000003
       42965000	      4295	00000000	00000013	addi	x0,x0,0	  x0:0x00000000
       42975000	      4296	800020e8	00000013	addi	x0,x0,0	  x0:0x00000000
       42985000	      4297	800020ec	7c65ed13	ori	x26,x11,1990	 x11:0x00000000 x26=0x000007c6
       42995000	      4298	800020f0	0050c1b3	xor	x3,x1,x5	  x1:0xfffffffc  x5:0x00000005  x3=0xfffffff9
       43005000	      4299	800020f4	0389e213	ori	x4,x19,56	 x19:0x51f2a114  x4=0x51f2a13c
       43015000	      4300	800020f8	004fe4b3	or	x9,x31,x4	 x31:0xf153c000  x4:0x51f2a13c  x9=0xf1f3e13c
       43025000	      4301	800020fc	fff28293	addi	x5,x5,-1	  x5:0x00000005  x5=0x00000004
       43035000	      4302	80002100	fec2f6e3	bgeu	x5,x12,800020ec	  x5:0x00000004 x12:0x00000003
       43045000	      4303	00000000	00000013	addi	x0,x0,0	  x0:0x00000000
       43055000	      4304	800020e8	00000013	addi	x0,x0,0	  x0:0x00000000
       43065000	      4305	800020ec	7c65ed13	ori	x26,x11,1990	 x11:0x00000000 x26=0x000007c6
       43075000	      4306	800020f0	0050c1b3	xor	x3,x1,x5	  x1:0xfffffffc  x5:0x00000004  x3=0xfffffff8
       43085000	      4307	800020f4	0389e213	ori	x4,x19,56	 x19:0x51f2a114  x4=0x51f2a13c
       43095000	      4308	800020f8	004fe4b3	or	x9,x31,x4	 x31:0xf153c000  x4:0x51f2a13c  x9=0xf1f3e13c
       43105000	      4309	800020fc	fff28293	addi	x5,x5,-1	  x5:0x00000004  x5=0x00000003
       43115000	      4310	80002100	fec2f6e3	bgeu	x5,x12,800020ec	  x5:0x00000003 x12:0x00000003
       43125000	      4311	00000000	00000013	addi	x0,x0,0	  x0:0x00000000
       43135000	      4312	800020e8	00000013	addi	x0,x0,0	  x0:0x00000000
       43145000	      4313	800020ec	7c65ed13	ori	x26,x11,1990	 x11:0x00000000 x26=0x000007c6
       43155000	      4314	800020f0	0050c1b3	xor	x3,x1,x5	  x1:0xfffffffc  x5:0x00000003  x3=0xffffffff
       43165000	      4315	800020f4	0389e213	ori	x4,x19,56	 x19:0x51f2a114  x4=0x51f2a13c
       43175000	      4316	800020f8	004fe4b3	or	x9,x31,x4	 x31:0xf153c000  x4:0x51f2a13c  x9=0xf1f3e13c
       43185000	      4317	800020fc	fff28293	addi	x5,x5,-1	  x5:0x00000003  x5=0x00000002
       43195000	      4318	80002100	fec2f6e3	bgeu	x5,x12,800020ec	  x5:0x00000002 x12:0x00000003
       43205000	      4319	80002104	b5598413	addi	x8,x19,-1195	 x19:0x51f2a114  x8=0x51f29c69
       43215000	      4320	80002108	004ea0b3	slt	x1,x29,x4	 x29:0x00000000  x4:0x51f2a13c  x1=0x00000001
       43225000	      4321	8000210c	1288bdb7	lui	x27,0x1288b	 x27=0x1288b000
       43235000	      4322	80002110	419580b3	sub	x1,x11,x25	 x11:0x00000000 x25:0x00000004  x1=0xfffffffc
       43245000	      4323	80002114	003dd113	srli	x2,x27,0x3	 x27:0x1288b000  x2=0x02511600
       43255000	      4324	80002118	d1f28997	auipc	x19,0xd1f28	 x19=0x51f2a114
       43265000	      4325	8000211c	fa6ad0e3	bge	x21,x6,800020bc	 x21:0xffffffee  x6:0xfffffff1
       43275000	      4326	80002120	040a0c93	addi	x25,x20,64	 x20:0x000007b4 x25=0x000007f4
       43285000	      4327	80002124	6b65a0b7	lui	x1,0x6b65a	  x1=0x6b65a000
       43295000	      4328	80002128	038dda63	bge	x27,x24,8000215c	 x27:0x1288b000 x24:0x00000000
       43305000	      4329	00000000	00000013	addi	x0,x0,0	  x0:0x00000000
       43315000	      4330	80002158	00000013	addi	x0,x0,0	  x0:0x00000000
       43325000	      4331	8000215c	da98a593	slti	x11,x17,-599	 x17:0x51f2a114 x11=0x00000000
       43335000	      4332	80002160	4159ddb3	sra	x27,x19,x21	 x19:0x51f2a114 x21:0xffffffee x27=0x000147ca
       43345000	      4333	80002164	01f432b3	sltu	x5,x8,x31	  x8:0x51f29c69 x31:0xf153c000  x5=0x00000001
       43355000	      4334	80002168	50539f97	auipc	x31,0x50539	 x31=0xd053b164
       43365000	      4335	8000216c	00115833	srl	x16,x2,x1	  x2:0x02511600  x1:0x6b65a000 x16=0x02511600
       43375000	      4336	80002170	01a2ec33	or	x24,x5,x26	  x5:0x00000001 x26:0x000007c6 x24=0x000007c7
       43385000	      4337	80002174	4d794313	xori	x6,x18,1239	 x18:0x523f5ca2  x6=0x523f5875
       43395000	      4338	80002178	7c97ae13	slti	x28,x15,1993	 x15:0x00000001 x28=0x00000001
       43405000	      4339	8000217c	6d357a13	andi	x20,x10,1747	 x10:0x000007b3 x20=0x00000693
       43415000	      4340	80002180	01c77d33	and	x26,x14,x28	 x14:0x00000001 x28:0x00000001 x26=0x00000001
       43425000	      4341	80002184	00711233	sll	x4,x2,x7	  x2:0x02511600  x7:0x91dc35ca  x4=0x44580000
       43435000	      4342	80002188	01fc9833	sll	x16,x25,x31	 x25:0x000007f4 x31:0xd053b164 x16=0x00007f40
       43445000	      4343	8000218c	bbe36613	ori	x12,x6,-1090	  x6:0x523f5875 x12=0xfffffbff
       43455000	      4344	80002190	015d7733	and	x14,x26,x21	 x26:0x00000001 x21:0xffffffee x14=0x00000000
       43465000	      4345	80002194	3cfa6d13	ori	x26,x20,975	 x20:0x00000693 x26=0x000007df
       43475000	      4346	80002198	fd7c0cb7	lui	x25,0xfd7c0	 x25=0xfd7c0000
       43485000	      4347	8000219c	01205cb3	srl	x25,x0,x18	  x0:0x00000000 x18:0x523f5ca2 x25=0x00000000
       43495000	      4348	800021a0	16378493	addi	x9,x15,355	 x15:0x00000001  x9=0x00000164
       43505000	      4349	800021a4	41e205b3	sub	x11,x4,x30	  x4:0x44580000 x30:0x80009f70 x11=0xc4576090
       43515000	      4350	800021a8	9816e593	ori	x11,x13,-1663	 x13:0xae0d5ec4 x11=0xffffffc5
       43525000	      4351	800021ac	403c0833	sub	x16,x24,x3	 x24:0x000007c7  x3:0xffffffff x16=0x000007c8
       43535000	      4352	800021b0	03b0fc63	bgeu	x1,x27,800021e8	  x1:0x6b65a000 x27:0x000147ca
       43545000	      4353	00000000	00000013	addi	x0,x0,0	  x0:0x00000000
       43555000	      4354	800021e4	00000013	addi	x0,x0,0	  x0:0x00000000
       43565000	      4355	800021e8	40745913	srai	x18,x8,0x7	  x8:0x51f29c69 x18=0x00a3e538
       43575000	      4356	800021ec	01c5da13	srli	x20,x11,0x1c	 x11:0xffffffc5 x20=0x0000000f
       43585000	      4357	800021f0	016d1033	sll	x0,x26,x22	 x26:0x000007df x22:0x00000050
       43595000	      4358	800021f4	3ed42e13	slti	x28,x8,1005	  x8:0x51f29c69 x28=0x00000000
       43605000	      4359	800021f8	c5376693	ori	x13,x14,-941	 x14:0x00000000 x13=0xfffffc53
       43615000	      4360	800021fc	75226113	ori	x2,x4,1874	  x4:0x44580000  x2=0x44580752
       43625000	      4361	80002200	00936933	or	x18,x6,x9	  x6:0x523f5875  x9:0x00000164 x18=0x523f5975
       43635000	      4362	80002204	05be9263	bne	x29,x27,80002248	 x29:0x00000000 x27:0x000147ca
       43645000	      4363	00000000	00000013	addi	x0,x0,0	  x0:0x00000000
       43655000	      4364	80002244	00000013	addi	x0,x0,0	  x0:0x00000000
       43665000	      4365	80002248	003998b3	sll	x17,x19,x3	 x19:0x51f2a114  x3:0xffffffff x17=0x00000000
       43675000	      4366	8000224c	99537893	andi	x17,x6,-1643	  x6:0x523f5875 x17=0x523f5815
       43685000	      4367	80002250	01670db3	add	x27,x14,x22	 x14:0x00000000 x22:0x00000050 x27=0x00000050
       43695000	      4368	80002254	002e0b33	add	x22,x28,x2	 x28:0x00000000  x2:0x44580752 x22=0x44580752
       43705000	      4369	80002258	00b245b3	xor	x11,x4,x11	  x4:0x44580000 x11:0xffffffc5 x11=0xbba7ffc5
       43715000	      4370	8000225c	00bc9eb3	sll	x29,x25,x11	 x25:0x00000000 x11:0xbba7ffc5 x29=0x00000000
       43725000	      4371	80002260	00d54463	blt	x10,x13,80002268	 x10:0x000007b3 x13:0xfffffc53
       43735000	      4372	80002264	014c8eb3	add	x29,x25,x20	 x25:0x00000000 x20:0x0000000f x29=0x0000000f
       43745000	      4373	80002268	0061c5b3	xor	x11,x3,x6	  x3:0xffffffff  x6:0x523f5875 x11=0xadc0a78a
       43755000	      4374	8000226c	00000013	addi	x0,x0,0	  x0:0x00000000
       43765000	      4375	80002270	4031dfb3	sra	x31,x3,x3	  x3:0xffffffff  x3:0xffffffff x31=0xffffffff
       43775000	      4376	80002274	03755a63	bge	x10,x23,800022a8	 x10:0x000007b3 x23:0x80009fc4
       43785000	      4377	00000000	00000013	addi	x0,x0,0	  x0:0x00000000
       43795000	      4378	800022a4	00000013	addi	x0,x0,0	  x0:0x00000000
       43805000	      4379	800022a8	01e3d7b3	srl	x15,x7,x30	  x7:0x91dc35ca x30:0x80009f70 x15=0x000091dc
       43815000	      4380	800022ac	6cc04b13	xori	x22,x0,1740	  x0:0x00000000 x22=0x000006cc
       43825000	      4381	800022b0	019348b3	xor	x17,x6,x25	  x6:0x523f5875 x25:0x00000000 x17=0x523f5875
       43835000	      4382	800022b4	05f55663	bge	x10,x31,80002300	 x10:0x000007b3 x31:0xffffffff
       43845000	      4383	00000000	00000013	addi	x0,x0,0	  x0:0x00000000
       43855000	      4384	800022fc	00000013	addi	x0,x0,0	  x0:0x00000000
       43865000	      4385	80002300	84f571b7	lui	x3,0x84f57	  x3=0x84f57000
       43875000	      4386	80002304	01a25093	srli	x1,x4,0x1a	  x4:0x44580000  x1=0x00000011
       43885000	      4387	80002308	019f24b3	slt	x9,x30,x25	 x30:0x80009f70 x25:0x00000000  x9=0x00000001
       43895000	      4388	8000230c	40750333	sub	x6,x10,x7	 x10:0x000007b3  x7:0x91dc35ca  x6=0x6e23d1e9
       43905000	      4389	80002310	02ed8663	beq	x27,x14,8000233c	 x27:0x00000050 x14:0x00000000
       43915000	      4390	80002314	03337663	bgeu	x6,x19,80002340	  x6:0x6e23d1e9 x19:0x51f2a114
       43925000	      4391	00000000	00000013	addi	x0,x0,0	  x0:0x00000000
       43935000	      4392	8000233c	00000013	addi	x0,x0,0	  x0:0x00000000
       43945000	      4393	80002340	c7192993	slti	x19,x18,-911	 x18:0x523f5975 x19=0x00000000
       43955000	      4394	80002344	cef64a13	xori	x20,x12,-785	 x12:0xfffffbff x20=0x00000710
       43965000	      4395	80002348	9a113d13	sltiu	x26,x2,-1631	  x2:0x44580752 x26=0x00000001
       43975000	      4396	8000234c	05038263	beq	x7,x16,80002390	  x7:0x91dc35ca x16:0x000007c8
       43985000	      4397	80002350	01d88833	add	x16,x17,x29	 x17:0x523f5875 x29:0x0000000f x16=0x523f5884
       43995000	      4398	80002354	41d4d4b3	sra	x9,x9,x29	  x9:0x00000001 x29:0x0000000f  x9=0x00000000
       44005000	      4399	80002358	006ace33	xor	x28,x21,x6	 x21:0xffffffee  x6:0x6e23d1e9 x28=0x91dc2e07
       44015000	      4400	8000235c	d3a70213	addi	x4,x14,-710	 x14:0x00000000  x4=0xfffffd3a
       44025000	      4401	80002360	2517ca93	xori	x21,x15,593	 x15:0x000091dc x21=0x0000938d
       44035000	      4402	80002364	dfe6f793	andi	x15,x13,-514	 x13:0xfffffc53 x15=0xfffffc52
       44045000	      4403	80002368	9a09e313	ori	x6,x19,-1632	 x19:0x00000000  x6=0xfffff9a0
       44055000	      4404	8000236c	cb76f893	andi	x17,x13,-841	 x13:0xfffffc53 x17=0xfffffc13
       44065000	      4405	80002370	84809e37	lui	x28,0x84809	 x28=0x84809000
       44075000	      4406	80002374	018db333	sltu	x6,x27,x24	 x27:0x00000050 x24:0x000007c7  x6=0x00000001
       44085000	      4407	80002378	004b12b3	sll	x5,x22,x4	 x22:0x000006cc  x4:0xfffffd3a  x5=0x30000000
       44095000	      4408	8000237c	04f84663	blt	x16,x15,800023c8	 x16:0x523f5884 x15:0xfffffc52
       44105000	      4409	80002380	d908cf93	xori	x31,x17,-624	 x17:0xfffffc13 x31=0x00000183
       44115000	      4410	80002384	697ac613	xori	x12,x21,1687	 x21:0x0000938d x12=0x0000951a
       44125000	      4411	80002388	00000013	addi	x0,x0,0	  x0:0x00000000
       44135000	      4412	8000238c	000eba33	sltu	x20,x29,x0	 x29:0x0000000f  x0:0x00000000 x20=0x00000000
       44145000	      4413	80002390	033d5e63	bge	x26,x19,800023cc	 x26:0x00000001 x19:0x00000000
       44155000	      4414	00000000	00000013	addi	x0,x0,0	  x0:0x00000000
       44165000	      4415	800023c8	00000013	addi	x0,x0,0	  x0:0x00000000
       44175000	      4416	800023cc	00cd9913	slli	x18,x27,0xc	 x27:0x00000050 x18=0x00050000
       44185000	      4417	800023d0	026f5263	bge	x30,x6,800023f4	 x30:0x80009f70  x6:0x00000001
       44195000	      4418	800023d4	b267b8b7	lui	x17,0xb267b	 x17=0xb267b000
       44205000	      4419	800023d8	11027017	auipc	x0,0x11027	
       44215000	      4420	800023dc	0002edb3	or	x27,x5,x0	  x5:0x30000000  x0:0x00000000 x27=0x30000000
       44225000	      4421	800023e0	c80b7313	andi	x6,x22,-896	 x22:0x000006cc  x6=0x00000480
       44235000	      4422	800023e4	020ad463	bge	x21,x0,8000240c	 x21:0x0000938d  x0:0x00000000
       44245000	      4423	00000000	00000013	addi	x0,x0,0	  x0:0x00000000
       44255000	      4424	80002408	00000013	addi	x0,x0,0	  x0:0x00000000
       44265000	      4425	8000240c	01834333	xor	x6,x6,x24	  x6:0x00000480 x24:0x000007c7  x6=0x00000347
       44275000	      4426	80002410	00595d13	srli	x26,x18,0x5	 x18:0x00050000 x26=0x00002800
       44285000	      4427	80002414	0254ca63	blt	x9,x5,80002448	  x9:0x00000000  x5:0x30000000
       44295000	      4428	00000000	00000013	addi	x0,x0,0	  x0:0x00000000
       44305000	      4429	80002444	00000013	addi	x0,x0,0	  x0:0x00000000
       44315000	      4430	80002448	2e822213	slti	x4,x4,744	  x4:0xfffffd3a  x4=0x00000001
       44325000	      4431	8000244c	40e1dc13	srai	x24,x3,0xe	  x3:0x84f57000 x24=0xfffe13d5
       44335000	      4432	80002450	01f6b233	sltu	x4,x13,x31	 x13:0xfffffc53 x31:0x00000183  x4=0x00000000
       44345000	      4433	80002454	4dfb3117	auipc	x2,0x4dfb3	  x2=0xcdfb5450
       44355000	      4434	80002458	00fd4263	blt	x26,x15,8000245c	 x26:0x00002800 x15:0xfffffc52
       44365000	      4435	8000245c	01dada63	bge	x21,x29,80002470	 x21:0x0000938d x29:0x0000000f
       44375000	      4436	00000000	00000013	addi	x0,x0,0	  x0:0x00000000
       44385000	      4437	8000246c	00000013	addi	x0,x0,0	  x0:0x00000000
       44395000	      4438	80002470	0012bfb3	sltu	x31,x5,x1	  x5:0x30000000  x1:0x00000011 x31=0x00000000
       44405000	      4439	80002474	01ad88b3	add	x17,x27,x26	 x27:0x30000000 x26:0x00002800 x17=0x30002800
       44415000	      4440	80002478	01f42733	slt	x14,x8,x31	  x8:0x51f29c69 x31:0x00000000 x14=0x00000000
       44425000	      4441	8000247c	02a04063	blt	x0,x10,8000249c	  x0:0x00000000 x10:0x000007b3
       44435000	      4442	00000000	00000013	addi	x0,x0,0	  x0:0x00000000
       44445000	      4443	80002498	00000013	addi	x0,x0,0	  x0:0x00000000
       44455000	      4444	8000249c	008e1333	sll	x6,x28,x8	 x28:0x84809000  x8:0x51f29c69  x6=0x01200000
       44465000	      4445	800024a0	41b7d433	sra	x8,x15,x27	 x15:0xfffffc52 x27:0x30000000  x8=0xfffffc52
       44475000	      4446	800024a4	01899513	slli	x10,x19,0x18	 x19:0x00000000 x10=0x00000000
       44485000	      4447	800024a8	00136263	bltu	x6,x1,800024ac	  x6:0x01200000  x1:0x00000011
       44495000	      4448	800024ac	0177ceb3	xor	x29,x15,x23	 x15:0xfffffc52 x23:0x80009fc4 x29=0x7fff6396
       44505000	      4449	800024b0	04a14663	blt	x2,x10,800024fc	  x2:0xcdfb5450 x10:0x00000000
       44515000	      4450	00000000	00000013	addi	x0,x0,0	  x0:0x00000000
       44525000	      4451	800024f8	00000013	addi	x0,x0,0	  x0:0x00000000
       44535000	      4452	800024fc	01097e63	bgeu	x18,x16,80002518	 x18:0x00050000 x16:0x523f5884
       44545000	      4453	80002500	c17935b7	lui	x11,0xc1793	 x11=0xc1793000
       44555000	      4454	80002504	411c5733	sra	x14,x24,x17	 x24:0xfffe13d5 x17:0x30002800 x14=0xfffe13d5
       44565000	      4455	80002508	f66ebe13	sltiu	x28,x29,-154	 x29:0x7fff6396 x28=0x00000001
       44575000	      4456	8000250c	8c347493	andi	x9,x8,-1853	  x8:0xfffffc52  x9=0xfffff842
       44585000	      4457	80002510	012e24b3	slt	x9,x28,x18	 x28:0x00000001 x18:0x00050000  x9=0x00000001
       44595000	      4458	80002514	5fb02593	slti	x11,x0,1531	  x0:0x00000000 x11=0x00000001
       44605000	      4459	80002518	a858fd93	andi	x27,x17,-1403	 x17:0x30002800 x27=0x30002800
       44615000	      4460	8000251c	9fedc113	xori	x2,x27,-1538	 x27:0x30002800  x2=0xcfffd1fe
       44625000	      4461	80002520	eb7a8293	addi	x5,x21,-329	 x21:0x0000938d  x5=0x00009244
       44635000	      4462	80002524	00000013	addi	x0,x0,0	  x0:0x00000000
       44645000	      4463	80002528	7c3c0f93	addi	x31,x24,1987	 x24:0xfffe13d5 x31=0xfffe1b98
       44655000	      4464	8000252c	01dc5e33	srl	x28,x24,x29	 x24:0xfffe13d5 x29:0x7fff6396 x28=0x000003ff
       44665000	      4465	80002530	00000013	addi	x0,x0,0	  x0:0x00000000
       44675000	      4466	80002534	4078d833	sra	x16,x17,x7	 x17:0x30002800  x7:0x91dc35ca x16=0x000c000a
       44685000	      4467	80002538	004b4a63	blt	x22,x4,8000254c	 x22:0x000006cc  x4:0x00000000
       44695000	      4468	8000253c	40225b13	srai	x22,x4,0x2	  x4:0x00000000 x22=0x00000000
       44705000	      4469	80002540	05d1c863	blt	x3,x29,80002590	  x3:0x84f57000 x29:0x7fff6396
       44715000	      4470	00000000	00000013	addi	x0,x0,0	  x0:0x00000000
       44725000	      4471	8000258c	00000013	addi	x0,x0,0	  x0:0x00000000
       44735000	      4472	80002590	00630833	add	x16,x6,x6	  x6:0x01200000  x6:0x01200000 x16=0x02400000
       44745000	      4473	80002594	0350fe63	bgeu	x1,x21,800025d0	  x1:0x00000011 x21:0x0000938d
       44755000	      4474	80002598	00930263	beq	x6,x9,8000259c	  x6:0x01200000  x9:0x00000001
       44765000	      4475	8000259c	02e81063	bne	x16,x14,800025bc	 x16:0x02400000 x14:0xfffe13d5
       44775000	      4476	00000000	00000013	addi	x0,x0,0	  x0:0x00000000
       44785000	      4477	800025b8	00000013	addi	x0,x0,0	  x0:0x00000000
       44795000	      4478	800025bc	ff3b4613	xori	x12,x22,-13	 x22:0x00000000 x12=0xfffffff3
       44805000	      4479	800025c0	404bdc13	srai	x24,x23,0x4	 x23:0x80009fc4 x24=0xf80009fc
       44815000	      4480	800025c4	00824933	xor	x18,x4,x8	  x4:0x00000000  x8:0xfffffc52 x18=0xfffffc52
       44825000	      4481	800025c8	019d6463	bltu	x26,x25,800025d0	 x26:0x00002800 x25:0x00000000
       44835000	      4482	800025cc	0079cc33	xor	x24,x19,x7	 x19:0x00000000  x7:0x91dc35ca x24=0x91dc35ca
       44845000	      4483	800025d0	0028f933	and	x18,x17,x2	 x17:0x30002800  x2:0xcfffd1fe x18=0x00000000
       44855000	      4484	800025d4	004f2983	lw	x19,4(x30)	 x30:0x80009f70 x19=0x80000adc PA:0x80009f74
       44865000	      4485	800025d8	008e9493	slli	x9,x29,0x8	 x29:0x7fff6396  x9=0xff639600
       44875000	      4486	800025dc	00000013	addi	x0,x0,0	  x0:0x00000000
       44885000	      4487	800025e0	3c4c3d13	sltiu	x26,x24,964	 x24:0x91dc35ca x26=0x00000000
       44895000	      4488	800025e4	0073d293	srli	x5,x7,0x7	  x7:0x91dc35ca  x5=0x0123b86b
       44905000	      4489	800025e8	014f0f13	addi	x30,x30,20	 x30:0x80009f70 x30=0x80009f84
       44915000	      4490	800025ec	0d132a13	slti	x20,x6,209	  x6:0x01200000 x20=0x00000000
       44925000	      4491	800025f0	00198693	addi	x13,x19,1	 x19:0x80000adc x13=0x80000add
       44935000	      4492	800025f4	000686e7	jalr	x13,x13,0	 x13:0x80000add x13=0x800025f4
       44945000	      4493	00000000	00000013	addi	x0,x0,0	  x0:0x00000000
       44955000	      4494	80000adc	00000013	addi	x0,x0,0	  x0:0x00000000
       44965000	      4495	80000ae0	9bf1a793	slti	x15,x3,-1601	  x3:0x84f57000 x15=0x00000001
       44975000	      4496	80000ae4	87e67213	andi	x4,x12,-1922	 x12:0xfffffff3  x4=0xfffff872
       44985000	      4497	80000ae8	9f6cbf93	sltiu	x31,x25,-1546	 x25:0x00000000 x31=0x00000001
       44995000	      4498	80000aec	0112c4b3	xor	x9,x5,x17	  x5:0x0123b86b x17:0x30002800  x9=0x3123906b
       45005000	      4499	80000af0	019734b3	sltu	x9,x14,x25	 x14:0xfffe13d5 x25:0x00000000  x9=0x00000000
       45015000	      4500	80000af4	006b1333	sll	x6,x22,x6	 x22:0x00000000  x6:0x01200000  x6=0x00000000
       45025000	      4501	80000af8	01c88033	add	x0,x17,x28	 x17:0x30002800 x28:0x000003ff
       45035000	      4502	80000afc	04a84263	blt	x16,x10,80000b40	 x16:0x02400000 x10:0x00000000
       45045000	      4503	80000b00	e9fce813	ori	x16,x25,-353	 x25:0x00000000 x16=0xfffffe9f
       45055000	      4504	80000b04	01b23cb3	sltu	x25,x4,x27	  x4:0xfffff872 x27:0x30002800 x25=0x00000000
       45065000	      4505	80000b08	0076ae33	slt	x28,x13,x7	 x13:0x800025f4  x7:0x91dc35ca x28=0x00000001
       45075000	      4506	80000b0c	00524433	xor	x8,x4,x5	  x4:0xfffff872  x5:0x0123b86b  x8=0xfedc4019
       45085000	      4507	80000b10	010eac33	slt	x24,x29,x16	 x29:0x7fff6396 x16:0xfffffe9f x24=0x00000000
       45095000	      4508	80000b14	026fee63	bltu	x31,x6,80000b50	 x31:0x00000001  x6:0x00000000
       45105000	      4509	80000b18	01c29a63	bne	x5,x28,80000b2c	  x5:0x0123b86b x28:0x00000001
       45115000	      4510	00000000	00000013	addi	x0,x0,0	  x0:0x00000000
       45125000	      4511	80000b28	00000013	addi	x0,x0,0	  x0:0x00000000
       45135000	      4512	80000b2c	002ea9b3	slt	x19,x29,x2	 x29:0x7fff6396  x2:0xcfffd1fe x19=0x00000000
       45145000	      4513	80000b30	00f61263	bne	x12,x15,80000b34	 x12:0xfffffff3 x15:0x00000001
       45155000	      4514	00000000	00000013	addi	x0,x0,0	  x0:0x00000000
       45165000	      4515	80000b30	00000013	addi	x0,x0,0	  x0:0x00000000
       45175000	      4516	80000b34	ed538493	addi	x9,x7,-299	  x7:0x91dc35ca  x9=0x91dc349f
       45185000	      4517	80000b38	01d08263	beq	x1,x29,80000b3c	  x1:0x00000011 x29:0x7fff6396
       45195000	      4518	80000b3c	0085de33	srl	x28,x11,x8	 x11:0x00000001  x8:0xfedc4019 x28=0x00000000
       45205000	      4519	80000b40	0f8c3497	auipc	x9,0xf8c3	  x9=0x8f8c3b3c
       45215000	      4520	80000b44	03848113	addi	x2,x9,56	  x9:0x8f8c3b3c  x2=0x8f8c3b74
       45225000	      4521	80000b48	004c1d93	slli	x27,x24,0x4	 x24:0x00000000 x27=0x00000000
       45235000	      4522	80000b4c	0005c663	blt	x11,x0,80000b58	 x11:0x00000001  x0:0x00000000
       45245000	      4523	80000b50	005d79b3	and	x19,x26,x5	 x26:0x00000000  x5:0x0123b86b x19=0x00000000
       45255000	      4524	80000b54	41f500b3	sub	x1,x10,x31	 x10:0x00000000 x31:0x00000001  x1=0xffffffff
       45265000	      4525	80000b58	009e9513	slli	x10,x29,0x9	 x29:0x7fff6396 x10=0xfec72c00
       45275000	      4526	80000b5c	00e7a933	slt	x18,x15,x14	 x15:0x00000001 x14:0xfffe13d5 x18=0x00000000
       45285000	      4527	80000b60	00234cb3	xor	x25,x6,x2	  x6:0x00000000  x2:0x8f8c3b74 x25=0x8f8c3b74
       45295000	      4528	80000b64	040c4a17	auipc	x20,0x40c4	 x20=0x840c4b60
       45305000	      4529	80000b68	00000013	addi	x0,x0,0	  x0:0x00000000
       45315000	      4530	80000b6c	3eb7fb37	lui	x22,0x3eb7f	 x22=0x3eb7f000
       45325000	      4531	80000b70	014e86b3	add	x13,x29,x20	 x29:0x7fff6396 x20:0x840c4b60 x13=0x040baef6
       45335000	      4532	80000b74	a1ba7593	andi	x11,x20,-1509	 x20:0x840c4b60 x11=0x840c4a00
       45345000	      4533	80000b78	00000013	addi	x0,x0,0	  x0:0x00000000
       45355000	      4534	80000b7c	011142b3	xor	x5,x2,x17	  x2:0x8f8c3b74 x17:0x30002800  x5=0xbf8c1374
       45365000	      4535	80000b80	40f1da33	sra	x20,x3,x15	  x3:0x84f57000 x15:0x00000001 x20=0xc27ab800
       45375000	      4536	80000b84	00000013	addi	x0,x0,0	  x0:0x00000000
       45385000	      4537	80000b88	dd7d8713	addi	x14,x27,-553	 x27:0x00000000 x14=0xfffffdd7
       45395000	      4538	80000b8c	00bb9a93	slli	x21,x23,0xb	 x23:0x80009fc4 x21=0x04fe2000
       45405000	      4539	80000b90	03dece63	blt	x29,x29,80000bcc	 x29:0x7fff6396 x29:0x7fff6396
       45415000	      4540	80000b94	c9c50893	addi	x17,x10,-868	 x10:0xfec72c00 x17=0xfec7289c
       45425000	      4541	80000b98	40040eb3	sub	x29,x8,x0	  x8:0xfedc4019  x0:0x00000000 x29=0xfedc4019
       45435000	      4542	80000b9c	001117b3	sll	x15,x2,x1	  x2:0x8f8c3b74  x1:0xffffffff x15=0x00000000
       45445000	      4543	80000ba0	b902e993	ori	x19,x5,-1136	  x5:0xbf8c1374 x19=0xfffffbf4
       45455000	      4544	80000ba4	c7d30a17	auipc	x20,0xc7d30	 x20=0x47d30ba0
       45465000	      4545	80000ba8	00db67b3	or	x15,x22,x13	 x22:0x3eb7f000 x13:0x040baef6 x15=0x3ebffef6
       45475000	      4546	80000bac	015c5813	srli	x16,x24,0x15	 x24:0x00000000 x16=0x00000000
       45485000	      4547	80000bb0	01e0e733	or	x14,x1,x30	  x1:0xffffffff x30:0x80009f84 x14=0xffffffff
       45495000	      4548	80000bb4	00cd86b3	add	x13,x27,x12	 x27:0x00000000 x12:0xfffffff3 x13=0xfffffff3
       45505000	      4549	80000bb8	ba9f7293	andi	x5,x30,-1111	 x30:0x80009f84  x5=0x80009b80
       45515000	      4550	80000bbc	e761fd93	andi	x27,x3,-394	  x3:0x84f57000 x27=0x84f57000
       45525000	      4551	80000bc0	00000013	addi	x0,x0,0	  x0:0x00000000
       45535000	      4552	80000bc4	40ed5913	srai	x18,x26,0xe	 x26:0x00000000 x18=0x00000000
       45545000	      4553	80000bc8	41255833	sra	x16,x10,x18	 x10:0xfec72c00 x18:0x00000000 x16=0xfec72c00
       45555000	      4554	80000bcc	00fdca63	blt	x27,x15,80000be0	 x27:0x84f57000 x15:0x3ebffef6
       45565000	      4555	00000000	00000013	addi	x0,x0,0	  x0:0x00000000
       45575000	      4556	80000bdc	00000013	addi	x0,x0,0	  x0:0x00000000
       45585000	      4557	80000be0	01627633	and	x12,x4,x22	  x4:0xfffff872 x22:0x3eb7f000 x12=0x3eb7f000
       45595000	      4558	80000be4	01213433	sltu	x8,x2,x18	  x2:0x8f8c3b74 x18:0x00000000  x8=0x00000000
       45605000	      4559	80000be8	016e5413	srli	x8,x28,0x16	 x28:0x00000000  x8=0x00000000
       45615000	      4560	80000bec	00d6aeb3	slt	x29,x13,x13	 x13:0xfffffff3 x13:0xfffffff3 x29=0x00000000
       45625000	      4561	80000bf0	41c2d613	srai	x12,x5,0x1c	  x5:0x80009b80 x12=0xfffffff8
       45635000	      4562	80000bf4	018dae33	slt	x28,x27,x24	 x27:0x84f57000 x24:0x00000000 x28=0x00000001
       45645000	      4563	80000bf8	01c0f7b3	and	x15,x1,x28	  x1:0xffffffff x28:0x00000001 x15=0x00000001
       45655000	      4564	80000bfc	06175863	bge	x14,x1,80000c6c	 x14:0xffffffff  x1:0xffffffff
       45665000	      4565	00000000	00000013	addi	x0,x0,0	  x0:0x00000000
       45675000	      4566	80000c68	00000013	addi	x0,x0,0	  x0:0x00000000
       45685000	      4567	80000c6c	019c7c33	and	x24,x24,x25	 x24:0x00000000 x25:0x8f8c3b74 x24=0x00000000
       45695000	      4568	80000c70	01900eb3	add	x29,x0,x25	  x0:0x00000000 x25:0x8f8c3b74 x29=0x8f8c3b74
       45705000	      4569	80000c74	01633233	sltu	x4,x6,x22	  x6:0x00000000 x22:0x3eb7f000  x4=0x00000001
       45715000	      4570	80000c78	02988c63	beq	x17,x9,80000cb0	 x17:0xfec7289c  x9:0x8f8c3b3c
       45725000	      4571	80000c7c	0020ee63	bltu	x1,x2,80000c98	  x1:0xffffffff  x2:0x8f8c3b74
       45735000	      4572	80000c80	006b8833	add	x16,x23,x6	 x23:0x80009fc4  x6:0x00000000 x16=0x80009fc4
       45745000	      4573	80000c84	015862b3	or	x5,x16,x21	 x16:0x80009fc4 x21:0x04fe2000  x5=0x84febfc4
       45755000	      4574	80000c88	00000013	addi	x0,x0,0	  x0:0x00000000
       45765000	      4575	80000c8c	00e12d33	slt	x26,x2,x14	  x2:0x8f8c3b74 x14:0xffffffff x26=0x00000001
       45775000	      4576	80000c90	58118293	addi	x5,x3,1409	  x3:0x84f57000  x5=0x84f57581
       45785000	      4577	80000c94	01f880b3	add	x1,x17,x31	 x17:0xfec7289c x31:0x00000001  x1=0xfec7289d
       45795000	      4578	80000c98	e5aa8993	addi	x19,x21,-422	 x21:0x04fe2000 x19=0x04fe1e5a
       45805000	      4579	80000c9c	4f23b413	sltiu	x8,x7,1266	  x7:0x91dc35ca  x8=0x00000000
       45815000	      4580	80000ca0	4f643117	auipc	x2,0x4f643	  x2=0xcf643c9c
       45825000	      4581	80000ca4	01425793	srli	x15,x4,0x14	  x4:0x00000001 x15=0x00000000
       45835000	      4582	80000ca8	05e0f063	bgeu	x1,x30,80000ce8	  x1:0xfec7289d x30:0x80009f84
       45845000	      4583	00000000	00000013	addi	x0,x0,0	  x0:0x00000000
       45855000	      4584	80000ce4	00000013	addi	x0,x0,0	  x0:0x00000000
       45865000	      4585	80000ce8	40cede33	sra	x28,x29,x12	 x29:0x8f8c3b74 x12:0xfffffff8 x28=0xffffff8f
       45875000	      4586	80000cec	63f58493	addi	x9,x11,1599	 x11:0x840c4a00  x9=0x840c503f
       45885000	      4587	80000cf0	00000397	auipc	x7,0x0	  x7=0x80000cec
       45895000	      4588	80000cf4	00c38393	addi	x7,x7,12	  x7:0x80000cec  x7=0x80000cf8
       45905000	      4589	80000cf8	00038067	jalr	x0,x7,0	  x7:0x80000cf8
       45915000	      4590	00000000	00000013	addi	x0,x0,0	  x0:0x00000000
       45925000	      4591	80000cf8	00000013	addi	x0,x0,0	  x0:0x00000000
       45935000	      4592	80000cfc	00100193	addi	x3,x0,1	  x0:0x00000000  x3=0x00000001
       45945000	      4593	80000d00	00000073	ecall	
       45955000	      4594	80000d04	ff4f0f13	addi	x30,x30,-12	 x30:0x80009f84 x30=0x80009f78
