		Time			Cycle	PC		Insn	Decoded instruction	Register and memory contents
          65000	         5	80000004	00000293	addi	x5,x0,0	  x0:0x00000000  x5=0x00000000
          75000	         6	80000008	00000313	addi	x6,x0,0	  x0:0x00000000  x6=0x00000000
          85000	         7	8000000c	00628263	beq	x5,x6,80000010	  x5:0x00000000  x6:0x00000000
          95000	         8	00000000	00000013	addi	x0,x0,0	  x0:0x00000000
         105000	         9	8000000c	00000013	addi	x0,x0,0	  x0:0x00000000
         115000	        10	80000010	00000797	auipc	x15,0x0	 x15=0x8000000c
         125000	        11	80000014	00c78793	addi	x15,x15,12	 x15:0x8000000c x15=0x80000018
         135000	        12	80000018	00078067	jalr	x0,x15,0	 x15:0x80000018
         145000	        13	00000000	00000013	addi	x0,x0,0	  x0:0x00000000
         155000	        14	80000018	00000013	addi	x0,x0,0	  x0:0x00000000
         165000	        15	8000001c	40000b37	lui	x22,0x40000	 x22=0x40000000
         175000	        16	80000020	100b0b13	addi	x22,x22,256	 x22:0x40000000 x22=0x40000100
         185000	        17	80000024	00000013	addi	x0,x0,0	  x0:0x00000000
         195000	        18	80000028	0000ae97	auipc	x29,0xa	 x29=0x8000a024
         205000	        19	8000002c	fa0e8e93	addi	x29,x29,-96	 x29:0x8000a024 x29=0x80009fc4
         215000	        20	80000030	00004b17	auipc	x22,0x4	 x22=0x8000402c
         225000	        21	80000034	8c4b0b13	addi	x22,x22,-1852	 x22:0x8000402c x22=0x800038f0
         235000	        22	80000038	001b6b13	ori	x22,x22,1	 x22:0x800038f0 x22=0x800038f1
         245000	        23	8000003c	00000013	addi	x0,x0,0	  x0:0x00000000
         255000	        24	80000040	00000b17	auipc	x22,0x0	 x22=0x8000003c
         265000	        25	80000044	020b0b13	addi	x22,x22,32	 x22:0x8000003c x22=0x8000005c
         275000	        26	80000048	00000013	addi	x0,x0,0	  x0:0x00000000
         285000	        27	8000004c	00000013	addi	x0,x0,0	  x0:0x00000000
         295000	        28	80000050	00002b37	lui	x22,0x2	 x22=0x00002000
         305000	        29	80000054	800b0b13	addi	x22,x22,-2048	 x22:0x00002000 x22=0x00001800
         315000	        30	80000058	00000013	addi	x0,x0,0	  x0:0x00000000
         325000	        31	8000005c	00000013	addi	x0,x0,0	  x0:0x00000000
         335000	        32	80000060	1dc22037	lui	x0,0x1dc22	
         345000	        33	80000064	2f200013	addi	x0,x0,754	  x0:0x00000000
         355000	        34	80000068	800000b7	lui	x1,0x80000	  x1=0x80000000
         365000	        35	8000006c	80000137	lui	x2,0x80000	  x2=0x80000000
         375000	        36	80000070	00000193	addi	x3,x0,0	  x0:0x00000000  x3=0x00000000
         385000	        37	80000074	00000213	addi	x4,x0,0	  x0:0x00000000  x4=0x00000000
         395000	        38	80000078	f8c112b7	lui	x5,0xf8c11	  x5=0xf8c11000
         405000	        39	8000007c	d6528293	addi	x5,x5,-667	  x5:0xf8c11000  x5=0xf8c10d65
         415000	        40	80000080	00000313	addi	x6,x0,0	  x0:0x00000000  x6=0x00000000
         425000	        41	80000084	800003b7	lui	x7,0x80000	  x7=0x80000000
         435000	        42	80000088	00000413	addi	x8,x0,0	  x0:0x00000000  x8=0x00000000
         445000	        43	8000008c	3269a4b7	lui	x9,0x3269a	  x9=0x3269a000
         455000	        44	80000090	daf48493	addi	x9,x9,-593	  x9:0x3269a000  x9=0x32699daf
         465000	        45	80000094	00700513	addi	x10,x0,7	  x0:0x00000000 x10=0x00000007
         475000	        46	80000098	00b00593	addi	x11,x0,11	  x0:0x00000000 x11=0x0000000b
         485000	        47	8000009c	80000637	lui	x12,0x80000	 x12=0x80000000
         495000	        48	800000a0	fe46b6b7	lui	x13,0xfe46b	 x13=0xfe46b000
         505000	        49	800000a4	6c968693	addi	x13,x13,1737	 x13:0xfe46b000 x13=0xfe46b6c9
         515000	        50	800000a8	80000737	lui	x14,0x80000	 x14=0x80000000
         525000	        51	800000ac	677417b7	lui	x15,0x67741	 x15=0x67741000
         535000	        52	800000b0	8b478793	addi	x15,x15,-1868	 x15:0x67741000 x15=0x677408b4
         545000	        53	800000b4	f4298837	lui	x16,0xf4298	 x16=0xf4298000
         555000	        54	800000b8	6e680813	addi	x16,x16,1766	 x16:0xf4298000 x16=0xf42986e6
         565000	        55	800000bc	00000893	addi	x17,x0,0	  x0:0x00000000 x17=0x00000000
         575000	        56	800000c0	00600913	addi	x18,x0,6	  x0:0x00000000 x18=0x00000006
         585000	        57	800000c4	00200993	addi	x19,x0,2	  x0:0x00000000 x19=0x00000002
         595000	        58	800000c8	00100a13	addi	x20,x0,1	  x0:0x00000000 x20=0x00000001
         605000	        59	800000cc	80000ab7	lui	x21,0x80000	 x21=0x80000000
         615000	        60	800000d0	1352fb37	lui	x22,0x1352f	 x22=0x1352f000
         625000	        61	800000d4	ccab0b13	addi	x22,x22,-822	 x22:0x1352f000 x22=0x1352ecca
         635000	        62	800000d8	00800b93	addi	x23,x0,8	  x0:0x00000000 x23=0x00000008
         645000	        63	800000dc	00e00c93	addi	x25,x0,14	  x0:0x00000000 x25=0x0000000e
         655000	        64	800000e0	00000d13	addi	x26,x0,0	  x0:0x00000000 x26=0x00000000
         665000	        65	800000e4	00200d93	addi	x27,x0,2	  x0:0x00000000 x27=0x00000002
         675000	        66	800000e8	9bc18e37	lui	x28,0x9bc18	 x28=0x9bc18000
         685000	        67	800000ec	c02e0e13	addi	x28,x28,-1022	 x28:0x9bc18000 x28=0x9bc17c02
         695000	        68	800000f0	00000f13	addi	x30,x0,0	  x0:0x00000000 x30=0x00000000
         705000	        69	800000f4	00600f93	addi	x31,x0,6	  x0:0x00000000 x31=0x00000006
         715000	        70	800000f8	0000ac17	auipc	x24,0xa	 x24=0x8000a0f4
         725000	        71	800000fc	e90c0c13	addi	x24,x24,-368	 x24:0x8000a0f4 x24=0x80009f84
         735000	        72	80000100	00000f17	auipc	x30,0x0	 x30=0x800000fc
         745000	        73	80000104	1a8f0f13	addi	x30,x30,424	 x30:0x800000fc x30=0x800002a4
         755000	        74	80000108	01351593	slli	x11,x10,0x13	 x10:0x00000007 x11=0x00380000
         765000	        75	8000010c	d73f0f13	addi	x30,x30,-653	 x30:0x800002a4 x30=0x80000017
         775000	        76	80000110	01ca10b3	sll	x1,x20,x28	 x20:0x00000001 x28:0x9bc17c02  x1=0x00000004
         785000	        77	80000114	014a1863	bne	x20,x20,80000124	 x20:0x00000001 x20:0x00000001
         795000	        78	80000118	00f76033	or	x0,x14,x15	 x14:0x80000000 x15:0x677408b4
         805000	        79	8000011c	018496b3	sll	x13,x9,x24	  x9:0x32699daf x24:0x80009f84 x13=0x2699daf0
         815000	        80	80000120	00bc9593	slli	x11,x25,0xb	 x25:0x0000000e x11=0x00007000
         825000	        81	80000124	28df0367	jalr	x6,x30,653	 x30:0x80000017  x6=0x80000124
         835000	        82	00000000	00000013	addi	x0,x0,0	  x0:0x00000000
         845000	        83	800002a4	00000013	addi	x0,x0,0	  x0:0x00000000
         855000	        84	800002a8	01db0263	beq	x22,x29,800002ac	 x22:0x1352ecca x29:0x80009fc4
         865000	        85	800002ac	fd4c0c13	addi	x24,x24,-44	 x24:0x80009f84 x24=0x80009f58
         875000	        86	800002b0	01832e33	slt	x28,x6,x24	  x6:0x80000124 x24:0x80009f58 x28=0x00000001
         885000	        87	800002b4	64c29d17	auipc	x26,0x64c29	 x26=0xe4c292b0
         895000	        88	800002b8	200d3e13	sltiu	x28,x26,512	 x26:0xe4c292b0 x28=0x00000000
         905000	        89	800002bc	006c2223	sw	x6,4(x24)	 x24:0x80009f58  x6:0x80000124 PA:0x80009f5c
         915000	        90	800002c0	008081b3	add	x3,x1,x8	  x1:0x00000004  x8:0x00000000  x3=0x00000004
         925000	        91	800002c4	01fabab3	sltu	x21,x21,x31	 x21:0x80000000 x31:0x00000006 x21=0x00000000
         935000	        92	800002c8	00140633	add	x12,x8,x1	  x8:0x00000000  x1:0x00000004 x12=0x00000004
         945000	        93	800002cc	01c872b3	and	x5,x16,x28	 x16:0xf42986e6 x28:0x00000000  x5=0x00000000
         955000	        94	800002d0	00000013	addi	x0,x0,0	  x0:0x00000000
         965000	        95	800002d4	8ab38d13	addi	x26,x7,-1877	  x7:0x80000000 x26=0x7ffff8ab
         975000	        96	800002d8	41d3d133	sra	x2,x7,x29	  x7:0x80000000 x29:0x80009fc4  x2=0xf8000000
         985000	        97	800002dc	5139c013	xori	x0,x19,1299	 x19:0x00000002
         995000	        98	800002e0	01d2c833	xor	x16,x5,x29	  x5:0x00000000 x29:0x80009fc4 x16=0x80009fc4
        1005000	        99	800002e4	00bf7233	and	x4,x30,x11	 x30:0x80000017 x11:0x00007000  x4=0x00000000
        1015000	       100	800002e8	001f9893	slli	x17,x31,0x1	 x31:0x00000006 x17=0x0000000c
        1025000	       101	800002ec	01e05463	bge	x0,x30,800002f4	  x0:0x00000000 x30:0x80000017
        1035000	       102	00000000	00000013	addi	x0,x0,0	  x0:0x00000000
        1045000	       103	800002f0	00000013	addi	x0,x0,0	  x0:0x00000000
        1055000	       104	800002f4	1e40036f	jal	x6,800002f4	  x6=0x800002f4
        1065000	       105	00000000	00000013	addi	x0,x0,0	  x0:0x00000000
        1075000	       106	800004d4	00000013	addi	x0,x0,0	  x0:0x00000000
        1085000	       107	800004d8	00645893	srli	x17,x8,0x6	  x8:0x00000000 x17=0x00000000
        1095000	       108	800004dc	0173efb3	or	x31,x7,x23	  x7:0x80000000 x23:0x00000008 x31=0x80000008
        1105000	       109	800004e0	005a1233	sll	x4,x20,x5	 x20:0x00000001  x5:0x00000000  x4=0x00000001
        1115000	       110	800004e4	fe4c0c13	addi	x24,x24,-28	 x24:0x80009f58 x24=0x80009f3c
        1125000	       111	800004e8	08612437	lui	x8,0x8612	  x8=0x08612000
        1135000	       112	800004ec	83036013	ori	x0,x6,-2000	  x6:0x800002f4
        1145000	       113	800004f0	00f9bbb3	sltu	x23,x19,x15	 x19:0x00000002 x15:0x677408b4 x23=0x00000001
        1155000	       114	800004f4	006c2223	sw	x6,4(x24)	 x24:0x80009f3c  x6:0x800002f4 PA:0x80009f40
        1165000	       115	800004f8	01b624b3	slt	x9,x12,x27	 x12:0x00000004 x27:0x00000002  x9=0x00000000
        1175000	       116	800004fc	00c489b3	add	x19,x9,x12	  x9:0x00000000 x12:0x00000004 x19=0x00000004
        1185000	       117	80000500	a46ebb13	sltiu	x22,x29,-1466	 x29:0x80009fc4 x22=0x00000001
        1195000	       118	80000504	03bf4263	blt	x30,x27,80000528	 x30:0x80000017 x27:0x00000002
        1205000	       119	00000000	00000013	addi	x0,x0,0	  x0:0x00000000
        1215000	       120	80000524	00000013	addi	x0,x0,0	  x0:0x00000000
        1225000	       121	80000528	00d51733	sll	x14,x10,x13	 x10:0x00000007 x13:0x2699daf0 x14=0x00070000
        1235000	       122	8000052c	00289133	sll	x2,x17,x2	 x17:0x00000000  x2:0xf8000000  x2=0x00000000
        1245000	       123	80000530	455fd097	auipc	x1,0x455fd	  x1=0xc55fd52c
        1255000	       124	80000534	004c2303	lw	x6,4(x24)	 x24:0x80009f3c  x6=0x800002f4 PA:0x80009f40
        1265000	       125	80000538	9bd76213	ori	x4,x14,-1603	 x14:0x00070000  x4=0xfffff9bd
        1275000	       126	8000053c	00df1d13	slli	x26,x30,0xd	 x30:0x80000017 x26=0x0002e000
        1285000	       127	80000540	01cc0c13	addi	x24,x24,28	 x24:0x80009f3c x24=0x80009f58
        1295000	       128	80000544	40d35533	sra	x10,x6,x13	  x6:0x800002f4 x13:0x2699daf0 x10=0xffff8000
        1305000	       129	80000548	00130293	addi	x5,x6,1	  x6:0x800002f4  x5=0x800002f5
        1315000	       130	8000054c	000282e7	jalr	x5,x5,0	  x5:0x800002f5  x5=0x8000054c
        1325000	       131	00000000	00000013	addi	x0,x0,0	  x0:0x00000000
        1335000	       132	800002f4	00000013	addi	x0,x0,0	  x0:0x00000000
        1345000	       133	800002f8	00000417	auipc	x8,0x0	  x8=0x800002f4
        1355000	       134	800002fc	25840413	addi	x8,x8,600	  x8:0x800002f4  x8=0x8000054c
        1365000	       135	80000300	175a7313	andi	x6,x20,373	 x20:0x00000001  x6=0x00000001
        1375000	       136	80000304	00520933	add	x18,x4,x5	  x4:0xfffff9bd  x5:0x8000054c x18=0x7fffff09
        1385000	       137	80000308	1a340413	addi	x8,x8,419	  x8:0x8000054c  x8=0x800006ef
        1395000	       138	8000030c	01b106b3	add	x13,x2,x27	  x2:0x00000000 x27:0x00000002 x13=0x00000002
        1405000	       139	80000310	001ac663	blt	x21,x1,8000031c	 x21:0x00000000  x1:0xc55fd52c
        1415000	       140	80000314	0055da33	srl	x20,x11,x5	 x11:0x00007000  x5:0x8000054c x20=0x00000007
        1425000	       141	80000318	6100a493	slti	x9,x1,1552	  x1:0xc55fd52c  x9=0x00000001
        1435000	       142	8000031c	e5d40367	jalr	x6,x8,-419	  x8:0x800006ef  x6=0x8000031c
        1445000	       143	00000000	00000013	addi	x0,x0,0	  x0:0x00000000
        1455000	       144	8000054c	00000013	addi	x0,x0,0	  x0:0x00000000
        1465000	       145	80000550	019cab33	slt	x22,x25,x25	 x25:0x0000000e x25:0x0000000e x22=0x00000000
        1475000	       146	80000554	00710263	beq	x2,x7,80000558	  x2:0x00000000  x7:0x80000000
        1485000	       147	80000558	fc4c0c13	addi	x24,x24,-60	 x24:0x80009f58 x24=0x80009f1c
        1495000	       148	8000055c	419b8833	sub	x16,x23,x25	 x23:0x00000001 x25:0x0000000e x16=0xfffffff3
        1505000	       149	80000560	006c2223	sw	x6,4(x24)	 x24:0x80009f1c  x6:0x8000031c PA:0x80009f20
        1515000	       150	80000564	40290e33	sub	x28,x18,x2	 x18:0x7fffff09  x2:0x00000000 x28=0x7fffff09
        1525000	       151	80000568	ff700a13	addi	x20,x0,-9	  x0:0x00000000 x20=0xfffffff7
        1535000	       152	8000056c	00b00d13	addi	x26,x0,11	  x0:0x00000000 x26=0x0000000b
        1545000	       153	80000570	0041e633	or	x12,x3,x4	  x3:0x00000004  x4:0xfffff9bd x12=0xfffff9bd
        1555000	       154	80000574	001a0a13	addi	x20,x20,1	 x20:0xfffffff7 x20=0xfffffff8
        1565000	       155	80000578	fff00b13	addi	x22,x0,-1	  x0:0x00000000 x22=0xffffffff
        1575000	       156	8000057c	0173a1b3	slt	x3,x7,x23	  x7:0x80000000 x23:0x00000001  x3=0x00000001
        1585000	       157	80000580	00e00313	addi	x6,x0,14	  x0:0x00000000  x6=0x0000000e
        1595000	       158	80000584	79aef513	andi	x10,x29,1946	 x29:0x80009fc4 x10=0x00000780
        1605000	       159	80000588	003b0b13	addi	x22,x22,3	 x22:0xffffffff x22=0x00000002
        1615000	       160	8000058c	00986433	or	x8,x16,x9	 x16:0xfffffff3  x9:0x00000001  x8=0xfffffff3
        1625000	       161	80000590	fe6b6ae3	bltu	x22,x6,80000584	 x22:0x00000002  x6:0x0000000e
        1635000	       162	00000000	00000013	addi	x0,x0,0	  x0:0x00000000
        1645000	       163	80000580	00000013	addi	x0,x0,0	  x0:0x00000000
        1655000	       164	80000584	79aef513	andi	x10,x29,1946	 x29:0x80009fc4 x10=0x00000780
        1665000	       165	80000588	003b0b13	addi	x22,x22,3	 x22:0x00000002 x22=0x00000005
        1675000	       166	8000058c	00986433	or	x8,x16,x9	 x16:0xfffffff3  x9:0x00000001  x8=0xfffffff3
        1685000	       167	80000590	fe6b6ae3	bltu	x22,x6,80000584	 x22:0x00000005  x6:0x0000000e
        1695000	       168	00000000	00000013	addi	x0,x0,0	  x0:0x00000000
        1705000	       169	80000580	00000013	addi	x0,x0,0	  x0:0x00000000
        1715000	       170	80000584	79aef513	andi	x10,x29,1946	 x29:0x80009fc4 x10=0x00000780
        1725000	       171	80000588	003b0b13	addi	x22,x22,3	 x22:0x00000005 x22=0x00000008
        1735000	       172	8000058c	00986433	or	x8,x16,x9	 x16:0xfffffff3  x9:0x00000001  x8=0xfffffff3
        1745000	       173	80000590	fe6b6ae3	bltu	x22,x6,80000584	 x22:0x00000008  x6:0x0000000e
        1755000	       174	00000000	00000013	addi	x0,x0,0	  x0:0x00000000
        1765000	       175	80000580	00000013	addi	x0,x0,0	  x0:0x00000000
        1775000	       176	80000584	79aef513	andi	x10,x29,1946	 x29:0x80009fc4 x10=0x00000780
        1785000	       177	80000588	003b0b13	addi	x22,x22,3	 x22:0x00000008 x22=0x0000000b
        1795000	       178	8000058c	00986433	or	x8,x16,x9	 x16:0xfffffff3  x9:0x00000001  x8=0xfffffff3
        1805000	       179	80000590	fe6b6ae3	bltu	x22,x6,80000584	 x22:0x0000000b  x6:0x0000000e
        1815000	       180	00000000	00000013	addi	x0,x0,0	  x0:0x00000000
        1825000	       181	80000580	00000013	addi	x0,x0,0	  x0:0x00000000
        1835000	       182	80000584	79aef513	andi	x10,x29,1946	 x29:0x80009fc4 x10=0x00000780
        1845000	       183	80000588	003b0b13	addi	x22,x22,3	 x22:0x0000000b x22=0x0000000e
        1855000	       184	8000058c	00986433	or	x8,x16,x9	 x16:0xfffffff3  x9:0x00000001  x8=0xfffffff3
        1865000	       185	80000590	fe6b6ae3	bltu	x22,x6,80000584	 x22:0x0000000e  x6:0x0000000e
        1875000	       186	80000594	015628b3	slt	x17,x12,x21	 x12:0xfffff9bd x21:0x00000000 x17=0x00000001
        1885000	       187	80000598	fdaa4ce3	blt	x20,x26,80000570	 x20:0xfffffff8 x26:0x0000000b
        1895000	       188	00000000	00000013	addi	x0,x0,0	  x0:0x00000000
        1905000	       189	8000056c	00000013	addi	x0,x0,0	  x0:0x00000000
        1915000	       190	80000570	0041e633	or	x12,x3,x4	  x3:0x00000001  x4:0xfffff9bd x12=0xfffff9bd
        1925000	       191	80000574	001a0a13	addi	x20,x20,1	 x20:0xfffffff8 x20=0xfffffff9
        1935000	       192	80000578	fff00b13	addi	x22,x0,-1	  x0:0x00000000 x22=0xffffffff
        1945000	       193	8000057c	0173a1b3	slt	x3,x7,x23	  x7:0x80000000 x23:0x00000001  x3=0x00000001
        1955000	       194	80000580	00e00313	addi	x6,x0,14	  x0:0x00000000  x6=0x0000000e
        1965000	       195	80000584	79aef513	andi	x10,x29,1946	 x29:0x80009fc4 x10=0x00000780
        1975000	       196	80000588	003b0b13	addi	x22,x22,3	 x22:0xffffffff x22=0x00000002
        1985000	       197	8000058c	00986433	or	x8,x16,x9	 x16:0xfffffff3  x9:0x00000001  x8=0xfffffff3
        1995000	       198	80000590	fe6b6ae3	bltu	x22,x6,80000584	 x22:0x00000002  x6:0x0000000e
        2005000	       199	00000000	00000013	addi	x0,x0,0	  x0:0x00000000
        2015000	       200	80000580	00000013	addi	x0,x0,0	  x0:0x00000000
        2025000	       201	80000584	79aef513	andi	x10,x29,1946	 x29:0x80009fc4 x10=0x00000780
        2035000	       202	80000588	003b0b13	addi	x22,x22,3	 x22:0x00000002 x22=0x00000005
        2045000	       203	8000058c	00986433	or	x8,x16,x9	 x16:0xfffffff3  x9:0x00000001  x8=0xfffffff3
        2055000	       204	80000590	fe6b6ae3	bltu	x22,x6,80000584	 x22:0x00000005  x6:0x0000000e
        2065000	       205	00000000	00000013	addi	x0,x0,0	  x0:0x00000000
        2075000	       206	80000580	00000013	addi	x0,x0,0	  x0:0x00000000
        2085000	       207	80000584	79aef513	andi	x10,x29,1946	 x29:0x80009fc4 x10=0x00000780
        2095000	       208	80000588	003b0b13	addi	x22,x22,3	 x22:0x00000005 x22=0x00000008
        2105000	       209	8000058c	00986433	or	x8,x16,x9	 x16:0xfffffff3  x9:0x00000001  x8=0xfffffff3
        2115000	       210	80000590	fe6b6ae3	bltu	x22,x6,80000584	 x22:0x00000008  x6:0x0000000e
        2125000	       211	00000000	00000013	addi	x0,x0,0	  x0:0x00000000
        2135000	       212	80000580	00000013	addi	x0,x0,0	  x0:0x00000000
        2145000	       213	80000584	79aef513	andi	x10,x29,1946	 x29:0x80009fc4 x10=0x00000780
        2155000	       214	80000588	003b0b13	addi	x22,x22,3	 x22:0x00000008 x22=0x0000000b
        2165000	       215	8000058c	00986433	or	x8,x16,x9	 x16:0xfffffff3  x9:0x00000001  x8=0xfffffff3
        2175000	       216	80000590	fe6b6ae3	bltu	x22,x6,80000584	 x22:0x0000000b  x6:0x0000000e
        2185000	       217	00000000	00000013	addi	x0,x0,0	  x0:0x00000000
        2195000	       218	80000580	00000013	addi	x0,x0,0	  x0:0x00000000
        2205000	       219	80000584	79aef513	andi	x10,x29,1946	 x29:0x80009fc4 x10=0x00000780
        2215000	       220	80000588	003b0b13	addi	x22,x22,3	 x22:0x0000000b x22=0x0000000e
        2225000	       221	8000058c	00986433	or	x8,x16,x9	 x16:0xfffffff3  x9:0x00000001  x8=0xfffffff3
        2235000	       222	80000590	fe6b6ae3	bltu	x22,x6,80000584	 x22:0x0000000e  x6:0x0000000e
        2245000	       223	80000594	015628b3	slt	x17,x12,x21	 x12:0xfffff9bd x21:0x00000000 x17=0x00000001
        2255000	       224	80000598	fdaa4ce3	blt	x20,x26,80000570	 x20:0xfffffff9 x26:0x0000000b
        2265000	       225	00000000	00000013	addi	x0,x0,0	  x0:0x00000000
        2275000	       226	8000056c	00000013	addi	x0,x0,0	  x0:0x00000000
        2285000	       227	80000570	0041e633	or	x12,x3,x4	  x3:0x00000001  x4:0xfffff9bd x12=0xfffff9bd
        2295000	       228	80000574	001a0a13	addi	x20,x20,1	 x20:0xfffffff9 x20=0xfffffffa
        2305000	       229	80000578	fff00b13	addi	x22,x0,-1	  x0:0x00000000 x22=0xffffffff
        2315000	       230	8000057c	0173a1b3	slt	x3,x7,x23	  x7:0x80000000 x23:0x00000001  x3=0x00000001
        2325000	       231	80000580	00e00313	addi	x6,x0,14	  x0:0x00000000  x6=0x0000000e
        2335000	       232	80000584	79aef513	andi	x10,x29,1946	 x29:0x80009fc4 x10=0x00000780
        2345000	       233	80000588	003b0b13	addi	x22,x22,3	 x22:0xffffffff x22=0x00000002
        2355000	       234	8000058c	00986433	or	x8,x16,x9	 x16:0xfffffff3  x9:0x00000001  x8=0xfffffff3
        2365000	       235	80000590	fe6b6ae3	bltu	x22,x6,80000584	 x22:0x00000002  x6:0x0000000e
        2375000	       236	00000000	00000013	addi	x0,x0,0	  x0:0x00000000
        2385000	       237	80000580	00000013	addi	x0,x0,0	  x0:0x00000000
        2395000	       238	80000584	79aef513	andi	x10,x29,1946	 x29:0x80009fc4 x10=0x00000780
        2405000	       239	80000588	003b0b13	addi	x22,x22,3	 x22:0x00000002 x22=0x00000005
        2415000	       240	8000058c	00986433	or	x8,x16,x9	 x16:0xfffffff3  x9:0x00000001  x8=0xfffffff3
        2425000	       241	80000590	fe6b6ae3	bltu	x22,x6,80000584	 x22:0x00000005  x6:0x0000000e
        2435000	       242	00000000	00000013	addi	x0,x0,0	  x0:0x00000000
        2445000	       243	80000580	00000013	addi	x0,x0,0	  x0:0x00000000
        2455000	       244	80000584	79aef513	andi	x10,x29,1946	 x29:0x80009fc4 x10=0x00000780
        2465000	       245	80000588	003b0b13	addi	x22,x22,3	 x22:0x00000005 x22=0x00000008
        2475000	       246	8000058c	00986433	or	x8,x16,x9	 x16:0xfffffff3  x9:0x00000001  x8=0xfffffff3
        2485000	       247	80000590	fe6b6ae3	bltu	x22,x6,80000584	 x22:0x00000008  x6:0x0000000e
        2495000	       248	00000000	00000013	addi	x0,x0,0	  x0:0x00000000
        2505000	       249	80000580	00000013	addi	x0,x0,0	  x0:0x00000000
        2515000	       250	80000584	79aef513	andi	x10,x29,1946	 x29:0x80009fc4 x10=0x00000780
        2525000	       251	80000588	003b0b13	addi	x22,x22,3	 x22:0x00000008 x22=0x0000000b
        2535000	       252	8000058c	00986433	or	x8,x16,x9	 x16:0xfffffff3  x9:0x00000001  x8=0xfffffff3
        2545000	       253	80000590	fe6b6ae3	bltu	x22,x6,80000584	 x22:0x0000000b  x6:0x0000000e
        2555000	       254	00000000	00000013	addi	x0,x0,0	  x0:0x00000000
        2565000	       255	80000580	00000013	addi	x0,x0,0	  x0:0x00000000
        2575000	       256	80000584	79aef513	andi	x10,x29,1946	 x29:0x80009fc4 x10=0x00000780
        2585000	       257	80000588	003b0b13	addi	x22,x22,3	 x22:0x0000000b x22=0x0000000e
        2595000	       258	8000058c	00986433	or	x8,x16,x9	 x16:0xfffffff3  x9:0x00000001  x8=0xfffffff3
        2605000	       259	80000590	fe6b6ae3	bltu	x22,x6,80000584	 x22:0x0000000e  x6:0x0000000e
        2615000	       260	80000594	015628b3	slt	x17,x12,x21	 x12:0xfffff9bd x21:0x00000000 x17=0x00000001
        2625000	       261	80000598	fdaa4ce3	blt	x20,x26,80000570	 x20:0xfffffffa x26:0x0000000b
        2635000	       262	00000000	00000013	addi	x0,x0,0	  x0:0x00000000
        2645000	       263	8000056c	00000013	addi	x0,x0,0	  x0:0x00000000
        2655000	       264	80000570	0041e633	or	x12,x3,x4	  x3:0x00000001  x4:0xfffff9bd x12=0xfffff9bd
        2665000	       265	80000574	001a0a13	addi	x20,x20,1	 x20:0xfffffffa x20=0xfffffffb
        2675000	       266	80000578	fff00b13	addi	x22,x0,-1	  x0:0x00000000 x22=0xffffffff
        2685000	       267	8000057c	0173a1b3	slt	x3,x7,x23	  x7:0x80000000 x23:0x00000001  x3=0x00000001
        2695000	       268	80000580	00e00313	addi	x6,x0,14	  x0:0x00000000  x6=0x0000000e
        2705000	       269	80000584	79aef513	andi	x10,x29,1946	 x29:0x80009fc4 x10=0x00000780
        2715000	       270	80000588	003b0b13	addi	x22,x22,3	 x22:0xffffffff x22=0x00000002
        2725000	       271	8000058c	00986433	or	x8,x16,x9	 x16:0xfffffff3  x9:0x00000001  x8=0xfffffff3
        2735000	       272	80000590	fe6b6ae3	bltu	x22,x6,80000584	 x22:0x00000002  x6:0x0000000e
        2745000	       273	00000000	00000013	addi	x0,x0,0	  x0:0x00000000
        2755000	       274	80000580	00000013	addi	x0,x0,0	  x0:0x00000000
        2765000	       275	80000584	79aef513	andi	x10,x29,1946	 x29:0x80009fc4 x10=0x00000780
        2775000	       276	80000588	003b0b13	addi	x22,x22,3	 x22:0x00000002 x22=0x00000005
        2785000	       277	8000058c	00986433	or	x8,x16,x9	 x16:0xfffffff3  x9:0x00000001  x8=0xfffffff3
        2795000	       278	80000590	fe6b6ae3	bltu	x22,x6,80000584	 x22:0x00000005  x6:0x0000000e
        2805000	       279	00000000	00000013	addi	x0,x0,0	  x0:0x00000000
        2815000	       280	80000580	00000013	addi	x0,x0,0	  x0:0x00000000
        2825000	       281	80000584	79aef513	andi	x10,x29,1946	 x29:0x80009fc4 x10=0x00000780
        2835000	       282	80000588	003b0b13	addi	x22,x22,3	 x22:0x00000005 x22=0x00000008
        2845000	       283	8000058c	00986433	or	x8,x16,x9	 x16:0xfffffff3  x9:0x00000001  x8=0xfffffff3
        2855000	       284	80000590	fe6b6ae3	bltu	x22,x6,80000584	 x22:0x00000008  x6:0x0000000e
        2865000	       285	00000000	00000013	addi	x0,x0,0	  x0:0x00000000
        2875000	       286	80000580	00000013	addi	x0,x0,0	  x0:0x00000000
        2885000	       287	80000584	79aef513	andi	x10,x29,1946	 x29:0x80009fc4 x10=0x00000780
        2895000	       288	80000588	003b0b13	addi	x22,x22,3	 x22:0x00000008 x22=0x0000000b
        2905000	       289	8000058c	00986433	or	x8,x16,x9	 x16:0xfffffff3  x9:0x00000001  x8=0xfffffff3
        2915000	       290	80000590	fe6b6ae3	bltu	x22,x6,80000584	 x22:0x0000000b  x6:0x0000000e
        2925000	       291	00000000	00000013	addi	x0,x0,0	  x0:0x00000000
        2935000	       292	80000580	00000013	addi	x0,x0,0	  x0:0x00000000
        2945000	       293	80000584	79aef513	andi	x10,x29,1946	 x29:0x80009fc4 x10=0x00000780
        2955000	       294	80000588	003b0b13	addi	x22,x22,3	 x22:0x0000000b x22=0x0000000e
        2965000	       295	8000058c	00986433	or	x8,x16,x9	 x16:0xfffffff3  x9:0x00000001  x8=0xfffffff3
        2975000	       296	80000590	fe6b6ae3	bltu	x22,x6,80000584	 x22:0x0000000e  x6:0x0000000e
        2985000	       297	80000594	015628b3	slt	x17,x12,x21	 x12:0xfffff9bd x21:0x00000000 x17=0x00000001
        2995000	       298	80000598	fdaa4ce3	blt	x20,x26,80000570	 x20:0xfffffffb x26:0x0000000b
        3005000	       299	00000000	00000013	addi	x0,x0,0	  x0:0x00000000
        3015000	       300	8000056c	00000013	addi	x0,x0,0	  x0:0x00000000
        3025000	       301	80000570	0041e633	or	x12,x3,x4	  x3:0x00000001  x4:0xfffff9bd x12=0xfffff9bd
        3035000	       302	80000574	001a0a13	addi	x20,x20,1	 x20:0xfffffffb x20=0xfffffffc
        3045000	       303	80000578	fff00b13	addi	x22,x0,-1	  x0:0x00000000 x22=0xffffffff
        3055000	       304	8000057c	0173a1b3	slt	x3,x7,x23	  x7:0x80000000 x23:0x00000001  x3=0x00000001
        3065000	       305	80000580	00e00313	addi	x6,x0,14	  x0:0x00000000  x6=0x0000000e
        3075000	       306	80000584	79aef513	andi	x10,x29,1946	 x29:0x80009fc4 x10=0x00000780
        3085000	       307	80000588	003b0b13	addi	x22,x22,3	 x22:0xffffffff x22=0x00000002
        3095000	       308	8000058c	00986433	or	x8,x16,x9	 x16:0xfffffff3  x9:0x00000001  x8=0xfffffff3
        3105000	       309	80000590	fe6b6ae3	bltu	x22,x6,80000584	 x22:0x00000002  x6:0x0000000e
        3115000	       310	00000000	00000013	addi	x0,x0,0	  x0:0x00000000
        3125000	       311	80000580	00000013	addi	x0,x0,0	  x0:0x00000000
        3135000	       312	80000584	79aef513	andi	x10,x29,1946	 x29:0x80009fc4 x10=0x00000780
        3145000	       313	80000588	003b0b13	addi	x22,x22,3	 x22:0x00000002 x22=0x00000005
        3155000	       314	8000058c	00986433	or	x8,x16,x9	 x16:0xfffffff3  x9:0x00000001  x8=0xfffffff3
        3165000	       315	80000590	fe6b6ae3	bltu	x22,x6,80000584	 x22:0x00000005  x6:0x0000000e
        3175000	       316	00000000	00000013	addi	x0,x0,0	  x0:0x00000000
        3185000	       317	80000580	00000013	addi	x0,x0,0	  x0:0x00000000
        3195000	       318	80000584	79aef513	andi	x10,x29,1946	 x29:0x80009fc4 x10=0x00000780
        3205000	       319	80000588	003b0b13	addi	x22,x22,3	 x22:0x00000005 x22=0x00000008
        3215000	       320	8000058c	00986433	or	x8,x16,x9	 x16:0xfffffff3  x9:0x00000001  x8=0xfffffff3
        3225000	       321	80000590	fe6b6ae3	bltu	x22,x6,80000584	 x22:0x00000008  x6:0x0000000e
        3235000	       322	00000000	00000013	addi	x0,x0,0	  x0:0x00000000
        3245000	       323	80000580	00000013	addi	x0,x0,0	  x0:0x00000000
        3255000	       324	80000584	79aef513	andi	x10,x29,1946	 x29:0x80009fc4 x10=0x00000780
        3265000	       325	80000588	003b0b13	addi	x22,x22,3	 x22:0x00000008 x22=0x0000000b
        3275000	       326	8000058c	00986433	or	x8,x16,x9	 x16:0xfffffff3  x9:0x00000001  x8=0xfffffff3
        3285000	       327	80000590	fe6b6ae3	bltu	x22,x6,80000584	 x22:0x0000000b  x6:0x0000000e
        3295000	       328	00000000	00000013	addi	x0,x0,0	  x0:0x00000000
        3305000	       329	80000580	00000013	addi	x0,x0,0	  x0:0x00000000
        3315000	       330	80000584	79aef513	andi	x10,x29,1946	 x29:0x80009fc4 x10=0x00000780
        3325000	       331	80000588	003b0b13	addi	x22,x22,3	 x22:0x0000000b x22=0x0000000e
        3335000	       332	8000058c	00986433	or	x8,x16,x9	 x16:0xfffffff3  x9:0x00000001  x8=0xfffffff3
        3345000	       333	80000590	fe6b6ae3	bltu	x22,x6,80000584	 x22:0x0000000e  x6:0x0000000e
        3355000	       334	80000594	015628b3	slt	x17,x12,x21	 x12:0xfffff9bd x21:0x00000000 x17=0x00000001
        3365000	       335	80000598	fdaa4ce3	blt	x20,x26,80000570	 x20:0xfffffffc x26:0x0000000b
        3375000	       336	00000000	00000013	addi	x0,x0,0	  x0:0x00000000
        3385000	       337	8000056c	00000013	addi	x0,x0,0	  x0:0x00000000
        3395000	       338	80000570	0041e633	or	x12,x3,x4	  x3:0x00000001  x4:0xfffff9bd x12=0xfffff9bd
        3405000	       339	80000574	001a0a13	addi	x20,x20,1	 x20:0xfffffffc x20=0xfffffffd
        3415000	       340	80000578	fff00b13	addi	x22,x0,-1	  x0:0x00000000 x22=0xffffffff
        3425000	       341	8000057c	0173a1b3	slt	x3,x7,x23	  x7:0x80000000 x23:0x00000001  x3=0x00000001
        3435000	       342	80000580	00e00313	addi	x6,x0,14	  x0:0x00000000  x6=0x0000000e
        3445000	       343	80000584	79aef513	andi	x10,x29,1946	 x29:0x80009fc4 x10=0x00000780
        3455000	       344	80000588	003b0b13	addi	x22,x22,3	 x22:0xffffffff x22=0x00000002
        3465000	       345	8000058c	00986433	or	x8,x16,x9	 x16:0xfffffff3  x9:0x00000001  x8=0xfffffff3
        3475000	       346	80000590	fe6b6ae3	bltu	x22,x6,80000584	 x22:0x00000002  x6:0x0000000e
        3485000	       347	00000000	00000013	addi	x0,x0,0	  x0:0x00000000
        3495000	       348	80000580	00000013	addi	x0,x0,0	  x0:0x00000000
        3505000	       349	80000584	79aef513	andi	x10,x29,1946	 x29:0x80009fc4 x10=0x00000780
        3515000	       350	80000588	003b0b13	addi	x22,x22,3	 x22:0x00000002 x22=0x00000005
        3525000	       351	8000058c	00986433	or	x8,x16,x9	 x16:0xfffffff3  x9:0x00000001  x8=0xfffffff3
        3535000	       352	80000590	fe6b6ae3	bltu	x22,x6,80000584	 x22:0x00000005  x6:0x0000000e
        3545000	       353	00000000	00000013	addi	x0,x0,0	  x0:0x00000000
        3555000	       354	80000580	00000013	addi	x0,x0,0	  x0:0x00000000
        3565000	       355	80000584	79aef513	andi	x10,x29,1946	 x29:0x80009fc4 x10=0x00000780
        3575000	       356	80000588	003b0b13	addi	x22,x22,3	 x22:0x00000005 x22=0x00000008
        3585000	       357	8000058c	00986433	or	x8,x16,x9	 x16:0xfffffff3  x9:0x00000001  x8=0xfffffff3
        3595000	       358	80000590	fe6b6ae3	bltu	x22,x6,80000584	 x22:0x00000008  x6:0x0000000e
        3605000	       359	00000000	00000013	addi	x0,x0,0	  x0:0x00000000
        3615000	       360	80000580	00000013	addi	x0,x0,0	  x0:0x00000000
        3625000	       361	80000584	79aef513	andi	x10,x29,1946	 x29:0x80009fc4 x10=0x00000780
        3635000	       362	80000588	003b0b13	addi	x22,x22,3	 x22:0x00000008 x22=0x0000000b
        3645000	       363	8000058c	00986433	or	x8,x16,x9	 x16:0xfffffff3  x9:0x00000001  x8=0xfffffff3
        3655000	       364	80000590	fe6b6ae3	bltu	x22,x6,80000584	 x22:0x0000000b  x6:0x0000000e
        3665000	       365	00000000	00000013	addi	x0,x0,0	  x0:0x00000000
        3675000	       366	80000580	00000013	addi	x0,x0,0	  x0:0x00000000
        3685000	       367	80000584	79aef513	andi	x10,x29,1946	 x29:0x80009fc4 x10=0x00000780
        3695000	       368	80000588	003b0b13	addi	x22,x22,3	 x22:0x0000000b x22=0x0000000e
        3705000	       369	8000058c	00986433	or	x8,x16,x9	 x16:0xfffffff3  x9:0x00000001  x8=0xfffffff3
        3715000	       370	80000590	fe6b6ae3	bltu	x22,x6,80000584	 x22:0x0000000e  x6:0x0000000e
        3725000	       371	80000594	015628b3	slt	x17,x12,x21	 x12:0xfffff9bd x21:0x00000000 x17=0x00000001
        3735000	       372	80000598	fdaa4ce3	blt	x20,x26,80000570	 x20:0xfffffffd x26:0x0000000b
        3745000	       373	00000000	00000013	addi	x0,x0,0	  x0:0x00000000
        3755000	       374	8000056c	00000013	addi	x0,x0,0	  x0:0x00000000
        3765000	       375	80000570	0041e633	or	x12,x3,x4	  x3:0x00000001  x4:0xfffff9bd x12=0xfffff9bd
        3775000	       376	80000574	001a0a13	addi	x20,x20,1	 x20:0xfffffffd x20=0xfffffffe
        3785000	       377	80000578	fff00b13	addi	x22,x0,-1	  x0:0x00000000 x22=0xffffffff
        3795000	       378	8000057c	0173a1b3	slt	x3,x7,x23	  x7:0x80000000 x23:0x00000001  x3=0x00000001
        3805000	       379	80000580	00e00313	addi	x6,x0,14	  x0:0x00000000  x6=0x0000000e
        3815000	       380	80000584	79aef513	andi	x10,x29,1946	 x29:0x80009fc4 x10=0x00000780
        3825000	       381	80000588	003b0b13	addi	x22,x22,3	 x22:0xffffffff x22=0x00000002
        3835000	       382	8000058c	00986433	or	x8,x16,x9	 x16:0xfffffff3  x9:0x00000001  x8=0xfffffff3
        3845000	       383	80000590	fe6b6ae3	bltu	x22,x6,80000584	 x22:0x00000002  x6:0x0000000e
        3855000	       384	00000000	00000013	addi	x0,x0,0	  x0:0x00000000
        3865000	       385	80000580	00000013	addi	x0,x0,0	  x0:0x00000000
        3875000	       386	80000584	79aef513	andi	x10,x29,1946	 x29:0x80009fc4 x10=0x00000780
        3885000	       387	80000588	003b0b13	addi	x22,x22,3	 x22:0x00000002 x22=0x00000005
        3895000	       388	8000058c	00986433	or	x8,x16,x9	 x16:0xfffffff3  x9:0x00000001  x8=0xfffffff3
        3905000	       389	80000590	fe6b6ae3	bltu	x22,x6,80000584	 x22:0x00000005  x6:0x0000000e
        3915000	       390	00000000	00000013	addi	x0,x0,0	  x0:0x00000000
        3925000	       391	80000580	00000013	addi	x0,x0,0	  x0:0x00000000
        3935000	       392	80000584	79aef513	andi	x10,x29,1946	 x29:0x80009fc4 x10=0x00000780
        3945000	       393	80000588	003b0b13	addi	x22,x22,3	 x22:0x00000005 x22=0x00000008
        3955000	       394	8000058c	00986433	or	x8,x16,x9	 x16:0xfffffff3  x9:0x00000001  x8=0xfffffff3
        3965000	       395	80000590	fe6b6ae3	bltu	x22,x6,80000584	 x22:0x00000008  x6:0x0000000e
        3975000	       396	00000000	00000013	addi	x0,x0,0	  x0:0x00000000
        3985000	       397	80000580	00000013	addi	x0,x0,0	  x0:0x00000000
        3995000	       398	80000584	79aef513	andi	x10,x29,1946	 x29:0x80009fc4 x10=0x00000780
        4005000	       399	80000588	003b0b13	addi	x22,x22,3	 x22:0x00000008 x22=0x0000000b
        4015000	       400	8000058c	00986433	or	x8,x16,x9	 x16:0xfffffff3  x9:0x00000001  x8=0xfffffff3
        4025000	       401	80000590	fe6b6ae3	bltu	x22,x6,80000584	 x22:0x0000000b  x6:0x0000000e
        4035000	       402	00000000	00000013	addi	x0,x0,0	  x0:0x00000000
        4045000	       403	80000580	00000013	addi	x0,x0,0	  x0:0x00000000
        4055000	       404	80000584	79aef513	andi	x10,x29,1946	 x29:0x80009fc4 x10=0x00000780
        4065000	       405	80000588	003b0b13	addi	x22,x22,3	 x22:0x0000000b x22=0x0000000e
        4075000	       406	8000058c	00986433	or	x8,x16,x9	 x16:0xfffffff3  x9:0x00000001  x8=0xfffffff3
        4085000	       407	80000590	fe6b6ae3	bltu	x22,x6,80000584	 x22:0x0000000e  x6:0x0000000e
        4095000	       408	80000594	015628b3	slt	x17,x12,x21	 x12:0xfffff9bd x21:0x00000000 x17=0x00000001
        4105000	       409	80000598	fdaa4ce3	blt	x20,x26,80000570	 x20:0xfffffffe x26:0x0000000b
        4115000	       410	00000000	00000013	addi	x0,x0,0	  x0:0x00000000
        4125000	       411	8000056c	00000013	addi	x0,x0,0	  x0:0x00000000
        4135000	       412	80000570	0041e633	or	x12,x3,x4	  x3:0x00000001  x4:0xfffff9bd x12=0xfffff9bd
        4145000	       413	80000574	001a0a13	addi	x20,x20,1	 x20:0xfffffffe x20=0xffffffff
        4155000	       414	80000578	fff00b13	addi	x22,x0,-1	  x0:0x00000000 x22=0xffffffff
        4165000	       415	8000057c	0173a1b3	slt	x3,x7,x23	  x7:0x80000000 x23:0x00000001  x3=0x00000001
        4175000	       416	80000580	00e00313	addi	x6,x0,14	  x0:0x00000000  x6=0x0000000e
        4185000	       417	80000584	79aef513	andi	x10,x29,1946	 x29:0x80009fc4 x10=0x00000780
        4195000	       418	80000588	003b0b13	addi	x22,x22,3	 x22:0xffffffff x22=0x00000002
        4205000	       419	8000058c	00986433	or	x8,x16,x9	 x16:0xfffffff3  x9:0x00000001  x8=0xfffffff3
        4215000	       420	80000590	fe6b6ae3	bltu	x22,x6,80000584	 x22:0x00000002  x6:0x0000000e
        4225000	       421	00000000	00000013	addi	x0,x0,0	  x0:0x00000000
        4235000	       422	80000580	00000013	addi	x0,x0,0	  x0:0x00000000
        4245000	       423	80000584	79aef513	andi	x10,x29,1946	 x29:0x80009fc4 x10=0x00000780
        4255000	       424	80000588	003b0b13	addi	x22,x22,3	 x22:0x00000002 x22=0x00000005
        4265000	       425	8000058c	00986433	or	x8,x16,x9	 x16:0xfffffff3  x9:0x00000001  x8=0xfffffff3
        4275000	       426	80000590	fe6b6ae3	bltu	x22,x6,80000584	 x22:0x00000005  x6:0x0000000e
        4285000	       427	00000000	00000013	addi	x0,x0,0	  x0:0x00000000
        4295000	       428	80000580	00000013	addi	x0,x0,0	  x0:0x00000000
        4305000	       429	80000584	79aef513	andi	x10,x29,1946	 x29:0x80009fc4 x10=0x00000780
        4315000	       430	80000588	003b0b13	addi	x22,x22,3	 x22:0x00000005 x22=0x00000008
        4325000	       431	8000058c	00986433	or	x8,x16,x9	 x16:0xfffffff3  x9:0x00000001  x8=0xfffffff3
        4335000	       432	80000590	fe6b6ae3	bltu	x22,x6,80000584	 x22:0x00000008  x6:0x0000000e
        4345000	       433	00000000	00000013	addi	x0,x0,0	  x0:0x00000000
        4355000	       434	80000580	00000013	addi	x0,x0,0	  x0:0x00000000
        4365000	       435	80000584	79aef513	andi	x10,x29,1946	 x29:0x80009fc4 x10=0x00000780
        4375000	       436	80000588	003b0b13	addi	x22,x22,3	 x22:0x00000008 x22=0x0000000b
        4385000	       437	8000058c	00986433	or	x8,x16,x9	 x16:0xfffffff3  x9:0x00000001  x8=0xfffffff3
        4395000	       438	80000590	fe6b6ae3	bltu	x22,x6,80000584	 x22:0x0000000b  x6:0x0000000e
        4405000	       439	00000000	00000013	addi	x0,x0,0	  x0:0x00000000
        4415000	       440	80000580	00000013	addi	x0,x0,0	  x0:0x00000000
        4425000	       441	80000584	79aef513	andi	x10,x29,1946	 x29:0x80009fc4 x10=0x00000780
        4435000	       442	80000588	003b0b13	addi	x22,x22,3	 x22:0x0000000b x22=0x0000000e
        4445000	       443	8000058c	00986433	or	x8,x16,x9	 x16:0xfffffff3  x9:0x00000001  x8=0xfffffff3
        4455000	       444	80000590	fe6b6ae3	bltu	x22,x6,80000584	 x22:0x0000000e  x6:0x0000000e
        4465000	       445	80000594	015628b3	slt	x17,x12,x21	 x12:0xfffff9bd x21:0x00000000 x17=0x00000001
        4475000	       446	80000598	fdaa4ce3	blt	x20,x26,80000570	 x20:0xffffffff x26:0x0000000b
        4485000	       447	00000000	00000013	addi	x0,x0,0	  x0:0x00000000
        4495000	       448	8000056c	00000013	addi	x0,x0,0	  x0:0x00000000
        4505000	       449	80000570	0041e633	or	x12,x3,x4	  x3:0x00000001  x4:0xfffff9bd x12=0xfffff9bd
        4515000	       450	80000574	001a0a13	addi	x20,x20,1	 x20:0xffffffff x20=0x00000000
        4525000	       451	80000578	fff00b13	addi	x22,x0,-1	  x0:0x00000000 x22=0xffffffff
        4535000	       452	8000057c	0173a1b3	slt	x3,x7,x23	  x7:0x80000000 x23:0x00000001  x3=0x00000001
        4545000	       453	80000580	00e00313	addi	x6,x0,14	  x0:0x00000000  x6=0x0000000e
        4555000	       454	80000584	79aef513	andi	x10,x29,1946	 x29:0x80009fc4 x10=0x00000780
        4565000	       455	80000588	003b0b13	addi	x22,x22,3	 x22:0xffffffff x22=0x00000002
        4575000	       456	8000058c	00986433	or	x8,x16,x9	 x16:0xfffffff3  x9:0x00000001  x8=0xfffffff3
        4585000	       457	80000590	fe6b6ae3	bltu	x22,x6,80000584	 x22:0x00000002  x6:0x0000000e
        4595000	       458	00000000	00000013	addi	x0,x0,0	  x0:0x00000000
        4605000	       459	80000580	00000013	addi	x0,x0,0	  x0:0x00000000
        4615000	       460	80000584	79aef513	andi	x10,x29,1946	 x29:0x80009fc4 x10=0x00000780
        4625000	       461	80000588	003b0b13	addi	x22,x22,3	 x22:0x00000002 x22=0x00000005
        4635000	       462	8000058c	00986433	or	x8,x16,x9	 x16:0xfffffff3  x9:0x00000001  x8=0xfffffff3
        4645000	       463	80000590	fe6b6ae3	bltu	x22,x6,80000584	 x22:0x00000005  x6:0x0000000e
        4655000	       464	00000000	00000013	addi	x0,x0,0	  x0:0x00000000
        4665000	       465	80000580	00000013	addi	x0,x0,0	  x0:0x00000000
        4675000	       466	80000584	79aef513	andi	x10,x29,1946	 x29:0x80009fc4 x10=0x00000780
        4685000	       467	80000588	003b0b13	addi	x22,x22,3	 x22:0x00000005 x22=0x00000008
        4695000	       468	8000058c	00986433	or	x8,x16,x9	 x16:0xfffffff3  x9:0x00000001  x8=0xfffffff3
        4705000	       469	80000590	fe6b6ae3	bltu	x22,x6,80000584	 x22:0x00000008  x6:0x0000000e
        4715000	       470	00000000	00000013	addi	x0,x0,0	  x0:0x00000000
        4725000	       471	80000580	00000013	addi	x0,x0,0	  x0:0x00000000
        4735000	       472	80000584	79aef513	andi	x10,x29,1946	 x29:0x80009fc4 x10=0x00000780
        4745000	       473	80000588	003b0b13	addi	x22,x22,3	 x22:0x00000008 x22=0x0000000b
        4755000	       474	8000058c	00986433	or	x8,x16,x9	 x16:0xfffffff3  x9:0x00000001  x8=0xfffffff3
        4765000	       475	80000590	fe6b6ae3	bltu	x22,x6,80000584	 x22:0x0000000b  x6:0x0000000e
        4775000	       476	00000000	00000013	addi	x0,x0,0	  x0:0x00000000
        4785000	       477	80000580	00000013	addi	x0,x0,0	  x0:0x00000000
        4795000	       478	80000584	79aef513	andi	x10,x29,1946	 x29:0x80009fc4 x10=0x00000780
        4805000	       479	80000588	003b0b13	addi	x22,x22,3	 x22:0x0000000b x22=0x0000000e
        4815000	       480	8000058c	00986433	or	x8,x16,x9	 x16:0xfffffff3  x9:0x00000001  x8=0xfffffff3
        4825000	       481	80000590	fe6b6ae3	bltu	x22,x6,80000584	 x22:0x0000000e  x6:0x0000000e
        4835000	       482	80000594	015628b3	slt	x17,x12,x21	 x12:0xfffff9bd x21:0x00000000 x17=0x00000001
        4845000	       483	80000598	fdaa4ce3	blt	x20,x26,80000570	 x20:0x00000000 x26:0x0000000b
        4855000	       484	00000000	00000013	addi	x0,x0,0	  x0:0x00000000
        4865000	       485	8000056c	00000013	addi	x0,x0,0	  x0:0x00000000
        4875000	       486	80000570	0041e633	or	x12,x3,x4	  x3:0x00000001  x4:0xfffff9bd x12=0xfffff9bd
        4885000	       487	80000574	001a0a13	addi	x20,x20,1	 x20:0x00000000 x20=0x00000001
        4895000	       488	80000578	fff00b13	addi	x22,x0,-1	  x0:0x00000000 x22=0xffffffff
        4905000	       489	8000057c	0173a1b3	slt	x3,x7,x23	  x7:0x80000000 x23:0x00000001  x3=0x00000001
        4915000	       490	80000580	00e00313	addi	x6,x0,14	  x0:0x00000000  x6=0x0000000e
        4925000	       491	80000584	79aef513	andi	x10,x29,1946	 x29:0x80009fc4 x10=0x00000780
        4935000	       492	80000588	003b0b13	addi	x22,x22,3	 x22:0xffffffff x22=0x00000002
        4945000	       493	8000058c	00986433	or	x8,x16,x9	 x16:0xfffffff3  x9:0x00000001  x8=0xfffffff3
        4955000	       494	80000590	fe6b6ae3	bltu	x22,x6,80000584	 x22:0x00000002  x6:0x0000000e
        4965000	       495	00000000	00000013	addi	x0,x0,0	  x0:0x00000000
        4975000	       496	80000580	00000013	addi	x0,x0,0	  x0:0x00000000
        4985000	       497	80000584	79aef513	andi	x10,x29,1946	 x29:0x80009fc4 x10=0x00000780
        4995000	       498	80000588	003b0b13	addi	x22,x22,3	 x22:0x00000002 x22=0x00000005
        5005000	       499	8000058c	00986433	or	x8,x16,x9	 x16:0xfffffff3  x9:0x00000001  x8=0xfffffff3
        5015000	       500	80000590	fe6b6ae3	bltu	x22,x6,80000584	 x22:0x00000005  x6:0x0000000e
        5025000	       501	00000000	00000013	addi	x0,x0,0	  x0:0x00000000
        5035000	       502	80000580	00000013	addi	x0,x0,0	  x0:0x00000000
        5045000	       503	80000584	79aef513	andi	x10,x29,1946	 x29:0x80009fc4 x10=0x00000780
        5055000	       504	80000588	003b0b13	addi	x22,x22,3	 x22:0x00000005 x22=0x00000008
        5065000	       505	8000058c	00986433	or	x8,x16,x9	 x16:0xfffffff3  x9:0x00000001  x8=0xfffffff3
        5075000	       506	80000590	fe6b6ae3	bltu	x22,x6,80000584	 x22:0x00000008  x6:0x0000000e
        5085000	       507	00000000	00000013	addi	x0,x0,0	  x0:0x00000000
        5095000	       508	80000580	00000013	addi	x0,x0,0	  x0:0x00000000
        5105000	       509	80000584	79aef513	andi	x10,x29,1946	 x29:0x80009fc4 x10=0x00000780
        5115000	       510	80000588	003b0b13	addi	x22,x22,3	 x22:0x00000008 x22=0x0000000b
        5125000	       511	8000058c	00986433	or	x8,x16,x9	 x16:0xfffffff3  x9:0x00000001  x8=0xfffffff3
        5135000	       512	80000590	fe6b6ae3	bltu	x22,x6,80000584	 x22:0x0000000b  x6:0x0000000e
        5145000	       513	00000000	00000013	addi	x0,x0,0	  x0:0x00000000
        5155000	       514	80000580	00000013	addi	x0,x0,0	  x0:0x00000000
        5165000	       515	80000584	79aef513	andi	x10,x29,1946	 x29:0x80009fc4 x10=0x00000780
        5175000	       516	80000588	003b0b13	addi	x22,x22,3	 x22:0x0000000b x22=0x0000000e
        5185000	       517	8000058c	00986433	or	x8,x16,x9	 x16:0xfffffff3  x9:0x00000001  x8=0xfffffff3
        5195000	       518	80000590	fe6b6ae3	bltu	x22,x6,80000584	 x22:0x0000000e  x6:0x0000000e
        5205000	       519	80000594	015628b3	slt	x17,x12,x21	 x12:0xfffff9bd x21:0x00000000 x17=0x00000001
        5215000	       520	80000598	fdaa4ce3	blt	x20,x26,80000570	 x20:0x00000001 x26:0x0000000b
        5225000	       521	00000000	00000013	addi	x0,x0,0	  x0:0x00000000
        5235000	       522	8000056c	00000013	addi	x0,x0,0	  x0:0x00000000
        5245000	       523	80000570	0041e633	or	x12,x3,x4	  x3:0x00000001  x4:0xfffff9bd x12=0xfffff9bd
        5255000	       524	80000574	001a0a13	addi	x20,x20,1	 x20:0x00000001 x20=0x00000002
        5265000	       525	80000578	fff00b13	addi	x22,x0,-1	  x0:0x00000000 x22=0xffffffff
        5275000	       526	8000057c	0173a1b3	slt	x3,x7,x23	  x7:0x80000000 x23:0x00000001  x3=0x00000001
        5285000	       527	80000580	00e00313	addi	x6,x0,14	  x0:0x00000000  x6=0x0000000e
        5295000	       528	80000584	79aef513	andi	x10,x29,1946	 x29:0x80009fc4 x10=0x00000780
        5305000	       529	80000588	003b0b13	addi	x22,x22,3	 x22:0xffffffff x22=0x00000002
        5315000	       530	8000058c	00986433	or	x8,x16,x9	 x16:0xfffffff3  x9:0x00000001  x8=0xfffffff3
        5325000	       531	80000590	fe6b6ae3	bltu	x22,x6,80000584	 x22:0x00000002  x6:0x0000000e
        5335000	       532	00000000	00000013	addi	x0,x0,0	  x0:0x00000000
        5345000	       533	80000580	00000013	addi	x0,x0,0	  x0:0x00000000
        5355000	       534	80000584	79aef513	andi	x10,x29,1946	 x29:0x80009fc4 x10=0x00000780
        5365000	       535	80000588	003b0b13	addi	x22,x22,3	 x22:0x00000002 x22=0x00000005
        5375000	       536	8000058c	00986433	or	x8,x16,x9	 x16:0xfffffff3  x9:0x00000001  x8=0xfffffff3
        5385000	       537	80000590	fe6b6ae3	bltu	x22,x6,80000584	 x22:0x00000005  x6:0x0000000e
        5395000	       538	00000000	00000013	addi	x0,x0,0	  x0:0x00000000
        5405000	       539	80000580	00000013	addi	x0,x0,0	  x0:0x00000000
        5415000	       540	80000584	79aef513	andi	x10,x29,1946	 x29:0x80009fc4 x10=0x00000780
        5425000	       541	80000588	003b0b13	addi	x22,x22,3	 x22:0x00000005 x22=0x00000008
        5435000	       542	8000058c	00986433	or	x8,x16,x9	 x16:0xfffffff3  x9:0x00000001  x8=0xfffffff3
        5445000	       543	80000590	fe6b6ae3	bltu	x22,x6,80000584	 x22:0x00000008  x6:0x0000000e
        5455000	       544	00000000	00000013	addi	x0,x0,0	  x0:0x00000000
        5465000	       545	80000580	00000013	addi	x0,x0,0	  x0:0x00000000
        5475000	       546	80000584	79aef513	andi	x10,x29,1946	 x29:0x80009fc4 x10=0x00000780
        5485000	       547	80000588	003b0b13	addi	x22,x22,3	 x22:0x00000008 x22=0x0000000b
        5495000	       548	8000058c	00986433	or	x8,x16,x9	 x16:0xfffffff3  x9:0x00000001  x8=0xfffffff3
        5505000	       549	80000590	fe6b6ae3	bltu	x22,x6,80000584	 x22:0x0000000b  x6:0x0000000e
        5515000	       550	00000000	00000013	addi	x0,x0,0	  x0:0x00000000
        5525000	       551	80000580	00000013	addi	x0,x0,0	  x0:0x00000000
        5535000	       552	80000584	79aef513	andi	x10,x29,1946	 x29:0x80009fc4 x10=0x00000780
        5545000	       553	80000588	003b0b13	addi	x22,x22,3	 x22:0x0000000b x22=0x0000000e
        5555000	       554	8000058c	00986433	or	x8,x16,x9	 x16:0xfffffff3  x9:0x00000001  x8=0xfffffff3
        5565000	       555	80000590	fe6b6ae3	bltu	x22,x6,80000584	 x22:0x0000000e  x6:0x0000000e
        5575000	       556	80000594	015628b3	slt	x17,x12,x21	 x12:0xfffff9bd x21:0x00000000 x17=0x00000001
        5585000	       557	80000598	fdaa4ce3	blt	x20,x26,80000570	 x20:0x00000002 x26:0x0000000b
        5595000	       558	00000000	00000013	addi	x0,x0,0	  x0:0x00000000
        5605000	       559	8000056c	00000013	addi	x0,x0,0	  x0:0x00000000
        5615000	       560	80000570	0041e633	or	x12,x3,x4	  x3:0x00000001  x4:0xfffff9bd x12=0xfffff9bd
        5625000	       561	80000574	001a0a13	addi	x20,x20,1	 x20:0x00000002 x20=0x00000003
        5635000	       562	80000578	fff00b13	addi	x22,x0,-1	  x0:0x00000000 x22=0xffffffff
        5645000	       563	8000057c	0173a1b3	slt	x3,x7,x23	  x7:0x80000000 x23:0x00000001  x3=0x00000001
        5655000	       564	80000580	00e00313	addi	x6,x0,14	  x0:0x00000000  x6=0x0000000e
        5665000	       565	80000584	79aef513	andi	x10,x29,1946	 x29:0x80009fc4 x10=0x00000780
        5675000	       566	80000588	003b0b13	addi	x22,x22,3	 x22:0xffffffff x22=0x00000002
        5685000	       567	8000058c	00986433	or	x8,x16,x9	 x16:0xfffffff3  x9:0x00000001  x8=0xfffffff3
        5695000	       568	80000590	fe6b6ae3	bltu	x22,x6,80000584	 x22:0x00000002  x6:0x0000000e
        5705000	       569	00000000	00000013	addi	x0,x0,0	  x0:0x00000000
        5715000	       570	80000580	00000013	addi	x0,x0,0	  x0:0x00000000
        5725000	       571	80000584	79aef513	andi	x10,x29,1946	 x29:0x80009fc4 x10=0x00000780
        5735000	       572	80000588	003b0b13	addi	x22,x22,3	 x22:0x00000002 x22=0x00000005
        5745000	       573	8000058c	00986433	or	x8,x16,x9	 x16:0xfffffff3  x9:0x00000001  x8=0xfffffff3
        5755000	       574	80000590	fe6b6ae3	bltu	x22,x6,80000584	 x22:0x00000005  x6:0x0000000e
        5765000	       575	00000000	00000013	addi	x0,x0,0	  x0:0x00000000
        5775000	       576	80000580	00000013	addi	x0,x0,0	  x0:0x00000000
        5785000	       577	80000584	79aef513	andi	x10,x29,1946	 x29:0x80009fc4 x10=0x00000780
        5795000	       578	80000588	003b0b13	addi	x22,x22,3	 x22:0x00000005 x22=0x00000008
        5805000	       579	8000058c	00986433	or	x8,x16,x9	 x16:0xfffffff3  x9:0x00000001  x8=0xfffffff3
        5815000	       580	80000590	fe6b6ae3	bltu	x22,x6,80000584	 x22:0x00000008  x6:0x0000000e
        5825000	       581	00000000	00000013	addi	x0,x0,0	  x0:0x00000000
        5835000	       582	80000580	00000013	addi	x0,x0,0	  x0:0x00000000
        5845000	       583	80000584	79aef513	andi	x10,x29,1946	 x29:0x80009fc4 x10=0x00000780
        5855000	       584	80000588	003b0b13	addi	x22,x22,3	 x22:0x00000008 x22=0x0000000b
        5865000	       585	8000058c	00986433	or	x8,x16,x9	 x16:0xfffffff3  x9:0x00000001  x8=0xfffffff3
        5875000	       586	80000590	fe6b6ae3	bltu	x22,x6,80000584	 x22:0x0000000b  x6:0x0000000e
        5885000	       587	00000000	00000013	addi	x0,x0,0	  x0:0x00000000
        5895000	       588	80000580	00000013	addi	x0,x0,0	  x0:0x00000000
        5905000	       589	80000584	79aef513	andi	x10,x29,1946	 x29:0x80009fc4 x10=0x00000780
        5915000	       590	80000588	003b0b13	addi	x22,x22,3	 x22:0x0000000b x22=0x0000000e
        5925000	       591	8000058c	00986433	or	x8,x16,x9	 x16:0xfffffff3  x9:0x00000001  x8=0xfffffff3
        5935000	       592	80000590	fe6b6ae3	bltu	x22,x6,80000584	 x22:0x0000000e  x6:0x0000000e
        5945000	       593	80000594	015628b3	slt	x17,x12,x21	 x12:0xfffff9bd x21:0x00000000 x17=0x00000001
        5955000	       594	80000598	fdaa4ce3	blt	x20,x26,80000570	 x20:0x00000003 x26:0x0000000b
        5965000	       595	00000000	00000013	addi	x0,x0,0	  x0:0x00000000
        5975000	       596	8000056c	00000013	addi	x0,x0,0	  x0:0x00000000
        5985000	       597	80000570	0041e633	or	x12,x3,x4	  x3:0x00000001  x4:0xfffff9bd x12=0xfffff9bd
        5995000	       598	80000574	001a0a13	addi	x20,x20,1	 x20:0x00000003 x20=0x00000004
        6005000	       599	80000578	fff00b13	addi	x22,x0,-1	  x0:0x00000000 x22=0xffffffff
        6015000	       600	8000057c	0173a1b3	slt	x3,x7,x23	  x7:0x80000000 x23:0x00000001  x3=0x00000001
        6025000	       601	80000580	00e00313	addi	x6,x0,14	  x0:0x00000000  x6=0x0000000e
        6035000	       602	80000584	79aef513	andi	x10,x29,1946	 x29:0x80009fc4 x10=0x00000780
        6045000	       603	80000588	003b0b13	addi	x22,x22,3	 x22:0xffffffff x22=0x00000002
        6055000	       604	8000058c	00986433	or	x8,x16,x9	 x16:0xfffffff3  x9:0x00000001  x8=0xfffffff3
        6065000	       605	80000590	fe6b6ae3	bltu	x22,x6,80000584	 x22:0x00000002  x6:0x0000000e
        6075000	       606	00000000	00000013	addi	x0,x0,0	  x0:0x00000000
        6085000	       607	80000580	00000013	addi	x0,x0,0	  x0:0x00000000
        6095000	       608	80000584	79aef513	andi	x10,x29,1946	 x29:0x80009fc4 x10=0x00000780
        6105000	       609	80000588	003b0b13	addi	x22,x22,3	 x22:0x00000002 x22=0x00000005
        6115000	       610	8000058c	00986433	or	x8,x16,x9	 x16:0xfffffff3  x9:0x00000001  x8=0xfffffff3
        6125000	       611	80000590	fe6b6ae3	bltu	x22,x6,80000584	 x22:0x00000005  x6:0x0000000e
        6135000	       612	00000000	00000013	addi	x0,x0,0	  x0:0x00000000
        6145000	       613	80000580	00000013	addi	x0,x0,0	  x0:0x00000000
        6155000	       614	80000584	79aef513	andi	x10,x29,1946	 x29:0x80009fc4 x10=0x00000780
        6165000	       615	80000588	003b0b13	addi	x22,x22,3	 x22:0x00000005 x22=0x00000008
        6175000	       616	8000058c	00986433	or	x8,x16,x9	 x16:0xfffffff3  x9:0x00000001  x8=0xfffffff3
        6185000	       617	80000590	fe6b6ae3	bltu	x22,x6,80000584	 x22:0x00000008  x6:0x0000000e
        6195000	       618	00000000	00000013	addi	x0,x0,0	  x0:0x00000000
        6205000	       619	80000580	00000013	addi	x0,x0,0	  x0:0x00000000
        6215000	       620	80000584	79aef513	andi	x10,x29,1946	 x29:0x80009fc4 x10=0x00000780
        6225000	       621	80000588	003b0b13	addi	x22,x22,3	 x22:0x00000008 x22=0x0000000b
        6235000	       622	8000058c	00986433	or	x8,x16,x9	 x16:0xfffffff3  x9:0x00000001  x8=0xfffffff3
        6245000	       623	80000590	fe6b6ae3	bltu	x22,x6,80000584	 x22:0x0000000b  x6:0x0000000e
        6255000	       624	00000000	00000013	addi	x0,x0,0	  x0:0x00000000
        6265000	       625	80000580	00000013	addi	x0,x0,0	  x0:0x00000000
        6275000	       626	80000584	79aef513	andi	x10,x29,1946	 x29:0x80009fc4 x10=0x00000780
        6285000	       627	80000588	003b0b13	addi	x22,x22,3	 x22:0x0000000b x22=0x0000000e
        6295000	       628	8000058c	00986433	or	x8,x16,x9	 x16:0xfffffff3  x9:0x00000001  x8=0xfffffff3
        6305000	       629	80000590	fe6b6ae3	bltu	x22,x6,80000584	 x22:0x0000000e  x6:0x0000000e
        6315000	       630	80000594	015628b3	slt	x17,x12,x21	 x12:0xfffff9bd x21:0x00000000 x17=0x00000001
        6325000	       631	80000598	fdaa4ce3	blt	x20,x26,80000570	 x20:0x00000004 x26:0x0000000b
        6335000	       632	00000000	00000013	addi	x0,x0,0	  x0:0x00000000
        6345000	       633	8000056c	00000013	addi	x0,x0,0	  x0:0x00000000
        6355000	       634	80000570	0041e633	or	x12,x3,x4	  x3:0x00000001  x4:0xfffff9bd x12=0xfffff9bd
        6365000	       635	80000574	001a0a13	addi	x20,x20,1	 x20:0x00000004 x20=0x00000005
        6375000	       636	80000578	fff00b13	addi	x22,x0,-1	  x0:0x00000000 x22=0xffffffff
        6385000	       637	8000057c	0173a1b3	slt	x3,x7,x23	  x7:0x80000000 x23:0x00000001  x3=0x00000001
        6395000	       638	80000580	00e00313	addi	x6,x0,14	  x0:0x00000000  x6=0x0000000e
        6405000	       639	80000584	79aef513	andi	x10,x29,1946	 x29:0x80009fc4 x10=0x00000780
        6415000	       640	80000588	003b0b13	addi	x22,x22,3	 x22:0xffffffff x22=0x00000002
        6425000	       641	8000058c	00986433	or	x8,x16,x9	 x16:0xfffffff3  x9:0x00000001  x8=0xfffffff3
        6435000	       642	80000590	fe6b6ae3	bltu	x22,x6,80000584	 x22:0x00000002  x6:0x0000000e
        6445000	       643	00000000	00000013	addi	x0,x0,0	  x0:0x00000000
        6455000	       644	80000580	00000013	addi	x0,x0,0	  x0:0x00000000
        6465000	       645	80000584	79aef513	andi	x10,x29,1946	 x29:0x80009fc4 x10=0x00000780
        6475000	       646	80000588	003b0b13	addi	x22,x22,3	 x22:0x00000002 x22=0x00000005
        6485000	       647	8000058c	00986433	or	x8,x16,x9	 x16:0xfffffff3  x9:0x00000001  x8=0xfffffff3
        6495000	       648	80000590	fe6b6ae3	bltu	x22,x6,80000584	 x22:0x00000005  x6:0x0000000e
        6505000	       649	00000000	00000013	addi	x0,x0,0	  x0:0x00000000
        6515000	       650	80000580	00000013	addi	x0,x0,0	  x0:0x00000000
        6525000	       651	80000584	79aef513	andi	x10,x29,1946	 x29:0x80009fc4 x10=0x00000780
        6535000	       652	80000588	003b0b13	addi	x22,x22,3	 x22:0x00000005 x22=0x00000008
        6545000	       653	8000058c	00986433	or	x8,x16,x9	 x16:0xfffffff3  x9:0x00000001  x8=0xfffffff3
        6555000	       654	80000590	fe6b6ae3	bltu	x22,x6,80000584	 x22:0x00000008  x6:0x0000000e
        6565000	       655	00000000	00000013	addi	x0,x0,0	  x0:0x00000000
        6575000	       656	80000580	00000013	addi	x0,x0,0	  x0:0x00000000
        6585000	       657	80000584	79aef513	andi	x10,x29,1946	 x29:0x80009fc4 x10=0x00000780
        6595000	       658	80000588	003b0b13	addi	x22,x22,3	 x22:0x00000008 x22=0x0000000b
        6605000	       659	8000058c	00986433	or	x8,x16,x9	 x16:0xfffffff3  x9:0x00000001  x8=0xfffffff3
        6615000	       660	80000590	fe6b6ae3	bltu	x22,x6,80000584	 x22:0x0000000b  x6:0x0000000e
        6625000	       661	00000000	00000013	addi	x0,x0,0	  x0:0x00000000
        6635000	       662	80000580	00000013	addi	x0,x0,0	  x0:0x00000000
        6645000	       663	80000584	79aef513	andi	x10,x29,1946	 x29:0x80009fc4 x10=0x00000780
        6655000	       664	80000588	003b0b13	addi	x22,x22,3	 x22:0x0000000b x22=0x0000000e
        6665000	       665	8000058c	00986433	or	x8,x16,x9	 x16:0xfffffff3  x9:0x00000001  x8=0xfffffff3
        6675000	       666	80000590	fe6b6ae3	bltu	x22,x6,80000584	 x22:0x0000000e  x6:0x0000000e
        6685000	       667	80000594	015628b3	slt	x17,x12,x21	 x12:0xfffff9bd x21:0x00000000 x17=0x00000001
        6695000	       668	80000598	fdaa4ce3	blt	x20,x26,80000570	 x20:0x00000005 x26:0x0000000b
        6705000	       669	00000000	00000013	addi	x0,x0,0	  x0:0x00000000
        6715000	       670	8000056c	00000013	addi	x0,x0,0	  x0:0x00000000
        6725000	       671	80000570	0041e633	or	x12,x3,x4	  x3:0x00000001  x4:0xfffff9bd x12=0xfffff9bd
        6735000	       672	80000574	001a0a13	addi	x20,x20,1	 x20:0x00000005 x20=0x00000006
        6745000	       673	80000578	fff00b13	addi	x22,x0,-1	  x0:0x00000000 x22=0xffffffff
        6755000	       674	8000057c	0173a1b3	slt	x3,x7,x23	  x7:0x80000000 x23:0x00000001  x3=0x00000001
        6765000	       675	80000580	00e00313	addi	x6,x0,14	  x0:0x00000000  x6=0x0000000e
        6775000	       676	80000584	79aef513	andi	x10,x29,1946	 x29:0x80009fc4 x10=0x00000780
        6785000	       677	80000588	003b0b13	addi	x22,x22,3	 x22:0xffffffff x22=0x00000002
        6795000	       678	8000058c	00986433	or	x8,x16,x9	 x16:0xfffffff3  x9:0x00000001  x8=0xfffffff3
        6805000	       679	80000590	fe6b6ae3	bltu	x22,x6,80000584	 x22:0x00000002  x6:0x0000000e
        6815000	       680	00000000	00000013	addi	x0,x0,0	  x0:0x00000000
        6825000	       681	80000580	00000013	addi	x0,x0,0	  x0:0x00000000
        6835000	       682	80000584	79aef513	andi	x10,x29,1946	 x29:0x80009fc4 x10=0x00000780
        6845000	       683	80000588	003b0b13	addi	x22,x22,3	 x22:0x00000002 x22=0x00000005
        6855000	       684	8000058c	00986433	or	x8,x16,x9	 x16:0xfffffff3  x9:0x00000001  x8=0xfffffff3
        6865000	       685	80000590	fe6b6ae3	bltu	x22,x6,80000584	 x22:0x00000005  x6:0x0000000e
        6875000	       686	00000000	00000013	addi	x0,x0,0	  x0:0x00000000
        6885000	       687	80000580	00000013	addi	x0,x0,0	  x0:0x00000000
        6895000	       688	80000584	79aef513	andi	x10,x29,1946	 x29:0x80009fc4 x10=0x00000780
        6905000	       689	80000588	003b0b13	addi	x22,x22,3	 x22:0x00000005 x22=0x00000008
        6915000	       690	8000058c	00986433	or	x8,x16,x9	 x16:0xfffffff3  x9:0x00000001  x8=0xfffffff3
        6925000	       691	80000590	fe6b6ae3	bltu	x22,x6,80000584	 x22:0x00000008  x6:0x0000000e
        6935000	       692	00000000	00000013	addi	x0,x0,0	  x0:0x00000000
        6945000	       693	80000580	00000013	addi	x0,x0,0	  x0:0x00000000
        6955000	       694	80000584	79aef513	andi	x10,x29,1946	 x29:0x80009fc4 x10=0x00000780
        6965000	       695	80000588	003b0b13	addi	x22,x22,3	 x22:0x00000008 x22=0x0000000b
        6975000	       696	8000058c	00986433	or	x8,x16,x9	 x16:0xfffffff3  x9:0x00000001  x8=0xfffffff3
        6985000	       697	80000590	fe6b6ae3	bltu	x22,x6,80000584	 x22:0x0000000b  x6:0x0000000e
        6995000	       698	00000000	00000013	addi	x0,x0,0	  x0:0x00000000
        7005000	       699	80000580	00000013	addi	x0,x0,0	  x0:0x00000000
        7015000	       700	80000584	79aef513	andi	x10,x29,1946	 x29:0x80009fc4 x10=0x00000780
        7025000	       701	80000588	003b0b13	addi	x22,x22,3	 x22:0x0000000b x22=0x0000000e
        7035000	       702	8000058c	00986433	or	x8,x16,x9	 x16:0xfffffff3  x9:0x00000001  x8=0xfffffff3
        7045000	       703	80000590	fe6b6ae3	bltu	x22,x6,80000584	 x22:0x0000000e  x6:0x0000000e
        7055000	       704	80000594	015628b3	slt	x17,x12,x21	 x12:0xfffff9bd x21:0x00000000 x17=0x00000001
        7065000	       705	80000598	fdaa4ce3	blt	x20,x26,80000570	 x20:0x00000006 x26:0x0000000b
        7075000	       706	00000000	00000013	addi	x0,x0,0	  x0:0x00000000
        7085000	       707	8000056c	00000013	addi	x0,x0,0	  x0:0x00000000
        7095000	       708	80000570	0041e633	or	x12,x3,x4	  x3:0x00000001  x4:0xfffff9bd x12=0xfffff9bd
        7105000	       709	80000574	001a0a13	addi	x20,x20,1	 x20:0x00000006 x20=0x00000007
        7115000	       710	80000578	fff00b13	addi	x22,x0,-1	  x0:0x00000000 x22=0xffffffff
        7125000	       711	8000057c	0173a1b3	slt	x3,x7,x23	  x7:0x80000000 x23:0x00000001  x3=0x00000001
        7135000	       712	80000580	00e00313	addi	x6,x0,14	  x0:0x00000000  x6=0x0000000e
        7145000	       713	80000584	79aef513	andi	x10,x29,1946	 x29:0x80009fc4 x10=0x00000780
        7155000	       714	80000588	003b0b13	addi	x22,x22,3	 x22:0xffffffff x22=0x00000002
        7165000	       715	8000058c	00986433	or	x8,x16,x9	 x16:0xfffffff3  x9:0x00000001  x8=0xfffffff3
        7175000	       716	80000590	fe6b6ae3	bltu	x22,x6,80000584	 x22:0x00000002  x6:0x0000000e
        7185000	       717	00000000	00000013	addi	x0,x0,0	  x0:0x00000000
        7195000	       718	80000580	00000013	addi	x0,x0,0	  x0:0x00000000
        7205000	       719	80000584	79aef513	andi	x10,x29,1946	 x29:0x80009fc4 x10=0x00000780
        7215000	       720	80000588	003b0b13	addi	x22,x22,3	 x22:0x00000002 x22=0x00000005
        7225000	       721	8000058c	00986433	or	x8,x16,x9	 x16:0xfffffff3  x9:0x00000001  x8=0xfffffff3
        7235000	       722	80000590	fe6b6ae3	bltu	x22,x6,80000584	 x22:0x00000005  x6:0x0000000e
        7245000	       723	00000000	00000013	addi	x0,x0,0	  x0:0x00000000
        7255000	       724	80000580	00000013	addi	x0,x0,0	  x0:0x00000000
        7265000	       725	80000584	79aef513	andi	x10,x29,1946	 x29:0x80009fc4 x10=0x00000780
        7275000	       726	80000588	003b0b13	addi	x22,x22,3	 x22:0x00000005 x22=0x00000008
        7285000	       727	8000058c	00986433	or	x8,x16,x9	 x16:0xfffffff3  x9:0x00000001  x8=0xfffffff3
        7295000	       728	80000590	fe6b6ae3	bltu	x22,x6,80000584	 x22:0x00000008  x6:0x0000000e
        7305000	       729	00000000	00000013	addi	x0,x0,0	  x0:0x00000000
        7315000	       730	80000580	00000013	addi	x0,x0,0	  x0:0x00000000
        7325000	       731	80000584	79aef513	andi	x10,x29,1946	 x29:0x80009fc4 x10=0x00000780
        7335000	       732	80000588	003b0b13	addi	x22,x22,3	 x22:0x00000008 x22=0x0000000b
        7345000	       733	8000058c	00986433	or	x8,x16,x9	 x16:0xfffffff3  x9:0x00000001  x8=0xfffffff3
        7355000	       734	80000590	fe6b6ae3	bltu	x22,x6,80000584	 x22:0x0000000b  x6:0x0000000e
        7365000	       735	00000000	00000013	addi	x0,x0,0	  x0:0x00000000
        7375000	       736	80000580	00000013	addi	x0,x0,0	  x0:0x00000000
        7385000	       737	80000584	79aef513	andi	x10,x29,1946	 x29:0x80009fc4 x10=0x00000780
        7395000	       738	80000588	003b0b13	addi	x22,x22,3	 x22:0x0000000b x22=0x0000000e
        7405000	       739	8000058c	00986433	or	x8,x16,x9	 x16:0xfffffff3  x9:0x00000001  x8=0xfffffff3
        7415000	       740	80000590	fe6b6ae3	bltu	x22,x6,80000584	 x22:0x0000000e  x6:0x0000000e
        7425000	       741	80000594	015628b3	slt	x17,x12,x21	 x12:0xfffff9bd x21:0x00000000 x17=0x00000001
        7435000	       742	80000598	fdaa4ce3	blt	x20,x26,80000570	 x20:0x00000007 x26:0x0000000b
        7445000	       743	00000000	00000013	addi	x0,x0,0	  x0:0x00000000
        7455000	       744	8000056c	00000013	addi	x0,x0,0	  x0:0x00000000
        7465000	       745	80000570	0041e633	or	x12,x3,x4	  x3:0x00000001  x4:0xfffff9bd x12=0xfffff9bd
        7475000	       746	80000574	001a0a13	addi	x20,x20,1	 x20:0x00000007 x20=0x00000008
        7485000	       747	80000578	fff00b13	addi	x22,x0,-1	  x0:0x00000000 x22=0xffffffff
        7495000	       748	8000057c	0173a1b3	slt	x3,x7,x23	  x7:0x80000000 x23:0x00000001  x3=0x00000001
        7505000	       749	80000580	00e00313	addi	x6,x0,14	  x0:0x00000000  x6=0x0000000e
        7515000	       750	80000584	79aef513	andi	x10,x29,1946	 x29:0x80009fc4 x10=0x00000780
        7525000	       751	80000588	003b0b13	addi	x22,x22,3	 x22:0xffffffff x22=0x00000002
        7535000	       752	8000058c	00986433	or	x8,x16,x9	 x16:0xfffffff3  x9:0x00000001  x8=0xfffffff3
        7545000	       753	80000590	fe6b6ae3	bltu	x22,x6,80000584	 x22:0x00000002  x6:0x0000000e
        7555000	       754	00000000	00000013	addi	x0,x0,0	  x0:0x00000000
        7565000	       755	80000580	00000013	addi	x0,x0,0	  x0:0x00000000
        7575000	       756	80000584	79aef513	andi	x10,x29,1946	 x29:0x80009fc4 x10=0x00000780
        7585000	       757	80000588	003b0b13	addi	x22,x22,3	 x22:0x00000002 x22=0x00000005
        7595000	       758	8000058c	00986433	or	x8,x16,x9	 x16:0xfffffff3  x9:0x00000001  x8=0xfffffff3
        7605000	       759	80000590	fe6b6ae3	bltu	x22,x6,80000584	 x22:0x00000005  x6:0x0000000e
        7615000	       760	00000000	00000013	addi	x0,x0,0	  x0:0x00000000
        7625000	       761	80000580	00000013	addi	x0,x0,0	  x0:0x00000000
        7635000	       762	80000584	79aef513	andi	x10,x29,1946	 x29:0x80009fc4 x10=0x00000780
        7645000	       763	80000588	003b0b13	addi	x22,x22,3	 x22:0x00000005 x22=0x00000008
        7655000	       764	8000058c	00986433	or	x8,x16,x9	 x16:0xfffffff3  x9:0x00000001  x8=0xfffffff3
        7665000	       765	80000590	fe6b6ae3	bltu	x22,x6,80000584	 x22:0x00000008  x6:0x0000000e
        7675000	       766	00000000	00000013	addi	x0,x0,0	  x0:0x00000000
        7685000	       767	80000580	00000013	addi	x0,x0,0	  x0:0x00000000
        7695000	       768	80000584	79aef513	andi	x10,x29,1946	 x29:0x80009fc4 x10=0x00000780
        7705000	       769	80000588	003b0b13	addi	x22,x22,3	 x22:0x00000008 x22=0x0000000b
        7715000	       770	8000058c	00986433	or	x8,x16,x9	 x16:0xfffffff3  x9:0x00000001  x8=0xfffffff3
        7725000	       771	80000590	fe6b6ae3	bltu	x22,x6,80000584	 x22:0x0000000b  x6:0x0000000e
        7735000	       772	00000000	00000013	addi	x0,x0,0	  x0:0x00000000
        7745000	       773	80000580	00000013	addi	x0,x0,0	  x0:0x00000000
        7755000	       774	80000584	79aef513	andi	x10,x29,1946	 x29:0x80009fc4 x10=0x00000780
        7765000	       775	80000588	003b0b13	addi	x22,x22,3	 x22:0x0000000b x22=0x0000000e
        7775000	       776	8000058c	00986433	or	x8,x16,x9	 x16:0xfffffff3  x9:0x00000001  x8=0xfffffff3
        7785000	       777	80000590	fe6b6ae3	bltu	x22,x6,80000584	 x22:0x0000000e  x6:0x0000000e
        7795000	       778	80000594	015628b3	slt	x17,x12,x21	 x12:0xfffff9bd x21:0x00000000 x17=0x00000001
        7805000	       779	80000598	fdaa4ce3	blt	x20,x26,80000570	 x20:0x00000008 x26:0x0000000b
        7815000	       780	00000000	00000013	addi	x0,x0,0	  x0:0x00000000
        7825000	       781	8000056c	00000013	addi	x0,x0,0	  x0:0x00000000
        7835000	       782	80000570	0041e633	or	x12,x3,x4	  x3:0x00000001  x4:0xfffff9bd x12=0xfffff9bd
        7845000	       783	80000574	001a0a13	addi	x20,x20,1	 x20:0x00000008 x20=0x00000009
        7855000	       784	80000578	fff00b13	addi	x22,x0,-1	  x0:0x00000000 x22=0xffffffff
        7865000	       785	8000057c	0173a1b3	slt	x3,x7,x23	  x7:0x80000000 x23:0x00000001  x3=0x00000001
        7875000	       786	80000580	00e00313	addi	x6,x0,14	  x0:0x00000000  x6=0x0000000e
        7885000	       787	80000584	79aef513	andi	x10,x29,1946	 x29:0x80009fc4 x10=0x00000780
        7895000	       788	80000588	003b0b13	addi	x22,x22,3	 x22:0xffffffff x22=0x00000002
        7905000	       789	8000058c	00986433	or	x8,x16,x9	 x16:0xfffffff3  x9:0x00000001  x8=0xfffffff3
        7915000	       790	80000590	fe6b6ae3	bltu	x22,x6,80000584	 x22:0x00000002  x6:0x0000000e
        7925000	       791	00000000	00000013	addi	x0,x0,0	  x0:0x00000000
        7935000	       792	80000580	00000013	addi	x0,x0,0	  x0:0x00000000
        7945000	       793	80000584	79aef513	andi	x10,x29,1946	 x29:0x80009fc4 x10=0x00000780
        7955000	       794	80000588	003b0b13	addi	x22,x22,3	 x22:0x00000002 x22=0x00000005
        7965000	       795	8000058c	00986433	or	x8,x16,x9	 x16:0xfffffff3  x9:0x00000001  x8=0xfffffff3
        7975000	       796	80000590	fe6b6ae3	bltu	x22,x6,80000584	 x22:0x00000005  x6:0x0000000e
        7985000	       797	00000000	00000013	addi	x0,x0,0	  x0:0x00000000
        7995000	       798	80000580	00000013	addi	x0,x0,0	  x0:0x00000000
        8005000	       799	80000584	79aef513	andi	x10,x29,1946	 x29:0x80009fc4 x10=0x00000780
        8015000	       800	80000588	003b0b13	addi	x22,x22,3	 x22:0x00000005 x22=0x00000008
        8025000	       801	8000058c	00986433	or	x8,x16,x9	 x16:0xfffffff3  x9:0x00000001  x8=0xfffffff3
        8035000	       802	80000590	fe6b6ae3	bltu	x22,x6,80000584	 x22:0x00000008  x6:0x0000000e
        8045000	       803	00000000	00000013	addi	x0,x0,0	  x0:0x00000000
        8055000	       804	80000580	00000013	addi	x0,x0,0	  x0:0x00000000
        8065000	       805	80000584	79aef513	andi	x10,x29,1946	 x29:0x80009fc4 x10=0x00000780
        8075000	       806	80000588	003b0b13	addi	x22,x22,3	 x22:0x00000008 x22=0x0000000b
        8085000	       807	8000058c	00986433	or	x8,x16,x9	 x16:0xfffffff3  x9:0x00000001  x8=0xfffffff3
        8095000	       808	80000590	fe6b6ae3	bltu	x22,x6,80000584	 x22:0x0000000b  x6:0x0000000e
        8105000	       809	00000000	00000013	addi	x0,x0,0	  x0:0x00000000
        8115000	       810	80000580	00000013	addi	x0,x0,0	  x0:0x00000000
        8125000	       811	80000584	79aef513	andi	x10,x29,1946	 x29:0x80009fc4 x10=0x00000780
        8135000	       812	80000588	003b0b13	addi	x22,x22,3	 x22:0x0000000b x22=0x0000000e
        8145000	       813	8000058c	00986433	or	x8,x16,x9	 x16:0xfffffff3  x9:0x00000001  x8=0xfffffff3
        8155000	       814	80000590	fe6b6ae3	bltu	x22,x6,80000584	 x22:0x0000000e  x6:0x0000000e
        8165000	       815	80000594	015628b3	slt	x17,x12,x21	 x12:0xfffff9bd x21:0x00000000 x17=0x00000001
        8175000	       816	80000598	fdaa4ce3	blt	x20,x26,80000570	 x20:0x00000009 x26:0x0000000b
        8185000	       817	00000000	00000013	addi	x0,x0,0	  x0:0x00000000
        8195000	       818	8000056c	00000013	addi	x0,x0,0	  x0:0x00000000
        8205000	       819	80000570	0041e633	or	x12,x3,x4	  x3:0x00000001  x4:0xfffff9bd x12=0xfffff9bd
        8215000	       820	80000574	001a0a13	addi	x20,x20,1	 x20:0x00000009 x20=0x0000000a
        8225000	       821	80000578	fff00b13	addi	x22,x0,-1	  x0:0x00000000 x22=0xffffffff
        8235000	       822	8000057c	0173a1b3	slt	x3,x7,x23	  x7:0x80000000 x23:0x00000001  x3=0x00000001
        8245000	       823	80000580	00e00313	addi	x6,x0,14	  x0:0x00000000  x6=0x0000000e
        8255000	       824	80000584	79aef513	andi	x10,x29,1946	 x29:0x80009fc4 x10=0x00000780
        8265000	       825	80000588	003b0b13	addi	x22,x22,3	 x22:0xffffffff x22=0x00000002
        8275000	       826	8000058c	00986433	or	x8,x16,x9	 x16:0xfffffff3  x9:0x00000001  x8=0xfffffff3
        8285000	       827	80000590	fe6b6ae3	bltu	x22,x6,80000584	 x22:0x00000002  x6:0x0000000e
        8295000	       828	00000000	00000013	addi	x0,x0,0	  x0:0x00000000
        8305000	       829	80000580	00000013	addi	x0,x0,0	  x0:0x00000000
        8315000	       830	80000584	79aef513	andi	x10,x29,1946	 x29:0x80009fc4 x10=0x00000780
        8325000	       831	80000588	003b0b13	addi	x22,x22,3	 x22:0x00000002 x22=0x00000005
        8335000	       832	8000058c	00986433	or	x8,x16,x9	 x16:0xfffffff3  x9:0x00000001  x8=0xfffffff3
        8345000	       833	80000590	fe6b6ae3	bltu	x22,x6,80000584	 x22:0x00000005  x6:0x0000000e
        8355000	       834	00000000	00000013	addi	x0,x0,0	  x0:0x00000000
        8365000	       835	80000580	00000013	addi	x0,x0,0	  x0:0x00000000
        8375000	       836	80000584	79aef513	andi	x10,x29,1946	 x29:0x80009fc4 x10=0x00000780
        8385000	       837	80000588	003b0b13	addi	x22,x22,3	 x22:0x00000005 x22=0x00000008
        8395000	       838	8000058c	00986433	or	x8,x16,x9	 x16:0xfffffff3  x9:0x00000001  x8=0xfffffff3
        8405000	       839	80000590	fe6b6ae3	bltu	x22,x6,80000584	 x22:0x00000008  x6:0x0000000e
        8415000	       840	00000000	00000013	addi	x0,x0,0	  x0:0x00000000
        8425000	       841	80000580	00000013	addi	x0,x0,0	  x0:0x00000000
        8435000	       842	80000584	79aef513	andi	x10,x29,1946	 x29:0x80009fc4 x10=0x00000780
        8445000	       843	80000588	003b0b13	addi	x22,x22,3	 x22:0x00000008 x22=0x0000000b
        8455000	       844	8000058c	00986433	or	x8,x16,x9	 x16:0xfffffff3  x9:0x00000001  x8=0xfffffff3
        8465000	       845	80000590	fe6b6ae3	bltu	x22,x6,80000584	 x22:0x0000000b  x6:0x0000000e
        8475000	       846	00000000	00000013	addi	x0,x0,0	  x0:0x00000000
        8485000	       847	80000580	00000013	addi	x0,x0,0	  x0:0x00000000
        8495000	       848	80000584	79aef513	andi	x10,x29,1946	 x29:0x80009fc4 x10=0x00000780
        8505000	       849	80000588	003b0b13	addi	x22,x22,3	 x22:0x0000000b x22=0x0000000e
        8515000	       850	8000058c	00986433	or	x8,x16,x9	 x16:0xfffffff3  x9:0x00000001  x8=0xfffffff3
        8525000	       851	80000590	fe6b6ae3	bltu	x22,x6,80000584	 x22:0x0000000e  x6:0x0000000e
        8535000	       852	80000594	015628b3	slt	x17,x12,x21	 x12:0xfffff9bd x21:0x00000000 x17=0x00000001
        8545000	       853	80000598	fdaa4ce3	blt	x20,x26,80000570	 x20:0x0000000a x26:0x0000000b
        8555000	       854	00000000	00000013	addi	x0,x0,0	  x0:0x00000000
        8565000	       855	8000056c	00000013	addi	x0,x0,0	  x0:0x00000000
        8575000	       856	80000570	0041e633	or	x12,x3,x4	  x3:0x00000001  x4:0xfffff9bd x12=0xfffff9bd
        8585000	       857	80000574	001a0a13	addi	x20,x20,1	 x20:0x0000000a x20=0x0000000b
        8595000	       858	80000578	fff00b13	addi	x22,x0,-1	  x0:0x00000000 x22=0xffffffff
        8605000	       859	8000057c	0173a1b3	slt	x3,x7,x23	  x7:0x80000000 x23:0x00000001  x3=0x00000001
        8615000	       860	80000580	00e00313	addi	x6,x0,14	  x0:0x00000000  x6=0x0000000e
        8625000	       861	80000584	79aef513	andi	x10,x29,1946	 x29:0x80009fc4 x10=0x00000780
        8635000	       862	80000588	003b0b13	addi	x22,x22,3	 x22:0xffffffff x22=0x00000002
        8645000	       863	8000058c	00986433	or	x8,x16,x9	 x16:0xfffffff3  x9:0x00000001  x8=0xfffffff3
        8655000	       864	80000590	fe6b6ae3	bltu	x22,x6,80000584	 x22:0x00000002  x6:0x0000000e
        8665000	       865	00000000	00000013	addi	x0,x0,0	  x0:0x00000000
        8675000	       866	80000580	00000013	addi	x0,x0,0	  x0:0x00000000
        8685000	       867	80000584	79aef513	andi	x10,x29,1946	 x29:0x80009fc4 x10=0x00000780
        8695000	       868	80000588	003b0b13	addi	x22,x22,3	 x22:0x00000002 x22=0x00000005
        8705000	       869	8000058c	00986433	or	x8,x16,x9	 x16:0xfffffff3  x9:0x00000001  x8=0xfffffff3
        8715000	       870	80000590	fe6b6ae3	bltu	x22,x6,80000584	 x22:0x00000005  x6:0x0000000e
        8725000	       871	00000000	00000013	addi	x0,x0,0	  x0:0x00000000
        8735000	       872	80000580	00000013	addi	x0,x0,0	  x0:0x00000000
        8745000	       873	80000584	79aef513	andi	x10,x29,1946	 x29:0x80009fc4 x10=0x00000780
        8755000	       874	80000588	003b0b13	addi	x22,x22,3	 x22:0x00000005 x22=0x00000008
        8765000	       875	8000058c	00986433	or	x8,x16,x9	 x16:0xfffffff3  x9:0x00000001  x8=0xfffffff3
        8775000	       876	80000590	fe6b6ae3	bltu	x22,x6,80000584	 x22:0x00000008  x6:0x0000000e
        8785000	       877	00000000	00000013	addi	x0,x0,0	  x0:0x00000000
        8795000	       878	80000580	00000013	addi	x0,x0,0	  x0:0x00000000
        8805000	       879	80000584	79aef513	andi	x10,x29,1946	 x29:0x80009fc4 x10=0x00000780
        8815000	       880	80000588	003b0b13	addi	x22,x22,3	 x22:0x00000008 x22=0x0000000b
        8825000	       881	8000058c	00986433	or	x8,x16,x9	 x16:0xfffffff3  x9:0x00000001  x8=0xfffffff3
        8835000	       882	80000590	fe6b6ae3	bltu	x22,x6,80000584	 x22:0x0000000b  x6:0x0000000e
        8845000	       883	00000000	00000013	addi	x0,x0,0	  x0:0x00000000
        8855000	       884	80000580	00000013	addi	x0,x0,0	  x0:0x00000000
        8865000	       885	80000584	79aef513	andi	x10,x29,1946	 x29:0x80009fc4 x10=0x00000780
        8875000	       886	80000588	003b0b13	addi	x22,x22,3	 x22:0x0000000b x22=0x0000000e
        8885000	       887	8000058c	00986433	or	x8,x16,x9	 x16:0xfffffff3  x9:0x00000001  x8=0xfffffff3
        8895000	       888	80000590	fe6b6ae3	bltu	x22,x6,80000584	 x22:0x0000000e  x6:0x0000000e
        8905000	       889	80000594	015628b3	slt	x17,x12,x21	 x12:0xfffff9bd x21:0x00000000 x17=0x00000001
        8915000	       890	80000598	fdaa4ce3	blt	x20,x26,80000570	 x20:0x0000000b x26:0x0000000b
        8925000	       891	8000059c	008a54b3	srl	x9,x20,x8	 x20:0x0000000b  x8:0xfffffff3  x9=0x00000000
        8935000	       892	800005a0	00300293	addi	x5,x0,3	  x0:0x00000000  x5=0x00000003
        8945000	       893	800005a4	01baedb3	or	x27,x21,x27	 x21:0x00000000 x27:0x00000002 x27=0x00000002
        8955000	       894	800005a8	00000013	addi	x0,x0,0	  x0:0x00000000
        8965000	       895	800005ac	00857933	and	x18,x10,x8	 x10:0x00000780  x8:0xfffffff3 x18=0x00000780
        8975000	       896	800005b0	00026033	or	x0,x4,x0	  x4:0xfffff9bd  x0:0x00000000
        8985000	       897	800005b4	ff500e13	addi	x28,x0,-11	  x0:0x00000000 x28=0xfffffff5
        8995000	       898	800005b8	41308233	sub	x4,x1,x19	  x1:0xc55fd52c x19:0x00000004  x4=0xc55fd528
        9005000	       899	800005bc	0d3a8d93	addi	x27,x21,211	 x21:0x00000000 x27=0x000000d3
        9015000	       900	800005c0	57856113	ori	x2,x10,1400	 x10:0x00000780  x2=0x000007f8
        9025000	       901	800005c4	ff928293	addi	x5,x5,-7	  x5:0x00000003  x5=0xfffffffc
        9035000	       902	800005c8	64c2ff13	andi	x30,x5,1612	  x5:0xfffffffc x30=0x0000064c
        9045000	       903	800005cc	40415213	srai	x4,x2,0x4	  x2:0x000007f8  x4=0x0000007f
        9055000	       904	800005d0	ff700813	addi	x16,x0,-9	  x0:0x00000000 x16=0xfffffff7
        9065000	       905	800005d4	ffb00b13	addi	x22,x0,-5	  x0:0x00000000 x22=0xfffffffb
        9075000	       906	800005d8	a44ca993	slti	x19,x25,-1468	 x25:0x0000000e x19=0x00000000
        9085000	       907	800005dc	00000013	addi	x0,x0,0	  x0:0x00000000
        9095000	       908	800005e0	00f7c633	xor	x12,x15,x15	 x15:0x677408b4 x15:0x677408b4 x12=0x00000000
        9105000	       909	800005e4	41985213	srai	x4,x16,0x19	 x16:0xfffffff7  x4=0xffffffff
        9115000	       910	800005e8	00580813	addi	x16,x16,5	 x16:0xfffffff7 x16=0xfffffffc
        9125000	       911	800005ec	01ef1913	slli	x18,x30,0x1e	 x30:0x0000064c x18=0x00000000
        9135000	       912	800005f0	00b1c6b3	xor	x13,x3,x11	  x3:0x00000001 x11:0x00007000 x13=0x00007001
        9145000	       913	800005f4	0e553d13	sltiu	x26,x10,229	 x10:0x00000780 x26=0x00000000
        9155000	       914	800005f8	ff6842e3	blt	x16,x22,800005dc	 x16:0xfffffffc x22:0xfffffffb
        9165000	       915	800005fc	267e3b93	sltiu	x23,x28,615	 x28:0xfffffff5 x23=0x00000000
        9175000	       916	80000600	fbc28ee3	beq	x5,x28,800005bc	  x5:0xfffffffc x28:0xfffffff5
        9185000	       917	80000604	00b874b3	and	x9,x16,x11	 x16:0xfffffffc x11:0x00007000  x9=0x00007000
        9195000	       918	80000608	00800d13	addi	x26,x0,8	  x0:0x00000000 x26=0x00000008
        9205000	       919	8000060c	006c5e33	srl	x28,x24,x6	 x24:0x80009f1c  x6:0x0000000e x28=0x00020002
        9215000	       920	80000610	016b53b3	srl	x7,x22,x22	 x22:0xfffffffb x22:0xfffffffb  x7=0x0000001f
        9225000	       921	80000614	00a00b93	addi	x23,x0,10	  x0:0x00000000 x23=0x0000000a
        9235000	       922	80000618	a87e4513	xori	x10,x28,-1401	 x28:0x00020002 x10=0xfffdfa85
        9245000	       923	8000061c	05543197	auipc	x3,0x5543	  x3=0x85543618
        9255000	       924	80000620	17816193	ori	x3,x2,376	  x2:0x000007f8  x3=0x000007f8
        9265000	       925	80000624	007d0d13	addi	x26,x26,7	 x26:0x00000008 x26=0x0000000f
        9275000	       926	80000628	00fe7633	and	x12,x28,x15	 x28:0x00020002 x15:0x677408b4 x12=0x00000000
        9285000	       927	8000062c	41ec5593	srai	x11,x24,0x1e	 x24:0x80009f1c x11=0xfffffffe
        9295000	       928	80000630	41fc8f33	sub	x30,x25,x31	 x25:0x0000000e x31:0x80000008 x30=0x80000006
        9305000	       929	80000634	ff7d42e3	blt	x26,x23,80000618	 x26:0x0000000f x23:0x0000000a
        9315000	       930	80000638	00f4f233	and	x4,x9,x15	  x9:0x00007000 x15:0x677408b4  x4=0x00000000
        9325000	       931	8000063c	ff700693	addi	x13,x0,-9	  x0:0x00000000 x13=0xfffffff7
        9335000	       932	80000640	768e1637	lui	x12,0x768e1	 x12=0x768e1000
        9345000	       933	80000644	41958e33	sub	x28,x11,x25	 x11:0xfffffffe x25:0x0000000e x28=0xfffffff0
        9355000	       934	80000648	da344093	xori	x1,x8,-605	  x8:0xfffffff3  x1=0x00000250
        9365000	       935	8000064c	00600193	addi	x3,x0,6	  x0:0x00000000  x3=0x00000006
        9375000	       936	80000650	41d25513	srai	x10,x4,0x1d	  x4:0x00000000 x10=0x00000000
        9385000	       937	80000654	dc567213	andi	x4,x12,-571	 x12:0x768e1000  x4=0x768e1000
        9395000	       938	80000658	0002f333	and	x6,x5,x0	  x5:0xfffffffc  x0:0x00000000  x6=0x00000000
        9405000	       939	8000065c	011f3fb3	sltu	x31,x30,x17	 x30:0x80000006 x17:0x00000001 x31=0x00000000
        9415000	       940	80000660	00768693	addi	x13,x13,7	 x13:0xfffffff7 x13=0xfffffffe
        9425000	       941	80000664	00800413	addi	x8,x0,8	  x0:0x00000000  x8=0x00000008
        9435000	       942	80000668	70aee213	ori	x4,x29,1802	 x29:0x80009fc4  x4=0x80009fce
        9445000	       943	8000066c	41105cb3	sra	x25,x0,x17	  x0:0x00000000 x17:0x00000001 x25=0x00000000
        9455000	       944	80000670	696f6f13	ori	x30,x30,1686	 x30:0x80000006 x30=0x80000696
        9465000	       945	80000674	8379f993	andi	x19,x19,-1993	 x19:0x00000000 x19=0x00000000
        9475000	       946	80000678	00000013	addi	x0,x0,0	  x0:0x00000000
        9485000	       947	8000067c	1770a993	slti	x19,x1,375	  x1:0x00000250 x19=0x00000000
        9495000	       948	80000680	fef00393	addi	x7,x0,-17	  x0:0x00000000  x7=0xffffffef
        9505000	       949	80000684	000ddfb3	srl	x31,x27,x0	 x27:0x000000d3  x0:0x00000000 x31=0x000000d3
        9515000	       950	80000688	95e32f13	slti	x30,x6,-1698	  x6:0x00000000 x30=0x00000000
        9525000	       951	8000068c	00000013	addi	x0,x0,0	  x0:0x00000000
        9535000	       952	80000690	cb540c93	addi	x25,x8,-843	  x8:0x00000008 x25=0xfffffcbd
        9545000	       953	80000694	ffb40413	addi	x8,x8,-5	  x8:0x00000008  x8=0x00000003
        9555000	       954	80000698	59a56297	auipc	x5,0x59a56	  x5=0xd9a56694
        9565000	       955	8000069c	c979b013	sltiu	x0,x19,-873	 x19:0x00000000
        9575000	       956	800006a0	00101093	slli	x1,x0,0x1	  x0:0x00000000  x1=0x00000000
        9585000	       957	800006a4	122bb613	sltiu	x12,x23,290	 x23:0x0000000a x12=0x00000001
        9595000	       958	800006a8	fe7404e3	beq	x8,x7,80000690	  x8:0x00000003  x7:0xffffffef
        9605000	       959	800006ac	0089a933	slt	x18,x19,x8	 x19:0x00000000  x8:0x00000003 x18=0x00000001
        9615000	       960	800006b0	019d6d33	or	x26,x26,x25	 x26:0x0000000f x25:0xfffffcbd x26=0xfffffcbf
        9625000	       961	800006b4	01e95a33	srl	x20,x18,x30	 x18:0x00000001 x30:0x00000000 x20=0x00000001
        9635000	       962	800006b8	f836eee3	bltu	x13,x3,80000654	 x13:0xfffffffe  x3:0x00000006
        9645000	       963	800006bc	05eba937	lui	x18,0x5eba	 x18=0x05eba000
        9655000	       964	800006c0	fff00a13	addi	x20,x0,-1	  x0:0x00000000 x20=0xffffffff
        9665000	       965	800006c4	00900d13	addi	x26,x0,9	  x0:0x00000000 x26=0x00000009
        9675000	       966	800006c8	e293f813	andi	x16,x7,-471	  x7:0xffffffef x16=0xfffffe29
        9685000	       967	800006cc	40678b33	sub	x22,x15,x6	 x15:0x677408b4  x6:0x00000000 x22=0x677408b4
        9695000	       968	800006d0	418d8bb3	sub	x23,x27,x24	 x27:0x000000d3 x24:0x80009f1c x23=0x7fff61b7
        9705000	       969	800006d4	e660ec93	ori	x25,x1,-410	  x1:0x00000000 x25=0xfffffe66
        9715000	       970	800006d8	00aa0a13	addi	x20,x20,10	 x20:0xffffffff x20=0x00000009
        9725000	       971	800006dc	100a7e13	andi	x28,x20,256	 x20:0x00000009 x28=0x00000000
        9735000	       972	800006e0	41ad08b3	sub	x17,x26,x26	 x26:0x00000009 x26:0x00000009 x17=0x00000000
        9745000	       973	800006e4	00c85bb3	srl	x23,x16,x12	 x16:0xfffffe29 x12:0x00000001 x23=0x7fffff14
        9755000	       974	800006e8	00900a93	addi	x21,x0,9	  x0:0x00000000 x21=0x00000009
        9765000	       975	800006ec	0168efb3	or	x31,x17,x22	 x17:0x00000000 x22:0x677408b4 x31=0x677408b4
        9775000	       976	800006f0	01100413	addi	x8,x0,17	  x0:0x00000000  x8=0x00000011
        9785000	       977	800006f4	01037533	and	x10,x6,x16	  x6:0x00000000 x16:0xfffffe29 x10=0x00000000
        9795000	       978	800006f8	b93d2993	slti	x19,x26,-1133	 x26:0x00000009 x19=0x00000000
        9805000	       979	800006fc	013ff733	and	x14,x31,x19	 x31:0x677408b4 x19:0x00000000 x14=0x00000000
        9815000	       980	80000700	a0dbb693	sltiu	x13,x23,-1523	 x23:0x7fffff14 x13=0x00000001
        9825000	       981	80000704	afc94213	xori	x4,x18,-1284	 x18:0x05eba000  x4=0xfa145afc
        9835000	       982	80000708	822505b7	lui	x11,0x82250	 x11=0x82250000
        9845000	       983	8000070c	01082933	slt	x18,x16,x16	 x16:0xfffffe29 x16:0xfffffe29 x18=0x00000000
        9855000	       984	80000710	00f20933	add	x18,x4,x15	  x4:0xfa145afc x15:0x677408b4 x18=0x618863b0
        9865000	       985	80000714	007203b3	add	x7,x4,x7	  x4:0xfa145afc  x7:0xffffffef  x7=0xfa145aeb
        9875000	       986	80000718	004a8a93	addi	x21,x21,4	 x21:0x00000009 x21=0x0000000d
        9885000	       987	8000071c	00359933	sll	x18,x11,x3	 x11:0x82250000  x3:0x00000006 x18=0x89400000
        9895000	       988	80000720	6a693993	sltiu	x19,x18,1702	 x18:0x89400000 x19=0x00000000
        9905000	       989	80000724	00319293	slli	x5,x3,0x3	  x3:0x00000006  x5=0x00000030
        9915000	       990	80000728	001ab833	sltu	x16,x21,x1	 x21:0x0000000d  x1:0x00000000 x16=0x00000000
        9925000	       991	8000072c	fe8ac0e3	blt	x21,x8,8000070c	 x21:0x0000000d  x8:0x00000011
        9935000	       992	00000000	00000013	addi	x0,x0,0	  x0:0x00000000
        9945000	       993	80000708	00000013	addi	x0,x0,0	  x0:0x00000000
        9955000	       994	8000070c	01082933	slt	x18,x16,x16	 x16:0x00000000 x16:0x00000000 x18=0x00000000
        9965000	       995	80000710	00f20933	add	x18,x4,x15	  x4:0xfa145afc x15:0x677408b4 x18=0x618863b0
        9975000	       996	80000714	007203b3	add	x7,x4,x7	  x4:0xfa145afc  x7:0xfa145aeb  x7=0xf428b5e7
        9985000	       997	80000718	004a8a93	addi	x21,x21,4	 x21:0x0000000d x21=0x00000011
        9995000	       998	8000071c	00359933	sll	x18,x11,x3	 x11:0x82250000  x3:0x00000006 x18=0x89400000
       10005000	       999	80000720	6a693993	sltiu	x19,x18,1702	 x18:0x89400000 x19=0x00000000
       10015000	      1000	80000724	00319293	slli	x5,x3,0x3	  x3:0x00000006  x5=0x00000030
       10025000	      1001	80000728	001ab833	sltu	x16,x21,x1	 x21:0x00000011  x1:0x00000000 x16=0x00000000
       10035000	      1002	8000072c	fe8ac0e3	blt	x21,x8,8000070c	 x21:0x00000011  x8:0x00000011
       10045000	      1003	80000730	41180e33	sub	x28,x16,x17	 x16:0x00000000 x17:0x00000000 x28=0x00000000
       10055000	      1004	80000734	00f6be33	sltu	x28,x13,x15	 x13:0x00000001 x15:0x677408b4 x28=0x00000001
       10065000	      1005	80000738	01eb11b3	sll	x3,x22,x30	 x22:0x677408b4 x30:0x00000000  x3=0x677408b4
       10075000	      1006	8000073c	016670b3	and	x1,x12,x22	 x12:0x00000001 x22:0x677408b4  x1=0x00000000
       10085000	      1007	80000740	d4113013	sltiu	x0,x2,-703	  x2:0x000007f8
       10095000	      1008	80000744	f9aa06e3	beq	x20,x26,800006d0	 x20:0x00000009 x26:0x00000009
       10105000	      1009	00000000	00000013	addi	x0,x0,0	  x0:0x00000000
       10115000	      1010	800006cc	00000013	addi	x0,x0,0	  x0:0x00000000
       10125000	      1011	800006d0	418d8bb3	sub	x23,x27,x24	 x27:0x000000d3 x24:0x80009f1c x23=0x7fff61b7
       10135000	      1012	800006d4	e660ec93	ori	x25,x1,-410	  x1:0x00000000 x25=0xfffffe66
       10145000	      1013	800006d8	00aa0a13	addi	x20,x20,10	 x20:0x00000009 x20=0x00000013
       10155000	      1014	800006dc	100a7e13	andi	x28,x20,256	 x20:0x00000013 x28=0x00000000
       10165000	      1015	800006e0	41ad08b3	sub	x17,x26,x26	 x26:0x00000009 x26:0x00000009 x17=0x00000000
       10175000	      1016	800006e4	00c85bb3	srl	x23,x16,x12	 x16:0x00000000 x12:0x00000001 x23=0x00000000
       10185000	      1017	800006e8	00900a93	addi	x21,x0,9	  x0:0x00000000 x21=0x00000009
       10195000	      1018	800006ec	0168efb3	or	x31,x17,x22	 x17:0x00000000 x22:0x677408b4 x31=0x677408b4
       10205000	      1019	800006f0	01100413	addi	x8,x0,17	  x0:0x00000000  x8=0x00000011
       10215000	      1020	800006f4	01037533	and	x10,x6,x16	  x6:0x00000000 x16:0x00000000 x10=0x00000000
       10225000	      1021	800006f8	b93d2993	slti	x19,x26,-1133	 x26:0x00000009 x19=0x00000000
       10235000	      1022	800006fc	013ff733	and	x14,x31,x19	 x31:0x677408b4 x19:0x00000000 x14=0x00000000
       10245000	      1023	80000700	a0dbb693	sltiu	x13,x23,-1523	 x23:0x00000000 x13=0x00000001
       10255000	      1024	80000704	afc94213	xori	x4,x18,-1284	 x18:0x89400000  x4=0x76bffafc
       10265000	      1025	80000708	822505b7	lui	x11,0x82250	 x11=0x82250000
       10275000	      1026	8000070c	01082933	slt	x18,x16,x16	 x16:0x00000000 x16:0x00000000 x18=0x00000000
       10285000	      1027	80000710	00f20933	add	x18,x4,x15	  x4:0x76bffafc x15:0x677408b4 x18=0xde3403b0
       10295000	      1028	80000714	007203b3	add	x7,x4,x7	  x4:0x76bffafc  x7:0xf428b5e7  x7=0x6ae8b0e3
       10305000	      1029	80000718	004a8a93	addi	x21,x21,4	 x21:0x00000009 x21=0x0000000d
       10315000	      1030	8000071c	00359933	sll	x18,x11,x3	 x11:0x82250000  x3:0x677408b4 x18=0x00000000
       10325000	      1031	80000720	6a693993	sltiu	x19,x18,1702	 x18:0x00000000 x19=0x00000001
       10335000	      1032	80000724	00319293	slli	x5,x3,0x3	  x3:0x677408b4  x5=0x3ba045a0
       10345000	      1033	80000728	001ab833	sltu	x16,x21,x1	 x21:0x0000000d  x1:0x00000000 x16=0x00000000
       10355000	      1034	8000072c	fe8ac0e3	blt	x21,x8,8000070c	 x21:0x0000000d  x8:0x00000011
       10365000	      1035	00000000	00000013	addi	x0,x0,0	  x0:0x00000000
       10375000	      1036	80000708	00000013	addi	x0,x0,0	  x0:0x00000000
       10385000	      1037	8000070c	01082933	slt	x18,x16,x16	 x16:0x00000000 x16:0x00000000 x18=0x00000000
       10395000	      1038	80000710	00f20933	add	x18,x4,x15	  x4:0x76bffafc x15:0x677408b4 x18=0xde3403b0
       10405000	      1039	80000714	007203b3	add	x7,x4,x7	  x4:0x76bffafc  x7:0x6ae8b0e3  x7=0xe1a8abdf
       10415000	      1040	80000718	004a8a93	addi	x21,x21,4	 x21:0x0000000d x21=0x00000011
       10425000	      1041	8000071c	00359933	sll	x18,x11,x3	 x11:0x82250000  x3:0x677408b4 x18=0x00000000
       10435000	      1042	80000720	6a693993	sltiu	x19,x18,1702	 x18:0x00000000 x19=0x00000001
       10445000	      1043	80000724	00319293	slli	x5,x3,0x3	  x3:0x677408b4  x5=0x3ba045a0
       10455000	      1044	80000728	001ab833	sltu	x16,x21,x1	 x21:0x00000011  x1:0x00000000 x16=0x00000000
       10465000	      1045	8000072c	fe8ac0e3	blt	x21,x8,8000070c	 x21:0x00000011  x8:0x00000011
       10475000	      1046	80000730	41180e33	sub	x28,x16,x17	 x16:0x00000000 x17:0x00000000 x28=0x00000000
       10485000	      1047	80000734	00f6be33	sltu	x28,x13,x15	 x13:0x00000001 x15:0x677408b4 x28=0x00000001
       10495000	      1048	80000738	01eb11b3	sll	x3,x22,x30	 x22:0x677408b4 x30:0x00000000  x3=0x677408b4
       10505000	      1049	8000073c	016670b3	and	x1,x12,x22	 x12:0x00000001 x22:0x677408b4  x1=0x00000000
       10515000	      1050	80000740	d4113013	sltiu	x0,x2,-703	  x2:0x000007f8
       10525000	      1051	80000744	f9aa06e3	beq	x20,x26,800006d0	 x20:0x00000013 x26:0x00000009
       10535000	      1052	80000748	644c2137	lui	x2,0x644c2	  x2=0x644c2000
       10545000	      1053	8000074c	00000193	addi	x3,x0,0	  x0:0x00000000  x3=0x00000000
       10555000	      1054	80000750	019d5db3	srl	x27,x26,x25	 x26:0x00000009 x25:0xfffffe66 x27=0x00000000
       10565000	      1055	80000754	00379d33	sll	x26,x15,x3	 x15:0x677408b4  x3:0x00000000 x26=0x677408b4
       10575000	      1056	80000758	01000893	addi	x17,x0,16	  x0:0x00000000 x17=0x00000010
       10585000	      1057	8000075c	41b10233	sub	x4,x2,x27	  x2:0x644c2000 x27:0x00000000  x4=0x644c2000
       10595000	      1058	80000760	00818193	addi	x3,x3,8	  x3:0x00000000  x3=0x00000008
       10605000	      1059	80000764	fea1d737	lui	x14,0xfea1d	 x14=0xfea1d000
       10615000	      1060	80000768	409e0933	sub	x18,x28,x9	 x28:0x00000001  x9:0x00007000 x18=0xffff9001
       10625000	      1061	8000076c	ff1188e3	beq	x3,x17,8000075c	  x3:0x00000008 x17:0x00000010
       10635000	      1062	80000770	00939bb3	sll	x23,x7,x9	  x7:0xe1a8abdf  x9:0x00007000 x23=0xe1a8abdf
       10645000	      1063	80000774	ff900293	addi	x5,x0,-7	  x0:0x00000000  x5=0xfffffff9
       10655000	      1064	80000778	0083cdb3	xor	x27,x7,x8	  x7:0xe1a8abdf  x8:0x00000011 x27=0xe1a8abce
       10665000	      1065	8000077c	00444033	xor	x0,x8,x4	  x8:0x00000011  x4:0x644c2000
       10675000	      1066	80000780	01e3d8b3	srl	x17,x7,x30	  x7:0xe1a8abdf x30:0x00000000 x17=0xe1a8abdf
       10685000	      1067	80000784	ffd00193	addi	x3,x0,-3	  x0:0x00000000  x3=0xfffffffd
       10695000	      1068	80000788	bd806d93	ori	x27,x0,-1064	  x0:0x00000000 x27=0xfffffbd8
       10705000	      1069	8000078c	0054a0b3	slt	x1,x9,x5	  x9:0x00007000  x5:0xfffffff9  x1=0x00000000
       10715000	      1070	80000790	00428293	addi	x5,x5,4	  x5:0xfffffff9  x5=0xfffffffd
       10725000	      1071	80000794	fe329ae3	bne	x5,x3,80000788	  x5:0xfffffffd  x3:0xfffffffd
       10735000	      1072	80000798	40a0d0b3	sra	x1,x1,x10	  x1:0x00000000 x10:0x00000000  x1=0x00000000
       10745000	      1073	8000079c	00000f13	addi	x30,x0,0	  x0:0x00000000 x30=0x00000000
       10755000	      1074	800007a0	00000013	addi	x0,x0,0	  x0:0x00000000
       10765000	      1075	800007a4	ffb00693	addi	x13,x0,-5	  x0:0x00000000 x13=0xfffffffb
       10775000	      1076	800007a8	0025e833	or	x16,x11,x2	 x11:0x82250000  x2:0x644c2000 x16=0xe66d2000
       10785000	      1077	800007ac	00000013	addi	x0,x0,0	  x0:0x00000000
       10795000	      1078	800007b0	0178d633	srl	x12,x17,x23	 x17:0xe1a8abdf x23:0xe1a8abdf x12=0x00000001
       10805000	      1079	800007b4	3a8abf97	auipc	x31,0x3a8ab	 x31=0xba8ab7b0
       10815000	      1080	800007b8	0078a533	slt	x10,x17,x7	 x17:0xe1a8abdf  x7:0xe1a8abdf x10=0x00000000
       10825000	      1081	800007bc	002348b3	xor	x17,x6,x2	  x6:0x00000000  x2:0x644c2000 x17=0x644c2000
       10835000	      1082	800007c0	6bd38e13	addi	x28,x7,1725	  x7:0xe1a8abdf x28=0xe1a8b29c
       10845000	      1083	800007c4	00000013	addi	x0,x0,0	  x0:0x00000000
       10855000	      1084	800007c8	41850633	sub	x12,x10,x24	 x10:0x00000000 x24:0x80009f1c x12=0x7fff60e4
       10865000	      1085	800007cc	00f29533	sll	x10,x5,x15	  x5:0xfffffffd x15:0x677408b4 x10=0xffd00000
       10875000	      1086	800007d0	9c353617	auipc	x12,0x9c353	 x12=0x1c3537cc
       10885000	      1087	800007d4	090c0613	addi	x12,x24,144	 x24:0x80009f1c x12=0x80009fac
       10895000	      1088	800007d8	6056b593	sltiu	x11,x13,1541	 x13:0xfffffffb x11=0x00000000
       10905000	      1089	800007dc	00499333	sll	x6,x19,x4	 x19:0x00000001  x4:0x644c2000  x6=0x00000001
       10915000	      1090	800007e0	ff9f0f13	addi	x30,x30,-7	 x30:0x00000000 x30=0xfffffff9
       10925000	      1091	800007e4	001c8733	add	x14,x25,x1	 x25:0xfffffe66  x1:0x00000000 x14=0xfffffe66
       10935000	      1092	800007e8	ba8b0517	auipc	x10,0xba8b0	 x10=0x3a8b07e4
       10945000	      1093	800007ec	00000013	addi	x0,x0,0	  x0:0x00000000
       10955000	      1094	800007f0	006f0bb3	add	x23,x30,x6	 x30:0xfffffff9  x6:0x00000001 x23=0xfffffffa
       10965000	      1095	800007f4	40a88b93	addi	x23,x17,1034	 x17:0x644c2000 x23=0x644c240a
       10975000	      1096	800007f8	00000013	addi	x0,x0,0	  x0:0x00000000
       10985000	      1097	800007fc	0073b733	sltu	x14,x7,x7	  x7:0xe1a8abdf  x7:0xe1a8abdf x14=0x00000000
       10995000	      1098	80000800	fcdf54e3	bge	x30,x13,800007c8	 x30:0xfffffff9 x13:0xfffffffb
       11005000	      1099	80000804	00159213	slli	x4,x11,0x1	 x11:0x00000000  x4=0x00000000
       11015000	      1100	80000808	00000a93	addi	x21,x0,0	  x0:0x00000000 x21=0x00000000
       11025000	      1101	8000080c	00a00493	addi	x9,x0,10	  x0:0x00000000  x9=0x0000000a
       11035000	      1102	80000810	0078b733	sltu	x14,x17,x7	 x17:0x644c2000  x7:0xe1a8abdf x14=0x00000001
       11045000	      1103	80000814	40ba0333	sub	x6,x20,x11	 x20:0x00000013 x11:0x00000000  x6=0x00000013
       11055000	      1104	80000818	07d22b17	auipc	x22,0x7d22	 x22=0x87d22814
       11065000	      1105	8000081c	01cbbd33	sltu	x26,x23,x28	 x23:0x644c240a x28:0xe1a8b29c x26=0x00000001
       11075000	      1106	80000820	0a1fc813	xori	x16,x31,161	 x31:0xba8ab7b0 x16=0xba8ab711
       11085000	      1107	80000824	002a8a93	addi	x21,x21,2	 x21:0x00000000 x21=0x00000002
       11095000	      1108	80000828	41a50933	sub	x18,x10,x26	 x10:0x3a8b07e4 x26:0x00000001 x18=0x3a8b07e3
       11105000	      1109	8000082c	00500b93	addi	x23,x0,5	  x0:0x00000000 x23=0x00000005
       11115000	      1110	80000830	00800693	addi	x13,x0,8	  x0:0x00000000 x13=0x00000008
       11125000	      1111	80000834	00375293	srli	x5,x14,0x3	 x14:0x00000001  x5=0x00000000
       11135000	      1112	80000838	0143cf33	xor	x30,x7,x20	  x7:0xe1a8abdf x20:0x00000013 x30=0xe1a8abcc
       11145000	      1113	8000083c	41e45233	sra	x4,x8,x30	  x8:0x00000011 x30:0xe1a8abcc  x4=0x00000000
       11155000	      1114	80000840	005b8b93	addi	x23,x23,5	 x23:0x00000005 x23=0x0000000a
       11165000	      1115	80000844	01024533	xor	x10,x4,x16	  x4:0x00000000 x16:0xba8ab711 x10=0xba8ab711
       11175000	      1116	80000848	0016b2b3	sltu	x5,x13,x1	 x13:0x00000008  x1:0x00000000  x5=0x00000000
       11185000	      1117	8000084c	fedbe6e3	bltu	x23,x13,80000838	 x23:0x0000000a x13:0x00000008
       11195000	      1118	80000850	fc9ac6e3	blt	x21,x9,8000081c	 x21:0x00000002  x9:0x0000000a
       11205000	      1119	00000000	00000013	addi	x0,x0,0	  x0:0x00000000
       11215000	      1120	80000818	00000013	addi	x0,x0,0	  x0:0x00000000
       11225000	      1121	8000081c	01cbbd33	sltu	x26,x23,x28	 x23:0x0000000a x28:0xe1a8b29c x26=0x00000001
       11235000	      1122	80000820	0a1fc813	xori	x16,x31,161	 x31:0xba8ab7b0 x16=0xba8ab711
       11245000	      1123	80000824	002a8a93	addi	x21,x21,2	 x21:0x00000002 x21=0x00000004
       11255000	      1124	80000828	41a50933	sub	x18,x10,x26	 x10:0xba8ab711 x26:0x00000001 x18=0xba8ab710
       11265000	      1125	8000082c	00500b93	addi	x23,x0,5	  x0:0x00000000 x23=0x00000005
       11275000	      1126	80000830	00800693	addi	x13,x0,8	  x0:0x00000000 x13=0x00000008
       11285000	      1127	80000834	00375293	srli	x5,x14,0x3	 x14:0x00000001  x5=0x00000000
       11295000	      1128	80000838	0143cf33	xor	x30,x7,x20	  x7:0xe1a8abdf x20:0x00000013 x30=0xe1a8abcc
       11305000	      1129	8000083c	41e45233	sra	x4,x8,x30	  x8:0x00000011 x30:0xe1a8abcc  x4=0x00000000
       11315000	      1130	80000840	005b8b93	addi	x23,x23,5	 x23:0x00000005 x23=0x0000000a
       11325000	      1131	80000844	01024533	xor	x10,x4,x16	  x4:0x00000000 x16:0xba8ab711 x10=0xba8ab711
       11335000	      1132	80000848	0016b2b3	sltu	x5,x13,x1	 x13:0x00000008  x1:0x00000000  x5=0x00000000
       11345000	      1133	8000084c	fedbe6e3	bltu	x23,x13,80000838	 x23:0x0000000a x13:0x00000008
       11355000	      1134	80000850	fc9ac6e3	blt	x21,x9,8000081c	 x21:0x00000004  x9:0x0000000a
       11365000	      1135	00000000	00000013	addi	x0,x0,0	  x0:0x00000000
       11375000	      1136	80000818	00000013	addi	x0,x0,0	  x0:0x00000000
       11385000	      1137	8000081c	01cbbd33	sltu	x26,x23,x28	 x23:0x0000000a x28:0xe1a8b29c x26=0x00000001
       11395000	      1138	80000820	0a1fc813	xori	x16,x31,161	 x31:0xba8ab7b0 x16=0xba8ab711
       11405000	      1139	80000824	002a8a93	addi	x21,x21,2	 x21:0x00000004 x21=0x00000006
       11415000	      1140	80000828	41a50933	sub	x18,x10,x26	 x10:0xba8ab711 x26:0x00000001 x18=0xba8ab710
       11425000	      1141	8000082c	00500b93	addi	x23,x0,5	  x0:0x00000000 x23=0x00000005
       11435000	      1142	80000830	00800693	addi	x13,x0,8	  x0:0x00000000 x13=0x00000008
       11445000	      1143	80000834	00375293	srli	x5,x14,0x3	 x14:0x00000001  x5=0x00000000
       11455000	      1144	80000838	0143cf33	xor	x30,x7,x20	  x7:0xe1a8abdf x20:0x00000013 x30=0xe1a8abcc
       11465000	      1145	8000083c	41e45233	sra	x4,x8,x30	  x8:0x00000011 x30:0xe1a8abcc  x4=0x00000000
       11475000	      1146	80000840	005b8b93	addi	x23,x23,5	 x23:0x00000005 x23=0x0000000a
       11485000	      1147	80000844	01024533	xor	x10,x4,x16	  x4:0x00000000 x16:0xba8ab711 x10=0xba8ab711
       11495000	      1148	80000848	0016b2b3	sltu	x5,x13,x1	 x13:0x00000008  x1:0x00000000  x5=0x00000000
       11505000	      1149	8000084c	fedbe6e3	bltu	x23,x13,80000838	 x23:0x0000000a x13:0x00000008
       11515000	      1150	80000850	fc9ac6e3	blt	x21,x9,8000081c	 x21:0x00000006  x9:0x0000000a
       11525000	      1151	00000000	00000013	addi	x0,x0,0	  x0:0x00000000
       11535000	      1152	80000818	00000013	addi	x0,x0,0	  x0:0x00000000
       11545000	      1153	8000081c	01cbbd33	sltu	x26,x23,x28	 x23:0x0000000a x28:0xe1a8b29c x26=0x00000001
       11555000	      1154	80000820	0a1fc813	xori	x16,x31,161	 x31:0xba8ab7b0 x16=0xba8ab711
       11565000	      1155	80000824	002a8a93	addi	x21,x21,2	 x21:0x00000006 x21=0x00000008
       11575000	      1156	80000828	41a50933	sub	x18,x10,x26	 x10:0xba8ab711 x26:0x00000001 x18=0xba8ab710
       11585000	      1157	8000082c	00500b93	addi	x23,x0,5	  x0:0x00000000 x23=0x00000005
       11595000	      1158	80000830	00800693	addi	x13,x0,8	  x0:0x00000000 x13=0x00000008
       11605000	      1159	80000834	00375293	srli	x5,x14,0x3	 x14:0x00000001  x5=0x00000000
       11615000	      1160	80000838	0143cf33	xor	x30,x7,x20	  x7:0xe1a8abdf x20:0x00000013 x30=0xe1a8abcc
       11625000	      1161	8000083c	41e45233	sra	x4,x8,x30	  x8:0x00000011 x30:0xe1a8abcc  x4=0x00000000
       11635000	      1162	80000840	005b8b93	addi	x23,x23,5	 x23:0x00000005 x23=0x0000000a
       11645000	      1163	80000844	01024533	xor	x10,x4,x16	  x4:0x00000000 x16:0xba8ab711 x10=0xba8ab711
       11655000	      1164	80000848	0016b2b3	sltu	x5,x13,x1	 x13:0x00000008  x1:0x00000000  x5=0x00000000
       11665000	      1165	8000084c	fedbe6e3	bltu	x23,x13,80000838	 x23:0x0000000a x13:0x00000008
       11675000	      1166	80000850	fc9ac6e3	blt	x21,x9,8000081c	 x21:0x00000008  x9:0x0000000a
       11685000	      1167	00000000	00000013	addi	x0,x0,0	  x0:0x00000000
       11695000	      1168	80000818	00000013	addi	x0,x0,0	  x0:0x00000000
       11705000	      1169	8000081c	01cbbd33	sltu	x26,x23,x28	 x23:0x0000000a x28:0xe1a8b29c x26=0x00000001
       11715000	      1170	80000820	0a1fc813	xori	x16,x31,161	 x31:0xba8ab7b0 x16=0xba8ab711
       11725000	      1171	80000824	002a8a93	addi	x21,x21,2	 x21:0x00000008 x21=0x0000000a
       11735000	      1172	80000828	41a50933	sub	x18,x10,x26	 x10:0xba8ab711 x26:0x00000001 x18=0xba8ab710
       11745000	      1173	8000082c	00500b93	addi	x23,x0,5	  x0:0x00000000 x23=0x00000005
       11755000	      1174	80000830	00800693	addi	x13,x0,8	  x0:0x00000000 x13=0x00000008
       11765000	      1175	80000834	00375293	srli	x5,x14,0x3	 x14:0x00000001  x5=0x00000000
       11775000	      1176	80000838	0143cf33	xor	x30,x7,x20	  x7:0xe1a8abdf x20:0x00000013 x30=0xe1a8abcc
       11785000	      1177	8000083c	41e45233	sra	x4,x8,x30	  x8:0x00000011 x30:0xe1a8abcc  x4=0x00000000
       11795000	      1178	80000840	005b8b93	addi	x23,x23,5	 x23:0x00000005 x23=0x0000000a
       11805000	      1179	80000844	01024533	xor	x10,x4,x16	  x4:0x00000000 x16:0xba8ab711 x10=0xba8ab711
       11815000	      1180	80000848	0016b2b3	sltu	x5,x13,x1	 x13:0x00000008  x1:0x00000000  x5=0x00000000
       11825000	      1181	8000084c	fedbe6e3	bltu	x23,x13,80000838	 x23:0x0000000a x13:0x00000008
       11835000	      1182	80000850	fc9ac6e3	blt	x21,x9,8000081c	 x21:0x0000000a  x9:0x0000000a
       11845000	      1183	80000854	01afa933	slt	x18,x31,x26	 x31:0xba8ab7b0 x26:0x00000001 x18=0x00000001
       11855000	      1184	80000858	ff900993	addi	x19,x0,-7	  x0:0x00000000 x19=0xfffffff9
       11865000	      1185	8000085c	40e40833	sub	x16,x8,x14	  x8:0x00000011 x14:0x00000001 x16=0x00000010
       11875000	      1186	80000860	32216a93	ori	x21,x2,802	  x2:0x644c2000 x21=0x644c2322
       11885000	      1187	80000864	00000013	addi	x0,x0,0	  x0:0x00000000
       11895000	      1188	80000868	d30cf117	auipc	x2,0xd30cf	  x2=0x530cf864
       11905000	      1189	8000086c	4185de13	srai	x28,x11,0x18	 x11:0x00000000 x28=0x00000000
       11915000	      1190	80000870	01b4b2b3	sltu	x5,x9,x27	  x9:0x0000000a x27:0xfffffbd8  x5=0x00000001
       11925000	      1191	80000874	00abd1b3	srl	x3,x23,x10	 x23:0x0000000a x10:0xba8ab711  x3=0x00000000
       11935000	      1192	80000878	01e37333	and	x6,x6,x30	  x6:0x00000013 x30:0xe1a8abcc  x6=0x00000000
       11945000	      1193	8000087c	9c58cb93	xori	x23,x17,-1595	 x17:0x644c2000 x23=0x9bb3d9c5
       11955000	      1194	80000880	01f18d33	add	x26,x3,x31	  x3:0x00000000 x31:0xba8ab7b0 x26=0xba8ab7b0
       11965000	      1195	80000884	00b00c93	addi	x25,x0,11	  x0:0x00000000 x25=0x0000000b
       11975000	      1196	80000888	41625913	srai	x18,x4,0x16	  x4:0x00000000 x18=0x00000000
       11985000	      1197	8000088c	015641b3	xor	x3,x12,x21	 x12:0x80009fac x21:0x644c2322  x3=0xe44cbc8e
       11995000	      1198	80000890	7e667013	andi	x0,x12,2022	 x12:0x80009fac
       12005000	      1199	80000894	9e628937	lui	x18,0x9e628	 x18=0x9e628000
       12015000	      1200	80000898	01f01833	sll	x16,x0,x31	  x0:0x00000000 x31:0xba8ab7b0 x16=0x00000000
       12025000	      1201	8000089c	00000013	addi	x0,x0,0	  x0:0x00000000
       12035000	      1202	800008a0	00998993	addi	x19,x19,9	 x19:0xfffffff9 x19=0x00000002
       12045000	      1203	800008a4	005c18b3	sll	x17,x24,x5	 x24:0x80009f1c  x5:0x00000001 x17=0x00013e38
       12055000	      1204	800008a8	4094de13	srai	x28,x9,0x9	  x9:0x0000000a x28=0x00000000
       12065000	      1205	800008ac	06233493	sltiu	x9,x6,98	  x6:0x00000000  x9=0x00000001
       12075000	      1206	800008b0	f34016b7	lui	x13,0xf3401	 x13=0xf3401000
       12085000	      1207	800008b4	00821393	slli	x7,x4,0x8	  x4:0x00000000  x7=0x00000000
       12095000	      1208	800008b8	0056de13	srli	x28,x13,0x5	 x13:0xf3401000 x28=0x079a0080
       12105000	      1209	800008bc	00c23533	sltu	x10,x4,x12	  x4:0x00000000 x12:0x80009fac x10=0x00000001
       12115000	      1210	800008c0	fd99c6e3	blt	x19,x25,8000088c	 x19:0x00000002 x25:0x0000000b
       12125000	      1211	00000000	00000013	addi	x0,x0,0	  x0:0x00000000
       12135000	      1212	80000888	00000013	addi	x0,x0,0	  x0:0x00000000
       12145000	      1213	8000088c	015641b3	xor	x3,x12,x21	 x12:0x80009fac x21:0x644c2322  x3=0xe44cbc8e
       12155000	      1214	80000890	7e667013	andi	x0,x12,2022	 x12:0x80009fac
       12165000	      1215	80000894	9e628937	lui	x18,0x9e628	 x18=0x9e628000
       12175000	      1216	80000898	01f01833	sll	x16,x0,x31	  x0:0x00000000 x31:0xba8ab7b0 x16=0x00000000
       12185000	      1217	8000089c	00000013	addi	x0,x0,0	  x0:0x00000000
       12195000	      1218	800008a0	00998993	addi	x19,x19,9	 x19:0x00000002 x19=0x0000000b
       12205000	      1219	800008a4	005c18b3	sll	x17,x24,x5	 x24:0x80009f1c  x5:0x00000001 x17=0x00013e38
       12215000	      1220	800008a8	4094de13	srai	x28,x9,0x9	  x9:0x00000001 x28=0x00000000
       12225000	      1221	800008ac	06233493	sltiu	x9,x6,98	  x6:0x00000000  x9=0x00000001
       12235000	      1222	800008b0	f34016b7	lui	x13,0xf3401	 x13=0xf3401000
       12245000	      1223	800008b4	00821393	slli	x7,x4,0x8	  x4:0x00000000  x7=0x00000000
       12255000	      1224	800008b8	0056de13	srli	x28,x13,0x5	 x13:0xf3401000 x28=0x079a0080
       12265000	      1225	800008bc	00c23533	sltu	x10,x4,x12	  x4:0x00000000 x12:0x80009fac x10=0x00000001
       12275000	      1226	800008c0	fd99c6e3	blt	x19,x25,8000088c	 x19:0x0000000b x25:0x0000000b
       12285000	      1227	800008c4	40f85db3	sra	x27,x16,x15	 x16:0x00000000 x15:0x677408b4 x27=0x00000000
       12295000	      1228	800008c8	00700c93	addi	x25,x0,7	  x0:0x00000000 x25=0x00000007
       12305000	      1229	800008cc	01300413	addi	x8,x0,19	  x0:0x00000000  x8=0x00000013
       12315000	      1230	800008d0	00a319b3	sll	x19,x6,x10	  x6:0x00000000 x10:0x00000001 x19=0x00000000
       12325000	      1231	800008d4	41030ab3	sub	x21,x6,x16	  x6:0x00000000 x16:0x00000000 x21=0x00000000
       12335000	      1232	800008d8	41a00fb3	sub	x31,x0,x26	  x0:0x00000000 x26:0xba8ab7b0 x31=0x45754850
       12345000	      1233	800008dc	00000013	addi	x0,x0,0	  x0:0x00000000
       12355000	      1234	800008e0	4049d713	srai	x14,x19,0x4	 x19:0x00000000 x14=0x00000000
       12365000	      1235	800008e4	006d8a33	add	x20,x27,x6	 x27:0x00000000  x6:0x00000000 x20=0x00000000
       12375000	      1236	800008e8	002c8c93	addi	x25,x25,2	 x25:0x00000007 x25=0x00000009
       12385000	      1237	800008ec	bd392993	slti	x19,x18,-1069	 x18:0x9e628000 x19=0x00000001
       12395000	      1238	800008f0	ffd00393	addi	x7,x0,-3	  x0:0x00000000  x7=0xfffffffd
       12405000	      1239	800008f4	4071d693	srai	x13,x3,0x7	  x3:0xe44cbc8e x13=0xffc89979
       12415000	      1240	800008f8	00f00093	addi	x1,x0,15	  x0:0x00000000  x1=0x0000000f
       12425000	      1241	800008fc	0026f633	and	x12,x13,x2	 x13:0xffc89979  x2:0x530cf864 x12=0x53089860
       12435000	      1242	80000900	01f55b93	srli	x23,x10,0x1f	 x10:0x00000001 x23=0x00000000
       12445000	      1243	80000904	7d20f213	andi	x4,x1,2002	  x1:0x0000000f  x4=0x00000002
       12455000	      1244	80000908	00682533	slt	x10,x16,x6	 x16:0x00000000  x6:0x00000000 x10=0x00000000
       12465000	      1245	8000090c	00338393	addi	x7,x7,3	  x7:0xfffffffd  x7=0x00000000
       12475000	      1246	80000910	010249b3	xor	x19,x4,x16	  x4:0x00000002 x16:0x00000000 x19=0x00000002
       12485000	      1247	80000914	fe1388e3	beq	x7,x1,80000904	  x7:0x00000000  x1:0x0000000f
       12495000	      1248	80000918	7985f693	andi	x13,x11,1944	 x11:0x00000000 x13=0x00000000
       12505000	      1249	8000091c	01dc4033	xor	x0,x24,x29	 x24:0x80009f1c x29:0x80009fc4
       12515000	      1250	80000920	98dc7fb7	lui	x31,0x98dc7	 x31=0x98dc7000
       12525000	      1251	80000924	01a7b033	sltu	x0,x15,x26	 x15:0x677408b4 x26:0xba8ab7b0
       12535000	      1252	80000928	00e99513	slli	x10,x19,0xe	 x19:0x00000002 x10=0x00008000
       12545000	      1253	8000092c	a2a1b2b7	lui	x5,0xa2a1b	  x5=0xa2a1b000
       12555000	      1254	80000930	fa8cc6e3	blt	x25,x8,800008dc	 x25:0x00000009  x8:0x00000013
       12565000	      1255	00000000	00000013	addi	x0,x0,0	  x0:0x00000000
       12575000	      1256	800008d8	00000013	addi	x0,x0,0	  x0:0x00000000
       12585000	      1257	800008dc	00000013	addi	x0,x0,0	  x0:0x00000000
       12595000	      1258	800008e0	4049d713	srai	x14,x19,0x4	 x19:0x00000002 x14=0x00000000
       12605000	      1259	800008e4	006d8a33	add	x20,x27,x6	 x27:0x00000000  x6:0x00000000 x20=0x00000000
       12615000	      1260	800008e8	002c8c93	addi	x25,x25,2	 x25:0x00000009 x25=0x0000000b
       12625000	      1261	800008ec	bd392993	slti	x19,x18,-1069	 x18:0x9e628000 x19=0x00000001
       12635000	      1262	800008f0	ffd00393	addi	x7,x0,-3	  x0:0x00000000  x7=0xfffffffd
       12645000	      1263	800008f4	4071d693	srai	x13,x3,0x7	  x3:0xe44cbc8e x13=0xffc89979
       12655000	      1264	800008f8	00f00093	addi	x1,x0,15	  x0:0x00000000  x1=0x0000000f
       12665000	      1265	800008fc	0026f633	and	x12,x13,x2	 x13:0xffc89979  x2:0x530cf864 x12=0x53089860
       12675000	      1266	80000900	01f55b93	srli	x23,x10,0x1f	 x10:0x00008000 x23=0x00000000
       12685000	      1267	80000904	7d20f213	andi	x4,x1,2002	  x1:0x0000000f  x4=0x00000002
       12695000	      1268	80000908	00682533	slt	x10,x16,x6	 x16:0x00000000  x6:0x00000000 x10=0x00000000
       12705000	      1269	8000090c	00338393	addi	x7,x7,3	  x7:0xfffffffd  x7=0x00000000
       12715000	      1270	80000910	010249b3	xor	x19,x4,x16	  x4:0x00000002 x16:0x00000000 x19=0x00000002
       12725000	      1271	80000914	fe1388e3	beq	x7,x1,80000904	  x7:0x00000000  x1:0x0000000f
       12735000	      1272	80000918	7985f693	andi	x13,x11,1944	 x11:0x00000000 x13=0x00000000
       12745000	      1273	8000091c	01dc4033	xor	x0,x24,x29	 x24:0x80009f1c x29:0x80009fc4
       12755000	      1274	80000920	98dc7fb7	lui	x31,0x98dc7	 x31=0x98dc7000
       12765000	      1275	80000924	01a7b033	sltu	x0,x15,x26	 x15:0x677408b4 x26:0xba8ab7b0
       12775000	      1276	80000928	00e99513	slli	x10,x19,0xe	 x19:0x00000002 x10=0x00008000
       12785000	      1277	8000092c	a2a1b2b7	lui	x5,0xa2a1b	  x5=0xa2a1b000
       12795000	      1278	80000930	fa8cc6e3	blt	x25,x8,800008dc	 x25:0x0000000b  x8:0x00000013
       12805000	      1279	00000000	00000013	addi	x0,x0,0	  x0:0x00000000
       12815000	      1280	800008d8	00000013	addi	x0,x0,0	  x0:0x00000000
       12825000	      1281	800008dc	00000013	addi	x0,x0,0	  x0:0x00000000
       12835000	      1282	800008e0	4049d713	srai	x14,x19,0x4	 x19:0x00000002 x14=0x00000000
       12845000	      1283	800008e4	006d8a33	add	x20,x27,x6	 x27:0x00000000  x6:0x00000000 x20=0x00000000
       12855000	      1284	800008e8	002c8c93	addi	x25,x25,2	 x25:0x0000000b x25=0x0000000d
       12865000	      1285	800008ec	bd392993	slti	x19,x18,-1069	 x18:0x9e628000 x19=0x00000001
       12875000	      1286	800008f0	ffd00393	addi	x7,x0,-3	  x0:0x00000000  x7=0xfffffffd
       12885000	      1287	800008f4	4071d693	srai	x13,x3,0x7	  x3:0xe44cbc8e x13=0xffc89979
       12895000	      1288	800008f8	00f00093	addi	x1,x0,15	  x0:0x00000000  x1=0x0000000f
       12905000	      1289	800008fc	0026f633	and	x12,x13,x2	 x13:0xffc89979  x2:0x530cf864 x12=0x53089860
       12915000	      1290	80000900	01f55b93	srli	x23,x10,0x1f	 x10:0x00008000 x23=0x00000000
       12925000	      1291	80000904	7d20f213	andi	x4,x1,2002	  x1:0x0000000f  x4=0x00000002
       12935000	      1292	80000908	00682533	slt	x10,x16,x6	 x16:0x00000000  x6:0x00000000 x10=0x00000000
       12945000	      1293	8000090c	00338393	addi	x7,x7,3	  x7:0xfffffffd  x7=0x00000000
       12955000	      1294	80000910	010249b3	xor	x19,x4,x16	  x4:0x00000002 x16:0x00000000 x19=0x00000002
       12965000	      1295	80000914	fe1388e3	beq	x7,x1,80000904	  x7:0x00000000  x1:0x0000000f
       12975000	      1296	80000918	7985f693	andi	x13,x11,1944	 x11:0x00000000 x13=0x00000000
       12985000	      1297	8000091c	01dc4033	xor	x0,x24,x29	 x24:0x80009f1c x29:0x80009fc4
       12995000	      1298	80000920	98dc7fb7	lui	x31,0x98dc7	 x31=0x98dc7000
       13005000	      1299	80000924	01a7b033	sltu	x0,x15,x26	 x15:0x677408b4 x26:0xba8ab7b0
       13015000	      1300	80000928	00e99513	slli	x10,x19,0xe	 x19:0x00000002 x10=0x00008000
       13025000	      1301	8000092c	a2a1b2b7	lui	x5,0xa2a1b	  x5=0xa2a1b000
       13035000	      1302	80000930	fa8cc6e3	blt	x25,x8,800008dc	 x25:0x0000000d  x8:0x00000013
       13045000	      1303	00000000	00000013	addi	x0,x0,0	  x0:0x00000000
       13055000	      1304	800008d8	00000013	addi	x0,x0,0	  x0:0x00000000
       13065000	      1305	800008dc	00000013	addi	x0,x0,0	  x0:0x00000000
       13075000	      1306	800008e0	4049d713	srai	x14,x19,0x4	 x19:0x00000002 x14=0x00000000
       13085000	      1307	800008e4	006d8a33	add	x20,x27,x6	 x27:0x00000000  x6:0x00000000 x20=0x00000000
       13095000	      1308	800008e8	002c8c93	addi	x25,x25,2	 x25:0x0000000d x25=0x0000000f
       13105000	      1309	800008ec	bd392993	slti	x19,x18,-1069	 x18:0x9e628000 x19=0x00000001
       13115000	      1310	800008f0	ffd00393	addi	x7,x0,-3	  x0:0x00000000  x7=0xfffffffd
       13125000	      1311	800008f4	4071d693	srai	x13,x3,0x7	  x3:0xe44cbc8e x13=0xffc89979
       13135000	      1312	800008f8	00f00093	addi	x1,x0,15	  x0:0x00000000  x1=0x0000000f
       13145000	      1313	800008fc	0026f633	and	x12,x13,x2	 x13:0xffc89979  x2:0x530cf864 x12=0x53089860
       13155000	      1314	80000900	01f55b93	srli	x23,x10,0x1f	 x10:0x00008000 x23=0x00000000
       13165000	      1315	80000904	7d20f213	andi	x4,x1,2002	  x1:0x0000000f  x4=0x00000002
       13175000	      1316	80000908	00682533	slt	x10,x16,x6	 x16:0x00000000  x6:0x00000000 x10=0x00000000
       13185000	      1317	8000090c	00338393	addi	x7,x7,3	  x7:0xfffffffd  x7=0x00000000
       13195000	      1318	80000910	010249b3	xor	x19,x4,x16	  x4:0x00000002 x16:0x00000000 x19=0x00000002
       13205000	      1319	80000914	fe1388e3	beq	x7,x1,80000904	  x7:0x00000000  x1:0x0000000f
       13215000	      1320	80000918	7985f693	andi	x13,x11,1944	 x11:0x00000000 x13=0x00000000
       13225000	      1321	8000091c	01dc4033	xor	x0,x24,x29	 x24:0x80009f1c x29:0x80009fc4
       13235000	      1322	80000920	98dc7fb7	lui	x31,0x98dc7	 x31=0x98dc7000
       13245000	      1323	80000924	01a7b033	sltu	x0,x15,x26	 x15:0x677408b4 x26:0xba8ab7b0
       13255000	      1324	80000928	00e99513	slli	x10,x19,0xe	 x19:0x00000002 x10=0x00008000
       13265000	      1325	8000092c	a2a1b2b7	lui	x5,0xa2a1b	  x5=0xa2a1b000
       13275000	      1326	80000930	fa8cc6e3	blt	x25,x8,800008dc	 x25:0x0000000f  x8:0x00000013
       13285000	      1327	00000000	00000013	addi	x0,x0,0	  x0:0x00000000
       13295000	      1328	800008d8	00000013	addi	x0,x0,0	  x0:0x00000000
       13305000	      1329	800008dc	00000013	addi	x0,x0,0	  x0:0x00000000
       13315000	      1330	800008e0	4049d713	srai	x14,x19,0x4	 x19:0x00000002 x14=0x00000000
       13325000	      1331	800008e4	006d8a33	add	x20,x27,x6	 x27:0x00000000  x6:0x00000000 x20=0x00000000
       13335000	      1332	800008e8	002c8c93	addi	x25,x25,2	 x25:0x0000000f x25=0x00000011
       13345000	      1333	800008ec	bd392993	slti	x19,x18,-1069	 x18:0x9e628000 x19=0x00000001
       13355000	      1334	800008f0	ffd00393	addi	x7,x0,-3	  x0:0x00000000  x7=0xfffffffd
       13365000	      1335	800008f4	4071d693	srai	x13,x3,0x7	  x3:0xe44cbc8e x13=0xffc89979
       13375000	      1336	800008f8	00f00093	addi	x1,x0,15	  x0:0x00000000  x1=0x0000000f
       13385000	      1337	800008fc	0026f633	and	x12,x13,x2	 x13:0xffc89979  x2:0x530cf864 x12=0x53089860
       13395000	      1338	80000900	01f55b93	srli	x23,x10,0x1f	 x10:0x00008000 x23=0x00000000
       13405000	      1339	80000904	7d20f213	andi	x4,x1,2002	  x1:0x0000000f  x4=0x00000002
       13415000	      1340	80000908	00682533	slt	x10,x16,x6	 x16:0x00000000  x6:0x00000000 x10=0x00000000
       13425000	      1341	8000090c	00338393	addi	x7,x7,3	  x7:0xfffffffd  x7=0x00000000
       13435000	      1342	80000910	010249b3	xor	x19,x4,x16	  x4:0x00000002 x16:0x00000000 x19=0x00000002
       13445000	      1343	80000914	fe1388e3	beq	x7,x1,80000904	  x7:0x00000000  x1:0x0000000f
       13455000	      1344	80000918	7985f693	andi	x13,x11,1944	 x11:0x00000000 x13=0x00000000
       13465000	      1345	8000091c	01dc4033	xor	x0,x24,x29	 x24:0x80009f1c x29:0x80009fc4
       13475000	      1346	80000920	98dc7fb7	lui	x31,0x98dc7	 x31=0x98dc7000
       13485000	      1347	80000924	01a7b033	sltu	x0,x15,x26	 x15:0x677408b4 x26:0xba8ab7b0
       13495000	      1348	80000928	00e99513	slli	x10,x19,0xe	 x19:0x00000002 x10=0x00008000
       13505000	      1349	8000092c	a2a1b2b7	lui	x5,0xa2a1b	  x5=0xa2a1b000
       13515000	      1350	80000930	fa8cc6e3	blt	x25,x8,800008dc	 x25:0x00000011  x8:0x00000013
       13525000	      1351	00000000	00000013	addi	x0,x0,0	  x0:0x00000000
       13535000	      1352	800008d8	00000013	addi	x0,x0,0	  x0:0x00000000
       13545000	      1353	800008dc	00000013	addi	x0,x0,0	  x0:0x00000000
       13555000	      1354	800008e0	4049d713	srai	x14,x19,0x4	 x19:0x00000002 x14=0x00000000
       13565000	      1355	800008e4	006d8a33	add	x20,x27,x6	 x27:0x00000000  x6:0x00000000 x20=0x00000000
       13575000	      1356	800008e8	002c8c93	addi	x25,x25,2	 x25:0x00000011 x25=0x00000013
       13585000	      1357	800008ec	bd392993	slti	x19,x18,-1069	 x18:0x9e628000 x19=0x00000001
       13595000	      1358	800008f0	ffd00393	addi	x7,x0,-3	  x0:0x00000000  x7=0xfffffffd
       13605000	      1359	800008f4	4071d693	srai	x13,x3,0x7	  x3:0xe44cbc8e x13=0xffc89979
       13615000	      1360	800008f8	00f00093	addi	x1,x0,15	  x0:0x00000000  x1=0x0000000f
       13625000	      1361	800008fc	0026f633	and	x12,x13,x2	 x13:0xffc89979  x2:0x530cf864 x12=0x53089860
       13635000	      1362	80000900	01f55b93	srli	x23,x10,0x1f	 x10:0x00008000 x23=0x00000000
       13645000	      1363	80000904	7d20f213	andi	x4,x1,2002	  x1:0x0000000f  x4=0x00000002
       13655000	      1364	80000908	00682533	slt	x10,x16,x6	 x16:0x00000000  x6:0x00000000 x10=0x00000000
       13665000	      1365	8000090c	00338393	addi	x7,x7,3	  x7:0xfffffffd  x7=0x00000000
       13675000	      1366	80000910	010249b3	xor	x19,x4,x16	  x4:0x00000002 x16:0x00000000 x19=0x00000002
       13685000	      1367	80000914	fe1388e3	beq	x7,x1,80000904	  x7:0x00000000  x1:0x0000000f
       13695000	      1368	80000918	7985f693	andi	x13,x11,1944	 x11:0x00000000 x13=0x00000000
       13705000	      1369	8000091c	01dc4033	xor	x0,x24,x29	 x24:0x80009f1c x29:0x80009fc4
       13715000	      1370	80000920	98dc7fb7	lui	x31,0x98dc7	 x31=0x98dc7000
       13725000	      1371	80000924	01a7b033	sltu	x0,x15,x26	 x15:0x677408b4 x26:0xba8ab7b0
       13735000	      1372	80000928	00e99513	slli	x10,x19,0xe	 x19:0x00000002 x10=0x00008000
       13745000	      1373	8000092c	a2a1b2b7	lui	x5,0xa2a1b	  x5=0xa2a1b000
       13755000	      1374	80000930	fa8cc6e3	blt	x25,x8,800008dc	 x25:0x00000013  x8:0x00000013
       13765000	      1375	80000934	004d0033	add	x0,x26,x4	 x26:0xba8ab7b0  x4:0x00000002
       13775000	      1376	80000938	00100813	addi	x16,x0,1	  x0:0x00000000 x16=0x00000001
       13785000	      1377	8000093c	007f1c93	slli	x25,x30,0x7	 x30:0xe1a8abcc x25=0xd455e600
       13795000	      1378	80000940	42746c93	ori	x25,x8,1063	  x8:0x00000013 x25=0x00000437
       13805000	      1379	80000944	0159d8b3	srl	x17,x19,x21	 x19:0x00000002 x21:0x00000000 x17=0x00000002
       13815000	      1380	80000948	00700313	addi	x6,x0,7	  x0:0x00000000  x6=0x00000007
       13825000	      1381	8000094c	0026d593	srli	x11,x13,0x2	 x13:0x00000000 x11=0x00000000
       13835000	      1382	80000950	7d9b2013	slti	x0,x22,2009	 x22:0x87d22814
       13845000	      1383	80000954	00fb83b3	add	x7,x23,x15	 x23:0x00000000 x15:0x677408b4  x7=0x677408b4
       13855000	      1384	80000958	000b21b3	slt	x3,x22,x0	 x22:0x87d22814  x0:0x00000000  x3=0x00000001
       13865000	      1385	8000095c	005e5133	srl	x2,x28,x5	 x28:0x079a0080  x5:0xa2a1b000  x2=0x079a0080
       13875000	      1386	80000960	402f5993	srai	x19,x30,0x2	 x30:0xe1a8abcc x19=0xf86a2af3
       13885000	      1387	80000964	034a2097	auipc	x1,0x34a2	  x1=0x834a2960
       13895000	      1388	80000968	6ca8d097	auipc	x1,0x6ca8d	  x1=0xeca8d964
       13905000	      1389	8000096c	00ad1a13	slli	x20,x26,0xa	 x26:0xba8ab7b0 x20=0x2adec000
       13915000	      1390	80000970	00a91413	slli	x8,x18,0xa	 x18:0x9e628000  x8=0x8a000000
       13925000	      1391	80000974	00cc1b13	slli	x22,x24,0xc	 x24:0x80009f1c x22=0x09f1c000
       13935000	      1392	80000978	0056afb3	slt	x31,x13,x5	 x13:0x00000000  x5:0xa2a1b000 x31=0x00000000
       13945000	      1393	8000097c	006f6bb3	or	x23,x30,x6	 x30:0xe1a8abcc  x6:0x00000007 x23=0xe1a8abcf
       13955000	      1394	80000980	01d48cb3	add	x25,x9,x29	  x9:0x00000001 x29:0x80009fc4 x25=0x80009fc5
       13965000	      1395	80000984	00000013	addi	x0,x0,0	  x0:0x00000000
       13975000	      1396	80000988	00000013	addi	x0,x0,0	  x0:0x00000000
       13985000	      1397	8000098c	64898713	addi	x14,x19,1608	 x19:0xf86a2af3 x14=0xf86a313b
       13995000	      1398	80000990	40cf0bb3	sub	x23,x30,x12	 x30:0xe1a8abcc x12:0x53089860 x23=0x8ea0136c
       14005000	      1399	80000994	00680813	addi	x16,x16,6	 x16:0x00000001 x16=0x00000007
       14015000	      1400	80000998	00875133	srl	x2,x14,x8	 x14:0xf86a313b  x8:0x8a000000  x2=0xf86a313b
       14025000	      1401	8000099c	004a0cb3	add	x25,x20,x4	 x20:0x2adec000  x4:0x00000002 x25=0x2adec002
       14035000	      1402	800009a0	01bddf13	srli	x30,x27,0x1b	 x27:0x00000000 x30=0x00000000
       14045000	      1403	800009a4	fa680ae3	beq	x16,x6,80000958	 x16:0x00000007  x6:0x00000007
       14055000	      1404	00000000	00000013	addi	x0,x0,0	  x0:0x00000000
       14065000	      1405	80000954	00000013	addi	x0,x0,0	  x0:0x00000000
       14075000	      1406	80000958	000b21b3	slt	x3,x22,x0	 x22:0x09f1c000  x0:0x00000000  x3=0x00000000
       14085000	      1407	8000095c	005e5133	srl	x2,x28,x5	 x28:0x079a0080  x5:0xa2a1b000  x2=0x079a0080
       14095000	      1408	80000960	402f5993	srai	x19,x30,0x2	 x30:0x00000000 x19=0x00000000
       14105000	      1409	80000964	034a2097	auipc	x1,0x34a2	  x1=0x834a2960
       14115000	      1410	80000968	6ca8d097	auipc	x1,0x6ca8d	  x1=0xeca8d964
       14125000	      1411	8000096c	00ad1a13	slli	x20,x26,0xa	 x26:0xba8ab7b0 x20=0x2adec000
       14135000	      1412	80000970	00a91413	slli	x8,x18,0xa	 x18:0x9e628000  x8=0x8a000000
       14145000	      1413	80000974	00cc1b13	slli	x22,x24,0xc	 x24:0x80009f1c x22=0x09f1c000
       14155000	      1414	80000978	0056afb3	slt	x31,x13,x5	 x13:0x00000000  x5:0xa2a1b000 x31=0x00000000
       14165000	      1415	8000097c	006f6bb3	or	x23,x30,x6	 x30:0x00000000  x6:0x00000007 x23=0x00000007
       14175000	      1416	80000980	01d48cb3	add	x25,x9,x29	  x9:0x00000001 x29:0x80009fc4 x25=0x80009fc5
       14185000	      1417	80000984	00000013	addi	x0,x0,0	  x0:0x00000000
       14195000	      1418	80000988	00000013	addi	x0,x0,0	  x0:0x00000000
       14205000	      1419	8000098c	64898713	addi	x14,x19,1608	 x19:0x00000000 x14=0x00000648
       14215000	      1420	80000990	40cf0bb3	sub	x23,x30,x12	 x30:0x00000000 x12:0x53089860 x23=0xacf767a0
       14225000	      1421	80000994	00680813	addi	x16,x16,6	 x16:0x00000007 x16=0x0000000d
       14235000	      1422	80000998	00875133	srl	x2,x14,x8	 x14:0x00000648  x8:0x8a000000  x2=0x00000648
       14245000	      1423	8000099c	004a0cb3	add	x25,x20,x4	 x20:0x2adec000  x4:0x00000002 x25=0x2adec002
       14255000	      1424	800009a0	01bddf13	srli	x30,x27,0x1b	 x27:0x00000000 x30=0x00000000
       14265000	      1425	800009a4	fa680ae3	beq	x16,x6,80000958	 x16:0x0000000d  x6:0x00000007
       14275000	      1426	800009a8	fed24713	xori	x14,x4,-19	  x4:0x00000002 x14=0xffffffef
       14285000	      1427	800009ac	ff900413	addi	x8,x0,-7	  x0:0x00000000  x8=0xfffffff9
       14295000	      1428	800009b0	00200c93	addi	x25,x0,2	  x0:0x00000000 x25=0x00000002
       14305000	      1429	800009b4	ff0d2a13	slti	x20,x26,-16	 x26:0xba8ab7b0 x20=0x00000001
       14315000	      1430	800009b8	413005b3	sub	x11,x0,x19	  x0:0x00000000 x19:0x00000000 x11=0x00000000
       14325000	      1431	800009bc	00e7d2b3	srl	x5,x15,x14	 x15:0x677408b4 x14:0xffffffef  x5=0x0000cee8
       14335000	      1432	800009c0	b614fa13	andi	x20,x9,-1183	  x9:0x00000001 x20=0x00000001
       14345000	      1433	800009c4	83aded13	ori	x26,x27,-1990	 x27:0x00000000 x26=0xfffff83a
       14355000	      1434	800009c8	01c41d93	slli	x27,x8,0x1c	  x8:0xfffffff9 x27=0x90000000
       14365000	      1435	800009cc	00540413	addi	x8,x8,5	  x8:0xfffffff9  x8=0xfffffffe
       14375000	      1436	800009d0	0e5f7f13	andi	x30,x30,229	 x30:0x00000000 x30=0x00000000
       14385000	      1437	800009d4	01bf7733	and	x14,x30,x27	 x30:0x00000000 x27:0x90000000 x14=0x00000000
       14395000	      1438	800009d8	00700693	addi	x13,x0,7	  x0:0x00000000 x13=0x00000007
       14405000	      1439	800009dc	8f27e713	ori	x14,x15,-1806	 x15:0x677408b4 x14=0xfffff8f6
       14415000	      1440	800009e0	00b00313	addi	x6,x0,11	  x0:0x00000000  x6=0x0000000b
       14425000	      1441	800009e4	01aad133	srl	x2,x21,x26	 x21:0x00000000 x26:0xfffff83a  x2=0x00000000
       14435000	      1442	800009e8	40de0833	sub	x16,x28,x13	 x28:0x079a0080 x13:0x00000007 x16=0x079a0079
       14445000	      1443	800009ec	0189b833	sltu	x16,x19,x24	 x19:0x00000000 x24:0x80009f1c x16=0x00000001
       14455000	      1444	800009f0	005531b3	sltu	x3,x10,x5	 x10:0x00008000  x5:0x0000cee8  x3=0x00000001
       14465000	      1445	800009f4	408b8133	sub	x2,x23,x8	 x23:0xacf767a0  x8:0xfffffffe  x2=0xacf767a2
       14475000	      1446	800009f8	86d1f097	auipc	x1,0x86d1f	  x1=0x06d1f9f4
       14485000	      1447	800009fc	41830e33	sub	x28,x6,x24	  x6:0x0000000b x24:0x80009f1c x28=0x7fff60ef
       14495000	      1448	80000a00	00668693	addi	x13,x13,6	 x13:0x00000007 x13=0x0000000d
       14505000	      1449	80000a04	541c8e13	addi	x28,x25,1345	 x25:0x00000002 x28=0x00000543
       14515000	      1450	80000a08	fe66c0e3	blt	x13,x6,800009e8	 x13:0x0000000d  x6:0x0000000b
       14525000	      1451	80000a0c	01a139b3	sltu	x19,x2,x26	  x2:0xacf767a2 x26:0xfffff83a x19=0x00000001
       14535000	      1452	80000a10	7f5f2993	slti	x19,x30,2037	 x30:0x00000000 x19=0x00000001
       14545000	      1453	80000a14	014311b3	sll	x3,x6,x20	  x6:0x0000000b x20:0x00000001  x3=0x00000016
       14555000	      1454	80000a18	59aaa513	slti	x10,x21,1434	 x21:0x00000000 x10=0x00000001
       14565000	      1455	80000a1c	fb9464e3	bltu	x8,x25,800009c4	  x8:0xfffffffe x25:0x00000002
       14575000	      1456	80000a20	0149e133	or	x2,x19,x20	 x19:0x00000001 x20:0x00000001  x2=0x00000001
       14585000	      1457	80000a24	00000913	addi	x18,x0,0	  x0:0x00000000 x18=0x00000000
       14595000	      1458	80000a28	14210493	addi	x9,x2,322	  x2:0x00000001  x9=0x00000143
       14605000	      1459	80000a2c	00483333	sltu	x6,x16,x4	 x16:0x00000001  x4:0x00000002  x6=0x00000001
       14615000	      1460	80000a30	01268033	add	x0,x13,x18	 x13:0x0000000d x18:0x00000000
       14625000	      1461	80000a34	ffb00e13	addi	x28,x0,-5	  x0:0x00000000 x28=0xfffffffb
       14635000	      1462	80000a38	23894593	xori	x11,x18,568	 x18:0x00000000 x11=0x00000238
       14645000	      1463	80000a3c	00000013	addi	x0,x0,0	  x0:0x00000000
       14655000	      1464	80000a40	00133a33	sltu	x20,x6,x1	  x6:0x00000001  x1:0x06d1f9f4 x20=0x00000001
       14665000	      1465	80000a44	00f1cf33	xor	x30,x3,x15	  x3:0x00000016 x15:0x677408b4 x30=0x677408a2
       14675000	      1466	80000a48	ffc90913	addi	x18,x18,-4	 x18:0x00000000 x18=0xfffffffc
       14685000	      1467	80000a4c	04ca7393	andi	x7,x20,76	 x20:0x00000001  x7=0x00000000
       14695000	      1468	80000a50	002014b3	sll	x9,x0,x2	  x0:0x00000000  x2:0x00000001  x9=0x00000000
       14705000	      1469	80000a54	ffc00993	addi	x19,x0,-4	  x0:0x00000000 x19=0xfffffffc
       14715000	      1470	80000a58	e1b14693	xori	x13,x2,-485	  x2:0x00000001 x13=0xfffffe1a
       14725000	      1471	80000a5c	ff600d93	addi	x27,x0,-10	  x0:0x00000000 x27=0xfffffff6
       14735000	      1472	80000a60	0166ea33	or	x20,x13,x22	 x13:0xfffffe1a x22:0x09f1c000 x20=0xfffffe1a
       14745000	      1473	80000a64	00aa43b3	xor	x7,x20,x10	 x20:0xfffffe1a x10:0x00000001  x7=0xfffffe1b
       14755000	      1474	80000a68	f1234613	xori	x12,x6,-238	  x6:0x00000001 x12=0xffffff13
       14765000	      1475	80000a6c	41538333	sub	x6,x7,x21	  x7:0xfffffe1b x21:0x00000000  x6=0xfffffe1b
       14775000	      1476	80000a70	007e7733	and	x14,x28,x7	 x28:0xfffffffb  x7:0xfffffe1b x14=0xfffffe1b
       14785000	      1477	80000a74	ffa98993	addi	x19,x19,-6	 x19:0xfffffffc x19=0xfffffff6
       14795000	      1478	80000a78	00a9b1b3	sltu	x3,x19,x10	 x19:0xfffffff6 x10:0x00000001  x3=0x00000000
       14805000	      1479	80000a7c	ffb994e3	bne	x19,x27,80000a64	 x19:0xfffffff6 x27:0xfffffff6
       14815000	      1480	80000a80	ec944693	xori	x13,x8,-311	  x8:0xfffffffe x13=0x00000137
       14825000	      1481	80000a84	31d6b493	sltiu	x9,x13,797	 x13:0x00000137  x9=0x00000001
       14835000	      1482	80000a88	00e121b3	slt	x3,x2,x14	  x2:0x00000001 x14:0xfffffe1b  x3=0x00000000
       14845000	      1483	80000a8c	1c047813	andi	x16,x8,448	  x8:0xfffffffe x16=0x000001c0
       14855000	      1484	80000a90	01dcc533	xor	x10,x25,x29	 x25:0x00000002 x29:0x80009fc4 x10=0x80009fc6
       14865000	      1485	80000a94	e63e6213	ori	x4,x28,-413	 x28:0xfffffffb  x4=0xfffffffb
       14875000	      1486	80000a98	fbc950e3	bge	x18,x28,80000a38	 x18:0xfffffffc x28:0xfffffffb
       14885000	      1487	00000000	00000013	addi	x0,x0,0	  x0:0x00000000
       14895000	      1488	80000a34	00000013	addi	x0,x0,0	  x0:0x00000000
       14905000	      1489	80000a38	23894593	xori	x11,x18,568	 x18:0xfffffffc x11=0xfffffdc4
       14915000	      1490	80000a3c	00000013	addi	x0,x0,0	  x0:0x00000000
       14925000	      1491	80000a40	00133a33	sltu	x20,x6,x1	  x6:0xfffffe1b  x1:0x06d1f9f4 x20=0x00000000
       14935000	      1492	80000a44	00f1cf33	xor	x30,x3,x15	  x3:0x00000000 x15:0x677408b4 x30=0x677408b4
       14945000	      1493	80000a48	ffc90913	addi	x18,x18,-4	 x18:0xfffffffc x18=0xfffffff8
       14955000	      1494	80000a4c	04ca7393	andi	x7,x20,76	 x20:0x00000000  x7=0x00000000
       14965000	      1495	80000a50	002014b3	sll	x9,x0,x2	  x0:0x00000000  x2:0x00000001  x9=0x00000000
       14975000	      1496	80000a54	ffc00993	addi	x19,x0,-4	  x0:0x00000000 x19=0xfffffffc
       14985000	      1497	80000a58	e1b14693	xori	x13,x2,-485	  x2:0x00000001 x13=0xfffffe1a
       14995000	      1498	80000a5c	ff600d93	addi	x27,x0,-10	  x0:0x00000000 x27=0xfffffff6
       15005000	      1499	80000a60	0166ea33	or	x20,x13,x22	 x13:0xfffffe1a x22:0x09f1c000 x20=0xfffffe1a
       15015000	      1500	80000a64	00aa43b3	xor	x7,x20,x10	 x20:0xfffffe1a x10:0x80009fc6  x7=0x7fff61dc
       15025000	      1501	80000a68	f1234613	xori	x12,x6,-238	  x6:0xfffffe1b x12=0x00000109
       15035000	      1502	80000a6c	41538333	sub	x6,x7,x21	  x7:0x7fff61dc x21:0x00000000  x6=0x7fff61dc
       15045000	      1503	80000a70	007e7733	and	x14,x28,x7	 x28:0xfffffffb  x7:0x7fff61dc x14=0x7fff61d8
       15055000	      1504	80000a74	ffa98993	addi	x19,x19,-6	 x19:0xfffffffc x19=0xfffffff6
       15065000	      1505	80000a78	00a9b1b3	sltu	x3,x19,x10	 x19:0xfffffff6 x10:0x80009fc6  x3=0x00000000
       15075000	      1506	80000a7c	ffb994e3	bne	x19,x27,80000a64	 x19:0xfffffff6 x27:0xfffffff6
       15085000	      1507	80000a80	ec944693	xori	x13,x8,-311	  x8:0xfffffffe x13=0x00000137
       15095000	      1508	80000a84	31d6b493	sltiu	x9,x13,797	 x13:0x00000137  x9=0x00000001
       15105000	      1509	80000a88	00e121b3	slt	x3,x2,x14	  x2:0x00000001 x14:0x7fff61d8  x3=0x00000001
       15115000	      1510	80000a8c	1c047813	andi	x16,x8,448	  x8:0xfffffffe x16=0x000001c0
       15125000	      1511	80000a90	01dcc533	xor	x10,x25,x29	 x25:0x00000002 x29:0x80009fc4 x10=0x80009fc6
       15135000	      1512	80000a94	e63e6213	ori	x4,x28,-413	 x28:0xfffffffb  x4=0xfffffffb
       15145000	      1513	80000a98	fbc950e3	bge	x18,x28,80000a38	 x18:0xfffffff8 x28:0xfffffffb
       15155000	      1514	80000a9c	003a1f13	slli	x30,x20,0x3	 x20:0xfffffe1a x30=0xfffff0d0
       15165000	      1515	80000aa0	00600213	addi	x4,x0,6	  x0:0x00000000  x4=0x00000006
       15175000	      1516	80000aa4	00e00b13	addi	x22,x0,14	  x0:0x00000000 x22=0x0000000e
       15185000	      1517	80000aa8	019853b3	srl	x7,x16,x25	 x16:0x000001c0 x25:0x00000002  x7=0x00000070
       15195000	      1518	80000aac	01c022b3	slt	x5,x0,x28	  x0:0x00000000 x28:0xfffffffb  x5=0x00000000
       15205000	      1519	80000ab0	00320213	addi	x4,x4,3	  x4:0x00000006  x4=0x00000009
       15215000	      1520	80000ab4	00200a13	addi	x20,x0,2	  x0:0x00000000 x20=0x00000002
       15225000	      1521	80000ab8	fec00693	addi	x13,x0,-20	  x0:0x00000000 x13=0xffffffec
       15235000	      1522	80000abc	1904fb93	andi	x23,x9,400	  x9:0x00000001 x23=0x00000000
       15245000	      1523	80000ac0	00285633	srl	x12,x16,x2	 x16:0x000001c0  x2:0x00000001 x12=0x000000e0
       15255000	      1524	80000ac4	ffca0a13	addi	x20,x20,-4	 x20:0x00000002 x20=0xfffffffe
       15265000	      1525	80000ac8	feda5ae3	bge	x20,x13,80000abc	 x20:0xfffffffe x13:0xffffffec
       15275000	      1526	00000000	00000013	addi	x0,x0,0	  x0:0x00000000
       15285000	      1527	80000ab8	00000013	addi	x0,x0,0	  x0:0x00000000
       15295000	      1528	80000abc	1904fb93	andi	x23,x9,400	  x9:0x00000001 x23=0x00000000
       15305000	      1529	80000ac0	00285633	srl	x12,x16,x2	 x16:0x000001c0  x2:0x00000001 x12=0x000000e0
       15315000	      1530	80000ac4	ffca0a13	addi	x20,x20,-4	 x20:0xfffffffe x20=0xfffffffa
       15325000	      1531	80000ac8	feda5ae3	bge	x20,x13,80000abc	 x20:0xfffffffa x13:0xffffffec
       15335000	      1532	00000000	00000013	addi	x0,x0,0	  x0:0x00000000
       15345000	      1533	80000ab8	00000013	addi	x0,x0,0	  x0:0x00000000
       15355000	      1534	80000abc	1904fb93	andi	x23,x9,400	  x9:0x00000001 x23=0x00000000
       15365000	      1535	80000ac0	00285633	srl	x12,x16,x2	 x16:0x000001c0  x2:0x00000001 x12=0x000000e0
       15375000	      1536	80000ac4	ffca0a13	addi	x20,x20,-4	 x20:0xfffffffa x20=0xfffffff6
       15385000	      1537	80000ac8	feda5ae3	bge	x20,x13,80000abc	 x20:0xfffffff6 x13:0xffffffec
       15395000	      1538	00000000	00000013	addi	x0,x0,0	  x0:0x00000000
       15405000	      1539	80000ab8	00000013	addi	x0,x0,0	  x0:0x00000000
       15415000	      1540	80000abc	1904fb93	andi	x23,x9,400	  x9:0x00000001 x23=0x00000000
       15425000	      1541	80000ac0	00285633	srl	x12,x16,x2	 x16:0x000001c0  x2:0x00000001 x12=0x000000e0
       15435000	      1542	80000ac4	ffca0a13	addi	x20,x20,-4	 x20:0xfffffff6 x20=0xfffffff2
       15445000	      1543	80000ac8	feda5ae3	bge	x20,x13,80000abc	 x20:0xfffffff2 x13:0xffffffec
       15455000	      1544	00000000	00000013	addi	x0,x0,0	  x0:0x00000000
       15465000	      1545	80000ab8	00000013	addi	x0,x0,0	  x0:0x00000000
       15475000	      1546	80000abc	1904fb93	andi	x23,x9,400	  x9:0x00000001 x23=0x00000000
       15485000	      1547	80000ac0	00285633	srl	x12,x16,x2	 x16:0x000001c0  x2:0x00000001 x12=0x000000e0
       15495000	      1548	80000ac4	ffca0a13	addi	x20,x20,-4	 x20:0xfffffff2 x20=0xffffffee
       15505000	      1549	80000ac8	feda5ae3	bge	x20,x13,80000abc	 x20:0xffffffee x13:0xffffffec
       15515000	      1550	00000000	00000013	addi	x0,x0,0	  x0:0x00000000
       15525000	      1551	80000ab8	00000013	addi	x0,x0,0	  x0:0x00000000
       15535000	      1552	80000abc	1904fb93	andi	x23,x9,400	  x9:0x00000001 x23=0x00000000
       15545000	      1553	80000ac0	00285633	srl	x12,x16,x2	 x16:0x000001c0  x2:0x00000001 x12=0x000000e0
       15555000	      1554	80000ac4	ffca0a13	addi	x20,x20,-4	 x20:0xffffffee x20=0xffffffea
       15565000	      1555	80000ac8	feda5ae3	bge	x20,x13,80000abc	 x20:0xffffffea x13:0xffffffec
       15575000	      1556	80000acc	ff6240e3	blt	x4,x22,80000aac	  x4:0x00000009 x22:0x0000000e
       15585000	      1557	00000000	00000013	addi	x0,x0,0	  x0:0x00000000
       15595000	      1558	80000aa8	00000013	addi	x0,x0,0	  x0:0x00000000
       15605000	      1559	80000aac	01c022b3	slt	x5,x0,x28	  x0:0x00000000 x28:0xfffffffb  x5=0x00000000
       15615000	      1560	80000ab0	00320213	addi	x4,x4,3	  x4:0x00000009  x4=0x0000000c
       15625000	      1561	80000ab4	00200a13	addi	x20,x0,2	  x0:0x00000000 x20=0x00000002
       15635000	      1562	80000ab8	fec00693	addi	x13,x0,-20	  x0:0x00000000 x13=0xffffffec
       15645000	      1563	80000abc	1904fb93	andi	x23,x9,400	  x9:0x00000001 x23=0x00000000
       15655000	      1564	80000ac0	00285633	srl	x12,x16,x2	 x16:0x000001c0  x2:0x00000001 x12=0x000000e0
       15665000	      1565	80000ac4	ffca0a13	addi	x20,x20,-4	 x20:0x00000002 x20=0xfffffffe
       15675000	      1566	80000ac8	feda5ae3	bge	x20,x13,80000abc	 x20:0xfffffffe x13:0xffffffec
       15685000	      1567	00000000	00000013	addi	x0,x0,0	  x0:0x00000000
       15695000	      1568	80000ab8	00000013	addi	x0,x0,0	  x0:0x00000000
       15705000	      1569	80000abc	1904fb93	andi	x23,x9,400	  x9:0x00000001 x23=0x00000000
       15715000	      1570	80000ac0	00285633	srl	x12,x16,x2	 x16:0x000001c0  x2:0x00000001 x12=0x000000e0
       15725000	      1571	80000ac4	ffca0a13	addi	x20,x20,-4	 x20:0xfffffffe x20=0xfffffffa
       15735000	      1572	80000ac8	feda5ae3	bge	x20,x13,80000abc	 x20:0xfffffffa x13:0xffffffec
       15745000	      1573	00000000	00000013	addi	x0,x0,0	  x0:0x00000000
       15755000	      1574	80000ab8	00000013	addi	x0,x0,0	  x0:0x00000000
       15765000	      1575	80000abc	1904fb93	andi	x23,x9,400	  x9:0x00000001 x23=0x00000000
       15775000	      1576	80000ac0	00285633	srl	x12,x16,x2	 x16:0x000001c0  x2:0x00000001 x12=0x000000e0
       15785000	      1577	80000ac4	ffca0a13	addi	x20,x20,-4	 x20:0xfffffffa x20=0xfffffff6
       15795000	      1578	80000ac8	feda5ae3	bge	x20,x13,80000abc	 x20:0xfffffff6 x13:0xffffffec
       15805000	      1579	00000000	00000013	addi	x0,x0,0	  x0:0x00000000
       15815000	      1580	80000ab8	00000013	addi	x0,x0,0	  x0:0x00000000
       15825000	      1581	80000abc	1904fb93	andi	x23,x9,400	  x9:0x00000001 x23=0x00000000
       15835000	      1582	80000ac0	00285633	srl	x12,x16,x2	 x16:0x000001c0  x2:0x00000001 x12=0x000000e0
       15845000	      1583	80000ac4	ffca0a13	addi	x20,x20,-4	 x20:0xfffffff6 x20=0xfffffff2
       15855000	      1584	80000ac8	feda5ae3	bge	x20,x13,80000abc	 x20:0xfffffff2 x13:0xffffffec
       15865000	      1585	00000000	00000013	addi	x0,x0,0	  x0:0x00000000
       15875000	      1586	80000ab8	00000013	addi	x0,x0,0	  x0:0x00000000
       15885000	      1587	80000abc	1904fb93	andi	x23,x9,400	  x9:0x00000001 x23=0x00000000
       15895000	      1588	80000ac0	00285633	srl	x12,x16,x2	 x16:0x000001c0  x2:0x00000001 x12=0x000000e0
       15905000	      1589	80000ac4	ffca0a13	addi	x20,x20,-4	 x20:0xfffffff2 x20=0xffffffee
       15915000	      1590	80000ac8	feda5ae3	bge	x20,x13,80000abc	 x20:0xffffffee x13:0xffffffec
       15925000	      1591	00000000	00000013	addi	x0,x0,0	  x0:0x00000000
       15935000	      1592	80000ab8	00000013	addi	x0,x0,0	  x0:0x00000000
       15945000	      1593	80000abc	1904fb93	andi	x23,x9,400	  x9:0x00000001 x23=0x00000000
       15955000	      1594	80000ac0	00285633	srl	x12,x16,x2	 x16:0x000001c0  x2:0x00000001 x12=0x000000e0
       15965000	      1595	80000ac4	ffca0a13	addi	x20,x20,-4	 x20:0xffffffee x20=0xffffffea
       15975000	      1596	80000ac8	feda5ae3	bge	x20,x13,80000abc	 x20:0xffffffea x13:0xffffffec
       15985000	      1597	80000acc	ff6240e3	blt	x4,x22,80000aac	  x4:0x0000000c x22:0x0000000e
       15995000	      1598	00000000	00000013	addi	x0,x0,0	  x0:0x00000000
       16005000	      1599	80000aa8	00000013	addi	x0,x0,0	  x0:0x00000000
       16015000	      1600	80000aac	01c022b3	slt	x5,x0,x28	  x0:0x00000000 x28:0xfffffffb  x5=0x00000000
       16025000	      1601	80000ab0	00320213	addi	x4,x4,3	  x4:0x0000000c  x4=0x0000000f
       16035000	      1602	80000ab4	00200a13	addi	x20,x0,2	  x0:0x00000000 x20=0x00000002
       16045000	      1603	80000ab8	fec00693	addi	x13,x0,-20	  x0:0x00000000 x13=0xffffffec
       16055000	      1604	80000abc	1904fb93	andi	x23,x9,400	  x9:0x00000001 x23=0x00000000
       16065000	      1605	80000ac0	00285633	srl	x12,x16,x2	 x16:0x000001c0  x2:0x00000001 x12=0x000000e0
       16075000	      1606	80000ac4	ffca0a13	addi	x20,x20,-4	 x20:0x00000002 x20=0xfffffffe
       16085000	      1607	80000ac8	feda5ae3	bge	x20,x13,80000abc	 x20:0xfffffffe x13:0xffffffec
       16095000	      1608	00000000	00000013	addi	x0,x0,0	  x0:0x00000000
       16105000	      1609	80000ab8	00000013	addi	x0,x0,0	  x0:0x00000000
       16115000	      1610	80000abc	1904fb93	andi	x23,x9,400	  x9:0x00000001 x23=0x00000000
       16125000	      1611	80000ac0	00285633	srl	x12,x16,x2	 x16:0x000001c0  x2:0x00000001 x12=0x000000e0
       16135000	      1612	80000ac4	ffca0a13	addi	x20,x20,-4	 x20:0xfffffffe x20=0xfffffffa
       16145000	      1613	80000ac8	feda5ae3	bge	x20,x13,80000abc	 x20:0xfffffffa x13:0xffffffec
       16155000	      1614	00000000	00000013	addi	x0,x0,0	  x0:0x00000000
       16165000	      1615	80000ab8	00000013	addi	x0,x0,0	  x0:0x00000000
       16175000	      1616	80000abc	1904fb93	andi	x23,x9,400	  x9:0x00000001 x23=0x00000000
       16185000	      1617	80000ac0	00285633	srl	x12,x16,x2	 x16:0x000001c0  x2:0x00000001 x12=0x000000e0
       16195000	      1618	80000ac4	ffca0a13	addi	x20,x20,-4	 x20:0xfffffffa x20=0xfffffff6
       16205000	      1619	80000ac8	feda5ae3	bge	x20,x13,80000abc	 x20:0xfffffff6 x13:0xffffffec
       16215000	      1620	00000000	00000013	addi	x0,x0,0	  x0:0x00000000
       16225000	      1621	80000ab8	00000013	addi	x0,x0,0	  x0:0x00000000
       16235000	      1622	80000abc	1904fb93	andi	x23,x9,400	  x9:0x00000001 x23=0x00000000
       16245000	      1623	80000ac0	00285633	srl	x12,x16,x2	 x16:0x000001c0  x2:0x00000001 x12=0x000000e0
       16255000	      1624	80000ac4	ffca0a13	addi	x20,x20,-4	 x20:0xfffffff6 x20=0xfffffff2
       16265000	      1625	80000ac8	feda5ae3	bge	x20,x13,80000abc	 x20:0xfffffff2 x13:0xffffffec
       16275000	      1626	00000000	00000013	addi	x0,x0,0	  x0:0x00000000
       16285000	      1627	80000ab8	00000013	addi	x0,x0,0	  x0:0x00000000
       16295000	      1628	80000abc	1904fb93	andi	x23,x9,400	  x9:0x00000001 x23=0x00000000
       16305000	      1629	80000ac0	00285633	srl	x12,x16,x2	 x16:0x000001c0  x2:0x00000001 x12=0x000000e0
       16315000	      1630	80000ac4	ffca0a13	addi	x20,x20,-4	 x20:0xfffffff2 x20=0xffffffee
       16325000	      1631	80000ac8	feda5ae3	bge	x20,x13,80000abc	 x20:0xffffffee x13:0xffffffec
       16335000	      1632	00000000	00000013	addi	x0,x0,0	  x0:0x00000000
       16345000	      1633	80000ab8	00000013	addi	x0,x0,0	  x0:0x00000000
       16355000	      1634	80000abc	1904fb93	andi	x23,x9,400	  x9:0x00000001 x23=0x00000000
       16365000	      1635	80000ac0	00285633	srl	x12,x16,x2	 x16:0x000001c0  x2:0x00000001 x12=0x000000e0
       16375000	      1636	80000ac4	ffca0a13	addi	x20,x20,-4	 x20:0xffffffee x20=0xffffffea
       16385000	      1637	80000ac8	feda5ae3	bge	x20,x13,80000abc	 x20:0xffffffea x13:0xffffffec
       16395000	      1638	80000acc	ff6240e3	blt	x4,x22,80000aac	  x4:0x0000000f x22:0x0000000e
       16405000	      1639	80000ad0	3fa991b7	lui	x3,0x3fa99	  x3=0x3fa99000
       16415000	      1640	80000ad4	00700413	addi	x8,x0,7	  x0:0x00000000  x8=0x00000007
       16425000	      1641	80000ad8	018ff033	and	x0,x31,x24	 x31:0x00000000 x24:0x80009f1c
       16435000	      1642	80000adc	01a89f33	sll	x30,x17,x26	 x17:0x00000002 x26:0xfffff83a x30=0x08000000
       16445000	      1643	80000ae0	ff4a4117	auipc	x2,0xff4a4	  x2=0x7f4a4adc
       16455000	      1644	80000ae4	e9c83397	auipc	x7,0xe9c83	  x7=0x69c83ae0
       16465000	      1645	80000ae8	40460fb3	sub	x31,x12,x4	 x12:0x000000e0  x4:0x0000000f x31=0x000000d1
       16475000	      1646	80000aec	11d27d13	andi	x26,x4,285	  x4:0x0000000f x26=0x0000000d
       16485000	      1647	80000af0	008be333	or	x6,x23,x8	 x23:0x00000000  x8:0x00000007  x6=0x00000007
       16495000	      1648	80000af4	41985533	sra	x10,x16,x25	 x16:0x000001c0 x25:0x00000002 x10=0x00000070
       16505000	      1649	80000af8	00700193	addi	x3,x0,7	  x0:0x00000000  x3=0x00000007
       16515000	      1650	80000afc	3e2d6c93	ori	x25,x26,994	 x26:0x0000000d x25=0x000003ef
       16525000	      1651	80000b00	0198d813	srli	x16,x17,0x19	 x17:0x00000002 x16=0x00000000
       16535000	      1652	80000b04	00d2f933	and	x18,x5,x13	  x5:0x00000000 x13:0xffffffec x18=0x00000000
       16545000	      1653	80000b08	00053013	sltiu	x0,x10,0	 x10:0x00000070
       16555000	      1654	80000b0c	b8182113	slti	x2,x16,-1151	 x16:0x00000000  x2=0x00000000
       16565000	      1655	80000b10	01141bb3	sll	x23,x8,x17	  x8:0x00000007 x17:0x00000002 x23=0x0000001c
       16575000	      1656	80000b14	01dfd693	srli	x13,x31,0x1d	 x31:0x000000d1 x13=0x00000000
       16585000	      1657	80000b18	ffc40413	addi	x8,x8,-4	  x8:0x00000007  x8=0x00000003
       16595000	      1658	80000b1c	00c33333	sltu	x6,x6,x12	  x6:0x00000007 x12:0x000000e0  x6=0x00000001
       16605000	      1659	80000b20	79fd3d13	sltiu	x26,x26,1951	 x26:0x0000000d x26=0x00000001
       16615000	      1660	80000b24	4d71bc93	sltiu	x25,x3,1239	  x3:0x00000007 x25=0x00000001
       16625000	      1661	80000b28	01b18d33	add	x26,x3,x27	  x3:0x00000007 x27:0xfffffff6 x26=0xfffffffd
       16635000	      1662	80000b2c	fe3470e3	bgeu	x8,x3,80000b0c	  x8:0x00000003  x3:0x00000007
       16645000	      1663	80000b30	40bc5913	srai	x18,x24,0xb	 x24:0x80009f1c x18=0xfff00013
       16655000	      1664	80000b34	00800193	addi	x3,x0,8	  x0:0x00000000  x3=0x00000008
       16665000	      1665	80000b38	00c00593	addi	x11,x0,12	  x0:0x00000000 x11=0x0000000c
       16675000	      1666	80000b3c	01ac29b3	slt	x19,x24,x26	 x24:0x80009f1c x26:0xfffffffd x19=0x00000001
       16685000	      1667	80000b40	5b613d93	sltiu	x27,x2,1462	  x2:0x00000000 x27=0x00000001
       16695000	      1668	80000b44	00818193	addi	x3,x3,8	  x3:0x00000008  x3=0x00000010
       16705000	      1669	80000b48	ffb00113	addi	x2,x0,-5	  x0:0x00000000  x2=0xfffffffb
       16715000	      1670	80000b4c	017d5413	srli	x8,x26,0x17	 x26:0xfffffffd  x8=0x000001ff
       16725000	      1671	80000b50	01200613	addi	x12,x0,18	  x0:0x00000000 x12=0x00000012
       16735000	      1672	80000b54	51c8cd93	xori	x27,x17,1308	 x17:0x00000002 x27=0x0000051e
       16745000	      1673	80000b58	03598f17	auipc	x30,0x3598	 x30=0x83598b54
       16755000	      1674	80000b5c	00110113	addi	x2,x2,1	  x2:0xfffffffb  x2=0xfffffffc
       16765000	      1675	80000b60	fec11ae3	bne	x2,x12,80000b54	  x2:0xfffffffc x12:0x00000012
       16775000	      1676	00000000	00000013	addi	x0,x0,0	  x0:0x00000000
       16785000	      1677	80000b50	00000013	addi	x0,x0,0	  x0:0x00000000
       16795000	      1678	80000b54	51c8cd93	xori	x27,x17,1308	 x17:0x00000002 x27=0x0000051e
       16805000	      1679	80000b58	03598f17	auipc	x30,0x3598	 x30=0x83598b54
       16815000	      1680	80000b5c	00110113	addi	x2,x2,1	  x2:0xfffffffc  x2=0xfffffffd
       16825000	      1681	80000b60	fec11ae3	bne	x2,x12,80000b54	  x2:0xfffffffd x12:0x00000012
       16835000	      1682	00000000	00000013	addi	x0,x0,0	  x0:0x00000000
       16845000	      1683	80000b50	00000013	addi	x0,x0,0	  x0:0x00000000
       16855000	      1684	80000b54	51c8cd93	xori	x27,x17,1308	 x17:0x00000002 x27=0x0000051e
       16865000	      1685	80000b58	03598f17	auipc	x30,0x3598	 x30=0x83598b54
       16875000	      1686	80000b5c	00110113	addi	x2,x2,1	  x2:0xfffffffd  x2=0xfffffffe
       16885000	      1687	80000b60	fec11ae3	bne	x2,x12,80000b54	  x2:0xfffffffe x12:0x00000012
       16895000	      1688	00000000	00000013	addi	x0,x0,0	  x0:0x00000000
       16905000	      1689	80000b50	00000013	addi	x0,x0,0	  x0:0x00000000
       16915000	      1690	80000b54	51c8cd93	xori	x27,x17,1308	 x17:0x00000002 x27=0x0000051e
       16925000	      1691	80000b58	03598f17	auipc	x30,0x3598	 x30=0x83598b54
       16935000	      1692	80000b5c	00110113	addi	x2,x2,1	  x2:0xfffffffe  x2=0xffffffff
       16945000	      1693	80000b60	fec11ae3	bne	x2,x12,80000b54	  x2:0xffffffff x12:0x00000012
       16955000	      1694	00000000	00000013	addi	x0,x0,0	  x0:0x00000000
       16965000	      1695	80000b50	00000013	addi	x0,x0,0	  x0:0x00000000
       16975000	      1696	80000b54	51c8cd93	xori	x27,x17,1308	 x17:0x00000002 x27=0x0000051e
       16985000	      1697	80000b58	03598f17	auipc	x30,0x3598	 x30=0x83598b54
       16995000	      1698	80000b5c	00110113	addi	x2,x2,1	  x2:0xffffffff  x2=0x00000000
       17005000	      1699	80000b60	fec11ae3	bne	x2,x12,80000b54	  x2:0x00000000 x12:0x00000012
       17015000	      1700	00000000	00000013	addi	x0,x0,0	  x0:0x00000000
       17025000	      1701	80000b50	00000013	addi	x0,x0,0	  x0:0x00000000
       17035000	      1702	80000b54	51c8cd93	xori	x27,x17,1308	 x17:0x00000002 x27=0x0000051e
       17045000	      1703	80000b58	03598f17	auipc	x30,0x3598	 x30=0x83598b54
       17055000	      1704	80000b5c	00110113	addi	x2,x2,1	  x2:0x00000000  x2=0x00000001
       17065000	      1705	80000b60	fec11ae3	bne	x2,x12,80000b54	  x2:0x00000001 x12:0x00000012
       17075000	      1706	00000000	00000013	addi	x0,x0,0	  x0:0x00000000
       17085000	      1707	80000b50	00000013	addi	x0,x0,0	  x0:0x00000000
       17095000	      1708	80000b54	51c8cd93	xori	x27,x17,1308	 x17:0x00000002 x27=0x0000051e
       17105000	      1709	80000b58	03598f17	auipc	x30,0x3598	 x30=0x83598b54
       17115000	      1710	80000b5c	00110113	addi	x2,x2,1	  x2:0x00000001  x2=0x00000002
       17125000	      1711	80000b60	fec11ae3	bne	x2,x12,80000b54	  x2:0x00000002 x12:0x00000012
       17135000	      1712	00000000	00000013	addi	x0,x0,0	  x0:0x00000000
       17145000	      1713	80000b50	00000013	addi	x0,x0,0	  x0:0x00000000
       17155000	      1714	80000b54	51c8cd93	xori	x27,x17,1308	 x17:0x00000002 x27=0x0000051e
       17165000	      1715	80000b58	03598f17	auipc	x30,0x3598	 x30=0x83598b54
       17175000	      1716	80000b5c	00110113	addi	x2,x2,1	  x2:0x00000002  x2=0x00000003
       17185000	      1717	80000b60	fec11ae3	bne	x2,x12,80000b54	  x2:0x00000003 x12:0x00000012
       17195000	      1718	00000000	00000013	addi	x0,x0,0	  x0:0x00000000
       17205000	      1719	80000b50	00000013	addi	x0,x0,0	  x0:0x00000000
       17215000	      1720	80000b54	51c8cd93	xori	x27,x17,1308	 x17:0x00000002 x27=0x0000051e
       17225000	      1721	80000b58	03598f17	auipc	x30,0x3598	 x30=0x83598b54
       17235000	      1722	80000b5c	00110113	addi	x2,x2,1	  x2:0x00000003  x2=0x00000004
       17245000	      1723	80000b60	fec11ae3	bne	x2,x12,80000b54	  x2:0x00000004 x12:0x00000012
       17255000	      1724	00000000	00000013	addi	x0,x0,0	  x0:0x00000000
       17265000	      1725	80000b50	00000013	addi	x0,x0,0	  x0:0x00000000
       17275000	      1726	80000b54	51c8cd93	xori	x27,x17,1308	 x17:0x00000002 x27=0x0000051e
       17285000	      1727	80000b58	03598f17	auipc	x30,0x3598	 x30=0x83598b54
       17295000	      1728	80000b5c	00110113	addi	x2,x2,1	  x2:0x00000004  x2=0x00000005
       17305000	      1729	80000b60	fec11ae3	bne	x2,x12,80000b54	  x2:0x00000005 x12:0x00000012
       17315000	      1730	00000000	00000013	addi	x0,x0,0	  x0:0x00000000
       17325000	      1731	80000b50	00000013	addi	x0,x0,0	  x0:0x00000000
       17335000	      1732	80000b54	51c8cd93	xori	x27,x17,1308	 x17:0x00000002 x27=0x0000051e
       17345000	      1733	80000b58	03598f17	auipc	x30,0x3598	 x30=0x83598b54
       17355000	      1734	80000b5c	00110113	addi	x2,x2,1	  x2:0x00000005  x2=0x00000006
       17365000	      1735	80000b60	fec11ae3	bne	x2,x12,80000b54	  x2:0x00000006 x12:0x00000012
       17375000	      1736	00000000	00000013	addi	x0,x0,0	  x0:0x00000000
       17385000	      1737	80000b50	00000013	addi	x0,x0,0	  x0:0x00000000
       17395000	      1738	80000b54	51c8cd93	xori	x27,x17,1308	 x17:0x00000002 x27=0x0000051e
       17405000	      1739	80000b58	03598f17	auipc	x30,0x3598	 x30=0x83598b54
       17415000	      1740	80000b5c	00110113	addi	x2,x2,1	  x2:0x00000006  x2=0x00000007
       17425000	      1741	80000b60	fec11ae3	bne	x2,x12,80000b54	  x2:0x00000007 x12:0x00000012
       17435000	      1742	00000000	00000013	addi	x0,x0,0	  x0:0x00000000
       17445000	      1743	80000b50	00000013	addi	x0,x0,0	  x0:0x00000000
       17455000	      1744	80000b54	51c8cd93	xori	x27,x17,1308	 x17:0x00000002 x27=0x0000051e
       17465000	      1745	80000b58	03598f17	auipc	x30,0x3598	 x30=0x83598b54
       17475000	      1746	80000b5c	00110113	addi	x2,x2,1	  x2:0x00000007  x2=0x00000008
       17485000	      1747	80000b60	fec11ae3	bne	x2,x12,80000b54	  x2:0x00000008 x12:0x00000012
       17495000	      1748	00000000	00000013	addi	x0,x0,0	  x0:0x00000000
       17505000	      1749	80000b50	00000013	addi	x0,x0,0	  x0:0x00000000
       17515000	      1750	80000b54	51c8cd93	xori	x27,x17,1308	 x17:0x00000002 x27=0x0000051e
       17525000	      1751	80000b58	03598f17	auipc	x30,0x3598	 x30=0x83598b54
       17535000	      1752	80000b5c	00110113	addi	x2,x2,1	  x2:0x00000008  x2=0x00000009
       17545000	      1753	80000b60	fec11ae3	bne	x2,x12,80000b54	  x2:0x00000009 x12:0x00000012
       17555000	      1754	00000000	00000013	addi	x0,x0,0	  x0:0x00000000
       17565000	      1755	80000b50	00000013	addi	x0,x0,0	  x0:0x00000000
       17575000	      1756	80000b54	51c8cd93	xori	x27,x17,1308	 x17:0x00000002 x27=0x0000051e
       17585000	      1757	80000b58	03598f17	auipc	x30,0x3598	 x30=0x83598b54
       17595000	      1758	80000b5c	00110113	addi	x2,x2,1	  x2:0x00000009  x2=0x0000000a
       17605000	      1759	80000b60	fec11ae3	bne	x2,x12,80000b54	  x2:0x0000000a x12:0x00000012
       17615000	      1760	00000000	00000013	addi	x0,x0,0	  x0:0x00000000
       17625000	      1761	80000b50	00000013	addi	x0,x0,0	  x0:0x00000000
       17635000	      1762	80000b54	51c8cd93	xori	x27,x17,1308	 x17:0x00000002 x27=0x0000051e
       17645000	      1763	80000b58	03598f17	auipc	x30,0x3598	 x30=0x83598b54
       17655000	      1764	80000b5c	00110113	addi	x2,x2,1	  x2:0x0000000a  x2=0x0000000b
       17665000	      1765	80000b60	fec11ae3	bne	x2,x12,80000b54	  x2:0x0000000b x12:0x00000012
       17675000	      1766	00000000	00000013	addi	x0,x0,0	  x0:0x00000000
       17685000	      1767	80000b50	00000013	addi	x0,x0,0	  x0:0x00000000
       17695000	      1768	80000b54	51c8cd93	xori	x27,x17,1308	 x17:0x00000002 x27=0x0000051e
       17705000	      1769	80000b58	03598f17	auipc	x30,0x3598	 x30=0x83598b54
       17715000	      1770	80000b5c	00110113	addi	x2,x2,1	  x2:0x0000000b  x2=0x0000000c
       17725000	      1771	80000b60	fec11ae3	bne	x2,x12,80000b54	  x2:0x0000000c x12:0x00000012
       17735000	      1772	00000000	00000013	addi	x0,x0,0	  x0:0x00000000
       17745000	      1773	80000b50	00000013	addi	x0,x0,0	  x0:0x00000000
       17755000	      1774	80000b54	51c8cd93	xori	x27,x17,1308	 x17:0x00000002 x27=0x0000051e
       17765000	      1775	80000b58	03598f17	auipc	x30,0x3598	 x30=0x83598b54
       17775000	      1776	80000b5c	00110113	addi	x2,x2,1	  x2:0x0000000c  x2=0x0000000d
       17785000	      1777	80000b60	fec11ae3	bne	x2,x12,80000b54	  x2:0x0000000d x12:0x00000012
       17795000	      1778	00000000	00000013	addi	x0,x0,0	  x0:0x00000000
       17805000	      1779	80000b50	00000013	addi	x0,x0,0	  x0:0x00000000
       17815000	      1780	80000b54	51c8cd93	xori	x27,x17,1308	 x17:0x00000002 x27=0x0000051e
       17825000	      1781	80000b58	03598f17	auipc	x30,0x3598	 x30=0x83598b54
       17835000	      1782	80000b5c	00110113	addi	x2,x2,1	  x2:0x0000000d  x2=0x0000000e
       17845000	      1783	80000b60	fec11ae3	bne	x2,x12,80000b54	  x2:0x0000000e x12:0x00000012
       17855000	      1784	00000000	00000013	addi	x0,x0,0	  x0:0x00000000
       17865000	      1785	80000b50	00000013	addi	x0,x0,0	  x0:0x00000000
       17875000	      1786	80000b54	51c8cd93	xori	x27,x17,1308	 x17:0x00000002 x27=0x0000051e
       17885000	      1787	80000b58	03598f17	auipc	x30,0x3598	 x30=0x83598b54
       17895000	      1788	80000b5c	00110113	addi	x2,x2,1	  x2:0x0000000e  x2=0x0000000f
       17905000	      1789	80000b60	fec11ae3	bne	x2,x12,80000b54	  x2:0x0000000f x12:0x00000012
       17915000	      1790	00000000	00000013	addi	x0,x0,0	  x0:0x00000000
       17925000	      1791	80000b50	00000013	addi	x0,x0,0	  x0:0x00000000
       17935000	      1792	80000b54	51c8cd93	xori	x27,x17,1308	 x17:0x00000002 x27=0x0000051e
       17945000	      1793	80000b58	03598f17	auipc	x30,0x3598	 x30=0x83598b54
       17955000	      1794	80000b5c	00110113	addi	x2,x2,1	  x2:0x0000000f  x2=0x00000010
       17965000	      1795	80000b60	fec11ae3	bne	x2,x12,80000b54	  x2:0x00000010 x12:0x00000012
       17975000	      1796	00000000	00000013	addi	x0,x0,0	  x0:0x00000000
       17985000	      1797	80000b50	00000013	addi	x0,x0,0	  x0:0x00000000
       17995000	      1798	80000b54	51c8cd93	xori	x27,x17,1308	 x17:0x00000002 x27=0x0000051e
       18005000	      1799	80000b58	03598f17	auipc	x30,0x3598	 x30=0x83598b54
       18015000	      1800	80000b5c	00110113	addi	x2,x2,1	  x2:0x00000010  x2=0x00000011
       18025000	      1801	80000b60	fec11ae3	bne	x2,x12,80000b54	  x2:0x00000011 x12:0x00000012
       18035000	      1802	00000000	00000013	addi	x0,x0,0	  x0:0x00000000
       18045000	      1803	80000b50	00000013	addi	x0,x0,0	  x0:0x00000000
       18055000	      1804	80000b54	51c8cd93	xori	x27,x17,1308	 x17:0x00000002 x27=0x0000051e
       18065000	      1805	80000b58	03598f17	auipc	x30,0x3598	 x30=0x83598b54
       18075000	      1806	80000b5c	00110113	addi	x2,x2,1	  x2:0x00000011  x2=0x00000012
       18085000	      1807	80000b60	fec11ae3	bne	x2,x12,80000b54	  x2:0x00000012 x12:0x00000012
       18095000	      1808	80000b64	fcb1eee3	bltu	x3,x11,80000b40	  x3:0x00000010 x11:0x0000000c
       18105000	      1809	80000b68	01574533	xor	x10,x14,x21	 x14:0x7fff61d8 x21:0x00000000 x10=0x7fff61d8
       18115000	      1810	80000b6c	00a00c93	addi	x25,x0,10	  x0:0x00000000 x25=0x0000000a
       18125000	      1811	80000b70	ff200a13	addi	x20,x0,-14	  x0:0x00000000 x20=0xfffffff2
       18135000	      1812	80000b74	00fc70b3	and	x1,x24,x15	 x24:0x80009f1c x15:0x677408b4  x1=0x00000814
       18145000	      1813	80000b78	ff8c8c93	addi	x25,x25,-8	 x25:0x0000000a x25=0x00000002
       18155000	      1814	80000b7c	ff900713	addi	x14,x0,-7	  x0:0x00000000 x14=0xfffffff9
       18165000	      1815	80000b80	00215b13	srli	x22,x2,0x2	  x2:0x00000012 x22=0x00000004
       18175000	      1816	80000b84	01100e13	addi	x28,x0,17	  x0:0x00000000 x28=0x00000011
       18185000	      1817	80000b88	35e13ab7	lui	x21,0x35e13	 x21=0x35e13000
       18195000	      1818	80000b8c	748ce293	ori	x5,x25,1864	 x25:0x00000002  x5=0x0000074a
       18205000	      1819	80000b90	00970713	addi	x14,x14,9	 x14:0xfffffff9 x14=0x00000002
       18215000	      1820	80000b94	ffc76ae3	bltu	x14,x28,80000b88	 x14:0x00000002 x28:0x00000011
       18225000	      1821	00000000	00000013	addi	x0,x0,0	  x0:0x00000000
       18235000	      1822	80000b84	00000013	addi	x0,x0,0	  x0:0x00000000
       18245000	      1823	80000b88	35e13ab7	lui	x21,0x35e13	 x21=0x35e13000
       18255000	      1824	80000b8c	748ce293	ori	x5,x25,1864	 x25:0x00000002  x5=0x0000074a
       18265000	      1825	80000b90	00970713	addi	x14,x14,9	 x14:0x00000002 x14=0x0000000b
       18275000	      1826	80000b94	ffc76ae3	bltu	x14,x28,80000b88	 x14:0x0000000b x28:0x00000011
       18285000	      1827	00000000	00000013	addi	x0,x0,0	  x0:0x00000000
       18295000	      1828	80000b84	00000013	addi	x0,x0,0	  x0:0x00000000
       18305000	      1829	80000b88	35e13ab7	lui	x21,0x35e13	 x21=0x35e13000
       18315000	      1830	80000b8c	748ce293	ori	x5,x25,1864	 x25:0x00000002  x5=0x0000074a
       18325000	      1831	80000b90	00970713	addi	x14,x14,9	 x14:0x0000000b x14=0x00000014
       18335000	      1832	80000b94	ffc76ae3	bltu	x14,x28,80000b88	 x14:0x00000014 x28:0x00000011
       18345000	      1833	80000b98	01d27db3	and	x27,x4,x29	  x4:0x0000000f x29:0x80009fc4 x27=0x00000004
       18355000	      1834	80000b9c	fd4c8ce3	beq	x25,x20,80000b74	 x25:0x00000002 x20:0xfffffff2
       18365000	      1835	80000ba0	00000013	addi	x0,x0,0	  x0:0x00000000
       18375000	      1836	80000ba4	ffb00313	addi	x6,x0,-5	  x0:0x00000000  x6=0xfffffffb
       18385000	      1837	80000ba8	62707713	andi	x14,x0,1575	  x0:0x00000000 x14=0x00000000
       18395000	      1838	80000bac	ff200c93	addi	x25,x0,-14	  x0:0x00000000 x25=0xfffffff2
       18405000	      1839	80000bb0	40845413	srai	x8,x8,0x8	  x8:0x000001ff  x8=0x00000001
       18415000	      1840	80000bb4	41d358b3	sra	x17,x6,x29	  x6:0xfffffffb x29:0x80009fc4 x17=0xffffffff
       18425000	      1841	80000bb8	4045d0b3	sra	x1,x11,x4	 x11:0x0000000c  x4:0x0000000f  x1=0x00000000
       18435000	      1842	80000bbc	00110833	add	x16,x2,x1	  x2:0x00000012  x1:0x00000000 x16=0x00000012
       18445000	      1843	80000bc0	00c3e933	or	x18,x7,x12	  x7:0x69c83ae0 x12:0x00000012 x18=0x69c83af2
       18455000	      1844	80000bc4	016f9f33	sll	x30,x31,x22	 x31:0x000000d1 x22:0x00000004 x30=0x00000d10
       18465000	      1845	80000bc8	009ad9b3	srl	x19,x21,x9	 x21:0x35e13000  x9:0x00000001 x19=0x1af09800
       18475000	      1846	80000bcc	40210733	sub	x14,x2,x2	  x2:0x00000012  x2:0x00000012 x14=0x00000000
       18485000	      1847	80000bd0	407e0533	sub	x10,x28,x7	 x28:0x00000011  x7:0x69c83ae0 x10=0x9637c531
       18495000	      1848	80000bd4	405c5513	srai	x10,x24,0x5	 x24:0x80009f1c x10=0xfc0004f8
       18505000	      1849	80000bd8	41afd993	srai	x19,x31,0x1a	 x31:0x000000d1 x19=0x00000000
       18515000	      1850	80000bdc	01d20133	add	x2,x4,x29	  x4:0x0000000f x29:0x80009fc4  x2=0x80009fd3
       18525000	      1851	80000be0	40400733	sub	x14,x0,x4	  x0:0x00000000  x4:0x0000000f x14=0xfffffff1
       18535000	      1852	80000be4	010979b3	and	x19,x18,x16	 x18:0x69c83af2 x16:0x00000012 x19=0x00000012
       18545000	      1853	80000be8	194935b7	lui	x11,0x19493	 x11=0x19493000
       18555000	      1854	80000bec	00457433	and	x8,x10,x4	 x10:0xfc0004f8  x4:0x0000000f  x8=0x00000008
       18565000	      1855	80000bf0	01e2e033	or	x0,x5,x30	  x5:0x0000074a x30:0x00000d10
       18575000	      1856	80000bf4	ff730313	addi	x6,x6,-9	  x6:0xfffffffb  x6=0xfffffff2
       18585000	      1857	80000bf8	411e51b3	sra	x3,x28,x17	 x28:0x00000011 x17:0xffffffff  x3=0x00000000
       18595000	      1858	80000bfc	a790c713	xori	x14,x1,-1415	  x1:0x00000000 x14=0xfffffa79
       18605000	      1859	80000c00	41af5593	srai	x11,x30,0x1a	 x30:0x00000d10 x11=0x00000000
       18615000	      1860	80000c04	00dec933	xor	x18,x29,x13	 x29:0x80009fc4 x13:0x00000000 x18=0x80009fc4
       18625000	      1861	80000c08	406d5593	srai	x11,x26,0x6	 x26:0xfffffffd x11=0xffffffff
       18635000	      1862	80000c0c	012e4fb3	xor	x31,x28,x18	 x28:0x00000011 x18:0x80009fc4 x31=0x80009fd5
       18645000	      1863	80000c10	a718bf13	sltiu	x30,x17,-1423	 x17:0xffffffff x30=0x00000000
       18655000	      1864	80000c14	fb9314e3	bne	x6,x25,80000bbc	  x6:0xfffffff2 x25:0xfffffff2
       18665000	      1865	80000c18	0178edb3	or	x27,x17,x23	 x17:0xffffffff x23:0x0000001c x27=0xffffffff
       18675000	      1866	80000c1c	00500b93	addi	x23,x0,5	  x0:0x00000000 x23=0x00000005
       18685000	      1867	80000c20	00f00313	addi	x6,x0,15	  x0:0x00000000  x6=0x0000000f
       18695000	      1868	80000c24	20c4cd13	xori	x26,x9,524	  x9:0x00000001 x26=0x0000020d
       18705000	      1869	80000c28	005b8b93	addi	x23,x23,5	 x23:0x00000005 x23=0x0000000a
       18715000	      1870	80000c2c	00a00593	addi	x11,x0,10	  x0:0x00000000 x11=0x0000000a
       18725000	      1871	80000c30	01200613	addi	x12,x0,18	  x0:0x00000000 x12=0x00000012
       18735000	      1872	80000c34	e5aa7693	andi	x13,x20,-422	 x20:0xfffffff2 x13=0xfffffe52
       18745000	      1873	80000c38	00858593	addi	x11,x11,8	 x11:0x0000000a x11=0x00000012
       18755000	      1874	80000c3c	fec59ce3	bne	x11,x12,80000c34	 x11:0x00000012 x12:0x00000012
       18765000	      1875	80000c40	fe6be2e3	bltu	x23,x6,80000c24	 x23:0x0000000a  x6:0x0000000f
       18775000	      1876	00000000	00000013	addi	x0,x0,0	  x0:0x00000000
       18785000	      1877	80000c20	00000013	addi	x0,x0,0	  x0:0x00000000
       18795000	      1878	80000c24	20c4cd13	xori	x26,x9,524	  x9:0x00000001 x26=0x0000020d
       18805000	      1879	80000c28	005b8b93	addi	x23,x23,5	 x23:0x0000000a x23=0x0000000f
       18815000	      1880	80000c2c	00a00593	addi	x11,x0,10	  x0:0x00000000 x11=0x0000000a
       18825000	      1881	80000c30	01200613	addi	x12,x0,18	  x0:0x00000000 x12=0x00000012
       18835000	      1882	80000c34	e5aa7693	andi	x13,x20,-422	 x20:0xfffffff2 x13=0xfffffe52
       18845000	      1883	80000c38	00858593	addi	x11,x11,8	 x11:0x0000000a x11=0x00000012
       18855000	      1884	80000c3c	fec59ce3	bne	x11,x12,80000c34	 x11:0x00000012 x12:0x00000012
       18865000	      1885	80000c40	fe6be2e3	bltu	x23,x6,80000c24	 x23:0x0000000f  x6:0x0000000f
       18875000	      1886	80000c44	00aae233	or	x4,x21,x10	 x21:0x35e13000 x10:0xfc0004f8  x4=0xfde134f8
       18885000	      1887	80000c48	00100393	addi	x7,x0,1	  x0:0x00000000  x7=0x00000001
       18895000	      1888	80000c4c	d37bbf93	sltiu	x31,x23,-713	 x23:0x0000000f x31=0x00000001
       18905000	      1889	80000c50	00000713	addi	x14,x0,0	  x0:0x00000000 x14=0x00000000
       18915000	      1890	80000c54	00907033	and	x0,x0,x9	  x0:0x00000000  x9:0x00000001
       18925000	      1891	80000c58	4172d493	srai	x9,x5,0x17	  x5:0x0000074a  x9=0x00000000
       18935000	      1892	80000c5c	44376493	ori	x9,x14,1091	 x14:0x00000000  x9=0x00000443
       18945000	      1893	80000c60	41b88f33	sub	x30,x17,x27	 x17:0xffffffff x27:0xffffffff x30=0x00000000
       18955000	      1894	80000c64	b4078d13	addi	x26,x15,-1216	 x15:0x677408b4 x26=0x677403f4
       18965000	      1895	80000c68	0088a033	slt	x0,x17,x8	 x17:0xffffffff  x8:0x00000008
       18975000	      1896	80000c6c	fff38393	addi	x7,x7,-1	  x7:0x00000001  x7=0x00000000
       18985000	      1897	80000c70	ff600213	addi	x4,x0,-10	  x0:0x00000000  x4=0xfffffff6
       18995000	      1898	80000c74	0058d313	srli	x6,x17,0x5	 x17:0xffffffff  x6=0x07ffffff
       19005000	      1899	80000c78	01400c93	addi	x25,x0,20	  x0:0x00000000 x25=0x00000014
       19015000	      1900	80000c7c	00000013	addi	x0,x0,0	  x0:0x00000000
       19025000	      1901	80000c80	00ed5f93	srli	x31,x26,0xe	 x26:0x677403f4 x31=0x00019dd0
       19035000	      1902	80000c84	01a3b5b3	sltu	x11,x7,x26	  x7:0x00000000 x26:0x677403f4 x11=0x00000001
       19045000	      1903	80000c88	16fc7417	auipc	x8,0x16fc7	  x8=0x96fc7c84
       19055000	      1904	80000c8c	24e64f13	xori	x30,x12,590	 x12:0x00000012 x30=0x0000025c
       19065000	      1905	80000c90	8211eb13	ori	x22,x3,-2015	  x3:0x00000000 x22=0xfffff821
       19075000	      1906	80000c94	013b8b33	add	x22,x23,x19	 x23:0x0000000f x19:0x00000012 x22=0x00000021
       19085000	      1907	80000c98	00a20213	addi	x4,x4,10	  x4:0xfffffff6  x4=0x00000000
       19095000	      1908	80000c9c	0164cf33	xor	x30,x9,x22	  x9:0x00000443 x22:0x00000021 x30=0x00000462
       19105000	      1909	80000ca0	087ac313	xori	x6,x21,135	 x21:0x35e13000  x6=0x35e13087
       19115000	      1910	80000ca4	ff9206e3	beq	x4,x25,80000c90	  x4:0x00000000 x25:0x00000014
       19125000	      1911	80000ca8	98dc2413	slti	x8,x24,-1651	 x24:0x80009f1c  x8=0x00000001
       19135000	      1912	80000cac	582a8b13	addi	x22,x21,1410	 x21:0x35e13000 x22=0x35e13582
       19145000	      1913	80000cb0	001b48b3	xor	x17,x22,x1	 x22:0x35e13582  x1:0x00000000 x17=0x35e13582
       19155000	      1914	80000cb4	fae3d6e3	bge	x7,x14,80000c60	  x7:0x00000000 x14:0x00000000
       19165000	      1915	00000000	00000013	addi	x0,x0,0	  x0:0x00000000
       19175000	      1916	80000c5c	00000013	addi	x0,x0,0	  x0:0x00000000
       19185000	      1917	80000c60	41b88f33	sub	x30,x17,x27	 x17:0x35e13582 x27:0xffffffff x30=0x35e13583
       19195000	      1918	80000c64	b4078d13	addi	x26,x15,-1216	 x15:0x677408b4 x26=0x677403f4
       19205000	      1919	80000c68	0088a033	slt	x0,x17,x8	 x17:0x35e13582  x8:0x00000001
       19215000	      1920	80000c6c	fff38393	addi	x7,x7,-1	  x7:0x00000000  x7=0xffffffff
       19225000	      1921	80000c70	ff600213	addi	x4,x0,-10	  x0:0x00000000  x4=0xfffffff6
       19235000	      1922	80000c74	0058d313	srli	x6,x17,0x5	 x17:0x35e13582  x6=0x01af09ac
       19245000	      1923	80000c78	01400c93	addi	x25,x0,20	  x0:0x00000000 x25=0x00000014
       19255000	      1924	80000c7c	00000013	addi	x0,x0,0	  x0:0x00000000
       19265000	      1925	80000c80	00ed5f93	srli	x31,x26,0xe	 x26:0x677403f4 x31=0x00019dd0
       19275000	      1926	80000c84	01a3b5b3	sltu	x11,x7,x26	  x7:0xffffffff x26:0x677403f4 x11=0x00000000
       19285000	      1927	80000c88	16fc7417	auipc	x8,0x16fc7	  x8=0x96fc7c84
       19295000	      1928	80000c8c	24e64f13	xori	x30,x12,590	 x12:0x00000012 x30=0x0000025c
       19305000	      1929	80000c90	8211eb13	ori	x22,x3,-2015	  x3:0x00000000 x22=0xfffff821
       19315000	      1930	80000c94	013b8b33	add	x22,x23,x19	 x23:0x0000000f x19:0x00000012 x22=0x00000021
       19325000	      1931	80000c98	00a20213	addi	x4,x4,10	  x4:0xfffffff6  x4=0x00000000
       19335000	      1932	80000c9c	0164cf33	xor	x30,x9,x22	  x9:0x00000443 x22:0x00000021 x30=0x00000462
       19345000	      1933	80000ca0	087ac313	xori	x6,x21,135	 x21:0x35e13000  x6=0x35e13087
       19355000	      1934	80000ca4	ff9206e3	beq	x4,x25,80000c90	  x4:0x00000000 x25:0x00000014
       19365000	      1935	80000ca8	98dc2413	slti	x8,x24,-1651	 x24:0x80009f1c  x8=0x00000001
       19375000	      1936	80000cac	582a8b13	addi	x22,x21,1410	 x21:0x35e13000 x22=0x35e13582
       19385000	      1937	80000cb0	001b48b3	xor	x17,x22,x1	 x22:0x35e13582  x1:0x00000000 x17=0x35e13582
       19395000	      1938	80000cb4	fae3d6e3	bge	x7,x14,80000c60	  x7:0xffffffff x14:0x00000000
       19405000	      1939	80000cb8	01fe72b3	and	x5,x28,x31	 x28:0x00000011 x31:0x00019dd0  x5=0x00000010
       19415000	      1940	80000cbc	00900b93	addi	x23,x0,9	  x0:0x00000000 x23=0x00000009
       19425000	      1941	80000cc0	01a51493	slli	x9,x10,0x1a	 x10:0xfc0004f8  x9=0xe0000000
       19435000	      1942	80000cc4	011aa433	slt	x8,x21,x17	 x21:0x35e13000 x17:0x35e13582  x8=0x00000001
       19445000	      1943	80000cc8	00000013	addi	x0,x0,0	  x0:0x00000000
       19455000	      1944	80000ccc	408b08b3	sub	x17,x22,x8	 x22:0x35e13582  x8:0x00000001 x17=0x35e13581
       19465000	      1945	80000cd0	cacbca13	xori	x20,x23,-852	 x23:0x00000009 x20=0xfffffca5
       19475000	      1946	80000cd4	01000913	addi	x18,x0,16	  x0:0x00000000 x18=0x00000010
       19485000	      1947	80000cd8	3217e113	ori	x2,x15,801	 x15:0x677408b4  x2=0x67740bb5
       19495000	      1948	80000cdc	009b8b93	addi	x23,x23,9	 x23:0x00000009 x23=0x00000012
       19505000	      1949	80000ce0	00600e13	addi	x28,x0,6	  x0:0x00000000 x28=0x00000006
       19515000	      1950	80000ce4	00425fb3	srl	x31,x4,x4	  x4:0x00000000  x4:0x00000000 x31=0x00000000
       19525000	      1951	80000ce8	ff800993	addi	x19,x0,-8	  x0:0x00000000 x19=0xfffffff8
       19535000	      1952	80000cec	e0eeb213	sltiu	x4,x29,-498	 x29:0x80009fc4  x4=0x00000001
       19545000	      1953	80000cf0	0031adb3	slt	x27,x3,x3	  x3:0x00000000  x3:0x00000000 x27=0x00000000
       19555000	      1954	80000cf4	00000013	addi	x0,x0,0	  x0:0x00000000
       19565000	      1955	80000cf8	010beab3	or	x21,x23,x16	 x23:0x00000012 x16:0x00000012 x21=0x00000012
       19575000	      1956	80000cfc	c1854713	xori	x14,x10,-1000	 x10:0xfc0004f8 x14=0x03fff8e0
       19585000	      1957	80000d00	ffee0e13	addi	x28,x28,-2	 x28:0x00000006 x28=0x00000004
       19595000	      1958	80000d04	193aa113	slti	x2,x21,403	 x21:0x00000012  x2=0x00000001
       19605000	      1959	80000d08	00691733	sll	x14,x18,x6	 x18:0x00000010  x6:0x35e13087 x14=0x00000800
       19615000	      1960	80000d0c	ff3e06e3	beq	x28,x19,80000cf8	 x28:0x00000004 x19:0xfffffff8
       19625000	      1961	80000d10	24250693	addi	x13,x10,578	 x10:0xfc0004f8 x13=0xfc00073a
       19635000	      1962	80000d14	fd2be2e3	bltu	x23,x18,80000cd8	 x23:0x00000012 x18:0x00000010
       19645000	      1963	80000d18	01398333	add	x6,x19,x19	 x19:0xfffffff8 x19:0xfffffff8  x6=0xfffffff0
       19655000	      1964	80000d1c	ff900193	addi	x3,x0,-7	  x0:0x00000000  x3=0xfffffff9
       19665000	      1965	80000d20	88d20d37	lui	x26,0x88d20	 x26=0x88d20000
       19675000	      1966	80000d24	016380b3	add	x1,x7,x22	  x7:0xffffffff x22:0x35e13582  x1=0x35e13581
       19685000	      1967	80000d28	ca43a393	slti	x7,x7,-860	  x7:0xffffffff  x7=0x00000000
       19695000	      1968	80000d2c	f8cdf293	andi	x5,x27,-116	 x27:0x00000000  x5=0x00000000
       19705000	      1969	80000d30	01e3ea33	or	x20,x7,x30	  x7:0x00000000 x30:0x00000462 x20=0x00000462
       19715000	      1970	80000d34	41ff5b33	sra	x22,x30,x31	 x30:0x00000462 x31:0x00000000 x22=0x00000462
       19725000	      1971	80000d38	ce55c937	lui	x18,0xce55c	 x18=0xce55c000
       19735000	      1972	80000d3c	721fa8b7	lui	x17,0x721fa	 x17=0x721fa000
       19745000	      1973	80000d40	ff600413	addi	x8,x0,-10	  x0:0x00000000  x8=0xfffffff6
       19755000	      1974	80000d44	00cf5e13	srli	x28,x30,0xc	 x30:0x00000462 x28=0x00000000
       19765000	      1975	80000d48	95d80397	auipc	x7,0x95d80	  x7=0x15d80d44
       19775000	      1976	80000d4c	415b5d33	sra	x26,x22,x21	 x22:0x00000462 x21:0x00000012 x26=0x00000000
       19785000	      1977	80000d50	db56f737	lui	x14,0xdb56f	 x14=0xdb56f000
       19795000	      1978	80000d54	00722db3	slt	x27,x4,x7	  x4:0x00000001  x7:0x15d80d44 x27=0x00000001
       19805000	      1979	80000d58	ffa18193	addi	x3,x3,-6	  x3:0xfffffff9  x3=0xfffffff3
       19815000	      1980	80000d5c	00374b33	xor	x22,x14,x3	 x14:0xdb56f000  x3:0xfffffff3 x22=0x24a90ff3
       19825000	      1981	80000d60	40cb5fb3	sra	x31,x22,x12	 x22:0x24a90ff3 x12:0x00000012 x31=0x0000092a
       19835000	      1982	80000d64	a393a813	slti	x16,x7,-1479	  x7:0x15d80d44 x16=0x00000000
       19845000	      1983	80000d68	40cc09b3	sub	x19,x24,x12	 x24:0x80009f1c x12:0x00000012 x19=0x80009f0a
       19855000	      1984	80000d6c	4134db33	sra	x22,x9,x19	  x9:0xe0000000 x19:0x80009f0a x22=0xfff80000
       19865000	      1985	80000d70	01779e13	slli	x28,x15,0x17	 x15:0x677408b4 x28=0x5a000000
       19875000	      1986	80000d74	003464b3	or	x9,x8,x3	  x8:0xfffffff6  x3:0xfffffff3  x9=0xfffffff7
       19885000	      1987	80000d78	01f19a33	sll	x20,x3,x31	  x3:0xfffffff3 x31:0x0000092a x20=0xffffcc00
       19895000	      1988	80000d7c	7c168a93	addi	x21,x13,1985	 x13:0xfc00073a x21=0xfc000efb
       19905000	      1989	80000d80	fc81d8e3	bge	x3,x8,80000d50	  x3:0xfffffff3  x8:0xfffffff6
       19915000	      1990	80000d84	01c61133	sll	x2,x12,x28	 x12:0x00000012 x28:0x5a000000  x2=0x00000012
       19925000	      1991	80000d88	00a00a13	addi	x20,x0,10	  x0:0x00000000 x20=0x0000000a
       19935000	      1992	80000d8c	00000413	addi	x8,x0,0	  x0:0x00000000  x8=0x00000000
       19945000	      1993	80000d90	00735993	srli	x19,x6,0x7	  x6:0xfffffff0 x19=0x01ffffff
       19955000	      1994	80000d94	0124e033	or	x0,x9,x18	  x9:0xfffffff7 x18:0xce55c000
       19965000	      1995	80000d98	ffea0a13	addi	x20,x20,-2	 x20:0x0000000a x20=0x00000008
       19975000	      1996	80000d9c	40975cb3	sra	x25,x14,x9	 x14:0xdb56f000  x9:0xfffffff7 x25=0xffffffb6
       19985000	      1997	80000da0	0045b8b3	sltu	x17,x11,x4	 x11:0x00000000  x4:0x00000001 x17=0x00000001
       19995000	      1998	80000da4	f0a6eb93	ori	x23,x13,-246	 x13:0xfc00073a x23=0xffffff3a
       20005000	      1999	80000da8	fe8a56e3	bge	x20,x8,80000d94	 x20:0x00000008  x8:0x00000000
       20015000	      2000	00000000	00000013	addi	x0,x0,0	  x0:0x00000000
       20025000	      2001	80000d90	00000013	addi	x0,x0,0	  x0:0x00000000
       20035000	      2002	80000d94	0124e033	or	x0,x9,x18	  x9:0xfffffff7 x18:0xce55c000
       20045000	      2003	80000d98	ffea0a13	addi	x20,x20,-2	 x20:0x00000008 x20=0x00000006
       20055000	      2004	80000d9c	40975cb3	sra	x25,x14,x9	 x14:0xdb56f000  x9:0xfffffff7 x25=0xffffffb6
       20065000	      2005	80000da0	0045b8b3	sltu	x17,x11,x4	 x11:0x00000000  x4:0x00000001 x17=0x00000001
       20075000	      2006	80000da4	f0a6eb93	ori	x23,x13,-246	 x13:0xfc00073a x23=0xffffff3a
       20085000	      2007	80000da8	fe8a56e3	bge	x20,x8,80000d94	 x20:0x00000006  x8:0x00000000
       20095000	      2008	00000000	00000013	addi	x0,x0,0	  x0:0x00000000
       20105000	      2009	80000d90	00000013	addi	x0,x0,0	  x0:0x00000000
       20115000	      2010	80000d94	0124e033	or	x0,x9,x18	  x9:0xfffffff7 x18:0xce55c000
       20125000	      2011	80000d98	ffea0a13	addi	x20,x20,-2	 x20:0x00000006 x20=0x00000004
       20135000	      2012	80000d9c	40975cb3	sra	x25,x14,x9	 x14:0xdb56f000  x9:0xfffffff7 x25=0xffffffb6
       20145000	      2013	80000da0	0045b8b3	sltu	x17,x11,x4	 x11:0x00000000  x4:0x00000001 x17=0x00000001
       20155000	      2014	80000da4	f0a6eb93	ori	x23,x13,-246	 x13:0xfc00073a x23=0xffffff3a
       20165000	      2015	80000da8	fe8a56e3	bge	x20,x8,80000d94	 x20:0x00000004  x8:0x00000000
       20175000	      2016	00000000	00000013	addi	x0,x0,0	  x0:0x00000000
       20185000	      2017	80000d90	00000013	addi	x0,x0,0	  x0:0x00000000
       20195000	      2018	80000d94	0124e033	or	x0,x9,x18	  x9:0xfffffff7 x18:0xce55c000
       20205000	      2019	80000d98	ffea0a13	addi	x20,x20,-2	 x20:0x00000004 x20=0x00000002
       20215000	      2020	80000d9c	40975cb3	sra	x25,x14,x9	 x14:0xdb56f000  x9:0xfffffff7 x25=0xffffffb6
       20225000	      2021	80000da0	0045b8b3	sltu	x17,x11,x4	 x11:0x00000000  x4:0x00000001 x17=0x00000001
       20235000	      2022	80000da4	f0a6eb93	ori	x23,x13,-246	 x13:0xfc00073a x23=0xffffff3a
       20245000	      2023	80000da8	fe8a56e3	bge	x20,x8,80000d94	 x20:0x00000002  x8:0x00000000
       20255000	      2024	00000000	00000013	addi	x0,x0,0	  x0:0x00000000
       20265000	      2025	80000d90	00000013	addi	x0,x0,0	  x0:0x00000000
       20275000	      2026	80000d94	0124e033	or	x0,x9,x18	  x9:0xfffffff7 x18:0xce55c000
       20285000	      2027	80000d98	ffea0a13	addi	x20,x20,-2	 x20:0x00000002 x20=0x00000000
       20295000	      2028	80000d9c	40975cb3	sra	x25,x14,x9	 x14:0xdb56f000  x9:0xfffffff7 x25=0xffffffb6
       20305000	      2029	80000da0	0045b8b3	sltu	x17,x11,x4	 x11:0x00000000  x4:0x00000001 x17=0x00000001
       20315000	      2030	80000da4	f0a6eb93	ori	x23,x13,-246	 x13:0xfc00073a x23=0xffffff3a
       20325000	      2031	80000da8	fe8a56e3	bge	x20,x8,80000d94	 x20:0x00000000  x8:0x00000000
       20335000	      2032	00000000	00000013	addi	x0,x0,0	  x0:0x00000000
       20345000	      2033	80000d90	00000013	addi	x0,x0,0	  x0:0x00000000
       20355000	      2034	80000d94	0124e033	or	x0,x9,x18	  x9:0xfffffff7 x18:0xce55c000
       20365000	      2035	80000d98	ffea0a13	addi	x20,x20,-2	 x20:0x00000000 x20=0xfffffffe
       20375000	      2036	80000d9c	40975cb3	sra	x25,x14,x9	 x14:0xdb56f000  x9:0xfffffff7 x25=0xffffffb6
       20385000	      2037	80000da0	0045b8b3	sltu	x17,x11,x4	 x11:0x00000000  x4:0x00000001 x17=0x00000001
       20395000	      2038	80000da4	f0a6eb93	ori	x23,x13,-246	 x13:0xfc00073a x23=0xffffff3a
       20405000	      2039	80000da8	fe8a56e3	bge	x20,x8,80000d94	 x20:0xfffffffe  x8:0x00000000
       20415000	      2040	80000dac	0129e533	or	x10,x19,x18	 x19:0x01ffffff x18:0xce55c000 x10=0xcfffffff
       20425000	      2041	80000db0	ffe00413	addi	x8,x0,-2	  x0:0x00000000  x8=0xfffffffe
       20435000	      2042	80000db4	40c5d8b3	sra	x17,x11,x12	 x11:0x00000000 x12:0x00000012 x17=0x00000000
       20445000	      2043	80000db8	96367513	andi	x10,x12,-1693	 x12:0x00000012 x10=0x00000002
       20455000	      2044	80000dbc	0065bab3	sltu	x21,x11,x6	 x11:0x00000000  x6:0xfffffff0 x21=0x00000001
       20465000	      2045	80000dc0	00800a13	addi	x20,x0,8	  x0:0x00000000 x20=0x00000008
       20475000	      2046	80000dc4	009779b3	and	x19,x14,x9	 x14:0xdb56f000  x9:0xfffffff7 x19=0xdb56f000
       20485000	      2047	80000dc8	41bad893	srai	x17,x21,0x1b	 x21:0x00000001 x17=0x00000000
       20495000	      2048	80000dcc	00540413	addi	x8,x8,5	  x8:0xfffffffe  x8=0x00000003
       20505000	      2049	80000dd0	01bff333	and	x6,x31,x27	 x31:0x0000092a x27:0x00000001  x6=0x00000000
       20515000	      2050	80000dd4	744fc017	auipc	x0,0x744fc	
       20525000	      2051	80000dd8	002f5113	srli	x2,x30,0x2	 x30:0x00000462  x2=0x00000118
       20535000	      2052	80000ddc	ff4414e3	bne	x8,x20,80000dc4	  x8:0x00000003 x20:0x00000008
       20545000	      2053	00000000	00000013	addi	x0,x0,0	  x0:0x00000000
       20555000	      2054	80000dc0	00000013	addi	x0,x0,0	  x0:0x00000000
       20565000	      2055	80000dc4	009779b3	and	x19,x14,x9	 x14:0xdb56f000  x9:0xfffffff7 x19=0xdb56f000
       20575000	      2056	80000dc8	41bad893	srai	x17,x21,0x1b	 x21:0x00000001 x17=0x00000000
       20585000	      2057	80000dcc	00540413	addi	x8,x8,5	  x8:0x00000003  x8=0x00000008
       20595000	      2058	80000dd0	01bff333	and	x6,x31,x27	 x31:0x0000092a x27:0x00000001  x6=0x00000000
       20605000	      2059	80000dd4	744fc017	auipc	x0,0x744fc	
       20615000	      2060	80000dd8	002f5113	srli	x2,x30,0x2	 x30:0x00000462  x2=0x00000118
       20625000	      2061	80000ddc	ff4414e3	bne	x8,x20,80000dc4	  x8:0x00000008 x20:0x00000008
       20635000	      2062	80000de0	418f5f93	srai	x31,x30,0x18	 x30:0x00000462 x31=0x00000000
       20645000	      2063	80000de4	00700f13	addi	x30,x0,7	  x0:0x00000000 x30=0x00000007
       20655000	      2064	80000de8	61910a93	addi	x21,x2,1561	  x2:0x00000118 x21=0x00000731
       20665000	      2065	80000dec	9e033f93	sltiu	x31,x6,-1568	  x6:0x00000000 x31=0x00000001
       20675000	      2066	80000df0	00b79833	sll	x16,x15,x11	 x15:0x677408b4 x11:0x00000000 x16=0x677408b4
       20685000	      2067	80000df4	777aa093	slti	x1,x21,1911	 x21:0x00000731  x1=0x00000001
       20695000	      2068	80000df8	ffb00d93	addi	x27,x0,-5	  x0:0x00000000 x27=0xfffffffb
       20705000	      2069	80000dfc	419bd013	srai	x0,x23,0x19	 x23:0xffffff3a
       20715000	      2070	80000e00	011f56b3	srl	x13,x30,x17	 x30:0x00000007 x17:0x00000000 x13=0x00000007
       20725000	      2071	80000e04	cc400bb7	lui	x23,0xcc400	 x23=0xcc400000
       20735000	      2072	80000e08	0182b133	sltu	x2,x5,x24	  x5:0x00000000 x24:0x80009f1c  x2=0x00000001
       20745000	      2073	80000e0c	006a0ab3	add	x21,x20,x6	 x20:0x00000008  x6:0x00000000 x21=0x00000008
       20755000	      2074	80000e10	00ce9993	slli	x19,x29,0xc	 x29:0x80009fc4 x19=0x09fc4000
       20765000	      2075	80000e14	6484fb13	andi	x22,x9,1608	  x9:0xfffffff7 x22=0x00000640
       20775000	      2076	80000e18	ffef0f13	addi	x30,x30,-2	 x30:0x00000007 x30=0x00000005
       20785000	      2077	80000e1c	cd868213	addi	x4,x13,-808	 x13:0x00000007  x4=0xfffffcdf
       20795000	      2078	80000e20	00000293	addi	x5,x0,0	  x0:0x00000000  x5=0x00000000
       20805000	      2079	80000e24	00e00313	addi	x6,x0,14	  x0:0x00000000  x6=0x0000000e
       20815000	      2080	80000e28	012a7433	and	x8,x20,x18	 x20:0x00000008 x18:0xce55c000  x8=0x00000000
       20825000	      2081	80000e2c	0076dc93	srli	x25,x13,0x7	 x13:0x00000007 x25=0x00000000
       20835000	      2082	80000e30	a64cf913	andi	x18,x25,-1436	 x25:0x00000000 x18=0x00000000
       20845000	      2083	80000e34	001eb633	sltu	x12,x29,x1	 x29:0x80009fc4  x1:0x00000001 x12=0x00000000
       20855000	      2084	80000e38	dac83613	sltiu	x12,x16,-596	 x16:0x677408b4 x12=0x00000001
       20865000	      2085	80000e3c	00328293	addi	x5,x5,3	  x5:0x00000000  x5=0x00000003
       20875000	      2086	80000e40	41e70e33	sub	x28,x14,x30	 x14:0xdb56f000 x30:0x00000005 x28=0xdb56effb
       20885000	      2087	80000e44	fe62cae3	blt	x5,x6,80000e38	  x5:0x00000003  x6:0x0000000e
       20895000	      2088	00000000	00000013	addi	x0,x0,0	  x0:0x00000000
       20905000	      2089	80000e34	00000013	addi	x0,x0,0	  x0:0x00000000
       20915000	      2090	80000e38	dac83613	sltiu	x12,x16,-596	 x16:0x677408b4 x12=0x00000001
       20925000	      2091	80000e3c	00328293	addi	x5,x5,3	  x5:0x00000003  x5=0x00000006
       20935000	      2092	80000e40	41e70e33	sub	x28,x14,x30	 x14:0xdb56f000 x30:0x00000005 x28=0xdb56effb
       20945000	      2093	80000e44	fe62cae3	blt	x5,x6,80000e38	  x5:0x00000006  x6:0x0000000e
       20955000	      2094	00000000	00000013	addi	x0,x0,0	  x0:0x00000000
       20965000	      2095	80000e34	00000013	addi	x0,x0,0	  x0:0x00000000
       20975000	      2096	80000e38	dac83613	sltiu	x12,x16,-596	 x16:0x677408b4 x12=0x00000001
       20985000	      2097	80000e3c	00328293	addi	x5,x5,3	  x5:0x00000006  x5=0x00000009
       20995000	      2098	80000e40	41e70e33	sub	x28,x14,x30	 x14:0xdb56f000 x30:0x00000005 x28=0xdb56effb
       21005000	      2099	80000e44	fe62cae3	blt	x5,x6,80000e38	  x5:0x00000009  x6:0x0000000e
       21015000	      2100	00000000	00000013	addi	x0,x0,0	  x0:0x00000000
       21025000	      2101	80000e34	00000013	addi	x0,x0,0	  x0:0x00000000
       21035000	      2102	80000e38	dac83613	sltiu	x12,x16,-596	 x16:0x677408b4 x12=0x00000001
       21045000	      2103	80000e3c	00328293	addi	x5,x5,3	  x5:0x00000009  x5=0x0000000c
       21055000	      2104	80000e40	41e70e33	sub	x28,x14,x30	 x14:0xdb56f000 x30:0x00000005 x28=0xdb56effb
       21065000	      2105	80000e44	fe62cae3	blt	x5,x6,80000e38	  x5:0x0000000c  x6:0x0000000e
       21075000	      2106	00000000	00000013	addi	x0,x0,0	  x0:0x00000000
       21085000	      2107	80000e34	00000013	addi	x0,x0,0	  x0:0x00000000
       21095000	      2108	80000e38	dac83613	sltiu	x12,x16,-596	 x16:0x677408b4 x12=0x00000001
       21105000	      2109	80000e3c	00328293	addi	x5,x5,3	  x5:0x0000000c  x5=0x0000000f
       21115000	      2110	80000e40	41e70e33	sub	x28,x14,x30	 x14:0xdb56f000 x30:0x00000005 x28=0xdb56effb
       21125000	      2111	80000e44	fe62cae3	blt	x5,x6,80000e38	  x5:0x0000000f  x6:0x0000000e
       21135000	      2112	80000e48	017c8833	add	x16,x25,x23	 x25:0x00000000 x23:0xcc400000 x16=0xcc400000
       21145000	      2113	80000e4c	00656a33	or	x20,x10,x6	 x10:0x00000002  x6:0x0000000e x20=0x0000000e
       21155000	      2114	80000e50	fce9e3b7	lui	x7,0xfce9e	  x7=0xfce9e000
       21165000	      2115	80000e54	00bf0633	add	x12,x30,x11	 x30:0x00000005 x11:0x00000000 x12=0x00000005
       21175000	      2116	80000e58	01506033	or	x0,x0,x21	  x0:0x00000000 x21:0x00000008
       21185000	      2117	80000e5c	012bfb33	and	x22,x23,x18	 x23:0xcc400000 x18:0x00000000 x22=0x00000000
       21195000	      2118	80000e60	fbbf14e3	bne	x30,x27,80000e08	 x30:0x00000005 x27:0xfffffffb
       21205000	      2119	00000000	00000013	addi	x0,x0,0	  x0:0x00000000
       21215000	      2120	80000e04	00000013	addi	x0,x0,0	  x0:0x00000000
       21225000	      2121	80000e08	0182b133	sltu	x2,x5,x24	  x5:0x0000000f x24:0x80009f1c  x2=0x00000001
       21235000	      2122	80000e0c	006a0ab3	add	x21,x20,x6	 x20:0x0000000e  x6:0x0000000e x21=0x0000001c
       21245000	      2123	80000e10	00ce9993	slli	x19,x29,0xc	 x29:0x80009fc4 x19=0x09fc4000
       21255000	      2124	80000e14	6484fb13	andi	x22,x9,1608	  x9:0xfffffff7 x22=0x00000640
       21265000	      2125	80000e18	ffef0f13	addi	x30,x30,-2	 x30:0x00000005 x30=0x00000003
       21275000	      2126	80000e1c	cd868213	addi	x4,x13,-808	 x13:0x00000007  x4=0xfffffcdf
       21285000	      2127	80000e20	00000293	addi	x5,x0,0	  x0:0x00000000  x5=0x00000000
       21295000	      2128	80000e24	00e00313	addi	x6,x0,14	  x0:0x00000000  x6=0x0000000e
       21305000	      2129	80000e28	012a7433	and	x8,x20,x18	 x20:0x0000000e x18:0x00000000  x8=0x00000000
       21315000	      2130	80000e2c	0076dc93	srli	x25,x13,0x7	 x13:0x00000007 x25=0x00000000
       21325000	      2131	80000e30	a64cf913	andi	x18,x25,-1436	 x25:0x00000000 x18=0x00000000
       21335000	      2132	80000e34	001eb633	sltu	x12,x29,x1	 x29:0x80009fc4  x1:0x00000001 x12=0x00000000
       21345000	      2133	80000e38	dac83613	sltiu	x12,x16,-596	 x16:0xcc400000 x12=0x00000001
       21355000	      2134	80000e3c	00328293	addi	x5,x5,3	  x5:0x00000000  x5=0x00000003
       21365000	      2135	80000e40	41e70e33	sub	x28,x14,x30	 x14:0xdb56f000 x30:0x00000003 x28=0xdb56effd
       21375000	      2136	80000e44	fe62cae3	blt	x5,x6,80000e38	  x5:0x00000003  x6:0x0000000e
       21385000	      2137	00000000	00000013	addi	x0,x0,0	  x0:0x00000000
       21395000	      2138	80000e34	00000013	addi	x0,x0,0	  x0:0x00000000
       21405000	      2139	80000e38	dac83613	sltiu	x12,x16,-596	 x16:0xcc400000 x12=0x00000001
       21415000	      2140	80000e3c	00328293	addi	x5,x5,3	  x5:0x00000003  x5=0x00000006
       21425000	      2141	80000e40	41e70e33	sub	x28,x14,x30	 x14:0xdb56f000 x30:0x00000003 x28=0xdb56effd
       21435000	      2142	80000e44	fe62cae3	blt	x5,x6,80000e38	  x5:0x00000006  x6:0x0000000e
       21445000	      2143	00000000	00000013	addi	x0,x0,0	  x0:0x00000000
       21455000	      2144	80000e34	00000013	addi	x0,x0,0	  x0:0x00000000
       21465000	      2145	80000e38	dac83613	sltiu	x12,x16,-596	 x16:0xcc400000 x12=0x00000001
       21475000	      2146	80000e3c	00328293	addi	x5,x5,3	  x5:0x00000006  x5=0x00000009
       21485000	      2147	80000e40	41e70e33	sub	x28,x14,x30	 x14:0xdb56f000 x30:0x00000003 x28=0xdb56effd
       21495000	      2148	80000e44	fe62cae3	blt	x5,x6,80000e38	  x5:0x00000009  x6:0x0000000e
       21505000	      2149	00000000	00000013	addi	x0,x0,0	  x0:0x00000000
       21515000	      2150	80000e34	00000013	addi	x0,x0,0	  x0:0x00000000
       21525000	      2151	80000e38	dac83613	sltiu	x12,x16,-596	 x16:0xcc400000 x12=0x00000001
       21535000	      2152	80000e3c	00328293	addi	x5,x5,3	  x5:0x00000009  x5=0x0000000c
       21545000	      2153	80000e40	41e70e33	sub	x28,x14,x30	 x14:0xdb56f000 x30:0x00000003 x28=0xdb56effd
       21555000	      2154	80000e44	fe62cae3	blt	x5,x6,80000e38	  x5:0x0000000c  x6:0x0000000e
       21565000	      2155	00000000	00000013	addi	x0,x0,0	  x0:0x00000000
       21575000	      2156	80000e34	00000013	addi	x0,x0,0	  x0:0x00000000
       21585000	      2157	80000e38	dac83613	sltiu	x12,x16,-596	 x16:0xcc400000 x12=0x00000001
       21595000	      2158	80000e3c	00328293	addi	x5,x5,3	  x5:0x0000000c  x5=0x0000000f
       21605000	      2159	80000e40	41e70e33	sub	x28,x14,x30	 x14:0xdb56f000 x30:0x00000003 x28=0xdb56effd
       21615000	      2160	80000e44	fe62cae3	blt	x5,x6,80000e38	  x5:0x0000000f  x6:0x0000000e
       21625000	      2161	80000e48	017c8833	add	x16,x25,x23	 x25:0x00000000 x23:0xcc400000 x16=0xcc400000
       21635000	      2162	80000e4c	00656a33	or	x20,x10,x6	 x10:0x00000002  x6:0x0000000e x20=0x0000000e
       21645000	      2163	80000e50	fce9e3b7	lui	x7,0xfce9e	  x7=0xfce9e000
       21655000	      2164	80000e54	00bf0633	add	x12,x30,x11	 x30:0x00000003 x11:0x00000000 x12=0x00000003
       21665000	      2165	80000e58	01506033	or	x0,x0,x21	  x0:0x00000000 x21:0x0000001c
       21675000	      2166	80000e5c	012bfb33	and	x22,x23,x18	 x23:0xcc400000 x18:0x00000000 x22=0x00000000
       21685000	      2167	80000e60	fbbf14e3	bne	x30,x27,80000e08	 x30:0x00000003 x27:0xfffffffb
       21695000	      2168	00000000	00000013	addi	x0,x0,0	  x0:0x00000000
       21705000	      2169	80000e04	00000013	addi	x0,x0,0	  x0:0x00000000
       21715000	      2170	80000e08	0182b133	sltu	x2,x5,x24	  x5:0x0000000f x24:0x80009f1c  x2=0x00000001
       21725000	      2171	80000e0c	006a0ab3	add	x21,x20,x6	 x20:0x0000000e  x6:0x0000000e x21=0x0000001c
       21735000	      2172	80000e10	00ce9993	slli	x19,x29,0xc	 x29:0x80009fc4 x19=0x09fc4000
       21745000	      2173	80000e14	6484fb13	andi	x22,x9,1608	  x9:0xfffffff7 x22=0x00000640
       21755000	      2174	80000e18	ffef0f13	addi	x30,x30,-2	 x30:0x00000003 x30=0x00000001
       21765000	      2175	80000e1c	cd868213	addi	x4,x13,-808	 x13:0x00000007  x4=0xfffffcdf
       21775000	      2176	80000e20	00000293	addi	x5,x0,0	  x0:0x00000000  x5=0x00000000
       21785000	      2177	80000e24	00e00313	addi	x6,x0,14	  x0:0x00000000  x6=0x0000000e
       21795000	      2178	80000e28	012a7433	and	x8,x20,x18	 x20:0x0000000e x18:0x00000000  x8=0x00000000
       21805000	      2179	80000e2c	0076dc93	srli	x25,x13,0x7	 x13:0x00000007 x25=0x00000000
       21815000	      2180	80000e30	a64cf913	andi	x18,x25,-1436	 x25:0x00000000 x18=0x00000000
       21825000	      2181	80000e34	001eb633	sltu	x12,x29,x1	 x29:0x80009fc4  x1:0x00000001 x12=0x00000000
       21835000	      2182	80000e38	dac83613	sltiu	x12,x16,-596	 x16:0xcc400000 x12=0x00000001
       21845000	      2183	80000e3c	00328293	addi	x5,x5,3	  x5:0x00000000  x5=0x00000003
       21855000	      2184	80000e40	41e70e33	sub	x28,x14,x30	 x14:0xdb56f000 x30:0x00000001 x28=0xdb56efff
       21865000	      2185	80000e44	fe62cae3	blt	x5,x6,80000e38	  x5:0x00000003  x6:0x0000000e
       21875000	      2186	00000000	00000013	addi	x0,x0,0	  x0:0x00000000
       21885000	      2187	80000e34	00000013	addi	x0,x0,0	  x0:0x00000000
       21895000	      2188	80000e38	dac83613	sltiu	x12,x16,-596	 x16:0xcc400000 x12=0x00000001
       21905000	      2189	80000e3c	00328293	addi	x5,x5,3	  x5:0x00000003  x5=0x00000006
       21915000	      2190	80000e40	41e70e33	sub	x28,x14,x30	 x14:0xdb56f000 x30:0x00000001 x28=0xdb56efff
       21925000	      2191	80000e44	fe62cae3	blt	x5,x6,80000e38	  x5:0x00000006  x6:0x0000000e
       21935000	      2192	00000000	00000013	addi	x0,x0,0	  x0:0x00000000
       21945000	      2193	80000e34	00000013	addi	x0,x0,0	  x0:0x00000000
       21955000	      2194	80000e38	dac83613	sltiu	x12,x16,-596	 x16:0xcc400000 x12=0x00000001
       21965000	      2195	80000e3c	00328293	addi	x5,x5,3	  x5:0x00000006  x5=0x00000009
       21975000	      2196	80000e40	41e70e33	sub	x28,x14,x30	 x14:0xdb56f000 x30:0x00000001 x28=0xdb56efff
       21985000	      2197	80000e44	fe62cae3	blt	x5,x6,80000e38	  x5:0x00000009  x6:0x0000000e
       21995000	      2198	00000000	00000013	addi	x0,x0,0	  x0:0x00000000
       22005000	      2199	80000e34	00000013	addi	x0,x0,0	  x0:0x00000000
       22015000	      2200	80000e38	dac83613	sltiu	x12,x16,-596	 x16:0xcc400000 x12=0x00000001
       22025000	      2201	80000e3c	00328293	addi	x5,x5,3	  x5:0x00000009  x5=0x0000000c
       22035000	      2202	80000e40	41e70e33	sub	x28,x14,x30	 x14:0xdb56f000 x30:0x00000001 x28=0xdb56efff
       22045000	      2203	80000e44	fe62cae3	blt	x5,x6,80000e38	  x5:0x0000000c  x6:0x0000000e
       22055000	      2204	00000000	00000013	addi	x0,x0,0	  x0:0x00000000
       22065000	      2205	80000e34	00000013	addi	x0,x0,0	  x0:0x00000000
       22075000	      2206	80000e38	dac83613	sltiu	x12,x16,-596	 x16:0xcc400000 x12=0x00000001
       22085000	      2207	80000e3c	00328293	addi	x5,x5,3	  x5:0x0000000c  x5=0x0000000f
       22095000	      2208	80000e40	41e70e33	sub	x28,x14,x30	 x14:0xdb56f000 x30:0x00000001 x28=0xdb56efff
       22105000	      2209	80000e44	fe62cae3	blt	x5,x6,80000e38	  x5:0x0000000f  x6:0x0000000e
       22115000	      2210	80000e48	017c8833	add	x16,x25,x23	 x25:0x00000000 x23:0xcc400000 x16=0xcc400000
       22125000	      2211	80000e4c	00656a33	or	x20,x10,x6	 x10:0x00000002  x6:0x0000000e x20=0x0000000e
       22135000	      2212	80000e50	fce9e3b7	lui	x7,0xfce9e	  x7=0xfce9e000
       22145000	      2213	80000e54	00bf0633	add	x12,x30,x11	 x30:0x00000001 x11:0x00000000 x12=0x00000001
       22155000	      2214	80000e58	01506033	or	x0,x0,x21	  x0:0x00000000 x21:0x0000001c
       22165000	      2215	80000e5c	012bfb33	and	x22,x23,x18	 x23:0xcc400000 x18:0x00000000 x22=0x00000000
       22175000	      2216	80000e60	fbbf14e3	bne	x30,x27,80000e08	 x30:0x00000001 x27:0xfffffffb
       22185000	      2217	00000000	00000013	addi	x0,x0,0	  x0:0x00000000
       22195000	      2218	80000e04	00000013	addi	x0,x0,0	  x0:0x00000000
       22205000	      2219	80000e08	0182b133	sltu	x2,x5,x24	  x5:0x0000000f x24:0x80009f1c  x2=0x00000001
       22215000	      2220	80000e0c	006a0ab3	add	x21,x20,x6	 x20:0x0000000e  x6:0x0000000e x21=0x0000001c
       22225000	      2221	80000e10	00ce9993	slli	x19,x29,0xc	 x29:0x80009fc4 x19=0x09fc4000
       22235000	      2222	80000e14	6484fb13	andi	x22,x9,1608	  x9:0xfffffff7 x22=0x00000640
       22245000	      2223	80000e18	ffef0f13	addi	x30,x30,-2	 x30:0x00000001 x30=0xffffffff
       22255000	      2224	80000e1c	cd868213	addi	x4,x13,-808	 x13:0x00000007  x4=0xfffffcdf
       22265000	      2225	80000e20	00000293	addi	x5,x0,0	  x0:0x00000000  x5=0x00000000
       22275000	      2226	80000e24	00e00313	addi	x6,x0,14	  x0:0x00000000  x6=0x0000000e
       22285000	      2227	80000e28	012a7433	and	x8,x20,x18	 x20:0x0000000e x18:0x00000000  x8=0x00000000
       22295000	      2228	80000e2c	0076dc93	srli	x25,x13,0x7	 x13:0x00000007 x25=0x00000000
       22305000	      2229	80000e30	a64cf913	andi	x18,x25,-1436	 x25:0x00000000 x18=0x00000000
       22315000	      2230	80000e34	001eb633	sltu	x12,x29,x1	 x29:0x80009fc4  x1:0x00000001 x12=0x00000000
       22325000	      2231	80000e38	dac83613	sltiu	x12,x16,-596	 x16:0xcc400000 x12=0x00000001
       22335000	      2232	80000e3c	00328293	addi	x5,x5,3	  x5:0x00000000  x5=0x00000003
       22345000	      2233	80000e40	41e70e33	sub	x28,x14,x30	 x14:0xdb56f000 x30:0xffffffff x28=0xdb56f001
       22355000	      2234	80000e44	fe62cae3	blt	x5,x6,80000e38	  x5:0x00000003  x6:0x0000000e
       22365000	      2235	00000000	00000013	addi	x0,x0,0	  x0:0x00000000
       22375000	      2236	80000e34	00000013	addi	x0,x0,0	  x0:0x00000000
       22385000	      2237	80000e38	dac83613	sltiu	x12,x16,-596	 x16:0xcc400000 x12=0x00000001
       22395000	      2238	80000e3c	00328293	addi	x5,x5,3	  x5:0x00000003  x5=0x00000006
       22405000	      2239	80000e40	41e70e33	sub	x28,x14,x30	 x14:0xdb56f000 x30:0xffffffff x28=0xdb56f001
       22415000	      2240	80000e44	fe62cae3	blt	x5,x6,80000e38	  x5:0x00000006  x6:0x0000000e
       22425000	      2241	00000000	00000013	addi	x0,x0,0	  x0:0x00000000
       22435000	      2242	80000e34	00000013	addi	x0,x0,0	  x0:0x00000000
       22445000	      2243	80000e38	dac83613	sltiu	x12,x16,-596	 x16:0xcc400000 x12=0x00000001
       22455000	      2244	80000e3c	00328293	addi	x5,x5,3	  x5:0x00000006  x5=0x00000009
       22465000	      2245	80000e40	41e70e33	sub	x28,x14,x30	 x14:0xdb56f000 x30:0xffffffff x28=0xdb56f001
       22475000	      2246	80000e44	fe62cae3	blt	x5,x6,80000e38	  x5:0x00000009  x6:0x0000000e
       22485000	      2247	00000000	00000013	addi	x0,x0,0	  x0:0x00000000
       22495000	      2248	80000e34	00000013	addi	x0,x0,0	  x0:0x00000000
       22505000	      2249	80000e38	dac83613	sltiu	x12,x16,-596	 x16:0xcc400000 x12=0x00000001
       22515000	      2250	80000e3c	00328293	addi	x5,x5,3	  x5:0x00000009  x5=0x0000000c
       22525000	      2251	80000e40	41e70e33	sub	x28,x14,x30	 x14:0xdb56f000 x30:0xffffffff x28=0xdb56f001
       22535000	      2252	80000e44	fe62cae3	blt	x5,x6,80000e38	  x5:0x0000000c  x6:0x0000000e
       22545000	      2253	00000000	00000013	addi	x0,x0,0	  x0:0x00000000
       22555000	      2254	80000e34	00000013	addi	x0,x0,0	  x0:0x00000000
       22565000	      2255	80000e38	dac83613	sltiu	x12,x16,-596	 x16:0xcc400000 x12=0x00000001
       22575000	      2256	80000e3c	00328293	addi	x5,x5,3	  x5:0x0000000c  x5=0x0000000f
       22585000	      2257	80000e40	41e70e33	sub	x28,x14,x30	 x14:0xdb56f000 x30:0xffffffff x28=0xdb56f001
       22595000	      2258	80000e44	fe62cae3	blt	x5,x6,80000e38	  x5:0x0000000f  x6:0x0000000e
       22605000	      2259	80000e48	017c8833	add	x16,x25,x23	 x25:0x00000000 x23:0xcc400000 x16=0xcc400000
       22615000	      2260	80000e4c	00656a33	or	x20,x10,x6	 x10:0x00000002  x6:0x0000000e x20=0x0000000e
       22625000	      2261	80000e50	fce9e3b7	lui	x7,0xfce9e	  x7=0xfce9e000
       22635000	      2262	80000e54	00bf0633	add	x12,x30,x11	 x30:0xffffffff x11:0x00000000 x12=0xffffffff
       22645000	      2263	80000e58	01506033	or	x0,x0,x21	  x0:0x00000000 x21:0x0000001c
       22655000	      2264	80000e5c	012bfb33	and	x22,x23,x18	 x23:0xcc400000 x18:0x00000000 x22=0x00000000
       22665000	      2265	80000e60	fbbf14e3	bne	x30,x27,80000e08	 x30:0xffffffff x27:0xfffffffb
       22675000	      2266	00000000	00000013	addi	x0,x0,0	  x0:0x00000000
       22685000	      2267	80000e04	00000013	addi	x0,x0,0	  x0:0x00000000
       22695000	      2268	80000e08	0182b133	sltu	x2,x5,x24	  x5:0x0000000f x24:0x80009f1c  x2=0x00000001
       22705000	      2269	80000e0c	006a0ab3	add	x21,x20,x6	 x20:0x0000000e  x6:0x0000000e x21=0x0000001c
       22715000	      2270	80000e10	00ce9993	slli	x19,x29,0xc	 x29:0x80009fc4 x19=0x09fc4000
       22725000	      2271	80000e14	6484fb13	andi	x22,x9,1608	  x9:0xfffffff7 x22=0x00000640
       22735000	      2272	80000e18	ffef0f13	addi	x30,x30,-2	 x30:0xffffffff x30=0xfffffffd
       22745000	      2273	80000e1c	cd868213	addi	x4,x13,-808	 x13:0x00000007  x4=0xfffffcdf
       22755000	      2274	80000e20	00000293	addi	x5,x0,0	  x0:0x00000000  x5=0x00000000
       22765000	      2275	80000e24	00e00313	addi	x6,x0,14	  x0:0x00000000  x6=0x0000000e
       22775000	      2276	80000e28	012a7433	and	x8,x20,x18	 x20:0x0000000e x18:0x00000000  x8=0x00000000
       22785000	      2277	80000e2c	0076dc93	srli	x25,x13,0x7	 x13:0x00000007 x25=0x00000000
       22795000	      2278	80000e30	a64cf913	andi	x18,x25,-1436	 x25:0x00000000 x18=0x00000000
       22805000	      2279	80000e34	001eb633	sltu	x12,x29,x1	 x29:0x80009fc4  x1:0x00000001 x12=0x00000000
       22815000	      2280	80000e38	dac83613	sltiu	x12,x16,-596	 x16:0xcc400000 x12=0x00000001
       22825000	      2281	80000e3c	00328293	addi	x5,x5,3	  x5:0x00000000  x5=0x00000003
       22835000	      2282	80000e40	41e70e33	sub	x28,x14,x30	 x14:0xdb56f000 x30:0xfffffffd x28=0xdb56f003
       22845000	      2283	80000e44	fe62cae3	blt	x5,x6,80000e38	  x5:0x00000003  x6:0x0000000e
       22855000	      2284	00000000	00000013	addi	x0,x0,0	  x0:0x00000000
       22865000	      2285	80000e34	00000013	addi	x0,x0,0	  x0:0x00000000
       22875000	      2286	80000e38	dac83613	sltiu	x12,x16,-596	 x16:0xcc400000 x12=0x00000001
       22885000	      2287	80000e3c	00328293	addi	x5,x5,3	  x5:0x00000003  x5=0x00000006
       22895000	      2288	80000e40	41e70e33	sub	x28,x14,x30	 x14:0xdb56f000 x30:0xfffffffd x28=0xdb56f003
       22905000	      2289	80000e44	fe62cae3	blt	x5,x6,80000e38	  x5:0x00000006  x6:0x0000000e
       22915000	      2290	00000000	00000013	addi	x0,x0,0	  x0:0x00000000
       22925000	      2291	80000e34	00000013	addi	x0,x0,0	  x0:0x00000000
       22935000	      2292	80000e38	dac83613	sltiu	x12,x16,-596	 x16:0xcc400000 x12=0x00000001
       22945000	      2293	80000e3c	00328293	addi	x5,x5,3	  x5:0x00000006  x5=0x00000009
       22955000	      2294	80000e40	41e70e33	sub	x28,x14,x30	 x14:0xdb56f000 x30:0xfffffffd x28=0xdb56f003
       22965000	      2295	80000e44	fe62cae3	blt	x5,x6,80000e38	  x5:0x00000009  x6:0x0000000e
       22975000	      2296	00000000	00000013	addi	x0,x0,0	  x0:0x00000000
       22985000	      2297	80000e34	00000013	addi	x0,x0,0	  x0:0x00000000
       22995000	      2298	80000e38	dac83613	sltiu	x12,x16,-596	 x16:0xcc400000 x12=0x00000001
       23005000	      2299	80000e3c	00328293	addi	x5,x5,3	  x5:0x00000009  x5=0x0000000c
       23015000	      2300	80000e40	41e70e33	sub	x28,x14,x30	 x14:0xdb56f000 x30:0xfffffffd x28=0xdb56f003
       23025000	      2301	80000e44	fe62cae3	blt	x5,x6,80000e38	  x5:0x0000000c  x6:0x0000000e
       23035000	      2302	00000000	00000013	addi	x0,x0,0	  x0:0x00000000
       23045000	      2303	80000e34	00000013	addi	x0,x0,0	  x0:0x00000000
       23055000	      2304	80000e38	dac83613	sltiu	x12,x16,-596	 x16:0xcc400000 x12=0x00000001
       23065000	      2305	80000e3c	00328293	addi	x5,x5,3	  x5:0x0000000c  x5=0x0000000f
       23075000	      2306	80000e40	41e70e33	sub	x28,x14,x30	 x14:0xdb56f000 x30:0xfffffffd x28=0xdb56f003
       23085000	      2307	80000e44	fe62cae3	blt	x5,x6,80000e38	  x5:0x0000000f  x6:0x0000000e
       23095000	      2308	80000e48	017c8833	add	x16,x25,x23	 x25:0x00000000 x23:0xcc400000 x16=0xcc400000
       23105000	      2309	80000e4c	00656a33	or	x20,x10,x6	 x10:0x00000002  x6:0x0000000e x20=0x0000000e
       23115000	      2310	80000e50	fce9e3b7	lui	x7,0xfce9e	  x7=0xfce9e000
       23125000	      2311	80000e54	00bf0633	add	x12,x30,x11	 x30:0xfffffffd x11:0x00000000 x12=0xfffffffd
       23135000	      2312	80000e58	01506033	or	x0,x0,x21	  x0:0x00000000 x21:0x0000001c
       23145000	      2313	80000e5c	012bfb33	and	x22,x23,x18	 x23:0xcc400000 x18:0x00000000 x22=0x00000000
       23155000	      2314	80000e60	fbbf14e3	bne	x30,x27,80000e08	 x30:0xfffffffd x27:0xfffffffb
       23165000	      2315	00000000	00000013	addi	x0,x0,0	  x0:0x00000000
       23175000	      2316	80000e04	00000013	addi	x0,x0,0	  x0:0x00000000
       23185000	      2317	80000e08	0182b133	sltu	x2,x5,x24	  x5:0x0000000f x24:0x80009f1c  x2=0x00000001
       23195000	      2318	80000e0c	006a0ab3	add	x21,x20,x6	 x20:0x0000000e  x6:0x0000000e x21=0x0000001c
       23205000	      2319	80000e10	00ce9993	slli	x19,x29,0xc	 x29:0x80009fc4 x19=0x09fc4000
       23215000	      2320	80000e14	6484fb13	andi	x22,x9,1608	  x9:0xfffffff7 x22=0x00000640
       23225000	      2321	80000e18	ffef0f13	addi	x30,x30,-2	 x30:0xfffffffd x30=0xfffffffb
       23235000	      2322	80000e1c	cd868213	addi	x4,x13,-808	 x13:0x00000007  x4=0xfffffcdf
       23245000	      2323	80000e20	00000293	addi	x5,x0,0	  x0:0x00000000  x5=0x00000000
       23255000	      2324	80000e24	00e00313	addi	x6,x0,14	  x0:0x00000000  x6=0x0000000e
       23265000	      2325	80000e28	012a7433	and	x8,x20,x18	 x20:0x0000000e x18:0x00000000  x8=0x00000000
       23275000	      2326	80000e2c	0076dc93	srli	x25,x13,0x7	 x13:0x00000007 x25=0x00000000
       23285000	      2327	80000e30	a64cf913	andi	x18,x25,-1436	 x25:0x00000000 x18=0x00000000
       23295000	      2328	80000e34	001eb633	sltu	x12,x29,x1	 x29:0x80009fc4  x1:0x00000001 x12=0x00000000
       23305000	      2329	80000e38	dac83613	sltiu	x12,x16,-596	 x16:0xcc400000 x12=0x00000001
       23315000	      2330	80000e3c	00328293	addi	x5,x5,3	  x5:0x00000000  x5=0x00000003
       23325000	      2331	80000e40	41e70e33	sub	x28,x14,x30	 x14:0xdb56f000 x30:0xfffffffb x28=0xdb56f005
       23335000	      2332	80000e44	fe62cae3	blt	x5,x6,80000e38	  x5:0x00000003  x6:0x0000000e
       23345000	      2333	00000000	00000013	addi	x0,x0,0	  x0:0x00000000
       23355000	      2334	80000e34	00000013	addi	x0,x0,0	  x0:0x00000000
       23365000	      2335	80000e38	dac83613	sltiu	x12,x16,-596	 x16:0xcc400000 x12=0x00000001
       23375000	      2336	80000e3c	00328293	addi	x5,x5,3	  x5:0x00000003  x5=0x00000006
       23385000	      2337	80000e40	41e70e33	sub	x28,x14,x30	 x14:0xdb56f000 x30:0xfffffffb x28=0xdb56f005
       23395000	      2338	80000e44	fe62cae3	blt	x5,x6,80000e38	  x5:0x00000006  x6:0x0000000e
       23405000	      2339	00000000	00000013	addi	x0,x0,0	  x0:0x00000000
       23415000	      2340	80000e34	00000013	addi	x0,x0,0	  x0:0x00000000
       23425000	      2341	80000e38	dac83613	sltiu	x12,x16,-596	 x16:0xcc400000 x12=0x00000001
       23435000	      2342	80000e3c	00328293	addi	x5,x5,3	  x5:0x00000006  x5=0x00000009
       23445000	      2343	80000e40	41e70e33	sub	x28,x14,x30	 x14:0xdb56f000 x30:0xfffffffb x28=0xdb56f005
       23455000	      2344	80000e44	fe62cae3	blt	x5,x6,80000e38	  x5:0x00000009  x6:0x0000000e
       23465000	      2345	00000000	00000013	addi	x0,x0,0	  x0:0x00000000
       23475000	      2346	80000e34	00000013	addi	x0,x0,0	  x0:0x00000000
       23485000	      2347	80000e38	dac83613	sltiu	x12,x16,-596	 x16:0xcc400000 x12=0x00000001
       23495000	      2348	80000e3c	00328293	addi	x5,x5,3	  x5:0x00000009  x5=0x0000000c
       23505000	      2349	80000e40	41e70e33	sub	x28,x14,x30	 x14:0xdb56f000 x30:0xfffffffb x28=0xdb56f005
       23515000	      2350	80000e44	fe62cae3	blt	x5,x6,80000e38	  x5:0x0000000c  x6:0x0000000e
       23525000	      2351	00000000	00000013	addi	x0,x0,0	  x0:0x00000000
       23535000	      2352	80000e34	00000013	addi	x0,x0,0	  x0:0x00000000
       23545000	      2353	80000e38	dac83613	sltiu	x12,x16,-596	 x16:0xcc400000 x12=0x00000001
       23555000	      2354	80000e3c	00328293	addi	x5,x5,3	  x5:0x0000000c  x5=0x0000000f
       23565000	      2355	80000e40	41e70e33	sub	x28,x14,x30	 x14:0xdb56f000 x30:0xfffffffb x28=0xdb56f005
       23575000	      2356	80000e44	fe62cae3	blt	x5,x6,80000e38	  x5:0x0000000f  x6:0x0000000e
       23585000	      2357	80000e48	017c8833	add	x16,x25,x23	 x25:0x00000000 x23:0xcc400000 x16=0xcc400000
       23595000	      2358	80000e4c	00656a33	or	x20,x10,x6	 x10:0x00000002  x6:0x0000000e x20=0x0000000e
       23605000	      2359	80000e50	fce9e3b7	lui	x7,0xfce9e	  x7=0xfce9e000
       23615000	      2360	80000e54	00bf0633	add	x12,x30,x11	 x30:0xfffffffb x11:0x00000000 x12=0xfffffffb
       23625000	      2361	80000e58	01506033	or	x0,x0,x21	  x0:0x00000000 x21:0x0000001c
       23635000	      2362	80000e5c	012bfb33	and	x22,x23,x18	 x23:0xcc400000 x18:0x00000000 x22=0x00000000
       23645000	      2363	80000e60	fbbf14e3	bne	x30,x27,80000e08	 x30:0xfffffffb x27:0xfffffffb
       23655000	      2364	80000e64	59ce0137	lui	x2,0x59ce0	  x2=0x59ce0000
       23665000	      2365	80000e68	ff900593	addi	x11,x0,-7	  x0:0x00000000 x11=0xfffffff9
       23675000	      2366	80000e6c	007c1833	sll	x16,x24,x7	 x24:0x80009f1c  x7:0xfce9e000 x16=0x80009f1c
       23685000	      2367	80000e70	008272b3	and	x5,x4,x8	  x4:0xfffffcdf  x8:0x00000000  x5=0x00000000
       23695000	      2368	80000e74	41305013	srai	x0,x0,0x13	  x0:0x00000000
       23705000	      2369	80000e78	00000013	addi	x0,x0,0	  x0:0x00000000
       23715000	      2370	80000e7c	00800493	addi	x9,x0,8	  x0:0x00000000  x9=0x00000008
       23725000	      2371	80000e80	00226233	or	x4,x4,x2	  x4:0xfffffcdf  x2:0x59ce0000  x4=0xfffffcdf
       23735000	      2372	80000e84	41dbd3b3	sra	x7,x23,x29	 x23:0xcc400000 x29:0x80009fc4  x7=0xfcc40000
       23745000	      2373	80000e88	d1cf6f13	ori	x30,x30,-740	 x30:0xfffffffb x30=0xffffffff
       23755000	      2374	80000e8c	00875293	srli	x5,x14,0x8	 x14:0xdb56f000  x5=0x00db56f0
       23765000	      2375	80000e90	df08b813	sltiu	x16,x17,-528	 x17:0x00000000 x16=0x00000001
       23775000	      2376	80000e94	c2757d13	andi	x26,x10,-985	 x10:0x00000002 x26=0x00000002
       23785000	      2377	80000e98	0172f833	and	x16,x5,x23	  x5:0x00db56f0 x23:0xcc400000 x16=0x00400000
       23795000	      2378	80000e9c	00000013	addi	x0,x0,0	  x0:0x00000000
       23805000	      2379	80000ea0	00958593	addi	x11,x11,9	 x11:0xfffffff9 x11=0x00000002
       23815000	      2380	80000ea4	01150b33	add	x22,x10,x17	 x10:0x00000002 x17:0x00000000 x22=0x00000002
       23825000	      2381	80000ea8	c49cf693	andi	x13,x25,-951	 x25:0x00000000 x13=0x00000000
       23835000	      2382	80000eac	011c9cb3	sll	x25,x25,x17	 x25:0x00000000 x17:0x00000000 x25=0x00000000
       23845000	      2383	80000eb0	00dce9b3	or	x19,x25,x13	 x25:0x00000000 x13:0x00000000 x19=0x00000000
       23855000	      2384	80000eb4	fe95e2e3	bltu	x11,x9,80000e98	 x11:0x00000002  x9:0x00000008
       23865000	      2385	00000000	00000013	addi	x0,x0,0	  x0:0x00000000
       23875000	      2386	80000e94	00000013	addi	x0,x0,0	  x0:0x00000000
       23885000	      2387	80000e98	0172f833	and	x16,x5,x23	  x5:0x00db56f0 x23:0xcc400000 x16=0x00400000
       23895000	      2388	80000e9c	00000013	addi	x0,x0,0	  x0:0x00000000
       23905000	      2389	80000ea0	00958593	addi	x11,x11,9	 x11:0x00000002 x11=0x0000000b
       23915000	      2390	80000ea4	01150b33	add	x22,x10,x17	 x10:0x00000002 x17:0x00000000 x22=0x00000002
       23925000	      2391	80000ea8	c49cf693	andi	x13,x25,-951	 x25:0x00000000 x13=0x00000000
       23935000	      2392	80000eac	011c9cb3	sll	x25,x25,x17	 x25:0x00000000 x17:0x00000000 x25=0x00000000
       23945000	      2393	80000eb0	00dce9b3	or	x19,x25,x13	 x25:0x00000000 x13:0x00000000 x19=0x00000000
       23955000	      2394	80000eb4	fe95e2e3	bltu	x11,x9,80000e98	 x11:0x0000000b  x9:0x00000008
       23965000	      2395	80000eb8	014b2433	slt	x8,x22,x20	 x22:0x00000002 x20:0x0000000e  x8=0x00000001
       23975000	      2396	80000ebc	fff00913	addi	x18,x0,-1	  x0:0x00000000 x18=0xffffffff
       23985000	      2397	80000ec0	bccc0b93	addi	x23,x24,-1076	 x24:0x80009f1c x23=0x80009ae8
       23995000	      2398	80000ec4	0158e1b3	or	x3,x17,x21	 x17:0x00000000 x21:0x0000001c  x3=0x0000001c
       24005000	      2399	80000ec8	007ceb33	or	x22,x25,x7	 x25:0x00000000  x7:0xfcc40000 x22=0xfcc40000
       24015000	      2400	80000ecc	42308d93	addi	x27,x1,1059	  x1:0x00000001 x27=0x00000424
       24025000	      2401	80000ed0	0098d513	srli	x10,x17,0x9	 x17:0x00000000 x10=0x00000000
       24035000	      2402	80000ed4	0122b1b3	sltu	x3,x5,x18	  x5:0x00db56f0 x18:0xffffffff  x3=0x00000001
       24045000	      2403	80000ed8	b242c893	xori	x17,x5,-1244	  x5:0x00db56f0 x17=0xff24add4
       24055000	      2404	80000edc	ff300693	addi	x13,x0,-13	  x0:0x00000000 x13=0xfffffff3
       24065000	      2405	80000ee0	a8823993	sltiu	x19,x4,-1400	  x4:0xfffffcdf x19=0x00000000
       24075000	      2406	80000ee4	01f61a93	slli	x21,x12,0x1f	 x12:0xfffffffb x21=0x80000000
       24085000	      2407	80000ee8	410d5db3	sra	x27,x26,x16	 x26:0x00000002 x16:0x00400000 x27=0x00000002
       24095000	      2408	80000eec	ffd90913	addi	x18,x18,-3	 x18:0xffffffff x18=0xfffffffc
       24105000	      2409	80000ef0	41cb81b3	sub	x3,x23,x28	 x23:0x80009ae8 x28:0xdb56f005  x3=0xa4a9aae3
       24115000	      2410	80000ef4	018cb533	sltu	x10,x25,x24	 x25:0x00000000 x24:0x80009f1c x10=0x00000001
       24125000	      2411	80000ef8	008ddd13	srli	x26,x27,0x8	 x27:0x00000002 x26=0x00000000
       24135000	      2412	80000efc	4fa9ba93	sltiu	x21,x19,1274	 x19:0x00000000 x21=0x00000001
       24145000	      2413	80000f00	00c01393	slli	x7,x0,0xc	  x0:0x00000000  x7=0x00000000
       24155000	      2414	80000f04	406255b3	sra	x11,x4,x6	  x4:0xfffffcdf  x6:0x0000000e x11=0xffffffff
       24165000	      2415	80000f08	1b80cb93	xori	x23,x1,440	  x1:0x00000001 x23=0x000001b9
       24175000	      2416	80000f0c	0012d293	srli	x5,x5,0x1	  x5:0x00db56f0  x5=0x006dab78
       24185000	      2417	80000f10	01d168b3	or	x17,x2,x29	  x2:0x59ce0000 x29:0x80009fc4 x17=0xd9ce9fc4
       24195000	      2418	80000f14	fcd906e3	beq	x18,x13,80000ee0	 x18:0xfffffffc x13:0xfffffff3
       24205000	      2419	80000f18	00fc5a93	srli	x21,x24,0xf	 x24:0x80009f1c x21=0x00010001
       24215000	      2420	80000f1c	d25c7193	andi	x3,x24,-731	 x24:0x80009f1c  x3=0x80009d04
       24225000	      2421	80000f20	03a94863	blt	x18,x26,80000f50	 x18:0xfffffffc x26:0x00000000
       24235000	      2422	00000000	00000013	addi	x0,x0,0	  x0:0x00000000
       24245000	      2423	80000f4c	00000013	addi	x0,x0,0	  x0:0x00000000
       24255000	      2424	80000f50	05095863	bge	x18,x16,80000fa0	 x18:0xfffffffc x16:0x00400000
       24265000	      2425	80000f54	406bd333	sra	x6,x23,x6	 x23:0x000001b9  x6:0x0000000e  x6=0x00000000
       24275000	      2426	80000f58	01b8aa33	slt	x20,x17,x27	 x17:0xd9ce9fc4 x27:0x00000002 x20=0x00000001
       24285000	      2427	80000f5c	26fa8513	addi	x10,x21,623	 x21:0x00010001 x10=0x00010270
       24295000	      2428	80000f60	001051b3	srl	x3,x0,x1	  x0:0x00000000  x1:0x00000001  x3=0x00000000
       24305000	      2429	80000f64	4039d233	sra	x4,x19,x3	 x19:0x00000000  x3:0x00000000  x4=0x00000000
       24315000	      2430	80000f68	ad473513	sltiu	x10,x14,-1324	 x14:0xdb56f000 x10=0x00000001
       24325000	      2431	80000f6c	fb210d93	addi	x27,x2,-78	  x2:0x59ce0000 x27=0x59cdffb2
       24335000	      2432	80000f70	01d45813	srli	x16,x8,0x1d	  x8:0x00000001 x16=0x00000000
       24345000	      2433	80000f74	978af093	andi	x1,x21,-1672	 x21:0x00010001  x1=0x00010000
       24355000	      2434	80000f78	00b973b3	and	x7,x18,x11	 x18:0xfffffffc x11:0xffffffff  x7=0xfffffffc
       24365000	      2435	80000f7c	41a65513	srai	x10,x12,0x1a	 x12:0xfffffffb x10=0xffffffff
       24375000	      2436	80000f80	01edf933	and	x18,x27,x30	 x27:0x59cdffb2 x30:0xffffffff x18=0x59cdffb2
       24385000	      2437	80000f84	40f90cb3	sub	x25,x18,x15	 x18:0x59cdffb2 x15:0x677408b4 x25=0xf259f6fe
       24395000	      2438	80000f88	00420233	add	x4,x4,x4	  x4:0x00000000  x4:0x00000000  x4=0x00000000
       24405000	      2439	80000f8c	86740213	addi	x4,x8,-1945	  x8:0x00000001  x4=0xfffff868
       24415000	      2440	80000f90	40d48ab3	sub	x21,x9,x13	  x9:0x00000008 x13:0xfffffff3 x21=0x00000015
       24425000	      2441	80000f94	03aa0063	beq	x20,x26,80000fb4	 x20:0x00000001 x26:0x00000000
       24435000	      2442	80000f98	00251733	sll	x14,x10,x2	 x10:0xffffffff  x2:0x59ce0000 x14=0xffffffff
       24445000	      2443	80000f9c	007bb6b3	sltu	x13,x23,x7	 x23:0x000001b9  x7:0xfffffffc x13=0x00000001
       24455000	      2444	80000fa0	40250e33	sub	x28,x10,x2	 x10:0xffffffff  x2:0x59ce0000 x28=0xa631ffff
       24465000	      2445	80000fa4	41d95333	sra	x6,x18,x29	 x18:0x59cdffb2 x29:0x80009fc4  x6=0x059cdffb
       24475000	      2446	80000fa8	03469a63	bne	x13,x20,80000fdc	 x13:0x00000001 x20:0x00000001
       24485000	      2447	80000fac	00615ab3	srl	x21,x2,x6	  x2:0x59ce0000  x6:0x059cdffb x21=0x0000000b
       24495000	      2448	80000fb0	e065a813	slti	x16,x11,-506	 x11:0xffffffff x16=0x00000000
       24505000	      2449	80000fb4	412050b3	sra	x1,x0,x18	  x0:0x00000000 x18:0x59cdffb2  x1=0x00000000
       24515000	      2450	80000fb8	05d40663	beq	x8,x29,80001004	  x8:0x00000001 x29:0x80009fc4
       24525000	      2451	80000fbc	00ee5463	bge	x28,x14,80000fc4	 x28:0xa631ffff x14:0xffffffff
       24535000	      2452	80000fc0	14f7a113	slti	x2,x15,335	 x15:0x677408b4  x2=0x00000000
       24545000	      2453	80000fc4	02a71e63	bne	x14,x10,80001000	 x14:0xffffffff x10:0xffffffff
       24555000	      2454	80000fc8	00911533	sll	x10,x2,x9	  x2:0x00000000  x9:0x00000008 x10=0x00000000
       24565000	      2455	80000fcc	02137663	bgeu	x6,x1,80000ff8	  x6:0x059cdffb  x1:0x00000000
       24575000	      2456	00000000	00000013	addi	x0,x0,0	  x0:0x00000000
       24585000	      2457	80000ff4	00000013	addi	x0,x0,0	  x0:0x00000000
       24595000	      2458	80000ff8	01778663	beq	x15,x23,80001004	 x15:0x677408b4 x23:0x000001b9
       24605000	      2459	80000ffc	00eed833	srl	x16,x29,x14	 x29:0x80009fc4 x14:0xffffffff x16=0x00000001
       24615000	      2460	80001000	042b4063	blt	x22,x2,80001040	 x22:0xfcc40000  x2:0x00000000
       24625000	      2461	00000000	00000013	addi	x0,x0,0	  x0:0x00000000
       24635000	      2462	8000103c	00000013	addi	x0,x0,0	  x0:0x00000000
       24645000	      2463	80001040	01ece2b3	or	x5,x25,x30	 x25:0xf259f6fe x30:0xffffffff  x5=0xffffffff
       24655000	      2464	80001044	122ce693	ori	x13,x25,290	 x25:0xf259f6fe x13=0xf259f7fe
       24665000	      2465	80001048	2a502993	slti	x19,x0,677	  x0:0x00000000 x19=0x00000001
       24675000	      2466	8000104c	00157f33	and	x30,x10,x1	 x10:0x00000000  x1:0x00000000 x30=0x00000000
       24685000	      2467	80001050	0155c333	xor	x6,x11,x21	 x11:0xffffffff x21:0x0000000b  x6=0xfffffff4
       24695000	      2468	80001054	04788863	beq	x17,x7,800010a4	 x17:0xd9ce9fc4  x7:0xfffffffc
       24705000	      2469	80001058	006a7bb3	and	x23,x20,x6	 x20:0x00000001  x6:0xfffffff4 x23=0x00000000
       24715000	      2470	8000105c	414edd93	srai	x27,x29,0x14	 x29:0x80009fc4 x27=0xfffff800
       24725000	      2471	80001060	4a148cb7	lui	x25,0x4a148	 x25=0x4a148000
       24735000	      2472	80001064	00000013	addi	x0,x0,0	  x0:0x00000000
       24745000	      2473	80001068	00411213	slli	x4,x2,0x4	  x2:0x00000000  x4=0x00000000
       24755000	      2474	8000106c	0004da33	srl	x20,x9,x0	  x9:0x00000008  x0:0x00000000 x20=0x00000008
       24765000	      2475	80001070	a245b813	sltiu	x16,x11,-1500	 x11:0xffffffff x16=0x00000000
       24775000	      2476	80001074	012e42b3	xor	x5,x28,x18	 x28:0xa631ffff x18:0x59cdffb2  x5=0xfffc004d
       24785000	      2477	80001078	00000013	addi	x0,x0,0	  x0:0x00000000
       24795000	      2478	8000107c	010c1133	sll	x2,x24,x16	 x24:0x80009f1c x16:0x00000000  x2=0x80009f1c
       24805000	      2479	80001080	001a9a93	slli	x21,x21,0x1	 x21:0x0000000b x21=0x00000016
       24815000	      2480	80001084	00952db3	slt	x27,x10,x9	 x10:0x00000000  x9:0x00000008 x27=0x00000001
       24825000	      2481	80001088	006ba0b3	slt	x1,x23,x6	 x23:0x00000000  x6:0xfffffff4  x1=0x00000000
       24835000	      2482	8000108c	00ac4033	xor	x0,x24,x10	 x24:0x80009f1c x10:0x00000000
       24845000	      2483	80001090	41b8d813	srai	x16,x17,0x1b	 x17:0xd9ce9fc4 x16=0xfffffffb
       24855000	      2484	80001094	dcb20117	auipc	x2,0xdcb20	  x2=0x5cb21090
       24865000	      2485	80001098	00b80b33	add	x22,x16,x11	 x16:0xfffffffb x11:0xffffffff x22=0xfffffffa
       24875000	      2486	8000109c	006416b3	sll	x13,x8,x6	  x8:0x00000001  x6:0xfffffff4 x13=0x00100000
       24885000	      2487	800010a0	0116f6b3	and	x13,x13,x17	 x13:0x00100000 x17:0xd9ce9fc4 x13=0x00000000
       24895000	      2488	800010a4	05e84863	blt	x16,x30,800010f4	 x16:0xfffffffb x30:0x00000000
       24905000	      2489	00000000	00000013	addi	x0,x0,0	  x0:0x00000000
       24915000	      2490	800010f0	00000013	addi	x0,x0,0	  x0:0x00000000
       24925000	      2491	800010f4	015ab633	sltu	x12,x21,x21	 x21:0x00000016 x21:0x00000016 x12=0x00000000
       24935000	      2492	800010f8	01964c63	blt	x12,x25,80001110	 x12:0x00000000 x25:0x4a148000
       24945000	      2493	00000000	00000013	addi	x0,x0,0	  x0:0x00000000
       24955000	      2494	8000110c	00000013	addi	x0,x0,0	  x0:0x00000000
       24965000	      2495	80001110	3636ee13	ori	x28,x13,867	 x13:0x00000000 x28=0x00000363
       24975000	      2496	80001114	e12c1837	lui	x16,0xe12c1	 x16=0xe12c1000
       24985000	      2497	80001118	b3634c93	xori	x25,x6,-1226	  x6:0xfffffff4 x25=0x000004c2
       24995000	      2498	8000111c	0148b4b3	sltu	x9,x17,x20	 x17:0xd9ce9fc4 x20:0x00000008  x9=0x00000000
       25005000	      2499	80001120	91a6b413	sltiu	x8,x13,-1766	 x13:0x00000000  x8=0x00000001
       25015000	      2500	80001124	2d2d8e13	addi	x28,x27,722	 x27:0x00000001 x28=0x000002d3
       25025000	      2501	80001128	04f4e063	bltu	x9,x15,80001168	  x9:0x00000000 x15:0x677408b4
       25035000	      2502	00000000	00000013	addi	x0,x0,0	  x0:0x00000000
       25045000	      2503	80001164	00000013	addi	x0,x0,0	  x0:0x00000000
       25055000	      2504	80001168	f35de217	auipc	x4,0xf35de	  x4=0x735df164
       25065000	      2505	8000116c	00901cb3	sll	x25,x0,x9	  x0:0x00000000  x9:0x00000000 x25=0x00000000
       25075000	      2506	80001170	4ae64937	lui	x18,0x4ae64	 x18=0x4ae64000
       25085000	      2507	80001174	017ca733	slt	x14,x25,x23	 x25:0x00000000 x23:0x00000000 x14=0x00000000
       25095000	      2508	80001178	b483ba13	sltiu	x20,x7,-1208	  x7:0xfffffffc x20=0x00000000
       25105000	      2509	8000117c	03b1e063	bltu	x3,x27,8000119c	  x3:0x00000000 x27:0x00000001
       25115000	      2510	00000000	00000013	addi	x0,x0,0	  x0:0x00000000
       25125000	      2511	80001198	00000013	addi	x0,x0,0	  x0:0x00000000
       25135000	      2512	8000119c	40078a33	sub	x20,x15,x0	 x15:0x677408b4  x0:0x00000000 x20=0x677408b4
       25145000	      2513	800011a0	eea1be13	sltiu	x28,x3,-278	  x3:0x00000000 x28=0x00000001
       25155000	      2514	800011a4	01755a93	srli	x21,x10,0x17	 x10:0x00000000 x21=0x00000000
       25165000	      2515	800011a8	f0630193	addi	x3,x6,-250	  x6:0xfffffff4  x3=0xfffffefa
       25175000	      2516	800011ac	00f0d0b3	srl	x1,x1,x15	  x1:0x00000000 x15:0x677408b4  x1=0x00000000
       25185000	      2517	800011b0	a7dec197	auipc	x3,0xa7dec	  x3=0x27ded1ac
       25195000	      2518	800011b4	00000013	addi	x0,x0,0	  x0:0x00000000
       25205000	      2519	800011b8	0177e463	bltu	x15,x23,800011c0	 x15:0x677408b4 x23:0x00000000
       25215000	      2520	800011bc	00569b93	slli	x23,x13,0x5	 x13:0x00000000 x23=0x00000000
       25225000	      2521	800011c0	007f1913	slli	x18,x30,0x7	 x30:0x00000000 x18=0x00000000
       25235000	      2522	800011c4	050bd663	bge	x23,x16,80001210	 x23:0x00000000 x16:0xe12c1000
       25245000	      2523	00000000	00000013	addi	x0,x0,0	  x0:0x00000000
       25255000	      2524	8000120c	00000013	addi	x0,x0,0	  x0:0x00000000
       25265000	      2525	80001210	411d81b3	sub	x3,x27,x17	 x27:0x00000001 x17:0xd9ce9fc4  x3=0x2631603d
       25275000	      2526	80001214	24a57937	lui	x18,0x24a57	 x18=0x24a57000
       25285000	      2527	80001218	0007bbb3	sltu	x23,x15,x0	 x15:0x677408b4  x0:0x00000000 x23=0x00000000
       25295000	      2528	8000121c	0085fe33	and	x28,x11,x8	 x11:0xffffffff  x8:0x00000001 x28=0x00000001
       25305000	      2529	80001220	0bae2613	slti	x12,x28,186	 x28:0x00000001 x12=0x00000001
       25315000	      2530	80001224	025cd663	bge	x25,x5,80001250	 x25:0x00000000  x5:0xfffc004d
       25325000	      2531	00000000	00000013	addi	x0,x0,0	  x0:0x00000000
       25335000	      2532	8000124c	00000013	addi	x0,x0,0	  x0:0x00000000
       25345000	      2533	80001250	0168de13	srli	x28,x17,0x16	 x17:0xd9ce9fc4 x28=0x00000367
       25355000	      2534	80001254	01439293	slli	x5,x7,0x14	  x7:0xfffffffc  x5=0xffc00000
       25365000	      2535	80001258	bbfd8113	addi	x2,x27,-1089	 x27:0x00000001  x2=0xfffffbc0
       25375000	      2536	8000125c	0083c733	xor	x14,x7,x8	  x7:0xfffffffc  x8:0x00000001 x14=0xfffffffd
       25385000	      2537	80001260	bbca0913	addi	x18,x20,-1092	 x20:0x677408b4 x18=0x67740470
       25395000	      2538	80001264	405c7197	auipc	x3,0x405c7	  x3=0xc05c8260
       25405000	      2539	80001268	01f2f1b3	and	x3,x5,x31	  x5:0xffc00000 x31:0x00000001  x3=0x00000000
       25415000	      2540	8000126c	a7ebee37	lui	x28,0xa7ebe	 x28=0xa7ebe000
       25425000	      2541	80001270	001226b3	slt	x13,x4,x1	  x4:0x735df164  x1:0x00000000 x13=0x00000000
       25435000	      2542	80001274	4019dd13	srai	x26,x19,0x1	 x19:0x00000001 x26=0x00000000
       25445000	      2543	80001278	ffd00393	addi	x7,x0,-3	  x0:0x00000000  x7=0xfffffffd
       25455000	      2544	8000127c	e04e6237	lui	x4,0xe04e6	  x4=0xe04e6000
       25465000	      2545	80001280	01386bb3	or	x23,x16,x19	 x16:0xe12c1000 x19:0x00000001 x23=0xe12c1001
       25475000	      2546	80001284	0ff4cb17	auipc	x22,0xff4c	 x22=0x8ff4d280
       25485000	      2547	80001288	011d04b3	add	x9,x26,x17	 x26:0x00000000 x17:0xd9ce9fc4  x9=0xd9ce9fc4
       25495000	      2548	8000128c	0108c133	xor	x2,x17,x16	 x17:0xd9ce9fc4 x16:0xe12c1000  x2=0x38e28fc4
       25505000	      2549	80001290	ff400713	addi	x14,x0,-12	  x0:0x00000000 x14=0xfffffff4
       25515000	      2550	80001294	79b83313	sltiu	x6,x16,1947	 x16:0xe12c1000  x6=0x00000000
       25525000	      2551	80001298	4001d013	srai	x0,x3,0x0	  x3:0x00000000
       25535000	      2552	8000129c	b692aa97	auipc	x21,0xb692a	 x21=0x3692b298
       25545000	      2553	800012a0	00191813	slli	x16,x18,0x1	 x18:0x67740470 x16=0xcee808e0
       25555000	      2554	800012a4	00272b33	slt	x22,x14,x2	 x14:0xfffffff4  x2:0x38e28fc4 x22=0x00000001
       25565000	      2555	800012a8	01c55093	srli	x1,x10,0x1c	 x10:0x00000000  x1=0x00000000
       25575000	      2556	800012ac	41d6da13	srai	x20,x13,0x1d	 x13:0x00000000 x20=0x00000000
       25585000	      2557	800012b0	e3062613	slti	x12,x12,-464	 x12:0x00000001 x12=0x00000000
       25595000	      2558	800012b4	1033ba13	sltiu	x20,x7,259	  x7:0xfffffffd x20=0x00000000
       25605000	      2559	800012b8	012ded33	or	x26,x27,x18	 x27:0x00000001 x18:0x67740470 x26=0x67740471
       25615000	      2560	800012bc	c80ea193	slti	x3,x29,-896	 x29:0x80009fc4  x3=0x00000001
       25625000	      2561	800012c0	53f35017	auipc	x0,0x53f35	
       25635000	      2562	800012c4	ff738393	addi	x7,x7,-9	  x7:0xfffffffd  x7=0xfffffff4
       25645000	      2563	800012c8	933ce313	ori	x6,x25,-1741	 x25:0x00000000  x6=0xfffff933
       25655000	      2564	800012cc	ffa00293	addi	x5,x0,-6	  x0:0x00000000  x5=0xfffffffa
       25665000	      2565	800012d0	4155d633	sra	x12,x11,x21	 x11:0xffffffff x21:0x3692b298 x12=0xffffffff
       25675000	      2566	800012d4	05140413	addi	x8,x8,81	  x8:0x00000001  x8=0x00000052
       25685000	      2567	800012d8	009acab3	xor	x21,x21,x9	 x21:0x3692b298  x9:0xd9ce9fc4 x21=0xef5c2d5c
       25695000	      2568	800012dc	7a157f93	andi	x31,x10,1953	 x10:0x00000000 x31=0x00000000
       25705000	      2569	800012e0	00600693	addi	x13,x0,6	  x0:0x00000000 x13=0x00000006
       25715000	      2570	800012e4	01c9dd93	srli	x27,x19,0x1c	 x19:0x00000001 x27=0x00000000
       25725000	      2571	800012e8	24a35097	auipc	x1,0x24a35	  x1=0xa4a362e4
       25735000	      2572	800012ec	00072ab3	slt	x21,x14,x0	 x14:0xfffffff4  x0:0x00000000 x21=0x00000001
       25745000	      2573	800012f0	00a28293	addi	x5,x5,10	  x5:0xfffffffa  x5=0x00000004
       25755000	      2574	800012f4	fed2eae3	bltu	x5,x13,800012e8	  x5:0x00000004 x13:0x00000006
       25765000	      2575	00000000	00000013	addi	x0,x0,0	  x0:0x00000000
       25775000	      2576	800012e4	00000013	addi	x0,x0,0	  x0:0x00000000
       25785000	      2577	800012e8	24a35097	auipc	x1,0x24a35	  x1=0xa4a362e4
       25795000	      2578	800012ec	00072ab3	slt	x21,x14,x0	 x14:0xfffffff4  x0:0x00000000 x21=0x00000001
       25805000	      2579	800012f0	00a28293	addi	x5,x5,10	  x5:0x00000004  x5=0x0000000e
       25815000	      2580	800012f4	fed2eae3	bltu	x5,x13,800012e8	  x5:0x0000000e x13:0x00000006
       25825000	      2581	800012f8	f8e38ee3	beq	x7,x14,80001294	  x7:0xfffffff4 x14:0xfffffff4
       25835000	      2582	00000000	00000013	addi	x0,x0,0	  x0:0x00000000
       25845000	      2583	80001290	00000013	addi	x0,x0,0	  x0:0x00000000
       25855000	      2584	80001294	79b83313	sltiu	x6,x16,1947	 x16:0xcee808e0  x6=0x00000000
       25865000	      2585	80001298	4001d013	srai	x0,x3,0x0	  x3:0x00000001
       25875000	      2586	8000129c	b692aa97	auipc	x21,0xb692a	 x21=0x3692b298
       25885000	      2587	800012a0	00191813	slli	x16,x18,0x1	 x18:0x67740470 x16=0xcee808e0
       25895000	      2588	800012a4	00272b33	slt	x22,x14,x2	 x14:0xfffffff4  x2:0x38e28fc4 x22=0x00000001
       25905000	      2589	800012a8	01c55093	srli	x1,x10,0x1c	 x10:0x00000000  x1=0x00000000
       25915000	      2590	800012ac	41d6da13	srai	x20,x13,0x1d	 x13:0x00000006 x20=0x00000000
       25925000	      2591	800012b0	e3062613	slti	x12,x12,-464	 x12:0xffffffff x12=0x00000000
       25935000	      2592	800012b4	1033ba13	sltiu	x20,x7,259	  x7:0xfffffff4 x20=0x00000000
       25945000	      2593	800012b8	012ded33	or	x26,x27,x18	 x27:0x00000000 x18:0x67740470 x26=0x67740470
       25955000	      2594	800012bc	c80ea193	slti	x3,x29,-896	 x29:0x80009fc4  x3=0x00000001
       25965000	      2595	800012c0	53f35017	auipc	x0,0x53f35	
       25975000	      2596	800012c4	ff738393	addi	x7,x7,-9	  x7:0xfffffff4  x7=0xffffffeb
       25985000	      2597	800012c8	933ce313	ori	x6,x25,-1741	 x25:0x00000000  x6=0xfffff933
       25995000	      2598	800012cc	ffa00293	addi	x5,x0,-6	  x0:0x00000000  x5=0xfffffffa
       26005000	      2599	800012d0	4155d633	sra	x12,x11,x21	 x11:0xffffffff x21:0x3692b298 x12=0xffffffff
       26015000	      2600	800012d4	05140413	addi	x8,x8,81	  x8:0x00000052  x8=0x000000a3
       26025000	      2601	800012d8	009acab3	xor	x21,x21,x9	 x21:0x3692b298  x9:0xd9ce9fc4 x21=0xef5c2d5c
       26035000	      2602	800012dc	7a157f93	andi	x31,x10,1953	 x10:0x00000000 x31=0x00000000
       26045000	      2603	800012e0	00600693	addi	x13,x0,6	  x0:0x00000000 x13=0x00000006
       26055000	      2604	800012e4	01c9dd93	srli	x27,x19,0x1c	 x19:0x00000001 x27=0x00000000
       26065000	      2605	800012e8	24a35097	auipc	x1,0x24a35	  x1=0xa4a362e4
       26075000	      2606	800012ec	00072ab3	slt	x21,x14,x0	 x14:0xfffffff4  x0:0x00000000 x21=0x00000001
       26085000	      2607	800012f0	00a28293	addi	x5,x5,10	  x5:0xfffffffa  x5=0x00000004
       26095000	      2608	800012f4	fed2eae3	bltu	x5,x13,800012e8	  x5:0x00000004 x13:0x00000006
       26105000	      2609	00000000	00000013	addi	x0,x0,0	  x0:0x00000000
       26115000	      2610	800012e4	00000013	addi	x0,x0,0	  x0:0x00000000
       26125000	      2611	800012e8	24a35097	auipc	x1,0x24a35	  x1=0xa4a362e4
       26135000	      2612	800012ec	00072ab3	slt	x21,x14,x0	 x14:0xfffffff4  x0:0x00000000 x21=0x00000001
       26145000	      2613	800012f0	00a28293	addi	x5,x5,10	  x5:0x00000004  x5=0x0000000e
       26155000	      2614	800012f4	fed2eae3	bltu	x5,x13,800012e8	  x5:0x0000000e x13:0x00000006
       26165000	      2615	800012f8	f8e38ee3	beq	x7,x14,80001294	  x7:0xffffffeb x14:0xfffffff4
       26175000	      2616	800012fc	2d993d93	sltiu	x27,x18,729	 x18:0x67740470 x27=0x00000000
       26185000	      2617	80001300	a4df4493	xori	x9,x30,-1459	 x30:0x00000000  x9=0xfffffa4d
       26195000	      2618	80001304	41ddd913	srai	x18,x27,0x1d	 x27:0x00000000 x18=0x00000000
       26205000	      2619	80001308	a7c0c093	xori	x1,x1,-1412	  x1:0xa4a362e4  x1=0x5b5c9898
       26215000	      2620	8000130c	457bcc93	xori	x25,x23,1111	 x23:0xe12c1001 x25=0xe12c1456
       26225000	      2621	80001310	85aa3693	sltiu	x13,x20,-1958	 x20:0x00000000 x13=0x00000001
       26235000	      2622	80001314	00000013	addi	x0,x0,0	  x0:0x00000000
       26245000	      2623	80001318	01b2a133	slt	x2,x5,x27	  x5:0x0000000e x27:0x00000000  x2=0x00000000
       26255000	      2624	8000131c	06f0fc63	bgeu	x1,x15,80001394	  x1:0x5b5c9898 x15:0x677408b4
       26265000	      2625	80001320	00000013	addi	x0,x0,0	  x0:0x00000000
       26275000	      2626	80001324	00ce0333	add	x6,x28,x12	 x28:0xa7ebe000 x12:0xffffffff  x6=0xa7ebdfff
       26285000	      2627	80001328	abfab813	sltiu	x16,x21,-1345	 x21:0x00000001 x16=0x00000001
       26295000	      2628	8000132c	00900b13	addi	x22,x0,9	  x0:0x00000000 x22=0x00000009
       26305000	      2629	80001330	486fff93	andi	x31,x31,1158	 x31:0x00000000 x31=0x00000000
       26315000	      2630	80001334	0029fe33	and	x28,x19,x2	 x19:0x00000001  x2:0x00000000 x28=0x00000000
       26325000	      2631	80001338	00800413	addi	x8,x0,8	  x0:0x00000000  x8=0x00000008
       26335000	      2632	8000133c	00b8d913	srli	x18,x17,0xb	 x17:0xd9ce9fc4 x18=0x001b39d3
       26345000	      2633	80001340	019ee133	or	x2,x29,x25	 x29:0x80009fc4 x25:0xe12c1456  x2=0xe12c9fd6
       26355000	      2634	80001344	ffdb0b13	addi	x22,x22,-3	 x22:0x00000009 x22=0x00000006
       26365000	      2635	80001348	f6558393	addi	x7,x11,-155	 x11:0xffffffff  x7=0xffffff64
       26375000	      2636	8000134c	00300c93	addi	x25,x0,3	  x0:0x00000000 x25=0x00000003
       26385000	      2637	80001350	c69bc017	auipc	x0,0xc69bc	
       26395000	      2638	80001354	0114a1b3	slt	x3,x9,x17	  x9:0xfffffa4d x17:0xd9ce9fc4  x3=0x00000000
       26405000	      2639	80001358	00800813	addi	x16,x0,8	  x0:0x00000000 x16=0x00000008
       26415000	      2640	8000135c	01532033	slt	x0,x6,x21	  x6:0xa7ebdfff x21:0x00000001
       26425000	      2641	80001360	002cc533	xor	x10,x25,x2	 x25:0x00000003  x2:0xe12c9fd6 x10=0xe12c9fd5
       26435000	      2642	80001364	00dfbf33	sltu	x30,x31,x13	 x31:0x00000000 x13:0x00000001 x30=0x00000001
       26445000	      2643	80001368	005c8c93	addi	x25,x25,5	 x25:0x00000003 x25=0x00000008
       26455000	      2644	8000136c	ff0c9ae3	bne	x25,x16,80001360	 x25:0x00000008 x16:0x00000008
       26465000	      2645	80001370	44d7b913	sltiu	x18,x15,1101	 x15:0x677408b4 x18=0x00000000
       26475000	      2646	80001374	00000013	addi	x0,x0,0	  x0:0x00000000
       26485000	      2647	80001378	4135dab3	sra	x21,x11,x19	 x11:0xffffffff x19:0x00000001 x21=0xffffffff
       26495000	      2648	8000137c	01445db3	srl	x27,x8,x20	  x8:0x00000008 x20:0x00000000 x27=0x00000008
       26505000	      2649	80001380	fc8b70e3	bgeu	x22,x8,80001340	 x22:0x00000006  x8:0x00000008
       26515000	      2650	80001384	00e60fb3	add	x31,x12,x14	 x12:0xffffffff x14:0xfffffff4 x31=0xfffffff3
       26525000	      2651	80001388	b25f3917	auipc	x18,0xb25f3	 x18=0x325f4384
       26535000	      2652	8000138c	03b40063	beq	x8,x27,800013ac	  x8:0x00000008 x27:0x00000008
       26545000	      2653	00000000	00000013	addi	x0,x0,0	  x0:0x00000000
       26555000	      2654	800013a8	00000013	addi	x0,x0,0	  x0:0x00000000
       26565000	      2655	800013ac	00000013	addi	x0,x0,0	  x0:0x00000000
       26575000	      2656	800013b0	009b7433	and	x8,x22,x9	 x22:0x00000006  x9:0xfffffa4d  x8=0x00000004
       26585000	      2657	800013b4	4030d813	srai	x16,x1,0x3	  x1:0x5b5c9898 x16=0x0b6b9313
       26595000	      2658	800013b8	01044f33	xor	x30,x8,x16	  x8:0x00000004 x16:0x0b6b9313 x30=0x0b6b9317
       26605000	      2659	800013bc	012e1833	sll	x16,x28,x18	 x28:0x00000000 x18:0x325f4384 x16=0x00000000
       26615000	      2660	800013c0	01eb3133	sltu	x2,x22,x30	 x22:0x00000006 x30:0x0b6b9317  x2=0x00000001
       26625000	      2661	800013c4	cbb5ca93	xori	x21,x11,-837	 x11:0xffffffff x21=0x00000344
       26635000	      2662	800013c8	412a8e33	sub	x28,x21,x18	 x21:0x00000344 x18:0x325f4384 x28=0xcda0bfc0
       26645000	      2663	800013cc	01064633	xor	x12,x12,x16	 x12:0xffffffff x16:0x00000000 x12=0xffffffff
       26655000	      2664	800013d0	41445d13	srai	x26,x8,0x14	  x8:0x00000004 x26=0x00000000
       26665000	      2665	800013d4	02c51e63	bne	x10,x12,80001410	 x10:0xe12c9fd5 x12:0xffffffff
       26675000	      2666	00000000	00000013	addi	x0,x0,0	  x0:0x00000000
       26685000	      2667	8000140c	00000013	addi	x0,x0,0	  x0:0x00000000
       26695000	      2668	80001410	48d5e1b7	lui	x3,0x48d5e	  x3=0x48d5e000
       26705000	      2669	80001414	005ba3b3	slt	x7,x23,x5	 x23:0xe12c1001  x5:0x0000000e  x7=0x00000001
       26715000	      2670	80001418	408d5a13	srai	x20,x26,0x8	 x26:0x00000000 x20=0x00000000
       26725000	      2671	8000141c	00a578b3	and	x17,x10,x10	 x10:0xe12c9fd5 x10:0xe12c9fd5 x17=0xe12c9fd5
       26735000	      2672	80001420	00f9df13	srli	x30,x19,0xf	 x19:0x00000001 x30=0x00000000
       26745000	      2673	80001424	da2a3293	sltiu	x5,x20,-606	 x20:0x00000000  x5=0x00000001
       26755000	      2674	80001428	00000013	addi	x0,x0,0	  x0:0x00000000
       26765000	      2675	8000142c	00dbcbb3	xor	x23,x23,x13	 x23:0xe12c1001 x13:0x00000001 x23=0xe12c1000
       26775000	      2676	80001430	04b94463	blt	x18,x11,80001478	 x18:0x325f4384 x11:0xffffffff
       26785000	      2677	80001434	03ee25b7	lui	x11,0x3ee2	 x11=0x03ee2000
       26795000	      2678	80001438	00445213	srli	x4,x8,0x4	  x8:0x00000004  x4=0x00000000
       26805000	      2679	8000143c	016409b3	add	x19,x8,x22	  x8:0x00000004 x22:0x00000006 x19=0x0000000a
       26815000	      2680	80001440	00e59033	sll	x0,x11,x14	 x11:0x03ee2000 x14:0xfffffff4
       26825000	      2681	80001444	01799233	sll	x4,x19,x23	 x19:0x0000000a x23:0xe12c1000  x4=0x0000000a
       26835000	      2682	80001448	0186fab3	and	x21,x13,x24	 x13:0x00000001 x24:0x80009f1c x21=0x00000000
       26845000	      2683	8000144c	008d1893	slli	x17,x26,0x8	 x26:0x00000000 x17=0x00000000
       26855000	      2684	80001450	872ea193	slti	x3,x29,-1934	 x29:0x80009fc4  x3=0x00000001
       26865000	      2685	80001454	402a58b3	sra	x17,x20,x2	 x20:0x00000000  x2:0x00000001 x17=0x00000000
       26875000	      2686	80001458	49dc7f13	andi	x30,x24,1181	 x24:0x80009f1c x30=0x0000041c
       26885000	      2687	8000145c	9516e293	ori	x5,x13,-1711	 x13:0x00000001  x5=0xfffff951
       26895000	      2688	80001460	00861933	sll	x18,x12,x8	 x12:0xffffffff  x8:0x00000004 x18=0xfffffff0
       26905000	      2689	80001464	32b00513	addi	x10,x0,811	  x0:0x00000000 x10=0x0000032b
       26915000	      2690	80001468	00536f33	or	x30,x6,x5	  x6:0xa7ebdfff  x5:0xfffff951 x30=0xffffffff
       26925000	      2691	8000146c	00000013	addi	x0,x0,0	  x0:0x00000000
       26935000	      2692	80001470	03b7ee63	bltu	x15,x27,800014ac	 x15:0x677408b4 x27:0x00000008
       26945000	      2693	80001474	01f74a33	xor	x20,x14,x31	 x14:0xfffffff4 x31:0xfffffff3 x20=0x00000007
       26955000	      2694	80001478	00000013	addi	x0,x0,0	  x0:0x00000000
       26965000	      2695	8000147c	9e4d7413	andi	x8,x26,-1564	 x26:0x00000000  x8=0x00000000
       26975000	      2696	80001480	000850b3	srl	x1,x16,x0	 x16:0x00000000  x0:0x00000000  x1=0x00000000
       26985000	      2697	80001484	4049d493	srai	x9,x19,0x4	 x19:0x0000000a  x9=0x00000000
       26995000	      2698	80001488	00e0e833	or	x16,x1,x14	  x1:0x00000000 x14:0xfffffff4 x16=0xfffffff4
       27005000	      2699	8000148c	0187b633	sltu	x12,x15,x24	 x15:0x677408b4 x24:0x80009f1c x12=0x00000001
       27015000	      2700	80001490	01557663	bgeu	x10,x21,8000149c	 x10:0x0000032b x21:0x00000000
       27025000	      2701	00000000	00000013	addi	x0,x0,0	  x0:0x00000000
       27035000	      2702	80001498	00000013	addi	x0,x0,0	  x0:0x00000000
       27045000	      2703	8000149c	031f4063	blt	x30,x17,800014bc	 x30:0xffffffff x17:0x00000000
       27055000	      2704	00000000	00000013	addi	x0,x0,0	  x0:0x00000000
       27065000	      2705	800014b8	00000013	addi	x0,x0,0	  x0:0x00000000
       27075000	      2706	800014bc	01538d33	add	x26,x7,x21	  x7:0x00000001 x21:0x00000000 x26=0x00000001
       27085000	      2707	800014c0	01819fb3	sll	x31,x3,x24	  x3:0x00000001 x24:0x80009f1c x31=0x10000000
       27095000	      2708	800014c4	02197263	bgeu	x18,x1,800014e8	 x18:0xfffffff0  x1:0x00000000
       27105000	      2709	00000000	00000013	addi	x0,x0,0	  x0:0x00000000
       27115000	      2710	800014e4	00000013	addi	x0,x0,0	  x0:0x00000000
       27125000	      2711	800014e8	011af433	and	x8,x21,x17	 x21:0x00000000 x17:0x00000000  x8=0x00000000
       27135000	      2712	800014ec	00760463	beq	x12,x7,800014f4	 x12:0x00000001  x7:0x00000001
       27145000	      2713	00000000	00000013	addi	x0,x0,0	  x0:0x00000000
       27155000	      2714	800014f0	00000013	addi	x0,x0,0	  x0:0x00000000
       27165000	      2715	800014f4	03a75063	bge	x14,x26,80001514	 x14:0xfffffff4 x26:0x00000001
       27175000	      2716	800014f8	040e8063	beq	x29,x0,80001538	 x29:0x80009fc4  x0:0x00000000
       27185000	      2717	800014fc	41d2d433	sra	x8,x5,x29	  x5:0xfffff951 x29:0x80009fc4  x8=0xffffff95
       27195000	      2718	80001500	013fd463	bge	x31,x19,80001508	 x31:0x10000000 x19:0x0000000a
       27205000	      2719	00000000	00000013	addi	x0,x0,0	  x0:0x00000000
       27215000	      2720	80001504	00000013	addi	x0,x0,0	  x0:0x00000000
       27225000	      2721	80001508	05075863	bge	x14,x16,80001558	 x14:0xfffffff4 x16:0xfffffff4
       27235000	      2722	00000000	00000013	addi	x0,x0,0	  x0:0x00000000
       27245000	      2723	80001554	00000013	addi	x0,x0,0	  x0:0x00000000
       27255000	      2724	80001558	042d1863	bne	x26,x2,800015a8	 x26:0x00000001  x2:0x00000001
       27265000	      2725	8000155c	040a4663	blt	x20,x0,800015a8	 x20:0x00000007  x0:0x00000000
       27275000	      2726	80001560	01c67033	and	x0,x12,x28	 x12:0x00000001 x28:0xcda0bfc0
       27285000	      2727	80001564	7aac0413	addi	x8,x24,1962	 x24:0x80009f1c  x8=0x8000a6c6
       27295000	      2728	80001568	01605813	srli	x16,x0,0x16	  x0:0x00000000 x16=0x00000000
       27305000	      2729	8000156c	007b1893	slli	x17,x22,0x7	 x22:0x00000006 x17=0x00000300
       27315000	      2730	80001570	0267c063	blt	x15,x6,80001590	 x15:0x677408b4  x6:0xa7ebdfff
       27325000	      2731	80001574	00596663	bltu	x18,x5,80001580	 x18:0xfffffff0  x5:0xfffff951
       27335000	      2732	80001578	01240e63	beq	x8,x18,80001594	  x8:0x8000a6c6 x18:0xfffffff0
       27345000	      2733	8000157c	01e69113	slli	x2,x13,0x1e	 x13:0x00000001  x2=0x40000000
       27355000	      2734	80001580	010ce133	or	x2,x25,x16	 x25:0x00000008 x16:0x00000000  x2=0x00000008
       27365000	      2735	80001584	40b902b3	sub	x5,x18,x11	 x18:0xfffffff0 x11:0x03ee2000  x5=0xfc11dff0
       27375000	      2736	80001588	02d26863	bltu	x4,x13,800015b8	  x4:0x0000000a x13:0x00000001
       27385000	      2737	8000158c	00769513	slli	x10,x13,0x7	 x13:0x00000001 x10=0x00000080
       27395000	      2738	80001590	b04c0193	addi	x3,x24,-1276	 x24:0x80009f1c  x3=0x80009a20
       27405000	      2739	80001594	c4196b13	ori	x22,x18,-959	 x18:0xfffffff0 x22=0xfffffff1
       27415000	      2740	80001598	87a8a893	slti	x17,x17,-1926	 x17:0x00000300 x17=0x00000000
       27425000	      2741	8000159c	05264863	blt	x12,x18,800015ec	 x12:0x00000001 x18:0xfffffff0
       27435000	      2742	800015a0	88864693	xori	x13,x12,-1912	 x12:0x00000001 x13=0xfffff889
       27445000	      2743	800015a4	0184a3b3	slt	x7,x9,x24	  x9:0x00000000 x24:0x80009f1c  x7=0x00000000
       27455000	      2744	800015a8	00fe9463	bne	x29,x15,800015b0	 x29:0x80009fc4 x15:0x677408b4
       27465000	      2745	00000000	00000013	addi	x0,x0,0	  x0:0x00000000
       27475000	      2746	800015ac	00000013	addi	x0,x0,0	  x0:0x00000000
       27485000	      2747	800015b0	33158993	addi	x19,x11,817	 x11:0x03ee2000 x19=0x03ee2331
       27495000	      2748	800015b4	023b1063	bne	x22,x3,800015d4	 x22:0xfffffff1  x3:0x80009a20
       27505000	      2749	00000000	00000013	addi	x0,x0,0	  x0:0x00000000
       27515000	      2750	800015d0	00000013	addi	x0,x0,0	  x0:0x00000000
       27525000	      2751	800015d4	03491e63	bne	x18,x20,80001610	 x18:0xfffffff0 x20:0x00000007
       27535000	      2752	00000000	00000013	addi	x0,x0,0	  x0:0x00000000
       27545000	      2753	8000160c	00000013	addi	x0,x0,0	  x0:0x00000000
       27555000	      2754	80001610	00c20c63	beq	x4,x12,80001628	  x4:0x0000000a x12:0x00000001
       27565000	      2755	80001614	0144e233	or	x4,x9,x20	  x9:0x00000000 x20:0x00000007  x4=0x00000007
       27575000	      2756	80001618	01815463	bge	x2,x24,80001620	  x2:0x00000008 x24:0x80009f1c
       27585000	      2757	00000000	00000013	addi	x0,x0,0	  x0:0x00000000
       27595000	      2758	8000161c	00000013	addi	x0,x0,0	  x0:0x00000000
       27605000	      2759	80001620	00c6df33	srl	x30,x13,x12	 x13:0xfffff889 x12:0x00000001 x30=0x7ffffc44
       27615000	      2760	80001624	892f3393	sltiu	x7,x30,-1902	 x30:0x7ffffc44  x7=0x00000001
       27625000	      2761	80001628	6e2d1497	auipc	x9,0x6e2d1	  x9=0xee2d2624
       27635000	      2762	8000162c	01869f33	sll	x30,x13,x24	 x13:0xfffff889 x24:0x80009f1c x30=0x90000000
       27645000	      2763	80001630	44ccf393	andi	x7,x25,1100	 x25:0x00000008  x7=0x00000008
       27655000	      2764	80001634	009cdcb3	srl	x25,x25,x9	 x25:0x00000008  x9:0xee2d2624 x25=0x00000000
       27665000	      2765	80001638	410c0e33	sub	x28,x24,x16	 x24:0x80009f1c x16:0x00000000 x28=0x80009f1c
       27675000	      2766	8000163c	00496233	or	x4,x18,x4	 x18:0xfffffff0  x4:0x00000007  x4=0xfffffff7
       27685000	      2767	80001640	8edf2c97	auipc	x25,0x8edf2	 x25=0x0edf363c
       27695000	      2768	80001644	01472733	slt	x14,x14,x20	 x14:0xfffffff4 x20:0x00000007 x14=0x00000001
       27705000	      2769	80001648	ec392e17	auipc	x28,0xec392	 x28=0x6c393644
       27715000	      2770	8000164c	42ec7013	andi	x0,x24,1070	 x24:0x80009f1c
       27725000	      2771	80001650	e5a34f13	xori	x30,x6,-422	  x6:0xa7ebdfff x30=0x581421a5
       27735000	      2772	80001654	00419213	slli	x4,x3,0x4	  x3:0x80009a20  x4=0x0009a200
       27745000	      2773	80001658	0376c463	blt	x13,x23,80001680	 x13:0xfffff889 x23:0xe12c1000
       27755000	      2774	8000165c	41bcda93	srai	x21,x25,0x1b	 x25:0x0edf363c x21=0x00000001
       27765000	      2775	80001660	d21d2717	auipc	x14,0xd21d2	 x14=0x521d365c
       27775000	      2776	80001664	0a79ed17	auipc	x26,0xa79e	 x26=0x8a79f660
       27785000	      2777	80001668	001f1693	slli	x13,x30,0x1	 x30:0x581421a5 x13=0xb028434a
       27795000	      2778	8000166c	7494ba93	sltiu	x21,x9,1865	  x9:0xee2d2624 x21=0x00000000
       27805000	      2779	80001670	00df1993	slli	x19,x30,0xd	 x30:0x581421a5 x19=0x8434a000
       27815000	      2780	80001674	01454e63	blt	x10,x20,80001690	 x10:0x00000080 x20:0x00000007
       27825000	      2781	80001678	a4354b13	xori	x22,x10,-1469	 x10:0x00000080 x22=0xfffffac3
       27835000	      2782	8000167c	00ef9a93	slli	x21,x31,0xe	 x31:0x10000000 x21=0x00000000
       27845000	      2783	80001680	07a57663	bgeu	x10,x26,800016ec	 x10:0x00000080 x26:0x8a79f660
       27855000	      2784	80001684	001ff5b3	and	x11,x31,x1	 x31:0x10000000  x1:0x00000000 x11=0x00000000
       27865000	      2785	80001688	01c66013	ori	x0,x12,28	 x12:0x00000001
       27875000	      2786	8000168c	01a4a733	slt	x14,x9,x26	  x9:0xee2d2624 x26:0x8a79f660 x14=0x00000000
       27885000	      2787	80001690	0173bab3	sltu	x21,x7,x23	  x7:0x00000008 x23:0xe12c1000 x21=0x00000001
       27895000	      2788	80001694	efdae913	ori	x18,x21,-259	 x21:0x00000001 x18=0xfffffefd
       27905000	      2789	80001698	00300613	addi	x12,x0,3	  x0:0x00000000 x12=0x00000003
       27915000	      2790	8000169c	ffe00813	addi	x16,x0,-2	  x0:0x00000000 x16=0xfffffffe
       27925000	      2791	800016a0	006953b3	srl	x7,x18,x6	 x18:0xfffffefd  x6:0xa7ebdfff  x7=0x00000001
       27935000	      2792	800016a4	a1b54b13	xori	x22,x10,-1509	 x10:0x00000080 x22=0xfffffa9b
       27945000	      2793	800016a8	2973f593	andi	x11,x7,663	  x7:0x00000001 x11=0x00000001
       27955000	      2794	800016ac	01f6fe33	and	x28,x13,x31	 x13:0xb028434a x31:0x10000000 x28=0x10000000
       27965000	      2795	800016b0	cfdb8997	auipc	x19,0xcfdb8	 x19=0x4fdb96ac
       27975000	      2796	800016b4	3f71e393	ori	x7,x3,1015	  x3:0x80009a20  x7=0x80009bf7
       27985000	      2797	800016b8	00b4d8b3	srl	x17,x9,x11	  x9:0xee2d2624 x11:0x00000001 x17=0x77169312
       27995000	      2798	800016bc	01b61a93	slli	x21,x12,0x1b	 x12:0x00000003 x21=0x18000000
       28005000	      2799	800016c0	ffc60613	addi	x12,x12,-4	 x12:0x00000003 x12=0xffffffff
       28015000	      2800	800016c4	014e4033	xor	x0,x28,x20	 x28:0x10000000 x20:0x00000007
       28025000	      2801	800016c8	ff0654e3	bge	x12,x16,800016b0	 x12:0xffffffff x16:0xfffffffe
       28035000	      2802	00000000	00000013	addi	x0,x0,0	  x0:0x00000000
       28045000	      2803	800016ac	00000013	addi	x0,x0,0	  x0:0x00000000
       28055000	      2804	800016b0	cfdb8997	auipc	x19,0xcfdb8	 x19=0x4fdb96ac
       28065000	      2805	800016b4	3f71e393	ori	x7,x3,1015	  x3:0x80009a20  x7=0x80009bf7
       28075000	      2806	800016b8	00b4d8b3	srl	x17,x9,x11	  x9:0xee2d2624 x11:0x00000001 x17=0x77169312
       28085000	      2807	800016bc	01b61a93	slli	x21,x12,0x1b	 x12:0xffffffff x21=0xf8000000
       28095000	      2808	800016c0	ffc60613	addi	x12,x12,-4	 x12:0xffffffff x12=0xfffffffb
       28105000	      2809	800016c4	014e4033	xor	x0,x28,x20	 x28:0x10000000 x20:0x00000007
       28115000	      2810	800016c8	ff0654e3	bge	x12,x16,800016b0	 x12:0xfffffffb x16:0xfffffffe
       28125000	      2811	800016cc	01321413	slli	x8,x4,0x13	  x4:0x0009a200  x8=0x10000000
       28135000	      2812	800016d0	2d7d6d13	ori	x26,x26,727	 x26:0x8a79f660 x26=0x8a79f6f7
       28145000	      2813	800016d4	04447663	bgeu	x8,x4,80001720	  x8:0x10000000  x4:0x0009a200
       28155000	      2814	00000000	00000013	addi	x0,x0,0	  x0:0x00000000
       28165000	      2815	8000171c	00000013	addi	x0,x0,0	  x0:0x00000000
       28175000	      2816	80001720	00124663	blt	x4,x1,8000172c	  x4:0x0009a200  x1:0x00000000
       28185000	      2817	80001724	40a1d913	srai	x18,x3,0xa	  x3:0x80009a20 x18=0xffe00026
       28195000	      2818	80001728	41e658b3	sra	x17,x12,x30	 x12:0xfffffffb x30:0x581421a5 x17=0xffffffff
       28205000	      2819	8000172c	413f5233	sra	x4,x30,x19	 x30:0x581421a5 x19:0x4fdb96ac  x4=0x00058142
       28215000	      2820	80001730	40415293	srai	x5,x2,0x4	  x2:0x00000008  x5=0x00000000
       28225000	      2821	80001734	62397893	andi	x17,x18,1571	 x18:0xffe00026 x17=0x00000022
       28235000	      2822	80001738	007ac8b3	xor	x17,x21,x7	 x21:0xf8000000  x7:0x80009bf7 x17=0x78009bf7
       28245000	      2823	8000173c	01e35213	srli	x4,x6,0x1e	  x6:0xa7ebdfff  x4=0x00000002
       28255000	      2824	80001740	e1633bb7	lui	x23,0xe1633	 x23=0xe1633000
       28265000	      2825	80001744	4129d9b3	sra	x19,x19,x18	 x19:0x4fdb96ac x18:0xffe00026 x19=0x013f6e5a
       28275000	      2826	80001748	002f39b3	sltu	x19,x30,x2	 x30:0x581421a5  x2:0x00000008 x19=0x00000000
       28285000	      2827	8000174c	023a8063	beq	x21,x3,8000176c	 x21:0xf8000000  x3:0x80009a20
       28295000	      2828	80001750	0041de33	srl	x28,x3,x4	  x3:0x80009a20  x4:0x00000002 x28=0x20002688
       28305000	      2829	80001754	cef34d93	xori	x27,x6,-785	  x6:0xa7ebdfff x27=0x58142310
       28315000	      2830	80001758	007ce463	bltu	x25,x7,80001760	 x25:0x0edf363c  x7:0x80009bf7
       28325000	      2831	00000000	00000013	addi	x0,x0,0	  x0:0x00000000
       28335000	      2832	8000175c	00000013	addi	x0,x0,0	  x0:0x00000000
       28345000	      2833	80001760	019dca63	blt	x27,x25,80001774	 x27:0x58142310 x25:0x0edf363c
       28355000	      2834	80001764	00df1b13	slli	x22,x30,0xd	 x30:0x581421a5 x22=0x8434a000
       28365000	      2835	80001768	0060bd33	sltu	x26,x1,x6	  x1:0x00000000  x6:0xa7ebdfff x26=0x00000001
       28375000	      2836	8000176c	0117f463	bgeu	x15,x17,80001774	 x15:0x677408b4 x17:0x78009bf7
       28385000	      2837	80001770	006d00b3	add	x1,x26,x6	 x26:0x00000001  x6:0xa7ebdfff  x1=0xa7ebe000
       28395000	      2838	80001774	02894063	blt	x18,x8,80001794	 x18:0xffe00026  x8:0x10000000
       28405000	      2839	00000000	00000013	addi	x0,x0,0	  x0:0x00000000
       28415000	      2840	80001790	00000013	addi	x0,x0,0	  x0:0x00000000
       28425000	      2841	80001794	00b79733	sll	x14,x15,x11	 x15:0x677408b4 x11:0x00000001 x14=0xcee81168
       28435000	      2842	80001798	0102fe33	and	x28,x5,x16	  x5:0x00000000 x16:0xfffffffe x28=0x00000000
       28445000	      2843	8000179c	00a46633	or	x12,x8,x10	  x8:0x10000000 x10:0x00000080 x12=0x10000080
       28455000	      2844	800017a0	00ef1313	slli	x6,x30,0xe	 x30:0x581421a5  x6=0x08694000
       28465000	      2845	800017a4	00000013	addi	x0,x0,0	  x0:0x00000000
       28475000	      2846	800017a8	a4976f17	auipc	x30,0xa4976	 x30=0x249777a4
       28485000	      2847	800017ac	416d8cb3	sub	x25,x27,x22	 x27:0x58142310 x22:0x8434a000 x25=0xd3df8310
       28495000	      2848	800017b0	416601b3	sub	x3,x12,x22	 x12:0x10000080 x22:0x8434a000  x3=0x8bcb6080
       28505000	      2849	800017b4	12b1c513	xori	x10,x3,299	  x3:0x8bcb6080 x10=0x8bcb61ab
       28515000	      2850	800017b8	000ca233	slt	x4,x25,x0	 x25:0xd3df8310  x0:0x00000000  x4=0x00000001
       28525000	      2851	800017bc	419b01b3	sub	x3,x22,x25	 x22:0x8434a000 x25:0xd3df8310  x3=0xb0551cf0
       28535000	      2852	800017c0	595df893	andi	x17,x27,1429	 x27:0x58142310 x17=0x00000110
       28545000	      2853	800017c4	4184d6b3	sra	x13,x9,x24	  x9:0xee2d2624 x24:0x80009f1c x13=0xfffffffe
       28555000	      2854	800017c8	05ff8063	beq	x31,x31,80001808	 x31:0x10000000 x31:0x10000000
       28565000	      2855	00000000	00000013	addi	x0,x0,0	  x0:0x00000000
       28575000	      2856	80001804	00000013	addi	x0,x0,0	  x0:0x00000000
       28585000	      2857	80001808	006ac833	xor	x16,x21,x6	 x21:0xf8000000  x6:0x08694000 x16=0xf0694000
       28595000	      2858	8000180c	4162d2b3	sra	x5,x5,x22	  x5:0x00000000 x22:0x8434a000  x5=0x00000000
       28605000	      2859	80001810	00f418b3	sll	x17,x8,x15	  x8:0x10000000 x15:0x677408b4 x17=0x00000000
       28615000	      2860	80001814	09c86d93	ori	x27,x16,156	 x16:0xf0694000 x27=0xf069409c
       28625000	      2861	80001818	00c972b3	and	x5,x18,x12	 x18:0xffe00026 x12:0x10000080  x5=0x10000000
       28635000	      2862	8000181c	00d44c63	blt	x8,x13,80001834	  x8:0x10000000 x13:0xfffffffe
       28645000	      2863	80001820	023cc063	blt	x25,x3,80001840	 x25:0xd3df8310  x3:0xb0551cf0
       28655000	      2864	80001824	01630e33	add	x28,x6,x22	  x6:0x08694000 x22:0x8434a000 x28=0x8c9de000
       28665000	      2865	80001828	0ec02213	slti	x4,x0,236	  x0:0x00000000  x4=0x00000001
       28675000	      2866	8000182c	0349e263	bltu	x19,x20,80001850	 x19:0x00000000 x20:0x00000007
       28685000	      2867	00000000	00000013	addi	x0,x0,0	  x0:0x00000000
       28695000	      2868	8000184c	00000013	addi	x0,x0,0	  x0:0x00000000
       28705000	      2869	80001850	018245b3	xor	x11,x4,x24	  x4:0x00000001 x24:0x80009f1c x11=0x80009f1d
       28715000	      2870	80001854	03e60893	addi	x17,x12,62	 x12:0x10000080 x17=0x100000be
       28725000	      2871	80001858	00c791b3	sll	x3,x15,x12	 x15:0x677408b4 x12:0x10000080  x3=0x677408b4
       28735000	      2872	8000185c	0478e863	bltu	x17,x7,800018ac	 x17:0x100000be  x7:0x80009bf7
       28745000	      2873	00000000	00000013	addi	x0,x0,0	  x0:0x00000000
       28755000	      2874	800018a8	00000013	addi	x0,x0,0	  x0:0x00000000
       28765000	      2875	800018ac	3f708617	auipc	x12,0x3f708	 x12=0xbf7098a8
       28775000	      2876	800018b0	415f5593	srai	x11,x30,0x15	 x30:0x249777a4 x11=0x00000124
       28785000	      2877	800018b4	2493e313	ori	x6,x7,585	  x7:0x80009bf7  x6=0x80009bff
       28795000	      2878	800018b8	201fa293	slti	x5,x31,513	 x31:0x10000000  x5=0x00000000
       28805000	      2879	800018bc	01173b33	sltu	x22,x14,x17	 x14:0xcee81168 x17:0x100000be x22=0x00000000
       28815000	      2880	800018c0	010a9db3	sll	x27,x21,x16	 x21:0xf8000000 x16:0xf0694000 x27=0xf8000000
       28825000	      2881	800018c4	17f97117	auipc	x2,0x17f97	  x2=0x97f988c0
       28835000	      2882	800018c8	018c9693	slli	x13,x25,0x18	 x25:0xd3df8310 x13=0x10000000
       28845000	      2883	800018cc	c969f997	auipc	x19,0xc969f	 x19=0x496a08c8
       28855000	      2884	800018d0	00000013	addi	x0,x0,0	  x0:0x00000000
       28865000	      2885	800018d4	00e98e63	beq	x19,x14,800018f0	 x19:0x496a08c8 x14:0xcee81168
       28875000	      2886	800018d8	00cb4e33	xor	x28,x22,x12	 x22:0x00000000 x12:0xbf7098a8 x28=0xbf7098a8
       28885000	      2887	800018dc	3ea2fb93	andi	x23,x5,1002	  x5:0x00000000 x23=0x00000000
       28895000	      2888	800018e0	013f7b33	and	x22,x30,x19	 x30:0x249777a4 x19:0x496a08c8 x22=0x00020080
       28905000	      2889	800018e4	03985e63	bge	x16,x25,80001920	 x16:0xf0694000 x25:0xd3df8310
       28915000	      2890	00000000	00000013	addi	x0,x0,0	  x0:0x00000000
       28925000	      2891	8000191c	00000013	addi	x0,x0,0	  x0:0x00000000
       28935000	      2892	80001920	01b67633	and	x12,x12,x27	 x12:0xbf7098a8 x27:0xf8000000 x12=0xb8000000
       28945000	      2893	80001924	81096393	ori	x7,x18,-2032	 x18:0xffe00026  x7=0xfffff836
       28955000	      2894	80001928	41afdcb3	sra	x25,x31,x26	 x31:0x10000000 x26:0x00000001 x25=0x08000000
       28965000	      2895	8000192c	d9d1e693	ori	x13,x3,-611	  x3:0x677408b4 x13=0xfffffdbd
       28975000	      2896	80001930	01aaa8b3	slt	x17,x21,x26	 x21:0xf8000000 x26:0x00000001 x17=0x00000001
       28985000	      2897	80001934	011c2bb3	slt	x23,x24,x17	 x24:0x80009f1c x17:0x00000001 x23=0x00000001
       28995000	      2898	80001938	0194a333	slt	x6,x9,x25	  x9:0xee2d2624 x25:0x08000000  x6=0x00000001
       29005000	      2899	8000193c	014009b3	add	x19,x0,x20	  x0:0x00000000 x20:0x00000007 x19=0x00000007
       29015000	      2900	80001940	823bc693	xori	x13,x23,-2013	 x23:0x00000001 x13=0xfffff822
       29025000	      2901	80001944	019104b3	add	x9,x2,x25	  x2:0x97f988c0 x25:0x08000000  x9=0x9ff988c0
       29035000	      2902	80001948	91c16b13	ori	x22,x2,-1764	  x2:0x97f988c0 x22=0xfffff9dc
       29045000	      2903	8000194c	0081adb3	slt	x27,x3,x8	  x3:0x677408b4  x8:0x10000000 x27=0x00000000
       29055000	      2904	80001950	00945813	srli	x16,x8,0x9	  x8:0x10000000 x16=0x00080000
       29065000	      2905	80001954	5d94a993	slti	x19,x9,1497	  x9:0x9ff988c0 x19=0x00000001
       29075000	      2906	80001958	01657bb3	and	x23,x10,x22	 x10:0x8bcb61ab x22:0xfffff9dc x23=0x8bcb6188
       29085000	      2907	8000195c	01671d13	slli	x26,x14,0x16	 x14:0xcee81168 x26=0x5a000000
       29095000	      2908	80001960	012c2ab3	slt	x21,x24,x18	 x24:0x80009f1c x18:0xffe00026 x21=0x00000001
       29105000	      2909	80001964	00a3f2b3	and	x5,x7,x10	  x7:0xfffff836 x10:0x8bcb61ab  x5=0x8bcb6022
       29115000	      2910	80001968	031d2d93	slti	x27,x26,49	 x26:0x5a000000 x27=0x00000000
       29125000	      2911	8000196c	40b78e33	sub	x28,x15,x11	 x15:0x677408b4 x11:0x00000124 x28=0x67740790
       29135000	      2912	80001970	5752c113	xori	x2,x5,1397	  x5:0x8bcb6022  x2=0x8bcb6557
       29145000	      2913	80001974	00bb4733	xor	x14,x22,x11	 x22:0xfffff9dc x11:0x00000124 x14=0xfffff8f8
       29155000	      2914	80001978	c9670893	addi	x17,x14,-874	 x14:0xfffff8f8 x17=0xfffff58e
       29165000	      2915	8000197c	01724c63	blt	x4,x23,80001994	  x4:0x00000001 x23:0x8bcb6188
       29175000	      2916	80001980	00c7ef33	or	x30,x15,x12	 x15:0x677408b4 x12:0xb8000000 x30=0xff7408b4
       29185000	      2917	80001984	0059d613	srli	x12,x19,0x5	 x19:0x00000001 x12=0x00000000
       29195000	      2918	80001988	002629b3	slt	x19,x12,x2	 x12:0x00000000  x2:0x8bcb6557 x19=0x00000000
       29205000	      2919	8000198c	00000013	addi	x0,x0,0	  x0:0x00000000
       29215000	      2920	80001990	0090c8b3	xor	x17,x1,x9	  x1:0xa7ebe000  x9:0x9ff988c0 x17=0x381268c0
       29225000	      2921	80001994	6c51a893	slti	x17,x3,1733	  x3:0x677408b4 x17=0x00000000
       29235000	      2922	80001998	001dc133	xor	x2,x27,x1	 x27:0x00000000  x1:0xa7ebe000  x2=0xa7ebe000
       29245000	      2923	8000199c	88b5abb7	lui	x23,0x88b5a	 x23=0x88b5a000
       29255000	      2924	800019a0	1cf2c593	xori	x11,x5,463	  x5:0x8bcb6022 x11=0x8bcb61ed
       29265000	      2925	800019a4	37466393	ori	x7,x12,884	 x12:0x00000000  x7=0x00000374
       29275000	      2926	800019a8	00991cb3	sll	x25,x18,x9	 x18:0xffe00026  x9:0x9ff988c0 x25=0xffe00026
       29285000	      2927	800019ac	04607863	bgeu	x0,x6,800019fc	  x0:0x00000000  x6:0x00000001
       29295000	      2928	800019b0	0083c933	xor	x18,x7,x8	  x7:0x00000374  x8:0x10000000 x18=0x10000374
       29305000	      2929	800019b4	eda2b913	sltiu	x18,x5,-294	  x5:0x8bcb6022 x18=0x00000001
       29315000	      2930	800019b8	cde84993	xori	x19,x16,-802	 x16:0x00080000 x19=0xfff7fcde
       29325000	      2931	800019bc	c9b3dcb7	lui	x25,0xc9b3d	 x25=0xc9b3d000
       29335000	      2932	800019c0	016eea63	bltu	x29,x22,800019d4	 x29:0x80009fc4 x22:0xfffff9dc
       29345000	      2933	00000000	00000013	addi	x0,x0,0	  x0:0x00000000
       29355000	      2934	800019d0	00000013	addi	x0,x0,0	  x0:0x00000000
       29365000	      2935	800019d4	051a7063	bgeu	x20,x17,80001a14	 x20:0x00000007 x17:0x00000000
       29375000	      2936	00000000	00000013	addi	x0,x0,0	  x0:0x00000000
       29385000	      2937	80001a10	00000013	addi	x0,x0,0	  x0:0x00000000
       29395000	      2938	80001a14	ce0c7093	andi	x1,x24,-800	 x24:0x80009f1c  x1=0x80009c00
       29405000	      2939	80001a18	405288b3	sub	x17,x5,x5	  x5:0x8bcb6022  x5:0x8bcb6022 x17=0x00000000
       29415000	      2940	80001a1c	41e8dbb3	sra	x23,x17,x30	 x17:0x00000000 x30:0xff7408b4 x23=0x00000000
       29425000	      2941	80001a20	0337c063	blt	x15,x19,80001a40	 x15:0x677408b4 x19:0xfff7fcde
       29435000	      2942	80001a24	7d803913	sltiu	x18,x0,2008	  x0:0x00000000 x18=0x00000001
       29445000	      2943	80001a28	01ab6db3	or	x27,x22,x26	 x22:0xfffff9dc x26:0x5a000000 x27=0xfffff9dc
       29455000	      2944	80001a2c	8eb03d93	sltiu	x27,x0,-1813	  x0:0x00000000 x27=0x00000001
       29465000	      2945	80001a30	405dd333	sra	x6,x27,x5	 x27:0x00000001  x5:0x8bcb6022  x6=0x00000000
       29475000	      2946	80001a34	01ef91b3	sll	x3,x31,x30	 x31:0x10000000 x30:0xff7408b4  x3=0x00000000
       29485000	      2947	80001a38	179c4e37	lui	x28,0x179c4	 x28=0x179c4000
       29495000	      2948	80001a3c	9a4dc993	xori	x19,x27,-1628	 x27:0x00000001 x19=0xfffff9a5
       29505000	      2949	80001a40	00000013	addi	x0,x0,0	  x0:0x00000000
       29515000	      2950	80001a44	b417b313	sltiu	x6,x15,-1215	 x15:0x677408b4  x6=0x00000001
       29525000	      2951	80001a48	00436593	ori	x11,x6,4	  x6:0x00000001 x11=0x00000005
       29535000	      2952	80001a4c	f0177613	andi	x12,x14,-255	 x14:0xfffff8f8 x12=0xfffff800
       29545000	      2953	80001a50	00c658b3	srl	x17,x12,x12	 x12:0xfffff800 x12:0xfffff800 x17=0xfffff800
       29555000	      2954	80001a54	f88b0a93	addi	x21,x22,-120	 x22:0xfffff9dc x21=0xfffff964
       29565000	      2955	80001a58	db268213	addi	x4,x13,-590	 x13:0xfffff822  x4=0xfffff5d4
       29575000	      2956	80001a5c	41438bb3	sub	x23,x7,x20	  x7:0x00000374 x20:0x00000007 x23=0x0000036d
       29585000	      2957	80001a60	88bfbf37	lui	x30,0x88bfb	 x30=0x88bfb000
       29595000	      2958	80001a64	009773b3	and	x7,x14,x9	 x14:0xfffff8f8  x9:0x9ff988c0  x7=0x9ff988c0
       29605000	      2959	80001a68	00010a33	add	x20,x2,x0	  x2:0xa7ebe000  x0:0x00000000 x20=0xa7ebe000
       29615000	      2960	80001a6c	019ca3b3	slt	x7,x25,x25	 x25:0xc9b3d000 x25:0xc9b3d000  x7=0x00000000
       29625000	      2961	80001a70	05505663	bge	x0,x21,80001abc	  x0:0x00000000 x21:0xfffff964
       29635000	      2962	00000000	00000013	addi	x0,x0,0	  x0:0x00000000
       29645000	      2963	80001ab8	00000013	addi	x0,x0,0	  x0:0x00000000
       29655000	      2964	80001abc	004dc463	blt	x27,x4,80001ac4	 x27:0x00000001  x4:0xfffff5d4
       29665000	      2965	80001ac0	b6994e13	xori	x28,x18,-1175	 x18:0x00000001 x28=0xfffffb68
       29675000	      2966	80001ac4	01622233	slt	x4,x4,x22	  x4:0xfffff5d4 x22:0xfffff9dc  x4=0x00000001
       29685000	      2967	80001ac8	03fbd063	bge	x23,x31,80001ae8	 x23:0x0000036d x31:0x10000000
       29695000	      2968	80001acc	00bcde13	srli	x28,x25,0xb	 x25:0xc9b3d000 x28=0x0019367a
       29705000	      2969	80001ad0	c3e4ff93	andi	x31,x9,-962	  x9:0x9ff988c0 x31=0x9ff98800
       29715000	      2970	80001ad4	00461e63	bne	x12,x4,80001af0	 x12:0xfffff800  x4:0x00000001
       29725000	      2971	00000000	00000013	addi	x0,x0,0	  x0:0x00000000
       29735000	      2972	80001aec	00000013	addi	x0,x0,0	  x0:0x00000000
       29745000	      2973	80001af0	729dee13	ori	x28,x27,1833	 x27:0x00000001 x28=0x00000729
       29755000	      2974	80001af4	00f6b6b3	sltu	x13,x13,x15	 x13:0xfffff822 x15:0x677408b4 x13=0x00000000
       29765000	      2975	80001af8	01528433	add	x8,x5,x21	  x5:0x8bcb6022 x21:0xfffff964  x8=0x8bcb5986
       29775000	      2976	80001afc	00acefb3	or	x31,x25,x10	 x25:0xc9b3d000 x10:0x8bcb61ab x31=0xcbfbf1ab
       29785000	      2977	80001b00	729fc893	xori	x17,x31,1833	 x31:0xcbfbf1ab x17=0xcbfbf682
       29795000	      2978	80001b04	00235e33	srl	x28,x6,x2	  x6:0x00000001  x2:0xa7ebe000 x28=0x00000001
       29805000	      2979	80001b08	000af933	and	x18,x21,x0	 x21:0xfffff964  x0:0x00000000 x18=0x00000000
       29815000	      2980	80001b0c	018e55b3	srl	x11,x28,x24	 x28:0x00000001 x24:0x80009f1c x11=0x00000000
       29825000	      2981	80001b10	036bf663	bgeu	x23,x22,80001b3c	 x23:0x0000036d x22:0xfffff9dc
       29835000	      2982	80001b14	01c743b3	xor	x7,x14,x28	 x14:0xfffff8f8 x28:0x00000001  x7=0xfffff8f9
       29845000	      2983	80001b18	b68a7f13	andi	x30,x20,-1176	 x20:0xa7ebe000 x30=0xa7ebe000
       29855000	      2984	80001b1c	005a9d33	sll	x26,x21,x5	 x21:0xfffff964  x5:0x8bcb6022 x26=0xffffe590
       29865000	      2985	80001b20	0b10f263	bgeu	x1,x17,80001bc4	  x1:0x80009c00 x17:0xcbfbf682
       29875000	      2986	80001b24	012ce663	bltu	x25,x18,80001b30	 x25:0xc9b3d000 x18:0x00000000
       29885000	      2987	80001b28	00751b33	sll	x22,x10,x7	 x10:0x8bcb61ab  x7:0xfffff8f9 x22=0x56000000
       29895000	      2988	80001b2c	0159a533	slt	x10,x19,x21	 x19:0xfffff9a5 x21:0xfffff964 x10=0x00000000
       29905000	      2989	80001b30	0033f5b3	and	x11,x7,x3	  x7:0xfffff8f9  x3:0x00000000 x11=0x00000000
       29915000	      2990	80001b34	00bcd433	srl	x8,x25,x11	 x25:0xc9b3d000 x11:0x00000000  x8=0xc9b3d000
       29925000	      2991	80001b38	016509b3	add	x19,x10,x22	 x10:0x00000000 x22:0x56000000 x19=0x56000000
       29935000	      2992	80001b3c	09b34463	blt	x6,x27,80001bc4	  x6:0x00000001 x27:0x00000001
       29945000	      2993	80001b40	00c62fb3	slt	x31,x12,x12	 x12:0xfffff800 x12:0xfffff800 x31=0x00000000
       29955000	      2994	80001b44	08d0e863	bltu	x1,x13,80001bd4	  x1:0x80009c00 x13:0x00000000
       29965000	      2995	80001b48	389f6b13	ori	x22,x30,905	 x30:0xa7ebe000 x22=0xa7ebe389
       29975000	      2996	80001b4c	00500993	addi	x19,x0,5	  x0:0x00000000 x19=0x00000005
       29985000	      2997	80001b50	00011093	slli	x1,x2,0x0	  x2:0xa7ebe000  x1=0xa7ebe000
       29995000	      2998	80001b54	0137cb33	xor	x22,x15,x19	 x15:0x677408b4 x19:0x00000005 x22=0x677408b1
       30005000	      2999	80001b58	0093d293	srli	x5,x7,0x9	  x7:0xfffff8f9  x5=0x007ffffc
       30015000	      3000	80001b5c	00f00413	addi	x8,x0,15	  x0:0x00000000  x8=0x0000000f
       30025000	      3001	80001b60	a3832d93	slti	x27,x6,-1480	  x6:0x00000001 x27=0x00000000
       30035000	      3002	80001b64	f2e22613	slti	x12,x4,-210	  x4:0x00000001 x12=0x00000000
       30045000	      3003	80001b68	416e5c93	srai	x25,x28,0x16	 x28:0x00000001 x25=0x00000000
       30055000	      3004	80001b6c	01734d33	xor	x26,x6,x23	  x6:0x00000001 x23:0x0000036d x26=0x0000036c
       30065000	      3005	80001b70	4078d133	sra	x2,x17,x7	 x17:0xcbfbf682  x7:0xfffff8f9  x2=0xffffffe5
       30075000	      3006	80001b74	00000013	addi	x0,x0,0	  x0:0x00000000
       30085000	      3007	80001b78	0099a6b3	slt	x13,x19,x9	 x19:0x00000005  x9:0x9ff988c0 x13=0x00000000
       30095000	      3008	80001b7c	0a2e24b7	lui	x9,0xa2e2	  x9=0x0a2e2000
       30105000	      3009	80001b80	014748b3	xor	x17,x14,x20	 x14:0xfffff8f8 x20:0xa7ebe000 x17=0x581418f8
       30115000	      3010	80001b84	fd61e393	ori	x7,x3,-42	  x3:0x00000000  x7=0xffffffd6
       30125000	      3011	80001b88	0050e633	or	x12,x1,x5	  x1:0xa7ebe000  x5:0x007ffffc x12=0xa7fffffc
       30135000	      3012	80001b8c	001742b3	xor	x5,x14,x1	 x14:0xfffff8f8  x1:0xa7ebe000  x5=0x581418f8
       30145000	      3013	80001b90	00798993	addi	x19,x19,7	 x19:0x00000005 x19=0x0000000c
       30155000	      3014	80001b94	01255513	srli	x10,x10,0x12	 x10:0x00000000 x10=0x00000000
       30165000	      3015	80001b98	fe89eae3	bltu	x19,x8,80001b8c	 x19:0x0000000c  x8:0x0000000f
       30175000	      3016	00000000	00000013	addi	x0,x0,0	  x0:0x00000000
       30185000	      3017	80001b88	00000013	addi	x0,x0,0	  x0:0x00000000
       30195000	      3018	80001b8c	001742b3	xor	x5,x14,x1	 x14:0xfffff8f8  x1:0xa7ebe000  x5=0x581418f8
       30205000	      3019	80001b90	00798993	addi	x19,x19,7	 x19:0x0000000c x19=0x00000013
       30215000	      3020	80001b94	01255513	srli	x10,x10,0x12	 x10:0x00000000 x10=0x00000000
       30225000	      3021	80001b98	fe89eae3	bltu	x19,x8,80001b8c	 x19:0x00000013  x8:0x0000000f
       30235000	      3022	80001b9c	408b8a33	sub	x20,x23,x8	 x23:0x0000036d  x8:0x0000000f x20=0x0000035e
       30245000	      3023	80001ba0	01385a33	srl	x20,x16,x19	 x16:0x00080000 x19:0x00000013 x20=0x00000001
       30255000	      3024	80001ba4	01e1fab3	and	x21,x3,x30	  x3:0x00000000 x30:0xa7ebe000 x21=0x00000000
       30265000	      3025	80001ba8	05405663	bge	x0,x20,80001bf4	  x0:0x00000000 x20:0x00000001
       30275000	      3026	80001bac	00c5c933	xor	x18,x11,x12	 x11:0x00000000 x12:0xa7fffffc x18=0xa7fffffc
       30285000	      3027	80001bb0	40355b93	srai	x23,x10,0x3	 x10:0x00000000 x23=0x00000000
       30295000	      3028	80001bb4	41cbd033	sra	x0,x23,x28	 x23:0x00000000 x28:0x00000001
       30305000	      3029	80001bb8	01666cb3	or	x25,x12,x22	 x12:0xa7fffffc x22:0x677408b1 x25=0xe7fffffd
       30315000	      3030	80001bbc	000d8e33	add	x28,x27,x0	 x27:0x00000000  x0:0x00000000 x28=0x00000000
       30325000	      3031	80001bc0	006e3533	sltu	x10,x28,x6	 x28:0x00000000  x6:0x00000001 x10=0x00000001
       30335000	      3032	80001bc4	052b5863	bge	x22,x18,80001c14	 x22:0x677408b1 x18:0xa7fffffc
       30345000	      3033	00000000	00000013	addi	x0,x0,0	  x0:0x00000000
       30355000	      3034	80001c10	00000013	addi	x0,x0,0	  x0:0x00000000
       30365000	      3035	80001c14	0096f133	and	x2,x13,x9	 x13:0x00000000  x9:0x0a2e2000  x2=0x00000000
       30375000	      3036	80001c18	00012433	slt	x8,x2,x0	  x2:0x00000000  x0:0x00000000  x8=0x00000000
       30385000	      3037	80001c1c	3fc2a917	auipc	x18,0x3fc2a	 x18=0xbfc2bc18
       30395000	      3038	80001c20	4836cf13	xori	x30,x13,1155	 x13:0x00000000 x30=0x00000483
       30405000	      3039	80001c24	006a0463	beq	x20,x6,80001c2c	 x20:0x00000001  x6:0x00000001
       30415000	      3040	00000000	00000013	addi	x0,x0,0	  x0:0x00000000
       30425000	      3041	80001c28	00000013	addi	x0,x0,0	  x0:0x00000000
       30435000	      3042	80001c2c	014b5293	srli	x5,x22,0x14	 x22:0x677408b1  x5=0x00000677
       30445000	      3043	80001c30	11f7ae13	slti	x28,x15,287	 x15:0x677408b4 x28=0x00000000
       30455000	      3044	80001c34	0474d663	bge	x9,x7,80001c80	  x9:0x0a2e2000  x7:0xffffffd6
       30465000	      3045	00000000	00000013	addi	x0,x0,0	  x0:0x00000000
       30475000	      3046	80001c7c	00000013	addi	x0,x0,0	  x0:0x00000000
       30485000	      3047	80001c80	3c38b593	sltiu	x11,x17,963	 x17:0x581418f8 x11=0x00000000
       30495000	      3048	80001c84	0102f033	and	x0,x5,x16	  x5:0x00000677 x16:0x00080000
       30505000	      3049	80001c88	02625263	bge	x4,x6,80001cac	  x4:0x00000001  x6:0x00000001
       30515000	      3050	00000000	00000013	addi	x0,x0,0	  x0:0x00000000
       30525000	      3051	80001ca8	00000013	addi	x0,x0,0	  x0:0x00000000
       30535000	      3052	80001cac	014dd713	srli	x14,x27,0x14	 x27:0x00000000 x14=0x00000000
       30545000	      3053	80001cb0	01230e33	add	x28,x6,x18	  x6:0x00000001 x18:0xbfc2bc18 x28=0xbfc2bc19
       30555000	      3054	80001cb4	1f56fb13	andi	x22,x13,501	 x13:0x00000000 x22=0x00000000
       30565000	      3055	80001cb8	75b76b93	ori	x23,x14,1883	 x14:0x00000000 x23=0x0000075b
       30575000	      3056	80001cbc	007618b3	sll	x17,x12,x7	 x12:0xa7fffffc  x7:0xffffffd6 x17=0xff000000
       30585000	      3057	80001cc0	010eb833	sltu	x16,x29,x16	 x29:0x80009fc4 x16:0x00080000 x16=0x00000000
       30595000	      3058	80001cc4	04f64063	blt	x12,x15,80001d04	 x12:0xa7fffffc x15:0x677408b4
       30605000	      3059	00000000	00000013	addi	x0,x0,0	  x0:0x00000000
       30615000	      3060	80001d00	00000013	addi	x0,x0,0	  x0:0x00000000
       30625000	      3061	80001d04	00a79a63	bne	x15,x10,80001d18	 x15:0x677408b4 x10:0x00000001
       30635000	      3062	00000000	00000013	addi	x0,x0,0	  x0:0x00000000
       30645000	      3063	80001d14	00000013	addi	x0,x0,0	  x0:0x00000000
       30655000	      3064	80001d18	01b38e63	beq	x7,x27,80001d34	  x7:0xffffffd6 x27:0x00000000
       30665000	      3065	80001d1c	034c5e63	bge	x24,x20,80001d58	 x24:0x80009f1c x20:0x00000001
       30675000	      3066	80001d20	00b3c663	blt	x7,x11,80001d2c	  x7:0xffffffd6 x11:0x00000000
       30685000	      3067	00000000	00000013	addi	x0,x0,0	  x0:0x00000000
       30695000	      3068	80001d28	00000013	addi	x0,x0,0	  x0:0x00000000
       30705000	      3069	80001d2c	00b06cb3	or	x25,x0,x11	  x0:0x00000000 x11:0x00000000 x25=0x00000000
       30715000	      3070	80001d30	0050cd33	xor	x26,x1,x5	  x1:0xa7ebe000  x5:0x00000677 x26=0xa7ebe677
       30725000	      3071	80001d34	01b56e33	or	x28,x10,x27	 x10:0x00000001 x27:0x00000000 x28=0x00000001
       30735000	      3072	80001d38	03de4063	blt	x28,x29,80001d58	 x28:0x00000001 x29:0x80009fc4
       30745000	      3073	80001d3c	11910d93	addi	x27,x2,281	  x2:0x00000000 x27=0x00000119
       30755000	      3074	80001d40	41d65593	srai	x11,x12,0x1d	 x12:0xa7fffffc x11=0xfffffffd
       30765000	      3075	80001d44	04810863	beq	x2,x8,80001d94	  x2:0x00000000  x8:0x00000000
       30775000	      3076	00000000	00000013	addi	x0,x0,0	  x0:0x00000000
       30785000	      3077	80001d90	00000013	addi	x0,x0,0	  x0:0x00000000
       30795000	      3078	80001d94	03f56a63	bltu	x10,x31,80001dc8	 x10:0x00000001 x31:0x00000000
       30805000	      3079	80001d98	40b70ab3	sub	x21,x14,x11	 x14:0x00000000 x11:0xfffffffd x21=0x00000003
       30815000	      3080	80001d9c	00e27ab3	and	x21,x4,x14	  x4:0x00000001 x14:0x00000000 x21=0x00000000
       30825000	      3081	80001da0	20e48713	addi	x14,x9,526	  x9:0x0a2e2000 x14=0x0a2e220e
       30835000	      3082	80001da4	a0370c93	addi	x25,x14,-1533	 x14:0x0a2e220e x25=0x0a2e1c11
       30845000	      3083	80001da8	034cd863	bge	x25,x20,80001dd8	 x25:0x0a2e1c11 x20:0x00000001
       30855000	      3084	00000000	00000013	addi	x0,x0,0	  x0:0x00000000
       30865000	      3085	80001dd4	00000013	addi	x0,x0,0	  x0:0x00000000
       30875000	      3086	80001dd8	0114b1b3	sltu	x3,x9,x17	  x9:0x0a2e2000 x17:0xff000000  x3=0x00000001
       30885000	      3087	80001ddc	011bd663	bge	x23,x17,80001de8	 x23:0x0000075b x17:0xff000000
       30895000	      3088	00000000	00000013	addi	x0,x0,0	  x0:0x00000000
       30905000	      3089	80001de4	00000013	addi	x0,x0,0	  x0:0x00000000
       30915000	      3090	80001de8	0073e833	or	x16,x7,x7	  x7:0xffffffd6  x7:0xffffffd6 x16=0xffffffd6
       30925000	      3091	80001dec	05d68663	beq	x13,x29,80001e38	 x13:0x00000000 x29:0x80009fc4
       30935000	      3092	80001df0	e7dac313	xori	x6,x21,-387	 x21:0x00000000  x6=0xfffffe7d
       30945000	      3093	80001df4	066f1937	lui	x18,0x66f1	 x18=0x066f1000
       30955000	      3094	80001df8	00a855b3	srl	x11,x16,x10	 x16:0xffffffd6 x10:0x00000001 x11=0x7fffffeb
       30965000	      3095	80001dfc	40fb5493	srai	x9,x22,0xf	 x22:0x00000000  x9=0x00000000
       30975000	      3096	80001e00	fa3de237	lui	x4,0xfa3de	  x4=0xfa3de000
       30985000	      3097	80001e04	44b7ab37	lui	x22,0x44b7a	 x22=0x44b7a000
       30995000	      3098	80001e08	00b9c833	xor	x16,x19,x11	 x19:0x00000013 x11:0x7fffffeb x16=0x7ffffff8
       31005000	      3099	80001e0c	e41bc693	xori	x13,x23,-447	 x23:0x0000075b x13=0xfffff91a
       31015000	      3100	80001e10	003561b3	or	x3,x10,x3	 x10:0x00000001  x3:0x00000001  x3=0x00000001
       31025000	      3101	80001e14	00000013	addi	x0,x0,0	  x0:0x00000000
       31035000	      3102	80001e18	01464833	xor	x16,x12,x20	 x12:0xa7fffffc x20:0x00000001 x16=0xa7fffffd
       31045000	      3103	80001e1c	01335133	srl	x2,x6,x19	  x6:0xfffffe7d x19:0x00000013  x2=0x00001fff
       31055000	      3104	80001e20	00039233	sll	x4,x7,x0	  x7:0xffffffd6  x0:0x00000000  x4=0xffffffd6
       31065000	      3105	80001e24	45eca393	slti	x7,x25,1118	 x25:0x0a2e1c11  x7=0x00000000
       31075000	      3106	80001e28	00891f93	slli	x31,x18,0x8	 x18:0x066f1000 x31=0x6f100000
       31085000	      3107	80001e2c	00bff3b3	and	x7,x31,x11	 x31:0x6f100000 x11:0x7fffffeb  x7=0x6f100000
       31095000	      3108	80001e30	05560063	beq	x12,x21,80001e70	 x12:0xa7fffffc x21:0x00000000
       31105000	      3109	80001e34	00489293	slli	x5,x17,0x4	 x17:0xff000000  x5=0xf0000000
       31115000	      3110	80001e38	b03763b7	lui	x7,0xb0376	  x7=0xb0376000
       31125000	      3111	80001e3c	004f5993	srli	x19,x30,0x4	 x30:0x00000483 x19=0x00000048
       31135000	      3112	80001e40	01433433	sltu	x8,x6,x20	  x6:0xfffffe7d x20:0x00000001  x8=0x00000000
       31145000	      3113	80001e44	0278da63	bge	x17,x7,80001e78	 x17:0xff000000  x7:0xb0376000
       31155000	      3114	00000000	00000013	addi	x0,x0,0	  x0:0x00000000
       31165000	      3115	80001e74	00000013	addi	x0,x0,0	  x0:0x00000000
       31175000	      3116	80001e78	059e5863	bge	x28,x25,80001ec8	 x28:0x00000001 x25:0x0a2e1c11
       31185000	      3117	80001e7c	7e2146b7	lui	x13,0x7e214	 x13=0x7e214000
       31195000	      3118	80001e80	8c17b413	sltiu	x8,x15,-1855	 x15:0x677408b4  x8=0x00000001
       31205000	      3119	80001e84	028fde63	bge	x31,x8,80001ec0	 x31:0x6f100000  x8:0x00000001
       31215000	      3120	00000000	00000013	addi	x0,x0,0	  x0:0x00000000
       31225000	      3121	80001ebc	00000013	addi	x0,x0,0	  x0:0x00000000
       31235000	      3122	80001ec0	00e321b3	slt	x3,x6,x14	  x6:0xfffffe7d x14:0x0a2e220e  x3=0x00000001
       31245000	      3123	80001ec4	011f8733	add	x14,x31,x17	 x31:0x6f100000 x17:0xff000000 x14=0x6e100000
       31255000	      3124	80001ec8	00ae0833	add	x16,x28,x10	 x28:0x00000001 x10:0x00000001 x16=0x00000002
       31265000	      3125	80001ecc	005d2fb3	slt	x31,x26,x5	 x26:0xa7ebe677  x5:0xf0000000 x31=0x00000001
       31275000	      3126	80001ed0	00469463	bne	x13,x4,80001ed8	 x13:0x7e214000  x4:0xffffffd6
       31285000	      3127	00000000	00000013	addi	x0,x0,0	  x0:0x00000000
       31295000	      3128	80001ed4	00000013	addi	x0,x0,0	  x0:0x00000000
       31305000	      3129	80001ed8	02570663	beq	x14,x5,80001f04	 x14:0x6e100000  x5:0xf0000000
       31315000	      3130	80001edc	bc596693	ori	x13,x18,-1083	 x18:0x066f1000 x13=0xfffffbc5
       31325000	      3131	80001ee0	01f0db13	srli	x22,x1,0x1f	  x1:0xa7ebe000 x22=0x00000001
       31335000	      3132	80001ee4	40ae86b3	sub	x13,x29,x10	 x29:0x80009fc4 x10:0x00000001 x13=0x80009fc3
       31345000	      3133	80001ee8	0017d993	srli	x19,x15,0x1	 x15:0x677408b4 x19=0x33ba045a
       31355000	      3134	80001eec	002af2b3	and	x5,x21,x2	 x21:0x00000000  x2:0x00001fff  x5=0x00000000
       31365000	      3135	80001ef0	d75fb893	sltiu	x17,x31,-651	 x31:0x00000001 x17=0x00000001
       31375000	      3136	80001ef4	8eac2f13	slti	x30,x24,-1814	 x24:0x80009f1c x30=0x00000001
       31385000	      3137	80001ef8	0067d393	srli	x7,x15,0x6	 x15:0x677408b4  x7=0x019dd022
       31395000	      3138	80001efc	017052b3	srl	x5,x0,x23	  x0:0x00000000 x23:0x0000075b  x5=0x00000000
       31405000	      3139	80001f00	01601fb3	sll	x31,x0,x22	  x0:0x00000000 x22:0x00000001 x31=0x00000000
       31415000	      3140	80001f04	19624693	xori	x13,x4,406	  x4:0xffffffd6 x13=0xfffffe40
       31425000	      3141	80001f08	0f143213	sltiu	x4,x8,241	  x8:0x00000001  x4=0x00000001
       31435000	      3142	80001f0c	00b8d5b3	srl	x11,x17,x11	 x17:0x00000001 x11:0x7fffffeb x11=0x00000000
       31445000	      3143	80001f10	02c3c263	blt	x7,x12,80001f34	  x7:0x019dd022 x12:0xa7fffffc
       31455000	      3144	80001f14	015fec63	bltu	x31,x21,80001f2c	 x31:0x00000000 x21:0x00000000
       31465000	      3145	80001f18	03b19863	bne	x3,x27,80001f48	  x3:0x00000001 x27:0x00000119
       31475000	      3146	00000000	00000013	addi	x0,x0,0	  x0:0x00000000
       31485000	      3147	80001f44	00000013	addi	x0,x0,0	  x0:0x00000000
       31495000	      3148	80001f48	73c70813	addi	x16,x14,1852	 x14:0x6e100000 x16=0x6e10073c
       31505000	      3149	80001f4c	00d1d213	srli	x4,x3,0xd	  x3:0x00000001  x4=0x00000000
       31515000	      3150	80001f50	01715d93	srli	x27,x2,0x17	  x2:0x00001fff x27=0x00000000
       31525000	      3151	80001f54	01f5de63	bge	x11,x31,80001f70	 x11:0x00000000 x31:0x00000000
       31535000	      3152	00000000	00000013	addi	x0,x0,0	  x0:0x00000000
       31545000	      3153	80001f6c	00000013	addi	x0,x0,0	  x0:0x00000000
       31555000	      3154	80001f70	41dd0e33	sub	x28,x26,x29	 x26:0xa7ebe677 x29:0x80009fc4 x28=0x27eb46b3
       31565000	      3155	80001f74	f2972d13	slti	x26,x14,-215	 x14:0x6e100000 x26=0x00000000
       31575000	      3156	80001f78	40ffd413	srai	x8,x31,0xf	 x31:0x00000000  x8=0x00000000
       31585000	      3157	80001f7c	015a5093	srli	x1,x20,0x15	 x20:0x00000001  x1=0x00000000
       31595000	      3158	80001f80	05977663	bgeu	x14,x25,80001fcc	 x14:0x6e100000 x25:0x0a2e1c11
       31605000	      3159	00000000	00000013	addi	x0,x0,0	  x0:0x00000000
       31615000	      3160	80001fc8	00000013	addi	x0,x0,0	  x0:0x00000000
       31625000	      3161	80001fcc	40ba8b33	sub	x22,x21,x11	 x21:0x00000000 x11:0x00000000 x22=0x00000000
       31635000	      3162	80001fd0	2d293393	sltiu	x7,x18,722	 x18:0x066f1000  x7=0x00000000
       31645000	      3163	80001fd4	0af1bf13	sltiu	x30,x3,175	  x3:0x00000001 x30=0x00000001
       31655000	      3164	80001fd8	03c64063	blt	x12,x28,80001ff8	 x12:0xa7fffffc x28:0x27eb46b3
       31665000	      3165	00000000	00000013	addi	x0,x0,0	  x0:0x00000000
       31675000	      3166	80001ff4	00000013	addi	x0,x0,0	  x0:0x00000000
       31685000	      3167	80001ff8	018aabb3	slt	x23,x21,x24	 x21:0x00000000 x24:0x80009f1c x23=0x00000000
       31695000	      3168	80001ffc	a1e14013	xori	x0,x2,-1506	  x2:0x00001fff
       31705000	      3169	80002000	6df18a93	addi	x21,x3,1759	  x3:0x00000001 x21=0x000006e0
       31715000	      3170	80002004	00670e63	beq	x14,x6,80002020	 x14:0x6e100000  x6:0xfffffe7d
       31725000	      3171	80002008	41035f13	srai	x30,x6,0x10	  x6:0xfffffe7d x30=0xffffffff
       31735000	      3172	8000200c	019442b3	xor	x5,x8,x25	  x8:0x00000000 x25:0x0a2e1c11  x5=0x0a2e1c11
       31745000	      3173	80002010	00fa8e33	add	x28,x21,x15	 x21:0x000006e0 x15:0x677408b4 x28=0x67740f94
       31755000	      3174	80002014	000e61b3	or	x3,x28,x0	 x28:0x67740f94  x0:0x00000000  x3=0x67740f94
       31765000	      3175	80002018	56c6b293	sltiu	x5,x13,1388	 x13:0xfffffe40  x5=0x00000000
       31775000	      3176	8000201c	00ac6233	or	x4,x24,x10	 x24:0x80009f1c x10:0x00000001  x4=0x80009f1d
       31785000	      3177	80002020	02c27e63	bgeu	x4,x12,8000205c	  x4:0x80009f1d x12:0xa7fffffc
       31795000	      3178	80002024	03e8d263	bge	x17,x30,80002048	 x17:0x00000001 x30:0xffffffff
       31805000	      3179	00000000	00000013	addi	x0,x0,0	  x0:0x00000000
       31815000	      3180	80002044	00000013	addi	x0,x0,0	  x0:0x00000000
       31825000	      3181	80002048	01caea63	bltu	x21,x28,8000205c	 x21:0x000006e0 x28:0x67740f94
       31835000	      3182	00000000	00000013	addi	x0,x0,0	  x0:0x00000000
       31845000	      3183	80002058	00000013	addi	x0,x0,0	  x0:0x00000000
       31855000	      3184	8000205c	7f69c193	xori	x3,x19,2038	 x19:0x33ba045a  x3=0x33ba03ac
       31865000	      3185	80002060	dcab2e13	slti	x28,x22,-566	 x22:0x00000000 x28=0x00000000
       31875000	      3186	80002064	c190a013	slti	x0,x1,-999	  x1:0x00000000
       31885000	      3187	80002068	99726813	ori	x16,x4,-1641	  x4:0x80009f1d x16=0xffffff9f
       31895000	      3188	8000206c	0ef5abb7	lui	x23,0xef5a	 x23=0x0ef5a000
       31905000	      3189	80002070	0071d8b3	srl	x17,x3,x7	  x3:0x33ba03ac  x7:0x00000000 x17=0x33ba03ac
       31915000	      3190	80002074	4045d1b3	sra	x3,x11,x4	 x11:0x00000000  x4:0x80009f1d  x3=0x00000000
       31925000	      3191	80002078	0728ea63	bltu	x17,x18,800020ec	 x17:0x33ba03ac x18:0x066f1000
       31935000	      3192	8000207c	8df70d13	addi	x26,x14,-1825	 x14:0x6e100000 x26=0x6e0ff8df
       31945000	      3193	80002080	40895f13	srai	x30,x18,0x8	 x18:0x066f1000 x30=0x00066f10
       31955000	      3194	80002084	01bcf3b3	and	x7,x25,x27	 x25:0x0a2e1c11 x27:0x00000000  x7=0x00000000
       31965000	      3195	80002088	001eeab3	or	x21,x29,x1	 x29:0x80009fc4  x1:0x00000000 x21=0x80009fc4
       31975000	      3196	8000208c	01825093	srli	x1,x4,0x18	  x4:0x80009f1d  x1=0x00000080
       31985000	      3197	80002090	ff600713	addi	x14,x0,-10	  x0:0x00000000 x14=0xfffffff6
       31995000	      3198	80002094	01791113	slli	x2,x18,0x17	 x18:0x066f1000  x2=0x00000000
       32005000	      3199	80002098	002f1093	slli	x1,x30,0x2	 x30:0x00066f10  x1=0x0019bc40
       32015000	      3200	8000209c	ff000813	addi	x16,x0,-16	  x0:0x00000000 x16=0xfffffff0
       32025000	      3201	800020a0	40c68033	sub	x0,x13,x12	 x13:0xfffffe40 x12:0xa7fffffc
       32035000	      3202	800020a4	99b2d037	lui	x0,0x99b2d	
       32045000	      3203	800020a8	53ce9397	auipc	x7,0x53ce9	  x7=0xd3ceb0a4
       32055000	      3204	800020ac	173e2593	slti	x11,x28,371	 x28:0x00000000 x11=0x00000001
       32065000	      3205	800020b0	0172b5b3	sltu	x11,x5,x23	  x5:0x00000000 x23:0x0ef5a000 x11=0x00000001
       32075000	      3206	800020b4	ffd70713	addi	x14,x14,-3	 x14:0xfffffff6 x14=0xfffffff3
       32085000	      3207	800020b8	43dd7413	andi	x8,x26,1085	 x26:0x6e0ff8df  x8=0x0000001d
       32095000	      3208	800020bc	00a00d93	addi	x27,x0,10	  x0:0x00000000 x27=0x0000000a
       32105000	      3209	800020c0	41cdd033	sra	x0,x27,x28	 x27:0x0000000a x28:0x00000000
       32115000	      3210	800020c4	00300313	addi	x6,x0,3	  x0:0x00000000  x6=0x00000003
       32125000	      3211	800020c8	008be9b3	or	x19,x23,x8	 x23:0x0ef5a000  x8:0x0000001d x19=0x0ef5a01d
       32135000	      3212	800020cc	f74c78b7	lui	x17,0xf74c7	 x17=0xf74c7000
       32145000	      3213	800020d0	ffed8d93	addi	x27,x27,-2	 x27:0x0000000a x27=0x00000008
       32155000	      3214	800020d4	11c60f13	addi	x30,x12,284	 x12:0xa7fffffc x30=0xa8000118
       32165000	      3215	800020d8	fe6df8e3	bgeu	x27,x6,800020c8	 x27:0x00000008  x6:0x00000003
       32175000	      3216	00000000	00000013	addi	x0,x0,0	  x0:0x00000000
       32185000	      3217	800020c4	00000013	addi	x0,x0,0	  x0:0x00000000
       32195000	      3218	800020c8	008be9b3	or	x19,x23,x8	 x23:0x0ef5a000  x8:0x0000001d x19=0x0ef5a01d
       32205000	      3219	800020cc	f74c78b7	lui	x17,0xf74c7	 x17=0xf74c7000
       32215000	      3220	800020d0	ffed8d93	addi	x27,x27,-2	 x27:0x00000008 x27=0x00000006
       32225000	      3221	800020d4	11c60f13	addi	x30,x12,284	 x12:0xa7fffffc x30=0xa8000118
       32235000	      3222	800020d8	fe6df8e3	bgeu	x27,x6,800020c8	 x27:0x00000006  x6:0x00000003
       32245000	      3223	00000000	00000013	addi	x0,x0,0	  x0:0x00000000
       32255000	      3224	800020c4	00000013	addi	x0,x0,0	  x0:0x00000000
       32265000	      3225	800020c8	008be9b3	or	x19,x23,x8	 x23:0x0ef5a000  x8:0x0000001d x19=0x0ef5a01d
       32275000	      3226	800020cc	f74c78b7	lui	x17,0xf74c7	 x17=0xf74c7000
       32285000	      3227	800020d0	ffed8d93	addi	x27,x27,-2	 x27:0x00000006 x27=0x00000004
       32295000	      3228	800020d4	11c60f13	addi	x30,x12,284	 x12:0xa7fffffc x30=0xa8000118
       32305000	      3229	800020d8	fe6df8e3	bgeu	x27,x6,800020c8	 x27:0x00000004  x6:0x00000003
       32315000	      3230	00000000	00000013	addi	x0,x0,0	  x0:0x00000000
       32325000	      3231	800020c4	00000013	addi	x0,x0,0	  x0:0x00000000
       32335000	      3232	800020c8	008be9b3	or	x19,x23,x8	 x23:0x0ef5a000  x8:0x0000001d x19=0x0ef5a01d
       32345000	      3233	800020cc	f74c78b7	lui	x17,0xf74c7	 x17=0xf74c7000
       32355000	      3234	800020d0	ffed8d93	addi	x27,x27,-2	 x27:0x00000004 x27=0x00000002
       32365000	      3235	800020d4	11c60f13	addi	x30,x12,284	 x12:0xa7fffffc x30=0xa8000118
       32375000	      3236	800020d8	fe6df8e3	bgeu	x27,x6,800020c8	 x27:0x00000002  x6:0x00000003
       32385000	      3237	800020dc	fd0754e3	bge	x14,x16,800020a4	 x14:0xfffffff3 x16:0xfffffff0
       32395000	      3238	00000000	00000013	addi	x0,x0,0	  x0:0x00000000
       32405000	      3239	800020a0	00000013	addi	x0,x0,0	  x0:0x00000000
       32415000	      3240	800020a4	99b2d037	lui	x0,0x99b2d	
       32425000	      3241	800020a8	53ce9397	auipc	x7,0x53ce9	  x7=0xd3ceb0a4
       32435000	      3242	800020ac	173e2593	slti	x11,x28,371	 x28:0x00000000 x11=0x00000001
       32445000	      3243	800020b0	0172b5b3	sltu	x11,x5,x23	  x5:0x00000000 x23:0x0ef5a000 x11=0x00000001
       32455000	      3244	800020b4	ffd70713	addi	x14,x14,-3	 x14:0xfffffff3 x14=0xfffffff0
       32465000	      3245	800020b8	43dd7413	andi	x8,x26,1085	 x26:0x6e0ff8df  x8=0x0000001d
       32475000	      3246	800020bc	00a00d93	addi	x27,x0,10	  x0:0x00000000 x27=0x0000000a
       32485000	      3247	800020c0	41cdd033	sra	x0,x27,x28	 x27:0x0000000a x28:0x00000000
       32495000	      3248	800020c4	00300313	addi	x6,x0,3	  x0:0x00000000  x6=0x00000003
       32505000	      3249	800020c8	008be9b3	or	x19,x23,x8	 x23:0x0ef5a000  x8:0x0000001d x19=0x0ef5a01d
       32515000	      3250	800020cc	f74c78b7	lui	x17,0xf74c7	 x17=0xf74c7000
       32525000	      3251	800020d0	ffed8d93	addi	x27,x27,-2	 x27:0x0000000a x27=0x00000008
       32535000	      3252	800020d4	11c60f13	addi	x30,x12,284	 x12:0xa7fffffc x30=0xa8000118
       32545000	      3253	800020d8	fe6df8e3	bgeu	x27,x6,800020c8	 x27:0x00000008  x6:0x00000003
       32555000	      3254	00000000	00000013	addi	x0,x0,0	  x0:0x00000000
       32565000	      3255	800020c4	00000013	addi	x0,x0,0	  x0:0x00000000
       32575000	      3256	800020c8	008be9b3	or	x19,x23,x8	 x23:0x0ef5a000  x8:0x0000001d x19=0x0ef5a01d
       32585000	      3257	800020cc	f74c78b7	lui	x17,0xf74c7	 x17=0xf74c7000
       32595000	      3258	800020d0	ffed8d93	addi	x27,x27,-2	 x27:0x00000008 x27=0x00000006
       32605000	      3259	800020d4	11c60f13	addi	x30,x12,284	 x12:0xa7fffffc x30=0xa8000118
       32615000	      3260	800020d8	fe6df8e3	bgeu	x27,x6,800020c8	 x27:0x00000006  x6:0x00000003
       32625000	      3261	00000000	00000013	addi	x0,x0,0	  x0:0x00000000
       32635000	      3262	800020c4	00000013	addi	x0,x0,0	  x0:0x00000000
       32645000	      3263	800020c8	008be9b3	or	x19,x23,x8	 x23:0x0ef5a000  x8:0x0000001d x19=0x0ef5a01d
       32655000	      3264	800020cc	f74c78b7	lui	x17,0xf74c7	 x17=0xf74c7000
       32665000	      3265	800020d0	ffed8d93	addi	x27,x27,-2	 x27:0x00000006 x27=0x00000004
       32675000	      3266	800020d4	11c60f13	addi	x30,x12,284	 x12:0xa7fffffc x30=0xa8000118
       32685000	      3267	800020d8	fe6df8e3	bgeu	x27,x6,800020c8	 x27:0x00000004  x6:0x00000003
       32695000	      3268	00000000	00000013	addi	x0,x0,0	  x0:0x00000000
       32705000	      3269	800020c4	00000013	addi	x0,x0,0	  x0:0x00000000
       32715000	      3270	800020c8	008be9b3	or	x19,x23,x8	 x23:0x0ef5a000  x8:0x0000001d x19=0x0ef5a01d
       32725000	      3271	800020cc	f74c78b7	lui	x17,0xf74c7	 x17=0xf74c7000
       32735000	      3272	800020d0	ffed8d93	addi	x27,x27,-2	 x27:0x00000004 x27=0x00000002
       32745000	      3273	800020d4	11c60f13	addi	x30,x12,284	 x12:0xa7fffffc x30=0xa8000118
       32755000	      3274	800020d8	fe6df8e3	bgeu	x27,x6,800020c8	 x27:0x00000002  x6:0x00000003
       32765000	      3275	800020dc	fd0754e3	bge	x14,x16,800020a4	 x14:0xfffffff0 x16:0xfffffff0
       32775000	      3276	00000000	00000013	addi	x0,x0,0	  x0:0x00000000
       32785000	      3277	800020a0	00000013	addi	x0,x0,0	  x0:0x00000000
       32795000	      3278	800020a4	99b2d037	lui	x0,0x99b2d	
       32805000	      3279	800020a8	53ce9397	auipc	x7,0x53ce9	  x7=0xd3ceb0a4
       32815000	      3280	800020ac	173e2593	slti	x11,x28,371	 x28:0x00000000 x11=0x00000001
       32825000	      3281	800020b0	0172b5b3	sltu	x11,x5,x23	  x5:0x00000000 x23:0x0ef5a000 x11=0x00000001
       32835000	      3282	800020b4	ffd70713	addi	x14,x14,-3	 x14:0xfffffff0 x14=0xffffffed
       32845000	      3283	800020b8	43dd7413	andi	x8,x26,1085	 x26:0x6e0ff8df  x8=0x0000001d
       32855000	      3284	800020bc	00a00d93	addi	x27,x0,10	  x0:0x00000000 x27=0x0000000a
       32865000	      3285	800020c0	41cdd033	sra	x0,x27,x28	 x27:0x0000000a x28:0x00000000
       32875000	      3286	800020c4	00300313	addi	x6,x0,3	  x0:0x00000000  x6=0x00000003
       32885000	      3287	800020c8	008be9b3	or	x19,x23,x8	 x23:0x0ef5a000  x8:0x0000001d x19=0x0ef5a01d
       32895000	      3288	800020cc	f74c78b7	lui	x17,0xf74c7	 x17=0xf74c7000
       32905000	      3289	800020d0	ffed8d93	addi	x27,x27,-2	 x27:0x0000000a x27=0x00000008
       32915000	      3290	800020d4	11c60f13	addi	x30,x12,284	 x12:0xa7fffffc x30=0xa8000118
       32925000	      3291	800020d8	fe6df8e3	bgeu	x27,x6,800020c8	 x27:0x00000008  x6:0x00000003
       32935000	      3292	00000000	00000013	addi	x0,x0,0	  x0:0x00000000
       32945000	      3293	800020c4	00000013	addi	x0,x0,0	  x0:0x00000000
       32955000	      3294	800020c8	008be9b3	or	x19,x23,x8	 x23:0x0ef5a000  x8:0x0000001d x19=0x0ef5a01d
       32965000	      3295	800020cc	f74c78b7	lui	x17,0xf74c7	 x17=0xf74c7000
       32975000	      3296	800020d0	ffed8d93	addi	x27,x27,-2	 x27:0x00000008 x27=0x00000006
       32985000	      3297	800020d4	11c60f13	addi	x30,x12,284	 x12:0xa7fffffc x30=0xa8000118
       32995000	      3298	800020d8	fe6df8e3	bgeu	x27,x6,800020c8	 x27:0x00000006  x6:0x00000003
       33005000	      3299	00000000	00000013	addi	x0,x0,0	  x0:0x00000000
       33015000	      3300	800020c4	00000013	addi	x0,x0,0	  x0:0x00000000
       33025000	      3301	800020c8	008be9b3	or	x19,x23,x8	 x23:0x0ef5a000  x8:0x0000001d x19=0x0ef5a01d
       33035000	      3302	800020cc	f74c78b7	lui	x17,0xf74c7	 x17=0xf74c7000
       33045000	      3303	800020d0	ffed8d93	addi	x27,x27,-2	 x27:0x00000006 x27=0x00000004
       33055000	      3304	800020d4	11c60f13	addi	x30,x12,284	 x12:0xa7fffffc x30=0xa8000118
       33065000	      3305	800020d8	fe6df8e3	bgeu	x27,x6,800020c8	 x27:0x00000004  x6:0x00000003
       33075000	      3306	00000000	00000013	addi	x0,x0,0	  x0:0x00000000
       33085000	      3307	800020c4	00000013	addi	x0,x0,0	  x0:0x00000000
       33095000	      3308	800020c8	008be9b3	or	x19,x23,x8	 x23:0x0ef5a000  x8:0x0000001d x19=0x0ef5a01d
       33105000	      3309	800020cc	f74c78b7	lui	x17,0xf74c7	 x17=0xf74c7000
       33115000	      3310	800020d0	ffed8d93	addi	x27,x27,-2	 x27:0x00000004 x27=0x00000002
       33125000	      3311	800020d4	11c60f13	addi	x30,x12,284	 x12:0xa7fffffc x30=0xa8000118
       33135000	      3312	800020d8	fe6df8e3	bgeu	x27,x6,800020c8	 x27:0x00000002  x6:0x00000003
       33145000	      3313	800020dc	fd0754e3	bge	x14,x16,800020a4	 x14:0xffffffed x16:0xfffffff0
       33155000	      3314	800020e0	acefa493	slti	x9,x31,-1330	 x31:0x00000000  x9=0x00000000
       33165000	      3315	800020e4	0114dc93	srli	x25,x9,0x11	  x9:0x00000000 x25=0x00000000
       33175000	      3316	800020e8	006e2ab3	slt	x21,x28,x6	 x28:0x00000000  x6:0x00000003 x21=0x00000001
       33185000	      3317	800020ec	00774d33	xor	x26,x14,x7	 x14:0xffffffed  x7:0xd3ceb0a4 x26=0x2c314f49
       33195000	      3318	800020f0	406a8e33	sub	x28,x21,x6	 x21:0x00000001  x6:0x00000003 x28=0xfffffffe
       33205000	      3319	800020f4	00cf0bb3	add	x23,x30,x12	 x30:0xa8000118 x12:0xa7fffffc x23=0x50000114
       33215000	      3320	800020f8	008036b3	sltu	x13,x0,x8	  x0:0x00000000  x8:0x0000001d x13=0x00000001
       33225000	      3321	800020fc	0032f2b3	and	x5,x5,x3	  x5:0x00000000  x3:0x00000000  x5=0x00000000
       33235000	      3322	80002100	0154d233	srl	x4,x9,x21	  x9:0x00000000 x21:0x00000001  x4=0x00000000
       33245000	      3323	80002104	2e20c393	xori	x7,x1,738	  x1:0x0019bc40  x7=0x0019bea2
       33255000	      3324	80002108	0180ec63	bltu	x1,x24,80002120	  x1:0x0019bc40 x24:0x80009f1c
       33265000	      3325	00000000	00000013	addi	x0,x0,0	  x0:0x00000000
       33275000	      3326	8000211c	00000013	addi	x0,x0,0	  x0:0x00000000
       33285000	      3327	80002120	00aaef33	or	x30,x21,x10	 x21:0x00000001 x10:0x00000001 x30=0x00000001
       33295000	      3328	80002124	00000013	addi	x0,x0,0	  x0:0x00000000
       33305000	      3329	80002128	835f8237	lui	x4,0x835f8	  x4=0x835f8000
       33315000	      3330	8000212c	3e4e8013	addi	x0,x29,996	 x29:0x80009fc4
       33325000	      3331	80002130	000b56b3	srl	x13,x22,x0	 x22:0x00000000  x0:0x00000000 x13=0x00000000
       33335000	      3332	80002134	418cdab3	sra	x21,x25,x24	 x25:0x00000000 x24:0x80009f1c x21=0x00000000
       33345000	      3333	80002138	010c1413	slli	x8,x24,0x10	 x24:0x80009f1c  x8=0x9f1c0000
       33355000	      3334	8000213c	043ec063	blt	x29,x3,8000217c	 x29:0x80009fc4  x3:0x00000000
       33365000	      3335	00000000	00000013	addi	x0,x0,0	  x0:0x00000000
       33375000	      3336	80002178	00000013	addi	x0,x0,0	  x0:0x00000000
       33385000	      3337	8000217c	01c36e33	or	x28,x6,x28	  x6:0x00000003 x28:0xfffffffe x28=0xffffffff
       33395000	      3338	80002180	415486b3	sub	x13,x9,x21	  x9:0x00000000 x21:0x00000000 x13=0x00000000
       33405000	      3339	80002184	03e94063	blt	x18,x30,800021a4	 x18:0x066f1000 x30:0x00000001
       33415000	      3340	80002188	00000013	addi	x0,x0,0	  x0:0x00000000
       33425000	      3341	8000218c	18caeb13	ori	x22,x21,396	 x21:0x00000000 x22=0x0000018c
       33435000	      3342	80002190	0117d593	srli	x11,x15,0x11	 x15:0x677408b4 x11=0x000033ba
       33445000	      3343	80002194	03651063	bne	x10,x22,800021b4	 x10:0x00000001 x22:0x0000018c
       33455000	      3344	00000000	00000013	addi	x0,x0,0	  x0:0x00000000
       33465000	      3345	800021b0	00000013	addi	x0,x0,0	  x0:0x00000000
       33475000	      3346	800021b4	2fbff313	andi	x6,x31,763	 x31:0x00000000  x6=0x00000000
       33485000	      3347	800021b8	ea69f117	auipc	x2,0xea69f	  x2=0x6a6a11b4
       33495000	      3348	800021bc	7efad137	lui	x2,0x7efad	  x2=0x7efad000
       33505000	      3349	800021c0	01c7ee63	bltu	x15,x28,800021dc	 x15:0x677408b4 x28:0xffffffff
       33515000	      3350	00000000	00000013	addi	x0,x0,0	  x0:0x00000000
       33525000	      3351	800021d8	00000013	addi	x0,x0,0	  x0:0x00000000
       33535000	      3352	800021dc	07d68663	beq	x13,x29,80002248	 x13:0x00000000 x29:0x80009fc4
       33545000	      3353	800021e0	3d60aa13	slti	x20,x1,982	  x1:0x0019bc40 x20=0x00000000
       33555000	      3354	800021e4	53563193	sltiu	x3,x12,1333	 x12:0xa7fffffc  x3=0x00000000
       33565000	      3355	800021e8	00d37463	bgeu	x6,x13,800021f0	  x6:0x00000000 x13:0x00000000
       33575000	      3356	00000000	00000013	addi	x0,x0,0	  x0:0x00000000
       33585000	      3357	800021ec	00000013	addi	x0,x0,0	  x0:0x00000000
       33595000	      3358	800021f0	41cf5e13	srai	x28,x30,0x1c	 x30:0x00000001 x28=0x00000000
       33605000	      3359	800021f4	00000013	addi	x0,x0,0	  x0:0x00000000
       33615000	      3360	800021f8	016f5613	srli	x12,x30,0x16	 x30:0x00000001 x12=0x00000000
       33625000	      3361	800021fc	848a7b93	andi	x23,x20,-1976	 x20:0x00000000 x23=0x00000000
       33635000	      3362	80002200	ee15c893	xori	x17,x11,-287	 x11:0x000033ba x17=0xffffcd5b
       33645000	      3363	80002204	96984013	xori	x0,x16,-1687	 x16:0xfffffff0
       33655000	      3364	80002208	09377063	bgeu	x14,x19,80002288	 x14:0xffffffed x19:0x0ef5a01d
       33665000	      3365	00000000	00000013	addi	x0,x0,0	  x0:0x00000000
       33675000	      3366	80002284	00000013	addi	x0,x0,0	  x0:0x00000000
       33685000	      3367	80002288	407cd493	srai	x9,x25,0x7	 x25:0x00000000  x9=0x00000000
       33695000	      3368	8000228c	01215cb3	srl	x25,x2,x18	  x2:0x7efad000 x18:0x066f1000 x25=0x7efad000
       33705000	      3369	80002290	02a1c863	blt	x3,x10,800022c0	  x3:0x00000000 x10:0x00000001
       33715000	      3370	00000000	00000013	addi	x0,x0,0	  x0:0x00000000
       33725000	      3371	800022bc	00000013	addi	x0,x0,0	  x0:0x00000000
       33735000	      3372	800022c0	cea6f693	andi	x13,x13,-790	 x13:0x00000000 x13=0x00000000
       33745000	      3373	800022c4	0031edb3	or	x27,x3,x3	  x3:0x00000000  x3:0x00000000 x27=0x00000000
       33755000	      3374	800022c8	6179a913	slti	x18,x19,1559	 x19:0x0ef5a01d x18=0x00000000
       33765000	      3375	800022cc	d84bb613	sltiu	x12,x23,-636	 x23:0x00000000 x12=0x00000001
       33775000	      3376	800022d0	40eedb93	srai	x23,x29,0xe	 x29:0x80009fc4 x23=0xfffe0002
       33785000	      3377	800022d4	41180a33	sub	x20,x16,x17	 x16:0xfffffff0 x17:0xffffcd5b x20=0x00003295
       33795000	      3378	800022d8	7edf3493	sltiu	x9,x30,2029	 x30:0x00000001  x9=0x00000001
       33805000	      3379	800022dc	01daaf33	slt	x30,x21,x29	 x21:0x00000000 x29:0x80009fc4 x30=0x00000000
       33815000	      3380	800022e0	2d6dc013	xori	x0,x27,726	 x27:0x00000000
       33825000	      3381	800022e4	4fd5e297	auipc	x5,0x4fd5e	  x5=0xcfd602e0
       33835000	      3382	800022e8	0416e663	bltu	x13,x1,80002334	 x13:0x00000000  x1:0x0019bc40
       33845000	      3383	00000000	00000013	addi	x0,x0,0	  x0:0x00000000
       33855000	      3384	80002330	00000013	addi	x0,x0,0	  x0:0x00000000
       33865000	      3385	80002334	018926b3	slt	x13,x18,x24	 x18:0x00000000 x24:0x80009f1c x13=0x00000000
       33875000	      3386	80002338	957e8593	addi	x11,x29,-1705	 x29:0x80009fc4 x11=0x8000991b
       33885000	      3387	8000233c	00bca133	slt	x2,x25,x11	 x25:0x7efad000 x11:0x8000991b  x2=0x00000000
       33895000	      3388	80002340	4044df13	srai	x30,x9,0x4	  x9:0x00000001 x30=0x00000000
       33905000	      3389	80002344	e2212d37	lui	x26,0xe2212	 x26=0xe2212000
       33915000	      3390	80002348	40a9d2b3	sra	x5,x19,x10	 x19:0x0ef5a01d x10:0x00000001  x5=0x077ad00e
       33925000	      3391	8000234c	0123e463	bltu	x7,x18,80002354	  x7:0x0019bea2 x18:0x00000000
       33935000	      3392	80002350	01668ab3	add	x21,x13,x22	 x13:0x00000000 x22:0x0000018c x21=0x0000018c
       33945000	      3393	80002354	00ff1133	sll	x2,x30,x15	 x30:0x00000000 x15:0x677408b4  x2=0x00000000
       33955000	      3394	80002358	7ac2e617	auipc	x12,0x7ac2e	 x12=0xfac30354
       33965000	      3395	8000235c	00000013	addi	x0,x0,0	  x0:0x00000000
       33975000	      3396	80002360	00e30433	add	x8,x6,x14	  x6:0x00000000 x14:0xffffffed  x8=0xffffffed
       33985000	      3397	80002364	01004233	xor	x4,x0,x16	  x0:0x00000000 x16:0xfffffff0  x4=0xfffffff0
       33995000	      3398	80002368	724b2293	slti	x5,x22,1828	 x22:0x0000018c  x5=0x00000001
       34005000	      3399	8000236c	3cee8713	addi	x14,x29,974	 x29:0x80009fc4 x14=0x8000a392
       34015000	      3400	80002370	011ca1b3	slt	x3,x25,x17	 x25:0x7efad000 x17:0xffffcd5b  x3=0x00000000
       34025000	      3401	80002374	1e45f513	andi	x10,x11,484	 x11:0x8000991b x10=0x00000100
       34035000	      3402	80002378	00a55093	srli	x1,x10,0xa	 x10:0x00000100  x1=0x00000000
       34045000	      3403	8000237c	e79e2193	slti	x3,x28,-391	 x28:0x00000000  x3=0x00000000
       34055000	      3404	80002380	8e8cfd13	andi	x26,x25,-1816	 x25:0x7efad000 x26=0x7efad000
       34065000	      3405	80002384	000cfd33	and	x26,x25,x0	 x25:0x7efad000  x0:0x00000000 x26=0x00000000
       34075000	      3406	80002388	00bfabb3	slt	x23,x31,x11	 x31:0x00000000 x11:0x8000991b x23=0x00000000
       34085000	      3407	8000238c	018f1293	slli	x5,x30,0x18	 x30:0x00000000  x5=0x00000000
       34095000	      3408	80002390	4058df93	srai	x31,x17,0x5	 x17:0xffffcd5b x31=0xfffffe6a
       34105000	      3409	80002394	00000013	addi	x0,x0,0	  x0:0x00000000
       34115000	      3410	80002398	014fc3b3	xor	x7,x31,x20	 x31:0xfffffe6a x20:0x00003295  x7=0xffffccff
       34125000	      3411	8000239c	02115e63	bge	x2,x1,800023d8	  x2:0x00000000  x1:0x00000000
       34135000	      3412	00000000	00000013	addi	x0,x0,0	  x0:0x00000000
       34145000	      3413	800023d4	00000013	addi	x0,x0,0	  x0:0x00000000
       34155000	      3414	800023d8	055ad863	bge	x21,x21,80002428	 x21:0x0000018c x21:0x0000018c
       34165000	      3415	00000000	00000013	addi	x0,x0,0	  x0:0x00000000
       34175000	      3416	80002424	00000013	addi	x0,x0,0	  x0:0x00000000
       34185000	      3417	80002428	7bc24013	xori	x0,x4,1980	  x4:0xfffffff0
       34195000	      3418	8000242c	40915213	srai	x4,x2,0x9	  x2:0x00000000  x4=0x00000000
       34205000	      3419	80002430	fd163617	auipc	x12,0xfd163	 x12=0x7d16542c
       34215000	      3420	80002434	01f5ae33	slt	x28,x11,x31	 x11:0x8000991b x31:0xfffffe6a x28=0x00000001
       34225000	      3421	80002438	0155dc63	bge	x11,x21,80002450	 x11:0x8000991b x21:0x0000018c
       34235000	      3422	8000243c	00ac8e63	beq	x25,x10,80002458	 x25:0x7efad000 x10:0x00000100
       34245000	      3423	80002440	6a21ca13	xori	x20,x3,1698	  x3:0x00000000 x20=0x000006a2
       34255000	      3424	80002444	414d5933	sra	x18,x26,x20	 x26:0x00000000 x20:0x000006a2 x18=0x00000000
       34265000	      3425	80002448	75df7213	andi	x4,x30,1885	 x30:0x00000000  x4=0x00000000
       34275000	      3426	8000244c	40460933	sub	x18,x12,x4	 x12:0x7d16542c  x4:0x00000000 x18=0x7d16542c
       34285000	      3427	80002450	03ad7663	bgeu	x26,x26,8000247c	 x26:0x00000000 x26:0x00000000
       34295000	      3428	00000000	00000013	addi	x0,x0,0	  x0:0x00000000
       34305000	      3429	80002478	00000013	addi	x0,x0,0	  x0:0x00000000
       34315000	      3430	8000247c	009bff33	and	x30,x23,x9	 x23:0x00000000  x9:0x00000001 x30=0x00000000
       34325000	      3431	80002480	00487e63	bgeu	x16,x4,8000249c	 x16:0xfffffff0  x4:0x00000000
       34335000	      3432	00000000	00000013	addi	x0,x0,0	  x0:0x00000000
       34345000	      3433	80002498	00000013	addi	x0,x0,0	  x0:0x00000000
       34355000	      3434	8000249c	91ba4013	xori	x0,x20,-1765	 x20:0x000006a2
       34365000	      3435	800024a0	01eae463	bltu	x21,x30,800024a8	 x21:0x0000018c x30:0x00000000
       34375000	      3436	800024a4	560b3317	auipc	x6,0x560b3	  x6=0xd60b54a0
       34385000	      3437	800024a8	00a69813	slli	x16,x13,0xa	 x13:0x00000000 x16=0x00000000
       34395000	      3438	800024ac	fe9c2b13	slti	x22,x24,-23	 x24:0x80009f1c x22=0x00000001
       34405000	      3439	800024b0	4049d393	srai	x7,x19,0x4	 x19:0x0ef5a01d  x7=0x00ef5a01
       34415000	      3440	800024b4	141b1397	auipc	x7,0x141b1	  x7=0x941b34b0
       34425000	      3441	800024b8	6bce0213	addi	x4,x28,1724	 x28:0x00000001  x4=0x000006bd
       34435000	      3442	800024bc	41c9d293	srai	x5,x19,0x1c	 x19:0x0ef5a01d  x5=0x00000000
       34445000	      3443	800024c0	394ba293	slti	x5,x23,916	 x23:0x00000000  x5=0x00000001
       34455000	      3444	800024c4	33007013	andi	x0,x0,816	  x0:0x00000000
       34465000	      3445	800024c8	418106b3	sub	x13,x2,x24	  x2:0x00000000 x24:0x80009f1c x13=0x7fff60e4
       34475000	      3446	800024cc	02061063	bne	x12,x0,800024ec	 x12:0x7d16542c  x0:0x00000000
       34485000	      3447	00000000	00000013	addi	x0,x0,0	  x0:0x00000000
       34495000	      3448	800024e8	00000013	addi	x0,x0,0	  x0:0x00000000
       34505000	      3449	800024ec	00000013	addi	x0,x0,0	  x0:0x00000000
       34515000	      3450	800024f0	41ab5433	sra	x8,x22,x26	 x22:0x00000001 x26:0x00000000  x8=0x00000001
       34525000	      3451	800024f4	002fa333	slt	x6,x31,x2	 x31:0xfffffe6a  x2:0x00000000  x6=0x00000001
       34535000	      3452	800024f8	011830b3	sltu	x1,x16,x17	 x16:0x00000000 x17:0xffffcd5b  x1=0x00000001
       34545000	      3453	800024fc	00330663	beq	x6,x3,80002508	  x6:0x00000001  x3:0x00000000
       34555000	      3454	80002500	b8926693	ori	x13,x4,-1143	  x4:0x000006bd x13=0xffffffbd
       34565000	      3455	80002504	a0f73d13	sltiu	x26,x14,-1521	 x14:0x8000a392 x26=0x00000001
       34575000	      3456	80002508	00799393	slli	x7,x19,0x7	 x19:0x0ef5a01d  x7=0x7ad00e80
       34585000	      3457	8000250c	0915ed93	ori	x27,x11,145	 x11:0x8000991b x27=0x8000999b
       34595000	      3458	80002510	02744063	blt	x8,x7,80002530	  x8:0x00000001  x7:0x7ad00e80
       34605000	      3459	00000000	00000013	addi	x0,x0,0	  x0:0x00000000
       34615000	      3460	8000252c	00000013	addi	x0,x0,0	  x0:0x00000000
       34625000	      3461	80002530	011e12b3	sll	x5,x28,x17	 x28:0x00000001 x17:0xffffcd5b  x5=0x08000000
       34635000	      3462	80002534	41700133	sub	x2,x0,x23	  x0:0x00000000 x23:0x00000000  x2=0x00000000
       34645000	      3463	80002538	52a84393	xori	x7,x16,1322	 x16:0x00000000  x7=0x0000052a
       34655000	      3464	8000253c	ca914613	xori	x12,x2,-855	  x2:0x00000000 x12=0xfffffca9
       34665000	      3465	80002540	00000013	addi	x0,x0,0	  x0:0x00000000
       34675000	      3466	80002544	03251863	bne	x10,x18,80002574	 x10:0x00000100 x18:0x7d16542c
       34685000	      3467	00000000	00000013	addi	x0,x0,0	  x0:0x00000000
       34695000	      3468	80002570	00000013	addi	x0,x0,0	  x0:0x00000000
       34705000	      3469	80002574	40e453b3	sra	x7,x8,x14	  x8:0x00000001 x14:0x8000a392  x7=0x00000000
       34715000	      3470	80002578	0143c333	xor	x6,x7,x20	  x7:0x00000000 x20:0x000006a2  x6=0x000006a2
       34725000	      3471	8000257c	00e620b3	slt	x1,x12,x14	 x12:0xfffffca9 x14:0x8000a392  x1=0x00000000
       34735000	      3472	80002580	02bc6e63	bltu	x24,x11,800025bc	 x24:0x80009f1c x11:0x8000991b
       34745000	      3473	80002584	01da9833	sll	x16,x21,x29	 x21:0x0000018c x29:0x80009fc4 x16=0x000018c0
       34755000	      3474	80002588	018cf2b3	and	x5,x25,x24	 x25:0x7efad000 x24:0x80009f1c  x5=0x00009000
       34765000	      3475	8000258c	00212ab3	slt	x21,x2,x2	  x2:0x00000000  x2:0x00000000 x21=0x00000000
       34775000	      3476	80002590	00daa133	slt	x2,x21,x13	 x21:0x00000000 x13:0xffffffbd  x2=0x00000000
       34785000	      3477	80002594	007abdb3	sltu	x27,x21,x7	 x21:0x00000000  x7:0x00000000 x27=0x00000000
       34795000	      3478	80002598	8cb08013	addi	x0,x1,-1845	  x1:0x00000000
       34805000	      3479	8000259c	04c11063	bne	x2,x12,800025dc	  x2:0x00000000 x12:0xfffffca9
       34815000	      3480	00000000	00000013	addi	x0,x0,0	  x0:0x00000000
       34825000	      3481	800025d8	00000013	addi	x0,x0,0	  x0:0x00000000
       34835000	      3482	800025dc	03bde463	bltu	x27,x27,80002604	 x27:0x00000000 x27:0x00000000
       34845000	      3483	800025e0	01c4e533	or	x10,x9,x28	  x9:0x00000001 x28:0x00000001 x10=0x00000001
       34855000	      3484	800025e4	01cd5013	srli	x0,x26,0x1c	 x26:0x00000001
       34865000	      3485	800025e8	41a3de13	srai	x28,x7,0x1a	  x7:0x00000000 x28=0x00000000
       34875000	      3486	800025ec	02bbc063	blt	x23,x11,8000260c	 x23:0x00000000 x11:0x8000991b
       34885000	      3487	800025f0	40a001b3	sub	x3,x0,x10	  x0:0x00000000 x10:0x00000001  x3=0xffffffff
       34895000	      3488	800025f4	00809e63	bne	x1,x8,80002610	  x1:0x00000000  x8:0x00000001
       34905000	      3489	00000000	00000013	addi	x0,x0,0	  x0:0x00000000
       34915000	      3490	8000260c	00000013	addi	x0,x0,0	  x0:0x00000000
       34925000	      3491	80002610	01fdee33	or	x28,x27,x31	 x27:0x00000000 x31:0xfffffe6a x28=0xfffffe6a
       34935000	      3492	80002614	5dc4fb13	andi	x22,x9,1500	  x9:0x00000001 x22=0x00000000
       34945000	      3493	80002618	421e4f37	lui	x30,0x421e4	 x30=0x421e4000
       34955000	      3494	8000261c	005a68b3	or	x17,x20,x5	 x20:0x000006a2  x5:0x00009000 x17=0x000096a2
       34965000	      3495	80002620	003c5113	srli	x2,x24,0x3	 x24:0x80009f1c  x2=0x100013e3
       34975000	      3496	80002624	00564133	xor	x2,x12,x5	 x12:0xfffffca9  x5:0x00009000  x2=0xffff6ca9
       34985000	      3497	80002628	01887433	and	x8,x16,x24	 x16:0x000018c0 x24:0x80009f1c  x8=0x00001800
       34995000	      3498	8000262c	4173dfb3	sra	x31,x7,x23	  x7:0x00000000 x23:0x00000000 x31=0x00000000
       35005000	      3499	80002630	d94d7913	andi	x18,x26,-620	 x26:0x00000001 x18=0x00000000
       35015000	      3500	80002634	00d12533	slt	x10,x2,x13	  x2:0xffff6ca9 x13:0xffffffbd x10=0x00000001
       35025000	      3501	80002638	01ebdc93	srli	x25,x23,0x1e	 x23:0x00000000 x25=0x00000000
       35035000	      3502	8000263c	01e9d933	srl	x18,x19,x30	 x19:0x0ef5a01d x30:0x421e4000 x18=0x0ef5a01d
       35045000	      3503	80002640	c710e513	ori	x10,x1,-911	  x1:0x00000000 x10=0xfffffc71
       35055000	      3504	80002644	412cd193	srai	x3,x25,0x12	 x25:0x00000000  x3=0x00000000
       35065000	      3505	80002648	02f8e863	bltu	x17,x15,80002678	 x17:0x000096a2 x15:0x677408b4
       35075000	      3506	00000000	00000013	addi	x0,x0,0	  x0:0x00000000
       35085000	      3507	80002674	00000013	addi	x0,x0,0	  x0:0x00000000
       35095000	      3508	80002678	97000313	addi	x6,x0,-1680	  x0:0x00000000  x6=0xfffff970
       35105000	      3509	8000267c	400c01b3	sub	x3,x24,x0	 x24:0x80009f1c  x0:0x00000000  x3=0x80009f1c
       35115000	      3510	80002680	4068d513	srai	x10,x17,0x6	 x17:0x000096a2 x10=0x0000025a
       35125000	      3511	80002684	59689337	lui	x6,0x59689	  x6=0x59689000
       35135000	      3512	80002688	22335197	auipc	x3,0x22335	  x3=0xa2337684
       35145000	      3513	8000268c	01a1b2b3	sltu	x5,x3,x26	  x3:0xa2337684 x26:0x00000001  x5=0x00000000
       35155000	      3514	80002690	31f4c093	xori	x1,x9,799	  x9:0x00000001  x1=0x0000031e
       35165000	      3515	80002694	164b2513	slti	x10,x22,356	 x22:0x00000000 x10=0x00000001
       35175000	      3516	80002698	0123d533	srl	x10,x7,x18	  x7:0x00000000 x18:0x0ef5a01d x10=0x00000000
       35185000	      3517	8000269c	00e4fab3	and	x21,x9,x14	  x9:0x00000001 x14:0x8000a392 x21=0x00000000
       35195000	      3518	800026a0	00480463	beq	x16,x4,800026a8	 x16:0x000018c0  x4:0x000006bd
       35205000	      3519	800026a4	00ff1693	slli	x13,x30,0xf	 x30:0x421e4000 x13=0x20000000
       35215000	      3520	800026a8	01c75f93	srli	x31,x14,0x1c	 x14:0x8000a392 x31=0x00000008
       35225000	      3521	800026ac	ddaf0417	auipc	x8,0xddaf0	  x8=0x5daf26a8
       35235000	      3522	800026b0	795df817	auipc	x16,0x795df	 x16=0xf95e16ac
       35245000	      3523	800026b4	01eb5463	bge	x22,x30,800026bc	 x22:0x00000000 x30:0x421e4000
       35255000	      3524	800026b8	ac681f97	auipc	x31,0xac681	 x31=0x2c6836b4
       35265000	      3525	800026bc	00f7bf33	sltu	x30,x15,x15	 x15:0x677408b4 x15:0x677408b4 x30=0x00000000
       35275000	      3526	800026c0	02869e63	bne	x13,x8,800026fc	 x13:0x20000000  x8:0x5daf26a8
       35285000	      3527	00000000	00000013	addi	x0,x0,0	  x0:0x00000000
       35295000	      3528	800026f8	00000013	addi	x0,x0,0	  x0:0x00000000
       35305000	      3529	800026fc	4124d513	srai	x10,x9,0x12	  x9:0x00000001 x10=0x00000000
       35315000	      3530	80002700	40aad433	sra	x8,x21,x10	 x21:0x00000000 x10:0x00000000  x8=0x00000000
       35325000	      3531	80002704	41840bb3	sub	x23,x8,x24	  x8:0x00000000 x24:0x80009f1c x23=0x7fff60e4
       35335000	      3532	80002708	002f8cb3	add	x25,x31,x2	 x31:0x2c6836b4  x2:0xffff6ca9 x25=0x2c67a35d
       35345000	      3533	8000270c	00000013	addi	x0,x0,0	  x0:0x00000000
       35355000	      3534	80002710	40d78233	sub	x4,x15,x13	 x15:0x677408b4 x13:0x20000000  x4=0x477408b4
       35365000	      3535	80002714	00599813	slli	x16,x19,0x5	 x19:0x0ef5a01d x16=0xdeb403a0
       35375000	      3536	80002718	6fe84113	xori	x2,x16,1790	 x16:0xdeb403a0  x2=0xdeb4055e
       35385000	      3537	8000271c	05104663	blt	x0,x17,80002768	  x0:0x00000000 x17:0x000096a2
       35395000	      3538	00000000	00000013	addi	x0,x0,0	  x0:0x00000000
       35405000	      3539	80002764	00000013	addi	x0,x0,0	  x0:0x00000000
       35415000	      3540	80002768	45566113	ori	x2,x12,1109	 x12:0xfffffca9  x2=0xfffffcfd
       35425000	      3541	8000276c	40ab8e33	sub	x28,x23,x10	 x23:0x7fff60e4 x10:0x00000000 x28=0x7fff60e4
       35435000	      3542	80002770	0a857513	andi	x10,x10,168	 x10:0x00000000 x10=0x00000000
       35445000	      3543	80002774	410e8733	sub	x14,x29,x16	 x29:0x80009fc4 x16:0xdeb403a0 x14=0xa14c9c24
       35455000	      3544	80002778	00d66c63	bltu	x12,x13,80002790	 x12:0xfffffca9 x13:0x20000000
       35465000	      3545	8000277c	00ad5b13	srli	x22,x26,0xa	 x26:0x00000001 x22=0x00000000
       35475000	      3546	80002780	1331a813	slti	x16,x3,307	  x3:0xa2337684 x16=0x00000001
       35485000	      3547	80002784	682e0893	addi	x17,x28,1666	 x28:0x7fff60e4 x17=0x7fff6766
       35495000	      3548	80002788	01d55663	bge	x10,x29,80002794	 x10:0x00000000 x29:0x80009fc4
       35505000	      3549	00000000	00000013	addi	x0,x0,0	  x0:0x00000000
       35515000	      3550	80002790	00000013	addi	x0,x0,0	  x0:0x00000000
       35525000	      3551	80002794	0909b493	sltiu	x9,x19,144	 x19:0x0ef5a01d  x9=0x00000000
       35535000	      3552	80002798	01dd9713	slli	x14,x27,0x1d	 x27:0x00000000 x14=0x00000000
       35545000	      3553	8000279c	2b486693	ori	x13,x16,692	 x16:0x00000001 x13=0x000002b5
       35555000	      3554	800027a0	03820263	beq	x4,x24,800027c4	  x4:0x477408b4 x24:0x80009f1c
       35565000	      3555	800027a4	61793313	sltiu	x6,x18,1559	 x18:0x0ef5a01d  x6=0x00000000
       35575000	      3556	800027a8	01720733	add	x14,x4,x23	  x4:0x477408b4 x23:0x7fff60e4 x14=0xc7736998
       35585000	      3557	800027ac	00dc1b33	sll	x22,x24,x13	 x24:0x80009f1c x13:0x000002b5 x22=0xe3800000
       35595000	      3558	800027b0	400a03b3	sub	x7,x20,x0	 x20:0x000006a2  x0:0x00000000  x7=0x000006a2
       35605000	      3559	800027b4	7d5a3913	sltiu	x18,x20,2005	 x20:0x000006a2 x18=0x00000001
       35615000	      3560	800027b8	5c1a2c93	slti	x25,x20,1473	 x20:0x000006a2 x25=0x00000000
       35625000	      3561	800027bc	38c30b93	addi	x23,x6,908	  x6:0x00000000 x23=0x0000038c
       35635000	      3562	800027c0	34b72393	slti	x7,x14,843	 x14:0xc7736998  x7=0x00000001
       35645000	      3563	800027c4	00e88ab3	add	x21,x17,x14	 x17:0x7fff6766 x14:0xc7736998 x21=0x4772d0fe
       35655000	      3564	800027c8	a4cac893	xori	x17,x21,-1460	 x21:0x4772d0fe x17=0xb88d2ab2
       35665000	      3565	800027cc	017efa63	bgeu	x29,x23,800027e0	 x29:0x80009fc4 x23:0x0000038c
       35675000	      3566	00000000	00000013	addi	x0,x0,0	  x0:0x00000000
       35685000	      3567	800027dc	00000013	addi	x0,x0,0	  x0:0x00000000
       35695000	      3568	800027e0	008383b3	add	x7,x7,x8	  x7:0x00000001  x8:0x00000000  x7=0x00000001
       35705000	      3569	800027e4	8795a713	slti	x14,x11,-1927	 x11:0x8000991b x14=0x00000001
       35715000	      3570	800027e8	00fc9a33	sll	x20,x25,x15	 x25:0x00000000 x15:0x677408b4 x20=0x00000000
       35725000	      3571	800027ec	00326db3	or	x27,x4,x3	  x4:0x477408b4  x3:0xa2337684 x27=0xe7777eb4
       35735000	      3572	800027f0	001e8433	add	x8,x29,x1	 x29:0x80009fc4  x1:0x0000031e  x8=0x8000a2e2
       35745000	      3573	800027f4	41e2da33	sra	x20,x5,x30	  x5:0x00000000 x30:0x00000000 x20=0x00000000
       35755000	      3574	800027f8	01720ab3	add	x21,x4,x23	  x4:0x477408b4 x23:0x0000038c x21=0x47740c40
       35765000	      3575	800027fc	0037ae33	slt	x28,x15,x3	 x15:0x677408b4  x3:0xa2337684 x28=0x00000000
       35775000	      3576	80002800	bffdb893	sltiu	x17,x27,-1025	 x27:0xe7777eb4 x17=0x00000001
       35785000	      3577	80002804	03bcea63	bltu	x25,x27,80002838	 x25:0x00000000 x27:0xe7777eb4
       35795000	      3578	00000000	00000013	addi	x0,x0,0	  x0:0x00000000
       35805000	      3579	80002834	00000013	addi	x0,x0,0	  x0:0x00000000
       35815000	      3580	80002838	00310a63	beq	x2,x3,8000284c	  x2:0xfffffcfd  x3:0xa2337684
       35825000	      3581	8000283c	4143d433	sra	x8,x7,x20	  x7:0x00000001 x20:0x00000000  x8=0x00000001
       35835000	      3582	80002840	41b959b3	sra	x19,x18,x27	 x18:0x00000001 x27:0xe7777eb4 x19=0x00000000
       35845000	      3583	80002844	3ec0af93	slti	x31,x1,1004	  x1:0x0000031e x31=0x00000001
       35855000	      3584	80002848	401f54b3	sra	x9,x30,x1	 x30:0x00000000  x1:0x0000031e  x9=0x00000000
       35865000	      3585	8000284c	59fa0093	addi	x1,x20,1439	 x20:0x00000000  x1=0x0000059f
       35875000	      3586	80002850	0004a1b3	slt	x3,x9,x0	  x9:0x00000000  x0:0x00000000  x3=0x00000000
       35885000	      3587	80002854	01990663	beq	x18,x25,80002860	 x18:0x00000001 x25:0x00000000
       35895000	      3588	80002858	127f0713	addi	x14,x30,295	 x30:0x00000000 x14=0x00000127
       35905000	      3589	8000285c	b5ce2717	auipc	x14,0xb5ce2	 x14=0x35ce4858
       35915000	      3590	80002860	09ce8663	beq	x29,x28,800028ec	 x29:0x80009fc4 x28:0x00000000
       35925000	      3591	80002864	01cdd733	srl	x14,x27,x28	 x27:0xe7777eb4 x28:0x00000000 x14=0xe7777eb4
       35935000	      3592	80002868	41a5db13	srai	x22,x11,0x1a	 x11:0x8000991b x22=0xffffffe0
       35945000	      3593	8000286c	01e51463	bne	x10,x30,80002874	 x10:0x00000000 x30:0x00000000
       35955000	      3594	80002870	0baa5663	bge	x20,x26,8000291c	 x20:0x00000000 x26:0x00000001
       35965000	      3595	80002874	017ec463	blt	x29,x23,8000287c	 x29:0x80009fc4 x23:0x0000038c
       35975000	      3596	00000000	00000013	addi	x0,x0,0	  x0:0x00000000
       35985000	      3597	80002878	00000013	addi	x0,x0,0	  x0:0x00000000
       35995000	      3598	8000287c	0143f033	and	x0,x7,x20	  x7:0x00000001 x20:0x00000000
       36005000	      3599	80002880	01f205b3	add	x11,x4,x31	  x4:0x477408b4 x31:0x00000001 x11=0x477408b5
       36015000	      3600	80002884	ffc00713	addi	x14,x0,-4	  x0:0x00000000 x14=0xfffffffc
       36025000	      3601	80002888	000c5093	srli	x1,x24,0x0	 x24:0x80009f1c  x1=0x80009f1c
       36035000	      3602	8000288c	00000013	addi	x0,x0,0	  x0:0x00000000
       36045000	      3603	80002890	41be5d93	srai	x27,x28,0x1b	 x28:0x00000000 x27=0x00000000
       36055000	      3604	80002894	a3590493	addi	x9,x18,-1483	 x18:0x00000001  x9=0xfffffa36
       36065000	      3605	80002898	01651513	slli	x10,x10,0x16	 x10:0x00000000 x10=0x00000000
       36075000	      3606	8000289c	fed00693	addi	x13,x0,-19	  x0:0x00000000 x13=0xffffffed
       36085000	      3607	800028a0	000ca3b3	slt	x7,x25,x0	 x25:0x00000000  x0:0x00000000  x7=0x00000000
       36095000	      3608	800028a4	591f7213	andi	x4,x30,1425	 x30:0x00000000  x4=0x00000000
       36105000	      3609	800028a8	0105bd33	sltu	x26,x11,x16	 x11:0x477408b5 x16:0x00000001 x26=0x00000000
       36115000	      3610	800028ac	ff670713	addi	x14,x14,-10	 x14:0xfffffffc x14=0xfffffff2
       36125000	      3611	800028b0	00000b93	addi	x23,x0,0	  x0:0x00000000 x23=0x00000000
       36135000	      3612	800028b4	fff00613	addi	x12,x0,-1	  x0:0x00000000 x12=0xffffffff
       36145000	      3613	800028b8	408780b3	sub	x1,x15,x8	 x15:0x677408b4  x8:0x00000001  x1=0x677408b3
       36155000	      3614	800028bc	00ab2933	slt	x18,x22,x10	 x22:0xffffffe0 x10:0x00000000 x18=0x00000001
       36165000	      3615	800028c0	0095d113	srli	x2,x11,0x9	 x11:0x477408b5  x2=0x0023ba04
       36175000	      3616	800028c4	ff7b8b93	addi	x23,x23,-9	 x23:0x00000000 x23=0xfffffff7
       36185000	      3617	800028c8	01400533	add	x10,x0,x20	  x0:0x00000000 x20:0x00000000 x10=0x00000000
       36195000	      3618	800028cc	fecbd6e3	bge	x23,x12,800028b8	 x23:0xfffffff7 x12:0xffffffff
       36205000	      3619	800028d0	ed71e193	ori	x3,x3,-297	  x3:0x00000000  x3=0xfffffed7
       36215000	      3620	800028d4	01c23db3	sltu	x27,x4,x28	  x4:0x00000000 x28:0x00000000 x27=0x00000000
       36225000	      3621	800028d8	fcd756e3	bge	x14,x13,800028a4	 x14:0xfffffff2 x13:0xffffffed
       36235000	      3622	00000000	00000013	addi	x0,x0,0	  x0:0x00000000
       36245000	      3623	800028a0	00000013	addi	x0,x0,0	  x0:0x00000000
       36255000	      3624	800028a4	591f7213	andi	x4,x30,1425	 x30:0x00000000  x4=0x00000000
       36265000	      3625	800028a8	0105bd33	sltu	x26,x11,x16	 x11:0x477408b5 x16:0x00000001 x26=0x00000000
       36275000	      3626	800028ac	ff670713	addi	x14,x14,-10	 x14:0xfffffff2 x14=0xffffffe8
       36285000	      3627	800028b0	00000b93	addi	x23,x0,0	  x0:0x00000000 x23=0x00000000
       36295000	      3628	800028b4	fff00613	addi	x12,x0,-1	  x0:0x00000000 x12=0xffffffff
       36305000	      3629	800028b8	408780b3	sub	x1,x15,x8	 x15:0x677408b4  x8:0x00000001  x1=0x677408b3
       36315000	      3630	800028bc	00ab2933	slt	x18,x22,x10	 x22:0xffffffe0 x10:0x00000000 x18=0x00000001
       36325000	      3631	800028c0	0095d113	srli	x2,x11,0x9	 x11:0x477408b5  x2=0x0023ba04
       36335000	      3632	800028c4	ff7b8b93	addi	x23,x23,-9	 x23:0x00000000 x23=0xfffffff7
       36345000	      3633	800028c8	01400533	add	x10,x0,x20	  x0:0x00000000 x20:0x00000000 x10=0x00000000
       36355000	      3634	800028cc	fecbd6e3	bge	x23,x12,800028b8	 x23:0xfffffff7 x12:0xffffffff
       36365000	      3635	800028d0	ed71e193	ori	x3,x3,-297	  x3:0xfffffed7  x3=0xfffffed7
       36375000	      3636	800028d4	01c23db3	sltu	x27,x4,x28	  x4:0x00000000 x28:0x00000000 x27=0x00000000
       36385000	      3637	800028d8	fcd756e3	bge	x14,x13,800028a4	 x14:0xffffffe8 x13:0xffffffed
       36395000	      3638	800028dc	01cdf9b3	and	x19,x27,x28	 x27:0x00000000 x28:0x00000000 x19=0x00000000
       36405000	      3639	800028e0	018cd213	srli	x4,x25,0x18	 x25:0x00000000  x4=0x00000000
       36415000	      3640	800028e4	00057e63	bgeu	x10,x0,80002900	 x10:0x00000000  x0:0x00000000
       36425000	      3641	00000000	00000013	addi	x0,x0,0	  x0:0x00000000
       36435000	      3642	800028fc	00000013	addi	x0,x0,0	  x0:0x00000000
       36445000	      3643	80002900	bf646e13	ori	x28,x8,-1034	  x8:0x00000001 x28=0xfffffbf7
       36455000	      3644	80002904	00c2a0b3	slt	x1,x5,x12	  x5:0x00000000 x12:0xffffffff  x1=0x00000000
       36465000	      3645	80002908	00cc5a13	srli	x20,x24,0xc	 x24:0x80009f1c x20=0x00080009
       36475000	      3646	8000290c	00eed293	srli	x5,x29,0xe	 x29:0x80009fc4  x5=0x00020002
       36485000	      3647	80002910	01fd1cb3	sll	x25,x26,x31	 x26:0x00000000 x31:0x00000001 x25=0x00000000
       36495000	      3648	80002914	016f7d33	and	x26,x30,x22	 x30:0x00000000 x22:0xffffffe0 x26=0x00000000
       36505000	      3649	80002918	03eee663	bltu	x29,x30,80002944	 x29:0x80009fc4 x30:0x00000000
       36515000	      3650	8000291c	44b02193	slti	x3,x0,1099	  x0:0x00000000  x3=0x00000001
       36525000	      3651	80002920	b877ed93	ori	x27,x15,-1145	 x15:0x677408b4 x27=0xfffffbb7
       36535000	      3652	80002924	04bec663	blt	x29,x11,80002970	 x29:0x80009fc4 x11:0x477408b5
       36545000	      3653	00000000	00000013	addi	x0,x0,0	  x0:0x00000000
       36555000	      3654	8000296c	00000013	addi	x0,x0,0	  x0:0x00000000
       36565000	      3655	80002970	639faf93	slti	x31,x31,1593	 x31:0x00000001 x31=0x00000001
       36575000	      3656	80002974	02c39e63	bne	x7,x12,800029b0	  x7:0x00000000 x12:0xffffffff
       36585000	      3657	00000000	00000013	addi	x0,x0,0	  x0:0x00000000
       36595000	      3658	800029ac	00000013	addi	x0,x0,0	  x0:0x00000000
       36605000	      3659	800029b0	016841b3	xor	x3,x16,x22	 x16:0x00000001 x22:0xffffffe0  x3=0xffffffe1
       36615000	      3660	800029b4	eeca0313	addi	x6,x20,-276	 x20:0x00080009  x6=0x0007fef5
       36625000	      3661	800029b8	00f0de13	srli	x28,x1,0xf	  x1:0x00000000 x28=0x00000000
       36635000	      3662	800029bc	01acee63	bltu	x25,x26,800029d8	 x25:0x00000000 x26:0x00000000
       36645000	      3663	800029c0	02cd9e63	bne	x27,x12,800029fc	 x27:0xfffffbb7 x12:0xffffffff
       36655000	      3664	00000000	00000013	addi	x0,x0,0	  x0:0x00000000
       36665000	      3665	800029f8	00000013	addi	x0,x0,0	  x0:0x00000000
       36675000	      3666	800029fc	00634bb3	xor	x23,x6,x6	  x6:0x0007fef5  x6:0x0007fef5 x23=0x00000000
       36685000	      3667	80002a00	01600733	add	x14,x0,x22	  x0:0x00000000 x22:0xffffffe0 x14=0xffffffe0
       36695000	      3668	80002a04	b654cd93	xori	x27,x9,-1179	  x9:0xfffffa36 x27=0x00000153
       36705000	      3669	80002a08	d50ace13	xori	x28,x21,-688	 x21:0x47740c40 x28=0xb88bf110
       36715000	      3670	80002a0c	004c42b3	xor	x5,x24,x4	 x24:0x80009f1c  x4:0x00000000  x5=0x80009f1c
       36725000	      3671	80002a10	03a86463	bltu	x16,x26,80002a38	 x16:0x00000001 x26:0x00000000
       36735000	      3672	80002a14	015085b3	add	x11,x1,x21	  x1:0x00000000 x21:0x47740c40 x11=0x47740c40
       36745000	      3673	80002a18	05aed063	bge	x29,x26,80002a58	 x29:0x80009fc4 x26:0x00000000
       36755000	      3674	80002a1c	00683b33	sltu	x22,x16,x6	 x16:0x00000001  x6:0x0007fef5 x22=0x00000001
       36765000	      3675	80002a20	00000013	addi	x0,x0,0	  x0:0x00000000
       36775000	      3676	80002a24	00561d13	slli	x26,x12,0x5	 x12:0xffffffff x26=0xffffffe0
       36785000	      3677	80002a28	00157c63	bgeu	x10,x1,80002a40	 x10:0x00000000  x1:0x00000000
       36795000	      3678	00000000	00000013	addi	x0,x0,0	  x0:0x00000000
       36805000	      3679	80002a3c	00000013	addi	x0,x0,0	  x0:0x00000000
       36815000	      3680	80002a40	05b77863	bgeu	x14,x27,80002a90	 x14:0xffffffe0 x27:0x00000153
       36825000	      3681	00000000	00000013	addi	x0,x0,0	  x0:0x00000000
       36835000	      3682	80002a8c	00000013	addi	x0,x0,0	  x0:0x00000000
       36845000	      3683	80002a90	04a0e663	bltu	x1,x10,80002adc	  x1:0x00000000 x10:0x00000000
       36855000	      3684	80002a94	01cbc5b3	xor	x11,x23,x28	 x23:0x00000000 x28:0xb88bf110 x11=0xb88bf110
       36865000	      3685	80002a98	0022fc63	bgeu	x5,x2,80002ab0	  x5:0x80009f1c  x2:0x0023ba04
       36875000	      3686	00000000	00000013	addi	x0,x0,0	  x0:0x00000000
       36885000	      3687	80002aac	00000013	addi	x0,x0,0	  x0:0x00000000
       36895000	      3688	80002ab0	9231ed93	ori	x27,x3,-1757	  x3:0xffffffe1 x27=0xffffffe3
       36905000	      3689	80002ab4	41e7dd13	srai	x26,x15,0x1e	 x15:0x677408b4 x26=0x00000001
       36915000	      3690	80002ab8	0023bab3	sltu	x21,x7,x2	  x7:0x00000000  x2:0x0023ba04 x21=0x00000001
       36925000	      3691	80002abc	41c2d113	srai	x2,x5,0x1c	  x5:0x80009f1c  x2=0xfffffff8
       36935000	      3692	80002ac0	40785433	sra	x8,x16,x7	 x16:0x00000001  x7:0x00000000  x8=0x00000001
       36945000	      3693	80002ac4	00e14db3	xor	x27,x2,x14	  x2:0xfffffff8 x14:0xffffffe0 x27=0x00000018
       36955000	      3694	80002ac8	87d16f13	ori	x30,x2,-1923	  x2:0xfffffff8 x30=0xfffffffd
       36965000	      3695	80002acc	00615913	srli	x18,x2,0x6	  x2:0xfffffff8 x18=0x03ffffff
       36975000	      3696	80002ad0	0021d393	srli	x7,x3,0x2	  x3:0xffffffe1  x7=0x3ffffff8
       36985000	      3697	80002ad4	00000013	addi	x0,x0,0	  x0:0x00000000
       36995000	      3698	80002ad8	02389a63	bne	x17,x3,80002b0c	 x17:0x00000001  x3:0xffffffe1
       37005000	      3699	00000000	00000013	addi	x0,x0,0	  x0:0x00000000
       37015000	      3700	80002b08	00000013	addi	x0,x0,0	  x0:0x00000000
       37025000	      3701	80002b0c	01045093	srli	x1,x8,0x10	  x8:0x00000001  x1=0x00000000
       37035000	      3702	80002b10	015af9b3	and	x19,x21,x21	 x21:0x00000001 x21:0x00000001 x19=0x00000001
       37045000	      3703	80002b14	34a8f413	andi	x8,x17,842	 x17:0x00000001  x8=0x00000000
       37055000	      3704	80002b18	8871c013	xori	x0,x3,-1913	  x3:0xffffffe1
       37065000	      3705	80002b1c	00e7ee63	bltu	x15,x14,80002b38	 x15:0x677408b4 x14:0xffffffe0
       37075000	      3706	00000000	00000013	addi	x0,x0,0	  x0:0x00000000
       37085000	      3707	80002b34	00000013	addi	x0,x0,0	  x0:0x00000000
       37095000	      3708	80002b38	7ceca013	slti	x0,x25,1998	 x25:0x00000000
       37105000	      3709	80002b3c	02304463	blt	x0,x3,80002b64	  x0:0x00000000  x3:0xffffffe1
       37115000	      3710	80002b40	2719ca93	xori	x21,x19,625	 x19:0x00000001 x21=0x00000270
       37125000	      3711	80002b44	01bdf433	and	x8,x27,x27	 x27:0x00000018 x27:0x00000018  x8=0x00000018
       37135000	      3712	80002b48	01fb1493	slli	x9,x22,0x1f	 x22:0x00000001  x9=0x80000000
       37145000	      3713	80002b4c	03a65263	bge	x12,x26,80002b70	 x12:0xffffffff x26:0x00000001
       37155000	      3714	80002b50	01a1a433	slt	x8,x3,x26	  x3:0xffffffe1 x26:0x00000001  x8=0x00000001
       37165000	      3715	80002b54	0008f1b3	and	x3,x17,x0	 x17:0x00000001  x0:0x00000000  x3=0x00000000
       37175000	      3716	80002b58	01e0d493	srli	x9,x1,0x1e	  x1:0x00000000  x9=0x00000000
       37185000	      3717	80002b5c	00000013	addi	x0,x0,0	  x0:0x00000000
       37195000	      3718	80002b60	005f5e33	srl	x28,x30,x5	 x30:0xfffffffd  x5:0x80009f1c x28=0x0000000f
       37205000	      3719	80002b64	4069ddb3	sra	x27,x19,x6	 x19:0x00000001  x6:0x0007fef5 x27=0x00000000
       37215000	      3720	80002b68	00061fb3	sll	x31,x12,x0	 x12:0xffffffff  x0:0x00000000 x31=0xffffffff
       37225000	      3721	80002b6c	013bb9b3	sltu	x19,x23,x19	 x23:0x00000000 x19:0x00000001 x19=0x00000001
       37235000	      3722	80002b70	00335b33	srl	x22,x6,x3	  x6:0x0007fef5  x3:0x00000000 x22=0x0007fef5
       37245000	      3723	80002b74	2c96a893	slti	x17,x13,713	 x13:0xffffffed x17=0x00000001
       37255000	      3724	80002b78	05ec1063	bne	x24,x30,80002bb8	 x24:0x80009f1c x30:0xfffffffd
       37265000	      3725	00000000	00000013	addi	x0,x0,0	  x0:0x00000000
       37275000	      3726	80002bb4	00000013	addi	x0,x0,0	  x0:0x00000000
       37285000	      3727	80002bb8	ff54c813	xori	x16,x9,-11	  x9:0x00000000 x16=0xfffffff5
       37295000	      3728	80002bbc	01ae5a63	bge	x28,x26,80002bd0	 x28:0x0000000f x26:0x00000001
       37305000	      3729	00000000	00000013	addi	x0,x0,0	  x0:0x00000000
       37315000	      3730	80002bcc	00000013	addi	x0,x0,0	  x0:0x00000000
       37325000	      3731	80002bd0	40dedb33	sra	x22,x29,x13	 x29:0x80009fc4 x13:0xffffffed x22=0xfffc0004
       37335000	      3732	80002bd4	00000013	addi	x0,x0,0	  x0:0x00000000
       37345000	      3733	80002bd8	43d3f513	andi	x10,x7,1085	  x7:0x3ffffff8 x10=0x00000438
       37355000	      3734	80002bdc	9165cf93	xori	x31,x11,-1770	 x11:0xb88bf110 x31=0x47740806
       37365000	      3735	80002be0	00ba5833	srl	x16,x20,x11	 x20:0x00080009 x11:0xb88bf110 x16=0x00000008
       37375000	      3736	80002be4	0fedfb13	andi	x22,x27,254	 x27:0x00000000 x22=0x00000000
       37385000	      3737	80002be8	d588f593	andi	x11,x17,-680	 x17:0x00000001 x11=0x00000000
       37395000	      3738	80002bec	00000013	addi	x0,x0,0	  x0:0x00000000
       37405000	      3739	80002bf0	0ad40a63	beq	x8,x13,80002ca4	  x8:0x00000001 x13:0xffffffed
       37415000	      3740	80002bf4	3e41f193	andi	x3,x3,996	  x3:0x00000000  x3=0x00000000
       37425000	      3741	80002bf8	40ba0fb3	sub	x31,x20,x11	 x20:0x00080009 x11:0x00000000 x31=0x00080009
       37435000	      3742	80002bfc	00000013	addi	x0,x0,0	  x0:0x00000000
       37445000	      3743	80002c00	41ebd6b3	sra	x13,x23,x30	 x23:0x00000000 x30:0xfffffffd x13=0x00000000
       37455000	      3744	80002c04	0aa75663	bge	x14,x10,80002cb0	 x14:0xffffffe0 x10:0x00000438
       37465000	      3745	80002c08	4f294b13	xori	x22,x18,1266	 x18:0x03ffffff x22=0x03fffb0d
       37475000	      3746	80002c0c	799ac613	xori	x12,x21,1945	 x21:0x00000270 x12=0x000005e9
       37485000	      3747	80002c10	0b90fc63	bgeu	x1,x25,80002cc8	  x1:0x00000000 x25:0x00000000
       37495000	      3748	00000000	00000013	addi	x0,x0,0	  x0:0x00000000
       37505000	      3749	80002cc4	00000013	addi	x0,x0,0	  x0:0x00000000
       37515000	      3750	80002cc8	40c309b3	sub	x19,x6,x12	  x6:0x0007fef5 x12:0x000005e9 x19=0x0007f90c
       37525000	      3751	80002ccc	0064f6b3	and	x13,x9,x6	  x9:0x00000000  x6:0x0007fef5 x13=0x00000000
       37535000	      3752	80002cd0	0095ee63	bltu	x11,x9,80002cec	 x11:0x00000000  x9:0x00000000
       37545000	      3753	80002cd4	40040833	sub	x16,x8,x0	  x8:0x00000001  x0:0x00000000 x16=0x00000001
       37555000	      3754	80002cd8	00b94463	blt	x18,x11,80002ce0	 x18:0x03ffffff x11:0x00000000
       37565000	      3755	80002cdc	05276863	bltu	x14,x18,80002d2c	 x14:0xffffffe0 x18:0x03ffffff
       37575000	      3756	80002ce0	05e3d863	bge	x7,x30,80002d30	  x7:0x3ffffff8 x30:0xfffffffd
       37585000	      3757	00000000	00000013	addi	x0,x0,0	  x0:0x00000000
       37595000	      3758	80002d2c	00000013	addi	x0,x0,0	  x0:0x00000000
       37605000	      3759	80002d30	c6f78193	addi	x3,x15,-913	 x15:0x677408b4  x3=0x67740523
       37615000	      3760	80002d34	01db73b3	and	x7,x22,x29	 x22:0x03fffb0d x29:0x80009fc4  x7=0x00009b04
       37625000	      3761	80002d38	007a36b3	sltu	x13,x20,x7	 x20:0x00080009  x7:0x00009b04 x13=0x00000000
       37635000	      3762	80002d3c	00ff4bb3	xor	x23,x30,x15	 x30:0xfffffffd x15:0x677408b4 x23=0x988bf749
       37645000	      3763	80002d40	027bca63	blt	x23,x7,80002d74	 x23:0x988bf749  x7:0x00009b04
       37655000	      3764	00000000	00000013	addi	x0,x0,0	  x0:0x00000000
       37665000	      3765	80002d70	00000013	addi	x0,x0,0	  x0:0x00000000
       37675000	      3766	80002d74	0fba8597	auipc	x11,0xfba8	 x11=0x8fbaad70
       37685000	      3767	80002d78	a77b7f13	andi	x30,x22,-1417	 x22:0x03fffb0d x30=0x03fffa05
       37695000	      3768	80002d7c	ffb00593	addi	x11,x0,-5	  x0:0x00000000 x11=0xfffffffb
       37705000	      3769	80002d80	00a00e13	addi	x28,x0,10	  x0:0x00000000 x28=0x0000000a
       37715000	      3770	80002d84	41358cb3	sub	x25,x11,x19	 x11:0xfffffffb x19:0x0007f90c x25=0xfff806ef
       37725000	      3771	80002d88	00a58593	addi	x11,x11,10	 x11:0xfffffffb x11=0x00000005
       37735000	      3772	80002d8c	ff600d13	addi	x26,x0,-10	  x0:0x00000000 x26=0xfffffff6
       37745000	      3773	80002d90	00800213	addi	x4,x0,8	  x0:0x00000000  x4=0x00000008
       37755000	      3774	80002d94	01f38333	add	x6,x7,x31	  x7:0x00009b04 x31:0x00080009  x6=0x00089b0d
       37765000	      3775	80002d98	002d0d13	addi	x26,x26,2	 x26:0xfffffff6 x26=0xfffffff8
       37775000	      3776	80002d9c	fe4d1ce3	bne	x26,x4,80002d94	 x26:0xfffffff8  x4:0x00000008
       37785000	      3777	00000000	00000013	addi	x0,x0,0	  x0:0x00000000
       37795000	      3778	80002d90	00000013	addi	x0,x0,0	  x0:0x00000000
       37805000	      3779	80002d94	01f38333	add	x6,x7,x31	  x7:0x00009b04 x31:0x00080009  x6=0x00089b0d
       37815000	      3780	80002d98	002d0d13	addi	x26,x26,2	 x26:0xfffffff8 x26=0xfffffffa
       37825000	      3781	80002d9c	fe4d1ce3	bne	x26,x4,80002d94	 x26:0xfffffffa  x4:0x00000008
       37835000	      3782	00000000	00000013	addi	x0,x0,0	  x0:0x00000000
       37845000	      3783	80002d90	00000013	addi	x0,x0,0	  x0:0x00000000
       37855000	      3784	80002d94	01f38333	add	x6,x7,x31	  x7:0x00009b04 x31:0x00080009  x6=0x00089b0d
       37865000	      3785	80002d98	002d0d13	addi	x26,x26,2	 x26:0xfffffffa x26=0xfffffffc
       37875000	      3786	80002d9c	fe4d1ce3	bne	x26,x4,80002d94	 x26:0xfffffffc  x4:0x00000008
       37885000	      3787	00000000	00000013	addi	x0,x0,0	  x0:0x00000000
       37895000	      3788	80002d90	00000013	addi	x0,x0,0	  x0:0x00000000
       37905000	      3789	80002d94	01f38333	add	x6,x7,x31	  x7:0x00009b04 x31:0x00080009  x6=0x00089b0d
       37915000	      3790	80002d98	002d0d13	addi	x26,x26,2	 x26:0xfffffffc x26=0xfffffffe
       37925000	      3791	80002d9c	fe4d1ce3	bne	x26,x4,80002d94	 x26:0xfffffffe  x4:0x00000008
       37935000	      3792	00000000	00000013	addi	x0,x0,0	  x0:0x00000000
       37945000	      3793	80002d90	00000013	addi	x0,x0,0	  x0:0x00000000
       37955000	      3794	80002d94	01f38333	add	x6,x7,x31	  x7:0x00009b04 x31:0x00080009  x6=0x00089b0d
       37965000	      3795	80002d98	002d0d13	addi	x26,x26,2	 x26:0xfffffffe x26=0x00000000
       37975000	      3796	80002d9c	fe4d1ce3	bne	x26,x4,80002d94	 x26:0x00000000  x4:0x00000008
       37985000	      3797	00000000	00000013	addi	x0,x0,0	  x0:0x00000000
       37995000	      3798	80002d90	00000013	addi	x0,x0,0	  x0:0x00000000
       38005000	      3799	80002d94	01f38333	add	x6,x7,x31	  x7:0x00009b04 x31:0x00080009  x6=0x00089b0d
       38015000	      3800	80002d98	002d0d13	addi	x26,x26,2	 x26:0x00000000 x26=0x00000002
       38025000	      3801	80002d9c	fe4d1ce3	bne	x26,x4,80002d94	 x26:0x00000002  x4:0x00000008
       38035000	      3802	00000000	00000013	addi	x0,x0,0	  x0:0x00000000
       38045000	      3803	80002d90	00000013	addi	x0,x0,0	  x0:0x00000000
       38055000	      3804	80002d94	01f38333	add	x6,x7,x31	  x7:0x00009b04 x31:0x00080009  x6=0x00089b0d
       38065000	      3805	80002d98	002d0d13	addi	x26,x26,2	 x26:0x00000002 x26=0x00000004
       38075000	      3806	80002d9c	fe4d1ce3	bne	x26,x4,80002d94	 x26:0x00000004  x4:0x00000008
       38085000	      3807	00000000	00000013	addi	x0,x0,0	  x0:0x00000000
       38095000	      3808	80002d90	00000013	addi	x0,x0,0	  x0:0x00000000
       38105000	      3809	80002d94	01f38333	add	x6,x7,x31	  x7:0x00009b04 x31:0x00080009  x6=0x00089b0d
       38115000	      3810	80002d98	002d0d13	addi	x26,x26,2	 x26:0x00000004 x26=0x00000006
       38125000	      3811	80002d9c	fe4d1ce3	bne	x26,x4,80002d94	 x26:0x00000006  x4:0x00000008
       38135000	      3812	00000000	00000013	addi	x0,x0,0	  x0:0x00000000
       38145000	      3813	80002d90	00000013	addi	x0,x0,0	  x0:0x00000000
       38155000	      3814	80002d94	01f38333	add	x6,x7,x31	  x7:0x00009b04 x31:0x00080009  x6=0x00089b0d
       38165000	      3815	80002d98	002d0d13	addi	x26,x26,2	 x26:0x00000006 x26=0x00000008
       38175000	      3816	80002d9c	fe4d1ce3	bne	x26,x4,80002d94	 x26:0x00000008  x4:0x00000008
       38185000	      3817	80002da0	ffc5c2e3	blt	x11,x28,80002d84	 x11:0x00000005 x28:0x0000000a
       38195000	      3818	00000000	00000013	addi	x0,x0,0	  x0:0x00000000
       38205000	      3819	80002d80	00000013	addi	x0,x0,0	  x0:0x00000000
       38215000	      3820	80002d84	41358cb3	sub	x25,x11,x19	 x11:0x00000005 x19:0x0007f90c x25=0xfff806f9
       38225000	      3821	80002d88	00a58593	addi	x11,x11,10	 x11:0x00000005 x11=0x0000000f
       38235000	      3822	80002d8c	ff600d13	addi	x26,x0,-10	  x0:0x00000000 x26=0xfffffff6
       38245000	      3823	80002d90	00800213	addi	x4,x0,8	  x0:0x00000000  x4=0x00000008
       38255000	      3824	80002d94	01f38333	add	x6,x7,x31	  x7:0x00009b04 x31:0x00080009  x6=0x00089b0d
       38265000	      3825	80002d98	002d0d13	addi	x26,x26,2	 x26:0xfffffff6 x26=0xfffffff8
       38275000	      3826	80002d9c	fe4d1ce3	bne	x26,x4,80002d94	 x26:0xfffffff8  x4:0x00000008
       38285000	      3827	00000000	00000013	addi	x0,x0,0	  x0:0x00000000
       38295000	      3828	80002d90	00000013	addi	x0,x0,0	  x0:0x00000000
       38305000	      3829	80002d94	01f38333	add	x6,x7,x31	  x7:0x00009b04 x31:0x00080009  x6=0x00089b0d
       38315000	      3830	80002d98	002d0d13	addi	x26,x26,2	 x26:0xfffffff8 x26=0xfffffffa
       38325000	      3831	80002d9c	fe4d1ce3	bne	x26,x4,80002d94	 x26:0xfffffffa  x4:0x00000008
       38335000	      3832	00000000	00000013	addi	x0,x0,0	  x0:0x00000000
       38345000	      3833	80002d90	00000013	addi	x0,x0,0	  x0:0x00000000
       38355000	      3834	80002d94	01f38333	add	x6,x7,x31	  x7:0x00009b04 x31:0x00080009  x6=0x00089b0d
       38365000	      3835	80002d98	002d0d13	addi	x26,x26,2	 x26:0xfffffffa x26=0xfffffffc
       38375000	      3836	80002d9c	fe4d1ce3	bne	x26,x4,80002d94	 x26:0xfffffffc  x4:0x00000008
       38385000	      3837	00000000	00000013	addi	x0,x0,0	  x0:0x00000000
       38395000	      3838	80002d90	00000013	addi	x0,x0,0	  x0:0x00000000
       38405000	      3839	80002d94	01f38333	add	x6,x7,x31	  x7:0x00009b04 x31:0x00080009  x6=0x00089b0d
       38415000	      3840	80002d98	002d0d13	addi	x26,x26,2	 x26:0xfffffffc x26=0xfffffffe
       38425000	      3841	80002d9c	fe4d1ce3	bne	x26,x4,80002d94	 x26:0xfffffffe  x4:0x00000008
       38435000	      3842	00000000	00000013	addi	x0,x0,0	  x0:0x00000000
       38445000	      3843	80002d90	00000013	addi	x0,x0,0	  x0:0x00000000
       38455000	      3844	80002d94	01f38333	add	x6,x7,x31	  x7:0x00009b04 x31:0x00080009  x6=0x00089b0d
       38465000	      3845	80002d98	002d0d13	addi	x26,x26,2	 x26:0xfffffffe x26=0x00000000
       38475000	      3846	80002d9c	fe4d1ce3	bne	x26,x4,80002d94	 x26:0x00000000  x4:0x00000008
       38485000	      3847	00000000	00000013	addi	x0,x0,0	  x0:0x00000000
       38495000	      3848	80002d90	00000013	addi	x0,x0,0	  x0:0x00000000
       38505000	      3849	80002d94	01f38333	add	x6,x7,x31	  x7:0x00009b04 x31:0x00080009  x6=0x00089b0d
       38515000	      3850	80002d98	002d0d13	addi	x26,x26,2	 x26:0x00000000 x26=0x00000002
       38525000	      3851	80002d9c	fe4d1ce3	bne	x26,x4,80002d94	 x26:0x00000002  x4:0x00000008
       38535000	      3852	00000000	00000013	addi	x0,x0,0	  x0:0x00000000
       38545000	      3853	80002d90	00000013	addi	x0,x0,0	  x0:0x00000000
       38555000	      3854	80002d94	01f38333	add	x6,x7,x31	  x7:0x00009b04 x31:0x00080009  x6=0x00089b0d
       38565000	      3855	80002d98	002d0d13	addi	x26,x26,2	 x26:0x00000002 x26=0x00000004
       38575000	      3856	80002d9c	fe4d1ce3	bne	x26,x4,80002d94	 x26:0x00000004  x4:0x00000008
       38585000	      3857	00000000	00000013	addi	x0,x0,0	  x0:0x00000000
       38595000	      3858	80002d90	00000013	addi	x0,x0,0	  x0:0x00000000
       38605000	      3859	80002d94	01f38333	add	x6,x7,x31	  x7:0x00009b04 x31:0x00080009  x6=0x00089b0d
       38615000	      3860	80002d98	002d0d13	addi	x26,x26,2	 x26:0x00000004 x26=0x00000006
       38625000	      3861	80002d9c	fe4d1ce3	bne	x26,x4,80002d94	 x26:0x00000006  x4:0x00000008
       38635000	      3862	00000000	00000013	addi	x0,x0,0	  x0:0x00000000
       38645000	      3863	80002d90	00000013	addi	x0,x0,0	  x0:0x00000000
       38655000	      3864	80002d94	01f38333	add	x6,x7,x31	  x7:0x00009b04 x31:0x00080009  x6=0x00089b0d
       38665000	      3865	80002d98	002d0d13	addi	x26,x26,2	 x26:0x00000006 x26=0x00000008
       38675000	      3866	80002d9c	fe4d1ce3	bne	x26,x4,80002d94	 x26:0x00000008  x4:0x00000008
       38685000	      3867	80002da0	ffc5c2e3	blt	x11,x28,80002d84	 x11:0x0000000f x28:0x0000000a
       38695000	      3868	80002da4	40365313	srai	x6,x12,0x3	 x12:0x000005e9  x6=0x000000bd
       38705000	      3869	80002da8	677aff13	andi	x30,x21,1655	 x21:0x00000270 x30=0x00000270
       38715000	      3870	80002dac	40998f33	sub	x30,x19,x9	 x19:0x0007f90c  x9:0x00000000 x30=0x0007f90c
       38725000	      3871	80002db0	0064ba33	sltu	x20,x9,x6	  x9:0x00000000  x6:0x000000bd x20=0x00000001
       38735000	      3872	80002db4	00e842b3	xor	x5,x16,x14	 x16:0x00000001 x14:0xffffffe0  x5=0xffffffe1
       38745000	      3873	80002db8	2874a993	slti	x19,x9,647	  x9:0x00000000 x19=0x00000001
       38755000	      3874	80002dbc	016ccc63	blt	x25,x22,80002dd4	 x25:0xfff806f9 x22:0x03fffb0d
       38765000	      3875	00000000	00000013	addi	x0,x0,0	  x0:0x00000000
       38775000	      3876	80002dd0	00000013	addi	x0,x0,0	  x0:0x00000000
       38785000	      3877	80002dd4	01d67e63	bgeu	x12,x29,80002df0	 x12:0x000005e9 x29:0x80009fc4
       38795000	      3878	80002dd8	00000013	addi	x0,x0,0	  x0:0x00000000
       38805000	      3879	80002ddc	006a1e33	sll	x28,x20,x6	 x20:0x00000001  x6:0x000000bd x28=0x20000000
       38815000	      3880	80002de0	49cc0a37	lui	x20,0x49cc0	 x20=0x49cc0000
       38825000	      3881	80002de4	015c15b3	sll	x11,x24,x21	 x24:0x80009f1c x21:0x00000270 x11=0x9f1c0000
       38835000	      3882	80002de8	002b9c93	slli	x25,x23,0x2	 x23:0x988bf749 x25=0x622fdd24
       38845000	      3883	80002dec	01158a33	add	x20,x11,x17	 x11:0x9f1c0000 x17:0x00000001 x20=0x9f1c0001
       38855000	      3884	80002df0	77847093	andi	x1,x8,1912	  x8:0x00000001  x1=0x00000000
       38865000	      3885	80002df4	2fb66a93	ori	x21,x12,763	 x12:0x000005e9 x21=0x000007fb
       38875000	      3886	80002df8	00f08a33	add	x20,x1,x15	  x1:0x00000000 x15:0x677408b4 x20=0x677408b4
       38885000	      3887	80002dfc	03400063	beq	x0,x20,80002e1c	  x0:0x00000000 x20:0x677408b4
       38895000	      3888	80002e00	0013a833	slt	x16,x7,x1	  x7:0x00009b04  x1:0x00000000 x16=0x00000000
       38905000	      3889	80002e04	2118c713	xori	x14,x17,529	 x17:0x00000001 x14=0x00000210
       38915000	      3890	80002e08	0113c463	blt	x7,x17,80002e10	  x7:0x00009b04 x17:0x00000001
       38925000	      3891	80002e0c	000989b3	add	x19,x19,x0	 x19:0x00000001  x0:0x00000000 x19=0x00000001
       38935000	      3892	80002e10	7094bd93	sltiu	x27,x9,1801	  x9:0x00000000 x27=0x00000001
       38945000	      3893	80002e14	00b76233	or	x4,x14,x11	 x14:0x00000210 x11:0x9f1c0000  x4=0x9f1c0210
       38955000	      3894	80002e18	01ea0d33	add	x26,x20,x30	 x20:0x677408b4 x30:0x0007f90c x26=0x677c01c0
       38965000	      3895	80002e1c	2f9d2893	slti	x17,x26,761	 x26:0x677c01c0 x17=0x00000000
       38975000	      3896	80002e20	404cdb33	sra	x22,x25,x4	 x25:0x622fdd24  x4:0x9f1c0210 x22=0x0000622f
       38985000	      3897	80002e24	032e9e63	bne	x29,x18,80002e60	 x29:0x80009fc4 x18:0x03ffffff
       38995000	      3898	00000000	00000013	addi	x0,x0,0	  x0:0x00000000
       39005000	      3899	80002e5c	00000013	addi	x0,x0,0	  x0:0x00000000
       39015000	      3900	80002e60	00000013	addi	x0,x0,0	  x0:0x00000000
       39025000	      3901	80002e64	003f3fb3	sltu	x31,x30,x3	 x30:0x0007f90c  x3:0x67740523 x31=0x00000001
       39035000	      3902	80002e68	04166863	bltu	x12,x1,80002eb8	 x12:0x000005e9  x1:0x00000000
       39045000	      3903	80002e6c	7e372d13	slti	x26,x14,2019	 x14:0x00000210 x26=0x00000001
       39055000	      3904	80002e70	418d04b3	sub	x9,x26,x24	 x26:0x00000001 x24:0x80009f1c  x9=0x7fff60e5
       39065000	      3905	80002e74	7a7d8613	addi	x12,x27,1959	 x27:0x00000001 x12=0x000007a8
       39075000	      3906	80002e78	a99ac893	xori	x17,x21,-1383	 x21:0x000007fb x17=0xfffffd62
       39085000	      3907	80002e7c	ca99eb93	ori	x23,x19,-855	 x19:0x00000001 x23=0xfffffca9
       39095000	      3908	80002e80	00fe2fb3	slt	x31,x28,x15	 x28:0x20000000 x15:0x677408b4 x31=0x00000001
       39105000	      3909	80002e84	0396f263	bgeu	x13,x25,80002ea8	 x13:0x00000000 x25:0x622fdd24
       39115000	      3910	80002e88	01572733	slt	x14,x14,x21	 x14:0x00000210 x21:0x000007fb x14=0x00000001
       39125000	      3911	80002e8c	0534d063	bge	x9,x19,80002ecc	  x9:0x7fff60e5 x19:0x00000001
       39135000	      3912	00000000	00000013	addi	x0,x0,0	  x0:0x00000000
       39145000	      3913	80002ec8	00000013	addi	x0,x0,0	  x0:0x00000000
       39155000	      3914	80002ecc	cb0a0d93	addi	x27,x20,-848	 x20:0x677408b4 x27=0x67740564
       39165000	      3915	80002ed0	019c91b3	sll	x3,x25,x25	 x25:0x622fdd24 x25:0x622fdd24  x3=0x22fdd240
       39175000	      3916	80002ed4	00189693	slli	x13,x17,0x1	 x17:0xfffffd62 x13=0xfffffac4
       39185000	      3917	80002ed8	003c7d33	and	x26,x24,x3	 x24:0x80009f1c  x3:0x22fdd240 x26=0x00009200
       39195000	      3918	80002edc	0115c463	blt	x11,x17,80002ee4	 x11:0x9f1c0000 x17:0xfffffd62
       39205000	      3919	00000000	00000013	addi	x0,x0,0	  x0:0x00000000
       39215000	      3920	80002ee0	00000013	addi	x0,x0,0	  x0:0x00000000
       39225000	      3921	80002ee4	05acd063	bge	x25,x26,80002f24	 x25:0x622fdd24 x26:0x00009200
       39235000	      3922	00000000	00000013	addi	x0,x0,0	  x0:0x00000000
       39245000	      3923	80002f20	00000013	addi	x0,x0,0	  x0:0x00000000
       39255000	      3924	80002f24	415ddf33	sra	x30,x27,x21	 x27:0x67740564 x21:0x000007fb x30=0x0000000c
       39265000	      3925	80002f28	007fb433	sltu	x8,x31,x7	 x31:0x00000001  x7:0x00009b04  x8=0x00000001
       39275000	      3926	80002f2c	004d2033	slt	x0,x26,x4	 x26:0x00009200  x4:0x9f1c0210
       39285000	      3927	80002f30	004ed893	srli	x17,x29,0x4	 x29:0x80009fc4 x17=0x080009fc
       39295000	      3928	80002f34	03788263	beq	x17,x23,80002f58	 x17:0x080009fc x23:0xfffffca9
       39305000	      3929	80002f38	0070fd33	and	x26,x1,x7	  x1:0x00000000  x7:0x00009b04 x26=0x00000000
       39315000	      3930	80002f3c	01292233	slt	x4,x18,x18	 x18:0x03ffffff x18:0x03ffffff  x4=0x00000000
       39325000	      3931	80002f40	008c5113	srli	x2,x24,0x8	 x24:0x80009f1c  x2=0x0080009f
       39335000	      3932	80002f44	b8ab0713	addi	x14,x22,-1142	 x22:0x0000622f x14=0x00005db9
       39345000	      3933	80002f48	0114d813	srli	x16,x9,0x11	  x9:0x7fff60e5 x16=0x00003fff
       39355000	      3934	80002f4c	b0c8c093	xori	x1,x17,-1268	 x17:0x080009fc  x1=0xf7fff2f0
       39365000	      3935	80002f50	00a71493	slli	x9,x14,0xa	 x14:0x00005db9  x9=0x0176e400
       39375000	      3936	80002f54	00596263	bltu	x18,x5,80002f58	 x18:0x03ffffff  x5:0xffffffe1
       39385000	      3937	00000000	00000013	addi	x0,x0,0	  x0:0x00000000
       39395000	      3938	80002f54	00000013	addi	x0,x0,0	  x0:0x00000000
       39405000	      3939	80002f58	009715b3	sll	x11,x14,x9	 x14:0x00005db9  x9:0x0176e400 x11=0x00005db9
       39415000	      3940	80002f5c	004c2303	lw	x6,4(x24)	 x24:0x80009f1c  x6=0x8000031c PA:0x80009f20
       39425000	      3941	80002f60	d9dec813	xori	x16,x29,-611	 x29:0x80009fc4 x16=0x7fff6259
       39435000	      3942	80002f64	03cc0c13	addi	x24,x24,60	 x24:0x80009f1c x24=0x80009f58
       39445000	      3943	80002f68	00d648b3	xor	x17,x12,x13	 x12:0x000007a8 x13:0xfffffac4 x17=0xfffffd6c
       39455000	      3944	80002f6c	00dc52b3	srl	x5,x24,x13	 x24:0x80009f58 x13:0xfffffac4  x5=0x080009f5
       39465000	      3945	80002f70	00030893	addi	x17,x6,0	  x6:0x8000031c x17=0x8000031c
       39475000	      3946	80002f74	000888e7	jalr	x17,x17,0	 x17:0x8000031c x17=0x80002f74
       39485000	      3947	00000000	00000013	addi	x0,x0,0	  x0:0x00000000
       39495000	      3948	8000031c	00000013	addi	x0,x0,0	  x0:0x00000000
       39505000	      3949	80000320	41708033	sub	x0,x1,x23	  x1:0xf7fff2f0 x23:0xfffffca9
       39515000	      3950	80000324	54249537	lui	x10,0x54249	 x10=0x54249000
       39525000	      3951	80000328	47a9ce13	xori	x28,x19,1146	 x19:0x00000001 x28=0x0000047b
       39535000	      3952	8000032c	3951b893	sltiu	x17,x3,917	  x3:0x22fdd240 x17=0x00000000
       39545000	      3953	80000330	033b9863	bne	x23,x19,80000360	 x23:0xfffffca9 x19:0x00000001
       39555000	      3954	00000000	00000013	addi	x0,x0,0	  x0:0x00000000
       39565000	      3955	8000035c	00000013	addi	x0,x0,0	  x0:0x00000000
       39575000	      3956	80000360	4b90a593	slti	x11,x1,1209	  x1:0xf7fff2f0 x11=0x00000001
       39585000	      3957	80000364	03330e63	beq	x6,x19,800003a0	  x6:0x8000031c x19:0x00000001
       39595000	      3958	80000368	013b0863	beq	x22,x19,80000378	 x22:0x0000622f x19:0x00000001
       39605000	      3959	8000036c	aa3e8713	addi	x14,x29,-1373	 x29:0x80009fc4 x14=0x80009a67
       39615000	      3960	80000370	acc01d37	lui	x26,0xacc01	 x26=0xacc01000
       39625000	      3961	80000374	cf066993	ori	x19,x12,-784	 x12:0x000007a8 x19=0xfffffff8
       39635000	      3962	80000378	687d7093	andi	x1,x26,1671	 x26:0xacc01000  x1=0x00000000
       39645000	      3963	8000037c	0056e033	or	x0,x13,x5	 x13:0xfffffac4  x5:0x080009f5
       39655000	      3964	80000380	97753437	lui	x8,0x97753	  x8=0x97753000
       39665000	      3965	80000384	416ed9b3	sra	x19,x29,x22	 x29:0x80009fc4 x22:0x0000622f x19=0xffff0001
       39675000	      3966	80000388	01ef5c63	bge	x30,x30,800003a0	 x30:0x0000000c x30:0x0000000c
       39685000	      3967	00000000	00000013	addi	x0,x0,0	  x0:0x00000000
       39695000	      3968	8000039c	00000013	addi	x0,x0,0	  x0:0x00000000
       39705000	      3969	800003a0	6d294213	xori	x4,x18,1746	 x18:0x03ffffff  x4=0x03fff92d
       39715000	      3970	800003a4	00f4fb33	and	x22,x9,x15	  x9:0x0176e400 x15:0x677408b4 x22=0x01740000
       39725000	      3971	800003a8	98c1cd93	xori	x27,x3,-1652	  x3:0x22fdd240 x27=0xdd022bcc
       39735000	      3972	800003ac	7e545897	auipc	x17,0x7e545	 x17=0xfe5453a8
       39745000	      3973	800003b0	25f3b493	sltiu	x9,x7,607	  x7:0x00009b04  x9=0x00000000
       39755000	      3974	800003b4	004c2303	lw	x6,4(x24)	 x24:0x80009f58  x6=0x80000124 PA:0x80009f5c
       39765000	      3975	800003b8	40245193	srai	x3,x8,0x2	  x8:0x97753000  x3=0xe5dd4c00
       39775000	      3976	800003bc	3aceb493	sltiu	x9,x29,940	 x29:0x80009fc4  x9=0x00000000
       39785000	      3977	800003c0	02cc0c13	addi	x24,x24,44	 x24:0x80009f58 x24=0x80009f84
       39795000	      3978	800003c4	00ee31b3	sltu	x3,x28,x14	 x28:0x0000047b x14:0x80009a67  x3=0x00000001
       39805000	      3979	800003c8	00130593	addi	x11,x6,1	  x6:0x80000124 x11=0x80000125
       39815000	      3980	800003cc	000585e7	jalr	x11,x11,0	 x11:0x80000125 x11=0x800003cc
       39825000	      3981	00000000	00000013	addi	x0,x0,0	  x0:0x00000000
       39835000	      3982	80000124	00000013	addi	x0,x0,0	  x0:0x00000000
       39845000	      3983	80000128	00000597	auipc	x11,0x0	 x11=0x80000124
       39855000	      3984	8000012c	2a858593	addi	x11,x11,680	 x11:0x80000124 x11=0x800003cc
       39865000	      3985	80000130	015b8833	add	x16,x23,x21	 x23:0xfffffca9 x21:0x000007fb x16=0x000004a4
       39875000	      3986	80000134	cd458593	addi	x11,x11,-812	 x11:0x800003cc x11=0x800000a0
       39885000	      3987	80000138	f4aefa93	andi	x21,x29,-182	 x29:0x80009fc4 x21=0x80009f40
       39895000	      3988	8000013c	a04ceab7	lui	x21,0xa04ce	 x21=0xa04ce000
       39905000	      3989	80000140	0012df93	srli	x31,x5,0x1	  x5:0x080009f5 x31=0x040004fa
       39915000	      3990	80000144	bb724993	xori	x19,x4,-1097	  x4:0x03fff92d x19=0xfc00029a
       39925000	      3991	80000148	32fb4493	xori	x9,x22,815	 x22:0x01740000  x9=0x0174032f
       39935000	      3992	8000014c	016c3033	sltu	x0,x24,x22	 x24:0x80009f84 x22:0x01740000
       39945000	      3993	80000150	40da5413	srai	x8,x20,0xd	 x20:0x677408b4  x8=0x00033ba0
       39955000	      3994	80000154	0185b2b3	sltu	x5,x11,x24	 x11:0x800000a0 x24:0x80009f84  x5=0x00000001
       39965000	      3995	80000158	32c58367	jalr	x6,x11,812	 x11:0x800000a0  x6=0x80000158
       39975000	      3996	00000000	00000013	addi	x0,x0,0	  x0:0x00000000
       39985000	      3997	800003cc	00000013	addi	x0,x0,0	  x0:0x00000000
       39995000	      3998	800003d0	018b9093	slli	x1,x23,0x18	 x23:0xfffffca9  x1=0xa9000000
       40005000	      3999	800003d4	00a69463	bne	x13,x10,800003dc	 x13:0xfffffac4 x10:0x54249000
       40015000	      4000	00000000	00000013	addi	x0,x0,0	  x0:0x00000000
       40025000	      4001	800003d8	00000013	addi	x0,x0,0	  x0:0x00000000
       40035000	      4002	800003dc	ff8c0c13	addi	x24,x24,-8	 x24:0x80009f84 x24=0x80009f7c
       40045000	      4003	800003e0	006c2223	sw	x6,4(x24)	 x24:0x80009f7c  x6:0x80000158 PA:0x80009f80
       40055000	      4004	800003e4	002894b3	sll	x9,x17,x2	 x17:0xfe5453a8  x2:0x0080009f  x9=0x00000000
       40065000	      4005	800003e8	a2a97313	andi	x6,x18,-1494	 x18:0x03ffffff  x6=0x03fffa2a
       40075000	      4006	800003ec	0241f863	bgeu	x3,x4,8000041c	  x3:0x00000001  x4:0x03fff92d
       40085000	      4007	800003f0	00467463	bgeu	x12,x4,800003f8	 x12:0x000007a8  x4:0x03fff92d
       40095000	      4008	800003f4	004f5233	srl	x4,x30,x4	 x30:0x0000000c  x4:0x03fff92d  x4=0x00000000
       40105000	      4009	800003f8	989b0537	lui	x10,0x989b0	 x10=0x989b0000
       40115000	      4010	800003fc	0d4bcf97	auipc	x31,0xd4bc	 x31=0x8d4bc3f8
       40125000	      4011	80000400	804ae217	auipc	x4,0x804ae	  x4=0x004ae3fc
       40135000	      4012	80000404	417d0db3	sub	x27,x26,x23	 x26:0xacc01000 x23:0xfffffca9 x27=0xacc01357
       40145000	      4013	80000408	052e8463	beq	x29,x18,80000450	 x29:0x80009fc4 x18:0x03ffffff
       40155000	      4014	8000040c	40908b33	sub	x22,x1,x9	  x1:0xa9000000  x9:0x00000000 x22=0xa9000000
       40165000	      4015	80000410	00dc15b3	sll	x11,x24,x13	 x24:0x80009f7c x13:0xfffffac4 x11=0x0009f7c0
       40175000	      4016	80000414	41325493	srai	x9,x4,0x13	  x4:0x004ae3fc  x9=0x00000009
       40185000	      4017	80000418	01465113	srli	x2,x12,0x14	 x12:0x000007a8  x2=0x00000000
       40195000	      4018	8000041c	00111863	bne	x2,x1,8000042c	  x2:0x00000000  x1:0xa9000000
       40205000	      4019	00000000	00000013	addi	x0,x0,0	  x0:0x00000000
       40215000	      4020	80000428	00000013	addi	x0,x0,0	  x0:0x00000000
       40225000	      4021	8000042c	005744b3	xor	x9,x14,x5	 x14:0x80009a67  x5:0x00000001  x9=0x80009a66
       40235000	      4022	80000430	002f5013	srli	x0,x30,0x2	 x30:0x0000000c
       40245000	      4023	80000434	00bd6233	or	x4,x26,x11	 x26:0xacc01000 x11:0x0009f7c0  x4=0xacc9f7c0
       40255000	      4024	80000438	00b87463	bgeu	x16,x11,80000440	 x16:0x000004a4 x11:0x0009f7c0
       40265000	      4025	8000043c	00b51463	bne	x10,x11,80000444	 x10:0x989b0000 x11:0x0009f7c0
       40275000	      4026	00000000	00000013	addi	x0,x0,0	  x0:0x00000000
       40285000	      4027	80000440	00000013	addi	x0,x0,0	  x0:0x00000000
       40295000	      4028	80000444	ac8f9b97	auipc	x23,0xac8f9	 x23=0x2c8f9440
       40305000	      4029	80000448	0212d463	bge	x5,x1,80000470	  x5:0x00000001  x1:0xa9000000
       40315000	      4030	00000000	00000013	addi	x0,x0,0	  x0:0x00000000
       40325000	      4031	8000046c	00000013	addi	x0,x0,0	  x0:0x00000000
       40335000	      4032	80000470	0091dc93	srli	x25,x3,0x9	  x3:0x00000001 x25=0x00000000
       40345000	      4033	80000474	01565513	srli	x10,x12,0x15	 x12:0x000007a8 x10=0x00000000
       40355000	      4034	80000478	03929063	bne	x5,x25,80000498	  x5:0x00000001 x25:0x00000000
       40365000	      4035	00000000	00000013	addi	x0,x0,0	  x0:0x00000000
       40375000	      4036	80000494	00000013	addi	x0,x0,0	  x0:0x00000000
       40385000	      4037	80000498	01aabbb3	sltu	x23,x21,x26	 x21:0xa04ce000 x26:0xacc01000 x23=0x00000001
       40395000	      4038	8000049c	00824933	xor	x18,x4,x8	  x4:0xacc9f7c0  x8:0x00033ba0 x18=0xaccacc60
       40405000	      4039	800004a0	00485a93	srli	x21,x16,0x4	 x16:0x000004a4 x21=0x0000004a
       40415000	      4040	800004a4	11be7113	andi	x2,x28,283	 x28:0x0000047b  x2=0x0000001b
       40425000	      4041	800004a8	bc064a13	xori	x20,x12,-1088	 x12:0x000007a8 x20=0xfffffc68
       40435000	      4042	800004ac	41e20e33	sub	x28,x4,x30	  x4:0xacc9f7c0 x30:0x0000000c x28=0xacc9f7b4
       40445000	      4043	800004b0	004c2303	lw	x6,4(x24)	 x24:0x80009f7c  x6=0x80000158 PA:0x80009f80
       40455000	      4044	800004b4	00dca733	slt	x14,x25,x13	 x25:0x00000000 x13:0xfffffac4 x14=0x00000000
       40465000	      4045	800004b8	24194013	xori	x0,x18,577	 x18:0xaccacc60
       40475000	      4046	800004bc	dc636593	ori	x11,x6,-570	  x6:0x80000158 x11=0xfffffdde
       40485000	      4047	800004c0	a97f8393	addi	x7,x31,-1385	 x31:0x8d4bc3f8  x7=0x8d4bbe8f
       40495000	      4048	800004c4	01c05393	srli	x7,x0,0x1c	  x0:0x00000000  x7=0x00000000
       40505000	      4049	800004c8	008c0c13	addi	x24,x24,8	 x24:0x80009f7c x24=0x80009f84
       40515000	      4050	800004cc	00000013	addi	x0,x0,0	  x0:0x00000000
       40525000	      4051	800004d0	00030f93	addi	x31,x6,0	  x6:0x80000158 x31=0x80000158
       40535000	      4052	800004d4	000f8fe7	jalr	x31,x31,0	 x31:0x80000158 x31=0x800004d4
       40545000	      4053	00000000	00000013	addi	x0,x0,0	  x0:0x00000000
       40555000	      4054	80000158	00000013	addi	x0,x0,0	  x0:0x00000000
       40565000	      4055	8000015c	00700413	addi	x8,x0,7	  x0:0x00000000  x8=0x00000007
       40575000	      4056	80000160	00300713	addi	x14,x0,3	  x0:0x00000000 x14=0x00000003
       40585000	      4057	80000164	0069b5b3	sltu	x11,x19,x6	 x19:0xfc00029a  x6:0x80000158 x11=0x00000000
       40595000	      4058	80000168	01f48033	add	x0,x9,x31	  x9:0x80009a66 x31:0x800004d4
       40605000	      4059	8000016c	fff40413	addi	x8,x8,-1	  x8:0x00000007  x8=0x00000006
       40615000	      4060	80000170	017c5b33	srl	x22,x24,x23	 x24:0x80009f84 x23:0x00000001 x22=0x40004fc2
       40625000	      4061	80000174	00100a93	addi	x21,x0,1	  x0:0x00000000 x21=0x00000001
       40635000	      4062	80000178	00800393	addi	x7,x0,8	  x0:0x00000000  x7=0x00000008
       40645000	      4063	8000017c	404e0133	sub	x2,x28,x4	 x28:0xacc9f7b4  x4:0xacc9f7c0  x2=0xfffffff4
       40655000	      4064	80000180	00aa8a93	addi	x21,x21,10	 x21:0x00000001 x21=0x0000000b
       40665000	      4065	80000184	fe7aece3	bltu	x21,x7,8000017c	 x21:0x0000000b  x7:0x00000008
       40675000	      4066	80000188	fee470e3	bgeu	x8,x14,80000168	  x8:0x00000006 x14:0x00000003
       40685000	      4067	00000000	00000013	addi	x0,x0,0	  x0:0x00000000
       40695000	      4068	80000164	00000013	addi	x0,x0,0	  x0:0x00000000
       40705000	      4069	80000168	01f48033	add	x0,x9,x31	  x9:0x80009a66 x31:0x800004d4
       40715000	      4070	8000016c	fff40413	addi	x8,x8,-1	  x8:0x00000006  x8=0x00000005
       40725000	      4071	80000170	017c5b33	srl	x22,x24,x23	 x24:0x80009f84 x23:0x00000001 x22=0x40004fc2
       40735000	      4072	80000174	00100a93	addi	x21,x0,1	  x0:0x00000000 x21=0x00000001
       40745000	      4073	80000178	00800393	addi	x7,x0,8	  x0:0x00000000  x7=0x00000008
       40755000	      4074	8000017c	404e0133	sub	x2,x28,x4	 x28:0xacc9f7b4  x4:0xacc9f7c0  x2=0xfffffff4
       40765000	      4075	80000180	00aa8a93	addi	x21,x21,10	 x21:0x00000001 x21=0x0000000b
       40775000	      4076	80000184	fe7aece3	bltu	x21,x7,8000017c	 x21:0x0000000b  x7:0x00000008
       40785000	      4077	80000188	fee470e3	bgeu	x8,x14,80000168	  x8:0x00000005 x14:0x00000003
       40795000	      4078	00000000	00000013	addi	x0,x0,0	  x0:0x00000000
       40805000	      4079	80000164	00000013	addi	x0,x0,0	  x0:0x00000000
       40815000	      4080	80000168	01f48033	add	x0,x9,x31	  x9:0x80009a66 x31:0x800004d4
       40825000	      4081	8000016c	fff40413	addi	x8,x8,-1	  x8:0x00000005  x8=0x00000004
       40835000	      4082	80000170	017c5b33	srl	x22,x24,x23	 x24:0x80009f84 x23:0x00000001 x22=0x40004fc2
       40845000	      4083	80000174	00100a93	addi	x21,x0,1	  x0:0x00000000 x21=0x00000001
       40855000	      4084	80000178	00800393	addi	x7,x0,8	  x0:0x00000000  x7=0x00000008
       40865000	      4085	8000017c	404e0133	sub	x2,x28,x4	 x28:0xacc9f7b4  x4:0xacc9f7c0  x2=0xfffffff4
       40875000	      4086	80000180	00aa8a93	addi	x21,x21,10	 x21:0x00000001 x21=0x0000000b
       40885000	      4087	80000184	fe7aece3	bltu	x21,x7,8000017c	 x21:0x0000000b  x7:0x00000008
       40895000	      4088	80000188	fee470e3	bgeu	x8,x14,80000168	  x8:0x00000004 x14:0x00000003
       40905000	      4089	00000000	00000013	addi	x0,x0,0	  x0:0x00000000
       40915000	      4090	80000164	00000013	addi	x0,x0,0	  x0:0x00000000
       40925000	      4091	80000168	01f48033	add	x0,x9,x31	  x9:0x80009a66 x31:0x800004d4
       40935000	      4092	8000016c	fff40413	addi	x8,x8,-1	  x8:0x00000004  x8=0x00000003
       40945000	      4093	80000170	017c5b33	srl	x22,x24,x23	 x24:0x80009f84 x23:0x00000001 x22=0x40004fc2
       40955000	      4094	80000174	00100a93	addi	x21,x0,1	  x0:0x00000000 x21=0x00000001
       40965000	      4095	80000178	00800393	addi	x7,x0,8	  x0:0x00000000  x7=0x00000008
       40975000	      4096	8000017c	404e0133	sub	x2,x28,x4	 x28:0xacc9f7b4  x4:0xacc9f7c0  x2=0xfffffff4
       40985000	      4097	80000180	00aa8a93	addi	x21,x21,10	 x21:0x00000001 x21=0x0000000b
       40995000	      4098	80000184	fe7aece3	bltu	x21,x7,8000017c	 x21:0x0000000b  x7:0x00000008
       41005000	      4099	80000188	fee470e3	bgeu	x8,x14,80000168	  x8:0x00000003 x14:0x00000003
       41015000	      4100	00000000	00000013	addi	x0,x0,0	  x0:0x00000000
       41025000	      4101	80000164	00000013	addi	x0,x0,0	  x0:0x00000000
       41035000	      4102	80000168	01f48033	add	x0,x9,x31	  x9:0x80009a66 x31:0x800004d4
       41045000	      4103	8000016c	fff40413	addi	x8,x8,-1	  x8:0x00000003  x8=0x00000002
       41055000	      4104	80000170	017c5b33	srl	x22,x24,x23	 x24:0x80009f84 x23:0x00000001 x22=0x40004fc2
       41065000	      4105	80000174	00100a93	addi	x21,x0,1	  x0:0x00000000 x21=0x00000001
       41075000	      4106	80000178	00800393	addi	x7,x0,8	  x0:0x00000000  x7=0x00000008
       41085000	      4107	8000017c	404e0133	sub	x2,x28,x4	 x28:0xacc9f7b4  x4:0xacc9f7c0  x2=0xfffffff4
       41095000	      4108	80000180	00aa8a93	addi	x21,x21,10	 x21:0x00000001 x21=0x0000000b
       41105000	      4109	80000184	fe7aece3	bltu	x21,x7,8000017c	 x21:0x0000000b  x7:0x00000008
       41115000	      4110	80000188	fee470e3	bgeu	x8,x14,80000168	  x8:0x00000002 x14:0x00000003
       41125000	      4111	8000018c	00fcda33	srl	x20,x25,x15	 x25:0x00000000 x15:0x677408b4 x20=0x00000000
       41135000	      4112	80000190	066de463	bltu	x27,x6,800001f8	 x27:0xacc01357  x6:0x80000158
       41145000	      4113	80000194	0158dfb3	srl	x31,x17,x21	 x17:0xfe5453a8 x21:0x0000000b x31=0x001fca8a
       41155000	      4114	80000198	4184dd93	srai	x27,x9,0x18	  x9:0x80009a66 x27=0xffffff80
       41165000	      4115	8000019c	01e6fdb3	and	x27,x13,x30	 x13:0xfffffac4 x30:0x0000000c x27=0x00000004
       41175000	      4116	800001a0	6699fa97	auipc	x21,0x6699f	 x21=0xe699f19c
       41185000	      4117	800001a4	01206033	or	x0,x0,x18	  x0:0x00000000 x18:0xaccacc60
       41195000	      4118	800001a8	00000a17	auipc	x20,0x0	 x20=0x800001a4
       41205000	      4119	800001ac	090a0a13	addi	x20,x20,144	 x20:0x800001a4 x20=0x80000234
       41215000	      4120	800001b0	feb1c413	xori	x8,x3,-21	  x3:0x00000001  x8=0xffffffea
       41225000	      4121	800001b4	dc8a0a13	addi	x20,x20,-568	 x20:0x80000234 x20=0x7ffffffc
       41235000	      4122	800001b8	01e35d33	srl	x26,x6,x30	  x6:0x80000158 x30:0x0000000c x26=0x00080000
       41245000	      4123	800001bc	404203b3	sub	x7,x4,x4	  x4:0xacc9f7c0  x4:0xacc9f7c0  x7=0x00000000
       41255000	      4124	800001c0	017cf4b3	and	x9,x25,x23	 x25:0x00000000 x23:0x00000001  x9=0x00000000
       41265000	      4125	800001c4	239a0367	jalr	x6,x20,569	 x20:0x7ffffffc  x6=0x800001c4
       41275000	      4126	00000000	00000013	addi	x0,x0,0	  x0:0x00000000
       41285000	      4127	80000234	00000013	addi	x0,x0,0	  x0:0x00000000
       41295000	      4128	80000238	004fd663	bge	x31,x4,80000244	 x31:0x001fca8a  x4:0xacc9f7c0
       41305000	      4129	00000000	00000013	addi	x0,x0,0	  x0:0x00000000
       41315000	      4130	80000240	00000013	addi	x0,x0,0	  x0:0x00000000
       41325000	      4131	80000244	fe0c0c13	addi	x24,x24,-32	 x24:0x80009f84 x24=0x80009f64
       41335000	      4132	80000248	006c2223	sw	x6,4(x24)	 x24:0x80009f64  x6:0x800001c4 PA:0x80009f68
       41345000	      4133	8000024c	5b64b193	sltiu	x3,x9,1462	  x9:0x00000000  x3=0x00000001
       41355000	      4134	80000250	224ee413	ori	x8,x29,548	 x29:0x80009fc4  x8=0x80009fe4
       41365000	      4135	80000254	00efd213	srli	x4,x31,0xe	 x31:0x001fca8a  x4=0x0000007f
       41375000	      4136	80000258	01b885b3	add	x11,x17,x27	 x17:0xfe5453a8 x27:0x00000004 x11=0xfe5453ac
       41385000	      4137	8000025c	009fbbb3	sltu	x23,x31,x9	 x31:0x001fca8a  x9:0x00000000 x23=0x00000000
       41395000	      4138	80000260	6c6b12b7	lui	x5,0x6c6b1	  x5=0x6c6b1000
       41405000	      4139	80000264	01a94863	blt	x18,x26,80000274	 x18:0xaccacc60 x26:0x00080000
       41415000	      4140	00000000	00000013	addi	x0,x0,0	  x0:0x00000000
       41425000	      4141	80000270	00000013	addi	x0,x0,0	  x0:0x00000000
       41435000	      4142	80000274	4021d113	srai	x2,x3,0x2	  x3:0x00000001  x2=0x00000000
       41445000	      4143	80000278	41dcdd33	sra	x26,x25,x29	 x25:0x00000000 x29:0x80009fc4 x26=0x00000000
       41455000	      4144	8000027c	004c2303	lw	x6,4(x24)	 x24:0x80009f64  x6=0x800001c4 PA:0x80009f68
       41465000	      4145	80000280	00d5a1b3	slt	x3,x11,x13	 x11:0xfe5453ac x13:0xfffffac4  x3=0x00000001
       41475000	      4146	80000284	01079193	slli	x3,x15,0x10	 x15:0x677408b4  x3=0x08b40000
       41485000	      4147	80000288	1a6b6913	ori	x18,x22,422	 x22:0x40004fc2 x18=0x40004fe6
       41495000	      4148	8000028c	020c0c13	addi	x24,x24,32	 x24:0x80009f64 x24=0x80009f84
       41505000	      4149	80000290	edf00a17	auipc	x20,0xedf00	 x20=0x6df0028c
       41515000	      4150	80000294	01e78b33	add	x22,x15,x30	 x15:0x677408b4 x30:0x0000000c x22=0x677408c0
       41525000	      4151	80000298	00060033	add	x0,x12,x0	 x12:0x000007a8  x0:0x00000000
       41535000	      4152	8000029c	00000013	addi	x0,x0,0	  x0:0x00000000
       41545000	      4153	800002a0	00030893	addi	x17,x6,0	  x6:0x800001c4 x17=0x800001c4
       41555000	      4154	800002a4	000888e7	jalr	x17,x17,0	 x17:0x800001c4 x17=0x800002a4
       41565000	      4155	00000000	00000013	addi	x0,x0,0	  x0:0x00000000
       41575000	      4156	800001c4	00000013	addi	x0,x0,0	  x0:0x00000000
       41585000	      4157	800001c8	50573513	sltiu	x10,x14,1285	 x14:0x00000003 x10=0x00000001
       41595000	      4158	800001cc	0117ebb3	or	x23,x15,x17	 x15:0x677408b4 x17:0x800002a4 x23=0xe7740ab4
       41605000	      4159	800001d0	01300b33	add	x22,x0,x19	  x0:0x00000000 x19:0xfc00029a x22=0xfc00029a
       41615000	      4160	800001d4	4cc0a713	slti	x14,x1,1228	  x1:0xa9000000 x14=0x00000001
       41625000	      4161	800001d8	000d6cb3	or	x25,x26,x0	 x26:0x00000000  x0:0x00000000 x25=0x00000000
       41635000	      4162	800001dc	01530663	beq	x6,x21,800001e8	  x6:0x800001c4 x21:0xe699f19c
       41645000	      4163	800001e0	00372533	slt	x10,x14,x3	 x14:0x00000001  x3:0x08b40000 x10=0x00000001
       41655000	      4164	800001e4	008878b3	and	x17,x16,x8	 x16:0x000004a4  x8:0x80009fe4 x17=0x000004a4
       41665000	      4165	800001e8	3edc2693	slti	x13,x24,1005	 x24:0x80009f84 x13=0x00000001
       41675000	      4166	800001ec	004c2fb3	slt	x31,x24,x4	 x24:0x80009f84  x4:0x0000007f x31=0x00000001
       41685000	      4167	800001f0	dcad6113	ori	x2,x26,-566	 x26:0x00000000  x2=0xfffffdca
       41695000	      4168	800001f4	02d9c063	blt	x19,x13,80000214	 x19:0xfc00029a x13:0x00000001
       41705000	      4169	00000000	00000013	addi	x0,x0,0	  x0:0x00000000
       41715000	      4170	80000210	00000013	addi	x0,x0,0	  x0:0x00000000
       41725000	      4171	80000214	24823893	sltiu	x17,x4,584	  x4:0x0000007f x17=0x00000001
       41735000	      4172	80000218	403bd3b3	sra	x7,x23,x3	 x23:0xe7740ab4  x3:0x08b40000  x7=0xe7740ab4
       41745000	      4173	8000021c	004a9db3	sll	x27,x21,x4	 x21:0xe699f19c  x4:0x0000007f x27=0x00000000
       41755000	      4174	80000220	1e42f093	andi	x1,x5,484	  x5:0x6c6b1000  x1=0x00000000
       41765000	      4175	80000224	00000797	auipc	x15,0x0	 x15=0x80000220
       41775000	      4176	80000228	00c78793	addi	x15,x15,12	 x15:0x80000220 x15=0x8000022c
       41785000	      4177	8000022c	00078067	jalr	x0,x15,0	 x15:0x8000022c
       41795000	      4178	00000000	00000013	addi	x0,x0,0	  x0:0x00000000
       41805000	      4179	8000022c	00000013	addi	x0,x0,0	  x0:0x00000000
       41815000	      4180	80000230	00100193	addi	x3,x0,1	  x0:0x00000000  x3=0x00000001
       41825000	      4181	80000234	00000073	ecall	
       41835000	      4182	80000238	004fd663	bge	x31,x4,80000244	 x31:0x00000001  x4:0x0000007f
