		Time			Cycle	PC		Insn	Decoded instruction	Register and memory contents
          65000	         5	80000004	00000293	addi	x5,x0,0	  x0:0x00000000  x5=0x00000000
          75000	         6	80000008	00000313	addi	x6,x0,0	  x0:0x00000000  x6=0x00000000
          85000	         7	8000000c	00628263	beq	x5,x6,80000010	  x5:0x00000000  x6:0x00000000
          95000	         8	00000000	00000013	addi	x0,x0,0	  x0:0x00000000
         105000	         9	8000000c	00000013	addi	x0,x0,0	  x0:0x00000000
         115000	        10	80000010	00000497	auipc	x9,0x0	  x9=0x8000000c
         125000	        11	80000014	00c48493	addi	x9,x9,12	  x9:0x8000000c  x9=0x80000018
         135000	        12	80000018	00048067	jalr	x0,x9,0	  x9:0x80000018
         145000	        13	00000000	00000013	addi	x0,x0,0	  x0:0x00000000
         155000	        14	80000018	00000013	addi	x0,x0,0	  x0:0x00000000
         165000	        15	8000001c	40000a37	lui	x20,0x40000	 x20=0x40000000
         175000	        16	80000020	100a0a13	addi	x20,x20,256	 x20:0x40000000 x20=0x40000100
         185000	        17	80000024	00000013	addi	x0,x0,0	  x0:0x00000000
         195000	        18	80000028	0000a697	auipc	x13,0xa	 x13=0x8000a024
         205000	        19	8000002c	fa068693	addi	x13,x13,-96	 x13:0x8000a024 x13=0x80009fc4
         215000	        20	80000030	00004a17	auipc	x20,0x4	 x20=0x8000402c
         225000	        21	80000034	854a0a13	addi	x20,x20,-1964	 x20:0x8000402c x20=0x80003880
         235000	        22	80000038	001a6a13	ori	x20,x20,1	 x20:0x80003880 x20=0x80003881
         245000	        23	8000003c	00000013	addi	x0,x0,0	  x0:0x00000000
         255000	        24	80000040	00000a17	auipc	x20,0x0	 x20=0x8000003c
         265000	        25	80000044	020a0a13	addi	x20,x20,32	 x20:0x8000003c x20=0x8000005c
         275000	        26	80000048	00000013	addi	x0,x0,0	  x0:0x00000000
         285000	        27	8000004c	00000013	addi	x0,x0,0	  x0:0x00000000
         295000	        28	80000050	00002a37	lui	x20,0x2	 x20=0x00002000
         305000	        29	80000054	800a0a13	addi	x20,x20,-2048	 x20:0x00002000 x20=0x00001800
         315000	        30	80000058	00000013	addi	x0,x0,0	  x0:0x00000000
         325000	        31	8000005c	00000013	addi	x0,x0,0	  x0:0x00000000
         335000	        32	80000060	00000013	addi	x0,x0,0	  x0:0x00000000
         345000	        33	80000064	00300093	addi	x1,x0,3	  x0:0x00000000  x1=0x00000003
         355000	        34	80000068	00200113	addi	x2,x0,2	  x0:0x00000000  x2=0x00000002
         365000	        35	8000006c	800001b7	lui	x3,0x80000	  x3=0x80000000
         375000	        36	80000070	00000213	addi	x4,x0,0	  x0:0x00000000  x4=0x00000000
         385000	        37	80000074	00000293	addi	x5,x0,0	  x0:0x00000000  x5=0x00000000
         395000	        38	80000078	f0fb3337	lui	x6,0xf0fb3	  x6=0xf0fb3000
         405000	        39	8000007c	db530313	addi	x6,x6,-587	  x6:0xf0fb3000  x6=0xf0fb2db5
         415000	        40	80000080	f0e3a3b7	lui	x7,0xf0e3a	  x7=0xf0e3a000
         425000	        41	80000084	c2438393	addi	x7,x7,-988	  x7:0xf0e3a000  x7=0xf0e39c24
         435000	        42	80000088	00c00413	addi	x8,x0,12	  x0:0x00000000  x8=0x0000000c
         445000	        43	8000008c	e27924b7	lui	x9,0xe2792	  x9=0xe2792000
         455000	        44	80000090	21048493	addi	x9,x9,528	  x9:0xe2792000  x9=0xe2792210
         465000	        45	80000094	f6a71537	lui	x10,0xf6a71	 x10=0xf6a71000
         475000	        46	80000098	4b050513	addi	x10,x10,1200	 x10:0xf6a71000 x10=0xf6a714b0
         485000	        47	8000009c	00a00593	addi	x11,x0,10	  x0:0x00000000 x11=0x0000000a
         495000	        48	800000a0	00900613	addi	x12,x0,9	  x0:0x00000000 x12=0x00000009
         505000	        49	800000a4	f8ead737	lui	x14,0xf8ead	 x14=0xf8ead000
         515000	        50	800000a8	9c970713	addi	x14,x14,-1591	 x14:0xf8ead000 x14=0xf8eac9c9
         525000	        51	800000ac	d756c7b7	lui	x15,0xd756c	 x15=0xd756c000
         535000	        52	800000b0	83678793	addi	x15,x15,-1994	 x15:0xd756c000 x15=0xd756b836
         545000	        53	800000b4	00400813	addi	x16,x0,4	  x0:0x00000000 x16=0x00000004
         555000	        54	800000b8	1e48a8b7	lui	x17,0x1e48a	 x17=0x1e48a000
         565000	        55	800000bc	2bd88893	addi	x17,x17,701	 x17:0x1e48a000 x17=0x1e48a2bd
         575000	        56	800000c0	bb91b937	lui	x18,0xbb91b	 x18=0xbb91b000
         585000	        57	800000c4	f5790913	addi	x18,x18,-169	 x18:0xbb91b000 x18=0xbb91af57
         595000	        58	800000c8	00000993	addi	x19,x0,0	  x0:0x00000000 x19=0x00000000
         605000	        59	800000cc	fb8a7a37	lui	x20,0xfb8a7	 x20=0xfb8a7000
         615000	        60	800000d0	29aa0a13	addi	x20,x20,666	 x20:0xfb8a7000 x20=0xfb8a729a
         625000	        61	800000d4	15672ab7	lui	x21,0x15672	 x21=0x15672000
         635000	        62	800000d8	eb3a8a93	addi	x21,x21,-333	 x21:0x15672000 x21=0x15671eb3
         645000	        63	800000dc	80000b37	lui	x22,0x80000	 x22=0x80000000
         655000	        64	800000e0	80000bb7	lui	x23,0x80000	 x23=0x80000000
         665000	        65	800000e4	00000c13	addi	x24,x0,0	  x0:0x00000000 x24=0x00000000
         675000	        66	800000e8	1da0acb7	lui	x25,0x1da0a	 x25=0x1da0a000
         685000	        67	800000ec	85ec8c93	addi	x25,x25,-1954	 x25:0x1da0a000 x25=0x1da0985e
         695000	        68	800000f0	00000d13	addi	x26,x0,0	  x0:0x00000000 x26=0x00000000
         705000	        69	800000f4	ef016db7	lui	x27,0xef016	 x27=0xef016000
         715000	        70	800000f8	2d7d8d93	addi	x27,x27,727	 x27:0xef016000 x27=0xef0162d7
         725000	        71	800000fc	80000e37	lui	x28,0x80000	 x28=0x80000000
         735000	        72	80000100	80000eb7	lui	x29,0x80000	 x29=0x80000000
         745000	        73	80000104	80000f37	lui	x30,0x80000	 x30=0x80000000
         755000	        74	80000108	0000af97	auipc	x31,0xa	 x31=0x8000a104
         765000	        75	8000010c	e80f8f93	addi	x31,x31,-384	 x31:0x8000a104 x31=0x80009f84
         775000	        76	80000110	00500e93	addi	x29,x0,5	  x0:0x00000000 x29=0x00000005
         785000	        77	80000114	63bf8793	addi	x15,x31,1595	 x31:0x80009f84 x15=0x8000a5bf
         795000	        78	80000118	00f00813	addi	x16,x0,15	  x0:0x00000000 x16=0x0000000f
         805000	        79	8000011c	4115d293	srai	x5,x11,0x11	 x11:0x0000000a  x5=0x00000000
         815000	        80	80000120	015add93	srli	x27,x21,0x15	 x21:0x15671eb3 x27=0x000000ab
         825000	        81	80000124	53aba513	slti	x10,x23,1338	 x23:0x80000000 x10=0x00000001
         835000	        82	80000128	0d113993	sltiu	x19,x2,209	  x2:0x00000002 x19=0x00000001
         845000	        83	8000012c	00ed9b13	slli	x22,x27,0xe	 x27:0x000000ab x22=0x002ac000
         855000	        84	80000130	00000013	addi	x0,x0,0	  x0:0x00000000
         865000	        85	80000134	00ae8e93	addi	x29,x29,10	 x29:0x00000005 x29=0x0000000f
         875000	        86	80000138	41835093	srai	x1,x6,0x18	  x6:0xf0fb2db5  x1=0xfffffff0
         885000	        87	8000013c	ff0e96e3	bne	x29,x16,80000128	 x29:0x0000000f x16:0x0000000f
         895000	        88	80000140	1d05ce13	xori	x28,x11,464	 x11:0x0000000a x28=0x000001da
         905000	        89	80000144	ff800213	addi	x4,x0,-8	  x0:0x00000000  x4=0xfffffff8
         915000	        90	80000148	fef00093	addi	x1,x0,-17	  x0:0x00000000  x1=0xffffffef
         925000	        91	8000014c	e7aaaa13	slti	x20,x21,-390	 x21:0x15671eb3 x20=0x00000000
         935000	        92	80000150	ff720213	addi	x4,x4,-9	  x4:0xfffffff8  x4=0xffffffef
         945000	        93	80000154	ff900293	addi	x5,x0,-7	  x0:0x00000000  x5=0xfffffff9
         955000	        94	80000158	ff000393	addi	x7,x0,-16	  x0:0x00000000  x7=0xfffffff0
         965000	        95	8000015c	01ab01b3	add	x3,x22,x26	 x22:0x002ac000 x26:0x00000000  x3=0x002ac000
         975000	        96	80000160	ff728293	addi	x5,x5,-9	  x5:0xfffffff9  x5=0xfffffff0
         985000	        97	80000164	41a3df13	srai	x30,x7,0x1a	  x7:0xfffffff0 x30=0xffffffff
         995000	        98	80000168	fe728ae3	beq	x5,x7,8000015c	  x5:0xfffffff0  x7:0xfffffff0
        1005000	        99	00000000	00000013	addi	x0,x0,0	  x0:0x00000000
        1015000	       100	80000158	00000013	addi	x0,x0,0	  x0:0x00000000
        1025000	       101	8000015c	01ab01b3	add	x3,x22,x26	 x22:0x002ac000 x26:0x00000000  x3=0x002ac000
        1035000	       102	80000160	ff728293	addi	x5,x5,-9	  x5:0xfffffff0  x5=0xffffffe7
        1045000	       103	80000164	41a3df13	srai	x30,x7,0x1a	  x7:0xfffffff0 x30=0xffffffff
        1055000	       104	80000168	fe728ae3	beq	x5,x7,8000015c	  x5:0xffffffe7  x7:0xfffffff0
        1065000	       105	8000016c	fe1200e3	beq	x4,x1,8000014c	  x4:0xffffffef  x1:0xffffffef
        1075000	       106	00000000	00000013	addi	x0,x0,0	  x0:0x00000000
        1085000	       107	80000148	00000013	addi	x0,x0,0	  x0:0x00000000
        1095000	       108	8000014c	e7aaaa13	slti	x20,x21,-390	 x21:0x15671eb3 x20=0x00000000
        1105000	       109	80000150	ff720213	addi	x4,x4,-9	  x4:0xffffffef  x4=0xffffffe6
        1115000	       110	80000154	ff900293	addi	x5,x0,-7	  x0:0x00000000  x5=0xfffffff9
        1125000	       111	80000158	ff000393	addi	x7,x0,-16	  x0:0x00000000  x7=0xfffffff0
        1135000	       112	8000015c	01ab01b3	add	x3,x22,x26	 x22:0x002ac000 x26:0x00000000  x3=0x002ac000
        1145000	       113	80000160	ff728293	addi	x5,x5,-9	  x5:0xfffffff9  x5=0xfffffff0
        1155000	       114	80000164	41a3df13	srai	x30,x7,0x1a	  x7:0xfffffff0 x30=0xffffffff
        1165000	       115	80000168	fe728ae3	beq	x5,x7,8000015c	  x5:0xfffffff0  x7:0xfffffff0
        1175000	       116	00000000	00000013	addi	x0,x0,0	  x0:0x00000000
        1185000	       117	80000158	00000013	addi	x0,x0,0	  x0:0x00000000
        1195000	       118	8000015c	01ab01b3	add	x3,x22,x26	 x22:0x002ac000 x26:0x00000000  x3=0x002ac000
        1205000	       119	80000160	ff728293	addi	x5,x5,-9	  x5:0xfffffff0  x5=0xffffffe7
        1215000	       120	80000164	41a3df13	srai	x30,x7,0x1a	  x7:0xfffffff0 x30=0xffffffff
        1225000	       121	80000168	fe728ae3	beq	x5,x7,8000015c	  x5:0xffffffe7  x7:0xfffffff0
        1235000	       122	8000016c	fe1200e3	beq	x4,x1,8000014c	  x4:0xffffffe6  x1:0xffffffef
        1245000	       123	80000170	410dda33	sra	x20,x27,x16	 x27:0x000000ab x16:0x0000000f x20=0x00000000
        1255000	       124	80000174	32a9bb37	lui	x22,0x32a9b	 x22=0x32a9b000
        1265000	       125	80000178	fdc70a93	addi	x21,x14,-36	 x14:0xf8eac9c9 x21=0xf8eac9a5
        1275000	       126	8000017c	40670233	sub	x4,x14,x6	 x14:0xf8eac9c9  x6:0xf0fb2db5  x4=0x07ef9c14
        1285000	       127	80000180	007b10b3	sll	x1,x22,x7	 x22:0x32a9b000  x7:0xfffffff0  x1=0xb0000000
        1295000	       128	80000184	4015dd93	srai	x27,x11,0x1	 x11:0x0000000a x27=0x00000005
        1305000	       129	80000188	009a1e13	slli	x28,x20,0x9	 x20:0x00000000 x28=0x00000000
        1315000	       130	8000018c	01ca3bb3	sltu	x23,x20,x28	 x20:0x00000000 x28:0x00000000 x23=0x00000000
        1325000	       131	80000190	963bb413	sltiu	x8,x23,-1693	 x23:0x00000000  x8=0x00000001
        1335000	       132	80000194	00c44733	xor	x14,x8,x12	  x8:0x00000001 x12:0x00000009 x14=0x00000008
        1345000	       133	80000198	00c3c5b3	xor	x11,x7,x12	  x7:0xfffffff0 x12:0x00000009 x11=0xfffffff9
        1355000	       134	8000019c	050f0063	beq	x30,x16,800001dc	 x30:0xffffffff x16:0x0000000f
        1365000	       135	800001a0	01aa8a63	beq	x21,x26,800001b4	 x21:0xf8eac9a5 x26:0x00000000
        1375000	       136	800001a4	41ad8cb3	sub	x25,x27,x26	 x27:0x00000005 x26:0x00000000 x25=0x00000005
        1385000	       137	800001a8	00ef0c63	beq	x30,x14,800001c0	 x30:0xffffffff x14:0x00000008
        1395000	       138	800001ac	01016b33	or	x22,x2,x16	  x2:0x00000002 x16:0x0000000f x22=0x0000000f
        1405000	       139	800001b0	02df9e63	bne	x31,x13,800001ec	 x31:0x80009f84 x13:0x80009fc4
        1415000	       140	00000000	00000013	addi	x0,x0,0	  x0:0x00000000
        1425000	       141	800001e8	00000013	addi	x0,x0,0	  x0:0x00000000
        1435000	       142	800001ec	7c176213	ori	x4,x14,1985	 x14:0x00000008  x4=0x000007c9
        1445000	       143	800001f0	003c39b3	sltu	x19,x24,x3	 x24:0x00000000  x3:0x002ac000 x19=0x00000001
        1455000	       144	800001f4	03589863	bne	x17,x21,80000224	 x17:0x1e48a2bd x21:0xf8eac9a5
        1465000	       145	00000000	00000013	addi	x0,x0,0	  x0:0x00000000
        1475000	       146	80000220	00000013	addi	x0,x0,0	  x0:0x00000000
        1485000	       147	80000224	29daa317	auipc	x6,0x29daa	  x6=0xa9daa220
        1495000	       148	80000228	414457b3	sra	x15,x8,x20	  x8:0x00000001 x20:0x00000000 x15=0x00000001
        1505000	       149	8000022c	02236063	bltu	x6,x2,8000024c	  x6:0xa9daa220  x2:0x00000002
        1515000	       150	80000230	12310c13	addi	x24,x2,291	  x2:0x00000002 x24=0x00000125
        1525000	       151	80000234	00bbdc63	bge	x23,x11,8000024c	 x23:0x00000000 x11:0xfffffff9
        1535000	       152	00000000	00000013	addi	x0,x0,0	  x0:0x00000000
        1545000	       153	80000248	00000013	addi	x0,x0,0	  x0:0x00000000
        1555000	       154	8000024c	c77b8093	addi	x1,x23,-905	 x23:0x00000000  x1=0xfffffc77
        1565000	       155	80000250	27f5eb13	ori	x22,x11,639	 x11:0xfffffff9 x22=0xffffffff
        1575000	       156	80000254	c4cee797	auipc	x15,0xc4cee	 x15=0x44cee250
        1585000	       157	80000258	014db1b3	sltu	x3,x27,x20	 x27:0x00000005 x20:0x00000000  x3=0x00000000
        1595000	       158	8000025c	5af7bd13	sltiu	x26,x15,1455	 x15:0x44cee250 x26=0x00000000
        1605000	       159	80000260	004e0033	add	x0,x28,x4	 x28:0x00000000  x4:0x000007c9
        1615000	       160	80000264	00000d97	auipc	x27,0x0	 x27=0x80000260
        1625000	       161	80000268	6d8d8d93	addi	x27,x27,1752	 x27:0x80000260 x27=0x80000938
        1635000	       162	8000026c	012c7eb3	and	x29,x24,x18	 x24:0x00000125 x18:0xbb91af57 x29=0x00000105
        1645000	       163	80000270	1b217193	andi	x3,x2,434	  x2:0x00000002  x3=0x00000002
        1655000	       164	80000274	d0b84513	xori	x10,x16,-757	 x16:0x0000000f x10=0xfffffd04
        1665000	       165	80000278	006a9ab3	sll	x21,x21,x6	 x21:0xf8eac9a5  x6:0xa9daa220 x21=0xf8eac9a5
        1675000	       166	8000027c	f39d8d93	addi	x27,x27,-199	 x27:0x80000938 x27=0x80000871
        1685000	       167	80000280	01aa1b33	sll	x22,x20,x26	 x20:0x00000000 x26:0x00000000 x22=0x00000000
        1695000	       168	80000284	e4063e93	sltiu	x29,x12,-448	 x12:0x00000009 x29=0x00000001
        1705000	       169	80000288	0c8d8a67	jalr	x20,x27,200	 x27:0x80000871 x20=0x80000288
        1715000	       170	00000000	00000013	addi	x0,x0,0	  x0:0x00000000
        1725000	       171	80000938	00000013	addi	x0,x0,0	  x0:0x00000000
        1735000	       172	8000093c	01c90a63	beq	x18,x28,80000950	 x18:0xbb91af57 x28:0x00000000
        1745000	       173	80000940	0067b133	sltu	x2,x15,x6	 x15:0x44cee250  x6:0xa9daa220  x2=0x00000001
        1755000	       174	80000944	66ae7b97	auipc	x23,0x66ae7	 x23=0xe6ae7940
        1765000	       175	80000948	bb374893	xori	x17,x14,-1101	 x14:0x00000008 x17=0xfffffbbb
        1775000	       176	8000094c	016d51b3	srl	x3,x26,x22	 x26:0x00000000 x22:0x00000000  x3=0x00000000
        1785000	       177	80000950	fecf8f93	addi	x31,x31,-20	 x31:0x80009f84 x31=0x80009f70
        1795000	       178	80000954	0142acb3	slt	x25,x5,x20	  x5:0xffffffe7 x20:0x80000288 x25=0x00000000
        1805000	       179	80000958	014fa223	sw	x20,4(x31)	 x31:0x80009f70 x20:0x80000288 PA:0x80009f74
        1815000	       180	8000095c	01872533	slt	x10,x14,x24	 x14:0x00000008 x24:0x00000125 x10=0x00000001
        1825000	       181	80000960	01becc33	xor	x24,x29,x27	 x29:0x00000001 x27:0x80000871 x24=0x80000870
        1835000	       182	80000964	1854eb13	ori	x22,x9,389	  x9:0xe2792210 x22=0xe2792395
        1845000	       183	80000968	a42c2013	slti	x0,x24,-1470	 x24:0x80000870
        1855000	       184	8000096c	0a71b813	sltiu	x16,x3,167	  x3:0x00000000 x16=0x00000001
        1865000	       185	80000970	6bd2bb93	sltiu	x23,x5,1725	  x5:0xffffffe7 x23=0x00000000
        1875000	       186	80000974	01e01c63	bne	x0,x30,8000098c	  x0:0x00000000 x30:0xffffffff
        1885000	       187	00000000	00000013	addi	x0,x0,0	  x0:0x00000000
        1895000	       188	80000988	00000013	addi	x0,x0,0	  x0:0x00000000
        1905000	       189	8000098c	4c802a6f	jal	x20,8000098c	 x20=0x8000098c
        1915000	       190	00000000	00000013	addi	x0,x0,0	  x0:0x00000000
        1925000	       191	80002e50	00000013	addi	x0,x0,0	  x0:0x00000000
        1935000	       192	80002e54	002741b3	xor	x3,x14,x2	 x14:0x00000008  x2:0x00000001  x3=0x00000009
        1945000	       193	80002e58	41a55793	srai	x15,x10,0x1a	 x10:0x00000001 x15=0x00000000
        1955000	       194	80002e5c	fc8f8f93	addi	x31,x31,-56	 x31:0x80009f70 x31=0x80009f38
        1965000	       195	80002e60	014fa223	sw	x20,4(x31)	 x31:0x80009f38 x20:0x8000098c PA:0x80009f3c
        1975000	       196	80002e64	eaf8a713	slti	x14,x17,-337	 x17:0xfffffbbb x14=0x00000001
        1985000	       197	80002e68	0078aab3	slt	x21,x17,x7	 x17:0xfffffbbb  x7:0xfffffff0 x21=0x00000001
        1995000	       198	80002e6c	41c400b3	sub	x1,x8,x28	  x8:0x00000001 x28:0x00000000  x1=0x00000001
        2005000	       199	80002e70	00000013	addi	x0,x0,0	  x0:0x00000000
        2015000	       200	80002e74	f73c7893	andi	x17,x24,-141	 x24:0x80000870 x17=0x80000870
        2025000	       201	80002e78	01e7e663	bltu	x15,x30,80002e84	 x15:0x00000000 x30:0xffffffff
        2035000	       202	00000000	00000013	addi	x0,x0,0	  x0:0x00000000
        2045000	       203	80002e80	00000013	addi	x0,x0,0	  x0:0x00000000
        2055000	       204	80002e84	cd4fda6f	jal	x20,80002e84	 x20=0x80002e84
        2065000	       205	00000000	00000013	addi	x0,x0,0	  x0:0x00000000
        2075000	       206	80000354	00000013	addi	x0,x0,0	  x0:0x00000000
        2085000	       207	80000358	01489193	slli	x3,x17,0x14	 x17:0x80000870  x3=0x87000000
        2095000	       208	8000035c	c30b0337	lui	x6,0xc30b0	  x6=0xc30b0000
        2105000	       209	80000360	01785813	srli	x16,x16,0x17	 x16:0x00000001 x16=0x00000000
        2115000	       210	80000364	00a92533	slt	x10,x18,x10	 x18:0xbb91af57 x10:0x00000001 x10=0x00000001
        2125000	       211	80000368	40358733	sub	x14,x11,x3	 x11:0xfffffff9  x3:0x87000000 x14=0x78fffff9
        2135000	       212	8000036c	25a89837	lui	x16,0x25a89	 x16=0x25a89000
        2145000	       213	80000370	00000013	addi	x0,x0,0	  x0:0x00000000
        2155000	       214	80000374	00467463	bgeu	x12,x4,8000037c	 x12:0x00000009  x4:0x000007c9
        2165000	       215	80000378	06f77113	andi	x2,x14,111	 x14:0x78fffff9  x2=0x00000069
        2175000	       216	8000037c	fccf8f93	addi	x31,x31,-52	 x31:0x80009f38 x31=0x80009f04
        2185000	       217	80000380	406002b3	sub	x5,x0,x6	  x0:0x00000000  x6:0xc30b0000  x5=0x3cf50000
        2195000	       218	80000384	014fa223	sw	x20,4(x31)	 x31:0x80009f04 x20:0x80002e84 PA:0x80009f08
        2205000	       219	80000388	32ea6d97	auipc	x27,0x32ea6	 x27=0xb2ea6384
        2215000	       220	8000038c	00000897	auipc	x17,0x0	 x17=0x80000388
        2225000	       221	80000390	49488893	addi	x17,x17,1172	 x17:0x80000388 x17=0x8000081c
        2235000	       222	80000394	00077533	and	x10,x14,x0	 x14:0x78fffff9  x0:0x00000000 x10=0x00000000
        2245000	       223	80000398	41fcd833	sra	x16,x25,x31	 x25:0x00000000 x31:0x80009f04 x16=0x00000000
        2255000	       224	8000039c	01744333	xor	x6,x8,x23	  x8:0x00000001 x23:0x00000000  x6=0x00000001
        2265000	       225	800003a0	405d8033	sub	x0,x27,x5	 x27:0xb2ea6384  x5:0x3cf50000
        2275000	       226	800003a4	37a88893	addi	x17,x17,890	 x17:0x8000081c x17=0x80000b96
        2285000	       227	800003a8	7bf9c793	xori	x15,x19,1983	 x19:0x00000001 x15=0x000007be
        2295000	       228	800003ac	011ec663	blt	x29,x17,800003b8	 x29:0x00000001 x17:0x80000b96
        2305000	       229	800003b0	414a0f33	sub	x30,x20,x20	 x20:0x80002e84 x20:0x80002e84 x30=0x00000000
        2315000	       230	800003b4	40cad713	srai	x14,x21,0xc	 x21:0x00000001 x14=0x00000000
        2325000	       231	800003b8	c8688a67	jalr	x20,x17,-890	 x17:0x80000b96 x20=0x800003b8
        2335000	       232	00000000	00000013	addi	x0,x0,0	  x0:0x00000000
        2345000	       233	8000081c	00000013	addi	x0,x0,0	  x0:0x00000000
        2355000	       234	80000820	0049b233	sltu	x4,x19,x4	 x19:0x00000001  x4:0x000007c9  x4=0x00000001
        2365000	       235	80000824	004e9433	sll	x8,x29,x4	 x29:0x00000001  x4:0x00000001  x8=0x00000002
        2375000	       236	80000828	01dd5113	srli	x2,x26,0x1d	 x26:0x00000000  x2=0x00000000
        2385000	       237	8000082c	fc0f8f93	addi	x31,x31,-64	 x31:0x80009f04 x31=0x80009ec4
        2395000	       238	80000830	019f9233	sll	x4,x31,x25	 x31:0x80009ec4 x25:0x00000000  x4=0x80009ec4
        2405000	       239	80000834	014fa223	sw	x20,4(x31)	 x31:0x80009ec4 x20:0x800003b8 PA:0x80009ec8
        2415000	       240	80000838	bb780513	addi	x10,x16,-1097	 x16:0x00000000 x10=0xfffffbb7
        2425000	       241	8000083c	6b47b293	sltiu	x5,x15,1716	 x15:0x000007be  x5=0x00000000
        2435000	       242	80000840	607c3913	sltiu	x18,x24,1543	 x24:0x80000870 x18=0x00000000
        2445000	       243	80000844	c32aaab7	lui	x21,0xc32aa	 x21=0xc32aa000
        2455000	       244	80000848	bf08af13	slti	x30,x17,-1040	 x17:0x80000b96 x30=0x00000001
        2465000	       245	8000084c	00002297	auipc	x5,0x2	  x5=0x80002848
        2475000	       246	80000850	31028293	addi	x5,x5,784	  x5:0x80002848  x5=0x80002b58
        2485000	       247	80000854	3c2c4d93	xori	x27,x24,962	 x24:0x80000870 x27=0x80000bb2
        2495000	       248	80000858	01f1abb3	slt	x23,x3,x31	  x3:0x87000000 x31:0x80009ec4 x23=0x00000000
        2505000	       249	8000085c	f3c6e093	ori	x1,x13,-196	 x13:0x80009fc4  x1=0xfffffffc
        2515000	       250	80000860	d5628293	addi	x5,x5,-682	  x5:0x80002b58  x5=0x800028ae
        2525000	       251	80000864	011e9013	slli	x0,x29,0x11	 x29:0x00000001
        2535000	       252	80000868	529ae997	auipc	x19,0x529ae	 x19=0xd29ae864
        2545000	       253	8000086c	00a9c463	blt	x19,x10,80000874	 x19:0xd29ae864 x10:0xfffffbb7
        2555000	       254	00000000	00000013	addi	x0,x0,0	  x0:0x00000000
        2565000	       255	80000870	00000013	addi	x0,x0,0	  x0:0x00000000
        2575000	       256	80000874	2ab28a67	jalr	x20,x5,683	  x5:0x800028ae x20=0x80000874
        2585000	       257	00000000	00000013	addi	x0,x0,0	  x0:0x00000000
        2595000	       258	80002b58	00000013	addi	x0,x0,0	  x0:0x00000000
        2605000	       259	80002b5c	e2f60d13	addi	x26,x12,-465	 x12:0x00000009 x26=0xfffffe38
        2615000	       260	80002b60	8bff3293	sltiu	x5,x30,-1857	 x30:0x00000001  x5=0x00000001
        2625000	       261	80002b64	fccf8f93	addi	x31,x31,-52	 x31:0x80009ec4 x31=0x80009e90
        2635000	       262	80002b68	014fa223	sw	x20,4(x31)	 x31:0x80009e90 x20:0x80000874 PA:0x80009e94
        2645000	       263	80002b6c	26accd13	xori	x26,x25,618	 x25:0x00000000 x26=0x0000026a
        2655000	       264	80002b70	00700b13	addi	x22,x0,7	  x0:0x00000000 x22=0x00000007
        2665000	       265	80002b74	40965013	srai	x0,x12,0x9	 x12:0x00000009
        2675000	       266	80002b78	00af1213	slli	x4,x30,0xa	 x30:0x00000001  x4=0x00000400
        2685000	       267	80002b7c	fea7cc93	xori	x25,x15,-22	 x15:0x000007be x25=0xfffff854
        2695000	       268	80002b80	4101d213	srai	x4,x3,0x10	  x3:0x87000000  x4=0xffff8700
        2705000	       269	80002b84	0106df13	srli	x30,x13,0x10	 x13:0x80009fc4 x30=0x00008000
        2715000	       270	80002b88	34e4b193	sltiu	x3,x9,846	  x9:0xe2792210  x3=0x00000000
        2725000	       271	80002b8c	01100913	addi	x18,x0,17	  x0:0x00000000 x18=0x00000011
        2735000	       272	80002b90	000283b3	add	x7,x5,x0	  x5:0x00000001  x0:0x00000000  x7=0x00000001
        2745000	       273	80002b94	4033d833	sra	x16,x7,x3	  x7:0x00000001  x3:0x00000000 x16=0x00000001
        2755000	       274	80002b98	04385317	auipc	x6,0x4385	  x6=0x84387b94
        2765000	       275	80002b9c	0130af33	slt	x30,x1,x19	  x1:0xfffffffc x19:0xd29ae864 x30=0x00000000
        2775000	       276	80002ba0	00631893	slli	x17,x6,0x6	  x6:0x84387b94 x17=0x0e1ee500
        2785000	       277	80002ba4	003b0b13	addi	x22,x22,3	 x22:0x00000007 x22=0x0000000a
        2795000	       278	80002ba8	ff2b6ae3	bltu	x22,x18,80002b9c	 x22:0x0000000a x18:0x00000011
        2805000	       279	00000000	00000013	addi	x0,x0,0	  x0:0x00000000
        2815000	       280	80002b98	00000013	addi	x0,x0,0	  x0:0x00000000
        2825000	       281	80002b9c	0130af33	slt	x30,x1,x19	  x1:0xfffffffc x19:0xd29ae864 x30=0x00000000
        2835000	       282	80002ba0	00631893	slli	x17,x6,0x6	  x6:0x84387b94 x17=0x0e1ee500
        2845000	       283	80002ba4	003b0b13	addi	x22,x22,3	 x22:0x0000000a x22=0x0000000d
        2855000	       284	80002ba8	ff2b6ae3	bltu	x22,x18,80002b9c	 x22:0x0000000d x18:0x00000011
        2865000	       285	00000000	00000013	addi	x0,x0,0	  x0:0x00000000
        2875000	       286	80002b98	00000013	addi	x0,x0,0	  x0:0x00000000
        2885000	       287	80002b9c	0130af33	slt	x30,x1,x19	  x1:0xfffffffc x19:0xd29ae864 x30=0x00000000
        2895000	       288	80002ba0	00631893	slli	x17,x6,0x6	  x6:0x84387b94 x17=0x0e1ee500
        2905000	       289	80002ba4	003b0b13	addi	x22,x22,3	 x22:0x0000000d x22=0x00000010
        2915000	       290	80002ba8	ff2b6ae3	bltu	x22,x18,80002b9c	 x22:0x00000010 x18:0x00000011
        2925000	       291	00000000	00000013	addi	x0,x0,0	  x0:0x00000000
        2935000	       292	80002b98	00000013	addi	x0,x0,0	  x0:0x00000000
        2945000	       293	80002b9c	0130af33	slt	x30,x1,x19	  x1:0xfffffffc x19:0xd29ae864 x30=0x00000000
        2955000	       294	80002ba0	00631893	slli	x17,x6,0x6	  x6:0x84387b94 x17=0x0e1ee500
        2965000	       295	80002ba4	003b0b13	addi	x22,x22,3	 x22:0x00000010 x22=0x00000013
        2975000	       296	80002ba8	ff2b6ae3	bltu	x22,x18,80002b9c	 x22:0x00000013 x18:0x00000011
        2985000	       297	80002bac	0178ee33	or	x28,x17,x23	 x17:0x0e1ee500 x23:0x00000000 x28=0x0e1ee500
        2995000	       298	80002bb0	0205c663	blt	x11,x0,80002bdc	 x11:0xfffffff9  x0:0x00000000
        3005000	       299	00000000	00000013	addi	x0,x0,0	  x0:0x00000000
        3015000	       300	80002bd8	00000013	addi	x0,x0,0	  x0:0x00000000
        3025000	       301	80002bdc	02b70a63	beq	x14,x11,80002c10	 x14:0x00000000 x11:0xfffffff9
        3035000	       302	80002be0	01c6cc33	xor	x24,x13,x28	 x13:0x80009fc4 x28:0x0e1ee500 x24=0x8e1e7ac4
        3045000	       303	80002be4	01231813	slli	x16,x6,0x12	  x6:0x84387b94 x16=0xee500000
        3055000	       304	80002be8	017e1993	slli	x19,x28,0x17	 x28:0x0e1ee500 x19=0x80000000
        3065000	       305	80002bec	026d7a63	bgeu	x26,x6,80002c20	 x26:0x0000026a  x6:0x84387b94
        3075000	       306	80002bf0	a404a537	lui	x10,0xa404a	 x10=0xa404a000
        3085000	       307	80002bf4	79e44713	xori	x14,x8,1950	  x8:0x00000002 x14=0x0000079c
        3095000	       308	80002bf8	00000013	addi	x0,x0,0	  x0:0x00000000
        3105000	       309	80002bfc	41b8d993	srai	x19,x17,0x1b	 x17:0x0e1ee500 x19=0x00000001
        3115000	       310	80002c00	b0dfcd13	xori	x26,x31,-1267	 x31:0x80009e90 x26=0x7fff659d
        3125000	       311	80002c04	8abb5137	lui	x2,0x8abb5	  x2=0x8abb5000
        3135000	       312	80002c08	008f7663	bgeu	x30,x8,80002c14	 x30:0x00000000  x8:0x00000002
        3145000	       313	80002c0c	00000013	addi	x0,x0,0	  x0:0x00000000
        3155000	       314	80002c10	00784533	xor	x10,x16,x7	 x16:0xee500000  x7:0x00000001 x10=0xee500001
        3165000	       315	80002c14	014fee33	or	x28,x31,x20	 x31:0x80009e90 x20:0x80000874 x28=0x80009ef4
        3175000	       316	80002c18	009aed33	or	x26,x21,x9	 x21:0xc32aa000  x9:0xe2792210 x26=0xe37ba210
        3185000	       317	80002c1c	b4246313	ori	x6,x8,-1214	  x8:0x00000002  x6=0xfffffb42
        3195000	       318	80002c20	41fcde33	sra	x28,x25,x31	 x25:0xfffff854 x31:0x80009e90 x28=0xffffffff
        3205000	       319	80002c24	01c82d33	slt	x26,x16,x28	 x16:0xee500000 x28:0xffffffff x26=0x00000001
        3215000	       320	80002c28	0086aab3	slt	x21,x13,x8	 x13:0x80009fc4  x8:0x00000002 x21=0x00000001
        3225000	       321	80002c2c	4e910893	addi	x17,x2,1257	  x2:0x8abb5000 x17=0x8abb54e9
        3235000	       322	80002c30	2db84793	xori	x15,x16,731	 x16:0xee500000 x15=0xee5002db
        3245000	       323	80002c34	f384c193	xori	x3,x9,-200	  x9:0xe2792210  x3=0x1d86dd28
        3255000	       324	80002c38	0187a233	slt	x4,x15,x24	 x15:0xee5002db x24:0x8e1e7ac4  x4=0x00000000
        3265000	       325	80002c3c	01779463	bne	x15,x23,80002c44	 x15:0xee5002db x23:0x00000000
        3275000	       326	00000000	00000013	addi	x0,x0,0	  x0:0x00000000
        3285000	       327	80002c40	00000013	addi	x0,x0,0	  x0:0x00000000
        3295000	       328	80002c44	00413133	sltu	x2,x2,x4	  x2:0x8abb5000  x4:0x00000000  x2=0x00000000
        3305000	       329	80002c48	00733c33	sltu	x24,x6,x7	  x6:0xfffffb42  x7:0x00000001 x24=0x00000000
        3315000	       330	80002c4c	eb9caa13	slti	x20,x25,-327	 x25:0xfffff854 x20=0x00000001
        3325000	       331	80002c50	00f497b3	sll	x15,x9,x15	  x9:0xe2792210 x15:0xee5002db x15=0x80000000
        3335000	       332	80002c54	05274863	blt	x14,x18,80002ca4	 x14:0x0000079c x18:0x00000011
        3345000	       333	80002c58	011b7ab3	and	x21,x22,x17	 x22:0x00000013 x17:0x8abb54e9 x21=0x00000001
        3355000	       334	80002c5c	ad016313	ori	x6,x2,-1328	  x2:0x00000000  x6=0xfffffad0
        3365000	       335	80002c60	66217f13	andi	x30,x2,1634	  x2:0x00000000 x30=0x00000000
        3375000	       336	80002c64	2adc1797	auipc	x15,0x2adc1	 x15=0xaadc3c60
        3385000	       337	80002c68	09e43813	sltiu	x16,x8,158	  x8:0x00000002 x16=0x00000001
        3395000	       338	80002c6c	019ad333	srl	x6,x21,x25	 x21:0x00000001 x25:0xfffff854  x6=0x00000000
        3405000	       339	80002c70	4d2dce93	xori	x29,x27,1234	 x27:0x80000bb2 x29=0x80000f60
        3415000	       340	80002c74	41745b33	sra	x22,x8,x23	  x8:0x00000002 x23:0x00000000 x22=0x00000002
        3425000	       341	80002c78	00000013	addi	x0,x0,0	  x0:0x00000000
        3435000	       342	80002c7c	8bd5f293	andi	x5,x11,-1859	 x11:0xfffffff9  x5=0xfffff8b9
        3445000	       343	80002c80	f2a7db97	auipc	x23,0xf2a7d	 x23=0x72a7fc7c
        3455000	       344	80002c84	f7e56413	ori	x8,x10,-130	 x10:0xee500001  x8=0xffffff7f
        3465000	       345	80002c88	37c84713	xori	x14,x16,892	 x16:0x00000001 x14=0x0000037d
        3475000	       346	80002c8c	304b6e93	ori	x29,x22,772	 x22:0x00000002 x29=0x00000306
        3485000	       347	80002c90	41abd033	sra	x0,x23,x26	 x23:0x72a7fc7c x26:0x00000001
        3495000	       348	80002c94	003d1c63	bne	x26,x3,80002cac	 x26:0x00000001  x3:0x1d86dd28
        3505000	       349	00000000	00000013	addi	x0,x0,0	  x0:0x00000000
        3515000	       350	80002ca8	00000013	addi	x0,x0,0	  x0:0x00000000
        3525000	       351	80002cac	edd2b813	sltiu	x16,x5,-291	  x5:0xfffff8b9 x16=0x00000001
        3535000	       352	80002cb0	0129dd93	srli	x27,x19,0x12	 x19:0x00000001 x27=0x00000000
        3545000	       353	80002cb4	01c5e333	or	x6,x11,x28	 x11:0xfffffff9 x28:0xffffffff  x6=0xffffffff
        3555000	       354	80002cb8	03ff7c63	bgeu	x30,x31,80002cf0	 x30:0x00000000 x31:0x80009e90
        3565000	       355	80002cbc	02697c63	bgeu	x18,x6,80002cf4	 x18:0x00000011  x6:0xffffffff
        3575000	       356	80002cc0	00c4d0b3	srl	x1,x9,x12	  x9:0xe2792210 x12:0x00000009  x1=0x00713c91
        3585000	       357	80002cc4	00f0beb3	sltu	x29,x1,x15	  x1:0x00713c91 x15:0xaadc3c60 x29=0x00000001
        3595000	       358	80002cc8	023df063	bgeu	x27,x3,80002ce8	 x27:0x00000000  x3:0x1d86dd28
        3605000	       359	80002ccc	010d5513	srli	x10,x26,0x10	 x26:0x00000001 x10=0x00000000
        3615000	       360	80002cd0	13d10013	addi	x0,x2,317	  x2:0x00000000
        3625000	       361	80002cd4	41578cb3	sub	x25,x15,x21	 x15:0xaadc3c60 x21:0x00000001 x25=0xaadc3c5f
        3635000	       362	80002cd8	00ecf333	and	x6,x25,x14	 x25:0xaadc3c5f x14:0x0000037d  x6=0x0000005d
        3645000	       363	80002cdc	0b8a8e63	beq	x21,x24,80002d98	 x21:0x00000001 x24:0x00000000
        3655000	       364	80002ce0	d5efce13	xori	x28,x31,-674	 x31:0x80009e90 x28=0x7fff63ce
        3665000	       365	80002ce4	0138d213	srli	x4,x17,0x13	 x17:0x8abb54e9  x4=0x00001157
        3675000	       366	80002ce8	01a80c33	add	x24,x16,x26	 x16:0x00000001 x26:0x00000001 x24=0x00000002
        3685000	       367	80002cec	6d1703b7	lui	x7,0x6d170	  x7=0x6d170000
        3695000	       368	80002cf0	40c5d913	srai	x18,x11,0xc	 x11:0xfffffff9 x18=0xffffffff
        3705000	       369	80002cf4	ed34c193	xori	x3,x9,-301	  x9:0xe2792210  x3=0x1d86dcc3
        3715000	       370	80002cf8	002e3b33	sltu	x22,x28,x2	 x28:0x7fff63ce  x2:0x00000000 x22=0x00000000
        3725000	       371	80002cfc	01f9b033	sltu	x0,x19,x31	 x19:0x00000001 x31:0x80009e90
        3735000	       372	80002d00	7ca98197	auipc	x3,0x7ca98	  x3=0xfca9acfc
        3745000	       373	80002d04	00a72eb3	slt	x29,x14,x10	 x14:0x0000037d x10:0x00000000 x29=0x00000000
        3755000	       374	80002d08	adfeeb93	ori	x23,x29,-1313	 x29:0x00000000 x23=0xfffffadf
        3765000	       375	80002d0c	01b9d633	srl	x12,x19,x27	 x19:0x00000001 x27:0x00000000 x12=0x00000001
        3775000	       376	80002d10	015b0133	add	x2,x22,x21	 x22:0x00000000 x21:0x00000001  x2=0x00000001
        3785000	       377	80002d14	40e48033	sub	x0,x9,x14	  x9:0xe2792210 x14:0x0000037d
        3795000	       378	80002d18	018392b3	sll	x5,x7,x24	  x7:0x6d170000 x24:0x00000002  x5=0xb45c0000
        3805000	       379	80002d1c	00400393	addi	x7,x0,4	  x0:0x00000000  x7=0x00000004
        3815000	       380	80002d20	011e6e33	or	x28,x28,x17	 x28:0x7fff63ce x17:0x8abb54e9 x28=0xffff77ef
        3825000	       381	80002d24	a0e42237	lui	x4,0xa0e42	  x4=0xa0e42000
        3835000	       382	80002d28	cc60a713	slti	x14,x1,-826	  x1:0x00713c91 x14=0x00000000
        3845000	       383	80002d2c	0009bf33	sltu	x30,x19,x0	 x19:0x00000001  x0:0x00000000 x30=0x00000000
        3855000	       384	80002d30	00300d13	addi	x26,x0,3	  x0:0x00000000 x26=0x00000003
        3865000	       385	80002d34	a6a66e13	ori	x28,x12,-1430	 x12:0x00000001 x28=0xfffffa6b
        3875000	       386	80002d38	003482b3	add	x5,x9,x3	  x9:0xe2792210  x3:0xfca9acfc  x5=0xdf22cf0c
        3885000	       387	80002d3c	31e16d93	ori	x27,x2,798	  x2:0x00000001 x27=0x0000031f
        3895000	       388	80002d40	91c80793	addi	x15,x16,-1764	 x16:0x00000001 x15=0xfffff91d
        3905000	       389	80002d44	010f7333	and	x6,x30,x16	 x30:0x00000000 x16:0x00000001  x6=0x00000000
        3915000	       390	80002d48	401785b3	sub	x11,x15,x1	 x15:0xfffff91d  x1:0x00713c91 x11=0xff8ebc8c
        3925000	       391	80002d4c	00a0e5b3	or	x11,x1,x10	  x1:0x00713c91 x10:0x00000000 x11=0x00713c91
        3935000	       392	80002d50	cb284893	xori	x17,x16,-846	 x16:0x00000001 x17=0xfffffcb3
        3945000	       393	80002d54	de3b0213	addi	x4,x22,-541	 x22:0x00000000  x4=0xfffffde3
        3955000	       394	80002d58	00000013	addi	x0,x0,0	  x0:0x00000000
        3965000	       395	80002d5c	40460033	sub	x0,x12,x4	 x12:0x00000001  x4:0xfffffde3
        3975000	       396	80002d60	0046fcb3	and	x25,x13,x4	 x13:0x80009fc4  x4:0xfffffde3 x25=0x80009dc0
        3985000	       397	80002d64	4f0ca413	slti	x8,x25,1264	 x25:0x80009dc0  x8=0x00000001
        3995000	       398	80002d68	00294a33	xor	x20,x18,x2	 x18:0xffffffff  x2:0x00000001 x20=0xfffffffe
        4005000	       399	80002d6c	7aae6417	auipc	x8,0x7aae6	  x8=0xfaae8d68
        4015000	       400	80002d70	4006d993	srai	x19,x13,0x0	 x13:0x80009fc4 x19=0x80009fc4
        4025000	       401	80002d74	8c8ce313	ori	x6,x25,-1848	 x25:0x80009dc0  x6=0xfffffdc8
        4035000	       402	80002d78	9354e093	ori	x1,x9,-1739	  x9:0xe2792210  x1=0xfffffb35
        4045000	       403	80002d7c	01a00a33	add	x20,x0,x26	  x0:0x00000000 x26:0x00000003 x20=0x00000003
        4055000	       404	80002d80	ffe38393	addi	x7,x7,-2	  x7:0x00000004  x7=0x00000002
        4065000	       405	80002d84	341d6193	ori	x3,x26,833	 x26:0x00000003  x3=0x00000343
        4075000	       406	80002d88	0018f233	and	x4,x17,x1	 x17:0xfffffcb3  x1:0xfffffb35  x4=0xfffff831
        4085000	       407	80002d8c	ffa3f6e3	bgeu	x7,x26,80002d78	  x7:0x00000002 x26:0x00000003
        4095000	       408	80002d90	01d11533	sll	x10,x2,x29	  x2:0x00000001 x29:0x00000000 x10=0x00000001
        4105000	       409	80002d94	059ce463	bltu	x25,x25,80002ddc	 x25:0x80009dc0 x25:0x80009dc0
        4115000	       410	80002d98	58760e97	auipc	x29,0x58760	 x29=0xd8762d94
        4125000	       411	80002d9c	00fabb33	sltu	x22,x21,x15	 x21:0x00000001 x15:0xfffff91d x22=0x00000001
        4135000	       412	80002da0	04961263	bne	x12,x9,80002de4	 x12:0x00000001  x9:0xe2792210
        4145000	       413	00000000	00000013	addi	x0,x0,0	  x0:0x00000000
        4155000	       414	80002de0	00000013	addi	x0,x0,0	  x0:0x00000000
        4165000	       415	80002de4	01105e13	srli	x28,x0,0x11	  x0:0x00000000 x28=0x00000000
        4175000	       416	80002de8	01af4e63	blt	x30,x26,80002e04	 x30:0x00000000 x26:0x00000003
        4185000	       417	00000000	00000013	addi	x0,x0,0	  x0:0x00000000
        4195000	       418	80002e00	00000013	addi	x0,x0,0	  x0:0x00000000
        4205000	       419	80002e04	69aa4213	xori	x4,x20,1690	 x20:0x00000003  x4=0x00000699
        4215000	       420	80002e08	01359333	sll	x6,x11,x19	 x11:0x00713c91 x19:0x80009fc4  x6=0x0713c910
        4225000	       421	80002e0c	0052c863	blt	x5,x5,80002e1c	  x5:0xdf22cf0c  x5:0xdf22cf0c
        4235000	       422	80002e10	01586663	bltu	x16,x21,80002e1c	 x16:0x00000001 x21:0x00000001
        4245000	       423	80002e14	24c6cf37	lui	x30,0x24c6c	 x30=0x24c6c000
        4255000	       424	80002e18	0189c263	blt	x19,x24,80002e1c	 x19:0x80009fc4 x24:0x00000002
        4265000	       425	00000000	00000013	addi	x0,x0,0	  x0:0x00000000
        4275000	       426	80002e18	00000013	addi	x0,x0,0	  x0:0x00000000
        4285000	       427	80002e1c	a05f0013	addi	x0,x30,-1531	 x30:0x24c6c000
        4295000	       428	80002e20	001d0613	addi	x12,x26,1	 x26:0x00000003 x12=0x00000004
        4305000	       429	80002e24	00328bb3	add	x23,x5,x3	  x5:0xdf22cf0c  x3:0x00000343 x23=0xdf22d24f
        4315000	       430	80002e28	d25c2993	slti	x19,x24,-731	 x24:0x00000002 x19=0x00000000
        4325000	       431	80002e2c	004faa03	lw	x20,4(x31)	 x31:0x80009e90 x20=0x80000874 PA:0x80009e94
        4335000	       432	80002e30	55d68213	addi	x4,x13,1373	 x13:0x80009fc4  x4=0x8000a521
        4345000	       433	80002e34	40395333	sra	x6,x18,x3	 x18:0xffffffff  x3:0x00000343  x6=0xffffffff
        4355000	       434	80002e38	410dd913	srai	x18,x27,0x10	 x27:0x0000031f x18=0x00000000
        4365000	       435	80002e3c	41bf8d33	sub	x26,x31,x27	 x31:0x80009e90 x27:0x0000031f x26=0x80009b71
        4375000	       436	80002e40	d8c1b597	auipc	x11,0xd8c1b	 x11=0x58c1de3c
        4385000	       437	80002e44	034f8f93	addi	x31,x31,52	 x31:0x80009e90 x31=0x80009ec4
        4395000	       438	80002e48	ea18b793	sltiu	x15,x17,-351	 x17:0xfffffcb3 x15=0x00000001
        4405000	       439	80002e4c	001a0c13	addi	x24,x20,1	 x20:0x80000874 x24=0x80000875
        4415000	       440	80002e50	000c0c67	jalr	x24,x24,0	 x24:0x80000875 x24=0x80002e50
        4425000	       441	00000000	00000013	addi	x0,x0,0	  x0:0x00000000
        4435000	       442	80000874	00000013	addi	x0,x0,0	  x0:0x00000000
        4445000	       443	80000878	00d93933	sltu	x18,x18,x13	 x18:0x00000000 x13:0x80009fc4 x18=0x00000001
        4455000	       444	8000087c	7bd86013	ori	x0,x16,1981	 x16:0x00000001
        4465000	       445	80000880	8545f797	auipc	x15,0x8545f	 x15=0x0545f87c
        4475000	       446	80000884	01d54863	blt	x10,x29,80000894	 x10:0x00000001 x29:0xd8762d94
        4485000	       447	80000888	ce58eb37	lui	x22,0xce58e	 x22=0xce58e000
        4495000	       448	8000088c	e93a2193	slti	x3,x20,-365	 x20:0x80000874  x3=0x00000001
        4505000	       449	80000890	0180ceb3	xor	x29,x1,x24	  x1:0xfffffb35 x24:0x80002e50 x29=0x7fffd565
        4515000	       450	80000894	2c802a6f	jal	x20,80000894	 x20=0x80000894
        4525000	       451	00000000	00000013	addi	x0,x0,0	  x0:0x00000000
        4535000	       452	80002b58	00000013	addi	x0,x0,0	  x0:0x00000000
        4545000	       453	80002b5c	e2f60d13	addi	x26,x12,-465	 x12:0x00000004 x26=0xfffffe33
        4555000	       454	80002b60	8bff3293	sltiu	x5,x30,-1857	 x30:0x24c6c000  x5=0x00000001
        4565000	       455	80002b64	fccf8f93	addi	x31,x31,-52	 x31:0x80009ec4 x31=0x80009e90
        4575000	       456	80002b68	014fa223	sw	x20,4(x31)	 x31:0x80009e90 x20:0x80000894 PA:0x80009e94
        4585000	       457	80002b6c	26accd13	xori	x26,x25,618	 x25:0x80009dc0 x26=0x80009faa
        4595000	       458	80002b70	00700b13	addi	x22,x0,7	  x0:0x00000000 x22=0x00000007
        4605000	       459	80002b74	40965013	srai	x0,x12,0x9	 x12:0x00000004
        4615000	       460	80002b78	00af1213	slli	x4,x30,0xa	 x30:0x24c6c000  x4=0x1b000000
        4625000	       461	80002b7c	fea7cc93	xori	x25,x15,-22	 x15:0x0545f87c x25=0xfaba0796
        4635000	       462	80002b80	4101d213	srai	x4,x3,0x10	  x3:0x00000001  x4=0x00000000
        4645000	       463	80002b84	0106df13	srli	x30,x13,0x10	 x13:0x80009fc4 x30=0x00008000
        4655000	       464	80002b88	34e4b193	sltiu	x3,x9,846	  x9:0xe2792210  x3=0x00000000
        4665000	       465	80002b8c	01100913	addi	x18,x0,17	  x0:0x00000000 x18=0x00000011
        4675000	       466	80002b90	000283b3	add	x7,x5,x0	  x5:0x00000001  x0:0x00000000  x7=0x00000001
        4685000	       467	80002b94	4033d833	sra	x16,x7,x3	  x7:0x00000001  x3:0x00000000 x16=0x00000001
        4695000	       468	80002b98	04385317	auipc	x6,0x4385	  x6=0x84387b94
        4705000	       469	80002b9c	0130af33	slt	x30,x1,x19	  x1:0xfffffb35 x19:0x00000000 x30=0x00000001
        4715000	       470	80002ba0	00631893	slli	x17,x6,0x6	  x6:0x84387b94 x17=0x0e1ee500
        4725000	       471	80002ba4	003b0b13	addi	x22,x22,3	 x22:0x00000007 x22=0x0000000a
        4735000	       472	80002ba8	ff2b6ae3	bltu	x22,x18,80002b9c	 x22:0x0000000a x18:0x00000011
        4745000	       473	00000000	00000013	addi	x0,x0,0	  x0:0x00000000
        4755000	       474	80002b98	00000013	addi	x0,x0,0	  x0:0x00000000
        4765000	       475	80002b9c	0130af33	slt	x30,x1,x19	  x1:0xfffffb35 x19:0x00000000 x30=0x00000001
        4775000	       476	80002ba0	00631893	slli	x17,x6,0x6	  x6:0x84387b94 x17=0x0e1ee500
        4785000	       477	80002ba4	003b0b13	addi	x22,x22,3	 x22:0x0000000a x22=0x0000000d
        4795000	       478	80002ba8	ff2b6ae3	bltu	x22,x18,80002b9c	 x22:0x0000000d x18:0x00000011
        4805000	       479	00000000	00000013	addi	x0,x0,0	  x0:0x00000000
        4815000	       480	80002b98	00000013	addi	x0,x0,0	  x0:0x00000000
        4825000	       481	80002b9c	0130af33	slt	x30,x1,x19	  x1:0xfffffb35 x19:0x00000000 x30=0x00000001
        4835000	       482	80002ba0	00631893	slli	x17,x6,0x6	  x6:0x84387b94 x17=0x0e1ee500
        4845000	       483	80002ba4	003b0b13	addi	x22,x22,3	 x22:0x0000000d x22=0x00000010
        4855000	       484	80002ba8	ff2b6ae3	bltu	x22,x18,80002b9c	 x22:0x00000010 x18:0x00000011
        4865000	       485	00000000	00000013	addi	x0,x0,0	  x0:0x00000000
        4875000	       486	80002b98	00000013	addi	x0,x0,0	  x0:0x00000000
        4885000	       487	80002b9c	0130af33	slt	x30,x1,x19	  x1:0xfffffb35 x19:0x00000000 x30=0x00000001
        4895000	       488	80002ba0	00631893	slli	x17,x6,0x6	  x6:0x84387b94 x17=0x0e1ee500
        4905000	       489	80002ba4	003b0b13	addi	x22,x22,3	 x22:0x00000010 x22=0x00000013
        4915000	       490	80002ba8	ff2b6ae3	bltu	x22,x18,80002b9c	 x22:0x00000013 x18:0x00000011
        4925000	       491	80002bac	0178ee33	or	x28,x17,x23	 x17:0x0e1ee500 x23:0xdf22d24f x28=0xdf3ef74f
        4935000	       492	80002bb0	0205c663	blt	x11,x0,80002bdc	 x11:0x58c1de3c  x0:0x00000000
        4945000	       493	80002bb4	0089d633	srl	x12,x19,x8	 x19:0x00000000  x8:0xfaae8d68 x12=0x00000000
        4955000	       494	80002bb8	02e1e463	bltu	x3,x14,80002be0	  x3:0x00000000 x14:0x00000000
        4965000	       495	80002bbc	0067a233	slt	x4,x15,x6	 x15:0x0545f87c  x6:0x84387b94  x4=0x00000000
        4975000	       496	80002bc0	b1cfe613	ori	x12,x31,-1252	 x31:0x80009e90 x12=0xffffff9c
        4985000	       497	80002bc4	01240033	add	x0,x8,x18	  x8:0xfaae8d68 x18:0x00000011
        4995000	       498	80002bc8	016eaa33	slt	x20,x29,x22	 x29:0x7fffd565 x22:0x00000013 x20=0x00000000
        5005000	       499	80002bcc	404ed593	srai	x11,x29,0x4	 x29:0x7fffd565 x11=0x07fffd56
        5015000	       500	80002bd0	003121b3	slt	x3,x2,x3	  x2:0x00000001  x3:0x00000000  x3=0x00000000
        5025000	       501	80002bd4	04af4663	blt	x30,x10,80002c20	 x30:0x00000001 x10:0x00000001
        5035000	       502	80002bd8	00ad21b3	slt	x3,x26,x10	 x26:0x80009faa x10:0x00000001  x3=0x00000001
        5045000	       503	80002bdc	02b70a63	beq	x14,x11,80002c10	 x14:0x00000000 x11:0x07fffd56
        5055000	       504	80002be0	01c6cc33	xor	x24,x13,x28	 x13:0x80009fc4 x28:0xdf3ef74f x24=0x5f3e688b
        5065000	       505	80002be4	01231813	slli	x16,x6,0x12	  x6:0x84387b94 x16=0xee500000
        5075000	       506	80002be8	017e1993	slli	x19,x28,0x17	 x28:0xdf3ef74f x19=0xa7800000
        5085000	       507	80002bec	026d7a63	bgeu	x26,x6,80002c20	 x26:0x80009faa  x6:0x84387b94
        5095000	       508	80002bf0	a404a537	lui	x10,0xa404a	 x10=0xa404a000
        5105000	       509	80002bf4	79e44713	xori	x14,x8,1950	  x8:0xfaae8d68 x14=0xfaae8af6
        5115000	       510	80002bf8	00000013	addi	x0,x0,0	  x0:0x00000000
        5125000	       511	80002bfc	41b8d993	srai	x19,x17,0x1b	 x17:0x0e1ee500 x19=0x00000001
        5135000	       512	80002c00	b0dfcd13	xori	x26,x31,-1267	 x31:0x80009e90 x26=0x7fff659d
        5145000	       513	80002c04	8abb5137	lui	x2,0x8abb5	  x2=0x8abb5000
        5155000	       514	80002c08	008f7663	bgeu	x30,x8,80002c14	 x30:0x00000001  x8:0xfaae8d68
        5165000	       515	80002c0c	00000013	addi	x0,x0,0	  x0:0x00000000
        5175000	       516	80002c10	00784533	xor	x10,x16,x7	 x16:0xee500000  x7:0x00000001 x10=0xee500001
        5185000	       517	80002c14	014fee33	or	x28,x31,x20	 x31:0x80009e90 x20:0x00000000 x28=0x80009e90
        5195000	       518	80002c18	009aed33	or	x26,x21,x9	 x21:0x00000001  x9:0xe2792210 x26=0xe2792211
        5205000	       519	80002c1c	b4246313	ori	x6,x8,-1214	  x8:0xfaae8d68  x6=0xffffff6a
        5215000	       520	80002c20	41fcde33	sra	x28,x25,x31	 x25:0xfaba0796 x31:0x80009e90 x28=0xfffffaba
        5225000	       521	80002c24	01c82d33	slt	x26,x16,x28	 x16:0xee500000 x28:0xfffffaba x26=0x00000001
        5235000	       522	80002c28	0086aab3	slt	x21,x13,x8	 x13:0x80009fc4  x8:0xfaae8d68 x21=0x00000001
        5245000	       523	80002c2c	4e910893	addi	x17,x2,1257	  x2:0x8abb5000 x17=0x8abb54e9
        5255000	       524	80002c30	2db84793	xori	x15,x16,731	 x16:0xee500000 x15=0xee5002db
        5265000	       525	80002c34	f384c193	xori	x3,x9,-200	  x9:0xe2792210  x3=0x1d86dd28
        5275000	       526	80002c38	0187a233	slt	x4,x15,x24	 x15:0xee5002db x24:0x5f3e688b  x4=0x00000001
        5285000	       527	80002c3c	01779463	bne	x15,x23,80002c44	 x15:0xee5002db x23:0xdf22d24f
        5295000	       528	00000000	00000013	addi	x0,x0,0	  x0:0x00000000
        5305000	       529	80002c40	00000013	addi	x0,x0,0	  x0:0x00000000
        5315000	       530	80002c44	00413133	sltu	x2,x2,x4	  x2:0x8abb5000  x4:0x00000001  x2=0x00000000
        5325000	       531	80002c48	00733c33	sltu	x24,x6,x7	  x6:0xffffff6a  x7:0x00000001 x24=0x00000000
        5335000	       532	80002c4c	eb9caa13	slti	x20,x25,-327	 x25:0xfaba0796 x20=0x00000001
        5345000	       533	80002c50	00f497b3	sll	x15,x9,x15	  x9:0xe2792210 x15:0xee5002db x15=0x80000000
        5355000	       534	80002c54	05274863	blt	x14,x18,80002ca4	 x14:0xfaae8af6 x18:0x00000011
        5365000	       535	00000000	00000013	addi	x0,x0,0	  x0:0x00000000
        5375000	       536	80002ca0	00000013	addi	x0,x0,0	  x0:0x00000000
        5385000	       537	80002ca4	00bc5913	srli	x18,x24,0xb	 x24:0x00000000 x18=0x00000000
        5395000	       538	80002ca8	00f978b3	and	x17,x18,x15	 x18:0x00000000 x15:0x80000000 x17=0x00000000
        5405000	       539	80002cac	edd2b813	sltiu	x16,x5,-291	  x5:0x00000001 x16=0x00000001
        5415000	       540	80002cb0	0129dd93	srli	x27,x19,0x12	 x19:0x00000001 x27=0x00000000
        5425000	       541	80002cb4	01c5e333	or	x6,x11,x28	 x11:0x07fffd56 x28:0xfffffaba  x6=0xfffffffe
        5435000	       542	80002cb8	03ff7c63	bgeu	x30,x31,80002cf0	 x30:0x00000001 x31:0x80009e90
        5445000	       543	80002cbc	02697c63	bgeu	x18,x6,80002cf4	 x18:0x00000000  x6:0xfffffffe
        5455000	       544	80002cc0	00c4d0b3	srl	x1,x9,x12	  x9:0xe2792210 x12:0xffffff9c  x1=0x0000000e
        5465000	       545	80002cc4	00f0beb3	sltu	x29,x1,x15	  x1:0x0000000e x15:0x80000000 x29=0x00000001
        5475000	       546	80002cc8	023df063	bgeu	x27,x3,80002ce8	 x27:0x00000000  x3:0x1d86dd28
        5485000	       547	80002ccc	010d5513	srli	x10,x26,0x10	 x26:0x00000001 x10=0x00000000
        5495000	       548	80002cd0	13d10013	addi	x0,x2,317	  x2:0x00000000
        5505000	       549	80002cd4	41578cb3	sub	x25,x15,x21	 x15:0x80000000 x21:0x00000001 x25=0x7fffffff
        5515000	       550	80002cd8	00ecf333	and	x6,x25,x14	 x25:0x7fffffff x14:0xfaae8af6  x6=0x7aae8af6
        5525000	       551	80002cdc	0b8a8e63	beq	x21,x24,80002d98	 x21:0x00000001 x24:0x00000000
        5535000	       552	80002ce0	d5efce13	xori	x28,x31,-674	 x31:0x80009e90 x28=0x7fff63ce
        5545000	       553	80002ce4	0138d213	srli	x4,x17,0x13	 x17:0x00000000  x4=0x00000000
        5555000	       554	80002ce8	01a80c33	add	x24,x16,x26	 x16:0x00000001 x26:0x00000001 x24=0x00000002
        5565000	       555	80002cec	6d1703b7	lui	x7,0x6d170	  x7=0x6d170000
        5575000	       556	80002cf0	40c5d913	srai	x18,x11,0xc	 x11:0x07fffd56 x18=0x00007fff
        5585000	       557	80002cf4	ed34c193	xori	x3,x9,-301	  x9:0xe2792210  x3=0x1d86dcc3
        5595000	       558	80002cf8	002e3b33	sltu	x22,x28,x2	 x28:0x7fff63ce  x2:0x00000000 x22=0x00000000
        5605000	       559	80002cfc	01f9b033	sltu	x0,x19,x31	 x19:0x00000001 x31:0x80009e90
        5615000	       560	80002d00	7ca98197	auipc	x3,0x7ca98	  x3=0xfca9acfc
        5625000	       561	80002d04	00a72eb3	slt	x29,x14,x10	 x14:0xfaae8af6 x10:0x00000000 x29=0x00000001
        5635000	       562	80002d08	adfeeb93	ori	x23,x29,-1313	 x29:0x00000001 x23=0xfffffadf
        5645000	       563	80002d0c	01b9d633	srl	x12,x19,x27	 x19:0x00000001 x27:0x00000000 x12=0x00000001
        5655000	       564	80002d10	015b0133	add	x2,x22,x21	 x22:0x00000000 x21:0x00000001  x2=0x00000001
        5665000	       565	80002d14	40e48033	sub	x0,x9,x14	  x9:0xe2792210 x14:0xfaae8af6
        5675000	       566	80002d18	018392b3	sll	x5,x7,x24	  x7:0x6d170000 x24:0x00000002  x5=0xb45c0000
        5685000	       567	80002d1c	00400393	addi	x7,x0,4	  x0:0x00000000  x7=0x00000004
        5695000	       568	80002d20	011e6e33	or	x28,x28,x17	 x28:0x7fff63ce x17:0x00000000 x28=0x7fff63ce
        5705000	       569	80002d24	a0e42237	lui	x4,0xa0e42	  x4=0xa0e42000
        5715000	       570	80002d28	cc60a713	slti	x14,x1,-826	  x1:0x0000000e x14=0x00000000
        5725000	       571	80002d2c	0009bf33	sltu	x30,x19,x0	 x19:0x00000001  x0:0x00000000 x30=0x00000000
        5735000	       572	80002d30	00300d13	addi	x26,x0,3	  x0:0x00000000 x26=0x00000003
        5745000	       573	80002d34	a6a66e13	ori	x28,x12,-1430	 x12:0x00000001 x28=0xfffffa6b
        5755000	       574	80002d38	003482b3	add	x5,x9,x3	  x9:0xe2792210  x3:0xfca9acfc  x5=0xdf22cf0c
        5765000	       575	80002d3c	31e16d93	ori	x27,x2,798	  x2:0x00000001 x27=0x0000031f
        5775000	       576	80002d40	91c80793	addi	x15,x16,-1764	 x16:0x00000001 x15=0xfffff91d
        5785000	       577	80002d44	010f7333	and	x6,x30,x16	 x30:0x00000000 x16:0x00000001  x6=0x00000000
        5795000	       578	80002d48	401785b3	sub	x11,x15,x1	 x15:0xfffff91d  x1:0x0000000e x11=0xfffff90f
        5805000	       579	80002d4c	00a0e5b3	or	x11,x1,x10	  x1:0x0000000e x10:0x00000000 x11=0x0000000e
        5815000	       580	80002d50	cb284893	xori	x17,x16,-846	 x16:0x00000001 x17=0xfffffcb3
        5825000	       581	80002d54	de3b0213	addi	x4,x22,-541	 x22:0x00000000  x4=0xfffffde3
        5835000	       582	80002d58	00000013	addi	x0,x0,0	  x0:0x00000000
        5845000	       583	80002d5c	40460033	sub	x0,x12,x4	 x12:0x00000001  x4:0xfffffde3
        5855000	       584	80002d60	0046fcb3	and	x25,x13,x4	 x13:0x80009fc4  x4:0xfffffde3 x25=0x80009dc0
        5865000	       585	80002d64	4f0ca413	slti	x8,x25,1264	 x25:0x80009dc0  x8=0x00000001
        5875000	       586	80002d68	00294a33	xor	x20,x18,x2	 x18:0x00007fff  x2:0x00000001 x20=0x00007ffe
        5885000	       587	80002d6c	7aae6417	auipc	x8,0x7aae6	  x8=0xfaae8d68
        5895000	       588	80002d70	4006d993	srai	x19,x13,0x0	 x13:0x80009fc4 x19=0x80009fc4
        5905000	       589	80002d74	8c8ce313	ori	x6,x25,-1848	 x25:0x80009dc0  x6=0xfffffdc8
        5915000	       590	80002d78	9354e093	ori	x1,x9,-1739	  x9:0xe2792210  x1=0xfffffb35
        5925000	       591	80002d7c	01a00a33	add	x20,x0,x26	  x0:0x00000000 x26:0x00000003 x20=0x00000003
        5935000	       592	80002d80	ffe38393	addi	x7,x7,-2	  x7:0x00000004  x7=0x00000002
        5945000	       593	80002d84	341d6193	ori	x3,x26,833	 x26:0x00000003  x3=0x00000343
        5955000	       594	80002d88	0018f233	and	x4,x17,x1	 x17:0xfffffcb3  x1:0xfffffb35  x4=0xfffff831
        5965000	       595	80002d8c	ffa3f6e3	bgeu	x7,x26,80002d78	  x7:0x00000002 x26:0x00000003
        5975000	       596	80002d90	01d11533	sll	x10,x2,x29	  x2:0x00000001 x29:0x00000001 x10=0x00000002
        5985000	       597	80002d94	059ce463	bltu	x25,x25,80002ddc	 x25:0x80009dc0 x25:0x80009dc0
        5995000	       598	80002d98	58760e97	auipc	x29,0x58760	 x29=0xd8762d94
        6005000	       599	80002d9c	00fabb33	sltu	x22,x21,x15	 x21:0x00000001 x15:0xfffff91d x22=0x00000001
        6015000	       600	80002da0	04961263	bne	x12,x9,80002de4	 x12:0x00000001  x9:0xe2792210
        6025000	       601	00000000	00000013	addi	x0,x0,0	  x0:0x00000000
        6035000	       602	80002de0	00000013	addi	x0,x0,0	  x0:0x00000000
        6045000	       603	80002de4	01105e13	srli	x28,x0,0x11	  x0:0x00000000 x28=0x00000000
        6055000	       604	80002de8	01af4e63	blt	x30,x26,80002e04	 x30:0x00000000 x26:0x00000003
        6065000	       605	00000000	00000013	addi	x0,x0,0	  x0:0x00000000
        6075000	       606	80002e00	00000013	addi	x0,x0,0	  x0:0x00000000
        6085000	       607	80002e04	69aa4213	xori	x4,x20,1690	 x20:0x00000003  x4=0x00000699
        6095000	       608	80002e08	01359333	sll	x6,x11,x19	 x11:0x0000000e x19:0x80009fc4  x6=0x000000e0
        6105000	       609	80002e0c	0052c863	blt	x5,x5,80002e1c	  x5:0xdf22cf0c  x5:0xdf22cf0c
        6115000	       610	80002e10	01586663	bltu	x16,x21,80002e1c	 x16:0x00000001 x21:0x00000001
        6125000	       611	80002e14	24c6cf37	lui	x30,0x24c6c	 x30=0x24c6c000
        6135000	       612	80002e18	0189c263	blt	x19,x24,80002e1c	 x19:0x80009fc4 x24:0x00000002
        6145000	       613	00000000	00000013	addi	x0,x0,0	  x0:0x00000000
        6155000	       614	80002e18	00000013	addi	x0,x0,0	  x0:0x00000000
        6165000	       615	80002e1c	a05f0013	addi	x0,x30,-1531	 x30:0x24c6c000
        6175000	       616	80002e20	001d0613	addi	x12,x26,1	 x26:0x00000003 x12=0x00000004
        6185000	       617	80002e24	00328bb3	add	x23,x5,x3	  x5:0xdf22cf0c  x3:0x00000343 x23=0xdf22d24f
        6195000	       618	80002e28	d25c2993	slti	x19,x24,-731	 x24:0x00000002 x19=0x00000000
        6205000	       619	80002e2c	004faa03	lw	x20,4(x31)	 x31:0x80009e90 x20=0x80000894 PA:0x80009e94
        6215000	       620	80002e30	55d68213	addi	x4,x13,1373	 x13:0x80009fc4  x4=0x8000a521
        6225000	       621	80002e34	40395333	sra	x6,x18,x3	 x18:0x00007fff  x3:0x00000343  x6=0x00000fff
        6235000	       622	80002e38	410dd913	srai	x18,x27,0x10	 x27:0x0000031f x18=0x00000000
        6245000	       623	80002e3c	41bf8d33	sub	x26,x31,x27	 x31:0x80009e90 x27:0x0000031f x26=0x80009b71
        6255000	       624	80002e40	d8c1b597	auipc	x11,0xd8c1b	 x11=0x58c1de3c
        6265000	       625	80002e44	034f8f93	addi	x31,x31,52	 x31:0x80009e90 x31=0x80009ec4
        6275000	       626	80002e48	ea18b793	sltiu	x15,x17,-351	 x17:0xfffffcb3 x15=0x00000001
        6285000	       627	80002e4c	001a0c13	addi	x24,x20,1	 x20:0x80000894 x24=0x80000895
        6295000	       628	80002e50	000c0c67	jalr	x24,x24,0	 x24:0x80000895 x24=0x80002e50
        6305000	       629	00000000	00000013	addi	x0,x0,0	  x0:0x00000000
        6315000	       630	80000894	00000013	addi	x0,x0,0	  x0:0x00000000
        6325000	       631	80000898	c7777913	andi	x18,x14,-905	 x14:0x00000000 x18=0x00000000
        6335000	       632	8000089c	3e2c8a93	addi	x21,x25,994	 x25:0x80009dc0 x21=0x8000a1a2
        6345000	       633	800008a0	41d25413	srai	x8,x4,0x1d	  x4:0x8000a521  x8=0xfffffffc
        6355000	       634	800008a4	00c45413	srli	x8,x8,0xc	  x8:0xfffffffc  x8=0x000fffff
        6365000	       635	800008a8	2b47f313	andi	x6,x15,692	 x15:0x00000001  x6=0x00000000
        6375000	       636	800008ac	5da7f213	andi	x4,x15,1498	 x15:0x00000001  x4=0x00000000
        6385000	       637	800008b0	033f1263	bne	x30,x19,800008d4	 x30:0x24c6c000 x19:0x00000000
        6395000	       638	00000000	00000013	addi	x0,x0,0	  x0:0x00000000
        6405000	       639	800008d0	00000013	addi	x0,x0,0	  x0:0x00000000
        6415000	       640	800008d4	023efa63	bgeu	x29,x3,80000908	 x29:0xd8762d94  x3:0x00000343
        6425000	       641	00000000	00000013	addi	x0,x0,0	  x0:0x00000000
        6435000	       642	80000904	00000013	addi	x0,x0,0	  x0:0x00000000
        6445000	       643	80000908	40845a33	sra	x20,x8,x8	  x8:0x000fffff  x8:0x000fffff x20=0x00000000
        6455000	       644	8000090c	2761de97	auipc	x29,0x2761d	 x29=0xa761d908
        6465000	       645	80000910	00000013	addi	x0,x0,0	  x0:0x00000000
        6475000	       646	80000914	01c5e033	or	x0,x11,x28	 x11:0x58c1de3c x28:0x00000000
        6485000	       647	80000918	004faa03	lw	x20,4(x31)	 x31:0x80009ec4 x20=0x800003b8 PA:0x80009ec8
        6495000	       648	8000091c	4019d113	srai	x2,x19,0x1	 x19:0x00000000  x2=0x00000000
        6505000	       649	80000920	00d683b3	add	x7,x13,x13	 x13:0x80009fc4 x13:0x80009fc4  x7=0x00013f88
        6515000	       650	80000924	00000013	addi	x0,x0,0	  x0:0x00000000
        6525000	       651	80000928	4821e337	lui	x6,0x4821e	  x6=0x4821e000
        6535000	       652	8000092c	040f8f93	addi	x31,x31,64	 x31:0x80009ec4 x31=0x80009f04
        6545000	       653	80000930	a977bc17	auipc	x24,0xa977b	 x24=0x2977b92c
        6555000	       654	80000934	001a0313	addi	x6,x20,1	 x20:0x800003b8  x6=0x800003b9
        6565000	       655	80000938	00030367	jalr	x6,x6,0	  x6:0x800003b9  x6=0x80000938
        6575000	       656	00000000	00000013	addi	x0,x0,0	  x0:0x00000000
        6585000	       657	800003b8	00000013	addi	x0,x0,0	  x0:0x00000000
        6595000	       658	800003bc	02d08063	beq	x1,x13,800003dc	  x1:0xfffffb35 x13:0x80009fc4
        6605000	       659	800003c0	40cfd733	sra	x14,x31,x12	 x31:0x80009f04 x12:0x00000004 x14=0xf80009f0
        6615000	       660	800003c4	00a6fb33	and	x22,x13,x10	 x13:0x80009fc4 x10:0x00000002 x22=0x00000000
        6625000	       661	800003c8	72f56037	lui	x0,0x72f56	
        6635000	       662	800003cc	40a55033	sra	x0,x10,x10	 x10:0x00000002 x10:0x00000002
        6645000	       663	800003d0	f5157017	auipc	x0,0xf5157	
        6655000	       664	800003d4	b5238913	addi	x18,x7,-1198	  x7:0x00013f88 x18=0x00013ada
        6665000	       665	800003d8	00a8ebb3	or	x23,x17,x10	 x17:0xfffffcb3 x10:0x00000002 x23=0xfffffcb3
        6675000	       666	800003dc	44400a6f	jal	x20,800003dc	 x20=0x800003dc
        6685000	       667	00000000	00000013	addi	x0,x0,0	  x0:0x00000000
        6695000	       668	8000081c	00000013	addi	x0,x0,0	  x0:0x00000000
        6705000	       669	80000820	0049b233	sltu	x4,x19,x4	 x19:0x00000000  x4:0x00000000  x4=0x00000000
        6715000	       670	80000824	004e9433	sll	x8,x29,x4	 x29:0xa761d908  x4:0x00000000  x8=0xa761d908
        6725000	       671	80000828	01dd5113	srli	x2,x26,0x1d	 x26:0x80009b71  x2=0x00000004
        6735000	       672	8000082c	fc0f8f93	addi	x31,x31,-64	 x31:0x80009f04 x31=0x80009ec4
        6745000	       673	80000830	019f9233	sll	x4,x31,x25	 x31:0x80009ec4 x25:0x80009dc0  x4=0x80009ec4
        6755000	       674	80000834	014fa223	sw	x20,4(x31)	 x31:0x80009ec4 x20:0x800003dc PA:0x80009ec8
        6765000	       675	80000838	bb780513	addi	x10,x16,-1097	 x16:0x00000001 x10=0xfffffbb8
        6775000	       676	8000083c	6b47b293	sltiu	x5,x15,1716	 x15:0x00000001  x5=0x00000001
        6785000	       677	80000840	607c3913	sltiu	x18,x24,1543	 x24:0x2977b92c x18=0x00000000
        6795000	       678	80000844	c32aaab7	lui	x21,0xc32aa	 x21=0xc32aa000
        6805000	       679	80000848	bf08af13	slti	x30,x17,-1040	 x17:0xfffffcb3 x30=0x00000000
        6815000	       680	8000084c	00002297	auipc	x5,0x2	  x5=0x80002848
        6825000	       681	80000850	31028293	addi	x5,x5,784	  x5:0x80002848  x5=0x80002b58
        6835000	       682	80000854	3c2c4d93	xori	x27,x24,962	 x24:0x2977b92c x27=0x2977baee
        6845000	       683	80000858	01f1abb3	slt	x23,x3,x31	  x3:0x00000343 x31:0x80009ec4 x23=0x00000000
        6855000	       684	8000085c	f3c6e093	ori	x1,x13,-196	 x13:0x80009fc4  x1=0xfffffffc
        6865000	       685	80000860	d5628293	addi	x5,x5,-682	  x5:0x80002b58  x5=0x800028ae
        6875000	       686	80000864	011e9013	slli	x0,x29,0x11	 x29:0xa761d908
        6885000	       687	80000868	529ae997	auipc	x19,0x529ae	 x19=0xd29ae864
        6895000	       688	8000086c	00a9c463	blt	x19,x10,80000874	 x19:0xd29ae864 x10:0xfffffbb8
        6905000	       689	00000000	00000013	addi	x0,x0,0	  x0:0x00000000
        6915000	       690	80000870	00000013	addi	x0,x0,0	  x0:0x00000000
        6925000	       691	80000874	2ab28a67	jalr	x20,x5,683	  x5:0x800028ae x20=0x80000874
        6935000	       692	00000000	00000013	addi	x0,x0,0	  x0:0x00000000
        6945000	       693	80002b58	00000013	addi	x0,x0,0	  x0:0x00000000
        6955000	       694	80002b5c	e2f60d13	addi	x26,x12,-465	 x12:0x00000004 x26=0xfffffe33
        6965000	       695	80002b60	8bff3293	sltiu	x5,x30,-1857	 x30:0x00000000  x5=0x00000001
        6975000	       696	80002b64	fccf8f93	addi	x31,x31,-52	 x31:0x80009ec4 x31=0x80009e90
        6985000	       697	80002b68	014fa223	sw	x20,4(x31)	 x31:0x80009e90 x20:0x80000874 PA:0x80009e94
        6995000	       698	80002b6c	26accd13	xori	x26,x25,618	 x25:0x80009dc0 x26=0x80009faa
        7005000	       699	80002b70	00700b13	addi	x22,x0,7	  x0:0x00000000 x22=0x00000007
        7015000	       700	80002b74	40965013	srai	x0,x12,0x9	 x12:0x00000004
        7025000	       701	80002b78	00af1213	slli	x4,x30,0xa	 x30:0x00000000  x4=0x00000000
        7035000	       702	80002b7c	fea7cc93	xori	x25,x15,-22	 x15:0x00000001 x25=0xffffffeb
        7045000	       703	80002b80	4101d213	srai	x4,x3,0x10	  x3:0x00000343  x4=0x00000000
        7055000	       704	80002b84	0106df13	srli	x30,x13,0x10	 x13:0x80009fc4 x30=0x00008000
        7065000	       705	80002b88	34e4b193	sltiu	x3,x9,846	  x9:0xe2792210  x3=0x00000000
        7075000	       706	80002b8c	01100913	addi	x18,x0,17	  x0:0x00000000 x18=0x00000011
        7085000	       707	80002b90	000283b3	add	x7,x5,x0	  x5:0x00000001  x0:0x00000000  x7=0x00000001
        7095000	       708	80002b94	4033d833	sra	x16,x7,x3	  x7:0x00000001  x3:0x00000000 x16=0x00000001
        7105000	       709	80002b98	04385317	auipc	x6,0x4385	  x6=0x84387b94
        7115000	       710	80002b9c	0130af33	slt	x30,x1,x19	  x1:0xfffffffc x19:0xd29ae864 x30=0x00000000
        7125000	       711	80002ba0	00631893	slli	x17,x6,0x6	  x6:0x84387b94 x17=0x0e1ee500
        7135000	       712	80002ba4	003b0b13	addi	x22,x22,3	 x22:0x00000007 x22=0x0000000a
        7145000	       713	80002ba8	ff2b6ae3	bltu	x22,x18,80002b9c	 x22:0x0000000a x18:0x00000011
        7155000	       714	00000000	00000013	addi	x0,x0,0	  x0:0x00000000
        7165000	       715	80002b98	00000013	addi	x0,x0,0	  x0:0x00000000
        7175000	       716	80002b9c	0130af33	slt	x30,x1,x19	  x1:0xfffffffc x19:0xd29ae864 x30=0x00000000
        7185000	       717	80002ba0	00631893	slli	x17,x6,0x6	  x6:0x84387b94 x17=0x0e1ee500
        7195000	       718	80002ba4	003b0b13	addi	x22,x22,3	 x22:0x0000000a x22=0x0000000d
        7205000	       719	80002ba8	ff2b6ae3	bltu	x22,x18,80002b9c	 x22:0x0000000d x18:0x00000011
        7215000	       720	00000000	00000013	addi	x0,x0,0	  x0:0x00000000
        7225000	       721	80002b98	00000013	addi	x0,x0,0	  x0:0x00000000
        7235000	       722	80002b9c	0130af33	slt	x30,x1,x19	  x1:0xfffffffc x19:0xd29ae864 x30=0x00000000
        7245000	       723	80002ba0	00631893	slli	x17,x6,0x6	  x6:0x84387b94 x17=0x0e1ee500
        7255000	       724	80002ba4	003b0b13	addi	x22,x22,3	 x22:0x0000000d x22=0x00000010
        7265000	       725	80002ba8	ff2b6ae3	bltu	x22,x18,80002b9c	 x22:0x00000010 x18:0x00000011
        7275000	       726	00000000	00000013	addi	x0,x0,0	  x0:0x00000000
        7285000	       727	80002b98	00000013	addi	x0,x0,0	  x0:0x00000000
        7295000	       728	80002b9c	0130af33	slt	x30,x1,x19	  x1:0xfffffffc x19:0xd29ae864 x30=0x00000000
        7305000	       729	80002ba0	00631893	slli	x17,x6,0x6	  x6:0x84387b94 x17=0x0e1ee500
        7315000	       730	80002ba4	003b0b13	addi	x22,x22,3	 x22:0x00000010 x22=0x00000013
        7325000	       731	80002ba8	ff2b6ae3	bltu	x22,x18,80002b9c	 x22:0x00000013 x18:0x00000011
        7335000	       732	80002bac	0178ee33	or	x28,x17,x23	 x17:0x0e1ee500 x23:0x00000000 x28=0x0e1ee500
        7345000	       733	80002bb0	0205c663	blt	x11,x0,80002bdc	 x11:0x58c1de3c  x0:0x00000000
        7355000	       734	80002bb4	0089d633	srl	x12,x19,x8	 x19:0xd29ae864  x8:0xa761d908 x12=0x00d29ae8
        7365000	       735	80002bb8	02e1e463	bltu	x3,x14,80002be0	  x3:0x00000000 x14:0xf80009f0
        7375000	       736	00000000	00000013	addi	x0,x0,0	  x0:0x00000000
        7385000	       737	80002bdc	00000013	addi	x0,x0,0	  x0:0x00000000
        7395000	       738	80002be0	01c6cc33	xor	x24,x13,x28	 x13:0x80009fc4 x28:0x0e1ee500 x24=0x8e1e7ac4
        7405000	       739	80002be4	01231813	slli	x16,x6,0x12	  x6:0x84387b94 x16=0xee500000
        7415000	       740	80002be8	017e1993	slli	x19,x28,0x17	 x28:0x0e1ee500 x19=0x80000000
        7425000	       741	80002bec	026d7a63	bgeu	x26,x6,80002c20	 x26:0x80009faa  x6:0x84387b94
        7435000	       742	80002bf0	a404a537	lui	x10,0xa404a	 x10=0xa404a000
        7445000	       743	80002bf4	79e44713	xori	x14,x8,1950	  x8:0xa761d908 x14=0xa761de96
        7455000	       744	80002bf8	00000013	addi	x0,x0,0	  x0:0x00000000
        7465000	       745	80002bfc	41b8d993	srai	x19,x17,0x1b	 x17:0x0e1ee500 x19=0x00000001
        7475000	       746	80002c00	b0dfcd13	xori	x26,x31,-1267	 x31:0x80009e90 x26=0x7fff659d
        7485000	       747	80002c04	8abb5137	lui	x2,0x8abb5	  x2=0x8abb5000
        7495000	       748	80002c08	008f7663	bgeu	x30,x8,80002c14	 x30:0x00000000  x8:0xa761d908
        7505000	       749	80002c0c	00000013	addi	x0,x0,0	  x0:0x00000000
        7515000	       750	80002c10	00784533	xor	x10,x16,x7	 x16:0xee500000  x7:0x00000001 x10=0xee500001
        7525000	       751	80002c14	014fee33	or	x28,x31,x20	 x31:0x80009e90 x20:0x80000874 x28=0x80009ef4
        7535000	       752	80002c18	009aed33	or	x26,x21,x9	 x21:0xc32aa000  x9:0xe2792210 x26=0xe37ba210
        7545000	       753	80002c1c	b4246313	ori	x6,x8,-1214	  x8:0xa761d908  x6=0xfffffb4a
        7555000	       754	80002c20	41fcde33	sra	x28,x25,x31	 x25:0xffffffeb x31:0x80009e90 x28=0xffffffff
        7565000	       755	80002c24	01c82d33	slt	x26,x16,x28	 x16:0xee500000 x28:0xffffffff x26=0x00000001
        7575000	       756	80002c28	0086aab3	slt	x21,x13,x8	 x13:0x80009fc4  x8:0xa761d908 x21=0x00000001
        7585000	       757	80002c2c	4e910893	addi	x17,x2,1257	  x2:0x8abb5000 x17=0x8abb54e9
        7595000	       758	80002c30	2db84793	xori	x15,x16,731	 x16:0xee500000 x15=0xee5002db
        7605000	       759	80002c34	f384c193	xori	x3,x9,-200	  x9:0xe2792210  x3=0x1d86dd28
        7615000	       760	80002c38	0187a233	slt	x4,x15,x24	 x15:0xee5002db x24:0x8e1e7ac4  x4=0x00000000
        7625000	       761	80002c3c	01779463	bne	x15,x23,80002c44	 x15:0xee5002db x23:0x00000000
        7635000	       762	00000000	00000013	addi	x0,x0,0	  x0:0x00000000
        7645000	       763	80002c40	00000013	addi	x0,x0,0	  x0:0x00000000
        7655000	       764	80002c44	00413133	sltu	x2,x2,x4	  x2:0x8abb5000  x4:0x00000000  x2=0x00000000
        7665000	       765	80002c48	00733c33	sltu	x24,x6,x7	  x6:0xfffffb4a  x7:0x00000001 x24=0x00000000
        7675000	       766	80002c4c	eb9caa13	slti	x20,x25,-327	 x25:0xffffffeb x20=0x00000000
        7685000	       767	80002c50	00f497b3	sll	x15,x9,x15	  x9:0xe2792210 x15:0xee5002db x15=0x80000000
        7695000	       768	80002c54	05274863	blt	x14,x18,80002ca4	 x14:0xa761de96 x18:0x00000011
        7705000	       769	00000000	00000013	addi	x0,x0,0	  x0:0x00000000
        7715000	       770	80002ca0	00000013	addi	x0,x0,0	  x0:0x00000000
        7725000	       771	80002ca4	00bc5913	srli	x18,x24,0xb	 x24:0x00000000 x18=0x00000000
        7735000	       772	80002ca8	00f978b3	and	x17,x18,x15	 x18:0x00000000 x15:0x80000000 x17=0x00000000
        7745000	       773	80002cac	edd2b813	sltiu	x16,x5,-291	  x5:0x00000001 x16=0x00000001
        7755000	       774	80002cb0	0129dd93	srli	x27,x19,0x12	 x19:0x00000001 x27=0x00000000
        7765000	       775	80002cb4	01c5e333	or	x6,x11,x28	 x11:0x58c1de3c x28:0xffffffff  x6=0xffffffff
        7775000	       776	80002cb8	03ff7c63	bgeu	x30,x31,80002cf0	 x30:0x00000000 x31:0x80009e90
        7785000	       777	80002cbc	02697c63	bgeu	x18,x6,80002cf4	 x18:0x00000000  x6:0xffffffff
        7795000	       778	80002cc0	00c4d0b3	srl	x1,x9,x12	  x9:0xe2792210 x12:0x00d29ae8  x1=0x00e27922
        7805000	       779	80002cc4	00f0beb3	sltu	x29,x1,x15	  x1:0x00e27922 x15:0x80000000 x29=0x00000001
        7815000	       780	80002cc8	023df063	bgeu	x27,x3,80002ce8	 x27:0x00000000  x3:0x1d86dd28
        7825000	       781	80002ccc	010d5513	srli	x10,x26,0x10	 x26:0x00000001 x10=0x00000000
        7835000	       782	80002cd0	13d10013	addi	x0,x2,317	  x2:0x00000000
        7845000	       783	80002cd4	41578cb3	sub	x25,x15,x21	 x15:0x80000000 x21:0x00000001 x25=0x7fffffff
        7855000	       784	80002cd8	00ecf333	and	x6,x25,x14	 x25:0x7fffffff x14:0xa761de96  x6=0x2761de96
        7865000	       785	80002cdc	0b8a8e63	beq	x21,x24,80002d98	 x21:0x00000001 x24:0x00000000
        7875000	       786	80002ce0	d5efce13	xori	x28,x31,-674	 x31:0x80009e90 x28=0x7fff63ce
        7885000	       787	80002ce4	0138d213	srli	x4,x17,0x13	 x17:0x00000000  x4=0x00000000
        7895000	       788	80002ce8	01a80c33	add	x24,x16,x26	 x16:0x00000001 x26:0x00000001 x24=0x00000002
        7905000	       789	80002cec	6d1703b7	lui	x7,0x6d170	  x7=0x6d170000
        7915000	       790	80002cf0	40c5d913	srai	x18,x11,0xc	 x11:0x58c1de3c x18=0x00058c1d
        7925000	       791	80002cf4	ed34c193	xori	x3,x9,-301	  x9:0xe2792210  x3=0x1d86dcc3
        7935000	       792	80002cf8	002e3b33	sltu	x22,x28,x2	 x28:0x7fff63ce  x2:0x00000000 x22=0x00000000
        7945000	       793	80002cfc	01f9b033	sltu	x0,x19,x31	 x19:0x00000001 x31:0x80009e90
        7955000	       794	80002d00	7ca98197	auipc	x3,0x7ca98	  x3=0xfca9acfc
        7965000	       795	80002d04	00a72eb3	slt	x29,x14,x10	 x14:0xa761de96 x10:0x00000000 x29=0x00000001
        7975000	       796	80002d08	adfeeb93	ori	x23,x29,-1313	 x29:0x00000001 x23=0xfffffadf
        7985000	       797	80002d0c	01b9d633	srl	x12,x19,x27	 x19:0x00000001 x27:0x00000000 x12=0x00000001
        7995000	       798	80002d10	015b0133	add	x2,x22,x21	 x22:0x00000000 x21:0x00000001  x2=0x00000001
        8005000	       799	80002d14	40e48033	sub	x0,x9,x14	  x9:0xe2792210 x14:0xa761de96
        8015000	       800	80002d18	018392b3	sll	x5,x7,x24	  x7:0x6d170000 x24:0x00000002  x5=0xb45c0000
        8025000	       801	80002d1c	00400393	addi	x7,x0,4	  x0:0x00000000  x7=0x00000004
        8035000	       802	80002d20	011e6e33	or	x28,x28,x17	 x28:0x7fff63ce x17:0x00000000 x28=0x7fff63ce
        8045000	       803	80002d24	a0e42237	lui	x4,0xa0e42	  x4=0xa0e42000
        8055000	       804	80002d28	cc60a713	slti	x14,x1,-826	  x1:0x00e27922 x14=0x00000000
        8065000	       805	80002d2c	0009bf33	sltu	x30,x19,x0	 x19:0x00000001  x0:0x00000000 x30=0x00000000
        8075000	       806	80002d30	00300d13	addi	x26,x0,3	  x0:0x00000000 x26=0x00000003
        8085000	       807	80002d34	a6a66e13	ori	x28,x12,-1430	 x12:0x00000001 x28=0xfffffa6b
        8095000	       808	80002d38	003482b3	add	x5,x9,x3	  x9:0xe2792210  x3:0xfca9acfc  x5=0xdf22cf0c
        8105000	       809	80002d3c	31e16d93	ori	x27,x2,798	  x2:0x00000001 x27=0x0000031f
        8115000	       810	80002d40	91c80793	addi	x15,x16,-1764	 x16:0x00000001 x15=0xfffff91d
        8125000	       811	80002d44	010f7333	and	x6,x30,x16	 x30:0x00000000 x16:0x00000001  x6=0x00000000
        8135000	       812	80002d48	401785b3	sub	x11,x15,x1	 x15:0xfffff91d  x1:0x00e27922 x11=0xff1d7ffb
        8145000	       813	80002d4c	00a0e5b3	or	x11,x1,x10	  x1:0x00e27922 x10:0x00000000 x11=0x00e27922
        8155000	       814	80002d50	cb284893	xori	x17,x16,-846	 x16:0x00000001 x17=0xfffffcb3
        8165000	       815	80002d54	de3b0213	addi	x4,x22,-541	 x22:0x00000000  x4=0xfffffde3
        8175000	       816	80002d58	00000013	addi	x0,x0,0	  x0:0x00000000
        8185000	       817	80002d5c	40460033	sub	x0,x12,x4	 x12:0x00000001  x4:0xfffffde3
        8195000	       818	80002d60	0046fcb3	and	x25,x13,x4	 x13:0x80009fc4  x4:0xfffffde3 x25=0x80009dc0
        8205000	       819	80002d64	4f0ca413	slti	x8,x25,1264	 x25:0x80009dc0  x8=0x00000001
        8215000	       820	80002d68	00294a33	xor	x20,x18,x2	 x18:0x00058c1d  x2:0x00000001 x20=0x00058c1c
        8225000	       821	80002d6c	7aae6417	auipc	x8,0x7aae6	  x8=0xfaae8d68
        8235000	       822	80002d70	4006d993	srai	x19,x13,0x0	 x13:0x80009fc4 x19=0x80009fc4
        8245000	       823	80002d74	8c8ce313	ori	x6,x25,-1848	 x25:0x80009dc0  x6=0xfffffdc8
        8255000	       824	80002d78	9354e093	ori	x1,x9,-1739	  x9:0xe2792210  x1=0xfffffb35
        8265000	       825	80002d7c	01a00a33	add	x20,x0,x26	  x0:0x00000000 x26:0x00000003 x20=0x00000003
        8275000	       826	80002d80	ffe38393	addi	x7,x7,-2	  x7:0x00000004  x7=0x00000002
        8285000	       827	80002d84	341d6193	ori	x3,x26,833	 x26:0x00000003  x3=0x00000343
        8295000	       828	80002d88	0018f233	and	x4,x17,x1	 x17:0xfffffcb3  x1:0xfffffb35  x4=0xfffff831
        8305000	       829	80002d8c	ffa3f6e3	bgeu	x7,x26,80002d78	  x7:0x00000002 x26:0x00000003
        8315000	       830	80002d90	01d11533	sll	x10,x2,x29	  x2:0x00000001 x29:0x00000001 x10=0x00000002
        8325000	       831	80002d94	059ce463	bltu	x25,x25,80002ddc	 x25:0x80009dc0 x25:0x80009dc0
        8335000	       832	80002d98	58760e97	auipc	x29,0x58760	 x29=0xd8762d94
        8345000	       833	80002d9c	00fabb33	sltu	x22,x21,x15	 x21:0x00000001 x15:0xfffff91d x22=0x00000001
        8355000	       834	80002da0	04961263	bne	x12,x9,80002de4	 x12:0x00000001  x9:0xe2792210
        8365000	       835	00000000	00000013	addi	x0,x0,0	  x0:0x00000000
        8375000	       836	80002de0	00000013	addi	x0,x0,0	  x0:0x00000000
        8385000	       837	80002de4	01105e13	srli	x28,x0,0x11	  x0:0x00000000 x28=0x00000000
        8395000	       838	80002de8	01af4e63	blt	x30,x26,80002e04	 x30:0x00000000 x26:0x00000003
        8405000	       839	00000000	00000013	addi	x0,x0,0	  x0:0x00000000
        8415000	       840	80002e00	00000013	addi	x0,x0,0	  x0:0x00000000
        8425000	       841	80002e04	69aa4213	xori	x4,x20,1690	 x20:0x00000003  x4=0x00000699
        8435000	       842	80002e08	01359333	sll	x6,x11,x19	 x11:0x00e27922 x19:0x80009fc4  x6=0x0e279220
        8445000	       843	80002e0c	0052c863	blt	x5,x5,80002e1c	  x5:0xdf22cf0c  x5:0xdf22cf0c
        8455000	       844	80002e10	01586663	bltu	x16,x21,80002e1c	 x16:0x00000001 x21:0x00000001
        8465000	       845	80002e14	24c6cf37	lui	x30,0x24c6c	 x30=0x24c6c000
        8475000	       846	80002e18	0189c263	blt	x19,x24,80002e1c	 x19:0x80009fc4 x24:0x00000002
        8485000	       847	00000000	00000013	addi	x0,x0,0	  x0:0x00000000
        8495000	       848	80002e18	00000013	addi	x0,x0,0	  x0:0x00000000
        8505000	       849	80002e1c	a05f0013	addi	x0,x30,-1531	 x30:0x24c6c000
        8515000	       850	80002e20	001d0613	addi	x12,x26,1	 x26:0x00000003 x12=0x00000004
        8525000	       851	80002e24	00328bb3	add	x23,x5,x3	  x5:0xdf22cf0c  x3:0x00000343 x23=0xdf22d24f
        8535000	       852	80002e28	d25c2993	slti	x19,x24,-731	 x24:0x00000002 x19=0x00000000
        8545000	       853	80002e2c	004faa03	lw	x20,4(x31)	 x31:0x80009e90 x20=0x80000874 PA:0x80009e94
        8555000	       854	80002e30	55d68213	addi	x4,x13,1373	 x13:0x80009fc4  x4=0x8000a521
        8565000	       855	80002e34	40395333	sra	x6,x18,x3	 x18:0x00058c1d  x3:0x00000343  x6=0x0000b183
        8575000	       856	80002e38	410dd913	srai	x18,x27,0x10	 x27:0x0000031f x18=0x00000000
        8585000	       857	80002e3c	41bf8d33	sub	x26,x31,x27	 x31:0x80009e90 x27:0x0000031f x26=0x80009b71
        8595000	       858	80002e40	d8c1b597	auipc	x11,0xd8c1b	 x11=0x58c1de3c
        8605000	       859	80002e44	034f8f93	addi	x31,x31,52	 x31:0x80009e90 x31=0x80009ec4
        8615000	       860	80002e48	ea18b793	sltiu	x15,x17,-351	 x17:0xfffffcb3 x15=0x00000001
        8625000	       861	80002e4c	001a0c13	addi	x24,x20,1	 x20:0x80000874 x24=0x80000875
        8635000	       862	80002e50	000c0c67	jalr	x24,x24,0	 x24:0x80000875 x24=0x80002e50
        8645000	       863	00000000	00000013	addi	x0,x0,0	  x0:0x00000000
        8655000	       864	80000874	00000013	addi	x0,x0,0	  x0:0x00000000
        8665000	       865	80000878	00d93933	sltu	x18,x18,x13	 x18:0x00000000 x13:0x80009fc4 x18=0x00000001
        8675000	       866	8000087c	7bd86013	ori	x0,x16,1981	 x16:0x00000001
        8685000	       867	80000880	8545f797	auipc	x15,0x8545f	 x15=0x0545f87c
        8695000	       868	80000884	01d54863	blt	x10,x29,80000894	 x10:0x00000002 x29:0xd8762d94
        8705000	       869	80000888	ce58eb37	lui	x22,0xce58e	 x22=0xce58e000
        8715000	       870	8000088c	e93a2193	slti	x3,x20,-365	 x20:0x80000874  x3=0x00000001
        8725000	       871	80000890	0180ceb3	xor	x29,x1,x24	  x1:0xfffffb35 x24:0x80002e50 x29=0x7fffd565
        8735000	       872	80000894	2c802a6f	jal	x20,80000894	 x20=0x80000894
        8745000	       873	00000000	00000013	addi	x0,x0,0	  x0:0x00000000
        8755000	       874	80002b58	00000013	addi	x0,x0,0	  x0:0x00000000
        8765000	       875	80002b5c	e2f60d13	addi	x26,x12,-465	 x12:0x00000004 x26=0xfffffe33
        8775000	       876	80002b60	8bff3293	sltiu	x5,x30,-1857	 x30:0x24c6c000  x5=0x00000001
        8785000	       877	80002b64	fccf8f93	addi	x31,x31,-52	 x31:0x80009ec4 x31=0x80009e90
        8795000	       878	80002b68	014fa223	sw	x20,4(x31)	 x31:0x80009e90 x20:0x80000894 PA:0x80009e94
        8805000	       879	80002b6c	26accd13	xori	x26,x25,618	 x25:0x80009dc0 x26=0x80009faa
        8815000	       880	80002b70	00700b13	addi	x22,x0,7	  x0:0x00000000 x22=0x00000007
        8825000	       881	80002b74	40965013	srai	x0,x12,0x9	 x12:0x00000004
        8835000	       882	80002b78	00af1213	slli	x4,x30,0xa	 x30:0x24c6c000  x4=0x1b000000
        8845000	       883	80002b7c	fea7cc93	xori	x25,x15,-22	 x15:0x0545f87c x25=0xfaba0796
        8855000	       884	80002b80	4101d213	srai	x4,x3,0x10	  x3:0x00000001  x4=0x00000000
        8865000	       885	80002b84	0106df13	srli	x30,x13,0x10	 x13:0x80009fc4 x30=0x00008000
        8875000	       886	80002b88	34e4b193	sltiu	x3,x9,846	  x9:0xe2792210  x3=0x00000000
        8885000	       887	80002b8c	01100913	addi	x18,x0,17	  x0:0x00000000 x18=0x00000011
        8895000	       888	80002b90	000283b3	add	x7,x5,x0	  x5:0x00000001  x0:0x00000000  x7=0x00000001
        8905000	       889	80002b94	4033d833	sra	x16,x7,x3	  x7:0x00000001  x3:0x00000000 x16=0x00000001
        8915000	       890	80002b98	04385317	auipc	x6,0x4385	  x6=0x84387b94
        8925000	       891	80002b9c	0130af33	slt	x30,x1,x19	  x1:0xfffffb35 x19:0x00000000 x30=0x00000001
        8935000	       892	80002ba0	00631893	slli	x17,x6,0x6	  x6:0x84387b94 x17=0x0e1ee500
        8945000	       893	80002ba4	003b0b13	addi	x22,x22,3	 x22:0x00000007 x22=0x0000000a
        8955000	       894	80002ba8	ff2b6ae3	bltu	x22,x18,80002b9c	 x22:0x0000000a x18:0x00000011
        8965000	       895	00000000	00000013	addi	x0,x0,0	  x0:0x00000000
        8975000	       896	80002b98	00000013	addi	x0,x0,0	  x0:0x00000000
        8985000	       897	80002b9c	0130af33	slt	x30,x1,x19	  x1:0xfffffb35 x19:0x00000000 x30=0x00000001
        8995000	       898	80002ba0	00631893	slli	x17,x6,0x6	  x6:0x84387b94 x17=0x0e1ee500
        9005000	       899	80002ba4	003b0b13	addi	x22,x22,3	 x22:0x0000000a x22=0x0000000d
        9015000	       900	80002ba8	ff2b6ae3	bltu	x22,x18,80002b9c	 x22:0x0000000d x18:0x00000011
        9025000	       901	00000000	00000013	addi	x0,x0,0	  x0:0x00000000
        9035000	       902	80002b98	00000013	addi	x0,x0,0	  x0:0x00000000
        9045000	       903	80002b9c	0130af33	slt	x30,x1,x19	  x1:0xfffffb35 x19:0x00000000 x30=0x00000001
        9055000	       904	80002ba0	00631893	slli	x17,x6,0x6	  x6:0x84387b94 x17=0x0e1ee500
        9065000	       905	80002ba4	003b0b13	addi	x22,x22,3	 x22:0x0000000d x22=0x00000010
        9075000	       906	80002ba8	ff2b6ae3	bltu	x22,x18,80002b9c	 x22:0x00000010 x18:0x00000011
        9085000	       907	00000000	00000013	addi	x0,x0,0	  x0:0x00000000
        9095000	       908	80002b98	00000013	addi	x0,x0,0	  x0:0x00000000
        9105000	       909	80002b9c	0130af33	slt	x30,x1,x19	  x1:0xfffffb35 x19:0x00000000 x30=0x00000001
        9115000	       910	80002ba0	00631893	slli	x17,x6,0x6	  x6:0x84387b94 x17=0x0e1ee500
        9125000	       911	80002ba4	003b0b13	addi	x22,x22,3	 x22:0x00000010 x22=0x00000013
        9135000	       912	80002ba8	ff2b6ae3	bltu	x22,x18,80002b9c	 x22:0x00000013 x18:0x00000011
        9145000	       913	80002bac	0178ee33	or	x28,x17,x23	 x17:0x0e1ee500 x23:0xdf22d24f x28=0xdf3ef74f
        9155000	       914	80002bb0	0205c663	blt	x11,x0,80002bdc	 x11:0x58c1de3c  x0:0x00000000
        9165000	       915	80002bb4	0089d633	srl	x12,x19,x8	 x19:0x00000000  x8:0xfaae8d68 x12=0x00000000
        9175000	       916	80002bb8	02e1e463	bltu	x3,x14,80002be0	  x3:0x00000000 x14:0x00000000
        9185000	       917	80002bbc	0067a233	slt	x4,x15,x6	 x15:0x0545f87c  x6:0x84387b94  x4=0x00000000
        9195000	       918	80002bc0	b1cfe613	ori	x12,x31,-1252	 x31:0x80009e90 x12=0xffffff9c
        9205000	       919	80002bc4	01240033	add	x0,x8,x18	  x8:0xfaae8d68 x18:0x00000011
        9215000	       920	80002bc8	016eaa33	slt	x20,x29,x22	 x29:0x7fffd565 x22:0x00000013 x20=0x00000000
        9225000	       921	80002bcc	404ed593	srai	x11,x29,0x4	 x29:0x7fffd565 x11=0x07fffd56
        9235000	       922	80002bd0	003121b3	slt	x3,x2,x3	  x2:0x00000001  x3:0x00000000  x3=0x00000000
        9245000	       923	80002bd4	04af4663	blt	x30,x10,80002c20	 x30:0x00000001 x10:0x00000002
        9255000	       924	00000000	00000013	addi	x0,x0,0	  x0:0x00000000
        9265000	       925	80002c1c	00000013	addi	x0,x0,0	  x0:0x00000000
        9275000	       926	80002c20	41fcde33	sra	x28,x25,x31	 x25:0xfaba0796 x31:0x80009e90 x28=0xfffffaba
        9285000	       927	80002c24	01c82d33	slt	x26,x16,x28	 x16:0x00000001 x28:0xfffffaba x26=0x00000000
        9295000	       928	80002c28	0086aab3	slt	x21,x13,x8	 x13:0x80009fc4  x8:0xfaae8d68 x21=0x00000001
        9305000	       929	80002c2c	4e910893	addi	x17,x2,1257	  x2:0x00000001 x17=0x000004ea
        9315000	       930	80002c30	2db84793	xori	x15,x16,731	 x16:0x00000001 x15=0x000002da
        9325000	       931	80002c34	f384c193	xori	x3,x9,-200	  x9:0xe2792210  x3=0x1d86dd28
        9335000	       932	80002c38	0187a233	slt	x4,x15,x24	 x15:0x000002da x24:0x80002e50  x4=0x00000000
        9345000	       933	80002c3c	01779463	bne	x15,x23,80002c44	 x15:0x000002da x23:0xdf22d24f
        9355000	       934	00000000	00000013	addi	x0,x0,0	  x0:0x00000000
        9365000	       935	80002c40	00000013	addi	x0,x0,0	  x0:0x00000000
        9375000	       936	80002c44	00413133	sltu	x2,x2,x4	  x2:0x00000001  x4:0x00000000  x2=0x00000000
        9385000	       937	80002c48	00733c33	sltu	x24,x6,x7	  x6:0x84387b94  x7:0x00000001 x24=0x00000000
        9395000	       938	80002c4c	eb9caa13	slti	x20,x25,-327	 x25:0xfaba0796 x20=0x00000001
        9405000	       939	80002c50	00f497b3	sll	x15,x9,x15	  x9:0xe2792210 x15:0x000002da x15=0x40000000
        9415000	       940	80002c54	05274863	blt	x14,x18,80002ca4	 x14:0x00000000 x18:0x00000011
        9425000	       941	00000000	00000013	addi	x0,x0,0	  x0:0x00000000
        9435000	       942	80002ca0	00000013	addi	x0,x0,0	  x0:0x00000000
        9445000	       943	80002ca4	00bc5913	srli	x18,x24,0xb	 x24:0x00000000 x18=0x00000000
        9455000	       944	80002ca8	00f978b3	and	x17,x18,x15	 x18:0x00000000 x15:0x40000000 x17=0x00000000
        9465000	       945	80002cac	edd2b813	sltiu	x16,x5,-291	  x5:0x00000001 x16=0x00000001
        9475000	       946	80002cb0	0129dd93	srli	x27,x19,0x12	 x19:0x00000000 x27=0x00000000
        9485000	       947	80002cb4	01c5e333	or	x6,x11,x28	 x11:0x07fffd56 x28:0xfffffaba  x6=0xfffffffe
        9495000	       948	80002cb8	03ff7c63	bgeu	x30,x31,80002cf0	 x30:0x00000001 x31:0x80009e90
        9505000	       949	80002cbc	02697c63	bgeu	x18,x6,80002cf4	 x18:0x00000000  x6:0xfffffffe
        9515000	       950	80002cc0	00c4d0b3	srl	x1,x9,x12	  x9:0xe2792210 x12:0xffffff9c  x1=0x0000000e
        9525000	       951	80002cc4	00f0beb3	sltu	x29,x1,x15	  x1:0x0000000e x15:0x40000000 x29=0x00000001
        9535000	       952	80002cc8	023df063	bgeu	x27,x3,80002ce8	 x27:0x00000000  x3:0x1d86dd28
        9545000	       953	80002ccc	010d5513	srli	x10,x26,0x10	 x26:0x00000000 x10=0x00000000
        9555000	       954	80002cd0	13d10013	addi	x0,x2,317	  x2:0x00000000
        9565000	       955	80002cd4	41578cb3	sub	x25,x15,x21	 x15:0x40000000 x21:0x00000001 x25=0x3fffffff
        9575000	       956	80002cd8	00ecf333	and	x6,x25,x14	 x25:0x3fffffff x14:0x00000000  x6=0x00000000
        9585000	       957	80002cdc	0b8a8e63	beq	x21,x24,80002d98	 x21:0x00000001 x24:0x00000000
        9595000	       958	80002ce0	d5efce13	xori	x28,x31,-674	 x31:0x80009e90 x28=0x7fff63ce
        9605000	       959	80002ce4	0138d213	srli	x4,x17,0x13	 x17:0x00000000  x4=0x00000000
        9615000	       960	80002ce8	01a80c33	add	x24,x16,x26	 x16:0x00000001 x26:0x00000000 x24=0x00000001
        9625000	       961	80002cec	6d1703b7	lui	x7,0x6d170	  x7=0x6d170000
        9635000	       962	80002cf0	40c5d913	srai	x18,x11,0xc	 x11:0x07fffd56 x18=0x00007fff
        9645000	       963	80002cf4	ed34c193	xori	x3,x9,-301	  x9:0xe2792210  x3=0x1d86dcc3
        9655000	       964	80002cf8	002e3b33	sltu	x22,x28,x2	 x28:0x7fff63ce  x2:0x00000000 x22=0x00000000
        9665000	       965	80002cfc	01f9b033	sltu	x0,x19,x31	 x19:0x00000000 x31:0x80009e90
        9675000	       966	80002d00	7ca98197	auipc	x3,0x7ca98	  x3=0xfca9acfc
        9685000	       967	80002d04	00a72eb3	slt	x29,x14,x10	 x14:0x00000000 x10:0x00000000 x29=0x00000000
        9695000	       968	80002d08	adfeeb93	ori	x23,x29,-1313	 x29:0x00000000 x23=0xfffffadf
        9705000	       969	80002d0c	01b9d633	srl	x12,x19,x27	 x19:0x00000000 x27:0x00000000 x12=0x00000000
        9715000	       970	80002d10	015b0133	add	x2,x22,x21	 x22:0x00000000 x21:0x00000001  x2=0x00000001
        9725000	       971	80002d14	40e48033	sub	x0,x9,x14	  x9:0xe2792210 x14:0x00000000
        9735000	       972	80002d18	018392b3	sll	x5,x7,x24	  x7:0x6d170000 x24:0x00000001  x5=0xda2e0000
        9745000	       973	80002d1c	00400393	addi	x7,x0,4	  x0:0x00000000  x7=0x00000004
        9755000	       974	80002d20	011e6e33	or	x28,x28,x17	 x28:0x7fff63ce x17:0x00000000 x28=0x7fff63ce
        9765000	       975	80002d24	a0e42237	lui	x4,0xa0e42	  x4=0xa0e42000
        9775000	       976	80002d28	cc60a713	slti	x14,x1,-826	  x1:0x0000000e x14=0x00000000
        9785000	       977	80002d2c	0009bf33	sltu	x30,x19,x0	 x19:0x00000000  x0:0x00000000 x30=0x00000000
        9795000	       978	80002d30	00300d13	addi	x26,x0,3	  x0:0x00000000 x26=0x00000003
        9805000	       979	80002d34	a6a66e13	ori	x28,x12,-1430	 x12:0x00000000 x28=0xfffffa6a
        9815000	       980	80002d38	003482b3	add	x5,x9,x3	  x9:0xe2792210  x3:0xfca9acfc  x5=0xdf22cf0c
        9825000	       981	80002d3c	31e16d93	ori	x27,x2,798	  x2:0x00000001 x27=0x0000031f
        9835000	       982	80002d40	91c80793	addi	x15,x16,-1764	 x16:0x00000001 x15=0xfffff91d
        9845000	       983	80002d44	010f7333	and	x6,x30,x16	 x30:0x00000000 x16:0x00000001  x6=0x00000000
        9855000	       984	80002d48	401785b3	sub	x11,x15,x1	 x15:0xfffff91d  x1:0x0000000e x11=0xfffff90f
        9865000	       985	80002d4c	00a0e5b3	or	x11,x1,x10	  x1:0x0000000e x10:0x00000000 x11=0x0000000e
        9875000	       986	80002d50	cb284893	xori	x17,x16,-846	 x16:0x00000001 x17=0xfffffcb3
        9885000	       987	80002d54	de3b0213	addi	x4,x22,-541	 x22:0x00000000  x4=0xfffffde3
        9895000	       988	80002d58	00000013	addi	x0,x0,0	  x0:0x00000000
        9905000	       989	80002d5c	40460033	sub	x0,x12,x4	 x12:0x00000000  x4:0xfffffde3
        9915000	       990	80002d60	0046fcb3	and	x25,x13,x4	 x13:0x80009fc4  x4:0xfffffde3 x25=0x80009dc0
        9925000	       991	80002d64	4f0ca413	slti	x8,x25,1264	 x25:0x80009dc0  x8=0x00000001
        9935000	       992	80002d68	00294a33	xor	x20,x18,x2	 x18:0x00007fff  x2:0x00000001 x20=0x00007ffe
        9945000	       993	80002d6c	7aae6417	auipc	x8,0x7aae6	  x8=0xfaae8d68
        9955000	       994	80002d70	4006d993	srai	x19,x13,0x0	 x13:0x80009fc4 x19=0x80009fc4
        9965000	       995	80002d74	8c8ce313	ori	x6,x25,-1848	 x25:0x80009dc0  x6=0xfffffdc8
        9975000	       996	80002d78	9354e093	ori	x1,x9,-1739	  x9:0xe2792210  x1=0xfffffb35
        9985000	       997	80002d7c	01a00a33	add	x20,x0,x26	  x0:0x00000000 x26:0x00000003 x20=0x00000003
        9995000	       998	80002d80	ffe38393	addi	x7,x7,-2	  x7:0x00000004  x7=0x00000002
       10005000	       999	80002d84	341d6193	ori	x3,x26,833	 x26:0x00000003  x3=0x00000343
       10015000	      1000	80002d88	0018f233	and	x4,x17,x1	 x17:0xfffffcb3  x1:0xfffffb35  x4=0xfffff831
       10025000	      1001	80002d8c	ffa3f6e3	bgeu	x7,x26,80002d78	  x7:0x00000002 x26:0x00000003
       10035000	      1002	80002d90	01d11533	sll	x10,x2,x29	  x2:0x00000001 x29:0x00000000 x10=0x00000001
       10045000	      1003	80002d94	059ce463	bltu	x25,x25,80002ddc	 x25:0x80009dc0 x25:0x80009dc0
       10055000	      1004	80002d98	58760e97	auipc	x29,0x58760	 x29=0xd8762d94
       10065000	      1005	80002d9c	00fabb33	sltu	x22,x21,x15	 x21:0x00000001 x15:0xfffff91d x22=0x00000001
       10075000	      1006	80002da0	04961263	bne	x12,x9,80002de4	 x12:0x00000000  x9:0xe2792210
       10085000	      1007	00000000	00000013	addi	x0,x0,0	  x0:0x00000000
       10095000	      1008	80002de0	00000013	addi	x0,x0,0	  x0:0x00000000
       10105000	      1009	80002de4	01105e13	srli	x28,x0,0x11	  x0:0x00000000 x28=0x00000000
       10115000	      1010	80002de8	01af4e63	blt	x30,x26,80002e04	 x30:0x00000000 x26:0x00000003
       10125000	      1011	00000000	00000013	addi	x0,x0,0	  x0:0x00000000
       10135000	      1012	80002e00	00000013	addi	x0,x0,0	  x0:0x00000000
       10145000	      1013	80002e04	69aa4213	xori	x4,x20,1690	 x20:0x00000003  x4=0x00000699
       10155000	      1014	80002e08	01359333	sll	x6,x11,x19	 x11:0x0000000e x19:0x80009fc4  x6=0x000000e0
       10165000	      1015	80002e0c	0052c863	blt	x5,x5,80002e1c	  x5:0xdf22cf0c  x5:0xdf22cf0c
       10175000	      1016	80002e10	01586663	bltu	x16,x21,80002e1c	 x16:0x00000001 x21:0x00000001
       10185000	      1017	80002e14	24c6cf37	lui	x30,0x24c6c	 x30=0x24c6c000
       10195000	      1018	80002e18	0189c263	blt	x19,x24,80002e1c	 x19:0x80009fc4 x24:0x00000001
       10205000	      1019	00000000	00000013	addi	x0,x0,0	  x0:0x00000000
       10215000	      1020	80002e18	00000013	addi	x0,x0,0	  x0:0x00000000
       10225000	      1021	80002e1c	a05f0013	addi	x0,x30,-1531	 x30:0x24c6c000
       10235000	      1022	80002e20	001d0613	addi	x12,x26,1	 x26:0x00000003 x12=0x00000004
       10245000	      1023	80002e24	00328bb3	add	x23,x5,x3	  x5:0xdf22cf0c  x3:0x00000343 x23=0xdf22d24f
       10255000	      1024	80002e28	d25c2993	slti	x19,x24,-731	 x24:0x00000001 x19=0x00000000
       10265000	      1025	80002e2c	004faa03	lw	x20,4(x31)	 x31:0x80009e90 x20=0x80000894 PA:0x80009e94
       10275000	      1026	80002e30	55d68213	addi	x4,x13,1373	 x13:0x80009fc4  x4=0x8000a521
       10285000	      1027	80002e34	40395333	sra	x6,x18,x3	 x18:0x00007fff  x3:0x00000343  x6=0x00000fff
       10295000	      1028	80002e38	410dd913	srai	x18,x27,0x10	 x27:0x0000031f x18=0x00000000
       10305000	      1029	80002e3c	41bf8d33	sub	x26,x31,x27	 x31:0x80009e90 x27:0x0000031f x26=0x80009b71
       10315000	      1030	80002e40	d8c1b597	auipc	x11,0xd8c1b	 x11=0x58c1de3c
       10325000	      1031	80002e44	034f8f93	addi	x31,x31,52	 x31:0x80009e90 x31=0x80009ec4
       10335000	      1032	80002e48	ea18b793	sltiu	x15,x17,-351	 x17:0xfffffcb3 x15=0x00000001
       10345000	      1033	80002e4c	001a0c13	addi	x24,x20,1	 x20:0x80000894 x24=0x80000895
       10355000	      1034	80002e50	000c0c67	jalr	x24,x24,0	 x24:0x80000895 x24=0x80002e50
       10365000	      1035	00000000	00000013	addi	x0,x0,0	  x0:0x00000000
       10375000	      1036	80000894	00000013	addi	x0,x0,0	  x0:0x00000000
       10385000	      1037	80000898	c7777913	andi	x18,x14,-905	 x14:0x00000000 x18=0x00000000
       10395000	      1038	8000089c	3e2c8a93	addi	x21,x25,994	 x25:0x80009dc0 x21=0x8000a1a2
       10405000	      1039	800008a0	41d25413	srai	x8,x4,0x1d	  x4:0x8000a521  x8=0xfffffffc
       10415000	      1040	800008a4	00c45413	srli	x8,x8,0xc	  x8:0xfffffffc  x8=0x000fffff
       10425000	      1041	800008a8	2b47f313	andi	x6,x15,692	 x15:0x00000001  x6=0x00000000
       10435000	      1042	800008ac	5da7f213	andi	x4,x15,1498	 x15:0x00000001  x4=0x00000000
       10445000	      1043	800008b0	033f1263	bne	x30,x19,800008d4	 x30:0x24c6c000 x19:0x00000000
       10455000	      1044	00000000	00000013	addi	x0,x0,0	  x0:0x00000000
       10465000	      1045	800008d0	00000013	addi	x0,x0,0	  x0:0x00000000
       10475000	      1046	800008d4	023efa63	bgeu	x29,x3,80000908	 x29:0xd8762d94  x3:0x00000343
       10485000	      1047	00000000	00000013	addi	x0,x0,0	  x0:0x00000000
       10495000	      1048	80000904	00000013	addi	x0,x0,0	  x0:0x00000000
       10505000	      1049	80000908	40845a33	sra	x20,x8,x8	  x8:0x000fffff  x8:0x000fffff x20=0x00000000
       10515000	      1050	8000090c	2761de97	auipc	x29,0x2761d	 x29=0xa761d908
       10525000	      1051	80000910	00000013	addi	x0,x0,0	  x0:0x00000000
       10535000	      1052	80000914	01c5e033	or	x0,x11,x28	 x11:0x58c1de3c x28:0x00000000
       10545000	      1053	80000918	004faa03	lw	x20,4(x31)	 x31:0x80009ec4 x20=0x800003dc PA:0x80009ec8
       10555000	      1054	8000091c	4019d113	srai	x2,x19,0x1	 x19:0x00000000  x2=0x00000000
       10565000	      1055	80000920	00d683b3	add	x7,x13,x13	 x13:0x80009fc4 x13:0x80009fc4  x7=0x00013f88
       10575000	      1056	80000924	00000013	addi	x0,x0,0	  x0:0x00000000
       10585000	      1057	80000928	4821e337	lui	x6,0x4821e	  x6=0x4821e000
       10595000	      1058	8000092c	040f8f93	addi	x31,x31,64	 x31:0x80009ec4 x31=0x80009f04
       10605000	      1059	80000930	a977bc17	auipc	x24,0xa977b	 x24=0x2977b92c
       10615000	      1060	80000934	001a0313	addi	x6,x20,1	 x20:0x800003dc  x6=0x800003dd
       10625000	      1061	80000938	00030367	jalr	x6,x6,0	  x6:0x800003dd  x6=0x80000938
       10635000	      1062	00000000	00000013	addi	x0,x0,0	  x0:0x00000000
       10645000	      1063	800003dc	00000013	addi	x0,x0,0	  x0:0x00000000
       10655000	      1064	800003e0	ff900a13	addi	x20,x0,-7	  x0:0x00000000 x20=0xfffffff9
       10665000	      1065	800003e4	b6f3edb7	lui	x27,0xb6f3e	 x27=0xb6f3e000
       10675000	      1066	800003e8	01b5adb3	slt	x27,x11,x27	 x11:0x58c1de3c x27:0xb6f3e000 x27=0x00000000
       10685000	      1067	800003ec	01299633	sll	x12,x19,x18	 x19:0x00000000 x18:0x00000000 x12=0x00000000
       10695000	      1068	800003f0	00f09f13	slli	x30,x1,0xf	  x1:0xfffffb35 x30=0xfd9a8000
       10705000	      1069	800003f4	00d219b3	sll	x19,x4,x13	  x4:0x00000000 x13:0x80009fc4 x19=0x00000000
       10715000	      1070	800003f8	4c628713	addi	x14,x5,1222	  x5:0xdf22cf0c x14=0xdf22d3d2
       10725000	      1071	800003fc	01278933	add	x18,x15,x18	 x15:0x00000001 x18:0x00000000 x18=0x00000001
       10735000	      1072	80000400	01a485b3	add	x11,x9,x26	  x9:0xe2792210 x26:0x80009b71 x11=0x6279bd81
       10745000	      1073	80000404	014d7c33	and	x24,x26,x20	 x26:0x80009b71 x20:0xfffffff9 x24=0x80009b71
       10755000	      1074	80000408	87604413	xori	x8,x0,-1930	  x0:0x00000000  x8=0xfffff876
       10765000	      1075	8000040c	00200e13	addi	x28,x0,2	  x0:0x00000000 x28=0x00000002
       10775000	      1076	80000410	8e3b3913	sltiu	x18,x22,-1821	 x22:0x00000001 x18=0x00000001
       10785000	      1077	80000414	9a1a4793	xori	x15,x20,-1631	 x20:0xfffffff9 x15=0x00000658
       10795000	      1078	80000418	41f78733	sub	x14,x15,x31	 x15:0x00000658 x31:0x80009f04 x14=0x7fff6754
       10805000	      1079	8000041c	009a0a13	addi	x20,x20,9	 x20:0xfffffff9 x20=0x00000002
       10815000	      1080	80000420	1cbccd93	xori	x27,x25,459	 x25:0x80009dc0 x27=0x80009c0b
       10825000	      1081	80000424	00000013	addi	x0,x0,0	  x0:0x00000000
       10835000	      1082	80000428	00000013	addi	x0,x0,0	  x0:0x00000000
       10845000	      1083	8000042c	ffca12e3	bne	x20,x28,80000410	 x20:0x00000002 x28:0x00000002
       10855000	      1084	80000430	41730033	sub	x0,x6,x23	  x6:0x80000938 x23:0xdf22d24f
       10865000	      1085	80000434	00900e93	addi	x29,x0,9	  x0:0x00000000 x29=0x00000009
       10875000	      1086	80000438	01e2a8b3	slt	x17,x5,x30	  x5:0xdf22cf0c x30:0xfd9a8000 x17=0x00000001
       10885000	      1087	8000043c	1d003593	sltiu	x11,x0,464	  x0:0x00000000 x11=0x00000001
       10895000	      1088	80000440	61e3fd13	andi	x26,x7,1566	  x7:0x00013f88 x26=0x00000608
       10905000	      1089	80000444	00900a93	addi	x21,x0,9	  x0:0x00000000 x21=0x00000009
       10915000	      1090	80000448	0039a933	slt	x18,x19,x3	 x19:0x00000000  x3:0x00000343 x18=0x00000001
       10925000	      1091	8000044c	40945413	srai	x8,x8,0x9	  x8:0xfffff876  x8=0xfffffffc
       10935000	      1092	80000450	01d9c333	xor	x6,x19,x29	 x19:0x00000000 x29:0x00000009  x6=0x00000009
       10945000	      1093	80000454	b96d0417	auipc	x8,0xb96d0	  x8=0x396d0450
       10955000	      1094	80000458	01e36033	or	x0,x6,x30	  x6:0x00000009 x30:0xfd9a8000
       10965000	      1095	8000045c	41a95833	sra	x16,x18,x26	 x18:0x00000001 x26:0x00000608 x16=0x00000000
       10975000	      1096	80000460	5ca38293	addi	x5,x7,1482	  x7:0x00013f88  x5=0x00014552
       10985000	      1097	80000464	ff8e8e93	addi	x29,x29,-8	 x29:0x00000009 x29=0x00000001
       10995000	      1098	80000468	00300b13	addi	x22,x0,3	  x0:0x00000000 x22=0x00000003
       11005000	      1099	8000046c	407f57b3	sra	x15,x30,x7	 x30:0xfd9a8000  x7:0x00013f88 x15=0xfffd9a80
       11015000	      1100	80000470	00f00613	addi	x12,x0,15	  x0:0x00000000 x12=0x0000000f
       11025000	      1101	80000474	00d89093	slli	x1,x17,0xd	 x17:0x00000001  x1=0x00002000
       11035000	      1102	80000478	00000013	addi	x0,x0,0	  x0:0x00000000
       11045000	      1103	8000047c	006b0b13	addi	x22,x22,6	 x22:0x00000003 x22=0x00000009
       11055000	      1104	80000480	fecb1ce3	bne	x22,x12,80000478	 x22:0x00000009 x12:0x0000000f
       11065000	      1105	00000000	00000013	addi	x0,x0,0	  x0:0x00000000
       11075000	      1106	80000474	00000013	addi	x0,x0,0	  x0:0x00000000
       11085000	      1107	80000478	00000013	addi	x0,x0,0	  x0:0x00000000
       11095000	      1108	8000047c	006b0b13	addi	x22,x22,6	 x22:0x00000009 x22=0x0000000f
       11105000	      1109	80000480	fecb1ce3	bne	x22,x12,80000478	 x22:0x0000000f x12:0x0000000f
       11115000	      1110	80000484	b06c7393	andi	x7,x24,-1274	 x24:0x80009b71  x7=0x80009b00
       11125000	      1111	80000488	602b8813	addi	x16,x23,1538	 x23:0xdf22d24f x16=0xdf22d851
       11135000	      1112	8000048c	63e9bd93	sltiu	x27,x19,1598	 x19:0x00000000 x27=0x00000001
       11145000	      1113	80000490	71c28b93	addi	x23,x5,1820	  x5:0x00014552 x23=0x00014c6e
       11155000	      1114	80000494	2e7abd93	sltiu	x27,x21,743	 x21:0x00000009 x27=0x00000001
       11165000	      1115	80000498	edf5c293	xori	x5,x11,-289	 x11:0x00000001  x5=0xfffffede
       11175000	      1116	8000049c	0139c0b3	xor	x1,x19,x19	 x19:0x00000000 x19:0x00000000  x1=0x00000000
       11185000	      1117	800004a0	fb5efce3	bgeu	x29,x21,80000458	 x29:0x00000001 x21:0x00000009
       11195000	      1118	800004a4	01389313	slli	x6,x17,0x13	 x17:0x00000001  x6=0x00080000
       11205000	      1119	800004a8	00700f13	addi	x30,x0,7	  x0:0x00000000 x30=0x00000007
       11215000	      1120	800004ac	26193793	sltiu	x15,x18,609	 x18:0x00000001 x15=0x00000001
       11225000	      1121	800004b0	00700c93	addi	x25,x0,7	  x0:0x00000000 x25=0x00000007
       11235000	      1122	800004b4	01866eb3	or	x29,x12,x24	 x12:0x0000000f x24:0x80009b71 x29=0x80009b7f
       11245000	      1123	800004b8	00610933	add	x18,x2,x6	  x2:0x00000000  x6:0x00080000 x18=0x00080000
       11255000	      1124	800004bc	ef192b13	slti	x22,x18,-271	 x18:0x00080000 x22=0x00000000
       11265000	      1125	800004c0	01384ab3	xor	x21,x16,x19	 x16:0xdf22d851 x19:0x00000000 x21=0xdf22d851
       11275000	      1126	800004c4	ffaf0f13	addi	x30,x30,-6	 x30:0x00000007 x30=0x00000001
       11285000	      1127	800004c8	412cd433	sra	x8,x25,x18	 x25:0x00000007 x18:0x00080000  x8=0x00000007
       11295000	      1128	800004cc	00400b93	addi	x23,x0,4	  x0:0x00000000 x23=0x00000004
       11305000	      1129	800004d0	00e999b3	sll	x19,x19,x14	 x19:0x00000000 x14:0x7fff6754 x19=0x00000000
       11315000	      1130	800004d4	ffa00093	addi	x1,x0,-6	  x0:0x00000000  x1=0xfffffffa
       11325000	      1131	800004d8	d6d62713	slti	x14,x12,-659	 x12:0x0000000f x14=0x00000000
       11335000	      1132	800004dc	55dc2e93	slti	x29,x24,1373	 x24:0x80009b71 x29=0x00000001
       11345000	      1133	800004e0	ffbb8b93	addi	x23,x23,-5	 x23:0x00000004 x23=0xffffffff
       11355000	      1134	800004e4	0085a933	slt	x18,x11,x8	 x11:0x00000001  x8:0x00000007 x18=0x00000001
       11365000	      1135	800004e8	fe1bdae3	bge	x23,x1,800004dc	 x23:0xffffffff  x1:0xfffffffa
       11375000	      1136	00000000	00000013	addi	x0,x0,0	  x0:0x00000000
       11385000	      1137	800004d8	00000013	addi	x0,x0,0	  x0:0x00000000
       11395000	      1138	800004dc	55dc2e93	slti	x29,x24,1373	 x24:0x80009b71 x29=0x00000001
       11405000	      1139	800004e0	ffbb8b93	addi	x23,x23,-5	 x23:0xffffffff x23=0xfffffffa
       11415000	      1140	800004e4	0085a933	slt	x18,x11,x8	 x11:0x00000001  x8:0x00000007 x18=0x00000001
       11425000	      1141	800004e8	fe1bdae3	bge	x23,x1,800004dc	 x23:0xfffffffa  x1:0xfffffffa
       11435000	      1142	00000000	00000013	addi	x0,x0,0	  x0:0x00000000
       11445000	      1143	800004d8	00000013	addi	x0,x0,0	  x0:0x00000000
       11455000	      1144	800004dc	55dc2e93	slti	x29,x24,1373	 x24:0x80009b71 x29=0x00000001
       11465000	      1145	800004e0	ffbb8b93	addi	x23,x23,-5	 x23:0xfffffffa x23=0xfffffff5
       11475000	      1146	800004e4	0085a933	slt	x18,x11,x8	 x11:0x00000001  x8:0x00000007 x18=0x00000001
       11485000	      1147	800004e8	fe1bdae3	bge	x23,x1,800004dc	 x23:0xfffffff5  x1:0xfffffffa
       11495000	      1148	800004ec	41bd57b3	sra	x15,x26,x27	 x26:0x00000608 x27:0x00000001 x15=0x00000304
       11505000	      1149	800004f0	fd9f74e3	bgeu	x30,x25,800004b8	 x30:0x00000001 x25:0x00000007
       11515000	      1150	800004f4	01efd9b3	srl	x19,x31,x30	 x31:0x80009f04 x30:0x00000001 x19=0x40004f82
       11525000	      1151	800004f8	01db5263	bge	x22,x29,800004fc	 x22:0x00000000 x29:0x00000001
       11535000	      1152	800004fc	018552b3	srl	x5,x10,x24	 x10:0x00000001 x24:0x80009b71  x5=0x00000000
       11545000	      1153	80000500	406d5993	srai	x19,x26,0x6	 x26:0x00000608 x19=0x00000018
       11555000	      1154	80000504	1720e013	ori	x0,x1,370	  x1:0xfffffffa
       11565000	      1155	80000508	1dfaa213	slti	x4,x21,479	 x21:0xdf22d851  x4=0x00000001
       11575000	      1156	8000050c	03810063	beq	x2,x24,8000052c	  x2:0x00000000 x24:0x80009b71
       11585000	      1157	80000510	e8b9a413	slti	x8,x19,-373	 x19:0x00000018  x8=0x00000000
       11595000	      1158	80000514	100a50b7	lui	x1,0x100a5	  x1=0x100a5000
       11605000	      1159	80000518	04937193	andi	x3,x6,73	  x6:0x00080000  x3=0x00000000
       11615000	      1160	8000051c	01bd1133	sll	x2,x26,x27	 x26:0x00000608 x27:0x00000001  x2=0x00000c10
       11625000	      1161	80000520	44bd4cb7	lui	x25,0x44bd4	 x25=0x44bd4000
       11635000	      1162	80000524	22e33113	sltiu	x2,x6,558	  x6:0x00080000  x2=0x00000000
       11645000	      1163	80000528	04b75463	bge	x14,x11,80000570	 x14:0x00000000 x11:0x00000001
       11655000	      1164	8000052c	0029fbb3	and	x23,x19,x2	 x19:0x00000018  x2:0x00000000 x23=0x00000000
       11665000	      1165	80000530	044f0d93	addi	x27,x30,68	 x30:0x00000001 x27=0x00000045
       11675000	      1166	80000534	66e8a7b7	lui	x15,0x66e8a	 x15=0x66e8a000
       11685000	      1167	80000538	00c40233	add	x4,x8,x12	  x8:0x00000000 x12:0x0000000f  x4=0x0000000f
       11695000	      1168	8000053c	f7af5e37	lui	x28,0xf7af5	 x28=0xf7af5000
       11705000	      1169	80000540	51484037	lui	x0,0x51484	
       11715000	      1170	80000544	41695a93	srai	x21,x18,0x16	 x18:0x00000001 x21=0x00000000
       11725000	      1171	80000548	d397b193	sltiu	x3,x15,-711	 x15:0x66e8a000  x3=0x00000001
       11735000	      1172	8000054c	40aa5193	srai	x3,x20,0xa	 x20:0x00000002  x3=0x00000000
       11745000	      1173	80000550	96185717	auipc	x14,0x96185	 x14=0x1618554c
       11755000	      1174	80000554	012195b3	sll	x11,x3,x18	  x3:0x00000000 x18:0x00000001 x11=0x00000000
       11765000	      1175	80000558	01600933	add	x18,x0,x22	  x0:0x00000000 x22:0x00000000 x18=0x00000000
       11775000	      1176	8000055c	019ffa63	bgeu	x31,x25,80000570	 x31:0x80009f04 x25:0x44bd4000
       11785000	      1177	00000000	00000013	addi	x0,x0,0	  x0:0x00000000
       11795000	      1178	8000056c	00000013	addi	x0,x0,0	  x0:0x00000000
       11805000	      1179	80000570	0397f663	bgeu	x15,x25,8000059c	 x15:0x66e8a000 x25:0x44bd4000
       11815000	      1180	00000000	00000013	addi	x0,x0,0	  x0:0x00000000
       11825000	      1181	80000598	00000013	addi	x0,x0,0	  x0:0x00000000
       11835000	      1182	8000059c	01ad9393	slli	x7,x27,0x1a	 x27:0x00000045  x7=0x14000000
       11845000	      1183	800005a0	020f4263	blt	x30,x0,800005c4	 x30:0x00000001  x0:0x00000000
       11855000	      1184	800005a4	4cf1ab13	slti	x22,x3,1231	  x3:0x00000000 x22=0x00000001
       11865000	      1185	800005a8	01e34933	xor	x18,x6,x30	  x6:0x00080000 x30:0x00000001 x18=0x00080001
       11875000	      1186	800005ac	01e63033	sltu	x0,x12,x30	 x12:0x0000000f x30:0x00000001
       11885000	      1187	800005b0	00000013	addi	x0,x0,0	  x0:0x00000000
       11895000	      1188	800005b4	00000013	addi	x0,x0,0	  x0:0x00000000
       11905000	      1189	800005b8	41f25d13	srai	x26,x4,0x1f	  x4:0x0000000f x26=0x00000000
       11915000	      1190	800005bc	bdb5ee13	ori	x28,x11,-1061	 x11:0x00000000 x28=0xfffffbdb
       11925000	      1191	800005c0	d248eb37	lui	x22,0xd248e	 x22=0xd248e000
       11935000	      1192	800005c4	41a05713	srai	x14,x0,0x1a	  x0:0x00000000 x14=0x00000000
       11945000	      1193	800005c8	00a2a533	slt	x10,x5,x10	  x5:0x00000000 x10:0x00000001 x10=0x00000001
       11955000	      1194	800005cc	026fde63	bge	x31,x6,80000608	 x31:0x80009f04  x6:0x00080000
       11965000	      1195	800005d0	0095ea63	bltu	x11,x9,800005e4	 x11:0x00000000  x9:0xe2792210
       11975000	      1196	00000000	00000013	addi	x0,x0,0	  x0:0x00000000
       11985000	      1197	800005e0	00000013	addi	x0,x0,0	  x0:0x00000000
       11995000	      1198	800005e4	00d1d833	srl	x16,x3,x13	  x3:0x00000000 x13:0x80009fc4 x16=0x00000000
       12005000	      1199	800005e8	005a0b33	add	x22,x20,x5	 x20:0x00000002  x5:0x00000000 x22=0x00000002
       12015000	      1200	800005ec	014030b3	sltu	x1,x0,x20	  x0:0x00000000 x20:0x00000002  x1=0x00000001
       12025000	      1201	800005f0	014f01b3	add	x3,x30,x20	 x30:0x00000001 x20:0x00000002  x3=0x00000003
       12035000	      1202	800005f4	7ec56d93	ori	x27,x10,2028	 x10:0x00000001 x27=0x000007ed
       12045000	      1203	800005f8	00000013	addi	x0,x0,0	  x0:0x00000000
       12055000	      1204	800005fc	000f87b3	add	x15,x31,x0	 x31:0x80009f04  x0:0x00000000 x15=0x80009f04
       12065000	      1205	80000600	c0c18817	auipc	x16,0xc0c18	 x16=0x40c185fc
       12075000	      1206	80000604	0a425197	auipc	x3,0xa425	  x3=0x8a425600
       12085000	      1207	80000608	41c78cb3	sub	x25,x15,x28	 x15:0x80009f04 x28:0xfffffbdb x25=0x8000a329
       12095000	      1208	8000060c	02c56463	bltu	x10,x12,80000634	 x10:0x00000001 x12:0x0000000f
       12105000	      1209	00000000	00000013	addi	x0,x0,0	  x0:0x00000000
       12115000	      1210	80000630	00000013	addi	x0,x0,0	  x0:0x00000000
       12125000	      1211	80000634	016428b3	slt	x17,x8,x22	  x8:0x00000000 x22:0x00000002 x17=0x00000001
       12135000	      1212	80000638	00911d13	slli	x26,x2,0x9	  x2:0x00000000 x26=0x00000000
       12145000	      1213	8000063c	12dbdb97	auipc	x23,0x12dbd	 x23=0x92dbd638
       12155000	      1214	80000640	40ce0533	sub	x10,x28,x12	 x28:0xfffffbdb x12:0x0000000f x10=0xfffffbcc
       12165000	      1215	80000644	402957b3	sra	x15,x18,x2	 x18:0x00080001  x2:0x00000000 x15=0x00080001
       12175000	      1216	80000648	010709b3	add	x19,x14,x16	 x14:0x00000000 x16:0x40c185fc x19=0x40c185fc
       12185000	      1217	8000064c	00fac463	blt	x21,x15,80000654	 x21:0x00000000 x15:0x00080001
       12195000	      1218	00000000	00000013	addi	x0,x0,0	  x0:0x00000000
       12205000	      1219	80000650	00000013	addi	x0,x0,0	  x0:0x00000000
       12215000	      1220	80000654	00971213	slli	x4,x14,0x9	 x14:0x00000000  x4=0x00000000
       12225000	      1221	80000658	405f8433	sub	x8,x31,x5	 x31:0x80009f04  x5:0x00000000  x8=0x80009f04
       12235000	      1222	8000065c	016b0cb3	add	x25,x22,x22	 x22:0x00000002 x22:0x00000002 x25=0x00000004
       12245000	      1223	80000660	002498b3	sll	x17,x9,x2	  x9:0xe2792210  x2:0x00000000 x17=0xe2792210
       12255000	      1224	80000664	014c5c13	srli	x24,x24,0x14	 x24:0x80009b71 x24=0x00000800
       12265000	      1225	80000668	ce7f0293	addi	x5,x30,-793	 x30:0x00000001  x5=0xfffffce8
       12275000	      1226	8000066c	004f6a63	bltu	x30,x4,80000680	 x30:0x00000001  x4:0x00000000
       12285000	      1227	80000670	51e82f13	slti	x30,x16,1310	 x16:0x40c185fc x30=0x00000000
       12295000	      1228	80000674	412adc33	sra	x24,x21,x18	 x21:0x00000000 x18:0x00080001 x24=0x00000000
       12305000	      1229	80000678	411ed2b3	sra	x5,x29,x17	 x29:0x00000001 x17:0xe2792210  x5=0x00000000
       12315000	      1230	8000067c	028d5e63	bge	x26,x8,800006b8	 x26:0x00000000  x8:0x80009f04
       12325000	      1231	00000000	00000013	addi	x0,x0,0	  x0:0x00000000
       12335000	      1232	800006b4	00000013	addi	x0,x0,0	  x0:0x00000000
       12345000	      1233	800006b8	96a00a13	addi	x20,x0,-1686	  x0:0x00000000 x20=0xfffff96a
       12355000	      1234	800006bc	5b6e4093	xori	x1,x28,1462	 x28:0xfffffbdb  x1=0xfffffe6d
       12365000	      1235	800006c0	00cb5313	srli	x6,x22,0xc	 x22:0x00000002  x6=0x00000000
       12375000	      1236	800006c4	00fcfc63	bgeu	x25,x15,800006dc	 x25:0x00000004 x15:0x00080001
       12385000	      1237	800006c8	03d55863	bge	x10,x29,800006f8	 x10:0xfffffbcc x29:0x00000001
       12395000	      1238	800006cc	00a909b3	add	x19,x18,x10	 x18:0x00080001 x10:0xfffffbcc x19=0x0007fbcd
       12405000	      1239	800006d0	015078b3	and	x17,x0,x21	  x0:0x00000000 x21:0x00000000 x17=0x00000000
       12415000	      1240	800006d4	ea856d93	ori	x27,x10,-344	 x10:0xfffffbcc x27=0xffffffec
       12425000	      1241	800006d8	c1a0c113	xori	x2,x1,-998	  x1:0xfffffe6d  x2=0x00000277
       12435000	      1242	800006dc	a1072813	slti	x16,x14,-1520	 x14:0x00000000 x16=0x00000000
       12445000	      1243	800006e0	019b81b3	add	x3,x23,x25	 x23:0x92dbd638 x25:0x00000004  x3=0x92dbd63c
       12455000	      1244	800006e4	0148f7b3	and	x15,x17,x20	 x17:0x00000000 x20:0xfffff96a x15=0x00000000
       12465000	      1245	800006e8	019829b3	slt	x19,x16,x25	 x16:0x00000000 x25:0x00000004 x19=0x00000001
       12475000	      1246	800006ec	b6e6c713	xori	x14,x13,-1170	 x13:0x80009fc4 x14=0x7fff64aa
       12485000	      1247	800006f0	ca6c8c13	addi	x24,x25,-858	 x25:0x00000004 x24=0xfffffcaa
       12495000	      1248	800006f4	01d8c3b3	xor	x7,x17,x29	 x17:0x00000000 x29:0x00000001  x7=0x00000001
       12505000	      1249	800006f8	04d49863	bne	x9,x13,80000748	  x9:0xe2792210 x13:0x80009fc4
       12515000	      1250	00000000	00000013	addi	x0,x0,0	  x0:0x00000000
       12525000	      1251	80000744	00000013	addi	x0,x0,0	  x0:0x00000000
       12535000	      1252	80000748	00000013	addi	x0,x0,0	  x0:0x00000000
       12545000	      1253	8000074c	000a77b3	and	x15,x20,x0	 x20:0xfffff96a  x0:0x00000000 x15=0x00000000
       12555000	      1254	80000750	031bd263	bge	x23,x17,80000774	 x23:0x92dbd638 x17:0x00000000
       12565000	      1255	80000754	01716863	bltu	x2,x23,80000764	  x2:0x00000277 x23:0x92dbd638
       12575000	      1256	00000000	00000013	addi	x0,x0,0	  x0:0x00000000
       12585000	      1257	80000760	00000013	addi	x0,x0,0	  x0:0x00000000
       12595000	      1258	80000764	01d5ca63	blt	x11,x29,80000778	 x11:0x00000000 x29:0x00000001
       12605000	      1259	00000000	00000013	addi	x0,x0,0	  x0:0x00000000
       12615000	      1260	80000774	00000013	addi	x0,x0,0	  x0:0x00000000
       12625000	      1261	80000778	51ffb113	sltiu	x2,x31,1311	 x31:0x80009f04  x2=0x00000000
       12635000	      1262	8000077c	02401a63	bne	x0,x4,800007b0	  x0:0x00000000  x4:0x00000000
       12645000	      1263	80000780	01c138b3	sltu	x17,x2,x28	  x2:0x00000000 x28:0xfffffbdb x17=0x00000001
       12655000	      1264	80000784	017f3533	sltu	x10,x30,x23	 x30:0x00000000 x23:0x92dbd638 x10=0x00000001
       12665000	      1265	80000788	41bb5833	sra	x16,x22,x27	 x22:0x00000002 x27:0xffffffec x16=0x00000000
       12675000	      1266	8000078c	02ae9463	bne	x29,x10,800007b4	 x29:0x00000001 x10:0x00000001
       12685000	      1267	80000790	01b1a9b3	slt	x19,x3,x27	  x3:0x92dbd63c x27:0xffffffec x19=0x00000001
       12695000	      1268	80000794	40585e33	sra	x28,x16,x5	 x16:0x00000000  x5:0x00000000 x28=0x00000000
       12705000	      1269	80000798	001fc263	blt	x31,x1,8000079c	 x31:0x80009f04  x1:0xfffffe6d
       12715000	      1270	00000000	00000013	addi	x0,x0,0	  x0:0x00000000
       12725000	      1271	80000798	00000013	addi	x0,x0,0	  x0:0x00000000
       12735000	      1272	8000079c	5ae48213	addi	x4,x9,1454	  x9:0xe2792210  x4=0xe27927be
       12745000	      1273	800007a0	03a2f263	bgeu	x5,x26,800007c4	  x5:0x00000000 x26:0x00000000
       12755000	      1274	00000000	00000013	addi	x0,x0,0	  x0:0x00000000
       12765000	      1275	800007c0	00000013	addi	x0,x0,0	  x0:0x00000000
       12775000	      1276	800007c4	01d4fe33	and	x28,x9,x29	  x9:0xe2792210 x29:0x00000001 x28=0x00000000
       12785000	      1277	800007c8	029d0663	beq	x26,x9,800007f4	 x26:0x00000000  x9:0xe2792210
       12795000	      1278	800007cc	01b433b3	sltu	x7,x8,x27	  x8:0x80009f04 x27:0xffffffec  x7=0x00000001
       12805000	      1279	800007d0	03bcd263	bge	x25,x27,800007f4	 x25:0x00000004 x27:0xffffffec
       12815000	      1280	00000000	00000013	addi	x0,x0,0	  x0:0x00000000
       12825000	      1281	800007f0	00000013	addi	x0,x0,0	  x0:0x00000000
       12835000	      1282	800007f4	00000013	addi	x0,x0,0	  x0:0x00000000
       12845000	      1283	800007f8	2b762193	slti	x3,x12,695	 x12:0x0000000f  x3=0x00000001
       12855000	      1284	800007fc	416a8e33	sub	x28,x21,x22	 x21:0x00000000 x22:0x00000002 x28=0xfffffffe
       12865000	      1285	80000800	013950b3	srl	x1,x18,x19	 x18:0x00080001 x19:0x00000001  x1=0x00040000
       12875000	      1286	80000804	004faa03	lw	x20,4(x31)	 x31:0x80009f04 x20=0x80002e84 PA:0x80009f08
       12885000	      1287	00000000	00000013	addi	x0,x0,0	  x0:0x00000000
       12895000	      1288	80000808	034f8f93	addi	x31,x31,52	 x31:0x80009f04 x31=0x80009f38
       12905000	      1289	8000080c	001adf13	srli	x30,x21,0x1	 x21:0x00000000 x30=0x00000000
       12915000	      1290	80000810	313c4813	xori	x16,x24,787	 x24:0xfffffcaa x16=0xffffffb9
       12925000	      1291	80000814	017c6733	or	x14,x24,x23	 x24:0xfffffcaa x23:0x92dbd638 x14=0xfffffeba
       12935000	      1292	80000818	001a0293	addi	x5,x20,1	 x20:0x80002e84  x5=0x80002e85
       12945000	      1293	8000081c	000282e7	jalr	x5,x5,0	  x5:0x80002e85  x5=0x8000081c
       12955000	      1294	00000000	00000013	addi	x0,x0,0	  x0:0x00000000
       12965000	      1295	80002e84	00000013	addi	x0,x0,0	  x0:0x00000000
       12975000	      1296	80002e88	414d00b3	sub	x1,x26,x20	 x26:0x00000000 x20:0x80002e84  x1=0x7fffd17c
       12985000	      1297	80002e8c	019882b3	add	x5,x17,x25	 x17:0x00000001 x25:0x00000004  x5=0x00000005
       12995000	      1298	80002e90	40ed5193	srai	x3,x26,0xe	 x26:0x00000000  x3=0x00000000
       13005000	      1299	80002e94	00632eb3	slt	x29,x6,x6	  x6:0x00000000  x6:0x00000000 x29=0x00000000
       13015000	      1300	80002e98	46ea95b7	lui	x11,0x46ea9	 x11=0x46ea9000
       13025000	      1301	80002e9c	615d8b13	addi	x22,x27,1557	 x27:0xffffffec x22=0x00000601
       13035000	      1302	80002ea0	40745433	sra	x8,x8,x7	  x8:0x80009f04  x7:0x00000001  x8=0xc0004f82
       13045000	      1303	80002ea4	0391f263	bgeu	x3,x25,80002ec8	  x3:0x00000000 x25:0x00000004
       13055000	      1304	80002ea8	00bddc63	bge	x27,x11,80002ec0	 x27:0xffffffec x11:0x46ea9000
       13065000	      1305	80002eac	028b4263	blt	x22,x8,80002ed0	 x22:0x00000601  x8:0xc0004f82
       13075000	      1306	80002eb0	034c5063	bge	x24,x20,80002ed0	 x24:0xfffffcaa x20:0x80002e84
       13085000	      1307	00000000	00000013	addi	x0,x0,0	  x0:0x00000000
       13095000	      1308	80002ecc	00000013	addi	x0,x0,0	  x0:0x00000000
       13105000	      1309	80002ed0	bf53bb13	sltiu	x22,x7,-1035	  x7:0x00000001 x22=0x00000001
       13115000	      1310	80002ed4	c3610a93	addi	x21,x2,-970	  x2:0x00000000 x21=0xfffffc36
       13125000	      1311	80002ed8	004faa03	lw	x20,4(x31)	 x31:0x80009f38 x20=0x8000098c PA:0x80009f3c
       13135000	      1312	80002edc	00c6b333	sltu	x6,x13,x12	 x13:0x80009fc4 x12:0x0000000f  x6=0x00000000
       13145000	      1313	80002ee0	41edddb3	sra	x27,x27,x30	 x27:0xffffffec x30:0x00000000 x27=0xffffffec
       13155000	      1314	80002ee4	41f251b3	sra	x3,x4,x31	  x4:0xe27927be x31:0x80009f38  x3=0xffffffe2
       13165000	      1315	80002ee8	413e8133	sub	x2,x29,x19	 x29:0x00000000 x19:0x00000001  x2=0xffffffff
       13175000	      1316	80002eec	017ff633	and	x12,x31,x23	 x31:0x80009f38 x23:0x92dbd638 x12=0x80009638
       13185000	      1317	80002ef0	038f8f93	addi	x31,x31,56	 x31:0x80009f38 x31=0x80009f70
       13195000	      1318	80002ef4	004d9eb3	sll	x29,x27,x4	 x27:0xffffffec  x4:0xe27927be x29=0x00000000
       13205000	      1319	80002ef8	001250b3	srl	x1,x4,x1	  x4:0xe27927be  x1:0x7fffd17c  x1=0x0000000e
       13215000	      1320	80002efc	01dd6033	or	x0,x26,x29	 x26:0x00000000 x29:0x00000000
       13225000	      1321	80002f00	65fb7513	andi	x10,x22,1631	 x22:0x00000001 x10=0x00000001
       13235000	      1322	80002f04	001a0213	addi	x4,x20,1	 x20:0x8000098c  x4=0x8000098d
       13245000	      1323	80002f08	00020267	jalr	x4,x4,0	  x4:0x8000098d  x4=0x80002f08
       13255000	      1324	00000000	00000013	addi	x0,x0,0	  x0:0x00000000
       13265000	      1325	8000098c	00000013	addi	x0,x0,0	  x0:0x00000000
       13275000	      1326	80000990	00700e93	addi	x29,x0,7	  x0:0x00000000 x29=0x00000007
       13285000	      1327	80000994	40375433	sra	x8,x14,x3	 x14:0xfffffeba  x3:0xffffffe2  x8=0xffffffae
       13295000	      1328	80000998	ff700213	addi	x4,x0,-9	  x0:0x00000000  x4=0xfffffff7
       13305000	      1329	8000099c	646b0b93	addi	x23,x22,1606	 x22:0x00000001 x23=0x00000647
       13315000	      1330	800009a0	00aabc33	sltu	x24,x21,x10	 x21:0xfffffc36 x10:0x00000001 x24=0x00000000
       13325000	      1331	800009a4	122c6713	ori	x14,x24,290	 x24:0x00000000 x14=0x00000122
       13335000	      1332	800009a8	ff8e8e93	addi	x29,x29,-8	 x29:0x00000007 x29=0xffffffff
       13345000	      1333	800009ac	007c5413	srli	x8,x24,0x7	 x24:0x00000000  x8=0x00000000
       13355000	      1334	800009b0	407cd593	srai	x11,x25,0x7	 x25:0x00000004 x11=0x00000000
       13365000	      1335	800009b4	403ad833	sra	x16,x21,x3	 x21:0xfffffc36  x3:0xffffffe2 x16=0xffffff0d
       13375000	      1336	800009b8	fe4e82e3	beq	x29,x4,8000099c	 x29:0xffffffff  x4:0xfffffff7
       13385000	      1337	800009bc	4173d993	srai	x19,x7,0x17	  x7:0x00000001 x19=0x00000000
       13395000	      1338	800009c0	fff00793	addi	x15,x0,-1	  x0:0x00000000 x15=0xffffffff
       13405000	      1339	800009c4	ff800413	addi	x8,x0,-8	  x0:0x00000000  x8=0xfffffff8
       13415000	      1340	800009c8	019fdb93	srli	x23,x31,0x19	 x31:0x80009f70 x23=0x00000040
       13425000	      1341	800009cc	019fbbb3	sltu	x23,x31,x25	 x31:0x80009f70 x25:0x00000004 x23=0x00000000
       13435000	      1342	800009d0	ffc78793	addi	x15,x15,-4	 x15:0xffffffff x15=0xfffffffb
       13445000	      1343	800009d4	ff900593	addi	x11,x0,-7	  x0:0x00000000 x11=0xfffffff9
       13455000	      1344	800009d8	00800613	addi	x12,x0,8	  x0:0x00000000 x12=0x00000008
       13465000	      1345	800009dc	00000013	addi	x0,x0,0	  x0:0x00000000
       13475000	      1346	800009e0	01f3db33	srl	x22,x7,x31	  x7:0x00000001 x31:0x80009f70 x22=0x00000000
       13485000	      1347	800009e4	0170e0b3	or	x1,x1,x23	  x1:0x0000000e x23:0x00000000  x1=0x0000000e
       13495000	      1348	800009e8	46fbbc13	sltiu	x24,x23,1135	 x23:0x00000000 x24=0x00000001
       13505000	      1349	800009ec	01903bb3	sltu	x23,x0,x25	  x0:0x00000000 x25:0x00000004 x23=0x00000001
       13515000	      1350	800009f0	00358593	addi	x11,x11,3	 x11:0xfffffff9 x11=0xfffffffc
       13525000	      1351	800009f4	00522733	slt	x14,x4,x5	  x4:0xfffffff7  x5:0x00000005 x14=0x00000001
       13535000	      1352	800009f8	fec598e3	bne	x11,x12,800009e8	 x11:0xfffffffc x12:0x00000008
       13545000	      1353	00000000	00000013	addi	x0,x0,0	  x0:0x00000000
       13555000	      1354	800009e4	00000013	addi	x0,x0,0	  x0:0x00000000
       13565000	      1355	800009e8	46fbbc13	sltiu	x24,x23,1135	 x23:0x00000001 x24=0x00000001
       13575000	      1356	800009ec	01903bb3	sltu	x23,x0,x25	  x0:0x00000000 x25:0x00000004 x23=0x00000001
       13585000	      1357	800009f0	00358593	addi	x11,x11,3	 x11:0xfffffffc x11=0xffffffff
       13595000	      1358	800009f4	00522733	slt	x14,x4,x5	  x4:0xfffffff7  x5:0x00000005 x14=0x00000001
       13605000	      1359	800009f8	fec598e3	bne	x11,x12,800009e8	 x11:0xffffffff x12:0x00000008
       13615000	      1360	00000000	00000013	addi	x0,x0,0	  x0:0x00000000
       13625000	      1361	800009e4	00000013	addi	x0,x0,0	  x0:0x00000000
       13635000	      1362	800009e8	46fbbc13	sltiu	x24,x23,1135	 x23:0x00000001 x24=0x00000001
       13645000	      1363	800009ec	01903bb3	sltu	x23,x0,x25	  x0:0x00000000 x25:0x00000004 x23=0x00000001
       13655000	      1364	800009f0	00358593	addi	x11,x11,3	 x11:0xffffffff x11=0x00000002
       13665000	      1365	800009f4	00522733	slt	x14,x4,x5	  x4:0xfffffff7  x5:0x00000005 x14=0x00000001
       13675000	      1366	800009f8	fec598e3	bne	x11,x12,800009e8	 x11:0x00000002 x12:0x00000008
       13685000	      1367	00000000	00000013	addi	x0,x0,0	  x0:0x00000000
       13695000	      1368	800009e4	00000013	addi	x0,x0,0	  x0:0x00000000
       13705000	      1369	800009e8	46fbbc13	sltiu	x24,x23,1135	 x23:0x00000001 x24=0x00000001
       13715000	      1370	800009ec	01903bb3	sltu	x23,x0,x25	  x0:0x00000000 x25:0x00000004 x23=0x00000001
       13725000	      1371	800009f0	00358593	addi	x11,x11,3	 x11:0x00000002 x11=0x00000005
       13735000	      1372	800009f4	00522733	slt	x14,x4,x5	  x4:0xfffffff7  x5:0x00000005 x14=0x00000001
       13745000	      1373	800009f8	fec598e3	bne	x11,x12,800009e8	 x11:0x00000005 x12:0x00000008
       13755000	      1374	00000000	00000013	addi	x0,x0,0	  x0:0x00000000
       13765000	      1375	800009e4	00000013	addi	x0,x0,0	  x0:0x00000000
       13775000	      1376	800009e8	46fbbc13	sltiu	x24,x23,1135	 x23:0x00000001 x24=0x00000001
       13785000	      1377	800009ec	01903bb3	sltu	x23,x0,x25	  x0:0x00000000 x25:0x00000004 x23=0x00000001
       13795000	      1378	800009f0	00358593	addi	x11,x11,3	 x11:0x00000005 x11=0x00000008
       13805000	      1379	800009f4	00522733	slt	x14,x4,x5	  x4:0xfffffff7  x5:0x00000005 x14=0x00000001
       13815000	      1380	800009f8	fec598e3	bne	x11,x12,800009e8	 x11:0x00000008 x12:0x00000008
       13825000	      1381	800009fc	012c9933	sll	x18,x25,x18	 x25:0x00000004 x18:0x00080001 x18=0x00000008
       13835000	      1382	80000a00	64583213	sltiu	x4,x16,1605	 x16:0xffffff0d  x4=0x00000000
       13845000	      1383	80000a04	fc87d4e3	bge	x15,x8,800009cc	 x15:0xfffffffb  x8:0xfffffff8
       13855000	      1384	00000000	00000013	addi	x0,x0,0	  x0:0x00000000
       13865000	      1385	800009c8	00000013	addi	x0,x0,0	  x0:0x00000000
       13875000	      1386	800009cc	019fbbb3	sltu	x23,x31,x25	 x31:0x80009f70 x25:0x00000004 x23=0x00000000
       13885000	      1387	800009d0	ffc78793	addi	x15,x15,-4	 x15:0xfffffffb x15=0xfffffff7
       13895000	      1388	800009d4	ff900593	addi	x11,x0,-7	  x0:0x00000000 x11=0xfffffff9
       13905000	      1389	800009d8	00800613	addi	x12,x0,8	  x0:0x00000000 x12=0x00000008
       13915000	      1390	800009dc	00000013	addi	x0,x0,0	  x0:0x00000000
       13925000	      1391	800009e0	01f3db33	srl	x22,x7,x31	  x7:0x00000001 x31:0x80009f70 x22=0x00000000
       13935000	      1392	800009e4	0170e0b3	or	x1,x1,x23	  x1:0x0000000e x23:0x00000000  x1=0x0000000e
       13945000	      1393	800009e8	46fbbc13	sltiu	x24,x23,1135	 x23:0x00000000 x24=0x00000001
       13955000	      1394	800009ec	01903bb3	sltu	x23,x0,x25	  x0:0x00000000 x25:0x00000004 x23=0x00000001
       13965000	      1395	800009f0	00358593	addi	x11,x11,3	 x11:0xfffffff9 x11=0xfffffffc
       13975000	      1396	800009f4	00522733	slt	x14,x4,x5	  x4:0x00000000  x5:0x00000005 x14=0x00000001
       13985000	      1397	800009f8	fec598e3	bne	x11,x12,800009e8	 x11:0xfffffffc x12:0x00000008
       13995000	      1398	00000000	00000013	addi	x0,x0,0	  x0:0x00000000
       14005000	      1399	800009e4	00000013	addi	x0,x0,0	  x0:0x00000000
       14015000	      1400	800009e8	46fbbc13	sltiu	x24,x23,1135	 x23:0x00000001 x24=0x00000001
       14025000	      1401	800009ec	01903bb3	sltu	x23,x0,x25	  x0:0x00000000 x25:0x00000004 x23=0x00000001
       14035000	      1402	800009f0	00358593	addi	x11,x11,3	 x11:0xfffffffc x11=0xffffffff
       14045000	      1403	800009f4	00522733	slt	x14,x4,x5	  x4:0x00000000  x5:0x00000005 x14=0x00000001
       14055000	      1404	800009f8	fec598e3	bne	x11,x12,800009e8	 x11:0xffffffff x12:0x00000008
       14065000	      1405	00000000	00000013	addi	x0,x0,0	  x0:0x00000000
       14075000	      1406	800009e4	00000013	addi	x0,x0,0	  x0:0x00000000
       14085000	      1407	800009e8	46fbbc13	sltiu	x24,x23,1135	 x23:0x00000001 x24=0x00000001
       14095000	      1408	800009ec	01903bb3	sltu	x23,x0,x25	  x0:0x00000000 x25:0x00000004 x23=0x00000001
       14105000	      1409	800009f0	00358593	addi	x11,x11,3	 x11:0xffffffff x11=0x00000002
       14115000	      1410	800009f4	00522733	slt	x14,x4,x5	  x4:0x00000000  x5:0x00000005 x14=0x00000001
       14125000	      1411	800009f8	fec598e3	bne	x11,x12,800009e8	 x11:0x00000002 x12:0x00000008
       14135000	      1412	00000000	00000013	addi	x0,x0,0	  x0:0x00000000
       14145000	      1413	800009e4	00000013	addi	x0,x0,0	  x0:0x00000000
       14155000	      1414	800009e8	46fbbc13	sltiu	x24,x23,1135	 x23:0x00000001 x24=0x00000001
       14165000	      1415	800009ec	01903bb3	sltu	x23,x0,x25	  x0:0x00000000 x25:0x00000004 x23=0x00000001
       14175000	      1416	800009f0	00358593	addi	x11,x11,3	 x11:0x00000002 x11=0x00000005
       14185000	      1417	800009f4	00522733	slt	x14,x4,x5	  x4:0x00000000  x5:0x00000005 x14=0x00000001
       14195000	      1418	800009f8	fec598e3	bne	x11,x12,800009e8	 x11:0x00000005 x12:0x00000008
       14205000	      1419	00000000	00000013	addi	x0,x0,0	  x0:0x00000000
       14215000	      1420	800009e4	00000013	addi	x0,x0,0	  x0:0x00000000
       14225000	      1421	800009e8	46fbbc13	sltiu	x24,x23,1135	 x23:0x00000001 x24=0x00000001
       14235000	      1422	800009ec	01903bb3	sltu	x23,x0,x25	  x0:0x00000000 x25:0x00000004 x23=0x00000001
       14245000	      1423	800009f0	00358593	addi	x11,x11,3	 x11:0x00000005 x11=0x00000008
       14255000	      1424	800009f4	00522733	slt	x14,x4,x5	  x4:0x00000000  x5:0x00000005 x14=0x00000001
       14265000	      1425	800009f8	fec598e3	bne	x11,x12,800009e8	 x11:0x00000008 x12:0x00000008
       14275000	      1426	800009fc	012c9933	sll	x18,x25,x18	 x25:0x00000004 x18:0x00000008 x18=0x00000400
       14285000	      1427	80000a00	64583213	sltiu	x4,x16,1605	 x16:0xffffff0d  x4=0x00000000
       14295000	      1428	80000a04	fc87d4e3	bge	x15,x8,800009cc	 x15:0xfffffff7  x8:0xfffffff8
       14305000	      1429	80000a08	00df5133	srl	x2,x30,x13	 x30:0x00000000 x13:0x80009fc4  x2=0x00000000
       14315000	      1430	80000a0c	ffd00e93	addi	x29,x0,-3	  x0:0x00000000 x29=0xfffffffd
       14325000	      1431	80000a10	01920f33	add	x30,x4,x25	  x4:0x00000000 x25:0x00000004 x30=0x00000004
       14335000	      1432	80000a14	00108db3	add	x27,x1,x1	  x1:0x0000000e  x1:0x0000000e x27=0x0000001c
       14345000	      1433	80000a18	4193d433	sra	x8,x7,x25	  x7:0x00000001 x25:0x00000004  x8=0x00000000
       14355000	      1434	80000a1c	fed00893	addi	x17,x0,-19	  x0:0x00000000 x17=0xffffffed
       14365000	      1435	80000a20	34fb4013	xori	x0,x22,847	 x22:0x00000000
       14375000	      1436	80000a24	60f7f813	andi	x16,x15,1551	 x15:0xfffffff7 x16=0x00000607
       14385000	      1437	80000a28	00000013	addi	x0,x0,0	  x0:0x00000000
       14395000	      1438	80000a2c	373dc213	xori	x4,x27,883	 x27:0x0000001c  x4=0x0000036f
       14405000	      1439	80000a30	ffee8e93	addi	x29,x29,-2	 x29:0xfffffffd x29=0xfffffffb
       14415000	      1440	80000a34	00e569b3	or	x19,x10,x14	 x10:0x00000001 x14:0x00000001 x19=0x00000001
       14425000	      1441	80000a38	42cbf613	andi	x12,x23,1068	 x23:0x00000001 x12=0x00000000
       14435000	      1442	80000a3c	01c9f433	and	x8,x19,x28	 x19:0x00000001 x28:0xfffffffe  x8=0x00000000
       14445000	      1443	80000a40	4074d593	srai	x11,x9,0x7	  x9:0xe2792210 x11=0xffc4f244
       14455000	      1444	80000a44	ff1e84e3	beq	x29,x17,80000a2c	 x29:0xfffffffb x17:0xffffffed
       14465000	      1445	80000a48	403b5913	srai	x18,x22,0x3	 x22:0x00000000 x18=0x00000000
       14475000	      1446	80000a4c	00000e13	addi	x28,x0,0	  x0:0x00000000 x28=0x00000000
       14485000	      1447	80000a50	ea20d117	auipc	x2,0xea20d	  x2=0x6a20da4c
       14495000	      1448	80000a54	416d5013	srai	x0,x26,0x16	 x26:0x00000000
       14505000	      1449	80000a58	00f53d33	sltu	x26,x10,x15	 x10:0x00000001 x15:0xfffffff7 x26=0x00000001
       14515000	      1450	80000a5c	0154dc93	srli	x25,x9,0x15	  x9:0xe2792210 x25=0x00000713
       14525000	      1451	80000a60	e0c08b13	addi	x22,x1,-500	  x1:0x0000000e x22=0xfffffe1a
       14535000	      1452	80000a64	abbfb893	sltiu	x17,x31,-1349	 x31:0x80009f70 x17=0x00000001
       14545000	      1453	80000a68	004850b3	srl	x1,x16,x4	 x16:0x00000607  x4:0x0000036f  x1=0x00000000
       14555000	      1454	80000a6c	01000393	addi	x7,x0,16	  x0:0x00000000  x7=0x00000010
       14565000	      1455	80000a70	1a09a317	auipc	x6,0x1a09a	  x6=0x9a09aa6c
       14575000	      1456	80000a74	00000013	addi	x0,x0,0	  x0:0x00000000
       14585000	      1457	80000a78	003e0e13	addi	x28,x28,3	 x28:0x00000000 x28=0x00000003
       14595000	      1458	80000a7c	01e09893	slli	x17,x1,0x1e	  x1:0x00000000 x17=0x00000000
       14605000	      1459	80000a80	5dbb6d13	ori	x26,x22,1499	 x22:0xfffffe1a x26=0xffffffdb
       14615000	      1460	80000a84	2512f9b7	lui	x19,0x2512f	 x19=0x2512f000
       14625000	      1461	80000a88	009b7b33	and	x22,x22,x9	 x22:0xfffffe1a  x9:0xe2792210 x22=0xe2792210
       14635000	      1462	80000a8c	fe7e42e3	blt	x28,x7,80000a70	 x28:0x00000003  x7:0x00000010
       14645000	      1463	00000000	00000013	addi	x0,x0,0	  x0:0x00000000
       14655000	      1464	80000a6c	00000013	addi	x0,x0,0	  x0:0x00000000
       14665000	      1465	80000a70	1a09a317	auipc	x6,0x1a09a	  x6=0x9a09aa6c
       14675000	      1466	80000a74	00000013	addi	x0,x0,0	  x0:0x00000000
       14685000	      1467	80000a78	003e0e13	addi	x28,x28,3	 x28:0x00000003 x28=0x00000006
       14695000	      1468	80000a7c	01e09893	slli	x17,x1,0x1e	  x1:0x00000000 x17=0x00000000
       14705000	      1469	80000a80	5dbb6d13	ori	x26,x22,1499	 x22:0xe2792210 x26=0xe27927db
       14715000	      1470	80000a84	2512f9b7	lui	x19,0x2512f	 x19=0x2512f000
       14725000	      1471	80000a88	009b7b33	and	x22,x22,x9	 x22:0xe2792210  x9:0xe2792210 x22=0xe2792210
       14735000	      1472	80000a8c	fe7e42e3	blt	x28,x7,80000a70	 x28:0x00000006  x7:0x00000010
       14745000	      1473	00000000	00000013	addi	x0,x0,0	  x0:0x00000000
       14755000	      1474	80000a6c	00000013	addi	x0,x0,0	  x0:0x00000000
       14765000	      1475	80000a70	1a09a317	auipc	x6,0x1a09a	  x6=0x9a09aa6c
       14775000	      1476	80000a74	00000013	addi	x0,x0,0	  x0:0x00000000
       14785000	      1477	80000a78	003e0e13	addi	x28,x28,3	 x28:0x00000006 x28=0x00000009
       14795000	      1478	80000a7c	01e09893	slli	x17,x1,0x1e	  x1:0x00000000 x17=0x00000000
       14805000	      1479	80000a80	5dbb6d13	ori	x26,x22,1499	 x22:0xe2792210 x26=0xe27927db
       14815000	      1480	80000a84	2512f9b7	lui	x19,0x2512f	 x19=0x2512f000
       14825000	      1481	80000a88	009b7b33	and	x22,x22,x9	 x22:0xe2792210  x9:0xe2792210 x22=0xe2792210
       14835000	      1482	80000a8c	fe7e42e3	blt	x28,x7,80000a70	 x28:0x00000009  x7:0x00000010
       14845000	      1483	00000000	00000013	addi	x0,x0,0	  x0:0x00000000
       14855000	      1484	80000a6c	00000013	addi	x0,x0,0	  x0:0x00000000
       14865000	      1485	80000a70	1a09a317	auipc	x6,0x1a09a	  x6=0x9a09aa6c
       14875000	      1486	80000a74	00000013	addi	x0,x0,0	  x0:0x00000000
       14885000	      1487	80000a78	003e0e13	addi	x28,x28,3	 x28:0x00000009 x28=0x0000000c
       14895000	      1488	80000a7c	01e09893	slli	x17,x1,0x1e	  x1:0x00000000 x17=0x00000000
       14905000	      1489	80000a80	5dbb6d13	ori	x26,x22,1499	 x22:0xe2792210 x26=0xe27927db
       14915000	      1490	80000a84	2512f9b7	lui	x19,0x2512f	 x19=0x2512f000
       14925000	      1491	80000a88	009b7b33	and	x22,x22,x9	 x22:0xe2792210  x9:0xe2792210 x22=0xe2792210
       14935000	      1492	80000a8c	fe7e42e3	blt	x28,x7,80000a70	 x28:0x0000000c  x7:0x00000010
       14945000	      1493	00000000	00000013	addi	x0,x0,0	  x0:0x00000000
       14955000	      1494	80000a6c	00000013	addi	x0,x0,0	  x0:0x00000000
       14965000	      1495	80000a70	1a09a317	auipc	x6,0x1a09a	  x6=0x9a09aa6c
       14975000	      1496	80000a74	00000013	addi	x0,x0,0	  x0:0x00000000
       14985000	      1497	80000a78	003e0e13	addi	x28,x28,3	 x28:0x0000000c x28=0x0000000f
       14995000	      1498	80000a7c	01e09893	slli	x17,x1,0x1e	  x1:0x00000000 x17=0x00000000
       15005000	      1499	80000a80	5dbb6d13	ori	x26,x22,1499	 x22:0xe2792210 x26=0xe27927db
       15015000	      1500	80000a84	2512f9b7	lui	x19,0x2512f	 x19=0x2512f000
       15025000	      1501	80000a88	009b7b33	and	x22,x22,x9	 x22:0xe2792210  x9:0xe2792210 x22=0xe2792210
       15035000	      1502	80000a8c	fe7e42e3	blt	x28,x7,80000a70	 x28:0x0000000f  x7:0x00000010
       15045000	      1503	00000000	00000013	addi	x0,x0,0	  x0:0x00000000
       15055000	      1504	80000a6c	00000013	addi	x0,x0,0	  x0:0x00000000
       15065000	      1505	80000a70	1a09a317	auipc	x6,0x1a09a	  x6=0x9a09aa6c
       15075000	      1506	80000a74	00000013	addi	x0,x0,0	  x0:0x00000000
       15085000	      1507	80000a78	003e0e13	addi	x28,x28,3	 x28:0x0000000f x28=0x00000012
       15095000	      1508	80000a7c	01e09893	slli	x17,x1,0x1e	  x1:0x00000000 x17=0x00000000
       15105000	      1509	80000a80	5dbb6d13	ori	x26,x22,1499	 x22:0xe2792210 x26=0xe27927db
       15115000	      1510	80000a84	2512f9b7	lui	x19,0x2512f	 x19=0x2512f000
       15125000	      1511	80000a88	009b7b33	and	x22,x22,x9	 x22:0xe2792210  x9:0xe2792210 x22=0xe2792210
       15135000	      1512	80000a8c	fe7e42e3	blt	x28,x7,80000a70	 x28:0x00000012  x7:0x00000010
       15145000	      1513	80000a90	b3480313	addi	x6,x16,-1228	 x16:0x00000607  x6=0x0000013b
       15155000	      1514	80000a94	ffc00393	addi	x7,x0,-4	  x0:0x00000000  x7=0xfffffffc
       15165000	      1515	80000a98	01000c13	addi	x24,x0,16	  x0:0x00000000 x24=0x00000010
       15175000	      1516	80000a9c	408d0033	sub	x0,x26,x8	 x26:0xe27927db  x8:0x00000000
       15185000	      1517	80000aa0	47695b97	auipc	x23,0x47695	 x23=0xc7695a9c
       15195000	      1518	80000aa4	2e18b213	sltiu	x4,x17,737	 x17:0x00000000  x4=0x00000001
       15205000	      1519	80000aa8	00138393	addi	x7,x7,1	  x7:0xfffffffc  x7=0xfffffffd
       15215000	      1520	80000aac	008cc533	xor	x10,x25,x8	 x25:0x00000713  x8:0x00000000 x10=0x00000713
       15225000	      1521	80000ab0	ff83e8e3	bltu	x7,x24,80000aa0	  x7:0xfffffffd x24:0x00000010
       15235000	      1522	80000ab4	b5483013	sltiu	x0,x16,-1196	 x16:0x00000607
       15245000	      1523	80000ab8	ff800b93	addi	x23,x0,-8	  x0:0x00000000 x23=0xfffffff8
       15255000	      1524	80000abc	a5fe7117	auipc	x2,0xa5fe7	  x2=0x25fe7ab8
       15265000	      1525	80000ac0	00200a93	addi	x21,x0,2	  x0:0x00000000 x21=0x00000002
       15275000	      1526	80000ac4	004e2eb3	slt	x29,x28,x4	 x28:0x00000012  x4:0x00000001 x29=0x00000000
       15285000	      1527	80000ac8	00db6eb3	or	x29,x22,x13	 x22:0xe2792210 x13:0x80009fc4 x29=0xe279bfd4
       15295000	      1528	80000acc	2a5949b7	lui	x19,0x2a594	 x19=0x2a594000
       15305000	      1529	80000ad0	00ab8b93	addi	x23,x23,10	 x23:0xfffffff8 x23=0x00000002
       15315000	      1530	80000ad4	00000013	addi	x0,x0,0	  x0:0x00000000
       15325000	      1531	80000ad8	ff5bcae3	blt	x23,x21,80000acc	 x23:0x00000002 x21:0x00000002
       15335000	      1532	80000adc	d24b0237	lui	x4,0xd24b0	  x4=0xd24b0000
       15345000	      1533	80000ae0	00800413	addi	x8,x0,8	  x0:0x00000000  x8=0x00000008
       15355000	      1534	80000ae4	004698b3	sll	x17,x13,x4	 x13:0x80009fc4  x4:0xd24b0000 x17=0x80009fc4
       15365000	      1535	80000ae8	00700213	addi	x4,x0,7	  x0:0x00000000  x4=0x00000007
       15375000	      1536	80000aec	00000013	addi	x0,x0,0	  x0:0x00000000
       15385000	      1537	80000af0	415fd033	sra	x0,x31,x21	 x31:0x80009f70 x21:0x00000002
       15395000	      1538	80000af4	881d2513	slti	x10,x26,-1919	 x26:0xe27927db x10=0x00000001
       15405000	      1539	80000af8	01f45c93	srli	x25,x8,0x1f	  x8:0x00000008 x25=0x00000000
       15415000	      1540	80000afc	00dce133	or	x2,x25,x13	 x25:0x00000000 x13:0x80009fc4  x2=0x80009fc4
       15425000	      1541	80000b00	dc508513	addi	x10,x1,-571	  x1:0x00000000 x10=0xfffffdc5
       15435000	      1542	80000b04	00ad67b3	or	x15,x26,x10	 x26:0xe27927db x10:0xfffffdc5 x15=0xffffffdf
       15445000	      1543	80000b08	208a7c93	andi	x25,x20,520	 x20:0x8000098c x25=0x00000008
       15455000	      1544	80000b0c	00b073b3	and	x7,x0,x11	  x0:0x00000000 x11:0xffc4f244  x7=0x00000000
       15465000	      1545	80000b10	61014513	xori	x10,x2,1552	  x2:0x80009fc4 x10=0x800099d4
       15475000	      1546	80000b14	003bd7b3	srl	x15,x23,x3	 x23:0x00000002  x3:0xffffffe2 x15=0x00000000
       15485000	      1547	80000b18	ffb40413	addi	x8,x8,-5	  x8:0x00000008  x8=0x00000003
       15495000	      1548	80000b1c	00b0d133	srl	x2,x1,x11	  x1:0x00000000 x11:0xffc4f244  x2=0x00000000
       15505000	      1549	80000b20	00900813	addi	x16,x0,9	  x0:0x00000000 x16=0x00000009
       15515000	      1550	80000b24	4167df13	srai	x30,x15,0x16	 x15:0x00000000 x30=0x00000000
       15525000	      1551	80000b28	ffd00313	addi	x6,x0,-3	  x0:0x00000000  x6=0xfffffffd
       15535000	      1552	80000b2c	00ebb533	sltu	x10,x23,x14	 x23:0x00000002 x14:0x00000001 x10=0x00000000
       15545000	      1553	80000b30	0707eb93	ori	x23,x15,112	 x15:0x00000000 x23=0x00000070
       15555000	      1554	80000b34	ffc80813	addi	x16,x16,-4	 x16:0x00000009 x16=0x00000005
       15565000	      1555	80000b38	e6514913	xori	x18,x2,-411	  x2:0x00000000 x18=0xfffffe65
       15575000	      1556	80000b3c	4054d533	sra	x10,x9,x5	  x9:0xe2792210  x5:0x00000005 x10=0xff13c910
       15585000	      1557	80000b40	00ca9713	slli	x14,x21,0xc	 x21:0x00000002 x14=0x00002000
       15595000	      1558	80000b44	1df4fb93	andi	x23,x9,479	  x9:0xe2792210 x23=0x00000010
       15605000	      1559	80000b48	fe6814e3	bne	x16,x6,80000b30	 x16:0x00000005  x6:0xfffffffd
       15615000	      1560	00000000	00000013	addi	x0,x0,0	  x0:0x00000000
       15625000	      1561	80000b2c	00000013	addi	x0,x0,0	  x0:0x00000000
       15635000	      1562	80000b30	0707eb93	ori	x23,x15,112	 x15:0x00000000 x23=0x00000070
       15645000	      1563	80000b34	ffc80813	addi	x16,x16,-4	 x16:0x00000005 x16=0x00000001
       15655000	      1564	80000b38	e6514913	xori	x18,x2,-411	  x2:0x00000000 x18=0xfffffe65
       15665000	      1565	80000b3c	4054d533	sra	x10,x9,x5	  x9:0xe2792210  x5:0x00000005 x10=0xff13c910
       15675000	      1566	80000b40	00ca9713	slli	x14,x21,0xc	 x21:0x00000002 x14=0x00002000
       15685000	      1567	80000b44	1df4fb93	andi	x23,x9,479	  x9:0xe2792210 x23=0x00000010
       15695000	      1568	80000b48	fe6814e3	bne	x16,x6,80000b30	 x16:0x00000001  x6:0xfffffffd
       15705000	      1569	00000000	00000013	addi	x0,x0,0	  x0:0x00000000
       15715000	      1570	80000b2c	00000013	addi	x0,x0,0	  x0:0x00000000
       15725000	      1571	80000b30	0707eb93	ori	x23,x15,112	 x15:0x00000000 x23=0x00000070
       15735000	      1572	80000b34	ffc80813	addi	x16,x16,-4	 x16:0x00000001 x16=0xfffffffd
       15745000	      1573	80000b38	e6514913	xori	x18,x2,-411	  x2:0x00000000 x18=0xfffffe65
       15755000	      1574	80000b3c	4054d533	sra	x10,x9,x5	  x9:0xe2792210  x5:0x00000005 x10=0xff13c910
       15765000	      1575	80000b40	00ca9713	slli	x14,x21,0xc	 x21:0x00000002 x14=0x00002000
       15775000	      1576	80000b44	1df4fb93	andi	x23,x9,479	  x9:0xe2792210 x23=0x00000010
       15785000	      1577	80000b48	fe6814e3	bne	x16,x6,80000b30	 x16:0xfffffffd  x6:0xfffffffd
       15795000	      1578	80000b4c	01c23cb3	sltu	x25,x4,x28	  x4:0x00000007 x28:0x00000012 x25=0x00000001
       15805000	      1579	80000b50	40595633	sra	x12,x18,x5	 x18:0xfffffe65  x5:0x00000005 x12=0xfffffff3
       15815000	      1580	80000b54	897b2913	slti	x18,x22,-1897	 x22:0xe2792210 x18=0x00000001
       15825000	      1581	80000b58	fa4474e3	bgeu	x8,x4,80000b00	  x8:0x00000003  x4:0x00000007
       15835000	      1582	80000b5c	3796e113	ori	x2,x13,889	 x13:0x80009fc4  x2=0x80009ffd
       15845000	      1583	80000b60	00500713	addi	x14,x0,5	  x0:0x00000000 x14=0x00000005
       15855000	      1584	80000b64	012b1933	sll	x18,x22,x18	 x22:0xe2792210 x18:0x00000001 x18=0xc4f24420
       15865000	      1585	80000b68	b6974037	lui	x0,0xb6974	
       15875000	      1586	80000b6c	008f6c13	ori	x24,x30,8	 x30:0x00000000 x24=0x00000008
       15885000	      1587	80000b70	01b0d793	srli	x15,x1,0x1b	  x1:0x00000000 x15=0x00000000
       15895000	      1588	80000b74	49c69517	auipc	x10,0x49c69	 x10=0xc9c69b70
       15905000	      1589	80000b78	407ad3b3	sra	x7,x21,x7	 x21:0x00000002  x7:0x00000000  x7=0x00000002
       15915000	      1590	80000b7c	01000593	addi	x11,x0,16	  x0:0x00000000 x11=0x00000010
       15925000	      1591	80000b80	9894f393	andi	x7,x9,-1655	  x9:0xe2792210  x7=0xe2792000
       15935000	      1592	80000b84	e2c27c13	andi	x24,x4,-468	  x4:0x00000007 x24=0x00000004
       15945000	      1593	80000b88	00770713	addi	x14,x14,7	 x14:0x00000005 x14=0x0000000c
       15955000	      1594	80000b8c	c1e8a913	slti	x18,x17,-994	 x17:0x80009fc4 x18=0x00000001
       15965000	      1595	80000b90	00600113	addi	x2,x0,6	  x0:0x00000000  x2=0x00000006
       15975000	      1596	80000b94	01cf9833	sll	x16,x31,x28	 x31:0x80009f70 x28:0x00000012 x16=0x7dc00000
       15985000	      1597	80000b98	00c00213	addi	x4,x0,12	  x0:0x00000000  x4=0x0000000c
       15995000	      1598	80000b9c	41698cb3	sub	x25,x19,x22	 x19:0x2a594000 x22:0xe2792210 x25=0x47e01df0
       16005000	      1599	80000ba0	00000013	addi	x0,x0,0	  x0:0x00000000
       16015000	      1600	80000ba4	0074d9b3	srl	x19,x9,x7	  x9:0xe2792210  x7:0xe2792000 x19=0xe2792210
       16025000	      1601	80000ba8	017c3cb3	sltu	x25,x24,x23	 x24:0x00000004 x23:0x00000010 x25=0x00000001
       16035000	      1602	80000bac	007cee33	or	x28,x25,x7	 x25:0x00000001  x7:0xe2792000 x28=0xe2792001
       16045000	      1603	80000bb0	016df533	and	x10,x27,x22	 x27:0x0000001c x22:0xe2792210 x10=0x00000010
       16055000	      1604	80000bb4	a434ae37	lui	x28,0xa434a	 x28=0xa434a000
       16065000	      1605	80000bb8	0075b9b3	sltu	x19,x11,x7	 x11:0x00000010  x7:0xe2792000 x19=0x00000001
       16075000	      1606	80000bbc	00449a93	slli	x21,x9,0x4	  x9:0xe2792210 x21=0x27922100
       16085000	      1607	80000bc0	00310113	addi	x2,x2,3	  x2:0x00000006  x2=0x00000009
       16095000	      1608	80000bc4	7b0ee293	ori	x5,x29,1968	 x29:0xe279bfd4  x5=0xe279bff4
       16105000	      1609	80000bc8	fc411ae3	bne	x2,x4,80000b9c	  x2:0x00000009  x4:0x0000000c
       16115000	      1610	00000000	00000013	addi	x0,x0,0	  x0:0x00000000
       16125000	      1611	80000b98	00000013	addi	x0,x0,0	  x0:0x00000000
       16135000	      1612	80000b9c	41698cb3	sub	x25,x19,x22	 x19:0x00000001 x22:0xe2792210 x25=0x1d86ddf1
       16145000	      1613	80000ba0	00000013	addi	x0,x0,0	  x0:0x00000000
       16155000	      1614	80000ba4	0074d9b3	srl	x19,x9,x7	  x9:0xe2792210  x7:0xe2792000 x19=0xe2792210
       16165000	      1615	80000ba8	017c3cb3	sltu	x25,x24,x23	 x24:0x00000004 x23:0x00000010 x25=0x00000001
       16175000	      1616	80000bac	007cee33	or	x28,x25,x7	 x25:0x00000001  x7:0xe2792000 x28=0xe2792001
       16185000	      1617	80000bb0	016df533	and	x10,x27,x22	 x27:0x0000001c x22:0xe2792210 x10=0x00000010
       16195000	      1618	80000bb4	a434ae37	lui	x28,0xa434a	 x28=0xa434a000
       16205000	      1619	80000bb8	0075b9b3	sltu	x19,x11,x7	 x11:0x00000010  x7:0xe2792000 x19=0x00000001
       16215000	      1620	80000bbc	00449a93	slli	x21,x9,0x4	  x9:0xe2792210 x21=0x27922100
       16225000	      1621	80000bc0	00310113	addi	x2,x2,3	  x2:0x00000009  x2=0x0000000c
       16235000	      1622	80000bc4	7b0ee293	ori	x5,x29,1968	 x29:0xe279bfd4  x5=0xe279bff4
       16245000	      1623	80000bc8	fc411ae3	bne	x2,x4,80000b9c	  x2:0x0000000c  x4:0x0000000c
       16255000	      1624	80000bcc	0124d033	srl	x0,x9,x18	  x9:0xe2792210 x18:0x00000001
       16265000	      1625	80000bd0	01f65db3	srl	x27,x12,x31	 x12:0xfffffff3 x31:0x80009f70 x27=0x0000ffff
       16275000	      1626	80000bd4	007b7933	and	x18,x22,x7	 x22:0xe2792210  x7:0xe2792000 x18=0xe2792000
       16285000	      1627	80000bd8	01f8a033	slt	x0,x17,x31	 x17:0x80009fc4 x31:0x80009f70
       16295000	      1628	80000bdc	0090ce33	xor	x28,x1,x9	  x1:0x00000000  x9:0xe2792210 x28=0xe2792210
       16305000	      1629	80000be0	01f87b33	and	x22,x16,x31	 x16:0x7dc00000 x31:0x80009f70 x22=0x00000000
       16315000	      1630	80000be4	fab760e3	bltu	x14,x11,80000b84	 x14:0x0000000c x11:0x00000010
       16325000	      1631	00000000	00000013	addi	x0,x0,0	  x0:0x00000000
       16335000	      1632	80000b80	00000013	addi	x0,x0,0	  x0:0x00000000
       16345000	      1633	80000b84	e2c27c13	andi	x24,x4,-468	  x4:0x0000000c x24=0x0000000c
       16355000	      1634	80000b88	00770713	addi	x14,x14,7	 x14:0x0000000c x14=0x00000013
       16365000	      1635	80000b8c	c1e8a913	slti	x18,x17,-994	 x17:0x80009fc4 x18=0x00000001
       16375000	      1636	80000b90	00600113	addi	x2,x0,6	  x0:0x00000000  x2=0x00000006
       16385000	      1637	80000b94	01cf9833	sll	x16,x31,x28	 x31:0x80009f70 x28:0xe2792210 x16=0x9f700000
       16395000	      1638	80000b98	00c00213	addi	x4,x0,12	  x0:0x00000000  x4=0x0000000c
       16405000	      1639	80000b9c	41698cb3	sub	x25,x19,x22	 x19:0x00000001 x22:0x00000000 x25=0x00000001
       16415000	      1640	80000ba0	00000013	addi	x0,x0,0	  x0:0x00000000
       16425000	      1641	80000ba4	0074d9b3	srl	x19,x9,x7	  x9:0xe2792210  x7:0xe2792000 x19=0xe2792210
       16435000	      1642	80000ba8	017c3cb3	sltu	x25,x24,x23	 x24:0x0000000c x23:0x00000010 x25=0x00000001
       16445000	      1643	80000bac	007cee33	or	x28,x25,x7	 x25:0x00000001  x7:0xe2792000 x28=0xe2792001
       16455000	      1644	80000bb0	016df533	and	x10,x27,x22	 x27:0x0000ffff x22:0x00000000 x10=0x00000000
       16465000	      1645	80000bb4	a434ae37	lui	x28,0xa434a	 x28=0xa434a000
       16475000	      1646	80000bb8	0075b9b3	sltu	x19,x11,x7	 x11:0x00000010  x7:0xe2792000 x19=0x00000001
       16485000	      1647	80000bbc	00449a93	slli	x21,x9,0x4	  x9:0xe2792210 x21=0x27922100
       16495000	      1648	80000bc0	00310113	addi	x2,x2,3	  x2:0x00000006  x2=0x00000009
       16505000	      1649	80000bc4	7b0ee293	ori	x5,x29,1968	 x29:0xe279bfd4  x5=0xe279bff4
       16515000	      1650	80000bc8	fc411ae3	bne	x2,x4,80000b9c	  x2:0x00000009  x4:0x0000000c
       16525000	      1651	00000000	00000013	addi	x0,x0,0	  x0:0x00000000
       16535000	      1652	80000b98	00000013	addi	x0,x0,0	  x0:0x00000000
       16545000	      1653	80000b9c	41698cb3	sub	x25,x19,x22	 x19:0x00000001 x22:0x00000000 x25=0x00000001
       16555000	      1654	80000ba0	00000013	addi	x0,x0,0	  x0:0x00000000
       16565000	      1655	80000ba4	0074d9b3	srl	x19,x9,x7	  x9:0xe2792210  x7:0xe2792000 x19=0xe2792210
       16575000	      1656	80000ba8	017c3cb3	sltu	x25,x24,x23	 x24:0x0000000c x23:0x00000010 x25=0x00000001
       16585000	      1657	80000bac	007cee33	or	x28,x25,x7	 x25:0x00000001  x7:0xe2792000 x28=0xe2792001
       16595000	      1658	80000bb0	016df533	and	x10,x27,x22	 x27:0x0000ffff x22:0x00000000 x10=0x00000000
       16605000	      1659	80000bb4	a434ae37	lui	x28,0xa434a	 x28=0xa434a000
       16615000	      1660	80000bb8	0075b9b3	sltu	x19,x11,x7	 x11:0x00000010  x7:0xe2792000 x19=0x00000001
       16625000	      1661	80000bbc	00449a93	slli	x21,x9,0x4	  x9:0xe2792210 x21=0x27922100
       16635000	      1662	80000bc0	00310113	addi	x2,x2,3	  x2:0x00000009  x2=0x0000000c
       16645000	      1663	80000bc4	7b0ee293	ori	x5,x29,1968	 x29:0xe279bfd4  x5=0xe279bff4
       16655000	      1664	80000bc8	fc411ae3	bne	x2,x4,80000b9c	  x2:0x0000000c  x4:0x0000000c
       16665000	      1665	80000bcc	0124d033	srl	x0,x9,x18	  x9:0xe2792210 x18:0x00000001
       16675000	      1666	80000bd0	01f65db3	srl	x27,x12,x31	 x12:0xfffffff3 x31:0x80009f70 x27=0x0000ffff
       16685000	      1667	80000bd4	007b7933	and	x18,x22,x7	 x22:0x00000000  x7:0xe2792000 x18=0x00000000
       16695000	      1668	80000bd8	01f8a033	slt	x0,x17,x31	 x17:0x80009fc4 x31:0x80009f70
       16705000	      1669	80000bdc	0090ce33	xor	x28,x1,x9	  x1:0x00000000  x9:0xe2792210 x28=0xe2792210
       16715000	      1670	80000be0	01f87b33	and	x22,x16,x31	 x16:0x9f700000 x31:0x80009f70 x22=0x80000000
       16725000	      1671	80000be4	fab760e3	bltu	x14,x11,80000b84	 x14:0x00000013 x11:0x00000010
       16735000	      1672	80000be8	24774793	xori	x15,x14,583	 x14:0x00000013 x15=0x00000254
       16745000	      1673	80000bec	ff600813	addi	x16,x0,-10	  x0:0x00000000 x16=0xfffffff6
       16755000	      1674	80000bf0	3cd56d93	ori	x27,x10,973	 x10:0x00000000 x27=0x000003cd
       16765000	      1675	80000bf4	00d2c0b3	xor	x1,x5,x13	  x5:0xe279bff4 x13:0x80009fc4  x1=0x62792030
       16775000	      1676	80000bf8	41eed433	sra	x8,x29,x30	 x29:0xe279bfd4 x30:0x00000000  x8=0xe279bfd4
       16785000	      1677	80000bfc	25d7ea13	ori	x20,x15,605	 x15:0x00000254 x20=0x0000025d
       16795000	      1678	80000c00	01000c13	addi	x24,x0,16	  x0:0x00000000 x24=0x00000010
       16805000	      1679	80000c04	17b5f2b7	lui	x5,0x17b5f	  x5=0x17b5f000
       16815000	      1680	80000c08	00000013	addi	x0,x0,0	  x0:0x00000000
       16825000	      1681	80000c0c	01e20e33	add	x28,x4,x30	  x4:0x0000000c x30:0x00000000 x28=0x0000000c
       16835000	      1682	80000c10	00380813	addi	x16,x16,3	 x16:0xfffffff6 x16=0xfffffff9
       16845000	      1683	80000c14	019f0133	add	x2,x30,x25	 x30:0x00000000 x25:0x00000001  x2=0x00000001
       16855000	      1684	80000c18	00a70233	add	x4,x14,x10	 x14:0x00000013 x10:0x00000000  x4=0x00000013
       16865000	      1685	80000c1c	00200713	addi	x14,x0,2	  x0:0x00000000 x14=0x00000002
       16875000	      1686	80000c20	97e48237	lui	x4,0x97e48	  x4=0x97e48000
       16885000	      1687	80000c24	ffc00313	addi	x6,x0,-4	  x0:0x00000000  x6=0xfffffffc
       16895000	      1688	80000c28	41ffdbb3	sra	x23,x31,x31	 x31:0x80009f70 x31:0x80009f70 x23=0xffff8000
       16905000	      1689	80000c2c	008872b3	and	x5,x16,x8	 x16:0xfffffff9  x8:0xe279bfd4  x5=0xe279bfd0
       16915000	      1690	80000c30	4093d3b3	sra	x7,x7,x9	  x7:0xe2792000  x9:0xe2792210  x7=0xffffe279
       16925000	      1691	80000c34	00000013	addi	x0,x0,0	  x0:0x00000000
       16935000	      1692	80000c38	0043f633	and	x12,x7,x4	  x7:0xffffe279  x4:0x97e48000 x12=0x97e48000
       16945000	      1693	80000c3c	ffe70713	addi	x14,x14,-2	 x14:0x00000002 x14=0x00000000
       16955000	      1694	80000c40	fe675ae3	bge	x14,x6,80000c34	 x14:0x00000000  x6:0xfffffffc
       16965000	      1695	00000000	00000013	addi	x0,x0,0	  x0:0x00000000
       16975000	      1696	80000c30	00000013	addi	x0,x0,0	  x0:0x00000000
       16985000	      1697	80000c34	00000013	addi	x0,x0,0	  x0:0x00000000
       16995000	      1698	80000c38	0043f633	and	x12,x7,x4	  x7:0xffffe279  x4:0x97e48000 x12=0x97e48000
       17005000	      1699	80000c3c	ffe70713	addi	x14,x14,-2	 x14:0x00000000 x14=0xfffffffe
       17015000	      1700	80000c40	fe675ae3	bge	x14,x6,80000c34	 x14:0xfffffffe  x6:0xfffffffc
       17025000	      1701	00000000	00000013	addi	x0,x0,0	  x0:0x00000000
       17035000	      1702	80000c30	00000013	addi	x0,x0,0	  x0:0x00000000
       17045000	      1703	80000c34	00000013	addi	x0,x0,0	  x0:0x00000000
       17055000	      1704	80000c38	0043f633	and	x12,x7,x4	  x7:0xffffe279  x4:0x97e48000 x12=0x97e48000
       17065000	      1705	80000c3c	ffe70713	addi	x14,x14,-2	 x14:0xfffffffe x14=0xfffffffc
       17075000	      1706	80000c40	fe675ae3	bge	x14,x6,80000c34	 x14:0xfffffffc  x6:0xfffffffc
       17085000	      1707	00000000	00000013	addi	x0,x0,0	  x0:0x00000000
       17095000	      1708	80000c30	00000013	addi	x0,x0,0	  x0:0x00000000
       17105000	      1709	80000c34	00000013	addi	x0,x0,0	  x0:0x00000000
       17115000	      1710	80000c38	0043f633	and	x12,x7,x4	  x7:0xffffe279  x4:0x97e48000 x12=0x97e48000
       17125000	      1711	80000c3c	ffe70713	addi	x14,x14,-2	 x14:0xfffffffc x14=0xfffffffa
       17135000	      1712	80000c40	fe675ae3	bge	x14,x6,80000c34	 x14:0xfffffffa  x6:0xfffffffc
       17145000	      1713	80000c44	0185b133	sltu	x2,x11,x24	 x11:0x00000010 x24:0x00000010  x2=0x00000000
       17155000	      1714	80000c48	96a2d537	lui	x10,0x96a2d	 x10=0x96a2d000
       17165000	      1715	80000c4c	41bbd633	sra	x12,x23,x27	 x23:0xffff8000 x27:0x000003cd x12=0xfffffffc
       17175000	      1716	80000c50	413ed133	sra	x2,x29,x19	 x29:0xe279bfd4 x19:0x00000001  x2=0xf13cdfea
       17185000	      1717	80000c54	cd800537	lui	x10,0xcd800	 x10=0xcd800000
       17195000	      1718	80000c58	01a4f8b3	and	x17,x9,x26	  x9:0xe2792210 x26:0xe27927db x17=0xe2792210
       17205000	      1719	80000c5c	4131d793	srai	x15,x3,0x13	  x3:0xffffffe2 x15=0xffffffff
       17215000	      1720	80000c60	407dd0b3	sra	x1,x27,x7	 x27:0x000003cd  x7:0xffffe279  x1=0x00000000
       17225000	      1721	80000c64	40765db3	sra	x27,x12,x7	 x12:0xfffffffc  x7:0xffffe279 x27=0xffffffff
       17235000	      1722	80000c68	413f5a33	sra	x20,x30,x19	 x30:0x00000000 x19:0x00000001 x20=0x00000000
       17245000	      1723	80000c6c	f9886ee3	bltu	x16,x24,80000c08	 x16:0xfffffff9 x24:0x00000010
       17255000	      1724	80000c70	dda4ab97	auipc	x23,0xdda4a	 x23=0x5da4ac6c
       17265000	      1725	80000c74	00a00b93	addi	x23,x0,10	  x0:0x00000000 x23=0x0000000a
       17275000	      1726	80000c78	008e4b33	xor	x22,x28,x8	 x28:0x0000000c  x8:0xe279bfd4 x22=0xe279bfd8
       17285000	      1727	80000c7c	01100793	addi	x15,x0,17	  x0:0x00000000 x15=0x00000011
       17295000	      1728	80000c80	00000013	addi	x0,x0,0	  x0:0x00000000
       17305000	      1729	80000c84	00000013	addi	x0,x0,0	  x0:0x00000000
       17315000	      1730	80000c88	00000013	addi	x0,x0,0	  x0:0x00000000
       17325000	      1731	80000c8c	00f93d33	sltu	x26,x18,x15	 x18:0x00000000 x15:0x00000011 x26=0x00000001
       17335000	      1732	80000c90	00e00233	add	x4,x0,x14	  x0:0x00000000 x14:0xfffffffa  x4=0xfffffffa
       17345000	      1733	80000c94	00be0d33	add	x26,x28,x11	 x28:0x0000000c x11:0x00000010 x26=0x0000001c
       17355000	      1734	80000c98	006b8b93	addi	x23,x23,6	 x23:0x0000000a x23=0x00000010
       17365000	      1735	80000c9c	47e12313	slti	x6,x2,1150	  x2:0xf13cdfea  x6=0x00000001
       17375000	      1736	80000ca0	403c0cb3	sub	x25,x24,x3	 x24:0x00000010  x3:0xffffffe2 x25=0x0000002e
       17385000	      1737	80000ca4	003952b3	srl	x5,x18,x3	 x18:0x00000000  x3:0xffffffe2  x5=0x00000000
       17395000	      1738	80000ca8	64f26db7	lui	x27,0x64f26	 x27=0x64f26000
       17405000	      1739	80000cac	41fd5db3	sra	x27,x26,x31	 x26:0x0000001c x31:0x80009f70 x27=0x00000000
       17415000	      1740	80000cb0	411f5b33	sra	x22,x30,x17	 x30:0x00000000 x17:0xe2792210 x22=0x00000000
       17425000	      1741	80000cb4	00abd1b3	srl	x3,x23,x10	 x23:0x00000010 x10:0xcd800000  x3=0x00000010
       17435000	      1742	80000cb8	51be7113	andi	x2,x28,1307	 x28:0x0000000c  x2=0x00000008
       17445000	      1743	80000cbc	006bc3b3	xor	x7,x23,x6	 x23:0x00000010  x6:0x00000001  x7=0x00000011
       17455000	      1744	80000cc0	b69a4393	xori	x7,x20,-1175	 x20:0x00000000  x7=0xfffffb69
       17465000	      1745	80000cc4	fcfbc2e3	blt	x23,x15,80000c88	 x23:0x00000010 x15:0x00000011
       17475000	      1746	00000000	00000013	addi	x0,x0,0	  x0:0x00000000
       17485000	      1747	80000c84	00000013	addi	x0,x0,0	  x0:0x00000000
       17495000	      1748	80000c88	00000013	addi	x0,x0,0	  x0:0x00000000
       17505000	      1749	80000c8c	00f93d33	sltu	x26,x18,x15	 x18:0x00000000 x15:0x00000011 x26=0x00000001
       17515000	      1750	80000c90	00e00233	add	x4,x0,x14	  x0:0x00000000 x14:0xfffffffa  x4=0xfffffffa
       17525000	      1751	80000c94	00be0d33	add	x26,x28,x11	 x28:0x0000000c x11:0x00000010 x26=0x0000001c
       17535000	      1752	80000c98	006b8b93	addi	x23,x23,6	 x23:0x00000010 x23=0x00000016
       17545000	      1753	80000c9c	47e12313	slti	x6,x2,1150	  x2:0x00000008  x6=0x00000001
       17555000	      1754	80000ca0	403c0cb3	sub	x25,x24,x3	 x24:0x00000010  x3:0x00000010 x25=0x00000000
       17565000	      1755	80000ca4	003952b3	srl	x5,x18,x3	 x18:0x00000000  x3:0x00000010  x5=0x00000000
       17575000	      1756	80000ca8	64f26db7	lui	x27,0x64f26	 x27=0x64f26000
       17585000	      1757	80000cac	41fd5db3	sra	x27,x26,x31	 x26:0x0000001c x31:0x80009f70 x27=0x00000000
       17595000	      1758	80000cb0	411f5b33	sra	x22,x30,x17	 x30:0x00000000 x17:0xe2792210 x22=0x00000000
       17605000	      1759	80000cb4	00abd1b3	srl	x3,x23,x10	 x23:0x00000016 x10:0xcd800000  x3=0x00000016
       17615000	      1760	80000cb8	51be7113	andi	x2,x28,1307	 x28:0x0000000c  x2=0x00000008
       17625000	      1761	80000cbc	006bc3b3	xor	x7,x23,x6	 x23:0x00000016  x6:0x00000001  x7=0x00000017
       17635000	      1762	80000cc0	b69a4393	xori	x7,x20,-1175	 x20:0x00000000  x7=0xfffffb69
       17645000	      1763	80000cc4	fcfbc2e3	blt	x23,x15,80000c88	 x23:0x00000016 x15:0x00000011
       17655000	      1764	80000cc8	0092fc33	and	x24,x5,x9	  x5:0x00000000  x9:0xe2792210 x24=0x00000000
       17665000	      1765	80000ccc	00000893	addi	x17,x0,0	  x0:0x00000000 x17=0x00000000
       17675000	      1766	80000cd0	01705ab3	srl	x21,x0,x23	  x0:0x00000000 x23:0x00000016 x21=0x00000000
       17685000	      1767	80000cd4	00b20e33	add	x28,x4,x11	  x4:0xfffffffa x11:0x00000010 x28=0x0000000a
       17695000	      1768	80000cd8	4fe36093	ori	x1,x6,1278	  x6:0x00000001  x1=0x000004ff
       17705000	      1769	80000cdc	fe8f7813	andi	x16,x30,-24	 x30:0x00000000 x16=0x00000000
       17715000	      1770	80000ce0	a3d60a37	lui	x20,0xa3d60	 x20=0xa3d60000
       17725000	      1771	80000ce4	4157d913	srai	x18,x15,0x15	 x15:0x00000011 x18=0x00000000
       17735000	      1772	80000ce8	00700213	addi	x4,x0,7	  x0:0x00000000  x4=0x00000007
       17745000	      1773	80000cec	006ef2b3	and	x5,x29,x6	 x29:0xe279bfd4  x6:0x00000001  x5=0x00000000
       17755000	      1774	80000cf0	018fc0b3	xor	x1,x31,x24	 x31:0x80009f70 x24:0x00000000  x1=0x80009f70
       17765000	      1775	80000cf4	83a52a13	slti	x20,x10,-1990	 x10:0xcd800000 x20=0x00000001
       17775000	      1776	80000cf8	00788893	addi	x17,x17,7	 x17:0x00000000 x17=0x00000007
       17785000	      1777	80000cfc	e0680293	addi	x5,x16,-506	 x16:0x00000000  x5=0xfffffe06
       17795000	      1778	80000d00	0133ad33	slt	x26,x7,x19	  x7:0xfffffb69 x19:0x00000001 x26=0x00000001
       17805000	      1779	80000d04	41cbd933	sra	x18,x23,x28	 x23:0x00000016 x28:0x0000000a x18=0x00000000
       17815000	      1780	80000d08	fe4896e3	bne	x17,x4,80000cf4	 x17:0x00000007  x4:0x00000007
       17825000	      1781	80000d0c	110d8313	addi	x6,x27,272	 x27:0x00000000  x6=0x00000110
       17835000	      1782	80000d10	ff900313	addi	x6,x0,-7	  x0:0x00000000  x6=0xfffffff9
       17845000	      1783	80000d14	01b7f533	and	x10,x15,x27	 x15:0x00000011 x27:0x00000000 x10=0x00000000
       17855000	      1784	80000d18	622e6213	ori	x4,x28,1570	 x28:0x0000000a  x4=0x0000062a
       17865000	      1785	80000d1c	1536cd93	xori	x27,x13,339	 x13:0x80009fc4 x27=0x80009e97
       17875000	      1786	80000d20	ffe00b13	addi	x22,x0,-2	  x0:0x00000000 x22=0xfffffffe
       17885000	      1787	80000d24	17e4ed93	ori	x27,x9,382	  x9:0xe2792210 x27=0xe279237e
       17895000	      1788	80000d28	f57283b7	lui	x7,0xf5728	  x7=0xf5728000
       17905000	      1789	80000d2c	004bdab3	srl	x21,x23,x4	 x23:0x00000016  x4:0x0000062a x21=0x00000000
       17915000	      1790	80000d30	19a78093	addi	x1,x15,410	 x15:0x00000011  x1=0x000001ab
       17925000	      1791	80000d34	41a2d8b3	sra	x17,x5,x26	  x5:0xfffffe06 x26:0x00000001 x17=0xffffff03
       17935000	      1792	80000d38	005f3433	sltu	x8,x30,x5	 x30:0x00000000  x5:0xfffffe06  x8=0x00000001
       17945000	      1793	80000d3c	00000013	addi	x0,x0,0	  x0:0x00000000
       17955000	      1794	80000d40	00230313	addi	x6,x6,2	  x6:0xfffffff9  x6=0xfffffffb
       17965000	      1795	80000d44	00d2ac33	slt	x24,x5,x13	  x5:0xfffffe06 x13:0x80009fc4 x24=0x00000000
       17975000	      1796	80000d48	01cc9a33	sll	x20,x25,x28	 x25:0x00000000 x28:0x0000000a x20=0x00000000
       17985000	      1797	80000d4c	b8dca713	slti	x14,x25,-1139	 x25:0x00000000 x14=0x00000000
       17995000	      1798	80000d50	01f99893	slli	x17,x19,0x1f	 x19:0x00000001 x17=0x80000000
       18005000	      1799	80000d54	00b55a93	srli	x21,x10,0xb	 x10:0x00000000 x21=0x00000000
       18015000	      1800	80000d58	0013eeb3	or	x29,x7,x1	  x7:0xf5728000  x1:0x000001ab x29=0xf57281ab
       18025000	      1801	80000d5c	016e1833	sll	x16,x28,x22	 x28:0x0000000a x22:0xfffffffe x16=0x80000000
       18035000	      1802	80000d60	00b4f1b3	and	x3,x9,x11	  x9:0xe2792210 x11:0x00000010  x3=0x00000010
       18045000	      1803	80000d64	01ab2d33	slt	x26,x22,x26	 x22:0xfffffffe x26:0x00000001 x26=0x00000001
       18055000	      1804	80000d68	01130533	add	x10,x6,x17	  x6:0xfffffffb x17:0x80000000 x10=0x7ffffffb
       18065000	      1805	80000d6c	01448733	add	x14,x9,x20	  x9:0xe2792210 x20:0x00000000 x14=0xe2792210
       18075000	      1806	80000d70	fb634ce3	blt	x6,x22,80000d28	  x6:0xfffffffb x22:0xfffffffe
       18085000	      1807	00000000	00000013	addi	x0,x0,0	  x0:0x00000000
       18095000	      1808	80000d24	00000013	addi	x0,x0,0	  x0:0x00000000
       18105000	      1809	80000d28	f57283b7	lui	x7,0xf5728	  x7=0xf5728000
       18115000	      1810	80000d2c	004bdab3	srl	x21,x23,x4	 x23:0x00000016  x4:0x0000062a x21=0x00000000
       18125000	      1811	80000d30	19a78093	addi	x1,x15,410	 x15:0x00000011  x1=0x000001ab
       18135000	      1812	80000d34	41a2d8b3	sra	x17,x5,x26	  x5:0xfffffe06 x26:0x00000001 x17=0xffffff03
       18145000	      1813	80000d38	005f3433	sltu	x8,x30,x5	 x30:0x00000000  x5:0xfffffe06  x8=0x00000001
       18155000	      1814	80000d3c	00000013	addi	x0,x0,0	  x0:0x00000000
       18165000	      1815	80000d40	00230313	addi	x6,x6,2	  x6:0xfffffffb  x6=0xfffffffd
       18175000	      1816	80000d44	00d2ac33	slt	x24,x5,x13	  x5:0xfffffe06 x13:0x80009fc4 x24=0x00000000
       18185000	      1817	80000d48	01cc9a33	sll	x20,x25,x28	 x25:0x00000000 x28:0x0000000a x20=0x00000000
       18195000	      1818	80000d4c	b8dca713	slti	x14,x25,-1139	 x25:0x00000000 x14=0x00000000
       18205000	      1819	80000d50	01f99893	slli	x17,x19,0x1f	 x19:0x00000001 x17=0x80000000
       18215000	      1820	80000d54	00b55a93	srli	x21,x10,0xb	 x10:0x7ffffffb x21=0x000fffff
       18225000	      1821	80000d58	0013eeb3	or	x29,x7,x1	  x7:0xf5728000  x1:0x000001ab x29=0xf57281ab
       18235000	      1822	80000d5c	016e1833	sll	x16,x28,x22	 x28:0x0000000a x22:0xfffffffe x16=0x80000000
       18245000	      1823	80000d60	00b4f1b3	and	x3,x9,x11	  x9:0xe2792210 x11:0x00000010  x3=0x00000010
       18255000	      1824	80000d64	01ab2d33	slt	x26,x22,x26	 x22:0xfffffffe x26:0x00000001 x26=0x00000001
       18265000	      1825	80000d68	01130533	add	x10,x6,x17	  x6:0xfffffffd x17:0x80000000 x10=0x7ffffffd
       18275000	      1826	80000d6c	01448733	add	x14,x9,x20	  x9:0xe2792210 x20:0x00000000 x14=0xe2792210
       18285000	      1827	80000d70	fb634ce3	blt	x6,x22,80000d28	  x6:0xfffffffd x22:0xfffffffe
       18295000	      1828	00000000	00000013	addi	x0,x0,0	  x0:0x00000000
       18305000	      1829	80000d24	00000013	addi	x0,x0,0	  x0:0x00000000
       18315000	      1830	80000d28	f57283b7	lui	x7,0xf5728	  x7=0xf5728000
       18325000	      1831	80000d2c	004bdab3	srl	x21,x23,x4	 x23:0x00000016  x4:0x0000062a x21=0x00000000
       18335000	      1832	80000d30	19a78093	addi	x1,x15,410	 x15:0x00000011  x1=0x000001ab
       18345000	      1833	80000d34	41a2d8b3	sra	x17,x5,x26	  x5:0xfffffe06 x26:0x00000001 x17=0xffffff03
       18355000	      1834	80000d38	005f3433	sltu	x8,x30,x5	 x30:0x00000000  x5:0xfffffe06  x8=0x00000001
       18365000	      1835	80000d3c	00000013	addi	x0,x0,0	  x0:0x00000000
       18375000	      1836	80000d40	00230313	addi	x6,x6,2	  x6:0xfffffffd  x6=0xffffffff
       18385000	      1837	80000d44	00d2ac33	slt	x24,x5,x13	  x5:0xfffffe06 x13:0x80009fc4 x24=0x00000000
       18395000	      1838	80000d48	01cc9a33	sll	x20,x25,x28	 x25:0x00000000 x28:0x0000000a x20=0x00000000
       18405000	      1839	80000d4c	b8dca713	slti	x14,x25,-1139	 x25:0x00000000 x14=0x00000000
       18415000	      1840	80000d50	01f99893	slli	x17,x19,0x1f	 x19:0x00000001 x17=0x80000000
       18425000	      1841	80000d54	00b55a93	srli	x21,x10,0xb	 x10:0x7ffffffd x21=0x000fffff
       18435000	      1842	80000d58	0013eeb3	or	x29,x7,x1	  x7:0xf5728000  x1:0x000001ab x29=0xf57281ab
       18445000	      1843	80000d5c	016e1833	sll	x16,x28,x22	 x28:0x0000000a x22:0xfffffffe x16=0x80000000
       18455000	      1844	80000d60	00b4f1b3	and	x3,x9,x11	  x9:0xe2792210 x11:0x00000010  x3=0x00000010
       18465000	      1845	80000d64	01ab2d33	slt	x26,x22,x26	 x22:0xfffffffe x26:0x00000001 x26=0x00000001
       18475000	      1846	80000d68	01130533	add	x10,x6,x17	  x6:0xffffffff x17:0x80000000 x10=0x7fffffff
       18485000	      1847	80000d6c	01448733	add	x14,x9,x20	  x9:0xe2792210 x20:0x00000000 x14=0xe2792210
       18495000	      1848	80000d70	fb634ce3	blt	x6,x22,80000d28	  x6:0xffffffff x22:0xfffffffe
       18505000	      1849	80000d74	c00ef593	andi	x11,x29,-1024	 x29:0xf57281ab x11=0xf5728000
       18515000	      1850	80000d78	00900213	addi	x4,x0,9	  x0:0x00000000  x4=0x00000009
       18525000	      1851	80000d7c	0e825297	auipc	x5,0xe825	  x5=0x8e825d78
       18535000	      1852	80000d80	bc5f2713	slti	x14,x30,-1083	 x30:0x00000000 x14=0x00000000
       18545000	      1853	80000d84	00000013	addi	x0,x0,0	  x0:0x00000000
       18555000	      1854	80000d88	cfe1cd37	lui	x26,0xcfe1c	 x26=0xcfe1c000
       18565000	      1855	80000d8c	40ec5793	srai	x15,x24,0xe	 x24:0x00000000 x15=0x00000000
       18575000	      1856	80000d90	00700613	addi	x12,x0,7	  x0:0x00000000 x12=0x00000007
       18585000	      1857	80000d94	00000013	addi	x0,x0,0	  x0:0x00000000
       18595000	      1858	80000d98	6e14a417	auipc	x8,0x6e14a	  x8=0xee14ad94
       18605000	      1859	80000d9c	7be22513	slti	x10,x4,1982	  x4:0x00000009 x10=0x00000001
       18615000	      1860	80000da0	ffa20213	addi	x4,x4,-6	  x4:0x00000009  x4=0x00000003
       18625000	      1861	80000da4	018b87b3	add	x15,x23,x24	 x23:0x00000016 x24:0x00000000 x15=0x00000016
       18635000	      1862	80000da8	00000013	addi	x0,x0,0	  x0:0x00000000
       18645000	      1863	80000dac	00542bb3	slt	x23,x8,x5	  x8:0xee14ad94  x5:0x8e825d78 x23=0x00000000
       18655000	      1864	80000db0	00300b13	addi	x22,x0,3	  x0:0x00000000 x22=0x00000003
       18665000	      1865	80000db4	005355b3	srl	x11,x6,x5	  x6:0xffffffff  x5:0x8e825d78 x11=0x000000ff
       18675000	      1866	80000db8	8a91c097	auipc	x1,0x8a91c	  x1=0x0a91cdb4
       18685000	      1867	80000dbc	1a35c097	auipc	x1,0x1a35c	  x1=0x9a35cdb8
       18695000	      1868	80000dc0	ac0ebd97	auipc	x27,0xac0eb	 x27=0x2c0ebdbc
       18705000	      1869	80000dc4	01300c13	addi	x24,x0,19	  x0:0x00000000 x24=0x00000013
       18715000	      1870	80000dc8	00ada433	slt	x8,x27,x10	 x27:0x2c0ebdbc x10:0x00000001  x8=0x00000000
       18725000	      1871	80000dcc	9f498393	addi	x7,x19,-1548	 x19:0x00000001  x7=0xfffff9f5
       18735000	      1872	80000dd0	003d7cb3	and	x25,x26,x3	 x26:0xcfe1c000  x3:0x00000010 x25=0x00000000
       18745000	      1873	80000dd4	1a5e8e37	lui	x28,0x1a5e8	 x28=0x1a5e8000
       18755000	      1874	80000dd8	406f5193	srai	x3,x30,0x6	 x30:0x00000000  x3=0x00000000
       18765000	      1875	80000ddc	00449893	slli	x17,x9,0x4	  x9:0xe2792210 x17=0x27922100
       18775000	      1876	80000de0	008b0b13	addi	x22,x22,8	 x22:0x00000003 x22=0x0000000b
       18785000	      1877	80000de4	04f6fa13	andi	x20,x13,79	 x13:0x80009fc4 x20=0x00000044
       18795000	      1878	80000de8	ff8b02e3	beq	x22,x24,80000dcc	 x22:0x0000000b x24:0x00000013
       18805000	      1879	80000dec	00a39a93	slli	x21,x7,0xa	  x7:0xfffff9f5 x21=0xffe7d400
       18815000	      1880	80000df0	1bbe70b7	lui	x1,0x1bbe7	  x1=0x1bbe7000
       18825000	      1881	80000df4	fac272e3	bgeu	x4,x12,80000d98	  x4:0x00000003 x12:0x00000007
       18835000	      1882	80000df8	de8ec017	auipc	x0,0xde8ec	
       18845000	      1883	80000dfc	00600393	addi	x7,x0,6	  x0:0x00000000  x7=0x00000006
       18855000	      1884	80000e00	01edc433	xor	x8,x27,x30	 x27:0x2c0ebdbc x30:0x00000000  x8=0x2c0ebdbc
       18865000	      1885	80000e04	00489d93	slli	x27,x17,0x4	 x17:0x27922100 x27=0x79221000
       18875000	      1886	80000e08	ceb5e193	ori	x3,x11,-789	 x11:0x000000ff  x3=0xfffffcff
       18885000	      1887	80000e0c	00873b33	sltu	x22,x14,x8	 x14:0x00000000  x8:0x2c0ebdbc x22=0x00000001
       18895000	      1888	80000e10	e0eef637	lui	x12,0xe0eef	 x12=0xe0eef000
       18905000	      1889	80000e14	00fd0c33	add	x24,x26,x15	 x26:0xcfe1c000 x15:0x00000016 x24=0xcfe1c016
       18915000	      1890	80000e18	00d00a13	addi	x20,x0,13	  x0:0x00000000 x20=0x0000000d
       18925000	      1891	80000e1c	fdff4b93	xori	x23,x30,-33	 x30:0x00000000 x23=0xffffffdf
       18935000	      1892	80000e20	b6432993	slti	x19,x6,-1180	  x6:0xffffffff x19=0x00000000
       18945000	      1893	80000e24	038f4293	xori	x5,x30,56	 x30:0x00000000  x5=0x00000038
       18955000	      1894	80000e28	41ab0333	sub	x6,x22,x26	 x22:0x00000001 x26:0xcfe1c000  x6=0x301e4001
       18965000	      1895	80000e2c	00615b33	srl	x22,x2,x6	  x2:0x00000008  x6:0x301e4001 x22=0x00000004
       18975000	      1896	80000e30	3651fb37	lui	x22,0x3651f	 x22=0x3651f000
       18985000	      1897	80000e34	015f87b3	add	x15,x31,x21	 x31:0x80009f70 x21:0xffe7d400 x15=0x7fe87370
       18995000	      1898	80000e38	40555013	srai	x0,x10,0x5	 x10:0x00000001
       19005000	      1899	80000e3c	00938393	addi	x7,x7,9	  x7:0x00000006  x7=0x0000000f
       19015000	      1900	80000e40	00000013	addi	x0,x0,0	  x0:0x00000000
       19025000	      1901	80000e44	0125cd33	xor	x26,x11,x18	 x11:0x000000ff x18:0x00000000 x26=0x000000ff
       19035000	      1902	80000e48	415550b3	sra	x1,x10,x21	 x10:0x00000001 x21:0xffe7d400  x1=0x00000001
       19045000	      1903	80000e4c	00000013	addi	x0,x0,0	  x0:0x00000000
       19055000	      1904	80000e50	418fd9b3	sra	x19,x31,x24	 x31:0x80009f70 x24:0xcfe1c016 x19=0xfffffe00
       19065000	      1905	80000e54	6b924193	xori	x3,x4,1721	  x4:0x00000003  x3=0x000006ba
       19075000	      1906	80000e58	a1f96193	ori	x3,x18,-1505	 x18:0x00000000  x3=0xfffffa1f
       19085000	      1907	80000e5c	54934b93	xori	x23,x6,1353	  x6:0x301e4001 x23=0x301e4548
       19095000	      1908	80000e60	fd43e0e3	bltu	x7,x20,80000e20	  x7:0x0000000f x20:0x0000000d
       19105000	      1909	80000e64	0012f233	and	x4,x5,x1	  x5:0x00000038  x1:0x00000001  x4=0x00000000
       19115000	      1910	80000e68	ffe00313	addi	x6,x0,-2	  x0:0x00000000  x6=0xfffffffe
       19125000	      1911	80000e6c	00300813	addi	x16,x0,3	  x0:0x00000000 x16=0x00000003
       19135000	      1912	80000e70	bef38293	addi	x5,x7,-1041	  x7:0x0000000f  x5=0xfffffbfe
       19145000	      1913	80000e74	00830313	addi	x6,x6,8	  x6:0xfffffffe  x6=0x00000006
       19155000	      1914	80000e78	00400713	addi	x14,x0,4	  x0:0x00000000 x14=0x00000004
       19165000	      1915	80000e7c	01400213	addi	x4,x0,20	  x0:0x00000000  x4=0x00000014
       19175000	      1916	80000e80	3709fd93	andi	x27,x19,880	 x19:0xfffffe00 x27=0x00000200
       19185000	      1917	80000e84	00270713	addi	x14,x14,2	 x14:0x00000004 x14=0x00000006
       19195000	      1918	80000e88	fe471ce3	bne	x14,x4,80000e80	 x14:0x00000006  x4:0x00000014
       19205000	      1919	00000000	00000013	addi	x0,x0,0	  x0:0x00000000
       19215000	      1920	80000e7c	00000013	addi	x0,x0,0	  x0:0x00000000
       19225000	      1921	80000e80	3709fd93	andi	x27,x19,880	 x19:0xfffffe00 x27=0x00000200
       19235000	      1922	80000e84	00270713	addi	x14,x14,2	 x14:0x00000006 x14=0x00000008
       19245000	      1923	80000e88	fe471ce3	bne	x14,x4,80000e80	 x14:0x00000008  x4:0x00000014
       19255000	      1924	00000000	00000013	addi	x0,x0,0	  x0:0x00000000
       19265000	      1925	80000e7c	00000013	addi	x0,x0,0	  x0:0x00000000
       19275000	      1926	80000e80	3709fd93	andi	x27,x19,880	 x19:0xfffffe00 x27=0x00000200
       19285000	      1927	80000e84	00270713	addi	x14,x14,2	 x14:0x00000008 x14=0x0000000a
       19295000	      1928	80000e88	fe471ce3	bne	x14,x4,80000e80	 x14:0x0000000a  x4:0x00000014
       19305000	      1929	00000000	00000013	addi	x0,x0,0	  x0:0x00000000
       19315000	      1930	80000e7c	00000013	addi	x0,x0,0	  x0:0x00000000
       19325000	      1931	80000e80	3709fd93	andi	x27,x19,880	 x19:0xfffffe00 x27=0x00000200
       19335000	      1932	80000e84	00270713	addi	x14,x14,2	 x14:0x0000000a x14=0x0000000c
       19345000	      1933	80000e88	fe471ce3	bne	x14,x4,80000e80	 x14:0x0000000c  x4:0x00000014
       19355000	      1934	00000000	00000013	addi	x0,x0,0	  x0:0x00000000
       19365000	      1935	80000e7c	00000013	addi	x0,x0,0	  x0:0x00000000
       19375000	      1936	80000e80	3709fd93	andi	x27,x19,880	 x19:0xfffffe00 x27=0x00000200
       19385000	      1937	80000e84	00270713	addi	x14,x14,2	 x14:0x0000000c x14=0x0000000e
       19395000	      1938	80000e88	fe471ce3	bne	x14,x4,80000e80	 x14:0x0000000e  x4:0x00000014
       19405000	      1939	00000000	00000013	addi	x0,x0,0	  x0:0x00000000
       19415000	      1940	80000e7c	00000013	addi	x0,x0,0	  x0:0x00000000
       19425000	      1941	80000e80	3709fd93	andi	x27,x19,880	 x19:0xfffffe00 x27=0x00000200
       19435000	      1942	80000e84	00270713	addi	x14,x14,2	 x14:0x0000000e x14=0x00000010
       19445000	      1943	80000e88	fe471ce3	bne	x14,x4,80000e80	 x14:0x00000010  x4:0x00000014
       19455000	      1944	00000000	00000013	addi	x0,x0,0	  x0:0x00000000
       19465000	      1945	80000e7c	00000013	addi	x0,x0,0	  x0:0x00000000
       19475000	      1946	80000e80	3709fd93	andi	x27,x19,880	 x19:0xfffffe00 x27=0x00000200
       19485000	      1947	80000e84	00270713	addi	x14,x14,2	 x14:0x00000010 x14=0x00000012
       19495000	      1948	80000e88	fe471ce3	bne	x14,x4,80000e80	 x14:0x00000012  x4:0x00000014
       19505000	      1949	00000000	00000013	addi	x0,x0,0	  x0:0x00000000
       19515000	      1950	80000e7c	00000013	addi	x0,x0,0	  x0:0x00000000
       19525000	      1951	80000e80	3709fd93	andi	x27,x19,880	 x19:0xfffffe00 x27=0x00000200
       19535000	      1952	80000e84	00270713	addi	x14,x14,2	 x14:0x00000012 x14=0x00000014
       19545000	      1953	80000e88	fe471ce3	bne	x14,x4,80000e80	 x14:0x00000014  x4:0x00000014
       19555000	      1954	80000e8c	ff0342e3	blt	x6,x16,80000e70	  x6:0x00000006 x16:0x00000003
       19565000	      1955	80000e90	ad81f013	andi	x0,x3,-1320	  x3:0xfffffa1f
       19575000	      1956	80000e94	ff700193	addi	x3,x0,-9	  x0:0x00000000  x3=0xfffffff7
       19585000	      1957	80000e98	4068d733	sra	x14,x17,x6	 x17:0x27922100  x6:0x00000006 x14=0x009e4884
       19595000	      1958	80000e9c	ff100793	addi	x15,x0,-15	  x0:0x00000000 x15=0xfffffff1
       19605000	      1959	80000ea0	01caecb3	or	x25,x21,x28	 x21:0xffe7d400 x28:0x1a5e8000 x25=0xffffd400
       19615000	      1960	80000ea4	ffa18193	addi	x3,x3,-6	  x3:0xfffffff7  x3=0xfffffff1
       19625000	      1961	80000ea8	003193b3	sll	x7,x3,x3	  x3:0xfffffff1  x3:0xfffffff1  x7=0xffe20000
       19635000	      1962	80000eac	00900a93	addi	x21,x0,9	  x0:0x00000000 x21=0x00000009
       19645000	      1963	80000eb0	01400b93	addi	x23,x0,20	  x0:0x00000000 x23=0x00000014
       19655000	      1964	80000eb4	7bbc3c13	sltiu	x24,x24,1979	 x24:0xcfe1c016 x24=0x00000000
       19665000	      1965	80000eb8	00dd0c97	auipc	x25,0xdd0	 x25=0x80dd0eb4
       19675000	      1966	80000ebc	001a8a93	addi	x21,x21,1	 x21:0x00000009 x21=0x0000000a
       19685000	      1967	80000ec0	67643413	sltiu	x8,x8,1654	  x8:0x2c0ebdbc  x8=0x00000000
       19695000	      1968	80000ec4	01923833	sltu	x16,x4,x25	  x4:0x00000014 x25:0x80dd0eb4 x16=0x00000001
       19705000	      1969	80000ec8	ff7ac8e3	blt	x21,x23,80000eb8	 x21:0x0000000a x23:0x00000014
       19715000	      1970	00000000	00000013	addi	x0,x0,0	  x0:0x00000000
       19725000	      1971	80000eb4	00000013	addi	x0,x0,0	  x0:0x00000000
       19735000	      1972	80000eb8	00dd0c97	auipc	x25,0xdd0	 x25=0x80dd0eb4
       19745000	      1973	80000ebc	001a8a93	addi	x21,x21,1	 x21:0x0000000a x21=0x0000000b
       19755000	      1974	80000ec0	67643413	sltiu	x8,x8,1654	  x8:0x00000000  x8=0x00000001
       19765000	      1975	80000ec4	01923833	sltu	x16,x4,x25	  x4:0x00000014 x25:0x80dd0eb4 x16=0x00000001
       19775000	      1976	80000ec8	ff7ac8e3	blt	x21,x23,80000eb8	 x21:0x0000000b x23:0x00000014
       19785000	      1977	00000000	00000013	addi	x0,x0,0	  x0:0x00000000
       19795000	      1978	80000eb4	00000013	addi	x0,x0,0	  x0:0x00000000
       19805000	      1979	80000eb8	00dd0c97	auipc	x25,0xdd0	 x25=0x80dd0eb4
       19815000	      1980	80000ebc	001a8a93	addi	x21,x21,1	 x21:0x0000000b x21=0x0000000c
       19825000	      1981	80000ec0	67643413	sltiu	x8,x8,1654	  x8:0x00000001  x8=0x00000001
       19835000	      1982	80000ec4	01923833	sltu	x16,x4,x25	  x4:0x00000014 x25:0x80dd0eb4 x16=0x00000001
       19845000	      1983	80000ec8	ff7ac8e3	blt	x21,x23,80000eb8	 x21:0x0000000c x23:0x00000014
       19855000	      1984	00000000	00000013	addi	x0,x0,0	  x0:0x00000000
       19865000	      1985	80000eb4	00000013	addi	x0,x0,0	  x0:0x00000000
       19875000	      1986	80000eb8	00dd0c97	auipc	x25,0xdd0	 x25=0x80dd0eb4
       19885000	      1987	80000ebc	001a8a93	addi	x21,x21,1	 x21:0x0000000c x21=0x0000000d
       19895000	      1988	80000ec0	67643413	sltiu	x8,x8,1654	  x8:0x00000001  x8=0x00000001
       19905000	      1989	80000ec4	01923833	sltu	x16,x4,x25	  x4:0x00000014 x25:0x80dd0eb4 x16=0x00000001
       19915000	      1990	80000ec8	ff7ac8e3	blt	x21,x23,80000eb8	 x21:0x0000000d x23:0x00000014
       19925000	      1991	00000000	00000013	addi	x0,x0,0	  x0:0x00000000
       19935000	      1992	80000eb4	00000013	addi	x0,x0,0	  x0:0x00000000
       19945000	      1993	80000eb8	00dd0c97	auipc	x25,0xdd0	 x25=0x80dd0eb4
       19955000	      1994	80000ebc	001a8a93	addi	x21,x21,1	 x21:0x0000000d x21=0x0000000e
       19965000	      1995	80000ec0	67643413	sltiu	x8,x8,1654	  x8:0x00000001  x8=0x00000001
       19975000	      1996	80000ec4	01923833	sltu	x16,x4,x25	  x4:0x00000014 x25:0x80dd0eb4 x16=0x00000001
       19985000	      1997	80000ec8	ff7ac8e3	blt	x21,x23,80000eb8	 x21:0x0000000e x23:0x00000014
       19995000	      1998	00000000	00000013	addi	x0,x0,0	  x0:0x00000000
       20005000	      1999	80000eb4	00000013	addi	x0,x0,0	  x0:0x00000000
       20015000	      2000	80000eb8	00dd0c97	auipc	x25,0xdd0	 x25=0x80dd0eb4
       20025000	      2001	80000ebc	001a8a93	addi	x21,x21,1	 x21:0x0000000e x21=0x0000000f
       20035000	      2002	80000ec0	67643413	sltiu	x8,x8,1654	  x8:0x00000001  x8=0x00000001
       20045000	      2003	80000ec4	01923833	sltu	x16,x4,x25	  x4:0x00000014 x25:0x80dd0eb4 x16=0x00000001
       20055000	      2004	80000ec8	ff7ac8e3	blt	x21,x23,80000eb8	 x21:0x0000000f x23:0x00000014
       20065000	      2005	00000000	00000013	addi	x0,x0,0	  x0:0x00000000
       20075000	      2006	80000eb4	00000013	addi	x0,x0,0	  x0:0x00000000
       20085000	      2007	80000eb8	00dd0c97	auipc	x25,0xdd0	 x25=0x80dd0eb4
       20095000	      2008	80000ebc	001a8a93	addi	x21,x21,1	 x21:0x0000000f x21=0x00000010
       20105000	      2009	80000ec0	67643413	sltiu	x8,x8,1654	  x8:0x00000001  x8=0x00000001
       20115000	      2010	80000ec4	01923833	sltu	x16,x4,x25	  x4:0x00000014 x25:0x80dd0eb4 x16=0x00000001
       20125000	      2011	80000ec8	ff7ac8e3	blt	x21,x23,80000eb8	 x21:0x00000010 x23:0x00000014
       20135000	      2012	00000000	00000013	addi	x0,x0,0	  x0:0x00000000
       20145000	      2013	80000eb4	00000013	addi	x0,x0,0	  x0:0x00000000
       20155000	      2014	80000eb8	00dd0c97	auipc	x25,0xdd0	 x25=0x80dd0eb4
       20165000	      2015	80000ebc	001a8a93	addi	x21,x21,1	 x21:0x00000010 x21=0x00000011
       20175000	      2016	80000ec0	67643413	sltiu	x8,x8,1654	  x8:0x00000001  x8=0x00000001
       20185000	      2017	80000ec4	01923833	sltu	x16,x4,x25	  x4:0x00000014 x25:0x80dd0eb4 x16=0x00000001
       20195000	      2018	80000ec8	ff7ac8e3	blt	x21,x23,80000eb8	 x21:0x00000011 x23:0x00000014
       20205000	      2019	00000000	00000013	addi	x0,x0,0	  x0:0x00000000
       20215000	      2020	80000eb4	00000013	addi	x0,x0,0	  x0:0x00000000
       20225000	      2021	80000eb8	00dd0c97	auipc	x25,0xdd0	 x25=0x80dd0eb4
       20235000	      2022	80000ebc	001a8a93	addi	x21,x21,1	 x21:0x00000011 x21=0x00000012
       20245000	      2023	80000ec0	67643413	sltiu	x8,x8,1654	  x8:0x00000001  x8=0x00000001
       20255000	      2024	80000ec4	01923833	sltu	x16,x4,x25	  x4:0x00000014 x25:0x80dd0eb4 x16=0x00000001
       20265000	      2025	80000ec8	ff7ac8e3	blt	x21,x23,80000eb8	 x21:0x00000012 x23:0x00000014
       20275000	      2026	00000000	00000013	addi	x0,x0,0	  x0:0x00000000
       20285000	      2027	80000eb4	00000013	addi	x0,x0,0	  x0:0x00000000
       20295000	      2028	80000eb8	00dd0c97	auipc	x25,0xdd0	 x25=0x80dd0eb4
       20305000	      2029	80000ebc	001a8a93	addi	x21,x21,1	 x21:0x00000012 x21=0x00000013
       20315000	      2030	80000ec0	67643413	sltiu	x8,x8,1654	  x8:0x00000001  x8=0x00000001
       20325000	      2031	80000ec4	01923833	sltu	x16,x4,x25	  x4:0x00000014 x25:0x80dd0eb4 x16=0x00000001
       20335000	      2032	80000ec8	ff7ac8e3	blt	x21,x23,80000eb8	 x21:0x00000013 x23:0x00000014
       20345000	      2033	00000000	00000013	addi	x0,x0,0	  x0:0x00000000
       20355000	      2034	80000eb4	00000013	addi	x0,x0,0	  x0:0x00000000
       20365000	      2035	80000eb8	00dd0c97	auipc	x25,0xdd0	 x25=0x80dd0eb4
       20375000	      2036	80000ebc	001a8a93	addi	x21,x21,1	 x21:0x00000013 x21=0x00000014
       20385000	      2037	80000ec0	67643413	sltiu	x8,x8,1654	  x8:0x00000001  x8=0x00000001
       20395000	      2038	80000ec4	01923833	sltu	x16,x4,x25	  x4:0x00000014 x25:0x80dd0eb4 x16=0x00000001
       20405000	      2039	80000ec8	ff7ac8e3	blt	x21,x23,80000eb8	 x21:0x00000014 x23:0x00000014
       20415000	      2040	80000ecc	fcf18ae3	beq	x3,x15,80000ea0	  x3:0xfffffff1 x15:0xfffffff1
       20425000	      2041	00000000	00000013	addi	x0,x0,0	  x0:0x00000000
       20435000	      2042	80000e9c	00000013	addi	x0,x0,0	  x0:0x00000000
       20445000	      2043	80000ea0	01caecb3	or	x25,x21,x28	 x21:0x00000014 x28:0x1a5e8000 x25=0x1a5e8014
       20455000	      2044	80000ea4	ffa18193	addi	x3,x3,-6	  x3:0xfffffff1  x3=0xffffffeb
       20465000	      2045	80000ea8	003193b3	sll	x7,x3,x3	  x3:0xffffffeb  x3:0xffffffeb  x7=0xffff5800
       20475000	      2046	80000eac	00900a93	addi	x21,x0,9	  x0:0x00000000 x21=0x00000009
       20485000	      2047	80000eb0	01400b93	addi	x23,x0,20	  x0:0x00000000 x23=0x00000014
       20495000	      2048	80000eb4	7bbc3c13	sltiu	x24,x24,1979	 x24:0x00000000 x24=0x00000001
       20505000	      2049	80000eb8	00dd0c97	auipc	x25,0xdd0	 x25=0x80dd0eb4
       20515000	      2050	80000ebc	001a8a93	addi	x21,x21,1	 x21:0x00000009 x21=0x0000000a
       20525000	      2051	80000ec0	67643413	sltiu	x8,x8,1654	  x8:0x00000001  x8=0x00000001
       20535000	      2052	80000ec4	01923833	sltu	x16,x4,x25	  x4:0x00000014 x25:0x80dd0eb4 x16=0x00000001
       20545000	      2053	80000ec8	ff7ac8e3	blt	x21,x23,80000eb8	 x21:0x0000000a x23:0x00000014
       20555000	      2054	00000000	00000013	addi	x0,x0,0	  x0:0x00000000
       20565000	      2055	80000eb4	00000013	addi	x0,x0,0	  x0:0x00000000
       20575000	      2056	80000eb8	00dd0c97	auipc	x25,0xdd0	 x25=0x80dd0eb4
       20585000	      2057	80000ebc	001a8a93	addi	x21,x21,1	 x21:0x0000000a x21=0x0000000b
       20595000	      2058	80000ec0	67643413	sltiu	x8,x8,1654	  x8:0x00000001  x8=0x00000001
       20605000	      2059	80000ec4	01923833	sltu	x16,x4,x25	  x4:0x00000014 x25:0x80dd0eb4 x16=0x00000001
       20615000	      2060	80000ec8	ff7ac8e3	blt	x21,x23,80000eb8	 x21:0x0000000b x23:0x00000014
       20625000	      2061	00000000	00000013	addi	x0,x0,0	  x0:0x00000000
       20635000	      2062	80000eb4	00000013	addi	x0,x0,0	  x0:0x00000000
       20645000	      2063	80000eb8	00dd0c97	auipc	x25,0xdd0	 x25=0x80dd0eb4
       20655000	      2064	80000ebc	001a8a93	addi	x21,x21,1	 x21:0x0000000b x21=0x0000000c
       20665000	      2065	80000ec0	67643413	sltiu	x8,x8,1654	  x8:0x00000001  x8=0x00000001
       20675000	      2066	80000ec4	01923833	sltu	x16,x4,x25	  x4:0x00000014 x25:0x80dd0eb4 x16=0x00000001
       20685000	      2067	80000ec8	ff7ac8e3	blt	x21,x23,80000eb8	 x21:0x0000000c x23:0x00000014
       20695000	      2068	00000000	00000013	addi	x0,x0,0	  x0:0x00000000
       20705000	      2069	80000eb4	00000013	addi	x0,x0,0	  x0:0x00000000
       20715000	      2070	80000eb8	00dd0c97	auipc	x25,0xdd0	 x25=0x80dd0eb4
       20725000	      2071	80000ebc	001a8a93	addi	x21,x21,1	 x21:0x0000000c x21=0x0000000d
       20735000	      2072	80000ec0	67643413	sltiu	x8,x8,1654	  x8:0x00000001  x8=0x00000001
       20745000	      2073	80000ec4	01923833	sltu	x16,x4,x25	  x4:0x00000014 x25:0x80dd0eb4 x16=0x00000001
       20755000	      2074	80000ec8	ff7ac8e3	blt	x21,x23,80000eb8	 x21:0x0000000d x23:0x00000014
       20765000	      2075	00000000	00000013	addi	x0,x0,0	  x0:0x00000000
       20775000	      2076	80000eb4	00000013	addi	x0,x0,0	  x0:0x00000000
       20785000	      2077	80000eb8	00dd0c97	auipc	x25,0xdd0	 x25=0x80dd0eb4
       20795000	      2078	80000ebc	001a8a93	addi	x21,x21,1	 x21:0x0000000d x21=0x0000000e
       20805000	      2079	80000ec0	67643413	sltiu	x8,x8,1654	  x8:0x00000001  x8=0x00000001
       20815000	      2080	80000ec4	01923833	sltu	x16,x4,x25	  x4:0x00000014 x25:0x80dd0eb4 x16=0x00000001
       20825000	      2081	80000ec8	ff7ac8e3	blt	x21,x23,80000eb8	 x21:0x0000000e x23:0x00000014
       20835000	      2082	00000000	00000013	addi	x0,x0,0	  x0:0x00000000
       20845000	      2083	80000eb4	00000013	addi	x0,x0,0	  x0:0x00000000
       20855000	      2084	80000eb8	00dd0c97	auipc	x25,0xdd0	 x25=0x80dd0eb4
       20865000	      2085	80000ebc	001a8a93	addi	x21,x21,1	 x21:0x0000000e x21=0x0000000f
       20875000	      2086	80000ec0	67643413	sltiu	x8,x8,1654	  x8:0x00000001  x8=0x00000001
       20885000	      2087	80000ec4	01923833	sltu	x16,x4,x25	  x4:0x00000014 x25:0x80dd0eb4 x16=0x00000001
       20895000	      2088	80000ec8	ff7ac8e3	blt	x21,x23,80000eb8	 x21:0x0000000f x23:0x00000014
       20905000	      2089	00000000	00000013	addi	x0,x0,0	  x0:0x00000000
       20915000	      2090	80000eb4	00000013	addi	x0,x0,0	  x0:0x00000000
       20925000	      2091	80000eb8	00dd0c97	auipc	x25,0xdd0	 x25=0x80dd0eb4
       20935000	      2092	80000ebc	001a8a93	addi	x21,x21,1	 x21:0x0000000f x21=0x00000010
       20945000	      2093	80000ec0	67643413	sltiu	x8,x8,1654	  x8:0x00000001  x8=0x00000001
       20955000	      2094	80000ec4	01923833	sltu	x16,x4,x25	  x4:0x00000014 x25:0x80dd0eb4 x16=0x00000001
       20965000	      2095	80000ec8	ff7ac8e3	blt	x21,x23,80000eb8	 x21:0x00000010 x23:0x00000014
       20975000	      2096	00000000	00000013	addi	x0,x0,0	  x0:0x00000000
       20985000	      2097	80000eb4	00000013	addi	x0,x0,0	  x0:0x00000000
       20995000	      2098	80000eb8	00dd0c97	auipc	x25,0xdd0	 x25=0x80dd0eb4
       21005000	      2099	80000ebc	001a8a93	addi	x21,x21,1	 x21:0x00000010 x21=0x00000011
       21015000	      2100	80000ec0	67643413	sltiu	x8,x8,1654	  x8:0x00000001  x8=0x00000001
       21025000	      2101	80000ec4	01923833	sltu	x16,x4,x25	  x4:0x00000014 x25:0x80dd0eb4 x16=0x00000001
       21035000	      2102	80000ec8	ff7ac8e3	blt	x21,x23,80000eb8	 x21:0x00000011 x23:0x00000014
       21045000	      2103	00000000	00000013	addi	x0,x0,0	  x0:0x00000000
       21055000	      2104	80000eb4	00000013	addi	x0,x0,0	  x0:0x00000000
       21065000	      2105	80000eb8	00dd0c97	auipc	x25,0xdd0	 x25=0x80dd0eb4
       21075000	      2106	80000ebc	001a8a93	addi	x21,x21,1	 x21:0x00000011 x21=0x00000012
       21085000	      2107	80000ec0	67643413	sltiu	x8,x8,1654	  x8:0x00000001  x8=0x00000001
       21095000	      2108	80000ec4	01923833	sltu	x16,x4,x25	  x4:0x00000014 x25:0x80dd0eb4 x16=0x00000001
       21105000	      2109	80000ec8	ff7ac8e3	blt	x21,x23,80000eb8	 x21:0x00000012 x23:0x00000014
       21115000	      2110	00000000	00000013	addi	x0,x0,0	  x0:0x00000000
       21125000	      2111	80000eb4	00000013	addi	x0,x0,0	  x0:0x00000000
       21135000	      2112	80000eb8	00dd0c97	auipc	x25,0xdd0	 x25=0x80dd0eb4
       21145000	      2113	80000ebc	001a8a93	addi	x21,x21,1	 x21:0x00000012 x21=0x00000013
       21155000	      2114	80000ec0	67643413	sltiu	x8,x8,1654	  x8:0x00000001  x8=0x00000001
       21165000	      2115	80000ec4	01923833	sltu	x16,x4,x25	  x4:0x00000014 x25:0x80dd0eb4 x16=0x00000001
       21175000	      2116	80000ec8	ff7ac8e3	blt	x21,x23,80000eb8	 x21:0x00000013 x23:0x00000014
       21185000	      2117	00000000	00000013	addi	x0,x0,0	  x0:0x00000000
       21195000	      2118	80000eb4	00000013	addi	x0,x0,0	  x0:0x00000000
       21205000	      2119	80000eb8	00dd0c97	auipc	x25,0xdd0	 x25=0x80dd0eb4
       21215000	      2120	80000ebc	001a8a93	addi	x21,x21,1	 x21:0x00000013 x21=0x00000014
       21225000	      2121	80000ec0	67643413	sltiu	x8,x8,1654	  x8:0x00000001  x8=0x00000001
       21235000	      2122	80000ec4	01923833	sltu	x16,x4,x25	  x4:0x00000014 x25:0x80dd0eb4 x16=0x00000001
       21245000	      2123	80000ec8	ff7ac8e3	blt	x21,x23,80000eb8	 x21:0x00000014 x23:0x00000014
       21255000	      2124	80000ecc	fcf18ae3	beq	x3,x15,80000ea0	  x3:0xffffffeb x15:0xfffffff1
       21265000	      2125	80000ed0	0045d633	srl	x12,x11,x4	 x11:0x000000ff  x4:0x00000014 x12=0x00000000
       21275000	      2126	80000ed4	00000513	addi	x10,x0,0	  x0:0x00000000 x10=0x00000000
       21285000	      2127	80000ed8	01b8f433	and	x8,x17,x27	 x17:0x27922100 x27:0x00000200  x8=0x00000000
       21295000	      2128	80000edc	016b01b3	add	x3,x22,x22	 x22:0x3651f000 x22:0x3651f000  x3=0x6ca3e000
       21305000	      2129	80000ee0	ff400d93	addi	x27,x0,-12	  x0:0x00000000 x27=0xfffffff4
       21315000	      2130	80000ee4	64f8e193	ori	x3,x17,1615	 x17:0x27922100  x3=0x2792274f
       21325000	      2131	80000ee8	6a094b93	xori	x23,x18,1696	 x18:0x00000000 x23=0x000006a0
       21335000	      2132	80000eec	ffa50513	addi	x10,x10,-6	 x10:0x00000000 x10=0xfffffffa
       21345000	      2133	80000ef0	41eb5f33	sra	x30,x22,x30	 x22:0x3651f000 x30:0x00000000 x30=0x3651f000
       21355000	      2134	80000ef4	405fda13	srai	x20,x31,0x5	 x31:0x80009f70 x20=0xfc0004fb
       21365000	      2135	80000ef8	8b0ea813	slti	x16,x29,-1872	 x29:0xf57281ab x16=0x00000001
       21375000	      2136	80000efc	ffb514e3	bne	x10,x27,80000ee4	 x10:0xfffffffa x27:0xfffffff4
       21385000	      2137	00000000	00000013	addi	x0,x0,0	  x0:0x00000000
       21395000	      2138	80000ee0	00000013	addi	x0,x0,0	  x0:0x00000000
       21405000	      2139	80000ee4	64f8e193	ori	x3,x17,1615	 x17:0x27922100  x3=0x2792274f
       21415000	      2140	80000ee8	6a094b93	xori	x23,x18,1696	 x18:0x00000000 x23=0x000006a0
       21425000	      2141	80000eec	ffa50513	addi	x10,x10,-6	 x10:0xfffffffa x10=0xfffffff4
       21435000	      2142	80000ef0	41eb5f33	sra	x30,x22,x30	 x22:0x3651f000 x30:0x3651f000 x30=0x3651f000
       21445000	      2143	80000ef4	405fda13	srai	x20,x31,0x5	 x31:0x80009f70 x20=0xfc0004fb
       21455000	      2144	80000ef8	8b0ea813	slti	x16,x29,-1872	 x29:0xf57281ab x16=0x00000001
       21465000	      2145	80000efc	ffb514e3	bne	x10,x27,80000ee4	 x10:0xfffffff4 x27:0xfffffff4
       21475000	      2146	80000f00	01104f33	xor	x30,x0,x17	  x0:0x00000000 x17:0x27922100 x30=0x27922100
       21485000	      2147	80000f04	00300513	addi	x10,x0,3	  x0:0x00000000 x10=0x00000003
       21495000	      2148	80000f08	5e813b97	auipc	x23,0x5e813	 x23=0xde813f04
       21505000	      2149	80000f0c	00000013	addi	x0,x0,0	  x0:0x00000000
       21515000	      2150	80000f10	00f00b13	addi	x22,x0,15	  x0:0x00000000 x22=0x0000000f
       21525000	      2151	80000f14	82f6a413	slti	x8,x13,-2001	 x13:0x80009fc4  x8=0x00000001
       21535000	      2152	80000f18	01a9c0b3	xor	x1,x19,x26	 x19:0xfffffe00 x26:0x000000ff  x1=0xfffffeff
       21545000	      2153	80000f1c	01e93e33	sltu	x28,x18,x30	 x18:0x00000000 x30:0x27922100 x28=0x00000001
       21555000	      2154	80000f20	a6ba2d93	slti	x27,x20,-1429	 x20:0xfc0004fb x27=0x00000001
       21565000	      2155	80000f24	015381b3	add	x3,x7,x21	  x7:0xffff5800 x21:0x00000014  x3=0xffff5814
       21575000	      2156	80000f28	001a0733	add	x14,x20,x1	 x20:0xfc0004fb  x1:0xfffffeff x14=0xfc0003fa
       21585000	      2157	80000f2c	00150513	addi	x10,x10,1	 x10:0x00000003 x10=0x00000004
       21595000	      2158	80000f30	ae03f013	andi	x0,x7,-1312	  x7:0xffff5800
       21605000	      2159	80000f34	00000013	addi	x0,x0,0	  x0:0x00000000
       21615000	      2160	80000f38	01cf2633	slt	x12,x30,x28	 x30:0x27922100 x28:0x00000001 x12=0x00000000
       21625000	      2161	80000f3c	984b4337	lui	x6,0x984b4	  x6=0x984b4000
       21635000	      2162	80000f40	ffb00c13	addi	x24,x0,-5	  x0:0x00000000 x24=0xfffffffb
       21645000	      2163	80000f44	01e070b3	and	x1,x0,x30	  x0:0x00000000 x30:0x27922100  x1=0x00000000
       21655000	      2164	80000f48	fec00a13	addi	x20,x0,-20	  x0:0x00000000 x20=0xffffffec
       21665000	      2165	80000f4c	db097113	andi	x2,x18,-592	 x18:0x00000000  x2=0x00000000
       21675000	      2166	80000f50	01f4ff33	and	x30,x9,x31	  x9:0xe2792210 x31:0x80009f70 x30=0x80000210
       21685000	      2167	80000f54	417b8333	sub	x6,x23,x23	 x23:0xde813f04 x23:0xde813f04  x6=0x00000000
       21695000	      2168	80000f58	00475bb3	srl	x23,x14,x4	 x14:0xfc0003fa  x4:0x00000014 x23=0x00000fc0
       21705000	      2169	80000f5c	c2f26713	ori	x14,x4,-977	  x4:0x00000014 x14=0xfffffc3f
       21715000	      2170	80000f60	101af3b7	lui	x7,0x101af	  x7=0x101af000
       21725000	      2171	80000f64	ff6c0c13	addi	x24,x24,-10	 x24:0xfffffffb x24=0xfffffff1
       21735000	      2172	80000f68	00d5deb3	srl	x29,x11,x13	 x11:0x000000ff x13:0x80009fc4 x29=0x0000000f
       21745000	      2173	80000f6c	00000013	addi	x0,x0,0	  x0:0x00000000
       21755000	      2174	80000f70	011f7633	and	x12,x30,x17	 x30:0x80000210 x17:0x27922100 x12=0x00000000
       21765000	      2175	80000f74	ff4c50e3	bge	x24,x20,80000f54	 x24:0xfffffff1 x20:0xffffffec
       21775000	      2176	00000000	00000013	addi	x0,x0,0	  x0:0x00000000
       21785000	      2177	80000f50	00000013	addi	x0,x0,0	  x0:0x00000000
       21795000	      2178	80000f54	417b8333	sub	x6,x23,x23	 x23:0x00000fc0 x23:0x00000fc0  x6=0x00000000
       21805000	      2179	80000f58	00475bb3	srl	x23,x14,x4	 x14:0xfffffc3f  x4:0x00000014 x23=0x00000fff
       21815000	      2180	80000f5c	c2f26713	ori	x14,x4,-977	  x4:0x00000014 x14=0xfffffc3f
       21825000	      2181	80000f60	101af3b7	lui	x7,0x101af	  x7=0x101af000
       21835000	      2182	80000f64	ff6c0c13	addi	x24,x24,-10	 x24:0xfffffff1 x24=0xffffffe7
       21845000	      2183	80000f68	00d5deb3	srl	x29,x11,x13	 x11:0x000000ff x13:0x80009fc4 x29=0x0000000f
       21855000	      2184	80000f6c	00000013	addi	x0,x0,0	  x0:0x00000000
       21865000	      2185	80000f70	011f7633	and	x12,x30,x17	 x30:0x80000210 x17:0x27922100 x12=0x00000000
       21875000	      2186	80000f74	ff4c50e3	bge	x24,x20,80000f54	 x24:0xffffffe7 x20:0xffffffec
       21885000	      2187	80000f78	00ac1593	slli	x11,x24,0xa	 x24:0xffffffe7 x11=0xffff9c00
       21895000	      2188	80000f7c	004810b3	sll	x1,x16,x4	 x16:0x00000001  x4:0x00000014  x1=0x00100000
       21905000	      2189	80000f80	f9650ce3	beq	x10,x22,80000f18	 x10:0x00000004 x22:0x0000000f
       21915000	      2190	80000f84	00000013	addi	x0,x0,0	  x0:0x00000000
       21925000	      2191	80000f88	00100c13	addi	x24,x0,1	  x0:0x00000000 x24=0x00000001
       21935000	      2192	80000f8c	00000013	addi	x0,x0,0	  x0:0x00000000
       21945000	      2193	80000f90	01329393	slli	x7,x5,0x13	  x5:0xfffffbfe  x7=0xdff00000
       21955000	      2194	80000f94	c5554297	auipc	x5,0xc5554	  x5=0x45554f90
       21965000	      2195	80000f98	2c98e193	ori	x3,x17,713	 x17:0x27922100  x3=0x279223c9
       21975000	      2196	80000f9c	0144d233	srl	x4,x9,x20	  x9:0xe2792210 x20:0xffffffec  x4=0x000e2792
       21985000	      2197	80000fa0	00000013	addi	x0,x0,0	  x0:0x00000000
       21995000	      2198	80000fa4	92a76013	ori	x0,x14,-1750	 x14:0xfffffc3f
       22005000	      2199	80000fa8	00000013	addi	x0,x0,0	  x0:0x00000000
       22015000	      2200	80000fac	ff300513	addi	x10,x0,-13	  x0:0x00000000 x10=0xfffffff3
       22025000	      2201	80000fb0	016b0933	add	x18,x22,x22	 x22:0x0000000f x22:0x0000000f x18=0x0000001e
       22035000	      2202	80000fb4	016482b3	add	x5,x9,x22	  x9:0xe2792210 x22:0x0000000f  x5=0xe279221f
       22045000	      2203	80000fb8	80acb993	sltiu	x19,x25,-2038	 x25:0x80dd0eb4 x19=0x00000001
       22055000	      2204	80000fbc	017dd393	srli	x7,x27,0x17	 x27:0x00000001  x7=0x00000000
       22065000	      2205	80000fc0	bd6ee993	ori	x19,x29,-1066	 x29:0x0000000f x19=0xfffffbdf
       22075000	      2206	80000fc4	ed904e93	xori	x29,x0,-295	  x0:0x00000000 x29=0xfffffed9
       22085000	      2207	80000fc8	00000013	addi	x0,x0,0	  x0:0x00000000
       22095000	      2208	80000fcc	98cf0617	auipc	x12,0x98cf0	 x12=0x18cf0fc8
       22105000	      2209	80000fd0	00b6a5b3	slt	x11,x13,x11	 x13:0x80009fc4 x11:0xffff9c00 x11=0x00000001
       22115000	      2210	80000fd4	ff9c0c13	addi	x24,x24,-7	 x24:0x00000001 x24=0xfffffffa
       22125000	      2211	80000fd8	0170e933	or	x18,x1,x23	  x1:0x00100000 x23:0x00000fff x18=0x00100fff
       22135000	      2212	80000fdc	006d4433	xor	x8,x26,x6	 x26:0x000000ff  x6:0x00000000  x8=0x000000ff
       22145000	      2213	80000fe0	018a1313	slli	x6,x20,0x18	 x20:0xffffffec  x6=0xec000000
       22155000	      2214	80000fe4	fcac0ae3	beq	x24,x10,80000fb8	 x24:0xfffffffa x10:0xfffffff3
       22165000	      2215	80000fe8	0077fa33	and	x20,x15,x7	 x15:0xfffffff1  x7:0x00000000 x20=0x00000000
       22175000	      2216	80000fec	00400613	addi	x12,x0,4	  x0:0x00000000 x12=0x00000004
       22185000	      2217	80000ff0	0171d793	srli	x15,x3,0x17	  x3:0x279223c9 x15=0x0000004f
       22195000	      2218	80000ff4	fef00193	addi	x3,x0,-17	  x0:0x00000000  x3=0xffffffef
       22205000	      2219	80000ff8	00d77233	and	x4,x14,x13	 x14:0xfffffc3f x13:0x80009fc4  x4=0x80009c04
       22215000	      2220	80000ffc	f5204a13	xori	x20,x0,-174	  x0:0x00000000 x20=0xffffff52
       22225000	      2221	80001000	fff60613	addi	x12,x12,-1	 x12:0x00000004 x12=0x00000003
       22235000	      2222	80001004	409edbb3	sra	x23,x29,x9	 x29:0xfffffed9  x9:0xe2792210 x23=0xffffffff
       22245000	      2223	80001008	013da9b3	slt	x19,x27,x19	 x27:0x00000001 x19:0xfffffbdf x19=0x00000000
       22255000	      2224	8000100c	ffa00293	addi	x5,x0,-6	  x0:0x00000000  x5=0xfffffffa
       22265000	      2225	80001010	00f00d13	addi	x26,x0,15	  x0:0x00000000 x26=0x0000000f
       22275000	      2226	80001014	0027cdb3	xor	x27,x15,x2	 x15:0x0000004f  x2:0x00000000 x27=0x0000004f
       22285000	      2227	80001018	65bb7a93	andi	x21,x22,1627	 x22:0x0000000f x21=0x0000000b
       22295000	      2228	8000101c	018df7b3	and	x15,x27,x24	 x27:0x0000004f x24:0xfffffffa x15=0x0000004a
       22305000	      2229	80001020	00728293	addi	x5,x5,7	  x5:0xfffffffa  x5=0x00000001
       22315000	      2230	80001024	31133e13	sltiu	x28,x6,785	  x6:0xec000000 x28=0x00000000
       22325000	      2231	80001028	01379933	sll	x18,x15,x19	 x15:0x0000004a x19:0x00000000 x18=0x0000004a
       22335000	      2232	8000102c	00f67b33	and	x22,x12,x15	 x12:0x00000003 x15:0x0000004a x22=0x00000002
       22345000	      2233	80001030	ffa286e3	beq	x5,x26,8000101c	  x5:0x00000001 x26:0x0000000f
       22355000	      2234	80001034	001ef133	and	x2,x29,x1	 x29:0xfffffed9  x1:0x00100000  x2=0x00100000
       22365000	      2235	80001038	fc3652e3	bge	x12,x3,80000ffc	 x12:0x00000003  x3:0xffffffef
       22375000	      2236	00000000	00000013	addi	x0,x0,0	  x0:0x00000000
       22385000	      2237	80000ff8	00000013	addi	x0,x0,0	  x0:0x00000000
       22395000	      2238	80000ffc	f5204a13	xori	x20,x0,-174	  x0:0x00000000 x20=0xffffff52
       22405000	      2239	80001000	fff60613	addi	x12,x12,-1	 x12:0x00000003 x12=0x00000002
       22415000	      2240	80001004	409edbb3	sra	x23,x29,x9	 x29:0xfffffed9  x9:0xe2792210 x23=0xffffffff
       22425000	      2241	80001008	013da9b3	slt	x19,x27,x19	 x27:0x0000004f x19:0x00000000 x19=0x00000000
       22435000	      2242	8000100c	ffa00293	addi	x5,x0,-6	  x0:0x00000000  x5=0xfffffffa
       22445000	      2243	80001010	00f00d13	addi	x26,x0,15	  x0:0x00000000 x26=0x0000000f
       22455000	      2244	80001014	0027cdb3	xor	x27,x15,x2	 x15:0x0000004a  x2:0x00100000 x27=0x0010004a
       22465000	      2245	80001018	65bb7a93	andi	x21,x22,1627	 x22:0x00000002 x21=0x00000002
       22475000	      2246	8000101c	018df7b3	and	x15,x27,x24	 x27:0x0010004a x24:0xfffffffa x15=0x0010004a
       22485000	      2247	80001020	00728293	addi	x5,x5,7	  x5:0xfffffffa  x5=0x00000001
       22495000	      2248	80001024	31133e13	sltiu	x28,x6,785	  x6:0xec000000 x28=0x00000000
       22505000	      2249	80001028	01379933	sll	x18,x15,x19	 x15:0x0010004a x19:0x00000000 x18=0x0010004a
       22515000	      2250	8000102c	00f67b33	and	x22,x12,x15	 x12:0x00000002 x15:0x0010004a x22=0x00000002
       22525000	      2251	80001030	ffa286e3	beq	x5,x26,8000101c	  x5:0x00000001 x26:0x0000000f
       22535000	      2252	80001034	001ef133	and	x2,x29,x1	 x29:0xfffffed9  x1:0x00100000  x2=0x00100000
       22545000	      2253	80001038	fc3652e3	bge	x12,x3,80000ffc	 x12:0x00000002  x3:0xffffffef
       22555000	      2254	00000000	00000013	addi	x0,x0,0	  x0:0x00000000
       22565000	      2255	80000ff8	00000013	addi	x0,x0,0	  x0:0x00000000
       22575000	      2256	80000ffc	f5204a13	xori	x20,x0,-174	  x0:0x00000000 x20=0xffffff52
       22585000	      2257	80001000	fff60613	addi	x12,x12,-1	 x12:0x00000002 x12=0x00000001
       22595000	      2258	80001004	409edbb3	sra	x23,x29,x9	 x29:0xfffffed9  x9:0xe2792210 x23=0xffffffff
       22605000	      2259	80001008	013da9b3	slt	x19,x27,x19	 x27:0x0010004a x19:0x00000000 x19=0x00000000
       22615000	      2260	8000100c	ffa00293	addi	x5,x0,-6	  x0:0x00000000  x5=0xfffffffa
       22625000	      2261	80001010	00f00d13	addi	x26,x0,15	  x0:0x00000000 x26=0x0000000f
       22635000	      2262	80001014	0027cdb3	xor	x27,x15,x2	 x15:0x0010004a  x2:0x00100000 x27=0x0000004a
       22645000	      2263	80001018	65bb7a93	andi	x21,x22,1627	 x22:0x00000002 x21=0x00000002
       22655000	      2264	8000101c	018df7b3	and	x15,x27,x24	 x27:0x0000004a x24:0xfffffffa x15=0x0000004a
       22665000	      2265	80001020	00728293	addi	x5,x5,7	  x5:0xfffffffa  x5=0x00000001
       22675000	      2266	80001024	31133e13	sltiu	x28,x6,785	  x6:0xec000000 x28=0x00000000
       22685000	      2267	80001028	01379933	sll	x18,x15,x19	 x15:0x0000004a x19:0x00000000 x18=0x0000004a
       22695000	      2268	8000102c	00f67b33	and	x22,x12,x15	 x12:0x00000001 x15:0x0000004a x22=0x00000000
       22705000	      2269	80001030	ffa286e3	beq	x5,x26,8000101c	  x5:0x00000001 x26:0x0000000f
       22715000	      2270	80001034	001ef133	and	x2,x29,x1	 x29:0xfffffed9  x1:0x00100000  x2=0x00100000
       22725000	      2271	80001038	fc3652e3	bge	x12,x3,80000ffc	 x12:0x00000001  x3:0xffffffef
       22735000	      2272	00000000	00000013	addi	x0,x0,0	  x0:0x00000000
       22745000	      2273	80000ff8	00000013	addi	x0,x0,0	  x0:0x00000000
       22755000	      2274	80000ffc	f5204a13	xori	x20,x0,-174	  x0:0x00000000 x20=0xffffff52
       22765000	      2275	80001000	fff60613	addi	x12,x12,-1	 x12:0x00000001 x12=0x00000000
       22775000	      2276	80001004	409edbb3	sra	x23,x29,x9	 x29:0xfffffed9  x9:0xe2792210 x23=0xffffffff
       22785000	      2277	80001008	013da9b3	slt	x19,x27,x19	 x27:0x0000004a x19:0x00000000 x19=0x00000000
       22795000	      2278	8000100c	ffa00293	addi	x5,x0,-6	  x0:0x00000000  x5=0xfffffffa
       22805000	      2279	80001010	00f00d13	addi	x26,x0,15	  x0:0x00000000 x26=0x0000000f
       22815000	      2280	80001014	0027cdb3	xor	x27,x15,x2	 x15:0x0000004a  x2:0x00100000 x27=0x0010004a
       22825000	      2281	80001018	65bb7a93	andi	x21,x22,1627	 x22:0x00000000 x21=0x00000000
       22835000	      2282	8000101c	018df7b3	and	x15,x27,x24	 x27:0x0010004a x24:0xfffffffa x15=0x0010004a
       22845000	      2283	80001020	00728293	addi	x5,x5,7	  x5:0xfffffffa  x5=0x00000001
       22855000	      2284	80001024	31133e13	sltiu	x28,x6,785	  x6:0xec000000 x28=0x00000000
       22865000	      2285	80001028	01379933	sll	x18,x15,x19	 x15:0x0010004a x19:0x00000000 x18=0x0010004a
       22875000	      2286	8000102c	00f67b33	and	x22,x12,x15	 x12:0x00000000 x15:0x0010004a x22=0x00000000
       22885000	      2287	80001030	ffa286e3	beq	x5,x26,8000101c	  x5:0x00000001 x26:0x0000000f
       22895000	      2288	80001034	001ef133	and	x2,x29,x1	 x29:0xfffffed9  x1:0x00100000  x2=0x00100000
       22905000	      2289	80001038	fc3652e3	bge	x12,x3,80000ffc	 x12:0x00000000  x3:0xffffffef
       22915000	      2290	00000000	00000013	addi	x0,x0,0	  x0:0x00000000
       22925000	      2291	80000ff8	00000013	addi	x0,x0,0	  x0:0x00000000
       22935000	      2292	80000ffc	f5204a13	xori	x20,x0,-174	  x0:0x00000000 x20=0xffffff52
       22945000	      2293	80001000	fff60613	addi	x12,x12,-1	 x12:0x00000000 x12=0xffffffff
       22955000	      2294	80001004	409edbb3	sra	x23,x29,x9	 x29:0xfffffed9  x9:0xe2792210 x23=0xffffffff
       22965000	      2295	80001008	013da9b3	slt	x19,x27,x19	 x27:0x0010004a x19:0x00000000 x19=0x00000000
       22975000	      2296	8000100c	ffa00293	addi	x5,x0,-6	  x0:0x00000000  x5=0xfffffffa
       22985000	      2297	80001010	00f00d13	addi	x26,x0,15	  x0:0x00000000 x26=0x0000000f
       22995000	      2298	80001014	0027cdb3	xor	x27,x15,x2	 x15:0x0010004a  x2:0x00100000 x27=0x0000004a
       23005000	      2299	80001018	65bb7a93	andi	x21,x22,1627	 x22:0x00000000 x21=0x00000000
       23015000	      2300	8000101c	018df7b3	and	x15,x27,x24	 x27:0x0000004a x24:0xfffffffa x15=0x0000004a
       23025000	      2301	80001020	00728293	addi	x5,x5,7	  x5:0xfffffffa  x5=0x00000001
       23035000	      2302	80001024	31133e13	sltiu	x28,x6,785	  x6:0xec000000 x28=0x00000000
       23045000	      2303	80001028	01379933	sll	x18,x15,x19	 x15:0x0000004a x19:0x00000000 x18=0x0000004a
       23055000	      2304	8000102c	00f67b33	and	x22,x12,x15	 x12:0xffffffff x15:0x0000004a x22=0x0000004a
       23065000	      2305	80001030	ffa286e3	beq	x5,x26,8000101c	  x5:0x00000001 x26:0x0000000f
       23075000	      2306	80001034	001ef133	and	x2,x29,x1	 x29:0xfffffed9  x1:0x00100000  x2=0x00100000
       23085000	      2307	80001038	fc3652e3	bge	x12,x3,80000ffc	 x12:0xffffffff  x3:0xffffffef
       23095000	      2308	00000000	00000013	addi	x0,x0,0	  x0:0x00000000
       23105000	      2309	80000ff8	00000013	addi	x0,x0,0	  x0:0x00000000
       23115000	      2310	80000ffc	f5204a13	xori	x20,x0,-174	  x0:0x00000000 x20=0xffffff52
       23125000	      2311	80001000	fff60613	addi	x12,x12,-1	 x12:0xffffffff x12=0xfffffffe
       23135000	      2312	80001004	409edbb3	sra	x23,x29,x9	 x29:0xfffffed9  x9:0xe2792210 x23=0xffffffff
       23145000	      2313	80001008	013da9b3	slt	x19,x27,x19	 x27:0x0000004a x19:0x00000000 x19=0x00000000
       23155000	      2314	8000100c	ffa00293	addi	x5,x0,-6	  x0:0x00000000  x5=0xfffffffa
       23165000	      2315	80001010	00f00d13	addi	x26,x0,15	  x0:0x00000000 x26=0x0000000f
       23175000	      2316	80001014	0027cdb3	xor	x27,x15,x2	 x15:0x0000004a  x2:0x00100000 x27=0x0010004a
       23185000	      2317	80001018	65bb7a93	andi	x21,x22,1627	 x22:0x0000004a x21=0x0000004a
       23195000	      2318	8000101c	018df7b3	and	x15,x27,x24	 x27:0x0010004a x24:0xfffffffa x15=0x0010004a
       23205000	      2319	80001020	00728293	addi	x5,x5,7	  x5:0xfffffffa  x5=0x00000001
       23215000	      2320	80001024	31133e13	sltiu	x28,x6,785	  x6:0xec000000 x28=0x00000000
       23225000	      2321	80001028	01379933	sll	x18,x15,x19	 x15:0x0010004a x19:0x00000000 x18=0x0010004a
       23235000	      2322	8000102c	00f67b33	and	x22,x12,x15	 x12:0xfffffffe x15:0x0010004a x22=0x0010004a
       23245000	      2323	80001030	ffa286e3	beq	x5,x26,8000101c	  x5:0x00000001 x26:0x0000000f
       23255000	      2324	80001034	001ef133	and	x2,x29,x1	 x29:0xfffffed9  x1:0x00100000  x2=0x00100000
       23265000	      2325	80001038	fc3652e3	bge	x12,x3,80000ffc	 x12:0xfffffffe  x3:0xffffffef
       23275000	      2326	00000000	00000013	addi	x0,x0,0	  x0:0x00000000
       23285000	      2327	80000ff8	00000013	addi	x0,x0,0	  x0:0x00000000
       23295000	      2328	80000ffc	f5204a13	xori	x20,x0,-174	  x0:0x00000000 x20=0xffffff52
       23305000	      2329	80001000	fff60613	addi	x12,x12,-1	 x12:0xfffffffe x12=0xfffffffd
       23315000	      2330	80001004	409edbb3	sra	x23,x29,x9	 x29:0xfffffed9  x9:0xe2792210 x23=0xffffffff
       23325000	      2331	80001008	013da9b3	slt	x19,x27,x19	 x27:0x0010004a x19:0x00000000 x19=0x00000000
       23335000	      2332	8000100c	ffa00293	addi	x5,x0,-6	  x0:0x00000000  x5=0xfffffffa
       23345000	      2333	80001010	00f00d13	addi	x26,x0,15	  x0:0x00000000 x26=0x0000000f
       23355000	      2334	80001014	0027cdb3	xor	x27,x15,x2	 x15:0x0010004a  x2:0x00100000 x27=0x0000004a
       23365000	      2335	80001018	65bb7a93	andi	x21,x22,1627	 x22:0x0010004a x21=0x0000004a
       23375000	      2336	8000101c	018df7b3	and	x15,x27,x24	 x27:0x0000004a x24:0xfffffffa x15=0x0000004a
       23385000	      2337	80001020	00728293	addi	x5,x5,7	  x5:0xfffffffa  x5=0x00000001
       23395000	      2338	80001024	31133e13	sltiu	x28,x6,785	  x6:0xec000000 x28=0x00000000
       23405000	      2339	80001028	01379933	sll	x18,x15,x19	 x15:0x0000004a x19:0x00000000 x18=0x0000004a
       23415000	      2340	8000102c	00f67b33	and	x22,x12,x15	 x12:0xfffffffd x15:0x0000004a x22=0x00000048
       23425000	      2341	80001030	ffa286e3	beq	x5,x26,8000101c	  x5:0x00000001 x26:0x0000000f
       23435000	      2342	80001034	001ef133	and	x2,x29,x1	 x29:0xfffffed9  x1:0x00100000  x2=0x00100000
       23445000	      2343	80001038	fc3652e3	bge	x12,x3,80000ffc	 x12:0xfffffffd  x3:0xffffffef
       23455000	      2344	00000000	00000013	addi	x0,x0,0	  x0:0x00000000
       23465000	      2345	80000ff8	00000013	addi	x0,x0,0	  x0:0x00000000
       23475000	      2346	80000ffc	f5204a13	xori	x20,x0,-174	  x0:0x00000000 x20=0xffffff52
       23485000	      2347	80001000	fff60613	addi	x12,x12,-1	 x12:0xfffffffd x12=0xfffffffc
       23495000	      2348	80001004	409edbb3	sra	x23,x29,x9	 x29:0xfffffed9  x9:0xe2792210 x23=0xffffffff
       23505000	      2349	80001008	013da9b3	slt	x19,x27,x19	 x27:0x0000004a x19:0x00000000 x19=0x00000000
       23515000	      2350	8000100c	ffa00293	addi	x5,x0,-6	  x0:0x00000000  x5=0xfffffffa
       23525000	      2351	80001010	00f00d13	addi	x26,x0,15	  x0:0x00000000 x26=0x0000000f
       23535000	      2352	80001014	0027cdb3	xor	x27,x15,x2	 x15:0x0000004a  x2:0x00100000 x27=0x0010004a
       23545000	      2353	80001018	65bb7a93	andi	x21,x22,1627	 x22:0x00000048 x21=0x00000048
       23555000	      2354	8000101c	018df7b3	and	x15,x27,x24	 x27:0x0010004a x24:0xfffffffa x15=0x0010004a
       23565000	      2355	80001020	00728293	addi	x5,x5,7	  x5:0xfffffffa  x5=0x00000001
       23575000	      2356	80001024	31133e13	sltiu	x28,x6,785	  x6:0xec000000 x28=0x00000000
       23585000	      2357	80001028	01379933	sll	x18,x15,x19	 x15:0x0010004a x19:0x00000000 x18=0x0010004a
       23595000	      2358	8000102c	00f67b33	and	x22,x12,x15	 x12:0xfffffffc x15:0x0010004a x22=0x00100048
       23605000	      2359	80001030	ffa286e3	beq	x5,x26,8000101c	  x5:0x00000001 x26:0x0000000f
       23615000	      2360	80001034	001ef133	and	x2,x29,x1	 x29:0xfffffed9  x1:0x00100000  x2=0x00100000
       23625000	      2361	80001038	fc3652e3	bge	x12,x3,80000ffc	 x12:0xfffffffc  x3:0xffffffef
       23635000	      2362	00000000	00000013	addi	x0,x0,0	  x0:0x00000000
       23645000	      2363	80000ff8	00000013	addi	x0,x0,0	  x0:0x00000000
       23655000	      2364	80000ffc	f5204a13	xori	x20,x0,-174	  x0:0x00000000 x20=0xffffff52
       23665000	      2365	80001000	fff60613	addi	x12,x12,-1	 x12:0xfffffffc x12=0xfffffffb
       23675000	      2366	80001004	409edbb3	sra	x23,x29,x9	 x29:0xfffffed9  x9:0xe2792210 x23=0xffffffff
       23685000	      2367	80001008	013da9b3	slt	x19,x27,x19	 x27:0x0010004a x19:0x00000000 x19=0x00000000
       23695000	      2368	8000100c	ffa00293	addi	x5,x0,-6	  x0:0x00000000  x5=0xfffffffa
       23705000	      2369	80001010	00f00d13	addi	x26,x0,15	  x0:0x00000000 x26=0x0000000f
       23715000	      2370	80001014	0027cdb3	xor	x27,x15,x2	 x15:0x0010004a  x2:0x00100000 x27=0x0000004a
       23725000	      2371	80001018	65bb7a93	andi	x21,x22,1627	 x22:0x00100048 x21=0x00000048
       23735000	      2372	8000101c	018df7b3	and	x15,x27,x24	 x27:0x0000004a x24:0xfffffffa x15=0x0000004a
       23745000	      2373	80001020	00728293	addi	x5,x5,7	  x5:0xfffffffa  x5=0x00000001
       23755000	      2374	80001024	31133e13	sltiu	x28,x6,785	  x6:0xec000000 x28=0x00000000
       23765000	      2375	80001028	01379933	sll	x18,x15,x19	 x15:0x0000004a x19:0x00000000 x18=0x0000004a
       23775000	      2376	8000102c	00f67b33	and	x22,x12,x15	 x12:0xfffffffb x15:0x0000004a x22=0x0000004a
       23785000	      2377	80001030	ffa286e3	beq	x5,x26,8000101c	  x5:0x00000001 x26:0x0000000f
       23795000	      2378	80001034	001ef133	and	x2,x29,x1	 x29:0xfffffed9  x1:0x00100000  x2=0x00100000
       23805000	      2379	80001038	fc3652e3	bge	x12,x3,80000ffc	 x12:0xfffffffb  x3:0xffffffef
       23815000	      2380	00000000	00000013	addi	x0,x0,0	  x0:0x00000000
       23825000	      2381	80000ff8	00000013	addi	x0,x0,0	  x0:0x00000000
       23835000	      2382	80000ffc	f5204a13	xori	x20,x0,-174	  x0:0x00000000 x20=0xffffff52
       23845000	      2383	80001000	fff60613	addi	x12,x12,-1	 x12:0xfffffffb x12=0xfffffffa
       23855000	      2384	80001004	409edbb3	sra	x23,x29,x9	 x29:0xfffffed9  x9:0xe2792210 x23=0xffffffff
       23865000	      2385	80001008	013da9b3	slt	x19,x27,x19	 x27:0x0000004a x19:0x00000000 x19=0x00000000
       23875000	      2386	8000100c	ffa00293	addi	x5,x0,-6	  x0:0x00000000  x5=0xfffffffa
       23885000	      2387	80001010	00f00d13	addi	x26,x0,15	  x0:0x00000000 x26=0x0000000f
       23895000	      2388	80001014	0027cdb3	xor	x27,x15,x2	 x15:0x0000004a  x2:0x00100000 x27=0x0010004a
       23905000	      2389	80001018	65bb7a93	andi	x21,x22,1627	 x22:0x0000004a x21=0x0000004a
       23915000	      2390	8000101c	018df7b3	and	x15,x27,x24	 x27:0x0010004a x24:0xfffffffa x15=0x0010004a
       23925000	      2391	80001020	00728293	addi	x5,x5,7	  x5:0xfffffffa  x5=0x00000001
       23935000	      2392	80001024	31133e13	sltiu	x28,x6,785	  x6:0xec000000 x28=0x00000000
       23945000	      2393	80001028	01379933	sll	x18,x15,x19	 x15:0x0010004a x19:0x00000000 x18=0x0010004a
       23955000	      2394	8000102c	00f67b33	and	x22,x12,x15	 x12:0xfffffffa x15:0x0010004a x22=0x0010004a
       23965000	      2395	80001030	ffa286e3	beq	x5,x26,8000101c	  x5:0x00000001 x26:0x0000000f
       23975000	      2396	80001034	001ef133	and	x2,x29,x1	 x29:0xfffffed9  x1:0x00100000  x2=0x00100000
       23985000	      2397	80001038	fc3652e3	bge	x12,x3,80000ffc	 x12:0xfffffffa  x3:0xffffffef
       23995000	      2398	00000000	00000013	addi	x0,x0,0	  x0:0x00000000
       24005000	      2399	80000ff8	00000013	addi	x0,x0,0	  x0:0x00000000
       24015000	      2400	80000ffc	f5204a13	xori	x20,x0,-174	  x0:0x00000000 x20=0xffffff52
       24025000	      2401	80001000	fff60613	addi	x12,x12,-1	 x12:0xfffffffa x12=0xfffffff9
       24035000	      2402	80001004	409edbb3	sra	x23,x29,x9	 x29:0xfffffed9  x9:0xe2792210 x23=0xffffffff
       24045000	      2403	80001008	013da9b3	slt	x19,x27,x19	 x27:0x0010004a x19:0x00000000 x19=0x00000000
       24055000	      2404	8000100c	ffa00293	addi	x5,x0,-6	  x0:0x00000000  x5=0xfffffffa
       24065000	      2405	80001010	00f00d13	addi	x26,x0,15	  x0:0x00000000 x26=0x0000000f
       24075000	      2406	80001014	0027cdb3	xor	x27,x15,x2	 x15:0x0010004a  x2:0x00100000 x27=0x0000004a
       24085000	      2407	80001018	65bb7a93	andi	x21,x22,1627	 x22:0x0010004a x21=0x0000004a
       24095000	      2408	8000101c	018df7b3	and	x15,x27,x24	 x27:0x0000004a x24:0xfffffffa x15=0x0000004a
       24105000	      2409	80001020	00728293	addi	x5,x5,7	  x5:0xfffffffa  x5=0x00000001
       24115000	      2410	80001024	31133e13	sltiu	x28,x6,785	  x6:0xec000000 x28=0x00000000
       24125000	      2411	80001028	01379933	sll	x18,x15,x19	 x15:0x0000004a x19:0x00000000 x18=0x0000004a
       24135000	      2412	8000102c	00f67b33	and	x22,x12,x15	 x12:0xfffffff9 x15:0x0000004a x22=0x00000048
       24145000	      2413	80001030	ffa286e3	beq	x5,x26,8000101c	  x5:0x00000001 x26:0x0000000f
       24155000	      2414	80001034	001ef133	and	x2,x29,x1	 x29:0xfffffed9  x1:0x00100000  x2=0x00100000
       24165000	      2415	80001038	fc3652e3	bge	x12,x3,80000ffc	 x12:0xfffffff9  x3:0xffffffef
       24175000	      2416	00000000	00000013	addi	x0,x0,0	  x0:0x00000000
       24185000	      2417	80000ff8	00000013	addi	x0,x0,0	  x0:0x00000000
       24195000	      2418	80000ffc	f5204a13	xori	x20,x0,-174	  x0:0x00000000 x20=0xffffff52
       24205000	      2419	80001000	fff60613	addi	x12,x12,-1	 x12:0xfffffff9 x12=0xfffffff8
       24215000	      2420	80001004	409edbb3	sra	x23,x29,x9	 x29:0xfffffed9  x9:0xe2792210 x23=0xffffffff
       24225000	      2421	80001008	013da9b3	slt	x19,x27,x19	 x27:0x0000004a x19:0x00000000 x19=0x00000000
       24235000	      2422	8000100c	ffa00293	addi	x5,x0,-6	  x0:0x00000000  x5=0xfffffffa
       24245000	      2423	80001010	00f00d13	addi	x26,x0,15	  x0:0x00000000 x26=0x0000000f
       24255000	      2424	80001014	0027cdb3	xor	x27,x15,x2	 x15:0x0000004a  x2:0x00100000 x27=0x0010004a
       24265000	      2425	80001018	65bb7a93	andi	x21,x22,1627	 x22:0x00000048 x21=0x00000048
       24275000	      2426	8000101c	018df7b3	and	x15,x27,x24	 x27:0x0010004a x24:0xfffffffa x15=0x0010004a
       24285000	      2427	80001020	00728293	addi	x5,x5,7	  x5:0xfffffffa  x5=0x00000001
       24295000	      2428	80001024	31133e13	sltiu	x28,x6,785	  x6:0xec000000 x28=0x00000000
       24305000	      2429	80001028	01379933	sll	x18,x15,x19	 x15:0x0010004a x19:0x00000000 x18=0x0010004a
       24315000	      2430	8000102c	00f67b33	and	x22,x12,x15	 x12:0xfffffff8 x15:0x0010004a x22=0x00100048
       24325000	      2431	80001030	ffa286e3	beq	x5,x26,8000101c	  x5:0x00000001 x26:0x0000000f
       24335000	      2432	80001034	001ef133	and	x2,x29,x1	 x29:0xfffffed9  x1:0x00100000  x2=0x00100000
       24345000	      2433	80001038	fc3652e3	bge	x12,x3,80000ffc	 x12:0xfffffff8  x3:0xffffffef
       24355000	      2434	00000000	00000013	addi	x0,x0,0	  x0:0x00000000
       24365000	      2435	80000ff8	00000013	addi	x0,x0,0	  x0:0x00000000
       24375000	      2436	80000ffc	f5204a13	xori	x20,x0,-174	  x0:0x00000000 x20=0xffffff52
       24385000	      2437	80001000	fff60613	addi	x12,x12,-1	 x12:0xfffffff8 x12=0xfffffff7
       24395000	      2438	80001004	409edbb3	sra	x23,x29,x9	 x29:0xfffffed9  x9:0xe2792210 x23=0xffffffff
       24405000	      2439	80001008	013da9b3	slt	x19,x27,x19	 x27:0x0010004a x19:0x00000000 x19=0x00000000
       24415000	      2440	8000100c	ffa00293	addi	x5,x0,-6	  x0:0x00000000  x5=0xfffffffa
       24425000	      2441	80001010	00f00d13	addi	x26,x0,15	  x0:0x00000000 x26=0x0000000f
       24435000	      2442	80001014	0027cdb3	xor	x27,x15,x2	 x15:0x0010004a  x2:0x00100000 x27=0x0000004a
       24445000	      2443	80001018	65bb7a93	andi	x21,x22,1627	 x22:0x00100048 x21=0x00000048
       24455000	      2444	8000101c	018df7b3	and	x15,x27,x24	 x27:0x0000004a x24:0xfffffffa x15=0x0000004a
       24465000	      2445	80001020	00728293	addi	x5,x5,7	  x5:0xfffffffa  x5=0x00000001
       24475000	      2446	80001024	31133e13	sltiu	x28,x6,785	  x6:0xec000000 x28=0x00000000
       24485000	      2447	80001028	01379933	sll	x18,x15,x19	 x15:0x0000004a x19:0x00000000 x18=0x0000004a
       24495000	      2448	8000102c	00f67b33	and	x22,x12,x15	 x12:0xfffffff7 x15:0x0000004a x22=0x00000042
       24505000	      2449	80001030	ffa286e3	beq	x5,x26,8000101c	  x5:0x00000001 x26:0x0000000f
       24515000	      2450	80001034	001ef133	and	x2,x29,x1	 x29:0xfffffed9  x1:0x00100000  x2=0x00100000
       24525000	      2451	80001038	fc3652e3	bge	x12,x3,80000ffc	 x12:0xfffffff7  x3:0xffffffef
       24535000	      2452	00000000	00000013	addi	x0,x0,0	  x0:0x00000000
       24545000	      2453	80000ff8	00000013	addi	x0,x0,0	  x0:0x00000000
       24555000	      2454	80000ffc	f5204a13	xori	x20,x0,-174	  x0:0x00000000 x20=0xffffff52
       24565000	      2455	80001000	fff60613	addi	x12,x12,-1	 x12:0xfffffff7 x12=0xfffffff6
       24575000	      2456	80001004	409edbb3	sra	x23,x29,x9	 x29:0xfffffed9  x9:0xe2792210 x23=0xffffffff
       24585000	      2457	80001008	013da9b3	slt	x19,x27,x19	 x27:0x0000004a x19:0x00000000 x19=0x00000000
       24595000	      2458	8000100c	ffa00293	addi	x5,x0,-6	  x0:0x00000000  x5=0xfffffffa
       24605000	      2459	80001010	00f00d13	addi	x26,x0,15	  x0:0x00000000 x26=0x0000000f
       24615000	      2460	80001014	0027cdb3	xor	x27,x15,x2	 x15:0x0000004a  x2:0x00100000 x27=0x0010004a
       24625000	      2461	80001018	65bb7a93	andi	x21,x22,1627	 x22:0x00000042 x21=0x00000042
       24635000	      2462	8000101c	018df7b3	and	x15,x27,x24	 x27:0x0010004a x24:0xfffffffa x15=0x0010004a
       24645000	      2463	80001020	00728293	addi	x5,x5,7	  x5:0xfffffffa  x5=0x00000001
       24655000	      2464	80001024	31133e13	sltiu	x28,x6,785	  x6:0xec000000 x28=0x00000000
       24665000	      2465	80001028	01379933	sll	x18,x15,x19	 x15:0x0010004a x19:0x00000000 x18=0x0010004a
       24675000	      2466	8000102c	00f67b33	and	x22,x12,x15	 x12:0xfffffff6 x15:0x0010004a x22=0x00100042
       24685000	      2467	80001030	ffa286e3	beq	x5,x26,8000101c	  x5:0x00000001 x26:0x0000000f
       24695000	      2468	80001034	001ef133	and	x2,x29,x1	 x29:0xfffffed9  x1:0x00100000  x2=0x00100000
       24705000	      2469	80001038	fc3652e3	bge	x12,x3,80000ffc	 x12:0xfffffff6  x3:0xffffffef
       24715000	      2470	00000000	00000013	addi	x0,x0,0	  x0:0x00000000
       24725000	      2471	80000ff8	00000013	addi	x0,x0,0	  x0:0x00000000
       24735000	      2472	80000ffc	f5204a13	xori	x20,x0,-174	  x0:0x00000000 x20=0xffffff52
       24745000	      2473	80001000	fff60613	addi	x12,x12,-1	 x12:0xfffffff6 x12=0xfffffff5
       24755000	      2474	80001004	409edbb3	sra	x23,x29,x9	 x29:0xfffffed9  x9:0xe2792210 x23=0xffffffff
       24765000	      2475	80001008	013da9b3	slt	x19,x27,x19	 x27:0x0010004a x19:0x00000000 x19=0x00000000
       24775000	      2476	8000100c	ffa00293	addi	x5,x0,-6	  x0:0x00000000  x5=0xfffffffa
       24785000	      2477	80001010	00f00d13	addi	x26,x0,15	  x0:0x00000000 x26=0x0000000f
       24795000	      2478	80001014	0027cdb3	xor	x27,x15,x2	 x15:0x0010004a  x2:0x00100000 x27=0x0000004a
       24805000	      2479	80001018	65bb7a93	andi	x21,x22,1627	 x22:0x00100042 x21=0x00000042
       24815000	      2480	8000101c	018df7b3	and	x15,x27,x24	 x27:0x0000004a x24:0xfffffffa x15=0x0000004a
       24825000	      2481	80001020	00728293	addi	x5,x5,7	  x5:0xfffffffa  x5=0x00000001
       24835000	      2482	80001024	31133e13	sltiu	x28,x6,785	  x6:0xec000000 x28=0x00000000
       24845000	      2483	80001028	01379933	sll	x18,x15,x19	 x15:0x0000004a x19:0x00000000 x18=0x0000004a
       24855000	      2484	8000102c	00f67b33	and	x22,x12,x15	 x12:0xfffffff5 x15:0x0000004a x22=0x00000040
       24865000	      2485	80001030	ffa286e3	beq	x5,x26,8000101c	  x5:0x00000001 x26:0x0000000f
       24875000	      2486	80001034	001ef133	and	x2,x29,x1	 x29:0xfffffed9  x1:0x00100000  x2=0x00100000
       24885000	      2487	80001038	fc3652e3	bge	x12,x3,80000ffc	 x12:0xfffffff5  x3:0xffffffef
       24895000	      2488	00000000	00000013	addi	x0,x0,0	  x0:0x00000000
       24905000	      2489	80000ff8	00000013	addi	x0,x0,0	  x0:0x00000000
       24915000	      2490	80000ffc	f5204a13	xori	x20,x0,-174	  x0:0x00000000 x20=0xffffff52
       24925000	      2491	80001000	fff60613	addi	x12,x12,-1	 x12:0xfffffff5 x12=0xfffffff4
       24935000	      2492	80001004	409edbb3	sra	x23,x29,x9	 x29:0xfffffed9  x9:0xe2792210 x23=0xffffffff
       24945000	      2493	80001008	013da9b3	slt	x19,x27,x19	 x27:0x0000004a x19:0x00000000 x19=0x00000000
       24955000	      2494	8000100c	ffa00293	addi	x5,x0,-6	  x0:0x00000000  x5=0xfffffffa
       24965000	      2495	80001010	00f00d13	addi	x26,x0,15	  x0:0x00000000 x26=0x0000000f
       24975000	      2496	80001014	0027cdb3	xor	x27,x15,x2	 x15:0x0000004a  x2:0x00100000 x27=0x0010004a
       24985000	      2497	80001018	65bb7a93	andi	x21,x22,1627	 x22:0x00000040 x21=0x00000040
       24995000	      2498	8000101c	018df7b3	and	x15,x27,x24	 x27:0x0010004a x24:0xfffffffa x15=0x0010004a
       25005000	      2499	80001020	00728293	addi	x5,x5,7	  x5:0xfffffffa  x5=0x00000001
       25015000	      2500	80001024	31133e13	sltiu	x28,x6,785	  x6:0xec000000 x28=0x00000000
       25025000	      2501	80001028	01379933	sll	x18,x15,x19	 x15:0x0010004a x19:0x00000000 x18=0x0010004a
       25035000	      2502	8000102c	00f67b33	and	x22,x12,x15	 x12:0xfffffff4 x15:0x0010004a x22=0x00100040
       25045000	      2503	80001030	ffa286e3	beq	x5,x26,8000101c	  x5:0x00000001 x26:0x0000000f
       25055000	      2504	80001034	001ef133	and	x2,x29,x1	 x29:0xfffffed9  x1:0x00100000  x2=0x00100000
       25065000	      2505	80001038	fc3652e3	bge	x12,x3,80000ffc	 x12:0xfffffff4  x3:0xffffffef
       25075000	      2506	00000000	00000013	addi	x0,x0,0	  x0:0x00000000
       25085000	      2507	80000ff8	00000013	addi	x0,x0,0	  x0:0x00000000
       25095000	      2508	80000ffc	f5204a13	xori	x20,x0,-174	  x0:0x00000000 x20=0xffffff52
       25105000	      2509	80001000	fff60613	addi	x12,x12,-1	 x12:0xfffffff4 x12=0xfffffff3
       25115000	      2510	80001004	409edbb3	sra	x23,x29,x9	 x29:0xfffffed9  x9:0xe2792210 x23=0xffffffff
       25125000	      2511	80001008	013da9b3	slt	x19,x27,x19	 x27:0x0010004a x19:0x00000000 x19=0x00000000
       25135000	      2512	8000100c	ffa00293	addi	x5,x0,-6	  x0:0x00000000  x5=0xfffffffa
       25145000	      2513	80001010	00f00d13	addi	x26,x0,15	  x0:0x00000000 x26=0x0000000f
       25155000	      2514	80001014	0027cdb3	xor	x27,x15,x2	 x15:0x0010004a  x2:0x00100000 x27=0x0000004a
       25165000	      2515	80001018	65bb7a93	andi	x21,x22,1627	 x22:0x00100040 x21=0x00000040
       25175000	      2516	8000101c	018df7b3	and	x15,x27,x24	 x27:0x0000004a x24:0xfffffffa x15=0x0000004a
       25185000	      2517	80001020	00728293	addi	x5,x5,7	  x5:0xfffffffa  x5=0x00000001
       25195000	      2518	80001024	31133e13	sltiu	x28,x6,785	  x6:0xec000000 x28=0x00000000
       25205000	      2519	80001028	01379933	sll	x18,x15,x19	 x15:0x0000004a x19:0x00000000 x18=0x0000004a
       25215000	      2520	8000102c	00f67b33	and	x22,x12,x15	 x12:0xfffffff3 x15:0x0000004a x22=0x00000042
       25225000	      2521	80001030	ffa286e3	beq	x5,x26,8000101c	  x5:0x00000001 x26:0x0000000f
       25235000	      2522	80001034	001ef133	and	x2,x29,x1	 x29:0xfffffed9  x1:0x00100000  x2=0x00100000
       25245000	      2523	80001038	fc3652e3	bge	x12,x3,80000ffc	 x12:0xfffffff3  x3:0xffffffef
       25255000	      2524	00000000	00000013	addi	x0,x0,0	  x0:0x00000000
       25265000	      2525	80000ff8	00000013	addi	x0,x0,0	  x0:0x00000000
       25275000	      2526	80000ffc	f5204a13	xori	x20,x0,-174	  x0:0x00000000 x20=0xffffff52
       25285000	      2527	80001000	fff60613	addi	x12,x12,-1	 x12:0xfffffff3 x12=0xfffffff2
       25295000	      2528	80001004	409edbb3	sra	x23,x29,x9	 x29:0xfffffed9  x9:0xe2792210 x23=0xffffffff
       25305000	      2529	80001008	013da9b3	slt	x19,x27,x19	 x27:0x0000004a x19:0x00000000 x19=0x00000000
       25315000	      2530	8000100c	ffa00293	addi	x5,x0,-6	  x0:0x00000000  x5=0xfffffffa
       25325000	      2531	80001010	00f00d13	addi	x26,x0,15	  x0:0x00000000 x26=0x0000000f
       25335000	      2532	80001014	0027cdb3	xor	x27,x15,x2	 x15:0x0000004a  x2:0x00100000 x27=0x0010004a
       25345000	      2533	80001018	65bb7a93	andi	x21,x22,1627	 x22:0x00000042 x21=0x00000042
       25355000	      2534	8000101c	018df7b3	and	x15,x27,x24	 x27:0x0010004a x24:0xfffffffa x15=0x0010004a
       25365000	      2535	80001020	00728293	addi	x5,x5,7	  x5:0xfffffffa  x5=0x00000001
       25375000	      2536	80001024	31133e13	sltiu	x28,x6,785	  x6:0xec000000 x28=0x00000000
       25385000	      2537	80001028	01379933	sll	x18,x15,x19	 x15:0x0010004a x19:0x00000000 x18=0x0010004a
       25395000	      2538	8000102c	00f67b33	and	x22,x12,x15	 x12:0xfffffff2 x15:0x0010004a x22=0x00100042
       25405000	      2539	80001030	ffa286e3	beq	x5,x26,8000101c	  x5:0x00000001 x26:0x0000000f
       25415000	      2540	80001034	001ef133	and	x2,x29,x1	 x29:0xfffffed9  x1:0x00100000  x2=0x00100000
       25425000	      2541	80001038	fc3652e3	bge	x12,x3,80000ffc	 x12:0xfffffff2  x3:0xffffffef
       25435000	      2542	00000000	00000013	addi	x0,x0,0	  x0:0x00000000
       25445000	      2543	80000ff8	00000013	addi	x0,x0,0	  x0:0x00000000
       25455000	      2544	80000ffc	f5204a13	xori	x20,x0,-174	  x0:0x00000000 x20=0xffffff52
       25465000	      2545	80001000	fff60613	addi	x12,x12,-1	 x12:0xfffffff2 x12=0xfffffff1
       25475000	      2546	80001004	409edbb3	sra	x23,x29,x9	 x29:0xfffffed9  x9:0xe2792210 x23=0xffffffff
       25485000	      2547	80001008	013da9b3	slt	x19,x27,x19	 x27:0x0010004a x19:0x00000000 x19=0x00000000
       25495000	      2548	8000100c	ffa00293	addi	x5,x0,-6	  x0:0x00000000  x5=0xfffffffa
       25505000	      2549	80001010	00f00d13	addi	x26,x0,15	  x0:0x00000000 x26=0x0000000f
       25515000	      2550	80001014	0027cdb3	xor	x27,x15,x2	 x15:0x0010004a  x2:0x00100000 x27=0x0000004a
       25525000	      2551	80001018	65bb7a93	andi	x21,x22,1627	 x22:0x00100042 x21=0x00000042
       25535000	      2552	8000101c	018df7b3	and	x15,x27,x24	 x27:0x0000004a x24:0xfffffffa x15=0x0000004a
       25545000	      2553	80001020	00728293	addi	x5,x5,7	  x5:0xfffffffa  x5=0x00000001
       25555000	      2554	80001024	31133e13	sltiu	x28,x6,785	  x6:0xec000000 x28=0x00000000
       25565000	      2555	80001028	01379933	sll	x18,x15,x19	 x15:0x0000004a x19:0x00000000 x18=0x0000004a
       25575000	      2556	8000102c	00f67b33	and	x22,x12,x15	 x12:0xfffffff1 x15:0x0000004a x22=0x00000040
       25585000	      2557	80001030	ffa286e3	beq	x5,x26,8000101c	  x5:0x00000001 x26:0x0000000f
       25595000	      2558	80001034	001ef133	and	x2,x29,x1	 x29:0xfffffed9  x1:0x00100000  x2=0x00100000
       25605000	      2559	80001038	fc3652e3	bge	x12,x3,80000ffc	 x12:0xfffffff1  x3:0xffffffef
       25615000	      2560	00000000	00000013	addi	x0,x0,0	  x0:0x00000000
       25625000	      2561	80000ff8	00000013	addi	x0,x0,0	  x0:0x00000000
       25635000	      2562	80000ffc	f5204a13	xori	x20,x0,-174	  x0:0x00000000 x20=0xffffff52
       25645000	      2563	80001000	fff60613	addi	x12,x12,-1	 x12:0xfffffff1 x12=0xfffffff0
       25655000	      2564	80001004	409edbb3	sra	x23,x29,x9	 x29:0xfffffed9  x9:0xe2792210 x23=0xffffffff
       25665000	      2565	80001008	013da9b3	slt	x19,x27,x19	 x27:0x0000004a x19:0x00000000 x19=0x00000000
       25675000	      2566	8000100c	ffa00293	addi	x5,x0,-6	  x0:0x00000000  x5=0xfffffffa
       25685000	      2567	80001010	00f00d13	addi	x26,x0,15	  x0:0x00000000 x26=0x0000000f
       25695000	      2568	80001014	0027cdb3	xor	x27,x15,x2	 x15:0x0000004a  x2:0x00100000 x27=0x0010004a
       25705000	      2569	80001018	65bb7a93	andi	x21,x22,1627	 x22:0x00000040 x21=0x00000040
       25715000	      2570	8000101c	018df7b3	and	x15,x27,x24	 x27:0x0010004a x24:0xfffffffa x15=0x0010004a
       25725000	      2571	80001020	00728293	addi	x5,x5,7	  x5:0xfffffffa  x5=0x00000001
       25735000	      2572	80001024	31133e13	sltiu	x28,x6,785	  x6:0xec000000 x28=0x00000000
       25745000	      2573	80001028	01379933	sll	x18,x15,x19	 x15:0x0010004a x19:0x00000000 x18=0x0010004a
       25755000	      2574	8000102c	00f67b33	and	x22,x12,x15	 x12:0xfffffff0 x15:0x0010004a x22=0x00100040
       25765000	      2575	80001030	ffa286e3	beq	x5,x26,8000101c	  x5:0x00000001 x26:0x0000000f
       25775000	      2576	80001034	001ef133	and	x2,x29,x1	 x29:0xfffffed9  x1:0x00100000  x2=0x00100000
       25785000	      2577	80001038	fc3652e3	bge	x12,x3,80000ffc	 x12:0xfffffff0  x3:0xffffffef
       25795000	      2578	00000000	00000013	addi	x0,x0,0	  x0:0x00000000
       25805000	      2579	80000ff8	00000013	addi	x0,x0,0	  x0:0x00000000
       25815000	      2580	80000ffc	f5204a13	xori	x20,x0,-174	  x0:0x00000000 x20=0xffffff52
       25825000	      2581	80001000	fff60613	addi	x12,x12,-1	 x12:0xfffffff0 x12=0xffffffef
       25835000	      2582	80001004	409edbb3	sra	x23,x29,x9	 x29:0xfffffed9  x9:0xe2792210 x23=0xffffffff
       25845000	      2583	80001008	013da9b3	slt	x19,x27,x19	 x27:0x0010004a x19:0x00000000 x19=0x00000000
       25855000	      2584	8000100c	ffa00293	addi	x5,x0,-6	  x0:0x00000000  x5=0xfffffffa
       25865000	      2585	80001010	00f00d13	addi	x26,x0,15	  x0:0x00000000 x26=0x0000000f
       25875000	      2586	80001014	0027cdb3	xor	x27,x15,x2	 x15:0x0010004a  x2:0x00100000 x27=0x0000004a
       25885000	      2587	80001018	65bb7a93	andi	x21,x22,1627	 x22:0x00100040 x21=0x00000040
       25895000	      2588	8000101c	018df7b3	and	x15,x27,x24	 x27:0x0000004a x24:0xfffffffa x15=0x0000004a
       25905000	      2589	80001020	00728293	addi	x5,x5,7	  x5:0xfffffffa  x5=0x00000001
       25915000	      2590	80001024	31133e13	sltiu	x28,x6,785	  x6:0xec000000 x28=0x00000000
       25925000	      2591	80001028	01379933	sll	x18,x15,x19	 x15:0x0000004a x19:0x00000000 x18=0x0000004a
       25935000	      2592	8000102c	00f67b33	and	x22,x12,x15	 x12:0xffffffef x15:0x0000004a x22=0x0000004a
       25945000	      2593	80001030	ffa286e3	beq	x5,x26,8000101c	  x5:0x00000001 x26:0x0000000f
       25955000	      2594	80001034	001ef133	and	x2,x29,x1	 x29:0xfffffed9  x1:0x00100000  x2=0x00100000
       25965000	      2595	80001038	fc3652e3	bge	x12,x3,80000ffc	 x12:0xffffffef  x3:0xffffffef
       25975000	      2596	00000000	00000013	addi	x0,x0,0	  x0:0x00000000
       25985000	      2597	80000ff8	00000013	addi	x0,x0,0	  x0:0x00000000
       25995000	      2598	80000ffc	f5204a13	xori	x20,x0,-174	  x0:0x00000000 x20=0xffffff52
       26005000	      2599	80001000	fff60613	addi	x12,x12,-1	 x12:0xffffffef x12=0xffffffee
       26015000	      2600	80001004	409edbb3	sra	x23,x29,x9	 x29:0xfffffed9  x9:0xe2792210 x23=0xffffffff
       26025000	      2601	80001008	013da9b3	slt	x19,x27,x19	 x27:0x0000004a x19:0x00000000 x19=0x00000000
       26035000	      2602	8000100c	ffa00293	addi	x5,x0,-6	  x0:0x00000000  x5=0xfffffffa
       26045000	      2603	80001010	00f00d13	addi	x26,x0,15	  x0:0x00000000 x26=0x0000000f
       26055000	      2604	80001014	0027cdb3	xor	x27,x15,x2	 x15:0x0000004a  x2:0x00100000 x27=0x0010004a
       26065000	      2605	80001018	65bb7a93	andi	x21,x22,1627	 x22:0x0000004a x21=0x0000004a
       26075000	      2606	8000101c	018df7b3	and	x15,x27,x24	 x27:0x0010004a x24:0xfffffffa x15=0x0010004a
       26085000	      2607	80001020	00728293	addi	x5,x5,7	  x5:0xfffffffa  x5=0x00000001
       26095000	      2608	80001024	31133e13	sltiu	x28,x6,785	  x6:0xec000000 x28=0x00000000
       26105000	      2609	80001028	01379933	sll	x18,x15,x19	 x15:0x0010004a x19:0x00000000 x18=0x0010004a
       26115000	      2610	8000102c	00f67b33	and	x22,x12,x15	 x12:0xffffffee x15:0x0010004a x22=0x0010004a
       26125000	      2611	80001030	ffa286e3	beq	x5,x26,8000101c	  x5:0x00000001 x26:0x0000000f
       26135000	      2612	80001034	001ef133	and	x2,x29,x1	 x29:0xfffffed9  x1:0x00100000  x2=0x00100000
       26145000	      2613	80001038	fc3652e3	bge	x12,x3,80000ffc	 x12:0xffffffee  x3:0xffffffef
       26155000	      2614	8000103c	004faf33	slt	x30,x31,x4	 x31:0x80009f70  x4:0x80009c04 x30=0x00000000
       26165000	      2615	80001040	ffc00213	addi	x4,x0,-4	  x0:0x00000000  x4=0xfffffffc
       26175000	      2616	80001044	008ccdb3	xor	x27,x25,x8	 x25:0x80dd0eb4  x8:0x000000ff x27=0x80dd0e4b
       26185000	      2617	80001048	01e9bf33	sltu	x30,x19,x30	 x19:0x00000000 x30:0x00000000 x30=0x00000000
       26195000	      2618	8000104c	000915b3	sll	x11,x18,x0	 x18:0x0010004a  x0:0x00000000 x11=0x0010004a
       26205000	      2619	80001050	0155f833	and	x16,x11,x21	 x11:0x0010004a x21:0x0000004a x16=0x0000004a
       26215000	      2620	80001054	402f5b33	sra	x22,x30,x2	 x30:0x00000000  x2:0x00100000 x22=0x00000000
       26225000	      2621	80001058	4067db33	sra	x22,x15,x6	 x15:0x0010004a  x6:0xec000000 x22=0x0010004a
       26235000	      2622	8000105c	3994a193	slti	x3,x9,921	  x9:0xe2792210  x3=0x00000001
       26245000	      2623	80001060	ff700c93	addi	x25,x0,-9	  x0:0x00000000 x25=0xfffffff7
       26255000	      2624	80001064	016822b3	slt	x5,x16,x22	 x16:0x0000004a x22:0x0010004a  x5=0x00000001
       26265000	      2625	80001068	011f7d33	and	x26,x30,x17	 x30:0x00000000 x17:0x27922100 x26=0x00000000
       26275000	      2626	8000106c	01299e93	slli	x29,x19,0x12	 x19:0x00000000 x29=0x00000000
       26285000	      2627	80001070	01d3b9b3	sltu	x19,x7,x29	  x7:0x00000000 x29:0x00000000 x19=0x00000000
       26295000	      2628	80001074	01bbe933	or	x18,x23,x27	 x23:0xffffffff x27:0x80dd0e4b x18=0xffffffff
       26305000	      2629	80001078	e3a2fd13	andi	x26,x5,-454	  x5:0x00000001 x26=0x00000000
       26315000	      2630	8000107c	e0c3bd13	sltiu	x26,x7,-500	  x7:0x00000000 x26=0x00000001
       26325000	      2631	80001080	01495e33	srl	x28,x18,x20	 x18:0xffffffff x20:0xffffff52 x28=0x00003fff
       26335000	      2632	80001084	ffb20213	addi	x4,x4,-5	  x4:0xfffffffc  x4=0xfffffff7
       26345000	      2633	80001088	6b1cc617	auipc	x12,0x6b1cc	 x12=0xeb1cd084
       26355000	      2634	8000108c	ff9214e3	bne	x4,x25,80001074	  x4:0xfffffff7 x25:0xfffffff7
       26365000	      2635	80001090	016fae33	slt	x28,x31,x22	 x31:0x80009f70 x22:0x0010004a x28=0x00000001
       26375000	      2636	80001094	00700d93	addi	x27,x0,7	  x0:0x00000000 x27=0x00000007
       26385000	      2637	80001098	a56e3093	sltiu	x1,x28,-1450	 x28:0x00000001  x1=0x00000001
       26395000	      2638	8000109c	0058d393	srli	x7,x17,0x5	 x17:0x27922100  x7=0x013c9108
       26405000	      2639	800010a0	01a9d013	srli	x0,x19,0x1a	 x19:0x00000000
       26415000	      2640	800010a4	40addc93	srai	x25,x27,0xa	 x27:0x00000007 x25=0x00000000
       26425000	      2641	800010a8	50e82cb7	lui	x25,0x50e82	 x25=0x50e82000
       26435000	      2642	800010ac	00700313	addi	x6,x0,7	  x0:0x00000000  x6=0x00000007
       26445000	      2643	800010b0	b5d86413	ori	x8,x16,-1187	 x16:0x0000004a  x8=0xfffffb5f
       26455000	      2644	800010b4	01048bb3	add	x23,x9,x16	  x9:0xe2792210 x16:0x0000004a x23=0xe279225a
       26465000	      2645	800010b8	018b9813	slli	x16,x23,0x18	 x23:0xe279225a x16=0x5a000000
       26475000	      2646	800010bc	004ed7b3	srl	x15,x29,x4	 x29:0x00000000  x4:0xfffffff7 x15=0x00000000
       26485000	      2647	800010c0	00de8a37	lui	x20,0xde8	 x20=0x00de8000
       26495000	      2648	800010c4	419d5bb3	sra	x23,x26,x25	 x26:0x00000001 x25:0x50e82000 x23=0x00000001
       26505000	      2649	800010c8	ffbd8d93	addi	x27,x27,-5	 x27:0x00000007 x27=0x00000002
       26515000	      2650	800010cc	405c5593	srai	x11,x24,0x5	 x24:0xfffffffa x11=0xffffffff
       26525000	      2651	800010d0	f2218d13	addi	x26,x3,-222	  x3:0x00000001 x26=0xffffff23
       26535000	      2652	800010d4	412dd3b3	sra	x7,x27,x18	 x27:0x00000002 x18:0xffffffff  x7=0x00000000
       26545000	      2653	800010d8	01872eb3	slt	x29,x14,x24	 x14:0xfffffc3f x24:0xfffffffa x29=0x00000001
       26555000	      2654	800010dc	00be0a33	add	x20,x28,x11	 x28:0x00000001 x11:0xffffffff x20=0x00000000
       26565000	      2655	800010e0	029c1997	auipc	x19,0x29c1	 x19=0x829c20dc
       26575000	      2656	800010e4	2a267237	lui	x4,0x2a267	  x4=0x2a267000
       26585000	      2657	800010e8	00c447b3	xor	x15,x8,x12	  x8:0xfffffb5f x12:0xeb1cd084 x15=0x14e32bdb
       26595000	      2658	800010ec	05c27993	andi	x19,x4,92	  x4:0x2a267000 x19=0x00000000
       26605000	      2659	800010f0	010ef5b3	and	x11,x29,x16	 x29:0x00000001 x16:0x5a000000 x11=0x00000000
       26615000	      2660	800010f4	008bd433	srl	x8,x23,x8	 x23:0x00000001  x8:0xfffffb5f  x8=0x00000000
       26625000	      2661	800010f8	00c9e433	or	x8,x19,x12	 x19:0x00000000 x12:0xeb1cd084  x8=0xeb1cd084
       26635000	      2662	800010fc	fa6dfce3	bgeu	x27,x6,800010b4	 x27:0x00000002  x6:0x00000007
       26645000	      2663	80001100	935279b7	lui	x19,0x93527	 x19=0x93527000
       26655000	      2664	80001104	00300f13	addi	x30,x0,3	  x0:0x00000000 x30=0x00000003
       26665000	      2665	80001108	01100a13	addi	x20,x0,17	  x0:0x00000000 x20=0x00000011
       26675000	      2666	8000110c	410107b3	sub	x15,x2,x16	  x2:0x00100000 x16:0x5a000000 x15=0xa6100000
       26685000	      2667	80001110	2411a893	slti	x17,x3,577	  x3:0x00000001 x17=0x00000001
       26695000	      2668	80001114	006f0f13	addi	x30,x30,6	 x30:0x00000003 x30=0x00000009
       26705000	      2669	80001118	ff4f4ae3	blt	x30,x20,8000110c	 x30:0x00000009 x20:0x00000011
       26715000	      2670	00000000	00000013	addi	x0,x0,0	  x0:0x00000000
       26725000	      2671	80001108	00000013	addi	x0,x0,0	  x0:0x00000000
       26735000	      2672	8000110c	410107b3	sub	x15,x2,x16	  x2:0x00100000 x16:0x5a000000 x15=0xa6100000
       26745000	      2673	80001110	2411a893	slti	x17,x3,577	  x3:0x00000001 x17=0x00000001
       26755000	      2674	80001114	006f0f13	addi	x30,x30,6	 x30:0x00000009 x30=0x0000000f
       26765000	      2675	80001118	ff4f4ae3	blt	x30,x20,8000110c	 x30:0x0000000f x20:0x00000011
       26775000	      2676	00000000	00000013	addi	x0,x0,0	  x0:0x00000000
       26785000	      2677	80001108	00000013	addi	x0,x0,0	  x0:0x00000000
       26795000	      2678	8000110c	410107b3	sub	x15,x2,x16	  x2:0x00100000 x16:0x5a000000 x15=0xa6100000
       26805000	      2679	80001110	2411a893	slti	x17,x3,577	  x3:0x00000001 x17=0x00000001
       26815000	      2680	80001114	006f0f13	addi	x30,x30,6	 x30:0x0000000f x30=0x00000015
       26825000	      2681	80001118	ff4f4ae3	blt	x30,x20,8000110c	 x30:0x00000015 x20:0x00000011
       26835000	      2682	8000111c	00000013	addi	x0,x0,0	  x0:0x00000000
       26845000	      2683	80001120	ff600f13	addi	x30,x0,-10	  x0:0x00000000 x30=0xfffffff6
       26855000	      2684	80001124	00800d93	addi	x27,x0,8	  x0:0x00000000 x27=0x00000008
       26865000	      2685	80001128	e539a293	slti	x5,x19,-429	 x19:0x93527000  x5=0x00000001
       26875000	      2686	8000112c	0002b0b3	sltu	x1,x5,x0	  x5:0x00000001  x0:0x00000000  x1=0x00000000
       26885000	      2687	80001130	002f0f13	addi	x30,x30,2	 x30:0xfffffff6 x30=0xfffffff8
       26895000	      2688	80001134	00e51993	slli	x19,x10,0xe	 x10:0xfffffff3 x19=0xfffcc000
       26905000	      2689	80001138	00700893	addi	x17,x0,7	  x0:0x00000000 x17=0x00000007
       26915000	      2690	8000113c	c9dd3013	sltiu	x0,x26,-867	 x26:0xffffff23
       26925000	      2691	80001140	40325533	sra	x10,x4,x3	  x4:0x2a267000  x3:0x00000001 x10=0x15133800
       26935000	      2692	80001144	00400a93	addi	x21,x0,4	  x0:0x00000000 x21=0x00000004
       26945000	      2693	80001148	3a1b6613	ori	x12,x22,929	 x22:0x0010004a x12=0x001003eb
       26955000	      2694	8000114c	00ca20b3	slt	x1,x20,x12	 x20:0x00000011 x12:0x001003eb  x1=0x00000001
       26965000	      2695	80001150	00f3c533	xor	x10,x7,x15	  x7:0x00000000 x15:0xa6100000 x10=0xa6100000
       26975000	      2696	80001154	ff788893	addi	x17,x17,-9	 x17:0x00000007 x17=0xfffffffe
       26985000	      2697	80001158	c183a713	slti	x14,x7,-1000	  x7:0x00000000 x14=0x00000000
       26995000	      2698	8000115c	ff58d8e3	bge	x17,x21,8000114c	 x17:0xfffffffe x21:0x00000004
       27005000	      2699	80001160	fdbf16e3	bne	x30,x27,8000112c	 x30:0xfffffff8 x27:0x00000008
       27015000	      2700	00000000	00000013	addi	x0,x0,0	  x0:0x00000000
       27025000	      2701	80001128	00000013	addi	x0,x0,0	  x0:0x00000000
       27035000	      2702	8000112c	0002b0b3	sltu	x1,x5,x0	  x5:0x00000001  x0:0x00000000  x1=0x00000000
       27045000	      2703	80001130	002f0f13	addi	x30,x30,2	 x30:0xfffffff8 x30=0xfffffffa
       27055000	      2704	80001134	00e51993	slli	x19,x10,0xe	 x10:0xa6100000 x19=0x00000000
       27065000	      2705	80001138	00700893	addi	x17,x0,7	  x0:0x00000000 x17=0x00000007
       27075000	      2706	8000113c	c9dd3013	sltiu	x0,x26,-867	 x26:0xffffff23
       27085000	      2707	80001140	40325533	sra	x10,x4,x3	  x4:0x2a267000  x3:0x00000001 x10=0x15133800
       27095000	      2708	80001144	00400a93	addi	x21,x0,4	  x0:0x00000000 x21=0x00000004
       27105000	      2709	80001148	3a1b6613	ori	x12,x22,929	 x22:0x0010004a x12=0x001003eb
       27115000	      2710	8000114c	00ca20b3	slt	x1,x20,x12	 x20:0x00000011 x12:0x001003eb  x1=0x00000001
       27125000	      2711	80001150	00f3c533	xor	x10,x7,x15	  x7:0x00000000 x15:0xa6100000 x10=0xa6100000
       27135000	      2712	80001154	ff788893	addi	x17,x17,-9	 x17:0x00000007 x17=0xfffffffe
       27145000	      2713	80001158	c183a713	slti	x14,x7,-1000	  x7:0x00000000 x14=0x00000000
       27155000	      2714	8000115c	ff58d8e3	bge	x17,x21,8000114c	 x17:0xfffffffe x21:0x00000004
       27165000	      2715	80001160	fdbf16e3	bne	x30,x27,8000112c	 x30:0xfffffffa x27:0x00000008
       27175000	      2716	00000000	00000013	addi	x0,x0,0	  x0:0x00000000
       27185000	      2717	80001128	00000013	addi	x0,x0,0	  x0:0x00000000
       27195000	      2718	8000112c	0002b0b3	sltu	x1,x5,x0	  x5:0x00000001  x0:0x00000000  x1=0x00000000
       27205000	      2719	80001130	002f0f13	addi	x30,x30,2	 x30:0xfffffffa x30=0xfffffffc
       27215000	      2720	80001134	00e51993	slli	x19,x10,0xe	 x10:0xa6100000 x19=0x00000000
       27225000	      2721	80001138	00700893	addi	x17,x0,7	  x0:0x00000000 x17=0x00000007
       27235000	      2722	8000113c	c9dd3013	sltiu	x0,x26,-867	 x26:0xffffff23
       27245000	      2723	80001140	40325533	sra	x10,x4,x3	  x4:0x2a267000  x3:0x00000001 x10=0x15133800
       27255000	      2724	80001144	00400a93	addi	x21,x0,4	  x0:0x00000000 x21=0x00000004
       27265000	      2725	80001148	3a1b6613	ori	x12,x22,929	 x22:0x0010004a x12=0x001003eb
       27275000	      2726	8000114c	00ca20b3	slt	x1,x20,x12	 x20:0x00000011 x12:0x001003eb  x1=0x00000001
       27285000	      2727	80001150	00f3c533	xor	x10,x7,x15	  x7:0x00000000 x15:0xa6100000 x10=0xa6100000
       27295000	      2728	80001154	ff788893	addi	x17,x17,-9	 x17:0x00000007 x17=0xfffffffe
       27305000	      2729	80001158	c183a713	slti	x14,x7,-1000	  x7:0x00000000 x14=0x00000000
       27315000	      2730	8000115c	ff58d8e3	bge	x17,x21,8000114c	 x17:0xfffffffe x21:0x00000004
       27325000	      2731	80001160	fdbf16e3	bne	x30,x27,8000112c	 x30:0xfffffffc x27:0x00000008
       27335000	      2732	00000000	00000013	addi	x0,x0,0	  x0:0x00000000
       27345000	      2733	80001128	00000013	addi	x0,x0,0	  x0:0x00000000
       27355000	      2734	8000112c	0002b0b3	sltu	x1,x5,x0	  x5:0x00000001  x0:0x00000000  x1=0x00000000
       27365000	      2735	80001130	002f0f13	addi	x30,x30,2	 x30:0xfffffffc x30=0xfffffffe
       27375000	      2736	80001134	00e51993	slli	x19,x10,0xe	 x10:0xa6100000 x19=0x00000000
       27385000	      2737	80001138	00700893	addi	x17,x0,7	  x0:0x00000000 x17=0x00000007
       27395000	      2738	8000113c	c9dd3013	sltiu	x0,x26,-867	 x26:0xffffff23
       27405000	      2739	80001140	40325533	sra	x10,x4,x3	  x4:0x2a267000  x3:0x00000001 x10=0x15133800
       27415000	      2740	80001144	00400a93	addi	x21,x0,4	  x0:0x00000000 x21=0x00000004
       27425000	      2741	80001148	3a1b6613	ori	x12,x22,929	 x22:0x0010004a x12=0x001003eb
       27435000	      2742	8000114c	00ca20b3	slt	x1,x20,x12	 x20:0x00000011 x12:0x001003eb  x1=0x00000001
       27445000	      2743	80001150	00f3c533	xor	x10,x7,x15	  x7:0x00000000 x15:0xa6100000 x10=0xa6100000
       27455000	      2744	80001154	ff788893	addi	x17,x17,-9	 x17:0x00000007 x17=0xfffffffe
       27465000	      2745	80001158	c183a713	slti	x14,x7,-1000	  x7:0x00000000 x14=0x00000000
       27475000	      2746	8000115c	ff58d8e3	bge	x17,x21,8000114c	 x17:0xfffffffe x21:0x00000004
       27485000	      2747	80001160	fdbf16e3	bne	x30,x27,8000112c	 x30:0xfffffffe x27:0x00000008
       27495000	      2748	00000000	00000013	addi	x0,x0,0	  x0:0x00000000
       27505000	      2749	80001128	00000013	addi	x0,x0,0	  x0:0x00000000
       27515000	      2750	8000112c	0002b0b3	sltu	x1,x5,x0	  x5:0x00000001  x0:0x00000000  x1=0x00000000
       27525000	      2751	80001130	002f0f13	addi	x30,x30,2	 x30:0xfffffffe x30=0x00000000
       27535000	      2752	80001134	00e51993	slli	x19,x10,0xe	 x10:0xa6100000 x19=0x00000000
       27545000	      2753	80001138	00700893	addi	x17,x0,7	  x0:0x00000000 x17=0x00000007
       27555000	      2754	8000113c	c9dd3013	sltiu	x0,x26,-867	 x26:0xffffff23
       27565000	      2755	80001140	40325533	sra	x10,x4,x3	  x4:0x2a267000  x3:0x00000001 x10=0x15133800
       27575000	      2756	80001144	00400a93	addi	x21,x0,4	  x0:0x00000000 x21=0x00000004
       27585000	      2757	80001148	3a1b6613	ori	x12,x22,929	 x22:0x0010004a x12=0x001003eb
       27595000	      2758	8000114c	00ca20b3	slt	x1,x20,x12	 x20:0x00000011 x12:0x001003eb  x1=0x00000001
       27605000	      2759	80001150	00f3c533	xor	x10,x7,x15	  x7:0x00000000 x15:0xa6100000 x10=0xa6100000
       27615000	      2760	80001154	ff788893	addi	x17,x17,-9	 x17:0x00000007 x17=0xfffffffe
       27625000	      2761	80001158	c183a713	slti	x14,x7,-1000	  x7:0x00000000 x14=0x00000000
       27635000	      2762	8000115c	ff58d8e3	bge	x17,x21,8000114c	 x17:0xfffffffe x21:0x00000004
       27645000	      2763	80001160	fdbf16e3	bne	x30,x27,8000112c	 x30:0x00000000 x27:0x00000008
       27655000	      2764	00000000	00000013	addi	x0,x0,0	  x0:0x00000000
       27665000	      2765	80001128	00000013	addi	x0,x0,0	  x0:0x00000000
       27675000	      2766	8000112c	0002b0b3	sltu	x1,x5,x0	  x5:0x00000001  x0:0x00000000  x1=0x00000000
       27685000	      2767	80001130	002f0f13	addi	x30,x30,2	 x30:0x00000000 x30=0x00000002
       27695000	      2768	80001134	00e51993	slli	x19,x10,0xe	 x10:0xa6100000 x19=0x00000000
       27705000	      2769	80001138	00700893	addi	x17,x0,7	  x0:0x00000000 x17=0x00000007
       27715000	      2770	8000113c	c9dd3013	sltiu	x0,x26,-867	 x26:0xffffff23
       27725000	      2771	80001140	40325533	sra	x10,x4,x3	  x4:0x2a267000  x3:0x00000001 x10=0x15133800
       27735000	      2772	80001144	00400a93	addi	x21,x0,4	  x0:0x00000000 x21=0x00000004
       27745000	      2773	80001148	3a1b6613	ori	x12,x22,929	 x22:0x0010004a x12=0x001003eb
       27755000	      2774	8000114c	00ca20b3	slt	x1,x20,x12	 x20:0x00000011 x12:0x001003eb  x1=0x00000001
       27765000	      2775	80001150	00f3c533	xor	x10,x7,x15	  x7:0x00000000 x15:0xa6100000 x10=0xa6100000
       27775000	      2776	80001154	ff788893	addi	x17,x17,-9	 x17:0x00000007 x17=0xfffffffe
       27785000	      2777	80001158	c183a713	slti	x14,x7,-1000	  x7:0x00000000 x14=0x00000000
       27795000	      2778	8000115c	ff58d8e3	bge	x17,x21,8000114c	 x17:0xfffffffe x21:0x00000004
       27805000	      2779	80001160	fdbf16e3	bne	x30,x27,8000112c	 x30:0x00000002 x27:0x00000008
       27815000	      2780	00000000	00000013	addi	x0,x0,0	  x0:0x00000000
       27825000	      2781	80001128	00000013	addi	x0,x0,0	  x0:0x00000000
       27835000	      2782	8000112c	0002b0b3	sltu	x1,x5,x0	  x5:0x00000001  x0:0x00000000  x1=0x00000000
       27845000	      2783	80001130	002f0f13	addi	x30,x30,2	 x30:0x00000002 x30=0x00000004
       27855000	      2784	80001134	00e51993	slli	x19,x10,0xe	 x10:0xa6100000 x19=0x00000000
       27865000	      2785	80001138	00700893	addi	x17,x0,7	  x0:0x00000000 x17=0x00000007
       27875000	      2786	8000113c	c9dd3013	sltiu	x0,x26,-867	 x26:0xffffff23
       27885000	      2787	80001140	40325533	sra	x10,x4,x3	  x4:0x2a267000  x3:0x00000001 x10=0x15133800
       27895000	      2788	80001144	00400a93	addi	x21,x0,4	  x0:0x00000000 x21=0x00000004
       27905000	      2789	80001148	3a1b6613	ori	x12,x22,929	 x22:0x0010004a x12=0x001003eb
       27915000	      2790	8000114c	00ca20b3	slt	x1,x20,x12	 x20:0x00000011 x12:0x001003eb  x1=0x00000001
       27925000	      2791	80001150	00f3c533	xor	x10,x7,x15	  x7:0x00000000 x15:0xa6100000 x10=0xa6100000
       27935000	      2792	80001154	ff788893	addi	x17,x17,-9	 x17:0x00000007 x17=0xfffffffe
       27945000	      2793	80001158	c183a713	slti	x14,x7,-1000	  x7:0x00000000 x14=0x00000000
       27955000	      2794	8000115c	ff58d8e3	bge	x17,x21,8000114c	 x17:0xfffffffe x21:0x00000004
       27965000	      2795	80001160	fdbf16e3	bne	x30,x27,8000112c	 x30:0x00000004 x27:0x00000008
       27975000	      2796	00000000	00000013	addi	x0,x0,0	  x0:0x00000000
       27985000	      2797	80001128	00000013	addi	x0,x0,0	  x0:0x00000000
       27995000	      2798	8000112c	0002b0b3	sltu	x1,x5,x0	  x5:0x00000001  x0:0x00000000  x1=0x00000000
       28005000	      2799	80001130	002f0f13	addi	x30,x30,2	 x30:0x00000004 x30=0x00000006
       28015000	      2800	80001134	00e51993	slli	x19,x10,0xe	 x10:0xa6100000 x19=0x00000000
       28025000	      2801	80001138	00700893	addi	x17,x0,7	  x0:0x00000000 x17=0x00000007
       28035000	      2802	8000113c	c9dd3013	sltiu	x0,x26,-867	 x26:0xffffff23
       28045000	      2803	80001140	40325533	sra	x10,x4,x3	  x4:0x2a267000  x3:0x00000001 x10=0x15133800
       28055000	      2804	80001144	00400a93	addi	x21,x0,4	  x0:0x00000000 x21=0x00000004
       28065000	      2805	80001148	3a1b6613	ori	x12,x22,929	 x22:0x0010004a x12=0x001003eb
       28075000	      2806	8000114c	00ca20b3	slt	x1,x20,x12	 x20:0x00000011 x12:0x001003eb  x1=0x00000001
       28085000	      2807	80001150	00f3c533	xor	x10,x7,x15	  x7:0x00000000 x15:0xa6100000 x10=0xa6100000
       28095000	      2808	80001154	ff788893	addi	x17,x17,-9	 x17:0x00000007 x17=0xfffffffe
       28105000	      2809	80001158	c183a713	slti	x14,x7,-1000	  x7:0x00000000 x14=0x00000000
       28115000	      2810	8000115c	ff58d8e3	bge	x17,x21,8000114c	 x17:0xfffffffe x21:0x00000004
       28125000	      2811	80001160	fdbf16e3	bne	x30,x27,8000112c	 x30:0x00000006 x27:0x00000008
       28135000	      2812	00000000	00000013	addi	x0,x0,0	  x0:0x00000000
       28145000	      2813	80001128	00000013	addi	x0,x0,0	  x0:0x00000000
       28155000	      2814	8000112c	0002b0b3	sltu	x1,x5,x0	  x5:0x00000001  x0:0x00000000  x1=0x00000000
       28165000	      2815	80001130	002f0f13	addi	x30,x30,2	 x30:0x00000006 x30=0x00000008
       28175000	      2816	80001134	00e51993	slli	x19,x10,0xe	 x10:0xa6100000 x19=0x00000000
       28185000	      2817	80001138	00700893	addi	x17,x0,7	  x0:0x00000000 x17=0x00000007
       28195000	      2818	8000113c	c9dd3013	sltiu	x0,x26,-867	 x26:0xffffff23
       28205000	      2819	80001140	40325533	sra	x10,x4,x3	  x4:0x2a267000  x3:0x00000001 x10=0x15133800
       28215000	      2820	80001144	00400a93	addi	x21,x0,4	  x0:0x00000000 x21=0x00000004
       28225000	      2821	80001148	3a1b6613	ori	x12,x22,929	 x22:0x0010004a x12=0x001003eb
       28235000	      2822	8000114c	00ca20b3	slt	x1,x20,x12	 x20:0x00000011 x12:0x001003eb  x1=0x00000001
       28245000	      2823	80001150	00f3c533	xor	x10,x7,x15	  x7:0x00000000 x15:0xa6100000 x10=0xa6100000
       28255000	      2824	80001154	ff788893	addi	x17,x17,-9	 x17:0x00000007 x17=0xfffffffe
       28265000	      2825	80001158	c183a713	slti	x14,x7,-1000	  x7:0x00000000 x14=0x00000000
       28275000	      2826	8000115c	ff58d8e3	bge	x17,x21,8000114c	 x17:0xfffffffe x21:0x00000004
       28285000	      2827	80001160	fdbf16e3	bne	x30,x27,8000112c	 x30:0x00000008 x27:0x00000008
       28295000	      2828	80001164	4035dc33	sra	x24,x11,x3	 x11:0x00000000  x3:0x00000001 x24=0x00000000
       28305000	      2829	80001168	00300413	addi	x8,x0,3	  x0:0x00000000  x8=0x00000003
       28315000	      2830	8000116c	b35a8393	addi	x7,x21,-1227	 x21:0x00000004  x7=0xfffffb39
       28325000	      2831	80001170	413cdeb3	sra	x29,x25,x19	 x25:0x50e82000 x19:0x00000000 x29=0x50e82000
       28335000	      2832	80001174	3cb67817	auipc	x16,0x3cb67	 x16=0xbcb68170
       28345000	      2833	80001178	fee00193	addi	x3,x0,-18	  x0:0x00000000  x3=0xffffffee
       28355000	      2834	8000117c	f4a7ab93	slti	x23,x15,-182	 x15:0xa6100000 x23=0x00000001
       28365000	      2835	80001180	003c9813	slli	x16,x25,0x3	 x25:0x50e82000 x16=0x87410000
       28375000	      2836	80001184	406a85b3	sub	x11,x21,x6	 x21:0x00000004  x6:0x00000007 x11=0xfffffffd
       28385000	      2837	80001188	55238b13	addi	x22,x7,1362	  x7:0xfffffb39 x22=0x0000008b
       28395000	      2838	8000118c	00929d13	slli	x26,x5,0x9	  x5:0x00000001 x26=0x00000200
       28405000	      2839	80001190	0141f9b3	and	x19,x3,x20	  x3:0xffffffee x20:0x00000011 x19=0x00000000
       28415000	      2840	80001194	41be8b33	sub	x22,x29,x27	 x29:0x50e82000 x27:0x00000008 x22=0x50e81ff8
       28425000	      2841	80001198	415a5e13	srai	x28,x20,0x15	 x20:0x00000011 x28=0x00000000
       28435000	      2842	8000119c	418a89b3	sub	x19,x21,x24	 x21:0x00000004 x24:0x00000000 x19=0x00000004
       28445000	      2843	800011a0	00193033	sltu	x0,x18,x1	 x18:0xffffffff  x1:0x00000001
       28455000	      2844	800011a4	4152dc13	srai	x24,x5,0x15	  x5:0x00000001 x24=0x00000000
       28465000	      2845	800011a8	3066e293	ori	x5,x13,774	 x13:0x80009fc4  x5=0x80009fc6
       28475000	      2846	800011ac	011852b3	srl	x5,x16,x17	 x16:0x87410000 x17:0xfffffffe  x5=0x00000002
       28485000	      2847	800011b0	8c98eb13	ori	x22,x17,-1847	 x17:0xfffffffe x22=0xffffffff
       28495000	      2848	800011b4	e47f8737	lui	x14,0xe47f8	 x14=0xe47f8000
       28505000	      2849	800011b8	ff940413	addi	x8,x8,-7	  x8:0x00000003  x8=0xfffffffc
       28515000	      2850	800011bc	002acdb3	xor	x27,x21,x2	 x21:0x00000004  x2:0x00100000 x27=0x00100004
       28525000	      2851	800011c0	227f48b7	lui	x17,0x227f4	 x17=0x227f4000
       28535000	      2852	800011c4	fc3402e3	beq	x8,x3,80001188	  x8:0xfffffffc  x3:0xffffffee
       28545000	      2853	800011c8	4790f113	andi	x2,x1,1145	  x1:0x00000001  x2=0x00000001
       28555000	      2854	800011cc	00000013	addi	x0,x0,0	  x0:0x00000000
       28565000	      2855	800011d0	00000013	addi	x0,x0,0	  x0:0x00000000
       28575000	      2856	800011d4	00000013	addi	x0,x0,0	  x0:0x00000000
       28585000	      2857	800011d8	00000013	addi	x0,x0,0	  x0:0x00000000
       28595000	      2858	800011dc	f518ca93	xori	x21,x17,-175	 x17:0x227f4000 x21=0xdd80bf51
       28605000	      2859	800011e0	00000013	addi	x0,x0,0	  x0:0x00000000
       28615000	      2860	800011e4	0552f263	bgeu	x5,x21,80001228	  x5:0x00000002 x21:0xdd80bf51
       28625000	      2861	800011e8	00000013	addi	x0,x0,0	  x0:0x00000000
       28635000	      2862	800011ec	00b2bf33	sltu	x30,x5,x11	  x5:0x00000002 x11:0xfffffffd x30=0x00000001
       28645000	      2863	800011f0	0491d063	bge	x3,x9,80001230	  x3:0xffffffee  x9:0xe2792210
       28655000	      2864	00000000	00000013	addi	x0,x0,0	  x0:0x00000000
       28665000	      2865	8000122c	00000013	addi	x0,x0,0	  x0:0x00000000
       28675000	      2866	80001230	02386e63	bltu	x16,x3,8000126c	 x16:0x87410000  x3:0xffffffee
       28685000	      2867	00000000	00000013	addi	x0,x0,0	  x0:0x00000000
       28695000	      2868	80001268	00000013	addi	x0,x0,0	  x0:0x00000000
       28705000	      2869	8000126c	0028a033	slt	x0,x17,x2	 x17:0x227f4000  x2:0x00000001
       28715000	      2870	80001270	02a89e63	bne	x17,x10,800012ac	 x17:0x227f4000 x10:0xa6100000
       28725000	      2871	00000000	00000013	addi	x0,x0,0	  x0:0x00000000
       28735000	      2872	800012a8	00000013	addi	x0,x0,0	  x0:0x00000000
       28745000	      2873	800012ac	40b58a33	sub	x20,x11,x11	 x11:0xfffffffd x11:0xfffffffd x20=0x00000000
       28755000	      2874	800012b0	01149f33	sll	x30,x9,x17	  x9:0xe2792210 x17:0x227f4000 x30=0xe2792210
       28765000	      2875	800012b4	01160463	beq	x12,x17,800012bc	 x12:0x001003eb x17:0x227f4000
       28775000	      2876	800012b8	038c8463	beq	x25,x24,800012e0	 x25:0x50e82000 x24:0x00000000
       28785000	      2877	800012bc	577ef313	andi	x6,x29,1399	 x29:0x50e82000  x6=0x00000000
       28795000	      2878	800012c0	d6c2e217	auipc	x4,0xd6c2e	  x4=0x56c2f2bc
       28805000	      2879	800012c4	00000013	addi	x0,x0,0	  x0:0x00000000
       28815000	      2880	800012c8	b704d5b7	lui	x11,0xb704d	 x11=0xb704d000
       28825000	      2881	800012cc	00000013	addi	x0,x0,0	  x0:0x00000000
       28835000	      2882	800012d0	0565e263	bltu	x11,x22,80001314	 x11:0xb704d000 x22:0xffffffff
       28845000	      2883	00000000	00000013	addi	x0,x0,0	  x0:0x00000000
       28855000	      2884	80001310	00000013	addi	x0,x0,0	  x0:0x00000000
       28865000	      2885	80001314	01046c63	bltu	x8,x16,8000132c	  x8:0xfffffffc x16:0x87410000
       28875000	      2886	80001318	01d11663	bne	x2,x29,80001324	  x2:0x00000001 x29:0x50e82000
       28885000	      2887	00000000	00000013	addi	x0,x0,0	  x0:0x00000000
       28895000	      2888	80001320	00000013	addi	x0,x0,0	  x0:0x00000000
       28905000	      2889	80001324	01419713	slli	x14,x3,0x14	  x3:0xffffffee x14=0xfee00000
       28915000	      2890	80001328	01fb4eb3	xor	x29,x22,x31	 x22:0xffffffff x31:0x80009f70 x29=0x7fff608f
       28925000	      2891	8000132c	01d9e863	bltu	x19,x29,8000133c	 x19:0x00000004 x29:0x7fff608f
       28935000	      2892	00000000	00000013	addi	x0,x0,0	  x0:0x00000000
       28945000	      2893	80001338	00000013	addi	x0,x0,0	  x0:0x00000000
       28955000	      2894	8000133c	01b9b533	sltu	x10,x19,x27	 x19:0x00000004 x27:0x00100004 x10=0x00000001
       28965000	      2895	80001340	41c25d93	srai	x27,x4,0x1c	  x4:0x56c2f2bc x27=0x00000005
       28975000	      2896	80001344	40e85513	srai	x10,x16,0xe	 x16:0x87410000 x10=0xfffe1d04
       28985000	      2897	80001348	47d4ed13	ori	x26,x9,1149	  x9:0xe2792210 x26=0xe279267d
       28995000	      2898	8000134c	002f9393	slli	x7,x31,0x2	 x31:0x80009f70  x7=0x00027dc0
       29005000	      2899	80001350	838e2213	slti	x4,x28,-1992	 x28:0x00000000  x4=0x00000000
       29015000	      2900	80001354	00a32833	slt	x16,x6,x10	  x6:0x00000000 x10:0xfffe1d04 x16=0x00000000
       29025000	      2901	80001358	01c298b3	sll	x17,x5,x28	  x5:0x00000002 x28:0x00000000 x17=0x00000002
       29035000	      2902	8000135c	8290ac93	slti	x25,x1,-2007	  x1:0x00000001 x25=0x00000000
       29045000	      2903	80001360	40be8133	sub	x2,x29,x11	 x29:0x7fff608f x11:0xb704d000  x2=0xc8fa908f
       29055000	      2904	80001364	00ec5b13	srli	x22,x24,0xe	 x24:0x00000000 x22=0x00000000
       29065000	      2905	80001368	1c4be213	ori	x4,x23,452	 x23:0x00000001  x4=0x000001c5
       29075000	      2906	8000136c	7e1d4c93	xori	x25,x26,2017	 x26:0xe279267d x25=0xe279219c
       29085000	      2907	80001370	401b8933	sub	x18,x23,x1	 x23:0x00000001  x1:0x00000001 x18=0x00000000
       29095000	      2908	80001374	036e0c63	beq	x28,x22,800013ac	 x28:0x00000000 x22:0x00000000
       29105000	      2909	00000000	00000013	addi	x0,x0,0	  x0:0x00000000
       29115000	      2910	800013a8	00000013	addi	x0,x0,0	  x0:0x00000000
       29125000	      2911	800013ac	4159d633	sra	x12,x19,x21	 x19:0x00000004 x21:0xdd80bf51 x12=0x00000000
       29135000	      2912	800013b0	405f8633	sub	x12,x31,x5	 x31:0x80009f70  x5:0x00000002 x12=0x80009f6e
       29145000	      2913	800013b4	40e1d433	sra	x8,x3,x14	  x3:0xffffffee x14:0xfee00000  x8=0xffffffee
       29155000	      2914	800013b8	41bfd593	srai	x11,x31,0x1b	 x31:0x80009f70 x11=0xfffffff0
       29165000	      2915	800013bc	0175f033	and	x0,x11,x23	 x11:0xfffffff0 x23:0x00000001
       29175000	      2916	800013c0	557ae113	ori	x2,x21,1367	 x21:0xdd80bf51  x2=0xdd80bf57
       29185000	      2917	800013c4	0126ba33	sltu	x20,x13,x18	 x13:0x80009fc4 x18:0x00000000 x20=0x00000000
       29195000	      2918	800013c8	02116663	bltu	x2,x1,800013f4	  x2:0xdd80bf57  x1:0x00000001
       29205000	      2919	800013cc	040f0463	beq	x30,x0,80001414	 x30:0xe2792210  x0:0x00000000
       29215000	      2920	800013d0	253de7b7	lui	x15,0x253de	 x15=0x253de000
       29225000	      2921	800013d4	41065b33	sra	x22,x12,x16	 x12:0x80009f6e x16:0x00000000 x22=0x80009f6e
       29235000	      2922	800013d8	00c92933	slt	x18,x18,x12	 x18:0x00000000 x12:0x80009f6e x18=0x00000000
       29245000	      2923	800013dc	33f6bb17	auipc	x22,0x33f6b	 x22=0xb3f6c3d8
       29255000	      2924	800013e0	51197e13	andi	x28,x18,1297	 x18:0x00000000 x28=0x00000000
       29265000	      2925	800013e4	a8407b93	andi	x23,x0,-1404	  x0:0x00000000 x23=0x00000000
       29275000	      2926	800013e8	0020d993	srli	x19,x1,0x2	  x1:0x00000001 x19=0x00000000
       29285000	      2927	800013ec	40cd81b3	sub	x3,x27,x12	 x27:0x00000005 x12:0x80009f6e  x3=0x7fff6097
       29295000	      2928	800013f0	00345a13	srli	x20,x8,0x3	  x8:0xffffffee x20=0x1ffffffd
       29305000	      2929	800013f4	014f7733	and	x14,x30,x20	 x30:0xe2792210 x20:0x1ffffffd x14=0x02792210
       29315000	      2930	800013f8	41f1db13	srai	x22,x3,0x1f	  x3:0x7fff6097 x22=0x00000000
       29325000	      2931	800013fc	01579ab3	sll	x21,x15,x21	 x15:0x253de000 x21:0xdd80bf51 x21=0xc0000000
       29335000	      2932	80001400	e65fed93	ori	x27,x31,-411	 x31:0x80009f70 x27=0xffffff75
       29345000	      2933	80001404	00234463	blt	x6,x2,8000140c	  x6:0x00000000  x2:0xdd80bf57
       29355000	      2934	80001408	019debb3	or	x23,x27,x25	 x27:0xffffff75 x25:0xe279219c x23=0xfffffffd
       29365000	      2935	8000140c	46ce2293	slti	x5,x28,1132	 x28:0x00000000  x5=0x00000001
       29375000	      2936	80001410	87cf6613	ori	x12,x30,-1924	 x30:0xe2792210 x12=0xfffffa7c
       29385000	      2937	80001414	041a8263	beq	x21,x1,80001458	 x21:0xc0000000  x1:0x00000001
       29395000	      2938	80001418	00000013	addi	x0,x0,0	  x0:0x00000000
       29405000	      2939	8000141c	9e310813	addi	x16,x2,-1565	  x2:0xdd80bf57 x16=0xdd80b93a
       29415000	      2940	80001420	0111ef33	or	x30,x3,x17	  x3:0x7fff6097 x17:0x00000002 x30=0x7fff6097
       29425000	      2941	80001424	4066d113	srai	x2,x13,0x6	 x13:0x80009fc4  x2=0xfe00027f
       29435000	      2942	80001428	10c7e193	ori	x3,x15,268	 x15:0x253de000  x3=0x253de10c
       29445000	      2943	8000142c	00cf8333	add	x6,x31,x12	 x31:0x80009f70 x12:0xfffffa7c  x6=0x800099ec
       29455000	      2944	80001430	00ae5593	srli	x11,x28,0xa	 x28:0x00000000 x11=0x00000000
       29465000	      2945	80001434	01c913b3	sll	x7,x18,x28	 x18:0x00000000 x28:0x00000000  x7=0x00000000
       29475000	      2946	80001438	e45e2037	lui	x0,0xe45e2	
       29485000	      2947	8000143c	008b3233	sltu	x4,x22,x8	 x22:0x00000000  x8:0xffffffee  x4=0x00000001
       29495000	      2948	80001440	417d5313	srai	x6,x26,0x17	 x26:0xe279267d  x6=0xffffffc4
       29505000	      2949	80001444	66d42793	slti	x15,x8,1645	  x8:0xffffffee x15=0x00000001
       29515000	      2950	80001448	3351c513	xori	x10,x3,821	  x3:0x253de10c x10=0x253de239
       29525000	      2951	8000144c	00078c63	beq	x15,x0,80001464	 x15:0x00000001  x0:0x00000000
       29535000	      2952	80001450	0a92bc93	sltiu	x25,x5,169	  x5:0x00000001 x25=0x00000001
       29545000	      2953	80001454	03d54463	blt	x10,x29,8000147c	 x10:0x253de239 x29:0x7fff608f
       29555000	      2954	00000000	00000013	addi	x0,x0,0	  x0:0x00000000
       29565000	      2955	80001478	00000013	addi	x0,x0,0	  x0:0x00000000
       29575000	      2956	8000147c	001ed733	srl	x14,x29,x1	 x29:0x7fff608f  x1:0x00000001 x14=0x3fffb047
       29585000	      2957	80001480	030ddc63	bge	x27,x16,800014b8	 x27:0xffffff75 x16:0xdd80b93a
       29595000	      2958	00000000	00000013	addi	x0,x0,0	  x0:0x00000000
       29605000	      2959	800014b4	00000013	addi	x0,x0,0	  x0:0x00000000
       29615000	      2960	800014b8	006068b3	or	x17,x0,x6	  x0:0x00000000  x6:0xffffffc4 x17=0xffffffc4
       29625000	      2961	800014bc	00525393	srli	x7,x4,0x5	  x4:0x00000001  x7=0x00000000
       29635000	      2962	800014c0	408dd833	sra	x16,x27,x8	 x27:0xffffff75  x8:0xffffffee x16=0xffffffff
       29645000	      2963	800014c4	04f28063	beq	x5,x15,80001504	  x5:0x00000001 x15:0x00000001
       29655000	      2964	00000000	00000013	addi	x0,x0,0	  x0:0x00000000
       29665000	      2965	80001500	00000013	addi	x0,x0,0	  x0:0x00000000
       29675000	      2966	80001504	004a9e93	slli	x29,x21,0x4	 x21:0xc0000000 x29=0x00000000
       29685000	      2967	80001508	e3668393	addi	x7,x13,-458	 x13:0x80009fc4  x7=0x80009dfa
       29695000	      2968	8000150c	0068d233	srl	x4,x17,x6	 x17:0xffffffc4  x6:0xffffffc4  x4=0x0ffffffc
       29705000	      2969	80001510	01aaca33	xor	x20,x21,x26	 x21:0xc0000000 x26:0xe279267d x20=0x2279267d
       29715000	      2970	80001514	2cc37413	andi	x8,x6,716	  x6:0xffffffc4  x8=0x000002c4
       29725000	      2971	80001518	006a82b3	add	x5,x21,x6	 x21:0xc0000000  x6:0xffffffc4  x5=0xbfffffc4
       29735000	      2972	8000151c	01cb9413	slli	x8,x23,0x1c	 x23:0xfffffffd  x8=0xd0000000
       29745000	      2973	80001520	00a3f633	and	x12,x7,x10	  x7:0x80009dfa x10:0x253de239 x12=0x00008038
       29755000	      2974	80001524	015a45b3	xor	x11,x20,x21	 x20:0x2279267d x21:0xc0000000 x11=0xe279267d
       29765000	      2975	80001528	38268893	addi	x17,x13,898	 x13:0x80009fc4 x17=0x8000a346
       29775000	      2976	8000152c	41fa59b3	sra	x19,x20,x31	 x20:0x2279267d x31:0x80009f70 x19=0x00002279
       29785000	      2977	80001530	a7247d97	auipc	x27,0xa7247	 x27=0x2724852c
       29795000	      2978	80001534	d888af13	slti	x30,x17,-632	 x17:0x8000a346 x30=0x00000001
       29805000	      2979	80001538	01b34263	blt	x6,x27,8000153c	  x6:0xffffffc4 x27:0x2724852c
       29815000	      2980	00000000	00000013	addi	x0,x0,0	  x0:0x00000000
       29825000	      2981	80001538	00000013	addi	x0,x0,0	  x0:0x00000000
       29835000	      2982	8000153c	41a8ad93	slti	x27,x17,1050	 x17:0x8000a346 x27=0x00000001
       29845000	      2983	80001540	00776db3	or	x27,x14,x7	 x14:0x3fffb047  x7:0x80009dfa x27=0xbfffbdff
       29855000	      2984	80001544	02950e63	beq	x10,x9,80001580	 x10:0x253de239  x9:0xe2792210
       29865000	      2985	80001548	025d9463	bne	x27,x5,80001570	 x27:0xbfffbdff  x5:0xbfffffc4
       29875000	      2986	00000000	00000013	addi	x0,x0,0	  x0:0x00000000
       29885000	      2987	8000156c	00000013	addi	x0,x0,0	  x0:0x00000000
       29895000	      2988	80001570	d0584b93	xori	x23,x16,-763	 x16:0xffffffff x23=0x000002fa
       29905000	      2989	80001574	0003c933	xor	x18,x7,x0	  x7:0x80009dfa  x0:0x00000000 x18=0x80009dfa
       29915000	      2990	80001578	003aa233	slt	x4,x21,x3	 x21:0xc0000000  x3:0x253de10c  x4=0x00000001
       29925000	      2991	8000157c	40d98db3	sub	x27,x19,x13	 x19:0x00002279 x13:0x80009fc4 x27=0x7fff82b5
       29935000	      2992	80001580	05e9f063	bgeu	x19,x30,800015c0	 x19:0x00002279 x30:0x00000001
       29945000	      2993	00000000	00000013	addi	x0,x0,0	  x0:0x00000000
       29955000	      2994	800015bc	00000013	addi	x0,x0,0	  x0:0x00000000
       29965000	      2995	800015c0	03ee6263	bltu	x28,x30,800015e4	 x28:0x00000000 x30:0x00000001
       29975000	      2996	00000000	00000013	addi	x0,x0,0	  x0:0x00000000
       29985000	      2997	800015e0	00000013	addi	x0,x0,0	  x0:0x00000000
       29995000	      2998	800015e4	049e4463	blt	x28,x9,8000162c	 x28:0x00000000  x9:0xe2792210
       30005000	      2999	800015e8	01acf863	bgeu	x25,x26,800015f8	 x25:0x00000001 x26:0xe279267d
       30015000	      3000	800015ec	01737ab3	and	x21,x6,x23	  x6:0xffffffc4 x23:0x000002fa x21=0x000002c0
       30025000	      3001	800015f0	f433c513	xori	x10,x7,-189	  x7:0x80009dfa x10=0x7fff62b9
       30035000	      3002	800015f4	97116993	ori	x19,x2,-1679	  x2:0xfe00027f x19=0xfffffb7f
       30045000	      3003	800015f8	00000013	addi	x0,x0,0	  x0:0x00000000
       30055000	      3004	800015fc	00000013	addi	x0,x0,0	  x0:0x00000000
       30065000	      3005	80001600	008a5c33	srl	x24,x20,x8	 x20:0x2279267d  x8:0xd0000000 x24=0x2279267d
       30075000	      3006	80001604	00000013	addi	x0,x0,0	  x0:0x00000000
       30085000	      3007	80001608	02659463	bne	x11,x6,80001630	 x11:0xe279267d  x6:0xffffffc4
       30095000	      3008	00000000	00000013	addi	x0,x0,0	  x0:0x00000000
       30105000	      3009	8000162c	00000013	addi	x0,x0,0	  x0:0x00000000
       30115000	      3010	80001630	41bfd213	srai	x4,x31,0x1b	 x31:0x80009f70  x4=0xfffffff0
       30125000	      3011	80001634	da01ac13	slti	x24,x3,-608	  x3:0x253de10c x24=0x00000000
       30135000	      3012	80001638	01c695b3	sll	x11,x13,x28	 x13:0x80009fc4 x28:0x00000000 x11=0x80009fc4
       30145000	      3013	8000163c	19392a13	slti	x20,x18,403	 x18:0x80009dfa x20=0x00000001
       30155000	      3014	80001640	00000013	addi	x0,x0,0	  x0:0x00000000
       30165000	      3015	80001644	00000013	addi	x0,x0,0	  x0:0x00000000
       30175000	      3016	80001648	00000013	addi	x0,x0,0	  x0:0x00000000
       30185000	      3017	8000164c	000aa5b3	slt	x11,x21,x0	 x21:0x000002c0  x0:0x00000000 x11=0x00000000
       30195000	      3018	80001650	015d9cb3	sll	x25,x27,x21	 x27:0x7fff82b5 x21:0x000002c0 x25=0x7fff82b5
       30205000	      3019	80001654	010b5e33	srl	x28,x22,x16	 x22:0x00000000 x16:0xffffffff x28=0x00000000
       30215000	      3020	80001658	41e48933	sub	x18,x9,x30	  x9:0xe2792210 x30:0x00000001 x18=0xe279220f
       30225000	      3021	8000165c	4017ec13	ori	x24,x15,1025	 x15:0x00000001 x24=0x00000401
       30235000	      3022	80001660	ecd8ca97	auipc	x21,0xecd8c	 x21=0x6cd8d65c
       30245000	      3023	80001664	90257413	andi	x8,x10,-1790	 x10:0x7fff62b9  x8=0x7fff6000
       30255000	      3024	80001668	03e16063	bltu	x2,x30,80001688	  x2:0xfe00027f x30:0x00000001
       30265000	      3025	8000166c	01fe6133	or	x2,x28,x31	 x28:0x00000000 x31:0x80009f70  x2=0x80009f70
       30275000	      3026	80001670	00000013	addi	x0,x0,0	  x0:0x00000000
       30285000	      3027	80001674	032e7e63	bgeu	x28,x18,800016b0	 x28:0x00000000 x18:0xe279220f
       30295000	      3028	80001678	025a6863	bltu	x20,x5,800016a8	 x20:0x00000001  x5:0xbfffffc4
       30305000	      3029	00000000	00000013	addi	x0,x0,0	  x0:0x00000000
       30315000	      3030	800016a4	00000013	addi	x0,x0,0	  x0:0x00000000
       30325000	      3031	800016a8	00000013	addi	x0,x0,0	  x0:0x00000000
       30335000	      3032	800016ac	c8d0cf13	xori	x30,x1,-883	  x1:0x00000001 x30=0xfffffc8c
       30345000	      3033	800016b0	0321de63	bge	x3,x18,800016ec	  x3:0x253de10c x18:0xe279220f
       30355000	      3034	00000000	00000013	addi	x0,x0,0	  x0:0x00000000
       30365000	      3035	800016e8	00000013	addi	x0,x0,0	  x0:0x00000000
       30375000	      3036	800016ec	01a0ed33	or	x26,x1,x26	  x1:0x00000001 x26:0xe279267d x26=0xe279267d
       30385000	      3037	800016f0	b0007b93	andi	x23,x0,-1280	  x0:0x00000000 x23=0x00000000
       30395000	      3038	800016f4	03187463	bgeu	x16,x17,8000171c	 x16:0xffffffff x17:0x8000a346
       30405000	      3039	00000000	00000013	addi	x0,x0,0	  x0:0x00000000
       30415000	      3040	80001718	00000013	addi	x0,x0,0	  x0:0x00000000
       30425000	      3041	8000171c	009b0bb3	add	x23,x22,x9	 x22:0x00000000  x9:0xe2792210 x23=0xe2792210
       30435000	      3042	80001720	028a8863	beq	x21,x8,80001750	 x21:0x6cd8d65c  x8:0x7fff6000
       30445000	      3043	80001724	00000013	addi	x0,x0,0	  x0:0x00000000
       30455000	      3044	80001728	23117613	andi	x12,x2,561	  x2:0x80009f70 x12=0x00000230
       30465000	      3045	8000172c	1f1f8413	addi	x8,x31,497	 x31:0x80009f70  x8=0x8000a161
       30475000	      3046	80001730	00c41db3	sll	x27,x8,x12	  x8:0x8000a161 x12:0x00000230 x27=0xa1610000
       30485000	      3047	80001734	048e4063	blt	x28,x8,80001774	 x28:0x00000000  x8:0x8000a161
       30495000	      3048	80001738	65c4b093	sltiu	x1,x9,1628	  x9:0xe2792210  x1=0x00000000
       30505000	      3049	8000173c	01e25c33	srl	x24,x4,x30	  x4:0xfffffff0 x30:0xfffffc8c x24=0x000fffff
       30515000	      3050	80001740	045c8063	beq	x25,x5,80001780	 x25:0x7fff82b5  x5:0xbfffffc4
       30525000	      3051	80001744	41645d13	srai	x26,x8,0x16	  x8:0x8000a161 x26=0xfffffe00
       30535000	      3052	80001748	9a20fb13	andi	x22,x1,-1630	  x1:0x00000000 x22=0x00000000
       30545000	      3053	8000174c	87ca2013	slti	x0,x20,-1924	 x20:0x00000001
       30555000	      3054	80001750	00c190b3	sll	x1,x3,x12	  x3:0x253de10c x12:0x00000230  x1=0xe10c0000
       30565000	      3055	80001754	00390233	add	x4,x18,x3	 x18:0xe279220f  x3:0x253de10c  x4=0x07b7031b
       30575000	      3056	80001758	41a95c33	sra	x24,x18,x26	 x18:0xe279220f x26:0xfffffe00 x24=0xe279220f
       30585000	      3057	8000175c	0161cd33	xor	x26,x3,x22	  x3:0x253de10c x22:0x00000000 x26=0x253de10c
       30595000	      3058	80001760	00125663	bge	x4,x1,8000176c	  x4:0x07b7031b  x1:0xe10c0000
       30605000	      3059	00000000	00000013	addi	x0,x0,0	  x0:0x00000000
       30615000	      3060	80001768	00000013	addi	x0,x0,0	  x0:0x00000000
       30625000	      3061	8000176c	0178fb33	and	x22,x17,x23	 x17:0x8000a346 x23:0xe2792210 x22=0x80002200
       30635000	      3062	80001770	00000013	addi	x0,x0,0	  x0:0x00000000
       30645000	      3063	80001774	02f3dc63	bge	x7,x15,800017ac	  x7:0x80009dfa x15:0x00000001
       30655000	      3064	80001778	a0b9ce13	xori	x28,x19,-1525	 x19:0xfffffb7f x28=0x00000174
       30665000	      3065	8000177c	7d066393	ori	x7,x12,2000	 x12:0x00000230  x7=0x000007f0
       30675000	      3066	80001780	dd978113	addi	x2,x15,-551	 x15:0x00000001  x2=0xfffffdda
       30685000	      3067	80001784	02ffee63	bltu	x31,x15,800017c0	 x31:0x80009f70 x15:0x00000001
       30695000	      3068	80001788	01459b33	sll	x22,x11,x20	 x11:0x00000000 x20:0x00000001 x22=0x00000000
       30705000	      3069	8000178c	0309d063	bge	x19,x16,800017ac	 x19:0xfffffb7f x16:0xffffffff
       30715000	      3070	80001790	4350b293	sltiu	x5,x1,1077	  x1:0xe10c0000  x5=0x00000000
       30725000	      3071	80001794	01c84033	xor	x0,x16,x28	 x16:0xffffffff x28:0x00000174
       30735000	      3072	80001798	043d9663	bne	x27,x3,800017e4	 x27:0xa1610000  x3:0x253de10c
       30745000	      3073	00000000	00000013	addi	x0,x0,0	  x0:0x00000000
       30755000	      3074	800017e0	00000013	addi	x0,x0,0	  x0:0x00000000
       30765000	      3075	800017e4	b778aa13	slti	x20,x17,-1161	 x17:0x8000a346 x20=0x00000001
       30775000	      3076	800017e8	69c88413	addi	x8,x17,1692	 x17:0x8000a346  x8=0x8000a9e2
       30785000	      3077	800017ec	00521933	sll	x18,x4,x5	  x4:0x07b7031b  x5:0x00000000 x18=0x07b7031b
       30795000	      3078	800017f0	e0e1deb7	lui	x29,0xe0e1d	 x29=0xe0e1d000
       30805000	      3079	800017f4	edd4c813	xori	x16,x9,-291	  x9:0xe2792210 x16=0x1d86dccd
       30815000	      3080	800017f8	7ffbf513	andi	x10,x23,2047	 x23:0xe2792210 x10=0x00000210
       30825000	      3081	800017fc	00000013	addi	x0,x0,0	  x0:0x00000000
       30835000	      3082	80001800	40b25db3	sra	x27,x4,x11	  x4:0x07b7031b x11:0x00000000 x27=0x07b7031b
       30845000	      3083	80001804	01865813	srli	x16,x12,0x18	 x12:0x00000230 x16=0x00000000
       30855000	      3084	80001808	a8ac7413	andi	x8,x24,-1398	 x24:0xe279220f  x8=0xe279220a
       30865000	      3085	8000180c	0051c8b3	xor	x17,x3,x5	  x3:0x253de10c  x5:0x00000000 x17=0x253de10c
       30875000	      3086	80001810	00000013	addi	x0,x0,0	  x0:0x00000000
       30885000	      3087	80001814	be89fb13	andi	x22,x19,-1048	 x19:0xfffffb7f x22=0xfffffb68
       30895000	      3088	80001818	01348b33	add	x22,x9,x19	  x9:0xe2792210 x19:0xfffffb7f x22=0xe2791d8f
       30905000	      3089	8000181c	00591e93	slli	x29,x18,0x5	 x18:0x07b7031b x29=0xf6e06360
       30915000	      3090	80001820	00000013	addi	x0,x0,0	  x0:0x00000000
       30925000	      3091	80001824	5361b813	sltiu	x16,x3,1334	  x3:0x253de10c x16=0x00000000
       30935000	      3092	80001828	05095263	bge	x18,x16,8000186c	 x18:0x07b7031b x16:0x00000000
       30945000	      3093	00000000	00000013	addi	x0,x0,0	  x0:0x00000000
       30955000	      3094	80001868	00000013	addi	x0,x0,0	  x0:0x00000000
       30965000	      3095	8000186c	00d90333	add	x6,x18,x13	 x18:0x07b7031b x13:0x80009fc4  x6=0x87b7a2df
       30975000	      3096	80001870	0006ec63	bltu	x13,x0,80001888	 x13:0x80009fc4  x0:0x00000000
       30985000	      3097	80001874	00008333	add	x6,x1,x0	  x1:0xe10c0000  x0:0x00000000  x6=0xe10c0000
       30995000	      3098	80001878	014be033	or	x0,x23,x20	 x23:0xe2792210 x20:0x00000001
       31005000	      3099	8000187c	401c5a93	srai	x21,x24,0x1	 x24:0xe279220f x21=0xf13c9107
       31015000	      3100	80001880	010ae2b3	or	x5,x21,x16	 x21:0xf13c9107 x16:0x00000000  x5=0xf13c9107
       31025000	      3101	80001884	011858b3	srl	x17,x16,x17	 x16:0x00000000 x17:0x253de10c x17=0x00000000
       31035000	      3102	80001888	00000013	addi	x0,x0,0	  x0:0x00000000
       31045000	      3103	8000188c	0145ad33	slt	x26,x11,x20	 x11:0x00000000 x20:0x00000001 x26=0x00000001
       31055000	      3104	80001890	0137e263	bltu	x15,x19,80001894	 x15:0x00000001 x19:0xfffffb7f
       31065000	      3105	00000000	00000013	addi	x0,x0,0	  x0:0x00000000
       31075000	      3106	80001890	00000013	addi	x0,x0,0	  x0:0x00000000
       31085000	      3107	80001894	01c24333	xor	x6,x4,x28	  x4:0x07b7031b x28:0x00000174  x6=0x07b7026f
       31095000	      3108	80001898	011ee8b3	or	x17,x29,x17	 x29:0xf6e06360 x17:0x00000000 x17=0xf6e06360
       31105000	      3109	8000189c	44e750b7	lui	x1,0x44e75	  x1=0x44e75000
       31115000	      3110	800018a0	0124eb33	or	x22,x9,x18	  x9:0xe2792210 x18:0x07b7031b x22=0xe7ff231b
       31125000	      3111	800018a4	00ebec63	bltu	x23,x14,800018bc	 x23:0xe2792210 x14:0x3fffb047
       31135000	      3112	800018a8	11f5f613	andi	x12,x11,287	 x11:0x00000000 x12=0x00000000
       31145000	      3113	800018ac	122c7593	andi	x11,x24,290	 x24:0xe279220f x11=0x00000002
       31155000	      3114	800018b0	01f50c33	add	x24,x10,x31	 x10:0x00000210 x31:0x80009f70 x24=0x8000a180
       31165000	      3115	800018b4	ef457e93	andi	x29,x10,-268	 x10:0x00000210 x29=0x00000210
       31175000	      3116	800018b8	00bb2bb3	slt	x23,x22,x11	 x22:0xe7ff231b x11:0x00000002 x23=0x00000001
       31185000	      3117	800018bc	00000013	addi	x0,x0,0	  x0:0x00000000
       31195000	      3118	800018c0	00873233	sltu	x4,x14,x8	 x14:0x3fffb047  x8:0xe279220a  x4=0x00000001
       31205000	      3119	800018c4	00e1e0b3	or	x1,x3,x14	  x3:0x253de10c x14:0x3fffb047  x1=0x3ffff14f
       31215000	      3120	800018c8	04701063	bne	x0,x7,80001908	  x0:0x00000000  x7:0x000007f0
       31225000	      3121	00000000	00000013	addi	x0,x0,0	  x0:0x00000000
       31235000	      3122	80001904	00000013	addi	x0,x0,0	  x0:0x00000000
       31245000	      3123	80001908	0142c933	xor	x18,x5,x20	  x5:0xf13c9107 x20:0x00000001 x18=0xf13c9106
       31255000	      3124	8000190c	01232333	slt	x6,x6,x18	  x6:0x07b7026f x18:0xf13c9106  x6=0x00000000
       31265000	      3125	80001910	01829633	sll	x12,x5,x24	  x5:0xf13c9107 x24:0x8000a180 x12=0xf13c9107
       31275000	      3126	80001914	0110f533	and	x10,x1,x17	  x1:0x3ffff14f x17:0xf6e06360 x10=0x36e06140
       31285000	      3127	80001918	0328c263	blt	x17,x18,8000193c	 x17:0xf6e06360 x18:0xf13c9106
       31295000	      3128	8000191c	01cd23b3	slt	x7,x26,x28	 x26:0x00000001 x28:0x00000174  x7=0x00000001
       31305000	      3129	80001920	413058b3	sra	x17,x0,x19	  x0:0x00000000 x19:0xfffffb7f x17=0x00000000
       31315000	      3130	80001924	01620a33	add	x20,x4,x22	  x4:0x00000001 x22:0xe7ff231b x20=0xe7ff231c
       31325000	      3131	80001928	0172d233	srl	x4,x5,x23	  x5:0xf13c9107 x23:0x00000001  x4=0x789e4883
       31335000	      3132	8000192c	00841533	sll	x10,x8,x8	  x8:0xe279220a  x8:0xe279220a x10=0xe4882800
       31345000	      3133	80001930	416bdc33	sra	x24,x23,x22	 x23:0x00000001 x22:0xe7ff231b x24=0x00000000
       31355000	      3134	80001934	00b99e33	sll	x28,x19,x11	 x19:0xfffffb7f x11:0x00000002 x28=0xffffedfc
       31365000	      3135	80001938	a2dbe513	ori	x10,x23,-1491	 x23:0x00000001 x10=0xfffffa2d
       31375000	      3136	8000193c	006aea33	or	x20,x21,x6	 x21:0xf13c9107  x6:0x00000000 x20=0xf13c9107
       31385000	      3137	80001940	0174f533	and	x10,x9,x23	  x9:0xe2792210 x23:0x00000001 x10=0x00000000
       31395000	      3138	80001944	0084f5b3	and	x11,x9,x8	  x9:0xe2792210  x8:0xe279220a x11=0xe2792200
       31405000	      3139	80001948	03e14813	xori	x16,x2,62	  x2:0xfffffdda x16=0xfffffde4
       31415000	      3140	8000194c	284bc293	xori	x5,x23,644	 x23:0x00000001  x5=0x00000285
       31425000	      3141	80001950	00000013	addi	x0,x0,0	  x0:0x00000000
       31435000	      3142	80001954	01ffd393	srli	x7,x31,0x1f	 x31:0x80009f70  x7=0x00000001
       31445000	      3143	80001958	00b4bdb3	sltu	x27,x9,x11	  x9:0xe2792210 x11:0xe2792200 x27=0x00000000
       31455000	      3144	8000195c	55ef7413	andi	x8,x30,1374	 x30:0xfffffc8c  x8=0x0000040c
       31465000	      3145	80001960	3635ed93	ori	x27,x11,867	 x11:0xe2792200 x27=0xe2792363
       31475000	      3146	80001964	415b5e33	sra	x28,x22,x21	 x22:0xe7ff231b x21:0xf13c9107 x28=0xffcffe46
       31485000	      3147	80001968	407c0d33	sub	x26,x24,x7	 x24:0x00000000  x7:0x00000001 x26=0xffffffff
       31495000	      3148	8000196c	00e71833	sll	x16,x14,x14	 x14:0x3fffb047 x14:0x3fffb047 x16=0xffd82380
       31505000	      3149	80001970	0181aa33	slt	x20,x3,x24	  x3:0x253de10c x24:0x00000000 x20=0x00000000
       31515000	      3150	80001974	0011fdb3	and	x27,x3,x1	  x3:0x253de10c  x1:0x3ffff14f x27=0x253de10c
       31525000	      3151	80001978	41100e33	sub	x28,x0,x17	  x0:0x00000000 x17:0x00000000 x28=0x00000000
       31535000	      3152	8000197c	08d3dc63	bge	x7,x13,80001a14	  x7:0x00000001 x13:0x80009fc4
       31545000	      3153	00000000	00000013	addi	x0,x0,0	  x0:0x00000000
       31555000	      3154	80001a10	00000013	addi	x0,x0,0	  x0:0x00000000
       31565000	      3155	80001a14	01b99b93	slli	x23,x19,0x1b	 x19:0xfffffb7f x23=0xf8000000
       31575000	      3156	80001a18	41e95833	sra	x16,x18,x30	 x18:0xf13c9106 x30:0xfffffc8c x16=0xffff13c9
       31585000	      3157	80001a1c	ce8f3213	sltiu	x4,x30,-792	 x30:0xfffffc8c  x4=0x00000001
       31595000	      3158	80001a20	0221f063	bgeu	x3,x2,80001a40	  x3:0x253de10c  x2:0xfffffdda
       31605000	      3159	80001a24	fb7683b7	lui	x7,0xfb768	  x7=0xfb768000
       31615000	      3160	80001a28	00000013	addi	x0,x0,0	  x0:0x00000000
       31625000	      3161	80001a2c	f3a46037	lui	x0,0xf3a46	
       31635000	      3162	80001a30	00e20463	beq	x4,x14,80001a38	  x4:0x00000001 x14:0x3fffb047
       31645000	      3163	80001a34	2a9aaa93	slti	x21,x21,681	 x21:0xf13c9107 x21=0x00000001
       31655000	      3164	80001a38	01489c63	bne	x17,x20,80001a50	 x17:0x00000000 x20:0x00000000
       31665000	      3165	80001a3c	410c0b33	sub	x22,x24,x16	 x24:0x00000000 x16:0xffff13c9 x22=0x0000ec37
       31675000	      3166	80001a40	0069ce33	xor	x28,x19,x6	 x19:0xfffffb7f  x6:0x00000000 x28=0xfffffb7f
       31685000	      3167	80001a44	e066c393	xori	x7,x13,-506	 x13:0x80009fc4  x7=0x7fff61c2
       31695000	      3168	80001a48	4b3f1197	auipc	x3,0x4b3f1	  x3=0xcb3f2a44
       31705000	      3169	80001a4c	01a34463	blt	x6,x26,80001a54	  x6:0x00000000 x26:0xffffffff
       31715000	      3170	80001a50	ff30be13	sltiu	x28,x1,-13	  x1:0x3ffff14f x28=0x00000001
       31725000	      3171	80001a54	00a479b3	and	x19,x8,x10	  x8:0x0000040c x10:0x00000000 x19=0x00000000
       31735000	      3172	80001a58	01731393	slli	x7,x6,0x17	  x6:0x00000000  x7=0x00000000
       31745000	      3173	80001a5c	010bf233	and	x4,x23,x16	 x23:0xf8000000 x16:0xffff13c9  x4=0xf8000000
       31755000	      3174	80001a60	73787a93	andi	x21,x16,1847	 x16:0xffff13c9 x21=0x00000301
       31765000	      3175	80001a64	3fc66093	ori	x1,x12,1020	 x12:0xf13c9107  x1=0xf13c93ff
       31775000	      3176	80001a68	00b563b3	or	x7,x10,x11	 x10:0x00000000 x11:0xe2792200  x7=0xe2792200
       31785000	      3177	80001a6c	00000013	addi	x0,x0,0	  x0:0x00000000
       31795000	      3178	80001a70	411edb33	sra	x22,x29,x17	 x29:0x00000210 x17:0x00000000 x22=0x00000210
       31805000	      3179	80001a74	0aa5c897	auipc	x17,0xaa5c	 x17=0x8aa5da70
       31815000	      3180	80001a78	02eef463	bgeu	x29,x14,80001aa0	 x29:0x00000210 x14:0x3fffb047
       31825000	      3181	80001a7c	002c6c63	bltu	x24,x2,80001a94	 x24:0x00000000  x2:0xfffffdda
       31835000	      3182	00000000	00000013	addi	x0,x0,0	  x0:0x00000000
       31845000	      3183	80001a90	00000013	addi	x0,x0,0	  x0:0x00000000
       31855000	      3184	80001a94	400ad133	sra	x2,x21,x0	 x21:0x00000301  x0:0x00000000  x2=0x00000301
       31865000	      3185	80001a98	00491813	slli	x16,x18,0x4	 x18:0xf13c9106 x16=0x13c91060
       31875000	      3186	80001a9c	a7543993	sltiu	x19,x8,-1419	  x8:0x0000040c x19=0x00000001
       31885000	      3187	80001aa0	0067abb3	slt	x23,x15,x6	 x15:0x00000001  x6:0x00000000 x23=0x00000000
       31895000	      3188	80001aa4	0263e263	bltu	x7,x6,80001ac8	  x7:0xe2792200  x6:0x00000000
       31905000	      3189	80001aa8	ddb9c193	xori	x3,x19,-549	 x19:0x00000001  x3=0xfffffdda
       31915000	      3190	80001aac	01a6edb3	or	x27,x13,x26	 x13:0x80009fc4 x26:0xffffffff x27=0xffffffff
       31925000	      3191	80001ab0	00974c63	blt	x14,x9,80001ac8	 x14:0x3fffb047  x9:0xe2792210
       31935000	      3192	80001ab4	0009beb3	sltu	x29,x19,x0	 x19:0x00000001  x0:0x00000000 x29=0x00000000
       31945000	      3193	80001ab8	3934a593	slti	x11,x9,915	  x9:0xe2792210 x11=0x00000001
       31955000	      3194	80001abc	019b1863	bne	x22,x25,80001acc	 x22:0x00000210 x25:0x7fff82b5
       31965000	      3195	00000000	00000013	addi	x0,x0,0	  x0:0x00000000
       31975000	      3196	80001ac8	00000013	addi	x0,x0,0	  x0:0x00000000
       31985000	      3197	80001acc	00224cb3	xor	x25,x4,x2	  x4:0xf8000000  x2:0x00000301 x25=0xf8000301
       31995000	      3198	80001ad0	019d9b33	sll	x22,x27,x25	 x27:0xffffffff x25:0xf8000301 x22=0xfffffffe
       32005000	      3199	80001ad4	4939b213	sltiu	x4,x19,1171	 x19:0x00000001  x4=0x00000001
       32015000	      3200	80001ad8	01ed00b3	add	x1,x26,x30	 x26:0xffffffff x30:0xfffffc8c  x1=0xfffffc8b
       32025000	      3201	80001adc	00487633	and	x12,x16,x4	 x16:0x13c91060  x4:0x00000001 x12=0x00000000
       32035000	      3202	80001ae0	012a6133	or	x2,x20,x18	 x20:0x00000000 x18:0xf13c9106  x2=0xf13c9106
       32045000	      3203	80001ae4	05cfe263	bltu	x31,x28,80001b28	 x31:0x80009f70 x28:0x00000001
       32055000	      3204	80001ae8	008b9db3	sll	x27,x23,x8	 x23:0x00000000  x8:0x0000040c x27=0x00000000
       32065000	      3205	80001aec	04561063	bne	x12,x5,80001b2c	 x12:0x00000000  x5:0x00000285
       32075000	      3206	00000000	00000013	addi	x0,x0,0	  x0:0x00000000
       32085000	      3207	80001b28	00000013	addi	x0,x0,0	  x0:0x00000000
       32095000	      3208	80001b2c	01b56b33	or	x22,x10,x27	 x10:0x00000000 x27:0x00000000 x22=0x00000000
       32105000	      3209	80001b30	03c21e63	bne	x4,x28,80001b6c	  x4:0x00000001 x28:0x00000001
       32115000	      3210	80001b34	00578833	add	x16,x15,x5	 x15:0x00000001  x5:0x00000285 x16=0x00000286
       32125000	      3211	80001b38	004d21b3	slt	x3,x26,x4	 x26:0xffffffff  x4:0x00000001  x3=0x00000001
       32135000	      3212	80001b3c	014c4263	blt	x24,x20,80001b40	 x24:0x00000000 x20:0x00000000
       32145000	      3213	80001b40	010e8533	add	x10,x29,x16	 x29:0x00000000 x16:0x00000286 x10=0x00000286
       32155000	      3214	80001b44	410cd8b3	sra	x17,x25,x16	 x25:0xf8000301 x16:0x00000286 x17=0xffe0000c
       32165000	      3215	80001b48	04f3c263	blt	x7,x15,80001b8c	  x7:0xe2792200 x15:0x00000001
       32175000	      3216	00000000	00000013	addi	x0,x0,0	  x0:0x00000000
       32185000	      3217	80001b88	00000013	addi	x0,x0,0	  x0:0x00000000
       32195000	      3218	80001b8c	03475663	bge	x14,x20,80001bb8	 x14:0x3fffb047 x20:0x00000000
       32205000	      3219	00000000	00000013	addi	x0,x0,0	  x0:0x00000000
       32215000	      3220	80001bb4	00000013	addi	x0,x0,0	  x0:0x00000000
       32225000	      3221	80001bb8	00000013	addi	x0,x0,0	  x0:0x00000000
       32235000	      3222	80001bbc	00a1c733	xor	x14,x3,x10	  x3:0x00000001 x10:0x00000286 x14=0x00000287
       32245000	      3223	80001bc0	7f98fe13	andi	x28,x17,2041	 x17:0xffe0000c x28=0x00000008
       32255000	      3224	80001bc4	7ec2ba93	sltiu	x21,x5,2028	  x5:0x00000285 x21=0x00000001
       32265000	      3225	80001bc8	286cb913	sltiu	x18,x25,646	 x25:0xf8000301 x18=0x00000000
       32275000	      3226	80001bcc	01361533	sll	x10,x12,x19	 x12:0x00000000 x19:0x00000001 x10=0x00000000
       32285000	      3227	80001bd0	01339e63	bne	x7,x19,80001bec	  x7:0xe2792200 x19:0x00000001
       32295000	      3228	00000000	00000013	addi	x0,x0,0	  x0:0x00000000
       32305000	      3229	80001be8	00000013	addi	x0,x0,0	  x0:0x00000000
       32315000	      3230	80001bec	26801a6f	jal	x20,80001bec	 x20=0x80001bec
       32325000	      3231	00000000	00000013	addi	x0,x0,0	  x0:0x00000000
       32335000	      3232	80002e50	00000013	addi	x0,x0,0	  x0:0x00000000
       32345000	      3233	80002e54	002741b3	xor	x3,x14,x2	 x14:0x00000287  x2:0xf13c9106  x3=0xf13c9381
       32355000	      3234	80002e58	41a55793	srai	x15,x10,0x1a	 x10:0x00000000 x15=0x00000000
       32365000	      3235	80002e5c	fc8f8f93	addi	x31,x31,-56	 x31:0x80009f70 x31=0x80009f38
       32375000	      3236	80002e60	014fa223	sw	x20,4(x31)	 x31:0x80009f38 x20:0x80001bec PA:0x80009f3c
       32385000	      3237	80002e64	eaf8a713	slti	x14,x17,-337	 x17:0xffe0000c x14=0x00000001
       32395000	      3238	80002e68	0078aab3	slt	x21,x17,x7	 x17:0xffe0000c  x7:0xe2792200 x21=0x00000000
       32405000	      3239	80002e6c	41c400b3	sub	x1,x8,x28	  x8:0x0000040c x28:0x00000008  x1=0x00000404
       32415000	      3240	80002e70	00000013	addi	x0,x0,0	  x0:0x00000000
       32425000	      3241	80002e74	f73c7893	andi	x17,x24,-141	 x24:0x00000000 x17=0x00000000
       32435000	      3242	80002e78	01e7e663	bltu	x15,x30,80002e84	 x15:0x00000000 x30:0xfffffc8c
       32445000	      3243	00000000	00000013	addi	x0,x0,0	  x0:0x00000000
       32455000	      3244	80002e80	00000013	addi	x0,x0,0	  x0:0x00000000
       32465000	      3245	80002e84	cd4fda6f	jal	x20,80002e84	 x20=0x80002e84
       32475000	      3246	00000000	00000013	addi	x0,x0,0	  x0:0x00000000
       32485000	      3247	80000354	00000013	addi	x0,x0,0	  x0:0x00000000
       32495000	      3248	80000358	01489193	slli	x3,x17,0x14	 x17:0x00000000  x3=0x00000000
       32505000	      3249	8000035c	c30b0337	lui	x6,0xc30b0	  x6=0xc30b0000
       32515000	      3250	80000360	01785813	srli	x16,x16,0x17	 x16:0x00000286 x16=0x00000000
       32525000	      3251	80000364	00a92533	slt	x10,x18,x10	 x18:0x00000000 x10:0x00000000 x10=0x00000000
       32535000	      3252	80000368	40358733	sub	x14,x11,x3	 x11:0x00000001  x3:0x00000000 x14=0x00000001
       32545000	      3253	8000036c	25a89837	lui	x16,0x25a89	 x16=0x25a89000
       32555000	      3254	80000370	00000013	addi	x0,x0,0	  x0:0x00000000
       32565000	      3255	80000374	00467463	bgeu	x12,x4,8000037c	 x12:0x00000000  x4:0x00000001
       32575000	      3256	80000378	06f77113	andi	x2,x14,111	 x14:0x00000001  x2=0x00000001
       32585000	      3257	8000037c	fccf8f93	addi	x31,x31,-52	 x31:0x80009f38 x31=0x80009f04
       32595000	      3258	80000380	406002b3	sub	x5,x0,x6	  x0:0x00000000  x6:0xc30b0000  x5=0x3cf50000
       32605000	      3259	80000384	014fa223	sw	x20,4(x31)	 x31:0x80009f04 x20:0x80002e84 PA:0x80009f08
       32615000	      3260	80000388	32ea6d97	auipc	x27,0x32ea6	 x27=0xb2ea6384
       32625000	      3261	8000038c	00000897	auipc	x17,0x0	 x17=0x80000388
       32635000	      3262	80000390	49488893	addi	x17,x17,1172	 x17:0x80000388 x17=0x8000081c
       32645000	      3263	80000394	00077533	and	x10,x14,x0	 x14:0x00000001  x0:0x00000000 x10=0x00000000
       32655000	      3264	80000398	41fcd833	sra	x16,x25,x31	 x25:0xf8000301 x31:0x80009f04 x16=0xff800030
       32665000	      3265	8000039c	01744333	xor	x6,x8,x23	  x8:0x0000040c x23:0x00000000  x6=0x0000040c
       32675000	      3266	800003a0	405d8033	sub	x0,x27,x5	 x27:0xb2ea6384  x5:0x3cf50000
       32685000	      3267	800003a4	37a88893	addi	x17,x17,890	 x17:0x8000081c x17=0x80000b96
       32695000	      3268	800003a8	7bf9c793	xori	x15,x19,1983	 x19:0x00000001 x15=0x000007be
       32705000	      3269	800003ac	011ec663	blt	x29,x17,800003b8	 x29:0x00000000 x17:0x80000b96
       32715000	      3270	800003b0	414a0f33	sub	x30,x20,x20	 x20:0x80002e84 x20:0x80002e84 x30=0x00000000
       32725000	      3271	800003b4	40cad713	srai	x14,x21,0xc	 x21:0x00000000 x14=0x00000000
       32735000	      3272	800003b8	c8688a67	jalr	x20,x17,-890	 x17:0x80000b96 x20=0x800003b8
       32745000	      3273	00000000	00000013	addi	x0,x0,0	  x0:0x00000000
       32755000	      3274	8000081c	00000013	addi	x0,x0,0	  x0:0x00000000
       32765000	      3275	80000820	0049b233	sltu	x4,x19,x4	 x19:0x00000001  x4:0x00000001  x4=0x00000000
       32775000	      3276	80000824	004e9433	sll	x8,x29,x4	 x29:0x00000000  x4:0x00000000  x8=0x00000000
       32785000	      3277	80000828	01dd5113	srli	x2,x26,0x1d	 x26:0xffffffff  x2=0x00000007
       32795000	      3278	8000082c	fc0f8f93	addi	x31,x31,-64	 x31:0x80009f04 x31=0x80009ec4
       32805000	      3279	80000830	019f9233	sll	x4,x31,x25	 x31:0x80009ec4 x25:0xf8000301  x4=0x00013d88
       32815000	      3280	80000834	014fa223	sw	x20,4(x31)	 x31:0x80009ec4 x20:0x800003b8 PA:0x80009ec8
       32825000	      3281	80000838	bb780513	addi	x10,x16,-1097	 x16:0xff800030 x10=0xff7ffbe7
       32835000	      3282	8000083c	6b47b293	sltiu	x5,x15,1716	 x15:0x000007be  x5=0x00000000
       32845000	      3283	80000840	607c3913	sltiu	x18,x24,1543	 x24:0x00000000 x18=0x00000001
       32855000	      3284	80000844	c32aaab7	lui	x21,0xc32aa	 x21=0xc32aa000
       32865000	      3285	80000848	bf08af13	slti	x30,x17,-1040	 x17:0x80000b96 x30=0x00000001
       32875000	      3286	8000084c	00002297	auipc	x5,0x2	  x5=0x80002848
       32885000	      3287	80000850	31028293	addi	x5,x5,784	  x5:0x80002848  x5=0x80002b58
       32895000	      3288	80000854	3c2c4d93	xori	x27,x24,962	 x24:0x00000000 x27=0x000003c2
       32905000	      3289	80000858	01f1abb3	slt	x23,x3,x31	  x3:0x00000000 x31:0x80009ec4 x23=0x00000000
       32915000	      3290	8000085c	f3c6e093	ori	x1,x13,-196	 x13:0x80009fc4  x1=0xfffffffc
       32925000	      3291	80000860	d5628293	addi	x5,x5,-682	  x5:0x80002b58  x5=0x800028ae
       32935000	      3292	80000864	011e9013	slli	x0,x29,0x11	 x29:0x00000000
       32945000	      3293	80000868	529ae997	auipc	x19,0x529ae	 x19=0xd29ae864
       32955000	      3294	8000086c	00a9c463	blt	x19,x10,80000874	 x19:0xd29ae864 x10:0xff7ffbe7
       32965000	      3295	00000000	00000013	addi	x0,x0,0	  x0:0x00000000
       32975000	      3296	80000870	00000013	addi	x0,x0,0	  x0:0x00000000
       32985000	      3297	80000874	2ab28a67	jalr	x20,x5,683	  x5:0x800028ae x20=0x80000874
       32995000	      3298	00000000	00000013	addi	x0,x0,0	  x0:0x00000000
       33005000	      3299	80002b58	00000013	addi	x0,x0,0	  x0:0x00000000
       33015000	      3300	80002b5c	e2f60d13	addi	x26,x12,-465	 x12:0x00000000 x26=0xfffffe2f
       33025000	      3301	80002b60	8bff3293	sltiu	x5,x30,-1857	 x30:0x00000001  x5=0x00000001
       33035000	      3302	80002b64	fccf8f93	addi	x31,x31,-52	 x31:0x80009ec4 x31=0x80009e90
       33045000	      3303	80002b68	014fa223	sw	x20,4(x31)	 x31:0x80009e90 x20:0x80000874 PA:0x80009e94
       33055000	      3304	80002b6c	26accd13	xori	x26,x25,618	 x25:0xf8000301 x26=0xf800016b
       33065000	      3305	80002b70	00700b13	addi	x22,x0,7	  x0:0x00000000 x22=0x00000007
       33075000	      3306	80002b74	40965013	srai	x0,x12,0x9	 x12:0x00000000
       33085000	      3307	80002b78	00af1213	slli	x4,x30,0xa	 x30:0x00000001  x4=0x00000400
       33095000	      3308	80002b7c	fea7cc93	xori	x25,x15,-22	 x15:0x000007be x25=0xfffff854
       33105000	      3309	80002b80	4101d213	srai	x4,x3,0x10	  x3:0x00000000  x4=0x00000000
       33115000	      3310	80002b84	0106df13	srli	x30,x13,0x10	 x13:0x80009fc4 x30=0x00008000
       33125000	      3311	80002b88	34e4b193	sltiu	x3,x9,846	  x9:0xe2792210  x3=0x00000000
       33135000	      3312	80002b8c	01100913	addi	x18,x0,17	  x0:0x00000000 x18=0x00000011
       33145000	      3313	80002b90	000283b3	add	x7,x5,x0	  x5:0x00000001  x0:0x00000000  x7=0x00000001
       33155000	      3314	80002b94	4033d833	sra	x16,x7,x3	  x7:0x00000001  x3:0x00000000 x16=0x00000001
       33165000	      3315	80002b98	04385317	auipc	x6,0x4385	  x6=0x84387b94
       33175000	      3316	80002b9c	0130af33	slt	x30,x1,x19	  x1:0xfffffffc x19:0xd29ae864 x30=0x00000000
       33185000	      3317	80002ba0	00631893	slli	x17,x6,0x6	  x6:0x84387b94 x17=0x0e1ee500
       33195000	      3318	80002ba4	003b0b13	addi	x22,x22,3	 x22:0x00000007 x22=0x0000000a
       33205000	      3319	80002ba8	ff2b6ae3	bltu	x22,x18,80002b9c	 x22:0x0000000a x18:0x00000011
       33215000	      3320	00000000	00000013	addi	x0,x0,0	  x0:0x00000000
       33225000	      3321	80002b98	00000013	addi	x0,x0,0	  x0:0x00000000
       33235000	      3322	80002b9c	0130af33	slt	x30,x1,x19	  x1:0xfffffffc x19:0xd29ae864 x30=0x00000000
       33245000	      3323	80002ba0	00631893	slli	x17,x6,0x6	  x6:0x84387b94 x17=0x0e1ee500
       33255000	      3324	80002ba4	003b0b13	addi	x22,x22,3	 x22:0x0000000a x22=0x0000000d
       33265000	      3325	80002ba8	ff2b6ae3	bltu	x22,x18,80002b9c	 x22:0x0000000d x18:0x00000011
       33275000	      3326	00000000	00000013	addi	x0,x0,0	  x0:0x00000000
       33285000	      3327	80002b98	00000013	addi	x0,x0,0	  x0:0x00000000
       33295000	      3328	80002b9c	0130af33	slt	x30,x1,x19	  x1:0xfffffffc x19:0xd29ae864 x30=0x00000000
       33305000	      3329	80002ba0	00631893	slli	x17,x6,0x6	  x6:0x84387b94 x17=0x0e1ee500
       33315000	      3330	80002ba4	003b0b13	addi	x22,x22,3	 x22:0x0000000d x22=0x00000010
       33325000	      3331	80002ba8	ff2b6ae3	bltu	x22,x18,80002b9c	 x22:0x00000010 x18:0x00000011
       33335000	      3332	00000000	00000013	addi	x0,x0,0	  x0:0x00000000
       33345000	      3333	80002b98	00000013	addi	x0,x0,0	  x0:0x00000000
       33355000	      3334	80002b9c	0130af33	slt	x30,x1,x19	  x1:0xfffffffc x19:0xd29ae864 x30=0x00000000
       33365000	      3335	80002ba0	00631893	slli	x17,x6,0x6	  x6:0x84387b94 x17=0x0e1ee500
       33375000	      3336	80002ba4	003b0b13	addi	x22,x22,3	 x22:0x00000010 x22=0x00000013
       33385000	      3337	80002ba8	ff2b6ae3	bltu	x22,x18,80002b9c	 x22:0x00000013 x18:0x00000011
       33395000	      3338	80002bac	0178ee33	or	x28,x17,x23	 x17:0x0e1ee500 x23:0x00000000 x28=0x0e1ee500
       33405000	      3339	80002bb0	0205c663	blt	x11,x0,80002bdc	 x11:0x00000001  x0:0x00000000
       33415000	      3340	80002bb4	0089d633	srl	x12,x19,x8	 x19:0xd29ae864  x8:0x00000000 x12=0xd29ae864
       33425000	      3341	80002bb8	02e1e463	bltu	x3,x14,80002be0	  x3:0x00000000 x14:0x00000000
       33435000	      3342	80002bbc	0067a233	slt	x4,x15,x6	 x15:0x000007be  x6:0x84387b94  x4=0x00000000
       33445000	      3343	80002bc0	b1cfe613	ori	x12,x31,-1252	 x31:0x80009e90 x12=0xffffff9c
       33455000	      3344	80002bc4	01240033	add	x0,x8,x18	  x8:0x00000000 x18:0x00000011
       33465000	      3345	80002bc8	016eaa33	slt	x20,x29,x22	 x29:0x00000000 x22:0x00000013 x20=0x00000001
       33475000	      3346	80002bcc	404ed593	srai	x11,x29,0x4	 x29:0x00000000 x11=0x00000000
       33485000	      3347	80002bd0	003121b3	slt	x3,x2,x3	  x2:0x00000007  x3:0x00000000  x3=0x00000000
       33495000	      3348	80002bd4	04af4663	blt	x30,x10,80002c20	 x30:0x00000000 x10:0xff7ffbe7
       33505000	      3349	80002bd8	00ad21b3	slt	x3,x26,x10	 x26:0xf800016b x10:0xff7ffbe7  x3=0x00000001
       33515000	      3350	80002bdc	02b70a63	beq	x14,x11,80002c10	 x14:0x00000000 x11:0x00000000
       33525000	      3351	00000000	00000013	addi	x0,x0,0	  x0:0x00000000
       33535000	      3352	80002c0c	00000013	addi	x0,x0,0	  x0:0x00000000
       33545000	      3353	80002c10	00784533	xor	x10,x16,x7	 x16:0x00000001  x7:0x00000001 x10=0x00000000
       33555000	      3354	80002c14	014fee33	or	x28,x31,x20	 x31:0x80009e90 x20:0x00000001 x28=0x80009e91
       33565000	      3355	80002c18	009aed33	or	x26,x21,x9	 x21:0xc32aa000  x9:0xe2792210 x26=0xe37ba210
       33575000	      3356	80002c1c	b4246313	ori	x6,x8,-1214	  x8:0x00000000  x6=0xfffffb42
       33585000	      3357	80002c20	41fcde33	sra	x28,x25,x31	 x25:0xfffff854 x31:0x80009e90 x28=0xffffffff
       33595000	      3358	80002c24	01c82d33	slt	x26,x16,x28	 x16:0x00000001 x28:0xffffffff x26=0x00000000
       33605000	      3359	80002c28	0086aab3	slt	x21,x13,x8	 x13:0x80009fc4  x8:0x00000000 x21=0x00000001
       33615000	      3360	80002c2c	4e910893	addi	x17,x2,1257	  x2:0x00000007 x17=0x000004f0
       33625000	      3361	80002c30	2db84793	xori	x15,x16,731	 x16:0x00000001 x15=0x000002da
       33635000	      3362	80002c34	f384c193	xori	x3,x9,-200	  x9:0xe2792210  x3=0x1d86dd28
       33645000	      3363	80002c38	0187a233	slt	x4,x15,x24	 x15:0x000002da x24:0x00000000  x4=0x00000000
       33655000	      3364	80002c3c	01779463	bne	x15,x23,80002c44	 x15:0x000002da x23:0x00000000
       33665000	      3365	00000000	00000013	addi	x0,x0,0	  x0:0x00000000
       33675000	      3366	80002c40	00000013	addi	x0,x0,0	  x0:0x00000000
       33685000	      3367	80002c44	00413133	sltu	x2,x2,x4	  x2:0x00000007  x4:0x00000000  x2=0x00000000
       33695000	      3368	80002c48	00733c33	sltu	x24,x6,x7	  x6:0xfffffb42  x7:0x00000001 x24=0x00000000
       33705000	      3369	80002c4c	eb9caa13	slti	x20,x25,-327	 x25:0xfffff854 x20=0x00000001
       33715000	      3370	80002c50	00f497b3	sll	x15,x9,x15	  x9:0xe2792210 x15:0x000002da x15=0x40000000
       33725000	      3371	80002c54	05274863	blt	x14,x18,80002ca4	 x14:0x00000000 x18:0x00000011
       33735000	      3372	00000000	00000013	addi	x0,x0,0	  x0:0x00000000
       33745000	      3373	80002ca0	00000013	addi	x0,x0,0	  x0:0x00000000
       33755000	      3374	80002ca4	00bc5913	srli	x18,x24,0xb	 x24:0x00000000 x18=0x00000000
       33765000	      3375	80002ca8	00f978b3	and	x17,x18,x15	 x18:0x00000000 x15:0x40000000 x17=0x00000000
       33775000	      3376	80002cac	edd2b813	sltiu	x16,x5,-291	  x5:0x00000001 x16=0x00000001
       33785000	      3377	80002cb0	0129dd93	srli	x27,x19,0x12	 x19:0xd29ae864 x27=0x000034a6
       33795000	      3378	80002cb4	01c5e333	or	x6,x11,x28	 x11:0x00000000 x28:0xffffffff  x6=0xffffffff
       33805000	      3379	80002cb8	03ff7c63	bgeu	x30,x31,80002cf0	 x30:0x00000000 x31:0x80009e90
       33815000	      3380	80002cbc	02697c63	bgeu	x18,x6,80002cf4	 x18:0x00000000  x6:0xffffffff
       33825000	      3381	80002cc0	00c4d0b3	srl	x1,x9,x12	  x9:0xe2792210 x12:0xffffff9c  x1=0x0000000e
       33835000	      3382	80002cc4	00f0beb3	sltu	x29,x1,x15	  x1:0x0000000e x15:0x40000000 x29=0x00000001
       33845000	      3383	80002cc8	023df063	bgeu	x27,x3,80002ce8	 x27:0x000034a6  x3:0x1d86dd28
       33855000	      3384	80002ccc	010d5513	srli	x10,x26,0x10	 x26:0x00000000 x10=0x00000000
       33865000	      3385	80002cd0	13d10013	addi	x0,x2,317	  x2:0x00000000
       33875000	      3386	80002cd4	41578cb3	sub	x25,x15,x21	 x15:0x40000000 x21:0x00000001 x25=0x3fffffff
       33885000	      3387	80002cd8	00ecf333	and	x6,x25,x14	 x25:0x3fffffff x14:0x00000000  x6=0x00000000
       33895000	      3388	80002cdc	0b8a8e63	beq	x21,x24,80002d98	 x21:0x00000001 x24:0x00000000
       33905000	      3389	80002ce0	d5efce13	xori	x28,x31,-674	 x31:0x80009e90 x28=0x7fff63ce
       33915000	      3390	80002ce4	0138d213	srli	x4,x17,0x13	 x17:0x00000000  x4=0x00000000
       33925000	      3391	80002ce8	01a80c33	add	x24,x16,x26	 x16:0x00000001 x26:0x00000000 x24=0x00000001
       33935000	      3392	80002cec	6d1703b7	lui	x7,0x6d170	  x7=0x6d170000
       33945000	      3393	80002cf0	40c5d913	srai	x18,x11,0xc	 x11:0x00000000 x18=0x00000000
       33955000	      3394	80002cf4	ed34c193	xori	x3,x9,-301	  x9:0xe2792210  x3=0x1d86dcc3
       33965000	      3395	80002cf8	002e3b33	sltu	x22,x28,x2	 x28:0x7fff63ce  x2:0x00000000 x22=0x00000000
       33975000	      3396	80002cfc	01f9b033	sltu	x0,x19,x31	 x19:0xd29ae864 x31:0x80009e90
       33985000	      3397	80002d00	7ca98197	auipc	x3,0x7ca98	  x3=0xfca9acfc
       33995000	      3398	80002d04	00a72eb3	slt	x29,x14,x10	 x14:0x00000000 x10:0x00000000 x29=0x00000000
       34005000	      3399	80002d08	adfeeb93	ori	x23,x29,-1313	 x29:0x00000000 x23=0xfffffadf
       34015000	      3400	80002d0c	01b9d633	srl	x12,x19,x27	 x19:0xd29ae864 x27:0x000034a6 x12=0x034a6ba1
       34025000	      3401	80002d10	015b0133	add	x2,x22,x21	 x22:0x00000000 x21:0x00000001  x2=0x00000001
       34035000	      3402	80002d14	40e48033	sub	x0,x9,x14	  x9:0xe2792210 x14:0x00000000
       34045000	      3403	80002d18	018392b3	sll	x5,x7,x24	  x7:0x6d170000 x24:0x00000001  x5=0xda2e0000
       34055000	      3404	80002d1c	00400393	addi	x7,x0,4	  x0:0x00000000  x7=0x00000004
       34065000	      3405	80002d20	011e6e33	or	x28,x28,x17	 x28:0x7fff63ce x17:0x00000000 x28=0x7fff63ce
       34075000	      3406	80002d24	a0e42237	lui	x4,0xa0e42	  x4=0xa0e42000
       34085000	      3407	80002d28	cc60a713	slti	x14,x1,-826	  x1:0x0000000e x14=0x00000000
       34095000	      3408	80002d2c	0009bf33	sltu	x30,x19,x0	 x19:0xd29ae864  x0:0x00000000 x30=0x00000000
       34105000	      3409	80002d30	00300d13	addi	x26,x0,3	  x0:0x00000000 x26=0x00000003
       34115000	      3410	80002d34	a6a66e13	ori	x28,x12,-1430	 x12:0x034a6ba1 x28=0xfffffbeb
       34125000	      3411	80002d38	003482b3	add	x5,x9,x3	  x9:0xe2792210  x3:0xfca9acfc  x5=0xdf22cf0c
       34135000	      3412	80002d3c	31e16d93	ori	x27,x2,798	  x2:0x00000001 x27=0x0000031f
       34145000	      3413	80002d40	91c80793	addi	x15,x16,-1764	 x16:0x00000001 x15=0xfffff91d
       34155000	      3414	80002d44	010f7333	and	x6,x30,x16	 x30:0x00000000 x16:0x00000001  x6=0x00000000
       34165000	      3415	80002d48	401785b3	sub	x11,x15,x1	 x15:0xfffff91d  x1:0x0000000e x11=0xfffff90f
       34175000	      3416	80002d4c	00a0e5b3	or	x11,x1,x10	  x1:0x0000000e x10:0x00000000 x11=0x0000000e
       34185000	      3417	80002d50	cb284893	xori	x17,x16,-846	 x16:0x00000001 x17=0xfffffcb3
       34195000	      3418	80002d54	de3b0213	addi	x4,x22,-541	 x22:0x00000000  x4=0xfffffde3
       34205000	      3419	80002d58	00000013	addi	x0,x0,0	  x0:0x00000000
       34215000	      3420	80002d5c	40460033	sub	x0,x12,x4	 x12:0x034a6ba1  x4:0xfffffde3
       34225000	      3421	80002d60	0046fcb3	and	x25,x13,x4	 x13:0x80009fc4  x4:0xfffffde3 x25=0x80009dc0
       34235000	      3422	80002d64	4f0ca413	slti	x8,x25,1264	 x25:0x80009dc0  x8=0x00000001
       34245000	      3423	80002d68	00294a33	xor	x20,x18,x2	 x18:0x00000000  x2:0x00000001 x20=0x00000001
       34255000	      3424	80002d6c	7aae6417	auipc	x8,0x7aae6	  x8=0xfaae8d68
       34265000	      3425	80002d70	4006d993	srai	x19,x13,0x0	 x13:0x80009fc4 x19=0x80009fc4
       34275000	      3426	80002d74	8c8ce313	ori	x6,x25,-1848	 x25:0x80009dc0  x6=0xfffffdc8
       34285000	      3427	80002d78	9354e093	ori	x1,x9,-1739	  x9:0xe2792210  x1=0xfffffb35
       34295000	      3428	80002d7c	01a00a33	add	x20,x0,x26	  x0:0x00000000 x26:0x00000003 x20=0x00000003
       34305000	      3429	80002d80	ffe38393	addi	x7,x7,-2	  x7:0x00000004  x7=0x00000002
       34315000	      3430	80002d84	341d6193	ori	x3,x26,833	 x26:0x00000003  x3=0x00000343
       34325000	      3431	80002d88	0018f233	and	x4,x17,x1	 x17:0xfffffcb3  x1:0xfffffb35  x4=0xfffff831
       34335000	      3432	80002d8c	ffa3f6e3	bgeu	x7,x26,80002d78	  x7:0x00000002 x26:0x00000003
       34345000	      3433	80002d90	01d11533	sll	x10,x2,x29	  x2:0x00000001 x29:0x00000000 x10=0x00000001
       34355000	      3434	80002d94	059ce463	bltu	x25,x25,80002ddc	 x25:0x80009dc0 x25:0x80009dc0
       34365000	      3435	80002d98	58760e97	auipc	x29,0x58760	 x29=0xd8762d94
       34375000	      3436	80002d9c	00fabb33	sltu	x22,x21,x15	 x21:0x00000001 x15:0xfffff91d x22=0x00000001
       34385000	      3437	80002da0	04961263	bne	x12,x9,80002de4	 x12:0x034a6ba1  x9:0xe2792210
       34395000	      3438	00000000	00000013	addi	x0,x0,0	  x0:0x00000000
       34405000	      3439	80002de0	00000013	addi	x0,x0,0	  x0:0x00000000
       34415000	      3440	80002de4	01105e13	srli	x28,x0,0x11	  x0:0x00000000 x28=0x00000000
       34425000	      3441	80002de8	01af4e63	blt	x30,x26,80002e04	 x30:0x00000000 x26:0x00000003
       34435000	      3442	00000000	00000013	addi	x0,x0,0	  x0:0x00000000
       34445000	      3443	80002e00	00000013	addi	x0,x0,0	  x0:0x00000000
       34455000	      3444	80002e04	69aa4213	xori	x4,x20,1690	 x20:0x00000003  x4=0x00000699
       34465000	      3445	80002e08	01359333	sll	x6,x11,x19	 x11:0x0000000e x19:0x80009fc4  x6=0x000000e0
       34475000	      3446	80002e0c	0052c863	blt	x5,x5,80002e1c	  x5:0xdf22cf0c  x5:0xdf22cf0c
       34485000	      3447	80002e10	01586663	bltu	x16,x21,80002e1c	 x16:0x00000001 x21:0x00000001
       34495000	      3448	80002e14	24c6cf37	lui	x30,0x24c6c	 x30=0x24c6c000
       34505000	      3449	80002e18	0189c263	blt	x19,x24,80002e1c	 x19:0x80009fc4 x24:0x00000001
       34515000	      3450	00000000	00000013	addi	x0,x0,0	  x0:0x00000000
       34525000	      3451	80002e18	00000013	addi	x0,x0,0	  x0:0x00000000
       34535000	      3452	80002e1c	a05f0013	addi	x0,x30,-1531	 x30:0x24c6c000
       34545000	      3453	80002e20	001d0613	addi	x12,x26,1	 x26:0x00000003 x12=0x00000004
       34555000	      3454	80002e24	00328bb3	add	x23,x5,x3	  x5:0xdf22cf0c  x3:0x00000343 x23=0xdf22d24f
       34565000	      3455	80002e28	d25c2993	slti	x19,x24,-731	 x24:0x00000001 x19=0x00000000
       34575000	      3456	80002e2c	004faa03	lw	x20,4(x31)	 x31:0x80009e90 x20=0x80000874 PA:0x80009e94
       34585000	      3457	80002e30	55d68213	addi	x4,x13,1373	 x13:0x80009fc4  x4=0x8000a521
       34595000	      3458	80002e34	40395333	sra	x6,x18,x3	 x18:0x00000000  x3:0x00000343  x6=0x00000000
       34605000	      3459	80002e38	410dd913	srai	x18,x27,0x10	 x27:0x0000031f x18=0x00000000
       34615000	      3460	80002e3c	41bf8d33	sub	x26,x31,x27	 x31:0x80009e90 x27:0x0000031f x26=0x80009b71
       34625000	      3461	80002e40	d8c1b597	auipc	x11,0xd8c1b	 x11=0x58c1de3c
       34635000	      3462	80002e44	034f8f93	addi	x31,x31,52	 x31:0x80009e90 x31=0x80009ec4
       34645000	      3463	80002e48	ea18b793	sltiu	x15,x17,-351	 x17:0xfffffcb3 x15=0x00000001
       34655000	      3464	80002e4c	001a0c13	addi	x24,x20,1	 x20:0x80000874 x24=0x80000875
       34665000	      3465	80002e50	000c0c67	jalr	x24,x24,0	 x24:0x80000875 x24=0x80002e50
       34675000	      3466	00000000	00000013	addi	x0,x0,0	  x0:0x00000000
       34685000	      3467	80000874	00000013	addi	x0,x0,0	  x0:0x00000000
       34695000	      3468	80000878	00d93933	sltu	x18,x18,x13	 x18:0x00000000 x13:0x80009fc4 x18=0x00000001
       34705000	      3469	8000087c	7bd86013	ori	x0,x16,1981	 x16:0x00000001
       34715000	      3470	80000880	8545f797	auipc	x15,0x8545f	 x15=0x0545f87c
       34725000	      3471	80000884	01d54863	blt	x10,x29,80000894	 x10:0x00000001 x29:0xd8762d94
       34735000	      3472	80000888	ce58eb37	lui	x22,0xce58e	 x22=0xce58e000
       34745000	      3473	8000088c	e93a2193	slti	x3,x20,-365	 x20:0x80000874  x3=0x00000001
       34755000	      3474	80000890	0180ceb3	xor	x29,x1,x24	  x1:0xfffffb35 x24:0x80002e50 x29=0x7fffd565
       34765000	      3475	80000894	2c802a6f	jal	x20,80000894	 x20=0x80000894
       34775000	      3476	00000000	00000013	addi	x0,x0,0	  x0:0x00000000
       34785000	      3477	80002b58	00000013	addi	x0,x0,0	  x0:0x00000000
       34795000	      3478	80002b5c	e2f60d13	addi	x26,x12,-465	 x12:0x00000004 x26=0xfffffe33
       34805000	      3479	80002b60	8bff3293	sltiu	x5,x30,-1857	 x30:0x24c6c000  x5=0x00000001
       34815000	      3480	80002b64	fccf8f93	addi	x31,x31,-52	 x31:0x80009ec4 x31=0x80009e90
       34825000	      3481	80002b68	014fa223	sw	x20,4(x31)	 x31:0x80009e90 x20:0x80000894 PA:0x80009e94
       34835000	      3482	80002b6c	26accd13	xori	x26,x25,618	 x25:0x80009dc0 x26=0x80009faa
       34845000	      3483	80002b70	00700b13	addi	x22,x0,7	  x0:0x00000000 x22=0x00000007
       34855000	      3484	80002b74	40965013	srai	x0,x12,0x9	 x12:0x00000004
       34865000	      3485	80002b78	00af1213	slli	x4,x30,0xa	 x30:0x24c6c000  x4=0x1b000000
       34875000	      3486	80002b7c	fea7cc93	xori	x25,x15,-22	 x15:0x0545f87c x25=0xfaba0796
       34885000	      3487	80002b80	4101d213	srai	x4,x3,0x10	  x3:0x00000001  x4=0x00000000
       34895000	      3488	80002b84	0106df13	srli	x30,x13,0x10	 x13:0x80009fc4 x30=0x00008000
       34905000	      3489	80002b88	34e4b193	sltiu	x3,x9,846	  x9:0xe2792210  x3=0x00000000
       34915000	      3490	80002b8c	01100913	addi	x18,x0,17	  x0:0x00000000 x18=0x00000011
       34925000	      3491	80002b90	000283b3	add	x7,x5,x0	  x5:0x00000001  x0:0x00000000  x7=0x00000001
       34935000	      3492	80002b94	4033d833	sra	x16,x7,x3	  x7:0x00000001  x3:0x00000000 x16=0x00000001
       34945000	      3493	80002b98	04385317	auipc	x6,0x4385	  x6=0x84387b94
       34955000	      3494	80002b9c	0130af33	slt	x30,x1,x19	  x1:0xfffffb35 x19:0x00000000 x30=0x00000001
       34965000	      3495	80002ba0	00631893	slli	x17,x6,0x6	  x6:0x84387b94 x17=0x0e1ee500
       34975000	      3496	80002ba4	003b0b13	addi	x22,x22,3	 x22:0x00000007 x22=0x0000000a
       34985000	      3497	80002ba8	ff2b6ae3	bltu	x22,x18,80002b9c	 x22:0x0000000a x18:0x00000011
       34995000	      3498	00000000	00000013	addi	x0,x0,0	  x0:0x00000000
       35005000	      3499	80002b98	00000013	addi	x0,x0,0	  x0:0x00000000
       35015000	      3500	80002b9c	0130af33	slt	x30,x1,x19	  x1:0xfffffb35 x19:0x00000000 x30=0x00000001
       35025000	      3501	80002ba0	00631893	slli	x17,x6,0x6	  x6:0x84387b94 x17=0x0e1ee500
       35035000	      3502	80002ba4	003b0b13	addi	x22,x22,3	 x22:0x0000000a x22=0x0000000d
       35045000	      3503	80002ba8	ff2b6ae3	bltu	x22,x18,80002b9c	 x22:0x0000000d x18:0x00000011
       35055000	      3504	00000000	00000013	addi	x0,x0,0	  x0:0x00000000
       35065000	      3505	80002b98	00000013	addi	x0,x0,0	  x0:0x00000000
       35075000	      3506	80002b9c	0130af33	slt	x30,x1,x19	  x1:0xfffffb35 x19:0x00000000 x30=0x00000001
       35085000	      3507	80002ba0	00631893	slli	x17,x6,0x6	  x6:0x84387b94 x17=0x0e1ee500
       35095000	      3508	80002ba4	003b0b13	addi	x22,x22,3	 x22:0x0000000d x22=0x00000010
       35105000	      3509	80002ba8	ff2b6ae3	bltu	x22,x18,80002b9c	 x22:0x00000010 x18:0x00000011
       35115000	      3510	00000000	00000013	addi	x0,x0,0	  x0:0x00000000
       35125000	      3511	80002b98	00000013	addi	x0,x0,0	  x0:0x00000000
       35135000	      3512	80002b9c	0130af33	slt	x30,x1,x19	  x1:0xfffffb35 x19:0x00000000 x30=0x00000001
       35145000	      3513	80002ba0	00631893	slli	x17,x6,0x6	  x6:0x84387b94 x17=0x0e1ee500
       35155000	      3514	80002ba4	003b0b13	addi	x22,x22,3	 x22:0x00000010 x22=0x00000013
       35165000	      3515	80002ba8	ff2b6ae3	bltu	x22,x18,80002b9c	 x22:0x00000013 x18:0x00000011
       35175000	      3516	80002bac	0178ee33	or	x28,x17,x23	 x17:0x0e1ee500 x23:0xdf22d24f x28=0xdf3ef74f
       35185000	      3517	80002bb0	0205c663	blt	x11,x0,80002bdc	 x11:0x58c1de3c  x0:0x00000000
       35195000	      3518	80002bb4	0089d633	srl	x12,x19,x8	 x19:0x00000000  x8:0xfaae8d68 x12=0x00000000
       35205000	      3519	80002bb8	02e1e463	bltu	x3,x14,80002be0	  x3:0x00000000 x14:0x00000000
       35215000	      3520	80002bbc	0067a233	slt	x4,x15,x6	 x15:0x0545f87c  x6:0x84387b94  x4=0x00000000
       35225000	      3521	80002bc0	b1cfe613	ori	x12,x31,-1252	 x31:0x80009e90 x12=0xffffff9c
       35235000	      3522	80002bc4	01240033	add	x0,x8,x18	  x8:0xfaae8d68 x18:0x00000011
       35245000	      3523	80002bc8	016eaa33	slt	x20,x29,x22	 x29:0x7fffd565 x22:0x00000013 x20=0x00000000
       35255000	      3524	80002bcc	404ed593	srai	x11,x29,0x4	 x29:0x7fffd565 x11=0x07fffd56
       35265000	      3525	80002bd0	003121b3	slt	x3,x2,x3	  x2:0x00000001  x3:0x00000000  x3=0x00000000
       35275000	      3526	80002bd4	04af4663	blt	x30,x10,80002c20	 x30:0x00000001 x10:0x00000001
       35285000	      3527	80002bd8	00ad21b3	slt	x3,x26,x10	 x26:0x80009faa x10:0x00000001  x3=0x00000001
       35295000	      3528	80002bdc	02b70a63	beq	x14,x11,80002c10	 x14:0x00000000 x11:0x07fffd56
       35305000	      3529	80002be0	01c6cc33	xor	x24,x13,x28	 x13:0x80009fc4 x28:0xdf3ef74f x24=0x5f3e688b
       35315000	      3530	80002be4	01231813	slli	x16,x6,0x12	  x6:0x84387b94 x16=0xee500000
       35325000	      3531	80002be8	017e1993	slli	x19,x28,0x17	 x28:0xdf3ef74f x19=0xa7800000
       35335000	      3532	80002bec	026d7a63	bgeu	x26,x6,80002c20	 x26:0x80009faa  x6:0x84387b94
       35345000	      3533	80002bf0	a404a537	lui	x10,0xa404a	 x10=0xa404a000
       35355000	      3534	80002bf4	79e44713	xori	x14,x8,1950	  x8:0xfaae8d68 x14=0xfaae8af6
       35365000	      3535	80002bf8	00000013	addi	x0,x0,0	  x0:0x00000000
       35375000	      3536	80002bfc	41b8d993	srai	x19,x17,0x1b	 x17:0x0e1ee500 x19=0x00000001
       35385000	      3537	80002c00	b0dfcd13	xori	x26,x31,-1267	 x31:0x80009e90 x26=0x7fff659d
       35395000	      3538	80002c04	8abb5137	lui	x2,0x8abb5	  x2=0x8abb5000
       35405000	      3539	80002c08	008f7663	bgeu	x30,x8,80002c14	 x30:0x00000001  x8:0xfaae8d68
       35415000	      3540	80002c0c	00000013	addi	x0,x0,0	  x0:0x00000000
       35425000	      3541	80002c10	00784533	xor	x10,x16,x7	 x16:0xee500000  x7:0x00000001 x10=0xee500001
       35435000	      3542	80002c14	014fee33	or	x28,x31,x20	 x31:0x80009e90 x20:0x00000000 x28=0x80009e90
       35445000	      3543	80002c18	009aed33	or	x26,x21,x9	 x21:0x00000001  x9:0xe2792210 x26=0xe2792211
       35455000	      3544	80002c1c	b4246313	ori	x6,x8,-1214	  x8:0xfaae8d68  x6=0xffffff6a
       35465000	      3545	80002c20	41fcde33	sra	x28,x25,x31	 x25:0xfaba0796 x31:0x80009e90 x28=0xfffffaba
       35475000	      3546	80002c24	01c82d33	slt	x26,x16,x28	 x16:0xee500000 x28:0xfffffaba x26=0x00000001
       35485000	      3547	80002c28	0086aab3	slt	x21,x13,x8	 x13:0x80009fc4  x8:0xfaae8d68 x21=0x00000001
       35495000	      3548	80002c2c	4e910893	addi	x17,x2,1257	  x2:0x8abb5000 x17=0x8abb54e9
       35505000	      3549	80002c30	2db84793	xori	x15,x16,731	 x16:0xee500000 x15=0xee5002db
       35515000	      3550	80002c34	f384c193	xori	x3,x9,-200	  x9:0xe2792210  x3=0x1d86dd28
       35525000	      3551	80002c38	0187a233	slt	x4,x15,x24	 x15:0xee5002db x24:0x5f3e688b  x4=0x00000001
       35535000	      3552	80002c3c	01779463	bne	x15,x23,80002c44	 x15:0xee5002db x23:0xdf22d24f
       35545000	      3553	00000000	00000013	addi	x0,x0,0	  x0:0x00000000
       35555000	      3554	80002c40	00000013	addi	x0,x0,0	  x0:0x00000000
       35565000	      3555	80002c44	00413133	sltu	x2,x2,x4	  x2:0x8abb5000  x4:0x00000001  x2=0x00000000
       35575000	      3556	80002c48	00733c33	sltu	x24,x6,x7	  x6:0xffffff6a  x7:0x00000001 x24=0x00000000
       35585000	      3557	80002c4c	eb9caa13	slti	x20,x25,-327	 x25:0xfaba0796 x20=0x00000001
       35595000	      3558	80002c50	00f497b3	sll	x15,x9,x15	  x9:0xe2792210 x15:0xee5002db x15=0x80000000
       35605000	      3559	80002c54	05274863	blt	x14,x18,80002ca4	 x14:0xfaae8af6 x18:0x00000011
       35615000	      3560	00000000	00000013	addi	x0,x0,0	  x0:0x00000000
       35625000	      3561	80002ca0	00000013	addi	x0,x0,0	  x0:0x00000000
       35635000	      3562	80002ca4	00bc5913	srli	x18,x24,0xb	 x24:0x00000000 x18=0x00000000
       35645000	      3563	80002ca8	00f978b3	and	x17,x18,x15	 x18:0x00000000 x15:0x80000000 x17=0x00000000
       35655000	      3564	80002cac	edd2b813	sltiu	x16,x5,-291	  x5:0x00000001 x16=0x00000001
       35665000	      3565	80002cb0	0129dd93	srli	x27,x19,0x12	 x19:0x00000001 x27=0x00000000
       35675000	      3566	80002cb4	01c5e333	or	x6,x11,x28	 x11:0x07fffd56 x28:0xfffffaba  x6=0xfffffffe
       35685000	      3567	80002cb8	03ff7c63	bgeu	x30,x31,80002cf0	 x30:0x00000001 x31:0x80009e90
       35695000	      3568	80002cbc	02697c63	bgeu	x18,x6,80002cf4	 x18:0x00000000  x6:0xfffffffe
       35705000	      3569	80002cc0	00c4d0b3	srl	x1,x9,x12	  x9:0xe2792210 x12:0xffffff9c  x1=0x0000000e
       35715000	      3570	80002cc4	00f0beb3	sltu	x29,x1,x15	  x1:0x0000000e x15:0x80000000 x29=0x00000001
       35725000	      3571	80002cc8	023df063	bgeu	x27,x3,80002ce8	 x27:0x00000000  x3:0x1d86dd28
       35735000	      3572	80002ccc	010d5513	srli	x10,x26,0x10	 x26:0x00000001 x10=0x00000000
       35745000	      3573	80002cd0	13d10013	addi	x0,x2,317	  x2:0x00000000
       35755000	      3574	80002cd4	41578cb3	sub	x25,x15,x21	 x15:0x80000000 x21:0x00000001 x25=0x7fffffff
       35765000	      3575	80002cd8	00ecf333	and	x6,x25,x14	 x25:0x7fffffff x14:0xfaae8af6  x6=0x7aae8af6
       35775000	      3576	80002cdc	0b8a8e63	beq	x21,x24,80002d98	 x21:0x00000001 x24:0x00000000
       35785000	      3577	80002ce0	d5efce13	xori	x28,x31,-674	 x31:0x80009e90 x28=0x7fff63ce
       35795000	      3578	80002ce4	0138d213	srli	x4,x17,0x13	 x17:0x00000000  x4=0x00000000
       35805000	      3579	80002ce8	01a80c33	add	x24,x16,x26	 x16:0x00000001 x26:0x00000001 x24=0x00000002
       35815000	      3580	80002cec	6d1703b7	lui	x7,0x6d170	  x7=0x6d170000
       35825000	      3581	80002cf0	40c5d913	srai	x18,x11,0xc	 x11:0x07fffd56 x18=0x00007fff
       35835000	      3582	80002cf4	ed34c193	xori	x3,x9,-301	  x9:0xe2792210  x3=0x1d86dcc3
       35845000	      3583	80002cf8	002e3b33	sltu	x22,x28,x2	 x28:0x7fff63ce  x2:0x00000000 x22=0x00000000
       35855000	      3584	80002cfc	01f9b033	sltu	x0,x19,x31	 x19:0x00000001 x31:0x80009e90
       35865000	      3585	80002d00	7ca98197	auipc	x3,0x7ca98	  x3=0xfca9acfc
       35875000	      3586	80002d04	00a72eb3	slt	x29,x14,x10	 x14:0xfaae8af6 x10:0x00000000 x29=0x00000001
       35885000	      3587	80002d08	adfeeb93	ori	x23,x29,-1313	 x29:0x00000001 x23=0xfffffadf
       35895000	      3588	80002d0c	01b9d633	srl	x12,x19,x27	 x19:0x00000001 x27:0x00000000 x12=0x00000001
       35905000	      3589	80002d10	015b0133	add	x2,x22,x21	 x22:0x00000000 x21:0x00000001  x2=0x00000001
       35915000	      3590	80002d14	40e48033	sub	x0,x9,x14	  x9:0xe2792210 x14:0xfaae8af6
       35925000	      3591	80002d18	018392b3	sll	x5,x7,x24	  x7:0x6d170000 x24:0x00000002  x5=0xb45c0000
       35935000	      3592	80002d1c	00400393	addi	x7,x0,4	  x0:0x00000000  x7=0x00000004
       35945000	      3593	80002d20	011e6e33	or	x28,x28,x17	 x28:0x7fff63ce x17:0x00000000 x28=0x7fff63ce
       35955000	      3594	80002d24	a0e42237	lui	x4,0xa0e42	  x4=0xa0e42000
       35965000	      3595	80002d28	cc60a713	slti	x14,x1,-826	  x1:0x0000000e x14=0x00000000
       35975000	      3596	80002d2c	0009bf33	sltu	x30,x19,x0	 x19:0x00000001  x0:0x00000000 x30=0x00000000
       35985000	      3597	80002d30	00300d13	addi	x26,x0,3	  x0:0x00000000 x26=0x00000003
       35995000	      3598	80002d34	a6a66e13	ori	x28,x12,-1430	 x12:0x00000001 x28=0xfffffa6b
       36005000	      3599	80002d38	003482b3	add	x5,x9,x3	  x9:0xe2792210  x3:0xfca9acfc  x5=0xdf22cf0c
       36015000	      3600	80002d3c	31e16d93	ori	x27,x2,798	  x2:0x00000001 x27=0x0000031f
       36025000	      3601	80002d40	91c80793	addi	x15,x16,-1764	 x16:0x00000001 x15=0xfffff91d
       36035000	      3602	80002d44	010f7333	and	x6,x30,x16	 x30:0x00000000 x16:0x00000001  x6=0x00000000
       36045000	      3603	80002d48	401785b3	sub	x11,x15,x1	 x15:0xfffff91d  x1:0x0000000e x11=0xfffff90f
       36055000	      3604	80002d4c	00a0e5b3	or	x11,x1,x10	  x1:0x0000000e x10:0x00000000 x11=0x0000000e
       36065000	      3605	80002d50	cb284893	xori	x17,x16,-846	 x16:0x00000001 x17=0xfffffcb3
       36075000	      3606	80002d54	de3b0213	addi	x4,x22,-541	 x22:0x00000000  x4=0xfffffde3
       36085000	      3607	80002d58	00000013	addi	x0,x0,0	  x0:0x00000000
       36095000	      3608	80002d5c	40460033	sub	x0,x12,x4	 x12:0x00000001  x4:0xfffffde3
       36105000	      3609	80002d60	0046fcb3	and	x25,x13,x4	 x13:0x80009fc4  x4:0xfffffde3 x25=0x80009dc0
       36115000	      3610	80002d64	4f0ca413	slti	x8,x25,1264	 x25:0x80009dc0  x8=0x00000001
       36125000	      3611	80002d68	00294a33	xor	x20,x18,x2	 x18:0x00007fff  x2:0x00000001 x20=0x00007ffe
       36135000	      3612	80002d6c	7aae6417	auipc	x8,0x7aae6	  x8=0xfaae8d68
       36145000	      3613	80002d70	4006d993	srai	x19,x13,0x0	 x13:0x80009fc4 x19=0x80009fc4
       36155000	      3614	80002d74	8c8ce313	ori	x6,x25,-1848	 x25:0x80009dc0  x6=0xfffffdc8
       36165000	      3615	80002d78	9354e093	ori	x1,x9,-1739	  x9:0xe2792210  x1=0xfffffb35
       36175000	      3616	80002d7c	01a00a33	add	x20,x0,x26	  x0:0x00000000 x26:0x00000003 x20=0x00000003
       36185000	      3617	80002d80	ffe38393	addi	x7,x7,-2	  x7:0x00000004  x7=0x00000002
       36195000	      3618	80002d84	341d6193	ori	x3,x26,833	 x26:0x00000003  x3=0x00000343
       36205000	      3619	80002d88	0018f233	and	x4,x17,x1	 x17:0xfffffcb3  x1:0xfffffb35  x4=0xfffff831
       36215000	      3620	80002d8c	ffa3f6e3	bgeu	x7,x26,80002d78	  x7:0x00000002 x26:0x00000003
       36225000	      3621	80002d90	01d11533	sll	x10,x2,x29	  x2:0x00000001 x29:0x00000001 x10=0x00000002
       36235000	      3622	80002d94	059ce463	bltu	x25,x25,80002ddc	 x25:0x80009dc0 x25:0x80009dc0
       36245000	      3623	80002d98	58760e97	auipc	x29,0x58760	 x29=0xd8762d94
       36255000	      3624	80002d9c	00fabb33	sltu	x22,x21,x15	 x21:0x00000001 x15:0xfffff91d x22=0x00000001
       36265000	      3625	80002da0	04961263	bne	x12,x9,80002de4	 x12:0x00000001  x9:0xe2792210
       36275000	      3626	00000000	00000013	addi	x0,x0,0	  x0:0x00000000
       36285000	      3627	80002de0	00000013	addi	x0,x0,0	  x0:0x00000000
       36295000	      3628	80002de4	01105e13	srli	x28,x0,0x11	  x0:0x00000000 x28=0x00000000
       36305000	      3629	80002de8	01af4e63	blt	x30,x26,80002e04	 x30:0x00000000 x26:0x00000003
       36315000	      3630	00000000	00000013	addi	x0,x0,0	  x0:0x00000000
       36325000	      3631	80002e00	00000013	addi	x0,x0,0	  x0:0x00000000
       36335000	      3632	80002e04	69aa4213	xori	x4,x20,1690	 x20:0x00000003  x4=0x00000699
       36345000	      3633	80002e08	01359333	sll	x6,x11,x19	 x11:0x0000000e x19:0x80009fc4  x6=0x000000e0
       36355000	      3634	80002e0c	0052c863	blt	x5,x5,80002e1c	  x5:0xdf22cf0c  x5:0xdf22cf0c
       36365000	      3635	80002e10	01586663	bltu	x16,x21,80002e1c	 x16:0x00000001 x21:0x00000001
       36375000	      3636	80002e14	24c6cf37	lui	x30,0x24c6c	 x30=0x24c6c000
       36385000	      3637	80002e18	0189c263	blt	x19,x24,80002e1c	 x19:0x80009fc4 x24:0x00000002
       36395000	      3638	00000000	00000013	addi	x0,x0,0	  x0:0x00000000
       36405000	      3639	80002e18	00000013	addi	x0,x0,0	  x0:0x00000000
       36415000	      3640	80002e1c	a05f0013	addi	x0,x30,-1531	 x30:0x24c6c000
       36425000	      3641	80002e20	001d0613	addi	x12,x26,1	 x26:0x00000003 x12=0x00000004
       36435000	      3642	80002e24	00328bb3	add	x23,x5,x3	  x5:0xdf22cf0c  x3:0x00000343 x23=0xdf22d24f
       36445000	      3643	80002e28	d25c2993	slti	x19,x24,-731	 x24:0x00000002 x19=0x00000000
       36455000	      3644	80002e2c	004faa03	lw	x20,4(x31)	 x31:0x80009e90 x20=0x80000894 PA:0x80009e94
       36465000	      3645	80002e30	55d68213	addi	x4,x13,1373	 x13:0x80009fc4  x4=0x8000a521
       36475000	      3646	80002e34	40395333	sra	x6,x18,x3	 x18:0x00007fff  x3:0x00000343  x6=0x00000fff
       36485000	      3647	80002e38	410dd913	srai	x18,x27,0x10	 x27:0x0000031f x18=0x00000000
       36495000	      3648	80002e3c	41bf8d33	sub	x26,x31,x27	 x31:0x80009e90 x27:0x0000031f x26=0x80009b71
       36505000	      3649	80002e40	d8c1b597	auipc	x11,0xd8c1b	 x11=0x58c1de3c
       36515000	      3650	80002e44	034f8f93	addi	x31,x31,52	 x31:0x80009e90 x31=0x80009ec4
       36525000	      3651	80002e48	ea18b793	sltiu	x15,x17,-351	 x17:0xfffffcb3 x15=0x00000001
       36535000	      3652	80002e4c	001a0c13	addi	x24,x20,1	 x20:0x80000894 x24=0x80000895
       36545000	      3653	80002e50	000c0c67	jalr	x24,x24,0	 x24:0x80000895 x24=0x80002e50
       36555000	      3654	00000000	00000013	addi	x0,x0,0	  x0:0x00000000
       36565000	      3655	80000894	00000013	addi	x0,x0,0	  x0:0x00000000
       36575000	      3656	80000898	c7777913	andi	x18,x14,-905	 x14:0x00000000 x18=0x00000000
       36585000	      3657	8000089c	3e2c8a93	addi	x21,x25,994	 x25:0x80009dc0 x21=0x8000a1a2
       36595000	      3658	800008a0	41d25413	srai	x8,x4,0x1d	  x4:0x8000a521  x8=0xfffffffc
       36605000	      3659	800008a4	00c45413	srli	x8,x8,0xc	  x8:0xfffffffc  x8=0x000fffff
       36615000	      3660	800008a8	2b47f313	andi	x6,x15,692	 x15:0x00000001  x6=0x00000000
       36625000	      3661	800008ac	5da7f213	andi	x4,x15,1498	 x15:0x00000001  x4=0x00000000
       36635000	      3662	800008b0	033f1263	bne	x30,x19,800008d4	 x30:0x24c6c000 x19:0x00000000
       36645000	      3663	00000000	00000013	addi	x0,x0,0	  x0:0x00000000
       36655000	      3664	800008d0	00000013	addi	x0,x0,0	  x0:0x00000000
       36665000	      3665	800008d4	023efa63	bgeu	x29,x3,80000908	 x29:0xd8762d94  x3:0x00000343
       36675000	      3666	00000000	00000013	addi	x0,x0,0	  x0:0x00000000
       36685000	      3667	80000904	00000013	addi	x0,x0,0	  x0:0x00000000
       36695000	      3668	80000908	40845a33	sra	x20,x8,x8	  x8:0x000fffff  x8:0x000fffff x20=0x00000000
       36705000	      3669	8000090c	2761de97	auipc	x29,0x2761d	 x29=0xa761d908
       36715000	      3670	80000910	00000013	addi	x0,x0,0	  x0:0x00000000
       36725000	      3671	80000914	01c5e033	or	x0,x11,x28	 x11:0x58c1de3c x28:0x00000000
       36735000	      3672	80000918	004faa03	lw	x20,4(x31)	 x31:0x80009ec4 x20=0x800003b8 PA:0x80009ec8
       36745000	      3673	8000091c	4019d113	srai	x2,x19,0x1	 x19:0x00000000  x2=0x00000000
       36755000	      3674	80000920	00d683b3	add	x7,x13,x13	 x13:0x80009fc4 x13:0x80009fc4  x7=0x00013f88
       36765000	      3675	80000924	00000013	addi	x0,x0,0	  x0:0x00000000
       36775000	      3676	80000928	4821e337	lui	x6,0x4821e	  x6=0x4821e000
       36785000	      3677	8000092c	040f8f93	addi	x31,x31,64	 x31:0x80009ec4 x31=0x80009f04
       36795000	      3678	80000930	a977bc17	auipc	x24,0xa977b	 x24=0x2977b92c
       36805000	      3679	80000934	001a0313	addi	x6,x20,1	 x20:0x800003b8  x6=0x800003b9
       36815000	      3680	80000938	00030367	jalr	x6,x6,0	  x6:0x800003b9  x6=0x80000938
       36825000	      3681	00000000	00000013	addi	x0,x0,0	  x0:0x00000000
       36835000	      3682	800003b8	00000013	addi	x0,x0,0	  x0:0x00000000
       36845000	      3683	800003bc	02d08063	beq	x1,x13,800003dc	  x1:0xfffffb35 x13:0x80009fc4
       36855000	      3684	800003c0	40cfd733	sra	x14,x31,x12	 x31:0x80009f04 x12:0x00000004 x14=0xf80009f0
       36865000	      3685	800003c4	00a6fb33	and	x22,x13,x10	 x13:0x80009fc4 x10:0x00000002 x22=0x00000000
       36875000	      3686	800003c8	72f56037	lui	x0,0x72f56	
       36885000	      3687	800003cc	40a55033	sra	x0,x10,x10	 x10:0x00000002 x10:0x00000002
       36895000	      3688	800003d0	f5157017	auipc	x0,0xf5157	
       36905000	      3689	800003d4	b5238913	addi	x18,x7,-1198	  x7:0x00013f88 x18=0x00013ada
       36915000	      3690	800003d8	00a8ebb3	or	x23,x17,x10	 x17:0xfffffcb3 x10:0x00000002 x23=0xfffffcb3
       36925000	      3691	800003dc	44400a6f	jal	x20,800003dc	 x20=0x800003dc
       36935000	      3692	00000000	00000013	addi	x0,x0,0	  x0:0x00000000
       36945000	      3693	8000081c	00000013	addi	x0,x0,0	  x0:0x00000000
       36955000	      3694	80000820	0049b233	sltu	x4,x19,x4	 x19:0x00000000  x4:0x00000000  x4=0x00000000
       36965000	      3695	80000824	004e9433	sll	x8,x29,x4	 x29:0xa761d908  x4:0x00000000  x8=0xa761d908
       36975000	      3696	80000828	01dd5113	srli	x2,x26,0x1d	 x26:0x80009b71  x2=0x00000004
       36985000	      3697	8000082c	fc0f8f93	addi	x31,x31,-64	 x31:0x80009f04 x31=0x80009ec4
       36995000	      3698	80000830	019f9233	sll	x4,x31,x25	 x31:0x80009ec4 x25:0x80009dc0  x4=0x80009ec4
       37005000	      3699	80000834	014fa223	sw	x20,4(x31)	 x31:0x80009ec4 x20:0x800003dc PA:0x80009ec8
       37015000	      3700	80000838	bb780513	addi	x10,x16,-1097	 x16:0x00000001 x10=0xfffffbb8
       37025000	      3701	8000083c	6b47b293	sltiu	x5,x15,1716	 x15:0x00000001  x5=0x00000001
       37035000	      3702	80000840	607c3913	sltiu	x18,x24,1543	 x24:0x2977b92c x18=0x00000000
       37045000	      3703	80000844	c32aaab7	lui	x21,0xc32aa	 x21=0xc32aa000
       37055000	      3704	80000848	bf08af13	slti	x30,x17,-1040	 x17:0xfffffcb3 x30=0x00000000
       37065000	      3705	8000084c	00002297	auipc	x5,0x2	  x5=0x80002848
       37075000	      3706	80000850	31028293	addi	x5,x5,784	  x5:0x80002848  x5=0x80002b58
       37085000	      3707	80000854	3c2c4d93	xori	x27,x24,962	 x24:0x2977b92c x27=0x2977baee
       37095000	      3708	80000858	01f1abb3	slt	x23,x3,x31	  x3:0x00000343 x31:0x80009ec4 x23=0x00000000
       37105000	      3709	8000085c	f3c6e093	ori	x1,x13,-196	 x13:0x80009fc4  x1=0xfffffffc
       37115000	      3710	80000860	d5628293	addi	x5,x5,-682	  x5:0x80002b58  x5=0x800028ae
       37125000	      3711	80000864	011e9013	slli	x0,x29,0x11	 x29:0xa761d908
       37135000	      3712	80000868	529ae997	auipc	x19,0x529ae	 x19=0xd29ae864
       37145000	      3713	8000086c	00a9c463	blt	x19,x10,80000874	 x19:0xd29ae864 x10:0xfffffbb8
       37155000	      3714	00000000	00000013	addi	x0,x0,0	  x0:0x00000000
       37165000	      3715	80000870	00000013	addi	x0,x0,0	  x0:0x00000000
       37175000	      3716	80000874	2ab28a67	jalr	x20,x5,683	  x5:0x800028ae x20=0x80000874
       37185000	      3717	00000000	00000013	addi	x0,x0,0	  x0:0x00000000
       37195000	      3718	80002b58	00000013	addi	x0,x0,0	  x0:0x00000000
       37205000	      3719	80002b5c	e2f60d13	addi	x26,x12,-465	 x12:0x00000004 x26=0xfffffe33
       37215000	      3720	80002b60	8bff3293	sltiu	x5,x30,-1857	 x30:0x00000000  x5=0x00000001
       37225000	      3721	80002b64	fccf8f93	addi	x31,x31,-52	 x31:0x80009ec4 x31=0x80009e90
       37235000	      3722	80002b68	014fa223	sw	x20,4(x31)	 x31:0x80009e90 x20:0x80000874 PA:0x80009e94
       37245000	      3723	80002b6c	26accd13	xori	x26,x25,618	 x25:0x80009dc0 x26=0x80009faa
       37255000	      3724	80002b70	00700b13	addi	x22,x0,7	  x0:0x00000000 x22=0x00000007
       37265000	      3725	80002b74	40965013	srai	x0,x12,0x9	 x12:0x00000004
       37275000	      3726	80002b78	00af1213	slli	x4,x30,0xa	 x30:0x00000000  x4=0x00000000
       37285000	      3727	80002b7c	fea7cc93	xori	x25,x15,-22	 x15:0x00000001 x25=0xffffffeb
       37295000	      3728	80002b80	4101d213	srai	x4,x3,0x10	  x3:0x00000343  x4=0x00000000
       37305000	      3729	80002b84	0106df13	srli	x30,x13,0x10	 x13:0x80009fc4 x30=0x00008000
       37315000	      3730	80002b88	34e4b193	sltiu	x3,x9,846	  x9:0xe2792210  x3=0x00000000
       37325000	      3731	80002b8c	01100913	addi	x18,x0,17	  x0:0x00000000 x18=0x00000011
       37335000	      3732	80002b90	000283b3	add	x7,x5,x0	  x5:0x00000001  x0:0x00000000  x7=0x00000001
       37345000	      3733	80002b94	4033d833	sra	x16,x7,x3	  x7:0x00000001  x3:0x00000000 x16=0x00000001
       37355000	      3734	80002b98	04385317	auipc	x6,0x4385	  x6=0x84387b94
       37365000	      3735	80002b9c	0130af33	slt	x30,x1,x19	  x1:0xfffffffc x19:0xd29ae864 x30=0x00000000
       37375000	      3736	80002ba0	00631893	slli	x17,x6,0x6	  x6:0x84387b94 x17=0x0e1ee500
       37385000	      3737	80002ba4	003b0b13	addi	x22,x22,3	 x22:0x00000007 x22=0x0000000a
       37395000	      3738	80002ba8	ff2b6ae3	bltu	x22,x18,80002b9c	 x22:0x0000000a x18:0x00000011
       37405000	      3739	00000000	00000013	addi	x0,x0,0	  x0:0x00000000
       37415000	      3740	80002b98	00000013	addi	x0,x0,0	  x0:0x00000000
       37425000	      3741	80002b9c	0130af33	slt	x30,x1,x19	  x1:0xfffffffc x19:0xd29ae864 x30=0x00000000
       37435000	      3742	80002ba0	00631893	slli	x17,x6,0x6	  x6:0x84387b94 x17=0x0e1ee500
       37445000	      3743	80002ba4	003b0b13	addi	x22,x22,3	 x22:0x0000000a x22=0x0000000d
       37455000	      3744	80002ba8	ff2b6ae3	bltu	x22,x18,80002b9c	 x22:0x0000000d x18:0x00000011
       37465000	      3745	00000000	00000013	addi	x0,x0,0	  x0:0x00000000
       37475000	      3746	80002b98	00000013	addi	x0,x0,0	  x0:0x00000000
       37485000	      3747	80002b9c	0130af33	slt	x30,x1,x19	  x1:0xfffffffc x19:0xd29ae864 x30=0x00000000
       37495000	      3748	80002ba0	00631893	slli	x17,x6,0x6	  x6:0x84387b94 x17=0x0e1ee500
       37505000	      3749	80002ba4	003b0b13	addi	x22,x22,3	 x22:0x0000000d x22=0x00000010
       37515000	      3750	80002ba8	ff2b6ae3	bltu	x22,x18,80002b9c	 x22:0x00000010 x18:0x00000011
       37525000	      3751	00000000	00000013	addi	x0,x0,0	  x0:0x00000000
       37535000	      3752	80002b98	00000013	addi	x0,x0,0	  x0:0x00000000
       37545000	      3753	80002b9c	0130af33	slt	x30,x1,x19	  x1:0xfffffffc x19:0xd29ae864 x30=0x00000000
       37555000	      3754	80002ba0	00631893	slli	x17,x6,0x6	  x6:0x84387b94 x17=0x0e1ee500
       37565000	      3755	80002ba4	003b0b13	addi	x22,x22,3	 x22:0x00000010 x22=0x00000013
       37575000	      3756	80002ba8	ff2b6ae3	bltu	x22,x18,80002b9c	 x22:0x00000013 x18:0x00000011
       37585000	      3757	80002bac	0178ee33	or	x28,x17,x23	 x17:0x0e1ee500 x23:0x00000000 x28=0x0e1ee500
       37595000	      3758	80002bb0	0205c663	blt	x11,x0,80002bdc	 x11:0x58c1de3c  x0:0x00000000
       37605000	      3759	80002bb4	0089d633	srl	x12,x19,x8	 x19:0xd29ae864  x8:0xa761d908 x12=0x00d29ae8
       37615000	      3760	80002bb8	02e1e463	bltu	x3,x14,80002be0	  x3:0x00000000 x14:0xf80009f0
       37625000	      3761	00000000	00000013	addi	x0,x0,0	  x0:0x00000000
       37635000	      3762	80002bdc	00000013	addi	x0,x0,0	  x0:0x00000000
       37645000	      3763	80002be0	01c6cc33	xor	x24,x13,x28	 x13:0x80009fc4 x28:0x0e1ee500 x24=0x8e1e7ac4
       37655000	      3764	80002be4	01231813	slli	x16,x6,0x12	  x6:0x84387b94 x16=0xee500000
       37665000	      3765	80002be8	017e1993	slli	x19,x28,0x17	 x28:0x0e1ee500 x19=0x80000000
       37675000	      3766	80002bec	026d7a63	bgeu	x26,x6,80002c20	 x26:0x80009faa  x6:0x84387b94
       37685000	      3767	80002bf0	a404a537	lui	x10,0xa404a	 x10=0xa404a000
       37695000	      3768	80002bf4	79e44713	xori	x14,x8,1950	  x8:0xa761d908 x14=0xa761de96
       37705000	      3769	80002bf8	00000013	addi	x0,x0,0	  x0:0x00000000
       37715000	      3770	80002bfc	41b8d993	srai	x19,x17,0x1b	 x17:0x0e1ee500 x19=0x00000001
       37725000	      3771	80002c00	b0dfcd13	xori	x26,x31,-1267	 x31:0x80009e90 x26=0x7fff659d
       37735000	      3772	80002c04	8abb5137	lui	x2,0x8abb5	  x2=0x8abb5000
       37745000	      3773	80002c08	008f7663	bgeu	x30,x8,80002c14	 x30:0x00000000  x8:0xa761d908
       37755000	      3774	80002c0c	00000013	addi	x0,x0,0	  x0:0x00000000
       37765000	      3775	80002c10	00784533	xor	x10,x16,x7	 x16:0xee500000  x7:0x00000001 x10=0xee500001
       37775000	      3776	80002c14	014fee33	or	x28,x31,x20	 x31:0x80009e90 x20:0x80000874 x28=0x80009ef4
       37785000	      3777	80002c18	009aed33	or	x26,x21,x9	 x21:0xc32aa000  x9:0xe2792210 x26=0xe37ba210
       37795000	      3778	80002c1c	b4246313	ori	x6,x8,-1214	  x8:0xa761d908  x6=0xfffffb4a
       37805000	      3779	80002c20	41fcde33	sra	x28,x25,x31	 x25:0xffffffeb x31:0x80009e90 x28=0xffffffff
       37815000	      3780	80002c24	01c82d33	slt	x26,x16,x28	 x16:0xee500000 x28:0xffffffff x26=0x00000001
       37825000	      3781	80002c28	0086aab3	slt	x21,x13,x8	 x13:0x80009fc4  x8:0xa761d908 x21=0x00000001
       37835000	      3782	80002c2c	4e910893	addi	x17,x2,1257	  x2:0x8abb5000 x17=0x8abb54e9
       37845000	      3783	80002c30	2db84793	xori	x15,x16,731	 x16:0xee500000 x15=0xee5002db
       37855000	      3784	80002c34	f384c193	xori	x3,x9,-200	  x9:0xe2792210  x3=0x1d86dd28
       37865000	      3785	80002c38	0187a233	slt	x4,x15,x24	 x15:0xee5002db x24:0x8e1e7ac4  x4=0x00000000
       37875000	      3786	80002c3c	01779463	bne	x15,x23,80002c44	 x15:0xee5002db x23:0x00000000
       37885000	      3787	00000000	00000013	addi	x0,x0,0	  x0:0x00000000
       37895000	      3788	80002c40	00000013	addi	x0,x0,0	  x0:0x00000000
       37905000	      3789	80002c44	00413133	sltu	x2,x2,x4	  x2:0x8abb5000  x4:0x00000000  x2=0x00000000
       37915000	      3790	80002c48	00733c33	sltu	x24,x6,x7	  x6:0xfffffb4a  x7:0x00000001 x24=0x00000000
       37925000	      3791	80002c4c	eb9caa13	slti	x20,x25,-327	 x25:0xffffffeb x20=0x00000000
       37935000	      3792	80002c50	00f497b3	sll	x15,x9,x15	  x9:0xe2792210 x15:0xee5002db x15=0x80000000
       37945000	      3793	80002c54	05274863	blt	x14,x18,80002ca4	 x14:0xa761de96 x18:0x00000011
       37955000	      3794	00000000	00000013	addi	x0,x0,0	  x0:0x00000000
       37965000	      3795	80002ca0	00000013	addi	x0,x0,0	  x0:0x00000000
       37975000	      3796	80002ca4	00bc5913	srli	x18,x24,0xb	 x24:0x00000000 x18=0x00000000
       37985000	      3797	80002ca8	00f978b3	and	x17,x18,x15	 x18:0x00000000 x15:0x80000000 x17=0x00000000
       37995000	      3798	80002cac	edd2b813	sltiu	x16,x5,-291	  x5:0x00000001 x16=0x00000001
       38005000	      3799	80002cb0	0129dd93	srli	x27,x19,0x12	 x19:0x00000001 x27=0x00000000
       38015000	      3800	80002cb4	01c5e333	or	x6,x11,x28	 x11:0x58c1de3c x28:0xffffffff  x6=0xffffffff
       38025000	      3801	80002cb8	03ff7c63	bgeu	x30,x31,80002cf0	 x30:0x00000000 x31:0x80009e90
       38035000	      3802	80002cbc	02697c63	bgeu	x18,x6,80002cf4	 x18:0x00000000  x6:0xffffffff
       38045000	      3803	80002cc0	00c4d0b3	srl	x1,x9,x12	  x9:0xe2792210 x12:0x00d29ae8  x1=0x00e27922
       38055000	      3804	80002cc4	00f0beb3	sltu	x29,x1,x15	  x1:0x00e27922 x15:0x80000000 x29=0x00000001
       38065000	      3805	80002cc8	023df063	bgeu	x27,x3,80002ce8	 x27:0x00000000  x3:0x1d86dd28
       38075000	      3806	80002ccc	010d5513	srli	x10,x26,0x10	 x26:0x00000001 x10=0x00000000
       38085000	      3807	80002cd0	13d10013	addi	x0,x2,317	  x2:0x00000000
       38095000	      3808	80002cd4	41578cb3	sub	x25,x15,x21	 x15:0x80000000 x21:0x00000001 x25=0x7fffffff
       38105000	      3809	80002cd8	00ecf333	and	x6,x25,x14	 x25:0x7fffffff x14:0xa761de96  x6=0x2761de96
       38115000	      3810	80002cdc	0b8a8e63	beq	x21,x24,80002d98	 x21:0x00000001 x24:0x00000000
       38125000	      3811	80002ce0	d5efce13	xori	x28,x31,-674	 x31:0x80009e90 x28=0x7fff63ce
       38135000	      3812	80002ce4	0138d213	srli	x4,x17,0x13	 x17:0x00000000  x4=0x00000000
       38145000	      3813	80002ce8	01a80c33	add	x24,x16,x26	 x16:0x00000001 x26:0x00000001 x24=0x00000002
       38155000	      3814	80002cec	6d1703b7	lui	x7,0x6d170	  x7=0x6d170000
       38165000	      3815	80002cf0	40c5d913	srai	x18,x11,0xc	 x11:0x58c1de3c x18=0x00058c1d
       38175000	      3816	80002cf4	ed34c193	xori	x3,x9,-301	  x9:0xe2792210  x3=0x1d86dcc3
       38185000	      3817	80002cf8	002e3b33	sltu	x22,x28,x2	 x28:0x7fff63ce  x2:0x00000000 x22=0x00000000
       38195000	      3818	80002cfc	01f9b033	sltu	x0,x19,x31	 x19:0x00000001 x31:0x80009e90
       38205000	      3819	80002d00	7ca98197	auipc	x3,0x7ca98	  x3=0xfca9acfc
       38215000	      3820	80002d04	00a72eb3	slt	x29,x14,x10	 x14:0xa761de96 x10:0x00000000 x29=0x00000001
       38225000	      3821	80002d08	adfeeb93	ori	x23,x29,-1313	 x29:0x00000001 x23=0xfffffadf
       38235000	      3822	80002d0c	01b9d633	srl	x12,x19,x27	 x19:0x00000001 x27:0x00000000 x12=0x00000001
       38245000	      3823	80002d10	015b0133	add	x2,x22,x21	 x22:0x00000000 x21:0x00000001  x2=0x00000001
       38255000	      3824	80002d14	40e48033	sub	x0,x9,x14	  x9:0xe2792210 x14:0xa761de96
       38265000	      3825	80002d18	018392b3	sll	x5,x7,x24	  x7:0x6d170000 x24:0x00000002  x5=0xb45c0000
       38275000	      3826	80002d1c	00400393	addi	x7,x0,4	  x0:0x00000000  x7=0x00000004
       38285000	      3827	80002d20	011e6e33	or	x28,x28,x17	 x28:0x7fff63ce x17:0x00000000 x28=0x7fff63ce
       38295000	      3828	80002d24	a0e42237	lui	x4,0xa0e42	  x4=0xa0e42000
       38305000	      3829	80002d28	cc60a713	slti	x14,x1,-826	  x1:0x00e27922 x14=0x00000000
       38315000	      3830	80002d2c	0009bf33	sltu	x30,x19,x0	 x19:0x00000001  x0:0x00000000 x30=0x00000000
       38325000	      3831	80002d30	00300d13	addi	x26,x0,3	  x0:0x00000000 x26=0x00000003
       38335000	      3832	80002d34	a6a66e13	ori	x28,x12,-1430	 x12:0x00000001 x28=0xfffffa6b
       38345000	      3833	80002d38	003482b3	add	x5,x9,x3	  x9:0xe2792210  x3:0xfca9acfc  x5=0xdf22cf0c
       38355000	      3834	80002d3c	31e16d93	ori	x27,x2,798	  x2:0x00000001 x27=0x0000031f
       38365000	      3835	80002d40	91c80793	addi	x15,x16,-1764	 x16:0x00000001 x15=0xfffff91d
       38375000	      3836	80002d44	010f7333	and	x6,x30,x16	 x30:0x00000000 x16:0x00000001  x6=0x00000000
       38385000	      3837	80002d48	401785b3	sub	x11,x15,x1	 x15:0xfffff91d  x1:0x00e27922 x11=0xff1d7ffb
       38395000	      3838	80002d4c	00a0e5b3	or	x11,x1,x10	  x1:0x00e27922 x10:0x00000000 x11=0x00e27922
       38405000	      3839	80002d50	cb284893	xori	x17,x16,-846	 x16:0x00000001 x17=0xfffffcb3
       38415000	      3840	80002d54	de3b0213	addi	x4,x22,-541	 x22:0x00000000  x4=0xfffffde3
       38425000	      3841	80002d58	00000013	addi	x0,x0,0	  x0:0x00000000
       38435000	      3842	80002d5c	40460033	sub	x0,x12,x4	 x12:0x00000001  x4:0xfffffde3
       38445000	      3843	80002d60	0046fcb3	and	x25,x13,x4	 x13:0x80009fc4  x4:0xfffffde3 x25=0x80009dc0
       38455000	      3844	80002d64	4f0ca413	slti	x8,x25,1264	 x25:0x80009dc0  x8=0x00000001
       38465000	      3845	80002d68	00294a33	xor	x20,x18,x2	 x18:0x00058c1d  x2:0x00000001 x20=0x00058c1c
       38475000	      3846	80002d6c	7aae6417	auipc	x8,0x7aae6	  x8=0xfaae8d68
       38485000	      3847	80002d70	4006d993	srai	x19,x13,0x0	 x13:0x80009fc4 x19=0x80009fc4
       38495000	      3848	80002d74	8c8ce313	ori	x6,x25,-1848	 x25:0x80009dc0  x6=0xfffffdc8
       38505000	      3849	80002d78	9354e093	ori	x1,x9,-1739	  x9:0xe2792210  x1=0xfffffb35
       38515000	      3850	80002d7c	01a00a33	add	x20,x0,x26	  x0:0x00000000 x26:0x00000003 x20=0x00000003
       38525000	      3851	80002d80	ffe38393	addi	x7,x7,-2	  x7:0x00000004  x7=0x00000002
       38535000	      3852	80002d84	341d6193	ori	x3,x26,833	 x26:0x00000003  x3=0x00000343
       38545000	      3853	80002d88	0018f233	and	x4,x17,x1	 x17:0xfffffcb3  x1:0xfffffb35  x4=0xfffff831
       38555000	      3854	80002d8c	ffa3f6e3	bgeu	x7,x26,80002d78	  x7:0x00000002 x26:0x00000003
       38565000	      3855	80002d90	01d11533	sll	x10,x2,x29	  x2:0x00000001 x29:0x00000001 x10=0x00000002
       38575000	      3856	80002d94	059ce463	bltu	x25,x25,80002ddc	 x25:0x80009dc0 x25:0x80009dc0
       38585000	      3857	80002d98	58760e97	auipc	x29,0x58760	 x29=0xd8762d94
       38595000	      3858	80002d9c	00fabb33	sltu	x22,x21,x15	 x21:0x00000001 x15:0xfffff91d x22=0x00000001
       38605000	      3859	80002da0	04961263	bne	x12,x9,80002de4	 x12:0x00000001  x9:0xe2792210
       38615000	      3860	00000000	00000013	addi	x0,x0,0	  x0:0x00000000
       38625000	      3861	80002de0	00000013	addi	x0,x0,0	  x0:0x00000000
       38635000	      3862	80002de4	01105e13	srli	x28,x0,0x11	  x0:0x00000000 x28=0x00000000
       38645000	      3863	80002de8	01af4e63	blt	x30,x26,80002e04	 x30:0x00000000 x26:0x00000003
       38655000	      3864	00000000	00000013	addi	x0,x0,0	  x0:0x00000000
       38665000	      3865	80002e00	00000013	addi	x0,x0,0	  x0:0x00000000
       38675000	      3866	80002e04	69aa4213	xori	x4,x20,1690	 x20:0x00000003  x4=0x00000699
       38685000	      3867	80002e08	01359333	sll	x6,x11,x19	 x11:0x00e27922 x19:0x80009fc4  x6=0x0e279220
       38695000	      3868	80002e0c	0052c863	blt	x5,x5,80002e1c	  x5:0xdf22cf0c  x5:0xdf22cf0c
       38705000	      3869	80002e10	01586663	bltu	x16,x21,80002e1c	 x16:0x00000001 x21:0x00000001
       38715000	      3870	80002e14	24c6cf37	lui	x30,0x24c6c	 x30=0x24c6c000
       38725000	      3871	80002e18	0189c263	blt	x19,x24,80002e1c	 x19:0x80009fc4 x24:0x00000002
       38735000	      3872	00000000	00000013	addi	x0,x0,0	  x0:0x00000000
       38745000	      3873	80002e18	00000013	addi	x0,x0,0	  x0:0x00000000
       38755000	      3874	80002e1c	a05f0013	addi	x0,x30,-1531	 x30:0x24c6c000
       38765000	      3875	80002e20	001d0613	addi	x12,x26,1	 x26:0x00000003 x12=0x00000004
       38775000	      3876	80002e24	00328bb3	add	x23,x5,x3	  x5:0xdf22cf0c  x3:0x00000343 x23=0xdf22d24f
       38785000	      3877	80002e28	d25c2993	slti	x19,x24,-731	 x24:0x00000002 x19=0x00000000
       38795000	      3878	80002e2c	004faa03	lw	x20,4(x31)	 x31:0x80009e90 x20=0x80000874 PA:0x80009e94
       38805000	      3879	80002e30	55d68213	addi	x4,x13,1373	 x13:0x80009fc4  x4=0x8000a521
       38815000	      3880	80002e34	40395333	sra	x6,x18,x3	 x18:0x00058c1d  x3:0x00000343  x6=0x0000b183
       38825000	      3881	80002e38	410dd913	srai	x18,x27,0x10	 x27:0x0000031f x18=0x00000000
       38835000	      3882	80002e3c	41bf8d33	sub	x26,x31,x27	 x31:0x80009e90 x27:0x0000031f x26=0x80009b71
       38845000	      3883	80002e40	d8c1b597	auipc	x11,0xd8c1b	 x11=0x58c1de3c
       38855000	      3884	80002e44	034f8f93	addi	x31,x31,52	 x31:0x80009e90 x31=0x80009ec4
       38865000	      3885	80002e48	ea18b793	sltiu	x15,x17,-351	 x17:0xfffffcb3 x15=0x00000001
       38875000	      3886	80002e4c	001a0c13	addi	x24,x20,1	 x20:0x80000874 x24=0x80000875
       38885000	      3887	80002e50	000c0c67	jalr	x24,x24,0	 x24:0x80000875 x24=0x80002e50
       38895000	      3888	00000000	00000013	addi	x0,x0,0	  x0:0x00000000
       38905000	      3889	80000874	00000013	addi	x0,x0,0	  x0:0x00000000
       38915000	      3890	80000878	00d93933	sltu	x18,x18,x13	 x18:0x00000000 x13:0x80009fc4 x18=0x00000001
       38925000	      3891	8000087c	7bd86013	ori	x0,x16,1981	 x16:0x00000001
       38935000	      3892	80000880	8545f797	auipc	x15,0x8545f	 x15=0x0545f87c
       38945000	      3893	80000884	01d54863	blt	x10,x29,80000894	 x10:0x00000002 x29:0xd8762d94
       38955000	      3894	80000888	ce58eb37	lui	x22,0xce58e	 x22=0xce58e000
       38965000	      3895	8000088c	e93a2193	slti	x3,x20,-365	 x20:0x80000874  x3=0x00000001
       38975000	      3896	80000890	0180ceb3	xor	x29,x1,x24	  x1:0xfffffb35 x24:0x80002e50 x29=0x7fffd565
       38985000	      3897	80000894	2c802a6f	jal	x20,80000894	 x20=0x80000894
       38995000	      3898	00000000	00000013	addi	x0,x0,0	  x0:0x00000000
       39005000	      3899	80002b58	00000013	addi	x0,x0,0	  x0:0x00000000
       39015000	      3900	80002b5c	e2f60d13	addi	x26,x12,-465	 x12:0x00000004 x26=0xfffffe33
       39025000	      3901	80002b60	8bff3293	sltiu	x5,x30,-1857	 x30:0x24c6c000  x5=0x00000001
       39035000	      3902	80002b64	fccf8f93	addi	x31,x31,-52	 x31:0x80009ec4 x31=0x80009e90
       39045000	      3903	80002b68	014fa223	sw	x20,4(x31)	 x31:0x80009e90 x20:0x80000894 PA:0x80009e94
       39055000	      3904	80002b6c	26accd13	xori	x26,x25,618	 x25:0x80009dc0 x26=0x80009faa
       39065000	      3905	80002b70	00700b13	addi	x22,x0,7	  x0:0x00000000 x22=0x00000007
       39075000	      3906	80002b74	40965013	srai	x0,x12,0x9	 x12:0x00000004
       39085000	      3907	80002b78	00af1213	slli	x4,x30,0xa	 x30:0x24c6c000  x4=0x1b000000
       39095000	      3908	80002b7c	fea7cc93	xori	x25,x15,-22	 x15:0x0545f87c x25=0xfaba0796
       39105000	      3909	80002b80	4101d213	srai	x4,x3,0x10	  x3:0x00000001  x4=0x00000000
       39115000	      3910	80002b84	0106df13	srli	x30,x13,0x10	 x13:0x80009fc4 x30=0x00008000
       39125000	      3911	80002b88	34e4b193	sltiu	x3,x9,846	  x9:0xe2792210  x3=0x00000000
       39135000	      3912	80002b8c	01100913	addi	x18,x0,17	  x0:0x00000000 x18=0x00000011
       39145000	      3913	80002b90	000283b3	add	x7,x5,x0	  x5:0x00000001  x0:0x00000000  x7=0x00000001
       39155000	      3914	80002b94	4033d833	sra	x16,x7,x3	  x7:0x00000001  x3:0x00000000 x16=0x00000001
       39165000	      3915	80002b98	04385317	auipc	x6,0x4385	  x6=0x84387b94
       39175000	      3916	80002b9c	0130af33	slt	x30,x1,x19	  x1:0xfffffb35 x19:0x00000000 x30=0x00000001
       39185000	      3917	80002ba0	00631893	slli	x17,x6,0x6	  x6:0x84387b94 x17=0x0e1ee500
       39195000	      3918	80002ba4	003b0b13	addi	x22,x22,3	 x22:0x00000007 x22=0x0000000a
       39205000	      3919	80002ba8	ff2b6ae3	bltu	x22,x18,80002b9c	 x22:0x0000000a x18:0x00000011
       39215000	      3920	00000000	00000013	addi	x0,x0,0	  x0:0x00000000
       39225000	      3921	80002b98	00000013	addi	x0,x0,0	  x0:0x00000000
       39235000	      3922	80002b9c	0130af33	slt	x30,x1,x19	  x1:0xfffffb35 x19:0x00000000 x30=0x00000001
       39245000	      3923	80002ba0	00631893	slli	x17,x6,0x6	  x6:0x84387b94 x17=0x0e1ee500
       39255000	      3924	80002ba4	003b0b13	addi	x22,x22,3	 x22:0x0000000a x22=0x0000000d
       39265000	      3925	80002ba8	ff2b6ae3	bltu	x22,x18,80002b9c	 x22:0x0000000d x18:0x00000011
       39275000	      3926	00000000	00000013	addi	x0,x0,0	  x0:0x00000000
       39285000	      3927	80002b98	00000013	addi	x0,x0,0	  x0:0x00000000
       39295000	      3928	80002b9c	0130af33	slt	x30,x1,x19	  x1:0xfffffb35 x19:0x00000000 x30=0x00000001
       39305000	      3929	80002ba0	00631893	slli	x17,x6,0x6	  x6:0x84387b94 x17=0x0e1ee500
       39315000	      3930	80002ba4	003b0b13	addi	x22,x22,3	 x22:0x0000000d x22=0x00000010
       39325000	      3931	80002ba8	ff2b6ae3	bltu	x22,x18,80002b9c	 x22:0x00000010 x18:0x00000011
       39335000	      3932	00000000	00000013	addi	x0,x0,0	  x0:0x00000000
       39345000	      3933	80002b98	00000013	addi	x0,x0,0	  x0:0x00000000
       39355000	      3934	80002b9c	0130af33	slt	x30,x1,x19	  x1:0xfffffb35 x19:0x00000000 x30=0x00000001
       39365000	      3935	80002ba0	00631893	slli	x17,x6,0x6	  x6:0x84387b94 x17=0x0e1ee500
       39375000	      3936	80002ba4	003b0b13	addi	x22,x22,3	 x22:0x00000010 x22=0x00000013
       39385000	      3937	80002ba8	ff2b6ae3	bltu	x22,x18,80002b9c	 x22:0x00000013 x18:0x00000011
       39395000	      3938	80002bac	0178ee33	or	x28,x17,x23	 x17:0x0e1ee500 x23:0xdf22d24f x28=0xdf3ef74f
       39405000	      3939	80002bb0	0205c663	blt	x11,x0,80002bdc	 x11:0x58c1de3c  x0:0x00000000
       39415000	      3940	80002bb4	0089d633	srl	x12,x19,x8	 x19:0x00000000  x8:0xfaae8d68 x12=0x00000000
       39425000	      3941	80002bb8	02e1e463	bltu	x3,x14,80002be0	  x3:0x00000000 x14:0x00000000
       39435000	      3942	80002bbc	0067a233	slt	x4,x15,x6	 x15:0x0545f87c  x6:0x84387b94  x4=0x00000000
       39445000	      3943	80002bc0	b1cfe613	ori	x12,x31,-1252	 x31:0x80009e90 x12=0xffffff9c
       39455000	      3944	80002bc4	01240033	add	x0,x8,x18	  x8:0xfaae8d68 x18:0x00000011
       39465000	      3945	80002bc8	016eaa33	slt	x20,x29,x22	 x29:0x7fffd565 x22:0x00000013 x20=0x00000000
       39475000	      3946	80002bcc	404ed593	srai	x11,x29,0x4	 x29:0x7fffd565 x11=0x07fffd56
       39485000	      3947	80002bd0	003121b3	slt	x3,x2,x3	  x2:0x00000001  x3:0x00000000  x3=0x00000000
       39495000	      3948	80002bd4	04af4663	blt	x30,x10,80002c20	 x30:0x00000001 x10:0x00000002
       39505000	      3949	00000000	00000013	addi	x0,x0,0	  x0:0x00000000
       39515000	      3950	80002c1c	00000013	addi	x0,x0,0	  x0:0x00000000
       39525000	      3951	80002c20	41fcde33	sra	x28,x25,x31	 x25:0xfaba0796 x31:0x80009e90 x28=0xfffffaba
       39535000	      3952	80002c24	01c82d33	slt	x26,x16,x28	 x16:0x00000001 x28:0xfffffaba x26=0x00000000
       39545000	      3953	80002c28	0086aab3	slt	x21,x13,x8	 x13:0x80009fc4  x8:0xfaae8d68 x21=0x00000001
       39555000	      3954	80002c2c	4e910893	addi	x17,x2,1257	  x2:0x00000001 x17=0x000004ea
       39565000	      3955	80002c30	2db84793	xori	x15,x16,731	 x16:0x00000001 x15=0x000002da
       39575000	      3956	80002c34	f384c193	xori	x3,x9,-200	  x9:0xe2792210  x3=0x1d86dd28
       39585000	      3957	80002c38	0187a233	slt	x4,x15,x24	 x15:0x000002da x24:0x80002e50  x4=0x00000000
       39595000	      3958	80002c3c	01779463	bne	x15,x23,80002c44	 x15:0x000002da x23:0xdf22d24f
       39605000	      3959	00000000	00000013	addi	x0,x0,0	  x0:0x00000000
       39615000	      3960	80002c40	00000013	addi	x0,x0,0	  x0:0x00000000
       39625000	      3961	80002c44	00413133	sltu	x2,x2,x4	  x2:0x00000001  x4:0x00000000  x2=0x00000000
       39635000	      3962	80002c48	00733c33	sltu	x24,x6,x7	  x6:0x84387b94  x7:0x00000001 x24=0x00000000
       39645000	      3963	80002c4c	eb9caa13	slti	x20,x25,-327	 x25:0xfaba0796 x20=0x00000001
       39655000	      3964	80002c50	00f497b3	sll	x15,x9,x15	  x9:0xe2792210 x15:0x000002da x15=0x40000000
       39665000	      3965	80002c54	05274863	blt	x14,x18,80002ca4	 x14:0x00000000 x18:0x00000011
       39675000	      3966	00000000	00000013	addi	x0,x0,0	  x0:0x00000000
       39685000	      3967	80002ca0	00000013	addi	x0,x0,0	  x0:0x00000000
       39695000	      3968	80002ca4	00bc5913	srli	x18,x24,0xb	 x24:0x00000000 x18=0x00000000
       39705000	      3969	80002ca8	00f978b3	and	x17,x18,x15	 x18:0x00000000 x15:0x40000000 x17=0x00000000
       39715000	      3970	80002cac	edd2b813	sltiu	x16,x5,-291	  x5:0x00000001 x16=0x00000001
       39725000	      3971	80002cb0	0129dd93	srli	x27,x19,0x12	 x19:0x00000000 x27=0x00000000
       39735000	      3972	80002cb4	01c5e333	or	x6,x11,x28	 x11:0x07fffd56 x28:0xfffffaba  x6=0xfffffffe
       39745000	      3973	80002cb8	03ff7c63	bgeu	x30,x31,80002cf0	 x30:0x00000001 x31:0x80009e90
       39755000	      3974	80002cbc	02697c63	bgeu	x18,x6,80002cf4	 x18:0x00000000  x6:0xfffffffe
       39765000	      3975	80002cc0	00c4d0b3	srl	x1,x9,x12	  x9:0xe2792210 x12:0xffffff9c  x1=0x0000000e
       39775000	      3976	80002cc4	00f0beb3	sltu	x29,x1,x15	  x1:0x0000000e x15:0x40000000 x29=0x00000001
       39785000	      3977	80002cc8	023df063	bgeu	x27,x3,80002ce8	 x27:0x00000000  x3:0x1d86dd28
       39795000	      3978	80002ccc	010d5513	srli	x10,x26,0x10	 x26:0x00000000 x10=0x00000000
       39805000	      3979	80002cd0	13d10013	addi	x0,x2,317	  x2:0x00000000
       39815000	      3980	80002cd4	41578cb3	sub	x25,x15,x21	 x15:0x40000000 x21:0x00000001 x25=0x3fffffff
       39825000	      3981	80002cd8	00ecf333	and	x6,x25,x14	 x25:0x3fffffff x14:0x00000000  x6=0x00000000
       39835000	      3982	80002cdc	0b8a8e63	beq	x21,x24,80002d98	 x21:0x00000001 x24:0x00000000
       39845000	      3983	80002ce0	d5efce13	xori	x28,x31,-674	 x31:0x80009e90 x28=0x7fff63ce
       39855000	      3984	80002ce4	0138d213	srli	x4,x17,0x13	 x17:0x00000000  x4=0x00000000
       39865000	      3985	80002ce8	01a80c33	add	x24,x16,x26	 x16:0x00000001 x26:0x00000000 x24=0x00000001
       39875000	      3986	80002cec	6d1703b7	lui	x7,0x6d170	  x7=0x6d170000
       39885000	      3987	80002cf0	40c5d913	srai	x18,x11,0xc	 x11:0x07fffd56 x18=0x00007fff
       39895000	      3988	80002cf4	ed34c193	xori	x3,x9,-301	  x9:0xe2792210  x3=0x1d86dcc3
       39905000	      3989	80002cf8	002e3b33	sltu	x22,x28,x2	 x28:0x7fff63ce  x2:0x00000000 x22=0x00000000
       39915000	      3990	80002cfc	01f9b033	sltu	x0,x19,x31	 x19:0x00000000 x31:0x80009e90
       39925000	      3991	80002d00	7ca98197	auipc	x3,0x7ca98	  x3=0xfca9acfc
       39935000	      3992	80002d04	00a72eb3	slt	x29,x14,x10	 x14:0x00000000 x10:0x00000000 x29=0x00000000
       39945000	      3993	80002d08	adfeeb93	ori	x23,x29,-1313	 x29:0x00000000 x23=0xfffffadf
       39955000	      3994	80002d0c	01b9d633	srl	x12,x19,x27	 x19:0x00000000 x27:0x00000000 x12=0x00000000
       39965000	      3995	80002d10	015b0133	add	x2,x22,x21	 x22:0x00000000 x21:0x00000001  x2=0x00000001
       39975000	      3996	80002d14	40e48033	sub	x0,x9,x14	  x9:0xe2792210 x14:0x00000000
       39985000	      3997	80002d18	018392b3	sll	x5,x7,x24	  x7:0x6d170000 x24:0x00000001  x5=0xda2e0000
       39995000	      3998	80002d1c	00400393	addi	x7,x0,4	  x0:0x00000000  x7=0x00000004
       40005000	      3999	80002d20	011e6e33	or	x28,x28,x17	 x28:0x7fff63ce x17:0x00000000 x28=0x7fff63ce
       40015000	      4000	80002d24	a0e42237	lui	x4,0xa0e42	  x4=0xa0e42000
       40025000	      4001	80002d28	cc60a713	slti	x14,x1,-826	  x1:0x0000000e x14=0x00000000
       40035000	      4002	80002d2c	0009bf33	sltu	x30,x19,x0	 x19:0x00000000  x0:0x00000000 x30=0x00000000
       40045000	      4003	80002d30	00300d13	addi	x26,x0,3	  x0:0x00000000 x26=0x00000003
       40055000	      4004	80002d34	a6a66e13	ori	x28,x12,-1430	 x12:0x00000000 x28=0xfffffa6a
       40065000	      4005	80002d38	003482b3	add	x5,x9,x3	  x9:0xe2792210  x3:0xfca9acfc  x5=0xdf22cf0c
       40075000	      4006	80002d3c	31e16d93	ori	x27,x2,798	  x2:0x00000001 x27=0x0000031f
       40085000	      4007	80002d40	91c80793	addi	x15,x16,-1764	 x16:0x00000001 x15=0xfffff91d
       40095000	      4008	80002d44	010f7333	and	x6,x30,x16	 x30:0x00000000 x16:0x00000001  x6=0x00000000
       40105000	      4009	80002d48	401785b3	sub	x11,x15,x1	 x15:0xfffff91d  x1:0x0000000e x11=0xfffff90f
       40115000	      4010	80002d4c	00a0e5b3	or	x11,x1,x10	  x1:0x0000000e x10:0x00000000 x11=0x0000000e
       40125000	      4011	80002d50	cb284893	xori	x17,x16,-846	 x16:0x00000001 x17=0xfffffcb3
       40135000	      4012	80002d54	de3b0213	addi	x4,x22,-541	 x22:0x00000000  x4=0xfffffde3
       40145000	      4013	80002d58	00000013	addi	x0,x0,0	  x0:0x00000000
       40155000	      4014	80002d5c	40460033	sub	x0,x12,x4	 x12:0x00000000  x4:0xfffffde3
       40165000	      4015	80002d60	0046fcb3	and	x25,x13,x4	 x13:0x80009fc4  x4:0xfffffde3 x25=0x80009dc0
       40175000	      4016	80002d64	4f0ca413	slti	x8,x25,1264	 x25:0x80009dc0  x8=0x00000001
       40185000	      4017	80002d68	00294a33	xor	x20,x18,x2	 x18:0x00007fff  x2:0x00000001 x20=0x00007ffe
       40195000	      4018	80002d6c	7aae6417	auipc	x8,0x7aae6	  x8=0xfaae8d68
       40205000	      4019	80002d70	4006d993	srai	x19,x13,0x0	 x13:0x80009fc4 x19=0x80009fc4
       40215000	      4020	80002d74	8c8ce313	ori	x6,x25,-1848	 x25:0x80009dc0  x6=0xfffffdc8
       40225000	      4021	80002d78	9354e093	ori	x1,x9,-1739	  x9:0xe2792210  x1=0xfffffb35
       40235000	      4022	80002d7c	01a00a33	add	x20,x0,x26	  x0:0x00000000 x26:0x00000003 x20=0x00000003
       40245000	      4023	80002d80	ffe38393	addi	x7,x7,-2	  x7:0x00000004  x7=0x00000002
       40255000	      4024	80002d84	341d6193	ori	x3,x26,833	 x26:0x00000003  x3=0x00000343
       40265000	      4025	80002d88	0018f233	and	x4,x17,x1	 x17:0xfffffcb3  x1:0xfffffb35  x4=0xfffff831
       40275000	      4026	80002d8c	ffa3f6e3	bgeu	x7,x26,80002d78	  x7:0x00000002 x26:0x00000003
       40285000	      4027	80002d90	01d11533	sll	x10,x2,x29	  x2:0x00000001 x29:0x00000000 x10=0x00000001
       40295000	      4028	80002d94	059ce463	bltu	x25,x25,80002ddc	 x25:0x80009dc0 x25:0x80009dc0
       40305000	      4029	80002d98	58760e97	auipc	x29,0x58760	 x29=0xd8762d94
       40315000	      4030	80002d9c	00fabb33	sltu	x22,x21,x15	 x21:0x00000001 x15:0xfffff91d x22=0x00000001
       40325000	      4031	80002da0	04961263	bne	x12,x9,80002de4	 x12:0x00000000  x9:0xe2792210
       40335000	      4032	00000000	00000013	addi	x0,x0,0	  x0:0x00000000
       40345000	      4033	80002de0	00000013	addi	x0,x0,0	  x0:0x00000000
       40355000	      4034	80002de4	01105e13	srli	x28,x0,0x11	  x0:0x00000000 x28=0x00000000
       40365000	      4035	80002de8	01af4e63	blt	x30,x26,80002e04	 x30:0x00000000 x26:0x00000003
       40375000	      4036	00000000	00000013	addi	x0,x0,0	  x0:0x00000000
       40385000	      4037	80002e00	00000013	addi	x0,x0,0	  x0:0x00000000
       40395000	      4038	80002e04	69aa4213	xori	x4,x20,1690	 x20:0x00000003  x4=0x00000699
       40405000	      4039	80002e08	01359333	sll	x6,x11,x19	 x11:0x0000000e x19:0x80009fc4  x6=0x000000e0
       40415000	      4040	80002e0c	0052c863	blt	x5,x5,80002e1c	  x5:0xdf22cf0c  x5:0xdf22cf0c
       40425000	      4041	80002e10	01586663	bltu	x16,x21,80002e1c	 x16:0x00000001 x21:0x00000001
       40435000	      4042	80002e14	24c6cf37	lui	x30,0x24c6c	 x30=0x24c6c000
       40445000	      4043	80002e18	0189c263	blt	x19,x24,80002e1c	 x19:0x80009fc4 x24:0x00000001
       40455000	      4044	00000000	00000013	addi	x0,x0,0	  x0:0x00000000
       40465000	      4045	80002e18	00000013	addi	x0,x0,0	  x0:0x00000000
       40475000	      4046	80002e1c	a05f0013	addi	x0,x30,-1531	 x30:0x24c6c000
       40485000	      4047	80002e20	001d0613	addi	x12,x26,1	 x26:0x00000003 x12=0x00000004
       40495000	      4048	80002e24	00328bb3	add	x23,x5,x3	  x5:0xdf22cf0c  x3:0x00000343 x23=0xdf22d24f
       40505000	      4049	80002e28	d25c2993	slti	x19,x24,-731	 x24:0x00000001 x19=0x00000000
       40515000	      4050	80002e2c	004faa03	lw	x20,4(x31)	 x31:0x80009e90 x20=0x80000894 PA:0x80009e94
       40525000	      4051	80002e30	55d68213	addi	x4,x13,1373	 x13:0x80009fc4  x4=0x8000a521
       40535000	      4052	80002e34	40395333	sra	x6,x18,x3	 x18:0x00007fff  x3:0x00000343  x6=0x00000fff
       40545000	      4053	80002e38	410dd913	srai	x18,x27,0x10	 x27:0x0000031f x18=0x00000000
       40555000	      4054	80002e3c	41bf8d33	sub	x26,x31,x27	 x31:0x80009e90 x27:0x0000031f x26=0x80009b71
       40565000	      4055	80002e40	d8c1b597	auipc	x11,0xd8c1b	 x11=0x58c1de3c
       40575000	      4056	80002e44	034f8f93	addi	x31,x31,52	 x31:0x80009e90 x31=0x80009ec4
       40585000	      4057	80002e48	ea18b793	sltiu	x15,x17,-351	 x17:0xfffffcb3 x15=0x00000001
       40595000	      4058	80002e4c	001a0c13	addi	x24,x20,1	 x20:0x80000894 x24=0x80000895
       40605000	      4059	80002e50	000c0c67	jalr	x24,x24,0	 x24:0x80000895 x24=0x80002e50
       40615000	      4060	00000000	00000013	addi	x0,x0,0	  x0:0x00000000
       40625000	      4061	80000894	00000013	addi	x0,x0,0	  x0:0x00000000
       40635000	      4062	80000898	c7777913	andi	x18,x14,-905	 x14:0x00000000 x18=0x00000000
       40645000	      4063	8000089c	3e2c8a93	addi	x21,x25,994	 x25:0x80009dc0 x21=0x8000a1a2
       40655000	      4064	800008a0	41d25413	srai	x8,x4,0x1d	  x4:0x8000a521  x8=0xfffffffc
       40665000	      4065	800008a4	00c45413	srli	x8,x8,0xc	  x8:0xfffffffc  x8=0x000fffff
       40675000	      4066	800008a8	2b47f313	andi	x6,x15,692	 x15:0x00000001  x6=0x00000000
       40685000	      4067	800008ac	5da7f213	andi	x4,x15,1498	 x15:0x00000001  x4=0x00000000
       40695000	      4068	800008b0	033f1263	bne	x30,x19,800008d4	 x30:0x24c6c000 x19:0x00000000
       40705000	      4069	00000000	00000013	addi	x0,x0,0	  x0:0x00000000
       40715000	      4070	800008d0	00000013	addi	x0,x0,0	  x0:0x00000000
       40725000	      4071	800008d4	023efa63	bgeu	x29,x3,80000908	 x29:0xd8762d94  x3:0x00000343
       40735000	      4072	00000000	00000013	addi	x0,x0,0	  x0:0x00000000
       40745000	      4073	80000904	00000013	addi	x0,x0,0	  x0:0x00000000
       40755000	      4074	80000908	40845a33	sra	x20,x8,x8	  x8:0x000fffff  x8:0x000fffff x20=0x00000000
       40765000	      4075	8000090c	2761de97	auipc	x29,0x2761d	 x29=0xa761d908
       40775000	      4076	80000910	00000013	addi	x0,x0,0	  x0:0x00000000
       40785000	      4077	80000914	01c5e033	or	x0,x11,x28	 x11:0x58c1de3c x28:0x00000000
       40795000	      4078	80000918	004faa03	lw	x20,4(x31)	 x31:0x80009ec4 x20=0x800003dc PA:0x80009ec8
       40805000	      4079	8000091c	4019d113	srai	x2,x19,0x1	 x19:0x00000000  x2=0x00000000
       40815000	      4080	80000920	00d683b3	add	x7,x13,x13	 x13:0x80009fc4 x13:0x80009fc4  x7=0x00013f88
       40825000	      4081	80000924	00000013	addi	x0,x0,0	  x0:0x00000000
       40835000	      4082	80000928	4821e337	lui	x6,0x4821e	  x6=0x4821e000
       40845000	      4083	8000092c	040f8f93	addi	x31,x31,64	 x31:0x80009ec4 x31=0x80009f04
       40855000	      4084	80000930	a977bc17	auipc	x24,0xa977b	 x24=0x2977b92c
       40865000	      4085	80000934	001a0313	addi	x6,x20,1	 x20:0x800003dc  x6=0x800003dd
       40875000	      4086	80000938	00030367	jalr	x6,x6,0	  x6:0x800003dd  x6=0x80000938
       40885000	      4087	00000000	00000013	addi	x0,x0,0	  x0:0x00000000
       40895000	      4088	800003dc	00000013	addi	x0,x0,0	  x0:0x00000000
       40905000	      4089	800003e0	ff900a13	addi	x20,x0,-7	  x0:0x00000000 x20=0xfffffff9
       40915000	      4090	800003e4	b6f3edb7	lui	x27,0xb6f3e	 x27=0xb6f3e000
       40925000	      4091	800003e8	01b5adb3	slt	x27,x11,x27	 x11:0x58c1de3c x27:0xb6f3e000 x27=0x00000000
       40935000	      4092	800003ec	01299633	sll	x12,x19,x18	 x19:0x00000000 x18:0x00000000 x12=0x00000000
       40945000	      4093	800003f0	00f09f13	slli	x30,x1,0xf	  x1:0xfffffb35 x30=0xfd9a8000
       40955000	      4094	800003f4	00d219b3	sll	x19,x4,x13	  x4:0x00000000 x13:0x80009fc4 x19=0x00000000
       40965000	      4095	800003f8	4c628713	addi	x14,x5,1222	  x5:0xdf22cf0c x14=0xdf22d3d2
       40975000	      4096	800003fc	01278933	add	x18,x15,x18	 x15:0x00000001 x18:0x00000000 x18=0x00000001
       40985000	      4097	80000400	01a485b3	add	x11,x9,x26	  x9:0xe2792210 x26:0x80009b71 x11=0x6279bd81
       40995000	      4098	80000404	014d7c33	and	x24,x26,x20	 x26:0x80009b71 x20:0xfffffff9 x24=0x80009b71
       41005000	      4099	80000408	87604413	xori	x8,x0,-1930	  x0:0x00000000  x8=0xfffff876
       41015000	      4100	8000040c	00200e13	addi	x28,x0,2	  x0:0x00000000 x28=0x00000002
       41025000	      4101	80000410	8e3b3913	sltiu	x18,x22,-1821	 x22:0x00000001 x18=0x00000001
       41035000	      4102	80000414	9a1a4793	xori	x15,x20,-1631	 x20:0xfffffff9 x15=0x00000658
       41045000	      4103	80000418	41f78733	sub	x14,x15,x31	 x15:0x00000658 x31:0x80009f04 x14=0x7fff6754
       41055000	      4104	8000041c	009a0a13	addi	x20,x20,9	 x20:0xfffffff9 x20=0x00000002
       41065000	      4105	80000420	1cbccd93	xori	x27,x25,459	 x25:0x80009dc0 x27=0x80009c0b
       41075000	      4106	80000424	00000013	addi	x0,x0,0	  x0:0x00000000
       41085000	      4107	80000428	00000013	addi	x0,x0,0	  x0:0x00000000
       41095000	      4108	8000042c	ffca12e3	bne	x20,x28,80000410	 x20:0x00000002 x28:0x00000002
       41105000	      4109	80000430	41730033	sub	x0,x6,x23	  x6:0x80000938 x23:0xdf22d24f
       41115000	      4110	80000434	00900e93	addi	x29,x0,9	  x0:0x00000000 x29=0x00000009
       41125000	      4111	80000438	01e2a8b3	slt	x17,x5,x30	  x5:0xdf22cf0c x30:0xfd9a8000 x17=0x00000001
       41135000	      4112	8000043c	1d003593	sltiu	x11,x0,464	  x0:0x00000000 x11=0x00000001
       41145000	      4113	80000440	61e3fd13	andi	x26,x7,1566	  x7:0x00013f88 x26=0x00000608
       41155000	      4114	80000444	00900a93	addi	x21,x0,9	  x0:0x00000000 x21=0x00000009
       41165000	      4115	80000448	0039a933	slt	x18,x19,x3	 x19:0x00000000  x3:0x00000343 x18=0x00000001
       41175000	      4116	8000044c	40945413	srai	x8,x8,0x9	  x8:0xfffff876  x8=0xfffffffc
       41185000	      4117	80000450	01d9c333	xor	x6,x19,x29	 x19:0x00000000 x29:0x00000009  x6=0x00000009
       41195000	      4118	80000454	b96d0417	auipc	x8,0xb96d0	  x8=0x396d0450
       41205000	      4119	80000458	01e36033	or	x0,x6,x30	  x6:0x00000009 x30:0xfd9a8000
       41215000	      4120	8000045c	41a95833	sra	x16,x18,x26	 x18:0x00000001 x26:0x00000608 x16=0x00000000
       41225000	      4121	80000460	5ca38293	addi	x5,x7,1482	  x7:0x00013f88  x5=0x00014552
       41235000	      4122	80000464	ff8e8e93	addi	x29,x29,-8	 x29:0x00000009 x29=0x00000001
       41245000	      4123	80000468	00300b13	addi	x22,x0,3	  x0:0x00000000 x22=0x00000003
       41255000	      4124	8000046c	407f57b3	sra	x15,x30,x7	 x30:0xfd9a8000  x7:0x00013f88 x15=0xfffd9a80
       41265000	      4125	80000470	00f00613	addi	x12,x0,15	  x0:0x00000000 x12=0x0000000f
       41275000	      4126	80000474	00d89093	slli	x1,x17,0xd	 x17:0x00000001  x1=0x00002000
       41285000	      4127	80000478	00000013	addi	x0,x0,0	  x0:0x00000000
       41295000	      4128	8000047c	006b0b13	addi	x22,x22,6	 x22:0x00000003 x22=0x00000009
       41305000	      4129	80000480	fecb1ce3	bne	x22,x12,80000478	 x22:0x00000009 x12:0x0000000f
       41315000	      4130	00000000	00000013	addi	x0,x0,0	  x0:0x00000000
       41325000	      4131	80000474	00000013	addi	x0,x0,0	  x0:0x00000000
       41335000	      4132	80000478	00000013	addi	x0,x0,0	  x0:0x00000000
       41345000	      4133	8000047c	006b0b13	addi	x22,x22,6	 x22:0x00000009 x22=0x0000000f
       41355000	      4134	80000480	fecb1ce3	bne	x22,x12,80000478	 x22:0x0000000f x12:0x0000000f
       41365000	      4135	80000484	b06c7393	andi	x7,x24,-1274	 x24:0x80009b71  x7=0x80009b00
       41375000	      4136	80000488	602b8813	addi	x16,x23,1538	 x23:0xdf22d24f x16=0xdf22d851
       41385000	      4137	8000048c	63e9bd93	sltiu	x27,x19,1598	 x19:0x00000000 x27=0x00000001
       41395000	      4138	80000490	71c28b93	addi	x23,x5,1820	  x5:0x00014552 x23=0x00014c6e
       41405000	      4139	80000494	2e7abd93	sltiu	x27,x21,743	 x21:0x00000009 x27=0x00000001
       41415000	      4140	80000498	edf5c293	xori	x5,x11,-289	 x11:0x00000001  x5=0xfffffede
       41425000	      4141	8000049c	0139c0b3	xor	x1,x19,x19	 x19:0x00000000 x19:0x00000000  x1=0x00000000
       41435000	      4142	800004a0	fb5efce3	bgeu	x29,x21,80000458	 x29:0x00000001 x21:0x00000009
       41445000	      4143	800004a4	01389313	slli	x6,x17,0x13	 x17:0x00000001  x6=0x00080000
       41455000	      4144	800004a8	00700f13	addi	x30,x0,7	  x0:0x00000000 x30=0x00000007
       41465000	      4145	800004ac	26193793	sltiu	x15,x18,609	 x18:0x00000001 x15=0x00000001
       41475000	      4146	800004b0	00700c93	addi	x25,x0,7	  x0:0x00000000 x25=0x00000007
       41485000	      4147	800004b4	01866eb3	or	x29,x12,x24	 x12:0x0000000f x24:0x80009b71 x29=0x80009b7f
       41495000	      4148	800004b8	00610933	add	x18,x2,x6	  x2:0x00000000  x6:0x00080000 x18=0x00080000
       41505000	      4149	800004bc	ef192b13	slti	x22,x18,-271	 x18:0x00080000 x22=0x00000000
       41515000	      4150	800004c0	01384ab3	xor	x21,x16,x19	 x16:0xdf22d851 x19:0x00000000 x21=0xdf22d851
       41525000	      4151	800004c4	ffaf0f13	addi	x30,x30,-6	 x30:0x00000007 x30=0x00000001
       41535000	      4152	800004c8	412cd433	sra	x8,x25,x18	 x25:0x00000007 x18:0x00080000  x8=0x00000007
       41545000	      4153	800004cc	00400b93	addi	x23,x0,4	  x0:0x00000000 x23=0x00000004
       41555000	      4154	800004d0	00e999b3	sll	x19,x19,x14	 x19:0x00000000 x14:0x7fff6754 x19=0x00000000
       41565000	      4155	800004d4	ffa00093	addi	x1,x0,-6	  x0:0x00000000  x1=0xfffffffa
       41575000	      4156	800004d8	d6d62713	slti	x14,x12,-659	 x12:0x0000000f x14=0x00000000
       41585000	      4157	800004dc	55dc2e93	slti	x29,x24,1373	 x24:0x80009b71 x29=0x00000001
       41595000	      4158	800004e0	ffbb8b93	addi	x23,x23,-5	 x23:0x00000004 x23=0xffffffff
       41605000	      4159	800004e4	0085a933	slt	x18,x11,x8	 x11:0x00000001  x8:0x00000007 x18=0x00000001
       41615000	      4160	800004e8	fe1bdae3	bge	x23,x1,800004dc	 x23:0xffffffff  x1:0xfffffffa
       41625000	      4161	00000000	00000013	addi	x0,x0,0	  x0:0x00000000
       41635000	      4162	800004d8	00000013	addi	x0,x0,0	  x0:0x00000000
       41645000	      4163	800004dc	55dc2e93	slti	x29,x24,1373	 x24:0x80009b71 x29=0x00000001
       41655000	      4164	800004e0	ffbb8b93	addi	x23,x23,-5	 x23:0xffffffff x23=0xfffffffa
       41665000	      4165	800004e4	0085a933	slt	x18,x11,x8	 x11:0x00000001  x8:0x00000007 x18=0x00000001
       41675000	      4166	800004e8	fe1bdae3	bge	x23,x1,800004dc	 x23:0xfffffffa  x1:0xfffffffa
       41685000	      4167	00000000	00000013	addi	x0,x0,0	  x0:0x00000000
       41695000	      4168	800004d8	00000013	addi	x0,x0,0	  x0:0x00000000
       41705000	      4169	800004dc	55dc2e93	slti	x29,x24,1373	 x24:0x80009b71 x29=0x00000001
       41715000	      4170	800004e0	ffbb8b93	addi	x23,x23,-5	 x23:0xfffffffa x23=0xfffffff5
       41725000	      4171	800004e4	0085a933	slt	x18,x11,x8	 x11:0x00000001  x8:0x00000007 x18=0x00000001
       41735000	      4172	800004e8	fe1bdae3	bge	x23,x1,800004dc	 x23:0xfffffff5  x1:0xfffffffa
       41745000	      4173	800004ec	41bd57b3	sra	x15,x26,x27	 x26:0x00000608 x27:0x00000001 x15=0x00000304
       41755000	      4174	800004f0	fd9f74e3	bgeu	x30,x25,800004b8	 x30:0x00000001 x25:0x00000007
       41765000	      4175	800004f4	01efd9b3	srl	x19,x31,x30	 x31:0x80009f04 x30:0x00000001 x19=0x40004f82
       41775000	      4176	800004f8	01db5263	bge	x22,x29,800004fc	 x22:0x00000000 x29:0x00000001
       41785000	      4177	800004fc	018552b3	srl	x5,x10,x24	 x10:0x00000001 x24:0x80009b71  x5=0x00000000
       41795000	      4178	80000500	406d5993	srai	x19,x26,0x6	 x26:0x00000608 x19=0x00000018
       41805000	      4179	80000504	1720e013	ori	x0,x1,370	  x1:0xfffffffa
       41815000	      4180	80000508	1dfaa213	slti	x4,x21,479	 x21:0xdf22d851  x4=0x00000001
       41825000	      4181	8000050c	03810063	beq	x2,x24,8000052c	  x2:0x00000000 x24:0x80009b71
       41835000	      4182	80000510	e8b9a413	slti	x8,x19,-373	 x19:0x00000018  x8=0x00000000
       41845000	      4183	80000514	100a50b7	lui	x1,0x100a5	  x1=0x100a5000
       41855000	      4184	80000518	04937193	andi	x3,x6,73	  x6:0x00080000  x3=0x00000000
       41865000	      4185	8000051c	01bd1133	sll	x2,x26,x27	 x26:0x00000608 x27:0x00000001  x2=0x00000c10
       41875000	      4186	80000520	44bd4cb7	lui	x25,0x44bd4	 x25=0x44bd4000
       41885000	      4187	80000524	22e33113	sltiu	x2,x6,558	  x6:0x00080000  x2=0x00000000
       41895000	      4188	80000528	04b75463	bge	x14,x11,80000570	 x14:0x00000000 x11:0x00000001
       41905000	      4189	8000052c	0029fbb3	and	x23,x19,x2	 x19:0x00000018  x2:0x00000000 x23=0x00000000
       41915000	      4190	80000530	044f0d93	addi	x27,x30,68	 x30:0x00000001 x27=0x00000045
       41925000	      4191	80000534	66e8a7b7	lui	x15,0x66e8a	 x15=0x66e8a000
       41935000	      4192	80000538	00c40233	add	x4,x8,x12	  x8:0x00000000 x12:0x0000000f  x4=0x0000000f
       41945000	      4193	8000053c	f7af5e37	lui	x28,0xf7af5	 x28=0xf7af5000
       41955000	      4194	80000540	51484037	lui	x0,0x51484	
       41965000	      4195	80000544	41695a93	srai	x21,x18,0x16	 x18:0x00000001 x21=0x00000000
       41975000	      4196	80000548	d397b193	sltiu	x3,x15,-711	 x15:0x66e8a000  x3=0x00000001
       41985000	      4197	8000054c	40aa5193	srai	x3,x20,0xa	 x20:0x00000002  x3=0x00000000
       41995000	      4198	80000550	96185717	auipc	x14,0x96185	 x14=0x1618554c
       42005000	      4199	80000554	012195b3	sll	x11,x3,x18	  x3:0x00000000 x18:0x00000001 x11=0x00000000
       42015000	      4200	80000558	01600933	add	x18,x0,x22	  x0:0x00000000 x22:0x00000000 x18=0x00000000
       42025000	      4201	8000055c	019ffa63	bgeu	x31,x25,80000570	 x31:0x80009f04 x25:0x44bd4000
       42035000	      4202	00000000	00000013	addi	x0,x0,0	  x0:0x00000000
       42045000	      4203	8000056c	00000013	addi	x0,x0,0	  x0:0x00000000
       42055000	      4204	80000570	0397f663	bgeu	x15,x25,8000059c	 x15:0x66e8a000 x25:0x44bd4000
       42065000	      4205	00000000	00000013	addi	x0,x0,0	  x0:0x00000000
       42075000	      4206	80000598	00000013	addi	x0,x0,0	  x0:0x00000000
       42085000	      4207	8000059c	01ad9393	slli	x7,x27,0x1a	 x27:0x00000045  x7=0x14000000
       42095000	      4208	800005a0	020f4263	blt	x30,x0,800005c4	 x30:0x00000001  x0:0x00000000
       42105000	      4209	800005a4	4cf1ab13	slti	x22,x3,1231	  x3:0x00000000 x22=0x00000001
       42115000	      4210	800005a8	01e34933	xor	x18,x6,x30	  x6:0x00080000 x30:0x00000001 x18=0x00080001
       42125000	      4211	800005ac	01e63033	sltu	x0,x12,x30	 x12:0x0000000f x30:0x00000001
       42135000	      4212	800005b0	00000013	addi	x0,x0,0	  x0:0x00000000
       42145000	      4213	800005b4	00000013	addi	x0,x0,0	  x0:0x00000000
       42155000	      4214	800005b8	41f25d13	srai	x26,x4,0x1f	  x4:0x0000000f x26=0x00000000
       42165000	      4215	800005bc	bdb5ee13	ori	x28,x11,-1061	 x11:0x00000000 x28=0xfffffbdb
       42175000	      4216	800005c0	d248eb37	lui	x22,0xd248e	 x22=0xd248e000
       42185000	      4217	800005c4	41a05713	srai	x14,x0,0x1a	  x0:0x00000000 x14=0x00000000
       42195000	      4218	800005c8	00a2a533	slt	x10,x5,x10	  x5:0x00000000 x10:0x00000001 x10=0x00000001
       42205000	      4219	800005cc	026fde63	bge	x31,x6,80000608	 x31:0x80009f04  x6:0x00080000
       42215000	      4220	800005d0	0095ea63	bltu	x11,x9,800005e4	 x11:0x00000000  x9:0xe2792210
       42225000	      4221	00000000	00000013	addi	x0,x0,0	  x0:0x00000000
       42235000	      4222	800005e0	00000013	addi	x0,x0,0	  x0:0x00000000
       42245000	      4223	800005e4	00d1d833	srl	x16,x3,x13	  x3:0x00000000 x13:0x80009fc4 x16=0x00000000
       42255000	      4224	800005e8	005a0b33	add	x22,x20,x5	 x20:0x00000002  x5:0x00000000 x22=0x00000002
       42265000	      4225	800005ec	014030b3	sltu	x1,x0,x20	  x0:0x00000000 x20:0x00000002  x1=0x00000001
       42275000	      4226	800005f0	014f01b3	add	x3,x30,x20	 x30:0x00000001 x20:0x00000002  x3=0x00000003
       42285000	      4227	800005f4	7ec56d93	ori	x27,x10,2028	 x10:0x00000001 x27=0x000007ed
       42295000	      4228	800005f8	00000013	addi	x0,x0,0	  x0:0x00000000
       42305000	      4229	800005fc	000f87b3	add	x15,x31,x0	 x31:0x80009f04  x0:0x00000000 x15=0x80009f04
       42315000	      4230	80000600	c0c18817	auipc	x16,0xc0c18	 x16=0x40c185fc
       42325000	      4231	80000604	0a425197	auipc	x3,0xa425	  x3=0x8a425600
       42335000	      4232	80000608	41c78cb3	sub	x25,x15,x28	 x15:0x80009f04 x28:0xfffffbdb x25=0x8000a329
       42345000	      4233	8000060c	02c56463	bltu	x10,x12,80000634	 x10:0x00000001 x12:0x0000000f
       42355000	      4234	00000000	00000013	addi	x0,x0,0	  x0:0x00000000
       42365000	      4235	80000630	00000013	addi	x0,x0,0	  x0:0x00000000
       42375000	      4236	80000634	016428b3	slt	x17,x8,x22	  x8:0x00000000 x22:0x00000002 x17=0x00000001
       42385000	      4237	80000638	00911d13	slli	x26,x2,0x9	  x2:0x00000000 x26=0x00000000
       42395000	      4238	8000063c	12dbdb97	auipc	x23,0x12dbd	 x23=0x92dbd638
       42405000	      4239	80000640	40ce0533	sub	x10,x28,x12	 x28:0xfffffbdb x12:0x0000000f x10=0xfffffbcc
       42415000	      4240	80000644	402957b3	sra	x15,x18,x2	 x18:0x00080001  x2:0x00000000 x15=0x00080001
       42425000	      4241	80000648	010709b3	add	x19,x14,x16	 x14:0x00000000 x16:0x40c185fc x19=0x40c185fc
       42435000	      4242	8000064c	00fac463	blt	x21,x15,80000654	 x21:0x00000000 x15:0x00080001
       42445000	      4243	00000000	00000013	addi	x0,x0,0	  x0:0x00000000
       42455000	      4244	80000650	00000013	addi	x0,x0,0	  x0:0x00000000
       42465000	      4245	80000654	00971213	slli	x4,x14,0x9	 x14:0x00000000  x4=0x00000000
       42475000	      4246	80000658	405f8433	sub	x8,x31,x5	 x31:0x80009f04  x5:0x00000000  x8=0x80009f04
       42485000	      4247	8000065c	016b0cb3	add	x25,x22,x22	 x22:0x00000002 x22:0x00000002 x25=0x00000004
       42495000	      4248	80000660	002498b3	sll	x17,x9,x2	  x9:0xe2792210  x2:0x00000000 x17=0xe2792210
       42505000	      4249	80000664	014c5c13	srli	x24,x24,0x14	 x24:0x80009b71 x24=0x00000800
       42515000	      4250	80000668	ce7f0293	addi	x5,x30,-793	 x30:0x00000001  x5=0xfffffce8
       42525000	      4251	8000066c	004f6a63	bltu	x30,x4,80000680	 x30:0x00000001  x4:0x00000000
       42535000	      4252	80000670	51e82f13	slti	x30,x16,1310	 x16:0x40c185fc x30=0x00000000
       42545000	      4253	80000674	412adc33	sra	x24,x21,x18	 x21:0x00000000 x18:0x00080001 x24=0x00000000
       42555000	      4254	80000678	411ed2b3	sra	x5,x29,x17	 x29:0x00000001 x17:0xe2792210  x5=0x00000000
       42565000	      4255	8000067c	028d5e63	bge	x26,x8,800006b8	 x26:0x00000000  x8:0x80009f04
       42575000	      4256	00000000	00000013	addi	x0,x0,0	  x0:0x00000000
       42585000	      4257	800006b4	00000013	addi	x0,x0,0	  x0:0x00000000
       42595000	      4258	800006b8	96a00a13	addi	x20,x0,-1686	  x0:0x00000000 x20=0xfffff96a
       42605000	      4259	800006bc	5b6e4093	xori	x1,x28,1462	 x28:0xfffffbdb  x1=0xfffffe6d
       42615000	      4260	800006c0	00cb5313	srli	x6,x22,0xc	 x22:0x00000002  x6=0x00000000
       42625000	      4261	800006c4	00fcfc63	bgeu	x25,x15,800006dc	 x25:0x00000004 x15:0x00080001
       42635000	      4262	800006c8	03d55863	bge	x10,x29,800006f8	 x10:0xfffffbcc x29:0x00000001
       42645000	      4263	800006cc	00a909b3	add	x19,x18,x10	 x18:0x00080001 x10:0xfffffbcc x19=0x0007fbcd
       42655000	      4264	800006d0	015078b3	and	x17,x0,x21	  x0:0x00000000 x21:0x00000000 x17=0x00000000
       42665000	      4265	800006d4	ea856d93	ori	x27,x10,-344	 x10:0xfffffbcc x27=0xffffffec
       42675000	      4266	800006d8	c1a0c113	xori	x2,x1,-998	  x1:0xfffffe6d  x2=0x00000277
       42685000	      4267	800006dc	a1072813	slti	x16,x14,-1520	 x14:0x00000000 x16=0x00000000
       42695000	      4268	800006e0	019b81b3	add	x3,x23,x25	 x23:0x92dbd638 x25:0x00000004  x3=0x92dbd63c
       42705000	      4269	800006e4	0148f7b3	and	x15,x17,x20	 x17:0x00000000 x20:0xfffff96a x15=0x00000000
       42715000	      4270	800006e8	019829b3	slt	x19,x16,x25	 x16:0x00000000 x25:0x00000004 x19=0x00000001
       42725000	      4271	800006ec	b6e6c713	xori	x14,x13,-1170	 x13:0x80009fc4 x14=0x7fff64aa
       42735000	      4272	800006f0	ca6c8c13	addi	x24,x25,-858	 x25:0x00000004 x24=0xfffffcaa
       42745000	      4273	800006f4	01d8c3b3	xor	x7,x17,x29	 x17:0x00000000 x29:0x00000001  x7=0x00000001
       42755000	      4274	800006f8	04d49863	bne	x9,x13,80000748	  x9:0xe2792210 x13:0x80009fc4
       42765000	      4275	00000000	00000013	addi	x0,x0,0	  x0:0x00000000
       42775000	      4276	80000744	00000013	addi	x0,x0,0	  x0:0x00000000
       42785000	      4277	80000748	00000013	addi	x0,x0,0	  x0:0x00000000
       42795000	      4278	8000074c	000a77b3	and	x15,x20,x0	 x20:0xfffff96a  x0:0x00000000 x15=0x00000000
       42805000	      4279	80000750	031bd263	bge	x23,x17,80000774	 x23:0x92dbd638 x17:0x00000000
       42815000	      4280	80000754	01716863	bltu	x2,x23,80000764	  x2:0x00000277 x23:0x92dbd638
       42825000	      4281	00000000	00000013	addi	x0,x0,0	  x0:0x00000000
       42835000	      4282	80000760	00000013	addi	x0,x0,0	  x0:0x00000000
       42845000	      4283	80000764	01d5ca63	blt	x11,x29,80000778	 x11:0x00000000 x29:0x00000001
       42855000	      4284	00000000	00000013	addi	x0,x0,0	  x0:0x00000000
       42865000	      4285	80000774	00000013	addi	x0,x0,0	  x0:0x00000000
       42875000	      4286	80000778	51ffb113	sltiu	x2,x31,1311	 x31:0x80009f04  x2=0x00000000
       42885000	      4287	8000077c	02401a63	bne	x0,x4,800007b0	  x0:0x00000000  x4:0x00000000
       42895000	      4288	80000780	01c138b3	sltu	x17,x2,x28	  x2:0x00000000 x28:0xfffffbdb x17=0x00000001
       42905000	      4289	80000784	017f3533	sltu	x10,x30,x23	 x30:0x00000000 x23:0x92dbd638 x10=0x00000001
       42915000	      4290	80000788	41bb5833	sra	x16,x22,x27	 x22:0x00000002 x27:0xffffffec x16=0x00000000
       42925000	      4291	8000078c	02ae9463	bne	x29,x10,800007b4	 x29:0x00000001 x10:0x00000001
       42935000	      4292	80000790	01b1a9b3	slt	x19,x3,x27	  x3:0x92dbd63c x27:0xffffffec x19=0x00000001
       42945000	      4293	80000794	40585e33	sra	x28,x16,x5	 x16:0x00000000  x5:0x00000000 x28=0x00000000
       42955000	      4294	80000798	001fc263	blt	x31,x1,8000079c	 x31:0x80009f04  x1:0xfffffe6d
       42965000	      4295	00000000	00000013	addi	x0,x0,0	  x0:0x00000000
       42975000	      4296	80000798	00000013	addi	x0,x0,0	  x0:0x00000000
       42985000	      4297	8000079c	5ae48213	addi	x4,x9,1454	  x9:0xe2792210  x4=0xe27927be
       42995000	      4298	800007a0	03a2f263	bgeu	x5,x26,800007c4	  x5:0x00000000 x26:0x00000000
       43005000	      4299	00000000	00000013	addi	x0,x0,0	  x0:0x00000000
       43015000	      4300	800007c0	00000013	addi	x0,x0,0	  x0:0x00000000
       43025000	      4301	800007c4	01d4fe33	and	x28,x9,x29	  x9:0xe2792210 x29:0x00000001 x28=0x00000000
       43035000	      4302	800007c8	029d0663	beq	x26,x9,800007f4	 x26:0x00000000  x9:0xe2792210
       43045000	      4303	800007cc	01b433b3	sltu	x7,x8,x27	  x8:0x80009f04 x27:0xffffffec  x7=0x00000001
       43055000	      4304	800007d0	03bcd263	bge	x25,x27,800007f4	 x25:0x00000004 x27:0xffffffec
       43065000	      4305	00000000	00000013	addi	x0,x0,0	  x0:0x00000000
       43075000	      4306	800007f0	00000013	addi	x0,x0,0	  x0:0x00000000
       43085000	      4307	800007f4	00000013	addi	x0,x0,0	  x0:0x00000000
       43095000	      4308	800007f8	2b762193	slti	x3,x12,695	 x12:0x0000000f  x3=0x00000001
       43105000	      4309	800007fc	416a8e33	sub	x28,x21,x22	 x21:0x00000000 x22:0x00000002 x28=0xfffffffe
       43115000	      4310	80000800	013950b3	srl	x1,x18,x19	 x18:0x00080001 x19:0x00000001  x1=0x00040000
       43125000	      4311	80000804	004faa03	lw	x20,4(x31)	 x31:0x80009f04 x20=0x80002e84 PA:0x80009f08
       43135000	      4312	00000000	00000013	addi	x0,x0,0	  x0:0x00000000
       43145000	      4313	80000808	034f8f93	addi	x31,x31,52	 x31:0x80009f04 x31=0x80009f38
       43155000	      4314	8000080c	001adf13	srli	x30,x21,0x1	 x21:0x00000000 x30=0x00000000
       43165000	      4315	80000810	313c4813	xori	x16,x24,787	 x24:0xfffffcaa x16=0xffffffb9
       43175000	      4316	80000814	017c6733	or	x14,x24,x23	 x24:0xfffffcaa x23:0x92dbd638 x14=0xfffffeba
       43185000	      4317	80000818	001a0293	addi	x5,x20,1	 x20:0x80002e84  x5=0x80002e85
       43195000	      4318	8000081c	000282e7	jalr	x5,x5,0	  x5:0x80002e85  x5=0x8000081c
       43205000	      4319	00000000	00000013	addi	x0,x0,0	  x0:0x00000000
       43215000	      4320	80002e84	00000013	addi	x0,x0,0	  x0:0x00000000
       43225000	      4321	80002e88	414d00b3	sub	x1,x26,x20	 x26:0x00000000 x20:0x80002e84  x1=0x7fffd17c
       43235000	      4322	80002e8c	019882b3	add	x5,x17,x25	 x17:0x00000001 x25:0x00000004  x5=0x00000005
       43245000	      4323	80002e90	40ed5193	srai	x3,x26,0xe	 x26:0x00000000  x3=0x00000000
       43255000	      4324	80002e94	00632eb3	slt	x29,x6,x6	  x6:0x00000000  x6:0x00000000 x29=0x00000000
       43265000	      4325	80002e98	46ea95b7	lui	x11,0x46ea9	 x11=0x46ea9000
       43275000	      4326	80002e9c	615d8b13	addi	x22,x27,1557	 x27:0xffffffec x22=0x00000601
       43285000	      4327	80002ea0	40745433	sra	x8,x8,x7	  x8:0x80009f04  x7:0x00000001  x8=0xc0004f82
       43295000	      4328	80002ea4	0391f263	bgeu	x3,x25,80002ec8	  x3:0x00000000 x25:0x00000004
       43305000	      4329	80002ea8	00bddc63	bge	x27,x11,80002ec0	 x27:0xffffffec x11:0x46ea9000
       43315000	      4330	80002eac	028b4263	blt	x22,x8,80002ed0	 x22:0x00000601  x8:0xc0004f82
       43325000	      4331	80002eb0	034c5063	bge	x24,x20,80002ed0	 x24:0xfffffcaa x20:0x80002e84
       43335000	      4332	00000000	00000013	addi	x0,x0,0	  x0:0x00000000
       43345000	      4333	80002ecc	00000013	addi	x0,x0,0	  x0:0x00000000
       43355000	      4334	80002ed0	bf53bb13	sltiu	x22,x7,-1035	  x7:0x00000001 x22=0x00000001
       43365000	      4335	80002ed4	c3610a93	addi	x21,x2,-970	  x2:0x00000000 x21=0xfffffc36
       43375000	      4336	80002ed8	004faa03	lw	x20,4(x31)	 x31:0x80009f38 x20=0x80001bec PA:0x80009f3c
       43385000	      4337	80002edc	00c6b333	sltu	x6,x13,x12	 x13:0x80009fc4 x12:0x0000000f  x6=0x00000000
       43395000	      4338	80002ee0	41edddb3	sra	x27,x27,x30	 x27:0xffffffec x30:0x00000000 x27=0xffffffec
       43405000	      4339	80002ee4	41f251b3	sra	x3,x4,x31	  x4:0xe27927be x31:0x80009f38  x3=0xffffffe2
       43415000	      4340	80002ee8	413e8133	sub	x2,x29,x19	 x29:0x00000000 x19:0x00000001  x2=0xffffffff
       43425000	      4341	80002eec	017ff633	and	x12,x31,x23	 x31:0x80009f38 x23:0x92dbd638 x12=0x80009638
       43435000	      4342	80002ef0	038f8f93	addi	x31,x31,56	 x31:0x80009f38 x31=0x80009f70
       43445000	      4343	80002ef4	004d9eb3	sll	x29,x27,x4	 x27:0xffffffec  x4:0xe27927be x29=0x00000000
       43455000	      4344	80002ef8	001250b3	srl	x1,x4,x1	  x4:0xe27927be  x1:0x7fffd17c  x1=0x0000000e
       43465000	      4345	80002efc	01dd6033	or	x0,x26,x29	 x26:0x00000000 x29:0x00000000
       43475000	      4346	80002f00	65fb7513	andi	x10,x22,1631	 x22:0x00000001 x10=0x00000001
       43485000	      4347	80002f04	001a0213	addi	x4,x20,1	 x20:0x80001bec  x4=0x80001bed
       43495000	      4348	80002f08	00020267	jalr	x4,x4,0	  x4:0x80001bed  x4=0x80002f08
       43505000	      4349	00000000	00000013	addi	x0,x0,0	  x0:0x00000000
       43515000	      4350	80001bec	00000013	addi	x0,x0,0	  x0:0x00000000
       43525000	      4351	80001bf0	2d66ee13	ori	x28,x13,726	 x13:0x80009fc4 x28=0x80009fd6
       43535000	      4352	80001bf4	3279eb93	ori	x23,x19,807	 x19:0x00000001 x23=0x00000327
       43545000	      4353	80001bf8	002a9f33	sll	x30,x21,x2	 x21:0xfffffc36  x2:0xffffffff x30=0x00000000
       43555000	      4354	80001bfc	006b1233	sll	x4,x22,x6	 x22:0x00000001  x6:0x00000000  x4=0x00000001
       43565000	      4355	80001c00	00246263	bltu	x8,x2,80001c04	  x8:0xc0004f82  x2:0xffffffff
       43575000	      4356	00000000	00000013	addi	x0,x0,0	  x0:0x00000000
       43585000	      4357	80001c00	00000013	addi	x0,x0,0	  x0:0x00000000
       43595000	      4358	80001c04	0142f863	bgeu	x5,x20,80001c14	  x5:0x00000005 x20:0x80001bec
       43605000	      4359	80001c08	401c8f33	sub	x30,x25,x1	 x25:0x00000004  x1:0x0000000e x30=0xfffffff6
       43615000	      4360	80001c0c	06dbfe63	bgeu	x23,x13,80001c88	 x23:0x00000327 x13:0x80009fc4
       43625000	      4361	80001c10	018d1c13	slli	x24,x26,0x18	 x26:0x00000000 x24=0x00000000
       43635000	      4362	80001c14	00434c33	xor	x24,x6,x4	  x6:0x00000000  x4:0x00000001 x24=0x00000001
       43645000	      4363	80001c18	a0c50c13	addi	x24,x10,-1524	 x10:0x00000001 x24=0xfffffa0d
       43655000	      4364	80001c1c	01e79093	slli	x1,x15,0x1e	 x15:0x00000000  x1=0x00000000
       43665000	      4365	80001c20	01f448b3	xor	x17,x8,x31	  x8:0xc0004f82 x31:0x80009f70 x17=0x4000d0f2
       43675000	      4366	80001c24	ff700293	addi	x5,x0,-9	  x0:0x00000000  x5=0xfffffff7
       43685000	      4367	80001c28	15e47193	andi	x3,x8,350	  x8:0xc0004f82  x3=0x00000102
       43695000	      4368	80001c2c	40c15433	sra	x8,x2,x12	  x2:0xffffffff x12:0x80009638  x8=0xffffffff
       43705000	      4369	80001c30	00fa6033	or	x0,x20,x15	 x20:0x80001bec x15:0x00000000
       43715000	      4370	80001c34	00134233	xor	x4,x6,x1	  x6:0x00000000  x1:0x00000000  x4=0x00000000
       43725000	      4371	80001c38	ff100893	addi	x17,x0,-15	  x0:0x00000000 x17=0xfffffff1
       43735000	      4372	80001c3c	152e4517	auipc	x10,0x152e4	 x10=0x952e5c38
       43745000	      4373	80001c40	01758bb3	add	x23,x11,x23	 x11:0x46ea9000 x23:0x00000327 x23=0x46ea9327
       43755000	      4374	80001c44	00000013	addi	x0,x0,0	  x0:0x00000000
       43765000	      4375	80001c48	2637ec93	ori	x25,x15,611	 x15:0x00000000 x25=0x00000263
       43775000	      4376	80001c4c	00000013	addi	x0,x0,0	  x0:0x00000000
       43785000	      4377	80001c50	fff28293	addi	x5,x5,-1	  x5:0xfffffff7  x5=0xfffffff6
       43795000	      4378	80001c54	01950f33	add	x30,x10,x25	 x10:0x952e5c38 x25:0x00000263 x30=0x952e5e9b
       43805000	      4379	80001c58	ff1286e3	beq	x5,x17,80001c44	  x5:0xfffffff6 x17:0xfffffff1
       43815000	      4380	80001c5c	a7de8393	addi	x7,x29,-1411	 x29:0x00000000  x7=0xfffffa7d
       43825000	      4381	80001c60	f0d2e993	ori	x19,x5,-243	  x5:0xfffffff6 x19=0xffffffff
       43835000	      4382	80001c64	00ccedb3	or	x27,x25,x12	 x25:0x00000263 x12:0x80009638 x27=0x8000967b
       43845000	      4383	80001c68	00595993	srli	x19,x18,0x5	 x18:0x00080001 x19=0x00004000
       43855000	      4384	80001c6c	00e70433	add	x8,x14,x14	 x14:0xfffffeba x14:0xfffffeba  x8=0xfffffd74
       43865000	      4385	80001c70	044d6663	bltu	x26,x4,80001cbc	 x26:0x00000000  x4:0x00000000
       43875000	      4386	80001c74	01a4b5b3	sltu	x11,x9,x26	  x9:0xe2792210 x26:0x00000000 x11=0x00000000
       43885000	      4387	80001c78	02c89263	bne	x17,x12,80001c9c	 x17:0xfffffff1 x12:0x80009638
       43895000	      4388	00000000	00000013	addi	x0,x0,0	  x0:0x00000000
       43905000	      4389	80001c98	00000013	addi	x0,x0,0	  x0:0x00000000
       43915000	      4390	80001c9c	05d91263	bne	x18,x29,80001ce0	 x18:0x00080001 x29:0x00000000
       43925000	      4391	00000000	00000013	addi	x0,x0,0	  x0:0x00000000
       43935000	      4392	80001cdc	00000013	addi	x0,x0,0	  x0:0x00000000
       43945000	      4393	80001ce0	026a9e63	bne	x21,x6,80001d1c	 x21:0xfffffc36  x6:0x00000000
       43955000	      4394	00000000	00000013	addi	x0,x0,0	  x0:0x00000000
       43965000	      4395	80001d18	00000013	addi	x0,x0,0	  x0:0x00000000
       43975000	      4396	80001d1c	0348cc63	blt	x17,x20,80001d54	 x17:0xfffffff1 x20:0x80001bec
       43985000	      4397	80001d20	00845833	srl	x16,x8,x8	  x8:0xfffffd74  x8:0xfffffd74 x16=0x00000fff
       43995000	      4398	80001d24	01d25eb3	srl	x29,x4,x29	  x4:0x00000000 x29:0x00000000 x29=0x00000000
       44005000	      4399	80001d28	01f9d3b3	srl	x7,x19,x31	 x19:0x00004000 x31:0x80009f70  x7=0x00000000
       44015000	      4400	80001d2c	003d3ab3	sltu	x21,x26,x3	 x26:0x00000000  x3:0x00000102 x21=0x00000001
       44025000	      4401	80001d30	04a6f463	bgeu	x13,x10,80001d78	 x13:0x80009fc4 x10:0x952e5c38
       44035000	      4402	80001d34	010f9513	slli	x10,x31,0x10	 x31:0x80009f70 x10=0x9f700000
       44045000	      4403	80001d38	01c67a33	and	x20,x12,x28	 x12:0x80009638 x28:0x80009fd6 x20=0x80009610
       44055000	      4404	80001d3c	05ee6263	bltu	x28,x30,80001d80	 x28:0x80009fd6 x30:0x952e5e9b
       44065000	      4405	00000000	00000013	addi	x0,x0,0	  x0:0x00000000
       44075000	      4406	80001d7c	00000013	addi	x0,x0,0	  x0:0x00000000
       44085000	      4407	80001d80	03ab9e63	bne	x23,x26,80001dbc	 x23:0x46ea9327 x26:0x00000000
       44095000	      4408	00000000	00000013	addi	x0,x0,0	  x0:0x00000000
       44105000	      4409	80001db8	00000013	addi	x0,x0,0	  x0:0x00000000
       44115000	      4410	80001dbc	0b9e8463	beq	x29,x25,80001e64	 x29:0x00000000 x25:0x00000263
       44125000	      4411	80001dc0	0092c463	blt	x5,x9,80001dc8	  x5:0xfffffff6  x9:0xe2792210
       44135000	      4412	80001dc4	00fc9293	slli	x5,x25,0xf	 x25:0x00000263  x5=0x01318000
       44145000	      4413	80001dc8	01a849b3	xor	x19,x16,x26	 x16:0x00000fff x26:0x00000000 x19=0x00000fff
       44155000	      4414	80001dcc	00b75863	bge	x14,x11,80001ddc	 x14:0xfffffeba x11:0x00000000
       44165000	      4415	80001dd0	7731ba93	sltiu	x21,x3,1907	  x3:0x00000102 x21=0x00000001
       44175000	      4416	80001dd4	798f8713	addi	x14,x31,1944	 x31:0x80009f70 x14=0x8000a708
       44185000	      4417	80001dd8	a7db3c93	sltiu	x25,x22,-1411	 x22:0x00000001 x25=0x00000001
       44195000	      4418	80001ddc	08dddc63	bge	x27,x13,80001e74	 x27:0x8000967b x13:0x80009fc4
       44205000	      4419	80001de0	009df2b3	and	x5,x27,x9	 x27:0x8000967b  x9:0xe2792210  x5=0x80000210
       44215000	      4420	80001de4	00200413	addi	x8,x0,2	  x0:0x00000000  x8=0x00000002
       44225000	      4421	80001de8	012feeb3	or	x29,x31,x18	 x31:0x80009f70 x18:0x00080001 x29=0x80089f71
       44235000	      4422	80001dec	0099fa33	and	x20,x19,x9	 x19:0x00000fff  x9:0xe2792210 x20=0x00000210
       44245000	      4423	80001df0	c72551b7	lui	x3,0xc7255	  x3=0xc7255000
       44255000	      4424	80001df4	00200313	addi	x6,x0,2	  x0:0x00000000  x6=0x00000002
       44265000	      4425	80001df8	01e8fa33	and	x20,x17,x30	 x17:0xfffffff1 x30:0x952e5e9b x20=0x952e5e91
       44275000	      4426	80001dfc	08e48b13	addi	x22,x9,142	  x9:0xe2792210 x22=0xe279229e
       44285000	      4427	80001e00	a7beb117	auipc	x2,0xa7beb	  x2=0x27becdfc
       44295000	      4428	80001e04	40e18eb3	sub	x29,x3,x14	  x3:0xc7255000 x14:0x8000a708 x29=0x4724a8f8
       44305000	      4429	80001e08	6db34c13	xori	x24,x6,1755	  x6:0x00000002 x24=0x000006d9
       44315000	      4430	80001e0c	025b7293	andi	x5,x22,37	 x22:0xe279229e  x5=0x00000004
       44325000	      4431	80001e10	fff40413	addi	x8,x8,-1	  x8:0x00000002  x8=0x00000001
       44335000	      4432	80001e14	0166f1b3	and	x3,x13,x22	 x13:0x80009fc4 x22:0xe279229e  x3=0x80000284
       44345000	      4433	80001e18	00000713	addi	x14,x0,0	  x0:0x00000000 x14=0x00000000
       44355000	      4434	80001e1c	01b6aa33	slt	x20,x13,x27	 x13:0x80009fc4 x27:0x8000967b x20=0x00000000
       44365000	      4435	80001e20	812b6193	ori	x3,x22,-2030	 x22:0xe279229e  x3=0xfffffa9e
       44375000	      4436	80001e24	00000913	addi	x18,x0,0	  x0:0x00000000 x18=0x00000000
       44385000	      4437	80001e28	16ae5b97	auipc	x23,0x16ae5	 x23=0x96ae6e24
       44395000	      4438	80001e2c	0042f033	and	x0,x5,x4	  x5:0x00000004  x4:0x00000000
       44405000	      4439	80001e30	00000013	addi	x0,x0,0	  x0:0x00000000
       44415000	      4440	80001e34	46e15c17	auipc	x24,0x46e15	 x24=0xc6e16e30
       44425000	      4441	80001e38	0044e1b3	or	x3,x9,x4	  x9:0xe2792210  x4:0x00000000  x3=0xe2792210
       44435000	      4442	80001e3c	01f52233	slt	x4,x10,x31	 x10:0x9f700000 x31:0x80009f70  x4=0x00000000
       44445000	      4443	80001e40	01a16eb3	or	x29,x2,x26	  x2:0x27becdfc x26:0x00000000 x29=0x27becdfc
       44455000	      4444	80001e44	01495513	srli	x10,x18,0x14	 x18:0x00000000 x10=0x00000000
       44465000	      4445	80001e48	014ec233	xor	x4,x29,x20	 x29:0x27becdfc x20:0x00000000  x4=0x27becdfc
       44475000	      4446	80001e4c	ffe70713	addi	x14,x14,-2	 x14:0x00000000 x14=0xfffffffe
       44485000	      4447	80001e50	342be093	ori	x1,x23,834	 x23:0x96ae6e24  x1=0x96ae6f66
       44495000	      4448	80001e54	ff2754e3	bge	x14,x18,80001e3c	 x14:0xfffffffe x18:0x00000000
       44505000	      4449	80001e58	0192a1b3	slt	x3,x5,x25	  x5:0x00000004 x25:0x00000001  x3=0x00000000
       44515000	      4450	80001e5c	fa6472e3	bgeu	x8,x6,80001e00	  x8:0x00000001  x6:0x00000002
       44525000	      4451	80001e60	003ae2b3	or	x5,x21,x3	 x21:0x00000001  x3:0x00000000  x5=0x00000001
       44535000	      4452	80001e64	021ffe63	bgeu	x31,x1,80001ea0	 x31:0x80009f70  x1:0x96ae6f66
       44545000	      4453	80001e68	92e0b993	sltiu	x19,x1,-1746	  x1:0x96ae6f66 x19=0x00000001
       44555000	      4454	80001e6c	05688263	beq	x17,x22,80001eb0	 x17:0xfffffff1 x22:0xe279229e
       44565000	      4455	80001e70	01176c63	bltu	x14,x17,80001e88	 x14:0xfffffffe x17:0xfffffff1
       44575000	      4456	80001e74	401dd713	srai	x14,x27,0x1	 x27:0x8000967b x14=0xc0004b3d
       44585000	      4457	80001e78	041ce663	bltu	x25,x1,80001ec4	 x25:0x00000001  x1:0x96ae6f66
       44595000	      4458	00000000	00000013	addi	x0,x0,0	  x0:0x00000000
       44605000	      4459	80001ec0	00000013	addi	x0,x0,0	  x0:0x00000000
       44615000	      4460	80001ec4	a281d637	lui	x12,0xa281d	 x12=0xa281d000
       44625000	      4461	80001ec8	00d35633	srl	x12,x6,x13	  x6:0x00000002 x13:0x80009fc4 x12=0x00000000
       44635000	      4462	80001ecc	1dc889b7	lui	x19,0x1dc88	 x19=0x1dc88000
       44645000	      4463	80001ed0	02930663	beq	x6,x9,80001efc	  x6:0x00000002  x9:0xe2792210
       44655000	      4464	80001ed4	00429663	bne	x5,x4,80001ee0	  x5:0x00000001  x4:0x27becdfc
       44665000	      4465	00000000	00000013	addi	x0,x0,0	  x0:0x00000000
       44675000	      4466	80001edc	00000013	addi	x0,x0,0	  x0:0x00000000
       44685000	      4467	80001ee0	88abde37	lui	x28,0x88abd	 x28=0x88abd000
       44695000	      4468	80001ee4	40102713	slti	x14,x0,1025	  x0:0x00000000 x14=0x00000001
       44705000	      4469	80001ee8	00e89293	slli	x5,x17,0xe	 x17:0xfffffff1  x5=0xfffc4000
       44715000	      4470	80001eec	04d0e263	bltu	x1,x13,80001f30	  x1:0x96ae6f66 x13:0x80009fc4
       44725000	      4471	80001ef0	00c46cb3	or	x25,x8,x12	  x8:0x00000001 x12:0x00000000 x25=0x00000001
       44735000	      4472	80001ef4	be437213	andi	x4,x6,-1052	  x6:0x00000002  x4=0x00000000
       44745000	      4473	80001ef8	00e3d613	srli	x12,x7,0xe	  x7:0x00000000 x12=0x00000000
       44755000	      4474	80001efc	03c4f863	bgeu	x9,x28,80001f2c	  x9:0xe2792210 x28:0x88abd000
       44765000	      4475	00000000	00000013	addi	x0,x0,0	  x0:0x00000000
       44775000	      4476	80001f28	00000013	addi	x0,x0,0	  x0:0x00000000
       44785000	      4477	80001f2c	d0cca413	slti	x8,x25,-756	 x25:0x00000001  x8=0x00000000
       44795000	      4478	80001f30	5ef46737	lui	x14,0x5ef46	 x14=0x5ef46000
       44805000	      4479	80001f34	00b8d1b3	srl	x3,x17,x11	 x17:0xfffffff1 x11:0x00000000  x3=0xfffffff1
       44815000	      4480	80001f38	415e5913	srai	x18,x28,0x15	 x28:0x88abd000 x18=0xfffffc45
       44825000	      4481	80001f3c	005191b3	sll	x3,x3,x5	  x3:0xfffffff1  x5:0xfffc4000  x3=0xfffffff1
       44835000	      4482	80001f40	03218263	beq	x3,x18,80001f64	  x3:0xfffffff1 x18:0xfffffc45
       44845000	      4483	80001f44	6a9b0a93	addi	x21,x22,1705	 x22:0xe279229e x21=0xe2792947
       44855000	      4484	80001f48	013d23b3	slt	x7,x26,x19	 x26:0x00000000 x19:0x1dc88000  x7=0x00000001
       44865000	      4485	80001f4c	019c1533	sll	x10,x24,x25	 x24:0xc6e16e30 x25:0x00000001 x10=0x8dc2dc60
       44875000	      4486	80001f50	04d5f063	bgeu	x11,x13,80001f90	 x11:0x00000000 x13:0x80009fc4
       44885000	      4487	80001f54	4137d133	sra	x2,x15,x19	 x15:0x00000000 x19:0x1dc88000  x2=0x00000000
       44895000	      4488	80001f58	029e7463	bgeu	x28,x9,80001f80	 x28:0x88abd000  x9:0xe2792210
       44905000	      4489	80001f5c	034f4063	blt	x30,x20,80001f7c	 x30:0x952e5e9b x20:0x00000000
       44915000	      4490	00000000	00000013	addi	x0,x0,0	  x0:0x00000000
       44925000	      4491	80001f78	00000013	addi	x0,x0,0	  x0:0x00000000
       44935000	      4492	80001f7c	7f694113	xori	x2,x18,2038	 x18:0xfffffc45  x2=0xfffffbb3
       44945000	      4493	80001f80	4155d9b3	sra	x19,x11,x21	 x11:0x00000000 x21:0xe2792947 x19=0x00000000
       44955000	      4494	80001f84	2f506993	ori	x19,x0,757	  x0:0x00000000 x19=0x000002f5
       44965000	      4495	80001f88	0342dc63	bge	x5,x20,80001fc0	  x5:0xfffc4000 x20:0x00000000
       44975000	      4496	80001f8c	02300e63	beq	x0,x3,80001fc8	  x0:0x00000000  x3:0xfffffff1
       44985000	      4497	80001f90	2f680d97	auipc	x27,0x2f680	 x27=0xaf681f8c
       44995000	      4498	80001f94	00000013	addi	x0,x0,0	  x0:0x00000000
       45005000	      4499	80001f98	007f5f33	srl	x30,x30,x7	 x30:0x952e5e9b  x7:0x00000001 x30=0x4a972f4d
       45015000	      4500	80001f9c	113ee393	ori	x7,x29,275	 x29:0x27becdfc  x7=0x27becdff
       45025000	      4501	80001fa0	00647733	and	x14,x8,x6	  x8:0x00000000  x6:0x00000002 x14=0x00000000
       45035000	      4502	80001fa4	00c015b3	sll	x11,x0,x12	  x0:0x00000000 x12:0x00000000 x11=0x00000000
       45045000	      4503	80001fa8	04909463	bne	x1,x9,80001ff0	  x1:0x96ae6f66  x9:0xe2792210
       45055000	      4504	00000000	00000013	addi	x0,x0,0	  x0:0x00000000
       45065000	      4505	80001fec	00000013	addi	x0,x0,0	  x0:0x00000000
       45075000	      4506	80001ff0	9976f113	andi	x2,x13,-1641	 x13:0x80009fc4  x2=0x80009984
       45085000	      4507	80001ff4	01a77633	and	x12,x14,x26	 x14:0x00000000 x26:0x00000000 x12=0x00000000
       45095000	      4508	80001ff8	9628ea93	ori	x21,x17,-1694	 x17:0xfffffff1 x21=0xfffffff3
       45105000	      4509	80001ffc	00000013	addi	x0,x0,0	  x0:0x00000000
       45115000	      4510	80002000	f3737c93	andi	x25,x6,-201	  x6:0x00000002 x25=0x00000002
       45125000	      4511	80002004	01242133	slt	x2,x8,x18	  x8:0x00000000 x18:0xfffffc45  x2=0x00000000
       45135000	      4512	80002008	ca6fb0b7	lui	x1,0xca6fb	  x1=0xca6fb000
       45145000	      4513	8000200c	0001fd17	auipc	x26,0x1f	 x26=0x80021008
       45155000	      4514	80002010	01af80b3	add	x1,x31,x26	 x31:0x80009f70 x26:0x80021008  x1=0x0002af78
       45165000	      4515	80002014	01aa5933	srl	x18,x20,x26	 x20:0x00000000 x26:0x80021008 x18=0x00000000
       45175000	      4516	80002018	00c0a833	slt	x16,x1,x12	  x1:0x0002af78 x12:0x00000000 x16=0x00000000
       45185000	      4517	8000201c	c2afff37	lui	x30,0xc2aff	 x30=0xc2aff000
       45195000	      4518	80002020	011df463	bgeu	x27,x17,80002028	 x27:0xaf681f8c x17:0xfffffff1
       45205000	      4519	80002024	0083f533	and	x10,x7,x8	  x7:0x27becdff  x8:0x00000000 x10=0x00000000
       45215000	      4520	80002028	02d9d263	bge	x19,x13,8000204c	 x19:0x000002f5 x13:0x80009fc4
       45225000	      4521	00000000	00000013	addi	x0,x0,0	  x0:0x00000000
       45235000	      4522	80002048	00000013	addi	x0,x0,0	  x0:0x00000000
       45245000	      4523	8000204c	01c98863	beq	x19,x28,8000205c	 x19:0x000002f5 x28:0x88abd000
       45255000	      4524	80002050	1a4f2513	slti	x10,x30,420	 x30:0xc2aff000 x10=0x00000001
       45265000	      4525	80002054	e9e93413	sltiu	x8,x18,-354	 x18:0x00000000  x8=0x00000001
       45275000	      4526	80002058	03c08e63	beq	x1,x28,80002094	  x1:0x0002af78 x28:0x88abd000
       45285000	      4527	8000205c	0057a5b3	slt	x11,x15,x5	 x15:0x00000000  x5:0xfffc4000 x11=0x00000000
       45295000	      4528	80002060	55888d13	addi	x26,x17,1368	 x17:0xfffffff1 x26=0x00000549
       45305000	      4529	80002064	01f20ab3	add	x21,x4,x31	  x4:0x00000000 x31:0x80009f70 x21=0x80009f70
       45315000	      4530	80002068	aac48213	addi	x4,x9,-1364	  x9:0xe2792210  x4=0xe2791cbc
       45325000	      4531	8000206c	10f77e37	lui	x28,0x10f77	 x28=0x10f77000
       45335000	      4532	80002070	00084663	blt	x16,x0,8000207c	 x16:0x00000000  x0:0x00000000
       45345000	      4533	80002074	01458f33	add	x30,x11,x20	 x11:0x00000000 x20:0x00000000 x30=0x00000000
       45355000	      4534	80002078	90878593	addi	x11,x15,-1784	 x15:0x00000000 x11=0xfffff908
       45365000	      4535	8000207c	71c93813	sltiu	x16,x18,1820	 x18:0x00000000 x16=0x00000001
       45375000	      4536	80002080	01750db3	add	x27,x10,x23	 x10:0x00000001 x23:0x96ae6e24 x27=0x96ae6e25
       45385000	      4537	80002084	01df5193	srli	x3,x30,0x1d	 x30:0x00000000  x3=0x00000000
       45395000	      4538	80002088	66e68993	addi	x19,x13,1646	 x13:0x80009fc4 x19=0x8000a632
       45405000	      4539	8000208c	00000013	addi	x0,x0,0	  x0:0x00000000
       45415000	      4540	80002090	9b69a313	slti	x6,x19,-1610	 x19:0x8000a632  x6=0x00000001
       45425000	      4541	80002094	02f59c63	bne	x11,x15,800020cc	 x11:0xfffff908 x15:0x00000000
       45435000	      4542	00000000	00000013	addi	x0,x0,0	  x0:0x00000000
       45445000	      4543	800020c8	00000013	addi	x0,x0,0	  x0:0x00000000
       45455000	      4544	800020cc	006839b3	sltu	x19,x16,x6	 x16:0x00000001  x6:0x00000001 x19=0x00000000
       45465000	      4545	800020d0	05d8f263	bgeu	x17,x29,80002114	 x17:0xfffffff1 x29:0x27becdfc
       45475000	      4546	00000000	00000013	addi	x0,x0,0	  x0:0x00000000
       45485000	      4547	80002110	00000013	addi	x0,x0,0	  x0:0x00000000
       45495000	      4548	80002114	008d9263	bne	x27,x8,80002118	 x27:0x96ae6e25  x8:0x00000001
       45505000	      4549	00000000	00000013	addi	x0,x0,0	  x0:0x00000000
       45515000	      4550	80002114	00000013	addi	x0,x0,0	  x0:0x00000000
       45525000	      4551	80002118	00b59c13	slli	x24,x11,0xb	 x11:0xfffff908 x24=0xffc84000
       45535000	      4552	8000211c	0116f863	bgeu	x13,x17,8000212c	 x13:0x80009fc4 x17:0xfffffff1
       45545000	      4553	80002120	04bf8463	beq	x31,x11,80002168	 x31:0x80009f70 x11:0xfffff908
       45555000	      4554	80002124	40048db3	sub	x27,x9,x0	  x9:0xe2792210  x0:0x00000000 x27=0xe2792210
       45565000	      4555	80002128	00dfc133	xor	x2,x31,x13	 x31:0x80009f70 x13:0x80009fc4  x2=0x000000b4
       45575000	      4556	8000212c	408d5b93	srai	x23,x26,0x8	 x26:0x00000549 x23=0x00000005
       45585000	      4557	80002130	012c1413	slli	x8,x24,0x12	 x24:0xffc84000  x8=0x00000000
       45595000	      4558	80002134	00ebf463	bgeu	x23,x14,8000213c	 x23:0x00000005 x14:0x00000000
       45605000	      4559	00000000	00000013	addi	x0,x0,0	  x0:0x00000000
       45615000	      4560	80002138	00000013	addi	x0,x0,0	  x0:0x00000000
       45625000	      4561	8000213c	01773233	sltu	x4,x14,x23	 x14:0x00000000 x23:0x00000005  x4=0x00000001
       45635000	      4562	80002140	010d7833	and	x16,x26,x16	 x26:0x00000549 x16:0x00000001 x16=0x00000001
       45645000	      4563	80002144	01d4c9b3	xor	x19,x9,x29	  x9:0xe2792210 x29:0x27becdfc x19=0xc5c7efec
       45655000	      4564	80002148	01ba32b3	sltu	x5,x20,x27	 x20:0x00000000 x27:0xe2792210  x5=0x00000001
       45665000	      4565	8000214c	b3e20937	lui	x18,0xb3e20	 x18=0xb3e20000
       45675000	      4566	80002150	404dd0b3	sra	x1,x27,x4	 x27:0xe2792210  x4:0x00000001  x1=0xf13c9108
       45685000	      4567	80002154	06f84d93	xori	x27,x16,111	 x16:0x00000001 x27=0x0000006e
       45695000	      4568	80002158	01ad0833	add	x16,x26,x26	 x26:0x00000549 x26:0x00000549 x16=0x00000a92
       45705000	      4569	8000215c	01d27463	bgeu	x4,x29,80002164	  x4:0x00000001 x29:0x27becdfc
       45715000	      4570	80002160	14d72593	slti	x11,x14,333	 x14:0x00000000 x11=0x00000001
       45725000	      4571	80002164	00d38c63	beq	x7,x13,8000217c	  x7:0x27becdff x13:0x80009fc4
       45735000	      4572	80002168	0413f263	bgeu	x7,x1,800021ac	  x7:0x27becdff  x1:0xf13c9108
       45745000	      4573	8000216c	00000013	addi	x0,x0,0	  x0:0x00000000
       45755000	      4574	80002170	03c8ce63	blt	x17,x28,800021ac	 x17:0xfffffff1 x28:0x10f77000
       45765000	      4575	00000000	00000013	addi	x0,x0,0	  x0:0x00000000
       45775000	      4576	800021a8	00000013	addi	x0,x0,0	  x0:0x00000000
       45785000	      4577	800021ac	00c15093	srli	x1,x2,0xc	  x2:0x000000b4  x1=0x00000000
       45795000	      4578	800021b0	01107db3	and	x27,x0,x17	  x0:0x00000000 x17:0xfffffff1 x27=0x00000000
       45805000	      4579	800021b4	4042d213	srai	x4,x5,0x4	  x5:0x00000001  x4=0x00000000
       45815000	      4580	800021b8	00893033	sltu	x0,x18,x8	 x18:0xb3e20000  x8:0x00000000
       45825000	      4581	800021bc	ed137113	andi	x2,x6,-303	  x6:0x00000001  x2=0x00000001
       45835000	      4582	800021c0	5cb0a993	slti	x19,x1,1483	  x1:0x00000000 x19=0x00000001
       45845000	      4583	800021c4	025dc463	blt	x27,x5,800021ec	 x27:0x00000000  x5:0x00000001
       45855000	      4584	00000000	00000013	addi	x0,x0,0	  x0:0x00000000
       45865000	      4585	800021e8	00000013	addi	x0,x0,0	  x0:0x00000000
       45875000	      4586	800021ec	00171d93	slli	x27,x14,0x1	 x14:0x00000000 x27=0x00000000
       45885000	      4587	800021f0	00000013	addi	x0,x0,0	  x0:0x00000000
       45895000	      4588	800021f4	40afd993	srai	x19,x31,0xa	 x31:0x80009f70 x19=0xffe00027
       45905000	      4589	800021f8	00aade13	srli	x28,x21,0xa	 x21:0x80009f70 x28=0x00200027
       45915000	      4590	800021fc	012bac33	slt	x24,x23,x18	 x23:0x00000005 x18:0xb3e20000 x24=0x00000000
       45925000	      4591	80002200	01bf1133	sll	x2,x30,x27	 x30:0x00000000 x27:0x00000000  x2=0x00000000
       45935000	      4592	80002204	001167b3	or	x15,x2,x1	  x2:0x00000000  x1:0x00000000 x15=0x00000000
       45945000	      4593	80002208	00000013	addi	x0,x0,0	  x0:0x00000000
       45955000	      4594	8000220c	408c5713	srai	x14,x24,0x8	 x24:0x00000000 x14=0x00000000
       45965000	      4595	80002210	00ecf9b3	and	x19,x25,x14	 x25:0x00000002 x14:0x00000000 x19=0x00000000
       45975000	      4596	80002214	041e9663	bne	x29,x1,80002260	 x29:0x27becdfc  x1:0x00000000
       45985000	      4597	00000000	00000013	addi	x0,x0,0	  x0:0x00000000
       45995000	      4598	8000225c	00000013	addi	x0,x0,0	  x0:0x00000000
       46005000	      4599	80002260	04f70263	beq	x14,x15,800022a4	 x14:0x00000000 x15:0x00000000
       46015000	      4600	00000000	00000013	addi	x0,x0,0	  x0:0x00000000
       46025000	      4601	800022a0	00000013	addi	x0,x0,0	  x0:0x00000000
       46035000	      4602	800022a4	017a5013	srli	x0,x20,0x17	 x20:0x00000000
       46045000	      4603	800022a8	01463e33	sltu	x28,x12,x20	 x12:0x00000000 x20:0x00000000 x28=0x00000000
       46055000	      4604	800022ac	014f5eb3	srl	x29,x30,x20	 x30:0x00000000 x20:0x00000000 x29=0x00000000
       46065000	      4605	800022b0	00bfb433	sltu	x8,x31,x11	 x31:0x80009f70 x11:0x00000001  x8=0x00000000
       46075000	      4606	800022b4	00555e33	srl	x28,x10,x5	 x10:0x00000001  x5:0x00000001 x28=0x00000000
       46085000	      4607	800022b8	e1e537b7	lui	x15,0xe1e53	 x15=0xe1e53000
       46095000	      4608	800022bc	019f1293	slli	x5,x30,0x19	 x30:0x00000000  x5=0x00000000
       46105000	      4609	800022c0	00000013	addi	x0,x0,0	  x0:0x00000000
       46115000	      4610	800022c4	003aa033	slt	x0,x21,x3	 x21:0x80009f70  x3:0x00000000
       46125000	      4611	800022c8	016ba8b3	slt	x17,x23,x22	 x23:0x00000005 x22:0xe279229e x17=0x00000000
       46135000	      4612	800022cc	00eade93	srli	x29,x21,0xe	 x21:0x80009f70 x29=0x00020002
       46145000	      4613	800022d0	40425733	sra	x14,x4,x4	  x4:0x00000000  x4:0x00000000 x14=0x00000000
       46155000	      4614	800022d4	51fb5ab7	lui	x21,0x51fb5	 x21=0x51fb5000
       46165000	      4615	800022d8	01cb8513	addi	x10,x23,28	 x23:0x00000005 x10=0x00000021
       46175000	      4616	800022dc	418dda13	srai	x20,x27,0x18	 x27:0x00000000 x20=0x00000000
       46185000	      4617	800022e0	014c0c63	beq	x24,x20,800022f8	 x24:0x00000000 x20:0x00000000
       46195000	      4618	00000000	00000013	addi	x0,x0,0	  x0:0x00000000
       46205000	      4619	800022f4	00000013	addi	x0,x0,0	  x0:0x00000000
       46215000	      4620	800022f8	2ab62c17	auipc	x24,0x2ab62	 x24=0xaab642f4
       46225000	      4621	800022fc	419385b3	sub	x11,x7,x25	  x7:0x27becdff x25:0x00000002 x11=0x27becdfd
       46235000	      4622	80002300	d7da6093	ori	x1,x20,-643	 x20:0x00000000  x1=0xfffffd7d
       46245000	      4623	80002304	02ee1463	bne	x28,x14,8000232c	 x28:0x00000000 x14:0x00000000
       46255000	      4624	80002308	6ec3c113	xori	x2,x7,1772	  x7:0x27becdff  x2=0x27becb13
       46265000	      4625	8000230c	00384663	blt	x16,x3,80002318	 x16:0x00000a92  x3:0x00000000
       46275000	      4626	80002310	0188fa33	and	x20,x17,x24	 x17:0x00000000 x24:0xaab642f4 x20=0x00000000
       46285000	      4627	80002314	dc73ec13	ori	x24,x7,-569	  x7:0x27becdff x24=0xfffffdff
       46295000	      4628	80002318	418855b3	sra	x11,x16,x24	 x16:0x00000a92 x24:0xfffffdff x11=0x00000000
       46305000	      4629	8000231c	012ea933	slt	x18,x29,x18	 x29:0x00020002 x18:0xb3e20000 x18=0x00000000
       46315000	      4630	80002320	40e6da93	srai	x21,x13,0xe	 x13:0x80009fc4 x21=0xfffe0002
       46325000	      4631	80002324	b175aa93	slti	x21,x11,-1257	 x11:0x00000000 x21=0x00000000
       46335000	      4632	80002328	02e3cc63	blt	x7,x14,80002360	  x7:0x27becdff x14:0x00000000
       46345000	      4633	8000232c	00db0733	add	x14,x22,x13	 x22:0xe279229e x13:0x80009fc4 x14=0x6279c262
       46355000	      4634	80002330	5f5cd5b7	lui	x11,0x5f5cd	 x11=0x5f5cd000
       46365000	      4635	80002334	c0037113	andi	x2,x6,-1024	  x6:0x00000001  x2=0x00000000
       46375000	      4636	80002338	03f57863	bgeu	x10,x31,80002368	 x10:0x00000021 x31:0x80009f70
       46385000	      4637	8000233c	41c28433	sub	x8,x5,x28	  x5:0x00000000 x28:0x00000000  x8=0x00000000
       46395000	      4638	80002340	006f7433	and	x8,x30,x6	 x30:0x00000000  x6:0x00000001  x8=0x00000000
       46405000	      4639	80002344	41a28db3	sub	x27,x5,x26	  x5:0x00000000 x26:0x00000549 x27=0xfffffab7
       46415000	      4640	80002348	0132e133	or	x2,x5,x19	  x5:0x00000000 x19:0x00000000  x2=0x00000000
       46425000	      4641	8000234c	00b0cab3	xor	x21,x1,x11	  x1:0xfffffd7d x11:0x5f5cd000 x21=0xa0a32d7d
       46435000	      4642	80002350	044bf063	bgeu	x23,x4,80002390	 x23:0x00000005  x4:0x00000000
       46445000	      4643	00000000	00000013	addi	x0,x0,0	  x0:0x00000000
       46455000	      4644	8000238c	00000013	addi	x0,x0,0	  x0:0x00000000
       46465000	      4645	80002390	189e4413	xori	x8,x28,393	 x28:0x00000000  x8=0x00000189
       46475000	      4646	80002394	409288b3	sub	x17,x5,x9	  x5:0x00000000  x9:0xe2792210 x17=0x1d86ddf0
       46485000	      4647	80002398	a2ed6c93	ori	x25,x26,-1490	 x26:0x00000549 x25=0xffffff6f
       46495000	      4648	8000239c	7b1c15b7	lui	x11,0x7b1c1	 x11=0x7b1c1000
       46505000	      4649	800023a0	01d6abb3	slt	x23,x13,x29	 x13:0x80009fc4 x29:0x00020002 x23=0x00000001
       46515000	      4650	800023a4	b6f70213	addi	x4,x14,-1169	 x14:0x6279c262  x4=0x6279bdd1
       46525000	      4651	800023a8	288acc13	xori	x24,x21,648	 x21:0xa0a32d7d x24=0xa0a32ff5
       46535000	      4652	800023ac	0158bf33	sltu	x30,x17,x21	 x17:0x1d86ddf0 x21:0xa0a32d7d x30=0x00000001
       46545000	      4653	800023b0	e00e3613	sltiu	x12,x28,-512	 x28:0x00000000 x12=0x00000001
       46555000	      4654	800023b4	026b9e63	bne	x23,x6,800023f0	 x23:0x00000001  x6:0x00000001
       46565000	      4655	800023b8	01349113	slli	x2,x9,0x13	  x9:0xe2792210  x2=0x10800000
       46575000	      4656	800023bc	010c65b3	or	x11,x24,x16	 x24:0xa0a32ff5 x16:0x00000a92 x11=0xa0a32ff7
       46585000	      4657	800023c0	3f673d13	sltiu	x26,x14,1014	 x14:0x6279c262 x26=0x00000000
       46595000	      4658	800023c4	d1d60d93	addi	x27,x12,-739	 x12:0x00000001 x27=0xfffffd1e
       46605000	      4659	800023c8	0456f063	bgeu	x13,x5,80002408	 x13:0x80009fc4  x5:0x00000000
       46615000	      4660	00000000	00000013	addi	x0,x0,0	  x0:0x00000000
       46625000	      4661	80002404	00000013	addi	x0,x0,0	  x0:0x00000000
       46635000	      4662	80002408	40c2d033	sra	x0,x5,x12	  x5:0x00000000 x12:0x00000001
       46645000	      4663	8000240c	01e69613	slli	x12,x13,0x1e	 x13:0x80009fc4 x12=0x00000000
       46655000	      4664	80002410	1a74bd13	sltiu	x26,x9,423	  x9:0xe2792210 x26=0x00000000
       46665000	      4665	80002414	81ab3b37	lui	x22,0x81ab3	 x22=0x81ab3000
       46675000	      4666	80002418	016eddb3	srl	x27,x29,x22	 x29:0x00020002 x22:0x81ab3000 x27=0x00020002
       46685000	      4667	8000241c	01b34c63	blt	x6,x27,80002434	  x6:0x00000001 x27:0x00020002
       46695000	      4668	00000000	00000013	addi	x0,x0,0	  x0:0x00000000
       46705000	      4669	80002430	00000013	addi	x0,x0,0	  x0:0x00000000
       46715000	      4670	80002434	46870913	addi	x18,x14,1128	 x14:0x6279c262 x18=0x6279c6ca
       46725000	      4671	80002438	01454e33	xor	x28,x10,x20	 x10:0x00000021 x20:0x00000000 x28=0x00000021
       46735000	      4672	8000243c	00bf5113	srli	x2,x30,0xb	 x30:0x00000001  x2=0x00000000
       46745000	      4673	80002440	01c8c033	xor	x0,x17,x28	 x17:0x1d86ddf0 x28:0x00000021
       46755000	      4674	80002444	01dfa8b3	slt	x17,x31,x29	 x31:0x80009f70 x29:0x00020002 x17=0x00000001
       46765000	      4675	80002448	011199b3	sll	x19,x3,x17	  x3:0x00000000 x17:0x00000001 x19=0x00000000
       46775000	      4676	8000244c	01d15863	bge	x2,x29,8000245c	  x2:0x00000000 x29:0x00020002
       46785000	      4677	80002450	00d74463	blt	x14,x13,80002458	 x14:0x6279c262 x13:0x80009fc4
       46795000	      4678	80002454	029bf263	bgeu	x23,x9,80002478	 x23:0x00000001  x9:0xe2792210
       46805000	      4679	80002458	0057a9b3	slt	x19,x15,x5	 x15:0xe1e53000  x5:0x00000000 x19=0x00000001
       46815000	      4680	8000245c	8666c193	xori	x3,x13,-1946	 x13:0x80009fc4  x3=0x7fff67a2
       46825000	      4681	80002460	468a02b7	lui	x5,0x468a0	  x5=0x468a0000
       46835000	      4682	80002464	4110d393	srai	x7,x1,0x11	  x1:0xfffffd7d  x7=0xffffffff
       46845000	      4683	80002468	00000013	addi	x0,x0,0	  x0:0x00000000
       46855000	      4684	8000246c	0029adb3	slt	x27,x19,x2	 x19:0x00000001  x2:0x00000000 x27=0x00000000
       46865000	      4685	80002470	02228e63	beq	x5,x2,800024ac	  x5:0x468a0000  x2:0x00000000
       46875000	      4686	80002474	00ae9bb3	sll	x23,x29,x10	 x29:0x00020002 x10:0x00000021 x23=0x00040004
       46885000	      4687	80002478	b77d2413	slti	x8,x26,-1161	 x26:0x00000000  x8=0x00000000
       46895000	      4688	8000247c	01cf5ab3	srl	x21,x30,x28	 x30:0x00000001 x28:0x00000021 x21=0x00000000
       46905000	      4689	80002480	01dc33b3	sltu	x7,x24,x29	 x24:0xa0a32ff5 x29:0x00020002  x7=0x00000000
       46915000	      4690	80002484	011f7133	and	x2,x30,x17	 x30:0x00000001 x17:0x00000001  x2=0x00000001
       46925000	      4691	80002488	40ffd393	srai	x7,x31,0xf	 x31:0x80009f70  x7=0xffff0001
       46935000	      4692	8000248c	00000013	addi	x0,x0,0	  x0:0x00000000
       46945000	      4693	80002490	019eeb33	or	x22,x29,x25	 x29:0x00020002 x25:0xffffff6f x22=0xffffff6f
       46955000	      4694	80002494	4064d193	srai	x3,x9,0x6	  x9:0xe2792210  x3=0xff89e488
       46965000	      4695	80002498	9d1bbc93	sltiu	x25,x23,-1583	 x23:0x00040004 x25=0x00000001
       46975000	      4696	8000249c	2a3a6593	ori	x11,x20,675	 x20:0x00000000 x11=0x000002a3
       46985000	      4697	800024a0	63632193	slti	x3,x6,1590	  x6:0x00000001  x3=0x00000001
       46995000	      4698	800024a4	016ce933	or	x18,x25,x22	 x25:0x00000001 x22:0xffffff6f x18=0xffffff6f
       47005000	      4699	800024a8	0a51c917	auipc	x18,0xa51c	 x18=0x8a51e4a4
       47015000	      4700	800024ac	0158f8b3	and	x17,x17,x21	 x17:0x00000001 x21:0x00000000 x17=0x00000000
       47025000	      4701	800024b0	6937b113	sltiu	x2,x15,1683	 x15:0xe1e53000  x2=0x00000000
       47035000	      4702	800024b4	01115ab3	srl	x21,x2,x17	  x2:0x00000000 x17:0x00000000 x21=0x00000000
       47045000	      4703	800024b8	00afe1b3	or	x3,x31,x10	 x31:0x80009f70 x10:0x00000021  x3=0x80009f71
       47055000	      4704	800024bc	002eeb33	or	x22,x29,x2	 x29:0x00020002  x2:0x00000000 x22=0x00020002
       47065000	      4705	800024c0	01964463	blt	x12,x25,800024c8	 x12:0x00000000 x25:0x00000001
       47075000	      4706	00000000	00000013	addi	x0,x0,0	  x0:0x00000000
       47085000	      4707	800024c4	00000013	addi	x0,x0,0	  x0:0x00000000
       47095000	      4708	800024c8	0072f8b3	and	x17,x5,x7	  x5:0x468a0000  x7:0xffff0001 x17=0x468a0000
       47105000	      4709	800024cc	40478033	sub	x0,x15,x4	 x15:0xe1e53000  x4:0x6279bdd1
       47115000	      4710	800024d0	060ac263	blt	x21,x0,80002534	 x21:0x00000000  x0:0x00000000
       47125000	      4711	800024d4	05ebce63	blt	x23,x30,80002530	 x23:0x00040004 x30:0x00000001
       47135000	      4712	800024d8	003a9db3	sll	x27,x21,x3	 x21:0x00000000  x3:0x80009f71 x27=0x00000000
       47145000	      4713	800024dc	a1f36c13	ori	x24,x6,-1505	  x6:0x00000001 x24=0xfffffa1f
       47155000	      4714	800024e0	00bedf33	srl	x30,x29,x11	 x29:0x00020002 x11:0x000002a3 x30=0x00004000
       47165000	      4715	800024e4	4047d793	srai	x15,x15,0x4	 x15:0xe1e53000 x15=0xfe1e5300
       47175000	      4716	800024e8	00900793	addi	x15,x0,9	  x0:0x00000000 x15=0x00000009
       47185000	      4717	800024ec	8a525d97	auipc	x27,0x8a525	 x27=0x0a5274e8
       47195000	      4718	800024f0	00000013	addi	x0,x0,0	  x0:0x00000000
       47205000	      4719	800024f4	00800193	addi	x3,x0,8	  x0:0x00000000  x3=0x00000008
       47215000	      4720	800024f8	b4438517	auipc	x10,0xb4438	 x10=0x3443a4f4
       47225000	      4721	800024fc	ffe78793	addi	x15,x15,-2	 x15:0x00000009 x15=0x00000007
       47235000	      4722	80002500	fe37fce3	bgeu	x15,x3,800024f8	 x15:0x00000007  x3:0x00000008
       47245000	      4723	80002504	007d05b3	add	x11,x26,x7	 x26:0x00000000  x7:0xffff0001 x11=0xffff0001
       47255000	      4724	80002508	04389463	bne	x17,x3,80002550	 x17:0x468a0000  x3:0x00000008
       47265000	      4725	00000000	00000013	addi	x0,x0,0	  x0:0x00000000
       47275000	      4726	8000254c	00000013	addi	x0,x0,0	  x0:0x00000000
       47285000	      4727	80002550	00115c63	bge	x2,x1,80002568	  x2:0x00000000  x1:0xfffffd7d
       47295000	      4728	00000000	00000013	addi	x0,x0,0	  x0:0x00000000
       47305000	      4729	80002564	00000013	addi	x0,x0,0	  x0:0x00000000
       47315000	      4730	80002568	410ddc33	sra	x24,x27,x16	 x27:0x0a5274e8 x16:0x00000a92 x24=0x00000294
       47325000	      4731	8000256c	02dc8e63	beq	x25,x13,800025a8	 x25:0x00000001 x13:0x80009fc4
       47335000	      4732	80002570	620d4093	xori	x1,x26,1568	 x26:0x00000000  x1=0x00000620
       47345000	      4733	80002574	049d5663	bge	x26,x9,800025c0	 x26:0x00000000  x9:0xe2792210
       47355000	      4734	00000000	00000013	addi	x0,x0,0	  x0:0x00000000
       47365000	      4735	800025bc	00000013	addi	x0,x0,0	  x0:0x00000000
       47375000	      4736	800025c0	01870033	add	x0,x14,x24	 x14:0x6279c262 x24:0x00000294
       47385000	      4737	800025c4	00326c63	bltu	x4,x3,800025dc	  x4:0x6279bdd1  x3:0x00000008
       47395000	      4738	800025c8	41e688b3	sub	x17,x13,x30	 x13:0x80009fc4 x30:0x00004000 x17=0x80005fc4
       47405000	      4739	800025cc	400e5213	srai	x4,x28,0x0	 x28:0x00000021  x4=0x00000021
       47415000	      4740	800025d0	009f42b3	xor	x5,x30,x9	 x30:0x00004000  x9:0xe2792210  x5=0xe2796210
       47425000	      4741	800025d4	01fa49b3	xor	x19,x20,x31	 x20:0x00000000 x31:0x80009f70 x19=0x80009f70
       47435000	      4742	800025d8	00566663	bltu	x12,x5,800025e4	 x12:0x00000000  x5:0xe2796210
       47445000	      4743	00000000	00000013	addi	x0,x0,0	  x0:0x00000000
       47455000	      4744	800025e0	00000013	addi	x0,x0,0	  x0:0x00000000
       47465000	      4745	800025e4	408bd613	srai	x12,x23,0x8	 x23:0x00040004 x12=0x00000400
       47475000	      4746	800025e8	65a2cd93	xori	x27,x5,1626	  x5:0xe2796210 x27=0xe279644a
       47485000	      4747	800025ec	06446863	bltu	x8,x4,8000265c	  x8:0x00000000  x4:0x00000021
       47495000	      4748	00000000	00000013	addi	x0,x0,0	  x0:0x00000000
       47505000	      4749	80002658	00000013	addi	x0,x0,0	  x0:0x00000000
       47515000	      4750	8000265c	00000013	addi	x0,x0,0	  x0:0x00000000
       47525000	      4751	80002660	001e5863	bge	x28,x1,80002670	 x28:0x00000021  x1:0x00000620
       47535000	      4752	80002664	00000013	addi	x0,x0,0	  x0:0x00000000
       47545000	      4753	80002668	00c9dc13	srli	x24,x19,0xc	 x19:0x80009f70 x24=0x00080009
       47555000	      4754	8000266c	00616ab3	or	x21,x2,x6	  x2:0x00000000  x6:0x00000001 x21=0x00000001
       47565000	      4755	80002670	41e25993	srai	x19,x4,0x1e	  x4:0x00000021 x19=0x00000000
       47575000	      4756	80002674	166e8893	addi	x17,x29,358	 x29:0x00020002 x17=0x00020168
       47585000	      4757	80002678	0455e063	bltu	x11,x5,800026b8	 x11:0xffff0001  x5:0xe2796210
       47595000	      4758	8000267c	03f79863	bne	x15,x31,800026ac	 x15:0x00000007 x31:0x80009f70
       47605000	      4759	00000000	00000013	addi	x0,x0,0	  x0:0x00000000
       47615000	      4760	800026a8	00000013	addi	x0,x0,0	  x0:0x00000000
       47625000	      4761	800026ac	b1c18f13	addi	x30,x3,-1252	  x3:0x00000008 x30=0xfffffb24
       47635000	      4762	800026b0	01920863	beq	x4,x25,800026c0	  x4:0x00000021 x25:0x00000001
       47645000	      4763	800026b4	03b40663	beq	x8,x27,800026e0	  x8:0x00000000 x27:0xe279644a
       47655000	      4764	800026b8	41a35b93	srai	x23,x6,0x1a	  x6:0x00000001 x23=0x00000000
       47665000	      4765	800026bc	01f71913	slli	x18,x14,0x1f	 x14:0x6279c262 x18=0x00000000
       47675000	      4766	800026c0	e53a7e93	andi	x29,x20,-429	 x20:0x00000000 x29=0x00000000
       47685000	      4767	800026c4	41840233	sub	x4,x8,x24	  x8:0x00000000 x24:0x00080009  x4=0xfff7fff7
       47695000	      4768	800026c8	00325793	srli	x15,x4,0x3	  x4:0xfff7fff7 x15=0x1ffefffe
       47705000	      4769	800026cc	0032b833	sltu	x16,x5,x3	  x5:0xe2796210  x3:0x00000008 x16=0x00000000
       47715000	      4770	800026d0	040d4063	blt	x26,x0,80002710	 x26:0x00000000  x0:0x00000000
       47725000	      4771	800026d4	c47ebe17	auipc	x28,0xc47eb	 x28=0x447ed6d0
       47735000	      4772	800026d8	c59af793	andi	x15,x21,-935	 x21:0x00000001 x15=0x00000001
       47745000	      4773	800026dc	018f1793	slli	x15,x30,0x18	 x30:0xfffffb24 x15=0x24000000
       47755000	      4774	800026e0	290a3e17	auipc	x28,0x290a3	 x28=0xa90a56dc
       47765000	      4775	800026e4	0398c463	blt	x17,x25,8000270c	 x17:0x00020168 x25:0x00000001
       47775000	      4776	800026e8	052bf263	bgeu	x23,x18,8000272c	 x23:0x00000000 x18:0x00000000
       47785000	      4777	00000000	00000013	addi	x0,x0,0	  x0:0x00000000
       47795000	      4778	80002728	00000013	addi	x0,x0,0	  x0:0x00000000
       47805000	      4779	8000272c	8a924e93	xori	x29,x4,-1879	  x4:0xfff7fff7 x29=0x0008075e
       47815000	      4780	80002730	408c5eb3	sra	x29,x24,x8	 x24:0x00080009  x8:0x00000000 x29=0x00080009
       47825000	      4781	80002734	007c5413	srli	x8,x24,0x7	 x24:0x00080009  x8=0x00001000
       47835000	      4782	80002738	03e0d663	bge	x1,x30,80002764	  x1:0x00000620 x30:0xfffffb24
       47845000	      4783	00000000	00000013	addi	x0,x0,0	  x0:0x00000000
       47855000	      4784	80002760	00000013	addi	x0,x0,0	  x0:0x00000000
       47865000	      4785	80002764	034f1e63	bne	x30,x20,800027a0	 x30:0xfffffb24 x20:0x00000000
       47875000	      4786	00000000	00000013	addi	x0,x0,0	  x0:0x00000000
       47885000	      4787	8000279c	00000013	addi	x0,x0,0	  x0:0x00000000
       47895000	      4788	800027a0	037ee463	bltu	x29,x23,800027c8	 x29:0x00080009 x23:0x00000000
       47905000	      4789	800027a4	342c2893	slti	x17,x24,834	 x24:0x00080009 x17=0x00000000
       47915000	      4790	800027a8	0c62c093	xori	x1,x5,198	  x5:0xe2796210  x1=0xe27962d6
       47925000	      4791	800027ac	6f9da813	slti	x16,x27,1785	 x27:0xe279644a x16=0x00000001
       47935000	      4792	800027b0	0122b833	sltu	x16,x5,x18	  x5:0xe2796210 x18:0x00000000 x16=0x00000000
       47945000	      4793	800027b4	0339f463	bgeu	x19,x19,800027dc	 x19:0x00000000 x19:0x00000000
       47955000	      4794	00000000	00000013	addi	x0,x0,0	  x0:0x00000000
       47965000	      4795	800027d8	00000013	addi	x0,x0,0	  x0:0x00000000
       47975000	      4796	800027dc	0ebffe93	andi	x29,x31,235	 x31:0x80009f70 x29=0x00000060
       47985000	      4797	800027e0	00439c93	slli	x25,x7,0x4	  x7:0xffff0001 x25=0xfff00010
       47995000	      4798	800027e4	036be063	bltu	x23,x22,80002804	 x23:0x00000000 x22:0x00020002
       48005000	      4799	00000000	00000013	addi	x0,x0,0	  x0:0x00000000
       48015000	      4800	80002800	00000013	addi	x0,x0,0	  x0:0x00000000
       48025000	      4801	80002804	0edecb93	xori	x23,x29,237	 x29:0x00000060 x23=0x0000008d
       48035000	      4802	80002808	01932033	slt	x0,x6,x25	  x6:0x00000001 x25:0xfff00010
       48045000	      4803	8000280c	01481093	slli	x1,x16,0x14	 x16:0x00000000  x1=0x00000000
       48055000	      4804	80002810	b3bb3c13	sltiu	x24,x22,-1221	 x22:0x00020002 x24=0x00000001
       48065000	      4805	80002814	03dd8e63	beq	x27,x29,80002850	 x27:0xe279644a x29:0x00000060
       48075000	      4806	80002818	21912293	slti	x5,x2,537	  x2:0x00000000  x5=0x00000001
       48085000	      4807	8000281c	0432c063	blt	x5,x3,8000285c	  x5:0x00000001  x3:0x00000008
       48095000	      4808	00000000	00000013	addi	x0,x0,0	  x0:0x00000000
       48105000	      4809	80002858	00000013	addi	x0,x0,0	  x0:0x00000000
       48115000	      4810	8000285c	017c5993	srli	x19,x24,0x17	 x24:0x00000001 x19=0x00000000
       48125000	      4811	80002860	0289c863	blt	x19,x8,80002890	 x19:0x00000000  x8:0x00001000
       48135000	      4812	00000000	00000013	addi	x0,x0,0	  x0:0x00000000
       48145000	      4813	8000288c	00000013	addi	x0,x0,0	  x0:0x00000000
       48155000	      4814	80002890	405dd093	srai	x1,x27,0x5	 x27:0xe279644a  x1=0xff13cb22
       48165000	      4815	80002894	51753e13	sltiu	x28,x10,1303	 x10:0x3443a4f4 x28=0x00000000
       48175000	      4816	80002898	f0fdbcb7	lui	x25,0xf0fdb	 x25=0xf0fdb000
       48185000	      4817	8000289c	00000013	addi	x0,x0,0	  x0:0x00000000
       48195000	      4818	800028a0	f529f413	andi	x8,x19,-174	 x19:0x00000000  x8=0x00000000
       48205000	      4819	800028a4	00495413	srli	x8,x18,0x4	 x18:0x00000000  x8=0x00000000
       48215000	      4820	800028a8	01525e13	srli	x28,x4,0x15	  x4:0xfff7fff7 x28=0x000007ff
       48225000	      4821	800028ac	018592b3	sll	x5,x11,x24	 x11:0xffff0001 x24:0x00000001  x5=0xfffe0002
       48235000	      4822	800028b0	01745b93	srli	x23,x8,0x17	  x8:0x00000000 x23=0x00000000
       48245000	      4823	800028b4	012b9093	slli	x1,x23,0x12	 x23:0x00000000  x1=0x00000000
       48255000	      4824	800028b8	00756833	or	x16,x10,x7	 x10:0x3443a4f4  x7:0xffff0001 x16=0xffffa4f5
       48265000	      4825	800028bc	0280fe63	bgeu	x1,x8,800028f8	  x1:0x00000000  x8:0x00000000
       48275000	      4826	00000000	00000013	addi	x0,x0,0	  x0:0x00000000
       48285000	      4827	800028f4	00000013	addi	x0,x0,0	  x0:0x00000000
       48295000	      4828	800028f8	00f3b033	sltu	x0,x7,x15	  x7:0xffff0001 x15:0x24000000
       48305000	      4829	800028fc	00000013	addi	x0,x0,0	  x0:0x00000000
       48315000	      4830	80002900	d17ff213	andi	x4,x31,-745	 x31:0x80009f70  x4=0x80009d10
       48325000	      4831	80002904	00a22cb3	slt	x25,x4,x10	  x4:0x80009d10 x10:0x3443a4f4 x25=0x00000001
       48335000	      4832	80002908	1e0a6c93	ori	x25,x20,480	 x20:0x00000000 x25=0x000001e0
       48345000	      4833	8000290c	0b5af893	andi	x17,x21,181	 x21:0x00000001 x17=0x00000001
       48355000	      4834	80002910	00d29d93	slli	x27,x5,0xd	  x5:0xfffe0002 x27=0xc0004000
       48365000	      4835	80002914	1076f813	andi	x16,x13,263	 x13:0x80009fc4 x16=0x00000104
       48375000	      4836	80002918	006097b3	sll	x15,x1,x6	  x1:0x00000000  x6:0x00000001 x15=0x00000000
       48385000	      4837	8000291c	011dbf33	sltu	x30,x27,x17	 x27:0xc0004000 x17:0x00000001 x30=0x00000000
       48395000	      4838	80002920	7e5eac93	slti	x25,x29,2021	 x29:0x00000060 x25=0x00000001
       48405000	      4839	80002924	0003de33	srl	x28,x7,x0	  x7:0xffff0001  x0:0x00000000 x28=0xffff0001
       48415000	      4840	80002928	b272ad93	slti	x27,x5,-1241	  x5:0xfffe0002 x27=0x00000001
       48425000	      4841	8000292c	8e7acb13	xori	x22,x21,-1817	 x21:0x00000001 x22=0xfffff8e6
       48435000	      4842	80002930	81294313	xori	x6,x18,-2030	 x18:0x00000000  x6=0xfffff812
       48445000	      4843	80002934	01e70eb3	add	x29,x14,x30	 x14:0x6279c262 x30:0x00000000 x29=0x6279c262
       48455000	      4844	80002938	112fe593	ori	x11,x31,274	 x31:0x80009f70 x11=0x80009f72
       48465000	      4845	8000293c	00000013	addi	x0,x0,0	  x0:0x00000000
       48475000	      4846	80002940	02541e63	bne	x8,x5,8000297c	  x8:0x00000000  x5:0xfffe0002
       48485000	      4847	00000000	00000013	addi	x0,x0,0	  x0:0x00000000
       48495000	      4848	80002978	00000013	addi	x0,x0,0	  x0:0x00000000
       48505000	      4849	8000297c	00000013	addi	x0,x0,0	  x0:0x00000000
       48515000	      4850	80002980	9457b313	sltiu	x6,x15,-1723	 x15:0x00000000  x6=0x00000001
       48525000	      4851	80002984	0165c863	blt	x11,x22,80002994	 x11:0x80009f72 x22:0xfffff8e6
       48535000	      4852	00000000	00000013	addi	x0,x0,0	  x0:0x00000000
       48545000	      4853	80002990	00000013	addi	x0,x0,0	  x0:0x00000000
       48555000	      4854	80002994	005e9b33	sll	x22,x29,x5	 x29:0x6279c262  x5:0xfffe0002 x22=0x89e70988
       48565000	      4855	80002998	007b9713	slli	x14,x23,0x7	 x23:0x00000000 x14=0x00000000
       48575000	      4856	8000299c	00000013	addi	x0,x0,0	  x0:0x00000000
       48585000	      4857	800029a0	01004033	xor	x0,x0,x16	  x0:0x00000000 x16:0x00000104
       48595000	      4858	800029a4	04eb5463	bge	x22,x14,800029ec	 x22:0x89e70988 x14:0x00000000
       48605000	      4859	800029a8	6c4f8337	lui	x6,0x6c4f8	  x6=0x6c4f8000
       48615000	      4860	800029ac	00e3dc63	bge	x7,x14,800029c4	  x7:0xffff0001 x14:0x00000000
       48625000	      4861	800029b0	41090cb3	sub	x25,x18,x16	 x18:0x00000000 x16:0x00000104 x25=0xfffffefc
       48635000	      4862	800029b4	03309063	bne	x1,x19,800029d4	  x1:0x00000000 x19:0x00000000
       48645000	      4863	800029b8	029de463	bltu	x27,x9,800029e0	 x27:0x00000001  x9:0xe2792210
       48655000	      4864	00000000	00000013	addi	x0,x0,0	  x0:0x00000000
       48665000	      4865	800029dc	00000013	addi	x0,x0,0	  x0:0x00000000
       48675000	      4866	800029e0	40720d33	sub	x26,x4,x7	  x4:0x80009d10  x7:0xffff0001 x26=0x80019d0f
       48685000	      4867	800029e4	00d38133	add	x2,x7,x13	  x7:0xffff0001 x13:0x80009fc4  x2=0x7fff9fc5
       48695000	      4868	800029e8	82590517	auipc	x10,0x82590	 x10=0x025929e4
       48705000	      4869	800029ec	05ac5063	bge	x24,x26,80002a2c	 x24:0x00000001 x26:0x80019d0f
       48715000	      4870	00000000	00000013	addi	x0,x0,0	  x0:0x00000000
       48725000	      4871	80002a28	00000013	addi	x0,x0,0	  x0:0x00000000
       48735000	      4872	80002a2c	00000013	addi	x0,x0,0	  x0:0x00000000
       48745000	      4873	80002a30	00699893	slli	x17,x19,0x6	 x19:0x00000000 x17=0x00000000
       48755000	      4874	80002a34	03358c63	beq	x11,x19,80002a6c	 x11:0x80009f72 x19:0x00000000
       48765000	      4875	80002a38	99ce2713	slti	x14,x28,-1636	 x28:0xffff0001 x14=0x00000001
       48775000	      4876	80002a3c	056ec663	blt	x29,x22,80002a88	 x29:0x6279c262 x22:0x89e70988
       48785000	      4877	80002a40	001d5c93	srli	x25,x26,0x1	 x26:0x80019d0f x25=0x4000ce87
       48795000	      4878	80002a44	056c8263	beq	x25,x22,80002a88	 x25:0x4000ce87 x22:0x89e70988
       48805000	      4879	80002a48	41cf8c33	sub	x24,x31,x28	 x31:0x80009f70 x28:0xffff0001 x24=0x80019f6f
       48815000	      4880	80002a4c	61c32013	slti	x0,x6,1564	  x6:0x6c4f8000
       48825000	      4881	80002a50	01827333	and	x6,x4,x24	  x4:0x80009d10 x24:0x80019f6f  x6=0x80009d00
       48835000	      4882	80002a54	03e60663	beq	x12,x30,80002a80	 x12:0x00000400 x30:0x00000000
       48845000	      4883	80002a58	01531933	sll	x18,x6,x21	  x6:0x80009d00 x21:0x00000001 x18=0x00013a00
       48855000	      4884	80002a5c	004a4db3	xor	x27,x20,x4	 x20:0x00000000  x4:0x80009d10 x27=0x80009d10
       48865000	      4885	80002a60	01c60033	add	x0,x12,x28	 x12:0x00000400 x28:0xffff0001
       48875000	      4886	80002a64	404ed5b3	sra	x11,x29,x4	 x29:0x6279c262  x4:0x80009d10 x11=0x00006279
       48885000	      4887	80002a68	41d652b3	sra	x5,x12,x29	 x12:0x00000400 x29:0x6279c262  x5=0x00000100
       48895000	      4888	80002a6c	01f88663	beq	x17,x31,80002a78	 x17:0x00000000 x31:0x80009f70
       48905000	      4889	80002a70	00325633	srl	x12,x4,x3	  x4:0x80009d10  x3:0x00000008 x12=0x0080009d
       48915000	      4890	80002a74	014a7863	bgeu	x20,x20,80002a84	 x20:0x00000000 x20:0x00000000
       48925000	      4891	00000000	00000013	addi	x0,x0,0	  x0:0x00000000
       48935000	      4892	80002a80	00000013	addi	x0,x0,0	  x0:0x00000000
       48945000	      4893	80002a84	00009a33	sll	x20,x1,x0	  x1:0x00000000  x0:0x00000000 x20=0x00000000
       48955000	      4894	80002a88	948e8337	lui	x6,0x948e8	  x6=0x948e8000
       48965000	      4895	80002a8c	402ddb33	sra	x22,x27,x2	 x27:0x80009d10  x2:0x7fff9fc5 x22=0xfc0004e8
       48975000	      4896	80002a90	0100ca33	xor	x20,x1,x16	  x1:0x00000000 x16:0x00000104 x20=0x00000104
       48985000	      4897	80002a94	1d526193	ori	x3,x4,469	  x4:0x80009d10  x3=0x80009dd5
       48995000	      4898	80002a98	01055c13	srli	x24,x10,0x10	 x10:0x025929e4 x24=0x00000259
       49005000	      4899	80002a9c	40238933	sub	x18,x7,x2	  x7:0xffff0001  x2:0x7fff9fc5 x18=0x7fff603c
       49015000	      4900	80002aa0	a9622117	auipc	x2,0xa9622	  x2=0x29624a9c
       49025000	      4901	80002aa4	96060313	addi	x6,x12,-1696	 x12:0x0080009d  x6=0x007ff9fd
       49035000	      4902	80002aa8	01169293	slli	x5,x13,0x11	 x13:0x80009fc4  x5=0x3f880000
       49045000	      4903	80002aac	01ebf433	and	x8,x23,x30	 x23:0x00000000 x30:0x00000000  x8=0x00000000
       49055000	      4904	80002ab0	405b8733	sub	x14,x23,x5	 x23:0x00000000  x5:0x3f880000 x14=0xc0780000
       49065000	      4905	80002ab4	9d4c8113	addi	x2,x25,-1580	 x25:0x4000ce87  x2=0x4000c85b
       49075000	      4906	80002ab8	01c81c33	sll	x24,x16,x28	 x16:0x00000104 x28:0xffff0001 x24=0x00000208
       49085000	      4907	80002abc	0327de63	bge	x15,x18,80002af8	 x15:0x00000000 x18:0x7fff603c
       49095000	      4908	80002ac0	01351463	bne	x10,x19,80002ac8	 x10:0x025929e4 x19:0x00000000
       49105000	      4909	00000000	00000013	addi	x0,x0,0	  x0:0x00000000
       49115000	      4910	80002ac4	00000013	addi	x0,x0,0	  x0:0x00000000
       49125000	      4911	80002ac8	00dcd793	srli	x15,x25,0xd	 x25:0x4000ce87 x15=0x00020006
       49135000	      4912	80002acc	049c0263	beq	x24,x9,80002b10	 x24:0x00000208  x9:0xe2792210
       49145000	      4913	80002ad0	54cec893	xori	x17,x29,1356	 x29:0x6279c262 x17=0x6279c72e
       49155000	      4914	80002ad4	02fa5263	bge	x20,x15,80002af8	 x20:0x00000104 x15:0x00020006
       49165000	      4915	80002ad8	8a983813	sltiu	x16,x16,-1879	 x16:0x00000104 x16=0x00000001
       49175000	      4916	80002adc	010c8333	add	x6,x25,x16	 x25:0x4000ce87 x16:0x00000001  x6=0x4000ce88
       49185000	      4917	80002ae0	00b02833	slt	x16,x0,x11	  x0:0x00000000 x11:0x00006279 x16=0x00000001
       49195000	      4918	80002ae4	0015dc63	bge	x11,x1,80002afc	 x11:0x00006279  x1:0x00000000
       49205000	      4919	00000000	00000013	addi	x0,x0,0	  x0:0x00000000
       49215000	      4920	80002af8	00000013	addi	x0,x0,0	  x0:0x00000000
       49225000	      4921	80002afc	40465993	srai	x19,x12,0x4	 x12:0x0080009d x19=0x00080009
       49235000	      4922	80002b00	82351d17	auipc	x26,0x82351	 x26=0x02353afc
       49245000	      4923	80002b04	03208263	beq	x1,x18,80002b28	  x1:0x00000000 x18:0x7fff603c
       49255000	      4924	80002b08	d2e40413	addi	x8,x8,-722	  x8:0x00000000  x8=0xfffffd2e
       49265000	      4925	80002b0c	00000013	addi	x0,x0,0	  x0:0x00000000
       49275000	      4926	80002b10	943e4293	xori	x5,x28,-1725	 x28:0xffff0001  x5=0x0000f942
       49285000	      4927	80002b14	0118ae33	slt	x28,x17,x17	 x17:0x6279c72e x17:0x6279c72e x28=0x00000000
       49295000	      4928	80002b18	2017ac13	slti	x24,x15,513	 x15:0x00020006 x24=0x00000000
       49305000	      4929	80002b1c	009765b3	or	x11,x14,x9	 x14:0xc0780000  x9:0xe2792210 x11=0xe2792210
       49315000	      4930	80002b20	86cdcd93	xori	x27,x27,-1940	 x27:0x80009d10 x27=0x7fff657c
       49325000	      4931	80002b24	00c39613	slli	x12,x7,0xc	  x7:0xffff0001 x12=0xf0001000
       49335000	      4932	80002b28	407e8c33	sub	x24,x29,x7	 x29:0x6279c262  x7:0xffff0001 x24=0x627ac261
       49345000	      4933	80002b2c	011a8e33	add	x28,x21,x17	 x21:0x00000001 x17:0x6279c72e x28=0x6279c72f
       49355000	      4934	80002b30	01ca5813	srli	x16,x20,0x1c	 x20:0x00000104 x16=0x00000000
       49365000	      4935	80002b34	41d00db3	sub	x27,x0,x29	  x0:0x00000000 x29:0x6279c262 x27=0x9d863d9e
       49375000	      4936	80002b38	5bdf6193	ori	x3,x30,1469	 x30:0x00000000  x3=0x000005bd
       49385000	      4937	80002b3c	004faa03	lw	x20,4(x31)	 x31:0x80009f70 x20=0x80000288 PA:0x80009f74
       49395000	      4938	80002b40	2138d217	auipc	x4,0x2138d	  x4=0xa138fb3c
       49405000	      4939	80002b44	41cadb33	sra	x22,x21,x28	 x21:0x00000001 x28:0x6279c72f x22=0x00000000
       49415000	      4940	80002b48	014f8f93	addi	x31,x31,20	 x31:0x80009f70 x31=0x80009f84
       49425000	      4941	80002b4c	f9c97993	andi	x19,x18,-100	 x18:0x7fff603c x19=0x7fff601c
       49435000	      4942	80002b50	01b59413	slli	x8,x11,0x1b	 x11:0xe2792210  x8=0x80000000
       49445000	      4943	80002b54	000a0713	addi	x14,x20,0	 x20:0x80000288 x14=0x80000288
       49455000	      4944	80002b58	00070767	jalr	x14,x14,0	 x14:0x80000288 x14=0x80002b58
       49465000	      4945	00000000	00000013	addi	x0,x0,0	  x0:0x00000000
       49475000	      4946	80000288	00000013	addi	x0,x0,0	  x0:0x00000000
       49485000	      4947	8000028c	012beeb3	or	x29,x23,x18	 x23:0x00000000 x18:0x7fff603c x29=0x7fff603c
       49495000	      4948	80000290	fd716397	auipc	x7,0xfd716	  x7=0x7d71628c
       49505000	      4949	80000294	3c3a2913	slti	x18,x20,963	 x20:0x80000288 x18=0x00000001
       49515000	      4950	80000298	411958b3	sra	x17,x18,x17	 x18:0x00000001 x17:0x6279c72e x17=0x00000000
       49525000	      4951	8000029c	00b38c63	beq	x7,x11,800002b4	  x7:0x7d71628c x11:0xe2792210
       49535000	      4952	800002a0	0105ec63	bltu	x11,x16,800002b8	 x11:0xe2792210 x16:0x00000000
       49545000	      4953	800002a4	695a7b93	andi	x23,x20,1685	 x20:0x80000288 x23=0x00000280
       49555000	      4954	800002a8	05cb1663	bne	x22,x28,800002f4	 x22:0x00000000 x28:0x6279c72f
       49565000	      4955	00000000	00000013	addi	x0,x0,0	  x0:0x00000000
       49575000	      4956	800002f0	00000013	addi	x0,x0,0	  x0:0x00000000
       49585000	      4957	800002f4	014dc533	xor	x10,x27,x20	 x27:0x9d863d9e x20:0x80000288 x10=0x1d863f16
       49595000	      4958	800002f8	05d9d063	bge	x19,x29,80000338	 x19:0x7fff601c x29:0x7fff603c
       49605000	      4959	800002fc	08c3d217	auipc	x4,0x8c3d	  x4=0x88c3d2f8
       49615000	      4960	80000300	93276313	ori	x6,x14,-1742	 x14:0x80002b58  x6=0xfffffb7a
       49625000	      4961	80000304	41130cb3	sub	x25,x6,x17	  x6:0xfffffb7a x17:0x00000000 x25=0xfffffb7a
       49635000	      4962	80000308	0355cc63	blt	x11,x21,80000340	 x11:0xe2792210 x21:0x00000001
       49645000	      4963	00000000	00000013	addi	x0,x0,0	  x0:0x00000000
       49655000	      4964	8000033c	00000013	addi	x0,x0,0	  x0:0x00000000
       49665000	      4965	80000340	de4b5317	auipc	x6,0xde4b5	  x6=0x5e4b533c
       49675000	      4966	80000344	00000497	auipc	x9,0x0	  x9=0x80000340
       49685000	      4967	80000348	00c48493	addi	x9,x9,12	  x9:0x80000340  x9=0x8000034c
       49695000	      4968	8000034c	00048067	jalr	x0,x9,0	  x9:0x8000034c
       49705000	      4969	00000000	00000013	addi	x0,x0,0	  x0:0x00000000
       49715000	      4970	8000034c	00000013	addi	x0,x0,0	  x0:0x00000000
       49725000	      4971	80000350	00100193	addi	x3,x0,1	  x0:0x00000000  x3=0x00000001
       49735000	      4972	80000354	00000073	ecall	
       49745000	      4973	80000358	01489193	slli	x3,x17,0x14	 x17:0x00000000  x3=0x00000000
