		Time			Cycle	PC		Insn	Decoded instruction	Register and memory contents
          65000	         5	80000004	00000293	addi	x5,x0,0	  x0:0x00000000  x5=0x00000000
          75000	         6	80000008	00000313	addi	x6,x0,0	  x0:0x00000000  x6=0x00000000
          85000	         7	8000000c	00628263	beq	x5,x6,80000010	  x5:0x00000000  x6:0x00000000
          95000	         8	00000000	00000013	addi	x0,x0,0	  x0:0x00000000
         105000	         9	8000000c	00000013	addi	x0,x0,0	  x0:0x00000000
         115000	        10	80000010	00000297	auipc	x5,0x0	  x5=0x8000000c
         125000	        11	80000014	00c28293	addi	x5,x5,12	  x5:0x8000000c  x5=0x80000018
         135000	        12	80000018	00028067	jalr	x0,x5,0	  x5:0x80000018
         145000	        13	00000000	00000013	addi	x0,x0,0	  x0:0x00000000
         155000	        14	80000018	00000013	addi	x0,x0,0	  x0:0x00000000
         165000	        15	8000001c	40000737	lui	x14,0x40000	 x14=0x40000000
         175000	        16	80000020	10070713	addi	x14,x14,256	 x14:0x40000000 x14=0x40000100
         185000	        17	80000024	00000013	addi	x0,x0,0	  x0:0x00000000
         195000	        18	80000028	0000a817	auipc	x16,0xa	 x16=0x8000a024
         205000	        19	8000002c	fa080813	addi	x16,x16,-96	 x16:0x8000a024 x16=0x80009fc4
         215000	        20	80000030	00004717	auipc	x14,0x4	 x14=0x8000402c
         225000	        21	80000034	97470713	addi	x14,x14,-1676	 x14:0x8000402c x14=0x800039a0
         235000	        22	80000038	00176713	ori	x14,x14,1	 x14:0x800039a0 x14=0x800039a1
         245000	        23	8000003c	00000013	addi	x0,x0,0	  x0:0x00000000
         255000	        24	80000040	00000717	auipc	x14,0x0	 x14=0x8000003c
         265000	        25	80000044	02070713	addi	x14,x14,32	 x14:0x8000003c x14=0x8000005c
         275000	        26	80000048	00000013	addi	x0,x0,0	  x0:0x00000000
         285000	        27	8000004c	00000013	addi	x0,x0,0	  x0:0x00000000
         295000	        28	80000050	00002737	lui	x14,0x2	 x14=0x00002000
         305000	        29	80000054	80070713	addi	x14,x14,-2048	 x14:0x00002000 x14=0x00001800
         315000	        30	80000058	00000013	addi	x0,x0,0	  x0:0x00000000
         325000	        31	8000005c	00000013	addi	x0,x0,0	  x0:0x00000000
         335000	        32	80000060	fd261037	lui	x0,0xfd261	
         345000	        33	80000064	20500013	addi	x0,x0,517	  x0:0x00000000
         355000	        34	80000068	fa6f60b7	lui	x1,0xfa6f6	  x1=0xfa6f6000
         365000	        35	8000006c	ae108093	addi	x1,x1,-1311	  x1:0xfa6f6000  x1=0xfa6f5ae1
         375000	        36	80000070	00000193	addi	x3,x0,0	  x0:0x00000000  x3=0x00000000
         385000	        37	80000074	80000237	lui	x4,0x80000	  x4=0x80000000
         395000	        38	80000078	00d00293	addi	x5,x0,13	  x0:0x00000000  x5=0x0000000d
         405000	        39	8000007c	51de5337	lui	x6,0x51de5	  x6=0x51de5000
         415000	        40	80000080	6dd30313	addi	x6,x6,1757	  x6:0x51de5000  x6=0x51de56dd
         425000	        41	80000084	00400393	addi	x7,x0,4	  x0:0x00000000  x7=0x00000004
         435000	        42	80000088	80000437	lui	x8,0x80000	  x8=0x80000000
         445000	        43	8000008c	800004b7	lui	x9,0x80000	  x9=0x80000000
         455000	        44	80000090	00c00513	addi	x10,x0,12	  x0:0x00000000 x10=0x0000000c
         465000	        45	80000094	00000593	addi	x11,x0,0	  x0:0x00000000 x11=0x00000000
         475000	        46	80000098	f24e4637	lui	x12,0xf24e4	 x12=0xf24e4000
         485000	        47	8000009c	d6860613	addi	x12,x12,-664	 x12:0xf24e4000 x12=0xf24e3d68
         495000	        48	800000a0	22e736b7	lui	x13,0x22e73	 x13=0x22e73000
         505000	        49	800000a4	80b68693	addi	x13,x13,-2037	 x13:0x22e73000 x13=0x22e7280b
         515000	        50	800000a8	80000737	lui	x14,0x80000	 x14=0x80000000
         525000	        51	800000ac	00d00793	addi	x15,x0,13	  x0:0x00000000 x15=0x0000000d
         535000	        52	800000b0	800008b7	lui	x17,0x80000	 x17=0x80000000
         545000	        53	800000b4	5ffc0937	lui	x18,0x5ffc0	 x18=0x5ffc0000
         555000	        54	800000b8	f9e90913	addi	x18,x18,-98	 x18:0x5ffc0000 x18=0x5ffbff9e
         565000	        55	800000bc	38a1d9b7	lui	x19,0x38a1d	 x19=0x38a1d000
         575000	        56	800000c0	cd498993	addi	x19,x19,-812	 x19:0x38a1d000 x19=0x38a1ccd4
         585000	        57	800000c4	00a00a13	addi	x20,x0,10	  x0:0x00000000 x20=0x0000000a
         595000	        58	800000c8	00a00a93	addi	x21,x0,10	  x0:0x00000000 x21=0x0000000a
         605000	        59	800000cc	9e218b37	lui	x22,0x9e218	 x22=0x9e218000
         615000	        60	800000d0	66fb0b13	addi	x22,x22,1647	 x22:0x9e218000 x22=0x9e21866f
         625000	        61	800000d4	1a817bb7	lui	x23,0x1a817	 x23=0x1a817000
         635000	        62	800000d8	07ab8b93	addi	x23,x23,122	 x23:0x1a817000 x23=0x1a81707a
         645000	        63	800000dc	00600c13	addi	x24,x0,6	  x0:0x00000000 x24=0x00000006
         655000	        64	800000e0	d2181cb7	lui	x25,0xd2181	 x25=0xd2181000
         665000	        65	800000e4	672c8c93	addi	x25,x25,1650	 x25:0xd2181000 x25=0xd2181672
         675000	        66	800000e8	8ff4fd37	lui	x26,0x8ff4f	 x26=0x8ff4f000
         685000	        67	800000ec	b68d0d13	addi	x26,x26,-1176	 x26:0x8ff4f000 x26=0x8ff4eb68
         695000	        68	800000f0	f368bdb7	lui	x27,0xf368b	 x27=0xf368b000
         705000	        69	800000f4	391d8d93	addi	x27,x27,913	 x27:0xf368b000 x27=0xf368b391
         715000	        70	800000f8	00000e13	addi	x28,x0,0	  x0:0x00000000 x28=0x00000000
         725000	        71	800000fc	00000e93	addi	x29,x0,0	  x0:0x00000000 x29=0x00000000
         735000	        72	80000100	00000f13	addi	x30,x0,0	  x0:0x00000000 x30=0x00000000
         745000	        73	80000104	00300f93	addi	x31,x0,3	  x0:0x00000000 x31=0x00000003
         755000	        74	80000108	0000a117	auipc	x2,0xa	  x2=0x8000a104
         765000	        75	8000010c	e8010113	addi	x2,x2,-384	  x2:0x8000a104  x2=0x80009f84
         775000	        76	80000110	00003e97	auipc	x29,0x3	 x29=0x8000310c
         785000	        77	80000114	e18e8e93	addi	x29,x29,-488	 x29:0x8000310c x29=0x80002f24
         795000	        78	80000118	00355193	srli	x3,x10,0x3	 x10:0x0000000c  x3=0x00000001
         805000	        79	8000011c	916ff993	andi	x19,x31,-1770	 x31:0x00000003 x19=0x00000002
         815000	        80	80000120	55ecf013	andi	x0,x25,1374	 x25:0xd2181672
         825000	        81	80000124	00db68b3	or	x17,x22,x13	 x22:0x9e21866f x13:0x22e7280b x17=0xbee7ae6f
         835000	        82	80000128	002c1413	slli	x8,x24,0x2	 x24:0x00000006  x8=0x00000018
         845000	        83	8000012c	039e8e93	addi	x29,x29,57	 x29:0x80002f24 x29=0x80002f5d
         855000	        84	80000130	00a75463	bge	x14,x10,80000138	 x14:0x80000000 x10:0x0000000c
         865000	        85	80000134	00000013	addi	x0,x0,0	  x0:0x00000000
         875000	        86	80000138	fc7e8c67	jalr	x24,x29,-57	 x29:0x80002f5d x24=0x80000138
         885000	        87	00000000	00000013	addi	x0,x0,0	  x0:0x00000000
         895000	        88	80002f24	00000013	addi	x0,x0,0	  x0:0x00000000
         905000	        89	80002f28	b50db417	auipc	x8,0xb50db	  x8=0x350ddf24
         915000	        90	80002f2c	0182e3b3	or	x7,x5,x24	  x5:0x0000000d x24:0x80000138  x7=0x8000013d
         925000	        91	80002f30	fc410113	addi	x2,x2,-60	  x2:0x80009f84  x2=0x80009f48
         935000	        92	80002f34	01812223	sw	x24,4(x2)	  x2:0x80009f48 x24:0x80000138 PA:0x80009f4c
         945000	        93	80002f38	00000013	addi	x0,x0,0	  x0:0x00000000
         955000	        94	80002f3c	00533d33	sltu	x26,x6,x5	  x6:0x51de56dd  x5:0x0000000d x26=0x00000000
         965000	        95	80002f40	faf42797	auipc	x15,0xfaf42	 x15=0x7af44f3c
         975000	        96	80002f44	37e46e93	ori	x29,x8,894	  x8:0x350ddf24 x29=0x350ddf7e
         985000	        97	80002f48	6434eb37	lui	x22,0x6434e	 x22=0x6434e000
         995000	        98	80002f4c	00e5c033	xor	x0,x11,x14	 x11:0x00000000 x14:0x80000000
        1005000	        99	80002f50	40af5913	srai	x18,x30,0xa	 x30:0x00000000 x18=0x00000000
        1015000	       100	80002f54	00521c13	slli	x24,x4,0x5	  x4:0x80000000 x24=0x00000000
        1025000	       101	80002f58	ee78ea97	auipc	x21,0xee78e	 x21=0x6e790f54
        1035000	       102	80002f5c	ab944b93	xori	x23,x8,-1351	  x8:0x350ddf24 x23=0xcaf2259d
        1045000	       103	80002f60	40c4d5b3	sra	x11,x9,x12	  x9:0x80000000 x12:0xf24e3d68 x11=0xff800000
        1055000	       104	80002f64	01548d93	addi	x27,x9,21	  x9:0x80000000 x27=0x80000015
        1065000	       105	80002f68	016e4eb3	xor	x29,x28,x22	 x28:0x00000000 x22:0x6434e000 x29=0x6434e000
        1075000	       106	80002f6c	403481b3	sub	x3,x9,x3	  x9:0x80000000  x3:0x00000001  x3=0x7fffffff
        1085000	       107	80002f70	016c3733	sltu	x14,x24,x22	 x24:0x00000000 x22:0x6434e000 x14=0x00000001
        1095000	       108	80002f74	01d451b3	srl	x3,x8,x29	  x8:0x350ddf24 x29:0x6434e000  x3=0x350ddf24
        1105000	       109	80002f78	01999263	bne	x19,x25,80002f7c	 x19:0x00000002 x25:0xd2181672
        1115000	       110	00000000	00000013	addi	x0,x0,0	  x0:0x00000000
        1125000	       111	80002f78	00000013	addi	x0,x0,0	  x0:0x00000000
        1135000	       112	80002f7c	01f364b3	or	x9,x6,x31	  x6:0x51de56dd x31:0x00000003  x9=0x51de56df
        1145000	       113	80002f80	c07e0b13	addi	x22,x28,-1017	 x28:0x00000000 x22=0xfffffc07
        1155000	       114	80002f84	01741533	sll	x10,x8,x23	  x8:0x350ddf24 x23:0xcaf2259d x10=0x80000000
        1165000	       115	80002f88	00412c03	lw	x24,4(x2)	  x2:0x80009f48 x24=0x80000138 PA:0x80009f4c
        1175000	       116	80002f8c	007368b3	or	x17,x6,x7	  x6:0x51de56dd  x7:0x8000013d x17=0xd1de57fd
        1185000	       117	80002f90	010b0d33	add	x26,x22,x16	 x22:0xfffffc07 x16:0x80009fc4 x26=0x80009bcb
        1195000	       118	80002f94	40ebdb93	srai	x23,x23,0xe	 x23:0xcaf2259d x23=0xffff2bc8
        1205000	       119	80002f98	03c10113	addi	x2,x2,60	  x2:0x80009f48  x2=0x80009f84
        1215000	       120	80002f9c	30285d97	auipc	x27,0x30285	 x27=0xb0287f98
        1225000	       121	80002fa0	000c0093	addi	x1,x24,0	 x24:0x80000138  x1=0x80000138
        1235000	       122	80002fa4	000080e7	jalr	x1,x1,0	  x1:0x80000138  x1=0x80002fa4
        1245000	       123	00000000	00000013	addi	x0,x0,0	  x0:0x00000000
        1255000	       124	80000138	00000013	addi	x0,x0,0	  x0:0x00000000
        1265000	       125	8000013c	00600393	addi	x7,x0,6	  x0:0x00000000  x7=0x00000006
        1275000	       126	80000140	00000013	addi	x0,x0,0	  x0:0x00000000
        1285000	       127	80000144	002df533	and	x10,x27,x2	 x27:0xb0287f98  x2:0x80009f84 x10=0x80001f80
        1295000	       128	80000148	00500a13	addi	x20,x0,5	  x0:0x00000000 x20=0x00000005
        1305000	       129	8000014c	006d64b3	or	x9,x26,x6	 x26:0x80009bcb  x6:0x51de56dd  x9=0xd1dedfdf
        1315000	       130	80000150	0123beb3	sltu	x29,x7,x18	  x7:0x00000006 x18:0x00000000 x29=0x00000000
        1325000	       131	80000154	ffc38393	addi	x7,x7,-4	  x7:0x00000006  x7=0x00000002
        1335000	       132	80000158	25a8f993	andi	x19,x17,602	 x17:0xd1de57fd x19=0x00000258
        1345000	       133	8000015c	00000793	addi	x15,x0,0	  x0:0x00000000 x15=0x00000000
        1355000	       134	80000160	00800413	addi	x8,x0,8	  x0:0x00000000  x8=0x00000008
        1365000	       135	80000164	0056c1b3	xor	x3,x13,x5	 x13:0x22e7280b  x5:0x0000000d  x3=0x22e72806
        1375000	       136	80000168	00345613	srli	x12,x8,0x3	  x8:0x00000008 x12=0x00000001
        1385000	       137	8000016c	8ceb8e93	addi	x29,x23,-1842	 x23:0xffff2bc8 x29=0xffff2496
        1395000	       138	80000170	f8a10013	addi	x0,x2,-118	  x2:0x80009f84
        1405000	       139	80000174	8f3fc893	xori	x17,x31,-1805	 x31:0x00000003 x17=0xfffff8f0
        1415000	       140	80000178	01940eb3	add	x29,x8,x25	  x8:0x00000008 x25:0xd2181672 x29=0xd218167a
        1425000	       141	8000017c	00478793	addi	x15,x15,4	 x15:0x00000000 x15=0x00000004
        1435000	       142	80000180	fe87cce3	blt	x15,x8,80000178	 x15:0x00000004  x8:0x00000008
        1445000	       143	00000000	00000013	addi	x0,x0,0	  x0:0x00000000
        1455000	       144	80000174	00000013	addi	x0,x0,0	  x0:0x00000000
        1465000	       145	80000178	01940eb3	add	x29,x8,x25	  x8:0x00000008 x25:0xd2181672 x29=0xd218167a
        1475000	       146	8000017c	00478793	addi	x15,x15,4	 x15:0x00000004 x15=0x00000008
        1485000	       147	80000180	fe87cce3	blt	x15,x8,80000178	 x15:0x00000008  x8:0x00000008
        1495000	       148	80000184	40f284b3	sub	x9,x5,x15	  x5:0x0000000d x15:0x00000008  x9=0x00000005
        1505000	       149	80000188	0f8c3613	sltiu	x12,x24,248	 x24:0x80000138 x12=0x00000000
        1515000	       150	8000018c	4ef18cb7	lui	x25,0x4ef18	 x25=0x4ef18000
        1525000	       151	80000190	018b28b3	slt	x17,x22,x24	 x22:0xfffffc07 x24:0x80000138 x17=0x00000000
        1535000	       152	80000194	fb43fee3	bgeu	x7,x20,80000150	  x7:0x00000002 x20:0x00000005
        1545000	       153	80000198	40985093	srai	x1,x16,0x9	 x16:0x80009fc4  x1=0xffc0004f
        1555000	       154	8000019c	00000593	addi	x11,x0,0	  x0:0x00000000 x11=0x00000000
        1565000	       155	800001a0	009384b3	add	x9,x7,x9	  x7:0x00000002  x9:0x00000005  x9=0x00000007
        1575000	       156	800001a4	012f9d13	slli	x26,x31,0x12	 x31:0x00000003 x26=0x000c0000
        1585000	       157	800001a8	412e5b93	srai	x23,x28,0x12	 x28:0x00000000 x23=0x00000000
        1595000	       158	800001ac	fb16aa93	slti	x21,x13,-79	 x13:0x22e7280b x21=0x00000000
        1605000	       159	800001b0	01e75f93	srli	x31,x14,0x1e	 x14:0x00000001 x31=0x00000000
        1615000	       160	800001b4	01053fb3	sltu	x31,x10,x16	 x10:0x80001f80 x16:0x80009fc4 x31=0x00000001
        1625000	       161	800001b8	31e23b13	sltiu	x22,x4,798	  x4:0x80000000 x22=0x00000000
        1635000	       162	800001bc	00000013	addi	x0,x0,0	  x0:0x00000000
        1645000	       163	800001c0	0155a3b3	slt	x7,x11,x21	 x11:0x00000000 x21:0x00000000  x7=0x00000000
        1655000	       164	800001c4	41d35c33	sra	x24,x6,x29	  x6:0x51de56dd x29:0xd218167a x24=0x00000014
        1665000	       165	800001c8	ec9c2617	auipc	x12,0xec9c2	 x12=0x6c9c21c4
        1675000	       166	800001cc	00f4f333	and	x6,x9,x15	  x9:0x00000007 x15:0x00000008  x6=0x00000000
        1685000	       167	800001d0	c61e8b93	addi	x23,x29,-927	 x29:0xd218167a x23=0xd21812db
        1695000	       168	800001d4	01eeb333	sltu	x6,x29,x30	 x29:0xd218167a x30:0x00000000  x6=0x00000000
        1705000	       169	800001d8	01400913	addi	x18,x0,20	  x0:0x00000000 x18=0x00000014
        1715000	       170	800001dc	01b61533	sll	x10,x12,x27	 x12:0x6c9c21c4 x27:0xb0287f98 x10=0xc4000000
        1725000	       171	800001e0	010386b3	add	x13,x7,x16	  x7:0x00000000 x16:0x80009fc4 x13=0x80009fc4
        1735000	       172	800001e4	41915193	srai	x3,x2,0x19	  x2:0x80009f84  x3=0xffffffc0
        1745000	       173	800001e8	00015233	srl	x4,x2,x0	  x2:0x80009f84  x0:0x00000000  x4=0x80009f84
        1755000	       174	800001ec	00558593	addi	x11,x11,5	 x11:0x00000000 x11=0x00000005
        1765000	       175	800001f0	01719b13	slli	x22,x3,0x17	  x3:0xffffffc0 x22=0xe0000000
        1775000	       176	800001f4	0028d433	srl	x8,x17,x2	 x17:0x00000000  x2:0x80009f84  x8=0x00000000
        1785000	       177	800001f8	b00a2613	slti	x12,x20,-1280	 x20:0x00000005 x12=0x00000000
        1795000	       178	800001fc	002121b3	slt	x3,x2,x2	  x2:0x80009f84  x2:0x80009f84  x3=0x00000000
        1805000	       179	80000200	ff2580e3	beq	x11,x18,800001e0	 x11:0x00000005 x18:0x00000014
        1815000	       180	80000204	000f9e93	slli	x29,x31,0x0	 x31:0x00000001 x29=0x00000001
        1825000	       181	80000208	ffc00593	addi	x11,x0,-4	  x0:0x00000000 x11=0xfffffffc
        1835000	       182	8000020c	41e984b3	sub	x9,x19,x30	 x19:0x00000258 x30:0x00000000  x9=0x00000258
        1845000	       183	80000210	4196da93	srai	x21,x13,0x19	 x13:0x80009fc4 x21=0xffffffc0
        1855000	       184	80000214	28d40613	addi	x12,x8,653	  x8:0x00000000 x12=0x0000028d
        1865000	       185	80000218	014d2433	slt	x8,x26,x20	 x26:0x000c0000 x20:0x00000005  x8=0x00000000
        1875000	       186	8000021c	01ccbab3	sltu	x21,x25,x28	 x25:0x4ef18000 x28:0x00000000 x21=0x00000000
        1885000	       187	80000220	02f8ff13	andi	x30,x17,47	 x17:0x00000000 x30=0x00000000
        1895000	       188	80000224	00d38533	add	x10,x7,x13	  x7:0x00000000 x13:0x80009fc4 x10=0x80009fc4
        1905000	       189	80000228	01000b13	addi	x22,x0,16	  x0:0x00000000 x22=0x00000010
        1915000	       190	8000022c	5af40913	addi	x18,x8,1455	  x8:0x00000000 x18=0x000005af
        1925000	       191	80000230	0168ee33	or	x28,x17,x22	 x17:0x00000000 x22:0x00000010 x28=0x00000010
        1935000	       192	80000234	0077e533	or	x10,x15,x7	 x15:0x00000008  x7:0x00000000 x10=0x00000008
        1945000	       193	80000238	0057ec33	or	x24,x15,x5	 x15:0x00000008  x5:0x0000000d x24=0x0000000d
        1955000	       194	8000023c	402c01b3	sub	x3,x24,x2	 x24:0x0000000d  x2:0x80009f84  x3=0x7fff6089
        1965000	       195	80000240	5634af37	lui	x30,0x5634a	 x30=0x5634a000
        1975000	       196	80000244	f36ee713	ori	x14,x29,-202	 x29:0x00000001 x14=0xffffff37
        1985000	       197	80000248	015f5d33	srl	x26,x30,x21	 x30:0x5634a000 x21:0x00000000 x26=0x5634a000
        1995000	       198	8000024c	00c5e7b3	or	x15,x11,x12	 x11:0xfffffffc x12:0x0000028d x15=0xfffffffd
        2005000	       199	80000250	00a58593	addi	x11,x11,10	 x11:0xfffffffc x11=0x00000006
        2015000	       200	80000254	00917333	and	x6,x2,x9	  x2:0x80009f84  x9:0x00000258  x6=0x00000200
        2025000	       201	80000258	4167de33	sra	x28,x15,x22	 x15:0xfffffffd x22:0x00000010 x28=0xffffffff
        2035000	       202	8000025c	a920ee93	ori	x29,x1,-1390	  x1:0xffc0004f x29=0xfffffadf
        2045000	       203	80000260	01502d33	slt	x26,x0,x21	  x0:0x00000000 x21:0x00000000 x26=0x00000000
        2055000	       204	80000264	ff65c0e3	blt	x11,x22,80000244	 x11:0x00000006 x22:0x00000010
        2065000	       205	00000000	00000013	addi	x0,x0,0	  x0:0x00000000
        2075000	       206	80000240	00000013	addi	x0,x0,0	  x0:0x00000000
        2085000	       207	80000244	f36ee713	ori	x14,x29,-202	 x29:0xfffffadf x14=0xffffffff
        2095000	       208	80000248	015f5d33	srl	x26,x30,x21	 x30:0x5634a000 x21:0x00000000 x26=0x5634a000
        2105000	       209	8000024c	00c5e7b3	or	x15,x11,x12	 x11:0x00000006 x12:0x0000028d x15=0x0000028f
        2115000	       210	80000250	00a58593	addi	x11,x11,10	 x11:0x00000006 x11=0x00000010
        2125000	       211	80000254	00917333	and	x6,x2,x9	  x2:0x80009f84  x9:0x00000258  x6=0x00000200
        2135000	       212	80000258	4167de33	sra	x28,x15,x22	 x15:0x0000028f x22:0x00000010 x28=0x00000000
        2145000	       213	8000025c	a920ee93	ori	x29,x1,-1390	  x1:0xffc0004f x29=0xfffffadf
        2155000	       214	80000260	01502d33	slt	x26,x0,x21	  x0:0x00000000 x21:0x00000000 x26=0x00000000
        2165000	       215	80000264	ff65c0e3	blt	x11,x22,80000244	 x11:0x00000010 x22:0x00000010
        2175000	       216	80000268	01f646b3	xor	x13,x12,x31	 x12:0x0000028d x31:0x00000001 x13=0x0000028c
        2185000	       217	8000026c	00a00613	addi	x12,x0,10	  x0:0x00000000 x12=0x0000000a
        2195000	       218	80000270	00e12fb3	slt	x31,x2,x14	  x2:0x80009f84 x14:0xffffffff x31=0x00000001
        2205000	       219	80000274	00a00493	addi	x9,x0,10	  x0:0x00000000  x9=0x0000000a
        2215000	       220	80000278	01cee6b3	or	x13,x29,x28	 x29:0xfffffadf x28:0x00000000 x13=0xfffffadf
        2225000	       221	8000027c	0064bf33	sltu	x30,x9,x6	  x9:0x0000000a  x6:0x00000200 x30=0x00000001
        2235000	       222	80000280	019bc033	xor	x0,x23,x25	 x23:0xd21812db x25:0x4ef18000
        2245000	       223	80000284	01e5fdb3	and	x27,x11,x30	 x11:0x00000010 x30:0x00000001 x27=0x00000000
        2255000	       224	80000288	5894e413	ori	x8,x9,1417	  x9:0x0000000a  x8=0x0000058b
        2265000	       225	8000028c	c4343893	sltiu	x17,x8,-957	  x8:0x0000058b x17=0x00000001
        2275000	       226	80000290	006e79b3	and	x19,x28,x6	 x28:0x00000000  x6:0x00000200 x19=0x00000000
        2285000	       227	80000294	40f38b33	sub	x22,x7,x15	  x7:0x00000000 x15:0x0000028f x22=0xfffffd71
        2295000	       228	80000298	0196af33	slt	x30,x13,x25	 x13:0xfffffadf x25:0x4ef18000 x30=0x00000001
        2305000	       229	8000029c	ff760613	addi	x12,x12,-9	 x12:0x0000000a x12=0x00000001
        2315000	       230	800002a0	00900593	addi	x11,x0,9	  x0:0x00000000 x11=0x00000009
        2325000	       231	800002a4	01321b33	sll	x22,x4,x19	  x4:0x80009f84 x19:0x00000000 x22=0x80009f84
        2335000	       232	800002a8	00700093	addi	x1,x0,7	  x0:0x00000000  x1=0x00000007
        2345000	       233	800002ac	d4dbaa93	slti	x21,x23,-691	 x23:0xd21812db x21=0x00000001
        2355000	       234	800002b0	97afd017	auipc	x0,0x97afd	
        2365000	       235	800002b4	ffb58593	addi	x11,x11,-5	 x11:0x00000009 x11=0x00000004
        2375000	       236	800002b8	fe15fce3	bgeu	x11,x1,800002b0	 x11:0x00000004  x1:0x00000007
        2385000	       237	800002bc	01e35e13	srli	x28,x6,0x1e	  x6:0x00000200 x28=0x00000000
        2395000	       238	800002c0	0b09e193	ori	x3,x19,176	 x19:0x00000000  x3=0x000000b0
        2405000	       239	800002c4	41ef0ab3	sub	x21,x30,x30	 x30:0x00000001 x30:0x00000001 x21=0x00000000
        2415000	       240	800002c8	fa967ce3	bgeu	x12,x9,80000280	 x12:0x00000001  x9:0x0000000a
        2425000	       241	800002cc	b95a7993	andi	x19,x20,-1131	 x20:0x00000005 x19=0x00000005
        2435000	       242	800002d0	00a00393	addi	x7,x0,10	  x0:0x00000000  x7=0x0000000a
        2445000	       243	800002d4	01300b13	addi	x22,x0,19	  x0:0x00000000 x22=0x00000013
        2455000	       244	800002d8	013175b3	and	x11,x2,x19	  x2:0x80009f84 x19:0x00000005 x11=0x00000004
        2465000	       245	800002dc	01c3f9b3	and	x19,x7,x28	  x7:0x0000000a x28:0x00000000 x19=0x00000000
        2475000	       246	800002e0	9f7bc793	xori	x15,x23,-1545	 x23:0xd21812db x15=0x2de7eb2c
        2485000	       247	800002e4	00138393	addi	x7,x7,1	  x7:0x0000000a  x7=0x0000000b
        2495000	       248	800002e8	00b285b3	add	x11,x5,x11	  x5:0x0000000d x11:0x00000004 x11=0x00000011
        2505000	       249	800002ec	00500a93	addi	x21,x0,5	  x0:0x00000000 x21=0x00000005
        2515000	       250	800002f0	01400493	addi	x9,x0,20	  x0:0x00000000  x9=0x00000014
        2525000	       251	800002f4	f0e1cd13	xori	x26,x3,-242	  x3:0x000000b0 x26=0xffffffbe
        2535000	       252	800002f8	005a8a93	addi	x21,x21,5	 x21:0x00000005 x21=0x0000000a
        2545000	       253	800002fc	0105cfb3	xor	x31,x11,x16	 x11:0x00000011 x16:0x80009fc4 x31=0x80009fd5
        2555000	       254	80000300	fe9a8ae3	beq	x21,x9,800002f4	 x21:0x0000000a  x9:0x00000014
        2565000	       255	80000304	fd63cce3	blt	x7,x22,800002dc	  x7:0x0000000b x22:0x00000013
        2575000	       256	00000000	00000013	addi	x0,x0,0	  x0:0x00000000
        2585000	       257	800002d8	00000013	addi	x0,x0,0	  x0:0x00000000
        2595000	       258	800002dc	01c3f9b3	and	x19,x7,x28	  x7:0x0000000b x28:0x00000000 x19=0x00000000
        2605000	       259	800002e0	9f7bc793	xori	x15,x23,-1545	 x23:0xd21812db x15=0x2de7eb2c
        2615000	       260	800002e4	00138393	addi	x7,x7,1	  x7:0x0000000b  x7=0x0000000c
        2625000	       261	800002e8	00b285b3	add	x11,x5,x11	  x5:0x0000000d x11:0x00000011 x11=0x0000001e
        2635000	       262	800002ec	00500a93	addi	x21,x0,5	  x0:0x00000000 x21=0x00000005
        2645000	       263	800002f0	01400493	addi	x9,x0,20	  x0:0x00000000  x9=0x00000014
        2655000	       264	800002f4	f0e1cd13	xori	x26,x3,-242	  x3:0x000000b0 x26=0xffffffbe
        2665000	       265	800002f8	005a8a93	addi	x21,x21,5	 x21:0x00000005 x21=0x0000000a
        2675000	       266	800002fc	0105cfb3	xor	x31,x11,x16	 x11:0x0000001e x16:0x80009fc4 x31=0x80009fda
        2685000	       267	80000300	fe9a8ae3	beq	x21,x9,800002f4	 x21:0x0000000a  x9:0x00000014
        2695000	       268	80000304	fd63cce3	blt	x7,x22,800002dc	  x7:0x0000000c x22:0x00000013
        2705000	       269	00000000	00000013	addi	x0,x0,0	  x0:0x00000000
        2715000	       270	800002d8	00000013	addi	x0,x0,0	  x0:0x00000000
        2725000	       271	800002dc	01c3f9b3	and	x19,x7,x28	  x7:0x0000000c x28:0x00000000 x19=0x00000000
        2735000	       272	800002e0	9f7bc793	xori	x15,x23,-1545	 x23:0xd21812db x15=0x2de7eb2c
        2745000	       273	800002e4	00138393	addi	x7,x7,1	  x7:0x0000000c  x7=0x0000000d
        2755000	       274	800002e8	00b285b3	add	x11,x5,x11	  x5:0x0000000d x11:0x0000001e x11=0x0000002b
        2765000	       275	800002ec	00500a93	addi	x21,x0,5	  x0:0x00000000 x21=0x00000005
        2775000	       276	800002f0	01400493	addi	x9,x0,20	  x0:0x00000000  x9=0x00000014
        2785000	       277	800002f4	f0e1cd13	xori	x26,x3,-242	  x3:0x000000b0 x26=0xffffffbe
        2795000	       278	800002f8	005a8a93	addi	x21,x21,5	 x21:0x00000005 x21=0x0000000a
        2805000	       279	800002fc	0105cfb3	xor	x31,x11,x16	 x11:0x0000002b x16:0x80009fc4 x31=0x80009fef
        2815000	       280	80000300	fe9a8ae3	beq	x21,x9,800002f4	 x21:0x0000000a  x9:0x00000014
        2825000	       281	80000304	fd63cce3	blt	x7,x22,800002dc	  x7:0x0000000d x22:0x00000013
        2835000	       282	00000000	00000013	addi	x0,x0,0	  x0:0x00000000
        2845000	       283	800002d8	00000013	addi	x0,x0,0	  x0:0x00000000
        2855000	       284	800002dc	01c3f9b3	and	x19,x7,x28	  x7:0x0000000d x28:0x00000000 x19=0x00000000
        2865000	       285	800002e0	9f7bc793	xori	x15,x23,-1545	 x23:0xd21812db x15=0x2de7eb2c
        2875000	       286	800002e4	00138393	addi	x7,x7,1	  x7:0x0000000d  x7=0x0000000e
        2885000	       287	800002e8	00b285b3	add	x11,x5,x11	  x5:0x0000000d x11:0x0000002b x11=0x00000038
        2895000	       288	800002ec	00500a93	addi	x21,x0,5	  x0:0x00000000 x21=0x00000005
        2905000	       289	800002f0	01400493	addi	x9,x0,20	  x0:0x00000000  x9=0x00000014
        2915000	       290	800002f4	f0e1cd13	xori	x26,x3,-242	  x3:0x000000b0 x26=0xffffffbe
        2925000	       291	800002f8	005a8a93	addi	x21,x21,5	 x21:0x00000005 x21=0x0000000a
        2935000	       292	800002fc	0105cfb3	xor	x31,x11,x16	 x11:0x00000038 x16:0x80009fc4 x31=0x80009ffc
        2945000	       293	80000300	fe9a8ae3	beq	x21,x9,800002f4	 x21:0x0000000a  x9:0x00000014
        2955000	       294	80000304	fd63cce3	blt	x7,x22,800002dc	  x7:0x0000000e x22:0x00000013
        2965000	       295	00000000	00000013	addi	x0,x0,0	  x0:0x00000000
        2975000	       296	800002d8	00000013	addi	x0,x0,0	  x0:0x00000000
        2985000	       297	800002dc	01c3f9b3	and	x19,x7,x28	  x7:0x0000000e x28:0x00000000 x19=0x00000000
        2995000	       298	800002e0	9f7bc793	xori	x15,x23,-1545	 x23:0xd21812db x15=0x2de7eb2c
        3005000	       299	800002e4	00138393	addi	x7,x7,1	  x7:0x0000000e  x7=0x0000000f
        3015000	       300	800002e8	00b285b3	add	x11,x5,x11	  x5:0x0000000d x11:0x00000038 x11=0x00000045
        3025000	       301	800002ec	00500a93	addi	x21,x0,5	  x0:0x00000000 x21=0x00000005
        3035000	       302	800002f0	01400493	addi	x9,x0,20	  x0:0x00000000  x9=0x00000014
        3045000	       303	800002f4	f0e1cd13	xori	x26,x3,-242	  x3:0x000000b0 x26=0xffffffbe
        3055000	       304	800002f8	005a8a93	addi	x21,x21,5	 x21:0x00000005 x21=0x0000000a
        3065000	       305	800002fc	0105cfb3	xor	x31,x11,x16	 x11:0x00000045 x16:0x80009fc4 x31=0x80009f81
        3075000	       306	80000300	fe9a8ae3	beq	x21,x9,800002f4	 x21:0x0000000a  x9:0x00000014
        3085000	       307	80000304	fd63cce3	blt	x7,x22,800002dc	  x7:0x0000000f x22:0x00000013
        3095000	       308	00000000	00000013	addi	x0,x0,0	  x0:0x00000000
        3105000	       309	800002d8	00000013	addi	x0,x0,0	  x0:0x00000000
        3115000	       310	800002dc	01c3f9b3	and	x19,x7,x28	  x7:0x0000000f x28:0x00000000 x19=0x00000000
        3125000	       311	800002e0	9f7bc793	xori	x15,x23,-1545	 x23:0xd21812db x15=0x2de7eb2c
        3135000	       312	800002e4	00138393	addi	x7,x7,1	  x7:0x0000000f  x7=0x00000010
        3145000	       313	800002e8	00b285b3	add	x11,x5,x11	  x5:0x0000000d x11:0x00000045 x11=0x00000052
        3155000	       314	800002ec	00500a93	addi	x21,x0,5	  x0:0x00000000 x21=0x00000005
        3165000	       315	800002f0	01400493	addi	x9,x0,20	  x0:0x00000000  x9=0x00000014
        3175000	       316	800002f4	f0e1cd13	xori	x26,x3,-242	  x3:0x000000b0 x26=0xffffffbe
        3185000	       317	800002f8	005a8a93	addi	x21,x21,5	 x21:0x00000005 x21=0x0000000a
        3195000	       318	800002fc	0105cfb3	xor	x31,x11,x16	 x11:0x00000052 x16:0x80009fc4 x31=0x80009f96
        3205000	       319	80000300	fe9a8ae3	beq	x21,x9,800002f4	 x21:0x0000000a  x9:0x00000014
        3215000	       320	80000304	fd63cce3	blt	x7,x22,800002dc	  x7:0x00000010 x22:0x00000013
        3225000	       321	00000000	00000013	addi	x0,x0,0	  x0:0x00000000
        3235000	       322	800002d8	00000013	addi	x0,x0,0	  x0:0x00000000
        3245000	       323	800002dc	01c3f9b3	and	x19,x7,x28	  x7:0x00000010 x28:0x00000000 x19=0x00000000
        3255000	       324	800002e0	9f7bc793	xori	x15,x23,-1545	 x23:0xd21812db x15=0x2de7eb2c
        3265000	       325	800002e4	00138393	addi	x7,x7,1	  x7:0x00000010  x7=0x00000011
        3275000	       326	800002e8	00b285b3	add	x11,x5,x11	  x5:0x0000000d x11:0x00000052 x11=0x0000005f
        3285000	       327	800002ec	00500a93	addi	x21,x0,5	  x0:0x00000000 x21=0x00000005
        3295000	       328	800002f0	01400493	addi	x9,x0,20	  x0:0x00000000  x9=0x00000014
        3305000	       329	800002f4	f0e1cd13	xori	x26,x3,-242	  x3:0x000000b0 x26=0xffffffbe
        3315000	       330	800002f8	005a8a93	addi	x21,x21,5	 x21:0x00000005 x21=0x0000000a
        3325000	       331	800002fc	0105cfb3	xor	x31,x11,x16	 x11:0x0000005f x16:0x80009fc4 x31=0x80009f9b
        3335000	       332	80000300	fe9a8ae3	beq	x21,x9,800002f4	 x21:0x0000000a  x9:0x00000014
        3345000	       333	80000304	fd63cce3	blt	x7,x22,800002dc	  x7:0x00000011 x22:0x00000013
        3355000	       334	00000000	00000013	addi	x0,x0,0	  x0:0x00000000
        3365000	       335	800002d8	00000013	addi	x0,x0,0	  x0:0x00000000
        3375000	       336	800002dc	01c3f9b3	and	x19,x7,x28	  x7:0x00000011 x28:0x00000000 x19=0x00000000
        3385000	       337	800002e0	9f7bc793	xori	x15,x23,-1545	 x23:0xd21812db x15=0x2de7eb2c
        3395000	       338	800002e4	00138393	addi	x7,x7,1	  x7:0x00000011  x7=0x00000012
        3405000	       339	800002e8	00b285b3	add	x11,x5,x11	  x5:0x0000000d x11:0x0000005f x11=0x0000006c
        3415000	       340	800002ec	00500a93	addi	x21,x0,5	  x0:0x00000000 x21=0x00000005
        3425000	       341	800002f0	01400493	addi	x9,x0,20	  x0:0x00000000  x9=0x00000014
        3435000	       342	800002f4	f0e1cd13	xori	x26,x3,-242	  x3:0x000000b0 x26=0xffffffbe
        3445000	       343	800002f8	005a8a93	addi	x21,x21,5	 x21:0x00000005 x21=0x0000000a
        3455000	       344	800002fc	0105cfb3	xor	x31,x11,x16	 x11:0x0000006c x16:0x80009fc4 x31=0x80009fa8
        3465000	       345	80000300	fe9a8ae3	beq	x21,x9,800002f4	 x21:0x0000000a  x9:0x00000014
        3475000	       346	80000304	fd63cce3	blt	x7,x22,800002dc	  x7:0x00000012 x22:0x00000013
        3485000	       347	00000000	00000013	addi	x0,x0,0	  x0:0x00000000
        3495000	       348	800002d8	00000013	addi	x0,x0,0	  x0:0x00000000
        3505000	       349	800002dc	01c3f9b3	and	x19,x7,x28	  x7:0x00000012 x28:0x00000000 x19=0x00000000
        3515000	       350	800002e0	9f7bc793	xori	x15,x23,-1545	 x23:0xd21812db x15=0x2de7eb2c
        3525000	       351	800002e4	00138393	addi	x7,x7,1	  x7:0x00000012  x7=0x00000013
        3535000	       352	800002e8	00b285b3	add	x11,x5,x11	  x5:0x0000000d x11:0x0000006c x11=0x00000079
        3545000	       353	800002ec	00500a93	addi	x21,x0,5	  x0:0x00000000 x21=0x00000005
        3555000	       354	800002f0	01400493	addi	x9,x0,20	  x0:0x00000000  x9=0x00000014
        3565000	       355	800002f4	f0e1cd13	xori	x26,x3,-242	  x3:0x000000b0 x26=0xffffffbe
        3575000	       356	800002f8	005a8a93	addi	x21,x21,5	 x21:0x00000005 x21=0x0000000a
        3585000	       357	800002fc	0105cfb3	xor	x31,x11,x16	 x11:0x00000079 x16:0x80009fc4 x31=0x80009fbd
        3595000	       358	80000300	fe9a8ae3	beq	x21,x9,800002f4	 x21:0x0000000a  x9:0x00000014
        3605000	       359	80000304	fd63cce3	blt	x7,x22,800002dc	  x7:0x00000013 x22:0x00000013
        3615000	       360	80000308	f8cb7513	andi	x10,x22,-116	 x22:0x00000013 x10=0x00000000
        3625000	       361	8000030c	fff00a13	addi	x20,x0,-1	  x0:0x00000000 x20=0xffffffff
        3635000	       362	80000310	2c67a593	slti	x11,x15,710	 x15:0x2de7eb2c x11=0x00000000
        3645000	       363	80000314	00a00b93	addi	x23,x0,10	  x0:0x00000000 x23=0x0000000a
        3655000	       364	80000318	00124cb3	xor	x25,x4,x1	  x4:0x80009f84  x1:0x00000007 x25=0x80009f83
        3665000	       365	8000031c	401a5713	srai	x14,x20,0x1	 x20:0xffffffff x14=0xffffffff
        3675000	       366	80000320	40240933	sub	x18,x8,x2	  x8:0x0000058b  x2:0x80009f84 x18=0x7fff6607
        3685000	       367	80000324	01298f33	add	x30,x19,x18	 x19:0x00000000 x18:0x7fff6607 x30=0x7fff6607
        3695000	       368	80000328	01b8ecb3	or	x25,x17,x27	 x17:0x00000001 x27:0x00000000 x25=0x00000001
        3705000	       369	8000032c	0182f233	and	x4,x5,x24	  x5:0x0000000d x24:0x0000000d  x4=0x0000000d
        3715000	       370	80000330	008dc4b3	xor	x9,x27,x8	 x27:0x00000000  x8:0x0000058b  x9=0x0000058b
        3725000	       371	80000334	01fd0433	add	x8,x26,x31	 x26:0xffffffbe x31:0x80009fbd  x8=0x80009f7b
        3735000	       372	80000338	404cdc33	sra	x24,x25,x4	 x25:0x00000001  x4:0x0000000d x24=0x00000000
        3745000	       373	8000033c	001a0a13	addi	x20,x20,1	 x20:0xffffffff x20=0x00000000
        3755000	       374	80000340	01165e93	srli	x29,x12,0x11	 x12:0x00000001 x29=0x00000000
        3765000	       375	80000344	27606d13	ori	x26,x0,630	  x0:0x00000000 x26=0x00000276
        3775000	       376	80000348	fd7a6ee3	bltu	x20,x23,80000324	 x20:0x00000000 x23:0x0000000a
        3785000	       377	00000000	00000013	addi	x0,x0,0	  x0:0x00000000
        3795000	       378	80000320	00000013	addi	x0,x0,0	  x0:0x00000000
        3805000	       379	80000324	01298f33	add	x30,x19,x18	 x19:0x00000000 x18:0x7fff6607 x30=0x7fff6607
        3815000	       380	80000328	01b8ecb3	or	x25,x17,x27	 x17:0x00000001 x27:0x00000000 x25=0x00000001
        3825000	       381	8000032c	0182f233	and	x4,x5,x24	  x5:0x0000000d x24:0x00000000  x4=0x00000000
        3835000	       382	80000330	008dc4b3	xor	x9,x27,x8	 x27:0x00000000  x8:0x80009f7b  x9=0x80009f7b
        3845000	       383	80000334	01fd0433	add	x8,x26,x31	 x26:0x00000276 x31:0x80009fbd  x8=0x8000a233
        3855000	       384	80000338	404cdc33	sra	x24,x25,x4	 x25:0x00000001  x4:0x00000000 x24=0x00000001
        3865000	       385	8000033c	001a0a13	addi	x20,x20,1	 x20:0x00000000 x20=0x00000001
        3875000	       386	80000340	01165e93	srli	x29,x12,0x11	 x12:0x00000001 x29=0x00000000
        3885000	       387	80000344	27606d13	ori	x26,x0,630	  x0:0x00000000 x26=0x00000276
        3895000	       388	80000348	fd7a6ee3	bltu	x20,x23,80000324	 x20:0x00000001 x23:0x0000000a
        3905000	       389	00000000	00000013	addi	x0,x0,0	  x0:0x00000000
        3915000	       390	80000320	00000013	addi	x0,x0,0	  x0:0x00000000
        3925000	       391	80000324	01298f33	add	x30,x19,x18	 x19:0x00000000 x18:0x7fff6607 x30=0x7fff6607
        3935000	       392	80000328	01b8ecb3	or	x25,x17,x27	 x17:0x00000001 x27:0x00000000 x25=0x00000001
        3945000	       393	8000032c	0182f233	and	x4,x5,x24	  x5:0x0000000d x24:0x00000001  x4=0x00000001
        3955000	       394	80000330	008dc4b3	xor	x9,x27,x8	 x27:0x00000000  x8:0x8000a233  x9=0x8000a233
        3965000	       395	80000334	01fd0433	add	x8,x26,x31	 x26:0x00000276 x31:0x80009fbd  x8=0x8000a233
        3975000	       396	80000338	404cdc33	sra	x24,x25,x4	 x25:0x00000001  x4:0x00000001 x24=0x00000000
        3985000	       397	8000033c	001a0a13	addi	x20,x20,1	 x20:0x00000001 x20=0x00000002
        3995000	       398	80000340	01165e93	srli	x29,x12,0x11	 x12:0x00000001 x29=0x00000000
        4005000	       399	80000344	27606d13	ori	x26,x0,630	  x0:0x00000000 x26=0x00000276
        4015000	       400	80000348	fd7a6ee3	bltu	x20,x23,80000324	 x20:0x00000002 x23:0x0000000a
        4025000	       401	00000000	00000013	addi	x0,x0,0	  x0:0x00000000
        4035000	       402	80000320	00000013	addi	x0,x0,0	  x0:0x00000000
        4045000	       403	80000324	01298f33	add	x30,x19,x18	 x19:0x00000000 x18:0x7fff6607 x30=0x7fff6607
        4055000	       404	80000328	01b8ecb3	or	x25,x17,x27	 x17:0x00000001 x27:0x00000000 x25=0x00000001
        4065000	       405	8000032c	0182f233	and	x4,x5,x24	  x5:0x0000000d x24:0x00000000  x4=0x00000000
        4075000	       406	80000330	008dc4b3	xor	x9,x27,x8	 x27:0x00000000  x8:0x8000a233  x9=0x8000a233
        4085000	       407	80000334	01fd0433	add	x8,x26,x31	 x26:0x00000276 x31:0x80009fbd  x8=0x8000a233
        4095000	       408	80000338	404cdc33	sra	x24,x25,x4	 x25:0x00000001  x4:0x00000000 x24=0x00000001
        4105000	       409	8000033c	001a0a13	addi	x20,x20,1	 x20:0x00000002 x20=0x00000003
        4115000	       410	80000340	01165e93	srli	x29,x12,0x11	 x12:0x00000001 x29=0x00000000
        4125000	       411	80000344	27606d13	ori	x26,x0,630	  x0:0x00000000 x26=0x00000276
        4135000	       412	80000348	fd7a6ee3	bltu	x20,x23,80000324	 x20:0x00000003 x23:0x0000000a
        4145000	       413	00000000	00000013	addi	x0,x0,0	  x0:0x00000000
        4155000	       414	80000320	00000013	addi	x0,x0,0	  x0:0x00000000
        4165000	       415	80000324	01298f33	add	x30,x19,x18	 x19:0x00000000 x18:0x7fff6607 x30=0x7fff6607
        4175000	       416	80000328	01b8ecb3	or	x25,x17,x27	 x17:0x00000001 x27:0x00000000 x25=0x00000001
        4185000	       417	8000032c	0182f233	and	x4,x5,x24	  x5:0x0000000d x24:0x00000001  x4=0x00000001
        4195000	       418	80000330	008dc4b3	xor	x9,x27,x8	 x27:0x00000000  x8:0x8000a233  x9=0x8000a233
        4205000	       419	80000334	01fd0433	add	x8,x26,x31	 x26:0x00000276 x31:0x80009fbd  x8=0x8000a233
        4215000	       420	80000338	404cdc33	sra	x24,x25,x4	 x25:0x00000001  x4:0x00000001 x24=0x00000000
        4225000	       421	8000033c	001a0a13	addi	x20,x20,1	 x20:0x00000003 x20=0x00000004
        4235000	       422	80000340	01165e93	srli	x29,x12,0x11	 x12:0x00000001 x29=0x00000000
        4245000	       423	80000344	27606d13	ori	x26,x0,630	  x0:0x00000000 x26=0x00000276
        4255000	       424	80000348	fd7a6ee3	bltu	x20,x23,80000324	 x20:0x00000004 x23:0x0000000a
        4265000	       425	00000000	00000013	addi	x0,x0,0	  x0:0x00000000
        4275000	       426	80000320	00000013	addi	x0,x0,0	  x0:0x00000000
        4285000	       427	80000324	01298f33	add	x30,x19,x18	 x19:0x00000000 x18:0x7fff6607 x30=0x7fff6607
        4295000	       428	80000328	01b8ecb3	or	x25,x17,x27	 x17:0x00000001 x27:0x00000000 x25=0x00000001
        4305000	       429	8000032c	0182f233	and	x4,x5,x24	  x5:0x0000000d x24:0x00000000  x4=0x00000000
        4315000	       430	80000330	008dc4b3	xor	x9,x27,x8	 x27:0x00000000  x8:0x8000a233  x9=0x8000a233
        4325000	       431	80000334	01fd0433	add	x8,x26,x31	 x26:0x00000276 x31:0x80009fbd  x8=0x8000a233
        4335000	       432	80000338	404cdc33	sra	x24,x25,x4	 x25:0x00000001  x4:0x00000000 x24=0x00000001
        4345000	       433	8000033c	001a0a13	addi	x20,x20,1	 x20:0x00000004 x20=0x00000005
        4355000	       434	80000340	01165e93	srli	x29,x12,0x11	 x12:0x00000001 x29=0x00000000
        4365000	       435	80000344	27606d13	ori	x26,x0,630	  x0:0x00000000 x26=0x00000276
        4375000	       436	80000348	fd7a6ee3	bltu	x20,x23,80000324	 x20:0x00000005 x23:0x0000000a
        4385000	       437	00000000	00000013	addi	x0,x0,0	  x0:0x00000000
        4395000	       438	80000320	00000013	addi	x0,x0,0	  x0:0x00000000
        4405000	       439	80000324	01298f33	add	x30,x19,x18	 x19:0x00000000 x18:0x7fff6607 x30=0x7fff6607
        4415000	       440	80000328	01b8ecb3	or	x25,x17,x27	 x17:0x00000001 x27:0x00000000 x25=0x00000001
        4425000	       441	8000032c	0182f233	and	x4,x5,x24	  x5:0x0000000d x24:0x00000001  x4=0x00000001
        4435000	       442	80000330	008dc4b3	xor	x9,x27,x8	 x27:0x00000000  x8:0x8000a233  x9=0x8000a233
        4445000	       443	80000334	01fd0433	add	x8,x26,x31	 x26:0x00000276 x31:0x80009fbd  x8=0x8000a233
        4455000	       444	80000338	404cdc33	sra	x24,x25,x4	 x25:0x00000001  x4:0x00000001 x24=0x00000000
        4465000	       445	8000033c	001a0a13	addi	x20,x20,1	 x20:0x00000005 x20=0x00000006
        4475000	       446	80000340	01165e93	srli	x29,x12,0x11	 x12:0x00000001 x29=0x00000000
        4485000	       447	80000344	27606d13	ori	x26,x0,630	  x0:0x00000000 x26=0x00000276
        4495000	       448	80000348	fd7a6ee3	bltu	x20,x23,80000324	 x20:0x00000006 x23:0x0000000a
        4505000	       449	00000000	00000013	addi	x0,x0,0	  x0:0x00000000
        4515000	       450	80000320	00000013	addi	x0,x0,0	  x0:0x00000000
        4525000	       451	80000324	01298f33	add	x30,x19,x18	 x19:0x00000000 x18:0x7fff6607 x30=0x7fff6607
        4535000	       452	80000328	01b8ecb3	or	x25,x17,x27	 x17:0x00000001 x27:0x00000000 x25=0x00000001
        4545000	       453	8000032c	0182f233	and	x4,x5,x24	  x5:0x0000000d x24:0x00000000  x4=0x00000000
        4555000	       454	80000330	008dc4b3	xor	x9,x27,x8	 x27:0x00000000  x8:0x8000a233  x9=0x8000a233
        4565000	       455	80000334	01fd0433	add	x8,x26,x31	 x26:0x00000276 x31:0x80009fbd  x8=0x8000a233
        4575000	       456	80000338	404cdc33	sra	x24,x25,x4	 x25:0x00000001  x4:0x00000000 x24=0x00000001
        4585000	       457	8000033c	001a0a13	addi	x20,x20,1	 x20:0x00000006 x20=0x00000007
        4595000	       458	80000340	01165e93	srli	x29,x12,0x11	 x12:0x00000001 x29=0x00000000
        4605000	       459	80000344	27606d13	ori	x26,x0,630	  x0:0x00000000 x26=0x00000276
        4615000	       460	80000348	fd7a6ee3	bltu	x20,x23,80000324	 x20:0x00000007 x23:0x0000000a
        4625000	       461	00000000	00000013	addi	x0,x0,0	  x0:0x00000000
        4635000	       462	80000320	00000013	addi	x0,x0,0	  x0:0x00000000
        4645000	       463	80000324	01298f33	add	x30,x19,x18	 x19:0x00000000 x18:0x7fff6607 x30=0x7fff6607
        4655000	       464	80000328	01b8ecb3	or	x25,x17,x27	 x17:0x00000001 x27:0x00000000 x25=0x00000001
        4665000	       465	8000032c	0182f233	and	x4,x5,x24	  x5:0x0000000d x24:0x00000001  x4=0x00000001
        4675000	       466	80000330	008dc4b3	xor	x9,x27,x8	 x27:0x00000000  x8:0x8000a233  x9=0x8000a233
        4685000	       467	80000334	01fd0433	add	x8,x26,x31	 x26:0x00000276 x31:0x80009fbd  x8=0x8000a233
        4695000	       468	80000338	404cdc33	sra	x24,x25,x4	 x25:0x00000001  x4:0x00000001 x24=0x00000000
        4705000	       469	8000033c	001a0a13	addi	x20,x20,1	 x20:0x00000007 x20=0x00000008
        4715000	       470	80000340	01165e93	srli	x29,x12,0x11	 x12:0x00000001 x29=0x00000000
        4725000	       471	80000344	27606d13	ori	x26,x0,630	  x0:0x00000000 x26=0x00000276
        4735000	       472	80000348	fd7a6ee3	bltu	x20,x23,80000324	 x20:0x00000008 x23:0x0000000a
        4745000	       473	00000000	00000013	addi	x0,x0,0	  x0:0x00000000
        4755000	       474	80000320	00000013	addi	x0,x0,0	  x0:0x00000000
        4765000	       475	80000324	01298f33	add	x30,x19,x18	 x19:0x00000000 x18:0x7fff6607 x30=0x7fff6607
        4775000	       476	80000328	01b8ecb3	or	x25,x17,x27	 x17:0x00000001 x27:0x00000000 x25=0x00000001
        4785000	       477	8000032c	0182f233	and	x4,x5,x24	  x5:0x0000000d x24:0x00000000  x4=0x00000000
        4795000	       478	80000330	008dc4b3	xor	x9,x27,x8	 x27:0x00000000  x8:0x8000a233  x9=0x8000a233
        4805000	       479	80000334	01fd0433	add	x8,x26,x31	 x26:0x00000276 x31:0x80009fbd  x8=0x8000a233
        4815000	       480	80000338	404cdc33	sra	x24,x25,x4	 x25:0x00000001  x4:0x00000000 x24=0x00000001
        4825000	       481	8000033c	001a0a13	addi	x20,x20,1	 x20:0x00000008 x20=0x00000009
        4835000	       482	80000340	01165e93	srli	x29,x12,0x11	 x12:0x00000001 x29=0x00000000
        4845000	       483	80000344	27606d13	ori	x26,x0,630	  x0:0x00000000 x26=0x00000276
        4855000	       484	80000348	fd7a6ee3	bltu	x20,x23,80000324	 x20:0x00000009 x23:0x0000000a
        4865000	       485	00000000	00000013	addi	x0,x0,0	  x0:0x00000000
        4875000	       486	80000320	00000013	addi	x0,x0,0	  x0:0x00000000
        4885000	       487	80000324	01298f33	add	x30,x19,x18	 x19:0x00000000 x18:0x7fff6607 x30=0x7fff6607
        4895000	       488	80000328	01b8ecb3	or	x25,x17,x27	 x17:0x00000001 x27:0x00000000 x25=0x00000001
        4905000	       489	8000032c	0182f233	and	x4,x5,x24	  x5:0x0000000d x24:0x00000001  x4=0x00000001
        4915000	       490	80000330	008dc4b3	xor	x9,x27,x8	 x27:0x00000000  x8:0x8000a233  x9=0x8000a233
        4925000	       491	80000334	01fd0433	add	x8,x26,x31	 x26:0x00000276 x31:0x80009fbd  x8=0x8000a233
        4935000	       492	80000338	404cdc33	sra	x24,x25,x4	 x25:0x00000001  x4:0x00000001 x24=0x00000000
        4945000	       493	8000033c	001a0a13	addi	x20,x20,1	 x20:0x00000009 x20=0x0000000a
        4955000	       494	80000340	01165e93	srli	x29,x12,0x11	 x12:0x00000001 x29=0x00000000
        4965000	       495	80000344	27606d13	ori	x26,x0,630	  x0:0x00000000 x26=0x00000276
        4975000	       496	80000348	fd7a6ee3	bltu	x20,x23,80000324	 x20:0x0000000a x23:0x0000000a
        4985000	       497	8000034c	00c79f33	sll	x30,x15,x12	 x15:0x2de7eb2c x12:0x00000001 x30=0x5bcfd658
        4995000	       498	80000350	00300613	addi	x12,x0,3	  x0:0x00000000 x12=0x00000003
        5005000	       499	80000354	c0dc3413	sltiu	x8,x24,-1011	 x24:0x00000000  x8=0x00000001
        5015000	       500	80000358	01ce6f33	or	x30,x28,x28	 x28:0x00000000 x28:0x00000000 x30=0x00000000
        5025000	       501	8000035c	0110d913	srli	x18,x1,0x11	  x1:0x00000007 x18=0x00000000
        5035000	       502	80000360	013f0bb3	add	x23,x30,x19	 x30:0x00000000 x19:0x00000000 x23=0x00000000
        5045000	       503	80000364	00300313	addi	x6,x0,3	  x0:0x00000000  x6=0x00000003
        5055000	       504	80000368	0022a3b3	slt	x7,x5,x2	  x5:0x0000000d  x2:0x80009f84  x7=0x00000000
        5065000	       505	8000036c	015b6bb3	or	x23,x22,x21	 x22:0x00000013 x21:0x0000000a x23=0x0000001b
        5075000	       506	80000370	40a40db3	sub	x27,x8,x10	  x8:0x00000001 x10:0x00000000 x27=0x00000001
        5085000	       507	80000374	01d8e033	or	x0,x17,x29	 x17:0x00000001 x29:0x00000000
        5095000	       508	80000378	fff60613	addi	x12,x12,-1	 x12:0x00000003 x12=0x00000002
        5105000	       509	8000037c	de8ccc93	xori	x25,x25,-536	 x25:0x00000001 x25=0xfffffde9
        5115000	       510	80000380	00400693	addi	x13,x0,4	  x0:0x00000000 x13=0x00000004
        5125000	       511	80000384	0182cb33	xor	x22,x5,x24	  x5:0x0000000d x24:0x00000000 x22=0x0000000d
        5135000	       512	80000388	fed00f93	addi	x31,x0,-19	  x0:0x00000000 x31=0xffffffed
        5145000	       513	8000038c	1e6cf993	andi	x19,x25,486	 x25:0xfffffde9 x19=0x000001e0
        5155000	       514	80000390	2a076a97	auipc	x21,0x2a076	 x21=0xaa07638c
        5165000	       515	80000394	400a3c13	sltiu	x24,x20,1024	 x20:0x0000000a x24=0x00000001
        5175000	       516	80000398	fff68693	addi	x13,x13,-1	 x13:0x00000004 x13=0x00000003
        5185000	       517	8000039c	fff6d8e3	bge	x13,x31,8000038c	 x13:0x00000003 x31:0xffffffed
        5195000	       518	00000000	00000013	addi	x0,x0,0	  x0:0x00000000
        5205000	       519	80000388	00000013	addi	x0,x0,0	  x0:0x00000000
        5215000	       520	8000038c	1e6cf993	andi	x19,x25,486	 x25:0xfffffde9 x19=0x000001e0
        5225000	       521	80000390	2a076a97	auipc	x21,0x2a076	 x21=0xaa07638c
        5235000	       522	80000394	400a3c13	sltiu	x24,x20,1024	 x20:0x0000000a x24=0x00000001
        5245000	       523	80000398	fff68693	addi	x13,x13,-1	 x13:0x00000003 x13=0x00000002
        5255000	       524	8000039c	fff6d8e3	bge	x13,x31,8000038c	 x13:0x00000002 x31:0xffffffed
        5265000	       525	00000000	00000013	addi	x0,x0,0	  x0:0x00000000
        5275000	       526	80000388	00000013	addi	x0,x0,0	  x0:0x00000000
        5285000	       527	8000038c	1e6cf993	andi	x19,x25,486	 x25:0xfffffde9 x19=0x000001e0
        5295000	       528	80000390	2a076a97	auipc	x21,0x2a076	 x21=0xaa07638c
        5305000	       529	80000394	400a3c13	sltiu	x24,x20,1024	 x20:0x0000000a x24=0x00000001
        5315000	       530	80000398	fff68693	addi	x13,x13,-1	 x13:0x00000002 x13=0x00000001
        5325000	       531	8000039c	fff6d8e3	bge	x13,x31,8000038c	 x13:0x00000001 x31:0xffffffed
        5335000	       532	00000000	00000013	addi	x0,x0,0	  x0:0x00000000
        5345000	       533	80000388	00000013	addi	x0,x0,0	  x0:0x00000000
        5355000	       534	8000038c	1e6cf993	andi	x19,x25,486	 x25:0xfffffde9 x19=0x000001e0
        5365000	       535	80000390	2a076a97	auipc	x21,0x2a076	 x21=0xaa07638c
        5375000	       536	80000394	400a3c13	sltiu	x24,x20,1024	 x20:0x0000000a x24=0x00000001
        5385000	       537	80000398	fff68693	addi	x13,x13,-1	 x13:0x00000001 x13=0x00000000
        5395000	       538	8000039c	fff6d8e3	bge	x13,x31,8000038c	 x13:0x00000000 x31:0xffffffed
        5405000	       539	00000000	00000013	addi	x0,x0,0	  x0:0x00000000
        5415000	       540	80000388	00000013	addi	x0,x0,0	  x0:0x00000000
        5425000	       541	8000038c	1e6cf993	andi	x19,x25,486	 x25:0xfffffde9 x19=0x000001e0
        5435000	       542	80000390	2a076a97	auipc	x21,0x2a076	 x21=0xaa07638c
        5445000	       543	80000394	400a3c13	sltiu	x24,x20,1024	 x20:0x0000000a x24=0x00000001
        5455000	       544	80000398	fff68693	addi	x13,x13,-1	 x13:0x00000000 x13=0xffffffff
        5465000	       545	8000039c	fff6d8e3	bge	x13,x31,8000038c	 x13:0xffffffff x31:0xffffffed
        5475000	       546	00000000	00000013	addi	x0,x0,0	  x0:0x00000000
        5485000	       547	80000388	00000013	addi	x0,x0,0	  x0:0x00000000
        5495000	       548	8000038c	1e6cf993	andi	x19,x25,486	 x25:0xfffffde9 x19=0x000001e0
        5505000	       549	80000390	2a076a97	auipc	x21,0x2a076	 x21=0xaa07638c
        5515000	       550	80000394	400a3c13	sltiu	x24,x20,1024	 x20:0x0000000a x24=0x00000001
        5525000	       551	80000398	fff68693	addi	x13,x13,-1	 x13:0xffffffff x13=0xfffffffe
        5535000	       552	8000039c	fff6d8e3	bge	x13,x31,8000038c	 x13:0xfffffffe x31:0xffffffed
        5545000	       553	00000000	00000013	addi	x0,x0,0	  x0:0x00000000
        5555000	       554	80000388	00000013	addi	x0,x0,0	  x0:0x00000000
        5565000	       555	8000038c	1e6cf993	andi	x19,x25,486	 x25:0xfffffde9 x19=0x000001e0
        5575000	       556	80000390	2a076a97	auipc	x21,0x2a076	 x21=0xaa07638c
        5585000	       557	80000394	400a3c13	sltiu	x24,x20,1024	 x20:0x0000000a x24=0x00000001
        5595000	       558	80000398	fff68693	addi	x13,x13,-1	 x13:0xfffffffe x13=0xfffffffd
        5605000	       559	8000039c	fff6d8e3	bge	x13,x31,8000038c	 x13:0xfffffffd x31:0xffffffed
        5615000	       560	00000000	00000013	addi	x0,x0,0	  x0:0x00000000
        5625000	       561	80000388	00000013	addi	x0,x0,0	  x0:0x00000000
        5635000	       562	8000038c	1e6cf993	andi	x19,x25,486	 x25:0xfffffde9 x19=0x000001e0
        5645000	       563	80000390	2a076a97	auipc	x21,0x2a076	 x21=0xaa07638c
        5655000	       564	80000394	400a3c13	sltiu	x24,x20,1024	 x20:0x0000000a x24=0x00000001
        5665000	       565	80000398	fff68693	addi	x13,x13,-1	 x13:0xfffffffd x13=0xfffffffc
        5675000	       566	8000039c	fff6d8e3	bge	x13,x31,8000038c	 x13:0xfffffffc x31:0xffffffed
        5685000	       567	00000000	00000013	addi	x0,x0,0	  x0:0x00000000
        5695000	       568	80000388	00000013	addi	x0,x0,0	  x0:0x00000000
        5705000	       569	8000038c	1e6cf993	andi	x19,x25,486	 x25:0xfffffde9 x19=0x000001e0
        5715000	       570	80000390	2a076a97	auipc	x21,0x2a076	 x21=0xaa07638c
        5725000	       571	80000394	400a3c13	sltiu	x24,x20,1024	 x20:0x0000000a x24=0x00000001
        5735000	       572	80000398	fff68693	addi	x13,x13,-1	 x13:0xfffffffc x13=0xfffffffb
        5745000	       573	8000039c	fff6d8e3	bge	x13,x31,8000038c	 x13:0xfffffffb x31:0xffffffed
        5755000	       574	00000000	00000013	addi	x0,x0,0	  x0:0x00000000
        5765000	       575	80000388	00000013	addi	x0,x0,0	  x0:0x00000000
        5775000	       576	8000038c	1e6cf993	andi	x19,x25,486	 x25:0xfffffde9 x19=0x000001e0
        5785000	       577	80000390	2a076a97	auipc	x21,0x2a076	 x21=0xaa07638c
        5795000	       578	80000394	400a3c13	sltiu	x24,x20,1024	 x20:0x0000000a x24=0x00000001
        5805000	       579	80000398	fff68693	addi	x13,x13,-1	 x13:0xfffffffb x13=0xfffffffa
        5815000	       580	8000039c	fff6d8e3	bge	x13,x31,8000038c	 x13:0xfffffffa x31:0xffffffed
        5825000	       581	00000000	00000013	addi	x0,x0,0	  x0:0x00000000
        5835000	       582	80000388	00000013	addi	x0,x0,0	  x0:0x00000000
        5845000	       583	8000038c	1e6cf993	andi	x19,x25,486	 x25:0xfffffde9 x19=0x000001e0
        5855000	       584	80000390	2a076a97	auipc	x21,0x2a076	 x21=0xaa07638c
        5865000	       585	80000394	400a3c13	sltiu	x24,x20,1024	 x20:0x0000000a x24=0x00000001
        5875000	       586	80000398	fff68693	addi	x13,x13,-1	 x13:0xfffffffa x13=0xfffffff9
        5885000	       587	8000039c	fff6d8e3	bge	x13,x31,8000038c	 x13:0xfffffff9 x31:0xffffffed
        5895000	       588	00000000	00000013	addi	x0,x0,0	  x0:0x00000000
        5905000	       589	80000388	00000013	addi	x0,x0,0	  x0:0x00000000
        5915000	       590	8000038c	1e6cf993	andi	x19,x25,486	 x25:0xfffffde9 x19=0x000001e0
        5925000	       591	80000390	2a076a97	auipc	x21,0x2a076	 x21=0xaa07638c
        5935000	       592	80000394	400a3c13	sltiu	x24,x20,1024	 x20:0x0000000a x24=0x00000001
        5945000	       593	80000398	fff68693	addi	x13,x13,-1	 x13:0xfffffff9 x13=0xfffffff8
        5955000	       594	8000039c	fff6d8e3	bge	x13,x31,8000038c	 x13:0xfffffff8 x31:0xffffffed
        5965000	       595	00000000	00000013	addi	x0,x0,0	  x0:0x00000000
        5975000	       596	80000388	00000013	addi	x0,x0,0	  x0:0x00000000
        5985000	       597	8000038c	1e6cf993	andi	x19,x25,486	 x25:0xfffffde9 x19=0x000001e0
        5995000	       598	80000390	2a076a97	auipc	x21,0x2a076	 x21=0xaa07638c
        6005000	       599	80000394	400a3c13	sltiu	x24,x20,1024	 x20:0x0000000a x24=0x00000001
        6015000	       600	80000398	fff68693	addi	x13,x13,-1	 x13:0xfffffff8 x13=0xfffffff7
        6025000	       601	8000039c	fff6d8e3	bge	x13,x31,8000038c	 x13:0xfffffff7 x31:0xffffffed
        6035000	       602	00000000	00000013	addi	x0,x0,0	  x0:0x00000000
        6045000	       603	80000388	00000013	addi	x0,x0,0	  x0:0x00000000
        6055000	       604	8000038c	1e6cf993	andi	x19,x25,486	 x25:0xfffffde9 x19=0x000001e0
        6065000	       605	80000390	2a076a97	auipc	x21,0x2a076	 x21=0xaa07638c
        6075000	       606	80000394	400a3c13	sltiu	x24,x20,1024	 x20:0x0000000a x24=0x00000001
        6085000	       607	80000398	fff68693	addi	x13,x13,-1	 x13:0xfffffff7 x13=0xfffffff6
        6095000	       608	8000039c	fff6d8e3	bge	x13,x31,8000038c	 x13:0xfffffff6 x31:0xffffffed
        6105000	       609	00000000	00000013	addi	x0,x0,0	  x0:0x00000000
        6115000	       610	80000388	00000013	addi	x0,x0,0	  x0:0x00000000
        6125000	       611	8000038c	1e6cf993	andi	x19,x25,486	 x25:0xfffffde9 x19=0x000001e0
        6135000	       612	80000390	2a076a97	auipc	x21,0x2a076	 x21=0xaa07638c
        6145000	       613	80000394	400a3c13	sltiu	x24,x20,1024	 x20:0x0000000a x24=0x00000001
        6155000	       614	80000398	fff68693	addi	x13,x13,-1	 x13:0xfffffff6 x13=0xfffffff5
        6165000	       615	8000039c	fff6d8e3	bge	x13,x31,8000038c	 x13:0xfffffff5 x31:0xffffffed
        6175000	       616	00000000	00000013	addi	x0,x0,0	  x0:0x00000000
        6185000	       617	80000388	00000013	addi	x0,x0,0	  x0:0x00000000
        6195000	       618	8000038c	1e6cf993	andi	x19,x25,486	 x25:0xfffffde9 x19=0x000001e0
        6205000	       619	80000390	2a076a97	auipc	x21,0x2a076	 x21=0xaa07638c
        6215000	       620	80000394	400a3c13	sltiu	x24,x20,1024	 x20:0x0000000a x24=0x00000001
        6225000	       621	80000398	fff68693	addi	x13,x13,-1	 x13:0xfffffff5 x13=0xfffffff4
        6235000	       622	8000039c	fff6d8e3	bge	x13,x31,8000038c	 x13:0xfffffff4 x31:0xffffffed
        6245000	       623	00000000	00000013	addi	x0,x0,0	  x0:0x00000000
        6255000	       624	80000388	00000013	addi	x0,x0,0	  x0:0x00000000
        6265000	       625	8000038c	1e6cf993	andi	x19,x25,486	 x25:0xfffffde9 x19=0x000001e0
        6275000	       626	80000390	2a076a97	auipc	x21,0x2a076	 x21=0xaa07638c
        6285000	       627	80000394	400a3c13	sltiu	x24,x20,1024	 x20:0x0000000a x24=0x00000001
        6295000	       628	80000398	fff68693	addi	x13,x13,-1	 x13:0xfffffff4 x13=0xfffffff3
        6305000	       629	8000039c	fff6d8e3	bge	x13,x31,8000038c	 x13:0xfffffff3 x31:0xffffffed
        6315000	       630	00000000	00000013	addi	x0,x0,0	  x0:0x00000000
        6325000	       631	80000388	00000013	addi	x0,x0,0	  x0:0x00000000
        6335000	       632	8000038c	1e6cf993	andi	x19,x25,486	 x25:0xfffffde9 x19=0x000001e0
        6345000	       633	80000390	2a076a97	auipc	x21,0x2a076	 x21=0xaa07638c
        6355000	       634	80000394	400a3c13	sltiu	x24,x20,1024	 x20:0x0000000a x24=0x00000001
        6365000	       635	80000398	fff68693	addi	x13,x13,-1	 x13:0xfffffff3 x13=0xfffffff2
        6375000	       636	8000039c	fff6d8e3	bge	x13,x31,8000038c	 x13:0xfffffff2 x31:0xffffffed
        6385000	       637	00000000	00000013	addi	x0,x0,0	  x0:0x00000000
        6395000	       638	80000388	00000013	addi	x0,x0,0	  x0:0x00000000
        6405000	       639	8000038c	1e6cf993	andi	x19,x25,486	 x25:0xfffffde9 x19=0x000001e0
        6415000	       640	80000390	2a076a97	auipc	x21,0x2a076	 x21=0xaa07638c
        6425000	       641	80000394	400a3c13	sltiu	x24,x20,1024	 x20:0x0000000a x24=0x00000001
        6435000	       642	80000398	fff68693	addi	x13,x13,-1	 x13:0xfffffff2 x13=0xfffffff1
        6445000	       643	8000039c	fff6d8e3	bge	x13,x31,8000038c	 x13:0xfffffff1 x31:0xffffffed
        6455000	       644	00000000	00000013	addi	x0,x0,0	  x0:0x00000000
        6465000	       645	80000388	00000013	addi	x0,x0,0	  x0:0x00000000
        6475000	       646	8000038c	1e6cf993	andi	x19,x25,486	 x25:0xfffffde9 x19=0x000001e0
        6485000	       647	80000390	2a076a97	auipc	x21,0x2a076	 x21=0xaa07638c
        6495000	       648	80000394	400a3c13	sltiu	x24,x20,1024	 x20:0x0000000a x24=0x00000001
        6505000	       649	80000398	fff68693	addi	x13,x13,-1	 x13:0xfffffff1 x13=0xfffffff0
        6515000	       650	8000039c	fff6d8e3	bge	x13,x31,8000038c	 x13:0xfffffff0 x31:0xffffffed
        6525000	       651	00000000	00000013	addi	x0,x0,0	  x0:0x00000000
        6535000	       652	80000388	00000013	addi	x0,x0,0	  x0:0x00000000
        6545000	       653	8000038c	1e6cf993	andi	x19,x25,486	 x25:0xfffffde9 x19=0x000001e0
        6555000	       654	80000390	2a076a97	auipc	x21,0x2a076	 x21=0xaa07638c
        6565000	       655	80000394	400a3c13	sltiu	x24,x20,1024	 x20:0x0000000a x24=0x00000001
        6575000	       656	80000398	fff68693	addi	x13,x13,-1	 x13:0xfffffff0 x13=0xffffffef
        6585000	       657	8000039c	fff6d8e3	bge	x13,x31,8000038c	 x13:0xffffffef x31:0xffffffed
        6595000	       658	00000000	00000013	addi	x0,x0,0	  x0:0x00000000
        6605000	       659	80000388	00000013	addi	x0,x0,0	  x0:0x00000000
        6615000	       660	8000038c	1e6cf993	andi	x19,x25,486	 x25:0xfffffde9 x19=0x000001e0
        6625000	       661	80000390	2a076a97	auipc	x21,0x2a076	 x21=0xaa07638c
        6635000	       662	80000394	400a3c13	sltiu	x24,x20,1024	 x20:0x0000000a x24=0x00000001
        6645000	       663	80000398	fff68693	addi	x13,x13,-1	 x13:0xffffffef x13=0xffffffee
        6655000	       664	8000039c	fff6d8e3	bge	x13,x31,8000038c	 x13:0xffffffee x31:0xffffffed
        6665000	       665	00000000	00000013	addi	x0,x0,0	  x0:0x00000000
        6675000	       666	80000388	00000013	addi	x0,x0,0	  x0:0x00000000
        6685000	       667	8000038c	1e6cf993	andi	x19,x25,486	 x25:0xfffffde9 x19=0x000001e0
        6695000	       668	80000390	2a076a97	auipc	x21,0x2a076	 x21=0xaa07638c
        6705000	       669	80000394	400a3c13	sltiu	x24,x20,1024	 x20:0x0000000a x24=0x00000001
        6715000	       670	80000398	fff68693	addi	x13,x13,-1	 x13:0xffffffee x13=0xffffffed
        6725000	       671	8000039c	fff6d8e3	bge	x13,x31,8000038c	 x13:0xffffffed x31:0xffffffed
        6735000	       672	00000000	00000013	addi	x0,x0,0	  x0:0x00000000
        6745000	       673	80000388	00000013	addi	x0,x0,0	  x0:0x00000000
        6755000	       674	8000038c	1e6cf993	andi	x19,x25,486	 x25:0xfffffde9 x19=0x000001e0
        6765000	       675	80000390	2a076a97	auipc	x21,0x2a076	 x21=0xaa07638c
        6775000	       676	80000394	400a3c13	sltiu	x24,x20,1024	 x20:0x0000000a x24=0x00000001
        6785000	       677	80000398	fff68693	addi	x13,x13,-1	 x13:0xffffffed x13=0xffffffec
        6795000	       678	8000039c	fff6d8e3	bge	x13,x31,8000038c	 x13:0xffffffec x31:0xffffffed
        6805000	       679	800003a0	409900b3	sub	x1,x18,x9	 x18:0x00000000  x9:0x8000a233  x1=0x7fff5dcd
        6815000	       680	800003a4	01579493	slli	x9,x15,0x15	 x15:0x2de7eb2c  x9=0x65800000
        6825000	       681	800003a8	005ef9b3	and	x19,x29,x5	 x29:0x00000000  x5:0x0000000d x19=0x00000000
        6835000	       682	800003ac	00b99cb3	sll	x25,x19,x11	 x19:0x00000000 x11:0x00000000 x25=0x00000000
        6845000	       683	800003b0	406a0e33	sub	x28,x20,x6	 x20:0x0000000a  x6:0x00000003 x28=0x00000007
        6855000	       684	800003b4	409703b3	sub	x7,x14,x9	 x14:0xffffffff  x9:0x65800000  x7=0x9a7fffff
        6865000	       685	800003b8	fa667ce3	bgeu	x12,x6,80000370	 x12:0x00000002  x6:0x00000003
        6875000	       686	800003bc	013661b3	or	x3,x12,x19	 x12:0x00000002 x19:0x00000000  x3=0x00000002
        6885000	       687	800003c0	00500c13	addi	x24,x0,5	  x0:0x00000000 x24=0x00000005
        6895000	       688	800003c4	01d0b6b3	sltu	x13,x1,x29	  x1:0x7fff5dcd x29:0x00000000 x13=0x00000000
        6905000	       689	800003c8	00000013	addi	x0,x0,0	  x0:0x00000000
        6915000	       690	800003cc	f3677013	andi	x0,x14,-202	 x14:0xffffffff
        6925000	       691	800003d0	00f00893	addi	x17,x0,15	  x0:0x00000000 x17=0x0000000f
        6935000	       692	800003d4	00000013	addi	x0,x0,0	  x0:0x00000000
        6945000	       693	800003d8	dd1e7a97	auipc	x21,0xdd1e7	 x21=0x5d1e73d4
        6955000	       694	800003dc	011e1bb3	sll	x23,x28,x17	 x28:0x00000007 x17:0x0000000f x23=0x00038000
        6965000	       695	800003e0	00000013	addi	x0,x0,0	  x0:0x00000000
        6975000	       696	800003e4	dcc65db7	lui	x27,0xdcc65	 x27=0xdcc65000
        6985000	       697	800003e8	afbd4013	xori	x0,x26,-1285	 x26:0x00000276
        6995000	       698	800003ec	40aa5233	sra	x4,x20,x10	 x20:0x0000000a x10:0x00000000  x4=0x0000000a
        7005000	       699	800003f0	e8a60413	addi	x8,x12,-374	 x12:0x00000002  x8=0xfffffe8c
        7015000	       700	800003f4	003c0c13	addi	x24,x24,3	 x24:0x00000005 x24=0x00000008
        7025000	       701	800003f8	006917b3	sll	x15,x18,x6	 x18:0x00000000  x6:0x00000003 x15=0x00000000
        7035000	       702	800003fc	0056c933	xor	x18,x13,x5	 x13:0x00000000  x5:0x0000000d x18=0x0000000d
        7045000	       703	80000400	fe107a13	andi	x20,x0,-31	  x0:0x00000000 x20=0x00000000
        7055000	       704	80000404	41cbd913	srai	x18,x23,0x1c	 x23:0x00038000 x18=0x00000000
        7065000	       705	80000408	000b4533	xor	x10,x22,x0	 x22:0x0000000d  x0:0x00000000 x10=0x0000000d
        7075000	       706	8000040c	015c5693	srli	x13,x24,0x15	 x24:0x00000008 x13=0x00000000
        7085000	       707	80000410	59fef713	andi	x14,x29,1439	 x29:0x00000000 x14=0x00000000
        7095000	       708	80000414	00e550b3	srl	x1,x10,x14	 x10:0x0000000d x14:0x00000000  x1=0x0000000d
        7105000	       709	80000418	54503993	sltiu	x19,x0,1349	  x0:0x00000000 x19=0x00000001
        7115000	       710	8000041c	4a384713	xori	x14,x16,1187	 x16:0x80009fc4 x14=0x80009b67
        7125000	       711	80000420	2bc4fe93	andi	x29,x9,700	  x9:0x65800000 x29=0x00000000
        7135000	       712	80000424	fb1c68e3	bltu	x24,x17,800003d4	 x24:0x00000008 x17:0x0000000f
        7145000	       713	00000000	00000013	addi	x0,x0,0	  x0:0x00000000
        7155000	       714	800003d0	00000013	addi	x0,x0,0	  x0:0x00000000
        7165000	       715	800003d4	00000013	addi	x0,x0,0	  x0:0x00000000
        7175000	       716	800003d8	dd1e7a97	auipc	x21,0xdd1e7	 x21=0x5d1e73d4
        7185000	       717	800003dc	011e1bb3	sll	x23,x28,x17	 x28:0x00000007 x17:0x0000000f x23=0x00038000
        7195000	       718	800003e0	00000013	addi	x0,x0,0	  x0:0x00000000
        7205000	       719	800003e4	dcc65db7	lui	x27,0xdcc65	 x27=0xdcc65000
        7215000	       720	800003e8	afbd4013	xori	x0,x26,-1285	 x26:0x00000276
        7225000	       721	800003ec	40aa5233	sra	x4,x20,x10	 x20:0x00000000 x10:0x0000000d  x4=0x00000000
        7235000	       722	800003f0	e8a60413	addi	x8,x12,-374	 x12:0x00000002  x8=0xfffffe8c
        7245000	       723	800003f4	003c0c13	addi	x24,x24,3	 x24:0x00000008 x24=0x0000000b
        7255000	       724	800003f8	006917b3	sll	x15,x18,x6	 x18:0x00000000  x6:0x00000003 x15=0x00000000
        7265000	       725	800003fc	0056c933	xor	x18,x13,x5	 x13:0x00000000  x5:0x0000000d x18=0x0000000d
        7275000	       726	80000400	fe107a13	andi	x20,x0,-31	  x0:0x00000000 x20=0x00000000
        7285000	       727	80000404	41cbd913	srai	x18,x23,0x1c	 x23:0x00038000 x18=0x00000000
        7295000	       728	80000408	000b4533	xor	x10,x22,x0	 x22:0x0000000d  x0:0x00000000 x10=0x0000000d
        7305000	       729	8000040c	015c5693	srli	x13,x24,0x15	 x24:0x0000000b x13=0x00000000
        7315000	       730	80000410	59fef713	andi	x14,x29,1439	 x29:0x00000000 x14=0x00000000
        7325000	       731	80000414	00e550b3	srl	x1,x10,x14	 x10:0x0000000d x14:0x00000000  x1=0x0000000d
        7335000	       732	80000418	54503993	sltiu	x19,x0,1349	  x0:0x00000000 x19=0x00000001
        7345000	       733	8000041c	4a384713	xori	x14,x16,1187	 x16:0x80009fc4 x14=0x80009b67
        7355000	       734	80000420	2bc4fe93	andi	x29,x9,700	  x9:0x65800000 x29=0x00000000
        7365000	       735	80000424	fb1c68e3	bltu	x24,x17,800003d4	 x24:0x0000000b x17:0x0000000f
        7375000	       736	00000000	00000013	addi	x0,x0,0	  x0:0x00000000
        7385000	       737	800003d0	00000013	addi	x0,x0,0	  x0:0x00000000
        7395000	       738	800003d4	00000013	addi	x0,x0,0	  x0:0x00000000
        7405000	       739	800003d8	dd1e7a97	auipc	x21,0xdd1e7	 x21=0x5d1e73d4
        7415000	       740	800003dc	011e1bb3	sll	x23,x28,x17	 x28:0x00000007 x17:0x0000000f x23=0x00038000
        7425000	       741	800003e0	00000013	addi	x0,x0,0	  x0:0x00000000
        7435000	       742	800003e4	dcc65db7	lui	x27,0xdcc65	 x27=0xdcc65000
        7445000	       743	800003e8	afbd4013	xori	x0,x26,-1285	 x26:0x00000276
        7455000	       744	800003ec	40aa5233	sra	x4,x20,x10	 x20:0x00000000 x10:0x0000000d  x4=0x00000000
        7465000	       745	800003f0	e8a60413	addi	x8,x12,-374	 x12:0x00000002  x8=0xfffffe8c
        7475000	       746	800003f4	003c0c13	addi	x24,x24,3	 x24:0x0000000b x24=0x0000000e
        7485000	       747	800003f8	006917b3	sll	x15,x18,x6	 x18:0x00000000  x6:0x00000003 x15=0x00000000
        7495000	       748	800003fc	0056c933	xor	x18,x13,x5	 x13:0x00000000  x5:0x0000000d x18=0x0000000d
        7505000	       749	80000400	fe107a13	andi	x20,x0,-31	  x0:0x00000000 x20=0x00000000
        7515000	       750	80000404	41cbd913	srai	x18,x23,0x1c	 x23:0x00038000 x18=0x00000000
        7525000	       751	80000408	000b4533	xor	x10,x22,x0	 x22:0x0000000d  x0:0x00000000 x10=0x0000000d
        7535000	       752	8000040c	015c5693	srli	x13,x24,0x15	 x24:0x0000000e x13=0x00000000
        7545000	       753	80000410	59fef713	andi	x14,x29,1439	 x29:0x00000000 x14=0x00000000
        7555000	       754	80000414	00e550b3	srl	x1,x10,x14	 x10:0x0000000d x14:0x00000000  x1=0x0000000d
        7565000	       755	80000418	54503993	sltiu	x19,x0,1349	  x0:0x00000000 x19=0x00000001
        7575000	       756	8000041c	4a384713	xori	x14,x16,1187	 x16:0x80009fc4 x14=0x80009b67
        7585000	       757	80000420	2bc4fe93	andi	x29,x9,700	  x9:0x65800000 x29=0x00000000
        7595000	       758	80000424	fb1c68e3	bltu	x24,x17,800003d4	 x24:0x0000000e x17:0x0000000f
        7605000	       759	00000000	00000013	addi	x0,x0,0	  x0:0x00000000
        7615000	       760	800003d0	00000013	addi	x0,x0,0	  x0:0x00000000
        7625000	       761	800003d4	00000013	addi	x0,x0,0	  x0:0x00000000
        7635000	       762	800003d8	dd1e7a97	auipc	x21,0xdd1e7	 x21=0x5d1e73d4
        7645000	       763	800003dc	011e1bb3	sll	x23,x28,x17	 x28:0x00000007 x17:0x0000000f x23=0x00038000
        7655000	       764	800003e0	00000013	addi	x0,x0,0	  x0:0x00000000
        7665000	       765	800003e4	dcc65db7	lui	x27,0xdcc65	 x27=0xdcc65000
        7675000	       766	800003e8	afbd4013	xori	x0,x26,-1285	 x26:0x00000276
        7685000	       767	800003ec	40aa5233	sra	x4,x20,x10	 x20:0x00000000 x10:0x0000000d  x4=0x00000000
        7695000	       768	800003f0	e8a60413	addi	x8,x12,-374	 x12:0x00000002  x8=0xfffffe8c
        7705000	       769	800003f4	003c0c13	addi	x24,x24,3	 x24:0x0000000e x24=0x00000011
        7715000	       770	800003f8	006917b3	sll	x15,x18,x6	 x18:0x00000000  x6:0x00000003 x15=0x00000000
        7725000	       771	800003fc	0056c933	xor	x18,x13,x5	 x13:0x00000000  x5:0x0000000d x18=0x0000000d
        7735000	       772	80000400	fe107a13	andi	x20,x0,-31	  x0:0x00000000 x20=0x00000000
        7745000	       773	80000404	41cbd913	srai	x18,x23,0x1c	 x23:0x00038000 x18=0x00000000
        7755000	       774	80000408	000b4533	xor	x10,x22,x0	 x22:0x0000000d  x0:0x00000000 x10=0x0000000d
        7765000	       775	8000040c	015c5693	srli	x13,x24,0x15	 x24:0x00000011 x13=0x00000000
        7775000	       776	80000410	59fef713	andi	x14,x29,1439	 x29:0x00000000 x14=0x00000000
        7785000	       777	80000414	00e550b3	srl	x1,x10,x14	 x10:0x0000000d x14:0x00000000  x1=0x0000000d
        7795000	       778	80000418	54503993	sltiu	x19,x0,1349	  x0:0x00000000 x19=0x00000001
        7805000	       779	8000041c	4a384713	xori	x14,x16,1187	 x16:0x80009fc4 x14=0x80009b67
        7815000	       780	80000420	2bc4fe93	andi	x29,x9,700	  x9:0x65800000 x29=0x00000000
        7825000	       781	80000424	fb1c68e3	bltu	x24,x17,800003d4	 x24:0x00000011 x17:0x0000000f
        7835000	       782	80000428	01080f33	add	x30,x16,x16	 x16:0x80009fc4 x16:0x80009fc4 x30=0x00013f88
        7845000	       783	8000042c	00200513	addi	x10,x0,2	  x0:0x00000000 x10=0x00000002
        7855000	       784	80000430	00c00a13	addi	x20,x0,12	  x0:0x00000000 x20=0x0000000c
        7865000	       785	80000434	0140c333	xor	x6,x1,x20	  x1:0x0000000d x20:0x0000000c  x6=0x00000001
        7875000	       786	80000438	00a50513	addi	x10,x10,10	 x10:0x00000002 x10=0x0000000c
        7885000	       787	8000043c	00600a93	addi	x21,x0,6	  x0:0x00000000 x21=0x00000006
        7895000	       788	80000440	ffa00693	addi	x13,x0,-6	  x0:0x00000000 x13=0xfffffffa
        7905000	       789	80000444	60bd0b13	addi	x22,x26,1547	 x26:0x00000276 x22=0x00000881
        7915000	       790	80000448	ff7a8a93	addi	x21,x21,-9	 x21:0x00000006 x21=0xfffffffd
        7925000	       791	8000044c	fedadce3	bge	x21,x13,80000444	 x21:0xfffffffd x13:0xfffffffa
        7935000	       792	00000000	00000013	addi	x0,x0,0	  x0:0x00000000
        7945000	       793	80000440	00000013	addi	x0,x0,0	  x0:0x00000000
        7955000	       794	80000444	60bd0b13	addi	x22,x26,1547	 x26:0x00000276 x22=0x00000881
        7965000	       795	80000448	ff7a8a93	addi	x21,x21,-9	 x21:0xfffffffd x21=0xfffffff4
        7975000	       796	8000044c	fedadce3	bge	x21,x13,80000444	 x21:0xfffffff4 x13:0xfffffffa
        7985000	       797	80000450	ff4502e3	beq	x10,x20,80000434	 x10:0x0000000c x20:0x0000000c
        7995000	       798	00000000	00000013	addi	x0,x0,0	  x0:0x00000000
        8005000	       799	80000430	00000013	addi	x0,x0,0	  x0:0x00000000
        8015000	       800	80000434	0140c333	xor	x6,x1,x20	  x1:0x0000000d x20:0x0000000c  x6=0x00000001
        8025000	       801	80000438	00a50513	addi	x10,x10,10	 x10:0x0000000c x10=0x00000016
        8035000	       802	8000043c	00600a93	addi	x21,x0,6	  x0:0x00000000 x21=0x00000006
        8045000	       803	80000440	ffa00693	addi	x13,x0,-6	  x0:0x00000000 x13=0xfffffffa
        8055000	       804	80000444	60bd0b13	addi	x22,x26,1547	 x26:0x00000276 x22=0x00000881
        8065000	       805	80000448	ff7a8a93	addi	x21,x21,-9	 x21:0x00000006 x21=0xfffffffd
        8075000	       806	8000044c	fedadce3	bge	x21,x13,80000444	 x21:0xfffffffd x13:0xfffffffa
        8085000	       807	00000000	00000013	addi	x0,x0,0	  x0:0x00000000
        8095000	       808	80000440	00000013	addi	x0,x0,0	  x0:0x00000000
        8105000	       809	80000444	60bd0b13	addi	x22,x26,1547	 x26:0x00000276 x22=0x00000881
        8115000	       810	80000448	ff7a8a93	addi	x21,x21,-9	 x21:0xfffffffd x21=0xfffffff4
        8125000	       811	8000044c	fedadce3	bge	x21,x13,80000444	 x21:0xfffffff4 x13:0xfffffffa
        8135000	       812	80000450	ff4502e3	beq	x10,x20,80000434	 x10:0x00000016 x20:0x0000000c
        8145000	       813	80000454	018a1c33	sll	x24,x20,x24	 x20:0x0000000c x24:0x00000011 x24=0x00180000
        8155000	       814	80000458	f0184c13	xori	x24,x16,-255	 x16:0x80009fc4 x24=0x7fff60c5
        8165000	       815	8000045c	01177f33	and	x30,x14,x17	 x14:0x80009b67 x17:0x0000000f x30=0x00000007
        8175000	       816	80000460	0167fa63	bgeu	x15,x22,80000474	 x15:0x00000000 x22:0x00000881
        8185000	       817	80000464	42804a13	xori	x20,x0,1064	  x0:0x00000000 x20=0x00000428
        8195000	       818	80000468	03027c63	bgeu	x4,x16,800004a0	  x4:0x00000000 x16:0x80009fc4
        8205000	       819	8000046c	01773033	sltu	x0,x14,x23	 x14:0x80009b67 x23:0x00038000
        8215000	       820	80000470	01961e33	sll	x28,x12,x25	 x12:0x00000002 x25:0x00000000 x28=0x00000002
        8225000	       821	80000474	40328033	sub	x0,x5,x3	  x5:0x0000000d  x3:0x00000002
        8235000	       822	80000478	00de2033	slt	x0,x28,x13	 x28:0x00000002 x13:0xfffffffa
        8245000	       823	8000047c	4052d433	sra	x8,x5,x5	  x5:0x0000000d  x5:0x0000000d  x8=0x00000000
        8255000	       824	80000480	407f5b33	sra	x22,x30,x7	 x30:0x00000007  x7:0x9a7fffff x22=0x00000000
        8265000	       825	80000484	009baeb3	slt	x29,x23,x9	 x23:0x00038000  x9:0x65800000 x29=0x00000001
        8275000	       826	80000488	038cc063	blt	x25,x24,800004a8	 x25:0x00000000 x24:0x7fff60c5
        8285000	       827	00000000	00000013	addi	x0,x0,0	  x0:0x00000000
        8295000	       828	800004a4	00000013	addi	x0,x0,0	  x0:0x00000000
        8305000	       829	800004a8	5477a0b7	lui	x1,0x5477a	  x1=0x5477a000
        8315000	       830	800004ac	01671c33	sll	x24,x14,x22	 x14:0x80009b67 x22:0x00000000 x24=0x80009b67
        8325000	       831	800004b0	90c4fb93	andi	x23,x9,-1780	  x9:0x65800000 x23=0x65800000
        8335000	       832	800004b4	9d0d7093	andi	x1,x26,-1584	 x26:0x00000276  x1=0x00000050
        8345000	       833	800004b8	e16cdb37	lui	x22,0xe16cd	 x22=0xe16cd000
        8355000	       834	800004bc	86bcb613	sltiu	x12,x25,-1941	 x25:0x00000000 x12=0x00000001
        8365000	       835	800004c0	1cb4eeb7	lui	x29,0x1cb4e	 x29=0x1cb4e000
        8375000	       836	800004c4	00000013	addi	x0,x0,0	  x0:0x00000000
        8385000	       837	800004c8	054ef663	bgeu	x29,x20,80000514	 x29:0x1cb4e000 x20:0x00000428
        8395000	       838	00000000	00000013	addi	x0,x0,0	  x0:0x00000000
        8405000	       839	80000510	00000013	addi	x0,x0,0	  x0:0x00000000
        8415000	       840	80000514	00075693	srli	x13,x14,0x0	 x14:0x80009b67 x13=0x80009b67
        8425000	       841	80000518	000afcb3	and	x25,x21,x0	 x21:0xfffffff4  x0:0x00000000 x25=0x00000000
        8435000	       842	8000051c	00dc1493	slli	x9,x24,0xd	 x24:0x80009b67  x9=0x136ce000
        8445000	       843	80000520	01886e63	bltu	x16,x24,8000053c	 x16:0x80009fc4 x24:0x80009b67
        8455000	       844	80000524	4159d8b3	sra	x17,x19,x21	 x19:0x00000001 x21:0xfffffff4 x17=0x00000000
        8465000	       845	80000528	15e13a13	sltiu	x20,x2,350	  x2:0x80009f84 x20=0x00000000
        8475000	       846	8000052c	008ab3b3	sltu	x7,x21,x8	 x21:0xfffffff4  x8:0x00000000  x7=0x00000000
        8485000	       847	80000530	01dbeab3	or	x21,x23,x29	 x23:0x65800000 x29:0x1cb4e000 x21=0x7db4e000
        8495000	       848	80000534	d74e8d93	addi	x27,x29,-652	 x29:0x1cb4e000 x27=0x1cb4dd74
        8505000	       849	80000538	6ff7a237	lui	x4,0x6ff7a	  x4=0x6ff7a000
        8515000	       850	8000053c	019be4b3	or	x9,x23,x25	 x23:0x65800000 x25:0x00000000  x9=0x65800000
        8525000	       851	80000540	029ccc63	blt	x25,x9,80000578	 x25:0x00000000  x9:0x65800000
        8535000	       852	00000000	00000013	addi	x0,x0,0	  x0:0x00000000
        8545000	       853	80000574	00000013	addi	x0,x0,0	  x0:0x00000000
        8555000	       854	80000578	018263b3	or	x7,x4,x24	  x4:0x6ff7a000 x24:0x80009b67  x7=0xeff7bb67
        8565000	       855	8000057c	41d85593	srai	x11,x16,0x1d	 x16:0x80009fc4 x11=0xfffffffc
        8575000	       856	80000580	00a77e63	bgeu	x14,x10,8000059c	 x14:0x80009b67 x10:0x00000016
        8585000	       857	00000000	00000013	addi	x0,x0,0	  x0:0x00000000
        8595000	       858	80000598	00000013	addi	x0,x0,0	  x0:0x00000000
        8605000	       859	8000059c	4060db33	sra	x22,x1,x6	  x1:0x00000050  x6:0x00000001 x22=0x00000028
        8615000	       860	800005a0	01925db3	srl	x27,x4,x25	  x4:0x6ff7a000 x25:0x00000000 x27=0x6ff7a000
        8625000	       861	800005a4	00000013	addi	x0,x0,0	  x0:0x00000000
        8635000	       862	800005a8	01a28863	beq	x5,x26,800005b8	  x5:0x0000000d x26:0x00000276
        8645000	       863	800005ac	7ed98537	lui	x10,0x7ed98	 x10=0x7ed98000
        8655000	       864	800005b0	059f6463	bltu	x30,x25,800005f8	 x30:0x00000007 x25:0x00000000
        8665000	       865	800005b4	019ca0b3	slt	x1,x25,x25	 x25:0x00000000 x25:0x00000000  x1=0x00000000
        8675000	       866	800005b8	00cd7e63	bgeu	x26,x12,800005d4	 x26:0x00000276 x12:0x00000001
        8685000	       867	00000000	00000013	addi	x0,x0,0	  x0:0x00000000
        8695000	       868	800005d0	00000013	addi	x0,x0,0	  x0:0x00000000
        8705000	       869	800005d4	bf947237	lui	x4,0xbf947	  x4=0xbf947000
        8715000	       870	800005d8	016f4333	xor	x6,x30,x22	 x30:0x00000007 x22:0x00000028  x6=0x0000002f
        8725000	       871	800005dc	cc894213	xori	x4,x18,-824	 x18:0x00000000  x4=0xfffffcc8
        8735000	       872	800005e0	015770b3	and	x1,x14,x21	 x14:0x80009b67 x21:0x7db4e000  x1=0x00008000
        8745000	       873	800005e4	001671b3	and	x3,x12,x1	 x12:0x00000001  x1:0x00008000  x3=0x00000000
        8755000	       874	800005e8	019afeb3	and	x29,x21,x25	 x21:0x7db4e000 x25:0x00000000 x29=0x00000000
        8765000	       875	800005ec	00e5cd33	xor	x26,x11,x14	 x11:0xfffffffc x14:0x80009b67 x26=0x7fff649b
        8775000	       876	800005f0	00cdeab3	or	x21,x27,x12	 x27:0x6ff7a000 x12:0x00000001 x21=0x6ff7a001
        8785000	       877	800005f4	80ee6697	auipc	x13,0x80ee6	 x13=0x00ee65f0
        8795000	       878	800005f8	bf0a4693	xori	x13,x20,-1040	 x20:0x00000000 x13=0xfffffbf0
        8805000	       879	800005fc	4156dab3	sra	x21,x13,x21	 x13:0xfffffbf0 x21:0x6ff7a001 x21=0xfffffdf8
        8815000	       880	80000600	40dcdd93	srai	x27,x25,0xd	 x25:0x00000000 x27=0x00000000
        8825000	       881	80000604	04b64663	blt	x12,x11,80000650	 x12:0x00000001 x11:0xfffffffc
        8835000	       882	80000608	0120b6b3	sltu	x13,x1,x18	  x1:0x00008000 x18:0x00000000 x13=0x00000000
        8845000	       883	8000060c	03370a63	beq	x14,x19,80000640	 x14:0x80009b67 x19:0x00000001
        8855000	       884	80000610	01638333	add	x6,x7,x22	  x7:0xeff7bb67 x22:0x00000028  x6=0xeff7bb8f
        8865000	       885	80000614	01905a13	srli	x20,x0,0x19	  x0:0x00000000 x20=0x00000000
        8875000	       886	80000618	00005bb3	srl	x23,x0,x0	  x0:0x00000000  x0:0x00000000 x23=0x00000000
        8885000	       887	8000061c	40ce5093	srai	x1,x28,0xc	 x28:0x00000002  x1=0x00000000
        8895000	       888	80000620	ba65a537	lui	x10,0xba65a	 x10=0xba65a000
        8905000	       889	80000624	0297c263	blt	x15,x9,80000648	 x15:0x00000000  x9:0x65800000
        8915000	       890	00000000	00000013	addi	x0,x0,0	  x0:0x00000000
        8925000	       891	80000644	00000013	addi	x0,x0,0	  x0:0x00000000
        8935000	       892	80000648	01ac9033	sll	x0,x25,x26	 x25:0x00000000 x26:0x7fff649b
        8945000	       893	8000064c	2da9ba93	sltiu	x21,x19,730	 x19:0x00000001 x21=0x00000001
        8955000	       894	80000650	01b334b3	sltu	x9,x6,x27	  x6:0xeff7bb8f x27:0x00000000  x9=0x00000000
        8965000	       895	80000654	01df0ab3	add	x21,x30,x29	 x30:0x00000007 x29:0x00000000 x21=0x00000007
        8975000	       896	80000658	401fd6b3	sra	x13,x31,x1	 x31:0xffffffed  x1:0x00000000 x13=0xffffffed
        8985000	       897	8000065c	00000013	addi	x0,x0,0	  x0:0x00000000
        8995000	       898	80000660	00dad333	srl	x6,x21,x13	 x21:0x00000007 x13:0xffffffed  x6=0x00000000
        9005000	       899	80000664	0087b7b3	sltu	x15,x15,x8	 x15:0x00000000  x8:0x00000000 x15=0x00000000
        9015000	       900	80000668	020f5463	bge	x30,x0,80000690	 x30:0x00000007  x0:0x00000000
        9025000	       901	00000000	00000013	addi	x0,x0,0	  x0:0x00000000
        9035000	       902	8000068c	00000013	addi	x0,x0,0	  x0:0x00000000
        9045000	       903	80000690	0254cc63	blt	x9,x5,800006c8	  x9:0x00000000  x5:0x0000000d
        9055000	       904	00000000	00000013	addi	x0,x0,0	  x0:0x00000000
        9065000	       905	800006c4	00000013	addi	x0,x0,0	  x0:0x00000000
        9075000	       906	800006c8	40955913	srai	x18,x10,0x9	 x10:0xba65a000 x18=0xffdd32d0
        9085000	       907	800006cc	41c55613	srai	x12,x10,0x1c	 x10:0xba65a000 x12=0xfffffffb
        9095000	       908	800006d0	07366863	bltu	x12,x19,80000740	 x12:0xfffffffb x19:0x00000001
        9105000	       909	800006d4	5fe8b213	sltiu	x4,x17,1534	 x17:0x00000000  x4=0x00000001
        9115000	       910	800006d8	4a9908b7	lui	x17,0x4a990	 x17=0x4a990000
        9125000	       911	800006dc	0ce59c63	bne	x11,x14,800007b4	 x11:0xfffffffc x14:0x80009b67
        9135000	       912	00000000	00000013	addi	x0,x0,0	  x0:0x00000000
        9145000	       913	800007b0	00000013	addi	x0,x0,0	  x0:0x00000000
        9155000	       914	800007b4	030f4663	blt	x30,x16,800007e0	 x30:0x00000007 x16:0x80009fc4
        9165000	       915	800007b8	4144d413	srai	x8,x9,0x14	  x9:0x00000000  x8=0x00000000
        9175000	       916	800007bc	014a2db3	slt	x27,x20,x20	 x20:0x00000000 x20:0x00000000 x27=0x00000000
        9185000	       917	800007c0	00eb9413	slli	x8,x23,0xe	 x23:0x00000000  x8=0x00000000
        9195000	       918	800007c4	4166d893	srai	x17,x13,0x16	 x13:0xffffffed x17=0xffffffff
        9205000	       919	800007c8	41b75f13	srai	x30,x14,0x1b	 x14:0x80009b67 x30=0xfffffff0
        9215000	       920	800007cc	58506893	ori	x17,x0,1413	  x0:0x00000000 x17=0x00000585
        9225000	       921	800007d0	84c44713	xori	x14,x8,-1972	  x8:0x00000000 x14=0xfffff84c
        9235000	       922	800007d4	02261a63	bne	x12,x2,80000808	 x12:0xfffffffb  x2:0x80009f84
        9245000	       923	00000000	00000013	addi	x0,x0,0	  x0:0x00000000
        9255000	       924	80000804	00000013	addi	x0,x0,0	  x0:0x00000000
        9265000	       925	80000808	01eab7b3	sltu	x15,x21,x30	 x21:0x00000007 x30:0xfffffff0 x15=0x00000001
        9275000	       926	8000080c	93897093	andi	x1,x18,-1736	 x18:0xffdd32d0  x1=0xffdd3010
        9285000	       927	80000810	00fd2db3	slt	x27,x26,x15	 x26:0x7fff649b x15:0x00000001 x27=0x00000000
        9295000	       928	80000814	042ef663	bgeu	x29,x2,80000860	 x29:0x00000000  x2:0x80009f84
        9305000	       929	80000818	019d2c33	slt	x24,x26,x25	 x26:0x7fff649b x25:0x00000000 x24=0x00000000
        9315000	       930	8000081c	003f7633	and	x12,x30,x3	 x30:0xfffffff0  x3:0x00000000 x12=0x00000000
        9325000	       931	80000820	4102d533	sra	x10,x5,x16	  x5:0x0000000d x16:0x80009fc4 x10=0x00000000
        9335000	       932	80000824	2601bf93	sltiu	x31,x3,608	  x3:0x00000000 x31=0x00000001
        9345000	       933	80000828	14d23897	auipc	x17,0x14d23	 x17=0x94d23824
        9355000	       934	8000082c	bf320c13	addi	x24,x4,-1037	  x4:0x00000001 x24=0xfffffbf4
        9365000	       935	80000830	aaf6a393	slti	x7,x13,-1361	 x13:0xffffffed  x7=0x00000000
        9375000	       936	80000834	860e85b7	lui	x11,0x860e8	 x11=0x860e8000
        9385000	       937	80000838	015226b3	slt	x13,x4,x21	  x4:0x00000001 x21:0x00000007 x13=0x00000001
        9395000	       938	8000083c	01707b33	and	x22,x0,x23	  x0:0x00000000 x23:0x00000000 x22=0x00000000
        9405000	       939	80000840	00e9c9b3	xor	x19,x19,x14	 x19:0x00000001 x14:0xfffff84c x19=0xfffff84d
        9415000	       940	80000844	414356b3	sra	x13,x6,x20	  x6:0x00000000 x20:0x00000000 x13=0x00000000
        9425000	       941	80000848	8a59ce97	auipc	x29,0x8a59c	 x29=0x0a59c844
        9435000	       942	8000084c	40d65993	srai	x19,x12,0xd	 x12:0x00000000 x19=0x00000000
        9445000	       943	80000850	5f6cc613	xori	x12,x25,1526	 x25:0x00000000 x12=0x000005f6
        9455000	       944	80000854	49cf8013	addi	x0,x31,1180	 x31:0x00000001
        9465000	       945	80000858	01d6df33	srl	x30,x13,x29	 x13:0x00000000 x29:0x0a59c844 x30=0x00000000
        9475000	       946	8000085c	00e43933	sltu	x18,x8,x14	  x8:0x00000000 x14:0xfffff84c x18=0x00000001
        9485000	       947	80000860	006b8cb3	add	x25,x23,x6	 x23:0x00000000  x6:0x00000000 x25=0x00000000
        9495000	       948	80000864	41928eb3	sub	x29,x5,x25	  x5:0x0000000d x25:0x00000000 x29=0x0000000d
        9505000	       949	80000868	416a5913	srai	x18,x20,0x16	 x20:0x00000000 x18=0x00000000
        9515000	       950	8000086c	ab686993	ori	x19,x16,-1354	 x16:0x80009fc4 x19=0xfffffff6
        9525000	       951	80000870	035f8463	beq	x31,x21,80000898	 x31:0x00000001 x21:0x00000007
        9535000	       952	80000874	d5410b93	addi	x23,x2,-684	  x2:0x80009f84 x23=0x80009cd8
        9545000	       953	80000878	e2e4e593	ori	x11,x9,-466	  x9:0x00000000 x11=0xfffffe2e
        9555000	       954	8000087c	6a343d93	sltiu	x27,x8,1699	  x8:0x00000000 x27=0x00000001
        9565000	       955	80000880	40efd493	srai	x9,x31,0xe	 x31:0x00000001  x9=0x00000000
        9575000	       956	80000884	000b1a13	slli	x20,x22,0x0	 x22:0x00000000 x20=0x00000000
        9585000	       957	80000888	00277ab3	and	x21,x14,x2	 x14:0xfffff84c  x2:0x80009f84 x21=0x80009804
        9595000	       958	8000088c	0036f333	and	x6,x13,x3	 x13:0x00000000  x3:0x00000000  x6=0x00000000
        9605000	       959	80000890	00f5f263	bgeu	x11,x15,80000894	 x11:0xfffffe2e x15:0x00000001
        9615000	       960	00000000	00000013	addi	x0,x0,0	  x0:0x00000000
        9625000	       961	80000890	00000013	addi	x0,x0,0	  x0:0x00000000
        9635000	       962	80000894	00000013	addi	x0,x0,0	  x0:0x00000000
        9645000	       963	80000898	007766b3	or	x13,x14,x7	 x14:0xfffff84c  x7:0x00000000 x13=0xfffff84c
        9655000	       964	8000089c	2598fc13	andi	x24,x17,601	 x17:0x94d23824 x24=0x00000000
        9665000	       965	800008a0	034be263	bltu	x23,x20,800008c4	 x23:0x80009cd8 x20:0x00000000
        9675000	       966	800008a4	01a6b733	sltu	x14,x13,x26	 x13:0xfffff84c x26:0x7fff649b x14=0x00000000
        9685000	       967	800008a8	00faed33	or	x26,x21,x15	 x21:0x80009804 x15:0x00000001 x26=0x80009805
        9695000	       968	800008ac	004e8c63	beq	x29,x4,800008c4	 x29:0x0000000d  x4:0x00000001
        9705000	       969	800008b0	01ac9c33	sll	x24,x25,x26	 x25:0x00000000 x26:0x80009805 x24=0x00000000
        9715000	       970	800008b4	01178633	add	x12,x15,x17	 x15:0x00000001 x17:0x94d23824 x12=0x94d23825
        9725000	       971	800008b8	01bb3733	sltu	x14,x22,x27	 x22:0x00000000 x27:0x00000001 x14=0x00000001
        9735000	       972	800008bc	00000013	addi	x0,x0,0	  x0:0x00000000
        9745000	       973	800008c0	002f1863	bne	x30,x2,800008d0	 x30:0x00000000  x2:0x80009f84
        9755000	       974	00000000	00000013	addi	x0,x0,0	  x0:0x00000000
        9765000	       975	800008cc	00000013	addi	x0,x0,0	  x0:0x00000000
        9775000	       976	800008d0	52ac0b13	addi	x22,x24,1322	 x24:0x00000000 x22=0x0000052a
        9785000	       977	800008d4	01d25213	srli	x4,x4,0x1d	  x4:0x00000001  x4=0x00000000
        9795000	       978	800008d8	e003c593	xori	x11,x7,-512	  x7:0x00000000 x11=0xfffffe00
        9805000	       979	800008dc	01c197b3	sll	x15,x3,x28	  x3:0x00000000 x28:0x00000002 x15=0x00000000
        9815000	       980	800008e0	00f30c33	add	x24,x6,x15	  x6:0x00000000 x15:0x00000000 x24=0x00000000
        9825000	       981	800008e4	052af063	bgeu	x21,x18,80000924	 x21:0x80009804 x18:0x00000000
        9835000	       982	00000000	00000013	addi	x0,x0,0	  x0:0x00000000
        9845000	       983	80000920	00000013	addi	x0,x0,0	  x0:0x00000000
        9855000	       984	80000924	05417663	bgeu	x2,x20,80000970	  x2:0x80009f84 x20:0x00000000
        9865000	       985	00000000	00000013	addi	x0,x0,0	  x0:0x00000000
        9875000	       986	8000096c	00000013	addi	x0,x0,0	  x0:0x00000000
        9885000	       987	80000970	01a94e63	blt	x18,x26,8000098c	 x18:0x00000000 x26:0x80009805
        9895000	       988	80000974	015f5c63	bge	x30,x21,8000098c	 x30:0x00000000 x21:0x80009804
        9905000	       989	00000000	00000013	addi	x0,x0,0	  x0:0x00000000
        9915000	       990	80000988	00000013	addi	x0,x0,0	  x0:0x00000000
        9925000	       991	8000098c	0d7efb13	andi	x22,x29,215	 x29:0x0000000d x22=0x00000005
        9935000	       992	80000990	0083ac33	slt	x24,x7,x8	  x7:0x00000000  x8:0x00000000 x24=0x00000000
        9945000	       993	80000994	0167b1b3	sltu	x3,x15,x22	 x15:0x00000000 x22:0x00000005  x3=0x00000001
        9955000	       994	80000998	4173dc93	srai	x25,x7,0x17	  x7:0x00000000 x25=0x00000000
        9965000	       995	8000099c	893efa93	andi	x21,x29,-1901	 x29:0x0000000d x21=0x00000001
        9975000	       996	800009a0	0166f0b3	and	x1,x13,x22	 x13:0xfffff84c x22:0x00000005  x1=0x00000004
        9985000	       997	800009a4	004d9793	slli	x15,x27,0x4	 x27:0x00000001 x15=0x00000010
        9995000	       998	800009a8	04738463	beq	x7,x7,800009f0	  x7:0x00000000  x7:0x00000000
       10005000	       999	00000000	00000013	addi	x0,x0,0	  x0:0x00000000
       10015000	      1000	800009ec	00000013	addi	x0,x0,0	  x0:0x00000000
       10025000	      1001	800009f0	01b4fab3	and	x21,x9,x27	  x9:0x00000000 x27:0x00000001 x21=0x00000000
       10035000	      1002	800009f4	0357da63	bge	x15,x21,80000a28	 x15:0x00000010 x21:0x00000000
       10045000	      1003	00000000	00000013	addi	x0,x0,0	  x0:0x00000000
       10055000	      1004	80000a24	00000013	addi	x0,x0,0	  x0:0x00000000
       10065000	      1005	80000a28	00000013	addi	x0,x0,0	  x0:0x00000000
       10075000	      1006	80000a2c	bd39bc13	sltiu	x24,x19,-1069	 x19:0xfffffff6 x24=0x00000000
       10085000	      1007	80000a30	01653d33	sltu	x26,x10,x22	 x10:0x00000000 x22:0x00000005 x26=0x00000001
       10095000	      1008	80000a34	006579b3	and	x19,x10,x6	 x10:0x00000000  x6:0x00000000 x19=0x00000000
       10105000	      1009	80000a38	e6cbb413	sltiu	x8,x23,-404	 x23:0x80009cd8  x8=0x00000001
       10115000	      1010	80000a3c	ea43be13	sltiu	x28,x7,-348	  x7:0x00000000 x28=0x00000001
       10125000	      1011	80000a40	001f4633	xor	x12,x30,x1	 x30:0x00000000  x1:0x00000004 x12=0x00000004
       10135000	      1012	80000a44	00000013	addi	x0,x0,0	  x0:0x00000000
       10145000	      1013	80000a48	ff700b93	addi	x23,x0,-9	  x0:0x00000000 x23=0xfffffff7
       10155000	      1014	80000a4c	41a65693	srai	x13,x12,0x1a	 x12:0x00000004 x13=0x00000000
       10165000	      1015	80000a50	412a5e33	sra	x28,x20,x18	 x20:0x00000000 x18:0x00000000 x28=0x00000000
       10175000	      1016	80000a54	fed00c93	addi	x25,x0,-19	  x0:0x00000000 x25=0xffffffed
       10185000	      1017	80000a58	00000013	addi	x0,x0,0	  x0:0x00000000
       10195000	      1018	80000a5c	f3f77713	andi	x14,x14,-193	 x14:0x00000001 x14=0x00000001
       10205000	      1019	80000a60	011a5a93	srli	x21,x20,0x11	 x20:0x00000000 x21=0x00000000
       10215000	      1020	80000a64	ff6b8b93	addi	x23,x23,-10	 x23:0xfffffff7 x23=0xffffffed
       10225000	      1021	80000a68	00300093	addi	x1,x0,3	  x0:0x00000000  x1=0x00000003
       10235000	      1022	80000a6c	0136d233	srl	x4,x13,x19	 x13:0x00000000 x19:0x00000000  x4=0x00000000
       10245000	      1023	80000a70	00d008b3	add	x17,x0,x13	  x0:0x00000000 x13:0x00000000 x17=0x00000000
       10255000	      1024	80000a74	00ab6ab3	or	x21,x22,x10	 x22:0x00000005 x10:0x00000000 x21=0x00000005
       10265000	      1025	80000a78	00f00d13	addi	x26,x0,15	  x0:0x00000000 x26=0x0000000f
       10275000	      1026	80000a7c	004f4eb3	xor	x29,x30,x4	 x30:0x00000000  x4:0x00000000 x29=0x00000000
       10285000	      1027	80000a80	01c5d7b3	srl	x15,x11,x28	 x11:0xfffffe00 x28:0x00000000 x15=0xfffffe00
       10295000	      1028	80000a84	01de6eb3	or	x29,x28,x29	 x28:0x00000000 x29:0x00000000 x29=0x00000000
       10305000	      1029	80000a88	41555193	srai	x3,x10,0x15	 x10:0x00000000  x3=0x00000000
       10315000	      1030	80000a8c	00408093	addi	x1,x1,4	  x1:0x00000003  x1=0x00000007
       10325000	      1031	80000a90	00478633	add	x12,x15,x4	 x15:0xfffffe00  x4:0x00000000 x12=0xfffffe00
       10335000	      1032	80000a94	ffa088e3	beq	x1,x26,80000a84	  x1:0x00000007 x26:0x0000000f
       10345000	      1033	80000a98	92a7a613	slti	x12,x15,-1750	 x15:0xfffffe00 x12=0x00000000
       10355000	      1034	80000a9c	74b1a013	slti	x0,x3,1867	  x3:0x00000000
       10365000	      1035	80000aa0	c1bd6f93	ori	x31,x26,-997	 x26:0x0000000f x31=0xfffffc1f
       10375000	      1036	80000aa4	fb9b8ce3	beq	x23,x25,80000a5c	 x23:0xffffffed x25:0xffffffed
       10385000	      1037	00000000	00000013	addi	x0,x0,0	  x0:0x00000000
       10395000	      1038	80000a58	00000013	addi	x0,x0,0	  x0:0x00000000
       10405000	      1039	80000a5c	f3f77713	andi	x14,x14,-193	 x14:0x00000001 x14=0x00000001
       10415000	      1040	80000a60	011a5a93	srli	x21,x20,0x11	 x20:0x00000000 x21=0x00000000
       10425000	      1041	80000a64	ff6b8b93	addi	x23,x23,-10	 x23:0xffffffed x23=0xffffffe3
       10435000	      1042	80000a68	00300093	addi	x1,x0,3	  x0:0x00000000  x1=0x00000003
       10445000	      1043	80000a6c	0136d233	srl	x4,x13,x19	 x13:0x00000000 x19:0x00000000  x4=0x00000000
       10455000	      1044	80000a70	00d008b3	add	x17,x0,x13	  x0:0x00000000 x13:0x00000000 x17=0x00000000
       10465000	      1045	80000a74	00ab6ab3	or	x21,x22,x10	 x22:0x00000005 x10:0x00000000 x21=0x00000005
       10475000	      1046	80000a78	00f00d13	addi	x26,x0,15	  x0:0x00000000 x26=0x0000000f
       10485000	      1047	80000a7c	004f4eb3	xor	x29,x30,x4	 x30:0x00000000  x4:0x00000000 x29=0x00000000
       10495000	      1048	80000a80	01c5d7b3	srl	x15,x11,x28	 x11:0xfffffe00 x28:0x00000000 x15=0xfffffe00
       10505000	      1049	80000a84	01de6eb3	or	x29,x28,x29	 x28:0x00000000 x29:0x00000000 x29=0x00000000
       10515000	      1050	80000a88	41555193	srai	x3,x10,0x15	 x10:0x00000000  x3=0x00000000
       10525000	      1051	80000a8c	00408093	addi	x1,x1,4	  x1:0x00000003  x1=0x00000007
       10535000	      1052	80000a90	00478633	add	x12,x15,x4	 x15:0xfffffe00  x4:0x00000000 x12=0xfffffe00
       10545000	      1053	80000a94	ffa088e3	beq	x1,x26,80000a84	  x1:0x00000007 x26:0x0000000f
       10555000	      1054	80000a98	92a7a613	slti	x12,x15,-1750	 x15:0xfffffe00 x12=0x00000000
       10565000	      1055	80000a9c	74b1a013	slti	x0,x3,1867	  x3:0x00000000
       10575000	      1056	80000aa0	c1bd6f93	ori	x31,x26,-997	 x26:0x0000000f x31=0xfffffc1f
       10585000	      1057	80000aa4	fb9b8ce3	beq	x23,x25,80000a5c	 x23:0xffffffe3 x25:0xffffffed
       10595000	      1058	80000aa8	47f4b013	sltiu	x0,x9,1151	  x9:0x00000000
       10605000	      1059	80000aac	013c8263	beq	x25,x19,80000ab0	 x25:0xffffffed x19:0x00000000
       10615000	      1060	80000ab0	00279513	slli	x10,x15,0x2	 x15:0xfffffe00 x10=0xfffff800
       10625000	      1061	80000ab4	dce5f913	andi	x18,x11,-562	 x11:0xfffffe00 x18=0xfffffc00
       10635000	      1062	80000ab8	01ee5d93	srli	x27,x28,0x1e	 x28:0x00000000 x27=0x00000000
       10645000	      1063	80000abc	00b5ddb3	srl	x27,x11,x11	 x11:0xfffffe00 x11:0xfffffe00 x27=0xfffffe00
       10655000	      1064	80000ac0	00000013	addi	x0,x0,0	  x0:0x00000000
       10665000	      1065	80000ac4	71823f93	sltiu	x31,x4,1816	  x4:0x00000000 x31=0x00000001
       10675000	      1066	80000ac8	40585b13	srai	x22,x16,0x5	 x16:0x80009fc4 x22=0xfc0004fe
       10685000	      1067	80000acc	40edd1b3	sra	x3,x27,x14	 x27:0xfffffe00 x14:0x00000001  x3=0xffffff00
       10695000	      1068	80000ad0	04265663	bge	x12,x2,80000b1c	 x12:0x00000000  x2:0x80009f84
       10705000	      1069	00000000	00000013	addi	x0,x0,0	  x0:0x00000000
       10715000	      1070	80000b18	00000013	addi	x0,x0,0	  x0:0x00000000
       10725000	      1071	80000b1c	9f36ed97	auipc	x27,0x9f36e	 x27=0x1f36eb18
       10735000	      1072	80000b20	ebe59db7	lui	x27,0xebe59	 x27=0xebe59000
       10745000	      1073	80000b24	01666a93	ori	x21,x12,22	 x12:0x00000000 x21=0x00000016
       10755000	      1074	80000b28	00b1db13	srli	x22,x3,0xb	  x3:0xffffff00 x22=0x001fffff
       10765000	      1075	80000b2c	02d18263	beq	x3,x13,80000b50	  x3:0xffffff00 x13:0x00000000
       10775000	      1076	80000b30	004fccb3	xor	x25,x31,x4	 x31:0x00000001  x4:0x00000000 x25=0x00000001
       10785000	      1077	80000b34	014a6733	or	x14,x20,x20	 x20:0x00000000 x20:0x00000000 x14=0x00000000
       10795000	      1078	80000b38	4067d613	srai	x12,x15,0x6	 x15:0xfffffe00 x12=0xfffffff8
       10805000	      1079	80000b3c	00aa9e13	slli	x28,x21,0xa	 x21:0x00000016 x28=0x00005800
       10815000	      1080	80000b40	01d95c13	srli	x24,x18,0x1d	 x18:0xfffffc00 x24=0x00000007
       10825000	      1081	80000b44	01a1e9b3	or	x19,x3,x26	  x3:0xffffff00 x26:0x0000000f x19=0xffffff0f
       10835000	      1082	80000b48	01456e33	or	x28,x10,x20	 x10:0xfffff800 x20:0x00000000 x28=0xfffff800
       10845000	      1083	80000b4c	41205d33	sra	x26,x0,x18	  x0:0x00000000 x18:0xfffffc00 x26=0x00000000
       10855000	      1084	80000b50	000f1863	bne	x30,x0,80000b60	 x30:0x00000000  x0:0x00000000
       10865000	      1085	80000b54	006e9193	slli	x3,x29,0x6	 x29:0x00000000  x3=0x00000000
       10875000	      1086	80000b58	f3542e37	lui	x28,0xf3542	 x28=0xf3542000
       10885000	      1087	80000b5c	03bb0063	beq	x22,x27,80000b7c	 x22:0x001fffff x27:0xebe59000
       10895000	      1088	80000b60	412f8cb3	sub	x25,x31,x18	 x31:0x00000001 x18:0xfffffc00 x25=0x00000401
       10905000	      1089	80000b64	03618c63	beq	x3,x22,80000b9c	  x3:0x00000000 x22:0x001fffff
       10915000	      1090	80000b68	01374ab3	xor	x21,x14,x19	 x14:0x00000000 x19:0xffffff0f x21=0xffffff0f
       10925000	      1091	80000b6c	00ef2033	slt	x0,x30,x14	 x30:0x00000000 x14:0x00000000
       10935000	      1092	80000b70	7813eb37	lui	x22,0x7813e	 x22=0x7813e000
       10945000	      1093	80000b74	80cef193	andi	x3,x29,-2036	 x29:0x00000000  x3=0x00000000
       10955000	      1094	80000b78	d7344713	xori	x14,x8,-653	  x8:0x00000001 x14=0xfffffd72
       10965000	      1095	80000b7c	0052f9b3	and	x19,x5,x5	  x5:0x0000000d  x5:0x0000000d x19=0x0000000d
       10975000	      1096	80000b80	016287b3	add	x15,x5,x22	  x5:0x0000000d x22:0x7813e000 x15=0x7813e00d
       10985000	      1097	80000b84	41dd8233	sub	x4,x27,x29	 x27:0xebe59000 x29:0x00000000  x4=0xebe59000
       10995000	      1098	80000b88	00369033	sll	x0,x13,x3	 x13:0x00000000  x3:0x00000000
       11005000	      1099	80000b8c	01bac333	xor	x6,x21,x27	 x21:0xffffff0f x27:0xebe59000  x6=0x141a6f0f
       11015000	      1100	80000b90	00d847b3	xor	x15,x16,x13	 x16:0x80009fc4 x13:0x00000000 x15=0x80009fc4
       11025000	      1101	80000b94	0197e433	or	x8,x15,x25	 x15:0x80009fc4 x25:0x00000401  x8=0x80009fc5
       11035000	      1102	80000b98	01b557b3	srl	x15,x10,x27	 x10:0xfffff800 x27:0xebe59000 x15=0xfffff800
       11045000	      1103	80000b9c	019648b3	xor	x17,x12,x25	 x12:0xfffffff8 x25:0x00000401 x17=0xfffffbf9
       11055000	      1104	80000ba0	86aab993	sltiu	x19,x21,-1942	 x21:0xffffff0f x19=0x00000000
       11065000	      1105	80000ba4	02990063	beq	x18,x9,80000bc4	 x18:0xfffffc00  x9:0x00000000
       11075000	      1106	80000ba8	41188233	sub	x4,x17,x17	 x17:0xfffffbf9 x17:0xfffffbf9  x4=0x00000000
       11085000	      1107	80000bac	2f8bf213	andi	x4,x23,760	 x23:0xffffffe3  x4=0x000002e0
       11095000	      1108	80000bb0	01d85513	srli	x10,x16,0x1d	 x16:0x80009fc4 x10=0x00000004
       11105000	      1109	80000bb4	40bed633	sra	x12,x29,x11	 x29:0x00000000 x11:0xfffffe00 x12=0x00000000
       11115000	      1110	80000bb8	00d38863	beq	x7,x13,80000bc8	  x7:0x00000000 x13:0x00000000
       11125000	      1111	00000000	00000013	addi	x0,x0,0	  x0:0x00000000
       11135000	      1112	80000bc4	00000013	addi	x0,x0,0	  x0:0x00000000
       11145000	      1113	80000bc8	41b085b3	sub	x11,x1,x27	  x1:0x00000007 x27:0xebe59000 x11=0x141a7007
       11155000	      1114	80000bcc	411f5a93	srai	x21,x30,0x11	 x30:0x00000000 x21=0x00000000
       11165000	      1115	80000bd0	00583c33	sltu	x24,x16,x5	 x16:0x80009fc4  x5:0x0000000d x24=0x00000000
       11175000	      1116	80000bd4	00812ab3	slt	x21,x2,x8	  x2:0x80009f84  x8:0x80009fc5 x21=0x00000001
       11185000	      1117	80000bd8	01eacf33	xor	x30,x21,x30	 x21:0x00000001 x30:0x00000000 x30=0x00000001
       11195000	      1118	80000bdc	41e851b3	sra	x3,x16,x30	 x16:0x80009fc4 x30:0x00000001  x3=0xc0004fe2
       11205000	      1119	80000be0	003c7e33	and	x28,x24,x3	 x24:0x00000000  x3:0xc0004fe2 x28=0x00000000
       11215000	      1120	80000be4	01ead013	srli	x0,x21,0x1e	 x21:0x00000001
       11225000	      1121	80000be8	4190d6b3	sra	x13,x1,x25	  x1:0x00000007 x25:0x00000401 x13=0x00000003
       11235000	      1122	80000bec	03806063	bltu	x0,x24,80000c0c	  x0:0x00000000 x24:0x00000000
       11245000	      1123	80000bf0	01ac8933	add	x18,x25,x26	 x25:0x00000401 x26:0x00000000 x18=0x00000401
       11255000	      1124	80000bf4	00352fb3	slt	x31,x10,x3	 x10:0x00000004  x3:0xc0004fe2 x31=0x00000000
       11265000	      1125	80000bf8	01a01393	slli	x7,x0,0x1a	  x0:0x00000000  x7=0x00000000
       11275000	      1126	80000bfc	034bf663	bgeu	x23,x20,80000c28	 x23:0xffffffe3 x20:0x00000000
       11285000	      1127	00000000	00000013	addi	x0,x0,0	  x0:0x00000000
       11295000	      1128	80000c24	00000013	addi	x0,x0,0	  x0:0x00000000
       11305000	      1129	80000c28	023ae463	bltu	x21,x3,80000c50	 x21:0x00000001  x3:0xc0004fe2
       11315000	      1130	00000000	00000013	addi	x0,x0,0	  x0:0x00000000
       11325000	      1131	80000c4c	00000013	addi	x0,x0,0	  x0:0x00000000
       11335000	      1132	80000c50	018db433	sltu	x8,x27,x24	 x27:0xebe59000 x24:0x00000000  x8=0x00000000
       11345000	      1133	80000c54	00000013	addi	x0,x0,0	  x0:0x00000000
       11355000	      1134	80000c58	b4918e13	addi	x28,x3,-1207	  x3:0xc0004fe2 x28=0xc0004b2b
       11365000	      1135	80000c5c	e0e72e13	slti	x28,x14,-498	 x14:0xfffffd72 x28=0x00000001
       11375000	      1136	80000c60	04f8be13	sltiu	x28,x17,79	 x17:0xfffffbf9 x28=0x00000000
       11385000	      1137	80000c64	dff7ac97	auipc	x25,0xdff7a	 x25=0x5ff7ac60
       11395000	      1138	80000c68	942aa693	slti	x13,x21,-1726	 x21:0x00000001 x13=0x00000000
       11405000	      1139	80000c6c	1b93feb7	lui	x29,0x1b93f	 x29=0x1b93f000
       11415000	      1140	80000c70	03a4ce63	blt	x9,x26,80000cac	  x9:0x00000000 x26:0x00000000
       11425000	      1141	80000c74	25d97e93	andi	x29,x18,605	 x18:0x00000401 x29=0x00000001
       11435000	      1142	80000c78	01d0ddb3	srl	x27,x1,x29	  x1:0x00000007 x29:0x00000001 x27=0x00000003
       11445000	      1143	80000c7c	02c98863	beq	x19,x12,80000cac	 x19:0x00000000 x12:0x00000000
       11455000	      1144	00000000	00000013	addi	x0,x0,0	  x0:0x00000000
       11465000	      1145	80000ca8	00000013	addi	x0,x0,0	  x0:0x00000000
       11475000	      1146	80000cac	01f82c33	slt	x24,x16,x31	 x16:0x80009fc4 x31:0x00000000 x24=0x00000001
       11485000	      1147	80000cb0	015017b3	sll	x15,x0,x21	  x0:0x00000000 x21:0x00000001 x15=0x00000000
       11495000	      1148	80000cb4	01d298b3	sll	x17,x5,x29	  x5:0x0000000d x29:0x00000001 x17=0x0000001a
       11505000	      1149	80000cb8	12136413	ori	x8,x6,289	  x6:0x141a6f0f  x8=0x141a6f2f
       11515000	      1150	80000cbc	00997bb3	and	x23,x18,x9	 x18:0x00000401  x9:0x00000000 x23=0x00000000
       11525000	      1151	80000cc0	011c5913	srli	x18,x24,0x11	 x24:0x00000001 x18=0x00000000
       11535000	      1152	80000cc4	00ff90b3	sll	x1,x31,x15	 x31:0x00000000 x15:0x00000000  x1=0x00000000
       11545000	      1153	80000cc8	41a2d933	sra	x18,x5,x26	  x5:0x0000000d x26:0x00000000 x18=0x0000000d
       11555000	      1154	80000ccc	006a59b3	srl	x19,x20,x6	 x20:0x00000000  x6:0x141a6f0f x19=0x00000000
       11565000	      1155	80000cd0	01fed313	srli	x6,x29,0x1f	 x29:0x00000001  x6=0x00000000
       11575000	      1156	80000cd4	00000f97	auipc	x31,0x0	 x31=0x80000cd0
       11585000	      1157	80000cd8	2e0f8f93	addi	x31,x31,736	 x31:0x80000cd0 x31=0x80000fb0
       11595000	      1158	80000cdc	325f8f93	addi	x31,x31,805	 x31:0x80000fb0 x31=0x800012d5
       11605000	      1159	80000ce0	00725663	bge	x4,x7,80000cec	  x4:0x000002e0  x7:0x00000000
       11615000	      1160	00000000	00000013	addi	x0,x0,0	  x0:0x00000000
       11625000	      1161	80000ce8	00000013	addi	x0,x0,0	  x0:0x00000000
       11635000	      1162	80000cec	cdbf8c67	jalr	x24,x31,-805	 x31:0x800012d5 x24=0x80000cec
       11645000	      1163	00000000	00000013	addi	x0,x0,0	  x0:0x00000000
       11655000	      1164	80000fb0	00000013	addi	x0,x0,0	  x0:0x00000000
       11665000	      1165	80000fb4	01130463	beq	x6,x17,80000fbc	  x6:0x00000000 x17:0x0000001a
       11675000	      1166	80000fb8	94edab13	slti	x22,x27,-1714	 x27:0x00000003 x22=0x00000000
       11685000	      1167	80000fbc	fc410113	addi	x2,x2,-60	  x2:0x80009f84  x2=0x80009f48
       11695000	      1168	80000fc0	01812223	sw	x24,4(x2)	  x2:0x80009f48 x24:0x80000cec PA:0x80009f4c
       11705000	      1169	80000fc4	4040d7b3	sra	x15,x1,x4	  x1:0x00000000  x4:0x000002e0 x15=0x00000000
       11715000	      1170	80000fc8	01e248b3	xor	x17,x4,x30	  x4:0x000002e0 x30:0x00000001 x17=0x000002e1
       11725000	      1171	80000fcc	0086ce33	xor	x28,x13,x8	 x13:0x00000000  x8:0x141a6f2f x28=0x141a6f2f
       11735000	      1172	80000fd0	00fa8a33	add	x20,x21,x15	 x21:0x00000001 x15:0x00000000 x20=0x00000001
       11745000	      1173	80000fd4	012f1493	slli	x9,x30,0x12	 x30:0x00000001  x9=0x00040000
       11755000	      1174	80000fd8	00c90933	add	x18,x18,x12	 x18:0x0000000d x12:0x00000000 x18=0x0000000d
       11765000	      1175	80000fdc	00a7dbb3	srl	x23,x15,x10	 x15:0x00000000 x10:0x00000004 x23=0x00000000
       11775000	      1176	80000fe0	0034d233	srl	x4,x9,x3	  x9:0x00040000  x3:0xc0004fe2  x4=0x00010000
       11785000	      1177	80000fe4	00272eb3	slt	x29,x14,x2	 x14:0xfffffd72  x2:0x80009f48 x29=0x00000000
       11795000	      1178	80000fe8	00a4da33	srl	x20,x9,x10	  x9:0x00040000 x10:0x00000004 x20=0x00004000
       11805000	      1179	80000fec	40b15bb3	sra	x23,x2,x11	  x2:0x80009f48 x11:0x141a7007 x23=0xff00013e
       11815000	      1180	80000ff0	e7dffc6f	jal	x24,80000ff0	 x24=0x80000ff0
       11825000	      1181	00000000	00000013	addi	x0,x0,0	  x0:0x00000000
       11835000	      1182	80000e68	00000013	addi	x0,x0,0	  x0:0x00000000
       11845000	      1183	80000e6c	01b2f863	bgeu	x5,x27,80000e7c	  x5:0x0000000d x27:0x00000003
       11855000	      1184	00000000	00000013	addi	x0,x0,0	  x0:0x00000000
       11865000	      1185	80000e78	00000013	addi	x0,x0,0	  x0:0x00000000
       11875000	      1186	80000e7c	fec10113	addi	x2,x2,-20	  x2:0x80009f48  x2=0x80009f34
       11885000	      1187	80000e80	01812223	sw	x24,4(x2)	  x2:0x80009f34 x24:0x80000ff0 PA:0x80009f38
       11895000	      1188	80000e84	0137ed33	or	x26,x15,x19	 x15:0x00000000 x19:0x00000000 x26=0x00000000
       11905000	      1189	80000e88	00531e13	slli	x28,x6,0x5	  x6:0x00000000 x28=0x00000000
       11915000	      1190	80000e8c	f827fe17	auipc	x28,0xf827f	 x28=0x7827fe88
       11925000	      1191	80000e90	0191a0b3	slt	x1,x3,x25	  x3:0xc0004fe2 x25:0x5ff7ac60  x1=0x00000001
       11935000	      1192	80000e94	019ba9b3	slt	x19,x23,x25	 x23:0xff00013e x25:0x5ff7ac60 x19=0x00000001
       11945000	      1193	80000e98	012db7b3	sltu	x15,x27,x18	 x27:0x00000003 x18:0x0000000d x15=0x00000001
       11955000	      1194	80000e9c	0010de93	srli	x29,x1,0x1	  x1:0x00000001 x29=0x00000000
       11965000	      1195	80000ea0	3be25737	lui	x14,0x3be25	 x14=0x3be25000
       11975000	      1196	80000ea4	0184d7b3	srl	x15,x9,x24	  x9:0x00040000 x24:0x80000ff0 x15=0x00000004
       11985000	      1197	80000ea8	bfde2593	slti	x11,x28,-1027	 x28:0x7827fe88 x11=0x00000000
       11995000	      1198	80000eac	003b0463	beq	x22,x3,80000eb4	 x22:0x00000000  x3:0xc0004fe2
       12005000	      1199	80000eb0	00d220b3	slt	x1,x4,x13	  x4:0x00010000 x13:0x00000000  x1=0x00000000
       12015000	      1200	80000eb4	0f402c6f	jal	x24,80000eb4	 x24=0x80000eb4
       12025000	      1201	00000000	00000013	addi	x0,x0,0	  x0:0x00000000
       12035000	      1202	80002fa4	00000013	addi	x0,x0,0	  x0:0x00000000
       12045000	      1203	80002fa8	417951b3	sra	x3,x18,x23	 x18:0x0000000d x23:0xff00013e  x3=0x00000000
       12055000	      1204	80002fac	1679bd93	sltiu	x27,x19,359	 x19:0x00000001 x27=0x00000001
       12065000	      1205	80002fb0	01415263	bge	x2,x20,80002fb4	  x2:0x80009f34 x20:0x00004000
       12075000	      1206	80002fb4	fc810113	addi	x2,x2,-56	  x2:0x80009f34  x2=0x80009efc
       12085000	      1207	80002fb8	01812223	sw	x24,4(x2)	  x2:0x80009efc x24:0x80000eb4 PA:0x80009f00
       12095000	      1208	80002fbc	34893f97	auipc	x31,0x34893	 x31=0xb4895fb8
       12105000	      1209	80002fc0	01aade63	bge	x21,x26,80002fdc	 x21:0x00000001 x26:0x00000000
       12115000	      1210	00000000	00000013	addi	x0,x0,0	  x0:0x00000000
       12125000	      1211	80002fd8	00000013	addi	x0,x0,0	  x0:0x00000000
       12135000	      1212	80002fdc	01c989b3	add	x19,x19,x28	 x19:0x00000001 x28:0x7827fe88 x19=0x7827fe89
       12145000	      1213	80002fe0	011f9f93	slli	x31,x31,0x11	 x31:0xb4895fb8 x31=0xbf700000
       12155000	      1214	80002fe4	c7a126b7	lui	x13,0xc7a12	 x13=0xc7a12000
       12165000	      1215	80002fe8	cbfe7d93	andi	x27,x28,-833	 x28:0x7827fe88 x27=0x7827fc88
       12175000	      1216	80002fec	03441263	bne	x8,x20,80003010	  x8:0x141a6f2f x20:0x00004000
       12185000	      1217	00000000	00000013	addi	x0,x0,0	  x0:0x00000000
       12195000	      1218	8000300c	00000013	addi	x0,x0,0	  x0:0x00000000
       12205000	      1219	80003010	c9ec6f13	ori	x30,x24,-866	 x24:0x80000eb4 x30=0xfffffebe
       12215000	      1220	80003014	00412c03	lw	x24,4(x2)	  x2:0x80009efc x24=0x80000eb4 PA:0x80009f00
       12225000	      1221	80003018	40e00cb3	sub	x25,x0,x14	  x0:0x00000000 x14:0x3be25000 x25=0xc41db000
       12235000	      1222	8000301c	41f85613	srai	x12,x16,0x1f	 x16:0x80009fc4 x12=0xffffffff
       12245000	      1223	80003020	03810113	addi	x2,x2,56	  x2:0x80009efc  x2=0x80009f34
       12255000	      1224	80003024	00b9bdb3	sltu	x27,x19,x11	 x19:0x7827fe89 x11:0x00000000 x27=0x00000000
       12265000	      1225	80003028	000c9913	slli	x18,x25,0x0	 x25:0xc41db000 x18=0xc41db000
       12275000	      1226	8000302c	001c0513	addi	x10,x24,1	 x24:0x80000eb4 x10=0x80000eb5
       12285000	      1227	80003030	00050567	jalr	x10,x10,0	 x10:0x80000eb5 x10=0x80003030
       12295000	      1228	00000000	00000013	addi	x0,x0,0	  x0:0x00000000
       12305000	      1229	80000eb4	00000013	addi	x0,x0,0	  x0:0x00000000
       12315000	      1230	80000eb8	40d8da33	sra	x20,x17,x13	 x17:0x000002e1 x13:0xc7a12000 x20=0x000002e1
       12325000	      1231	80000ebc	013e19b3	sll	x19,x28,x19	 x28:0x7827fe88 x19:0x7827fe89 x19=0x4ffd1000
       12335000	      1232	80000ec0	8d88e993	ori	x19,x17,-1832	 x17:0x000002e1 x19=0xfffffaf9
       12345000	      1233	80000ec4	005ef6b3	and	x13,x29,x5	 x29:0x00000000  x5:0x0000000d x13=0x00000000
       12355000	      1234	80000ec8	01c88463	beq	x17,x28,80000ed0	 x17:0x000002e1 x28:0x7827fe88
       12365000	      1235	80000ecc	00000013	addi	x0,x0,0	  x0:0x00000000
       12375000	      1236	80000ed0	34c00c6f	jal	x24,80000ed0	 x24=0x80000ed0
       12385000	      1237	00000000	00000013	addi	x0,x0,0	  x0:0x00000000
       12395000	      1238	80001218	00000013	addi	x0,x0,0	  x0:0x00000000
       12405000	      1239	8000121c	00bd1433	sll	x8,x26,x11	 x26:0x00000000 x11:0x00000000  x8=0x00000000
       12415000	      1240	80001220	01f48663	beq	x9,x31,8000122c	  x9:0x00040000 x31:0xbf700000
       12425000	      1241	80001224	00817933	and	x18,x2,x8	  x2:0x80009f34  x8:0x00000000 x18=0x00000000
       12435000	      1242	80001228	01fa3433	sltu	x8,x20,x31	 x20:0x000002e1 x31:0xbf700000  x8=0x00000001
       12445000	      1243	8000122c	fec10113	addi	x2,x2,-20	  x2:0x80009f34  x2=0x80009f20
       12455000	      1244	80001230	67750993	addi	x19,x10,1655	 x10:0x80003030 x19=0x800036a7
       12465000	      1245	80001234	457ac993	xori	x19,x21,1111	 x21:0x00000001 x19=0x00000456
       12475000	      1246	80001238	01605e13	srli	x28,x0,0x16	  x0:0x00000000 x28=0x00000000
       12485000	      1247	8000123c	01812223	sw	x24,4(x2)	  x2:0x80009f20 x24:0x80000ed0 PA:0x80009f24
       12495000	      1248	80001240	41d8d3b3	sra	x7,x17,x29	 x17:0x000002e1 x29:0x00000000  x7=0x000002e1
       12505000	      1249	80001244	ff800393	addi	x7,x0,-8	  x0:0x00000000  x7=0xfffffff8
       12515000	      1250	80001248	c0ab6717	auipc	x14,0xc0ab6	 x14=0x40ab7244
       12525000	      1251	8000124c	00c6adb3	slt	x27,x13,x12	 x13:0x00000000 x12:0xffffffff x27=0x00000000
       12535000	      1252	80001250	00000013	addi	x0,x0,0	  x0:0x00000000
       12545000	      1253	80001254	a052b313	sltiu	x6,x5,-1531	  x5:0x0000000d  x6=0x00000001
       12555000	      1254	80001258	01db48b3	xor	x17,x22,x29	 x22:0x00000000 x29:0x00000000 x17=0x00000000
       12565000	      1255	8000125c	010bbeb3	sltu	x29,x23,x16	 x23:0xff00013e x16:0x80009fc4 x29=0x00000000
       12575000	      1256	80001260	00c00c13	addi	x24,x0,12	  x0:0x00000000 x24=0x0000000c
       12585000	      1257	80001264	01e1edb3	or	x27,x3,x30	  x3:0x00000000 x30:0xfffffebe x27=0xfffffebe
       12595000	      1258	80001268	ba83bc93	sltiu	x25,x7,-1112	  x7:0xfffffff8 x25=0x00000000
       12605000	      1259	8000126c	005c9a33	sll	x20,x25,x5	 x25:0x00000000  x5:0x0000000d x20=0x00000000
       12615000	      1260	80001270	01f32633	slt	x12,x6,x31	  x6:0x00000001 x31:0xbf700000 x12=0x00000000
       12625000	      1261	80001274	308eec93	ori	x25,x29,776	 x29:0x00000000 x25=0x00000308
       12635000	      1262	80001278	01856db3	or	x27,x10,x24	 x10:0x80003030 x24:0x0000000c x27=0x8000303c
       12645000	      1263	8000127c	00238393	addi	x7,x7,2	  x7:0xfffffff8  x7=0xfffffffa
       12655000	      1264	80001280	40d35933	sra	x18,x6,x13	  x6:0x00000001 x13:0x00000000 x18=0x00000001
       12665000	      1265	80001284	01bf9233	sll	x4,x31,x27	 x31:0xbf700000 x27:0x8000303c  x4=0x00000000
       12675000	      1266	80001288	132e7e93	andi	x29,x28,306	 x28:0x00000000 x29=0x00000000
       12685000	      1267	8000128c	0148e8b3	or	x17,x17,x20	 x17:0x00000000 x20:0x00000000 x17=0x00000000
       12695000	      1268	80001290	01bdc333	xor	x6,x27,x27	 x27:0x8000303c x27:0x8000303c  x6=0x00000000
       12705000	      1269	80001294	354db993	sltiu	x19,x27,852	 x27:0x8000303c x19=0x00000000
       12715000	      1270	80001298	57a06593	ori	x11,x0,1402	  x0:0x00000000 x11=0x0000057a
       12725000	      1271	8000129c	00000013	addi	x0,x0,0	  x0:0x00000000
       12735000	      1272	800012a0	8fbd4b13	xori	x22,x26,-1797	 x26:0x00000000 x22=0xfffff8fb
       12745000	      1273	800012a4	86f451b7	lui	x3,0x86f45	  x3=0x86f45000
       12755000	      1274	800012a8	41e45093	srai	x1,x8,0x1e	  x8:0x00000001  x1=0x00000000
       12765000	      1275	800012ac	40bbd433	sra	x8,x23,x11	 x23:0xff00013e x11:0x0000057a  x8=0xffffffff
       12775000	      1276	800012b0	fd83c0e3	blt	x7,x24,80001270	  x7:0xfffffffa x24:0x0000000c
       12785000	      1277	00000000	00000013	addi	x0,x0,0	  x0:0x00000000
       12795000	      1278	8000126c	00000013	addi	x0,x0,0	  x0:0x00000000
       12805000	      1279	80001270	01f32633	slt	x12,x6,x31	  x6:0x00000000 x31:0xbf700000 x12=0x00000000
       12815000	      1280	80001274	308eec93	ori	x25,x29,776	 x29:0x00000000 x25=0x00000308
       12825000	      1281	80001278	01856db3	or	x27,x10,x24	 x10:0x80003030 x24:0x0000000c x27=0x8000303c
       12835000	      1282	8000127c	00238393	addi	x7,x7,2	  x7:0xfffffffa  x7=0xfffffffc
       12845000	      1283	80001280	40d35933	sra	x18,x6,x13	  x6:0x00000000 x13:0x00000000 x18=0x00000000
       12855000	      1284	80001284	01bf9233	sll	x4,x31,x27	 x31:0xbf700000 x27:0x8000303c  x4=0x00000000
       12865000	      1285	80001288	132e7e93	andi	x29,x28,306	 x28:0x00000000 x29=0x00000000
       12875000	      1286	8000128c	0148e8b3	or	x17,x17,x20	 x17:0x00000000 x20:0x00000000 x17=0x00000000
       12885000	      1287	80001290	01bdc333	xor	x6,x27,x27	 x27:0x8000303c x27:0x8000303c  x6=0x00000000
       12895000	      1288	80001294	354db993	sltiu	x19,x27,852	 x27:0x8000303c x19=0x00000000
       12905000	      1289	80001298	57a06593	ori	x11,x0,1402	  x0:0x00000000 x11=0x0000057a
       12915000	      1290	8000129c	00000013	addi	x0,x0,0	  x0:0x00000000
       12925000	      1291	800012a0	8fbd4b13	xori	x22,x26,-1797	 x26:0x00000000 x22=0xfffff8fb
       12935000	      1292	800012a4	86f451b7	lui	x3,0x86f45	  x3=0x86f45000
       12945000	      1293	800012a8	41e45093	srai	x1,x8,0x1e	  x8:0xffffffff  x1=0xffffffff
       12955000	      1294	800012ac	40bbd433	sra	x8,x23,x11	 x23:0xff00013e x11:0x0000057a  x8=0xffffffff
       12965000	      1295	800012b0	fd83c0e3	blt	x7,x24,80001270	  x7:0xfffffffc x24:0x0000000c
       12975000	      1296	00000000	00000013	addi	x0,x0,0	  x0:0x00000000
       12985000	      1297	8000126c	00000013	addi	x0,x0,0	  x0:0x00000000
       12995000	      1298	80001270	01f32633	slt	x12,x6,x31	  x6:0x00000000 x31:0xbf700000 x12=0x00000000
       13005000	      1299	80001274	308eec93	ori	x25,x29,776	 x29:0x00000000 x25=0x00000308
       13015000	      1300	80001278	01856db3	or	x27,x10,x24	 x10:0x80003030 x24:0x0000000c x27=0x8000303c
       13025000	      1301	8000127c	00238393	addi	x7,x7,2	  x7:0xfffffffc  x7=0xfffffffe
       13035000	      1302	80001280	40d35933	sra	x18,x6,x13	  x6:0x00000000 x13:0x00000000 x18=0x00000000
       13045000	      1303	80001284	01bf9233	sll	x4,x31,x27	 x31:0xbf700000 x27:0x8000303c  x4=0x00000000
       13055000	      1304	80001288	132e7e93	andi	x29,x28,306	 x28:0x00000000 x29=0x00000000
       13065000	      1305	8000128c	0148e8b3	or	x17,x17,x20	 x17:0x00000000 x20:0x00000000 x17=0x00000000
       13075000	      1306	80001290	01bdc333	xor	x6,x27,x27	 x27:0x8000303c x27:0x8000303c  x6=0x00000000
       13085000	      1307	80001294	354db993	sltiu	x19,x27,852	 x27:0x8000303c x19=0x00000000
       13095000	      1308	80001298	57a06593	ori	x11,x0,1402	  x0:0x00000000 x11=0x0000057a
       13105000	      1309	8000129c	00000013	addi	x0,x0,0	  x0:0x00000000
       13115000	      1310	800012a0	8fbd4b13	xori	x22,x26,-1797	 x26:0x00000000 x22=0xfffff8fb
       13125000	      1311	800012a4	86f451b7	lui	x3,0x86f45	  x3=0x86f45000
       13135000	      1312	800012a8	41e45093	srai	x1,x8,0x1e	  x8:0xffffffff  x1=0xffffffff
       13145000	      1313	800012ac	40bbd433	sra	x8,x23,x11	 x23:0xff00013e x11:0x0000057a  x8=0xffffffff
       13155000	      1314	800012b0	fd83c0e3	blt	x7,x24,80001270	  x7:0xfffffffe x24:0x0000000c
       13165000	      1315	00000000	00000013	addi	x0,x0,0	  x0:0x00000000
       13175000	      1316	8000126c	00000013	addi	x0,x0,0	  x0:0x00000000
       13185000	      1317	80001270	01f32633	slt	x12,x6,x31	  x6:0x00000000 x31:0xbf700000 x12=0x00000000
       13195000	      1318	80001274	308eec93	ori	x25,x29,776	 x29:0x00000000 x25=0x00000308
       13205000	      1319	80001278	01856db3	or	x27,x10,x24	 x10:0x80003030 x24:0x0000000c x27=0x8000303c
       13215000	      1320	8000127c	00238393	addi	x7,x7,2	  x7:0xfffffffe  x7=0x00000000
       13225000	      1321	80001280	40d35933	sra	x18,x6,x13	  x6:0x00000000 x13:0x00000000 x18=0x00000000
       13235000	      1322	80001284	01bf9233	sll	x4,x31,x27	 x31:0xbf700000 x27:0x8000303c  x4=0x00000000
       13245000	      1323	80001288	132e7e93	andi	x29,x28,306	 x28:0x00000000 x29=0x00000000
       13255000	      1324	8000128c	0148e8b3	or	x17,x17,x20	 x17:0x00000000 x20:0x00000000 x17=0x00000000
       13265000	      1325	80001290	01bdc333	xor	x6,x27,x27	 x27:0x8000303c x27:0x8000303c  x6=0x00000000
       13275000	      1326	80001294	354db993	sltiu	x19,x27,852	 x27:0x8000303c x19=0x00000000
       13285000	      1327	80001298	57a06593	ori	x11,x0,1402	  x0:0x00000000 x11=0x0000057a
       13295000	      1328	8000129c	00000013	addi	x0,x0,0	  x0:0x00000000
       13305000	      1329	800012a0	8fbd4b13	xori	x22,x26,-1797	 x26:0x00000000 x22=0xfffff8fb
       13315000	      1330	800012a4	86f451b7	lui	x3,0x86f45	  x3=0x86f45000
       13325000	      1331	800012a8	41e45093	srai	x1,x8,0x1e	  x8:0xffffffff  x1=0xffffffff
       13335000	      1332	800012ac	40bbd433	sra	x8,x23,x11	 x23:0xff00013e x11:0x0000057a  x8=0xffffffff
       13345000	      1333	800012b0	fd83c0e3	blt	x7,x24,80001270	  x7:0x00000000 x24:0x0000000c
       13355000	      1334	00000000	00000013	addi	x0,x0,0	  x0:0x00000000
       13365000	      1335	8000126c	00000013	addi	x0,x0,0	  x0:0x00000000
       13375000	      1336	80001270	01f32633	slt	x12,x6,x31	  x6:0x00000000 x31:0xbf700000 x12=0x00000000
       13385000	      1337	80001274	308eec93	ori	x25,x29,776	 x29:0x00000000 x25=0x00000308
       13395000	      1338	80001278	01856db3	or	x27,x10,x24	 x10:0x80003030 x24:0x0000000c x27=0x8000303c
       13405000	      1339	8000127c	00238393	addi	x7,x7,2	  x7:0x00000000  x7=0x00000002
       13415000	      1340	80001280	40d35933	sra	x18,x6,x13	  x6:0x00000000 x13:0x00000000 x18=0x00000000
       13425000	      1341	80001284	01bf9233	sll	x4,x31,x27	 x31:0xbf700000 x27:0x8000303c  x4=0x00000000
       13435000	      1342	80001288	132e7e93	andi	x29,x28,306	 x28:0x00000000 x29=0x00000000
       13445000	      1343	8000128c	0148e8b3	or	x17,x17,x20	 x17:0x00000000 x20:0x00000000 x17=0x00000000
       13455000	      1344	80001290	01bdc333	xor	x6,x27,x27	 x27:0x8000303c x27:0x8000303c  x6=0x00000000
       13465000	      1345	80001294	354db993	sltiu	x19,x27,852	 x27:0x8000303c x19=0x00000000
       13475000	      1346	80001298	57a06593	ori	x11,x0,1402	  x0:0x00000000 x11=0x0000057a
       13485000	      1347	8000129c	00000013	addi	x0,x0,0	  x0:0x00000000
       13495000	      1348	800012a0	8fbd4b13	xori	x22,x26,-1797	 x26:0x00000000 x22=0xfffff8fb
       13505000	      1349	800012a4	86f451b7	lui	x3,0x86f45	  x3=0x86f45000
       13515000	      1350	800012a8	41e45093	srai	x1,x8,0x1e	  x8:0xffffffff  x1=0xffffffff
       13525000	      1351	800012ac	40bbd433	sra	x8,x23,x11	 x23:0xff00013e x11:0x0000057a  x8=0xffffffff
       13535000	      1352	800012b0	fd83c0e3	blt	x7,x24,80001270	  x7:0x00000002 x24:0x0000000c
       13545000	      1353	00000000	00000013	addi	x0,x0,0	  x0:0x00000000
       13555000	      1354	8000126c	00000013	addi	x0,x0,0	  x0:0x00000000
       13565000	      1355	80001270	01f32633	slt	x12,x6,x31	  x6:0x00000000 x31:0xbf700000 x12=0x00000000
       13575000	      1356	80001274	308eec93	ori	x25,x29,776	 x29:0x00000000 x25=0x00000308
       13585000	      1357	80001278	01856db3	or	x27,x10,x24	 x10:0x80003030 x24:0x0000000c x27=0x8000303c
       13595000	      1358	8000127c	00238393	addi	x7,x7,2	  x7:0x00000002  x7=0x00000004
       13605000	      1359	80001280	40d35933	sra	x18,x6,x13	  x6:0x00000000 x13:0x00000000 x18=0x00000000
       13615000	      1360	80001284	01bf9233	sll	x4,x31,x27	 x31:0xbf700000 x27:0x8000303c  x4=0x00000000
       13625000	      1361	80001288	132e7e93	andi	x29,x28,306	 x28:0x00000000 x29=0x00000000
       13635000	      1362	8000128c	0148e8b3	or	x17,x17,x20	 x17:0x00000000 x20:0x00000000 x17=0x00000000
       13645000	      1363	80001290	01bdc333	xor	x6,x27,x27	 x27:0x8000303c x27:0x8000303c  x6=0x00000000
       13655000	      1364	80001294	354db993	sltiu	x19,x27,852	 x27:0x8000303c x19=0x00000000
       13665000	      1365	80001298	57a06593	ori	x11,x0,1402	  x0:0x00000000 x11=0x0000057a
       13675000	      1366	8000129c	00000013	addi	x0,x0,0	  x0:0x00000000
       13685000	      1367	800012a0	8fbd4b13	xori	x22,x26,-1797	 x26:0x00000000 x22=0xfffff8fb
       13695000	      1368	800012a4	86f451b7	lui	x3,0x86f45	  x3=0x86f45000
       13705000	      1369	800012a8	41e45093	srai	x1,x8,0x1e	  x8:0xffffffff  x1=0xffffffff
       13715000	      1370	800012ac	40bbd433	sra	x8,x23,x11	 x23:0xff00013e x11:0x0000057a  x8=0xffffffff
       13725000	      1371	800012b0	fd83c0e3	blt	x7,x24,80001270	  x7:0x00000004 x24:0x0000000c
       13735000	      1372	00000000	00000013	addi	x0,x0,0	  x0:0x00000000
       13745000	      1373	8000126c	00000013	addi	x0,x0,0	  x0:0x00000000
       13755000	      1374	80001270	01f32633	slt	x12,x6,x31	  x6:0x00000000 x31:0xbf700000 x12=0x00000000
       13765000	      1375	80001274	308eec93	ori	x25,x29,776	 x29:0x00000000 x25=0x00000308
       13775000	      1376	80001278	01856db3	or	x27,x10,x24	 x10:0x80003030 x24:0x0000000c x27=0x8000303c
       13785000	      1377	8000127c	00238393	addi	x7,x7,2	  x7:0x00000004  x7=0x00000006
       13795000	      1378	80001280	40d35933	sra	x18,x6,x13	  x6:0x00000000 x13:0x00000000 x18=0x00000000
       13805000	      1379	80001284	01bf9233	sll	x4,x31,x27	 x31:0xbf700000 x27:0x8000303c  x4=0x00000000
       13815000	      1380	80001288	132e7e93	andi	x29,x28,306	 x28:0x00000000 x29=0x00000000
       13825000	      1381	8000128c	0148e8b3	or	x17,x17,x20	 x17:0x00000000 x20:0x00000000 x17=0x00000000
       13835000	      1382	80001290	01bdc333	xor	x6,x27,x27	 x27:0x8000303c x27:0x8000303c  x6=0x00000000
       13845000	      1383	80001294	354db993	sltiu	x19,x27,852	 x27:0x8000303c x19=0x00000000
       13855000	      1384	80001298	57a06593	ori	x11,x0,1402	  x0:0x00000000 x11=0x0000057a
       13865000	      1385	8000129c	00000013	addi	x0,x0,0	  x0:0x00000000
       13875000	      1386	800012a0	8fbd4b13	xori	x22,x26,-1797	 x26:0x00000000 x22=0xfffff8fb
       13885000	      1387	800012a4	86f451b7	lui	x3,0x86f45	  x3=0x86f45000
       13895000	      1388	800012a8	41e45093	srai	x1,x8,0x1e	  x8:0xffffffff  x1=0xffffffff
       13905000	      1389	800012ac	40bbd433	sra	x8,x23,x11	 x23:0xff00013e x11:0x0000057a  x8=0xffffffff
       13915000	      1390	800012b0	fd83c0e3	blt	x7,x24,80001270	  x7:0x00000006 x24:0x0000000c
       13925000	      1391	00000000	00000013	addi	x0,x0,0	  x0:0x00000000
       13935000	      1392	8000126c	00000013	addi	x0,x0,0	  x0:0x00000000
       13945000	      1393	80001270	01f32633	slt	x12,x6,x31	  x6:0x00000000 x31:0xbf700000 x12=0x00000000
       13955000	      1394	80001274	308eec93	ori	x25,x29,776	 x29:0x00000000 x25=0x00000308
       13965000	      1395	80001278	01856db3	or	x27,x10,x24	 x10:0x80003030 x24:0x0000000c x27=0x8000303c
       13975000	      1396	8000127c	00238393	addi	x7,x7,2	  x7:0x00000006  x7=0x00000008
       13985000	      1397	80001280	40d35933	sra	x18,x6,x13	  x6:0x00000000 x13:0x00000000 x18=0x00000000
       13995000	      1398	80001284	01bf9233	sll	x4,x31,x27	 x31:0xbf700000 x27:0x8000303c  x4=0x00000000
       14005000	      1399	80001288	132e7e93	andi	x29,x28,306	 x28:0x00000000 x29=0x00000000
       14015000	      1400	8000128c	0148e8b3	or	x17,x17,x20	 x17:0x00000000 x20:0x00000000 x17=0x00000000
       14025000	      1401	80001290	01bdc333	xor	x6,x27,x27	 x27:0x8000303c x27:0x8000303c  x6=0x00000000
       14035000	      1402	80001294	354db993	sltiu	x19,x27,852	 x27:0x8000303c x19=0x00000000
       14045000	      1403	80001298	57a06593	ori	x11,x0,1402	  x0:0x00000000 x11=0x0000057a
       14055000	      1404	8000129c	00000013	addi	x0,x0,0	  x0:0x00000000
       14065000	      1405	800012a0	8fbd4b13	xori	x22,x26,-1797	 x26:0x00000000 x22=0xfffff8fb
       14075000	      1406	800012a4	86f451b7	lui	x3,0x86f45	  x3=0x86f45000
       14085000	      1407	800012a8	41e45093	srai	x1,x8,0x1e	  x8:0xffffffff  x1=0xffffffff
       14095000	      1408	800012ac	40bbd433	sra	x8,x23,x11	 x23:0xff00013e x11:0x0000057a  x8=0xffffffff
       14105000	      1409	800012b0	fd83c0e3	blt	x7,x24,80001270	  x7:0x00000008 x24:0x0000000c
       14115000	      1410	00000000	00000013	addi	x0,x0,0	  x0:0x00000000
       14125000	      1411	8000126c	00000013	addi	x0,x0,0	  x0:0x00000000
       14135000	      1412	80001270	01f32633	slt	x12,x6,x31	  x6:0x00000000 x31:0xbf700000 x12=0x00000000
       14145000	      1413	80001274	308eec93	ori	x25,x29,776	 x29:0x00000000 x25=0x00000308
       14155000	      1414	80001278	01856db3	or	x27,x10,x24	 x10:0x80003030 x24:0x0000000c x27=0x8000303c
       14165000	      1415	8000127c	00238393	addi	x7,x7,2	  x7:0x00000008  x7=0x0000000a
       14175000	      1416	80001280	40d35933	sra	x18,x6,x13	  x6:0x00000000 x13:0x00000000 x18=0x00000000
       14185000	      1417	80001284	01bf9233	sll	x4,x31,x27	 x31:0xbf700000 x27:0x8000303c  x4=0x00000000
       14195000	      1418	80001288	132e7e93	andi	x29,x28,306	 x28:0x00000000 x29=0x00000000
       14205000	      1419	8000128c	0148e8b3	or	x17,x17,x20	 x17:0x00000000 x20:0x00000000 x17=0x00000000
       14215000	      1420	80001290	01bdc333	xor	x6,x27,x27	 x27:0x8000303c x27:0x8000303c  x6=0x00000000
       14225000	      1421	80001294	354db993	sltiu	x19,x27,852	 x27:0x8000303c x19=0x00000000
       14235000	      1422	80001298	57a06593	ori	x11,x0,1402	  x0:0x00000000 x11=0x0000057a
       14245000	      1423	8000129c	00000013	addi	x0,x0,0	  x0:0x00000000
       14255000	      1424	800012a0	8fbd4b13	xori	x22,x26,-1797	 x26:0x00000000 x22=0xfffff8fb
       14265000	      1425	800012a4	86f451b7	lui	x3,0x86f45	  x3=0x86f45000
       14275000	      1426	800012a8	41e45093	srai	x1,x8,0x1e	  x8:0xffffffff  x1=0xffffffff
       14285000	      1427	800012ac	40bbd433	sra	x8,x23,x11	 x23:0xff00013e x11:0x0000057a  x8=0xffffffff
       14295000	      1428	800012b0	fd83c0e3	blt	x7,x24,80001270	  x7:0x0000000a x24:0x0000000c
       14305000	      1429	00000000	00000013	addi	x0,x0,0	  x0:0x00000000
       14315000	      1430	8000126c	00000013	addi	x0,x0,0	  x0:0x00000000
       14325000	      1431	80001270	01f32633	slt	x12,x6,x31	  x6:0x00000000 x31:0xbf700000 x12=0x00000000
       14335000	      1432	80001274	308eec93	ori	x25,x29,776	 x29:0x00000000 x25=0x00000308
       14345000	      1433	80001278	01856db3	or	x27,x10,x24	 x10:0x80003030 x24:0x0000000c x27=0x8000303c
       14355000	      1434	8000127c	00238393	addi	x7,x7,2	  x7:0x0000000a  x7=0x0000000c
       14365000	      1435	80001280	40d35933	sra	x18,x6,x13	  x6:0x00000000 x13:0x00000000 x18=0x00000000
       14375000	      1436	80001284	01bf9233	sll	x4,x31,x27	 x31:0xbf700000 x27:0x8000303c  x4=0x00000000
       14385000	      1437	80001288	132e7e93	andi	x29,x28,306	 x28:0x00000000 x29=0x00000000
       14395000	      1438	8000128c	0148e8b3	or	x17,x17,x20	 x17:0x00000000 x20:0x00000000 x17=0x00000000
       14405000	      1439	80001290	01bdc333	xor	x6,x27,x27	 x27:0x8000303c x27:0x8000303c  x6=0x00000000
       14415000	      1440	80001294	354db993	sltiu	x19,x27,852	 x27:0x8000303c x19=0x00000000
       14425000	      1441	80001298	57a06593	ori	x11,x0,1402	  x0:0x00000000 x11=0x0000057a
       14435000	      1442	8000129c	00000013	addi	x0,x0,0	  x0:0x00000000
       14445000	      1443	800012a0	8fbd4b13	xori	x22,x26,-1797	 x26:0x00000000 x22=0xfffff8fb
       14455000	      1444	800012a4	86f451b7	lui	x3,0x86f45	  x3=0x86f45000
       14465000	      1445	800012a8	41e45093	srai	x1,x8,0x1e	  x8:0xffffffff  x1=0xffffffff
       14475000	      1446	800012ac	40bbd433	sra	x8,x23,x11	 x23:0xff00013e x11:0x0000057a  x8=0xffffffff
       14485000	      1447	800012b0	fd83c0e3	blt	x7,x24,80001270	  x7:0x0000000c x24:0x0000000c
       14495000	      1448	800012b4	01d7d693	srli	x13,x15,0x1d	 x15:0x00000004 x13=0x00000000
       14505000	      1449	800012b8	00a00913	addi	x18,x0,10	  x0:0x00000000 x18=0x0000000a
       14515000	      1450	800012bc	006d8033	add	x0,x27,x6	 x27:0x8000303c  x6:0x00000000
       14525000	      1451	800012c0	0122e233	or	x4,x5,x18	  x5:0x0000000d x18:0x0000000a  x4=0x0000000f
       14535000	      1452	800012c4	ff800c93	addi	x25,x0,-8	  x0:0x00000000 x25=0xfffffff8
       14545000	      1453	800012c8	eb86ceb7	lui	x29,0xeb86c	 x29=0xeb86c000
       14555000	      1454	800012cc	01ed55b3	srl	x11,x26,x30	 x26:0x00000000 x30:0xfffffebe x11=0x00000000
       14565000	      1455	800012d0	00000013	addi	x0,x0,0	  x0:0x00000000
       14575000	      1456	800012d4	ff790913	addi	x18,x18,-9	 x18:0x0000000a x18=0x00000001
       14585000	      1457	800012d8	00800193	addi	x3,x0,8	  x0:0x00000000  x3=0x00000008
       14595000	      1458	800012dc	3888ae13	slti	x28,x17,904	 x17:0x00000000 x28=0x00000001
       14605000	      1459	800012e0	00800413	addi	x8,x0,8	  x0:0x00000000  x8=0x00000008
       14615000	      1460	800012e4	00000013	addi	x0,x0,0	  x0:0x00000000
       14625000	      1461	800012e8	00bc5b13	srli	x22,x24,0xb	 x24:0x0000000c x22=0x00000000
       14635000	      1462	800012ec	ff918193	addi	x3,x3,-7	  x3:0x00000008  x3=0x00000001
       14645000	      1463	800012f0	00eefd33	and	x26,x29,x14	 x29:0xeb86c000 x14:0x40ab7244 x26=0x40824000
       14655000	      1464	800012f4	fe81f8e3	bgeu	x3,x8,800012e4	  x3:0x00000001  x8:0x00000008
       14665000	      1465	800012f8	fb64e513	ori	x10,x9,-74	  x9:0x00040000 x10=0xffffffb6
       14675000	      1466	800012fc	8ea3ad93	slti	x27,x7,-1814	  x7:0x0000000c x27=0x00000000
       14685000	      1467	80001300	fd9908e3	beq	x18,x25,800012d0	 x18:0x00000001 x25:0xfffffff8
       14695000	      1468	80001304	c7920f13	addi	x30,x4,-903	  x4:0x0000000f x30=0xfffffc88
       14705000	      1469	80001308	00000413	addi	x8,x0,0	  x0:0x00000000  x8=0x00000000
       14715000	      1470	8000130c	01535b33	srl	x22,x6,x21	  x6:0x00000000 x21:0x00000001 x22=0x00000000
       14725000	      1471	80001310	00100593	addi	x11,x0,1	  x0:0x00000000 x11=0x00000001
       14735000	      1472	80001314	01dae1b3	or	x3,x21,x29	 x21:0x00000001 x29:0xeb86c000  x3=0xeb86c001
       14745000	      1473	80001318	01c49933	sll	x18,x9,x28	  x9:0x00040000 x28:0x00000001 x18=0x00080000
       14755000	      1474	8000131c	00240413	addi	x8,x8,2	  x8:0x00000000  x8=0x00000002
       14765000	      1475	80001320	1442ee13	ori	x28,x5,324	  x5:0x0000000d x28=0x0000014d
       14775000	      1476	80001324	40b084b3	sub	x9,x1,x11	  x1:0xffffffff x11:0x00000001  x9=0xfffffffe
       14785000	      1477	80001328	feb446e3	blt	x8,x11,80001314	  x8:0x00000002 x11:0x00000001
       14795000	      1478	8000132c	a8bf7993	andi	x19,x30,-1397	 x30:0xfffffc88 x19=0xfffff888
       14805000	      1479	80001330	00200213	addi	x4,x0,2	  x0:0x00000000  x4=0x00000002
       14815000	      1480	80001334	01e616b3	sll	x13,x12,x30	 x12:0x00000000 x30:0xfffffc88 x13=0x00000000
       14825000	      1481	80001338	8cc74393	xori	x7,x14,-1844	 x14:0x40ab7244  x7=0xbf548a88
       14835000	      1482	8000133c	018eeab3	or	x21,x29,x24	 x29:0xeb86c000 x24:0x0000000c x21=0xeb86c00c
       14845000	      1483	80001340	00400b93	addi	x23,x0,4	  x0:0x00000000 x23=0x00000004
       14855000	      1484	80001344	01c84633	xor	x12,x16,x28	 x16:0x80009fc4 x28:0x0000014d x12=0x80009e89
       14865000	      1485	80001348	cbaeaa13	slti	x20,x29,-838	 x29:0xeb86c000 x20=0x00000001
       14875000	      1486	8000134c	007ba033	slt	x0,x23,x7	 x23:0x00000004  x7:0xbf548a88
       14885000	      1487	80001350	00e55e13	srli	x28,x10,0xe	 x10:0xffffffb6 x28=0x0003ffff
       14895000	      1488	80001354	8b867e13	andi	x28,x12,-1864	 x12:0x80009e89 x28=0x80009888
       14905000	      1489	80001358	00220213	addi	x4,x4,2	  x4:0x00000002  x4=0x00000004
       14915000	      1490	8000135c	41338c33	sub	x24,x7,x19	  x7:0xbf548a88 x19:0xfffff888 x24=0xbf549200
       14925000	      1491	80001360	01852933	slt	x18,x10,x24	 x10:0xffffffb6 x24:0xbf549200 x18=0x00000000
       14935000	      1492	80001364	feb12093	slti	x1,x2,-21	  x2:0x80009f20  x1=0x00000001
       14945000	      1493	80001368	73ae3513	sltiu	x10,x28,1850	 x28:0x80009888 x10=0x00000000
       14955000	      1494	8000136c	0060fb33	and	x22,x1,x6	  x1:0x00000001  x6:0x00000000 x22=0x00000000
       14965000	      1495	80001370	523aee17	auipc	x28,0x523ae	 x28=0xd23af36c
       14975000	      1496	80001374	0056bab3	sltu	x21,x13,x5	 x13:0x00000000  x5:0x0000000d x21=0x00000001
       14985000	      1497	80001378	41055c93	srai	x25,x10,0x10	 x10:0x00000000 x25=0x00000000
       14995000	      1498	8000137c	fd7268e3	bltu	x4,x23,8000134c	  x4:0x00000004 x23:0x00000004
       15005000	      1499	80001380	005bf633	and	x12,x23,x5	 x23:0x00000004  x5:0x0000000d x12=0x00000004
       15015000	      1500	80001384	00700f93	addi	x31,x0,7	  x0:0x00000000 x31=0x00000007
       15025000	      1501	80001388	309a3d37	lui	x26,0x309a3	 x26=0x309a3000
       15035000	      1502	8000138c	00700593	addi	x11,x0,7	  x0:0x00000000 x11=0x00000007
       15045000	      1503	80001390	05e26713	ori	x14,x4,94	  x4:0x00000004 x14=0x0000005e
       15055000	      1504	80001394	719d4413	xori	x8,x26,1817	 x26:0x309a3000  x8=0x309a3719
       15065000	      1505	80001398	0005a533	slt	x10,x11,x0	 x11:0x00000007  x0:0x00000000 x10=0x00000000
       15075000	      1506	8000139c	01762f33	slt	x30,x12,x23	 x12:0x00000004 x23:0x00000004 x30=0x00000000
       15085000	      1507	800013a0	ffaf8f93	addi	x31,x31,-6	 x31:0x00000007 x31=0x00000001
       15095000	      1508	800013a4	00000013	addi	x0,x0,0	  x0:0x00000000
       15105000	      1509	800013a8	00600d93	addi	x27,x0,6	  x0:0x00000000 x27=0x00000006
       15115000	      1510	800013ac	01200793	addi	x15,x0,18	  x0:0x00000000 x15=0x00000012
       15125000	      1511	800013b0	3ceeff17	auipc	x30,0x3ceef	 x30=0xbcef03ac
       15135000	      1512	800013b4	bdd34c93	xori	x25,x6,-1059	  x6:0x00000000 x25=0xfffffbdd
       15145000	      1513	800013b8	01934e33	xor	x28,x6,x25	  x6:0x00000000 x25:0xfffffbdd x28=0xfffffbdd
       15155000	      1514	800013bc	0088e0b3	or	x1,x17,x8	 x17:0x00000000  x8:0x309a3719  x1=0x309a3719
       15165000	      1515	800013c0	0b979217	auipc	x4,0xb979	  x4=0x8b97a3bc
       15175000	      1516	800013c4	003d8d93	addi	x27,x27,3	 x27:0x00000006 x27=0x00000009
       15185000	      1517	800013c8	01e55a13	srli	x20,x10,0x1e	 x10:0x00000000 x20=0x00000000
       15195000	      1518	800013cc	fefd84e3	beq	x27,x15,800013b4	 x27:0x00000009 x15:0x00000012
       15205000	      1519	800013d0	1c7b4213	xori	x4,x22,455	 x22:0x00000000  x4=0x000001c7
       15215000	      1520	800013d4	fcbff2e3	bgeu	x31,x11,80001398	 x31:0x00000001 x11:0x00000007
       15225000	      1521	800013d8	01621033	sll	x0,x4,x22	  x4:0x000001c7 x22:0x00000000
       15235000	      1522	800013dc	00400e13	addi	x28,x0,4	  x0:0x00000000 x28=0x00000004
       15245000	      1523	800013e0	db9aa593	slti	x11,x21,-583	 x21:0x00000001 x11=0x00000000
       15255000	      1524	800013e4	00700613	addi	x12,x0,7	  x0:0x00000000 x12=0x00000007
       15265000	      1525	800013e8	2ca58e93	addi	x29,x11,714	 x11:0x00000000 x29=0x000002ca
       15275000	      1526	800013ec	00000013	addi	x0,x0,0	  x0:0x00000000
       15285000	      1527	800013f0	a24feab7	lui	x21,0xa24fe	 x21=0xa24fe000
       15295000	      1528	800013f4	005e0e13	addi	x28,x28,5	 x28:0x00000004 x28=0x00000009
       15305000	      1529	800013f8	00488c33	add	x24,x17,x4	 x17:0x00000000  x4:0x000001c7 x24=0x000001c7
       15315000	      1530	800013fc	a5d14513	xori	x10,x2,-1443	  x2:0x80009f20 x10=0x7fff657d
       15325000	      1531	80001400	3bc7bd93	sltiu	x27,x15,956	 x15:0x00000012 x27=0x00000001
       15335000	      1532	80001404	00edcbb3	xor	x23,x27,x14	 x27:0x00000001 x14:0x0000005e x23=0x0000005f
       15345000	      1533	80001408	00700993	addi	x19,x0,7	  x0:0x00000000 x19=0x00000007
       15355000	      1534	8000140c	00582eb3	slt	x29,x16,x5	 x16:0x80009fc4  x5:0x0000000d x29=0x00000001
       15365000	      1535	80001410	00a00a13	addi	x20,x0,10	  x0:0x00000000 x20=0x0000000a
       15375000	      1536	80001414	001b2d33	slt	x26,x22,x1	 x22:0x00000000  x1:0x309a3719 x26=0x00000001
       15385000	      1537	80001418	010bdd93	srli	x27,x23,0x10	 x23:0x0000005f x27=0x00000000
       15395000	      1538	8000141c	00000013	addi	x0,x0,0	  x0:0x00000000
       15405000	      1539	80001420	00000013	addi	x0,x0,0	  x0:0x00000000
       15415000	      1540	80001424	00a99e93	slli	x29,x19,0xa	 x19:0x00000007 x29=0x00001c00
       15425000	      1541	80001428	0056f333	and	x6,x13,x5	 x13:0x00000000  x5:0x0000000d  x6=0x00000000
       15435000	      1542	8000142c	00998993	addi	x19,x19,9	 x19:0x00000007 x19=0x00000010
       15445000	      1543	80001430	019cddb3	srl	x27,x25,x25	 x25:0xfffffbdd x25:0xfffffbdd x27=0x00000007
       15455000	      1544	80001434	414f81b3	sub	x3,x31,x20	 x31:0x00000001 x20:0x0000000a  x3=0xfffffff7
       15465000	      1545	80001438	413fd893	srai	x17,x31,0x13	 x31:0x00000001 x17=0x00000000
       15475000	      1546	8000143c	a552b037	lui	x0,0xa552b	
       15485000	      1547	80001440	ff49e0e3	bltu	x19,x20,80001420	 x19:0x00000010 x20:0x0000000a
       15495000	      1548	80001444	2eb4b793	sltiu	x15,x9,747	  x9:0xfffffffe x15=0x00000000
       15505000	      1549	80001448	8bd43c93	sltiu	x25,x8,-1859	  x8:0x309a3719 x25=0x00000001
       15515000	      1550	8000144c	face60e3	bltu	x28,x12,800013ec	 x28:0x00000009 x12:0x00000007
       15525000	      1551	80001450	42c97913	andi	x18,x18,1068	 x18:0x00000000 x18=0x00000000
       15535000	      1552	80001454	00100693	addi	x13,x0,1	  x0:0x00000000 x13=0x00000001
       15545000	      1553	80001458	41f2d033	sra	x0,x5,x31	  x5:0x0000000d x31:0x00000001
       15555000	      1554	8000145c	7f4ae213	ori	x4,x21,2036	 x21:0xa24fe000  x4=0xa24fe7f4
       15565000	      1555	80001460	75b97e13	andi	x28,x18,1883	 x18:0x00000000 x28=0x00000000
       15575000	      1556	80001464	4112d093	srai	x1,x5,0x11	  x5:0x0000000d  x1=0x00000000
       15585000	      1557	80001468	41ad5393	srai	x7,x26,0x1a	 x26:0x00000001  x7=0x00000000
       15595000	      1558	8000146c	013f39b3	sltu	x19,x30,x19	 x30:0xbcef03ac x19:0x00000010 x19=0x00000000
       15605000	      1559	80001470	00cac633	xor	x12,x21,x12	 x21:0xa24fe000 x12:0x00000007 x12=0xa24fe007
       15615000	      1560	80001474	136bb213	sltiu	x4,x23,310	 x23:0x0000005f  x4=0x00000001
       15625000	      1561	80001478	408687b3	sub	x15,x13,x8	 x13:0x00000001  x8:0x309a3719 x15=0xcf65c8e8
       15635000	      1562	8000147c	2b2cce13	xori	x28,x25,690	 x25:0x00000001 x28=0x000002b3
       15645000	      1563	80001480	00100d13	addi	x26,x0,1	  x0:0x00000000 x26=0x00000001
       15655000	      1564	80001484	01471a93	slli	x21,x14,0x14	 x14:0x0000005e x21=0x05e00000
       15665000	      1565	80001488	768e3793	sltiu	x15,x28,1896	 x28:0x000002b3 x15=0x00000001
       15675000	      1566	8000148c	41de84b3	sub	x9,x29,x29	 x29:0x00001c00 x29:0x00001c00  x9=0x00000000
       15685000	      1567	80001490	80964a13	xori	x20,x12,-2039	 x12:0xa24fe007 x20=0x5db0180e
       15695000	      1568	80001494	ff968693	addi	x13,x13,-7	 x13:0x00000001 x13=0xfffffffa
       15705000	      1569	80001498	00000013	addi	x0,x0,0	  x0:0x00000000
       15715000	      1570	8000149c	00800193	addi	x3,x0,8	  x0:0x00000000  x3=0x00000008
       15725000	      1571	800014a0	01fd9c13	slli	x24,x27,0x1f	 x27:0x00000007 x24=0x80000000
       15735000	      1572	800014a4	00401a93	slli	x21,x0,0x4	  x0:0x00000000 x21=0x00000000
       15745000	      1573	800014a8	00000913	addi	x18,x0,0	  x0:0x00000000 x18=0x00000000
       15755000	      1574	800014ac	004f0733	add	x14,x30,x4	 x30:0xbcef03ac  x4:0x00000001 x14=0xbcef03ad
       15765000	      1575	800014b0	003f3233	sltu	x4,x30,x3	 x30:0xbcef03ac  x3:0x00000008  x4=0x00000000
       15775000	      1576	800014b4	01fee5b3	or	x11,x29,x31	 x29:0x00001c00 x31:0x00000001 x11=0x00001c01
       15785000	      1577	800014b8	e0842f13	slti	x30,x8,-504	  x8:0x309a3719 x30=0x00000000
       15795000	      1578	800014bc	00860ab3	add	x21,x12,x8	 x12:0xa24fe007  x8:0x309a3719 x21=0xd2ea1720
       15805000	      1579	800014c0	00ef18b3	sll	x17,x30,x14	 x30:0x00000000 x14:0xbcef03ad x17=0x00000000
       15815000	      1580	800014c4	fff18193	addi	x3,x3,-1	  x3:0x00000008  x3=0x00000007
       15825000	      1581	800014c8	31866213	ori	x4,x12,792	 x12:0xa24fe007  x4=0xa24fe31f
       15835000	      1582	800014cc	00d190b3	sll	x1,x3,x13	  x3:0x00000007 x13:0xfffffffa  x1=0x1c000000
       15845000	      1583	800014d0	ff2194e3	bne	x3,x18,800014b8	  x3:0x00000007 x18:0x00000000
       15855000	      1584	00000000	00000013	addi	x0,x0,0	  x0:0x00000000
       15865000	      1585	800014b4	00000013	addi	x0,x0,0	  x0:0x00000000
       15875000	      1586	800014b8	e0842f13	slti	x30,x8,-504	  x8:0x309a3719 x30=0x00000000
       15885000	      1587	800014bc	00860ab3	add	x21,x12,x8	 x12:0xa24fe007  x8:0x309a3719 x21=0xd2ea1720
       15895000	      1588	800014c0	00ef18b3	sll	x17,x30,x14	 x30:0x00000000 x14:0xbcef03ad x17=0x00000000
       15905000	      1589	800014c4	fff18193	addi	x3,x3,-1	  x3:0x00000007  x3=0x00000006
       15915000	      1590	800014c8	31866213	ori	x4,x12,792	 x12:0xa24fe007  x4=0xa24fe31f
       15925000	      1591	800014cc	00d190b3	sll	x1,x3,x13	  x3:0x00000006 x13:0xfffffffa  x1=0x18000000
       15935000	      1592	800014d0	ff2194e3	bne	x3,x18,800014b8	  x3:0x00000006 x18:0x00000000
       15945000	      1593	00000000	00000013	addi	x0,x0,0	  x0:0x00000000
       15955000	      1594	800014b4	00000013	addi	x0,x0,0	  x0:0x00000000
       15965000	      1595	800014b8	e0842f13	slti	x30,x8,-504	  x8:0x309a3719 x30=0x00000000
       15975000	      1596	800014bc	00860ab3	add	x21,x12,x8	 x12:0xa24fe007  x8:0x309a3719 x21=0xd2ea1720
       15985000	      1597	800014c0	00ef18b3	sll	x17,x30,x14	 x30:0x00000000 x14:0xbcef03ad x17=0x00000000
       15995000	      1598	800014c4	fff18193	addi	x3,x3,-1	  x3:0x00000006  x3=0x00000005
       16005000	      1599	800014c8	31866213	ori	x4,x12,792	 x12:0xa24fe007  x4=0xa24fe31f
       16015000	      1600	800014cc	00d190b3	sll	x1,x3,x13	  x3:0x00000005 x13:0xfffffffa  x1=0x14000000
       16025000	      1601	800014d0	ff2194e3	bne	x3,x18,800014b8	  x3:0x00000005 x18:0x00000000
       16035000	      1602	00000000	00000013	addi	x0,x0,0	  x0:0x00000000
       16045000	      1603	800014b4	00000013	addi	x0,x0,0	  x0:0x00000000
       16055000	      1604	800014b8	e0842f13	slti	x30,x8,-504	  x8:0x309a3719 x30=0x00000000
       16065000	      1605	800014bc	00860ab3	add	x21,x12,x8	 x12:0xa24fe007  x8:0x309a3719 x21=0xd2ea1720
       16075000	      1606	800014c0	00ef18b3	sll	x17,x30,x14	 x30:0x00000000 x14:0xbcef03ad x17=0x00000000
       16085000	      1607	800014c4	fff18193	addi	x3,x3,-1	  x3:0x00000005  x3=0x00000004
       16095000	      1608	800014c8	31866213	ori	x4,x12,792	 x12:0xa24fe007  x4=0xa24fe31f
       16105000	      1609	800014cc	00d190b3	sll	x1,x3,x13	  x3:0x00000004 x13:0xfffffffa  x1=0x10000000
       16115000	      1610	800014d0	ff2194e3	bne	x3,x18,800014b8	  x3:0x00000004 x18:0x00000000
       16125000	      1611	00000000	00000013	addi	x0,x0,0	  x0:0x00000000
       16135000	      1612	800014b4	00000013	addi	x0,x0,0	  x0:0x00000000
       16145000	      1613	800014b8	e0842f13	slti	x30,x8,-504	  x8:0x309a3719 x30=0x00000000
       16155000	      1614	800014bc	00860ab3	add	x21,x12,x8	 x12:0xa24fe007  x8:0x309a3719 x21=0xd2ea1720
       16165000	      1615	800014c0	00ef18b3	sll	x17,x30,x14	 x30:0x00000000 x14:0xbcef03ad x17=0x00000000
       16175000	      1616	800014c4	fff18193	addi	x3,x3,-1	  x3:0x00000004  x3=0x00000003
       16185000	      1617	800014c8	31866213	ori	x4,x12,792	 x12:0xa24fe007  x4=0xa24fe31f
       16195000	      1618	800014cc	00d190b3	sll	x1,x3,x13	  x3:0x00000003 x13:0xfffffffa  x1=0x0c000000
       16205000	      1619	800014d0	ff2194e3	bne	x3,x18,800014b8	  x3:0x00000003 x18:0x00000000
       16215000	      1620	00000000	00000013	addi	x0,x0,0	  x0:0x00000000
       16225000	      1621	800014b4	00000013	addi	x0,x0,0	  x0:0x00000000
       16235000	      1622	800014b8	e0842f13	slti	x30,x8,-504	  x8:0x309a3719 x30=0x00000000
       16245000	      1623	800014bc	00860ab3	add	x21,x12,x8	 x12:0xa24fe007  x8:0x309a3719 x21=0xd2ea1720
       16255000	      1624	800014c0	00ef18b3	sll	x17,x30,x14	 x30:0x00000000 x14:0xbcef03ad x17=0x00000000
       16265000	      1625	800014c4	fff18193	addi	x3,x3,-1	  x3:0x00000003  x3=0x00000002
       16275000	      1626	800014c8	31866213	ori	x4,x12,792	 x12:0xa24fe007  x4=0xa24fe31f
       16285000	      1627	800014cc	00d190b3	sll	x1,x3,x13	  x3:0x00000002 x13:0xfffffffa  x1=0x08000000
       16295000	      1628	800014d0	ff2194e3	bne	x3,x18,800014b8	  x3:0x00000002 x18:0x00000000
       16305000	      1629	00000000	00000013	addi	x0,x0,0	  x0:0x00000000
       16315000	      1630	800014b4	00000013	addi	x0,x0,0	  x0:0x00000000
       16325000	      1631	800014b8	e0842f13	slti	x30,x8,-504	  x8:0x309a3719 x30=0x00000000
       16335000	      1632	800014bc	00860ab3	add	x21,x12,x8	 x12:0xa24fe007  x8:0x309a3719 x21=0xd2ea1720
       16345000	      1633	800014c0	00ef18b3	sll	x17,x30,x14	 x30:0x00000000 x14:0xbcef03ad x17=0x00000000
       16355000	      1634	800014c4	fff18193	addi	x3,x3,-1	  x3:0x00000002  x3=0x00000001
       16365000	      1635	800014c8	31866213	ori	x4,x12,792	 x12:0xa24fe007  x4=0xa24fe31f
       16375000	      1636	800014cc	00d190b3	sll	x1,x3,x13	  x3:0x00000001 x13:0xfffffffa  x1=0x04000000
       16385000	      1637	800014d0	ff2194e3	bne	x3,x18,800014b8	  x3:0x00000001 x18:0x00000000
       16395000	      1638	00000000	00000013	addi	x0,x0,0	  x0:0x00000000
       16405000	      1639	800014b4	00000013	addi	x0,x0,0	  x0:0x00000000
       16415000	      1640	800014b8	e0842f13	slti	x30,x8,-504	  x8:0x309a3719 x30=0x00000000
       16425000	      1641	800014bc	00860ab3	add	x21,x12,x8	 x12:0xa24fe007  x8:0x309a3719 x21=0xd2ea1720
       16435000	      1642	800014c0	00ef18b3	sll	x17,x30,x14	 x30:0x00000000 x14:0xbcef03ad x17=0x00000000
       16445000	      1643	800014c4	fff18193	addi	x3,x3,-1	  x3:0x00000001  x3=0x00000000
       16455000	      1644	800014c8	31866213	ori	x4,x12,792	 x12:0xa24fe007  x4=0xa24fe31f
       16465000	      1645	800014cc	00d190b3	sll	x1,x3,x13	  x3:0x00000000 x13:0xfffffffa  x1=0x00000000
       16475000	      1646	800014d0	ff2194e3	bne	x3,x18,800014b8	  x3:0x00000000 x18:0x00000000
       16485000	      1647	800014d4	016f6733	or	x14,x30,x22	 x30:0x00000000 x22:0x00000000 x14=0x00000000
       16495000	      1648	800014d8	fba6dae3	bge	x13,x26,8000148c	 x13:0xfffffffa x26:0x00000001
       16505000	      1649	800014dc	010939b3	sltu	x19,x18,x16	 x18:0x00000000 x16:0x80009fc4 x19=0x00000001
       16515000	      1650	800014e0	ff600a93	addi	x21,x0,-10	  x0:0x00000000 x21=0xfffffff6
       16525000	      1651	800014e4	ff400413	addi	x8,x0,-12	  x0:0x00000000  x8=0xfffffff4
       16535000	      1652	800014e8	43b810b7	lui	x1,0x43b81	  x1=0x43b81000
       16545000	      1653	800014ec	ff9a8a93	addi	x21,x21,-7	 x21:0xfffffff6 x21=0xffffffef
       16555000	      1654	800014f0	00900f93	addi	x31,x0,9	  x0:0x00000000 x31=0x00000009
       16565000	      1655	800014f4	4cf64e13	xori	x28,x12,1231	 x12:0xa24fe007 x28=0xa24fe4c8
       16575000	      1656	800014f8	00800d93	addi	x27,x0,8	  x0:0x00000000 x27=0x00000008
       16585000	      1657	800014fc	008db933	sltu	x18,x27,x8	 x27:0x00000008  x8:0xfffffff4 x18=0x00000001
       16595000	      1658	80001500	ff9f8f93	addi	x31,x31,-7	 x31:0x00000009 x31=0x00000002
       16605000	      1659	80001504	05b03693	sltiu	x13,x0,91	  x0:0x00000000 x13=0x00000001
       16615000	      1660	80001508	ffbffae3	bgeu	x31,x27,800014fc	 x31:0x00000002 x27:0x00000008
       16625000	      1661	8000150c	fc8adee3	bge	x21,x8,800014e8	 x21:0xffffffef  x8:0xfffffff4
       16635000	      1662	80001510	01dc46b3	xor	x13,x24,x29	 x24:0x80000000 x29:0x00001c00 x13=0x80001c00
       16645000	      1663	80001514	00800413	addi	x8,x0,8	  x0:0x00000000  x8=0x00000008
       16655000	      1664	80001518	012dcfb3	xor	x31,x27,x18	 x27:0x00000008 x18:0x00000001 x31=0x00000009
       16665000	      1665	8000151c	00f12f33	slt	x30,x2,x15	  x2:0x80009f20 x15:0x00000001 x30=0x00000001
       16675000	      1666	80001520	015baa33	slt	x20,x23,x21	 x23:0x0000005f x21:0xffffffef x20=0x00000000
       16685000	      1667	80001524	00f00d93	addi	x27,x0,15	  x0:0x00000000 x27=0x0000000f
       16695000	      1668	80001528	17d4e193	ori	x3,x9,381	  x9:0x00000000  x3=0x0000017d
       16705000	      1669	8000152c	00f5a4b3	slt	x9,x11,x15	 x11:0x00001c01 x15:0x00000001  x9=0x00000000
       16715000	      1670	80001530	01b62eb3	slt	x29,x12,x27	 x12:0xa24fe007 x27:0x0000000f x29=0x00000001
       16725000	      1671	80001534	00840413	addi	x8,x8,8	  x8:0x00000008  x8=0x00000010
       16735000	      1672	80001538	012e26b3	slt	x13,x28,x18	 x28:0xa24fe4c8 x18:0x00000001 x13=0x00000001
       16745000	      1673	8000153c	1e858f93	addi	x31,x11,488	 x11:0x00001c01 x31=0x00001de9
       16755000	      1674	80001540	00282bb3	slt	x23,x16,x2	 x16:0x80009fc4  x2:0x80009f20 x23=0x00000000
       16765000	      1675	80001544	ffb446e3	blt	x8,x27,80001530	  x8:0x00000010 x27:0x0000000f
       16775000	      1676	80001548	0165c033	xor	x0,x11,x22	 x11:0x00001c01 x22:0x00000000
       16785000	      1677	8000154c	ff600d13	addi	x26,x0,-10	  x0:0x00000000 x26=0xfffffff6
       16795000	      1678	80001550	6fa30413	addi	x8,x6,1786	  x6:0x00000000  x8=0x000006fa
       16805000	      1679	80001554	0128b8b3	sltu	x17,x17,x18	 x17:0x00000000 x18:0x00000001 x17=0x00000001
       16815000	      1680	80001558	41395313	srai	x6,x18,0x13	 x18:0x00000001  x6=0x00000000
       16825000	      1681	8000155c	013203b3	add	x7,x4,x19	  x4:0xa24fe31f x19:0x00000001  x7=0xa24fe320
       16835000	      1682	80001560	00f41993	slli	x19,x8,0xf	  x8:0x000006fa x19=0x037d0000
       16845000	      1683	80001564	679c8193	addi	x3,x25,1657	 x25:0x00000001  x3=0x0000067a
       16855000	      1684	80001568	00000513	addi	x10,x0,0	  x0:0x00000000 x10=0x00000000
       16865000	      1685	8000156c	1190f613	andi	x12,x1,281	  x1:0x43b81000 x12=0x00000000
       16875000	      1686	80001570	01ed0f33	add	x30,x26,x30	 x26:0xfffffff6 x30:0x00000001 x30=0xfffffff7
       16885000	      1687	80001574	0143dcb3	srl	x25,x7,x20	  x7:0xa24fe320 x20:0x00000000 x25=0xa24fe320
       16895000	      1688	80001578	003d0d13	addi	x26,x26,3	 x26:0xfffffff6 x26=0xfffffff9
       16905000	      1689	8000157c	244a1217	auipc	x4,0x244a1	  x4=0xa44a2578
       16915000	      1690	80001580	ff800c13	addi	x24,x0,-8	  x0:0x00000000 x24=0xfffffff8
       16925000	      1691	80001584	06f68097	auipc	x1,0x6f68	  x1=0x86f69580
       16935000	      1692	80001588	01539993	slli	x19,x7,0x15	  x7:0xa24fe320 x19=0x64000000
       16945000	      1693	8000158c	21693793	sltiu	x15,x18,534	 x18:0x00000001 x15=0x00000001
       16955000	      1694	80001590	01daf1b3	and	x3,x21,x29	 x21:0xffffffef x29:0x00000001  x3=0x00000001
       16965000	      1695	80001594	00a00913	addi	x18,x0,10	  x0:0x00000000 x18=0x0000000a
       16975000	      1696	80001598	b8d93413	sltiu	x8,x18,-1139	 x18:0x0000000a  x8=0x00000001
       16985000	      1697	8000159c	014a70b3	and	x1,x20,x20	 x20:0x00000000 x20:0x00000000  x1=0x00000000
       16995000	      1698	800015a0	009c0c13	addi	x24,x24,9	 x24:0xfffffff8 x24=0x00000001
       17005000	      1699	800015a4	ff2c0ae3	beq	x24,x18,80001598	 x24:0x00000001 x18:0x0000000a
       17015000	      1700	800015a8	00000013	addi	x0,x0,0	  x0:0x00000000
       17025000	      1701	800015ac	95524993	xori	x19,x4,-1707	  x4:0xa44a2578 x19=0x5bb5dc2d
       17035000	      1702	800015b0	017ca5b3	slt	x11,x25,x23	 x25:0xa24fe320 x23:0x00000000 x11=0x00000001
       17045000	      1703	800015b4	0058c733	xor	x14,x17,x5	 x17:0x00000001  x5:0x0000000d x14=0x0000000c
       17055000	      1704	800015b8	002e3e33	sltu	x28,x28,x2	 x28:0xa24fe4c8  x2:0x80009f20 x28=0x00000000
       17065000	      1705	800015bc	faad48e3	blt	x26,x10,8000156c	 x26:0xfffffff9 x10:0x00000000
       17075000	      1706	00000000	00000013	addi	x0,x0,0	  x0:0x00000000
       17085000	      1707	80001568	00000013	addi	x0,x0,0	  x0:0x00000000
       17095000	      1708	8000156c	1190f613	andi	x12,x1,281	  x1:0x00000000 x12=0x00000000
       17105000	      1709	80001570	01ed0f33	add	x30,x26,x30	 x26:0xfffffff9 x30:0xfffffff7 x30=0xfffffff0
       17115000	      1710	80001574	0143dcb3	srl	x25,x7,x20	  x7:0xa24fe320 x20:0x00000000 x25=0xa24fe320
       17125000	      1711	80001578	003d0d13	addi	x26,x26,3	 x26:0xfffffff9 x26=0xfffffffc
       17135000	      1712	8000157c	244a1217	auipc	x4,0x244a1	  x4=0xa44a2578
       17145000	      1713	80001580	ff800c13	addi	x24,x0,-8	  x0:0x00000000 x24=0xfffffff8
       17155000	      1714	80001584	06f68097	auipc	x1,0x6f68	  x1=0x86f69580
       17165000	      1715	80001588	01539993	slli	x19,x7,0x15	  x7:0xa24fe320 x19=0x64000000
       17175000	      1716	8000158c	21693793	sltiu	x15,x18,534	 x18:0x0000000a x15=0x00000001
       17185000	      1717	80001590	01daf1b3	and	x3,x21,x29	 x21:0xffffffef x29:0x00000001  x3=0x00000001
       17195000	      1718	80001594	00a00913	addi	x18,x0,10	  x0:0x00000000 x18=0x0000000a
       17205000	      1719	80001598	b8d93413	sltiu	x8,x18,-1139	 x18:0x0000000a  x8=0x00000001
       17215000	      1720	8000159c	014a70b3	and	x1,x20,x20	 x20:0x00000000 x20:0x00000000  x1=0x00000000
       17225000	      1721	800015a0	009c0c13	addi	x24,x24,9	 x24:0xfffffff8 x24=0x00000001
       17235000	      1722	800015a4	ff2c0ae3	beq	x24,x18,80001598	 x24:0x00000001 x18:0x0000000a
       17245000	      1723	800015a8	00000013	addi	x0,x0,0	  x0:0x00000000
       17255000	      1724	800015ac	95524993	xori	x19,x4,-1707	  x4:0xa44a2578 x19=0x5bb5dc2d
       17265000	      1725	800015b0	017ca5b3	slt	x11,x25,x23	 x25:0xa24fe320 x23:0x00000000 x11=0x00000001
       17275000	      1726	800015b4	0058c733	xor	x14,x17,x5	 x17:0x00000001  x5:0x0000000d x14=0x0000000c
       17285000	      1727	800015b8	002e3e33	sltu	x28,x28,x2	 x28:0x00000000  x2:0x80009f20 x28=0x00000001
       17295000	      1728	800015bc	faad48e3	blt	x26,x10,8000156c	 x26:0xfffffffc x10:0x00000000
       17305000	      1729	00000000	00000013	addi	x0,x0,0	  x0:0x00000000
       17315000	      1730	80001568	00000013	addi	x0,x0,0	  x0:0x00000000
       17325000	      1731	8000156c	1190f613	andi	x12,x1,281	  x1:0x00000000 x12=0x00000000
       17335000	      1732	80001570	01ed0f33	add	x30,x26,x30	 x26:0xfffffffc x30:0xfffffff0 x30=0xffffffec
       17345000	      1733	80001574	0143dcb3	srl	x25,x7,x20	  x7:0xa24fe320 x20:0x00000000 x25=0xa24fe320
       17355000	      1734	80001578	003d0d13	addi	x26,x26,3	 x26:0xfffffffc x26=0xffffffff
       17365000	      1735	8000157c	244a1217	auipc	x4,0x244a1	  x4=0xa44a2578
       17375000	      1736	80001580	ff800c13	addi	x24,x0,-8	  x0:0x00000000 x24=0xfffffff8
       17385000	      1737	80001584	06f68097	auipc	x1,0x6f68	  x1=0x86f69580
       17395000	      1738	80001588	01539993	slli	x19,x7,0x15	  x7:0xa24fe320 x19=0x64000000
       17405000	      1739	8000158c	21693793	sltiu	x15,x18,534	 x18:0x0000000a x15=0x00000001
       17415000	      1740	80001590	01daf1b3	and	x3,x21,x29	 x21:0xffffffef x29:0x00000001  x3=0x00000001
       17425000	      1741	80001594	00a00913	addi	x18,x0,10	  x0:0x00000000 x18=0x0000000a
       17435000	      1742	80001598	b8d93413	sltiu	x8,x18,-1139	 x18:0x0000000a  x8=0x00000001
       17445000	      1743	8000159c	014a70b3	and	x1,x20,x20	 x20:0x00000000 x20:0x00000000  x1=0x00000000
       17455000	      1744	800015a0	009c0c13	addi	x24,x24,9	 x24:0xfffffff8 x24=0x00000001
       17465000	      1745	800015a4	ff2c0ae3	beq	x24,x18,80001598	 x24:0x00000001 x18:0x0000000a
       17475000	      1746	800015a8	00000013	addi	x0,x0,0	  x0:0x00000000
       17485000	      1747	800015ac	95524993	xori	x19,x4,-1707	  x4:0xa44a2578 x19=0x5bb5dc2d
       17495000	      1748	800015b0	017ca5b3	slt	x11,x25,x23	 x25:0xa24fe320 x23:0x00000000 x11=0x00000001
       17505000	      1749	800015b4	0058c733	xor	x14,x17,x5	 x17:0x00000001  x5:0x0000000d x14=0x0000000c
       17515000	      1750	800015b8	002e3e33	sltu	x28,x28,x2	 x28:0x00000001  x2:0x80009f20 x28=0x00000001
       17525000	      1751	800015bc	faad48e3	blt	x26,x10,8000156c	 x26:0xffffffff x10:0x00000000
       17535000	      1752	00000000	00000013	addi	x0,x0,0	  x0:0x00000000
       17545000	      1753	80001568	00000013	addi	x0,x0,0	  x0:0x00000000
       17555000	      1754	8000156c	1190f613	andi	x12,x1,281	  x1:0x00000000 x12=0x00000000
       17565000	      1755	80001570	01ed0f33	add	x30,x26,x30	 x26:0xffffffff x30:0xffffffec x30=0xffffffeb
       17575000	      1756	80001574	0143dcb3	srl	x25,x7,x20	  x7:0xa24fe320 x20:0x00000000 x25=0xa24fe320
       17585000	      1757	80001578	003d0d13	addi	x26,x26,3	 x26:0xffffffff x26=0x00000002
       17595000	      1758	8000157c	244a1217	auipc	x4,0x244a1	  x4=0xa44a2578
       17605000	      1759	80001580	ff800c13	addi	x24,x0,-8	  x0:0x00000000 x24=0xfffffff8
       17615000	      1760	80001584	06f68097	auipc	x1,0x6f68	  x1=0x86f69580
       17625000	      1761	80001588	01539993	slli	x19,x7,0x15	  x7:0xa24fe320 x19=0x64000000
       17635000	      1762	8000158c	21693793	sltiu	x15,x18,534	 x18:0x0000000a x15=0x00000001
       17645000	      1763	80001590	01daf1b3	and	x3,x21,x29	 x21:0xffffffef x29:0x00000001  x3=0x00000001
       17655000	      1764	80001594	00a00913	addi	x18,x0,10	  x0:0x00000000 x18=0x0000000a
       17665000	      1765	80001598	b8d93413	sltiu	x8,x18,-1139	 x18:0x0000000a  x8=0x00000001
       17675000	      1766	8000159c	014a70b3	and	x1,x20,x20	 x20:0x00000000 x20:0x00000000  x1=0x00000000
       17685000	      1767	800015a0	009c0c13	addi	x24,x24,9	 x24:0xfffffff8 x24=0x00000001
       17695000	      1768	800015a4	ff2c0ae3	beq	x24,x18,80001598	 x24:0x00000001 x18:0x0000000a
       17705000	      1769	800015a8	00000013	addi	x0,x0,0	  x0:0x00000000
       17715000	      1770	800015ac	95524993	xori	x19,x4,-1707	  x4:0xa44a2578 x19=0x5bb5dc2d
       17725000	      1771	800015b0	017ca5b3	slt	x11,x25,x23	 x25:0xa24fe320 x23:0x00000000 x11=0x00000001
       17735000	      1772	800015b4	0058c733	xor	x14,x17,x5	 x17:0x00000001  x5:0x0000000d x14=0x0000000c
       17745000	      1773	800015b8	002e3e33	sltu	x28,x28,x2	 x28:0x00000001  x2:0x80009f20 x28=0x00000001
       17755000	      1774	800015bc	faad48e3	blt	x26,x10,8000156c	 x26:0x00000002 x10:0x00000000
       17765000	      1775	800015c0	018d9a13	slli	x20,x27,0x18	 x27:0x0000000f x20=0x0f000000
       17775000	      1776	800015c4	00a00a13	addi	x20,x0,10	  x0:0x00000000 x20=0x0000000a
       17785000	      1777	800015c8	01cafcb3	and	x25,x21,x28	 x21:0xffffffef x28:0x00000001 x25=0x00000001
       17795000	      1778	800015cc	00900613	addi	x12,x0,9	  x0:0x00000000 x12=0x00000009
       17805000	      1779	800015d0	c0b5a013	slti	x0,x11,-1013	 x11:0x00000001
       17815000	      1780	800015d4	f173e693	ori	x13,x7,-233	  x7:0xa24fe320 x13=0xffffff37
       17825000	      1781	800015d8	411b08b3	sub	x17,x22,x17	 x22:0x00000000 x17:0x00000001 x17=0xffffffff
       17835000	      1782	800015dc	00151333	sll	x6,x10,x1	 x10:0x00000000  x1:0x00000000  x6=0x00000000
       17845000	      1783	800015e0	012283b3	add	x7,x5,x18	  x5:0x0000000d x18:0x0000000a  x7=0x00000017
       17855000	      1784	800015e4	23938513	addi	x10,x7,569	  x7:0x00000017 x10=0x00000250
       17865000	      1785	800015e8	07cfca97	auipc	x21,0x7cfc	 x21=0x87cfd5e4
       17875000	      1786	800015ec	ffba0a13	addi	x20,x20,-5	 x20:0x0000000a x20=0x00000005
       17885000	      1787	800015f0	ffc00593	addi	x11,x0,-4	  x0:0x00000000 x11=0xfffffffc
       17895000	      1788	800015f4	00f00f93	addi	x31,x0,15	  x0:0x00000000 x31=0x0000000f
       17905000	      1789	800015f8	ec3fe437	lui	x8,0xec3fe	  x8=0xec3fe000
       17915000	      1790	800015fc	e992b493	sltiu	x9,x5,-359	  x5:0x0000000d  x9=0x00000001
       17925000	      1791	80001600	82bb2513	slti	x10,x22,-2005	 x22:0x00000000 x10=0x00000000
       17935000	      1792	80001604	00358593	addi	x11,x11,3	 x11:0xfffffffc x11=0xffffffff
       17945000	      1793	80001608	c84800b7	lui	x1,0xc8480	  x1=0xc8480000
       17955000	      1794	8000160c	01314db3	xor	x27,x2,x19	  x2:0x80009f20 x19:0x5bb5dc2d x27=0xdbb5430d
       17965000	      1795	80001610	fff5e8e3	bltu	x11,x31,80001600	 x11:0xffffffff x31:0x0000000f
       17975000	      1796	80001614	01dcd493	srli	x9,x25,0x1d	 x25:0x00000001  x9=0x00000000
       17985000	      1797	80001618	d3cef493	andi	x9,x29,-708	 x29:0x00000001  x9=0x00000000
       17995000	      1798	8000161c	fcca72e3	bgeu	x20,x12,800015e0	 x20:0x00000005 x12:0x00000009
       18005000	      1799	80001620	a2ddc513	xori	x10,x27,-1491	 x27:0xdbb5430d x10=0x244ab920
       18015000	      1800	80001624	ff900713	addi	x14,x0,-7	  x0:0x00000000 x14=0xfffffff9
       18025000	      1801	80001628	0105d013	srli	x0,x11,0x10	 x11:0xffffffff
       18035000	      1802	8000162c	0127c4b3	xor	x9,x15,x18	 x15:0x00000001 x18:0x0000000a  x9=0x0000000b
       18045000	      1803	80001630	65c48f13	addi	x30,x9,1628	  x9:0x0000000b x30=0x00000667
       18055000	      1804	80001634	fef00993	addi	x19,x0,-17	  x0:0x00000000 x19=0xffffffef
       18065000	      1805	80001638	fcd50313	addi	x6,x10,-51	 x10:0x244ab920  x6=0x244ab8ed
       18075000	      1806	8000163c	019d1033	sll	x0,x26,x25	 x26:0x00000002 x25:0x00000001
       18085000	      1807	80001640	ff970713	addi	x14,x14,-7	 x14:0xfffffff9 x14=0xfffffff2
       18095000	      1808	80001644	ff375ae3	bge	x14,x19,80001638	 x14:0xfffffff2 x19:0xffffffef
       18105000	      1809	00000000	00000013	addi	x0,x0,0	  x0:0x00000000
       18115000	      1810	80001634	00000013	addi	x0,x0,0	  x0:0x00000000
       18125000	      1811	80001638	fcd50313	addi	x6,x10,-51	 x10:0x244ab920  x6=0x244ab8ed
       18135000	      1812	8000163c	019d1033	sll	x0,x26,x25	 x26:0x00000002 x25:0x00000001
       18145000	      1813	80001640	ff970713	addi	x14,x14,-7	 x14:0xfffffff2 x14=0xffffffeb
       18155000	      1814	80001644	ff375ae3	bge	x14,x19,80001638	 x14:0xffffffeb x19:0xffffffef
       18165000	      1815	80001648	00658b33	add	x22,x11,x6	 x11:0xffffffff  x6:0x244ab8ed x22=0x244ab8ec
       18175000	      1816	8000164c	ffa00693	addi	x13,x0,-6	  x0:0x00000000 x13=0xfffffffa
       18185000	      1817	80001650	00b00313	addi	x6,x0,11	  x0:0x00000000  x6=0x0000000b
       18195000	      1818	80001654	0b9ef793	andi	x15,x29,185	 x29:0x00000001 x15=0x00000001
       18205000	      1819	80001658	38192d93	slti	x27,x18,897	 x18:0x0000000a x27=0x00000001
       18215000	      1820	8000165c	59198d93	addi	x27,x19,1425	 x19:0xffffffef x27=0x00000580
       18225000	      1821	80001660	41dfd633	sra	x12,x31,x29	 x31:0x0000000f x29:0x00000001 x12=0x00000007
       18235000	      1822	80001664	01a25bb3	srl	x23,x4,x26	  x4:0xa44a2578 x26:0x00000002 x23=0x2912895e
       18245000	      1823	80001668	00568693	addi	x13,x13,5	 x13:0xfffffffa x13=0xffffffff
       18255000	      1824	8000166c	b100ef93	ori	x31,x1,-1264	  x1:0xc8480000 x31=0xfffffb10
       18265000	      1825	80001670	41615d13	srai	x26,x2,0x16	  x2:0x80009f20 x26=0xfffffe00
       18275000	      1826	80001674	41bc0bb3	sub	x23,x24,x27	 x24:0x00000001 x27:0x00000580 x23=0xfffffa81
       18285000	      1827	80001678	fe66c0e3	blt	x13,x6,80001658	 x13:0xffffffff  x6:0x0000000b
       18295000	      1828	00000000	00000013	addi	x0,x0,0	  x0:0x00000000
       18305000	      1829	80001654	00000013	addi	x0,x0,0	  x0:0x00000000
       18315000	      1830	80001658	38192d93	slti	x27,x18,897	 x18:0x0000000a x27=0x00000001
       18325000	      1831	8000165c	59198d93	addi	x27,x19,1425	 x19:0xffffffef x27=0x00000580
       18335000	      1832	80001660	41dfd633	sra	x12,x31,x29	 x31:0xfffffb10 x29:0x00000001 x12=0xfffffd88
       18345000	      1833	80001664	01a25bb3	srl	x23,x4,x26	  x4:0xa44a2578 x26:0xfffffe00 x23=0xa44a2578
       18355000	      1834	80001668	00568693	addi	x13,x13,5	 x13:0xffffffff x13=0x00000004
       18365000	      1835	8000166c	b100ef93	ori	x31,x1,-1264	  x1:0xc8480000 x31=0xfffffb10
       18375000	      1836	80001670	41615d13	srai	x26,x2,0x16	  x2:0x80009f20 x26=0xfffffe00
       18385000	      1837	80001674	41bc0bb3	sub	x23,x24,x27	 x24:0x00000001 x27:0x00000580 x23=0xfffffa81
       18395000	      1838	80001678	fe66c0e3	blt	x13,x6,80001658	 x13:0x00000004  x6:0x0000000b
       18405000	      1839	00000000	00000013	addi	x0,x0,0	  x0:0x00000000
       18415000	      1840	80001654	00000013	addi	x0,x0,0	  x0:0x00000000
       18425000	      1841	80001658	38192d93	slti	x27,x18,897	 x18:0x0000000a x27=0x00000001
       18435000	      1842	8000165c	59198d93	addi	x27,x19,1425	 x19:0xffffffef x27=0x00000580
       18445000	      1843	80001660	41dfd633	sra	x12,x31,x29	 x31:0xfffffb10 x29:0x00000001 x12=0xfffffd88
       18455000	      1844	80001664	01a25bb3	srl	x23,x4,x26	  x4:0xa44a2578 x26:0xfffffe00 x23=0xa44a2578
       18465000	      1845	80001668	00568693	addi	x13,x13,5	 x13:0x00000004 x13=0x00000009
       18475000	      1846	8000166c	b100ef93	ori	x31,x1,-1264	  x1:0xc8480000 x31=0xfffffb10
       18485000	      1847	80001670	41615d13	srai	x26,x2,0x16	  x2:0x80009f20 x26=0xfffffe00
       18495000	      1848	80001674	41bc0bb3	sub	x23,x24,x27	 x24:0x00000001 x27:0x00000580 x23=0xfffffa81
       18505000	      1849	80001678	fe66c0e3	blt	x13,x6,80001658	 x13:0x00000009  x6:0x0000000b
       18515000	      1850	00000000	00000013	addi	x0,x0,0	  x0:0x00000000
       18525000	      1851	80001654	00000013	addi	x0,x0,0	  x0:0x00000000
       18535000	      1852	80001658	38192d93	slti	x27,x18,897	 x18:0x0000000a x27=0x00000001
       18545000	      1853	8000165c	59198d93	addi	x27,x19,1425	 x19:0xffffffef x27=0x00000580
       18555000	      1854	80001660	41dfd633	sra	x12,x31,x29	 x31:0xfffffb10 x29:0x00000001 x12=0xfffffd88
       18565000	      1855	80001664	01a25bb3	srl	x23,x4,x26	  x4:0xa44a2578 x26:0xfffffe00 x23=0xa44a2578
       18575000	      1856	80001668	00568693	addi	x13,x13,5	 x13:0x00000009 x13=0x0000000e
       18585000	      1857	8000166c	b100ef93	ori	x31,x1,-1264	  x1:0xc8480000 x31=0xfffffb10
       18595000	      1858	80001670	41615d13	srai	x26,x2,0x16	  x2:0x80009f20 x26=0xfffffe00
       18605000	      1859	80001674	41bc0bb3	sub	x23,x24,x27	 x24:0x00000001 x27:0x00000580 x23=0xfffffa81
       18615000	      1860	80001678	fe66c0e3	blt	x13,x6,80001658	 x13:0x0000000e  x6:0x0000000b
       18625000	      1861	8000167c	00b7cf33	xor	x30,x15,x11	 x15:0x00000001 x11:0xffffffff x30=0xfffffffe
       18635000	      1862	80001680	00a00b93	addi	x23,x0,10	  x0:0x00000000 x23=0x0000000a
       18645000	      1863	80001684	f18e2b13	slti	x22,x28,-232	 x28:0x00000001 x22=0x00000000
       18655000	      1864	80001688	008578b3	and	x17,x10,x8	 x10:0x244ab920  x8:0xec3fe000 x17=0x240aa000
       18665000	      1865	8000168c	014c4f33	xor	x30,x24,x20	 x24:0x00000001 x20:0x00000005 x30=0x00000004
       18675000	      1866	80001690	00a00f93	addi	x31,x0,10	  x0:0x00000000 x31=0x0000000a
       18685000	      1867	80001694	00000013	addi	x0,x0,0	  x0:0x00000000
       18695000	      1868	80001698	017c0c33	add	x24,x24,x23	 x24:0x00000001 x23:0x0000000a x24=0x0000000b
       18705000	      1869	8000169c	01d11d33	sll	x26,x2,x29	  x2:0x80009f20 x29:0x00000001 x26=0x00013e40
       18715000	      1870	800016a0	41810a33	sub	x20,x2,x24	  x2:0x80009f20 x24:0x0000000b x20=0x80009f15
       18725000	      1871	800016a4	a2c1ae93	slti	x29,x3,-1492	  x3:0x00000001 x29=0x00000000
       18735000	      1872	800016a8	01ae9993	slli	x19,x29,0x1a	 x29:0x00000000 x19=0x00000000
       18745000	      1873	800016ac	ff7b8b93	addi	x23,x23,-9	 x23:0x0000000a x23=0x00000001
       18755000	      1874	800016b0	41905c33	sra	x24,x0,x25	  x0:0x00000000 x25:0x00000001 x24=0x00000000
       18765000	      1875	800016b4	00ed9cb3	sll	x25,x27,x14	 x27:0x00000580 x14:0xffffffeb x25=0x002c0000
       18775000	      1876	800016b8	00700593	addi	x11,x0,7	  x0:0x00000000 x11=0x00000007
       18785000	      1877	800016bc	01cb7c33	and	x24,x22,x28	 x22:0x00000000 x28:0x00000001 x24=0x00000000
       18795000	      1878	800016c0	fec00093	addi	x1,x0,-20	  x0:0x00000000  x1=0xffffffec
       18805000	      1879	800016c4	68e2b493	sltiu	x9,x5,1678	  x5:0x0000000d  x9=0x00000001
       18815000	      1880	800016c8	00082233	slt	x4,x16,x0	 x16:0x80009fc4  x0:0x00000000  x4=0x00000001
       18825000	      1881	800016cc	002be4b3	or	x9,x23,x2	 x23:0x00000001  x2:0x80009f20  x9=0x80009f21
       18835000	      1882	800016d0	112df313	andi	x6,x27,274	 x27:0x00000580  x6=0x00000100
       18845000	      1883	800016d4	01be9e33	sll	x28,x29,x27	 x29:0x00000000 x27:0x00000580 x28=0x00000000
       18855000	      1884	800016d8	02eecd13	xori	x26,x29,46	 x29:0x00000000 x26=0x0000002e
       18865000	      1885	800016dc	ff958593	addi	x11,x11,-7	 x11:0x00000007 x11=0x00000000
       18875000	      1886	800016e0	1c5bb213	sltiu	x4,x23,453	 x23:0x00000001  x4=0x00000001
       18885000	      1887	800016e4	01e1b1b3	sltu	x3,x3,x30	  x3:0x00000001 x30:0x00000004  x3=0x00000001
       18895000	      1888	800016e8	410cd013	srai	x0,x25,0x10	 x25:0x002c0000
       18905000	      1889	800016ec	4141df33	sra	x30,x3,x20	  x3:0x00000001 x20:0x80009f15 x30=0x00000000
       18915000	      1890	800016f0	01665a33	srl	x20,x12,x22	 x12:0xfffffd88 x22:0x00000000 x20=0xfffffd88
       18925000	      1891	800016f4	fc15dae3	bge	x11,x1,800016c8	 x11:0x00000000  x1:0xffffffec
       18935000	      1892	00000000	00000013	addi	x0,x0,0	  x0:0x00000000
       18945000	      1893	800016c4	00000013	addi	x0,x0,0	  x0:0x00000000
       18955000	      1894	800016c8	00082233	slt	x4,x16,x0	 x16:0x80009fc4  x0:0x00000000  x4=0x00000001
       18965000	      1895	800016cc	002be4b3	or	x9,x23,x2	 x23:0x00000001  x2:0x80009f20  x9=0x80009f21
       18975000	      1896	800016d0	112df313	andi	x6,x27,274	 x27:0x00000580  x6=0x00000100
       18985000	      1897	800016d4	01be9e33	sll	x28,x29,x27	 x29:0x00000000 x27:0x00000580 x28=0x00000000
       18995000	      1898	800016d8	02eecd13	xori	x26,x29,46	 x29:0x00000000 x26=0x0000002e
       19005000	      1899	800016dc	ff958593	addi	x11,x11,-7	 x11:0x00000000 x11=0xfffffff9
       19015000	      1900	800016e0	1c5bb213	sltiu	x4,x23,453	 x23:0x00000001  x4=0x00000001
       19025000	      1901	800016e4	01e1b1b3	sltu	x3,x3,x30	  x3:0x00000001 x30:0x00000000  x3=0x00000000
       19035000	      1902	800016e8	410cd013	srai	x0,x25,0x10	 x25:0x002c0000
       19045000	      1903	800016ec	4141df33	sra	x30,x3,x20	  x3:0x00000000 x20:0xfffffd88 x30=0x00000000
       19055000	      1904	800016f0	01665a33	srl	x20,x12,x22	 x12:0xfffffd88 x22:0x00000000 x20=0xfffffd88
       19065000	      1905	800016f4	fc15dae3	bge	x11,x1,800016c8	 x11:0xfffffff9  x1:0xffffffec
       19075000	      1906	00000000	00000013	addi	x0,x0,0	  x0:0x00000000
       19085000	      1907	800016c4	00000013	addi	x0,x0,0	  x0:0x00000000
       19095000	      1908	800016c8	00082233	slt	x4,x16,x0	 x16:0x80009fc4  x0:0x00000000  x4=0x00000001
       19105000	      1909	800016cc	002be4b3	or	x9,x23,x2	 x23:0x00000001  x2:0x80009f20  x9=0x80009f21
       19115000	      1910	800016d0	112df313	andi	x6,x27,274	 x27:0x00000580  x6=0x00000100
       19125000	      1911	800016d4	01be9e33	sll	x28,x29,x27	 x29:0x00000000 x27:0x00000580 x28=0x00000000
       19135000	      1912	800016d8	02eecd13	xori	x26,x29,46	 x29:0x00000000 x26=0x0000002e
       19145000	      1913	800016dc	ff958593	addi	x11,x11,-7	 x11:0xfffffff9 x11=0xfffffff2
       19155000	      1914	800016e0	1c5bb213	sltiu	x4,x23,453	 x23:0x00000001  x4=0x00000001
       19165000	      1915	800016e4	01e1b1b3	sltu	x3,x3,x30	  x3:0x00000000 x30:0x00000000  x3=0x00000000
       19175000	      1916	800016e8	410cd013	srai	x0,x25,0x10	 x25:0x002c0000
       19185000	      1917	800016ec	4141df33	sra	x30,x3,x20	  x3:0x00000000 x20:0xfffffd88 x30=0x00000000
       19195000	      1918	800016f0	01665a33	srl	x20,x12,x22	 x12:0xfffffd88 x22:0x00000000 x20=0xfffffd88
       19205000	      1919	800016f4	fc15dae3	bge	x11,x1,800016c8	 x11:0xfffffff2  x1:0xffffffec
       19215000	      1920	00000000	00000013	addi	x0,x0,0	  x0:0x00000000
       19225000	      1921	800016c4	00000013	addi	x0,x0,0	  x0:0x00000000
       19235000	      1922	800016c8	00082233	slt	x4,x16,x0	 x16:0x80009fc4  x0:0x00000000  x4=0x00000001
       19245000	      1923	800016cc	002be4b3	or	x9,x23,x2	 x23:0x00000001  x2:0x80009f20  x9=0x80009f21
       19255000	      1924	800016d0	112df313	andi	x6,x27,274	 x27:0x00000580  x6=0x00000100
       19265000	      1925	800016d4	01be9e33	sll	x28,x29,x27	 x29:0x00000000 x27:0x00000580 x28=0x00000000
       19275000	      1926	800016d8	02eecd13	xori	x26,x29,46	 x29:0x00000000 x26=0x0000002e
       19285000	      1927	800016dc	ff958593	addi	x11,x11,-7	 x11:0xfffffff2 x11=0xffffffeb
       19295000	      1928	800016e0	1c5bb213	sltiu	x4,x23,453	 x23:0x00000001  x4=0x00000001
       19305000	      1929	800016e4	01e1b1b3	sltu	x3,x3,x30	  x3:0x00000000 x30:0x00000000  x3=0x00000000
       19315000	      1930	800016e8	410cd013	srai	x0,x25,0x10	 x25:0x002c0000
       19325000	      1931	800016ec	4141df33	sra	x30,x3,x20	  x3:0x00000000 x20:0xfffffd88 x30=0x00000000
       19335000	      1932	800016f0	01665a33	srl	x20,x12,x22	 x12:0xfffffd88 x22:0x00000000 x20=0xfffffd88
       19345000	      1933	800016f4	fc15dae3	bge	x11,x1,800016c8	 x11:0xffffffeb  x1:0xffffffec
       19355000	      1934	800016f8	417f8c33	sub	x24,x31,x23	 x31:0x0000000a x23:0x00000001 x24=0x00000009
       19365000	      1935	800016fc	fbfbf4e3	bgeu	x23,x31,800016a4	 x23:0x00000001 x31:0x0000000a
       19375000	      1936	80001700	01247733	and	x14,x8,x18	  x8:0xec3fe000 x18:0x0000000a x14=0x00000000
       19385000	      1937	80001704	ff600513	addi	x10,x0,-10	  x0:0x00000000 x10=0xfffffff6
       19395000	      1938	80001708	ffd00393	addi	x7,x0,-3	  x0:0x00000000  x7=0xfffffffd
       19405000	      1939	8000170c	000a2fb3	slt	x31,x20,x0	 x20:0xfffffd88  x0:0x00000000 x31=0x00000001
       19415000	      1940	80001710	b0b6e993	ori	x19,x13,-1269	 x13:0x0000000e x19=0xfffffb0f
       19425000	      1941	80001714	00f41e33	sll	x28,x8,x15	  x8:0xec3fe000 x15:0x00000001 x28=0xd87fc000
       19435000	      1942	80001718	00150513	addi	x10,x10,1	 x10:0xfffffff6 x10=0xfffffff7
       19445000	      1943	8000171c	00800e93	addi	x29,x0,8	  x0:0x00000000 x29=0x00000008
       19455000	      1944	80001720	00000013	addi	x0,x0,0	  x0:0x00000000
       19465000	      1945	80001724	47a08c93	addi	x25,x1,1146	  x1:0xffffffec x25=0x00000466
       19475000	      1946	80001728	01000a93	addi	x21,x0,16	  x0:0x00000000 x21=0x00000010
       19485000	      1947	8000172c	415a5b13	srai	x22,x20,0x15	 x20:0xfffffd88 x22=0xffffffff
       19495000	      1948	80001730	414c8433	sub	x8,x25,x20	 x25:0x00000466 x20:0xfffffd88  x8=0x000006de
       19505000	      1949	80001734	00fad493	srli	x9,x21,0xf	 x21:0x00000010  x9=0x00000000
       19515000	      1950	80001738	72b9ae13	slti	x28,x19,1835	 x19:0xfffffb0f x28=0x00000001
       19525000	      1951	8000173c	1f44f713	andi	x14,x9,500	  x9:0x00000000 x14=0x00000000
       19535000	      1952	80001740	008e8e93	addi	x29,x29,8	 x29:0x00000008 x29=0x00000010
       19545000	      1953	80001744	01834fb3	xor	x31,x6,x24	  x6:0x00000100 x24:0x00000009 x31=0x00000109
       19555000	      1954	80001748	ad1a3313	sltiu	x6,x20,-1327	 x20:0xfffffd88  x6=0x00000000
       19565000	      1955	8000174c	ff5e88e3	beq	x29,x21,8000173c	 x29:0x00000010 x21:0x00000010
       19575000	      1956	00000000	00000013	addi	x0,x0,0	  x0:0x00000000
       19585000	      1957	80001738	00000013	addi	x0,x0,0	  x0:0x00000000
       19595000	      1958	8000173c	1f44f713	andi	x14,x9,500	  x9:0x00000000 x14=0x00000000
       19605000	      1959	80001740	008e8e93	addi	x29,x29,8	 x29:0x00000010 x29=0x00000018
       19615000	      1960	80001744	01834fb3	xor	x31,x6,x24	  x6:0x00000000 x24:0x00000009 x31=0x00000009
       19625000	      1961	80001748	ad1a3313	sltiu	x6,x20,-1327	 x20:0xfffffd88  x6=0x00000000
       19635000	      1962	8000174c	ff5e88e3	beq	x29,x21,8000173c	 x29:0x00000018 x21:0x00000010
       19645000	      1963	80001750	a9182713	slti	x14,x16,-1391	 x16:0x80009fc4 x14=0x00000001
       19655000	      1964	80001754	0048cdb3	xor	x27,x17,x4	 x17:0x240aa000  x4:0x00000001 x27=0x240aa001
       19665000	      1965	80001758	fa754ce3	blt	x10,x7,80001710	 x10:0xfffffff7  x7:0xfffffffd
       19675000	      1966	00000000	00000013	addi	x0,x0,0	  x0:0x00000000
       19685000	      1967	8000170c	00000013	addi	x0,x0,0	  x0:0x00000000
       19695000	      1968	80001710	b0b6e993	ori	x19,x13,-1269	 x13:0x0000000e x19=0xfffffb0f
       19705000	      1969	80001714	00f41e33	sll	x28,x8,x15	  x8:0x000006de x15:0x00000001 x28=0x00000dbc
       19715000	      1970	80001718	00150513	addi	x10,x10,1	 x10:0xfffffff7 x10=0xfffffff8
       19725000	      1971	8000171c	00800e93	addi	x29,x0,8	  x0:0x00000000 x29=0x00000008
       19735000	      1972	80001720	00000013	addi	x0,x0,0	  x0:0x00000000
       19745000	      1973	80001724	47a08c93	addi	x25,x1,1146	  x1:0xffffffec x25=0x00000466
       19755000	      1974	80001728	01000a93	addi	x21,x0,16	  x0:0x00000000 x21=0x00000010
       19765000	      1975	8000172c	415a5b13	srai	x22,x20,0x15	 x20:0xfffffd88 x22=0xffffffff
       19775000	      1976	80001730	414c8433	sub	x8,x25,x20	 x25:0x00000466 x20:0xfffffd88  x8=0x000006de
       19785000	      1977	80001734	00fad493	srli	x9,x21,0xf	 x21:0x00000010  x9=0x00000000
       19795000	      1978	80001738	72b9ae13	slti	x28,x19,1835	 x19:0xfffffb0f x28=0x00000001
       19805000	      1979	8000173c	1f44f713	andi	x14,x9,500	  x9:0x00000000 x14=0x00000000
       19815000	      1980	80001740	008e8e93	addi	x29,x29,8	 x29:0x00000008 x29=0x00000010
       19825000	      1981	80001744	01834fb3	xor	x31,x6,x24	  x6:0x00000000 x24:0x00000009 x31=0x00000009
       19835000	      1982	80001748	ad1a3313	sltiu	x6,x20,-1327	 x20:0xfffffd88  x6=0x00000000
       19845000	      1983	8000174c	ff5e88e3	beq	x29,x21,8000173c	 x29:0x00000010 x21:0x00000010
       19855000	      1984	00000000	00000013	addi	x0,x0,0	  x0:0x00000000
       19865000	      1985	80001738	00000013	addi	x0,x0,0	  x0:0x00000000
       19875000	      1986	8000173c	1f44f713	andi	x14,x9,500	  x9:0x00000000 x14=0x00000000
       19885000	      1987	80001740	008e8e93	addi	x29,x29,8	 x29:0x00000010 x29=0x00000018
       19895000	      1988	80001744	01834fb3	xor	x31,x6,x24	  x6:0x00000000 x24:0x00000009 x31=0x00000009
       19905000	      1989	80001748	ad1a3313	sltiu	x6,x20,-1327	 x20:0xfffffd88  x6=0x00000000
       19915000	      1990	8000174c	ff5e88e3	beq	x29,x21,8000173c	 x29:0x00000018 x21:0x00000010
       19925000	      1991	80001750	a9182713	slti	x14,x16,-1391	 x16:0x80009fc4 x14=0x00000001
       19935000	      1992	80001754	0048cdb3	xor	x27,x17,x4	 x17:0x240aa000  x4:0x00000001 x27=0x240aa001
       19945000	      1993	80001758	fa754ce3	blt	x10,x7,80001710	 x10:0xfffffff8  x7:0xfffffffd
       19955000	      1994	00000000	00000013	addi	x0,x0,0	  x0:0x00000000
       19965000	      1995	8000170c	00000013	addi	x0,x0,0	  x0:0x00000000
       19975000	      1996	80001710	b0b6e993	ori	x19,x13,-1269	 x13:0x0000000e x19=0xfffffb0f
       19985000	      1997	80001714	00f41e33	sll	x28,x8,x15	  x8:0x000006de x15:0x00000001 x28=0x00000dbc
       19995000	      1998	80001718	00150513	addi	x10,x10,1	 x10:0xfffffff8 x10=0xfffffff9
       20005000	      1999	8000171c	00800e93	addi	x29,x0,8	  x0:0x00000000 x29=0x00000008
       20015000	      2000	80001720	00000013	addi	x0,x0,0	  x0:0x00000000
       20025000	      2001	80001724	47a08c93	addi	x25,x1,1146	  x1:0xffffffec x25=0x00000466
       20035000	      2002	80001728	01000a93	addi	x21,x0,16	  x0:0x00000000 x21=0x00000010
       20045000	      2003	8000172c	415a5b13	srai	x22,x20,0x15	 x20:0xfffffd88 x22=0xffffffff
       20055000	      2004	80001730	414c8433	sub	x8,x25,x20	 x25:0x00000466 x20:0xfffffd88  x8=0x000006de
       20065000	      2005	80001734	00fad493	srli	x9,x21,0xf	 x21:0x00000010  x9=0x00000000
       20075000	      2006	80001738	72b9ae13	slti	x28,x19,1835	 x19:0xfffffb0f x28=0x00000001
       20085000	      2007	8000173c	1f44f713	andi	x14,x9,500	  x9:0x00000000 x14=0x00000000
       20095000	      2008	80001740	008e8e93	addi	x29,x29,8	 x29:0x00000008 x29=0x00000010
       20105000	      2009	80001744	01834fb3	xor	x31,x6,x24	  x6:0x00000000 x24:0x00000009 x31=0x00000009
       20115000	      2010	80001748	ad1a3313	sltiu	x6,x20,-1327	 x20:0xfffffd88  x6=0x00000000
       20125000	      2011	8000174c	ff5e88e3	beq	x29,x21,8000173c	 x29:0x00000010 x21:0x00000010
       20135000	      2012	00000000	00000013	addi	x0,x0,0	  x0:0x00000000
       20145000	      2013	80001738	00000013	addi	x0,x0,0	  x0:0x00000000
       20155000	      2014	8000173c	1f44f713	andi	x14,x9,500	  x9:0x00000000 x14=0x00000000
       20165000	      2015	80001740	008e8e93	addi	x29,x29,8	 x29:0x00000010 x29=0x00000018
       20175000	      2016	80001744	01834fb3	xor	x31,x6,x24	  x6:0x00000000 x24:0x00000009 x31=0x00000009
       20185000	      2017	80001748	ad1a3313	sltiu	x6,x20,-1327	 x20:0xfffffd88  x6=0x00000000
       20195000	      2018	8000174c	ff5e88e3	beq	x29,x21,8000173c	 x29:0x00000018 x21:0x00000010
       20205000	      2019	80001750	a9182713	slti	x14,x16,-1391	 x16:0x80009fc4 x14=0x00000001
       20215000	      2020	80001754	0048cdb3	xor	x27,x17,x4	 x17:0x240aa000  x4:0x00000001 x27=0x240aa001
       20225000	      2021	80001758	fa754ce3	blt	x10,x7,80001710	 x10:0xfffffff9  x7:0xfffffffd
       20235000	      2022	00000000	00000013	addi	x0,x0,0	  x0:0x00000000
       20245000	      2023	8000170c	00000013	addi	x0,x0,0	  x0:0x00000000
       20255000	      2024	80001710	b0b6e993	ori	x19,x13,-1269	 x13:0x0000000e x19=0xfffffb0f
       20265000	      2025	80001714	00f41e33	sll	x28,x8,x15	  x8:0x000006de x15:0x00000001 x28=0x00000dbc
       20275000	      2026	80001718	00150513	addi	x10,x10,1	 x10:0xfffffff9 x10=0xfffffffa
       20285000	      2027	8000171c	00800e93	addi	x29,x0,8	  x0:0x00000000 x29=0x00000008
       20295000	      2028	80001720	00000013	addi	x0,x0,0	  x0:0x00000000
       20305000	      2029	80001724	47a08c93	addi	x25,x1,1146	  x1:0xffffffec x25=0x00000466
       20315000	      2030	80001728	01000a93	addi	x21,x0,16	  x0:0x00000000 x21=0x00000010
       20325000	      2031	8000172c	415a5b13	srai	x22,x20,0x15	 x20:0xfffffd88 x22=0xffffffff
       20335000	      2032	80001730	414c8433	sub	x8,x25,x20	 x25:0x00000466 x20:0xfffffd88  x8=0x000006de
       20345000	      2033	80001734	00fad493	srli	x9,x21,0xf	 x21:0x00000010  x9=0x00000000
       20355000	      2034	80001738	72b9ae13	slti	x28,x19,1835	 x19:0xfffffb0f x28=0x00000001
       20365000	      2035	8000173c	1f44f713	andi	x14,x9,500	  x9:0x00000000 x14=0x00000000
       20375000	      2036	80001740	008e8e93	addi	x29,x29,8	 x29:0x00000008 x29=0x00000010
       20385000	      2037	80001744	01834fb3	xor	x31,x6,x24	  x6:0x00000000 x24:0x00000009 x31=0x00000009
       20395000	      2038	80001748	ad1a3313	sltiu	x6,x20,-1327	 x20:0xfffffd88  x6=0x00000000
       20405000	      2039	8000174c	ff5e88e3	beq	x29,x21,8000173c	 x29:0x00000010 x21:0x00000010
       20415000	      2040	00000000	00000013	addi	x0,x0,0	  x0:0x00000000
       20425000	      2041	80001738	00000013	addi	x0,x0,0	  x0:0x00000000
       20435000	      2042	8000173c	1f44f713	andi	x14,x9,500	  x9:0x00000000 x14=0x00000000
       20445000	      2043	80001740	008e8e93	addi	x29,x29,8	 x29:0x00000010 x29=0x00000018
       20455000	      2044	80001744	01834fb3	xor	x31,x6,x24	  x6:0x00000000 x24:0x00000009 x31=0x00000009
       20465000	      2045	80001748	ad1a3313	sltiu	x6,x20,-1327	 x20:0xfffffd88  x6=0x00000000
       20475000	      2046	8000174c	ff5e88e3	beq	x29,x21,8000173c	 x29:0x00000018 x21:0x00000010
       20485000	      2047	80001750	a9182713	slti	x14,x16,-1391	 x16:0x80009fc4 x14=0x00000001
       20495000	      2048	80001754	0048cdb3	xor	x27,x17,x4	 x17:0x240aa000  x4:0x00000001 x27=0x240aa001
       20505000	      2049	80001758	fa754ce3	blt	x10,x7,80001710	 x10:0xfffffffa  x7:0xfffffffd
       20515000	      2050	00000000	00000013	addi	x0,x0,0	  x0:0x00000000
       20525000	      2051	8000170c	00000013	addi	x0,x0,0	  x0:0x00000000
       20535000	      2052	80001710	b0b6e993	ori	x19,x13,-1269	 x13:0x0000000e x19=0xfffffb0f
       20545000	      2053	80001714	00f41e33	sll	x28,x8,x15	  x8:0x000006de x15:0x00000001 x28=0x00000dbc
       20555000	      2054	80001718	00150513	addi	x10,x10,1	 x10:0xfffffffa x10=0xfffffffb
       20565000	      2055	8000171c	00800e93	addi	x29,x0,8	  x0:0x00000000 x29=0x00000008
       20575000	      2056	80001720	00000013	addi	x0,x0,0	  x0:0x00000000
       20585000	      2057	80001724	47a08c93	addi	x25,x1,1146	  x1:0xffffffec x25=0x00000466
       20595000	      2058	80001728	01000a93	addi	x21,x0,16	  x0:0x00000000 x21=0x00000010
       20605000	      2059	8000172c	415a5b13	srai	x22,x20,0x15	 x20:0xfffffd88 x22=0xffffffff
       20615000	      2060	80001730	414c8433	sub	x8,x25,x20	 x25:0x00000466 x20:0xfffffd88  x8=0x000006de
       20625000	      2061	80001734	00fad493	srli	x9,x21,0xf	 x21:0x00000010  x9=0x00000000
       20635000	      2062	80001738	72b9ae13	slti	x28,x19,1835	 x19:0xfffffb0f x28=0x00000001
       20645000	      2063	8000173c	1f44f713	andi	x14,x9,500	  x9:0x00000000 x14=0x00000000
       20655000	      2064	80001740	008e8e93	addi	x29,x29,8	 x29:0x00000008 x29=0x00000010
       20665000	      2065	80001744	01834fb3	xor	x31,x6,x24	  x6:0x00000000 x24:0x00000009 x31=0x00000009
       20675000	      2066	80001748	ad1a3313	sltiu	x6,x20,-1327	 x20:0xfffffd88  x6=0x00000000
       20685000	      2067	8000174c	ff5e88e3	beq	x29,x21,8000173c	 x29:0x00000010 x21:0x00000010
       20695000	      2068	00000000	00000013	addi	x0,x0,0	  x0:0x00000000
       20705000	      2069	80001738	00000013	addi	x0,x0,0	  x0:0x00000000
       20715000	      2070	8000173c	1f44f713	andi	x14,x9,500	  x9:0x00000000 x14=0x00000000
       20725000	      2071	80001740	008e8e93	addi	x29,x29,8	 x29:0x00000010 x29=0x00000018
       20735000	      2072	80001744	01834fb3	xor	x31,x6,x24	  x6:0x00000000 x24:0x00000009 x31=0x00000009
       20745000	      2073	80001748	ad1a3313	sltiu	x6,x20,-1327	 x20:0xfffffd88  x6=0x00000000
       20755000	      2074	8000174c	ff5e88e3	beq	x29,x21,8000173c	 x29:0x00000018 x21:0x00000010
       20765000	      2075	80001750	a9182713	slti	x14,x16,-1391	 x16:0x80009fc4 x14=0x00000001
       20775000	      2076	80001754	0048cdb3	xor	x27,x17,x4	 x17:0x240aa000  x4:0x00000001 x27=0x240aa001
       20785000	      2077	80001758	fa754ce3	blt	x10,x7,80001710	 x10:0xfffffffb  x7:0xfffffffd
       20795000	      2078	00000000	00000013	addi	x0,x0,0	  x0:0x00000000
       20805000	      2079	8000170c	00000013	addi	x0,x0,0	  x0:0x00000000
       20815000	      2080	80001710	b0b6e993	ori	x19,x13,-1269	 x13:0x0000000e x19=0xfffffb0f
       20825000	      2081	80001714	00f41e33	sll	x28,x8,x15	  x8:0x000006de x15:0x00000001 x28=0x00000dbc
       20835000	      2082	80001718	00150513	addi	x10,x10,1	 x10:0xfffffffb x10=0xfffffffc
       20845000	      2083	8000171c	00800e93	addi	x29,x0,8	  x0:0x00000000 x29=0x00000008
       20855000	      2084	80001720	00000013	addi	x0,x0,0	  x0:0x00000000
       20865000	      2085	80001724	47a08c93	addi	x25,x1,1146	  x1:0xffffffec x25=0x00000466
       20875000	      2086	80001728	01000a93	addi	x21,x0,16	  x0:0x00000000 x21=0x00000010
       20885000	      2087	8000172c	415a5b13	srai	x22,x20,0x15	 x20:0xfffffd88 x22=0xffffffff
       20895000	      2088	80001730	414c8433	sub	x8,x25,x20	 x25:0x00000466 x20:0xfffffd88  x8=0x000006de
       20905000	      2089	80001734	00fad493	srli	x9,x21,0xf	 x21:0x00000010  x9=0x00000000
       20915000	      2090	80001738	72b9ae13	slti	x28,x19,1835	 x19:0xfffffb0f x28=0x00000001
       20925000	      2091	8000173c	1f44f713	andi	x14,x9,500	  x9:0x00000000 x14=0x00000000
       20935000	      2092	80001740	008e8e93	addi	x29,x29,8	 x29:0x00000008 x29=0x00000010
       20945000	      2093	80001744	01834fb3	xor	x31,x6,x24	  x6:0x00000000 x24:0x00000009 x31=0x00000009
       20955000	      2094	80001748	ad1a3313	sltiu	x6,x20,-1327	 x20:0xfffffd88  x6=0x00000000
       20965000	      2095	8000174c	ff5e88e3	beq	x29,x21,8000173c	 x29:0x00000010 x21:0x00000010
       20975000	      2096	00000000	00000013	addi	x0,x0,0	  x0:0x00000000
       20985000	      2097	80001738	00000013	addi	x0,x0,0	  x0:0x00000000
       20995000	      2098	8000173c	1f44f713	andi	x14,x9,500	  x9:0x00000000 x14=0x00000000
       21005000	      2099	80001740	008e8e93	addi	x29,x29,8	 x29:0x00000010 x29=0x00000018
       21015000	      2100	80001744	01834fb3	xor	x31,x6,x24	  x6:0x00000000 x24:0x00000009 x31=0x00000009
       21025000	      2101	80001748	ad1a3313	sltiu	x6,x20,-1327	 x20:0xfffffd88  x6=0x00000000
       21035000	      2102	8000174c	ff5e88e3	beq	x29,x21,8000173c	 x29:0x00000018 x21:0x00000010
       21045000	      2103	80001750	a9182713	slti	x14,x16,-1391	 x16:0x80009fc4 x14=0x00000001
       21055000	      2104	80001754	0048cdb3	xor	x27,x17,x4	 x17:0x240aa000  x4:0x00000001 x27=0x240aa001
       21065000	      2105	80001758	fa754ce3	blt	x10,x7,80001710	 x10:0xfffffffc  x7:0xfffffffd
       21075000	      2106	00000000	00000013	addi	x0,x0,0	  x0:0x00000000
       21085000	      2107	8000170c	00000013	addi	x0,x0,0	  x0:0x00000000
       21095000	      2108	80001710	b0b6e993	ori	x19,x13,-1269	 x13:0x0000000e x19=0xfffffb0f
       21105000	      2109	80001714	00f41e33	sll	x28,x8,x15	  x8:0x000006de x15:0x00000001 x28=0x00000dbc
       21115000	      2110	80001718	00150513	addi	x10,x10,1	 x10:0xfffffffc x10=0xfffffffd
       21125000	      2111	8000171c	00800e93	addi	x29,x0,8	  x0:0x00000000 x29=0x00000008
       21135000	      2112	80001720	00000013	addi	x0,x0,0	  x0:0x00000000
       21145000	      2113	80001724	47a08c93	addi	x25,x1,1146	  x1:0xffffffec x25=0x00000466
       21155000	      2114	80001728	01000a93	addi	x21,x0,16	  x0:0x00000000 x21=0x00000010
       21165000	      2115	8000172c	415a5b13	srai	x22,x20,0x15	 x20:0xfffffd88 x22=0xffffffff
       21175000	      2116	80001730	414c8433	sub	x8,x25,x20	 x25:0x00000466 x20:0xfffffd88  x8=0x000006de
       21185000	      2117	80001734	00fad493	srli	x9,x21,0xf	 x21:0x00000010  x9=0x00000000
       21195000	      2118	80001738	72b9ae13	slti	x28,x19,1835	 x19:0xfffffb0f x28=0x00000001
       21205000	      2119	8000173c	1f44f713	andi	x14,x9,500	  x9:0x00000000 x14=0x00000000
       21215000	      2120	80001740	008e8e93	addi	x29,x29,8	 x29:0x00000008 x29=0x00000010
       21225000	      2121	80001744	01834fb3	xor	x31,x6,x24	  x6:0x00000000 x24:0x00000009 x31=0x00000009
       21235000	      2122	80001748	ad1a3313	sltiu	x6,x20,-1327	 x20:0xfffffd88  x6=0x00000000
       21245000	      2123	8000174c	ff5e88e3	beq	x29,x21,8000173c	 x29:0x00000010 x21:0x00000010
       21255000	      2124	00000000	00000013	addi	x0,x0,0	  x0:0x00000000
       21265000	      2125	80001738	00000013	addi	x0,x0,0	  x0:0x00000000
       21275000	      2126	8000173c	1f44f713	andi	x14,x9,500	  x9:0x00000000 x14=0x00000000
       21285000	      2127	80001740	008e8e93	addi	x29,x29,8	 x29:0x00000010 x29=0x00000018
       21295000	      2128	80001744	01834fb3	xor	x31,x6,x24	  x6:0x00000000 x24:0x00000009 x31=0x00000009
       21305000	      2129	80001748	ad1a3313	sltiu	x6,x20,-1327	 x20:0xfffffd88  x6=0x00000000
       21315000	      2130	8000174c	ff5e88e3	beq	x29,x21,8000173c	 x29:0x00000018 x21:0x00000010
       21325000	      2131	80001750	a9182713	slti	x14,x16,-1391	 x16:0x80009fc4 x14=0x00000001
       21335000	      2132	80001754	0048cdb3	xor	x27,x17,x4	 x17:0x240aa000  x4:0x00000001 x27=0x240aa001
       21345000	      2133	80001758	fa754ce3	blt	x10,x7,80001710	 x10:0xfffffffd  x7:0xfffffffd
       21355000	      2134	8000175c	53644d17	auipc	x26,0x53644	 x26=0xd3645758
       21365000	      2135	80001760	00000c93	addi	x25,x0,0	  x0:0x00000000 x25=0x00000000
       21375000	      2136	80001764	7248b593	sltiu	x11,x17,1828	 x17:0x240aa000 x11=0x00000000
       21385000	      2137	80001768	00900393	addi	x7,x0,9	  x0:0x00000000  x7=0x00000009
       21395000	      2138	8000176c	00000013	addi	x0,x0,0	  x0:0x00000000
       21405000	      2139	80001770	00ad88b3	add	x17,x27,x10	 x27:0x240aa001 x10:0xfffffffd x17=0x240a9ffe
       21415000	      2140	80001774	00afa533	slt	x10,x31,x10	 x31:0x00000009 x10:0xfffffffd x10=0x00000000
       21425000	      2141	80001778	000ad413	srli	x8,x21,0x0	 x21:0x00000010  x8=0x00000010
       21435000	      2142	8000177c	005c8c93	addi	x25,x25,5	 x25:0x00000000 x25=0x00000005
       21445000	      2143	80001780	019a48b3	xor	x17,x20,x25	 x20:0xfffffd88 x25:0x00000005 x17=0xfffffd8d
       21455000	      2144	80001784	00900d13	addi	x26,x0,9	  x0:0x00000000 x26=0x00000009
       21465000	      2145	80001788	41bed513	srai	x10,x29,0x1b	 x29:0x00000018 x10=0x00000000
       21475000	      2146	8000178c	dea60993	addi	x19,x12,-534	 x12:0xfffffd88 x19=0xfffffb72
       21485000	      2147	80001790	00f00793	addi	x15,x0,15	  x0:0x00000000 x15=0x0000000f
       21495000	      2148	80001794	00d2a0b3	slt	x1,x5,x13	  x5:0x0000000d x13:0x0000000e  x1=0x00000001
       21505000	      2149	80001798	00000013	addi	x0,x0,0	  x0:0x00000000
       21515000	      2150	8000179c	00e73bb3	sltu	x23,x14,x14	 x14:0x00000001 x14:0x00000001 x23=0x00000000
       21525000	      2151	800017a0	005d0d13	addi	x26,x26,5	 x26:0x00000009 x26=0x0000000e
       21535000	      2152	800017a4	0126b6b3	sltu	x13,x13,x18	 x13:0x0000000e x18:0x0000000a x13=0x00000000
       21545000	      2153	800017a8	419d8233	sub	x4,x27,x25	 x27:0x240aa001 x25:0x00000005  x4=0x240a9ffc
       21555000	      2154	800017ac	01b38ab3	add	x21,x7,x27	  x7:0x00000009 x27:0x240aa001 x21=0x240aa00a
       21565000	      2155	800017b0	407189b3	sub	x19,x3,x7	  x3:0x00000000  x7:0x00000009 x19=0xfffffff7
       21575000	      2156	800017b4	fefd62e3	bltu	x26,x15,80001798	 x26:0x0000000e x15:0x0000000f
       21585000	      2157	00000000	00000013	addi	x0,x0,0	  x0:0x00000000
       21595000	      2158	80001794	00000013	addi	x0,x0,0	  x0:0x00000000
       21605000	      2159	80001798	00000013	addi	x0,x0,0	  x0:0x00000000
       21615000	      2160	8000179c	00e73bb3	sltu	x23,x14,x14	 x14:0x00000001 x14:0x00000001 x23=0x00000000
       21625000	      2161	800017a0	005d0d13	addi	x26,x26,5	 x26:0x0000000e x26=0x00000013
       21635000	      2162	800017a4	0126b6b3	sltu	x13,x13,x18	 x13:0x00000000 x18:0x0000000a x13=0x00000001
       21645000	      2163	800017a8	419d8233	sub	x4,x27,x25	 x27:0x240aa001 x25:0x00000005  x4=0x240a9ffc
       21655000	      2164	800017ac	01b38ab3	add	x21,x7,x27	  x7:0x00000009 x27:0x240aa001 x21=0x240aa00a
       21665000	      2165	800017b0	407189b3	sub	x19,x3,x7	  x3:0x00000000  x7:0x00000009 x19=0xfffffff7
       21675000	      2166	800017b4	fefd62e3	bltu	x26,x15,80001798	 x26:0x00000013 x15:0x0000000f
       21685000	      2167	800017b8	fa7ceee3	bltu	x25,x7,80001774	 x25:0x00000005  x7:0x00000009
       21695000	      2168	00000000	00000013	addi	x0,x0,0	  x0:0x00000000
       21705000	      2169	80001770	00000013	addi	x0,x0,0	  x0:0x00000000
       21715000	      2170	80001774	00afa533	slt	x10,x31,x10	 x31:0x00000009 x10:0x00000000 x10=0x00000000
       21725000	      2171	80001778	000ad413	srli	x8,x21,0x0	 x21:0x240aa00a  x8=0x240aa00a
       21735000	      2172	8000177c	005c8c93	addi	x25,x25,5	 x25:0x00000005 x25=0x0000000a
       21745000	      2173	80001780	019a48b3	xor	x17,x20,x25	 x20:0xfffffd88 x25:0x0000000a x17=0xfffffd82
       21755000	      2174	80001784	00900d13	addi	x26,x0,9	  x0:0x00000000 x26=0x00000009
       21765000	      2175	80001788	41bed513	srai	x10,x29,0x1b	 x29:0x00000018 x10=0x00000000
       21775000	      2176	8000178c	dea60993	addi	x19,x12,-534	 x12:0xfffffd88 x19=0xfffffb72
       21785000	      2177	80001790	00f00793	addi	x15,x0,15	  x0:0x00000000 x15=0x0000000f
       21795000	      2178	80001794	00d2a0b3	slt	x1,x5,x13	  x5:0x0000000d x13:0x00000001  x1=0x00000000
       21805000	      2179	80001798	00000013	addi	x0,x0,0	  x0:0x00000000
       21815000	      2180	8000179c	00e73bb3	sltu	x23,x14,x14	 x14:0x00000001 x14:0x00000001 x23=0x00000000
       21825000	      2181	800017a0	005d0d13	addi	x26,x26,5	 x26:0x00000009 x26=0x0000000e
       21835000	      2182	800017a4	0126b6b3	sltu	x13,x13,x18	 x13:0x00000001 x18:0x0000000a x13=0x00000001
       21845000	      2183	800017a8	419d8233	sub	x4,x27,x25	 x27:0x240aa001 x25:0x0000000a  x4=0x240a9ff7
       21855000	      2184	800017ac	01b38ab3	add	x21,x7,x27	  x7:0x00000009 x27:0x240aa001 x21=0x240aa00a
       21865000	      2185	800017b0	407189b3	sub	x19,x3,x7	  x3:0x00000000  x7:0x00000009 x19=0xfffffff7
       21875000	      2186	800017b4	fefd62e3	bltu	x26,x15,80001798	 x26:0x0000000e x15:0x0000000f
       21885000	      2187	00000000	00000013	addi	x0,x0,0	  x0:0x00000000
       21895000	      2188	80001794	00000013	addi	x0,x0,0	  x0:0x00000000
       21905000	      2189	80001798	00000013	addi	x0,x0,0	  x0:0x00000000
       21915000	      2190	8000179c	00e73bb3	sltu	x23,x14,x14	 x14:0x00000001 x14:0x00000001 x23=0x00000000
       21925000	      2191	800017a0	005d0d13	addi	x26,x26,5	 x26:0x0000000e x26=0x00000013
       21935000	      2192	800017a4	0126b6b3	sltu	x13,x13,x18	 x13:0x00000001 x18:0x0000000a x13=0x00000001
       21945000	      2193	800017a8	419d8233	sub	x4,x27,x25	 x27:0x240aa001 x25:0x0000000a  x4=0x240a9ff7
       21955000	      2194	800017ac	01b38ab3	add	x21,x7,x27	  x7:0x00000009 x27:0x240aa001 x21=0x240aa00a
       21965000	      2195	800017b0	407189b3	sub	x19,x3,x7	  x3:0x00000000  x7:0x00000009 x19=0xfffffff7
       21975000	      2196	800017b4	fefd62e3	bltu	x26,x15,80001798	 x26:0x00000013 x15:0x0000000f
       21985000	      2197	800017b8	fa7ceee3	bltu	x25,x7,80001774	 x25:0x0000000a  x7:0x00000009
       21995000	      2198	800017bc	a5016093	ori	x1,x2,-1456	  x2:0x80009f20  x1=0xffffff70
       22005000	      2199	800017c0	00900a13	addi	x20,x0,9	  x0:0x00000000 x20=0x00000009
       22015000	      2200	800017c4	d4a6f493	andi	x9,x13,-694	 x13:0x00000001  x9=0x00000000
       22025000	      2201	800017c8	01580e33	add	x28,x16,x21	 x16:0x80009fc4 x21:0x240aa00a x28=0xa40b3fce
       22035000	      2202	800017cc	5daa4d17	auipc	x26,0x5daa4	 x26=0xddaa57c8
       22045000	      2203	800017d0	00000013	addi	x0,x0,0	  x0:0x00000000
       22055000	      2204	800017d4	00005733	srl	x14,x0,x0	  x0:0x00000000  x0:0x00000000 x14=0x00000000
       22065000	      2205	800017d8	011dde13	srli	x28,x27,0x11	 x27:0x240aa001 x28=0x00001205
       22075000	      2206	800017dc	2a57c993	xori	x19,x15,677	 x15:0x0000000f x19=0x000002aa
       22085000	      2207	800017e0	00800a93	addi	x21,x0,8	  x0:0x00000000 x21=0x00000008
       22095000	      2208	800017e4	69a0f913	andi	x18,x1,1690	  x1:0xffffff70 x18=0x00000610
       22105000	      2209	800017e8	41e7d593	srai	x11,x15,0x1e	 x15:0x0000000f x11=0x00000000
       22115000	      2210	800017ec	f0c72893	slti	x17,x14,-244	 x14:0x00000000 x17=0x00000000
       22125000	      2211	800017f0	0153e633	or	x12,x7,x21	  x7:0x00000009 x21:0x00000008 x12=0x00000009
       22135000	      2212	800017f4	f6b13913	sltiu	x18,x2,-149	  x2:0x80009f20 x18=0x00000001
       22145000	      2213	800017f8	41eed193	srai	x3,x29,0x1e	 x29:0x00000018  x3=0x00000000
       22155000	      2214	800017fc	41bf0c33	sub	x24,x30,x27	 x30:0x00000000 x27:0x240aa001 x24=0xdbf55fff
       22165000	      2215	80001800	00770bb3	add	x23,x14,x7	 x14:0x00000000  x7:0x00000009 x23=0x00000009
       22175000	      2216	80001804	ffaa0a13	addi	x20,x20,-6	 x20:0x00000009 x20=0x00000003
       22185000	      2217	80001808	a185bc13	sltiu	x24,x11,-1512	 x11:0x00000000 x24=0x00000001
       22195000	      2218	8000180c	b6578e93	addi	x29,x15,-1179	 x15:0x0000000f x29=0xfffffb74
       22205000	      2219	80001810	fd5a7ae3	bgeu	x20,x21,800017e4	 x20:0x00000003 x21:0x00000008
       22215000	      2220	80001814	00b5ef93	ori	x31,x11,11	 x11:0x00000000 x31=0x0000000b
       22225000	      2221	80001818	00300d13	addi	x26,x0,3	  x0:0x00000000 x26=0x00000003
       22235000	      2222	8000181c	012c2e33	slt	x28,x24,x18	 x24:0x00000001 x18:0x00000001 x28=0x00000000
       22245000	      2223	80001820	4144db33	sra	x22,x9,x20	  x9:0x00000000 x20:0x00000003 x22=0x00000000
       22255000	      2224	80001824	ffa00c93	addi	x25,x0,-6	  x0:0x00000000 x25=0xfffffffa
       22265000	      2225	80001828	016b5313	srli	x6,x22,0x16	 x22:0x00000000  x6=0x00000000
       22275000	      2226	8000182c	41e006b3	sub	x13,x0,x30	  x0:0x00000000 x30:0x00000000 x13=0x00000000
       22285000	      2227	80001830	0007ac33	slt	x24,x15,x0	 x15:0x0000000f  x0:0x00000000 x24=0x00000000
       22295000	      2228	80001834	018d6633	or	x12,x26,x24	 x26:0x00000003 x24:0x00000000 x12=0x00000003
       22305000	      2229	80001838	00002bb3	slt	x23,x0,x0	  x0:0x00000000  x0:0x00000000 x23=0x00000000
       22315000	      2230	8000183c	479eab13	slti	x22,x29,1145	 x29:0xfffffb74 x22=0x00000001
       22325000	      2231	80001840	3cc82a37	lui	x20,0x3cc82	 x20=0x3cc82000
       22335000	      2232	80001844	ff7d0d13	addi	x26,x26,-9	 x26:0x00000003 x26=0xfffffffa
       22345000	      2233	80001848	019d4533	xor	x10,x26,x25	 x26:0xfffffffa x25:0xfffffffa x10=0x00000000
       22355000	      2234	8000184c	00572233	slt	x4,x14,x5	 x14:0x00000000  x5:0x0000000d  x4=0x00000001
       22365000	      2235	80001850	00600593	addi	x11,x0,6	  x0:0x00000000 x11=0x00000006
       22375000	      2236	80001854	01621713	slli	x14,x4,0x16	  x4:0x00000001 x14=0x00400000
       22385000	      2237	80001858	00900493	addi	x9,x0,9	  x0:0x00000000  x9=0x00000009
       22395000	      2238	8000185c	40665093	srai	x1,x12,0x6	 x12:0x00000003  x1=0x00000000
       22405000	      2239	80001860	40da88b3	sub	x17,x21,x13	 x21:0x00000008 x13:0x00000000 x17=0x00000008
       22415000	      2240	80001864	fba8da97	auipc	x21,0xfba8d	 x21=0x7ba8e860
       22425000	      2241	80001868	4188dc13	srai	x24,x17,0x18	 x17:0x00000008 x24=0x00000000
       22435000	      2242	8000186c	00958593	addi	x11,x11,9	 x11:0x00000006 x11=0x0000000f
       22445000	      2243	80001870	01cf1b93	slli	x23,x30,0x1c	 x30:0x00000000 x23=0x00000000
       22455000	      2244	80001874	fe95e8e3	bltu	x11,x9,80001864	 x11:0x0000000f  x9:0x00000009
       22465000	      2245	80001878	01470ab3	add	x21,x14,x20	 x14:0x00400000 x20:0x3cc82000 x21=0x3d082000
       22475000	      2246	8000187c	00000013	addi	x0,x0,0	  x0:0x00000000
       22485000	      2247	80001880	1219cf93	xori	x31,x19,289	 x19:0x000002aa x31=0x0000038b
       22495000	      2248	80001884	40716e93	ori	x29,x2,1031	  x2:0x80009f20 x29=0x80009f27
       22505000	      2249	80001888	416b0733	sub	x14,x22,x22	 x22:0x00000001 x22:0x00000001 x14=0x00000000
       22515000	      2250	8000188c	fb9d18e3	bne	x26,x25,8000183c	 x26:0xfffffffa x25:0xfffffffa
       22525000	      2251	80001890	00735f33	srl	x30,x6,x7	  x6:0x00000000  x7:0x00000009 x30=0x00000000
       22535000	      2252	80001894	00300c13	addi	x24,x0,3	  x0:0x00000000 x24=0x00000003
       22545000	      2253	80001898	00400a13	addi	x20,x0,4	  x0:0x00000000 x20=0x00000004
       22555000	      2254	8000189c	004537b3	sltu	x15,x10,x4	 x10:0x00000000  x4:0x00000001 x15=0x00000001
       22565000	      2255	800018a0	00ac0c13	addi	x24,x24,10	 x24:0x00000003 x24=0x0000000d
       22575000	      2256	800018a4	00900993	addi	x19,x0,9	  x0:0x00000000 x19=0x00000009
       22585000	      2257	800018a8	00900e93	addi	x29,x0,9	  x0:0x00000000 x29=0x00000009
       22595000	      2258	800018ac	01073e33	sltu	x28,x14,x16	 x14:0x00000000 x16:0x80009fc4 x28=0x00000001
       22605000	      2259	800018b0	ffa98993	addi	x19,x19,-6	 x19:0x00000009 x19=0x00000003
       22615000	      2260	800018b4	401758b3	sra	x17,x14,x1	 x14:0x00000000  x1:0x00000000 x17=0x00000000
       22625000	      2261	800018b8	ffd9fae3	bgeu	x19,x29,800018ac	 x19:0x00000003 x29:0x00000009
       22635000	      2262	800018bc	ff4c60e3	bltu	x24,x20,8000189c	 x24:0x0000000d x20:0x00000004
       22645000	      2263	800018c0	89780b93	addi	x23,x16,-1897	 x16:0x80009fc4 x23=0x8000985b
       22655000	      2264	800018c4	00a00f93	addi	x31,x0,10	  x0:0x00000000 x31=0x0000000a
       22665000	      2265	800018c8	00a00d13	addi	x26,x0,10	  x0:0x00000000 x26=0x0000000a
       22675000	      2266	800018cc	29d6b593	sltiu	x11,x13,669	 x13:0x00000000 x11=0x00000001
       22685000	      2267	800018d0	d8048193	addi	x3,x9,-640	  x9:0x00000009  x3=0xfffffd89
       22695000	      2268	800018d4	06bfef13	ori	x30,x31,107	 x31:0x0000000a x30=0x0000006b
       22705000	      2269	800018d8	00ccbc33	sltu	x24,x25,x12	 x25:0xfffffffa x12:0x00000003 x24=0x00000000
       22715000	      2270	800018dc	35d37493	andi	x9,x6,861	  x6:0x00000000  x9=0x00000000
       22725000	      2271	800018e0	24b24797	auipc	x15,0x24b24	 x15=0xa4b258dc
       22735000	      2272	800018e4	ff7f8f93	addi	x31,x31,-9	 x31:0x0000000a x31=0x00000001
       22745000	      2273	800018e8	ffaff6e3	bgeu	x31,x26,800018d4	 x31:0x00000001 x26:0x0000000a
       22755000	      2274	800018ec	00ddb1b3	sltu	x3,x27,x13	 x27:0x240aa001 x13:0x00000000  x3=0x00000000
       22765000	      2275	800018f0	ffa00313	addi	x6,x0,-6	  x0:0x00000000  x6=0xfffffffa
       22775000	      2276	800018f4	40455613	srai	x12,x10,0x4	 x10:0x00000000 x12=0x00000000
       22785000	      2277	800018f8	00ca7cb3	and	x25,x20,x12	 x20:0x00000004 x12:0x00000000 x25=0x00000000
       22795000	      2278	800018fc	00300093	addi	x1,x0,3	  x0:0x00000000  x1=0x00000003
       22805000	      2279	80001900	0065b033	sltu	x0,x11,x6	 x11:0x00000001  x6:0xfffffffa
       22815000	      2280	80001904	00330313	addi	x6,x6,3	  x6:0xfffffffa  x6=0xfffffffd
       22825000	      2281	80001908	012a8ab3	add	x21,x21,x18	 x21:0x3d082000 x18:0x00000001 x21=0x3d082001
       22835000	      2282	8000190c	006396b3	sll	x13,x7,x6	  x7:0x00000009  x6:0xfffffffd x13=0x20000000
       22845000	      2283	80001910	ff700393	addi	x7,x0,-9	  x0:0x00000000  x7=0xfffffff7
       22855000	      2284	80001914	01dd2633	slt	x12,x26,x29	 x26:0x0000000a x29:0x00000009 x12=0x00000000
       22865000	      2285	80001918	01993f33	sltu	x30,x18,x25	 x18:0x00000001 x25:0x00000000 x30=0x00000000
       22875000	      2286	8000191c	ff900f93	addi	x31,x0,-7	  x0:0x00000000 x31=0xfffffff9
       22885000	      2287	80001920	71efa593	slti	x11,x31,1822	 x31:0xfffffff9 x11=0x00000001
       22895000	      2288	80001924	00a14db3	xor	x27,x2,x10	  x2:0x80009f20 x10:0x00000000 x27=0x80009f20
       22905000	      2289	80001928	7b28f613	andi	x12,x17,1970	 x17:0x00000000 x12=0x00000000
       22915000	      2290	8000192c	00ff49b3	xor	x19,x30,x15	 x30:0x00000000 x15:0xa4b258dc x19=0xa4b258dc
       22925000	      2291	80001930	00238393	addi	x7,x7,2	  x7:0xfffffff7  x7=0xfffffff9
       22935000	      2292	80001934	40d5de93	srai	x29,x11,0xd	 x11:0x00000001 x29=0x00000000
       22945000	      2293	80001938	fff388e3	beq	x7,x31,80001928	  x7:0xfffffff9 x31:0xfffffff9
       22955000	      2294	00000000	00000013	addi	x0,x0,0	  x0:0x00000000
       22965000	      2295	80001924	00000013	addi	x0,x0,0	  x0:0x00000000
       22975000	      2296	80001928	7b28f613	andi	x12,x17,1970	 x17:0x00000000 x12=0x00000000
       22985000	      2297	8000192c	00ff49b3	xor	x19,x30,x15	 x30:0x00000000 x15:0xa4b258dc x19=0xa4b258dc
       22995000	      2298	80001930	00238393	addi	x7,x7,2	  x7:0xfffffff9  x7=0xfffffffb
       23005000	      2299	80001934	40d5de93	srai	x29,x11,0xd	 x11:0x00000001 x29=0x00000000
       23015000	      2300	80001938	fff388e3	beq	x7,x31,80001928	  x7:0xfffffffb x31:0xfffffff9
       23025000	      2301	8000193c	2680e013	ori	x0,x1,616	  x1:0x00000003
       23035000	      2302	80001940	fc1310e3	bne	x6,x1,80001900	  x6:0xfffffffd  x1:0x00000003
       23045000	      2303	00000000	00000013	addi	x0,x0,0	  x0:0x00000000
       23055000	      2304	800018fc	00000013	addi	x0,x0,0	  x0:0x00000000
       23065000	      2305	80001900	0065b033	sltu	x0,x11,x6	 x11:0x00000001  x6:0xfffffffd
       23075000	      2306	80001904	00330313	addi	x6,x6,3	  x6:0xfffffffd  x6=0x00000000
       23085000	      2307	80001908	012a8ab3	add	x21,x21,x18	 x21:0x3d082001 x18:0x00000001 x21=0x3d082002
       23095000	      2308	8000190c	006396b3	sll	x13,x7,x6	  x7:0xfffffffb  x6:0x00000000 x13=0xfffffffb
       23105000	      2309	80001910	ff700393	addi	x7,x0,-9	  x0:0x00000000  x7=0xfffffff7
       23115000	      2310	80001914	01dd2633	slt	x12,x26,x29	 x26:0x0000000a x29:0x00000000 x12=0x00000000
       23125000	      2311	80001918	01993f33	sltu	x30,x18,x25	 x18:0x00000001 x25:0x00000000 x30=0x00000000
       23135000	      2312	8000191c	ff900f93	addi	x31,x0,-7	  x0:0x00000000 x31=0xfffffff9
       23145000	      2313	80001920	71efa593	slti	x11,x31,1822	 x31:0xfffffff9 x11=0x00000001
       23155000	      2314	80001924	00a14db3	xor	x27,x2,x10	  x2:0x80009f20 x10:0x00000000 x27=0x80009f20
       23165000	      2315	80001928	7b28f613	andi	x12,x17,1970	 x17:0x00000000 x12=0x00000000
       23175000	      2316	8000192c	00ff49b3	xor	x19,x30,x15	 x30:0x00000000 x15:0xa4b258dc x19=0xa4b258dc
       23185000	      2317	80001930	00238393	addi	x7,x7,2	  x7:0xfffffff7  x7=0xfffffff9
       23195000	      2318	80001934	40d5de93	srai	x29,x11,0xd	 x11:0x00000001 x29=0x00000000
       23205000	      2319	80001938	fff388e3	beq	x7,x31,80001928	  x7:0xfffffff9 x31:0xfffffff9
       23215000	      2320	00000000	00000013	addi	x0,x0,0	  x0:0x00000000
       23225000	      2321	80001924	00000013	addi	x0,x0,0	  x0:0x00000000
       23235000	      2322	80001928	7b28f613	andi	x12,x17,1970	 x17:0x00000000 x12=0x00000000
       23245000	      2323	8000192c	00ff49b3	xor	x19,x30,x15	 x30:0x00000000 x15:0xa4b258dc x19=0xa4b258dc
       23255000	      2324	80001930	00238393	addi	x7,x7,2	  x7:0xfffffff9  x7=0xfffffffb
       23265000	      2325	80001934	40d5de93	srai	x29,x11,0xd	 x11:0x00000001 x29=0x00000000
       23275000	      2326	80001938	fff388e3	beq	x7,x31,80001928	  x7:0xfffffffb x31:0xfffffff9
       23285000	      2327	8000193c	2680e013	ori	x0,x1,616	  x1:0x00000003
       23295000	      2328	80001940	fc1310e3	bne	x6,x1,80001900	  x6:0x00000000  x1:0x00000003
       23305000	      2329	00000000	00000013	addi	x0,x0,0	  x0:0x00000000
       23315000	      2330	800018fc	00000013	addi	x0,x0,0	  x0:0x00000000
       23325000	      2331	80001900	0065b033	sltu	x0,x11,x6	 x11:0x00000001  x6:0x00000000
       23335000	      2332	80001904	00330313	addi	x6,x6,3	  x6:0x00000000  x6=0x00000003
       23345000	      2333	80001908	012a8ab3	add	x21,x21,x18	 x21:0x3d082002 x18:0x00000001 x21=0x3d082003
       23355000	      2334	8000190c	006396b3	sll	x13,x7,x6	  x7:0xfffffffb  x6:0x00000003 x13=0xffffffd8
       23365000	      2335	80001910	ff700393	addi	x7,x0,-9	  x0:0x00000000  x7=0xfffffff7
       23375000	      2336	80001914	01dd2633	slt	x12,x26,x29	 x26:0x0000000a x29:0x00000000 x12=0x00000000
       23385000	      2337	80001918	01993f33	sltu	x30,x18,x25	 x18:0x00000001 x25:0x00000000 x30=0x00000000
       23395000	      2338	8000191c	ff900f93	addi	x31,x0,-7	  x0:0x00000000 x31=0xfffffff9
       23405000	      2339	80001920	71efa593	slti	x11,x31,1822	 x31:0xfffffff9 x11=0x00000001
       23415000	      2340	80001924	00a14db3	xor	x27,x2,x10	  x2:0x80009f20 x10:0x00000000 x27=0x80009f20
       23425000	      2341	80001928	7b28f613	andi	x12,x17,1970	 x17:0x00000000 x12=0x00000000
       23435000	      2342	8000192c	00ff49b3	xor	x19,x30,x15	 x30:0x00000000 x15:0xa4b258dc x19=0xa4b258dc
       23445000	      2343	80001930	00238393	addi	x7,x7,2	  x7:0xfffffff7  x7=0xfffffff9
       23455000	      2344	80001934	40d5de93	srai	x29,x11,0xd	 x11:0x00000001 x29=0x00000000
       23465000	      2345	80001938	fff388e3	beq	x7,x31,80001928	  x7:0xfffffff9 x31:0xfffffff9
       23475000	      2346	00000000	00000013	addi	x0,x0,0	  x0:0x00000000
       23485000	      2347	80001924	00000013	addi	x0,x0,0	  x0:0x00000000
       23495000	      2348	80001928	7b28f613	andi	x12,x17,1970	 x17:0x00000000 x12=0x00000000
       23505000	      2349	8000192c	00ff49b3	xor	x19,x30,x15	 x30:0x00000000 x15:0xa4b258dc x19=0xa4b258dc
       23515000	      2350	80001930	00238393	addi	x7,x7,2	  x7:0xfffffff9  x7=0xfffffffb
       23525000	      2351	80001934	40d5de93	srai	x29,x11,0xd	 x11:0x00000001 x29=0x00000000
       23535000	      2352	80001938	fff388e3	beq	x7,x31,80001928	  x7:0xfffffffb x31:0xfffffff9
       23545000	      2353	8000193c	2680e013	ori	x0,x1,616	  x1:0x00000003
       23555000	      2354	80001940	fc1310e3	bne	x6,x1,80001900	  x6:0x00000003  x1:0x00000003
       23565000	      2355	80001944	0371f993	andi	x19,x3,55	  x3:0x00000000 x19=0x00000000
       23575000	      2356	80001948	03524263	blt	x4,x21,8000196c	  x4:0x00000001 x21:0x3d082003
       23585000	      2357	00000000	00000013	addi	x0,x0,0	  x0:0x00000000
       23595000	      2358	80001968	00000013	addi	x0,x0,0	  x0:0x00000000
       23605000	      2359	8000196c	40d9d633	sra	x12,x19,x13	 x19:0x00000000 x13:0xffffffd8 x12=0x00000000
       23615000	      2360	80001970	03cf6463	bltu	x30,x28,80001998	 x30:0x00000000 x28:0x00000001
       23625000	      2361	00000000	00000013	addi	x0,x0,0	  x0:0x00000000
       23635000	      2362	80001994	00000013	addi	x0,x0,0	  x0:0x00000000
       23645000	      2363	80001998	01811913	slli	x18,x2,0x18	  x2:0x80009f20 x18=0x20000000
       23655000	      2364	8000199c	41e00033	sub	x0,x0,x30	  x0:0x00000000 x30:0x00000000
       23665000	      2365	800019a0	c6bd2c13	slti	x24,x26,-917	 x26:0x0000000a x24=0x00000000
       23675000	      2366	800019a4	01da2033	slt	x0,x20,x29	 x20:0x00000004 x29:0x00000000
       23685000	      2367	800019a8	971ba717	auipc	x14,0x971ba	 x14=0x171bb9a4
       23695000	      2368	800019ac	41fb5333	sra	x6,x22,x31	 x22:0x00000001 x31:0xfffffff9  x6=0x00000000
       23705000	      2369	800019b0	40f28033	sub	x0,x5,x15	  x5:0x0000000d x15:0xa4b258dc
       23715000	      2370	800019b4	41a80e33	sub	x28,x16,x26	 x16:0x80009fc4 x26:0x0000000a x28=0x80009fba
       23725000	      2371	800019b8	00000013	addi	x0,x0,0	  x0:0x00000000
       23735000	      2372	800019bc	d7f73393	sltiu	x7,x14,-641	 x14:0x171bb9a4  x7=0x00000001
       23745000	      2373	800019c0	ab4af393	andi	x7,x21,-1356	 x21:0x3d082003  x7=0x3d082000
       23755000	      2374	800019c4	01cb4c63	blt	x22,x28,800019dc	 x22:0x00000001 x28:0x80009fba
       23765000	      2375	800019c8	a535ad13	slti	x26,x11,-1453	 x11:0x00000001 x26=0x00000000
       23775000	      2376	800019cc	04357063	bgeu	x10,x3,80001a0c	 x10:0x00000000  x3:0x00000000
       23785000	      2377	00000000	00000013	addi	x0,x0,0	  x0:0x00000000
       23795000	      2378	80001a08	00000013	addi	x0,x0,0	  x0:0x00000000
       23805000	      2379	80001a0c	db323713	sltiu	x14,x4,-589	  x4:0x00000001 x14=0x00000001
       23815000	      2380	80001a10	f514e513	ori	x10,x9,-175	  x9:0x00000000 x10=0xffffff51
       23825000	      2381	80001a14	40fd51b3	sra	x3,x26,x15	 x26:0x00000000 x15:0xa4b258dc  x3=0x00000000
       23835000	      2382	80001a18	3837eb13	ori	x22,x15,899	 x15:0xa4b258dc x22=0xa4b25bdf
       23845000	      2383	80001a1c	00abb433	sltu	x8,x23,x10	 x23:0x8000985b x10:0xffffff51  x8=0x00000001
       23855000	      2384	80001a20	36853693	sltiu	x13,x10,872	 x10:0xffffff51 x13=0x00000000
       23865000	      2385	80001a24	00a6b933	sltu	x18,x13,x10	 x13:0x00000000 x10:0xffffff51 x18=0x00000001
       23875000	      2386	80001a28	0308ca63	blt	x17,x16,80001a5c	 x17:0x00000000 x16:0x80009fc4
       23885000	      2387	80001a2c	ee3c4093	xori	x1,x24,-285	 x24:0x00000000  x1=0xfffffee3
       23895000	      2388	80001a30	f8b14e13	xori	x28,x2,-117	  x2:0x80009f20 x28=0x7fff60ab
       23905000	      2389	80001a34	00cc9b13	slli	x22,x25,0xc	 x25:0x00000000 x22=0x00000000
       23915000	      2390	80001a38	05118263	beq	x3,x17,80001a7c	  x3:0x00000000 x17:0x00000000
       23925000	      2391	00000000	00000013	addi	x0,x0,0	  x0:0x00000000
       23935000	      2392	80001a78	00000013	addi	x0,x0,0	  x0:0x00000000
       23945000	      2393	80001a7c	03265663	bge	x12,x18,80001aa8	 x12:0x00000000 x18:0x00000001
       23955000	      2394	80001a80	01591393	slli	x7,x18,0x15	 x18:0x00000001  x7=0x00200000
       23965000	      2395	80001a84	37580313	addi	x6,x16,885	 x16:0x80009fc4  x6=0x8000a339
       23975000	      2396	80001a88	002d4eb3	xor	x29,x26,x2	 x26:0x00000000  x2:0x80009f20 x29=0x80009f20
       23985000	      2397	80001a8c	002d4bb3	xor	x23,x26,x2	 x26:0x00000000  x2:0x80009f20 x23=0x80009f20
       23995000	      2398	80001a90	6ef1f193	andi	x3,x3,1775	  x3:0x00000000  x3=0x00000000
       24005000	      2399	80001a94	01a15693	srli	x13,x2,0x1a	  x2:0x80009f20 x13=0x00000020
       24015000	      2400	80001a98	412689b3	sub	x19,x13,x18	 x13:0x00000020 x18:0x00000001 x19=0x0000001f
       24025000	      2401	80001a9c	00e319b3	sll	x19,x6,x14	  x6:0x8000a339 x14:0x00000001 x19=0x00014672
       24035000	      2402	80001aa0	d85e7593	andi	x11,x28,-635	 x28:0x7fff60ab x11=0x7fff6081
       24045000	      2403	80001aa4	e0f2cd93	xori	x27,x5,-497	  x5:0x0000000d x27=0xfffffe02
       24055000	      2404	80001aa8	01c21613	slli	x12,x4,0x1c	  x4:0x00000001 x12=0x10000000
       24065000	      2405	80001aac	40430533	sub	x10,x6,x4	  x6:0x8000a339  x4:0x00000001 x10=0x8000a338
       24075000	      2406	80001ab0	00d59593	slli	x11,x11,0xd	 x11:0x7fff6081 x11=0xec102000
       24085000	      2407	80001ab4	33960893	addi	x17,x12,825	 x12:0x10000000 x17=0x10000339
       24095000	      2408	80001ab8	4030dbb3	sra	x23,x1,x3	  x1:0xfffffee3  x3:0x00000000 x23=0xfffffee3
       24105000	      2409	80001abc	91b10413	addi	x8,x2,-1765	  x2:0x80009f20  x8=0x8000983b
       24115000	      2410	80001ac0	025dc063	blt	x27,x5,80001ae0	 x27:0xfffffe02  x5:0x0000000d
       24125000	      2411	00000000	00000013	addi	x0,x0,0	  x0:0x00000000
       24135000	      2412	80001adc	00000013	addi	x0,x0,0	  x0:0x00000000
       24145000	      2413	80001ae0	7d2b2993	slti	x19,x22,2002	 x22:0x00000000 x19=0x00000001
       24155000	      2414	80001ae4	007a5413	srli	x8,x20,0x7	 x20:0x00000004  x8=0x00000000
       24165000	      2415	80001ae8	0105e463	bltu	x11,x16,80001af0	 x11:0xec102000 x16:0x80009fc4
       24175000	      2416	80001aec	401ddd33	sra	x26,x27,x1	 x27:0xfffffe02  x1:0xfffffee3 x26=0xffffffc0
       24185000	      2417	80001af0	01e20d33	add	x26,x4,x30	  x4:0x00000001 x30:0x00000000 x26=0x00000001
       24195000	      2418	80001af4	054dc663	blt	x27,x20,80001b40	 x27:0xfffffe02 x20:0x00000004
       24205000	      2419	00000000	00000013	addi	x0,x0,0	  x0:0x00000000
       24215000	      2420	80001b3c	00000013	addi	x0,x0,0	  x0:0x00000000
       24225000	      2421	80001b40	c1e32f13	slti	x30,x6,-994	  x6:0x8000a339 x30=0x00000001
       24235000	      2422	80001b44	01ca5663	bge	x20,x28,80001b50	 x20:0x00000004 x28:0x7fff60ab
       24245000	      2423	80001b48	03c3f663	bgeu	x7,x28,80001b74	  x7:0x00200000 x28:0x7fff60ab
       24255000	      2424	80001b4c	ae342b13	slti	x22,x8,-1309	  x8:0x00000000 x22=0x00000000
       24265000	      2425	80001b50	6bf7ce93	xori	x29,x15,1727	 x15:0xa4b258dc x29=0xa4b25e63
       24275000	      2426	80001b54	017d4f33	xor	x30,x26,x23	 x26:0x00000001 x23:0xfffffee3 x30=0xfffffee2
       24285000	      2427	80001b58	01f60db3	add	x27,x12,x31	 x12:0x10000000 x31:0xfffffff9 x27=0x0ffffff9
       24295000	      2428	80001b5c	5e3ec793	xori	x15,x29,1507	 x29:0xa4b25e63 x15=0xa4b25b80
       24305000	      2429	80001b60	26942413	slti	x8,x8,617	  x8:0x00000000  x8=0x00000001
       24315000	      2430	80001b64	018bdb13	srli	x22,x23,0x18	 x23:0xfffffee3 x22=0x000000ff
       24325000	      2431	80001b68	01415c63	bge	x2,x20,80001b80	  x2:0x80009f20 x20:0x00000004
       24335000	      2432	80001b6c	01709a93	slli	x21,x1,0x17	  x1:0xfffffee3 x21=0x71800000
       24345000	      2433	80001b70	018591b3	sll	x3,x11,x24	 x11:0xec102000 x24:0x00000000  x3=0xec102000
       24355000	      2434	80001b74	57724d93	xori	x27,x4,1399	  x4:0x00000001 x27=0x00000576
       24365000	      2435	80001b78	0063dbb3	srl	x23,x7,x6	  x7:0x00200000  x6:0x8000a339 x23=0x00000000
       24375000	      2436	80001b7c	b16d2a13	slti	x20,x26,-1258	 x26:0x00000001 x20=0x00000000
       24385000	      2437	80001b80	01b2c6b3	xor	x13,x5,x27	  x5:0x0000000d x27:0x00000576 x13=0x0000057b
       24395000	      2438	80001b84	034c9463	bne	x25,x20,80001bac	 x25:0x00000000 x20:0x00000000
       24405000	      2439	80001b88	40c75a93	srai	x21,x14,0xc	 x14:0x00000001 x21=0x00000000
       24415000	      2440	80001b8c	40f28cb3	sub	x25,x5,x15	  x5:0x0000000d x15:0xa4b25b80 x25=0x5b4da48d
       24425000	      2441	80001b90	01941493	slli	x9,x8,0x19	  x8:0x00000001  x9=0x02000000
       24435000	      2442	80001b94	00000013	addi	x0,x0,0	  x0:0x00000000
       24445000	      2443	80001b98	00c44cb3	xor	x25,x8,x12	  x8:0x00000001 x12:0x10000000 x25=0x10000001
       24455000	      2444	80001b9c	f51ce093	ori	x1,x25,-175	 x25:0x10000001  x1=0xffffff51
       24465000	      2445	80001ba0	0129d863	bge	x19,x18,80001bb0	 x19:0x00000001 x18:0x00000001
       24475000	      2446	00000000	00000013	addi	x0,x0,0	  x0:0x00000000
       24485000	      2447	80001bac	00000013	addi	x0,x0,0	  x0:0x00000000
       24495000	      2448	80001bb0	e9228713	addi	x14,x5,-366	  x5:0x0000000d x14=0xfffffe9f
       24505000	      2449	80001bb4	40bf05b3	sub	x11,x30,x11	 x30:0xfffffee2 x11:0xec102000 x11=0x13efdee2
       24515000	      2450	80001bb8	03ab5663	bge	x22,x26,80001be4	 x22:0x000000ff x26:0x00000001
       24525000	      2451	00000000	00000013	addi	x0,x0,0	  x0:0x00000000
       24535000	      2452	80001be0	00000013	addi	x0,x0,0	  x0:0x00000000
       24545000	      2453	80001be4	00000013	addi	x0,x0,0	  x0:0x00000000
       24555000	      2454	80001be8	895acc13	xori	x24,x21,-1899	 x21:0x00000000 x24=0xfffff895
       24565000	      2455	80001bec	3240a213	slti	x4,x1,804	  x1:0xffffff51  x4=0x00000001
       24575000	      2456	80001bf0	4066d493	srai	x9,x13,0x6	 x13:0x0000057b  x9=0x00000015
       24585000	      2457	80001bf4	9a328f37	lui	x30,0x9a328	 x30=0x9a328000
       24595000	      2458	80001bf8	40f64a13	xori	x20,x12,1039	 x12:0x10000000 x20=0x1000040f
       24605000	      2459	80001bfc	41fa81b3	sub	x3,x21,x31	 x21:0x00000000 x31:0xfffffff9  x3=0x00000007
       24615000	      2460	80001c00	7a12f913	andi	x18,x5,1953	  x5:0x0000000d x18=0x00000001
       24625000	      2461	80001c04	deb2b713	sltiu	x14,x5,-533	  x5:0x0000000d x14=0x00000001
       24635000	      2462	80001c08	46637697	auipc	x13,0x46637	 x13=0xc6638c04
       24645000	      2463	80001c0c	01fc4d33	xor	x26,x24,x31	 x24:0xfffff895 x31:0xfffffff9 x26=0x0000076c
       24655000	      2464	80001c10	84cf3937	lui	x18,0x84cf3	 x18=0x84cf3000
       24665000	      2465	80001c14	41ce56b3	sra	x13,x28,x28	 x28:0x7fff60ab x28:0x7fff60ab x13=0x000fffec
       24675000	      2466	80001c18	000a1f33	sll	x30,x20,x0	 x20:0x1000040f  x0:0x00000000 x30=0x1000040f
       24685000	      2467	80001c1c	00991663	bne	x18,x9,80001c28	 x18:0x84cf3000  x9:0x00000015
       24695000	      2468	00000000	00000013	addi	x0,x0,0	  x0:0x00000000
       24705000	      2469	80001c24	00000013	addi	x0,x0,0	  x0:0x00000000
       24715000	      2470	80001c28	32c4bb17	auipc	x22,0x32c4b	 x22=0xb2c4cc24
       24725000	      2471	80001c2c	34454717	auipc	x14,0x34454	 x14=0xb4455c28
       24735000	      2472	80001c30	2b678e93	addi	x29,x15,694	 x15:0xa4b25b80 x29=0xa4b25e36
       24745000	      2473	80001c34	00000013	addi	x0,x0,0	  x0:0x00000000
       24755000	      2474	80001c38	4058ddb3	sra	x27,x17,x5	 x17:0x10000339  x5:0x0000000d x27=0x00008000
       24765000	      2475	80001c3c	53968393	addi	x7,x13,1337	 x13:0x000fffec  x7=0x00100525
       24775000	      2476	80001c40	06c61663	bne	x12,x12,80001cac	 x12:0x10000000 x12:0x10000000
       24785000	      2477	80001c44	0bdc1063	bne	x24,x29,80001ce4	 x24:0xfffff895 x29:0xa4b25e36
       24795000	      2478	00000000	00000013	addi	x0,x0,0	  x0:0x00000000
       24805000	      2479	80001ce0	00000013	addi	x0,x0,0	  x0:0x00000000
       24815000	      2480	80001ce4	00000013	addi	x0,x0,0	  x0:0x00000000
       24825000	      2481	80001ce8	8198f193	andi	x3,x17,-2023	 x17:0x10000339  x3=0x10000019
       24835000	      2482	80001cec	0d6591b7	lui	x3,0xd659	  x3=0x0d659000
       24845000	      2483	80001cf0	01b05433	srl	x8,x0,x27	  x0:0x00000000 x27:0x00008000  x8=0x00000000
       24855000	      2484	80001cf4	404f81b3	sub	x3,x31,x4	 x31:0xfffffff9  x4:0x00000001  x3=0xfffffff8
       24865000	      2485	80001cf8	017bbf33	sltu	x30,x23,x23	 x23:0x00000000 x23:0x00000000 x30=0x00000000
       24875000	      2486	80001cfc	01e79693	slli	x13,x15,0x1e	 x15:0xa4b25b80 x13=0x00000000
       24885000	      2487	80001d00	08eb4c93	xori	x25,x22,142	 x22:0xb2c4cc24 x25=0xb2c4ccaa
       24895000	      2488	80001d04	00da9a13	slli	x20,x21,0xd	 x21:0x00000000 x20=0x00000000
       24905000	      2489	80001d08	0016b8b3	sltu	x17,x13,x1	 x13:0x00000000  x1:0xffffff51 x17=0x00000001
       24915000	      2490	80001d0c	01e3ceb3	xor	x29,x7,x30	  x7:0x00100525 x30:0x00000000 x29=0x00100525
       24925000	      2491	80001d10	015fd313	srli	x6,x31,0x15	 x31:0xfffffff9  x6=0x000007ff
       24935000	      2492	80001d14	5a177213	andi	x4,x14,1441	 x14:0xb4455c28  x4=0x00000420
       24945000	      2493	80001d18	aafdc513	xori	x10,x27,-1361	 x27:0x00008000 x10=0xffff7aaf
       24955000	      2494	80001d1c	004e3eb3	sltu	x29,x28,x4	 x28:0x7fff60ab  x4:0x00000420 x29=0x00000000
       24965000	      2495	80001d20	40310033	sub	x0,x2,x3	  x2:0x80009f20  x3:0xfffffff8
       24975000	      2496	80001d24	0aa5f593	andi	x11,x11,170	 x11:0x13efdee2 x11=0x000000a2
       24985000	      2497	80001d28	016f9493	slli	x9,x31,0x16	 x31:0xfffffff9  x9=0xfe400000
       24995000	      2498	80001d2c	039c1263	bne	x24,x25,80001d50	 x24:0xfffff895 x25:0xb2c4ccaa
       25005000	      2499	00000000	00000013	addi	x0,x0,0	  x0:0x00000000
       25015000	      2500	80001d4c	00000013	addi	x0,x0,0	  x0:0x00000000
       25025000	      2501	80001d50	b2033f93	sltiu	x31,x6,-1248	  x6:0x000007ff x31=0x00000001
       25035000	      2502	80001d54	0310d663	bge	x1,x17,80001d80	  x1:0xffffff51 x17:0x00000001
       25045000	      2503	80001d58	01cc5513	srli	x10,x24,0x1c	 x24:0xfffff895 x10=0x0000000f
       25055000	      2504	80001d5c	20d9c713	xori	x14,x19,525	 x19:0x00000001 x14=0x0000020c
       25065000	      2505	80001d60	01d61f93	slli	x31,x12,0x1d	 x12:0x10000000 x31=0x00000000
       25075000	      2506	80001d64	45b5e017	auipc	x0,0x45b5e	
       25085000	      2507	80001d68	41ff84b3	sub	x9,x31,x31	 x31:0x00000000 x31:0x00000000  x9=0x00000000
       25095000	      2508	80001d6c	d601dd37	lui	x26,0xd601d	 x26=0xd601d000
       25105000	      2509	80001d70	00000013	addi	x0,x0,0	  x0:0x00000000
       25115000	      2510	80001d74	00000013	addi	x0,x0,0	  x0:0x00000000
       25125000	      2511	80001d78	5df11c97	auipc	x25,0x5df11	 x25=0xddf12d74
       25135000	      2512	80001d7c	00d50f33	add	x30,x10,x13	 x10:0x0000000f x13:0x00000000 x30=0x0000000f
       25145000	      2513	80001d80	00838f33	add	x30,x7,x8	  x7:0x00100525  x8:0x00000000 x30=0x00100525
       25155000	      2514	80001d84	03938863	beq	x7,x25,80001db4	  x7:0x00100525 x25:0xddf12d74
       25165000	      2515	80001d88	8a292e97	auipc	x29,0x8a292	 x29=0x0a293d84
       25175000	      2516	80001d8c	a9bf6413	ori	x8,x30,-1381	 x30:0x00100525  x8=0xffffffbf
       25185000	      2517	80001d90	016b1393	slli	x7,x22,0x16	 x22:0xb2c4cc24  x7=0x09000000
       25195000	      2518	80001d94	8a245b17	auipc	x22,0x8a245	 x22=0x0a246d90
       25205000	      2519	80001d98	013f8863	beq	x31,x19,80001da8	 x31:0x00000000 x19:0x00000001
       25215000	      2520	80001d9c	00945933	srl	x18,x8,x9	  x8:0xffffffbf  x9:0x00000000 x18=0xffffffbf
       25225000	      2521	80001da0	0031b7b3	sltu	x15,x3,x3	  x3:0xfffffff8  x3:0xfffffff8 x15=0x00000000
       25235000	      2522	80001da4	01cd6263	bltu	x26,x28,80001da8	 x26:0xd601d000 x28:0x7fff60ab
       25245000	      2523	80001da8	020f0463	beq	x30,x0,80001dd0	 x30:0x00100525  x0:0x00000000
       25255000	      2524	80001dac	00ef1693	slli	x13,x30,0xe	 x30:0x00100525 x13=0x01494000
       25265000	      2525	80001db0	0171ff33	and	x30,x3,x23	  x3:0xfffffff8 x23:0x00000000 x30=0x00000000
       25275000	      2526	80001db4	d1acf013	andi	x0,x25,-742	 x25:0xddf12d74
       25285000	      2527	80001db8	042c5063	bge	x24,x2,80001df8	 x24:0xfffff895  x2:0x80009f20
       25295000	      2528	00000000	00000013	addi	x0,x0,0	  x0:0x00000000
       25305000	      2529	80001df4	00000013	addi	x0,x0,0	  x0:0x00000000
       25315000	      2530	80001df8	00188733	add	x14,x17,x1	 x17:0x00000001  x1:0xffffff51 x14=0xffffff52
       25325000	      2531	80001dfc	419789b3	sub	x19,x15,x25	 x15:0x00000000 x25:0xddf12d74 x19=0x220ed28c
       25335000	      2532	80001e00	012917b3	sll	x15,x18,x18	 x18:0xffffffbf x18:0xffffffbf x15=0x80000000
       25345000	      2533	80001e04	0068d433	srl	x8,x17,x6	 x17:0x00000001  x6:0x000007ff  x8=0x00000000
       25355000	      2534	80001e08	41de5bb3	sra	x23,x28,x29	 x28:0x7fff60ab x29:0x0a293d84 x23=0x07fff60a
       25365000	      2535	80001e0c	7fa74a13	xori	x20,x14,2042	 x14:0xffffff52 x20=0xfffff8a8
       25375000	      2536	80001e10	fe830513	addi	x10,x6,-24	  x6:0x000007ff x10=0x000007e7
       25385000	      2537	80001e14	04340263	beq	x8,x3,80001e58	  x8:0x00000000  x3:0xfffffff8
       25395000	      2538	80001e18	40015993	srai	x19,x2,0x0	  x2:0x80009f20 x19=0x80009f20
       25405000	      2539	80001e1c	00000013	addi	x0,x0,0	  x0:0x00000000
       25415000	      2540	80001e20	00461393	slli	x7,x12,0x4	 x12:0x10000000  x7=0x00000000
       25425000	      2541	80001e24	03011463	bne	x2,x16,80001e4c	  x2:0x80009f20 x16:0x80009fc4
       25435000	      2542	00000000	00000013	addi	x0,x0,0	  x0:0x00000000
       25445000	      2543	80001e48	00000013	addi	x0,x0,0	  x0:0x00000000
       25455000	      2544	80001e4c	9dd5e213	ori	x4,x11,-1571	 x11:0x000000a2  x4=0xfffff9ff
       25465000	      2545	80001e50	00000013	addi	x0,x0,0	  x0:0x00000000
       25475000	      2546	80001e54	a4aa6237	lui	x4,0xa4aa6	  x4=0xa4aa6000
       25485000	      2547	80001e58	00b68663	beq	x13,x11,80001e64	 x13:0x01494000 x11:0x000000a2
       25495000	      2548	80001e5c	041e6863	bltu	x28,x1,80001eac	 x28:0x7fff60ab  x1:0xffffff51
       25505000	      2549	00000000	00000013	addi	x0,x0,0	  x0:0x00000000
       25515000	      2550	80001ea8	00000013	addi	x0,x0,0	  x0:0x00000000
       25525000	      2551	80001eac	00764e63	blt	x12,x7,80001ec8	 x12:0x10000000  x7:0x00000000
       25535000	      2552	80001eb0	418d5c93	srai	x25,x26,0x18	 x26:0xd601d000 x25=0xffffffd6
       25545000	      2553	80001eb4	016f0db3	add	x27,x30,x22	 x30:0x00000000 x22:0x0a246d90 x27=0x0a246d90
       25555000	      2554	80001eb8	008e14b3	sll	x9,x28,x8	 x28:0x7fff60ab  x8:0x00000000  x9=0x7fff60ab
       25565000	      2555	80001ebc	41735b33	sra	x22,x6,x23	  x6:0x000007ff x23:0x07fff60a x22=0x00000001
       25575000	      2556	80001ec0	03f51a63	bne	x10,x31,80001ef4	 x10:0x000007e7 x31:0x00000000
       25585000	      2557	00000000	00000013	addi	x0,x0,0	  x0:0x00000000
       25595000	      2558	80001ef0	00000013	addi	x0,x0,0	  x0:0x00000000
       25605000	      2559	80001ef4	00000013	addi	x0,x0,0	  x0:0x00000000
       25615000	      2560	80001ef8	414d5693	srai	x13,x26,0x14	 x26:0xd601d000 x13=0xfffffd60
       25625000	      2561	80001efc	013ed793	srli	x15,x29,0x13	 x29:0x0a293d84 x15=0x00000145
       25635000	      2562	80001f00	856bbe93	sltiu	x29,x23,-1962	 x23:0x07fff60a x29=0x00000001
       25645000	      2563	80001f04	03bbe263	bltu	x23,x27,80001f28	 x23:0x07fff60a x27:0x0a246d90
       25655000	      2564	00000000	00000013	addi	x0,x0,0	  x0:0x00000000
       25665000	      2565	80001f24	00000013	addi	x0,x0,0	  x0:0x00000000
       25675000	      2566	80001f28	01065433	srl	x8,x12,x16	 x12:0x10000000 x16:0x80009fc4  x8=0x01000000
       25685000	      2567	80001f2c	3e5a3b13	sltiu	x22,x20,997	 x20:0xfffff8a8 x22=0x00000000
       25695000	      2568	80001f30	40ca5793	srai	x15,x20,0xc	 x20:0xfffff8a8 x15=0xffffffff
       25705000	      2569	80001f34	015c64b3	or	x9,x24,x21	 x24:0xfffff895 x21:0x00000000  x9=0xfffff895
       25715000	      2570	80001f38	03b6c663	blt	x13,x27,80001f64	 x13:0xfffffd60 x27:0x0a246d90
       25725000	      2571	00000000	00000013	addi	x0,x0,0	  x0:0x00000000
       25735000	      2572	80001f60	00000013	addi	x0,x0,0	  x0:0x00000000
       25745000	      2573	80001f64	01a81393	slli	x7,x16,0x1a	 x16:0x80009fc4  x7=0x10000000
       25755000	      2574	80001f68	009ba933	slt	x18,x23,x9	 x23:0x07fff60a  x9:0xfffff895 x18=0x00000000
       25765000	      2575	80001f6c	0bb87993	andi	x19,x16,187	 x16:0x80009fc4 x19=0x00000080
       25775000	      2576	80001f70	007bfeb3	and	x29,x23,x7	 x23:0x07fff60a  x7:0x10000000 x29=0x00000000
       25785000	      2577	80001f74	01395f13	srli	x30,x18,0x13	 x18:0x00000000 x30=0x00000000
       25795000	      2578	80001f78	00641433	sll	x8,x8,x6	  x8:0x01000000  x6:0x000007ff  x8=0x00000000
       25805000	      2579	80001f7c	61b116b7	lui	x13,0x61b11	 x13=0x61b11000
       25815000	      2580	80001f80	018ff663	bgeu	x31,x24,80001f8c	 x31:0x00000000 x24:0xfffff895
       25825000	      2581	80001f84	01cc1b13	slli	x22,x24,0x1c	 x24:0xfffff895 x22=0x50000000
       25835000	      2582	80001f88	01350433	add	x8,x10,x19	 x10:0x000007e7 x19:0x00000080  x8=0x00000867
       25845000	      2583	80001f8c	4cbe7a13	andi	x20,x28,1227	 x28:0x7fff60ab x20=0x0000008b
       25855000	      2584	80001f90	01725233	srl	x4,x4,x23	  x4:0xa4aa6000 x23:0x07fff60a  x4=0x00292a98
       25865000	      2585	80001f94	00000013	addi	x0,x0,0	  x0:0x00000000
       25875000	      2586	80001f98	00a00513	addi	x10,x0,10	  x0:0x00000000 x10=0x0000000a
       25885000	      2587	80001f9c	00d60c13	addi	x24,x12,13	 x12:0x10000000 x24=0x1000000d
       25895000	      2588	80001fa0	014a9d93	slli	x27,x21,0x14	 x21:0x00000000 x27=0x00000000
       25905000	      2589	80001fa4	01400213	addi	x4,x0,20	  x0:0x00000000  x4=0x00000014
       25915000	      2590	80001fa8	00dc0e33	add	x28,x24,x13	 x24:0x1000000d x13:0x61b11000 x28=0x71b1100d
       25925000	      2591	80001fac	38a12413	slti	x8,x2,906	  x2:0x80009f20  x8=0x00000001
       25935000	      2592	80001fb0	000d23b3	slt	x7,x26,x0	 x26:0xd601d000  x0:0x00000000  x7=0x00000001
       25945000	      2593	80001fb4	00750513	addi	x10,x10,7	 x10:0x0000000a x10=0x00000011
       25955000	      2594	80001fb8	d062eb13	ori	x22,x5,-762	  x5:0x0000000d x22=0xfffffd0f
       25965000	      2595	80001fbc	6737c793	xori	x15,x15,1651	 x15:0xffffffff x15=0xfffff98c
       25975000	      2596	80001fc0	00900093	addi	x1,x0,9	  x0:0x00000000  x1=0x00000009
       25985000	      2597	80001fc4	84157a13	andi	x20,x10,-1983	 x10:0x00000011 x20=0x00000001
       25995000	      2598	80001fc8	00800493	addi	x9,x0,8	  x0:0x00000000  x9=0x00000008
       26005000	      2599	80001fcc	392d2013	slti	x0,x26,914	 x26:0xd601d000
       26015000	      2600	80001fd0	f899a313	slti	x6,x19,-119	 x19:0x00000080  x6=0x00000000
       26025000	      2601	80001fd4	05e6bc37	lui	x24,0x5e6b	 x24=0x05e6b000
       26035000	      2602	80001fd8	41270a33	sub	x20,x14,x18	 x14:0xffffff52 x18:0x00000000 x20=0xffffff52
       26045000	      2603	80001fdc	91bac393	xori	x7,x21,-1765	 x21:0x00000000  x7=0xfffff91b
       26055000	      2604	80001fe0	ff908093	addi	x1,x1,-7	  x1:0x00000009  x1=0x00000002
       26065000	      2605	80001fe4	01e8e5b3	or	x11,x17,x30	 x17:0x00000001 x30:0x00000000 x11=0x00000001
       26075000	      2606	80001fe8	419f0a33	sub	x20,x30,x25	 x30:0x00000000 x25:0xffffffd6 x20=0x0000002a
       26085000	      2607	80001fec	00462633	slt	x12,x12,x4	 x12:0x10000000  x4:0x00000014 x12=0x00000000
       26095000	      2608	80001ff0	41c083b3	sub	x7,x1,x28	  x1:0x00000002 x28:0x71b1100d  x7=0x8e4eeff5
       26105000	      2609	80001ff4	bca697b7	lui	x15,0xbca69	 x15=0xbca69000
       26115000	      2610	80001ff8	5749b7b7	lui	x15,0x5749b	 x15=0x5749b000
       26125000	      2611	80001ffc	0178f7b3	and	x15,x17,x23	 x17:0x00000001 x23:0x07fff60a x15=0x00000000
       26135000	      2612	80002000	fc90fce3	bgeu	x1,x9,80001fd8	  x1:0x00000002  x9:0x00000008
       26145000	      2613	80002004	4050d1b3	sra	x3,x1,x5	  x1:0x00000002  x5:0x0000000d  x3=0x00000000
       26155000	      2614	80002008	ba73f793	andi	x15,x7,-1113	  x7:0x8e4eeff5 x15=0x8e4eeba5
       26165000	      2615	8000200c	fa4560e3	bltu	x10,x4,80001fac	 x10:0x00000011  x4:0x00000014
       26175000	      2616	00000000	00000013	addi	x0,x0,0	  x0:0x00000000
       26185000	      2617	80001fa8	00000013	addi	x0,x0,0	  x0:0x00000000
       26195000	      2618	80001fac	38a12413	slti	x8,x2,906	  x2:0x80009f20  x8=0x00000001
       26205000	      2619	80001fb0	000d23b3	slt	x7,x26,x0	 x26:0xd601d000  x0:0x00000000  x7=0x00000001
       26215000	      2620	80001fb4	00750513	addi	x10,x10,7	 x10:0x00000011 x10=0x00000018
       26225000	      2621	80001fb8	d062eb13	ori	x22,x5,-762	  x5:0x0000000d x22=0xfffffd0f
       26235000	      2622	80001fbc	6737c793	xori	x15,x15,1651	 x15:0x8e4eeba5 x15=0x8e4eedd6
       26245000	      2623	80001fc0	00900093	addi	x1,x0,9	  x0:0x00000000  x1=0x00000009
       26255000	      2624	80001fc4	84157a13	andi	x20,x10,-1983	 x10:0x00000018 x20=0x00000000
       26265000	      2625	80001fc8	00800493	addi	x9,x0,8	  x0:0x00000000  x9=0x00000008
       26275000	      2626	80001fcc	392d2013	slti	x0,x26,914	 x26:0xd601d000
       26285000	      2627	80001fd0	f899a313	slti	x6,x19,-119	 x19:0x00000080  x6=0x00000000
       26295000	      2628	80001fd4	05e6bc37	lui	x24,0x5e6b	 x24=0x05e6b000
       26305000	      2629	80001fd8	41270a33	sub	x20,x14,x18	 x14:0xffffff52 x18:0x00000000 x20=0xffffff52
       26315000	      2630	80001fdc	91bac393	xori	x7,x21,-1765	 x21:0x00000000  x7=0xfffff91b
       26325000	      2631	80001fe0	ff908093	addi	x1,x1,-7	  x1:0x00000009  x1=0x00000002
       26335000	      2632	80001fe4	01e8e5b3	or	x11,x17,x30	 x17:0x00000001 x30:0x00000000 x11=0x00000001
       26345000	      2633	80001fe8	419f0a33	sub	x20,x30,x25	 x30:0x00000000 x25:0xffffffd6 x20=0x0000002a
       26355000	      2634	80001fec	00462633	slt	x12,x12,x4	 x12:0x00000000  x4:0x00000014 x12=0x00000001
       26365000	      2635	80001ff0	41c083b3	sub	x7,x1,x28	  x1:0x00000002 x28:0x71b1100d  x7=0x8e4eeff5
       26375000	      2636	80001ff4	bca697b7	lui	x15,0xbca69	 x15=0xbca69000
       26385000	      2637	80001ff8	5749b7b7	lui	x15,0x5749b	 x15=0x5749b000
       26395000	      2638	80001ffc	0178f7b3	and	x15,x17,x23	 x17:0x00000001 x23:0x07fff60a x15=0x00000000
       26405000	      2639	80002000	fc90fce3	bgeu	x1,x9,80001fd8	  x1:0x00000002  x9:0x00000008
       26415000	      2640	80002004	4050d1b3	sra	x3,x1,x5	  x1:0x00000002  x5:0x0000000d  x3=0x00000000
       26425000	      2641	80002008	ba73f793	andi	x15,x7,-1113	  x7:0x8e4eeff5 x15=0x8e4eeba5
       26435000	      2642	8000200c	fa4560e3	bltu	x10,x4,80001fac	 x10:0x00000018  x4:0x00000014
       26445000	      2643	80002010	001147b3	xor	x15,x2,x1	  x2:0x80009f20  x1:0x00000002 x15=0x80009f22
       26455000	      2644	80002014	0967fe93	andi	x29,x15,150	 x15:0x80009f22 x29=0x00000002
       26465000	      2645	80002018	0e51cf13	xori	x30,x3,229	  x3:0x00000000 x30=0x000000e5
       26475000	      2646	8000201c	41965193	srai	x3,x12,0x19	 x12:0x00000001  x3=0x00000000
       26485000	      2647	80002020	5c768a93	addi	x21,x13,1479	 x13:0x61b11000 x21=0x61b115c7
       26495000	      2648	80002024	02dec863	blt	x29,x13,80002054	 x29:0x00000002 x13:0x61b11000
       26505000	      2649	00000000	00000013	addi	x0,x0,0	  x0:0x00000000
       26515000	      2650	80002050	00000013	addi	x0,x0,0	  x0:0x00000000
       26525000	      2651	80002054	4096dcb3	sra	x25,x13,x9	 x13:0x61b11000  x9:0x00000008 x25=0x0061b110
       26535000	      2652	80002058	37802393	slti	x7,x0,888	  x0:0x00000000  x7=0x00000001
       26545000	      2653	8000205c	00d7a3b3	slt	x7,x15,x13	 x15:0x80009f22 x13:0x61b11000  x7=0x00000001
       26555000	      2654	80002060	03f98863	beq	x19,x31,80002090	 x19:0x00000080 x31:0x00000000
       26565000	      2655	80002064	00f1d993	srli	x19,x3,0xf	  x3:0x00000000 x19=0x00000000
       26575000	      2656	80002068	54912097	auipc	x1,0x54912	  x1=0xd4914064
       26585000	      2657	8000206c	7ab63997	auipc	x19,0x7ab63	 x19=0xfab65068
       26595000	      2658	80002070	043dd663	bge	x27,x3,800020bc	 x27:0x00000000  x3:0x00000000
       26605000	      2659	00000000	00000013	addi	x0,x0,0	  x0:0x00000000
       26615000	      2660	800020b8	00000013	addi	x0,x0,0	  x0:0x00000000
       26625000	      2661	800020bc	009cebb3	or	x23,x25,x9	 x25:0x0061b110  x9:0x00000008 x23=0x0061b118
       26635000	      2662	800020c0	0416f263	bgeu	x13,x1,80002104	 x13:0x61b11000  x1:0xd4914064
       26645000	      2663	800020c4	00b9d493	srli	x9,x19,0xb	 x19:0xfab65068  x9=0x001f56ca
       26655000	      2664	800020c8	0197d433	srl	x8,x15,x25	 x15:0x80009f22 x25:0x0061b110  x8=0x00008000
       26665000	      2665	800020cc	0028e933	or	x18,x17,x2	 x17:0x00000001  x2:0x80009f20 x18=0x80009f21
       26675000	      2666	800020d0	b4c66693	ori	x13,x12,-1204	 x12:0x00000001 x13=0xfffffb4d
       26685000	      2667	800020d4	0187c663	blt	x15,x24,800020e0	 x15:0x80009f22 x24:0x05e6b000
       26695000	      2668	00000000	00000013	addi	x0,x0,0	  x0:0x00000000
       26705000	      2669	800020dc	00000013	addi	x0,x0,0	  x0:0x00000000
       26715000	      2670	800020e0	01ef9193	slli	x3,x31,0x1e	 x31:0x00000000  x3=0x00000000
       26725000	      2671	800020e4	0187adb3	slt	x27,x15,x24	 x15:0x80009f22 x24:0x05e6b000 x27=0x00000001
       26735000	      2672	800020e8	04327063	bgeu	x4,x3,80002128	  x4:0x00000014  x3:0x00000000
       26745000	      2673	00000000	00000013	addi	x0,x0,0	  x0:0x00000000
       26755000	      2674	80002124	00000013	addi	x0,x0,0	  x0:0x00000000
       26765000	      2675	80002128	cebde313	ori	x6,x27,-789	 x27:0x00000001  x6=0xfffffceb
       26775000	      2676	8000212c	40ca5533	sra	x10,x20,x12	 x20:0x0000002a x12:0x00000001 x10=0x00000015
       26785000	      2677	80002130	00ce2f33	slt	x30,x28,x12	 x28:0x71b1100d x12:0x00000001 x30=0x00000000
       26795000	      2678	80002134	41fdd713	srai	x14,x27,0x1f	 x27:0x00000001 x14=0x00000000
       26805000	      2679	80002138	37a5a693	slti	x13,x11,890	 x11:0x00000001 x13=0x00000001
       26815000	      2680	8000213c	41208933	sub	x18,x1,x18	  x1:0xd4914064 x18:0x80009f21 x18=0x5490a143
       26825000	      2681	80002140	00f837b3	sltu	x15,x16,x15	 x16:0x80009fc4 x15:0x80009f22 x15=0x00000000
       26835000	      2682	80002144	41d0d733	sra	x14,x1,x29	  x1:0xd4914064 x29:0x00000002 x14=0xf5245019
       26845000	      2683	80002148	01775493	srli	x9,x14,0x17	 x14:0xf5245019  x9=0x000001ea
       26855000	      2684	8000214c	407e58b3	sra	x17,x28,x7	 x28:0x71b1100d  x7:0x00000001 x17=0x38d88806
       26865000	      2685	80002150	00cb8f33	add	x30,x23,x12	 x23:0x0061b118 x12:0x00000001 x30=0x0061b119
       26875000	      2686	80002154	02990663	beq	x18,x9,80002180	 x18:0x5490a143  x9:0x000001ea
       26885000	      2687	80002158	01a626b3	slt	x13,x12,x26	 x12:0x00000001 x26:0xd601d000 x13=0x00000000
       26895000	      2688	8000215c	01b0c733	xor	x14,x1,x27	  x1:0xd4914064 x27:0x00000001 x14=0xd4914065
       26905000	      2689	80002160	053f5663	bge	x30,x19,800021ac	 x30:0x0061b119 x19:0xfab65068
       26915000	      2690	00000000	00000013	addi	x0,x0,0	  x0:0x00000000
       26925000	      2691	800021a8	00000013	addi	x0,x0,0	  x0:0x00000000
       26935000	      2692	800021ac	4e07e7b7	lui	x15,0x4e07e	 x15=0x4e07e000
       26945000	      2693	800021b0	4066d313	srai	x6,x13,0x6	 x13:0x00000000  x6=0x00000000
       26955000	      2694	800021b4	41645913	srai	x18,x8,0x16	  x8:0x00008000 x18=0x00000000
       26965000	      2695	800021b8	0ca7ef13	ori	x30,x15,202	 x15:0x4e07e000 x30=0x4e07e0ca
       26975000	      2696	800021bc	00000013	addi	x0,x0,0	  x0:0x00000000
       26985000	      2697	800021c0	020a4663	blt	x20,x0,800021ec	 x20:0x0000002a  x0:0x00000000
       26995000	      2698	800021c4	66f8f093	andi	x1,x17,1647	 x17:0x38d88806  x1=0x00000006
       27005000	      2699	800021c8	5e7b4237	lui	x4,0x5e7b4	  x4=0x5e7b4000
       27015000	      2700	800021cc	00efda13	srli	x20,x31,0xe	 x31:0x00000000 x20=0x00000000
       27025000	      2701	800021d0	445e6713	ori	x14,x28,1093	 x28:0x71b1100d x14=0x71b1144d
       27035000	      2702	800021d4	00f86c33	or	x24,x16,x15	 x16:0x80009fc4 x15:0x4e07e000 x24=0xce07ffc4
       27045000	      2703	800021d8	40c000b3	sub	x1,x0,x12	  x0:0x00000000 x12:0x00000001  x1=0xffffffff
       27055000	      2704	800021dc	0151e9b3	or	x19,x3,x21	  x3:0x00000000 x21:0x61b115c7 x19=0x61b115c7
       27065000	      2705	800021e0	001b53b3	srl	x7,x22,x1	 x22:0xfffffd0f  x1:0xffffffff  x7=0x00000001
       27075000	      2706	800021e4	98381d37	lui	x26,0x98381	 x26=0x98381000
       27085000	      2707	800021e8	01a79633	sll	x12,x15,x26	 x15:0x4e07e000 x26:0x98381000 x12=0x4e07e000
       27095000	      2708	800021ec	03448863	beq	x9,x20,8000221c	  x9:0x000001ea x20:0x00000000
       27105000	      2709	800021f0	01a72db3	slt	x27,x14,x26	 x14:0x71b1144d x26:0x98381000 x27=0x00000000
       27115000	      2710	800021f4	02968663	beq	x13,x9,80002220	 x13:0x00000000  x9:0x000001ea
       27125000	      2711	800021f8	01c136b3	sltu	x13,x2,x28	  x2:0x80009f20 x28:0x71b1100d x13=0x00000000
       27135000	      2712	800021fc	00ba35b3	sltu	x11,x20,x11	 x20:0x00000000 x11:0x00000001 x11=0x00000001
       27145000	      2713	80002200	00000013	addi	x0,x0,0	  x0:0x00000000
       27155000	      2714	80002204	407e0733	sub	x14,x28,x7	 x28:0x71b1100d  x7:0x00000001 x14=0x71b1100c
       27165000	      2715	80002208	00000013	addi	x0,x0,0	  x0:0x00000000
       27175000	      2716	8000220c	64266c93	ori	x25,x12,1602	 x12:0x4e07e000 x25=0x4e07e642
       27185000	      2717	80002210	00387ab3	and	x21,x16,x3	 x16:0x80009fc4  x3:0x00000000 x21=0x00000000
       27195000	      2718	80002214	00000013	addi	x0,x0,0	  x0:0x00000000
       27205000	      2719	80002218	01d81c13	slli	x24,x16,0x1d	 x16:0x80009fc4 x24=0x80000000
       27215000	      2720	8000221c	a3b7bd93	sltiu	x27,x15,-1477	 x15:0x4e07e000 x27=0x00000001
       27225000	      2721	80002220	00da24b3	slt	x9,x20,x13	 x20:0x00000000 x13:0x00000000  x9=0x00000000
       27235000	      2722	80002224	41625b13	srai	x22,x4,0x16	  x4:0x5e7b4000 x22=0x00000179
       27245000	      2723	80002228	8febbe93	sltiu	x29,x23,-1794	 x23:0x0061b118 x29=0x00000001
       27255000	      2724	8000222c	00cb8433	add	x8,x23,x12	 x23:0x0061b118 x12:0x4e07e000  x8=0x4e699118
       27265000	      2725	80002230	00000013	addi	x0,x0,0	  x0:0x00000000
       27275000	      2726	80002234	00e935b3	sltu	x11,x18,x14	 x18:0x00000000 x14:0x71b1100c x11=0x00000001
       27285000	      2727	80002238	010ae533	or	x10,x21,x16	 x21:0x00000000 x16:0x80009fc4 x10=0x80009fc4
       27295000	      2728	8000223c	02909063	bne	x1,x9,8000225c	  x1:0xffffffff  x9:0x00000000
       27305000	      2729	00000000	00000013	addi	x0,x0,0	  x0:0x00000000
       27315000	      2730	80002258	00000013	addi	x0,x0,0	  x0:0x00000000
       27325000	      2731	8000225c	d8b5d6b7	lui	x13,0xd8b5d	 x13=0xd8b5d000
       27335000	      2732	80002260	7a029b37	lui	x22,0x7a029	 x22=0x7a029000
       27345000	      2733	80002264	011e7c33	and	x24,x28,x17	 x28:0x71b1100d x17:0x38d88806 x24=0x30900004
       27355000	      2734	80002268	2734b093	sltiu	x1,x9,627	  x9:0x00000000  x1=0x00000001
       27365000	      2735	8000226c	0532f263	bgeu	x5,x19,800022b0	  x5:0x0000000d x19:0x61b115c7
       27375000	      2736	80002270	02721463	bne	x4,x7,80002298	  x4:0x5e7b4000  x7:0x00000001
       27385000	      2737	00000000	00000013	addi	x0,x0,0	  x0:0x00000000
       27395000	      2738	80002294	00000013	addi	x0,x0,0	  x0:0x00000000
       27405000	      2739	80002298	17de4413	xori	x8,x28,381	 x28:0x71b1100d  x8=0x71b11170
       27415000	      2740	8000229c	01ab9313	slli	x6,x23,0x1a	 x23:0x0061b118  x6=0x60000000
       27425000	      2741	800022a0	c8ff8393	addi	x7,x31,-881	 x31:0x00000000  x7=0xfffffc8f
       27435000	      2742	800022a4	41abd493	srai	x9,x23,0x1a	 x23:0x0061b118  x9=0x00000000
       27445000	      2743	800022a8	0196d413	srli	x8,x13,0x19	 x13:0xd8b5d000  x8=0x0000006c
       27455000	      2744	800022ac	01335f13	srli	x30,x6,0x13	  x6:0x60000000 x30=0x00000c00
       27465000	      2745	800022b0	00e59f93	slli	x31,x11,0xe	 x11:0x00000001 x31=0x00004000
       27475000	      2746	800022b4	01dc9db3	sll	x27,x25,x29	 x25:0x4e07e642 x29:0x00000001 x27=0x9c0fcc84
       27485000	      2747	800022b8	0065d263	bge	x11,x6,800022bc	 x11:0x00000001  x6:0x60000000
       27495000	      2748	800022bc	014557b3	srl	x15,x10,x20	 x10:0x80009fc4 x20:0x00000000 x15=0x80009fc4
       27505000	      2749	800022c0	4d77dc37	lui	x24,0x4d77d	 x24=0x4d77d000
       27515000	      2750	800022c4	0b6bf513	andi	x10,x23,182	 x23:0x0061b118 x10=0x00000010
       27525000	      2751	800022c8	01c5a7b3	slt	x15,x11,x28	 x11:0x00000001 x28:0x71b1100d x15=0x00000001
       27535000	      2752	800022cc	b7b7fb13	andi	x22,x15,-1157	 x15:0x00000001 x22=0x00000001
       27545000	      2753	800022d0	00149b33	sll	x22,x9,x1	  x9:0x00000000  x1:0x00000001 x22=0x00000000
       27555000	      2754	800022d4	0145c4b3	xor	x9,x11,x20	 x11:0x00000001 x20:0x00000000  x9=0x00000001
       27565000	      2755	800022d8	0073dab3	srl	x21,x7,x7	  x7:0xfffffc8f  x7:0xfffffc8f x21=0x0001ffff
       27575000	      2756	800022dc	ebcae093	ori	x1,x21,-324	 x21:0x0001ffff  x1=0xffffffff
       27585000	      2757	800022e0	417cd4b3	sra	x9,x25,x23	 x25:0x4e07e642 x23:0x0061b118  x9=0x0000004e
       27595000	      2758	800022e4	00000013	addi	x0,x0,0	  x0:0x00000000
       27605000	      2759	800022e8	fa520313	addi	x6,x4,-91	  x4:0x5e7b4000  x6=0x5e7b3fa5
       27615000	      2760	800022ec	01caa4b3	slt	x9,x21,x28	 x21:0x0001ffff x28:0x71b1100d  x9=0x00000001
       27625000	      2761	800022f0	00d56463	bltu	x10,x13,800022f8	 x10:0x00000010 x13:0xd8b5d000
       27635000	      2762	00000000	00000013	addi	x0,x0,0	  x0:0x00000000
       27645000	      2763	800022f4	00000013	addi	x0,x0,0	  x0:0x00000000
       27655000	      2764	800022f8	1e180c93	addi	x25,x16,481	 x16:0x80009fc4 x25=0x8000a1a5
       27665000	      2765	800022fc	412f5d13	srai	x26,x30,0x12	 x30:0x00000c00 x26=0x00000000
       27675000	      2766	80002300	012f6ab3	or	x21,x30,x18	 x30:0x00000c00 x18:0x00000000 x21=0x00000c00
       27685000	      2767	80002304	05a48863	beq	x9,x26,80002354	  x9:0x00000001 x26:0x00000000
       27695000	      2768	80002308	01c09d93	slli	x27,x1,0x1c	  x1:0xffffffff x27=0xf0000000
       27705000	      2769	8000230c	01e74eb3	xor	x29,x14,x30	 x14:0x71b1100c x30:0x00000c00 x29=0x71b11c0c
       27715000	      2770	80002310	00f84f33	xor	x30,x16,x15	 x16:0x80009fc4 x15:0x00000001 x30=0x80009fc5
       27725000	      2771	80002314	010fd033	srl	x0,x31,x16	 x31:0x00004000 x16:0x80009fc4
       27735000	      2772	80002318	00b73ab3	sltu	x21,x14,x11	 x14:0x71b1100c x11:0x00000001 x21=0x00000000
       27745000	      2773	8000231c	02a26a63	bltu	x4,x10,80002350	  x4:0x5e7b4000 x10:0x00000010
       27755000	      2774	80002320	be8e3513	sltiu	x10,x28,-1048	 x28:0x71b1100d x10=0x00000001
       27765000	      2775	80002324	00247bb3	and	x23,x8,x2	  x8:0x0000006c  x2:0x80009f20 x23=0x00000020
       27775000	      2776	80002328	003730b3	sltu	x1,x14,x3	 x14:0x71b1100c  x3:0x00000000  x1=0x00000000
       27785000	      2777	8000232c	00000013	addi	x0,x0,0	  x0:0x00000000
       27795000	      2778	80002330	5117f593	andi	x11,x15,1297	 x15:0x00000001 x11=0x00000001
       27805000	      2779	80002334	9c902b13	slti	x22,x0,-1591	  x0:0x00000000 x22=0x00000000
       27815000	      2780	80002338	41e65933	sra	x18,x12,x30	 x12:0x4e07e000 x30:0x80009fc5 x18=0x02703f00
       27825000	      2781	8000233c	8b2ce617	auipc	x12,0x8b2ce	 x12=0x0b2d0338
       27835000	      2782	80002340	008f6633	or	x12,x30,x8	 x30:0x80009fc5  x8:0x0000006c x12=0x80009fed
       27845000	      2783	80002344	000cb333	sltu	x6,x25,x0	 x25:0x8000a1a5  x0:0x00000000  x6=0x00000000
       27855000	      2784	80002348	1448fa37	lui	x20,0x1448f	 x20=0x1448f000
       27865000	      2785	8000234c	052bc663	blt	x23,x18,80002398	 x23:0x00000020 x18:0x02703f00
       27875000	      2786	00000000	00000013	addi	x0,x0,0	  x0:0x00000000
       27885000	      2787	80002394	00000013	addi	x0,x0,0	  x0:0x00000000
       27895000	      2788	80002398	62412f97	auipc	x31,0x62412	 x31=0xe2414394
       27905000	      2789	8000239c	412e5e33	sra	x28,x28,x18	 x28:0x71b1100d x18:0x02703f00 x28=0x71b1100d
       27915000	      2790	800023a0	03fcc863	blt	x25,x31,800023d0	 x25:0x8000a1a5 x31:0xe2414394
       27925000	      2791	00000000	00000013	addi	x0,x0,0	  x0:0x00000000
       27935000	      2792	800023cc	00000013	addi	x0,x0,0	  x0:0x00000000
       27945000	      2793	800023d0	5cde6993	ori	x19,x28,1485	 x28:0x71b1100d x19=0x71b115cd
       27955000	      2794	800023d4	00525e93	srli	x29,x4,0x5	  x4:0x5e7b4000 x29=0x02f3da00
       27965000	      2795	800023d8	015dadb3	slt	x27,x27,x21	 x27:0xf0000000 x21:0x00000000 x27=0x00000001
       27975000	      2796	800023dc	40fcddb3	sra	x27,x25,x15	 x25:0x8000a1a5 x15:0x00000001 x27=0xc00050d2
       27985000	      2797	800023e0	01292433	slt	x8,x18,x18	 x18:0x02703f00 x18:0x02703f00  x8=0x00000000
       27995000	      2798	800023e4	01ce20b3	slt	x1,x28,x28	 x28:0x71b1100d x28:0x71b1100d  x1=0x00000000
       28005000	      2799	800023e8	470eba93	sltiu	x21,x29,1136	 x29:0x02f3da00 x21=0x00000000
       28015000	      2800	800023ec	49313793	sltiu	x15,x2,1171	  x2:0x80009f20 x15=0x00000000
       28025000	      2801	800023f0	25223413	sltiu	x8,x4,594	  x4:0x5e7b4000  x8=0x00000000
       28035000	      2802	800023f4	0249c463	blt	x19,x4,8000241c	 x19:0x71b115cd  x4:0x5e7b4000
       28045000	      2803	800023f8	00d08fb3	add	x31,x1,x13	  x1:0x00000000 x13:0xd8b5d000 x31=0xd8b5d000
       28055000	      2804	800023fc	01b05db3	srl	x27,x0,x27	  x0:0x00000000 x27:0xc00050d2 x27=0x00000000
       28065000	      2805	80002400	00a64e63	blt	x12,x10,8000241c	 x12:0x80009fed x10:0x00000001
       28075000	      2806	00000000	00000013	addi	x0,x0,0	  x0:0x00000000
       28085000	      2807	80002418	00000013	addi	x0,x0,0	  x0:0x00000000
       28095000	      2808	8000241c	017c1913	slli	x18,x24,0x17	 x24:0x4d77d000 x18=0x00000000
       28105000	      2809	80002420	416a8fb3	sub	x31,x21,x22	 x21:0x00000000 x22:0x00000000 x31=0x00000000
       28115000	      2810	80002424	407c51b3	sra	x3,x24,x7	 x24:0x4d77d000  x7:0xfffffc8f  x3=0x00009aef
       28125000	      2811	80002428	017229b3	slt	x19,x4,x23	  x4:0x5e7b4000 x23:0x00000020 x19=0x00000000
       28135000	      2812	8000242c	02935263	bge	x6,x9,80002450	  x6:0x00000000  x9:0x00000001
       28145000	      2813	80002430	494e7313	andi	x6,x28,1172	 x28:0x71b1100d  x6=0x00000004
       28155000	      2814	80002434	2a3bb417	auipc	x8,0x2a3bb	  x8=0xaa3bd430
       28165000	      2815	80002438	01b623b3	slt	x7,x12,x27	 x12:0x80009fed x27:0x00000000  x7=0x00000001
       28175000	      2816	8000243c	41f65a33	sra	x20,x12,x31	 x12:0x80009fed x31:0x00000000 x20=0x80009fed
       28185000	      2817	80002440	fa862e13	slti	x28,x12,-88	 x12:0x80009fed x28=0x00000001
       28195000	      2818	80002444	01b2ac33	slt	x24,x5,x27	  x5:0x0000000d x27:0x00000000 x24=0x00000000
       28205000	      2819	80002448	01571c33	sll	x24,x14,x21	 x14:0x71b1100c x21:0x00000000 x24=0x71b1100c
       28215000	      2820	8000244c	019e9bb3	sll	x23,x29,x25	 x29:0x02f3da00 x25:0x8000a1a5 x23=0x5e7b4000
       28225000	      2821	80002450	3e6ee197	auipc	x3,0x3e6ee	  x3=0xbe6f044c
       28235000	      2822	80002454	0002e6b3	or	x13,x5,x0	  x5:0x0000000d  x0:0x00000000 x13=0x0000000d
       28245000	      2823	80002458	012fd433	srl	x8,x31,x18	 x31:0x00000000 x18:0x00000000  x8=0x00000000
       28255000	      2824	8000245c	6a112313	slti	x6,x2,1697	  x2:0x80009f20  x6=0x00000001
       28265000	      2825	80002460	6fb8b997	auipc	x19,0x6fb8b	 x19=0xefb8d45c
       28275000	      2826	80002464	0091c033	xor	x0,x3,x9	  x3:0xbe6f044c  x9:0x00000001
       28285000	      2827	80002468	0169c733	xor	x14,x19,x22	 x19:0xefb8d45c x22:0x00000000 x14=0xefb8d45c
       28295000	      2828	8000246c	41a88a33	sub	x20,x17,x26	 x17:0x38d88806 x26:0x00000000 x20=0x38d88806
       28305000	      2829	80002470	41e05f93	srai	x31,x0,0x1e	  x0:0x00000000 x31=0x00000000
       28315000	      2830	80002474	015bedb3	or	x27,x23,x21	 x23:0x5e7b4000 x21:0x00000000 x27=0x5e7b4000
       28325000	      2831	80002478	2d884793	xori	x15,x16,728	 x16:0x80009fc4 x15=0x80009d1c
       28335000	      2832	8000247c	01e06663	bltu	x0,x30,80002488	  x0:0x00000000 x30:0x80009fc5
       28345000	      2833	00000000	00000013	addi	x0,x0,0	  x0:0x00000000
       28355000	      2834	80002484	00000013	addi	x0,x0,0	  x0:0x00000000
       28365000	      2835	80002488	400bd493	srai	x9,x23,0x0	 x23:0x5e7b4000  x9=0x5e7b4000
       28375000	      2836	8000248c	003a0e63	beq	x20,x3,800024a8	 x20:0x38d88806  x3:0xbe6f044c
       28385000	      2837	80002490	0567e263	bltu	x15,x22,800024d4	 x15:0x80009d1c x22:0x00000000
       28395000	      2838	80002494	41045993	srai	x19,x8,0x10	  x8:0x00000000 x19=0x00000000
       28405000	      2839	80002498	00379263	bne	x15,x3,8000249c	 x15:0x80009d1c  x3:0xbe6f044c
       28415000	      2840	00000000	00000013	addi	x0,x0,0	  x0:0x00000000
       28425000	      2841	80002498	00000013	addi	x0,x0,0	  x0:0x00000000
       28435000	      2842	8000249c	c6f7f093	andi	x1,x15,-913	 x15:0x80009d1c  x1=0x80009c0c
       28445000	      2843	800024a0	01974533	xor	x10,x14,x25	 x14:0xefb8d45c x25:0x8000a1a5 x10=0x6fb875f9
       28455000	      2844	800024a4	00f51e33	sll	x28,x10,x15	 x10:0x6fb875f9 x15:0x80009d1c x28=0x90000000
       28465000	      2845	800024a8	01c25f93	srli	x31,x4,0x1c	  x4:0x5e7b4000 x31=0x00000005
       28475000	      2846	800024ac	4020d9b3	sra	x19,x1,x2	  x1:0x80009c0c  x2:0x80009f20 x19=0x80009c0c
       28485000	      2847	800024b0	00bc5e93	srli	x29,x24,0xb	 x24:0x71b1100c x29=0x000e3622
       28495000	      2848	800024b4	01e917b3	sll	x15,x18,x30	 x18:0x00000000 x30:0x80009fc5 x15=0x00000000
       28505000	      2849	800024b8	01425993	srli	x19,x4,0x14	  x4:0x5e7b4000 x19=0x000005e7
       28515000	      2850	800024bc	016ae3b3	or	x7,x21,x22	 x21:0x00000000 x22:0x00000000  x7=0x00000000
       28525000	      2851	800024c0	01c9e7b3	or	x15,x19,x28	 x19:0x000005e7 x28:0x90000000 x15=0x900005e7
       28535000	      2852	800024c4	01cc0db3	add	x27,x24,x28	 x24:0x71b1100c x28:0x90000000 x27=0x01b1100c
       28545000	      2853	800024c8	008bfe33	and	x28,x23,x8	 x23:0x5e7b4000  x8:0x00000000 x28=0x00000000
       28555000	      2854	800024cc	c1296a93	ori	x21,x18,-1006	 x18:0x00000000 x21=0xfffffc12
       28565000	      2855	800024d0	00c04333	xor	x6,x0,x12	  x0:0x00000000 x12:0x80009fed  x6=0x80009fed
       28575000	      2856	800024d4	011845b3	xor	x11,x16,x17	 x16:0x80009fc4 x17:0x38d88806 x11=0xb8d817c2
       28585000	      2857	800024d8	7eb3cc93	xori	x25,x7,2027	  x7:0x00000000 x25=0x000007eb
       28595000	      2858	800024dc	00d4a6b3	slt	x13,x9,x13	  x9:0x5e7b4000 x13:0x0000000d x13=0x00000000
       28605000	      2859	800024e0	dc078493	addi	x9,x15,-576	 x15:0x900005e7  x9=0x900003a7
       28615000	      2860	800024e4	ba934537	lui	x10,0xba934	 x10=0xba934000
       28625000	      2861	800024e8	403a3f93	sltiu	x31,x20,1027	 x20:0x38d88806 x31=0x00000000
       28635000	      2862	800024ec	00480c63	beq	x16,x4,80002504	 x16:0x80009fc4  x4:0x5e7b4000
       28645000	      2863	800024f0	4e4ea913	slti	x18,x29,1252	 x29:0x000e3622 x18=0x00000000
       28655000	      2864	800024f4	41530d33	sub	x26,x6,x21	  x6:0x80009fed x21:0xfffffc12 x26=0x8000a3db
       28665000	      2865	800024f8	41dfdd93	srai	x27,x31,0x1d	 x31:0x00000000 x27=0x00000000
       28675000	      2866	800024fc	02616263	bltu	x2,x6,80002520	  x2:0x80009f20  x6:0x80009fed
       28685000	      2867	00000000	00000013	addi	x0,x0,0	  x0:0x00000000
       28695000	      2868	8000251c	00000013	addi	x0,x0,0	  x0:0x00000000
       28705000	      2869	80002520	00158c63	beq	x11,x1,80002538	 x11:0xb8d817c2  x1:0x80009c0c
       28715000	      2870	80002524	cf7c8e93	addi	x29,x25,-777	 x25:0x000007eb x29=0x000004e2
       28725000	      2871	80002528	02ded063	bge	x29,x13,80002548	 x29:0x000004e2 x13:0x00000000
       28735000	      2872	00000000	00000013	addi	x0,x0,0	  x0:0x00000000
       28745000	      2873	80002544	00000013	addi	x0,x0,0	  x0:0x00000000
       28755000	      2874	80002548	1f4aa993	slti	x19,x21,500	 x21:0xfffffc12 x19=0x00000001
       28765000	      2875	8000254c	02cac663	blt	x21,x12,80002578	 x21:0xfffffc12 x12:0x80009fed
       28775000	      2876	80002550	01cb10b3	sll	x1,x22,x28	 x22:0x00000000 x28:0x00000000  x1=0x00000000
       28785000	      2877	80002554	00b31893	slli	x17,x6,0xb	  x6:0x80009fed x17=0x04ff6800
       28795000	      2878	80002558	97549417	auipc	x8,0x97549	  x8=0x1754b554
       28805000	      2879	8000255c	0ac52913	slti	x18,x10,172	 x10:0xba934000 x18=0x00000001
       28815000	      2880	80002560	8b157e93	andi	x29,x10,-1871	 x10:0xba934000 x29=0xba934000
       28825000	      2881	80002564	002abdb3	sltu	x27,x21,x2	 x21:0xfffffc12  x2:0x80009f20 x27=0x00000000
       28835000	      2882	80002568	03edf263	bgeu	x27,x30,8000258c	 x27:0x00000000 x30:0x80009fc5
       28845000	      2883	8000256c	00000013	addi	x0,x0,0	  x0:0x00000000
       28855000	      2884	80002570	01634c63	blt	x6,x22,80002588	  x6:0x80009fed x22:0x00000000
       28865000	      2885	00000000	00000013	addi	x0,x0,0	  x0:0x00000000
       28875000	      2886	80002584	00000013	addi	x0,x0,0	  x0:0x00000000
       28885000	      2887	80002588	03b45863	bge	x8,x27,800025b8	  x8:0x1754b554 x27:0x00000000
       28895000	      2888	00000000	00000013	addi	x0,x0,0	  x0:0x00000000
       28905000	      2889	800025b4	00000013	addi	x0,x0,0	  x0:0x00000000
       28915000	      2890	800025b8	043a9863	bne	x21,x3,80002608	 x21:0xfffffc12  x3:0xbe6f044c
       28925000	      2891	00000000	00000013	addi	x0,x0,0	  x0:0x00000000
       28935000	      2892	80002604	00000013	addi	x0,x0,0	  x0:0x00000000
       28945000	      2893	80002608	403d5d93	srai	x27,x26,0x3	 x26:0x8000a3db x27=0xf000147b
       28955000	      2894	8000260c	76037e13	andi	x28,x6,1888	  x6:0x80009fed x28=0x00000760
       28965000	      2895	80002610	0537e063	bltu	x15,x19,80002650	 x15:0x900005e7 x19:0x00000001
       28975000	      2896	80002614	00319493	slli	x9,x3,0x3	  x3:0xbe6f044c  x9=0xf3782260
       28985000	      2897	80002618	bfc97f93	andi	x31,x18,-1028	 x18:0x00000001 x31=0x00000000
       28995000	      2898	8000261c	00000013	addi	x0,x0,0	  x0:0x00000000
       29005000	      2899	80002620	014967b3	or	x15,x18,x20	 x18:0x00000001 x20:0x38d88806 x15=0x38d88807
       29015000	      2900	80002624	0083a933	slt	x18,x7,x8	  x7:0x00000000  x8:0x1754b554 x18=0x00000001
       29025000	      2901	80002628	0114c663	blt	x9,x17,80002634	  x9:0xf3782260 x17:0x04ff6800
       29035000	      2902	00000000	00000013	addi	x0,x0,0	  x0:0x00000000
       29045000	      2903	80002630	00000013	addi	x0,x0,0	  x0:0x00000000
       29055000	      2904	80002634	a0017213	andi	x4,x2,-1536	  x2:0x80009f20  x4=0x80009a00
       29065000	      2905	80002638	22b9dfb7	lui	x31,0x22b9d	 x31=0x22b9d000
       29075000	      2906	8000263c	407509b3	sub	x19,x10,x7	 x10:0xba934000  x7:0x00000000 x19=0xba934000
       29085000	      2907	80002640	00276fb3	or	x31,x14,x2	 x14:0xefb8d45c  x2:0x80009f20 x31=0xefb8df7c
       29095000	      2908	80002644	8505b393	sltiu	x7,x11,-1968	 x11:0xb8d817c2  x7=0x00000001
       29105000	      2909	80002648	016a5893	srli	x17,x20,0x16	 x20:0x38d88806 x17=0x000000e3
       29115000	      2910	8000264c	003f4b33	xor	x22,x30,x3	 x30:0x80009fc5  x3:0xbe6f044c x22=0x3e6f9b89
       29125000	      2911	80002650	00698b33	add	x22,x19,x6	 x19:0xba934000  x6:0x80009fed x22=0x3a93dfed
       29135000	      2912	80002654	01845db3	srl	x27,x8,x24	  x8:0x1754b554 x24:0x71b1100c x27=0x0001754b
       29145000	      2913	80002658	93e553b7	lui	x7,0x93e55	  x7=0x93e55000
       29155000	      2914	8000265c	416054b3	sra	x9,x0,x22	  x0:0x00000000 x22:0x3a93dfed  x9=0x00000000
       29165000	      2915	80002660	0162aab3	slt	x21,x5,x22	  x5:0x0000000d x22:0x3a93dfed x21=0x00000001
       29175000	      2916	80002664	01355693	srli	x13,x10,0x13	 x10:0xba934000 x13=0x00001752
       29185000	      2917	80002668	022b7863	bgeu	x22,x2,80002698	 x22:0x3a93dfed  x2:0x80009f20
       29195000	      2918	8000266c	40c28cb3	sub	x25,x5,x12	  x5:0x0000000d x12:0x80009fed x25=0x7fff6020
       29205000	      2919	80002670	00503bb3	sltu	x23,x0,x5	  x0:0x00000000  x5:0x0000000d x23=0x00000001
       29215000	      2920	80002674	c380a6b7	lui	x13,0xc380a	 x13=0xc380a000
       29225000	      2921	80002678	01709863	bne	x1,x23,80002688	  x1:0x00000000 x23:0x00000001
       29235000	      2922	00000000	00000013	addi	x0,x0,0	  x0:0x00000000
       29245000	      2923	80002684	00000013	addi	x0,x0,0	  x0:0x00000000
       29255000	      2924	80002688	002494b3	sll	x9,x9,x2	  x9:0x00000000  x2:0x80009f20  x9=0x00000000
       29265000	      2925	8000268c	f4214f97	auipc	x31,0xf4214	 x31=0x74216688
       29275000	      2926	80002690	00ae5a13	srli	x20,x28,0xa	 x28:0x00000760 x20=0x00000001
       29285000	      2927	80002694	03bcd463	bge	x25,x27,800026bc	 x25:0x7fff6020 x27:0x0001754b
       29295000	      2928	00000000	00000013	addi	x0,x0,0	  x0:0x00000000
       29305000	      2929	800026b8	00000013	addi	x0,x0,0	  x0:0x00000000
       29315000	      2930	800026bc	01be35b3	sltu	x11,x28,x27	 x28:0x00000760 x27:0x0001754b x11=0x00000001
       29325000	      2931	800026c0	40a55613	srai	x12,x10,0xa	 x10:0xba934000 x12=0xffeea4d0
       29335000	      2932	800026c4	016080b3	add	x1,x1,x22	  x1:0x00000000 x22:0x3a93dfed  x1=0x3a93dfed
       29345000	      2933	800026c8	0069df33	srl	x30,x19,x6	 x19:0xba934000  x6:0x80009fed x30=0x0005d49a
       29355000	      2934	800026cc	002d6463	bltu	x26,x2,800026d4	 x26:0x8000a3db  x2:0x80009f20
       29365000	      2935	800026d0	c1e22893	slti	x17,x4,-994	  x4:0x80009a00 x17=0x00000001
       29375000	      2936	800026d4	70b50c13	addi	x24,x10,1803	 x10:0xba934000 x24=0xba93470b
       29385000	      2937	800026d8	00000013	addi	x0,x0,0	  x0:0x00000000
       29395000	      2938	800026dc	01877e33	and	x28,x14,x24	 x14:0xefb8d45c x24:0xba93470b x28=0xaa904408
       29405000	      2939	800026e0	014254b3	srl	x9,x4,x20	  x4:0x80009a00 x20:0x00000001  x9=0x40004d00
       29415000	      2940	800026e4	00000013	addi	x0,x0,0	  x0:0x00000000
       29425000	      2941	800026e8	04ce2213	slti	x4,x28,76	 x28:0xaa904408  x4=0x00000001
       29435000	      2942	800026ec	012c1ab3	sll	x21,x24,x18	 x24:0xba93470b x18:0x00000001 x21=0x75268e16
       29445000	      2943	800026f0	48a96b13	ori	x22,x18,1162	 x18:0x00000001 x22=0x0000048b
       29455000	      2944	800026f4	00d30e63	beq	x6,x13,80002710	  x6:0x80009fed x13:0xc380a000
       29465000	      2945	800026f8	34143737	lui	x14,0x34143	 x14=0x34143000
       29475000	      2946	800026fc	030fd863	bge	x31,x16,8000272c	 x31:0x74216688 x16:0x80009fc4
       29485000	      2947	00000000	00000013	addi	x0,x0,0	  x0:0x00000000
       29495000	      2948	80002728	00000013	addi	x0,x0,0	  x0:0x00000000
       29505000	      2949	8000272c	016601b3	add	x3,x12,x22	 x12:0xffeea4d0 x22:0x0000048b  x3=0xffeea95b
       29515000	      2950	80002730	0316da63	bge	x13,x17,80002764	 x13:0xc380a000 x17:0x00000001
       29525000	      2951	80002734	02e09463	bne	x1,x14,8000275c	  x1:0x3a93dfed x14:0x34143000
       29535000	      2952	00000000	00000013	addi	x0,x0,0	  x0:0x00000000
       29545000	      2953	80002758	00000013	addi	x0,x0,0	  x0:0x00000000
       29555000	      2954	8000275c	46791337	lui	x6,0x46791	  x6=0x46791000
       29565000	      2955	80002760	01178c33	add	x24,x15,x17	 x15:0x38d88807 x17:0x00000001 x24=0x38d88808
       29575000	      2956	80002764	038b6663	bltu	x22,x24,80002790	 x22:0x0000048b x24:0x38d88808
       29585000	      2957	00000000	00000013	addi	x0,x0,0	  x0:0x00000000
       29595000	      2958	8000278c	00000013	addi	x0,x0,0	  x0:0x00000000
       29605000	      2959	80002790	00330863	beq	x6,x3,800027a0	  x6:0x46791000  x3:0xffeea95b
       29615000	      2960	80002794	01cad633	srl	x12,x21,x28	 x21:0x75268e16 x28:0xaa904408 x12=0x0075268e
       29625000	      2961	80002798	0070a1b3	slt	x3,x1,x7	  x1:0x3a93dfed  x7:0x93e55000  x3=0x00000000
       29635000	      2962	8000279c	a851ca93	xori	x21,x3,-1403	  x3:0x00000000 x21=0xfffffa85
       29645000	      2963	800027a0	01e19cb3	sll	x25,x3,x30	  x3:0x00000000 x30:0x0005d49a x25=0x00000000
       29655000	      2964	800027a4	01be5d93	srli	x27,x28,0x1b	 x28:0xaa904408 x27=0x00000015
       29665000	      2965	800027a8	000f5c13	srli	x24,x30,0x0	 x30:0x0005d49a x24=0x0005d49a
       29675000	      2966	800027ac	01572933	slt	x18,x14,x21	 x14:0x34143000 x21:0xfffffa85 x18=0x00000000
       29685000	      2967	800027b0	056e8263	beq	x29,x22,800027f4	 x29:0xba934000 x22:0x0000048b
       29695000	      2968	800027b4	05746263	bltu	x8,x23,800027f8	  x8:0x1754b554 x23:0x00000001
       29705000	      2969	800027b8	00dc4533	xor	x10,x24,x13	 x24:0x0005d49a x13:0xc380a000 x10=0xc385749a
       29715000	      2970	800027bc	002d8933	add	x18,x27,x2	 x27:0x00000015  x2:0x80009f20 x18=0x80009f35
       29725000	      2971	800027c0	01c25d33	srl	x26,x4,x28	  x4:0x00000001 x28:0xaa904408 x26=0x00000000
       29735000	      2972	800027c4	fb078d17	auipc	x26,0xfb078	 x26=0x7b07a7c0
       29745000	      2973	800027c8	03ef0263	beq	x30,x30,800027ec	 x30:0x0005d49a x30:0x0005d49a
       29755000	      2974	00000000	00000013	addi	x0,x0,0	  x0:0x00000000
       29765000	      2975	800027e8	00000013	addi	x0,x0,0	  x0:0x00000000
       29775000	      2976	800027ec	a7b74c13	xori	x24,x14,-1413	 x14:0x34143000 x24=0xcbebca7b
       29785000	      2977	800027f0	015c2333	slt	x6,x24,x21	 x24:0xcbebca7b x21:0xfffffa85  x6=0x00000001
       29795000	      2978	800027f4	00dfa8b3	slt	x17,x31,x13	 x31:0x74216688 x13:0xc380a000 x17=0x00000000
       29805000	      2979	800027f8	01a10533	add	x10,x2,x26	  x2:0x80009f20 x26:0x7b07a7c0 x10=0xfb0846e0
       29815000	      2980	800027fc	1f16eb93	ori	x23,x13,497	 x13:0xc380a000 x23=0xc380a1f1
       29825000	      2981	80002800	01735c33	srl	x24,x6,x23	  x6:0x00000001 x23:0xc380a1f1 x24=0x00000000
       29835000	      2982	80002804	41ec5db3	sra	x27,x24,x30	 x24:0x00000000 x30:0x0005d49a x27=0x00000000
       29845000	      2983	80002808	ebf9e393	ori	x7,x19,-321	 x19:0xba934000  x7=0xfffffebf
       29855000	      2984	8000280c	00689d93	slli	x27,x17,0x6	 x17:0x00000000 x27=0x00000000
       29865000	      2985	80002810	0097cdb3	xor	x27,x15,x9	 x15:0x38d88807  x9:0x40004d00 x27=0x78d8c507
       29875000	      2986	80002814	08b24e17	auipc	x28,0x8b24	 x28=0x88b26810
       29885000	      2987	80002818	40a40eb3	sub	x29,x8,x10	  x8:0x1754b554 x10:0xfb0846e0 x29=0x1c4c6e74
       29895000	      2988	8000281c	7f033513	sltiu	x10,x6,2032	  x6:0x00000001 x10=0x00000001
       29905000	      2989	80002820	01c48033	add	x0,x9,x28	  x9:0x40004d00 x28:0x88b26810
       29915000	      2990	80002824	011e11b3	sll	x3,x28,x17	 x28:0x88b26810 x17:0x00000000  x3=0x88b26810
       29925000	      2991	80002828	41b2d233	sra	x4,x5,x27	  x5:0x0000000d x27:0x78d8c507  x4=0x00000000
       29935000	      2992	8000282c	002646b3	xor	x13,x12,x2	 x12:0x0075268e  x2:0x80009f20 x13=0x8075b9ae
       29945000	      2993	80002830	0060f233	and	x4,x1,x6	  x1:0x3a93dfed  x6:0x00000001  x4=0x00000001
       29955000	      2994	80002834	00c38b33	add	x22,x7,x12	  x7:0xfffffebf x12:0x0075268e x22=0x0075254d
       29965000	      2995	80002838	40ec51b3	sra	x3,x24,x14	 x24:0x00000000 x14:0x34143000  x3=0x00000000
       29975000	      2996	8000283c	01697f33	and	x30,x18,x22	 x18:0x80009f35 x22:0x0075254d x30=0x00000505
       29985000	      2997	80002840	008c9933	sll	x18,x25,x8	 x25:0x00000000  x8:0x1754b554 x18=0x00000000
       29995000	      2998	80002844	364aa237	lui	x4,0x364aa	  x4=0x364aa000
       30005000	      2999	80002848	0272c463	blt	x5,x7,80002870	  x5:0x0000000d  x7:0xfffffebf
       30015000	      3000	8000284c	00fb2cb3	slt	x25,x22,x15	 x22:0x0075254d x15:0x38d88807 x25=0x00000001
       30025000	      3001	80002850	013e9593	slli	x11,x29,0x13	 x29:0x1c4c6e74 x11=0x73a00000
       30035000	      3002	80002854	00000013	addi	x0,x0,0	  x0:0x00000000
       30045000	      3003	80002858	d4e3bb13	sltiu	x22,x7,-690	  x7:0xfffffebf x22=0x00000000
       30055000	      3004	8000285c	e1a02c17	auipc	x24,0xe1a02	 x24=0x61a04858
       30065000	      3005	80002860	04c1c663	blt	x3,x12,800028ac	  x3:0x00000000 x12:0x0075268e
       30075000	      3006	00000000	00000013	addi	x0,x0,0	  x0:0x00000000
       30085000	      3007	800028a8	00000013	addi	x0,x0,0	  x0:0x00000000
       30095000	      3008	800028ac	014c19b3	sll	x19,x24,x20	 x24:0x61a04858 x20:0x00000001 x19=0xc34090b0
       30105000	      3009	800028b0	cd16f213	andi	x4,x13,-815	 x13:0x8075b9ae  x4=0x8075b880
       30115000	      3010	800028b4	6433a993	slti	x19,x7,1603	  x7:0xfffffebf x19=0x00000001
       30125000	      3011	800028b8	b3f7b693	sltiu	x13,x15,-1217	 x15:0x38d88807 x13=0x00000001
       30135000	      3012	800028bc	40c6d733	sra	x14,x13,x12	 x13:0x00000001 x12:0x0075268e x14=0x00000000
       30145000	      3013	800028c0	b4f83b13	sltiu	x22,x16,-1201	 x16:0x80009fc4 x22=0x00000001
       30155000	      3014	800028c4	00875333	srl	x6,x14,x8	 x14:0x00000000  x8:0x1754b554  x6=0x00000000
       30165000	      3015	800028c8	00fd8e63	beq	x27,x15,800028e4	 x27:0x78d8c507 x15:0x38d88807
       30175000	      3016	800028cc	bd0a3e13	sltiu	x28,x20,-1072	 x20:0x00000001 x28=0x00000001
       30185000	      3017	800028d0	01a558b3	srl	x17,x10,x26	 x10:0x00000001 x26:0x7b07a7c0 x17=0x00000001
       30195000	      3018	800028d4	410dd393	srai	x7,x27,0x10	 x27:0x78d8c507  x7=0x000078d8
       30205000	      3019	800028d8	d5e1f413	andi	x8,x3,-674	  x3:0x00000000  x8=0x00000000
       30215000	      3020	800028dc	40d858b3	sra	x17,x16,x13	 x16:0x80009fc4 x13:0x00000001 x17=0xc0004fe2
       30225000	      3021	800028e0	801e4913	xori	x18,x28,-2047	 x28:0x00000001 x18=0xfffff800
       30235000	      3022	800028e4	01afe3b3	or	x7,x31,x26	 x31:0x74216688 x26:0x7b07a7c0  x7=0x7f27e7c8
       30245000	      3023	800028e8	03fe9263	bne	x29,x31,8000290c	 x29:0x1c4c6e74 x31:0x74216688
       30255000	      3024	00000000	00000013	addi	x0,x0,0	  x0:0x00000000
       30265000	      3025	80002908	00000013	addi	x0,x0,0	  x0:0x00000000
       30275000	      3026	8000290c	00000013	addi	x0,x0,0	  x0:0x00000000
       30285000	      3027	80002910	01010b33	add	x22,x2,x16	  x2:0x80009f20 x16:0x80009fc4 x22=0x00013ee4
       30295000	      3028	80002914	002b97b3	sll	x15,x23,x2	 x23:0xc380a1f1  x2:0x80009f20 x15=0xc380a1f1
       30305000	      3029	80002918	01fc4033	xor	x0,x24,x31	 x24:0x61a04858 x31:0x74216688
       30315000	      3030	8000291c	405c5493	srai	x9,x24,0x5	 x24:0x61a04858  x9=0x030d0242
       30325000	      3031	80002920	ce4b2713	slti	x14,x22,-796	 x22:0x00013ee4 x14=0x00000000
       30335000	      3032	80002924	00000013	addi	x0,x0,0	  x0:0x00000000
       30345000	      3033	80002928	7d3ce713	ori	x14,x25,2003	 x25:0x00000001 x14=0x000007d3
       30355000	      3034	8000292c	003bcfb3	xor	x31,x23,x3	 x23:0xc380a1f1  x3:0x00000000 x31=0xc380a1f1
       30365000	      3035	80002930	00e25c63	bge	x4,x14,80002948	  x4:0x8075b880 x14:0x000007d3
       30375000	      3036	80002934	00000013	addi	x0,x0,0	  x0:0x00000000
       30385000	      3037	80002938	00e9c663	blt	x19,x14,80002944	 x19:0x00000001 x14:0x000007d3
       30395000	      3038	00000000	00000013	addi	x0,x0,0	  x0:0x00000000
       30405000	      3039	80002940	00000013	addi	x0,x0,0	  x0:0x00000000
       30415000	      3040	80002944	418d5e33	sra	x28,x26,x24	 x26:0x7b07a7c0 x24:0x61a04858 x28=0x0000007b
       30425000	      3041	80002948	4066dd33	sra	x26,x13,x6	 x13:0x00000001  x6:0x00000000 x26=0x00000001
       30435000	      3042	8000294c	416b04b3	sub	x9,x22,x22	 x22:0x00013ee4 x22:0x00013ee4  x9=0x00000000
       30445000	      3043	80002950	4025d0b3	sra	x1,x11,x2	 x11:0x73a00000  x2:0x80009f20  x1=0x73a00000
       30455000	      3044	80002954	27b351b7	lui	x3,0x27b35	  x3=0x27b35000
       30465000	      3045	80002958	04751063	bne	x10,x7,80002998	 x10:0x00000001  x7:0x7f27e7c8
       30475000	      3046	00000000	00000013	addi	x0,x0,0	  x0:0x00000000
       30485000	      3047	80002994	00000013	addi	x0,x0,0	  x0:0x00000000
       30495000	      3048	80002998	41a35c93	srai	x25,x6,0x1a	  x6:0x00000000 x25=0x00000000
       30505000	      3049	8000299c	0333e463	bltu	x7,x19,800029c4	  x7:0x7f27e7c8 x19:0x00000001
       30515000	      3050	800029a0	033de063	bltu	x27,x19,800029c0	 x27:0x78d8c507 x19:0x00000001
       30525000	      3051	800029a4	037dc863	blt	x27,x23,800029d4	 x27:0x78d8c507 x23:0xc380a1f1
       30535000	      3052	800029a8	03c90663	beq	x18,x28,800029d4	 x18:0xfffff800 x28:0x0000007b
       30545000	      3053	800029ac	00811e63	bne	x2,x8,800029c8	  x2:0x80009f20  x8:0x00000000
       30555000	      3054	00000000	00000013	addi	x0,x0,0	  x0:0x00000000
       30565000	      3055	800029c4	00000013	addi	x0,x0,0	  x0:0x00000000
       30575000	      3056	800029c8	004d0b33	add	x22,x26,x4	 x26:0x00000001  x4:0x8075b880 x22=0x8075b881
       30585000	      3057	800029cc	00e0a233	slt	x4,x1,x14	  x1:0x73a00000 x14:0x000007d3  x4=0x00000000
       30595000	      3058	800029d0	0116de63	bge	x13,x17,800029ec	 x13:0x00000001 x17:0xc0004fe2
       30605000	      3059	00000000	00000013	addi	x0,x0,0	  x0:0x00000000
       30615000	      3060	800029e8	00000013	addi	x0,x0,0	  x0:0x00000000
       30625000	      3061	800029ec	f7899eb7	lui	x29,0xf7899	 x29=0xf7899000
       30635000	      3062	800029f0	0906fc63	bgeu	x13,x16,80002a88	 x13:0x00000001 x16:0x80009fc4
       30645000	      3063	800029f4	07c67c63	bgeu	x12,x28,80002a6c	 x12:0x0075268e x28:0x0000007b
       30655000	      3064	00000000	00000013	addi	x0,x0,0	  x0:0x00000000
       30665000	      3065	80002a68	00000013	addi	x0,x0,0	  x0:0x00000000
       30675000	      3066	80002a6c	00d0db93	srli	x23,x1,0xd	  x1:0x73a00000 x23=0x00039d00
       30685000	      3067	80002a70	416189b3	sub	x19,x3,x22	  x3:0x27b35000 x22:0x8075b881 x19=0xa73d977f
       30695000	      3068	80002a74	01053cb3	sltu	x25,x10,x16	 x10:0x00000001 x16:0x80009fc4 x25=0x00000001
       30705000	      3069	80002a78	034cd063	bge	x25,x20,80002a98	 x25:0x00000001 x20:0x00000001
       30715000	      3070	00000000	00000013	addi	x0,x0,0	  x0:0x00000000
       30725000	      3071	80002a94	00000013	addi	x0,x0,0	  x0:0x00000000
       30735000	      3072	80002a98	01a2f633	and	x12,x5,x26	  x5:0x0000000d x26:0x00000001 x12=0x00000001
       30745000	      3073	80002a9c	38566f13	ori	x30,x12,901	 x12:0x00000001 x30=0x00000385
       30755000	      3074	80002aa0	5875ba93	sltiu	x21,x11,1415	 x11:0x73a00000 x21=0x00000000
       30765000	      3075	80002aa4	011b03b3	add	x7,x22,x17	 x22:0x8075b881 x17:0xc0004fe2  x7=0x40760863
       30775000	      3076	80002aa8	012faab3	slt	x21,x31,x18	 x31:0xc380a1f1 x18:0xfffff800 x21=0x00000001
       30785000	      3077	80002aac	00cd84b3	add	x9,x27,x12	 x27:0x78d8c507 x12:0x00000001  x9=0x78d8c508
       30795000	      3078	80002ab0	40a20fb3	sub	x31,x4,x10	  x4:0x00000000 x10:0x00000001 x31=0xffffffff
       30805000	      3079	80002ab4	009b97b3	sll	x15,x23,x9	 x23:0x00039d00  x9:0x78d8c508 x15=0x039d0000
       30815000	      3080	80002ab8	0056c263	blt	x13,x5,80002abc	 x13:0x00000001  x5:0x0000000d
       30825000	      3081	00000000	00000013	addi	x0,x0,0	  x0:0x00000000
       30835000	      3082	80002ab8	00000013	addi	x0,x0,0	  x0:0x00000000
       30845000	      3083	80002abc	8f9afc93	andi	x25,x21,-1799	 x21:0x00000001 x25=0x00000001
       30855000	      3084	80002ac0	00220433	add	x8,x4,x2	  x4:0x00000000  x2:0x80009f20  x8=0x80009f20
       30865000	      3085	80002ac4	00000013	addi	x0,x0,0	  x0:0x00000000
       30875000	      3086	80002ac8	01c85c63	bge	x16,x28,80002ae0	 x16:0x80009fc4 x28:0x0000007b
       30885000	      3087	80002acc	011b78b3	and	x17,x22,x17	 x22:0x8075b881 x17:0xc0004fe2 x17=0x80000880
       30895000	      3088	80002ad0	00a75e13	srli	x28,x14,0xa	 x14:0x000007d3 x28=0x00000001
       30905000	      3089	80002ad4	dee6e213	ori	x4,x13,-530	 x13:0x00000001  x4=0xfffffdef
       30915000	      3090	80002ad8	f8dc6f17	auipc	x30,0xf8dc6	 x30=0x78dc8ad4
       30925000	      3091	80002adc	8e6b8537	lui	x10,0x8e6b8	 x10=0x8e6b8000
       30935000	      3092	80002ae0	00541933	sll	x18,x8,x5	  x8:0x80009f20  x5:0x0000000d x18=0x13e40000
       30945000	      3093	80002ae4	04c64663	blt	x12,x12,80002b30	 x12:0x00000001 x12:0x00000001
       30955000	      3094	80002ae8	01dc54b3	srl	x9,x24,x29	 x24:0x61a04858 x29:0xf7899000  x9=0x61a04858
       30965000	      3095	80002aec	0104d733	srl	x14,x9,x16	  x9:0x61a04858 x16:0x80009fc4 x14=0x061a0485
       30975000	      3096	80002af0	41560ab3	sub	x21,x12,x21	 x12:0x00000001 x21:0x00000001 x21=0x00000000
       30985000	      3097	80002af4	00999093	slli	x1,x19,0x9	 x19:0xa73d977f  x1=0x7b2efe00
       30995000	      3098	80002af8	fedd04b7	lui	x9,0xfedd0	  x9=0xfedd0000
       31005000	      3099	80002afc	23667093	andi	x1,x12,566	 x12:0x00000001  x1=0x00000000
       31015000	      3100	80002b00	2c8f7917	auipc	x18,0x2c8f7	 x18=0xac8f9afc
       31025000	      3101	80002b04	031b4863	blt	x22,x17,80002b34	 x22:0x8075b881 x17:0x80000880
       31035000	      3102	80002b08	637ea613	slti	x12,x29,1591	 x29:0xf7899000 x12=0x00000001
       31045000	      3103	80002b0c	00a01db3	sll	x27,x0,x10	  x0:0x00000000 x10:0x8e6b8000 x27=0x00000000
       31055000	      3104	80002b10	00000013	addi	x0,x0,0	  x0:0x00000000
       31065000	      3105	80002b14	01b4bc33	sltu	x24,x9,x27	  x9:0xfedd0000 x27:0x00000000 x24=0x00000000
       31075000	      3106	80002b18	014eafb3	slt	x31,x29,x20	 x29:0xf7899000 x20:0x00000001 x31=0x00000001
       31085000	      3107	80002b1c	014ff463	bgeu	x31,x20,80002b24	 x31:0x00000001 x20:0x00000001
       31095000	      3108	00000000	00000013	addi	x0,x0,0	  x0:0x00000000
       31105000	      3109	80002b20	00000013	addi	x0,x0,0	  x0:0x00000000
       31115000	      3110	80002b24	49cfa393	slti	x7,x31,1180	 x31:0x00000001  x7=0x00000001
       31125000	      3111	80002b28	40e6d933	sra	x18,x13,x14	 x13:0x00000001 x14:0x061a0485 x18=0x00000000
       31135000	      3112	80002b2c	400558b3	sra	x17,x10,x0	 x10:0x8e6b8000  x0:0x00000000 x17=0x8e6b8000
       31145000	      3113	80002b30	00000013	addi	x0,x0,0	  x0:0x00000000
       31155000	      3114	80002b34	bca7fa13	andi	x20,x15,-1078	 x15:0x039d0000 x20=0x039d0000
       31165000	      3115	80002b38	04171063	bne	x14,x1,80002b78	 x14:0x061a0485  x1:0x00000000
       31175000	      3116	00000000	00000013	addi	x0,x0,0	  x0:0x00000000
       31185000	      3117	80002b74	00000013	addi	x0,x0,0	  x0:0x00000000
       31195000	      3118	80002b78	012ddfb3	srl	x31,x27,x18	 x27:0x00000000 x18:0x00000000 x31=0x00000000
       31205000	      3119	80002b7c	416d88b3	sub	x17,x27,x22	 x27:0x00000000 x22:0x8075b881 x17=0x7f8a477f
       31215000	      3120	80002b80	018c4f33	xor	x30,x24,x24	 x24:0x00000000 x24:0x00000000 x30=0x00000000
       31225000	      3121	80002b84	016b9593	slli	x11,x23,0x16	 x23:0x00039d00 x11=0x40000000
       31235000	      3122	80002b88	89ea4d13	xori	x26,x20,-1890	 x20:0x039d0000 x26=0xfc62f89e
       31245000	      3123	80002b8c	1ab73c93	sltiu	x25,x14,427	 x14:0x061a0485 x25=0x00000000
       31255000	      3124	80002b90	00cf4b93	xori	x23,x30,12	 x30:0x00000000 x23=0x0000000c
       31265000	      3125	80002b94	0169fb33	and	x22,x19,x22	 x19:0xa73d977f x22:0x8075b881 x22=0x80359001
       31275000	      3126	80002b98	007b3f33	sltu	x30,x22,x7	 x22:0x80359001  x7:0x00000001 x30=0x00000000
       31285000	      3127	80002b9c	01871593	slli	x11,x14,0x18	 x14:0x061a0485 x11=0x85000000
       31295000	      3128	80002ba0	ca8acf17	auipc	x30,0xca8ac	 x30=0x4a8aeb9c
       31305000	      3129	80002ba4	520bb093	sltiu	x1,x23,1312	 x23:0x0000000c  x1=0x00000001
       31315000	      3130	80002ba8	00000013	addi	x0,x0,0	  x0:0x00000000
       31325000	      3131	80002bac	011616b3	sll	x13,x12,x17	 x12:0x00000001 x17:0x7f8a477f x13=0x80000000
       31335000	      3132	80002bb0	01c581b3	add	x3,x11,x28	 x11:0x85000000 x28:0x00000001  x3=0x85000001
       31345000	      3133	80002bb4	010474b3	and	x9,x8,x16	  x8:0x80009f20 x16:0x80009fc4  x9=0x80009f00
       31355000	      3134	80002bb8	01cb43b3	xor	x7,x22,x28	 x22:0x80359001 x28:0x00000001  x7=0x80359000
       31365000	      3135	80002bbc	414b5593	srai	x11,x22,0x14	 x22:0x80359001 x11=0xfffff803
       31375000	      3136	80002bc0	00eef663	bgeu	x29,x14,80002bcc	 x29:0xf7899000 x14:0x061a0485
       31385000	      3137	00000000	00000013	addi	x0,x0,0	  x0:0x00000000
       31395000	      3138	80002bc8	00000013	addi	x0,x0,0	  x0:0x00000000
       31405000	      3139	80002bcc	0105bb33	sltu	x22,x11,x16	 x11:0xfffff803 x16:0x80009fc4 x22=0x00000000
       31415000	      3140	80002bd0	92e47b13	andi	x22,x8,-1746	  x8:0x80009f20 x22=0x80009920
       31425000	      3141	80002bd4	01f51333	sll	x6,x10,x31	 x10:0x8e6b8000 x31:0x00000000  x6=0x8e6b8000
       31435000	      3142	80002bd8	02c5f663	bgeu	x11,x12,80002c04	 x11:0xfffff803 x12:0x00000001
       31445000	      3143	00000000	00000013	addi	x0,x0,0	  x0:0x00000000
       31455000	      3144	80002c00	00000013	addi	x0,x0,0	  x0:0x00000000
       31465000	      3145	80002c04	00611b13	slli	x22,x2,0x6	  x2:0x80009f20 x22=0x0027c800
       31475000	      3146	80002c08	00000013	addi	x0,x0,0	  x0:0x00000000
       31485000	      3147	80002c0c	1e5a0c37	lui	x24,0x1e5a0	 x24=0x1e5a0000
       31495000	      3148	80002c10	009e00b3	add	x1,x28,x9	 x28:0x00000001  x9:0x80009f00  x1=0x80009f01
       31505000	      3149	80002c14	4e6c3593	sltiu	x11,x24,1254	 x24:0x1e5a0000 x11=0x00000000
       31515000	      3150	80002c18	008c7cb3	and	x25,x24,x8	 x24:0x1e5a0000  x8:0x80009f20 x25=0x00000000
       31525000	      3151	80002c1c	93c5bc13	sltiu	x24,x11,-1732	 x11:0x00000000 x24=0x00000001
       31535000	      3152	80002c20	a1f44893	xori	x17,x8,-1505	  x8:0x80009f20 x17=0x7fff653f
       31545000	      3153	80002c24	01055d13	srli	x26,x10,0x10	 x10:0x8e6b8000 x26=0x00008e6b
       31555000	      3154	80002c28	004ada93	srli	x21,x21,0x4	 x21:0x00000000 x21=0x00000000
       31565000	      3155	80002c2c	5648d537	lui	x10,0x5648d	 x10=0x5648d000
       31575000	      3156	80002c30	0018a233	slt	x4,x17,x1	 x17:0x7fff653f  x1:0x80009f01  x4=0x00000000
       31585000	      3157	80002c34	39c23f13	sltiu	x30,x4,924	  x4:0x00000000 x30=0x00000001
       31595000	      3158	80002c38	16942513	slti	x10,x8,361	  x8:0x80009f20 x10=0x00000001
       31605000	      3159	80002c3c	0188d333	srl	x6,x17,x24	 x17:0x7fff653f x24:0x00000001  x6=0x3fffb29f
       31615000	      3160	80002c40	00d14863	blt	x2,x13,80002c50	  x2:0x80009f20 x13:0x80000000
       31625000	      3161	80002c44	f0d7c493	xori	x9,x15,-243	 x15:0x039d0000  x9=0xfc62ff0d
       31635000	      3162	80002c48	02560463	beq	x12,x5,80002c70	 x12:0x00000001  x5:0x0000000d
       31645000	      3163	80002c4c	0027fc33	and	x24,x15,x2	 x15:0x039d0000  x2:0x80009f20 x24=0x00000000
       31655000	      3164	80002c50	41055033	sra	x0,x10,x16	 x10:0x00000001 x16:0x80009fc4
       31665000	      3165	80002c54	40895713	srai	x14,x18,0x8	 x18:0x00000000 x14=0x00000000
       31675000	      3166	80002c58	00e35b33	srl	x22,x6,x14	  x6:0x3fffb29f x14:0x00000000 x22=0x3fffb29f
       31685000	      3167	80002c5c	02c0c463	blt	x1,x12,80002c84	  x1:0x80009f01 x12:0x00000001
       31695000	      3168	00000000	00000013	addi	x0,x0,0	  x0:0x00000000
       31705000	      3169	80002c80	00000013	addi	x0,x0,0	  x0:0x00000000
       31715000	      3170	80002c84	003360b3	or	x1,x6,x3	  x6:0x3fffb29f  x3:0x85000001  x1=0xbfffb29f
       31725000	      3171	80002c88	03c38a63	beq	x7,x28,80002cbc	  x7:0x80359000 x28:0x00000001
       31735000	      3172	80002c8c	04e0f863	bgeu	x1,x14,80002cdc	  x1:0xbfffb29f x14:0x00000000
       31745000	      3173	00000000	00000013	addi	x0,x0,0	  x0:0x00000000
       31755000	      3174	80002cd8	00000013	addi	x0,x0,0	  x0:0x00000000
       31765000	      3175	80002cdc	01713533	sltu	x10,x2,x23	  x2:0x80009f20 x23:0x0000000c x10=0x00000000
       31775000	      3176	80002ce0	00000013	addi	x0,x0,0	  x0:0x00000000
       31785000	      3177	80002ce4	016f8d33	add	x26,x31,x22	 x31:0x00000000 x22:0x3fffb29f x26=0x3fffb29f
       31795000	      3178	80002ce8	e76e8793	addi	x15,x29,-394	 x29:0xf7899000 x15=0xf7898e76
       31805000	      3179	80002cec	961f4a93	xori	x21,x30,-1695	 x30:0x00000001 x21=0xfffff960
       31815000	      3180	80002cf0	2fc34713	xori	x14,x6,764	  x6:0x3fffb29f x14=0x3fffb063
       31825000	      3181	80002cf4	0113de63	bge	x7,x17,80002d10	  x7:0x80359000 x17:0x7fff653f
       31835000	      3182	80002cf8	01fbec63	bltu	x23,x31,80002d10	 x23:0x0000000c x31:0x00000000
       31845000	      3183	80002cfc	418cdc93	srai	x25,x25,0x18	 x25:0x00000000 x25=0x00000000
       31855000	      3184	80002d00	01877eb3	and	x29,x14,x24	 x14:0x3fffb063 x24:0x00000000 x29=0x00000000
       31865000	      3185	80002d04	005337b3	sltu	x15,x6,x5	  x6:0x3fffb29f  x5:0x0000000d x15=0x00000000
       31875000	      3186	80002d08	01dab8b3	sltu	x17,x21,x29	 x21:0xfffff960 x29:0x00000000 x17=0x00000000
       31885000	      3187	80002d0c	00f74913	xori	x18,x14,15	 x14:0x3fffb063 x18=0x3fffb06c
       31895000	      3188	80002d10	03e29863	bne	x5,x30,80002d40	  x5:0x0000000d x30:0x00000001
       31905000	      3189	00000000	00000013	addi	x0,x0,0	  x0:0x00000000
       31915000	      3190	80002d3c	00000013	addi	x0,x0,0	  x0:0x00000000
       31925000	      3191	80002d40	01d7c263	blt	x15,x29,80002d44	 x15:0x00000000 x29:0x00000000
       31935000	      3192	80002d44	012edf93	srli	x31,x29,0x12	 x29:0x00000000 x31=0x00000000
       31945000	      3193	80002d48	00e845b3	xor	x11,x16,x14	 x16:0x80009fc4 x14:0x3fffb063 x11=0xbfff2fa7
       31955000	      3194	80002d4c	03364863	blt	x12,x19,80002d7c	 x12:0x00000001 x19:0xa73d977f
       31965000	      3195	80002d50	028f5663	bge	x30,x8,80002d7c	 x30:0x00000001  x8:0x80009f20
       31975000	      3196	00000000	00000013	addi	x0,x0,0	  x0:0x00000000
       31985000	      3197	80002d78	00000013	addi	x0,x0,0	  x0:0x00000000
       31995000	      3198	80002d7c	40585b93	srai	x23,x16,0x5	 x16:0x80009fc4 x23=0xfc0004fe
       32005000	      3199	80002d80	768f4b13	xori	x22,x30,1896	 x30:0x00000001 x22=0x00000769
       32015000	      3200	80002d84	f0ab3993	sltiu	x19,x22,-246	 x22:0x00000769 x19=0x00000001
       32025000	      3201	80002d88	40d8d193	srai	x3,x17,0xd	 x17:0x00000000  x3=0x00000000
       32035000	      3202	80002d8c	00071663	bne	x14,x0,80002d98	 x14:0x3fffb063  x0:0x00000000
       32045000	      3203	00000000	00000013	addi	x0,x0,0	  x0:0x00000000
       32055000	      3204	80002d94	00000013	addi	x0,x0,0	  x0:0x00000000
       32065000	      3205	80002d98	016a9013	slli	x0,x21,0x16	 x21:0xfffff960
       32075000	      3206	80002d9c	01ded7b3	srl	x15,x29,x29	 x29:0x00000000 x29:0x00000000 x15=0x00000000
       32085000	      3207	80002da0	0b764e63	blt	x12,x23,80002e5c	 x12:0x00000001 x23:0xfc0004fe
       32095000	      3208	80002da4	09fc1863	bne	x24,x31,80002e34	 x24:0x00000000 x31:0x00000000
       32105000	      3209	80002da8	00000013	addi	x0,x0,0	  x0:0x00000000
       32115000	      3210	80002dac	00a00713	addi	x14,x0,10	  x0:0x00000000 x14=0x0000000a
       32125000	      3211	80002db0	a63f8193	addi	x3,x31,-1437	 x31:0x00000000  x3=0xfffffa63
       32135000	      3212	80002db4	00209f13	slli	x30,x1,0x2	  x1:0xbfffb29f x30=0xfffeca7c
       32145000	      3213	80002db8	9dbcb993	sltiu	x19,x25,-1573	 x25:0x00000000 x19=0x00000001
       32155000	      3214	80002dbc	01f9f0b3	and	x1,x19,x31	 x19:0x00000001 x31:0x00000000  x1=0x00000000
       32165000	      3215	80002dc0	009c5eb3	srl	x29,x24,x9	 x24:0x00000000  x9:0xfc62ff0d x29=0x00000000
       32175000	      3216	80002dc4	2014b513	sltiu	x10,x9,513	  x9:0xfc62ff0d x10=0x00000000
       32185000	      3217	80002dc8	630cb313	sltiu	x6,x25,1584	 x25:0x00000000  x6=0x00000001
       32195000	      3218	80002dcc	ffc00e13	addi	x28,x0,-4	  x0:0x00000000 x28=0xfffffffc
       32205000	      3219	80002dd0	002a2ab3	slt	x21,x20,x2	 x20:0x039d0000  x2:0x80009f20 x21=0x00000000
       32215000	      3220	80002dd4	00b465b3	or	x11,x8,x11	  x8:0x80009f20 x11:0xbfff2fa7 x11=0xbfffbfa7
       32225000	      3221	80002dd8	00558533	add	x10,x11,x5	 x11:0xbfffbfa7  x5:0x0000000d x10=0xbfffbfb4
       32235000	      3222	80002ddc	1507b337	lui	x6,0x1507b	  x6=0x1507b000
       32245000	      3223	80002de0	00000013	addi	x0,x0,0	  x0:0x00000000
       32255000	      3224	80002de4	5b0ec697	auipc	x13,0x5b0ec	 x13=0xdb0eede0
       32265000	      3225	80002de8	4075d9b3	sra	x19,x11,x7	 x11:0xbfffbfa7  x7:0x80359000 x19=0xbfffbfa7
       32275000	      3226	80002dec	269aec93	ori	x25,x21,617	 x21:0x00000000 x25=0x00000269
       32285000	      3227	80002df0	0176d193	srli	x3,x13,0x17	 x13:0xdb0eede0  x3=0x000001b6
       32295000	      3228	80002df4	019134b3	sltu	x9,x2,x25	  x2:0x80009f20 x25:0x00000269  x9=0x00000000
       32305000	      3229	80002df8	01f2b933	sltu	x18,x5,x31	  x5:0x0000000d x31:0x00000000 x18=0x00000000
       32315000	      3230	80002dfc	00c32233	slt	x4,x6,x12	  x6:0x1507b000 x12:0x00000001  x4=0x00000000
       32325000	      3231	80002e00	00a51593	slli	x11,x10,0xa	 x10:0xbfffbfb4 x11=0xfefed000
       32335000	      3232	80002e04	ff970713	addi	x14,x14,-7	 x14:0x0000000a x14=0x00000003
       32345000	      3233	80002e08	edad7897	auipc	x17,0xedad7	 x17=0x6dad9e04
       32355000	      3234	80002e0c	09f8ad13	slti	x26,x17,159	 x17:0x6dad9e04 x26=0x00000000
       32365000	      3235	80002e10	01a91933	sll	x18,x18,x26	 x18:0x00000000 x26:0x00000000 x18=0x00000000
       32375000	      3236	80002e14	fba0ca93	xori	x21,x1,-70	  x1:0x00000000 x21=0xffffffba
       32385000	      3237	80002e18	01015033	srl	x0,x2,x16	  x2:0x80009f20 x16:0x80009fc4
       32395000	      3238	80002e1c	fdc75ee3	bge	x14,x28,80002df8	 x14:0x00000003 x28:0xfffffffc
       32405000	      3239	00000000	00000013	addi	x0,x0,0	  x0:0x00000000
       32415000	      3240	80002df4	00000013	addi	x0,x0,0	  x0:0x00000000
       32425000	      3241	80002df8	01f2b933	sltu	x18,x5,x31	  x5:0x0000000d x31:0x00000000 x18=0x00000000
       32435000	      3242	80002dfc	00c32233	slt	x4,x6,x12	  x6:0x1507b000 x12:0x00000001  x4=0x00000000
       32445000	      3243	80002e00	00a51593	slli	x11,x10,0xa	 x10:0xbfffbfb4 x11=0xfefed000
       32455000	      3244	80002e04	ff970713	addi	x14,x14,-7	 x14:0x00000003 x14=0xfffffffc
       32465000	      3245	80002e08	edad7897	auipc	x17,0xedad7	 x17=0x6dad9e04
       32475000	      3246	80002e0c	09f8ad13	slti	x26,x17,159	 x17:0x6dad9e04 x26=0x00000000
       32485000	      3247	80002e10	01a91933	sll	x18,x18,x26	 x18:0x00000000 x26:0x00000000 x18=0x00000000
       32495000	      3248	80002e14	fba0ca93	xori	x21,x1,-70	  x1:0x00000000 x21=0xffffffba
       32505000	      3249	80002e18	01015033	srl	x0,x2,x16	  x2:0x80009f20 x16:0x80009fc4
       32515000	      3250	80002e1c	fdc75ee3	bge	x14,x28,80002df8	 x14:0xfffffffc x28:0xfffffffc
       32525000	      3251	00000000	00000013	addi	x0,x0,0	  x0:0x00000000
       32535000	      3252	80002df4	00000013	addi	x0,x0,0	  x0:0x00000000
       32545000	      3253	80002df8	01f2b933	sltu	x18,x5,x31	  x5:0x0000000d x31:0x00000000 x18=0x00000000
       32555000	      3254	80002dfc	00c32233	slt	x4,x6,x12	  x6:0x1507b000 x12:0x00000001  x4=0x00000000
       32565000	      3255	80002e00	00a51593	slli	x11,x10,0xa	 x10:0xbfffbfb4 x11=0xfefed000
       32575000	      3256	80002e04	ff970713	addi	x14,x14,-7	 x14:0xfffffffc x14=0xfffffff5
       32585000	      3257	80002e08	edad7897	auipc	x17,0xedad7	 x17=0x6dad9e04
       32595000	      3258	80002e0c	09f8ad13	slti	x26,x17,159	 x17:0x6dad9e04 x26=0x00000000
       32605000	      3259	80002e10	01a91933	sll	x18,x18,x26	 x18:0x00000000 x26:0x00000000 x18=0x00000000
       32615000	      3260	80002e14	fba0ca93	xori	x21,x1,-70	  x1:0x00000000 x21=0xffffffba
       32625000	      3261	80002e18	01015033	srl	x0,x2,x16	  x2:0x80009f20 x16:0x80009fc4
       32635000	      3262	80002e1c	fdc75ee3	bge	x14,x28,80002df8	 x14:0xfffffff5 x28:0xfffffffc
       32645000	      3263	80002e20	41dc5613	srai	x12,x24,0x1d	 x24:0x00000000 x12=0x00000000
       32655000	      3264	80002e24	408e5593	srai	x11,x28,0x8	 x28:0xfffffffc x11=0xffffffff
       32665000	      3265	80002e28	02707663	bgeu	x0,x7,80002e54	  x0:0x00000000  x7:0x80359000
       32675000	      3266	80002e2c	01030733	add	x14,x6,x16	  x6:0x1507b000 x16:0x80009fc4 x14=0x95084fc4
       32685000	      3267	80002e30	046d6063	bltu	x26,x6,80002e70	 x26:0x00000000  x6:0x1507b000
       32695000	      3268	00000000	00000013	addi	x0,x0,0	  x0:0x00000000
       32705000	      3269	80002e6c	00000013	addi	x0,x0,0	  x0:0x00000000
       32715000	      3270	80002e70	00000013	addi	x0,x0,0	  x0:0x00000000
       32725000	      3271	80002e74	41f48733	sub	x14,x9,x31	  x9:0x00000000 x31:0x00000000 x14=0x00000000
       32735000	      3272	80002e78	6046cd93	xori	x27,x13,1540	 x13:0xdb0eede0 x27=0xdb0eebe4
       32745000	      3273	80002e7c	5348e6b7	lui	x13,0x5348e	 x13=0x5348e000
       32755000	      3274	80002e80	26d2e093	ori	x1,x5,621	  x5:0x0000000d  x1=0x0000026d
       32765000	      3275	80002e84	0535c663	blt	x11,x19,80002ed0	 x11:0xffffffff x19:0xbfffbfa7
       32775000	      3276	80002e88	00883033	sltu	x0,x16,x8	 x16:0x80009fc4  x8:0x80009f20
       32785000	      3277	80002e8c	049e7863	bgeu	x28,x9,80002edc	 x28:0xfffffffc  x9:0x00000000
       32795000	      3278	00000000	00000013	addi	x0,x0,0	  x0:0x00000000
       32805000	      3279	80002ed8	00000013	addi	x0,x0,0	  x0:0x00000000
       32815000	      3280	80002edc	7df64f13	xori	x30,x12,2015	 x12:0x00000000 x30=0x000007df
       32825000	      3281	80002ee0	00000013	addi	x0,x0,0	  x0:0x00000000
       32835000	      3282	80002ee4	00c97463	bgeu	x18,x12,80002eec	 x18:0x00000000 x12:0x00000000
       32845000	      3283	00000000	00000013	addi	x0,x0,0	  x0:0x00000000
       32855000	      3284	80002ee8	00000013	addi	x0,x0,0	  x0:0x00000000
       32865000	      3285	80002eec	77fb8093	addi	x1,x23,1919	 x23:0xfc0004fe  x1=0xfc000c7d
       32875000	      3286	80002ef0	4032d3b3	sra	x7,x5,x3	  x5:0x0000000d  x3:0x000001b6  x7=0x00000000
       32885000	      3287	80002ef4	00412c03	lw	x24,4(x2)	  x2:0x80009f20 x24=0x80000ed0 PA:0x80009f24
       32895000	      3288	80002ef8	4d9bbf93	sltiu	x31,x23,1241	 x23:0xfc0004fe x31=0x00000000
       32905000	      3289	80002efc	40ad5333	sra	x6,x26,x10	 x26:0x00000000 x10:0xbfffbfb4  x6=0x00000000
       32915000	      3290	80002f00	01410113	addi	x2,x2,20	  x2:0x80009f20  x2=0x80009f34
       32925000	      3291	80002f04	5449d237	lui	x4,0x5449d	  x4=0x5449d000
       32935000	      3292	80002f08	0135d613	srli	x12,x11,0x13	 x11:0xffffffff x12=0x00001fff
       32945000	      3293	80002f0c	614a2497	auipc	x9,0x614a2	  x9=0xe14a4f08
       32955000	      3294	80002f10	018eadb3	slt	x27,x29,x24	 x29:0x00000000 x24:0x80000ed0 x27=0x00000000
       32965000	      3295	80002f14	00445413	srli	x8,x8,0x4	  x8:0x80009f20  x8=0x080009f2
       32975000	      3296	80002f18	000225b3	slt	x11,x4,x0	  x4:0x5449d000  x0:0x00000000 x11=0x00000000
       32985000	      3297	80002f1c	01b54233	xor	x4,x10,x27	 x10:0xbfffbfb4 x27:0x00000000  x4=0xbfffbfb4
       32995000	      3298	80002f20	000c0d13	addi	x26,x24,0	 x24:0x80000ed0 x26=0x80000ed0
       33005000	      3299	80002f24	000d0d67	jalr	x26,x26,0	 x26:0x80000ed0 x26=0x80002f24
       33015000	      3300	00000000	00000013	addi	x0,x0,0	  x0:0x00000000
       33025000	      3301	80000ed0	00000013	addi	x0,x0,0	  x0:0x00000000
       33035000	      3302	80000ed4	41d7dcb3	sra	x25,x15,x29	 x15:0x00000000 x29:0x00000000 x25=0x00000000
       33045000	      3303	80000ed8	eb9d0913	addi	x18,x26,-327	 x26:0x80002f24 x18=0x80002ddd
       33055000	      3304	80000edc	008c9cb3	sll	x25,x25,x8	 x25:0x00000000  x8:0x080009f2 x25=0x00000000
       33065000	      3305	80000ee0	006001b3	add	x3,x0,x6	  x0:0x00000000  x6:0x00000000  x3=0x00000000
       33075000	      3306	80000ee4	00c79c93	slli	x25,x15,0xc	 x15:0x00000000 x25=0x00000000
       33085000	      3307	80000ee8	41190433	sub	x8,x18,x17	 x18:0x80002ddd x17:0x6dad9e04  x8=0x12528fd9
       33095000	      3308	80000eec	00000013	addi	x0,x0,0	  x0:0x00000000
       33105000	      3309	80000ef0	009c8ab3	add	x21,x25,x9	 x25:0x00000000  x9:0xe14a4f08 x21=0xe14a4f08
       33115000	      3310	80000ef4	00077663	bgeu	x14,x0,80000f00	 x14:0x00000000  x0:0x00000000
       33125000	      3311	00000000	00000013	addi	x0,x0,0	  x0:0x00000000
       33135000	      3312	80000efc	00000013	addi	x0,x0,0	  x0:0x00000000
       33145000	      3313	80000f00	31c00c6f	jal	x24,80000f00	 x24=0x80000f00
       33155000	      3314	00000000	00000013	addi	x0,x0,0	  x0:0x00000000
       33165000	      3315	80001218	00000013	addi	x0,x0,0	  x0:0x00000000
       33175000	      3316	8000121c	00bd1433	sll	x8,x26,x11	 x26:0x80002f24 x11:0x00000000  x8=0x80002f24
       33185000	      3317	80001220	01f48663	beq	x9,x31,8000122c	  x9:0xe14a4f08 x31:0x00000000
       33195000	      3318	80001224	00817933	and	x18,x2,x8	  x2:0x80009f34  x8:0x80002f24 x18=0x80000f24
       33205000	      3319	80001228	01fa3433	sltu	x8,x20,x31	 x20:0x039d0000 x31:0x00000000  x8=0x00000000
       33215000	      3320	8000122c	fec10113	addi	x2,x2,-20	  x2:0x80009f34  x2=0x80009f20
       33225000	      3321	80001230	67750993	addi	x19,x10,1655	 x10:0xbfffbfb4 x19=0xbfffc62b
       33235000	      3322	80001234	457ac993	xori	x19,x21,1111	 x21:0xe14a4f08 x19=0xe14a4b5f
       33245000	      3323	80001238	01605e13	srli	x28,x0,0x16	  x0:0x00000000 x28=0x00000000
       33255000	      3324	8000123c	01812223	sw	x24,4(x2)	  x2:0x80009f20 x24:0x80000f00 PA:0x80009f24
       33265000	      3325	80001240	41d8d3b3	sra	x7,x17,x29	 x17:0x6dad9e04 x29:0x00000000  x7=0x6dad9e04
       33275000	      3326	80001244	ff800393	addi	x7,x0,-8	  x0:0x00000000  x7=0xfffffff8
       33285000	      3327	80001248	c0ab6717	auipc	x14,0xc0ab6	 x14=0x40ab7244
       33295000	      3328	8000124c	00c6adb3	slt	x27,x13,x12	 x13:0x5348e000 x12:0x00001fff x27=0x00000000
       33305000	      3329	80001250	00000013	addi	x0,x0,0	  x0:0x00000000
       33315000	      3330	80001254	a052b313	sltiu	x6,x5,-1531	  x5:0x0000000d  x6=0x00000001
       33325000	      3331	80001258	01db48b3	xor	x17,x22,x29	 x22:0x00000769 x29:0x00000000 x17=0x00000769
       33335000	      3332	8000125c	010bbeb3	sltu	x29,x23,x16	 x23:0xfc0004fe x16:0x80009fc4 x29=0x00000000
       33345000	      3333	80001260	00c00c13	addi	x24,x0,12	  x0:0x00000000 x24=0x0000000c
       33355000	      3334	80001264	01e1edb3	or	x27,x3,x30	  x3:0x00000000 x30:0x000007df x27=0x000007df
       33365000	      3335	80001268	ba83bc93	sltiu	x25,x7,-1112	  x7:0xfffffff8 x25=0x00000000
       33375000	      3336	8000126c	005c9a33	sll	x20,x25,x5	 x25:0x00000000  x5:0x0000000d x20=0x00000000
       33385000	      3337	80001270	01f32633	slt	x12,x6,x31	  x6:0x00000001 x31:0x00000000 x12=0x00000000
       33395000	      3338	80001274	308eec93	ori	x25,x29,776	 x29:0x00000000 x25=0x00000308
       33405000	      3339	80001278	01856db3	or	x27,x10,x24	 x10:0xbfffbfb4 x24:0x0000000c x27=0xbfffbfbc
       33415000	      3340	8000127c	00238393	addi	x7,x7,2	  x7:0xfffffff8  x7=0xfffffffa
       33425000	      3341	80001280	40d35933	sra	x18,x6,x13	  x6:0x00000001 x13:0x5348e000 x18=0x00000001
       33435000	      3342	80001284	01bf9233	sll	x4,x31,x27	 x31:0x00000000 x27:0xbfffbfbc  x4=0x00000000
       33445000	      3343	80001288	132e7e93	andi	x29,x28,306	 x28:0x00000000 x29=0x00000000
       33455000	      3344	8000128c	0148e8b3	or	x17,x17,x20	 x17:0x00000769 x20:0x00000000 x17=0x00000769
       33465000	      3345	80001290	01bdc333	xor	x6,x27,x27	 x27:0xbfffbfbc x27:0xbfffbfbc  x6=0x00000000
       33475000	      3346	80001294	354db993	sltiu	x19,x27,852	 x27:0xbfffbfbc x19=0x00000000
       33485000	      3347	80001298	57a06593	ori	x11,x0,1402	  x0:0x00000000 x11=0x0000057a
       33495000	      3348	8000129c	00000013	addi	x0,x0,0	  x0:0x00000000
       33505000	      3349	800012a0	8fbd4b13	xori	x22,x26,-1797	 x26:0x80002f24 x22=0x7fffd7df
       33515000	      3350	800012a4	86f451b7	lui	x3,0x86f45	  x3=0x86f45000
       33525000	      3351	800012a8	41e45093	srai	x1,x8,0x1e	  x8:0x00000000  x1=0x00000000
       33535000	      3352	800012ac	40bbd433	sra	x8,x23,x11	 x23:0xfc0004fe x11:0x0000057a  x8=0xffffffff
       33545000	      3353	800012b0	fd83c0e3	blt	x7,x24,80001270	  x7:0xfffffffa x24:0x0000000c
       33555000	      3354	00000000	00000013	addi	x0,x0,0	  x0:0x00000000
       33565000	      3355	8000126c	00000013	addi	x0,x0,0	  x0:0x00000000
       33575000	      3356	80001270	01f32633	slt	x12,x6,x31	  x6:0x00000000 x31:0x00000000 x12=0x00000000
       33585000	      3357	80001274	308eec93	ori	x25,x29,776	 x29:0x00000000 x25=0x00000308
       33595000	      3358	80001278	01856db3	or	x27,x10,x24	 x10:0xbfffbfb4 x24:0x0000000c x27=0xbfffbfbc
       33605000	      3359	8000127c	00238393	addi	x7,x7,2	  x7:0xfffffffa  x7=0xfffffffc
       33615000	      3360	80001280	40d35933	sra	x18,x6,x13	  x6:0x00000000 x13:0x5348e000 x18=0x00000000
       33625000	      3361	80001284	01bf9233	sll	x4,x31,x27	 x31:0x00000000 x27:0xbfffbfbc  x4=0x00000000
       33635000	      3362	80001288	132e7e93	andi	x29,x28,306	 x28:0x00000000 x29=0x00000000
       33645000	      3363	8000128c	0148e8b3	or	x17,x17,x20	 x17:0x00000769 x20:0x00000000 x17=0x00000769
       33655000	      3364	80001290	01bdc333	xor	x6,x27,x27	 x27:0xbfffbfbc x27:0xbfffbfbc  x6=0x00000000
       33665000	      3365	80001294	354db993	sltiu	x19,x27,852	 x27:0xbfffbfbc x19=0x00000000
       33675000	      3366	80001298	57a06593	ori	x11,x0,1402	  x0:0x00000000 x11=0x0000057a
       33685000	      3367	8000129c	00000013	addi	x0,x0,0	  x0:0x00000000
       33695000	      3368	800012a0	8fbd4b13	xori	x22,x26,-1797	 x26:0x80002f24 x22=0x7fffd7df
       33705000	      3369	800012a4	86f451b7	lui	x3,0x86f45	  x3=0x86f45000
       33715000	      3370	800012a8	41e45093	srai	x1,x8,0x1e	  x8:0xffffffff  x1=0xffffffff
       33725000	      3371	800012ac	40bbd433	sra	x8,x23,x11	 x23:0xfc0004fe x11:0x0000057a  x8=0xffffffff
       33735000	      3372	800012b0	fd83c0e3	blt	x7,x24,80001270	  x7:0xfffffffc x24:0x0000000c
       33745000	      3373	00000000	00000013	addi	x0,x0,0	  x0:0x00000000
       33755000	      3374	8000126c	00000013	addi	x0,x0,0	  x0:0x00000000
       33765000	      3375	80001270	01f32633	slt	x12,x6,x31	  x6:0x00000000 x31:0x00000000 x12=0x00000000
       33775000	      3376	80001274	308eec93	ori	x25,x29,776	 x29:0x00000000 x25=0x00000308
       33785000	      3377	80001278	01856db3	or	x27,x10,x24	 x10:0xbfffbfb4 x24:0x0000000c x27=0xbfffbfbc
       33795000	      3378	8000127c	00238393	addi	x7,x7,2	  x7:0xfffffffc  x7=0xfffffffe
       33805000	      3379	80001280	40d35933	sra	x18,x6,x13	  x6:0x00000000 x13:0x5348e000 x18=0x00000000
       33815000	      3380	80001284	01bf9233	sll	x4,x31,x27	 x31:0x00000000 x27:0xbfffbfbc  x4=0x00000000
       33825000	      3381	80001288	132e7e93	andi	x29,x28,306	 x28:0x00000000 x29=0x00000000
       33835000	      3382	8000128c	0148e8b3	or	x17,x17,x20	 x17:0x00000769 x20:0x00000000 x17=0x00000769
       33845000	      3383	80001290	01bdc333	xor	x6,x27,x27	 x27:0xbfffbfbc x27:0xbfffbfbc  x6=0x00000000
       33855000	      3384	80001294	354db993	sltiu	x19,x27,852	 x27:0xbfffbfbc x19=0x00000000
       33865000	      3385	80001298	57a06593	ori	x11,x0,1402	  x0:0x00000000 x11=0x0000057a
       33875000	      3386	8000129c	00000013	addi	x0,x0,0	  x0:0x00000000
       33885000	      3387	800012a0	8fbd4b13	xori	x22,x26,-1797	 x26:0x80002f24 x22=0x7fffd7df
       33895000	      3388	800012a4	86f451b7	lui	x3,0x86f45	  x3=0x86f45000
       33905000	      3389	800012a8	41e45093	srai	x1,x8,0x1e	  x8:0xffffffff  x1=0xffffffff
       33915000	      3390	800012ac	40bbd433	sra	x8,x23,x11	 x23:0xfc0004fe x11:0x0000057a  x8=0xffffffff
       33925000	      3391	800012b0	fd83c0e3	blt	x7,x24,80001270	  x7:0xfffffffe x24:0x0000000c
       33935000	      3392	00000000	00000013	addi	x0,x0,0	  x0:0x00000000
       33945000	      3393	8000126c	00000013	addi	x0,x0,0	  x0:0x00000000
       33955000	      3394	80001270	01f32633	slt	x12,x6,x31	  x6:0x00000000 x31:0x00000000 x12=0x00000000
       33965000	      3395	80001274	308eec93	ori	x25,x29,776	 x29:0x00000000 x25=0x00000308
       33975000	      3396	80001278	01856db3	or	x27,x10,x24	 x10:0xbfffbfb4 x24:0x0000000c x27=0xbfffbfbc
       33985000	      3397	8000127c	00238393	addi	x7,x7,2	  x7:0xfffffffe  x7=0x00000000
       33995000	      3398	80001280	40d35933	sra	x18,x6,x13	  x6:0x00000000 x13:0x5348e000 x18=0x00000000
       34005000	      3399	80001284	01bf9233	sll	x4,x31,x27	 x31:0x00000000 x27:0xbfffbfbc  x4=0x00000000
       34015000	      3400	80001288	132e7e93	andi	x29,x28,306	 x28:0x00000000 x29=0x00000000
       34025000	      3401	8000128c	0148e8b3	or	x17,x17,x20	 x17:0x00000769 x20:0x00000000 x17=0x00000769
       34035000	      3402	80001290	01bdc333	xor	x6,x27,x27	 x27:0xbfffbfbc x27:0xbfffbfbc  x6=0x00000000
       34045000	      3403	80001294	354db993	sltiu	x19,x27,852	 x27:0xbfffbfbc x19=0x00000000
       34055000	      3404	80001298	57a06593	ori	x11,x0,1402	  x0:0x00000000 x11=0x0000057a
       34065000	      3405	8000129c	00000013	addi	x0,x0,0	  x0:0x00000000
       34075000	      3406	800012a0	8fbd4b13	xori	x22,x26,-1797	 x26:0x80002f24 x22=0x7fffd7df
       34085000	      3407	800012a4	86f451b7	lui	x3,0x86f45	  x3=0x86f45000
       34095000	      3408	800012a8	41e45093	srai	x1,x8,0x1e	  x8:0xffffffff  x1=0xffffffff
       34105000	      3409	800012ac	40bbd433	sra	x8,x23,x11	 x23:0xfc0004fe x11:0x0000057a  x8=0xffffffff
       34115000	      3410	800012b0	fd83c0e3	blt	x7,x24,80001270	  x7:0x00000000 x24:0x0000000c
       34125000	      3411	00000000	00000013	addi	x0,x0,0	  x0:0x00000000
       34135000	      3412	8000126c	00000013	addi	x0,x0,0	  x0:0x00000000
       34145000	      3413	80001270	01f32633	slt	x12,x6,x31	  x6:0x00000000 x31:0x00000000 x12=0x00000000
       34155000	      3414	80001274	308eec93	ori	x25,x29,776	 x29:0x00000000 x25=0x00000308
       34165000	      3415	80001278	01856db3	or	x27,x10,x24	 x10:0xbfffbfb4 x24:0x0000000c x27=0xbfffbfbc
       34175000	      3416	8000127c	00238393	addi	x7,x7,2	  x7:0x00000000  x7=0x00000002
       34185000	      3417	80001280	40d35933	sra	x18,x6,x13	  x6:0x00000000 x13:0x5348e000 x18=0x00000000
       34195000	      3418	80001284	01bf9233	sll	x4,x31,x27	 x31:0x00000000 x27:0xbfffbfbc  x4=0x00000000
       34205000	      3419	80001288	132e7e93	andi	x29,x28,306	 x28:0x00000000 x29=0x00000000
       34215000	      3420	8000128c	0148e8b3	or	x17,x17,x20	 x17:0x00000769 x20:0x00000000 x17=0x00000769
       34225000	      3421	80001290	01bdc333	xor	x6,x27,x27	 x27:0xbfffbfbc x27:0xbfffbfbc  x6=0x00000000
       34235000	      3422	80001294	354db993	sltiu	x19,x27,852	 x27:0xbfffbfbc x19=0x00000000
       34245000	      3423	80001298	57a06593	ori	x11,x0,1402	  x0:0x00000000 x11=0x0000057a
       34255000	      3424	8000129c	00000013	addi	x0,x0,0	  x0:0x00000000
       34265000	      3425	800012a0	8fbd4b13	xori	x22,x26,-1797	 x26:0x80002f24 x22=0x7fffd7df
       34275000	      3426	800012a4	86f451b7	lui	x3,0x86f45	  x3=0x86f45000
       34285000	      3427	800012a8	41e45093	srai	x1,x8,0x1e	  x8:0xffffffff  x1=0xffffffff
       34295000	      3428	800012ac	40bbd433	sra	x8,x23,x11	 x23:0xfc0004fe x11:0x0000057a  x8=0xffffffff
       34305000	      3429	800012b0	fd83c0e3	blt	x7,x24,80001270	  x7:0x00000002 x24:0x0000000c
       34315000	      3430	00000000	00000013	addi	x0,x0,0	  x0:0x00000000
       34325000	      3431	8000126c	00000013	addi	x0,x0,0	  x0:0x00000000
       34335000	      3432	80001270	01f32633	slt	x12,x6,x31	  x6:0x00000000 x31:0x00000000 x12=0x00000000
       34345000	      3433	80001274	308eec93	ori	x25,x29,776	 x29:0x00000000 x25=0x00000308
       34355000	      3434	80001278	01856db3	or	x27,x10,x24	 x10:0xbfffbfb4 x24:0x0000000c x27=0xbfffbfbc
       34365000	      3435	8000127c	00238393	addi	x7,x7,2	  x7:0x00000002  x7=0x00000004
       34375000	      3436	80001280	40d35933	sra	x18,x6,x13	  x6:0x00000000 x13:0x5348e000 x18=0x00000000
       34385000	      3437	80001284	01bf9233	sll	x4,x31,x27	 x31:0x00000000 x27:0xbfffbfbc  x4=0x00000000
       34395000	      3438	80001288	132e7e93	andi	x29,x28,306	 x28:0x00000000 x29=0x00000000
       34405000	      3439	8000128c	0148e8b3	or	x17,x17,x20	 x17:0x00000769 x20:0x00000000 x17=0x00000769
       34415000	      3440	80001290	01bdc333	xor	x6,x27,x27	 x27:0xbfffbfbc x27:0xbfffbfbc  x6=0x00000000
       34425000	      3441	80001294	354db993	sltiu	x19,x27,852	 x27:0xbfffbfbc x19=0x00000000
       34435000	      3442	80001298	57a06593	ori	x11,x0,1402	  x0:0x00000000 x11=0x0000057a
       34445000	      3443	8000129c	00000013	addi	x0,x0,0	  x0:0x00000000
       34455000	      3444	800012a0	8fbd4b13	xori	x22,x26,-1797	 x26:0x80002f24 x22=0x7fffd7df
       34465000	      3445	800012a4	86f451b7	lui	x3,0x86f45	  x3=0x86f45000
       34475000	      3446	800012a8	41e45093	srai	x1,x8,0x1e	  x8:0xffffffff  x1=0xffffffff
       34485000	      3447	800012ac	40bbd433	sra	x8,x23,x11	 x23:0xfc0004fe x11:0x0000057a  x8=0xffffffff
       34495000	      3448	800012b0	fd83c0e3	blt	x7,x24,80001270	  x7:0x00000004 x24:0x0000000c
       34505000	      3449	00000000	00000013	addi	x0,x0,0	  x0:0x00000000
       34515000	      3450	8000126c	00000013	addi	x0,x0,0	  x0:0x00000000
       34525000	      3451	80001270	01f32633	slt	x12,x6,x31	  x6:0x00000000 x31:0x00000000 x12=0x00000000
       34535000	      3452	80001274	308eec93	ori	x25,x29,776	 x29:0x00000000 x25=0x00000308
       34545000	      3453	80001278	01856db3	or	x27,x10,x24	 x10:0xbfffbfb4 x24:0x0000000c x27=0xbfffbfbc
       34555000	      3454	8000127c	00238393	addi	x7,x7,2	  x7:0x00000004  x7=0x00000006
       34565000	      3455	80001280	40d35933	sra	x18,x6,x13	  x6:0x00000000 x13:0x5348e000 x18=0x00000000
       34575000	      3456	80001284	01bf9233	sll	x4,x31,x27	 x31:0x00000000 x27:0xbfffbfbc  x4=0x00000000
       34585000	      3457	80001288	132e7e93	andi	x29,x28,306	 x28:0x00000000 x29=0x00000000
       34595000	      3458	8000128c	0148e8b3	or	x17,x17,x20	 x17:0x00000769 x20:0x00000000 x17=0x00000769
       34605000	      3459	80001290	01bdc333	xor	x6,x27,x27	 x27:0xbfffbfbc x27:0xbfffbfbc  x6=0x00000000
       34615000	      3460	80001294	354db993	sltiu	x19,x27,852	 x27:0xbfffbfbc x19=0x00000000
       34625000	      3461	80001298	57a06593	ori	x11,x0,1402	  x0:0x00000000 x11=0x0000057a
       34635000	      3462	8000129c	00000013	addi	x0,x0,0	  x0:0x00000000
       34645000	      3463	800012a0	8fbd4b13	xori	x22,x26,-1797	 x26:0x80002f24 x22=0x7fffd7df
       34655000	      3464	800012a4	86f451b7	lui	x3,0x86f45	  x3=0x86f45000
       34665000	      3465	800012a8	41e45093	srai	x1,x8,0x1e	  x8:0xffffffff  x1=0xffffffff
       34675000	      3466	800012ac	40bbd433	sra	x8,x23,x11	 x23:0xfc0004fe x11:0x0000057a  x8=0xffffffff
       34685000	      3467	800012b0	fd83c0e3	blt	x7,x24,80001270	  x7:0x00000006 x24:0x0000000c
       34695000	      3468	00000000	00000013	addi	x0,x0,0	  x0:0x00000000
       34705000	      3469	8000126c	00000013	addi	x0,x0,0	  x0:0x00000000
       34715000	      3470	80001270	01f32633	slt	x12,x6,x31	  x6:0x00000000 x31:0x00000000 x12=0x00000000
       34725000	      3471	80001274	308eec93	ori	x25,x29,776	 x29:0x00000000 x25=0x00000308
       34735000	      3472	80001278	01856db3	or	x27,x10,x24	 x10:0xbfffbfb4 x24:0x0000000c x27=0xbfffbfbc
       34745000	      3473	8000127c	00238393	addi	x7,x7,2	  x7:0x00000006  x7=0x00000008
       34755000	      3474	80001280	40d35933	sra	x18,x6,x13	  x6:0x00000000 x13:0x5348e000 x18=0x00000000
       34765000	      3475	80001284	01bf9233	sll	x4,x31,x27	 x31:0x00000000 x27:0xbfffbfbc  x4=0x00000000
       34775000	      3476	80001288	132e7e93	andi	x29,x28,306	 x28:0x00000000 x29=0x00000000
       34785000	      3477	8000128c	0148e8b3	or	x17,x17,x20	 x17:0x00000769 x20:0x00000000 x17=0x00000769
       34795000	      3478	80001290	01bdc333	xor	x6,x27,x27	 x27:0xbfffbfbc x27:0xbfffbfbc  x6=0x00000000
       34805000	      3479	80001294	354db993	sltiu	x19,x27,852	 x27:0xbfffbfbc x19=0x00000000
       34815000	      3480	80001298	57a06593	ori	x11,x0,1402	  x0:0x00000000 x11=0x0000057a
       34825000	      3481	8000129c	00000013	addi	x0,x0,0	  x0:0x00000000
       34835000	      3482	800012a0	8fbd4b13	xori	x22,x26,-1797	 x26:0x80002f24 x22=0x7fffd7df
       34845000	      3483	800012a4	86f451b7	lui	x3,0x86f45	  x3=0x86f45000
       34855000	      3484	800012a8	41e45093	srai	x1,x8,0x1e	  x8:0xffffffff  x1=0xffffffff
       34865000	      3485	800012ac	40bbd433	sra	x8,x23,x11	 x23:0xfc0004fe x11:0x0000057a  x8=0xffffffff
       34875000	      3486	800012b0	fd83c0e3	blt	x7,x24,80001270	  x7:0x00000008 x24:0x0000000c
       34885000	      3487	00000000	00000013	addi	x0,x0,0	  x0:0x00000000
       34895000	      3488	8000126c	00000013	addi	x0,x0,0	  x0:0x00000000
       34905000	      3489	80001270	01f32633	slt	x12,x6,x31	  x6:0x00000000 x31:0x00000000 x12=0x00000000
       34915000	      3490	80001274	308eec93	ori	x25,x29,776	 x29:0x00000000 x25=0x00000308
       34925000	      3491	80001278	01856db3	or	x27,x10,x24	 x10:0xbfffbfb4 x24:0x0000000c x27=0xbfffbfbc
       34935000	      3492	8000127c	00238393	addi	x7,x7,2	  x7:0x00000008  x7=0x0000000a
       34945000	      3493	80001280	40d35933	sra	x18,x6,x13	  x6:0x00000000 x13:0x5348e000 x18=0x00000000
       34955000	      3494	80001284	01bf9233	sll	x4,x31,x27	 x31:0x00000000 x27:0xbfffbfbc  x4=0x00000000
       34965000	      3495	80001288	132e7e93	andi	x29,x28,306	 x28:0x00000000 x29=0x00000000
       34975000	      3496	8000128c	0148e8b3	or	x17,x17,x20	 x17:0x00000769 x20:0x00000000 x17=0x00000769
       34985000	      3497	80001290	01bdc333	xor	x6,x27,x27	 x27:0xbfffbfbc x27:0xbfffbfbc  x6=0x00000000
       34995000	      3498	80001294	354db993	sltiu	x19,x27,852	 x27:0xbfffbfbc x19=0x00000000
       35005000	      3499	80001298	57a06593	ori	x11,x0,1402	  x0:0x00000000 x11=0x0000057a
       35015000	      3500	8000129c	00000013	addi	x0,x0,0	  x0:0x00000000
       35025000	      3501	800012a0	8fbd4b13	xori	x22,x26,-1797	 x26:0x80002f24 x22=0x7fffd7df
       35035000	      3502	800012a4	86f451b7	lui	x3,0x86f45	  x3=0x86f45000
       35045000	      3503	800012a8	41e45093	srai	x1,x8,0x1e	  x8:0xffffffff  x1=0xffffffff
       35055000	      3504	800012ac	40bbd433	sra	x8,x23,x11	 x23:0xfc0004fe x11:0x0000057a  x8=0xffffffff
       35065000	      3505	800012b0	fd83c0e3	blt	x7,x24,80001270	  x7:0x0000000a x24:0x0000000c
       35075000	      3506	00000000	00000013	addi	x0,x0,0	  x0:0x00000000
       35085000	      3507	8000126c	00000013	addi	x0,x0,0	  x0:0x00000000
       35095000	      3508	80001270	01f32633	slt	x12,x6,x31	  x6:0x00000000 x31:0x00000000 x12=0x00000000
       35105000	      3509	80001274	308eec93	ori	x25,x29,776	 x29:0x00000000 x25=0x00000308
       35115000	      3510	80001278	01856db3	or	x27,x10,x24	 x10:0xbfffbfb4 x24:0x0000000c x27=0xbfffbfbc
       35125000	      3511	8000127c	00238393	addi	x7,x7,2	  x7:0x0000000a  x7=0x0000000c
       35135000	      3512	80001280	40d35933	sra	x18,x6,x13	  x6:0x00000000 x13:0x5348e000 x18=0x00000000
       35145000	      3513	80001284	01bf9233	sll	x4,x31,x27	 x31:0x00000000 x27:0xbfffbfbc  x4=0x00000000
       35155000	      3514	80001288	132e7e93	andi	x29,x28,306	 x28:0x00000000 x29=0x00000000
       35165000	      3515	8000128c	0148e8b3	or	x17,x17,x20	 x17:0x00000769 x20:0x00000000 x17=0x00000769
       35175000	      3516	80001290	01bdc333	xor	x6,x27,x27	 x27:0xbfffbfbc x27:0xbfffbfbc  x6=0x00000000
       35185000	      3517	80001294	354db993	sltiu	x19,x27,852	 x27:0xbfffbfbc x19=0x00000000
       35195000	      3518	80001298	57a06593	ori	x11,x0,1402	  x0:0x00000000 x11=0x0000057a
       35205000	      3519	8000129c	00000013	addi	x0,x0,0	  x0:0x00000000
       35215000	      3520	800012a0	8fbd4b13	xori	x22,x26,-1797	 x26:0x80002f24 x22=0x7fffd7df
       35225000	      3521	800012a4	86f451b7	lui	x3,0x86f45	  x3=0x86f45000
       35235000	      3522	800012a8	41e45093	srai	x1,x8,0x1e	  x8:0xffffffff  x1=0xffffffff
       35245000	      3523	800012ac	40bbd433	sra	x8,x23,x11	 x23:0xfc0004fe x11:0x0000057a  x8=0xffffffff
       35255000	      3524	800012b0	fd83c0e3	blt	x7,x24,80001270	  x7:0x0000000c x24:0x0000000c
       35265000	      3525	800012b4	01d7d693	srli	x13,x15,0x1d	 x15:0x00000000 x13=0x00000000
       35275000	      3526	800012b8	00a00913	addi	x18,x0,10	  x0:0x00000000 x18=0x0000000a
       35285000	      3527	800012bc	006d8033	add	x0,x27,x6	 x27:0xbfffbfbc  x6:0x00000000
       35295000	      3528	800012c0	0122e233	or	x4,x5,x18	  x5:0x0000000d x18:0x0000000a  x4=0x0000000f
       35305000	      3529	800012c4	ff800c93	addi	x25,x0,-8	  x0:0x00000000 x25=0xfffffff8
       35315000	      3530	800012c8	eb86ceb7	lui	x29,0xeb86c	 x29=0xeb86c000
       35325000	      3531	800012cc	01ed55b3	srl	x11,x26,x30	 x26:0x80002f24 x30:0x000007df x11=0x00000001
       35335000	      3532	800012d0	00000013	addi	x0,x0,0	  x0:0x00000000
       35345000	      3533	800012d4	ff790913	addi	x18,x18,-9	 x18:0x0000000a x18=0x00000001
       35355000	      3534	800012d8	00800193	addi	x3,x0,8	  x0:0x00000000  x3=0x00000008
       35365000	      3535	800012dc	3888ae13	slti	x28,x17,904	 x17:0x00000769 x28=0x00000000
       35375000	      3536	800012e0	00800413	addi	x8,x0,8	  x0:0x00000000  x8=0x00000008
       35385000	      3537	800012e4	00000013	addi	x0,x0,0	  x0:0x00000000
       35395000	      3538	800012e8	00bc5b13	srli	x22,x24,0xb	 x24:0x0000000c x22=0x00000000
       35405000	      3539	800012ec	ff918193	addi	x3,x3,-7	  x3:0x00000008  x3=0x00000001
       35415000	      3540	800012f0	00eefd33	and	x26,x29,x14	 x29:0xeb86c000 x14:0x40ab7244 x26=0x40824000
       35425000	      3541	800012f4	fe81f8e3	bgeu	x3,x8,800012e4	  x3:0x00000001  x8:0x00000008
       35435000	      3542	800012f8	fb64e513	ori	x10,x9,-74	  x9:0xe14a4f08 x10=0xffffffbe
       35445000	      3543	800012fc	8ea3ad93	slti	x27,x7,-1814	  x7:0x0000000c x27=0x00000000
       35455000	      3544	80001300	fd9908e3	beq	x18,x25,800012d0	 x18:0x00000001 x25:0xfffffff8
       35465000	      3545	80001304	c7920f13	addi	x30,x4,-903	  x4:0x0000000f x30=0xfffffc88
       35475000	      3546	80001308	00000413	addi	x8,x0,0	  x0:0x00000000  x8=0x00000000
       35485000	      3547	8000130c	01535b33	srl	x22,x6,x21	  x6:0x00000000 x21:0xe14a4f08 x22=0x00000000
       35495000	      3548	80001310	00100593	addi	x11,x0,1	  x0:0x00000000 x11=0x00000001
       35505000	      3549	80001314	01dae1b3	or	x3,x21,x29	 x21:0xe14a4f08 x29:0xeb86c000  x3=0xebcecf08
       35515000	      3550	80001318	01c49933	sll	x18,x9,x28	  x9:0xe14a4f08 x28:0x00000000 x18=0xe14a4f08
       35525000	      3551	8000131c	00240413	addi	x8,x8,2	  x8:0x00000000  x8=0x00000002
       35535000	      3552	80001320	1442ee13	ori	x28,x5,324	  x5:0x0000000d x28=0x0000014d
       35545000	      3553	80001324	40b084b3	sub	x9,x1,x11	  x1:0xffffffff x11:0x00000001  x9=0xfffffffe
       35555000	      3554	80001328	feb446e3	blt	x8,x11,80001314	  x8:0x00000002 x11:0x00000001
       35565000	      3555	8000132c	a8bf7993	andi	x19,x30,-1397	 x30:0xfffffc88 x19=0xfffff888
       35575000	      3556	80001330	00200213	addi	x4,x0,2	  x0:0x00000000  x4=0x00000002
       35585000	      3557	80001334	01e616b3	sll	x13,x12,x30	 x12:0x00000000 x30:0xfffffc88 x13=0x00000000
       35595000	      3558	80001338	8cc74393	xori	x7,x14,-1844	 x14:0x40ab7244  x7=0xbf548a88
       35605000	      3559	8000133c	018eeab3	or	x21,x29,x24	 x29:0xeb86c000 x24:0x0000000c x21=0xeb86c00c
       35615000	      3560	80001340	00400b93	addi	x23,x0,4	  x0:0x00000000 x23=0x00000004
       35625000	      3561	80001344	01c84633	xor	x12,x16,x28	 x16:0x80009fc4 x28:0x0000014d x12=0x80009e89
       35635000	      3562	80001348	cbaeaa13	slti	x20,x29,-838	 x29:0xeb86c000 x20=0x00000001
       35645000	      3563	8000134c	007ba033	slt	x0,x23,x7	 x23:0x00000004  x7:0xbf548a88
       35655000	      3564	80001350	00e55e13	srli	x28,x10,0xe	 x10:0xffffffbe x28=0x0003ffff
       35665000	      3565	80001354	8b867e13	andi	x28,x12,-1864	 x12:0x80009e89 x28=0x80009888
       35675000	      3566	80001358	00220213	addi	x4,x4,2	  x4:0x00000002  x4=0x00000004
       35685000	      3567	8000135c	41338c33	sub	x24,x7,x19	  x7:0xbf548a88 x19:0xfffff888 x24=0xbf549200
       35695000	      3568	80001360	01852933	slt	x18,x10,x24	 x10:0xffffffbe x24:0xbf549200 x18=0x00000000
       35705000	      3569	80001364	feb12093	slti	x1,x2,-21	  x2:0x80009f20  x1=0x00000001
       35715000	      3570	80001368	73ae3513	sltiu	x10,x28,1850	 x28:0x80009888 x10=0x00000000
       35725000	      3571	8000136c	0060fb33	and	x22,x1,x6	  x1:0x00000001  x6:0x00000000 x22=0x00000000
       35735000	      3572	80001370	523aee17	auipc	x28,0x523ae	 x28=0xd23af36c
       35745000	      3573	80001374	0056bab3	sltu	x21,x13,x5	 x13:0x00000000  x5:0x0000000d x21=0x00000001
       35755000	      3574	80001378	41055c93	srai	x25,x10,0x10	 x10:0x00000000 x25=0x00000000
       35765000	      3575	8000137c	fd7268e3	bltu	x4,x23,8000134c	  x4:0x00000004 x23:0x00000004
       35775000	      3576	80001380	005bf633	and	x12,x23,x5	 x23:0x00000004  x5:0x0000000d x12=0x00000004
       35785000	      3577	80001384	00700f93	addi	x31,x0,7	  x0:0x00000000 x31=0x00000007
       35795000	      3578	80001388	309a3d37	lui	x26,0x309a3	 x26=0x309a3000
       35805000	      3579	8000138c	00700593	addi	x11,x0,7	  x0:0x00000000 x11=0x00000007
       35815000	      3580	80001390	05e26713	ori	x14,x4,94	  x4:0x00000004 x14=0x0000005e
       35825000	      3581	80001394	719d4413	xori	x8,x26,1817	 x26:0x309a3000  x8=0x309a3719
       35835000	      3582	80001398	0005a533	slt	x10,x11,x0	 x11:0x00000007  x0:0x00000000 x10=0x00000000
       35845000	      3583	8000139c	01762f33	slt	x30,x12,x23	 x12:0x00000004 x23:0x00000004 x30=0x00000000
       35855000	      3584	800013a0	ffaf8f93	addi	x31,x31,-6	 x31:0x00000007 x31=0x00000001
       35865000	      3585	800013a4	00000013	addi	x0,x0,0	  x0:0x00000000
       35875000	      3586	800013a8	00600d93	addi	x27,x0,6	  x0:0x00000000 x27=0x00000006
       35885000	      3587	800013ac	01200793	addi	x15,x0,18	  x0:0x00000000 x15=0x00000012
       35895000	      3588	800013b0	3ceeff17	auipc	x30,0x3ceef	 x30=0xbcef03ac
       35905000	      3589	800013b4	bdd34c93	xori	x25,x6,-1059	  x6:0x00000000 x25=0xfffffbdd
       35915000	      3590	800013b8	01934e33	xor	x28,x6,x25	  x6:0x00000000 x25:0xfffffbdd x28=0xfffffbdd
       35925000	      3591	800013bc	0088e0b3	or	x1,x17,x8	 x17:0x00000769  x8:0x309a3719  x1=0x309a3779
       35935000	      3592	800013c0	0b979217	auipc	x4,0xb979	  x4=0x8b97a3bc
       35945000	      3593	800013c4	003d8d93	addi	x27,x27,3	 x27:0x00000006 x27=0x00000009
       35955000	      3594	800013c8	01e55a13	srli	x20,x10,0x1e	 x10:0x00000000 x20=0x00000000
       35965000	      3595	800013cc	fefd84e3	beq	x27,x15,800013b4	 x27:0x00000009 x15:0x00000012
       35975000	      3596	800013d0	1c7b4213	xori	x4,x22,455	 x22:0x00000000  x4=0x000001c7
       35985000	      3597	800013d4	fcbff2e3	bgeu	x31,x11,80001398	 x31:0x00000001 x11:0x00000007
       35995000	      3598	800013d8	01621033	sll	x0,x4,x22	  x4:0x000001c7 x22:0x00000000
       36005000	      3599	800013dc	00400e13	addi	x28,x0,4	  x0:0x00000000 x28=0x00000004
       36015000	      3600	800013e0	db9aa593	slti	x11,x21,-583	 x21:0x00000001 x11=0x00000000
       36025000	      3601	800013e4	00700613	addi	x12,x0,7	  x0:0x00000000 x12=0x00000007
       36035000	      3602	800013e8	2ca58e93	addi	x29,x11,714	 x11:0x00000000 x29=0x000002ca
       36045000	      3603	800013ec	00000013	addi	x0,x0,0	  x0:0x00000000
       36055000	      3604	800013f0	a24feab7	lui	x21,0xa24fe	 x21=0xa24fe000
       36065000	      3605	800013f4	005e0e13	addi	x28,x28,5	 x28:0x00000004 x28=0x00000009
       36075000	      3606	800013f8	00488c33	add	x24,x17,x4	 x17:0x00000769  x4:0x000001c7 x24=0x00000930
       36085000	      3607	800013fc	a5d14513	xori	x10,x2,-1443	  x2:0x80009f20 x10=0x7fff657d
       36095000	      3608	80001400	3bc7bd93	sltiu	x27,x15,956	 x15:0x00000012 x27=0x00000001
       36105000	      3609	80001404	00edcbb3	xor	x23,x27,x14	 x27:0x00000001 x14:0x0000005e x23=0x0000005f
       36115000	      3610	80001408	00700993	addi	x19,x0,7	  x0:0x00000000 x19=0x00000007
       36125000	      3611	8000140c	00582eb3	slt	x29,x16,x5	 x16:0x80009fc4  x5:0x0000000d x29=0x00000001
       36135000	      3612	80001410	00a00a13	addi	x20,x0,10	  x0:0x00000000 x20=0x0000000a
       36145000	      3613	80001414	001b2d33	slt	x26,x22,x1	 x22:0x00000000  x1:0x309a3779 x26=0x00000001
       36155000	      3614	80001418	010bdd93	srli	x27,x23,0x10	 x23:0x0000005f x27=0x00000000
       36165000	      3615	8000141c	00000013	addi	x0,x0,0	  x0:0x00000000
       36175000	      3616	80001420	00000013	addi	x0,x0,0	  x0:0x00000000
       36185000	      3617	80001424	00a99e93	slli	x29,x19,0xa	 x19:0x00000007 x29=0x00001c00
       36195000	      3618	80001428	0056f333	and	x6,x13,x5	 x13:0x00000000  x5:0x0000000d  x6=0x00000000
       36205000	      3619	8000142c	00998993	addi	x19,x19,9	 x19:0x00000007 x19=0x00000010
       36215000	      3620	80001430	019cddb3	srl	x27,x25,x25	 x25:0xfffffbdd x25:0xfffffbdd x27=0x00000007
       36225000	      3621	80001434	414f81b3	sub	x3,x31,x20	 x31:0x00000001 x20:0x0000000a  x3=0xfffffff7
       36235000	      3622	80001438	413fd893	srai	x17,x31,0x13	 x31:0x00000001 x17=0x00000000
       36245000	      3623	8000143c	a552b037	lui	x0,0xa552b	
       36255000	      3624	80001440	ff49e0e3	bltu	x19,x20,80001420	 x19:0x00000010 x20:0x0000000a
       36265000	      3625	80001444	2eb4b793	sltiu	x15,x9,747	  x9:0xfffffffe x15=0x00000000
       36275000	      3626	80001448	8bd43c93	sltiu	x25,x8,-1859	  x8:0x309a3719 x25=0x00000001
       36285000	      3627	8000144c	face60e3	bltu	x28,x12,800013ec	 x28:0x00000009 x12:0x00000007
       36295000	      3628	80001450	42c97913	andi	x18,x18,1068	 x18:0x00000000 x18=0x00000000
       36305000	      3629	80001454	00100693	addi	x13,x0,1	  x0:0x00000000 x13=0x00000001
       36315000	      3630	80001458	41f2d033	sra	x0,x5,x31	  x5:0x0000000d x31:0x00000001
       36325000	      3631	8000145c	7f4ae213	ori	x4,x21,2036	 x21:0xa24fe000  x4=0xa24fe7f4
       36335000	      3632	80001460	75b97e13	andi	x28,x18,1883	 x18:0x00000000 x28=0x00000000
       36345000	      3633	80001464	4112d093	srai	x1,x5,0x11	  x5:0x0000000d  x1=0x00000000
       36355000	      3634	80001468	41ad5393	srai	x7,x26,0x1a	 x26:0x00000001  x7=0x00000000
       36365000	      3635	8000146c	013f39b3	sltu	x19,x30,x19	 x30:0xbcef03ac x19:0x00000010 x19=0x00000000
       36375000	      3636	80001470	00cac633	xor	x12,x21,x12	 x21:0xa24fe000 x12:0x00000007 x12=0xa24fe007
       36385000	      3637	80001474	136bb213	sltiu	x4,x23,310	 x23:0x0000005f  x4=0x00000001
       36395000	      3638	80001478	408687b3	sub	x15,x13,x8	 x13:0x00000001  x8:0x309a3719 x15=0xcf65c8e8
       36405000	      3639	8000147c	2b2cce13	xori	x28,x25,690	 x25:0x00000001 x28=0x000002b3
       36415000	      3640	80001480	00100d13	addi	x26,x0,1	  x0:0x00000000 x26=0x00000001
       36425000	      3641	80001484	01471a93	slli	x21,x14,0x14	 x14:0x0000005e x21=0x05e00000
       36435000	      3642	80001488	768e3793	sltiu	x15,x28,1896	 x28:0x000002b3 x15=0x00000001
       36445000	      3643	8000148c	41de84b3	sub	x9,x29,x29	 x29:0x00001c00 x29:0x00001c00  x9=0x00000000
       36455000	      3644	80001490	80964a13	xori	x20,x12,-2039	 x12:0xa24fe007 x20=0x5db0180e
       36465000	      3645	80001494	ff968693	addi	x13,x13,-7	 x13:0x00000001 x13=0xfffffffa
       36475000	      3646	80001498	00000013	addi	x0,x0,0	  x0:0x00000000
       36485000	      3647	8000149c	00800193	addi	x3,x0,8	  x0:0x00000000  x3=0x00000008
       36495000	      3648	800014a0	01fd9c13	slli	x24,x27,0x1f	 x27:0x00000007 x24=0x80000000
       36505000	      3649	800014a4	00401a93	slli	x21,x0,0x4	  x0:0x00000000 x21=0x00000000
       36515000	      3650	800014a8	00000913	addi	x18,x0,0	  x0:0x00000000 x18=0x00000000
       36525000	      3651	800014ac	004f0733	add	x14,x30,x4	 x30:0xbcef03ac  x4:0x00000001 x14=0xbcef03ad
       36535000	      3652	800014b0	003f3233	sltu	x4,x30,x3	 x30:0xbcef03ac  x3:0x00000008  x4=0x00000000
       36545000	      3653	800014b4	01fee5b3	or	x11,x29,x31	 x29:0x00001c00 x31:0x00000001 x11=0x00001c01
       36555000	      3654	800014b8	e0842f13	slti	x30,x8,-504	  x8:0x309a3719 x30=0x00000000
       36565000	      3655	800014bc	00860ab3	add	x21,x12,x8	 x12:0xa24fe007  x8:0x309a3719 x21=0xd2ea1720
       36575000	      3656	800014c0	00ef18b3	sll	x17,x30,x14	 x30:0x00000000 x14:0xbcef03ad x17=0x00000000
       36585000	      3657	800014c4	fff18193	addi	x3,x3,-1	  x3:0x00000008  x3=0x00000007
       36595000	      3658	800014c8	31866213	ori	x4,x12,792	 x12:0xa24fe007  x4=0xa24fe31f
       36605000	      3659	800014cc	00d190b3	sll	x1,x3,x13	  x3:0x00000007 x13:0xfffffffa  x1=0x1c000000
       36615000	      3660	800014d0	ff2194e3	bne	x3,x18,800014b8	  x3:0x00000007 x18:0x00000000
       36625000	      3661	00000000	00000013	addi	x0,x0,0	  x0:0x00000000
       36635000	      3662	800014b4	00000013	addi	x0,x0,0	  x0:0x00000000
       36645000	      3663	800014b8	e0842f13	slti	x30,x8,-504	  x8:0x309a3719 x30=0x00000000
       36655000	      3664	800014bc	00860ab3	add	x21,x12,x8	 x12:0xa24fe007  x8:0x309a3719 x21=0xd2ea1720
       36665000	      3665	800014c0	00ef18b3	sll	x17,x30,x14	 x30:0x00000000 x14:0xbcef03ad x17=0x00000000
       36675000	      3666	800014c4	fff18193	addi	x3,x3,-1	  x3:0x00000007  x3=0x00000006
       36685000	      3667	800014c8	31866213	ori	x4,x12,792	 x12:0xa24fe007  x4=0xa24fe31f
       36695000	      3668	800014cc	00d190b3	sll	x1,x3,x13	  x3:0x00000006 x13:0xfffffffa  x1=0x18000000
       36705000	      3669	800014d0	ff2194e3	bne	x3,x18,800014b8	  x3:0x00000006 x18:0x00000000
       36715000	      3670	00000000	00000013	addi	x0,x0,0	  x0:0x00000000
       36725000	      3671	800014b4	00000013	addi	x0,x0,0	  x0:0x00000000
       36735000	      3672	800014b8	e0842f13	slti	x30,x8,-504	  x8:0x309a3719 x30=0x00000000
       36745000	      3673	800014bc	00860ab3	add	x21,x12,x8	 x12:0xa24fe007  x8:0x309a3719 x21=0xd2ea1720
       36755000	      3674	800014c0	00ef18b3	sll	x17,x30,x14	 x30:0x00000000 x14:0xbcef03ad x17=0x00000000
       36765000	      3675	800014c4	fff18193	addi	x3,x3,-1	  x3:0x00000006  x3=0x00000005
       36775000	      3676	800014c8	31866213	ori	x4,x12,792	 x12:0xa24fe007  x4=0xa24fe31f
       36785000	      3677	800014cc	00d190b3	sll	x1,x3,x13	  x3:0x00000005 x13:0xfffffffa  x1=0x14000000
       36795000	      3678	800014d0	ff2194e3	bne	x3,x18,800014b8	  x3:0x00000005 x18:0x00000000
       36805000	      3679	00000000	00000013	addi	x0,x0,0	  x0:0x00000000
       36815000	      3680	800014b4	00000013	addi	x0,x0,0	  x0:0x00000000
       36825000	      3681	800014b8	e0842f13	slti	x30,x8,-504	  x8:0x309a3719 x30=0x00000000
       36835000	      3682	800014bc	00860ab3	add	x21,x12,x8	 x12:0xa24fe007  x8:0x309a3719 x21=0xd2ea1720
       36845000	      3683	800014c0	00ef18b3	sll	x17,x30,x14	 x30:0x00000000 x14:0xbcef03ad x17=0x00000000
       36855000	      3684	800014c4	fff18193	addi	x3,x3,-1	  x3:0x00000005  x3=0x00000004
       36865000	      3685	800014c8	31866213	ori	x4,x12,792	 x12:0xa24fe007  x4=0xa24fe31f
       36875000	      3686	800014cc	00d190b3	sll	x1,x3,x13	  x3:0x00000004 x13:0xfffffffa  x1=0x10000000
       36885000	      3687	800014d0	ff2194e3	bne	x3,x18,800014b8	  x3:0x00000004 x18:0x00000000
       36895000	      3688	00000000	00000013	addi	x0,x0,0	  x0:0x00000000
       36905000	      3689	800014b4	00000013	addi	x0,x0,0	  x0:0x00000000
       36915000	      3690	800014b8	e0842f13	slti	x30,x8,-504	  x8:0x309a3719 x30=0x00000000
       36925000	      3691	800014bc	00860ab3	add	x21,x12,x8	 x12:0xa24fe007  x8:0x309a3719 x21=0xd2ea1720
       36935000	      3692	800014c0	00ef18b3	sll	x17,x30,x14	 x30:0x00000000 x14:0xbcef03ad x17=0x00000000
       36945000	      3693	800014c4	fff18193	addi	x3,x3,-1	  x3:0x00000004  x3=0x00000003
       36955000	      3694	800014c8	31866213	ori	x4,x12,792	 x12:0xa24fe007  x4=0xa24fe31f
       36965000	      3695	800014cc	00d190b3	sll	x1,x3,x13	  x3:0x00000003 x13:0xfffffffa  x1=0x0c000000
       36975000	      3696	800014d0	ff2194e3	bne	x3,x18,800014b8	  x3:0x00000003 x18:0x00000000
       36985000	      3697	00000000	00000013	addi	x0,x0,0	  x0:0x00000000
       36995000	      3698	800014b4	00000013	addi	x0,x0,0	  x0:0x00000000
       37005000	      3699	800014b8	e0842f13	slti	x30,x8,-504	  x8:0x309a3719 x30=0x00000000
       37015000	      3700	800014bc	00860ab3	add	x21,x12,x8	 x12:0xa24fe007  x8:0x309a3719 x21=0xd2ea1720
       37025000	      3701	800014c0	00ef18b3	sll	x17,x30,x14	 x30:0x00000000 x14:0xbcef03ad x17=0x00000000
       37035000	      3702	800014c4	fff18193	addi	x3,x3,-1	  x3:0x00000003  x3=0x00000002
       37045000	      3703	800014c8	31866213	ori	x4,x12,792	 x12:0xa24fe007  x4=0xa24fe31f
       37055000	      3704	800014cc	00d190b3	sll	x1,x3,x13	  x3:0x00000002 x13:0xfffffffa  x1=0x08000000
       37065000	      3705	800014d0	ff2194e3	bne	x3,x18,800014b8	  x3:0x00000002 x18:0x00000000
       37075000	      3706	00000000	00000013	addi	x0,x0,0	  x0:0x00000000
       37085000	      3707	800014b4	00000013	addi	x0,x0,0	  x0:0x00000000
       37095000	      3708	800014b8	e0842f13	slti	x30,x8,-504	  x8:0x309a3719 x30=0x00000000
       37105000	      3709	800014bc	00860ab3	add	x21,x12,x8	 x12:0xa24fe007  x8:0x309a3719 x21=0xd2ea1720
       37115000	      3710	800014c0	00ef18b3	sll	x17,x30,x14	 x30:0x00000000 x14:0xbcef03ad x17=0x00000000
       37125000	      3711	800014c4	fff18193	addi	x3,x3,-1	  x3:0x00000002  x3=0x00000001
       37135000	      3712	800014c8	31866213	ori	x4,x12,792	 x12:0xa24fe007  x4=0xa24fe31f
       37145000	      3713	800014cc	00d190b3	sll	x1,x3,x13	  x3:0x00000001 x13:0xfffffffa  x1=0x04000000
       37155000	      3714	800014d0	ff2194e3	bne	x3,x18,800014b8	  x3:0x00000001 x18:0x00000000
       37165000	      3715	00000000	00000013	addi	x0,x0,0	  x0:0x00000000
       37175000	      3716	800014b4	00000013	addi	x0,x0,0	  x0:0x00000000
       37185000	      3717	800014b8	e0842f13	slti	x30,x8,-504	  x8:0x309a3719 x30=0x00000000
       37195000	      3718	800014bc	00860ab3	add	x21,x12,x8	 x12:0xa24fe007  x8:0x309a3719 x21=0xd2ea1720
       37205000	      3719	800014c0	00ef18b3	sll	x17,x30,x14	 x30:0x00000000 x14:0xbcef03ad x17=0x00000000
       37215000	      3720	800014c4	fff18193	addi	x3,x3,-1	  x3:0x00000001  x3=0x00000000
       37225000	      3721	800014c8	31866213	ori	x4,x12,792	 x12:0xa24fe007  x4=0xa24fe31f
       37235000	      3722	800014cc	00d190b3	sll	x1,x3,x13	  x3:0x00000000 x13:0xfffffffa  x1=0x00000000
       37245000	      3723	800014d0	ff2194e3	bne	x3,x18,800014b8	  x3:0x00000000 x18:0x00000000
       37255000	      3724	800014d4	016f6733	or	x14,x30,x22	 x30:0x00000000 x22:0x00000000 x14=0x00000000
       37265000	      3725	800014d8	fba6dae3	bge	x13,x26,8000148c	 x13:0xfffffffa x26:0x00000001
       37275000	      3726	800014dc	010939b3	sltu	x19,x18,x16	 x18:0x00000000 x16:0x80009fc4 x19=0x00000001
       37285000	      3727	800014e0	ff600a93	addi	x21,x0,-10	  x0:0x00000000 x21=0xfffffff6
       37295000	      3728	800014e4	ff400413	addi	x8,x0,-12	  x0:0x00000000  x8=0xfffffff4
       37305000	      3729	800014e8	43b810b7	lui	x1,0x43b81	  x1=0x43b81000
       37315000	      3730	800014ec	ff9a8a93	addi	x21,x21,-7	 x21:0xfffffff6 x21=0xffffffef
       37325000	      3731	800014f0	00900f93	addi	x31,x0,9	  x0:0x00000000 x31=0x00000009
       37335000	      3732	800014f4	4cf64e13	xori	x28,x12,1231	 x12:0xa24fe007 x28=0xa24fe4c8
       37345000	      3733	800014f8	00800d93	addi	x27,x0,8	  x0:0x00000000 x27=0x00000008
       37355000	      3734	800014fc	008db933	sltu	x18,x27,x8	 x27:0x00000008  x8:0xfffffff4 x18=0x00000001
       37365000	      3735	80001500	ff9f8f93	addi	x31,x31,-7	 x31:0x00000009 x31=0x00000002
       37375000	      3736	80001504	05b03693	sltiu	x13,x0,91	  x0:0x00000000 x13=0x00000001
       37385000	      3737	80001508	ffbffae3	bgeu	x31,x27,800014fc	 x31:0x00000002 x27:0x00000008
       37395000	      3738	8000150c	fc8adee3	bge	x21,x8,800014e8	 x21:0xffffffef  x8:0xfffffff4
       37405000	      3739	80001510	01dc46b3	xor	x13,x24,x29	 x24:0x80000000 x29:0x00001c00 x13=0x80001c00
       37415000	      3740	80001514	00800413	addi	x8,x0,8	  x0:0x00000000  x8=0x00000008
       37425000	      3741	80001518	012dcfb3	xor	x31,x27,x18	 x27:0x00000008 x18:0x00000001 x31=0x00000009
       37435000	      3742	8000151c	00f12f33	slt	x30,x2,x15	  x2:0x80009f20 x15:0x00000001 x30=0x00000001
       37445000	      3743	80001520	015baa33	slt	x20,x23,x21	 x23:0x0000005f x21:0xffffffef x20=0x00000000
       37455000	      3744	80001524	00f00d93	addi	x27,x0,15	  x0:0x00000000 x27=0x0000000f
       37465000	      3745	80001528	17d4e193	ori	x3,x9,381	  x9:0x00000000  x3=0x0000017d
       37475000	      3746	8000152c	00f5a4b3	slt	x9,x11,x15	 x11:0x00001c01 x15:0x00000001  x9=0x00000000
       37485000	      3747	80001530	01b62eb3	slt	x29,x12,x27	 x12:0xa24fe007 x27:0x0000000f x29=0x00000001
       37495000	      3748	80001534	00840413	addi	x8,x8,8	  x8:0x00000008  x8=0x00000010
       37505000	      3749	80001538	012e26b3	slt	x13,x28,x18	 x28:0xa24fe4c8 x18:0x00000001 x13=0x00000001
       37515000	      3750	8000153c	1e858f93	addi	x31,x11,488	 x11:0x00001c01 x31=0x00001de9
       37525000	      3751	80001540	00282bb3	slt	x23,x16,x2	 x16:0x80009fc4  x2:0x80009f20 x23=0x00000000
       37535000	      3752	80001544	ffb446e3	blt	x8,x27,80001530	  x8:0x00000010 x27:0x0000000f
       37545000	      3753	80001548	0165c033	xor	x0,x11,x22	 x11:0x00001c01 x22:0x00000000
       37555000	      3754	8000154c	ff600d13	addi	x26,x0,-10	  x0:0x00000000 x26=0xfffffff6
       37565000	      3755	80001550	6fa30413	addi	x8,x6,1786	  x6:0x00000000  x8=0x000006fa
       37575000	      3756	80001554	0128b8b3	sltu	x17,x17,x18	 x17:0x00000000 x18:0x00000001 x17=0x00000001
       37585000	      3757	80001558	41395313	srai	x6,x18,0x13	 x18:0x00000001  x6=0x00000000
       37595000	      3758	8000155c	013203b3	add	x7,x4,x19	  x4:0xa24fe31f x19:0x00000001  x7=0xa24fe320
       37605000	      3759	80001560	00f41993	slli	x19,x8,0xf	  x8:0x000006fa x19=0x037d0000
       37615000	      3760	80001564	679c8193	addi	x3,x25,1657	 x25:0x00000001  x3=0x0000067a
       37625000	      3761	80001568	00000513	addi	x10,x0,0	  x0:0x00000000 x10=0x00000000
       37635000	      3762	8000156c	1190f613	andi	x12,x1,281	  x1:0x43b81000 x12=0x00000000
       37645000	      3763	80001570	01ed0f33	add	x30,x26,x30	 x26:0xfffffff6 x30:0x00000001 x30=0xfffffff7
       37655000	      3764	80001574	0143dcb3	srl	x25,x7,x20	  x7:0xa24fe320 x20:0x00000000 x25=0xa24fe320
       37665000	      3765	80001578	003d0d13	addi	x26,x26,3	 x26:0xfffffff6 x26=0xfffffff9
       37675000	      3766	8000157c	244a1217	auipc	x4,0x244a1	  x4=0xa44a2578
       37685000	      3767	80001580	ff800c13	addi	x24,x0,-8	  x0:0x00000000 x24=0xfffffff8
       37695000	      3768	80001584	06f68097	auipc	x1,0x6f68	  x1=0x86f69580
       37705000	      3769	80001588	01539993	slli	x19,x7,0x15	  x7:0xa24fe320 x19=0x64000000
       37715000	      3770	8000158c	21693793	sltiu	x15,x18,534	 x18:0x00000001 x15=0x00000001
       37725000	      3771	80001590	01daf1b3	and	x3,x21,x29	 x21:0xffffffef x29:0x00000001  x3=0x00000001
       37735000	      3772	80001594	00a00913	addi	x18,x0,10	  x0:0x00000000 x18=0x0000000a
       37745000	      3773	80001598	b8d93413	sltiu	x8,x18,-1139	 x18:0x0000000a  x8=0x00000001
       37755000	      3774	8000159c	014a70b3	and	x1,x20,x20	 x20:0x00000000 x20:0x00000000  x1=0x00000000
       37765000	      3775	800015a0	009c0c13	addi	x24,x24,9	 x24:0xfffffff8 x24=0x00000001
       37775000	      3776	800015a4	ff2c0ae3	beq	x24,x18,80001598	 x24:0x00000001 x18:0x0000000a
       37785000	      3777	800015a8	00000013	addi	x0,x0,0	  x0:0x00000000
       37795000	      3778	800015ac	95524993	xori	x19,x4,-1707	  x4:0xa44a2578 x19=0x5bb5dc2d
       37805000	      3779	800015b0	017ca5b3	slt	x11,x25,x23	 x25:0xa24fe320 x23:0x00000000 x11=0x00000001
       37815000	      3780	800015b4	0058c733	xor	x14,x17,x5	 x17:0x00000001  x5:0x0000000d x14=0x0000000c
       37825000	      3781	800015b8	002e3e33	sltu	x28,x28,x2	 x28:0xa24fe4c8  x2:0x80009f20 x28=0x00000000
       37835000	      3782	800015bc	faad48e3	blt	x26,x10,8000156c	 x26:0xfffffff9 x10:0x00000000
       37845000	      3783	00000000	00000013	addi	x0,x0,0	  x0:0x00000000
       37855000	      3784	80001568	00000013	addi	x0,x0,0	  x0:0x00000000
       37865000	      3785	8000156c	1190f613	andi	x12,x1,281	  x1:0x00000000 x12=0x00000000
       37875000	      3786	80001570	01ed0f33	add	x30,x26,x30	 x26:0xfffffff9 x30:0xfffffff7 x30=0xfffffff0
       37885000	      3787	80001574	0143dcb3	srl	x25,x7,x20	  x7:0xa24fe320 x20:0x00000000 x25=0xa24fe320
       37895000	      3788	80001578	003d0d13	addi	x26,x26,3	 x26:0xfffffff9 x26=0xfffffffc
       37905000	      3789	8000157c	244a1217	auipc	x4,0x244a1	  x4=0xa44a2578
       37915000	      3790	80001580	ff800c13	addi	x24,x0,-8	  x0:0x00000000 x24=0xfffffff8
       37925000	      3791	80001584	06f68097	auipc	x1,0x6f68	  x1=0x86f69580
       37935000	      3792	80001588	01539993	slli	x19,x7,0x15	  x7:0xa24fe320 x19=0x64000000
       37945000	      3793	8000158c	21693793	sltiu	x15,x18,534	 x18:0x0000000a x15=0x00000001
       37955000	      3794	80001590	01daf1b3	and	x3,x21,x29	 x21:0xffffffef x29:0x00000001  x3=0x00000001
       37965000	      3795	80001594	00a00913	addi	x18,x0,10	  x0:0x00000000 x18=0x0000000a
       37975000	      3796	80001598	b8d93413	sltiu	x8,x18,-1139	 x18:0x0000000a  x8=0x00000001
       37985000	      3797	8000159c	014a70b3	and	x1,x20,x20	 x20:0x00000000 x20:0x00000000  x1=0x00000000
       37995000	      3798	800015a0	009c0c13	addi	x24,x24,9	 x24:0xfffffff8 x24=0x00000001
       38005000	      3799	800015a4	ff2c0ae3	beq	x24,x18,80001598	 x24:0x00000001 x18:0x0000000a
       38015000	      3800	800015a8	00000013	addi	x0,x0,0	  x0:0x00000000
       38025000	      3801	800015ac	95524993	xori	x19,x4,-1707	  x4:0xa44a2578 x19=0x5bb5dc2d
       38035000	      3802	800015b0	017ca5b3	slt	x11,x25,x23	 x25:0xa24fe320 x23:0x00000000 x11=0x00000001
       38045000	      3803	800015b4	0058c733	xor	x14,x17,x5	 x17:0x00000001  x5:0x0000000d x14=0x0000000c
       38055000	      3804	800015b8	002e3e33	sltu	x28,x28,x2	 x28:0x00000000  x2:0x80009f20 x28=0x00000001
       38065000	      3805	800015bc	faad48e3	blt	x26,x10,8000156c	 x26:0xfffffffc x10:0x00000000
       38075000	      3806	00000000	00000013	addi	x0,x0,0	  x0:0x00000000
       38085000	      3807	80001568	00000013	addi	x0,x0,0	  x0:0x00000000
       38095000	      3808	8000156c	1190f613	andi	x12,x1,281	  x1:0x00000000 x12=0x00000000
       38105000	      3809	80001570	01ed0f33	add	x30,x26,x30	 x26:0xfffffffc x30:0xfffffff0 x30=0xffffffec
       38115000	      3810	80001574	0143dcb3	srl	x25,x7,x20	  x7:0xa24fe320 x20:0x00000000 x25=0xa24fe320
       38125000	      3811	80001578	003d0d13	addi	x26,x26,3	 x26:0xfffffffc x26=0xffffffff
       38135000	      3812	8000157c	244a1217	auipc	x4,0x244a1	  x4=0xa44a2578
       38145000	      3813	80001580	ff800c13	addi	x24,x0,-8	  x0:0x00000000 x24=0xfffffff8
       38155000	      3814	80001584	06f68097	auipc	x1,0x6f68	  x1=0x86f69580
       38165000	      3815	80001588	01539993	slli	x19,x7,0x15	  x7:0xa24fe320 x19=0x64000000
       38175000	      3816	8000158c	21693793	sltiu	x15,x18,534	 x18:0x0000000a x15=0x00000001
       38185000	      3817	80001590	01daf1b3	and	x3,x21,x29	 x21:0xffffffef x29:0x00000001  x3=0x00000001
       38195000	      3818	80001594	00a00913	addi	x18,x0,10	  x0:0x00000000 x18=0x0000000a
       38205000	      3819	80001598	b8d93413	sltiu	x8,x18,-1139	 x18:0x0000000a  x8=0x00000001
       38215000	      3820	8000159c	014a70b3	and	x1,x20,x20	 x20:0x00000000 x20:0x00000000  x1=0x00000000
       38225000	      3821	800015a0	009c0c13	addi	x24,x24,9	 x24:0xfffffff8 x24=0x00000001
       38235000	      3822	800015a4	ff2c0ae3	beq	x24,x18,80001598	 x24:0x00000001 x18:0x0000000a
       38245000	      3823	800015a8	00000013	addi	x0,x0,0	  x0:0x00000000
       38255000	      3824	800015ac	95524993	xori	x19,x4,-1707	  x4:0xa44a2578 x19=0x5bb5dc2d
       38265000	      3825	800015b0	017ca5b3	slt	x11,x25,x23	 x25:0xa24fe320 x23:0x00000000 x11=0x00000001
       38275000	      3826	800015b4	0058c733	xor	x14,x17,x5	 x17:0x00000001  x5:0x0000000d x14=0x0000000c
       38285000	      3827	800015b8	002e3e33	sltu	x28,x28,x2	 x28:0x00000001  x2:0x80009f20 x28=0x00000001
       38295000	      3828	800015bc	faad48e3	blt	x26,x10,8000156c	 x26:0xffffffff x10:0x00000000
       38305000	      3829	00000000	00000013	addi	x0,x0,0	  x0:0x00000000
       38315000	      3830	80001568	00000013	addi	x0,x0,0	  x0:0x00000000
       38325000	      3831	8000156c	1190f613	andi	x12,x1,281	  x1:0x00000000 x12=0x00000000
       38335000	      3832	80001570	01ed0f33	add	x30,x26,x30	 x26:0xffffffff x30:0xffffffec x30=0xffffffeb
       38345000	      3833	80001574	0143dcb3	srl	x25,x7,x20	  x7:0xa24fe320 x20:0x00000000 x25=0xa24fe320
       38355000	      3834	80001578	003d0d13	addi	x26,x26,3	 x26:0xffffffff x26=0x00000002
       38365000	      3835	8000157c	244a1217	auipc	x4,0x244a1	  x4=0xa44a2578
       38375000	      3836	80001580	ff800c13	addi	x24,x0,-8	  x0:0x00000000 x24=0xfffffff8
       38385000	      3837	80001584	06f68097	auipc	x1,0x6f68	  x1=0x86f69580
       38395000	      3838	80001588	01539993	slli	x19,x7,0x15	  x7:0xa24fe320 x19=0x64000000
       38405000	      3839	8000158c	21693793	sltiu	x15,x18,534	 x18:0x0000000a x15=0x00000001
       38415000	      3840	80001590	01daf1b3	and	x3,x21,x29	 x21:0xffffffef x29:0x00000001  x3=0x00000001
       38425000	      3841	80001594	00a00913	addi	x18,x0,10	  x0:0x00000000 x18=0x0000000a
       38435000	      3842	80001598	b8d93413	sltiu	x8,x18,-1139	 x18:0x0000000a  x8=0x00000001
       38445000	      3843	8000159c	014a70b3	and	x1,x20,x20	 x20:0x00000000 x20:0x00000000  x1=0x00000000
       38455000	      3844	800015a0	009c0c13	addi	x24,x24,9	 x24:0xfffffff8 x24=0x00000001
       38465000	      3845	800015a4	ff2c0ae3	beq	x24,x18,80001598	 x24:0x00000001 x18:0x0000000a
       38475000	      3846	800015a8	00000013	addi	x0,x0,0	  x0:0x00000000
       38485000	      3847	800015ac	95524993	xori	x19,x4,-1707	  x4:0xa44a2578 x19=0x5bb5dc2d
       38495000	      3848	800015b0	017ca5b3	slt	x11,x25,x23	 x25:0xa24fe320 x23:0x00000000 x11=0x00000001
       38505000	      3849	800015b4	0058c733	xor	x14,x17,x5	 x17:0x00000001  x5:0x0000000d x14=0x0000000c
       38515000	      3850	800015b8	002e3e33	sltu	x28,x28,x2	 x28:0x00000001  x2:0x80009f20 x28=0x00000001
       38525000	      3851	800015bc	faad48e3	blt	x26,x10,8000156c	 x26:0x00000002 x10:0x00000000
       38535000	      3852	800015c0	018d9a13	slli	x20,x27,0x18	 x27:0x0000000f x20=0x0f000000
       38545000	      3853	800015c4	00a00a13	addi	x20,x0,10	  x0:0x00000000 x20=0x0000000a
       38555000	      3854	800015c8	01cafcb3	and	x25,x21,x28	 x21:0xffffffef x28:0x00000001 x25=0x00000001
       38565000	      3855	800015cc	00900613	addi	x12,x0,9	  x0:0x00000000 x12=0x00000009
       38575000	      3856	800015d0	c0b5a013	slti	x0,x11,-1013	 x11:0x00000001
       38585000	      3857	800015d4	f173e693	ori	x13,x7,-233	  x7:0xa24fe320 x13=0xffffff37
       38595000	      3858	800015d8	411b08b3	sub	x17,x22,x17	 x22:0x00000000 x17:0x00000001 x17=0xffffffff
       38605000	      3859	800015dc	00151333	sll	x6,x10,x1	 x10:0x00000000  x1:0x00000000  x6=0x00000000
       38615000	      3860	800015e0	012283b3	add	x7,x5,x18	  x5:0x0000000d x18:0x0000000a  x7=0x00000017
       38625000	      3861	800015e4	23938513	addi	x10,x7,569	  x7:0x00000017 x10=0x00000250
       38635000	      3862	800015e8	07cfca97	auipc	x21,0x7cfc	 x21=0x87cfd5e4
       38645000	      3863	800015ec	ffba0a13	addi	x20,x20,-5	 x20:0x0000000a x20=0x00000005
       38655000	      3864	800015f0	ffc00593	addi	x11,x0,-4	  x0:0x00000000 x11=0xfffffffc
       38665000	      3865	800015f4	00f00f93	addi	x31,x0,15	  x0:0x00000000 x31=0x0000000f
       38675000	      3866	800015f8	ec3fe437	lui	x8,0xec3fe	  x8=0xec3fe000
       38685000	      3867	800015fc	e992b493	sltiu	x9,x5,-359	  x5:0x0000000d  x9=0x00000001
       38695000	      3868	80001600	82bb2513	slti	x10,x22,-2005	 x22:0x00000000 x10=0x00000000
       38705000	      3869	80001604	00358593	addi	x11,x11,3	 x11:0xfffffffc x11=0xffffffff
       38715000	      3870	80001608	c84800b7	lui	x1,0xc8480	  x1=0xc8480000
       38725000	      3871	8000160c	01314db3	xor	x27,x2,x19	  x2:0x80009f20 x19:0x5bb5dc2d x27=0xdbb5430d
       38735000	      3872	80001610	fff5e8e3	bltu	x11,x31,80001600	 x11:0xffffffff x31:0x0000000f
       38745000	      3873	80001614	01dcd493	srli	x9,x25,0x1d	 x25:0x00000001  x9=0x00000000
       38755000	      3874	80001618	d3cef493	andi	x9,x29,-708	 x29:0x00000001  x9=0x00000000
       38765000	      3875	8000161c	fcca72e3	bgeu	x20,x12,800015e0	 x20:0x00000005 x12:0x00000009
       38775000	      3876	80001620	a2ddc513	xori	x10,x27,-1491	 x27:0xdbb5430d x10=0x244ab920
       38785000	      3877	80001624	ff900713	addi	x14,x0,-7	  x0:0x00000000 x14=0xfffffff9
       38795000	      3878	80001628	0105d013	srli	x0,x11,0x10	 x11:0xffffffff
       38805000	      3879	8000162c	0127c4b3	xor	x9,x15,x18	 x15:0x00000001 x18:0x0000000a  x9=0x0000000b
       38815000	      3880	80001630	65c48f13	addi	x30,x9,1628	  x9:0x0000000b x30=0x00000667
       38825000	      3881	80001634	fef00993	addi	x19,x0,-17	  x0:0x00000000 x19=0xffffffef
       38835000	      3882	80001638	fcd50313	addi	x6,x10,-51	 x10:0x244ab920  x6=0x244ab8ed
       38845000	      3883	8000163c	019d1033	sll	x0,x26,x25	 x26:0x00000002 x25:0x00000001
       38855000	      3884	80001640	ff970713	addi	x14,x14,-7	 x14:0xfffffff9 x14=0xfffffff2
       38865000	      3885	80001644	ff375ae3	bge	x14,x19,80001638	 x14:0xfffffff2 x19:0xffffffef
       38875000	      3886	00000000	00000013	addi	x0,x0,0	  x0:0x00000000
       38885000	      3887	80001634	00000013	addi	x0,x0,0	  x0:0x00000000
       38895000	      3888	80001638	fcd50313	addi	x6,x10,-51	 x10:0x244ab920  x6=0x244ab8ed
       38905000	      3889	8000163c	019d1033	sll	x0,x26,x25	 x26:0x00000002 x25:0x00000001
       38915000	      3890	80001640	ff970713	addi	x14,x14,-7	 x14:0xfffffff2 x14=0xffffffeb
       38925000	      3891	80001644	ff375ae3	bge	x14,x19,80001638	 x14:0xffffffeb x19:0xffffffef
       38935000	      3892	80001648	00658b33	add	x22,x11,x6	 x11:0xffffffff  x6:0x244ab8ed x22=0x244ab8ec
       38945000	      3893	8000164c	ffa00693	addi	x13,x0,-6	  x0:0x00000000 x13=0xfffffffa
       38955000	      3894	80001650	00b00313	addi	x6,x0,11	  x0:0x00000000  x6=0x0000000b
       38965000	      3895	80001654	0b9ef793	andi	x15,x29,185	 x29:0x00000001 x15=0x00000001
       38975000	      3896	80001658	38192d93	slti	x27,x18,897	 x18:0x0000000a x27=0x00000001
       38985000	      3897	8000165c	59198d93	addi	x27,x19,1425	 x19:0xffffffef x27=0x00000580
       38995000	      3898	80001660	41dfd633	sra	x12,x31,x29	 x31:0x0000000f x29:0x00000001 x12=0x00000007
       39005000	      3899	80001664	01a25bb3	srl	x23,x4,x26	  x4:0xa44a2578 x26:0x00000002 x23=0x2912895e
       39015000	      3900	80001668	00568693	addi	x13,x13,5	 x13:0xfffffffa x13=0xffffffff
       39025000	      3901	8000166c	b100ef93	ori	x31,x1,-1264	  x1:0xc8480000 x31=0xfffffb10
       39035000	      3902	80001670	41615d13	srai	x26,x2,0x16	  x2:0x80009f20 x26=0xfffffe00
       39045000	      3903	80001674	41bc0bb3	sub	x23,x24,x27	 x24:0x00000001 x27:0x00000580 x23=0xfffffa81
       39055000	      3904	80001678	fe66c0e3	blt	x13,x6,80001658	 x13:0xffffffff  x6:0x0000000b
       39065000	      3905	00000000	00000013	addi	x0,x0,0	  x0:0x00000000
       39075000	      3906	80001654	00000013	addi	x0,x0,0	  x0:0x00000000
       39085000	      3907	80001658	38192d93	slti	x27,x18,897	 x18:0x0000000a x27=0x00000001
       39095000	      3908	8000165c	59198d93	addi	x27,x19,1425	 x19:0xffffffef x27=0x00000580
       39105000	      3909	80001660	41dfd633	sra	x12,x31,x29	 x31:0xfffffb10 x29:0x00000001 x12=0xfffffd88
       39115000	      3910	80001664	01a25bb3	srl	x23,x4,x26	  x4:0xa44a2578 x26:0xfffffe00 x23=0xa44a2578
       39125000	      3911	80001668	00568693	addi	x13,x13,5	 x13:0xffffffff x13=0x00000004
       39135000	      3912	8000166c	b100ef93	ori	x31,x1,-1264	  x1:0xc8480000 x31=0xfffffb10
       39145000	      3913	80001670	41615d13	srai	x26,x2,0x16	  x2:0x80009f20 x26=0xfffffe00
       39155000	      3914	80001674	41bc0bb3	sub	x23,x24,x27	 x24:0x00000001 x27:0x00000580 x23=0xfffffa81
       39165000	      3915	80001678	fe66c0e3	blt	x13,x6,80001658	 x13:0x00000004  x6:0x0000000b
       39175000	      3916	00000000	00000013	addi	x0,x0,0	  x0:0x00000000
       39185000	      3917	80001654	00000013	addi	x0,x0,0	  x0:0x00000000
       39195000	      3918	80001658	38192d93	slti	x27,x18,897	 x18:0x0000000a x27=0x00000001
       39205000	      3919	8000165c	59198d93	addi	x27,x19,1425	 x19:0xffffffef x27=0x00000580
       39215000	      3920	80001660	41dfd633	sra	x12,x31,x29	 x31:0xfffffb10 x29:0x00000001 x12=0xfffffd88
       39225000	      3921	80001664	01a25bb3	srl	x23,x4,x26	  x4:0xa44a2578 x26:0xfffffe00 x23=0xa44a2578
       39235000	      3922	80001668	00568693	addi	x13,x13,5	 x13:0x00000004 x13=0x00000009
       39245000	      3923	8000166c	b100ef93	ori	x31,x1,-1264	  x1:0xc8480000 x31=0xfffffb10
       39255000	      3924	80001670	41615d13	srai	x26,x2,0x16	  x2:0x80009f20 x26=0xfffffe00
       39265000	      3925	80001674	41bc0bb3	sub	x23,x24,x27	 x24:0x00000001 x27:0x00000580 x23=0xfffffa81
       39275000	      3926	80001678	fe66c0e3	blt	x13,x6,80001658	 x13:0x00000009  x6:0x0000000b
       39285000	      3927	00000000	00000013	addi	x0,x0,0	  x0:0x00000000
       39295000	      3928	80001654	00000013	addi	x0,x0,0	  x0:0x00000000
       39305000	      3929	80001658	38192d93	slti	x27,x18,897	 x18:0x0000000a x27=0x00000001
       39315000	      3930	8000165c	59198d93	addi	x27,x19,1425	 x19:0xffffffef x27=0x00000580
       39325000	      3931	80001660	41dfd633	sra	x12,x31,x29	 x31:0xfffffb10 x29:0x00000001 x12=0xfffffd88
       39335000	      3932	80001664	01a25bb3	srl	x23,x4,x26	  x4:0xa44a2578 x26:0xfffffe00 x23=0xa44a2578
       39345000	      3933	80001668	00568693	addi	x13,x13,5	 x13:0x00000009 x13=0x0000000e
       39355000	      3934	8000166c	b100ef93	ori	x31,x1,-1264	  x1:0xc8480000 x31=0xfffffb10
       39365000	      3935	80001670	41615d13	srai	x26,x2,0x16	  x2:0x80009f20 x26=0xfffffe00
       39375000	      3936	80001674	41bc0bb3	sub	x23,x24,x27	 x24:0x00000001 x27:0x00000580 x23=0xfffffa81
       39385000	      3937	80001678	fe66c0e3	blt	x13,x6,80001658	 x13:0x0000000e  x6:0x0000000b
       39395000	      3938	8000167c	00b7cf33	xor	x30,x15,x11	 x15:0x00000001 x11:0xffffffff x30=0xfffffffe
       39405000	      3939	80001680	00a00b93	addi	x23,x0,10	  x0:0x00000000 x23=0x0000000a
       39415000	      3940	80001684	f18e2b13	slti	x22,x28,-232	 x28:0x00000001 x22=0x00000000
       39425000	      3941	80001688	008578b3	and	x17,x10,x8	 x10:0x244ab920  x8:0xec3fe000 x17=0x240aa000
       39435000	      3942	8000168c	014c4f33	xor	x30,x24,x20	 x24:0x00000001 x20:0x00000005 x30=0x00000004
       39445000	      3943	80001690	00a00f93	addi	x31,x0,10	  x0:0x00000000 x31=0x0000000a
       39455000	      3944	80001694	00000013	addi	x0,x0,0	  x0:0x00000000
       39465000	      3945	80001698	017c0c33	add	x24,x24,x23	 x24:0x00000001 x23:0x0000000a x24=0x0000000b
       39475000	      3946	8000169c	01d11d33	sll	x26,x2,x29	  x2:0x80009f20 x29:0x00000001 x26=0x00013e40
       39485000	      3947	800016a0	41810a33	sub	x20,x2,x24	  x2:0x80009f20 x24:0x0000000b x20=0x80009f15
       39495000	      3948	800016a4	a2c1ae93	slti	x29,x3,-1492	  x3:0x00000001 x29=0x00000000
       39505000	      3949	800016a8	01ae9993	slli	x19,x29,0x1a	 x29:0x00000000 x19=0x00000000
       39515000	      3950	800016ac	ff7b8b93	addi	x23,x23,-9	 x23:0x0000000a x23=0x00000001
       39525000	      3951	800016b0	41905c33	sra	x24,x0,x25	  x0:0x00000000 x25:0x00000001 x24=0x00000000
       39535000	      3952	800016b4	00ed9cb3	sll	x25,x27,x14	 x27:0x00000580 x14:0xffffffeb x25=0x002c0000
       39545000	      3953	800016b8	00700593	addi	x11,x0,7	  x0:0x00000000 x11=0x00000007
       39555000	      3954	800016bc	01cb7c33	and	x24,x22,x28	 x22:0x00000000 x28:0x00000001 x24=0x00000000
       39565000	      3955	800016c0	fec00093	addi	x1,x0,-20	  x0:0x00000000  x1=0xffffffec
       39575000	      3956	800016c4	68e2b493	sltiu	x9,x5,1678	  x5:0x0000000d  x9=0x00000001
       39585000	      3957	800016c8	00082233	slt	x4,x16,x0	 x16:0x80009fc4  x0:0x00000000  x4=0x00000001
       39595000	      3958	800016cc	002be4b3	or	x9,x23,x2	 x23:0x00000001  x2:0x80009f20  x9=0x80009f21
       39605000	      3959	800016d0	112df313	andi	x6,x27,274	 x27:0x00000580  x6=0x00000100
       39615000	      3960	800016d4	01be9e33	sll	x28,x29,x27	 x29:0x00000000 x27:0x00000580 x28=0x00000000
       39625000	      3961	800016d8	02eecd13	xori	x26,x29,46	 x29:0x00000000 x26=0x0000002e
       39635000	      3962	800016dc	ff958593	addi	x11,x11,-7	 x11:0x00000007 x11=0x00000000
       39645000	      3963	800016e0	1c5bb213	sltiu	x4,x23,453	 x23:0x00000001  x4=0x00000001
       39655000	      3964	800016e4	01e1b1b3	sltu	x3,x3,x30	  x3:0x00000001 x30:0x00000004  x3=0x00000001
       39665000	      3965	800016e8	410cd013	srai	x0,x25,0x10	 x25:0x002c0000
       39675000	      3966	800016ec	4141df33	sra	x30,x3,x20	  x3:0x00000001 x20:0x80009f15 x30=0x00000000
       39685000	      3967	800016f0	01665a33	srl	x20,x12,x22	 x12:0xfffffd88 x22:0x00000000 x20=0xfffffd88
       39695000	      3968	800016f4	fc15dae3	bge	x11,x1,800016c8	 x11:0x00000000  x1:0xffffffec
       39705000	      3969	00000000	00000013	addi	x0,x0,0	  x0:0x00000000
       39715000	      3970	800016c4	00000013	addi	x0,x0,0	  x0:0x00000000
       39725000	      3971	800016c8	00082233	slt	x4,x16,x0	 x16:0x80009fc4  x0:0x00000000  x4=0x00000001
       39735000	      3972	800016cc	002be4b3	or	x9,x23,x2	 x23:0x00000001  x2:0x80009f20  x9=0x80009f21
       39745000	      3973	800016d0	112df313	andi	x6,x27,274	 x27:0x00000580  x6=0x00000100
       39755000	      3974	800016d4	01be9e33	sll	x28,x29,x27	 x29:0x00000000 x27:0x00000580 x28=0x00000000
       39765000	      3975	800016d8	02eecd13	xori	x26,x29,46	 x29:0x00000000 x26=0x0000002e
       39775000	      3976	800016dc	ff958593	addi	x11,x11,-7	 x11:0x00000000 x11=0xfffffff9
       39785000	      3977	800016e0	1c5bb213	sltiu	x4,x23,453	 x23:0x00000001  x4=0x00000001
       39795000	      3978	800016e4	01e1b1b3	sltu	x3,x3,x30	  x3:0x00000001 x30:0x00000000  x3=0x00000000
       39805000	      3979	800016e8	410cd013	srai	x0,x25,0x10	 x25:0x002c0000
       39815000	      3980	800016ec	4141df33	sra	x30,x3,x20	  x3:0x00000000 x20:0xfffffd88 x30=0x00000000
       39825000	      3981	800016f0	01665a33	srl	x20,x12,x22	 x12:0xfffffd88 x22:0x00000000 x20=0xfffffd88
       39835000	      3982	800016f4	fc15dae3	bge	x11,x1,800016c8	 x11:0xfffffff9  x1:0xffffffec
       39845000	      3983	00000000	00000013	addi	x0,x0,0	  x0:0x00000000
       39855000	      3984	800016c4	00000013	addi	x0,x0,0	  x0:0x00000000
       39865000	      3985	800016c8	00082233	slt	x4,x16,x0	 x16:0x80009fc4  x0:0x00000000  x4=0x00000001
       39875000	      3986	800016cc	002be4b3	or	x9,x23,x2	 x23:0x00000001  x2:0x80009f20  x9=0x80009f21
       39885000	      3987	800016d0	112df313	andi	x6,x27,274	 x27:0x00000580  x6=0x00000100
       39895000	      3988	800016d4	01be9e33	sll	x28,x29,x27	 x29:0x00000000 x27:0x00000580 x28=0x00000000
       39905000	      3989	800016d8	02eecd13	xori	x26,x29,46	 x29:0x00000000 x26=0x0000002e
       39915000	      3990	800016dc	ff958593	addi	x11,x11,-7	 x11:0xfffffff9 x11=0xfffffff2
       39925000	      3991	800016e0	1c5bb213	sltiu	x4,x23,453	 x23:0x00000001  x4=0x00000001
       39935000	      3992	800016e4	01e1b1b3	sltu	x3,x3,x30	  x3:0x00000000 x30:0x00000000  x3=0x00000000
       39945000	      3993	800016e8	410cd013	srai	x0,x25,0x10	 x25:0x002c0000
       39955000	      3994	800016ec	4141df33	sra	x30,x3,x20	  x3:0x00000000 x20:0xfffffd88 x30=0x00000000
       39965000	      3995	800016f0	01665a33	srl	x20,x12,x22	 x12:0xfffffd88 x22:0x00000000 x20=0xfffffd88
       39975000	      3996	800016f4	fc15dae3	bge	x11,x1,800016c8	 x11:0xfffffff2  x1:0xffffffec
       39985000	      3997	00000000	00000013	addi	x0,x0,0	  x0:0x00000000
       39995000	      3998	800016c4	00000013	addi	x0,x0,0	  x0:0x00000000
       40005000	      3999	800016c8	00082233	slt	x4,x16,x0	 x16:0x80009fc4  x0:0x00000000  x4=0x00000001
       40015000	      4000	800016cc	002be4b3	or	x9,x23,x2	 x23:0x00000001  x2:0x80009f20  x9=0x80009f21
       40025000	      4001	800016d0	112df313	andi	x6,x27,274	 x27:0x00000580  x6=0x00000100
       40035000	      4002	800016d4	01be9e33	sll	x28,x29,x27	 x29:0x00000000 x27:0x00000580 x28=0x00000000
       40045000	      4003	800016d8	02eecd13	xori	x26,x29,46	 x29:0x00000000 x26=0x0000002e
       40055000	      4004	800016dc	ff958593	addi	x11,x11,-7	 x11:0xfffffff2 x11=0xffffffeb
       40065000	      4005	800016e0	1c5bb213	sltiu	x4,x23,453	 x23:0x00000001  x4=0x00000001
       40075000	      4006	800016e4	01e1b1b3	sltu	x3,x3,x30	  x3:0x00000000 x30:0x00000000  x3=0x00000000
       40085000	      4007	800016e8	410cd013	srai	x0,x25,0x10	 x25:0x002c0000
       40095000	      4008	800016ec	4141df33	sra	x30,x3,x20	  x3:0x00000000 x20:0xfffffd88 x30=0x00000000
       40105000	      4009	800016f0	01665a33	srl	x20,x12,x22	 x12:0xfffffd88 x22:0x00000000 x20=0xfffffd88
       40115000	      4010	800016f4	fc15dae3	bge	x11,x1,800016c8	 x11:0xffffffeb  x1:0xffffffec
       40125000	      4011	800016f8	417f8c33	sub	x24,x31,x23	 x31:0x0000000a x23:0x00000001 x24=0x00000009
       40135000	      4012	800016fc	fbfbf4e3	bgeu	x23,x31,800016a4	 x23:0x00000001 x31:0x0000000a
       40145000	      4013	80001700	01247733	and	x14,x8,x18	  x8:0xec3fe000 x18:0x0000000a x14=0x00000000
       40155000	      4014	80001704	ff600513	addi	x10,x0,-10	  x0:0x00000000 x10=0xfffffff6
       40165000	      4015	80001708	ffd00393	addi	x7,x0,-3	  x0:0x00000000  x7=0xfffffffd
       40175000	      4016	8000170c	000a2fb3	slt	x31,x20,x0	 x20:0xfffffd88  x0:0x00000000 x31=0x00000001
       40185000	      4017	80001710	b0b6e993	ori	x19,x13,-1269	 x13:0x0000000e x19=0xfffffb0f
       40195000	      4018	80001714	00f41e33	sll	x28,x8,x15	  x8:0xec3fe000 x15:0x00000001 x28=0xd87fc000
       40205000	      4019	80001718	00150513	addi	x10,x10,1	 x10:0xfffffff6 x10=0xfffffff7
       40215000	      4020	8000171c	00800e93	addi	x29,x0,8	  x0:0x00000000 x29=0x00000008
       40225000	      4021	80001720	00000013	addi	x0,x0,0	  x0:0x00000000
       40235000	      4022	80001724	47a08c93	addi	x25,x1,1146	  x1:0xffffffec x25=0x00000466
       40245000	      4023	80001728	01000a93	addi	x21,x0,16	  x0:0x00000000 x21=0x00000010
       40255000	      4024	8000172c	415a5b13	srai	x22,x20,0x15	 x20:0xfffffd88 x22=0xffffffff
       40265000	      4025	80001730	414c8433	sub	x8,x25,x20	 x25:0x00000466 x20:0xfffffd88  x8=0x000006de
       40275000	      4026	80001734	00fad493	srli	x9,x21,0xf	 x21:0x00000010  x9=0x00000000
       40285000	      4027	80001738	72b9ae13	slti	x28,x19,1835	 x19:0xfffffb0f x28=0x00000001
       40295000	      4028	8000173c	1f44f713	andi	x14,x9,500	  x9:0x00000000 x14=0x00000000
       40305000	      4029	80001740	008e8e93	addi	x29,x29,8	 x29:0x00000008 x29=0x00000010
       40315000	      4030	80001744	01834fb3	xor	x31,x6,x24	  x6:0x00000100 x24:0x00000009 x31=0x00000109
       40325000	      4031	80001748	ad1a3313	sltiu	x6,x20,-1327	 x20:0xfffffd88  x6=0x00000000
       40335000	      4032	8000174c	ff5e88e3	beq	x29,x21,8000173c	 x29:0x00000010 x21:0x00000010
       40345000	      4033	00000000	00000013	addi	x0,x0,0	  x0:0x00000000
       40355000	      4034	80001738	00000013	addi	x0,x0,0	  x0:0x00000000
       40365000	      4035	8000173c	1f44f713	andi	x14,x9,500	  x9:0x00000000 x14=0x00000000
       40375000	      4036	80001740	008e8e93	addi	x29,x29,8	 x29:0x00000010 x29=0x00000018
       40385000	      4037	80001744	01834fb3	xor	x31,x6,x24	  x6:0x00000000 x24:0x00000009 x31=0x00000009
       40395000	      4038	80001748	ad1a3313	sltiu	x6,x20,-1327	 x20:0xfffffd88  x6=0x00000000
       40405000	      4039	8000174c	ff5e88e3	beq	x29,x21,8000173c	 x29:0x00000018 x21:0x00000010
       40415000	      4040	80001750	a9182713	slti	x14,x16,-1391	 x16:0x80009fc4 x14=0x00000001
       40425000	      4041	80001754	0048cdb3	xor	x27,x17,x4	 x17:0x240aa000  x4:0x00000001 x27=0x240aa001
       40435000	      4042	80001758	fa754ce3	blt	x10,x7,80001710	 x10:0xfffffff7  x7:0xfffffffd
       40445000	      4043	00000000	00000013	addi	x0,x0,0	  x0:0x00000000
       40455000	      4044	8000170c	00000013	addi	x0,x0,0	  x0:0x00000000
       40465000	      4045	80001710	b0b6e993	ori	x19,x13,-1269	 x13:0x0000000e x19=0xfffffb0f
       40475000	      4046	80001714	00f41e33	sll	x28,x8,x15	  x8:0x000006de x15:0x00000001 x28=0x00000dbc
       40485000	      4047	80001718	00150513	addi	x10,x10,1	 x10:0xfffffff7 x10=0xfffffff8
       40495000	      4048	8000171c	00800e93	addi	x29,x0,8	  x0:0x00000000 x29=0x00000008
       40505000	      4049	80001720	00000013	addi	x0,x0,0	  x0:0x00000000
       40515000	      4050	80001724	47a08c93	addi	x25,x1,1146	  x1:0xffffffec x25=0x00000466
       40525000	      4051	80001728	01000a93	addi	x21,x0,16	  x0:0x00000000 x21=0x00000010
       40535000	      4052	8000172c	415a5b13	srai	x22,x20,0x15	 x20:0xfffffd88 x22=0xffffffff
       40545000	      4053	80001730	414c8433	sub	x8,x25,x20	 x25:0x00000466 x20:0xfffffd88  x8=0x000006de
       40555000	      4054	80001734	00fad493	srli	x9,x21,0xf	 x21:0x00000010  x9=0x00000000
       40565000	      4055	80001738	72b9ae13	slti	x28,x19,1835	 x19:0xfffffb0f x28=0x00000001
       40575000	      4056	8000173c	1f44f713	andi	x14,x9,500	  x9:0x00000000 x14=0x00000000
       40585000	      4057	80001740	008e8e93	addi	x29,x29,8	 x29:0x00000008 x29=0x00000010
       40595000	      4058	80001744	01834fb3	xor	x31,x6,x24	  x6:0x00000000 x24:0x00000009 x31=0x00000009
       40605000	      4059	80001748	ad1a3313	sltiu	x6,x20,-1327	 x20:0xfffffd88  x6=0x00000000
       40615000	      4060	8000174c	ff5e88e3	beq	x29,x21,8000173c	 x29:0x00000010 x21:0x00000010
       40625000	      4061	00000000	00000013	addi	x0,x0,0	  x0:0x00000000
       40635000	      4062	80001738	00000013	addi	x0,x0,0	  x0:0x00000000
       40645000	      4063	8000173c	1f44f713	andi	x14,x9,500	  x9:0x00000000 x14=0x00000000
       40655000	      4064	80001740	008e8e93	addi	x29,x29,8	 x29:0x00000010 x29=0x00000018
       40665000	      4065	80001744	01834fb3	xor	x31,x6,x24	  x6:0x00000000 x24:0x00000009 x31=0x00000009
       40675000	      4066	80001748	ad1a3313	sltiu	x6,x20,-1327	 x20:0xfffffd88  x6=0x00000000
       40685000	      4067	8000174c	ff5e88e3	beq	x29,x21,8000173c	 x29:0x00000018 x21:0x00000010
       40695000	      4068	80001750	a9182713	slti	x14,x16,-1391	 x16:0x80009fc4 x14=0x00000001
       40705000	      4069	80001754	0048cdb3	xor	x27,x17,x4	 x17:0x240aa000  x4:0x00000001 x27=0x240aa001
       40715000	      4070	80001758	fa754ce3	blt	x10,x7,80001710	 x10:0xfffffff8  x7:0xfffffffd
       40725000	      4071	00000000	00000013	addi	x0,x0,0	  x0:0x00000000
       40735000	      4072	8000170c	00000013	addi	x0,x0,0	  x0:0x00000000
       40745000	      4073	80001710	b0b6e993	ori	x19,x13,-1269	 x13:0x0000000e x19=0xfffffb0f
       40755000	      4074	80001714	00f41e33	sll	x28,x8,x15	  x8:0x000006de x15:0x00000001 x28=0x00000dbc
       40765000	      4075	80001718	00150513	addi	x10,x10,1	 x10:0xfffffff8 x10=0xfffffff9
       40775000	      4076	8000171c	00800e93	addi	x29,x0,8	  x0:0x00000000 x29=0x00000008
       40785000	      4077	80001720	00000013	addi	x0,x0,0	  x0:0x00000000
       40795000	      4078	80001724	47a08c93	addi	x25,x1,1146	  x1:0xffffffec x25=0x00000466
       40805000	      4079	80001728	01000a93	addi	x21,x0,16	  x0:0x00000000 x21=0x00000010
       40815000	      4080	8000172c	415a5b13	srai	x22,x20,0x15	 x20:0xfffffd88 x22=0xffffffff
       40825000	      4081	80001730	414c8433	sub	x8,x25,x20	 x25:0x00000466 x20:0xfffffd88  x8=0x000006de
       40835000	      4082	80001734	00fad493	srli	x9,x21,0xf	 x21:0x00000010  x9=0x00000000
       40845000	      4083	80001738	72b9ae13	slti	x28,x19,1835	 x19:0xfffffb0f x28=0x00000001
       40855000	      4084	8000173c	1f44f713	andi	x14,x9,500	  x9:0x00000000 x14=0x00000000
       40865000	      4085	80001740	008e8e93	addi	x29,x29,8	 x29:0x00000008 x29=0x00000010
       40875000	      4086	80001744	01834fb3	xor	x31,x6,x24	  x6:0x00000000 x24:0x00000009 x31=0x00000009
       40885000	      4087	80001748	ad1a3313	sltiu	x6,x20,-1327	 x20:0xfffffd88  x6=0x00000000
       40895000	      4088	8000174c	ff5e88e3	beq	x29,x21,8000173c	 x29:0x00000010 x21:0x00000010
       40905000	      4089	00000000	00000013	addi	x0,x0,0	  x0:0x00000000
       40915000	      4090	80001738	00000013	addi	x0,x0,0	  x0:0x00000000
       40925000	      4091	8000173c	1f44f713	andi	x14,x9,500	  x9:0x00000000 x14=0x00000000
       40935000	      4092	80001740	008e8e93	addi	x29,x29,8	 x29:0x00000010 x29=0x00000018
       40945000	      4093	80001744	01834fb3	xor	x31,x6,x24	  x6:0x00000000 x24:0x00000009 x31=0x00000009
       40955000	      4094	80001748	ad1a3313	sltiu	x6,x20,-1327	 x20:0xfffffd88  x6=0x00000000
       40965000	      4095	8000174c	ff5e88e3	beq	x29,x21,8000173c	 x29:0x00000018 x21:0x00000010
       40975000	      4096	80001750	a9182713	slti	x14,x16,-1391	 x16:0x80009fc4 x14=0x00000001
       40985000	      4097	80001754	0048cdb3	xor	x27,x17,x4	 x17:0x240aa000  x4:0x00000001 x27=0x240aa001
       40995000	      4098	80001758	fa754ce3	blt	x10,x7,80001710	 x10:0xfffffff9  x7:0xfffffffd
       41005000	      4099	00000000	00000013	addi	x0,x0,0	  x0:0x00000000
       41015000	      4100	8000170c	00000013	addi	x0,x0,0	  x0:0x00000000
       41025000	      4101	80001710	b0b6e993	ori	x19,x13,-1269	 x13:0x0000000e x19=0xfffffb0f
       41035000	      4102	80001714	00f41e33	sll	x28,x8,x15	  x8:0x000006de x15:0x00000001 x28=0x00000dbc
       41045000	      4103	80001718	00150513	addi	x10,x10,1	 x10:0xfffffff9 x10=0xfffffffa
       41055000	      4104	8000171c	00800e93	addi	x29,x0,8	  x0:0x00000000 x29=0x00000008
       41065000	      4105	80001720	00000013	addi	x0,x0,0	  x0:0x00000000
       41075000	      4106	80001724	47a08c93	addi	x25,x1,1146	  x1:0xffffffec x25=0x00000466
       41085000	      4107	80001728	01000a93	addi	x21,x0,16	  x0:0x00000000 x21=0x00000010
       41095000	      4108	8000172c	415a5b13	srai	x22,x20,0x15	 x20:0xfffffd88 x22=0xffffffff
       41105000	      4109	80001730	414c8433	sub	x8,x25,x20	 x25:0x00000466 x20:0xfffffd88  x8=0x000006de
       41115000	      4110	80001734	00fad493	srli	x9,x21,0xf	 x21:0x00000010  x9=0x00000000
       41125000	      4111	80001738	72b9ae13	slti	x28,x19,1835	 x19:0xfffffb0f x28=0x00000001
       41135000	      4112	8000173c	1f44f713	andi	x14,x9,500	  x9:0x00000000 x14=0x00000000
       41145000	      4113	80001740	008e8e93	addi	x29,x29,8	 x29:0x00000008 x29=0x00000010
       41155000	      4114	80001744	01834fb3	xor	x31,x6,x24	  x6:0x00000000 x24:0x00000009 x31=0x00000009
       41165000	      4115	80001748	ad1a3313	sltiu	x6,x20,-1327	 x20:0xfffffd88  x6=0x00000000
       41175000	      4116	8000174c	ff5e88e3	beq	x29,x21,8000173c	 x29:0x00000010 x21:0x00000010
       41185000	      4117	00000000	00000013	addi	x0,x0,0	  x0:0x00000000
       41195000	      4118	80001738	00000013	addi	x0,x0,0	  x0:0x00000000
       41205000	      4119	8000173c	1f44f713	andi	x14,x9,500	  x9:0x00000000 x14=0x00000000
       41215000	      4120	80001740	008e8e93	addi	x29,x29,8	 x29:0x00000010 x29=0x00000018
       41225000	      4121	80001744	01834fb3	xor	x31,x6,x24	  x6:0x00000000 x24:0x00000009 x31=0x00000009
       41235000	      4122	80001748	ad1a3313	sltiu	x6,x20,-1327	 x20:0xfffffd88  x6=0x00000000
       41245000	      4123	8000174c	ff5e88e3	beq	x29,x21,8000173c	 x29:0x00000018 x21:0x00000010
       41255000	      4124	80001750	a9182713	slti	x14,x16,-1391	 x16:0x80009fc4 x14=0x00000001
       41265000	      4125	80001754	0048cdb3	xor	x27,x17,x4	 x17:0x240aa000  x4:0x00000001 x27=0x240aa001
       41275000	      4126	80001758	fa754ce3	blt	x10,x7,80001710	 x10:0xfffffffa  x7:0xfffffffd
       41285000	      4127	00000000	00000013	addi	x0,x0,0	  x0:0x00000000
       41295000	      4128	8000170c	00000013	addi	x0,x0,0	  x0:0x00000000
       41305000	      4129	80001710	b0b6e993	ori	x19,x13,-1269	 x13:0x0000000e x19=0xfffffb0f
       41315000	      4130	80001714	00f41e33	sll	x28,x8,x15	  x8:0x000006de x15:0x00000001 x28=0x00000dbc
       41325000	      4131	80001718	00150513	addi	x10,x10,1	 x10:0xfffffffa x10=0xfffffffb
       41335000	      4132	8000171c	00800e93	addi	x29,x0,8	  x0:0x00000000 x29=0x00000008
       41345000	      4133	80001720	00000013	addi	x0,x0,0	  x0:0x00000000
       41355000	      4134	80001724	47a08c93	addi	x25,x1,1146	  x1:0xffffffec x25=0x00000466
       41365000	      4135	80001728	01000a93	addi	x21,x0,16	  x0:0x00000000 x21=0x00000010
       41375000	      4136	8000172c	415a5b13	srai	x22,x20,0x15	 x20:0xfffffd88 x22=0xffffffff
       41385000	      4137	80001730	414c8433	sub	x8,x25,x20	 x25:0x00000466 x20:0xfffffd88  x8=0x000006de
       41395000	      4138	80001734	00fad493	srli	x9,x21,0xf	 x21:0x00000010  x9=0x00000000
       41405000	      4139	80001738	72b9ae13	slti	x28,x19,1835	 x19:0xfffffb0f x28=0x00000001
       41415000	      4140	8000173c	1f44f713	andi	x14,x9,500	  x9:0x00000000 x14=0x00000000
       41425000	      4141	80001740	008e8e93	addi	x29,x29,8	 x29:0x00000008 x29=0x00000010
       41435000	      4142	80001744	01834fb3	xor	x31,x6,x24	  x6:0x00000000 x24:0x00000009 x31=0x00000009
       41445000	      4143	80001748	ad1a3313	sltiu	x6,x20,-1327	 x20:0xfffffd88  x6=0x00000000
       41455000	      4144	8000174c	ff5e88e3	beq	x29,x21,8000173c	 x29:0x00000010 x21:0x00000010
       41465000	      4145	00000000	00000013	addi	x0,x0,0	  x0:0x00000000
       41475000	      4146	80001738	00000013	addi	x0,x0,0	  x0:0x00000000
       41485000	      4147	8000173c	1f44f713	andi	x14,x9,500	  x9:0x00000000 x14=0x00000000
       41495000	      4148	80001740	008e8e93	addi	x29,x29,8	 x29:0x00000010 x29=0x00000018
       41505000	      4149	80001744	01834fb3	xor	x31,x6,x24	  x6:0x00000000 x24:0x00000009 x31=0x00000009
       41515000	      4150	80001748	ad1a3313	sltiu	x6,x20,-1327	 x20:0xfffffd88  x6=0x00000000
       41525000	      4151	8000174c	ff5e88e3	beq	x29,x21,8000173c	 x29:0x00000018 x21:0x00000010
       41535000	      4152	80001750	a9182713	slti	x14,x16,-1391	 x16:0x80009fc4 x14=0x00000001
       41545000	      4153	80001754	0048cdb3	xor	x27,x17,x4	 x17:0x240aa000  x4:0x00000001 x27=0x240aa001
       41555000	      4154	80001758	fa754ce3	blt	x10,x7,80001710	 x10:0xfffffffb  x7:0xfffffffd
       41565000	      4155	00000000	00000013	addi	x0,x0,0	  x0:0x00000000
       41575000	      4156	8000170c	00000013	addi	x0,x0,0	  x0:0x00000000
       41585000	      4157	80001710	b0b6e993	ori	x19,x13,-1269	 x13:0x0000000e x19=0xfffffb0f
       41595000	      4158	80001714	00f41e33	sll	x28,x8,x15	  x8:0x000006de x15:0x00000001 x28=0x00000dbc
       41605000	      4159	80001718	00150513	addi	x10,x10,1	 x10:0xfffffffb x10=0xfffffffc
       41615000	      4160	8000171c	00800e93	addi	x29,x0,8	  x0:0x00000000 x29=0x00000008
       41625000	      4161	80001720	00000013	addi	x0,x0,0	  x0:0x00000000
       41635000	      4162	80001724	47a08c93	addi	x25,x1,1146	  x1:0xffffffec x25=0x00000466
       41645000	      4163	80001728	01000a93	addi	x21,x0,16	  x0:0x00000000 x21=0x00000010
       41655000	      4164	8000172c	415a5b13	srai	x22,x20,0x15	 x20:0xfffffd88 x22=0xffffffff
       41665000	      4165	80001730	414c8433	sub	x8,x25,x20	 x25:0x00000466 x20:0xfffffd88  x8=0x000006de
       41675000	      4166	80001734	00fad493	srli	x9,x21,0xf	 x21:0x00000010  x9=0x00000000
       41685000	      4167	80001738	72b9ae13	slti	x28,x19,1835	 x19:0xfffffb0f x28=0x00000001
       41695000	      4168	8000173c	1f44f713	andi	x14,x9,500	  x9:0x00000000 x14=0x00000000
       41705000	      4169	80001740	008e8e93	addi	x29,x29,8	 x29:0x00000008 x29=0x00000010
       41715000	      4170	80001744	01834fb3	xor	x31,x6,x24	  x6:0x00000000 x24:0x00000009 x31=0x00000009
       41725000	      4171	80001748	ad1a3313	sltiu	x6,x20,-1327	 x20:0xfffffd88  x6=0x00000000
       41735000	      4172	8000174c	ff5e88e3	beq	x29,x21,8000173c	 x29:0x00000010 x21:0x00000010
       41745000	      4173	00000000	00000013	addi	x0,x0,0	  x0:0x00000000
       41755000	      4174	80001738	00000013	addi	x0,x0,0	  x0:0x00000000
       41765000	      4175	8000173c	1f44f713	andi	x14,x9,500	  x9:0x00000000 x14=0x00000000
       41775000	      4176	80001740	008e8e93	addi	x29,x29,8	 x29:0x00000010 x29=0x00000018
       41785000	      4177	80001744	01834fb3	xor	x31,x6,x24	  x6:0x00000000 x24:0x00000009 x31=0x00000009
       41795000	      4178	80001748	ad1a3313	sltiu	x6,x20,-1327	 x20:0xfffffd88  x6=0x00000000
       41805000	      4179	8000174c	ff5e88e3	beq	x29,x21,8000173c	 x29:0x00000018 x21:0x00000010
       41815000	      4180	80001750	a9182713	slti	x14,x16,-1391	 x16:0x80009fc4 x14=0x00000001
       41825000	      4181	80001754	0048cdb3	xor	x27,x17,x4	 x17:0x240aa000  x4:0x00000001 x27=0x240aa001
       41835000	      4182	80001758	fa754ce3	blt	x10,x7,80001710	 x10:0xfffffffc  x7:0xfffffffd
       41845000	      4183	00000000	00000013	addi	x0,x0,0	  x0:0x00000000
       41855000	      4184	8000170c	00000013	addi	x0,x0,0	  x0:0x00000000
       41865000	      4185	80001710	b0b6e993	ori	x19,x13,-1269	 x13:0x0000000e x19=0xfffffb0f
       41875000	      4186	80001714	00f41e33	sll	x28,x8,x15	  x8:0x000006de x15:0x00000001 x28=0x00000dbc
       41885000	      4187	80001718	00150513	addi	x10,x10,1	 x10:0xfffffffc x10=0xfffffffd
       41895000	      4188	8000171c	00800e93	addi	x29,x0,8	  x0:0x00000000 x29=0x00000008
       41905000	      4189	80001720	00000013	addi	x0,x0,0	  x0:0x00000000
       41915000	      4190	80001724	47a08c93	addi	x25,x1,1146	  x1:0xffffffec x25=0x00000466
       41925000	      4191	80001728	01000a93	addi	x21,x0,16	  x0:0x00000000 x21=0x00000010
       41935000	      4192	8000172c	415a5b13	srai	x22,x20,0x15	 x20:0xfffffd88 x22=0xffffffff
       41945000	      4193	80001730	414c8433	sub	x8,x25,x20	 x25:0x00000466 x20:0xfffffd88  x8=0x000006de
       41955000	      4194	80001734	00fad493	srli	x9,x21,0xf	 x21:0x00000010  x9=0x00000000
       41965000	      4195	80001738	72b9ae13	slti	x28,x19,1835	 x19:0xfffffb0f x28=0x00000001
       41975000	      4196	8000173c	1f44f713	andi	x14,x9,500	  x9:0x00000000 x14=0x00000000
       41985000	      4197	80001740	008e8e93	addi	x29,x29,8	 x29:0x00000008 x29=0x00000010
       41995000	      4198	80001744	01834fb3	xor	x31,x6,x24	  x6:0x00000000 x24:0x00000009 x31=0x00000009
       42005000	      4199	80001748	ad1a3313	sltiu	x6,x20,-1327	 x20:0xfffffd88  x6=0x00000000
       42015000	      4200	8000174c	ff5e88e3	beq	x29,x21,8000173c	 x29:0x00000010 x21:0x00000010
       42025000	      4201	00000000	00000013	addi	x0,x0,0	  x0:0x00000000
       42035000	      4202	80001738	00000013	addi	x0,x0,0	  x0:0x00000000
       42045000	      4203	8000173c	1f44f713	andi	x14,x9,500	  x9:0x00000000 x14=0x00000000
       42055000	      4204	80001740	008e8e93	addi	x29,x29,8	 x29:0x00000010 x29=0x00000018
       42065000	      4205	80001744	01834fb3	xor	x31,x6,x24	  x6:0x00000000 x24:0x00000009 x31=0x00000009
       42075000	      4206	80001748	ad1a3313	sltiu	x6,x20,-1327	 x20:0xfffffd88  x6=0x00000000
       42085000	      4207	8000174c	ff5e88e3	beq	x29,x21,8000173c	 x29:0x00000018 x21:0x00000010
       42095000	      4208	80001750	a9182713	slti	x14,x16,-1391	 x16:0x80009fc4 x14=0x00000001
       42105000	      4209	80001754	0048cdb3	xor	x27,x17,x4	 x17:0x240aa000  x4:0x00000001 x27=0x240aa001
       42115000	      4210	80001758	fa754ce3	blt	x10,x7,80001710	 x10:0xfffffffd  x7:0xfffffffd
       42125000	      4211	8000175c	53644d17	auipc	x26,0x53644	 x26=0xd3645758
       42135000	      4212	80001760	00000c93	addi	x25,x0,0	  x0:0x00000000 x25=0x00000000
       42145000	      4213	80001764	7248b593	sltiu	x11,x17,1828	 x17:0x240aa000 x11=0x00000000
       42155000	      4214	80001768	00900393	addi	x7,x0,9	  x0:0x00000000  x7=0x00000009
       42165000	      4215	8000176c	00000013	addi	x0,x0,0	  x0:0x00000000
       42175000	      4216	80001770	00ad88b3	add	x17,x27,x10	 x27:0x240aa001 x10:0xfffffffd x17=0x240a9ffe
       42185000	      4217	80001774	00afa533	slt	x10,x31,x10	 x31:0x00000009 x10:0xfffffffd x10=0x00000000
       42195000	      4218	80001778	000ad413	srli	x8,x21,0x0	 x21:0x00000010  x8=0x00000010
       42205000	      4219	8000177c	005c8c93	addi	x25,x25,5	 x25:0x00000000 x25=0x00000005
       42215000	      4220	80001780	019a48b3	xor	x17,x20,x25	 x20:0xfffffd88 x25:0x00000005 x17=0xfffffd8d
       42225000	      4221	80001784	00900d13	addi	x26,x0,9	  x0:0x00000000 x26=0x00000009
       42235000	      4222	80001788	41bed513	srai	x10,x29,0x1b	 x29:0x00000018 x10=0x00000000
       42245000	      4223	8000178c	dea60993	addi	x19,x12,-534	 x12:0xfffffd88 x19=0xfffffb72
       42255000	      4224	80001790	00f00793	addi	x15,x0,15	  x0:0x00000000 x15=0x0000000f
       42265000	      4225	80001794	00d2a0b3	slt	x1,x5,x13	  x5:0x0000000d x13:0x0000000e  x1=0x00000001
       42275000	      4226	80001798	00000013	addi	x0,x0,0	  x0:0x00000000
       42285000	      4227	8000179c	00e73bb3	sltu	x23,x14,x14	 x14:0x00000001 x14:0x00000001 x23=0x00000000
       42295000	      4228	800017a0	005d0d13	addi	x26,x26,5	 x26:0x00000009 x26=0x0000000e
       42305000	      4229	800017a4	0126b6b3	sltu	x13,x13,x18	 x13:0x0000000e x18:0x0000000a x13=0x00000000
       42315000	      4230	800017a8	419d8233	sub	x4,x27,x25	 x27:0x240aa001 x25:0x00000005  x4=0x240a9ffc
       42325000	      4231	800017ac	01b38ab3	add	x21,x7,x27	  x7:0x00000009 x27:0x240aa001 x21=0x240aa00a
       42335000	      4232	800017b0	407189b3	sub	x19,x3,x7	  x3:0x00000000  x7:0x00000009 x19=0xfffffff7
       42345000	      4233	800017b4	fefd62e3	bltu	x26,x15,80001798	 x26:0x0000000e x15:0x0000000f
       42355000	      4234	00000000	00000013	addi	x0,x0,0	  x0:0x00000000
       42365000	      4235	80001794	00000013	addi	x0,x0,0	  x0:0x00000000
       42375000	      4236	80001798	00000013	addi	x0,x0,0	  x0:0x00000000
       42385000	      4237	8000179c	00e73bb3	sltu	x23,x14,x14	 x14:0x00000001 x14:0x00000001 x23=0x00000000
       42395000	      4238	800017a0	005d0d13	addi	x26,x26,5	 x26:0x0000000e x26=0x00000013
       42405000	      4239	800017a4	0126b6b3	sltu	x13,x13,x18	 x13:0x00000000 x18:0x0000000a x13=0x00000001
       42415000	      4240	800017a8	419d8233	sub	x4,x27,x25	 x27:0x240aa001 x25:0x00000005  x4=0x240a9ffc
       42425000	      4241	800017ac	01b38ab3	add	x21,x7,x27	  x7:0x00000009 x27:0x240aa001 x21=0x240aa00a
       42435000	      4242	800017b0	407189b3	sub	x19,x3,x7	  x3:0x00000000  x7:0x00000009 x19=0xfffffff7
       42445000	      4243	800017b4	fefd62e3	bltu	x26,x15,80001798	 x26:0x00000013 x15:0x0000000f
       42455000	      4244	800017b8	fa7ceee3	bltu	x25,x7,80001774	 x25:0x00000005  x7:0x00000009
       42465000	      4245	00000000	00000013	addi	x0,x0,0	  x0:0x00000000
       42475000	      4246	80001770	00000013	addi	x0,x0,0	  x0:0x00000000
       42485000	      4247	80001774	00afa533	slt	x10,x31,x10	 x31:0x00000009 x10:0x00000000 x10=0x00000000
       42495000	      4248	80001778	000ad413	srli	x8,x21,0x0	 x21:0x240aa00a  x8=0x240aa00a
       42505000	      4249	8000177c	005c8c93	addi	x25,x25,5	 x25:0x00000005 x25=0x0000000a
       42515000	      4250	80001780	019a48b3	xor	x17,x20,x25	 x20:0xfffffd88 x25:0x0000000a x17=0xfffffd82
       42525000	      4251	80001784	00900d13	addi	x26,x0,9	  x0:0x00000000 x26=0x00000009
       42535000	      4252	80001788	41bed513	srai	x10,x29,0x1b	 x29:0x00000018 x10=0x00000000
       42545000	      4253	8000178c	dea60993	addi	x19,x12,-534	 x12:0xfffffd88 x19=0xfffffb72
       42555000	      4254	80001790	00f00793	addi	x15,x0,15	  x0:0x00000000 x15=0x0000000f
       42565000	      4255	80001794	00d2a0b3	slt	x1,x5,x13	  x5:0x0000000d x13:0x00000001  x1=0x00000000
       42575000	      4256	80001798	00000013	addi	x0,x0,0	  x0:0x00000000
       42585000	      4257	8000179c	00e73bb3	sltu	x23,x14,x14	 x14:0x00000001 x14:0x00000001 x23=0x00000000
       42595000	      4258	800017a0	005d0d13	addi	x26,x26,5	 x26:0x00000009 x26=0x0000000e
       42605000	      4259	800017a4	0126b6b3	sltu	x13,x13,x18	 x13:0x00000001 x18:0x0000000a x13=0x00000001
       42615000	      4260	800017a8	419d8233	sub	x4,x27,x25	 x27:0x240aa001 x25:0x0000000a  x4=0x240a9ff7
       42625000	      4261	800017ac	01b38ab3	add	x21,x7,x27	  x7:0x00000009 x27:0x240aa001 x21=0x240aa00a
       42635000	      4262	800017b0	407189b3	sub	x19,x3,x7	  x3:0x00000000  x7:0x00000009 x19=0xfffffff7
       42645000	      4263	800017b4	fefd62e3	bltu	x26,x15,80001798	 x26:0x0000000e x15:0x0000000f
       42655000	      4264	00000000	00000013	addi	x0,x0,0	  x0:0x00000000
       42665000	      4265	80001794	00000013	addi	x0,x0,0	  x0:0x00000000
       42675000	      4266	80001798	00000013	addi	x0,x0,0	  x0:0x00000000
       42685000	      4267	8000179c	00e73bb3	sltu	x23,x14,x14	 x14:0x00000001 x14:0x00000001 x23=0x00000000
       42695000	      4268	800017a0	005d0d13	addi	x26,x26,5	 x26:0x0000000e x26=0x00000013
       42705000	      4269	800017a4	0126b6b3	sltu	x13,x13,x18	 x13:0x00000001 x18:0x0000000a x13=0x00000001
       42715000	      4270	800017a8	419d8233	sub	x4,x27,x25	 x27:0x240aa001 x25:0x0000000a  x4=0x240a9ff7
       42725000	      4271	800017ac	01b38ab3	add	x21,x7,x27	  x7:0x00000009 x27:0x240aa001 x21=0x240aa00a
       42735000	      4272	800017b0	407189b3	sub	x19,x3,x7	  x3:0x00000000  x7:0x00000009 x19=0xfffffff7
       42745000	      4273	800017b4	fefd62e3	bltu	x26,x15,80001798	 x26:0x00000013 x15:0x0000000f
       42755000	      4274	800017b8	fa7ceee3	bltu	x25,x7,80001774	 x25:0x0000000a  x7:0x00000009
       42765000	      4275	800017bc	a5016093	ori	x1,x2,-1456	  x2:0x80009f20  x1=0xffffff70
       42775000	      4276	800017c0	00900a13	addi	x20,x0,9	  x0:0x00000000 x20=0x00000009
       42785000	      4277	800017c4	d4a6f493	andi	x9,x13,-694	 x13:0x00000001  x9=0x00000000
       42795000	      4278	800017c8	01580e33	add	x28,x16,x21	 x16:0x80009fc4 x21:0x240aa00a x28=0xa40b3fce
       42805000	      4279	800017cc	5daa4d17	auipc	x26,0x5daa4	 x26=0xddaa57c8
       42815000	      4280	800017d0	00000013	addi	x0,x0,0	  x0:0x00000000
       42825000	      4281	800017d4	00005733	srl	x14,x0,x0	  x0:0x00000000  x0:0x00000000 x14=0x00000000
       42835000	      4282	800017d8	011dde13	srli	x28,x27,0x11	 x27:0x240aa001 x28=0x00001205
       42845000	      4283	800017dc	2a57c993	xori	x19,x15,677	 x15:0x0000000f x19=0x000002aa
       42855000	      4284	800017e0	00800a93	addi	x21,x0,8	  x0:0x00000000 x21=0x00000008
       42865000	      4285	800017e4	69a0f913	andi	x18,x1,1690	  x1:0xffffff70 x18=0x00000610
       42875000	      4286	800017e8	41e7d593	srai	x11,x15,0x1e	 x15:0x0000000f x11=0x00000000
       42885000	      4287	800017ec	f0c72893	slti	x17,x14,-244	 x14:0x00000000 x17=0x00000000
       42895000	      4288	800017f0	0153e633	or	x12,x7,x21	  x7:0x00000009 x21:0x00000008 x12=0x00000009
       42905000	      4289	800017f4	f6b13913	sltiu	x18,x2,-149	  x2:0x80009f20 x18=0x00000001
       42915000	      4290	800017f8	41eed193	srai	x3,x29,0x1e	 x29:0x00000018  x3=0x00000000
       42925000	      4291	800017fc	41bf0c33	sub	x24,x30,x27	 x30:0x00000000 x27:0x240aa001 x24=0xdbf55fff
       42935000	      4292	80001800	00770bb3	add	x23,x14,x7	 x14:0x00000000  x7:0x00000009 x23=0x00000009
       42945000	      4293	80001804	ffaa0a13	addi	x20,x20,-6	 x20:0x00000009 x20=0x00000003
       42955000	      4294	80001808	a185bc13	sltiu	x24,x11,-1512	 x11:0x00000000 x24=0x00000001
       42965000	      4295	8000180c	b6578e93	addi	x29,x15,-1179	 x15:0x0000000f x29=0xfffffb74
       42975000	      4296	80001810	fd5a7ae3	bgeu	x20,x21,800017e4	 x20:0x00000003 x21:0x00000008
       42985000	      4297	80001814	00b5ef93	ori	x31,x11,11	 x11:0x00000000 x31=0x0000000b
       42995000	      4298	80001818	00300d13	addi	x26,x0,3	  x0:0x00000000 x26=0x00000003
       43005000	      4299	8000181c	012c2e33	slt	x28,x24,x18	 x24:0x00000001 x18:0x00000001 x28=0x00000000
       43015000	      4300	80001820	4144db33	sra	x22,x9,x20	  x9:0x00000000 x20:0x00000003 x22=0x00000000
       43025000	      4301	80001824	ffa00c93	addi	x25,x0,-6	  x0:0x00000000 x25=0xfffffffa
       43035000	      4302	80001828	016b5313	srli	x6,x22,0x16	 x22:0x00000000  x6=0x00000000
       43045000	      4303	8000182c	41e006b3	sub	x13,x0,x30	  x0:0x00000000 x30:0x00000000 x13=0x00000000
       43055000	      4304	80001830	0007ac33	slt	x24,x15,x0	 x15:0x0000000f  x0:0x00000000 x24=0x00000000
       43065000	      4305	80001834	018d6633	or	x12,x26,x24	 x26:0x00000003 x24:0x00000000 x12=0x00000003
       43075000	      4306	80001838	00002bb3	slt	x23,x0,x0	  x0:0x00000000  x0:0x00000000 x23=0x00000000
       43085000	      4307	8000183c	479eab13	slti	x22,x29,1145	 x29:0xfffffb74 x22=0x00000001
       43095000	      4308	80001840	3cc82a37	lui	x20,0x3cc82	 x20=0x3cc82000
       43105000	      4309	80001844	ff7d0d13	addi	x26,x26,-9	 x26:0x00000003 x26=0xfffffffa
       43115000	      4310	80001848	019d4533	xor	x10,x26,x25	 x26:0xfffffffa x25:0xfffffffa x10=0x00000000
       43125000	      4311	8000184c	00572233	slt	x4,x14,x5	 x14:0x00000000  x5:0x0000000d  x4=0x00000001
       43135000	      4312	80001850	00600593	addi	x11,x0,6	  x0:0x00000000 x11=0x00000006
       43145000	      4313	80001854	01621713	slli	x14,x4,0x16	  x4:0x00000001 x14=0x00400000
       43155000	      4314	80001858	00900493	addi	x9,x0,9	  x0:0x00000000  x9=0x00000009
       43165000	      4315	8000185c	40665093	srai	x1,x12,0x6	 x12:0x00000003  x1=0x00000000
       43175000	      4316	80001860	40da88b3	sub	x17,x21,x13	 x21:0x00000008 x13:0x00000000 x17=0x00000008
       43185000	      4317	80001864	fba8da97	auipc	x21,0xfba8d	 x21=0x7ba8e860
       43195000	      4318	80001868	4188dc13	srai	x24,x17,0x18	 x17:0x00000008 x24=0x00000000
       43205000	      4319	8000186c	00958593	addi	x11,x11,9	 x11:0x00000006 x11=0x0000000f
       43215000	      4320	80001870	01cf1b93	slli	x23,x30,0x1c	 x30:0x00000000 x23=0x00000000
       43225000	      4321	80001874	fe95e8e3	bltu	x11,x9,80001864	 x11:0x0000000f  x9:0x00000009
       43235000	      4322	80001878	01470ab3	add	x21,x14,x20	 x14:0x00400000 x20:0x3cc82000 x21=0x3d082000
       43245000	      4323	8000187c	00000013	addi	x0,x0,0	  x0:0x00000000
       43255000	      4324	80001880	1219cf93	xori	x31,x19,289	 x19:0x000002aa x31=0x0000038b
       43265000	      4325	80001884	40716e93	ori	x29,x2,1031	  x2:0x80009f20 x29=0x80009f27
       43275000	      4326	80001888	416b0733	sub	x14,x22,x22	 x22:0x00000001 x22:0x00000001 x14=0x00000000
       43285000	      4327	8000188c	fb9d18e3	bne	x26,x25,8000183c	 x26:0xfffffffa x25:0xfffffffa
       43295000	      4328	80001890	00735f33	srl	x30,x6,x7	  x6:0x00000000  x7:0x00000009 x30=0x00000000
       43305000	      4329	80001894	00300c13	addi	x24,x0,3	  x0:0x00000000 x24=0x00000003
       43315000	      4330	80001898	00400a13	addi	x20,x0,4	  x0:0x00000000 x20=0x00000004
       43325000	      4331	8000189c	004537b3	sltu	x15,x10,x4	 x10:0x00000000  x4:0x00000001 x15=0x00000001
       43335000	      4332	800018a0	00ac0c13	addi	x24,x24,10	 x24:0x00000003 x24=0x0000000d
       43345000	      4333	800018a4	00900993	addi	x19,x0,9	  x0:0x00000000 x19=0x00000009
       43355000	      4334	800018a8	00900e93	addi	x29,x0,9	  x0:0x00000000 x29=0x00000009
       43365000	      4335	800018ac	01073e33	sltu	x28,x14,x16	 x14:0x00000000 x16:0x80009fc4 x28=0x00000001
       43375000	      4336	800018b0	ffa98993	addi	x19,x19,-6	 x19:0x00000009 x19=0x00000003
       43385000	      4337	800018b4	401758b3	sra	x17,x14,x1	 x14:0x00000000  x1:0x00000000 x17=0x00000000
       43395000	      4338	800018b8	ffd9fae3	bgeu	x19,x29,800018ac	 x19:0x00000003 x29:0x00000009
       43405000	      4339	800018bc	ff4c60e3	bltu	x24,x20,8000189c	 x24:0x0000000d x20:0x00000004
       43415000	      4340	800018c0	89780b93	addi	x23,x16,-1897	 x16:0x80009fc4 x23=0x8000985b
       43425000	      4341	800018c4	00a00f93	addi	x31,x0,10	  x0:0x00000000 x31=0x0000000a
       43435000	      4342	800018c8	00a00d13	addi	x26,x0,10	  x0:0x00000000 x26=0x0000000a
       43445000	      4343	800018cc	29d6b593	sltiu	x11,x13,669	 x13:0x00000000 x11=0x00000001
       43455000	      4344	800018d0	d8048193	addi	x3,x9,-640	  x9:0x00000009  x3=0xfffffd89
       43465000	      4345	800018d4	06bfef13	ori	x30,x31,107	 x31:0x0000000a x30=0x0000006b
       43475000	      4346	800018d8	00ccbc33	sltu	x24,x25,x12	 x25:0xfffffffa x12:0x00000003 x24=0x00000000
       43485000	      4347	800018dc	35d37493	andi	x9,x6,861	  x6:0x00000000  x9=0x00000000
       43495000	      4348	800018e0	24b24797	auipc	x15,0x24b24	 x15=0xa4b258dc
       43505000	      4349	800018e4	ff7f8f93	addi	x31,x31,-9	 x31:0x0000000a x31=0x00000001
       43515000	      4350	800018e8	ffaff6e3	bgeu	x31,x26,800018d4	 x31:0x00000001 x26:0x0000000a
       43525000	      4351	800018ec	00ddb1b3	sltu	x3,x27,x13	 x27:0x240aa001 x13:0x00000000  x3=0x00000000
       43535000	      4352	800018f0	ffa00313	addi	x6,x0,-6	  x0:0x00000000  x6=0xfffffffa
       43545000	      4353	800018f4	40455613	srai	x12,x10,0x4	 x10:0x00000000 x12=0x00000000
       43555000	      4354	800018f8	00ca7cb3	and	x25,x20,x12	 x20:0x00000004 x12:0x00000000 x25=0x00000000
       43565000	      4355	800018fc	00300093	addi	x1,x0,3	  x0:0x00000000  x1=0x00000003
       43575000	      4356	80001900	0065b033	sltu	x0,x11,x6	 x11:0x00000001  x6:0xfffffffa
       43585000	      4357	80001904	00330313	addi	x6,x6,3	  x6:0xfffffffa  x6=0xfffffffd
       43595000	      4358	80001908	012a8ab3	add	x21,x21,x18	 x21:0x3d082000 x18:0x00000001 x21=0x3d082001
       43605000	      4359	8000190c	006396b3	sll	x13,x7,x6	  x7:0x00000009  x6:0xfffffffd x13=0x20000000
       43615000	      4360	80001910	ff700393	addi	x7,x0,-9	  x0:0x00000000  x7=0xfffffff7
       43625000	      4361	80001914	01dd2633	slt	x12,x26,x29	 x26:0x0000000a x29:0x00000009 x12=0x00000000
       43635000	      4362	80001918	01993f33	sltu	x30,x18,x25	 x18:0x00000001 x25:0x00000000 x30=0x00000000
       43645000	      4363	8000191c	ff900f93	addi	x31,x0,-7	  x0:0x00000000 x31=0xfffffff9
       43655000	      4364	80001920	71efa593	slti	x11,x31,1822	 x31:0xfffffff9 x11=0x00000001
       43665000	      4365	80001924	00a14db3	xor	x27,x2,x10	  x2:0x80009f20 x10:0x00000000 x27=0x80009f20
       43675000	      4366	80001928	7b28f613	andi	x12,x17,1970	 x17:0x00000000 x12=0x00000000
       43685000	      4367	8000192c	00ff49b3	xor	x19,x30,x15	 x30:0x00000000 x15:0xa4b258dc x19=0xa4b258dc
       43695000	      4368	80001930	00238393	addi	x7,x7,2	  x7:0xfffffff7  x7=0xfffffff9
       43705000	      4369	80001934	40d5de93	srai	x29,x11,0xd	 x11:0x00000001 x29=0x00000000
       43715000	      4370	80001938	fff388e3	beq	x7,x31,80001928	  x7:0xfffffff9 x31:0xfffffff9
       43725000	      4371	00000000	00000013	addi	x0,x0,0	  x0:0x00000000
       43735000	      4372	80001924	00000013	addi	x0,x0,0	  x0:0x00000000
       43745000	      4373	80001928	7b28f613	andi	x12,x17,1970	 x17:0x00000000 x12=0x00000000
       43755000	      4374	8000192c	00ff49b3	xor	x19,x30,x15	 x30:0x00000000 x15:0xa4b258dc x19=0xa4b258dc
       43765000	      4375	80001930	00238393	addi	x7,x7,2	  x7:0xfffffff9  x7=0xfffffffb
       43775000	      4376	80001934	40d5de93	srai	x29,x11,0xd	 x11:0x00000001 x29=0x00000000
       43785000	      4377	80001938	fff388e3	beq	x7,x31,80001928	  x7:0xfffffffb x31:0xfffffff9
       43795000	      4378	8000193c	2680e013	ori	x0,x1,616	  x1:0x00000003
       43805000	      4379	80001940	fc1310e3	bne	x6,x1,80001900	  x6:0xfffffffd  x1:0x00000003
       43815000	      4380	00000000	00000013	addi	x0,x0,0	  x0:0x00000000
       43825000	      4381	800018fc	00000013	addi	x0,x0,0	  x0:0x00000000
       43835000	      4382	80001900	0065b033	sltu	x0,x11,x6	 x11:0x00000001  x6:0xfffffffd
       43845000	      4383	80001904	00330313	addi	x6,x6,3	  x6:0xfffffffd  x6=0x00000000
       43855000	      4384	80001908	012a8ab3	add	x21,x21,x18	 x21:0x3d082001 x18:0x00000001 x21=0x3d082002
       43865000	      4385	8000190c	006396b3	sll	x13,x7,x6	  x7:0xfffffffb  x6:0x00000000 x13=0xfffffffb
       43875000	      4386	80001910	ff700393	addi	x7,x0,-9	  x0:0x00000000  x7=0xfffffff7
       43885000	      4387	80001914	01dd2633	slt	x12,x26,x29	 x26:0x0000000a x29:0x00000000 x12=0x00000000
       43895000	      4388	80001918	01993f33	sltu	x30,x18,x25	 x18:0x00000001 x25:0x00000000 x30=0x00000000
       43905000	      4389	8000191c	ff900f93	addi	x31,x0,-7	  x0:0x00000000 x31=0xfffffff9
       43915000	      4390	80001920	71efa593	slti	x11,x31,1822	 x31:0xfffffff9 x11=0x00000001
       43925000	      4391	80001924	00a14db3	xor	x27,x2,x10	  x2:0x80009f20 x10:0x00000000 x27=0x80009f20
       43935000	      4392	80001928	7b28f613	andi	x12,x17,1970	 x17:0x00000000 x12=0x00000000
       43945000	      4393	8000192c	00ff49b3	xor	x19,x30,x15	 x30:0x00000000 x15:0xa4b258dc x19=0xa4b258dc
       43955000	      4394	80001930	00238393	addi	x7,x7,2	  x7:0xfffffff7  x7=0xfffffff9
       43965000	      4395	80001934	40d5de93	srai	x29,x11,0xd	 x11:0x00000001 x29=0x00000000
       43975000	      4396	80001938	fff388e3	beq	x7,x31,80001928	  x7:0xfffffff9 x31:0xfffffff9
       43985000	      4397	00000000	00000013	addi	x0,x0,0	  x0:0x00000000
       43995000	      4398	80001924	00000013	addi	x0,x0,0	  x0:0x00000000
       44005000	      4399	80001928	7b28f613	andi	x12,x17,1970	 x17:0x00000000 x12=0x00000000
       44015000	      4400	8000192c	00ff49b3	xor	x19,x30,x15	 x30:0x00000000 x15:0xa4b258dc x19=0xa4b258dc
       44025000	      4401	80001930	00238393	addi	x7,x7,2	  x7:0xfffffff9  x7=0xfffffffb
       44035000	      4402	80001934	40d5de93	srai	x29,x11,0xd	 x11:0x00000001 x29=0x00000000
       44045000	      4403	80001938	fff388e3	beq	x7,x31,80001928	  x7:0xfffffffb x31:0xfffffff9
       44055000	      4404	8000193c	2680e013	ori	x0,x1,616	  x1:0x00000003
       44065000	      4405	80001940	fc1310e3	bne	x6,x1,80001900	  x6:0x00000000  x1:0x00000003
       44075000	      4406	00000000	00000013	addi	x0,x0,0	  x0:0x00000000
       44085000	      4407	800018fc	00000013	addi	x0,x0,0	  x0:0x00000000
       44095000	      4408	80001900	0065b033	sltu	x0,x11,x6	 x11:0x00000001  x6:0x00000000
       44105000	      4409	80001904	00330313	addi	x6,x6,3	  x6:0x00000000  x6=0x00000003
       44115000	      4410	80001908	012a8ab3	add	x21,x21,x18	 x21:0x3d082002 x18:0x00000001 x21=0x3d082003
       44125000	      4411	8000190c	006396b3	sll	x13,x7,x6	  x7:0xfffffffb  x6:0x00000003 x13=0xffffffd8
       44135000	      4412	80001910	ff700393	addi	x7,x0,-9	  x0:0x00000000  x7=0xfffffff7
       44145000	      4413	80001914	01dd2633	slt	x12,x26,x29	 x26:0x0000000a x29:0x00000000 x12=0x00000000
       44155000	      4414	80001918	01993f33	sltu	x30,x18,x25	 x18:0x00000001 x25:0x00000000 x30=0x00000000
       44165000	      4415	8000191c	ff900f93	addi	x31,x0,-7	  x0:0x00000000 x31=0xfffffff9
       44175000	      4416	80001920	71efa593	slti	x11,x31,1822	 x31:0xfffffff9 x11=0x00000001
       44185000	      4417	80001924	00a14db3	xor	x27,x2,x10	  x2:0x80009f20 x10:0x00000000 x27=0x80009f20
       44195000	      4418	80001928	7b28f613	andi	x12,x17,1970	 x17:0x00000000 x12=0x00000000
       44205000	      4419	8000192c	00ff49b3	xor	x19,x30,x15	 x30:0x00000000 x15:0xa4b258dc x19=0xa4b258dc
       44215000	      4420	80001930	00238393	addi	x7,x7,2	  x7:0xfffffff7  x7=0xfffffff9
       44225000	      4421	80001934	40d5de93	srai	x29,x11,0xd	 x11:0x00000001 x29=0x00000000
       44235000	      4422	80001938	fff388e3	beq	x7,x31,80001928	  x7:0xfffffff9 x31:0xfffffff9
       44245000	      4423	00000000	00000013	addi	x0,x0,0	  x0:0x00000000
       44255000	      4424	80001924	00000013	addi	x0,x0,0	  x0:0x00000000
       44265000	      4425	80001928	7b28f613	andi	x12,x17,1970	 x17:0x00000000 x12=0x00000000
       44275000	      4426	8000192c	00ff49b3	xor	x19,x30,x15	 x30:0x00000000 x15:0xa4b258dc x19=0xa4b258dc
       44285000	      4427	80001930	00238393	addi	x7,x7,2	  x7:0xfffffff9  x7=0xfffffffb
       44295000	      4428	80001934	40d5de93	srai	x29,x11,0xd	 x11:0x00000001 x29=0x00000000
       44305000	      4429	80001938	fff388e3	beq	x7,x31,80001928	  x7:0xfffffffb x31:0xfffffff9
       44315000	      4430	8000193c	2680e013	ori	x0,x1,616	  x1:0x00000003
       44325000	      4431	80001940	fc1310e3	bne	x6,x1,80001900	  x6:0x00000003  x1:0x00000003
       44335000	      4432	80001944	0371f993	andi	x19,x3,55	  x3:0x00000000 x19=0x00000000
       44345000	      4433	80001948	03524263	blt	x4,x21,8000196c	  x4:0x00000001 x21:0x3d082003
       44355000	      4434	00000000	00000013	addi	x0,x0,0	  x0:0x00000000
       44365000	      4435	80001968	00000013	addi	x0,x0,0	  x0:0x00000000
       44375000	      4436	8000196c	40d9d633	sra	x12,x19,x13	 x19:0x00000000 x13:0xffffffd8 x12=0x00000000
       44385000	      4437	80001970	03cf6463	bltu	x30,x28,80001998	 x30:0x00000000 x28:0x00000001
       44395000	      4438	00000000	00000013	addi	x0,x0,0	  x0:0x00000000
       44405000	      4439	80001994	00000013	addi	x0,x0,0	  x0:0x00000000
       44415000	      4440	80001998	01811913	slli	x18,x2,0x18	  x2:0x80009f20 x18=0x20000000
       44425000	      4441	8000199c	41e00033	sub	x0,x0,x30	  x0:0x00000000 x30:0x00000000
       44435000	      4442	800019a0	c6bd2c13	slti	x24,x26,-917	 x26:0x0000000a x24=0x00000000
       44445000	      4443	800019a4	01da2033	slt	x0,x20,x29	 x20:0x00000004 x29:0x00000000
       44455000	      4444	800019a8	971ba717	auipc	x14,0x971ba	 x14=0x171bb9a4
       44465000	      4445	800019ac	41fb5333	sra	x6,x22,x31	 x22:0x00000001 x31:0xfffffff9  x6=0x00000000
       44475000	      4446	800019b0	40f28033	sub	x0,x5,x15	  x5:0x0000000d x15:0xa4b258dc
       44485000	      4447	800019b4	41a80e33	sub	x28,x16,x26	 x16:0x80009fc4 x26:0x0000000a x28=0x80009fba
       44495000	      4448	800019b8	00000013	addi	x0,x0,0	  x0:0x00000000
       44505000	      4449	800019bc	d7f73393	sltiu	x7,x14,-641	 x14:0x171bb9a4  x7=0x00000001
       44515000	      4450	800019c0	ab4af393	andi	x7,x21,-1356	 x21:0x3d082003  x7=0x3d082000
       44525000	      4451	800019c4	01cb4c63	blt	x22,x28,800019dc	 x22:0x00000001 x28:0x80009fba
       44535000	      4452	800019c8	a535ad13	slti	x26,x11,-1453	 x11:0x00000001 x26=0x00000000
       44545000	      4453	800019cc	04357063	bgeu	x10,x3,80001a0c	 x10:0x00000000  x3:0x00000000
       44555000	      4454	00000000	00000013	addi	x0,x0,0	  x0:0x00000000
       44565000	      4455	80001a08	00000013	addi	x0,x0,0	  x0:0x00000000
       44575000	      4456	80001a0c	db323713	sltiu	x14,x4,-589	  x4:0x00000001 x14=0x00000001
       44585000	      4457	80001a10	f514e513	ori	x10,x9,-175	  x9:0x00000000 x10=0xffffff51
       44595000	      4458	80001a14	40fd51b3	sra	x3,x26,x15	 x26:0x00000000 x15:0xa4b258dc  x3=0x00000000
       44605000	      4459	80001a18	3837eb13	ori	x22,x15,899	 x15:0xa4b258dc x22=0xa4b25bdf
       44615000	      4460	80001a1c	00abb433	sltu	x8,x23,x10	 x23:0x8000985b x10:0xffffff51  x8=0x00000001
       44625000	      4461	80001a20	36853693	sltiu	x13,x10,872	 x10:0xffffff51 x13=0x00000000
       44635000	      4462	80001a24	00a6b933	sltu	x18,x13,x10	 x13:0x00000000 x10:0xffffff51 x18=0x00000001
       44645000	      4463	80001a28	0308ca63	blt	x17,x16,80001a5c	 x17:0x00000000 x16:0x80009fc4
       44655000	      4464	80001a2c	ee3c4093	xori	x1,x24,-285	 x24:0x00000000  x1=0xfffffee3
       44665000	      4465	80001a30	f8b14e13	xori	x28,x2,-117	  x2:0x80009f20 x28=0x7fff60ab
       44675000	      4466	80001a34	00cc9b13	slli	x22,x25,0xc	 x25:0x00000000 x22=0x00000000
       44685000	      4467	80001a38	05118263	beq	x3,x17,80001a7c	  x3:0x00000000 x17:0x00000000
       44695000	      4468	00000000	00000013	addi	x0,x0,0	  x0:0x00000000
       44705000	      4469	80001a78	00000013	addi	x0,x0,0	  x0:0x00000000
       44715000	      4470	80001a7c	03265663	bge	x12,x18,80001aa8	 x12:0x00000000 x18:0x00000001
       44725000	      4471	80001a80	01591393	slli	x7,x18,0x15	 x18:0x00000001  x7=0x00200000
       44735000	      4472	80001a84	37580313	addi	x6,x16,885	 x16:0x80009fc4  x6=0x8000a339
       44745000	      4473	80001a88	002d4eb3	xor	x29,x26,x2	 x26:0x00000000  x2:0x80009f20 x29=0x80009f20
       44755000	      4474	80001a8c	002d4bb3	xor	x23,x26,x2	 x26:0x00000000  x2:0x80009f20 x23=0x80009f20
       44765000	      4475	80001a90	6ef1f193	andi	x3,x3,1775	  x3:0x00000000  x3=0x00000000
       44775000	      4476	80001a94	01a15693	srli	x13,x2,0x1a	  x2:0x80009f20 x13=0x00000020
       44785000	      4477	80001a98	412689b3	sub	x19,x13,x18	 x13:0x00000020 x18:0x00000001 x19=0x0000001f
       44795000	      4478	80001a9c	00e319b3	sll	x19,x6,x14	  x6:0x8000a339 x14:0x00000001 x19=0x00014672
       44805000	      4479	80001aa0	d85e7593	andi	x11,x28,-635	 x28:0x7fff60ab x11=0x7fff6081
       44815000	      4480	80001aa4	e0f2cd93	xori	x27,x5,-497	  x5:0x0000000d x27=0xfffffe02
       44825000	      4481	80001aa8	01c21613	slli	x12,x4,0x1c	  x4:0x00000001 x12=0x10000000
       44835000	      4482	80001aac	40430533	sub	x10,x6,x4	  x6:0x8000a339  x4:0x00000001 x10=0x8000a338
       44845000	      4483	80001ab0	00d59593	slli	x11,x11,0xd	 x11:0x7fff6081 x11=0xec102000
       44855000	      4484	80001ab4	33960893	addi	x17,x12,825	 x12:0x10000000 x17=0x10000339
       44865000	      4485	80001ab8	4030dbb3	sra	x23,x1,x3	  x1:0xfffffee3  x3:0x00000000 x23=0xfffffee3
       44875000	      4486	80001abc	91b10413	addi	x8,x2,-1765	  x2:0x80009f20  x8=0x8000983b
       44885000	      4487	80001ac0	025dc063	blt	x27,x5,80001ae0	 x27:0xfffffe02  x5:0x0000000d
       44895000	      4488	00000000	00000013	addi	x0,x0,0	  x0:0x00000000
       44905000	      4489	80001adc	00000013	addi	x0,x0,0	  x0:0x00000000
       44915000	      4490	80001ae0	7d2b2993	slti	x19,x22,2002	 x22:0x00000000 x19=0x00000001
       44925000	      4491	80001ae4	007a5413	srli	x8,x20,0x7	 x20:0x00000004  x8=0x00000000
       44935000	      4492	80001ae8	0105e463	bltu	x11,x16,80001af0	 x11:0xec102000 x16:0x80009fc4
       44945000	      4493	80001aec	401ddd33	sra	x26,x27,x1	 x27:0xfffffe02  x1:0xfffffee3 x26=0xffffffc0
       44955000	      4494	80001af0	01e20d33	add	x26,x4,x30	  x4:0x00000001 x30:0x00000000 x26=0x00000001
       44965000	      4495	80001af4	054dc663	blt	x27,x20,80001b40	 x27:0xfffffe02 x20:0x00000004
       44975000	      4496	00000000	00000013	addi	x0,x0,0	  x0:0x00000000
       44985000	      4497	80001b3c	00000013	addi	x0,x0,0	  x0:0x00000000
       44995000	      4498	80001b40	c1e32f13	slti	x30,x6,-994	  x6:0x8000a339 x30=0x00000001
       45005000	      4499	80001b44	01ca5663	bge	x20,x28,80001b50	 x20:0x00000004 x28:0x7fff60ab
       45015000	      4500	80001b48	03c3f663	bgeu	x7,x28,80001b74	  x7:0x00200000 x28:0x7fff60ab
       45025000	      4501	80001b4c	ae342b13	slti	x22,x8,-1309	  x8:0x00000000 x22=0x00000000
       45035000	      4502	80001b50	6bf7ce93	xori	x29,x15,1727	 x15:0xa4b258dc x29=0xa4b25e63
       45045000	      4503	80001b54	017d4f33	xor	x30,x26,x23	 x26:0x00000001 x23:0xfffffee3 x30=0xfffffee2
       45055000	      4504	80001b58	01f60db3	add	x27,x12,x31	 x12:0x10000000 x31:0xfffffff9 x27=0x0ffffff9
       45065000	      4505	80001b5c	5e3ec793	xori	x15,x29,1507	 x29:0xa4b25e63 x15=0xa4b25b80
       45075000	      4506	80001b60	26942413	slti	x8,x8,617	  x8:0x00000000  x8=0x00000001
       45085000	      4507	80001b64	018bdb13	srli	x22,x23,0x18	 x23:0xfffffee3 x22=0x000000ff
       45095000	      4508	80001b68	01415c63	bge	x2,x20,80001b80	  x2:0x80009f20 x20:0x00000004
       45105000	      4509	80001b6c	01709a93	slli	x21,x1,0x17	  x1:0xfffffee3 x21=0x71800000
       45115000	      4510	80001b70	018591b3	sll	x3,x11,x24	 x11:0xec102000 x24:0x00000000  x3=0xec102000
       45125000	      4511	80001b74	57724d93	xori	x27,x4,1399	  x4:0x00000001 x27=0x00000576
       45135000	      4512	80001b78	0063dbb3	srl	x23,x7,x6	  x7:0x00200000  x6:0x8000a339 x23=0x00000000
       45145000	      4513	80001b7c	b16d2a13	slti	x20,x26,-1258	 x26:0x00000001 x20=0x00000000
       45155000	      4514	80001b80	01b2c6b3	xor	x13,x5,x27	  x5:0x0000000d x27:0x00000576 x13=0x0000057b
       45165000	      4515	80001b84	034c9463	bne	x25,x20,80001bac	 x25:0x00000000 x20:0x00000000
       45175000	      4516	80001b88	40c75a93	srai	x21,x14,0xc	 x14:0x00000001 x21=0x00000000
       45185000	      4517	80001b8c	40f28cb3	sub	x25,x5,x15	  x5:0x0000000d x15:0xa4b25b80 x25=0x5b4da48d
       45195000	      4518	80001b90	01941493	slli	x9,x8,0x19	  x8:0x00000001  x9=0x02000000
       45205000	      4519	80001b94	00000013	addi	x0,x0,0	  x0:0x00000000
       45215000	      4520	80001b98	00c44cb3	xor	x25,x8,x12	  x8:0x00000001 x12:0x10000000 x25=0x10000001
       45225000	      4521	80001b9c	f51ce093	ori	x1,x25,-175	 x25:0x10000001  x1=0xffffff51
       45235000	      4522	80001ba0	0129d863	bge	x19,x18,80001bb0	 x19:0x00000001 x18:0x00000001
       45245000	      4523	00000000	00000013	addi	x0,x0,0	  x0:0x00000000
       45255000	      4524	80001bac	00000013	addi	x0,x0,0	  x0:0x00000000
       45265000	      4525	80001bb0	e9228713	addi	x14,x5,-366	  x5:0x0000000d x14=0xfffffe9f
       45275000	      4526	80001bb4	40bf05b3	sub	x11,x30,x11	 x30:0xfffffee2 x11:0xec102000 x11=0x13efdee2
       45285000	      4527	80001bb8	03ab5663	bge	x22,x26,80001be4	 x22:0x000000ff x26:0x00000001
       45295000	      4528	00000000	00000013	addi	x0,x0,0	  x0:0x00000000
       45305000	      4529	80001be0	00000013	addi	x0,x0,0	  x0:0x00000000
       45315000	      4530	80001be4	00000013	addi	x0,x0,0	  x0:0x00000000
       45325000	      4531	80001be8	895acc13	xori	x24,x21,-1899	 x21:0x00000000 x24=0xfffff895
       45335000	      4532	80001bec	3240a213	slti	x4,x1,804	  x1:0xffffff51  x4=0x00000001
       45345000	      4533	80001bf0	4066d493	srai	x9,x13,0x6	 x13:0x0000057b  x9=0x00000015
       45355000	      4534	80001bf4	9a328f37	lui	x30,0x9a328	 x30=0x9a328000
       45365000	      4535	80001bf8	40f64a13	xori	x20,x12,1039	 x12:0x10000000 x20=0x1000040f
       45375000	      4536	80001bfc	41fa81b3	sub	x3,x21,x31	 x21:0x00000000 x31:0xfffffff9  x3=0x00000007
       45385000	      4537	80001c00	7a12f913	andi	x18,x5,1953	  x5:0x0000000d x18=0x00000001
       45395000	      4538	80001c04	deb2b713	sltiu	x14,x5,-533	  x5:0x0000000d x14=0x00000001
       45405000	      4539	80001c08	46637697	auipc	x13,0x46637	 x13=0xc6638c04
       45415000	      4540	80001c0c	01fc4d33	xor	x26,x24,x31	 x24:0xfffff895 x31:0xfffffff9 x26=0x0000076c
       45425000	      4541	80001c10	84cf3937	lui	x18,0x84cf3	 x18=0x84cf3000
       45435000	      4542	80001c14	41ce56b3	sra	x13,x28,x28	 x28:0x7fff60ab x28:0x7fff60ab x13=0x000fffec
       45445000	      4543	80001c18	000a1f33	sll	x30,x20,x0	 x20:0x1000040f  x0:0x00000000 x30=0x1000040f
       45455000	      4544	80001c1c	00991663	bne	x18,x9,80001c28	 x18:0x84cf3000  x9:0x00000015
       45465000	      4545	00000000	00000013	addi	x0,x0,0	  x0:0x00000000
       45475000	      4546	80001c24	00000013	addi	x0,x0,0	  x0:0x00000000
       45485000	      4547	80001c28	32c4bb17	auipc	x22,0x32c4b	 x22=0xb2c4cc24
       45495000	      4548	80001c2c	34454717	auipc	x14,0x34454	 x14=0xb4455c28
       45505000	      4549	80001c30	2b678e93	addi	x29,x15,694	 x15:0xa4b25b80 x29=0xa4b25e36
       45515000	      4550	80001c34	00000013	addi	x0,x0,0	  x0:0x00000000
       45525000	      4551	80001c38	4058ddb3	sra	x27,x17,x5	 x17:0x10000339  x5:0x0000000d x27=0x00008000
       45535000	      4552	80001c3c	53968393	addi	x7,x13,1337	 x13:0x000fffec  x7=0x00100525
       45545000	      4553	80001c40	06c61663	bne	x12,x12,80001cac	 x12:0x10000000 x12:0x10000000
       45555000	      4554	80001c44	0bdc1063	bne	x24,x29,80001ce4	 x24:0xfffff895 x29:0xa4b25e36
       45565000	      4555	00000000	00000013	addi	x0,x0,0	  x0:0x00000000
       45575000	      4556	80001ce0	00000013	addi	x0,x0,0	  x0:0x00000000
       45585000	      4557	80001ce4	00000013	addi	x0,x0,0	  x0:0x00000000
       45595000	      4558	80001ce8	8198f193	andi	x3,x17,-2023	 x17:0x10000339  x3=0x10000019
       45605000	      4559	80001cec	0d6591b7	lui	x3,0xd659	  x3=0x0d659000
       45615000	      4560	80001cf0	01b05433	srl	x8,x0,x27	  x0:0x00000000 x27:0x00008000  x8=0x00000000
       45625000	      4561	80001cf4	404f81b3	sub	x3,x31,x4	 x31:0xfffffff9  x4:0x00000001  x3=0xfffffff8
       45635000	      4562	80001cf8	017bbf33	sltu	x30,x23,x23	 x23:0x00000000 x23:0x00000000 x30=0x00000000
       45645000	      4563	80001cfc	01e79693	slli	x13,x15,0x1e	 x15:0xa4b25b80 x13=0x00000000
       45655000	      4564	80001d00	08eb4c93	xori	x25,x22,142	 x22:0xb2c4cc24 x25=0xb2c4ccaa
       45665000	      4565	80001d04	00da9a13	slli	x20,x21,0xd	 x21:0x00000000 x20=0x00000000
       45675000	      4566	80001d08	0016b8b3	sltu	x17,x13,x1	 x13:0x00000000  x1:0xffffff51 x17=0x00000001
       45685000	      4567	80001d0c	01e3ceb3	xor	x29,x7,x30	  x7:0x00100525 x30:0x00000000 x29=0x00100525
       45695000	      4568	80001d10	015fd313	srli	x6,x31,0x15	 x31:0xfffffff9  x6=0x000007ff
       45705000	      4569	80001d14	5a177213	andi	x4,x14,1441	 x14:0xb4455c28  x4=0x00000420
       45715000	      4570	80001d18	aafdc513	xori	x10,x27,-1361	 x27:0x00008000 x10=0xffff7aaf
       45725000	      4571	80001d1c	004e3eb3	sltu	x29,x28,x4	 x28:0x7fff60ab  x4:0x00000420 x29=0x00000000
       45735000	      4572	80001d20	40310033	sub	x0,x2,x3	  x2:0x80009f20  x3:0xfffffff8
       45745000	      4573	80001d24	0aa5f593	andi	x11,x11,170	 x11:0x13efdee2 x11=0x000000a2
       45755000	      4574	80001d28	016f9493	slli	x9,x31,0x16	 x31:0xfffffff9  x9=0xfe400000
       45765000	      4575	80001d2c	039c1263	bne	x24,x25,80001d50	 x24:0xfffff895 x25:0xb2c4ccaa
       45775000	      4576	00000000	00000013	addi	x0,x0,0	  x0:0x00000000
       45785000	      4577	80001d4c	00000013	addi	x0,x0,0	  x0:0x00000000
       45795000	      4578	80001d50	b2033f93	sltiu	x31,x6,-1248	  x6:0x000007ff x31=0x00000001
       45805000	      4579	80001d54	0310d663	bge	x1,x17,80001d80	  x1:0xffffff51 x17:0x00000001
       45815000	      4580	80001d58	01cc5513	srli	x10,x24,0x1c	 x24:0xfffff895 x10=0x0000000f
       45825000	      4581	80001d5c	20d9c713	xori	x14,x19,525	 x19:0x00000001 x14=0x0000020c
       45835000	      4582	80001d60	01d61f93	slli	x31,x12,0x1d	 x12:0x10000000 x31=0x00000000
       45845000	      4583	80001d64	45b5e017	auipc	x0,0x45b5e	
       45855000	      4584	80001d68	41ff84b3	sub	x9,x31,x31	 x31:0x00000000 x31:0x00000000  x9=0x00000000
       45865000	      4585	80001d6c	d601dd37	lui	x26,0xd601d	 x26=0xd601d000
       45875000	      4586	80001d70	00000013	addi	x0,x0,0	  x0:0x00000000
       45885000	      4587	80001d74	00000013	addi	x0,x0,0	  x0:0x00000000
       45895000	      4588	80001d78	5df11c97	auipc	x25,0x5df11	 x25=0xddf12d74
       45905000	      4589	80001d7c	00d50f33	add	x30,x10,x13	 x10:0x0000000f x13:0x00000000 x30=0x0000000f
       45915000	      4590	80001d80	00838f33	add	x30,x7,x8	  x7:0x00100525  x8:0x00000000 x30=0x00100525
       45925000	      4591	80001d84	03938863	beq	x7,x25,80001db4	  x7:0x00100525 x25:0xddf12d74
       45935000	      4592	80001d88	8a292e97	auipc	x29,0x8a292	 x29=0x0a293d84
       45945000	      4593	80001d8c	a9bf6413	ori	x8,x30,-1381	 x30:0x00100525  x8=0xffffffbf
       45955000	      4594	80001d90	016b1393	slli	x7,x22,0x16	 x22:0xb2c4cc24  x7=0x09000000
       45965000	      4595	80001d94	8a245b17	auipc	x22,0x8a245	 x22=0x0a246d90
       45975000	      4596	80001d98	013f8863	beq	x31,x19,80001da8	 x31:0x00000000 x19:0x00000001
       45985000	      4597	80001d9c	00945933	srl	x18,x8,x9	  x8:0xffffffbf  x9:0x00000000 x18=0xffffffbf
       45995000	      4598	80001da0	0031b7b3	sltu	x15,x3,x3	  x3:0xfffffff8  x3:0xfffffff8 x15=0x00000000
       46005000	      4599	80001da4	01cd6263	bltu	x26,x28,80001da8	 x26:0xd601d000 x28:0x7fff60ab
       46015000	      4600	80001da8	020f0463	beq	x30,x0,80001dd0	 x30:0x00100525  x0:0x00000000
       46025000	      4601	80001dac	00ef1693	slli	x13,x30,0xe	 x30:0x00100525 x13=0x01494000
       46035000	      4602	80001db0	0171ff33	and	x30,x3,x23	  x3:0xfffffff8 x23:0x00000000 x30=0x00000000
       46045000	      4603	80001db4	d1acf013	andi	x0,x25,-742	 x25:0xddf12d74
       46055000	      4604	80001db8	042c5063	bge	x24,x2,80001df8	 x24:0xfffff895  x2:0x80009f20
       46065000	      4605	00000000	00000013	addi	x0,x0,0	  x0:0x00000000
       46075000	      4606	80001df4	00000013	addi	x0,x0,0	  x0:0x00000000
       46085000	      4607	80001df8	00188733	add	x14,x17,x1	 x17:0x00000001  x1:0xffffff51 x14=0xffffff52
       46095000	      4608	80001dfc	419789b3	sub	x19,x15,x25	 x15:0x00000000 x25:0xddf12d74 x19=0x220ed28c
       46105000	      4609	80001e00	012917b3	sll	x15,x18,x18	 x18:0xffffffbf x18:0xffffffbf x15=0x80000000
       46115000	      4610	80001e04	0068d433	srl	x8,x17,x6	 x17:0x00000001  x6:0x000007ff  x8=0x00000000
       46125000	      4611	80001e08	41de5bb3	sra	x23,x28,x29	 x28:0x7fff60ab x29:0x0a293d84 x23=0x07fff60a
       46135000	      4612	80001e0c	7fa74a13	xori	x20,x14,2042	 x14:0xffffff52 x20=0xfffff8a8
       46145000	      4613	80001e10	fe830513	addi	x10,x6,-24	  x6:0x000007ff x10=0x000007e7
       46155000	      4614	80001e14	04340263	beq	x8,x3,80001e58	  x8:0x00000000  x3:0xfffffff8
       46165000	      4615	80001e18	40015993	srai	x19,x2,0x0	  x2:0x80009f20 x19=0x80009f20
       46175000	      4616	80001e1c	00000013	addi	x0,x0,0	  x0:0x00000000
       46185000	      4617	80001e20	00461393	slli	x7,x12,0x4	 x12:0x10000000  x7=0x00000000
       46195000	      4618	80001e24	03011463	bne	x2,x16,80001e4c	  x2:0x80009f20 x16:0x80009fc4
       46205000	      4619	00000000	00000013	addi	x0,x0,0	  x0:0x00000000
       46215000	      4620	80001e48	00000013	addi	x0,x0,0	  x0:0x00000000
       46225000	      4621	80001e4c	9dd5e213	ori	x4,x11,-1571	 x11:0x000000a2  x4=0xfffff9ff
       46235000	      4622	80001e50	00000013	addi	x0,x0,0	  x0:0x00000000
       46245000	      4623	80001e54	a4aa6237	lui	x4,0xa4aa6	  x4=0xa4aa6000
       46255000	      4624	80001e58	00b68663	beq	x13,x11,80001e64	 x13:0x01494000 x11:0x000000a2
       46265000	      4625	80001e5c	041e6863	bltu	x28,x1,80001eac	 x28:0x7fff60ab  x1:0xffffff51
       46275000	      4626	00000000	00000013	addi	x0,x0,0	  x0:0x00000000
       46285000	      4627	80001ea8	00000013	addi	x0,x0,0	  x0:0x00000000
       46295000	      4628	80001eac	00764e63	blt	x12,x7,80001ec8	 x12:0x10000000  x7:0x00000000
       46305000	      4629	80001eb0	418d5c93	srai	x25,x26,0x18	 x26:0xd601d000 x25=0xffffffd6
       46315000	      4630	80001eb4	016f0db3	add	x27,x30,x22	 x30:0x00000000 x22:0x0a246d90 x27=0x0a246d90
       46325000	      4631	80001eb8	008e14b3	sll	x9,x28,x8	 x28:0x7fff60ab  x8:0x00000000  x9=0x7fff60ab
       46335000	      4632	80001ebc	41735b33	sra	x22,x6,x23	  x6:0x000007ff x23:0x07fff60a x22=0x00000001
       46345000	      4633	80001ec0	03f51a63	bne	x10,x31,80001ef4	 x10:0x000007e7 x31:0x00000000
       46355000	      4634	00000000	00000013	addi	x0,x0,0	  x0:0x00000000
       46365000	      4635	80001ef0	00000013	addi	x0,x0,0	  x0:0x00000000
       46375000	      4636	80001ef4	00000013	addi	x0,x0,0	  x0:0x00000000
       46385000	      4637	80001ef8	414d5693	srai	x13,x26,0x14	 x26:0xd601d000 x13=0xfffffd60
       46395000	      4638	80001efc	013ed793	srli	x15,x29,0x13	 x29:0x0a293d84 x15=0x00000145
       46405000	      4639	80001f00	856bbe93	sltiu	x29,x23,-1962	 x23:0x07fff60a x29=0x00000001
       46415000	      4640	80001f04	03bbe263	bltu	x23,x27,80001f28	 x23:0x07fff60a x27:0x0a246d90
       46425000	      4641	00000000	00000013	addi	x0,x0,0	  x0:0x00000000
       46435000	      4642	80001f24	00000013	addi	x0,x0,0	  x0:0x00000000
       46445000	      4643	80001f28	01065433	srl	x8,x12,x16	 x12:0x10000000 x16:0x80009fc4  x8=0x01000000
       46455000	      4644	80001f2c	3e5a3b13	sltiu	x22,x20,997	 x20:0xfffff8a8 x22=0x00000000
       46465000	      4645	80001f30	40ca5793	srai	x15,x20,0xc	 x20:0xfffff8a8 x15=0xffffffff
       46475000	      4646	80001f34	015c64b3	or	x9,x24,x21	 x24:0xfffff895 x21:0x00000000  x9=0xfffff895
       46485000	      4647	80001f38	03b6c663	blt	x13,x27,80001f64	 x13:0xfffffd60 x27:0x0a246d90
       46495000	      4648	00000000	00000013	addi	x0,x0,0	  x0:0x00000000
       46505000	      4649	80001f60	00000013	addi	x0,x0,0	  x0:0x00000000
       46515000	      4650	80001f64	01a81393	slli	x7,x16,0x1a	 x16:0x80009fc4  x7=0x10000000
       46525000	      4651	80001f68	009ba933	slt	x18,x23,x9	 x23:0x07fff60a  x9:0xfffff895 x18=0x00000000
       46535000	      4652	80001f6c	0bb87993	andi	x19,x16,187	 x16:0x80009fc4 x19=0x00000080
       46545000	      4653	80001f70	007bfeb3	and	x29,x23,x7	 x23:0x07fff60a  x7:0x10000000 x29=0x00000000
       46555000	      4654	80001f74	01395f13	srli	x30,x18,0x13	 x18:0x00000000 x30=0x00000000
       46565000	      4655	80001f78	00641433	sll	x8,x8,x6	  x8:0x01000000  x6:0x000007ff  x8=0x00000000
       46575000	      4656	80001f7c	61b116b7	lui	x13,0x61b11	 x13=0x61b11000
       46585000	      4657	80001f80	018ff663	bgeu	x31,x24,80001f8c	 x31:0x00000000 x24:0xfffff895
       46595000	      4658	80001f84	01cc1b13	slli	x22,x24,0x1c	 x24:0xfffff895 x22=0x50000000
       46605000	      4659	80001f88	01350433	add	x8,x10,x19	 x10:0x000007e7 x19:0x00000080  x8=0x00000867
       46615000	      4660	80001f8c	4cbe7a13	andi	x20,x28,1227	 x28:0x7fff60ab x20=0x0000008b
       46625000	      4661	80001f90	01725233	srl	x4,x4,x23	  x4:0xa4aa6000 x23:0x07fff60a  x4=0x00292a98
       46635000	      4662	80001f94	00000013	addi	x0,x0,0	  x0:0x00000000
       46645000	      4663	80001f98	00a00513	addi	x10,x0,10	  x0:0x00000000 x10=0x0000000a
       46655000	      4664	80001f9c	00d60c13	addi	x24,x12,13	 x12:0x10000000 x24=0x1000000d
       46665000	      4665	80001fa0	014a9d93	slli	x27,x21,0x14	 x21:0x00000000 x27=0x00000000
       46675000	      4666	80001fa4	01400213	addi	x4,x0,20	  x0:0x00000000  x4=0x00000014
       46685000	      4667	80001fa8	00dc0e33	add	x28,x24,x13	 x24:0x1000000d x13:0x61b11000 x28=0x71b1100d
       46695000	      4668	80001fac	38a12413	slti	x8,x2,906	  x2:0x80009f20  x8=0x00000001
       46705000	      4669	80001fb0	000d23b3	slt	x7,x26,x0	 x26:0xd601d000  x0:0x00000000  x7=0x00000001
       46715000	      4670	80001fb4	00750513	addi	x10,x10,7	 x10:0x0000000a x10=0x00000011
       46725000	      4671	80001fb8	d062eb13	ori	x22,x5,-762	  x5:0x0000000d x22=0xfffffd0f
       46735000	      4672	80001fbc	6737c793	xori	x15,x15,1651	 x15:0xffffffff x15=0xfffff98c
       46745000	      4673	80001fc0	00900093	addi	x1,x0,9	  x0:0x00000000  x1=0x00000009
       46755000	      4674	80001fc4	84157a13	andi	x20,x10,-1983	 x10:0x00000011 x20=0x00000001
       46765000	      4675	80001fc8	00800493	addi	x9,x0,8	  x0:0x00000000  x9=0x00000008
       46775000	      4676	80001fcc	392d2013	slti	x0,x26,914	 x26:0xd601d000
       46785000	      4677	80001fd0	f899a313	slti	x6,x19,-119	 x19:0x00000080  x6=0x00000000
       46795000	      4678	80001fd4	05e6bc37	lui	x24,0x5e6b	 x24=0x05e6b000
       46805000	      4679	80001fd8	41270a33	sub	x20,x14,x18	 x14:0xffffff52 x18:0x00000000 x20=0xffffff52
       46815000	      4680	80001fdc	91bac393	xori	x7,x21,-1765	 x21:0x00000000  x7=0xfffff91b
       46825000	      4681	80001fe0	ff908093	addi	x1,x1,-7	  x1:0x00000009  x1=0x00000002
       46835000	      4682	80001fe4	01e8e5b3	or	x11,x17,x30	 x17:0x00000001 x30:0x00000000 x11=0x00000001
       46845000	      4683	80001fe8	419f0a33	sub	x20,x30,x25	 x30:0x00000000 x25:0xffffffd6 x20=0x0000002a
       46855000	      4684	80001fec	00462633	slt	x12,x12,x4	 x12:0x10000000  x4:0x00000014 x12=0x00000000
       46865000	      4685	80001ff0	41c083b3	sub	x7,x1,x28	  x1:0x00000002 x28:0x71b1100d  x7=0x8e4eeff5
       46875000	      4686	80001ff4	bca697b7	lui	x15,0xbca69	 x15=0xbca69000
       46885000	      4687	80001ff8	5749b7b7	lui	x15,0x5749b	 x15=0x5749b000
       46895000	      4688	80001ffc	0178f7b3	and	x15,x17,x23	 x17:0x00000001 x23:0x07fff60a x15=0x00000000
       46905000	      4689	80002000	fc90fce3	bgeu	x1,x9,80001fd8	  x1:0x00000002  x9:0x00000008
       46915000	      4690	80002004	4050d1b3	sra	x3,x1,x5	  x1:0x00000002  x5:0x0000000d  x3=0x00000000
       46925000	      4691	80002008	ba73f793	andi	x15,x7,-1113	  x7:0x8e4eeff5 x15=0x8e4eeba5
       46935000	      4692	8000200c	fa4560e3	bltu	x10,x4,80001fac	 x10:0x00000011  x4:0x00000014
       46945000	      4693	00000000	00000013	addi	x0,x0,0	  x0:0x00000000
       46955000	      4694	80001fa8	00000013	addi	x0,x0,0	  x0:0x00000000
       46965000	      4695	80001fac	38a12413	slti	x8,x2,906	  x2:0x80009f20  x8=0x00000001
       46975000	      4696	80001fb0	000d23b3	slt	x7,x26,x0	 x26:0xd601d000  x0:0x00000000  x7=0x00000001
       46985000	      4697	80001fb4	00750513	addi	x10,x10,7	 x10:0x00000011 x10=0x00000018
       46995000	      4698	80001fb8	d062eb13	ori	x22,x5,-762	  x5:0x0000000d x22=0xfffffd0f
       47005000	      4699	80001fbc	6737c793	xori	x15,x15,1651	 x15:0x8e4eeba5 x15=0x8e4eedd6
       47015000	      4700	80001fc0	00900093	addi	x1,x0,9	  x0:0x00000000  x1=0x00000009
       47025000	      4701	80001fc4	84157a13	andi	x20,x10,-1983	 x10:0x00000018 x20=0x00000000
       47035000	      4702	80001fc8	00800493	addi	x9,x0,8	  x0:0x00000000  x9=0x00000008
       47045000	      4703	80001fcc	392d2013	slti	x0,x26,914	 x26:0xd601d000
       47055000	      4704	80001fd0	f899a313	slti	x6,x19,-119	 x19:0x00000080  x6=0x00000000
       47065000	      4705	80001fd4	05e6bc37	lui	x24,0x5e6b	 x24=0x05e6b000
       47075000	      4706	80001fd8	41270a33	sub	x20,x14,x18	 x14:0xffffff52 x18:0x00000000 x20=0xffffff52
       47085000	      4707	80001fdc	91bac393	xori	x7,x21,-1765	 x21:0x00000000  x7=0xfffff91b
       47095000	      4708	80001fe0	ff908093	addi	x1,x1,-7	  x1:0x00000009  x1=0x00000002
       47105000	      4709	80001fe4	01e8e5b3	or	x11,x17,x30	 x17:0x00000001 x30:0x00000000 x11=0x00000001
       47115000	      4710	80001fe8	419f0a33	sub	x20,x30,x25	 x30:0x00000000 x25:0xffffffd6 x20=0x0000002a
       47125000	      4711	80001fec	00462633	slt	x12,x12,x4	 x12:0x00000000  x4:0x00000014 x12=0x00000001
       47135000	      4712	80001ff0	41c083b3	sub	x7,x1,x28	  x1:0x00000002 x28:0x71b1100d  x7=0x8e4eeff5
       47145000	      4713	80001ff4	bca697b7	lui	x15,0xbca69	 x15=0xbca69000
       47155000	      4714	80001ff8	5749b7b7	lui	x15,0x5749b	 x15=0x5749b000
       47165000	      4715	80001ffc	0178f7b3	and	x15,x17,x23	 x17:0x00000001 x23:0x07fff60a x15=0x00000000
       47175000	      4716	80002000	fc90fce3	bgeu	x1,x9,80001fd8	  x1:0x00000002  x9:0x00000008
       47185000	      4717	80002004	4050d1b3	sra	x3,x1,x5	  x1:0x00000002  x5:0x0000000d  x3=0x00000000
       47195000	      4718	80002008	ba73f793	andi	x15,x7,-1113	  x7:0x8e4eeff5 x15=0x8e4eeba5
       47205000	      4719	8000200c	fa4560e3	bltu	x10,x4,80001fac	 x10:0x00000018  x4:0x00000014
       47215000	      4720	80002010	001147b3	xor	x15,x2,x1	  x2:0x80009f20  x1:0x00000002 x15=0x80009f22
       47225000	      4721	80002014	0967fe93	andi	x29,x15,150	 x15:0x80009f22 x29=0x00000002
       47235000	      4722	80002018	0e51cf13	xori	x30,x3,229	  x3:0x00000000 x30=0x000000e5
       47245000	      4723	8000201c	41965193	srai	x3,x12,0x19	 x12:0x00000001  x3=0x00000000
       47255000	      4724	80002020	5c768a93	addi	x21,x13,1479	 x13:0x61b11000 x21=0x61b115c7
       47265000	      4725	80002024	02dec863	blt	x29,x13,80002054	 x29:0x00000002 x13:0x61b11000
       47275000	      4726	00000000	00000013	addi	x0,x0,0	  x0:0x00000000
       47285000	      4727	80002050	00000013	addi	x0,x0,0	  x0:0x00000000
       47295000	      4728	80002054	4096dcb3	sra	x25,x13,x9	 x13:0x61b11000  x9:0x00000008 x25=0x0061b110
       47305000	      4729	80002058	37802393	slti	x7,x0,888	  x0:0x00000000  x7=0x00000001
       47315000	      4730	8000205c	00d7a3b3	slt	x7,x15,x13	 x15:0x80009f22 x13:0x61b11000  x7=0x00000001
       47325000	      4731	80002060	03f98863	beq	x19,x31,80002090	 x19:0x00000080 x31:0x00000000
       47335000	      4732	80002064	00f1d993	srli	x19,x3,0xf	  x3:0x00000000 x19=0x00000000
       47345000	      4733	80002068	54912097	auipc	x1,0x54912	  x1=0xd4914064
       47355000	      4734	8000206c	7ab63997	auipc	x19,0x7ab63	 x19=0xfab65068
       47365000	      4735	80002070	043dd663	bge	x27,x3,800020bc	 x27:0x00000000  x3:0x00000000
       47375000	      4736	00000000	00000013	addi	x0,x0,0	  x0:0x00000000
       47385000	      4737	800020b8	00000013	addi	x0,x0,0	  x0:0x00000000
       47395000	      4738	800020bc	009cebb3	or	x23,x25,x9	 x25:0x0061b110  x9:0x00000008 x23=0x0061b118
       47405000	      4739	800020c0	0416f263	bgeu	x13,x1,80002104	 x13:0x61b11000  x1:0xd4914064
       47415000	      4740	800020c4	00b9d493	srli	x9,x19,0xb	 x19:0xfab65068  x9=0x001f56ca
       47425000	      4741	800020c8	0197d433	srl	x8,x15,x25	 x15:0x80009f22 x25:0x0061b110  x8=0x00008000
       47435000	      4742	800020cc	0028e933	or	x18,x17,x2	 x17:0x00000001  x2:0x80009f20 x18=0x80009f21
       47445000	      4743	800020d0	b4c66693	ori	x13,x12,-1204	 x12:0x00000001 x13=0xfffffb4d
       47455000	      4744	800020d4	0187c663	blt	x15,x24,800020e0	 x15:0x80009f22 x24:0x05e6b000
       47465000	      4745	00000000	00000013	addi	x0,x0,0	  x0:0x00000000
       47475000	      4746	800020dc	00000013	addi	x0,x0,0	  x0:0x00000000
       47485000	      4747	800020e0	01ef9193	slli	x3,x31,0x1e	 x31:0x00000000  x3=0x00000000
       47495000	      4748	800020e4	0187adb3	slt	x27,x15,x24	 x15:0x80009f22 x24:0x05e6b000 x27=0x00000001
       47505000	      4749	800020e8	04327063	bgeu	x4,x3,80002128	  x4:0x00000014  x3:0x00000000
       47515000	      4750	00000000	00000013	addi	x0,x0,0	  x0:0x00000000
       47525000	      4751	80002124	00000013	addi	x0,x0,0	  x0:0x00000000
       47535000	      4752	80002128	cebde313	ori	x6,x27,-789	 x27:0x00000001  x6=0xfffffceb
       47545000	      4753	8000212c	40ca5533	sra	x10,x20,x12	 x20:0x0000002a x12:0x00000001 x10=0x00000015
       47555000	      4754	80002130	00ce2f33	slt	x30,x28,x12	 x28:0x71b1100d x12:0x00000001 x30=0x00000000
       47565000	      4755	80002134	41fdd713	srai	x14,x27,0x1f	 x27:0x00000001 x14=0x00000000
       47575000	      4756	80002138	37a5a693	slti	x13,x11,890	 x11:0x00000001 x13=0x00000001
       47585000	      4757	8000213c	41208933	sub	x18,x1,x18	  x1:0xd4914064 x18:0x80009f21 x18=0x5490a143
       47595000	      4758	80002140	00f837b3	sltu	x15,x16,x15	 x16:0x80009fc4 x15:0x80009f22 x15=0x00000000
       47605000	      4759	80002144	41d0d733	sra	x14,x1,x29	  x1:0xd4914064 x29:0x00000002 x14=0xf5245019
       47615000	      4760	80002148	01775493	srli	x9,x14,0x17	 x14:0xf5245019  x9=0x000001ea
       47625000	      4761	8000214c	407e58b3	sra	x17,x28,x7	 x28:0x71b1100d  x7:0x00000001 x17=0x38d88806
       47635000	      4762	80002150	00cb8f33	add	x30,x23,x12	 x23:0x0061b118 x12:0x00000001 x30=0x0061b119
       47645000	      4763	80002154	02990663	beq	x18,x9,80002180	 x18:0x5490a143  x9:0x000001ea
       47655000	      4764	80002158	01a626b3	slt	x13,x12,x26	 x12:0x00000001 x26:0xd601d000 x13=0x00000000
       47665000	      4765	8000215c	01b0c733	xor	x14,x1,x27	  x1:0xd4914064 x27:0x00000001 x14=0xd4914065
       47675000	      4766	80002160	053f5663	bge	x30,x19,800021ac	 x30:0x0061b119 x19:0xfab65068
       47685000	      4767	00000000	00000013	addi	x0,x0,0	  x0:0x00000000
       47695000	      4768	800021a8	00000013	addi	x0,x0,0	  x0:0x00000000
       47705000	      4769	800021ac	4e07e7b7	lui	x15,0x4e07e	 x15=0x4e07e000
       47715000	      4770	800021b0	4066d313	srai	x6,x13,0x6	 x13:0x00000000  x6=0x00000000
       47725000	      4771	800021b4	41645913	srai	x18,x8,0x16	  x8:0x00008000 x18=0x00000000
       47735000	      4772	800021b8	0ca7ef13	ori	x30,x15,202	 x15:0x4e07e000 x30=0x4e07e0ca
       47745000	      4773	800021bc	00000013	addi	x0,x0,0	  x0:0x00000000
       47755000	      4774	800021c0	020a4663	blt	x20,x0,800021ec	 x20:0x0000002a  x0:0x00000000
       47765000	      4775	800021c4	66f8f093	andi	x1,x17,1647	 x17:0x38d88806  x1=0x00000006
       47775000	      4776	800021c8	5e7b4237	lui	x4,0x5e7b4	  x4=0x5e7b4000
       47785000	      4777	800021cc	00efda13	srli	x20,x31,0xe	 x31:0x00000000 x20=0x00000000
       47795000	      4778	800021d0	445e6713	ori	x14,x28,1093	 x28:0x71b1100d x14=0x71b1144d
       47805000	      4779	800021d4	00f86c33	or	x24,x16,x15	 x16:0x80009fc4 x15:0x4e07e000 x24=0xce07ffc4
       47815000	      4780	800021d8	40c000b3	sub	x1,x0,x12	  x0:0x00000000 x12:0x00000001  x1=0xffffffff
       47825000	      4781	800021dc	0151e9b3	or	x19,x3,x21	  x3:0x00000000 x21:0x61b115c7 x19=0x61b115c7
       47835000	      4782	800021e0	001b53b3	srl	x7,x22,x1	 x22:0xfffffd0f  x1:0xffffffff  x7=0x00000001
       47845000	      4783	800021e4	98381d37	lui	x26,0x98381	 x26=0x98381000
       47855000	      4784	800021e8	01a79633	sll	x12,x15,x26	 x15:0x4e07e000 x26:0x98381000 x12=0x4e07e000
       47865000	      4785	800021ec	03448863	beq	x9,x20,8000221c	  x9:0x000001ea x20:0x00000000
       47875000	      4786	800021f0	01a72db3	slt	x27,x14,x26	 x14:0x71b1144d x26:0x98381000 x27=0x00000000
       47885000	      4787	800021f4	02968663	beq	x13,x9,80002220	 x13:0x00000000  x9:0x000001ea
       47895000	      4788	800021f8	01c136b3	sltu	x13,x2,x28	  x2:0x80009f20 x28:0x71b1100d x13=0x00000000
       47905000	      4789	800021fc	00ba35b3	sltu	x11,x20,x11	 x20:0x00000000 x11:0x00000001 x11=0x00000001
       47915000	      4790	80002200	00000013	addi	x0,x0,0	  x0:0x00000000
       47925000	      4791	80002204	407e0733	sub	x14,x28,x7	 x28:0x71b1100d  x7:0x00000001 x14=0x71b1100c
       47935000	      4792	80002208	00000013	addi	x0,x0,0	  x0:0x00000000
       47945000	      4793	8000220c	64266c93	ori	x25,x12,1602	 x12:0x4e07e000 x25=0x4e07e642
       47955000	      4794	80002210	00387ab3	and	x21,x16,x3	 x16:0x80009fc4  x3:0x00000000 x21=0x00000000
       47965000	      4795	80002214	00000013	addi	x0,x0,0	  x0:0x00000000
       47975000	      4796	80002218	01d81c13	slli	x24,x16,0x1d	 x16:0x80009fc4 x24=0x80000000
       47985000	      4797	8000221c	a3b7bd93	sltiu	x27,x15,-1477	 x15:0x4e07e000 x27=0x00000001
       47995000	      4798	80002220	00da24b3	slt	x9,x20,x13	 x20:0x00000000 x13:0x00000000  x9=0x00000000
       48005000	      4799	80002224	41625b13	srai	x22,x4,0x16	  x4:0x5e7b4000 x22=0x00000179
       48015000	      4800	80002228	8febbe93	sltiu	x29,x23,-1794	 x23:0x0061b118 x29=0x00000001
       48025000	      4801	8000222c	00cb8433	add	x8,x23,x12	 x23:0x0061b118 x12:0x4e07e000  x8=0x4e699118
       48035000	      4802	80002230	00000013	addi	x0,x0,0	  x0:0x00000000
       48045000	      4803	80002234	00e935b3	sltu	x11,x18,x14	 x18:0x00000000 x14:0x71b1100c x11=0x00000001
       48055000	      4804	80002238	010ae533	or	x10,x21,x16	 x21:0x00000000 x16:0x80009fc4 x10=0x80009fc4
       48065000	      4805	8000223c	02909063	bne	x1,x9,8000225c	  x1:0xffffffff  x9:0x00000000
       48075000	      4806	00000000	00000013	addi	x0,x0,0	  x0:0x00000000
       48085000	      4807	80002258	00000013	addi	x0,x0,0	  x0:0x00000000
       48095000	      4808	8000225c	d8b5d6b7	lui	x13,0xd8b5d	 x13=0xd8b5d000
       48105000	      4809	80002260	7a029b37	lui	x22,0x7a029	 x22=0x7a029000
       48115000	      4810	80002264	011e7c33	and	x24,x28,x17	 x28:0x71b1100d x17:0x38d88806 x24=0x30900004
       48125000	      4811	80002268	2734b093	sltiu	x1,x9,627	  x9:0x00000000  x1=0x00000001
       48135000	      4812	8000226c	0532f263	bgeu	x5,x19,800022b0	  x5:0x0000000d x19:0x61b115c7
       48145000	      4813	80002270	02721463	bne	x4,x7,80002298	  x4:0x5e7b4000  x7:0x00000001
       48155000	      4814	00000000	00000013	addi	x0,x0,0	  x0:0x00000000
       48165000	      4815	80002294	00000013	addi	x0,x0,0	  x0:0x00000000
       48175000	      4816	80002298	17de4413	xori	x8,x28,381	 x28:0x71b1100d  x8=0x71b11170
       48185000	      4817	8000229c	01ab9313	slli	x6,x23,0x1a	 x23:0x0061b118  x6=0x60000000
       48195000	      4818	800022a0	c8ff8393	addi	x7,x31,-881	 x31:0x00000000  x7=0xfffffc8f
       48205000	      4819	800022a4	41abd493	srai	x9,x23,0x1a	 x23:0x0061b118  x9=0x00000000
       48215000	      4820	800022a8	0196d413	srli	x8,x13,0x19	 x13:0xd8b5d000  x8=0x0000006c
       48225000	      4821	800022ac	01335f13	srli	x30,x6,0x13	  x6:0x60000000 x30=0x00000c00
       48235000	      4822	800022b0	00e59f93	slli	x31,x11,0xe	 x11:0x00000001 x31=0x00004000
       48245000	      4823	800022b4	01dc9db3	sll	x27,x25,x29	 x25:0x4e07e642 x29:0x00000001 x27=0x9c0fcc84
       48255000	      4824	800022b8	0065d263	bge	x11,x6,800022bc	 x11:0x00000001  x6:0x60000000
       48265000	      4825	800022bc	014557b3	srl	x15,x10,x20	 x10:0x80009fc4 x20:0x00000000 x15=0x80009fc4
       48275000	      4826	800022c0	4d77dc37	lui	x24,0x4d77d	 x24=0x4d77d000
       48285000	      4827	800022c4	0b6bf513	andi	x10,x23,182	 x23:0x0061b118 x10=0x00000010
       48295000	      4828	800022c8	01c5a7b3	slt	x15,x11,x28	 x11:0x00000001 x28:0x71b1100d x15=0x00000001
       48305000	      4829	800022cc	b7b7fb13	andi	x22,x15,-1157	 x15:0x00000001 x22=0x00000001
       48315000	      4830	800022d0	00149b33	sll	x22,x9,x1	  x9:0x00000000  x1:0x00000001 x22=0x00000000
       48325000	      4831	800022d4	0145c4b3	xor	x9,x11,x20	 x11:0x00000001 x20:0x00000000  x9=0x00000001
       48335000	      4832	800022d8	0073dab3	srl	x21,x7,x7	  x7:0xfffffc8f  x7:0xfffffc8f x21=0x0001ffff
       48345000	      4833	800022dc	ebcae093	ori	x1,x21,-324	 x21:0x0001ffff  x1=0xffffffff
       48355000	      4834	800022e0	417cd4b3	sra	x9,x25,x23	 x25:0x4e07e642 x23:0x0061b118  x9=0x0000004e
       48365000	      4835	800022e4	00000013	addi	x0,x0,0	  x0:0x00000000
       48375000	      4836	800022e8	fa520313	addi	x6,x4,-91	  x4:0x5e7b4000  x6=0x5e7b3fa5
       48385000	      4837	800022ec	01caa4b3	slt	x9,x21,x28	 x21:0x0001ffff x28:0x71b1100d  x9=0x00000001
       48395000	      4838	800022f0	00d56463	bltu	x10,x13,800022f8	 x10:0x00000010 x13:0xd8b5d000
       48405000	      4839	00000000	00000013	addi	x0,x0,0	  x0:0x00000000
       48415000	      4840	800022f4	00000013	addi	x0,x0,0	  x0:0x00000000
       48425000	      4841	800022f8	1e180c93	addi	x25,x16,481	 x16:0x80009fc4 x25=0x8000a1a5
       48435000	      4842	800022fc	412f5d13	srai	x26,x30,0x12	 x30:0x00000c00 x26=0x00000000
       48445000	      4843	80002300	012f6ab3	or	x21,x30,x18	 x30:0x00000c00 x18:0x00000000 x21=0x00000c00
       48455000	      4844	80002304	05a48863	beq	x9,x26,80002354	  x9:0x00000001 x26:0x00000000
       48465000	      4845	80002308	01c09d93	slli	x27,x1,0x1c	  x1:0xffffffff x27=0xf0000000
       48475000	      4846	8000230c	01e74eb3	xor	x29,x14,x30	 x14:0x71b1100c x30:0x00000c00 x29=0x71b11c0c
       48485000	      4847	80002310	00f84f33	xor	x30,x16,x15	 x16:0x80009fc4 x15:0x00000001 x30=0x80009fc5
       48495000	      4848	80002314	010fd033	srl	x0,x31,x16	 x31:0x00004000 x16:0x80009fc4
       48505000	      4849	80002318	00b73ab3	sltu	x21,x14,x11	 x14:0x71b1100c x11:0x00000001 x21=0x00000000
       48515000	      4850	8000231c	02a26a63	bltu	x4,x10,80002350	  x4:0x5e7b4000 x10:0x00000010
       48525000	      4851	80002320	be8e3513	sltiu	x10,x28,-1048	 x28:0x71b1100d x10=0x00000001
       48535000	      4852	80002324	00247bb3	and	x23,x8,x2	  x8:0x0000006c  x2:0x80009f20 x23=0x00000020
       48545000	      4853	80002328	003730b3	sltu	x1,x14,x3	 x14:0x71b1100c  x3:0x00000000  x1=0x00000000
       48555000	      4854	8000232c	00000013	addi	x0,x0,0	  x0:0x00000000
       48565000	      4855	80002330	5117f593	andi	x11,x15,1297	 x15:0x00000001 x11=0x00000001
       48575000	      4856	80002334	9c902b13	slti	x22,x0,-1591	  x0:0x00000000 x22=0x00000000
       48585000	      4857	80002338	41e65933	sra	x18,x12,x30	 x12:0x4e07e000 x30:0x80009fc5 x18=0x02703f00
       48595000	      4858	8000233c	8b2ce617	auipc	x12,0x8b2ce	 x12=0x0b2d0338
       48605000	      4859	80002340	008f6633	or	x12,x30,x8	 x30:0x80009fc5  x8:0x0000006c x12=0x80009fed
       48615000	      4860	80002344	000cb333	sltu	x6,x25,x0	 x25:0x8000a1a5  x0:0x00000000  x6=0x00000000
       48625000	      4861	80002348	1448fa37	lui	x20,0x1448f	 x20=0x1448f000
       48635000	      4862	8000234c	052bc663	blt	x23,x18,80002398	 x23:0x00000020 x18:0x02703f00
       48645000	      4863	00000000	00000013	addi	x0,x0,0	  x0:0x00000000
       48655000	      4864	80002394	00000013	addi	x0,x0,0	  x0:0x00000000
       48665000	      4865	80002398	62412f97	auipc	x31,0x62412	 x31=0xe2414394
       48675000	      4866	8000239c	412e5e33	sra	x28,x28,x18	 x28:0x71b1100d x18:0x02703f00 x28=0x71b1100d
       48685000	      4867	800023a0	03fcc863	blt	x25,x31,800023d0	 x25:0x8000a1a5 x31:0xe2414394
       48695000	      4868	00000000	00000013	addi	x0,x0,0	  x0:0x00000000
       48705000	      4869	800023cc	00000013	addi	x0,x0,0	  x0:0x00000000
       48715000	      4870	800023d0	5cde6993	ori	x19,x28,1485	 x28:0x71b1100d x19=0x71b115cd
       48725000	      4871	800023d4	00525e93	srli	x29,x4,0x5	  x4:0x5e7b4000 x29=0x02f3da00
       48735000	      4872	800023d8	015dadb3	slt	x27,x27,x21	 x27:0xf0000000 x21:0x00000000 x27=0x00000001
       48745000	      4873	800023dc	40fcddb3	sra	x27,x25,x15	 x25:0x8000a1a5 x15:0x00000001 x27=0xc00050d2
       48755000	      4874	800023e0	01292433	slt	x8,x18,x18	 x18:0x02703f00 x18:0x02703f00  x8=0x00000000
       48765000	      4875	800023e4	01ce20b3	slt	x1,x28,x28	 x28:0x71b1100d x28:0x71b1100d  x1=0x00000000
       48775000	      4876	800023e8	470eba93	sltiu	x21,x29,1136	 x29:0x02f3da00 x21=0x00000000
       48785000	      4877	800023ec	49313793	sltiu	x15,x2,1171	  x2:0x80009f20 x15=0x00000000
       48795000	      4878	800023f0	25223413	sltiu	x8,x4,594	  x4:0x5e7b4000  x8=0x00000000
       48805000	      4879	800023f4	0249c463	blt	x19,x4,8000241c	 x19:0x71b115cd  x4:0x5e7b4000
       48815000	      4880	800023f8	00d08fb3	add	x31,x1,x13	  x1:0x00000000 x13:0xd8b5d000 x31=0xd8b5d000
       48825000	      4881	800023fc	01b05db3	srl	x27,x0,x27	  x0:0x00000000 x27:0xc00050d2 x27=0x00000000
       48835000	      4882	80002400	00a64e63	blt	x12,x10,8000241c	 x12:0x80009fed x10:0x00000001
       48845000	      4883	00000000	00000013	addi	x0,x0,0	  x0:0x00000000
       48855000	      4884	80002418	00000013	addi	x0,x0,0	  x0:0x00000000
       48865000	      4885	8000241c	017c1913	slli	x18,x24,0x17	 x24:0x4d77d000 x18=0x00000000
       48875000	      4886	80002420	416a8fb3	sub	x31,x21,x22	 x21:0x00000000 x22:0x00000000 x31=0x00000000
       48885000	      4887	80002424	407c51b3	sra	x3,x24,x7	 x24:0x4d77d000  x7:0xfffffc8f  x3=0x00009aef
       48895000	      4888	80002428	017229b3	slt	x19,x4,x23	  x4:0x5e7b4000 x23:0x00000020 x19=0x00000000
       48905000	      4889	8000242c	02935263	bge	x6,x9,80002450	  x6:0x00000000  x9:0x00000001
       48915000	      4890	80002430	494e7313	andi	x6,x28,1172	 x28:0x71b1100d  x6=0x00000004
       48925000	      4891	80002434	2a3bb417	auipc	x8,0x2a3bb	  x8=0xaa3bd430
       48935000	      4892	80002438	01b623b3	slt	x7,x12,x27	 x12:0x80009fed x27:0x00000000  x7=0x00000001
       48945000	      4893	8000243c	41f65a33	sra	x20,x12,x31	 x12:0x80009fed x31:0x00000000 x20=0x80009fed
       48955000	      4894	80002440	fa862e13	slti	x28,x12,-88	 x12:0x80009fed x28=0x00000001
       48965000	      4895	80002444	01b2ac33	slt	x24,x5,x27	  x5:0x0000000d x27:0x00000000 x24=0x00000000
       48975000	      4896	80002448	01571c33	sll	x24,x14,x21	 x14:0x71b1100c x21:0x00000000 x24=0x71b1100c
       48985000	      4897	8000244c	019e9bb3	sll	x23,x29,x25	 x29:0x02f3da00 x25:0x8000a1a5 x23=0x5e7b4000
       48995000	      4898	80002450	3e6ee197	auipc	x3,0x3e6ee	  x3=0xbe6f044c
       49005000	      4899	80002454	0002e6b3	or	x13,x5,x0	  x5:0x0000000d  x0:0x00000000 x13=0x0000000d
       49015000	      4900	80002458	012fd433	srl	x8,x31,x18	 x31:0x00000000 x18:0x00000000  x8=0x00000000
       49025000	      4901	8000245c	6a112313	slti	x6,x2,1697	  x2:0x80009f20  x6=0x00000001
       49035000	      4902	80002460	6fb8b997	auipc	x19,0x6fb8b	 x19=0xefb8d45c
       49045000	      4903	80002464	0091c033	xor	x0,x3,x9	  x3:0xbe6f044c  x9:0x00000001
       49055000	      4904	80002468	0169c733	xor	x14,x19,x22	 x19:0xefb8d45c x22:0x00000000 x14=0xefb8d45c
       49065000	      4905	8000246c	41a88a33	sub	x20,x17,x26	 x17:0x38d88806 x26:0x00000000 x20=0x38d88806
       49075000	      4906	80002470	41e05f93	srai	x31,x0,0x1e	  x0:0x00000000 x31=0x00000000
       49085000	      4907	80002474	015bedb3	or	x27,x23,x21	 x23:0x5e7b4000 x21:0x00000000 x27=0x5e7b4000
       49095000	      4908	80002478	2d884793	xori	x15,x16,728	 x16:0x80009fc4 x15=0x80009d1c
       49105000	      4909	8000247c	01e06663	bltu	x0,x30,80002488	  x0:0x00000000 x30:0x80009fc5
       49115000	      4910	00000000	00000013	addi	x0,x0,0	  x0:0x00000000
       49125000	      4911	80002484	00000013	addi	x0,x0,0	  x0:0x00000000
       49135000	      4912	80002488	400bd493	srai	x9,x23,0x0	 x23:0x5e7b4000  x9=0x5e7b4000
       49145000	      4913	8000248c	003a0e63	beq	x20,x3,800024a8	 x20:0x38d88806  x3:0xbe6f044c
       49155000	      4914	80002490	0567e263	bltu	x15,x22,800024d4	 x15:0x80009d1c x22:0x00000000
       49165000	      4915	80002494	41045993	srai	x19,x8,0x10	  x8:0x00000000 x19=0x00000000
       49175000	      4916	80002498	00379263	bne	x15,x3,8000249c	 x15:0x80009d1c  x3:0xbe6f044c
       49185000	      4917	00000000	00000013	addi	x0,x0,0	  x0:0x00000000
       49195000	      4918	80002498	00000013	addi	x0,x0,0	  x0:0x00000000
       49205000	      4919	8000249c	c6f7f093	andi	x1,x15,-913	 x15:0x80009d1c  x1=0x80009c0c
       49215000	      4920	800024a0	01974533	xor	x10,x14,x25	 x14:0xefb8d45c x25:0x8000a1a5 x10=0x6fb875f9
       49225000	      4921	800024a4	00f51e33	sll	x28,x10,x15	 x10:0x6fb875f9 x15:0x80009d1c x28=0x90000000
       49235000	      4922	800024a8	01c25f93	srli	x31,x4,0x1c	  x4:0x5e7b4000 x31=0x00000005
       49245000	      4923	800024ac	4020d9b3	sra	x19,x1,x2	  x1:0x80009c0c  x2:0x80009f20 x19=0x80009c0c
       49255000	      4924	800024b0	00bc5e93	srli	x29,x24,0xb	 x24:0x71b1100c x29=0x000e3622
       49265000	      4925	800024b4	01e917b3	sll	x15,x18,x30	 x18:0x00000000 x30:0x80009fc5 x15=0x00000000
       49275000	      4926	800024b8	01425993	srli	x19,x4,0x14	  x4:0x5e7b4000 x19=0x000005e7
       49285000	      4927	800024bc	016ae3b3	or	x7,x21,x22	 x21:0x00000000 x22:0x00000000  x7=0x00000000
       49295000	      4928	800024c0	01c9e7b3	or	x15,x19,x28	 x19:0x000005e7 x28:0x90000000 x15=0x900005e7
       49305000	      4929	800024c4	01cc0db3	add	x27,x24,x28	 x24:0x71b1100c x28:0x90000000 x27=0x01b1100c
       49315000	      4930	800024c8	008bfe33	and	x28,x23,x8	 x23:0x5e7b4000  x8:0x00000000 x28=0x00000000
       49325000	      4931	800024cc	c1296a93	ori	x21,x18,-1006	 x18:0x00000000 x21=0xfffffc12
       49335000	      4932	800024d0	00c04333	xor	x6,x0,x12	  x0:0x00000000 x12:0x80009fed  x6=0x80009fed
       49345000	      4933	800024d4	011845b3	xor	x11,x16,x17	 x16:0x80009fc4 x17:0x38d88806 x11=0xb8d817c2
       49355000	      4934	800024d8	7eb3cc93	xori	x25,x7,2027	  x7:0x00000000 x25=0x000007eb
       49365000	      4935	800024dc	00d4a6b3	slt	x13,x9,x13	  x9:0x5e7b4000 x13:0x0000000d x13=0x00000000
       49375000	      4936	800024e0	dc078493	addi	x9,x15,-576	 x15:0x900005e7  x9=0x900003a7
       49385000	      4937	800024e4	ba934537	lui	x10,0xba934	 x10=0xba934000
       49395000	      4938	800024e8	403a3f93	sltiu	x31,x20,1027	 x20:0x38d88806 x31=0x00000000
       49405000	      4939	800024ec	00480c63	beq	x16,x4,80002504	 x16:0x80009fc4  x4:0x5e7b4000
       49415000	      4940	800024f0	4e4ea913	slti	x18,x29,1252	 x29:0x000e3622 x18=0x00000000
       49425000	      4941	800024f4	41530d33	sub	x26,x6,x21	  x6:0x80009fed x21:0xfffffc12 x26=0x8000a3db
       49435000	      4942	800024f8	41dfdd93	srai	x27,x31,0x1d	 x31:0x00000000 x27=0x00000000
       49445000	      4943	800024fc	02616263	bltu	x2,x6,80002520	  x2:0x80009f20  x6:0x80009fed
       49455000	      4944	00000000	00000013	addi	x0,x0,0	  x0:0x00000000
       49465000	      4945	8000251c	00000013	addi	x0,x0,0	  x0:0x00000000
       49475000	      4946	80002520	00158c63	beq	x11,x1,80002538	 x11:0xb8d817c2  x1:0x80009c0c
       49485000	      4947	80002524	cf7c8e93	addi	x29,x25,-777	 x25:0x000007eb x29=0x000004e2
       49495000	      4948	80002528	02ded063	bge	x29,x13,80002548	 x29:0x000004e2 x13:0x00000000
       49505000	      4949	00000000	00000013	addi	x0,x0,0	  x0:0x00000000
       49515000	      4950	80002544	00000013	addi	x0,x0,0	  x0:0x00000000
       49525000	      4951	80002548	1f4aa993	slti	x19,x21,500	 x21:0xfffffc12 x19=0x00000001
       49535000	      4952	8000254c	02cac663	blt	x21,x12,80002578	 x21:0xfffffc12 x12:0x80009fed
       49545000	      4953	80002550	01cb10b3	sll	x1,x22,x28	 x22:0x00000000 x28:0x00000000  x1=0x00000000
       49555000	      4954	80002554	00b31893	slli	x17,x6,0xb	  x6:0x80009fed x17=0x04ff6800
       49565000	      4955	80002558	97549417	auipc	x8,0x97549	  x8=0x1754b554
       49575000	      4956	8000255c	0ac52913	slti	x18,x10,172	 x10:0xba934000 x18=0x00000001
       49585000	      4957	80002560	8b157e93	andi	x29,x10,-1871	 x10:0xba934000 x29=0xba934000
       49595000	      4958	80002564	002abdb3	sltu	x27,x21,x2	 x21:0xfffffc12  x2:0x80009f20 x27=0x00000000
       49605000	      4959	80002568	03edf263	bgeu	x27,x30,8000258c	 x27:0x00000000 x30:0x80009fc5
       49615000	      4960	8000256c	00000013	addi	x0,x0,0	  x0:0x00000000
       49625000	      4961	80002570	01634c63	blt	x6,x22,80002588	  x6:0x80009fed x22:0x00000000
       49635000	      4962	00000000	00000013	addi	x0,x0,0	  x0:0x00000000
       49645000	      4963	80002584	00000013	addi	x0,x0,0	  x0:0x00000000
       49655000	      4964	80002588	03b45863	bge	x8,x27,800025b8	  x8:0x1754b554 x27:0x00000000
       49665000	      4965	00000000	00000013	addi	x0,x0,0	  x0:0x00000000
       49675000	      4966	800025b4	00000013	addi	x0,x0,0	  x0:0x00000000
       49685000	      4967	800025b8	043a9863	bne	x21,x3,80002608	 x21:0xfffffc12  x3:0xbe6f044c
       49695000	      4968	00000000	00000013	addi	x0,x0,0	  x0:0x00000000
       49705000	      4969	80002604	00000013	addi	x0,x0,0	  x0:0x00000000
       49715000	      4970	80002608	403d5d93	srai	x27,x26,0x3	 x26:0x8000a3db x27=0xf000147b
       49725000	      4971	8000260c	76037e13	andi	x28,x6,1888	  x6:0x80009fed x28=0x00000760
       49735000	      4972	80002610	0537e063	bltu	x15,x19,80002650	 x15:0x900005e7 x19:0x00000001
       49745000	      4973	80002614	00319493	slli	x9,x3,0x3	  x3:0xbe6f044c  x9=0xf3782260
       49755000	      4974	80002618	bfc97f93	andi	x31,x18,-1028	 x18:0x00000001 x31=0x00000000
       49765000	      4975	8000261c	00000013	addi	x0,x0,0	  x0:0x00000000
       49775000	      4976	80002620	014967b3	or	x15,x18,x20	 x18:0x00000001 x20:0x38d88806 x15=0x38d88807
       49785000	      4977	80002624	0083a933	slt	x18,x7,x8	  x7:0x00000000  x8:0x1754b554 x18=0x00000001
       49795000	      4978	80002628	0114c663	blt	x9,x17,80002634	  x9:0xf3782260 x17:0x04ff6800
       49805000	      4979	00000000	00000013	addi	x0,x0,0	  x0:0x00000000
       49815000	      4980	80002630	00000013	addi	x0,x0,0	  x0:0x00000000
       49825000	      4981	80002634	a0017213	andi	x4,x2,-1536	  x2:0x80009f20  x4=0x80009a00
       49835000	      4982	80002638	22b9dfb7	lui	x31,0x22b9d	 x31=0x22b9d000
       49845000	      4983	8000263c	407509b3	sub	x19,x10,x7	 x10:0xba934000  x7:0x00000000 x19=0xba934000
       49855000	      4984	80002640	00276fb3	or	x31,x14,x2	 x14:0xefb8d45c  x2:0x80009f20 x31=0xefb8df7c
       49865000	      4985	80002644	8505b393	sltiu	x7,x11,-1968	 x11:0xb8d817c2  x7=0x00000001
       49875000	      4986	80002648	016a5893	srli	x17,x20,0x16	 x20:0x38d88806 x17=0x000000e3
       49885000	      4987	8000264c	003f4b33	xor	x22,x30,x3	 x30:0x80009fc5  x3:0xbe6f044c x22=0x3e6f9b89
       49895000	      4988	80002650	00698b33	add	x22,x19,x6	 x19:0xba934000  x6:0x80009fed x22=0x3a93dfed
       49905000	      4989	80002654	01845db3	srl	x27,x8,x24	  x8:0x1754b554 x24:0x71b1100c x27=0x0001754b
       49915000	      4990	80002658	93e553b7	lui	x7,0x93e55	  x7=0x93e55000
       49925000	      4991	8000265c	416054b3	sra	x9,x0,x22	  x0:0x00000000 x22:0x3a93dfed  x9=0x00000000
       49935000	      4992	80002660	0162aab3	slt	x21,x5,x22	  x5:0x0000000d x22:0x3a93dfed x21=0x00000001
       49945000	      4993	80002664	01355693	srli	x13,x10,0x13	 x10:0xba934000 x13=0x00001752
       49955000	      4994	80002668	022b7863	bgeu	x22,x2,80002698	 x22:0x3a93dfed  x2:0x80009f20
       49965000	      4995	8000266c	40c28cb3	sub	x25,x5,x12	  x5:0x0000000d x12:0x80009fed x25=0x7fff6020
       49975000	      4996	80002670	00503bb3	sltu	x23,x0,x5	  x0:0x00000000  x5:0x0000000d x23=0x00000001
       49985000	      4997	80002674	c380a6b7	lui	x13,0xc380a	 x13=0xc380a000
       49995000	      4998	80002678	01709863	bne	x1,x23,80002688	  x1:0x00000000 x23:0x00000001
       50005000	      4999	00000000	00000013	addi	x0,x0,0	  x0:0x00000000
       50015000	      5000	80002684	00000013	addi	x0,x0,0	  x0:0x00000000
       50025000	      5001	80002688	002494b3	sll	x9,x9,x2	  x9:0x00000000  x2:0x80009f20  x9=0x00000000
       50035000	      5002	8000268c	f4214f97	auipc	x31,0xf4214	 x31=0x74216688
       50045000	      5003	80002690	00ae5a13	srli	x20,x28,0xa	 x28:0x00000760 x20=0x00000001
       50055000	      5004	80002694	03bcd463	bge	x25,x27,800026bc	 x25:0x7fff6020 x27:0x0001754b
       50065000	      5005	00000000	00000013	addi	x0,x0,0	  x0:0x00000000
       50075000	      5006	800026b8	00000013	addi	x0,x0,0	  x0:0x00000000
       50085000	      5007	800026bc	01be35b3	sltu	x11,x28,x27	 x28:0x00000760 x27:0x0001754b x11=0x00000001
       50095000	      5008	800026c0	40a55613	srai	x12,x10,0xa	 x10:0xba934000 x12=0xffeea4d0
       50105000	      5009	800026c4	016080b3	add	x1,x1,x22	  x1:0x00000000 x22:0x3a93dfed  x1=0x3a93dfed
       50115000	      5010	800026c8	0069df33	srl	x30,x19,x6	 x19:0xba934000  x6:0x80009fed x30=0x0005d49a
       50125000	      5011	800026cc	002d6463	bltu	x26,x2,800026d4	 x26:0x8000a3db  x2:0x80009f20
       50135000	      5012	800026d0	c1e22893	slti	x17,x4,-994	  x4:0x80009a00 x17=0x00000001
       50145000	      5013	800026d4	70b50c13	addi	x24,x10,1803	 x10:0xba934000 x24=0xba93470b
       50155000	      5014	800026d8	00000013	addi	x0,x0,0	  x0:0x00000000
       50165000	      5015	800026dc	01877e33	and	x28,x14,x24	 x14:0xefb8d45c x24:0xba93470b x28=0xaa904408
       50175000	      5016	800026e0	014254b3	srl	x9,x4,x20	  x4:0x80009a00 x20:0x00000001  x9=0x40004d00
       50185000	      5017	800026e4	00000013	addi	x0,x0,0	  x0:0x00000000
       50195000	      5018	800026e8	04ce2213	slti	x4,x28,76	 x28:0xaa904408  x4=0x00000001
       50205000	      5019	800026ec	012c1ab3	sll	x21,x24,x18	 x24:0xba93470b x18:0x00000001 x21=0x75268e16
       50215000	      5020	800026f0	48a96b13	ori	x22,x18,1162	 x18:0x00000001 x22=0x0000048b
       50225000	      5021	800026f4	00d30e63	beq	x6,x13,80002710	  x6:0x80009fed x13:0xc380a000
       50235000	      5022	800026f8	34143737	lui	x14,0x34143	 x14=0x34143000
       50245000	      5023	800026fc	030fd863	bge	x31,x16,8000272c	 x31:0x74216688 x16:0x80009fc4
       50255000	      5024	00000000	00000013	addi	x0,x0,0	  x0:0x00000000
       50265000	      5025	80002728	00000013	addi	x0,x0,0	  x0:0x00000000
       50275000	      5026	8000272c	016601b3	add	x3,x12,x22	 x12:0xffeea4d0 x22:0x0000048b  x3=0xffeea95b
       50285000	      5027	80002730	0316da63	bge	x13,x17,80002764	 x13:0xc380a000 x17:0x00000001
       50295000	      5028	80002734	02e09463	bne	x1,x14,8000275c	  x1:0x3a93dfed x14:0x34143000
       50305000	      5029	00000000	00000013	addi	x0,x0,0	  x0:0x00000000
       50315000	      5030	80002758	00000013	addi	x0,x0,0	  x0:0x00000000
       50325000	      5031	8000275c	46791337	lui	x6,0x46791	  x6=0x46791000
       50335000	      5032	80002760	01178c33	add	x24,x15,x17	 x15:0x38d88807 x17:0x00000001 x24=0x38d88808
       50345000	      5033	80002764	038b6663	bltu	x22,x24,80002790	 x22:0x0000048b x24:0x38d88808
       50355000	      5034	00000000	00000013	addi	x0,x0,0	  x0:0x00000000
       50365000	      5035	8000278c	00000013	addi	x0,x0,0	  x0:0x00000000
       50375000	      5036	80002790	00330863	beq	x6,x3,800027a0	  x6:0x46791000  x3:0xffeea95b
       50385000	      5037	80002794	01cad633	srl	x12,x21,x28	 x21:0x75268e16 x28:0xaa904408 x12=0x0075268e
       50395000	      5038	80002798	0070a1b3	slt	x3,x1,x7	  x1:0x3a93dfed  x7:0x93e55000  x3=0x00000000
       50405000	      5039	8000279c	a851ca93	xori	x21,x3,-1403	  x3:0x00000000 x21=0xfffffa85
       50415000	      5040	800027a0	01e19cb3	sll	x25,x3,x30	  x3:0x00000000 x30:0x0005d49a x25=0x00000000
       50425000	      5041	800027a4	01be5d93	srli	x27,x28,0x1b	 x28:0xaa904408 x27=0x00000015
       50435000	      5042	800027a8	000f5c13	srli	x24,x30,0x0	 x30:0x0005d49a x24=0x0005d49a
       50445000	      5043	800027ac	01572933	slt	x18,x14,x21	 x14:0x34143000 x21:0xfffffa85 x18=0x00000000
       50455000	      5044	800027b0	056e8263	beq	x29,x22,800027f4	 x29:0xba934000 x22:0x0000048b
       50465000	      5045	800027b4	05746263	bltu	x8,x23,800027f8	  x8:0x1754b554 x23:0x00000001
       50475000	      5046	800027b8	00dc4533	xor	x10,x24,x13	 x24:0x0005d49a x13:0xc380a000 x10=0xc385749a
       50485000	      5047	800027bc	002d8933	add	x18,x27,x2	 x27:0x00000015  x2:0x80009f20 x18=0x80009f35
       50495000	      5048	800027c0	01c25d33	srl	x26,x4,x28	  x4:0x00000001 x28:0xaa904408 x26=0x00000000
       50505000	      5049	800027c4	fb078d17	auipc	x26,0xfb078	 x26=0x7b07a7c0
       50515000	      5050	800027c8	03ef0263	beq	x30,x30,800027ec	 x30:0x0005d49a x30:0x0005d49a
       50525000	      5051	00000000	00000013	addi	x0,x0,0	  x0:0x00000000
       50535000	      5052	800027e8	00000013	addi	x0,x0,0	  x0:0x00000000
       50545000	      5053	800027ec	a7b74c13	xori	x24,x14,-1413	 x14:0x34143000 x24=0xcbebca7b
       50555000	      5054	800027f0	015c2333	slt	x6,x24,x21	 x24:0xcbebca7b x21:0xfffffa85  x6=0x00000001
       50565000	      5055	800027f4	00dfa8b3	slt	x17,x31,x13	 x31:0x74216688 x13:0xc380a000 x17=0x00000000
       50575000	      5056	800027f8	01a10533	add	x10,x2,x26	  x2:0x80009f20 x26:0x7b07a7c0 x10=0xfb0846e0
       50585000	      5057	800027fc	1f16eb93	ori	x23,x13,497	 x13:0xc380a000 x23=0xc380a1f1
       50595000	      5058	80002800	01735c33	srl	x24,x6,x23	  x6:0x00000001 x23:0xc380a1f1 x24=0x00000000
       50605000	      5059	80002804	41ec5db3	sra	x27,x24,x30	 x24:0x00000000 x30:0x0005d49a x27=0x00000000
       50615000	      5060	80002808	ebf9e393	ori	x7,x19,-321	 x19:0xba934000  x7=0xfffffebf
       50625000	      5061	8000280c	00689d93	slli	x27,x17,0x6	 x17:0x00000000 x27=0x00000000
       50635000	      5062	80002810	0097cdb3	xor	x27,x15,x9	 x15:0x38d88807  x9:0x40004d00 x27=0x78d8c507
       50645000	      5063	80002814	08b24e17	auipc	x28,0x8b24	 x28=0x88b26810
       50655000	      5064	80002818	40a40eb3	sub	x29,x8,x10	  x8:0x1754b554 x10:0xfb0846e0 x29=0x1c4c6e74
       50665000	      5065	8000281c	7f033513	sltiu	x10,x6,2032	  x6:0x00000001 x10=0x00000001
       50675000	      5066	80002820	01c48033	add	x0,x9,x28	  x9:0x40004d00 x28:0x88b26810
       50685000	      5067	80002824	011e11b3	sll	x3,x28,x17	 x28:0x88b26810 x17:0x00000000  x3=0x88b26810
       50695000	      5068	80002828	41b2d233	sra	x4,x5,x27	  x5:0x0000000d x27:0x78d8c507  x4=0x00000000
       50705000	      5069	8000282c	002646b3	xor	x13,x12,x2	 x12:0x0075268e  x2:0x80009f20 x13=0x8075b9ae
       50715000	      5070	80002830	0060f233	and	x4,x1,x6	  x1:0x3a93dfed  x6:0x00000001  x4=0x00000001
       50725000	      5071	80002834	00c38b33	add	x22,x7,x12	  x7:0xfffffebf x12:0x0075268e x22=0x0075254d
       50735000	      5072	80002838	40ec51b3	sra	x3,x24,x14	 x24:0x00000000 x14:0x34143000  x3=0x00000000
       50745000	      5073	8000283c	01697f33	and	x30,x18,x22	 x18:0x80009f35 x22:0x0075254d x30=0x00000505
       50755000	      5074	80002840	008c9933	sll	x18,x25,x8	 x25:0x00000000  x8:0x1754b554 x18=0x00000000
       50765000	      5075	80002844	364aa237	lui	x4,0x364aa	  x4=0x364aa000
       50775000	      5076	80002848	0272c463	blt	x5,x7,80002870	  x5:0x0000000d  x7:0xfffffebf
       50785000	      5077	8000284c	00fb2cb3	slt	x25,x22,x15	 x22:0x0075254d x15:0x38d88807 x25=0x00000001
       50795000	      5078	80002850	013e9593	slli	x11,x29,0x13	 x29:0x1c4c6e74 x11=0x73a00000
       50805000	      5079	80002854	00000013	addi	x0,x0,0	  x0:0x00000000
       50815000	      5080	80002858	d4e3bb13	sltiu	x22,x7,-690	  x7:0xfffffebf x22=0x00000000
       50825000	      5081	8000285c	e1a02c17	auipc	x24,0xe1a02	 x24=0x61a04858
       50835000	      5082	80002860	04c1c663	blt	x3,x12,800028ac	  x3:0x00000000 x12:0x0075268e
       50845000	      5083	00000000	00000013	addi	x0,x0,0	  x0:0x00000000
       50855000	      5084	800028a8	00000013	addi	x0,x0,0	  x0:0x00000000
       50865000	      5085	800028ac	014c19b3	sll	x19,x24,x20	 x24:0x61a04858 x20:0x00000001 x19=0xc34090b0
       50875000	      5086	800028b0	cd16f213	andi	x4,x13,-815	 x13:0x8075b9ae  x4=0x8075b880
       50885000	      5087	800028b4	6433a993	slti	x19,x7,1603	  x7:0xfffffebf x19=0x00000001
       50895000	      5088	800028b8	b3f7b693	sltiu	x13,x15,-1217	 x15:0x38d88807 x13=0x00000001
       50905000	      5089	800028bc	40c6d733	sra	x14,x13,x12	 x13:0x00000001 x12:0x0075268e x14=0x00000000
       50915000	      5090	800028c0	b4f83b13	sltiu	x22,x16,-1201	 x16:0x80009fc4 x22=0x00000001
       50925000	      5091	800028c4	00875333	srl	x6,x14,x8	 x14:0x00000000  x8:0x1754b554  x6=0x00000000
       50935000	      5092	800028c8	00fd8e63	beq	x27,x15,800028e4	 x27:0x78d8c507 x15:0x38d88807
       50945000	      5093	800028cc	bd0a3e13	sltiu	x28,x20,-1072	 x20:0x00000001 x28=0x00000001
       50955000	      5094	800028d0	01a558b3	srl	x17,x10,x26	 x10:0x00000001 x26:0x7b07a7c0 x17=0x00000001
       50965000	      5095	800028d4	410dd393	srai	x7,x27,0x10	 x27:0x78d8c507  x7=0x000078d8
       50975000	      5096	800028d8	d5e1f413	andi	x8,x3,-674	  x3:0x00000000  x8=0x00000000
       50985000	      5097	800028dc	40d858b3	sra	x17,x16,x13	 x16:0x80009fc4 x13:0x00000001 x17=0xc0004fe2
       50995000	      5098	800028e0	801e4913	xori	x18,x28,-2047	 x28:0x00000001 x18=0xfffff800
       51005000	      5099	800028e4	01afe3b3	or	x7,x31,x26	 x31:0x74216688 x26:0x7b07a7c0  x7=0x7f27e7c8
       51015000	      5100	800028e8	03fe9263	bne	x29,x31,8000290c	 x29:0x1c4c6e74 x31:0x74216688
       51025000	      5101	00000000	00000013	addi	x0,x0,0	  x0:0x00000000
       51035000	      5102	80002908	00000013	addi	x0,x0,0	  x0:0x00000000
       51045000	      5103	8000290c	00000013	addi	x0,x0,0	  x0:0x00000000
       51055000	      5104	80002910	01010b33	add	x22,x2,x16	  x2:0x80009f20 x16:0x80009fc4 x22=0x00013ee4
       51065000	      5105	80002914	002b97b3	sll	x15,x23,x2	 x23:0xc380a1f1  x2:0x80009f20 x15=0xc380a1f1
       51075000	      5106	80002918	01fc4033	xor	x0,x24,x31	 x24:0x61a04858 x31:0x74216688
       51085000	      5107	8000291c	405c5493	srai	x9,x24,0x5	 x24:0x61a04858  x9=0x030d0242
       51095000	      5108	80002920	ce4b2713	slti	x14,x22,-796	 x22:0x00013ee4 x14=0x00000000
       51105000	      5109	80002924	00000013	addi	x0,x0,0	  x0:0x00000000
       51115000	      5110	80002928	7d3ce713	ori	x14,x25,2003	 x25:0x00000001 x14=0x000007d3
       51125000	      5111	8000292c	003bcfb3	xor	x31,x23,x3	 x23:0xc380a1f1  x3:0x00000000 x31=0xc380a1f1
       51135000	      5112	80002930	00e25c63	bge	x4,x14,80002948	  x4:0x8075b880 x14:0x000007d3
       51145000	      5113	80002934	00000013	addi	x0,x0,0	  x0:0x00000000
       51155000	      5114	80002938	00e9c663	blt	x19,x14,80002944	 x19:0x00000001 x14:0x000007d3
       51165000	      5115	00000000	00000013	addi	x0,x0,0	  x0:0x00000000
       51175000	      5116	80002940	00000013	addi	x0,x0,0	  x0:0x00000000
       51185000	      5117	80002944	418d5e33	sra	x28,x26,x24	 x26:0x7b07a7c0 x24:0x61a04858 x28=0x0000007b
       51195000	      5118	80002948	4066dd33	sra	x26,x13,x6	 x13:0x00000001  x6:0x00000000 x26=0x00000001
       51205000	      5119	8000294c	416b04b3	sub	x9,x22,x22	 x22:0x00013ee4 x22:0x00013ee4  x9=0x00000000
       51215000	      5120	80002950	4025d0b3	sra	x1,x11,x2	 x11:0x73a00000  x2:0x80009f20  x1=0x73a00000
       51225000	      5121	80002954	27b351b7	lui	x3,0x27b35	  x3=0x27b35000
       51235000	      5122	80002958	04751063	bne	x10,x7,80002998	 x10:0x00000001  x7:0x7f27e7c8
       51245000	      5123	00000000	00000013	addi	x0,x0,0	  x0:0x00000000
       51255000	      5124	80002994	00000013	addi	x0,x0,0	  x0:0x00000000
       51265000	      5125	80002998	41a35c93	srai	x25,x6,0x1a	  x6:0x00000000 x25=0x00000000
       51275000	      5126	8000299c	0333e463	bltu	x7,x19,800029c4	  x7:0x7f27e7c8 x19:0x00000001
       51285000	      5127	800029a0	033de063	bltu	x27,x19,800029c0	 x27:0x78d8c507 x19:0x00000001
       51295000	      5128	800029a4	037dc863	blt	x27,x23,800029d4	 x27:0x78d8c507 x23:0xc380a1f1
       51305000	      5129	800029a8	03c90663	beq	x18,x28,800029d4	 x18:0xfffff800 x28:0x0000007b
       51315000	      5130	800029ac	00811e63	bne	x2,x8,800029c8	  x2:0x80009f20  x8:0x00000000
       51325000	      5131	00000000	00000013	addi	x0,x0,0	  x0:0x00000000
       51335000	      5132	800029c4	00000013	addi	x0,x0,0	  x0:0x00000000
       51345000	      5133	800029c8	004d0b33	add	x22,x26,x4	 x26:0x00000001  x4:0x8075b880 x22=0x8075b881
       51355000	      5134	800029cc	00e0a233	slt	x4,x1,x14	  x1:0x73a00000 x14:0x000007d3  x4=0x00000000
       51365000	      5135	800029d0	0116de63	bge	x13,x17,800029ec	 x13:0x00000001 x17:0xc0004fe2
       51375000	      5136	00000000	00000013	addi	x0,x0,0	  x0:0x00000000
       51385000	      5137	800029e8	00000013	addi	x0,x0,0	  x0:0x00000000
       51395000	      5138	800029ec	f7899eb7	lui	x29,0xf7899	 x29=0xf7899000
       51405000	      5139	800029f0	0906fc63	bgeu	x13,x16,80002a88	 x13:0x00000001 x16:0x80009fc4
       51415000	      5140	800029f4	07c67c63	bgeu	x12,x28,80002a6c	 x12:0x0075268e x28:0x0000007b
       51425000	      5141	00000000	00000013	addi	x0,x0,0	  x0:0x00000000
       51435000	      5142	80002a68	00000013	addi	x0,x0,0	  x0:0x00000000
       51445000	      5143	80002a6c	00d0db93	srli	x23,x1,0xd	  x1:0x73a00000 x23=0x00039d00
       51455000	      5144	80002a70	416189b3	sub	x19,x3,x22	  x3:0x27b35000 x22:0x8075b881 x19=0xa73d977f
       51465000	      5145	80002a74	01053cb3	sltu	x25,x10,x16	 x10:0x00000001 x16:0x80009fc4 x25=0x00000001
       51475000	      5146	80002a78	034cd063	bge	x25,x20,80002a98	 x25:0x00000001 x20:0x00000001
       51485000	      5147	00000000	00000013	addi	x0,x0,0	  x0:0x00000000
       51495000	      5148	80002a94	00000013	addi	x0,x0,0	  x0:0x00000000
       51505000	      5149	80002a98	01a2f633	and	x12,x5,x26	  x5:0x0000000d x26:0x00000001 x12=0x00000001
       51515000	      5150	80002a9c	38566f13	ori	x30,x12,901	 x12:0x00000001 x30=0x00000385
       51525000	      5151	80002aa0	5875ba93	sltiu	x21,x11,1415	 x11:0x73a00000 x21=0x00000000
       51535000	      5152	80002aa4	011b03b3	add	x7,x22,x17	 x22:0x8075b881 x17:0xc0004fe2  x7=0x40760863
       51545000	      5153	80002aa8	012faab3	slt	x21,x31,x18	 x31:0xc380a1f1 x18:0xfffff800 x21=0x00000001
       51555000	      5154	80002aac	00cd84b3	add	x9,x27,x12	 x27:0x78d8c507 x12:0x00000001  x9=0x78d8c508
       51565000	      5155	80002ab0	40a20fb3	sub	x31,x4,x10	  x4:0x00000000 x10:0x00000001 x31=0xffffffff
       51575000	      5156	80002ab4	009b97b3	sll	x15,x23,x9	 x23:0x00039d00  x9:0x78d8c508 x15=0x039d0000
       51585000	      5157	80002ab8	0056c263	blt	x13,x5,80002abc	 x13:0x00000001  x5:0x0000000d
       51595000	      5158	00000000	00000013	addi	x0,x0,0	  x0:0x00000000
       51605000	      5159	80002ab8	00000013	addi	x0,x0,0	  x0:0x00000000
       51615000	      5160	80002abc	8f9afc93	andi	x25,x21,-1799	 x21:0x00000001 x25=0x00000001
       51625000	      5161	80002ac0	00220433	add	x8,x4,x2	  x4:0x00000000  x2:0x80009f20  x8=0x80009f20
       51635000	      5162	80002ac4	00000013	addi	x0,x0,0	  x0:0x00000000
       51645000	      5163	80002ac8	01c85c63	bge	x16,x28,80002ae0	 x16:0x80009fc4 x28:0x0000007b
       51655000	      5164	80002acc	011b78b3	and	x17,x22,x17	 x22:0x8075b881 x17:0xc0004fe2 x17=0x80000880
       51665000	      5165	80002ad0	00a75e13	srli	x28,x14,0xa	 x14:0x000007d3 x28=0x00000001
       51675000	      5166	80002ad4	dee6e213	ori	x4,x13,-530	 x13:0x00000001  x4=0xfffffdef
       51685000	      5167	80002ad8	f8dc6f17	auipc	x30,0xf8dc6	 x30=0x78dc8ad4
       51695000	      5168	80002adc	8e6b8537	lui	x10,0x8e6b8	 x10=0x8e6b8000
       51705000	      5169	80002ae0	00541933	sll	x18,x8,x5	  x8:0x80009f20  x5:0x0000000d x18=0x13e40000
       51715000	      5170	80002ae4	04c64663	blt	x12,x12,80002b30	 x12:0x00000001 x12:0x00000001
       51725000	      5171	80002ae8	01dc54b3	srl	x9,x24,x29	 x24:0x61a04858 x29:0xf7899000  x9=0x61a04858
       51735000	      5172	80002aec	0104d733	srl	x14,x9,x16	  x9:0x61a04858 x16:0x80009fc4 x14=0x061a0485
       51745000	      5173	80002af0	41560ab3	sub	x21,x12,x21	 x12:0x00000001 x21:0x00000001 x21=0x00000000
       51755000	      5174	80002af4	00999093	slli	x1,x19,0x9	 x19:0xa73d977f  x1=0x7b2efe00
       51765000	      5175	80002af8	fedd04b7	lui	x9,0xfedd0	  x9=0xfedd0000
       51775000	      5176	80002afc	23667093	andi	x1,x12,566	 x12:0x00000001  x1=0x00000000
       51785000	      5177	80002b00	2c8f7917	auipc	x18,0x2c8f7	 x18=0xac8f9afc
       51795000	      5178	80002b04	031b4863	blt	x22,x17,80002b34	 x22:0x8075b881 x17:0x80000880
       51805000	      5179	80002b08	637ea613	slti	x12,x29,1591	 x29:0xf7899000 x12=0x00000001
       51815000	      5180	80002b0c	00a01db3	sll	x27,x0,x10	  x0:0x00000000 x10:0x8e6b8000 x27=0x00000000
       51825000	      5181	80002b10	00000013	addi	x0,x0,0	  x0:0x00000000
       51835000	      5182	80002b14	01b4bc33	sltu	x24,x9,x27	  x9:0xfedd0000 x27:0x00000000 x24=0x00000000
       51845000	      5183	80002b18	014eafb3	slt	x31,x29,x20	 x29:0xf7899000 x20:0x00000001 x31=0x00000001
       51855000	      5184	80002b1c	014ff463	bgeu	x31,x20,80002b24	 x31:0x00000001 x20:0x00000001
       51865000	      5185	00000000	00000013	addi	x0,x0,0	  x0:0x00000000
       51875000	      5186	80002b20	00000013	addi	x0,x0,0	  x0:0x00000000
       51885000	      5187	80002b24	49cfa393	slti	x7,x31,1180	 x31:0x00000001  x7=0x00000001
       51895000	      5188	80002b28	40e6d933	sra	x18,x13,x14	 x13:0x00000001 x14:0x061a0485 x18=0x00000000
       51905000	      5189	80002b2c	400558b3	sra	x17,x10,x0	 x10:0x8e6b8000  x0:0x00000000 x17=0x8e6b8000
       51915000	      5190	80002b30	00000013	addi	x0,x0,0	  x0:0x00000000
       51925000	      5191	80002b34	bca7fa13	andi	x20,x15,-1078	 x15:0x039d0000 x20=0x039d0000
       51935000	      5192	80002b38	04171063	bne	x14,x1,80002b78	 x14:0x061a0485  x1:0x00000000
       51945000	      5193	00000000	00000013	addi	x0,x0,0	  x0:0x00000000
       51955000	      5194	80002b74	00000013	addi	x0,x0,0	  x0:0x00000000
       51965000	      5195	80002b78	012ddfb3	srl	x31,x27,x18	 x27:0x00000000 x18:0x00000000 x31=0x00000000
       51975000	      5196	80002b7c	416d88b3	sub	x17,x27,x22	 x27:0x00000000 x22:0x8075b881 x17=0x7f8a477f
       51985000	      5197	80002b80	018c4f33	xor	x30,x24,x24	 x24:0x00000000 x24:0x00000000 x30=0x00000000
       51995000	      5198	80002b84	016b9593	slli	x11,x23,0x16	 x23:0x00039d00 x11=0x40000000
       52005000	      5199	80002b88	89ea4d13	xori	x26,x20,-1890	 x20:0x039d0000 x26=0xfc62f89e
       52015000	      5200	80002b8c	1ab73c93	sltiu	x25,x14,427	 x14:0x061a0485 x25=0x00000000
       52025000	      5201	80002b90	00cf4b93	xori	x23,x30,12	 x30:0x00000000 x23=0x0000000c
       52035000	      5202	80002b94	0169fb33	and	x22,x19,x22	 x19:0xa73d977f x22:0x8075b881 x22=0x80359001
       52045000	      5203	80002b98	007b3f33	sltu	x30,x22,x7	 x22:0x80359001  x7:0x00000001 x30=0x00000000
       52055000	      5204	80002b9c	01871593	slli	x11,x14,0x18	 x14:0x061a0485 x11=0x85000000
       52065000	      5205	80002ba0	ca8acf17	auipc	x30,0xca8ac	 x30=0x4a8aeb9c
       52075000	      5206	80002ba4	520bb093	sltiu	x1,x23,1312	 x23:0x0000000c  x1=0x00000001
       52085000	      5207	80002ba8	00000013	addi	x0,x0,0	  x0:0x00000000
       52095000	      5208	80002bac	011616b3	sll	x13,x12,x17	 x12:0x00000001 x17:0x7f8a477f x13=0x80000000
       52105000	      5209	80002bb0	01c581b3	add	x3,x11,x28	 x11:0x85000000 x28:0x00000001  x3=0x85000001
       52115000	      5210	80002bb4	010474b3	and	x9,x8,x16	  x8:0x80009f20 x16:0x80009fc4  x9=0x80009f00
       52125000	      5211	80002bb8	01cb43b3	xor	x7,x22,x28	 x22:0x80359001 x28:0x00000001  x7=0x80359000
       52135000	      5212	80002bbc	414b5593	srai	x11,x22,0x14	 x22:0x80359001 x11=0xfffff803
       52145000	      5213	80002bc0	00eef663	bgeu	x29,x14,80002bcc	 x29:0xf7899000 x14:0x061a0485
       52155000	      5214	00000000	00000013	addi	x0,x0,0	  x0:0x00000000
       52165000	      5215	80002bc8	00000013	addi	x0,x0,0	  x0:0x00000000
       52175000	      5216	80002bcc	0105bb33	sltu	x22,x11,x16	 x11:0xfffff803 x16:0x80009fc4 x22=0x00000000
       52185000	      5217	80002bd0	92e47b13	andi	x22,x8,-1746	  x8:0x80009f20 x22=0x80009920
       52195000	      5218	80002bd4	01f51333	sll	x6,x10,x31	 x10:0x8e6b8000 x31:0x00000000  x6=0x8e6b8000
       52205000	      5219	80002bd8	02c5f663	bgeu	x11,x12,80002c04	 x11:0xfffff803 x12:0x00000001
       52215000	      5220	00000000	00000013	addi	x0,x0,0	  x0:0x00000000
       52225000	      5221	80002c00	00000013	addi	x0,x0,0	  x0:0x00000000
       52235000	      5222	80002c04	00611b13	slli	x22,x2,0x6	  x2:0x80009f20 x22=0x0027c800
       52245000	      5223	80002c08	00000013	addi	x0,x0,0	  x0:0x00000000
       52255000	      5224	80002c0c	1e5a0c37	lui	x24,0x1e5a0	 x24=0x1e5a0000
       52265000	      5225	80002c10	009e00b3	add	x1,x28,x9	 x28:0x00000001  x9:0x80009f00  x1=0x80009f01
       52275000	      5226	80002c14	4e6c3593	sltiu	x11,x24,1254	 x24:0x1e5a0000 x11=0x00000000
       52285000	      5227	80002c18	008c7cb3	and	x25,x24,x8	 x24:0x1e5a0000  x8:0x80009f20 x25=0x00000000
       52295000	      5228	80002c1c	93c5bc13	sltiu	x24,x11,-1732	 x11:0x00000000 x24=0x00000001
       52305000	      5229	80002c20	a1f44893	xori	x17,x8,-1505	  x8:0x80009f20 x17=0x7fff653f
       52315000	      5230	80002c24	01055d13	srli	x26,x10,0x10	 x10:0x8e6b8000 x26=0x00008e6b
       52325000	      5231	80002c28	004ada93	srli	x21,x21,0x4	 x21:0x00000000 x21=0x00000000
       52335000	      5232	80002c2c	5648d537	lui	x10,0x5648d	 x10=0x5648d000
       52345000	      5233	80002c30	0018a233	slt	x4,x17,x1	 x17:0x7fff653f  x1:0x80009f01  x4=0x00000000
       52355000	      5234	80002c34	39c23f13	sltiu	x30,x4,924	  x4:0x00000000 x30=0x00000001
       52365000	      5235	80002c38	16942513	slti	x10,x8,361	  x8:0x80009f20 x10=0x00000001
       52375000	      5236	80002c3c	0188d333	srl	x6,x17,x24	 x17:0x7fff653f x24:0x00000001  x6=0x3fffb29f
       52385000	      5237	80002c40	00d14863	blt	x2,x13,80002c50	  x2:0x80009f20 x13:0x80000000
       52395000	      5238	80002c44	f0d7c493	xori	x9,x15,-243	 x15:0x039d0000  x9=0xfc62ff0d
       52405000	      5239	80002c48	02560463	beq	x12,x5,80002c70	 x12:0x00000001  x5:0x0000000d
       52415000	      5240	80002c4c	0027fc33	and	x24,x15,x2	 x15:0x039d0000  x2:0x80009f20 x24=0x00000000
       52425000	      5241	80002c50	41055033	sra	x0,x10,x16	 x10:0x00000001 x16:0x80009fc4
       52435000	      5242	80002c54	40895713	srai	x14,x18,0x8	 x18:0x00000000 x14=0x00000000
       52445000	      5243	80002c58	00e35b33	srl	x22,x6,x14	  x6:0x3fffb29f x14:0x00000000 x22=0x3fffb29f
       52455000	      5244	80002c5c	02c0c463	blt	x1,x12,80002c84	  x1:0x80009f01 x12:0x00000001
       52465000	      5245	00000000	00000013	addi	x0,x0,0	  x0:0x00000000
       52475000	      5246	80002c80	00000013	addi	x0,x0,0	  x0:0x00000000
       52485000	      5247	80002c84	003360b3	or	x1,x6,x3	  x6:0x3fffb29f  x3:0x85000001  x1=0xbfffb29f
       52495000	      5248	80002c88	03c38a63	beq	x7,x28,80002cbc	  x7:0x80359000 x28:0x00000001
       52505000	      5249	80002c8c	04e0f863	bgeu	x1,x14,80002cdc	  x1:0xbfffb29f x14:0x00000000
       52515000	      5250	00000000	00000013	addi	x0,x0,0	  x0:0x00000000
       52525000	      5251	80002cd8	00000013	addi	x0,x0,0	  x0:0x00000000
       52535000	      5252	80002cdc	01713533	sltu	x10,x2,x23	  x2:0x80009f20 x23:0x0000000c x10=0x00000000
       52545000	      5253	80002ce0	00000013	addi	x0,x0,0	  x0:0x00000000
       52555000	      5254	80002ce4	016f8d33	add	x26,x31,x22	 x31:0x00000000 x22:0x3fffb29f x26=0x3fffb29f
       52565000	      5255	80002ce8	e76e8793	addi	x15,x29,-394	 x29:0xf7899000 x15=0xf7898e76
       52575000	      5256	80002cec	961f4a93	xori	x21,x30,-1695	 x30:0x00000001 x21=0xfffff960
       52585000	      5257	80002cf0	2fc34713	xori	x14,x6,764	  x6:0x3fffb29f x14=0x3fffb063
       52595000	      5258	80002cf4	0113de63	bge	x7,x17,80002d10	  x7:0x80359000 x17:0x7fff653f
       52605000	      5259	80002cf8	01fbec63	bltu	x23,x31,80002d10	 x23:0x0000000c x31:0x00000000
       52615000	      5260	80002cfc	418cdc93	srai	x25,x25,0x18	 x25:0x00000000 x25=0x00000000
       52625000	      5261	80002d00	01877eb3	and	x29,x14,x24	 x14:0x3fffb063 x24:0x00000000 x29=0x00000000
       52635000	      5262	80002d04	005337b3	sltu	x15,x6,x5	  x6:0x3fffb29f  x5:0x0000000d x15=0x00000000
       52645000	      5263	80002d08	01dab8b3	sltu	x17,x21,x29	 x21:0xfffff960 x29:0x00000000 x17=0x00000000
       52655000	      5264	80002d0c	00f74913	xori	x18,x14,15	 x14:0x3fffb063 x18=0x3fffb06c
       52665000	      5265	80002d10	03e29863	bne	x5,x30,80002d40	  x5:0x0000000d x30:0x00000001
       52675000	      5266	00000000	00000013	addi	x0,x0,0	  x0:0x00000000
       52685000	      5267	80002d3c	00000013	addi	x0,x0,0	  x0:0x00000000
       52695000	      5268	80002d40	01d7c263	blt	x15,x29,80002d44	 x15:0x00000000 x29:0x00000000
       52705000	      5269	80002d44	012edf93	srli	x31,x29,0x12	 x29:0x00000000 x31=0x00000000
       52715000	      5270	80002d48	00e845b3	xor	x11,x16,x14	 x16:0x80009fc4 x14:0x3fffb063 x11=0xbfff2fa7
       52725000	      5271	80002d4c	03364863	blt	x12,x19,80002d7c	 x12:0x00000001 x19:0xa73d977f
       52735000	      5272	80002d50	028f5663	bge	x30,x8,80002d7c	 x30:0x00000001  x8:0x80009f20
       52745000	      5273	00000000	00000013	addi	x0,x0,0	  x0:0x00000000
       52755000	      5274	80002d78	00000013	addi	x0,x0,0	  x0:0x00000000
       52765000	      5275	80002d7c	40585b93	srai	x23,x16,0x5	 x16:0x80009fc4 x23=0xfc0004fe
       52775000	      5276	80002d80	768f4b13	xori	x22,x30,1896	 x30:0x00000001 x22=0x00000769
       52785000	      5277	80002d84	f0ab3993	sltiu	x19,x22,-246	 x22:0x00000769 x19=0x00000001
       52795000	      5278	80002d88	40d8d193	srai	x3,x17,0xd	 x17:0x00000000  x3=0x00000000
       52805000	      5279	80002d8c	00071663	bne	x14,x0,80002d98	 x14:0x3fffb063  x0:0x00000000
       52815000	      5280	00000000	00000013	addi	x0,x0,0	  x0:0x00000000
       52825000	      5281	80002d94	00000013	addi	x0,x0,0	  x0:0x00000000
       52835000	      5282	80002d98	016a9013	slli	x0,x21,0x16	 x21:0xfffff960
       52845000	      5283	80002d9c	01ded7b3	srl	x15,x29,x29	 x29:0x00000000 x29:0x00000000 x15=0x00000000
       52855000	      5284	80002da0	0b764e63	blt	x12,x23,80002e5c	 x12:0x00000001 x23:0xfc0004fe
       52865000	      5285	80002da4	09fc1863	bne	x24,x31,80002e34	 x24:0x00000000 x31:0x00000000
       52875000	      5286	80002da8	00000013	addi	x0,x0,0	  x0:0x00000000
       52885000	      5287	80002dac	00a00713	addi	x14,x0,10	  x0:0x00000000 x14=0x0000000a
       52895000	      5288	80002db0	a63f8193	addi	x3,x31,-1437	 x31:0x00000000  x3=0xfffffa63
       52905000	      5289	80002db4	00209f13	slli	x30,x1,0x2	  x1:0xbfffb29f x30=0xfffeca7c
       52915000	      5290	80002db8	9dbcb993	sltiu	x19,x25,-1573	 x25:0x00000000 x19=0x00000001
       52925000	      5291	80002dbc	01f9f0b3	and	x1,x19,x31	 x19:0x00000001 x31:0x00000000  x1=0x00000000
       52935000	      5292	80002dc0	009c5eb3	srl	x29,x24,x9	 x24:0x00000000  x9:0xfc62ff0d x29=0x00000000
       52945000	      5293	80002dc4	2014b513	sltiu	x10,x9,513	  x9:0xfc62ff0d x10=0x00000000
       52955000	      5294	80002dc8	630cb313	sltiu	x6,x25,1584	 x25:0x00000000  x6=0x00000001
       52965000	      5295	80002dcc	ffc00e13	addi	x28,x0,-4	  x0:0x00000000 x28=0xfffffffc
       52975000	      5296	80002dd0	002a2ab3	slt	x21,x20,x2	 x20:0x039d0000  x2:0x80009f20 x21=0x00000000
       52985000	      5297	80002dd4	00b465b3	or	x11,x8,x11	  x8:0x80009f20 x11:0xbfff2fa7 x11=0xbfffbfa7
       52995000	      5298	80002dd8	00558533	add	x10,x11,x5	 x11:0xbfffbfa7  x5:0x0000000d x10=0xbfffbfb4
       53005000	      5299	80002ddc	1507b337	lui	x6,0x1507b	  x6=0x1507b000
       53015000	      5300	80002de0	00000013	addi	x0,x0,0	  x0:0x00000000
       53025000	      5301	80002de4	5b0ec697	auipc	x13,0x5b0ec	 x13=0xdb0eede0
       53035000	      5302	80002de8	4075d9b3	sra	x19,x11,x7	 x11:0xbfffbfa7  x7:0x80359000 x19=0xbfffbfa7
       53045000	      5303	80002dec	269aec93	ori	x25,x21,617	 x21:0x00000000 x25=0x00000269
       53055000	      5304	80002df0	0176d193	srli	x3,x13,0x17	 x13:0xdb0eede0  x3=0x000001b6
       53065000	      5305	80002df4	019134b3	sltu	x9,x2,x25	  x2:0x80009f20 x25:0x00000269  x9=0x00000000
       53075000	      5306	80002df8	01f2b933	sltu	x18,x5,x31	  x5:0x0000000d x31:0x00000000 x18=0x00000000
       53085000	      5307	80002dfc	00c32233	slt	x4,x6,x12	  x6:0x1507b000 x12:0x00000001  x4=0x00000000
       53095000	      5308	80002e00	00a51593	slli	x11,x10,0xa	 x10:0xbfffbfb4 x11=0xfefed000
       53105000	      5309	80002e04	ff970713	addi	x14,x14,-7	 x14:0x0000000a x14=0x00000003
       53115000	      5310	80002e08	edad7897	auipc	x17,0xedad7	 x17=0x6dad9e04
       53125000	      5311	80002e0c	09f8ad13	slti	x26,x17,159	 x17:0x6dad9e04 x26=0x00000000
       53135000	      5312	80002e10	01a91933	sll	x18,x18,x26	 x18:0x00000000 x26:0x00000000 x18=0x00000000
       53145000	      5313	80002e14	fba0ca93	xori	x21,x1,-70	  x1:0x00000000 x21=0xffffffba
       53155000	      5314	80002e18	01015033	srl	x0,x2,x16	  x2:0x80009f20 x16:0x80009fc4
       53165000	      5315	80002e1c	fdc75ee3	bge	x14,x28,80002df8	 x14:0x00000003 x28:0xfffffffc
       53175000	      5316	00000000	00000013	addi	x0,x0,0	  x0:0x00000000
       53185000	      5317	80002df4	00000013	addi	x0,x0,0	  x0:0x00000000
       53195000	      5318	80002df8	01f2b933	sltu	x18,x5,x31	  x5:0x0000000d x31:0x00000000 x18=0x00000000
       53205000	      5319	80002dfc	00c32233	slt	x4,x6,x12	  x6:0x1507b000 x12:0x00000001  x4=0x00000000
       53215000	      5320	80002e00	00a51593	slli	x11,x10,0xa	 x10:0xbfffbfb4 x11=0xfefed000
       53225000	      5321	80002e04	ff970713	addi	x14,x14,-7	 x14:0x00000003 x14=0xfffffffc
       53235000	      5322	80002e08	edad7897	auipc	x17,0xedad7	 x17=0x6dad9e04
       53245000	      5323	80002e0c	09f8ad13	slti	x26,x17,159	 x17:0x6dad9e04 x26=0x00000000
       53255000	      5324	80002e10	01a91933	sll	x18,x18,x26	 x18:0x00000000 x26:0x00000000 x18=0x00000000
       53265000	      5325	80002e14	fba0ca93	xori	x21,x1,-70	  x1:0x00000000 x21=0xffffffba
       53275000	      5326	80002e18	01015033	srl	x0,x2,x16	  x2:0x80009f20 x16:0x80009fc4
       53285000	      5327	80002e1c	fdc75ee3	bge	x14,x28,80002df8	 x14:0xfffffffc x28:0xfffffffc
       53295000	      5328	00000000	00000013	addi	x0,x0,0	  x0:0x00000000
       53305000	      5329	80002df4	00000013	addi	x0,x0,0	  x0:0x00000000
       53315000	      5330	80002df8	01f2b933	sltu	x18,x5,x31	  x5:0x0000000d x31:0x00000000 x18=0x00000000
       53325000	      5331	80002dfc	00c32233	slt	x4,x6,x12	  x6:0x1507b000 x12:0x00000001  x4=0x00000000
       53335000	      5332	80002e00	00a51593	slli	x11,x10,0xa	 x10:0xbfffbfb4 x11=0xfefed000
       53345000	      5333	80002e04	ff970713	addi	x14,x14,-7	 x14:0xfffffffc x14=0xfffffff5
       53355000	      5334	80002e08	edad7897	auipc	x17,0xedad7	 x17=0x6dad9e04
       53365000	      5335	80002e0c	09f8ad13	slti	x26,x17,159	 x17:0x6dad9e04 x26=0x00000000
       53375000	      5336	80002e10	01a91933	sll	x18,x18,x26	 x18:0x00000000 x26:0x00000000 x18=0x00000000
       53385000	      5337	80002e14	fba0ca93	xori	x21,x1,-70	  x1:0x00000000 x21=0xffffffba
       53395000	      5338	80002e18	01015033	srl	x0,x2,x16	  x2:0x80009f20 x16:0x80009fc4
       53405000	      5339	80002e1c	fdc75ee3	bge	x14,x28,80002df8	 x14:0xfffffff5 x28:0xfffffffc
       53415000	      5340	80002e20	41dc5613	srai	x12,x24,0x1d	 x24:0x00000000 x12=0x00000000
       53425000	      5341	80002e24	408e5593	srai	x11,x28,0x8	 x28:0xfffffffc x11=0xffffffff
       53435000	      5342	80002e28	02707663	bgeu	x0,x7,80002e54	  x0:0x00000000  x7:0x80359000
       53445000	      5343	80002e2c	01030733	add	x14,x6,x16	  x6:0x1507b000 x16:0x80009fc4 x14=0x95084fc4
       53455000	      5344	80002e30	046d6063	bltu	x26,x6,80002e70	 x26:0x00000000  x6:0x1507b000
       53465000	      5345	00000000	00000013	addi	x0,x0,0	  x0:0x00000000
       53475000	      5346	80002e6c	00000013	addi	x0,x0,0	  x0:0x00000000
       53485000	      5347	80002e70	00000013	addi	x0,x0,0	  x0:0x00000000
       53495000	      5348	80002e74	41f48733	sub	x14,x9,x31	  x9:0x00000000 x31:0x00000000 x14=0x00000000
       53505000	      5349	80002e78	6046cd93	xori	x27,x13,1540	 x13:0xdb0eede0 x27=0xdb0eebe4
       53515000	      5350	80002e7c	5348e6b7	lui	x13,0x5348e	 x13=0x5348e000
       53525000	      5351	80002e80	26d2e093	ori	x1,x5,621	  x5:0x0000000d  x1=0x0000026d
       53535000	      5352	80002e84	0535c663	blt	x11,x19,80002ed0	 x11:0xffffffff x19:0xbfffbfa7
       53545000	      5353	80002e88	00883033	sltu	x0,x16,x8	 x16:0x80009fc4  x8:0x80009f20
       53555000	      5354	80002e8c	049e7863	bgeu	x28,x9,80002edc	 x28:0xfffffffc  x9:0x00000000
       53565000	      5355	00000000	00000013	addi	x0,x0,0	  x0:0x00000000
       53575000	      5356	80002ed8	00000013	addi	x0,x0,0	  x0:0x00000000
       53585000	      5357	80002edc	7df64f13	xori	x30,x12,2015	 x12:0x00000000 x30=0x000007df
       53595000	      5358	80002ee0	00000013	addi	x0,x0,0	  x0:0x00000000
       53605000	      5359	80002ee4	00c97463	bgeu	x18,x12,80002eec	 x18:0x00000000 x12:0x00000000
       53615000	      5360	00000000	00000013	addi	x0,x0,0	  x0:0x00000000
       53625000	      5361	80002ee8	00000013	addi	x0,x0,0	  x0:0x00000000
       53635000	      5362	80002eec	77fb8093	addi	x1,x23,1919	 x23:0xfc0004fe  x1=0xfc000c7d
       53645000	      5363	80002ef0	4032d3b3	sra	x7,x5,x3	  x5:0x0000000d  x3:0x000001b6  x7=0x00000000
       53655000	      5364	80002ef4	00412c03	lw	x24,4(x2)	  x2:0x80009f20 x24=0x80000f00 PA:0x80009f24
       53665000	      5365	80002ef8	4d9bbf93	sltiu	x31,x23,1241	 x23:0xfc0004fe x31=0x00000000
       53675000	      5366	80002efc	40ad5333	sra	x6,x26,x10	 x26:0x00000000 x10:0xbfffbfb4  x6=0x00000000
       53685000	      5367	80002f00	01410113	addi	x2,x2,20	  x2:0x80009f20  x2=0x80009f34
       53695000	      5368	80002f04	5449d237	lui	x4,0x5449d	  x4=0x5449d000
       53705000	      5369	80002f08	0135d613	srli	x12,x11,0x13	 x11:0xffffffff x12=0x00001fff
       53715000	      5370	80002f0c	614a2497	auipc	x9,0x614a2	  x9=0xe14a4f08
       53725000	      5371	80002f10	018eadb3	slt	x27,x29,x24	 x29:0x00000000 x24:0x80000f00 x27=0x00000000
       53735000	      5372	80002f14	00445413	srli	x8,x8,0x4	  x8:0x80009f20  x8=0x080009f2
       53745000	      5373	80002f18	000225b3	slt	x11,x4,x0	  x4:0x5449d000  x0:0x00000000 x11=0x00000000
       53755000	      5374	80002f1c	01b54233	xor	x4,x10,x27	 x10:0xbfffbfb4 x27:0x00000000  x4=0xbfffbfb4
       53765000	      5375	80002f20	000c0d13	addi	x26,x24,0	 x24:0x80000f00 x26=0x80000f00
       53775000	      5376	80002f24	000d0d67	jalr	x26,x26,0	 x26:0x80000f00 x26=0x80002f24
       53785000	      5377	00000000	00000013	addi	x0,x0,0	  x0:0x00000000
       53795000	      5378	80000f00	00000013	addi	x0,x0,0	  x0:0x00000000
       53805000	      5379	80000f04	28719637	lui	x12,0x28719	 x12=0x28719000
       53815000	      5380	80000f08	01c198b3	sll	x17,x3,x28	  x3:0x000001b6 x28:0xfffffffc x17=0x60000000
       53825000	      5381	80000f0c	9787a593	slti	x11,x15,-1672	 x15:0x00000000 x11=0x00000000
       53835000	      5382	80000f10	fb96f513	andi	x10,x13,-71	 x13:0x5348e000 x10=0x5348e000
       53845000	      5383	80000f14	01495493	srli	x9,x18,0x14	 x18:0x00000000  x9=0x00000000
       53855000	      5384	80000f18	00000013	addi	x0,x0,0	  x0:0x00000000
       53865000	      5385	80000f1c	011c99b3	sll	x19,x25,x17	 x25:0x00000269 x17:0x60000000 x19=0x00000269
       53875000	      5386	80000f20	98ff2613	slti	x12,x30,-1649	 x30:0x000007df x12=0x00000000
       53885000	      5387	80000f24	3e0ace97	auipc	x29,0x3e0ac	 x29=0xbe0acf20
       53895000	      5388	80000f28	413c0b33	sub	x22,x24,x19	 x24:0x80000f00 x19:0x00000269 x22=0x80000c97
       53905000	      5389	80000f2c	0668e693	ori	x13,x17,102	 x17:0x60000000 x13=0x60000066
       53915000	      5390	80000f30	007f1cb3	sll	x25,x30,x7	 x30:0x000007df  x7:0x00000000 x25=0x000007df
       53925000	      5391	80000f34	00000013	addi	x0,x0,0	  x0:0x00000000
       53935000	      5392	80000f38	00f655b3	srl	x11,x12,x15	 x12:0x00000000 x15:0x00000000 x11=0x00000000
       53945000	      5393	80000f3c	891c8013	addi	x0,x25,-1903	 x25:0x000007df
       53955000	      5394	80000f40	c6a2bc93	sltiu	x25,x5,-918	  x5:0x0000000d x25=0x00000001
       53965000	      5395	80000f44	014647b3	xor	x15,x12,x20	 x12:0x00000000 x20:0x039d0000 x15=0x039d0000
       53975000	      5396	80000f48	015ad913	srli	x18,x21,0x15	 x21:0xffffffba x18=0x000007ff
       53985000	      5397	80000f4c	40158c33	sub	x24,x11,x1	 x11:0x00000000  x1:0xfc000c7d x24=0x03fff383
       53995000	      5398	80000f50	01b8f263	bgeu	x17,x27,80000f54	 x17:0x60000000 x27:0x00000000
       54005000	      5399	00000000	00000013	addi	x0,x0,0	  x0:0x00000000
       54015000	      5400	80000f50	00000013	addi	x0,x0,0	  x0:0x00000000
       54025000	      5401	80000f54	5f872893	slti	x17,x14,1528	 x14:0x00000000 x17=0x00000001
       54035000	      5402	80000f58	0171fc13	andi	x24,x3,23	  x3:0x000001b6 x24=0x00000016
       54045000	      5403	80000f5c	c3756337	lui	x6,0xc3756	  x6=0xc3756000
       54055000	      5404	80000f60	41510eb3	sub	x29,x2,x21	  x2:0x80009f34 x21:0xffffffba x29=0x80009f7a
       54065000	      5405	80000f64	6aaec613	xori	x12,x29,1706	 x29:0x80009f7a x12=0x800099d0
       54075000	      5406	80000f68	0168a8b3	slt	x17,x17,x22	 x17:0x00000001 x22:0x80000c97 x17=0x00000000
       54085000	      5407	80000f6c	1aba9497	auipc	x9,0x1aba9	  x9=0x9aba9f68
       54095000	      5408	80000f70	00f2db13	srli	x22,x5,0xf	  x5:0x0000000d x22=0x00000000
       54105000	      5409	80000f74	b2fc43b7	lui	x7,0xb2fc4	  x7=0xb2fc4000
       54115000	      5410	80000f78	00000013	addi	x0,x0,0	  x0:0x00000000
       54125000	      5411	80000f7c	62c2be13	sltiu	x28,x5,1580	  x5:0x0000000d x28=0x00000001
       54135000	      5412	80000f80	00412c03	lw	x24,4(x2)	  x2:0x80009f34 x24=0x80000ff0 PA:0x80009f38
       54145000	      5413	80000f84	7fdce613	ori	x12,x25,2045	 x25:0x00000001 x12=0x000007fd
       54155000	      5414	80000f88	f92dc213	xori	x4,x27,-110	 x27:0x00000000  x4=0xffffff92
       54165000	      5415	80000f8c	0002a0b3	slt	x1,x5,x0	  x5:0x0000000d  x0:0x00000000  x1=0x00000000
       54175000	      5416	80000f90	827fba17	auipc	x20,0x827fb	 x20=0x027fbf8c
       54185000	      5417	80000f94	00000013	addi	x0,x0,0	  x0:0x00000000
       54195000	      5418	80000f98	01e757b3	srl	x15,x14,x30	 x14:0x00000000 x30:0x000007df x15=0x00000000
       54205000	      5419	80000f9c	64936893	ori	x17,x6,1609	  x6:0xc3756000 x17=0xc3756649
       54215000	      5420	80000fa0	01410113	addi	x2,x2,20	  x2:0x80009f34  x2=0x80009f48
       54225000	      5421	80000fa4	00a8b033	sltu	x0,x17,x10	 x17:0xc3756649 x10:0x5348e000
       54235000	      5422	80000fa8	9f99f397	auipc	x7,0x9f99f	  x7=0x1f99ffa4
       54245000	      5423	80000fac	000c0c13	addi	x24,x24,0	 x24:0x80000ff0 x24=0x80000ff0
       54255000	      5424	80000fb0	000c0c67	jalr	x24,x24,0	 x24:0x80000ff0 x24=0x80000fb0
       54265000	      5425	00000000	00000013	addi	x0,x0,0	  x0:0x00000000
       54275000	      5426	80000ff0	00000013	addi	x0,x0,0	  x0:0x00000000
       54285000	      5427	80000ff4	00500193	addi	x3,x0,5	  x0:0x00000000  x3=0x00000005
       54295000	      5428	80000ff8	01c1f033	and	x0,x3,x28	  x3:0x00000005 x28:0x00000001
       54305000	      5429	80000ffc	01aa7333	and	x6,x20,x26	 x20:0x027fbf8c x26:0x80002f24  x6=0x00002f04
       54315000	      5430	80001000	00f00513	addi	x10,x0,15	  x0:0x00000000 x10=0x0000000f
       54325000	      5431	80001004	64a92093	slti	x1,x18,1610	 x18:0x000007ff  x1=0x00000000
       54335000	      5432	80001008	41d6dc93	srai	x25,x13,0x1d	 x13:0x60000066 x25=0x00000003
       54345000	      5433	8000100c	e48d0993	addi	x19,x26,-440	 x26:0x80002f24 x19=0x80002d6c
       54355000	      5434	80001010	0113acb3	slt	x25,x7,x17	  x7:0x1f99ffa4 x17:0xc3756649 x25=0x00000000
       54365000	      5435	80001014	00664b33	xor	x22,x12,x6	 x12:0x000007fd  x6:0x00002f04 x22=0x000028f9
       54375000	      5436	80001018	00618193	addi	x3,x3,6	  x3:0x00000005  x3=0x0000000b
       54385000	      5437	8000101c	01c5feb3	and	x29,x11,x28	 x11:0x00000000 x28:0x00000001 x29=0x00000000
       54395000	      5438	80001020	00200493	addi	x9,x0,2	  x0:0x00000000  x9=0x00000002
       54405000	      5439	80001024	019a0633	add	x12,x20,x25	 x20:0x027fbf8c x25:0x00000000 x12=0x027fbf8c
       54415000	      5440	80001028	001cda93	srli	x21,x25,0x1	 x25:0x00000000 x21=0x00000000
       54425000	      5441	8000102c	00000013	addi	x0,x0,0	  x0:0x00000000
       54435000	      5442	80001030	02d90217	auipc	x4,0x2d90	  x4=0x82d9102c
       54445000	      5443	80001034	fed00d13	addi	x26,x0,-19	  x0:0x00000000 x26=0xffffffed
       54455000	      5444	80001038	008a3ab3	sltu	x21,x20,x8	 x20:0x027fbf8c  x8:0x080009f2 x21=0x00000001
       54465000	      5445	8000103c	b94ee913	ori	x18,x29,-1132	 x29:0x00000000 x18=0xfffffb94
       54475000	      5446	80001040	4166df33	sra	x30,x13,x22	 x13:0x60000066 x22:0x000028f9 x30=0x00000030
       54485000	      5447	80001044	a8e8ef93	ori	x31,x17,-1394	 x17:0xc3756649 x31=0xfffffecf
       54495000	      5448	80001048	5c1c3a97	auipc	x21,0x5c1c3	 x21=0xdc1c4044
       54505000	      5449	8000104c	0185b733	sltu	x14,x11,x24	 x11:0x00000000 x24:0x80000fb0 x14=0x00000001
       54515000	      5450	80001050	40ae50b3	sra	x1,x28,x10	 x28:0x00000001 x10:0x0000000f  x1=0x00000000
       54525000	      5451	80001054	014c5cb3	srl	x25,x24,x20	 x24:0x80000fb0 x20:0x027fbf8c x25=0x00080000
       54535000	      5452	80001058	00d126b3	slt	x13,x2,x13	  x2:0x80009f48 x13:0x60000066 x13=0x00000001
       54545000	      5453	8000105c	ff948493	addi	x9,x9,-7	  x9:0x00000002  x9=0xfffffffb
       54555000	      5454	80001060	07e6c913	xori	x18,x13,126	 x13:0x00000001 x18=0x0000007f
       54565000	      5455	80001064	9f346017	auipc	x0,0x9f346	
       54575000	      5456	80001068	fda488e3	beq	x9,x26,80001038	  x9:0xfffffffb x26:0xffffffed
       54585000	      5457	8000106c	01f0b633	sltu	x12,x1,x31	  x1:0x00000000 x31:0xfffffecf x12=0x00000001
       54595000	      5458	80001070	01f0bb33	sltu	x22,x1,x31	  x1:0x00000000 x31:0xfffffecf x22=0x00000001
       54605000	      5459	80001074	e594ba13	sltiu	x20,x9,-423	  x9:0xfffffffb x20=0x00000000
       54615000	      5460	80001078	f8a1cce3	blt	x3,x10,80001010	  x3:0x0000000b x10:0x0000000f
       54625000	      5461	00000000	00000013	addi	x0,x0,0	  x0:0x00000000
       54635000	      5462	8000100c	00000013	addi	x0,x0,0	  x0:0x00000000
       54645000	      5463	80001010	0113acb3	slt	x25,x7,x17	  x7:0x1f99ffa4 x17:0xc3756649 x25=0x00000000
       54655000	      5464	80001014	00664b33	xor	x22,x12,x6	 x12:0x00000001  x6:0x00002f04 x22=0x00002f05
       54665000	      5465	80001018	00618193	addi	x3,x3,6	  x3:0x0000000b  x3=0x00000011
       54675000	      5466	8000101c	01c5feb3	and	x29,x11,x28	 x11:0x00000000 x28:0x00000001 x29=0x00000000
       54685000	      5467	80001020	00200493	addi	x9,x0,2	  x0:0x00000000  x9=0x00000002
       54695000	      5468	80001024	019a0633	add	x12,x20,x25	 x20:0x00000000 x25:0x00000000 x12=0x00000000
       54705000	      5469	80001028	001cda93	srli	x21,x25,0x1	 x25:0x00000000 x21=0x00000000
       54715000	      5470	8000102c	00000013	addi	x0,x0,0	  x0:0x00000000
       54725000	      5471	80001030	02d90217	auipc	x4,0x2d90	  x4=0x82d9102c
       54735000	      5472	80001034	fed00d13	addi	x26,x0,-19	  x0:0x00000000 x26=0xffffffed
       54745000	      5473	80001038	008a3ab3	sltu	x21,x20,x8	 x20:0x00000000  x8:0x080009f2 x21=0x00000001
       54755000	      5474	8000103c	b94ee913	ori	x18,x29,-1132	 x29:0x00000000 x18=0xfffffb94
       54765000	      5475	80001040	4166df33	sra	x30,x13,x22	 x13:0x00000001 x22:0x00002f05 x30=0x00000000
       54775000	      5476	80001044	a8e8ef93	ori	x31,x17,-1394	 x17:0xc3756649 x31=0xfffffecf
       54785000	      5477	80001048	5c1c3a97	auipc	x21,0x5c1c3	 x21=0xdc1c4044
       54795000	      5478	8000104c	0185b733	sltu	x14,x11,x24	 x11:0x00000000 x24:0x80000fb0 x14=0x00000001
       54805000	      5479	80001050	40ae50b3	sra	x1,x28,x10	 x28:0x00000001 x10:0x0000000f  x1=0x00000000
       54815000	      5480	80001054	014c5cb3	srl	x25,x24,x20	 x24:0x80000fb0 x20:0x00000000 x25=0x80000fb0
       54825000	      5481	80001058	00d126b3	slt	x13,x2,x13	  x2:0x80009f48 x13:0x00000001 x13=0x00000001
       54835000	      5482	8000105c	ff948493	addi	x9,x9,-7	  x9:0x00000002  x9=0xfffffffb
       54845000	      5483	80001060	07e6c913	xori	x18,x13,126	 x13:0x00000001 x18=0x0000007f
       54855000	      5484	80001064	9f346017	auipc	x0,0x9f346	
       54865000	      5485	80001068	fda488e3	beq	x9,x26,80001038	  x9:0xfffffffb x26:0xffffffed
       54875000	      5486	8000106c	01f0b633	sltu	x12,x1,x31	  x1:0x00000000 x31:0xfffffecf x12=0x00000001
       54885000	      5487	80001070	01f0bb33	sltu	x22,x1,x31	  x1:0x00000000 x31:0xfffffecf x22=0x00000001
       54895000	      5488	80001074	e594ba13	sltiu	x20,x9,-423	  x9:0xfffffffb x20=0x00000000
       54905000	      5489	80001078	f8a1cce3	blt	x3,x10,80001010	  x3:0x00000011 x10:0x0000000f
       54915000	      5490	8000107c	58bd2a37	lui	x20,0x58bd2	 x20=0x58bd2000
       54925000	      5491	80001080	0ecc84b7	lui	x9,0xecc8	  x9=0x0ecc8000
       54935000	      5492	80001084	01f81733	sll	x14,x16,x31	 x16:0x80009fc4 x31:0xfffffecf x14=0x4fe20000
       54945000	      5493	80001088	ca666693	ori	x13,x12,-858	 x12:0x00000001 x13=0xfffffca7
       54955000	      5494	8000108c	013aadb3	slt	x27,x21,x19	 x21:0xdc1c4044 x19:0x80002d6c x27=0x00000000
       54965000	      5495	80001090	05859863	bne	x11,x24,800010e0	 x11:0x00000000 x24:0x80000fb0
       54975000	      5496	00000000	00000013	addi	x0,x0,0	  x0:0x00000000
       54985000	      5497	800010dc	00000013	addi	x0,x0,0	  x0:0x00000000
       54995000	      5498	800010e0	1a17a737	lui	x14,0x1a17a	 x14=0x1a17a000
       55005000	      5499	800010e4	411204b3	sub	x9,x4,x17	  x4:0x82d9102c x17:0xc3756649  x9=0xbf63a9e3
       55015000	      5500	800010e8	045e4263	blt	x28,x5,8000112c	 x28:0x00000001  x5:0x0000000d
       55025000	      5501	00000000	00000013	addi	x0,x0,0	  x0:0x00000000
       55035000	      5502	80001128	00000013	addi	x0,x0,0	  x0:0x00000000
       55045000	      5503	8000112c	035e8063	beq	x29,x21,8000114c	 x29:0x00000000 x21:0xdc1c4044
       55055000	      5504	80001130	0186f8b3	and	x17,x13,x24	 x13:0xfffffca7 x24:0x80000fb0 x17=0x80000ca0
       55065000	      5505	80001134	40645fb3	sra	x31,x8,x6	  x8:0x080009f2  x6:0x00002f04 x31=0x0080009f
       55075000	      5506	80001138	0078cfb3	xor	x31,x17,x7	 x17:0x80000ca0  x7:0x1f99ffa4 x31=0x9f99f304
       55085000	      5507	8000113c	00d5fc63	bgeu	x11,x13,80001154	 x11:0x00000000 x13:0xfffffca7
       55095000	      5508	80001140	00cff663	bgeu	x31,x12,8000114c	 x31:0x9f99f304 x12:0x00000001
       55105000	      5509	00000000	00000013	addi	x0,x0,0	  x0:0x00000000
       55115000	      5510	80001148	00000013	addi	x0,x0,0	  x0:0x00000000
       55125000	      5511	8000114c	01236c33	or	x24,x6,x18	  x6:0x00002f04 x18:0x0000007f x24=0x00002f7f
       55135000	      5512	80001150	0185bbb3	sltu	x23,x11,x24	 x11:0x00000000 x24:0x00002f7f x23=0x00000001
       55145000	      5513	80001154	7bd10913	addi	x18,x2,1981	  x2:0x80009f48 x18=0x8000a705
       55155000	      5514	80001158	40885493	srai	x9,x16,0x8	 x16:0x80009fc4  x9=0xff80009f
       55165000	      5515	8000115c	40d3db33	sra	x22,x7,x13	  x7:0x1f99ffa4 x13:0xfffffca7 x22=0x003f33ff
       55175000	      5516	80001160	019ad463	bge	x21,x25,80001168	 x21:0xdc1c4044 x25:0x80000fb0
       55185000	      5517	00000000	00000013	addi	x0,x0,0	  x0:0x00000000
       55195000	      5518	80001164	00000013	addi	x0,x0,0	  x0:0x00000000
       55205000	      5519	80001168	054b7263	bgeu	x22,x20,800011ac	 x22:0x003f33ff x20:0x58bd2000
       55215000	      5520	8000116c	017ff263	bgeu	x31,x23,80001170	 x31:0x9f99f304 x23:0x00000001
       55225000	      5521	00000000	00000013	addi	x0,x0,0	  x0:0x00000000
       55235000	      5522	8000116c	00000013	addi	x0,x0,0	  x0:0x00000000
       55245000	      5523	80001170	04286063	bltu	x16,x2,800011b0	 x16:0x80009fc4  x2:0x80009f48
       55255000	      5524	80001174	41565e13	srai	x28,x12,0x15	 x12:0x00000001 x28=0x00000000
       55265000	      5525	80001178	01a266b3	or	x13,x4,x26	  x4:0x82d9102c x26:0xffffffed x13=0xffffffed
       55275000	      5526	8000117c	413c8a33	sub	x20,x25,x19	 x25:0x80000fb0 x19:0x80002d6c x20=0xffffe244
       55285000	      5527	80001180	f7cafc13	andi	x24,x21,-132	 x21:0xdc1c4044 x24=0xdc1c4044
       55295000	      5528	80001184	41e5ddb3	sra	x27,x11,x30	 x11:0x00000000 x30:0x00000000 x27=0x00000000
       55305000	      5529	80001188	402c5933	sra	x18,x24,x2	 x24:0xdc1c4044  x2:0x80009f48 x18=0xffdc1c40
       55315000	      5530	8000118c	f6eeb793	sltiu	x15,x29,-146	 x29:0x00000000 x15=0x00000001
       55325000	      5531	80001190	00865cb3	srl	x25,x12,x8	 x12:0x00000001  x8:0x080009f2 x25=0x00000000
       55335000	      5532	80001194	0198dc93	srli	x25,x17,0x19	 x17:0x80000ca0 x25=0x00000040
       55345000	      5533	80001198	00000013	addi	x0,x0,0	  x0:0x00000000
       55355000	      5534	8000119c	004fd8b3	srl	x17,x31,x4	 x31:0x9f99f304  x4:0x82d9102c x17=0x0009f99f
       55365000	      5535	800011a0	006fdfb3	srl	x31,x31,x6	 x31:0x9f99f304  x6:0x00002f04 x31=0x09f99f30
       55375000	      5536	800011a4	026a0863	beq	x20,x6,800011d4	 x20:0xffffe244  x6:0x00002f04
       55385000	      5537	800011a8	018f0533	add	x10,x30,x24	 x30:0x00000000 x24:0xdc1c4044 x10=0xdc1c4044
       55395000	      5538	800011ac	038b7263	bgeu	x22,x24,800011d0	 x22:0x003f33ff x24:0xdc1c4044
       55405000	      5539	800011b0	03c4d863	bge	x9,x28,800011e0	  x9:0xff80009f x28:0x00000000
       55415000	      5540	800011b4	9f345d37	lui	x26,0x9f345	 x26=0x9f345000
       55425000	      5541	800011b8	00717e33	and	x28,x2,x7	  x2:0x80009f48  x7:0x1f99ffa4 x28=0x00009f00
       55435000	      5542	800011bc	00c0fa33	and	x20,x1,x12	  x1:0x00000000 x12:0x00000001 x20=0x00000000
       55445000	      5543	800011c0	4114d533	sra	x10,x9,x17	  x9:0xff80009f x17:0x0009f99f x10=0xffffffff
       55455000	      5544	800011c4	3344ff13	andi	x30,x9,820	  x9:0xff80009f x30=0x00000014
       55465000	      5545	800011c8	0162fe63	bgeu	x5,x22,800011e4	  x5:0x0000000d x22:0x003f33ff
       55475000	      5546	800011cc	01874c63	blt	x14,x24,800011e4	 x14:0x1a17a000 x24:0xdc1c4044
       55485000	      5547	800011d0	00ad5d93	srli	x27,x26,0xa	 x26:0x9f345000 x27=0x0027cd14
       55495000	      5548	800011d4	409b5533	sra	x10,x22,x9	 x22:0x003f33ff  x9:0xff80009f x10=0x00000000
       55505000	      5549	800011d8	0057c663	blt	x15,x5,800011e4	 x15:0x00000001  x5:0x0000000d
       55515000	      5550	00000000	00000013	addi	x0,x0,0	  x0:0x00000000
       55525000	      5551	800011e0	00000013	addi	x0,x0,0	  x0:0x00000000
       55535000	      5552	800011e4	41e05d93	srai	x27,x0,0x1e	  x0:0x00000000 x27=0x00000000
       55545000	      5553	800011e8	00412c03	lw	x24,4(x2)	  x2:0x80009f48 x24=0x80000cec PA:0x80009f4c
       55555000	      5554	800011ec	00f9dd13	srli	x26,x19,0xf	 x19:0x80002d6c x26=0x00010000
       55565000	      5555	800011f0	40f13793	sltiu	x15,x2,1039	  x2:0x80009f48 x15=0x00000000
       55575000	      5556	800011f4	e1bc8913	addi	x18,x25,-485	 x25:0x00000040 x18=0xfffffe5b
       55585000	      5557	800011f8	03c10113	addi	x2,x2,60	  x2:0x80009f48  x2=0x80009f84
       55595000	      5558	800011fc	29583713	sltiu	x14,x16,661	 x16:0x80009fc4 x14=0x00000000
       55605000	      5559	80001200	00fea233	slt	x4,x29,x15	 x29:0x00000000 x15:0x00000000  x4=0x00000000
       55615000	      5560	80001204	01c21333	sll	x6,x4,x28	  x4:0x00000000 x28:0x00009f00  x6=0x00000000
       55625000	      5561	80001208	5fdaf893	andi	x17,x21,1533	 x21:0xdc1c4044 x17=0x00000044
       55635000	      5562	8000120c	f5997e13	andi	x28,x18,-167	 x18:0xfffffe5b x28=0xfffffe59
       55645000	      5563	80001210	00000013	addi	x0,x0,0	  x0:0x00000000
       55655000	      5564	80001214	000c0513	addi	x10,x24,0	 x24:0x80000cec x10=0x80000cec
       55665000	      5565	80001218	00050567	jalr	x10,x10,0	 x10:0x80000cec x10=0x80001218
       55675000	      5566	00000000	00000013	addi	x0,x0,0	  x0:0x00000000
       55685000	      5567	80000cec	00000013	addi	x0,x0,0	  x0:0x00000000
       55695000	      5568	80000cf0	005d06b3	add	x13,x26,x5	 x26:0x00010000  x5:0x0000000d x13=0x0001000d
       55705000	      5569	80000cf4	4164da33	sra	x20,x9,x22	  x9:0xff80009f x22:0x003f33ff x20=0xffffffff
       55715000	      5570	80000cf8	00d36a33	or	x20,x6,x13	  x6:0x00000000 x13:0x0001000d x20=0x0001000d
       55725000	      5571	80000cfc	00a6a8b3	slt	x17,x13,x10	 x13:0x0001000d x10:0x80001218 x17=0x00000000
       55735000	      5572	80000d00	0e900a93	addi	x21,x0,233	  x0:0x00000000 x21=0x000000e9
       55745000	      5573	80000d04	007fb233	sltu	x4,x31,x7	 x31:0x09f99f30  x7:0x1f99ffa4  x4=0x00000001
       55755000	      5574	80000d08	0039b0b3	sltu	x1,x19,x3	 x19:0x80002d6c  x3:0x00000011  x1=0x00000000
       55765000	      5575	80000d0c	00000013	addi	x0,x0,0	  x0:0x00000000
       55775000	      5576	80000d10	003179b3	and	x19,x2,x3	  x2:0x80009f84  x3:0x00000011 x19=0x00000000
       55785000	      5577	80000d14	6ebc3d93	sltiu	x27,x24,1771	 x24:0x80000cec x27=0x00000000
       55795000	      5578	80000d18	01d70b33	add	x22,x14,x29	 x14:0x00000000 x29:0x00000000 x22=0x00000000
       55805000	      5579	80000d1c	0190b9b3	sltu	x19,x1,x25	  x1:0x00000000 x25:0x00000040 x19=0x00000001
       55815000	      5580	80000d20	41d9d713	srai	x14,x19,0x1d	 x19:0x00000001 x14=0x00000000
       55825000	      5581	80000d24	006b6033	or	x0,x22,x6	 x22:0x00000000  x6:0x00000000
       55835000	      5582	80000d28	40e00e33	sub	x28,x0,x14	  x0:0x00000000 x14:0x00000000 x28=0x00000000
       55845000	      5583	80000d2c	01804a33	xor	x20,x0,x24	  x0:0x00000000 x24:0x80000cec x20=0x80000cec
       55855000	      5584	80000d30	7e96c693	xori	x13,x13,2025	 x13:0x0001000d x13=0x000107e4
       55865000	      5585	80000d34	00fed863	bge	x29,x15,80000d44	 x29:0x00000000 x15:0x00000000
       55875000	      5586	00000000	00000013	addi	x0,x0,0	  x0:0x00000000
       55885000	      5587	80000d40	00000013	addi	x0,x0,0	  x0:0x00000000
       55895000	      5588	80000d44	41f7ddb3	sra	x27,x15,x31	 x15:0x00000000 x31:0x09f99f30 x27=0x00000000
       55905000	      5589	80000d48	c263ae93	slti	x29,x7,-986	  x7:0x1f99ffa4 x29=0x00000000
       55915000	      5590	80000d4c	04c87263	bgeu	x16,x12,80000d90	 x16:0x80009fc4 x12:0x00000001
       55925000	      5591	00000000	00000013	addi	x0,x0,0	  x0:0x00000000
       55935000	      5592	80000d8c	00000013	addi	x0,x0,0	  x0:0x00000000
       55945000	      5593	80000d90	01399f33	sll	x30,x19,x19	 x19:0x00000001 x19:0x00000001 x30=0x00000002
       55955000	      5594	80000d94	65193793	sltiu	x15,x18,1617	 x18:0xfffffe5b x15=0x00000000
       55965000	      5595	80000d98	41960ab3	sub	x21,x12,x25	 x12:0x00000001 x25:0x00000040 x21=0xffffffc1
       55975000	      5596	80000d9c	1efded13	ori	x26,x27,495	 x27:0x00000000 x26=0x000001ef
       55985000	      5597	80000da0	022f8863	beq	x31,x2,80000dd0	 x31:0x09f99f30  x2:0x80009f84
       55995000	      5598	80000da4	54f27d13	andi	x26,x4,1359	  x4:0x00000001 x26=0x00000001
       56005000	      5599	80000da8	41920b33	sub	x22,x4,x25	  x4:0x00000001 x25:0x00000040 x22=0xffffffc1
       56015000	      5600	80000dac	00000013	addi	x0,x0,0	  x0:0x00000000
       56025000	      5601	80000db0	413751b3	sra	x3,x14,x19	 x14:0x00000000 x19:0x00000001  x3=0x00000000
       56035000	      5602	80000db4	003c9233	sll	x4,x25,x3	 x25:0x00000040  x3:0x00000000  x4=0x00000040
       56045000	      5603	80000db8	01f513b3	sll	x7,x10,x31	 x10:0x80001218 x31:0x09f99f30  x7=0x12180000
       56055000	      5604	80000dbc	00b609b3	add	x19,x12,x11	 x12:0x00000001 x11:0x00000000 x19=0x00000001
       56065000	      5605	80000dc0	01491b33	sll	x22,x18,x20	 x18:0xfffffe5b x20:0x80000cec x22=0xffe5b000
       56075000	      5606	80000dc4	01b6c6b3	xor	x13,x13,x27	 x13:0x000107e4 x27:0x00000000 x13=0x000107e4
       56085000	      5607	80000dc8	001c3333	sltu	x6,x24,x1	 x24:0x80000cec  x1:0x00000000  x6=0x00000000
       56095000	      5608	80000dcc	08b48097	auipc	x1,0x8b48	  x1=0x88b48dc8
       56105000	      5609	80000dd0	40c38b33	sub	x22,x7,x12	  x7:0x12180000 x12:0x00000001 x22=0x1217ffff
       56115000	      5610	80000dd4	92728b13	addi	x22,x5,-1753	  x5:0x0000000d x22=0xfffff934
       56125000	      5611	80000dd8	28b92d93	slti	x27,x18,651	 x18:0xfffffe5b x27=0x00000001
       56135000	      5612	80000ddc	00c87a63	bgeu	x16,x12,80000df0	 x16:0x80009fc4 x12:0x00000001
       56145000	      5613	00000000	00000013	addi	x0,x0,0	  x0:0x00000000
       56155000	      5614	80000dec	00000013	addi	x0,x0,0	  x0:0x00000000
       56165000	      5615	80000df0	014b1c63	bne	x22,x20,80000e08	 x22:0xfffff934 x20:0x80000cec
       56175000	      5616	00000000	00000013	addi	x0,x0,0	  x0:0x00000000
       56185000	      5617	80000e04	00000013	addi	x0,x0,0	  x0:0x00000000
       56195000	      5618	80000e08	0dc2a713	slti	x14,x5,220	  x5:0x0000000d x14=0x00000001
       56205000	      5619	80000e0c	00000013	addi	x0,x0,0	  x0:0x00000000
       56215000	      5620	80000e10	04749263	bne	x9,x7,80000e54	  x9:0xff80009f  x7:0x12180000
       56225000	      5621	00000000	00000013	addi	x0,x0,0	  x0:0x00000000
       56235000	      5622	80000e50	00000013	addi	x0,x0,0	  x0:0x00000000
       56245000	      5623	80000e54	01e29413	slli	x8,x5,0x1e	  x5:0x0000000d  x8=0x40000000
       56255000	      5624	80000e58	00000297	auipc	x5,0x0	  x5=0x80000e54
       56265000	      5625	80000e5c	00c28293	addi	x5,x5,12	  x5:0x80000e54  x5=0x80000e60
       56275000	      5626	80000e60	00028067	jalr	x0,x5,0	  x5:0x80000e60
       56285000	      5627	00000000	00000013	addi	x0,x0,0	  x0:0x00000000
       56295000	      5628	80000e60	00000013	addi	x0,x0,0	  x0:0x00000000
       56305000	      5629	80000e64	00100193	addi	x3,x0,1	  x0:0x00000000  x3=0x00000001
       56315000	      5630	80000e68	00000073	ecall	
       56325000	      5631	80000e6c	01b2f863	bgeu	x5,x27,80000e7c	  x5:0x80000e60 x27:0x00000001
