		Time			Cycle	PC		Insn	Decoded instruction	Register and memory contents
          65000	         5	80000004	00000293	addi	x5,x0,0	  x0:0x00000000  x5=0x00000000
          75000	         6	80000008	00000313	addi	x6,x0,0	  x0:0x00000000  x6=0x00000000
          85000	         7	8000000c	00628263	beq	x5,x6,80000010	  x5:0x00000000  x6:0x00000000
          95000	         8	00000000	00000013	addi	x0,x0,0	  x0:0x00000000
         105000	         9	8000000c	00000013	addi	x0,x0,0	  x0:0x00000000
         115000	        10	80000010	00000b17	auipc	x22,0x0	 x22=0x8000000c
         125000	        11	80000014	00cb0b13	addi	x22,x22,12	 x22:0x8000000c x22=0x80000018
         135000	        12	80000018	000b0067	jalr	x0,x22,0	 x22:0x80000018
         145000	        13	00000000	00000013	addi	x0,x0,0	  x0:0x00000000
         155000	        14	80000018	00000013	addi	x0,x0,0	  x0:0x00000000
         165000	        15	8000001c	400004b7	lui	x9,0x40000	  x9=0x40000000
         175000	        16	80000020	10048493	addi	x9,x9,256	  x9:0x40000000  x9=0x40000100
         185000	        17	80000024	00000013	addi	x0,x0,0	  x0:0x00000000
         195000	        18	80000028	0000a797	auipc	x15,0xa	 x15=0x8000a024
         205000	        19	8000002c	fa078793	addi	x15,x15,-96	 x15:0x8000a024 x15=0x80009fc4
         215000	        20	80000030	00003497	auipc	x9,0x3	  x9=0x8000302c
         225000	        21	80000034	77448493	addi	x9,x9,1908	  x9:0x8000302c  x9=0x800037a0
         235000	        22	80000038	0014e493	ori	x9,x9,1	  x9:0x800037a0  x9=0x800037a1
         245000	        23	8000003c	00000013	addi	x0,x0,0	  x0:0x00000000
         255000	        24	80000040	00000497	auipc	x9,0x0	  x9=0x8000003c
         265000	        25	80000044	02048493	addi	x9,x9,32	  x9:0x8000003c  x9=0x8000005c
         275000	        26	80000048	00000013	addi	x0,x0,0	  x0:0x00000000
         285000	        27	8000004c	00000013	addi	x0,x0,0	  x0:0x00000000
         295000	        28	80000050	000024b7	lui	x9,0x2	  x9=0x00002000
         305000	        29	80000054	80048493	addi	x9,x9,-2048	  x9:0x00002000  x9=0x00001800
         315000	        30	80000058	00000013	addi	x0,x0,0	  x0:0x00000000
         325000	        31	8000005c	00000013	addi	x0,x0,0	  x0:0x00000000
         335000	        32	80000060	fb670037	lui	x0,0xfb670	
         345000	        33	80000064	10c00013	addi	x0,x0,268	  x0:0x00000000
         355000	        34	80000068	84a570b7	lui	x1,0x84a57	  x1=0x84a57000
         365000	        35	8000006c	f8b08093	addi	x1,x1,-117	  x1:0x84a57000  x1=0x84a56f8b
         375000	        36	80000070	58e58137	lui	x2,0x58e58	  x2=0x58e58000
         385000	        37	80000074	83010113	addi	x2,x2,-2000	  x2:0x58e58000  x2=0x58e57830
         395000	        38	80000078	800001b7	lui	x3,0x80000	  x3=0x80000000
         405000	        39	8000007c	f29e0237	lui	x4,0xf29e0	  x4=0xf29e0000
         415000	        40	80000080	9b220213	addi	x4,x4,-1614	  x4:0xf29e0000  x4=0xf29df9b2
         425000	        41	80000084	7109b2b7	lui	x5,0x7109b	  x5=0x7109b000
         435000	        42	80000088	b9628293	addi	x5,x5,-1130	  x5:0x7109b000  x5=0x7109ab96
         445000	        43	8000008c	00100313	addi	x6,x0,1	  x0:0x00000000  x6=0x00000001
         455000	        44	80000090	ace9e3b7	lui	x7,0xace9e	  x7=0xace9e000
         465000	        45	80000094	ed138393	addi	x7,x7,-303	  x7:0xace9e000  x7=0xace9ded1
         475000	        46	80000098	00000413	addi	x8,x0,0	  x0:0x00000000  x8=0x00000000
         485000	        47	8000009c	800004b7	lui	x9,0x80000	  x9=0x80000000
         495000	        48	800000a0	f83ca537	lui	x10,0xf83ca	 x10=0xf83ca000
         505000	        49	800000a4	ebe50513	addi	x10,x10,-322	 x10:0xf83ca000 x10=0xf83c9ebe
         515000	        50	800000a8	09fed5b7	lui	x11,0x9fed	 x11=0x09fed000
         525000	        51	800000ac	fe558593	addi	x11,x11,-27	 x11:0x09fed000 x11=0x09fecfe5
         535000	        52	800000b0	f044d637	lui	x12,0xf044d	 x12=0xf044d000
         545000	        53	800000b4	d1b60613	addi	x12,x12,-741	 x12:0xf044d000 x12=0xf044cd1b
         555000	        54	800000b8	00000693	addi	x13,x0,0	  x0:0x00000000 x13=0x00000000
         565000	        55	800000bc	00200713	addi	x14,x0,2	  x0:0x00000000 x14=0x00000002
         575000	        56	800000c0	3aac6837	lui	x16,0x3aac6	 x16=0x3aac6000
         585000	        57	800000c4	efb80813	addi	x16,x16,-261	 x16:0x3aac6000 x16=0x3aac5efb
         595000	        58	800000c8	faa7a8b7	lui	x17,0xfaa7a	 x17=0xfaa7a000
         605000	        59	800000cc	29688893	addi	x17,x17,662	 x17:0xfaa7a000 x17=0xfaa7a296
         615000	        60	800000d0	00000913	addi	x18,x0,0	  x0:0x00000000 x18=0x00000000
         625000	        61	800000d4	800009b7	lui	x19,0x80000	 x19=0x80000000
         635000	        62	800000d8	408fca37	lui	x20,0x408fc	 x20=0x408fc000
         645000	        63	800000dc	70da0a13	addi	x20,x20,1805	 x20:0x408fc000 x20=0x408fc70d
         655000	        64	800000e0	00000b13	addi	x22,x0,0	  x0:0x00000000 x22=0x00000000
         665000	        65	800000e4	250f0bb7	lui	x23,0x250f0	 x23=0x250f0000
         675000	        66	800000e8	9c9b8b93	addi	x23,x23,-1591	 x23:0x250f0000 x23=0x250ef9c9
         685000	        67	800000ec	00000c13	addi	x24,x0,0	  x0:0x00000000 x24=0x00000000
         695000	        68	800000f0	80000cb7	lui	x25,0x80000	 x25=0x80000000
         705000	        69	800000f4	f36f9d37	lui	x26,0xf36f9	 x26=0xf36f9000
         715000	        70	800000f8	c16d0d13	addi	x26,x26,-1002	 x26:0xf36f9000 x26=0xf36f8c16
         725000	        71	800000fc	f9d16db7	lui	x27,0xf9d16	 x27=0xf9d16000
         735000	        72	80000100	71fd8d93	addi	x27,x27,1823	 x27:0xf9d16000 x27=0xf9d1671f
         745000	        73	80000104	00100e13	addi	x28,x0,1	  x0:0x00000000 x28=0x00000001
         755000	        74	80000108	fdc23eb7	lui	x29,0xfdc23	 x29=0xfdc23000
         765000	        75	8000010c	c10e8e93	addi	x29,x29,-1008	 x29:0xfdc23000 x29=0xfdc22c10
         775000	        76	80000110	d9c16f37	lui	x30,0xd9c16	 x30=0xd9c16000
         785000	        77	80000114	817f0f13	addi	x30,x30,-2025	 x30:0xd9c16000 x30=0xd9c15817
         795000	        78	80000118	00000f93	addi	x31,x0,0	  x0:0x00000000 x31=0x00000000
         805000	        79	8000011c	0000aa97	auipc	x21,0xa	 x21=0x8000a118
         815000	        80	80000120	e6ca8a93	addi	x21,x21,-404	 x21:0x8000a118 x21=0x80009f84
         825000	        81	80000124	00003b97	auipc	x23,0x3	 x23=0x80003120
         835000	        82	80000128	c08b8b93	addi	x23,x23,-1016	 x23:0x80003120 x23=0x80002d28
         845000	        83	8000012c	002182b7	lui	x5,0x218	  x5=0x00218000
         855000	        84	80000130	0f6af393	andi	x7,x21,246	 x21:0x80009f84  x7=0x00000084
         865000	        85	80000134	aa7f5637	lui	x12,0xaa7f5	 x12=0xaa7f5000
         875000	        86	80000138	0f1b8b93	addi	x23,x23,241	 x23:0x80002d28 x23=0x80002e19
         885000	        87	8000013c	98d64613	xori	x12,x12,-1651	 x12:0xaa7f5000 x12=0x5580a98d
         895000	        88	80000140	4192d113	srai	x2,x5,0x19	  x5:0x00218000  x2=0x00000000
         905000	        89	80000144	be5a0cb7	lui	x25,0xbe5a0	 x25=0xbe5a0000
         915000	        90	80000148	404f5433	sra	x8,x30,x4	 x30:0xd9c15817  x4:0xf29df9b2  x8=0xfffff670
         925000	        91	8000014c	b6143313	sltiu	x6,x8,-1183	  x8:0xfffff670  x6=0x00000001
         935000	        92	80000150	f0fb8be7	jalr	x23,x23,-241	 x23:0x80002e19 x23=0x80000150
         945000	        93	00000000	00000013	addi	x0,x0,0	  x0:0x00000000
         955000	        94	80002d28	00000013	addi	x0,x0,0	  x0:0x00000000
         965000	        95	80002d2c	401a5db3	sra	x27,x20,x1	 x20:0x408fc70d  x1:0x84a56f8b x27=0x000811f8
         975000	        96	80002d30	fc8a8a93	addi	x21,x21,-56	 x21:0x80009f84 x21=0x80009f4c
         985000	        97	80002d34	01c10833	add	x16,x2,x28	  x2:0x00000000 x28:0x00000001 x16=0x00000001
         995000	        98	80002d38	921eb493	sltiu	x9,x29,-1759	 x29:0xfdc22c10  x9=0x00000001
        1005000	        99	80002d3c	017aa223	sw	x23,4(x21)	 x21:0x80009f4c x23:0x80000150 PA:0x80009f50
        1015000	       100	80002d40	003eca33	xor	x20,x29,x3	 x29:0xfdc22c10  x3:0x80000000 x20=0x7dc22c10
        1025000	       101	80002d44	6f2fe693	ori	x13,x31,1778	 x31:0x00000000 x13=0x000006f2
        1035000	       102	80002d48	02b38263	beq	x7,x11,80002d6c	  x7:0x00000084 x11:0x09fecfe5
        1045000	       103	80002d4c	001d1493	slli	x9,x26,0x1	 x26:0xf36f8c16  x9=0xe6df182c
        1055000	       104	80002d50	01a89613	slli	x12,x17,0x1a	 x17:0xfaa7a296 x12=0x58000000
        1065000	       105	80002d54	00f4adb3	slt	x27,x9,x15	  x9:0xe6df182c x15:0x80009fc4 x27=0x00000000
        1075000	       106	80002d58	41af5113	srai	x2,x30,0x1a	 x30:0xd9c15817  x2=0xfffffff6
        1085000	       107	80002d5c	17f295b7	lui	x11,0x17f29	 x11=0x17f29000
        1095000	       108	80002d60	00d9a433	slt	x8,x19,x13	 x19:0x80000000 x13:0x000006f2  x8=0x00000001
        1105000	       109	80002d64	414f5eb3	sra	x29,x30,x20	 x30:0xd9c15817 x20:0x7dc22c10 x29=0xffffd9c1
        1115000	       110	80002d68	01bf20b3	slt	x1,x30,x27	 x30:0xd9c15817 x27:0x00000000  x1=0x00000001
        1125000	       111	80002d6c	d48ffbef	jal	x23,80002d6c	 x23=0x80002d6c
        1135000	       112	00000000	00000013	addi	x0,x0,0	  x0:0x00000000
        1145000	       113	800022b0	00000013	addi	x0,x0,0	  x0:0x00000000
        1155000	       114	800022b4	00000013	addi	x0,x0,0	  x0:0x00000000
        1165000	       115	800022b8	0027e463	bltu	x15,x2,800022c0	 x15:0x80009fc4  x2:0xfffffff6
        1175000	       116	00000000	00000013	addi	x0,x0,0	  x0:0x00000000
        1185000	       117	800022bc	00000013	addi	x0,x0,0	  x0:0x00000000
        1195000	       118	800022c0	fdca8a93	addi	x21,x21,-36	 x21:0x80009f4c x21=0x80009f28
        1205000	       119	800022c4	01394c33	xor	x24,x18,x19	 x18:0x00000000 x19:0x80000000 x24=0x80000000
        1215000	       120	800022c8	00000013	addi	x0,x0,0	  x0:0x00000000
        1225000	       121	800022cc	017aa223	sw	x23,4(x21)	 x21:0x80009f28 x23:0x80002d6c PA:0x80009f2c
        1235000	       122	800022d0	672f3493	sltiu	x9,x30,1650	 x30:0xd9c15817  x9=0x00000000
        1245000	       123	800022d4	7e7b7937	lui	x18,0x7e7b7	 x18=0x7e7b7000
        1255000	       124	800022d8	418a8733	sub	x14,x21,x24	 x21:0x80009f28 x24:0x80000000 x14=0x00009f28
        1265000	       125	800022dc	00c17533	and	x10,x2,x12	  x2:0xfffffff6 x12:0x58000000 x10=0x58000000
        1275000	       126	800022e0	00700913	addi	x18,x0,7	  x0:0x00000000 x18=0x00000007
        1285000	       127	800022e4	fff00993	addi	x19,x0,-1	  x0:0x00000000 x19=0xffffffff
        1295000	       128	800022e8	41425093	srai	x1,x4,0x14	  x4:0xf29df9b2  x1=0xffffff29
        1305000	       129	800022ec	c86a18b7	lui	x17,0xc86a1	 x17=0xc86a1000
        1315000	       130	800022f0	0038f6b3	and	x13,x17,x3	 x17:0xc86a1000  x3:0x80000000 x13=0x80000000
        1325000	       131	800022f4	00b87433	and	x8,x16,x11	 x16:0x00000001 x11:0x17f29000  x8=0x00000000
        1335000	       132	800022f8	ff890913	addi	x18,x18,-8	 x18:0x00000007 x18=0xffffffff
        1345000	       133	800022fc	4ea1ba13	sltiu	x20,x3,1258	  x3:0x80000000 x20=0x00000000
        1355000	       134	80002300	00f42c33	slt	x24,x8,x15	  x8:0x00000000 x15:0x80009fc4 x24=0x00000000
        1365000	       135	80002304	0057a833	slt	x16,x15,x5	 x15:0x80009fc4  x5:0x00218000 x16=0x00000001
        1375000	       136	80002308	00a00b93	addi	x23,x0,10	  x0:0x00000000 x23=0x0000000a
        1385000	       137	8000230c	012a02b3	add	x5,x20,x18	 x20:0x00000000 x18:0xffffffff  x5=0xffffffff
        1395000	       138	80002310	ffe00713	addi	x14,x0,-2	  x0:0x00000000 x14=0xfffffffe
        1405000	       139	80002314	bff06513	ori	x10,x0,-1025	  x0:0x00000000 x10=0xfffffbff
        1415000	       140	80002318	40a651b3	sra	x3,x12,x10	 x12:0x58000000 x10:0xfffffbff  x3=0x00000000
        1425000	       141	8000231c	ffcb8b93	addi	x23,x23,-4	 x23:0x0000000a x23=0x00000006
        1435000	       142	80002320	e1e5b493	sltiu	x9,x11,-482	 x11:0x17f29000  x9=0x00000001
        1445000	       143	80002324	feeb98e3	bne	x23,x14,80002314	 x23:0x00000006 x14:0xfffffffe
        1455000	       144	00000000	00000013	addi	x0,x0,0	  x0:0x00000000
        1465000	       145	80002310	00000013	addi	x0,x0,0	  x0:0x00000000
        1475000	       146	80002314	bff06513	ori	x10,x0,-1025	  x0:0x00000000 x10=0xfffffbff
        1485000	       147	80002318	40a651b3	sra	x3,x12,x10	 x12:0x58000000 x10:0xfffffbff  x3=0x00000000
        1495000	       148	8000231c	ffcb8b93	addi	x23,x23,-4	 x23:0x00000006 x23=0x00000002
        1505000	       149	80002320	e1e5b493	sltiu	x9,x11,-482	 x11:0x17f29000  x9=0x00000001
        1515000	       150	80002324	feeb98e3	bne	x23,x14,80002314	 x23:0x00000002 x14:0xfffffffe
        1525000	       151	00000000	00000013	addi	x0,x0,0	  x0:0x00000000
        1535000	       152	80002310	00000013	addi	x0,x0,0	  x0:0x00000000
        1545000	       153	80002314	bff06513	ori	x10,x0,-1025	  x0:0x00000000 x10=0xfffffbff
        1555000	       154	80002318	40a651b3	sra	x3,x12,x10	 x12:0x58000000 x10:0xfffffbff  x3=0x00000000
        1565000	       155	8000231c	ffcb8b93	addi	x23,x23,-4	 x23:0x00000002 x23=0xfffffffe
        1575000	       156	80002320	e1e5b493	sltiu	x9,x11,-482	 x11:0x17f29000  x9=0x00000001
        1585000	       157	80002324	feeb98e3	bne	x23,x14,80002314	 x23:0xfffffffe x14:0xfffffffe
        1595000	       158	80002328	932d0113	addi	x2,x26,-1742	 x26:0xf36f8c16  x2=0xf36f8548
        1605000	       159	8000232c	00000013	addi	x0,x0,0	  x0:0x00000000
        1615000	       160	80002330	6fde4e13	xori	x28,x28,1789	 x28:0x00000001 x28=0x000006fc
        1625000	       161	80002334	fb390ee3	beq	x18,x19,800022f0	 x18:0xffffffff x19:0xffffffff
        1635000	       162	00000000	00000013	addi	x0,x0,0	  x0:0x00000000
        1645000	       163	800022ec	00000013	addi	x0,x0,0	  x0:0x00000000
        1655000	       164	800022f0	0038f6b3	and	x13,x17,x3	 x17:0xc86a1000  x3:0x00000000 x13=0x00000000
        1665000	       165	800022f4	00b87433	and	x8,x16,x11	 x16:0x00000001 x11:0x17f29000  x8=0x00000000
        1675000	       166	800022f8	ff890913	addi	x18,x18,-8	 x18:0xffffffff x18=0xfffffff7
        1685000	       167	800022fc	4ea1ba13	sltiu	x20,x3,1258	  x3:0x00000000 x20=0x00000001
        1695000	       168	80002300	00f42c33	slt	x24,x8,x15	  x8:0x00000000 x15:0x80009fc4 x24=0x00000000
        1705000	       169	80002304	0057a833	slt	x16,x15,x5	 x15:0x80009fc4  x5:0xffffffff x16=0x00000001
        1715000	       170	80002308	00a00b93	addi	x23,x0,10	  x0:0x00000000 x23=0x0000000a
        1725000	       171	8000230c	012a02b3	add	x5,x20,x18	 x20:0x00000001 x18:0xfffffff7  x5=0xfffffff8
        1735000	       172	80002310	ffe00713	addi	x14,x0,-2	  x0:0x00000000 x14=0xfffffffe
        1745000	       173	80002314	bff06513	ori	x10,x0,-1025	  x0:0x00000000 x10=0xfffffbff
        1755000	       174	80002318	40a651b3	sra	x3,x12,x10	 x12:0x58000000 x10:0xfffffbff  x3=0x00000000
        1765000	       175	8000231c	ffcb8b93	addi	x23,x23,-4	 x23:0x0000000a x23=0x00000006
        1775000	       176	80002320	e1e5b493	sltiu	x9,x11,-482	 x11:0x17f29000  x9=0x00000001
        1785000	       177	80002324	feeb98e3	bne	x23,x14,80002314	 x23:0x00000006 x14:0xfffffffe
        1795000	       178	00000000	00000013	addi	x0,x0,0	  x0:0x00000000
        1805000	       179	80002310	00000013	addi	x0,x0,0	  x0:0x00000000
        1815000	       180	80002314	bff06513	ori	x10,x0,-1025	  x0:0x00000000 x10=0xfffffbff
        1825000	       181	80002318	40a651b3	sra	x3,x12,x10	 x12:0x58000000 x10:0xfffffbff  x3=0x00000000
        1835000	       182	8000231c	ffcb8b93	addi	x23,x23,-4	 x23:0x00000006 x23=0x00000002
        1845000	       183	80002320	e1e5b493	sltiu	x9,x11,-482	 x11:0x17f29000  x9=0x00000001
        1855000	       184	80002324	feeb98e3	bne	x23,x14,80002314	 x23:0x00000002 x14:0xfffffffe
        1865000	       185	00000000	00000013	addi	x0,x0,0	  x0:0x00000000
        1875000	       186	80002310	00000013	addi	x0,x0,0	  x0:0x00000000
        1885000	       187	80002314	bff06513	ori	x10,x0,-1025	  x0:0x00000000 x10=0xfffffbff
        1895000	       188	80002318	40a651b3	sra	x3,x12,x10	 x12:0x58000000 x10:0xfffffbff  x3=0x00000000
        1905000	       189	8000231c	ffcb8b93	addi	x23,x23,-4	 x23:0x00000002 x23=0xfffffffe
        1915000	       190	80002320	e1e5b493	sltiu	x9,x11,-482	 x11:0x17f29000  x9=0x00000001
        1925000	       191	80002324	feeb98e3	bne	x23,x14,80002314	 x23:0xfffffffe x14:0xfffffffe
        1935000	       192	80002328	932d0113	addi	x2,x26,-1742	 x26:0xf36f8c16  x2=0xf36f8548
        1945000	       193	8000232c	00000013	addi	x0,x0,0	  x0:0x00000000
        1955000	       194	80002330	6fde4e13	xori	x28,x28,1789	 x28:0x000006fc x28=0x00000001
        1965000	       195	80002334	fb390ee3	beq	x18,x19,800022f0	 x18:0xfffffff7 x19:0xffffffff
        1975000	       196	80002338	1819b293	sltiu	x5,x19,385	 x19:0xffffffff  x5=0x00000000
        1985000	       197	8000233c	ff700813	addi	x16,x0,-9	  x0:0x00000000 x16=0xfffffff7
        1995000	       198	80002340	5d9a6c13	ori	x24,x20,1497	 x20:0x00000001 x24=0x000005d9
        2005000	       199	80002344	00d3b0b3	sltu	x1,x7,x13	  x7:0x00000084 x13:0x00000000  x1=0x00000000
        2015000	       200	80002348	0e6a4613	xori	x12,x20,230	 x20:0x00000001 x12=0x000000e7
        2025000	       201	8000234c	00900b93	addi	x23,x0,9	  x0:0x00000000 x23=0x00000009
        2035000	       202	80002350	014a3fb3	sltu	x31,x20,x20	 x20:0x00000001 x20:0x00000001 x31=0x00000000
        2045000	       203	80002354	00a339b3	sltu	x19,x6,x10	  x6:0x00000001 x10:0xfffffbff x19=0x00000001
        2055000	       204	80002358	014598b3	sll	x17,x11,x20	 x11:0x17f29000 x20:0x00000001 x17=0x2fe52000
        2065000	       205	8000235c	31e4aa13	slti	x20,x9,798	  x9:0x00000001 x20=0x00000001
        2075000	       206	80002360	72d7ef13	ori	x30,x15,1837	 x15:0x80009fc4 x30=0x80009fed
        2085000	       207	80002364	542e7713	andi	x14,x28,1346	 x28:0x00000001 x14=0x00000000
        2095000	       208	80002368	00a1de93	srli	x29,x3,0xa	  x3:0x00000000 x29=0x00000000
        2105000	       209	8000236c	008455b3	srl	x11,x8,x8	  x8:0x00000000  x8:0x00000000 x11=0x00000000
        2115000	       210	80002370	af83b093	sltiu	x1,x7,-1288	  x7:0x00000084  x1=0x00000001
        2125000	       211	80002374	00a80813	addi	x16,x16,10	 x16:0xfffffff7 x16=0x00000001
        2135000	       212	80002378	62b58193	addi	x3,x11,1579	 x11:0x00000000  x3=0x0000062b
        2145000	       213	8000237c	46c27593	andi	x11,x4,1132	  x4:0xf29df9b2 x11=0x00000020
        2155000	       214	80002380	0112c2b3	xor	x5,x5,x17	  x5:0x00000000 x17:0x2fe52000  x5=0x2fe52000
        2165000	       215	80002384	b0bfe497	auipc	x9,0xb0bfe	  x9=0x30c00380
        2175000	       216	80002388	0135c4b3	xor	x9,x11,x19	 x11:0x00000020 x19:0x00000001  x9=0x00000021
        2185000	       217	8000238c	01dbd313	srli	x6,x23,0x1d	 x23:0x00000009  x6=0x00000000
        2195000	       218	80002390	00ca8233	add	x4,x21,x12	 x21:0x80009f28 x12:0x000000e7  x4=0x8000a00f
        2205000	       219	80002394	fd7864e3	bltu	x16,x23,8000235c	 x16:0x00000001 x23:0x00000009
        2215000	       220	00000000	00000013	addi	x0,x0,0	  x0:0x00000000
        2225000	       221	80002358	00000013	addi	x0,x0,0	  x0:0x00000000
        2235000	       222	8000235c	31e4aa13	slti	x20,x9,798	  x9:0x00000021 x20=0x00000001
        2245000	       223	80002360	72d7ef13	ori	x30,x15,1837	 x15:0x80009fc4 x30=0x80009fed
        2255000	       224	80002364	542e7713	andi	x14,x28,1346	 x28:0x00000001 x14=0x00000000
        2265000	       225	80002368	00a1de93	srli	x29,x3,0xa	  x3:0x0000062b x29=0x00000001
        2275000	       226	8000236c	008455b3	srl	x11,x8,x8	  x8:0x00000000  x8:0x00000000 x11=0x00000000
        2285000	       227	80002370	af83b093	sltiu	x1,x7,-1288	  x7:0x00000084  x1=0x00000001
        2295000	       228	80002374	00a80813	addi	x16,x16,10	 x16:0x00000001 x16=0x0000000b
        2305000	       229	80002378	62b58193	addi	x3,x11,1579	 x11:0x00000000  x3=0x0000062b
        2315000	       230	8000237c	46c27593	andi	x11,x4,1132	  x4:0x8000a00f x11=0x0000000c
        2325000	       231	80002380	0112c2b3	xor	x5,x5,x17	  x5:0x2fe52000 x17:0x2fe52000  x5=0x00000000
        2335000	       232	80002384	b0bfe497	auipc	x9,0xb0bfe	  x9=0x30c00380
        2345000	       233	80002388	0135c4b3	xor	x9,x11,x19	 x11:0x0000000c x19:0x00000001  x9=0x0000000d
        2355000	       234	8000238c	01dbd313	srli	x6,x23,0x1d	 x23:0x00000009  x6=0x00000000
        2365000	       235	80002390	00ca8233	add	x4,x21,x12	 x21:0x80009f28 x12:0x000000e7  x4=0x8000a00f
        2375000	       236	80002394	fd7864e3	bltu	x16,x23,8000235c	 x16:0x0000000b x23:0x00000009
        2385000	       237	80002398	01fe5cb3	srl	x25,x28,x31	 x28:0x00000001 x31:0x00000000 x25=0x00000001
        2395000	       238	8000239c	ffd00713	addi	x14,x0,-3	  x0:0x00000000 x14=0xfffffffd
        2405000	       239	800023a0	00700a13	addi	x20,x0,7	  x0:0x00000000 x20=0x00000007
        2415000	       240	800023a4	0088a8b3	slt	x17,x17,x8	 x17:0x2fe52000  x8:0x00000000 x17=0x00000000
        2425000	       241	800023a8	00970713	addi	x14,x14,9	 x14:0xfffffffd x14=0x00000006
        2435000	       242	800023ac	ffc00093	addi	x1,x0,-4	  x0:0x00000000  x1=0xfffffffc
        2445000	       243	800023b0	72ef4393	xori	x7,x30,1838	 x30:0x80009fed  x7=0x800098c3
        2455000	       244	800023b4	ffb00413	addi	x8,x0,-5	  x0:0x00000000  x8=0xfffffffb
        2465000	       245	800023b8	0070ed33	or	x26,x1,x7	  x1:0xfffffffc  x7:0x800098c3 x26=0xffffffff
        2475000	       246	800023bc	00000013	addi	x0,x0,0	  x0:0x00000000
        2485000	       247	800023c0	ff908093	addi	x1,x1,-7	  x1:0xfffffffc  x1=0xfffffff5
        2495000	       248	800023c4	fe80dae3	bge	x1,x8,800023b8	  x1:0xfffffff5  x8:0xfffffffb
        2505000	       249	800023c8	fd476ee3	bltu	x14,x20,800023a4	 x14:0x00000006 x20:0x00000007
        2515000	       250	00000000	00000013	addi	x0,x0,0	  x0:0x00000000
        2525000	       251	800023a0	00000013	addi	x0,x0,0	  x0:0x00000000
        2535000	       252	800023a4	0088a8b3	slt	x17,x17,x8	 x17:0x00000000  x8:0xfffffffb x17=0x00000000
        2545000	       253	800023a8	00970713	addi	x14,x14,9	 x14:0x00000006 x14=0x0000000f
        2555000	       254	800023ac	ffc00093	addi	x1,x0,-4	  x0:0x00000000  x1=0xfffffffc
        2565000	       255	800023b0	72ef4393	xori	x7,x30,1838	 x30:0x80009fed  x7=0x800098c3
        2575000	       256	800023b4	ffb00413	addi	x8,x0,-5	  x0:0x00000000  x8=0xfffffffb
        2585000	       257	800023b8	0070ed33	or	x26,x1,x7	  x1:0xfffffffc  x7:0x800098c3 x26=0xffffffff
        2595000	       258	800023bc	00000013	addi	x0,x0,0	  x0:0x00000000
        2605000	       259	800023c0	ff908093	addi	x1,x1,-7	  x1:0xfffffffc  x1=0xfffffff5
        2615000	       260	800023c4	fe80dae3	bge	x1,x8,800023b8	  x1:0xfffffff5  x8:0xfffffffb
        2625000	       261	800023c8	fd476ee3	bltu	x14,x20,800023a4	 x14:0x0000000f x20:0x00000007
        2635000	       262	800023cc	63a9fe93	andi	x29,x19,1594	 x19:0x00000001 x29=0x00000000
        2645000	       263	800023d0	ff800d93	addi	x27,x0,-8	  x0:0x00000000 x27=0xfffffff8
        2655000	       264	800023d4	00c25293	srli	x5,x4,0xc	  x4:0x8000a00f  x5=0x0008000a
        2665000	       265	800023d8	00400813	addi	x16,x0,4	  x0:0x00000000 x16=0x00000004
        2675000	       266	800023dc	417f7d13	andi	x26,x30,1047	 x30:0x80009fed x26=0x00000405
        2685000	       267	800023e0	00495213	srli	x4,x18,0x4	 x18:0xfffffff7  x4=0x0fffffff
        2695000	       268	800023e4	2712b993	sltiu	x19,x5,625	  x5:0x0008000a x19=0x00000000
        2705000	       269	800023e8	409d59b3	sra	x19,x26,x9	 x26:0x00000405  x9:0x0000000d x19=0x00000000
        2715000	       270	800023ec	006d8d93	addi	x27,x27,6	 x27:0xfffffff8 x27=0xfffffffe
        2725000	       271	800023f0	ff800f93	addi	x31,x0,-8	  x0:0x00000000 x31=0xfffffff8
        2735000	       272	800023f4	00600693	addi	x13,x0,6	  x0:0x00000000 x13=0x00000006
        2745000	       273	800023f8	00a501b3	add	x3,x10,x10	 x10:0xfffffbff x10:0xfffffbff  x3=0xfffff7fe
        2755000	       274	800023fc	00fc2cb3	slt	x25,x24,x15	 x24:0x000005d9 x15:0x80009fc4 x25=0x00000000
        2765000	       275	80002400	007f8f93	addi	x31,x31,7	 x31:0xfffffff8 x31=0xffffffff
        2775000	       276	80002404	af448eb7	lui	x29,0xaf448	 x29=0xaf448000
        2785000	       277	80002408	fedfeae3	bltu	x31,x13,800023fc	 x31:0xffffffff x13:0x00000006
        2795000	       278	8000240c	fd0d9ce3	bne	x27,x16,800023e4	 x27:0xfffffffe x16:0x00000004
        2805000	       279	00000000	00000013	addi	x0,x0,0	  x0:0x00000000
        2815000	       280	800023e0	00000013	addi	x0,x0,0	  x0:0x00000000
        2825000	       281	800023e4	2712b993	sltiu	x19,x5,625	  x5:0x0008000a x19=0x00000000
        2835000	       282	800023e8	409d59b3	sra	x19,x26,x9	 x26:0x00000405  x9:0x0000000d x19=0x00000000
        2845000	       283	800023ec	006d8d93	addi	x27,x27,6	 x27:0xfffffffe x27=0x00000004
        2855000	       284	800023f0	ff800f93	addi	x31,x0,-8	  x0:0x00000000 x31=0xfffffff8
        2865000	       285	800023f4	00600693	addi	x13,x0,6	  x0:0x00000000 x13=0x00000006
        2875000	       286	800023f8	00a501b3	add	x3,x10,x10	 x10:0xfffffbff x10:0xfffffbff  x3=0xfffff7fe
        2885000	       287	800023fc	00fc2cb3	slt	x25,x24,x15	 x24:0x000005d9 x15:0x80009fc4 x25=0x00000000
        2895000	       288	80002400	007f8f93	addi	x31,x31,7	 x31:0xfffffff8 x31=0xffffffff
        2905000	       289	80002404	af448eb7	lui	x29,0xaf448	 x29=0xaf448000
        2915000	       290	80002408	fedfeae3	bltu	x31,x13,800023fc	 x31:0xffffffff x13:0x00000006
        2925000	       291	8000240c	fd0d9ce3	bne	x27,x16,800023e4	 x27:0x00000004 x16:0x00000004
        2935000	       292	80002410	00eca1b3	slt	x3,x25,x14	 x25:0x00000000 x14:0x0000000f  x3=0x00000001
        2945000	       293	80002414	ffd00413	addi	x8,x0,-3	  x0:0x00000000  x8=0xfffffffd
        2955000	       294	80002418	83eda197	auipc	x3,0x83eda	  x3=0x03edc414
        2965000	       295	8000241c	57766b93	ori	x23,x12,1399	 x12:0x000000e7 x23=0x000005f7
        2975000	       296	80002420	fed00c93	addi	x25,x0,-19	  x0:0x00000000 x25=0xffffffed
        2985000	       297	80002424	01261d13	slli	x26,x12,0x12	 x12:0x000000e7 x26=0x039c0000
        2995000	       298	80002428	b0b4e297	auipc	x5,0xb0b4e	  x5=0x30b50424
        3005000	       299	8000242c	006d85b3	add	x11,x27,x6	 x27:0x00000004  x6:0x00000000 x11=0x00000004
        3015000	       300	80002430	4297ff13	andi	x30,x15,1065	 x15:0x80009fc4 x30=0x00000400
        3025000	       301	80002434	00e66f33	or	x30,x12,x14	 x12:0x000000e7 x14:0x0000000f x30=0x000000ef
        3035000	       302	80002438	5b0a6613	ori	x12,x20,1456	 x20:0x00000007 x12=0x000005b7
        3045000	       303	8000243c	23b98393	addi	x7,x19,571	 x19:0x00000000  x7=0x0000023b
        3055000	       304	80002440	0142a733	slt	x14,x5,x20	  x5:0x30b50424 x20:0x00000007 x14=0x00000000
        3065000	       305	80002444	00bf18b3	sll	x17,x30,x11	 x30:0x000000ef x11:0x00000004 x17=0x00000ef0
        3075000	       306	80002448	00059113	slli	x2,x11,0x0	 x11:0x00000004  x2=0x00000004
        3085000	       307	8000244c	ffa40413	addi	x8,x8,-6	  x8:0xfffffffd  x8=0xfffffff7
        3095000	       308	80002450	a595a497	auipc	x9,0xa595a	  x9=0x2595c44c
        3105000	       309	80002454	0f7912b7	lui	x5,0xf791	  x5=0x0f791000
        3115000	       310	80002458	0125c733	xor	x14,x11,x18	 x11:0x00000004 x18:0xfffffff7 x14=0xfffffff3
        3125000	       311	8000245c	61ab9d17	auipc	x26,0x61ab9	 x26=0xe1abb458
        3135000	       312	80002460	ff9450e3	bge	x8,x25,80002440	  x8:0xfffffff7 x25:0xffffffed
        3145000	       313	00000000	00000013	addi	x0,x0,0	  x0:0x00000000
        3155000	       314	8000243c	00000013	addi	x0,x0,0	  x0:0x00000000
        3165000	       315	80002440	0142a733	slt	x14,x5,x20	  x5:0x0f791000 x20:0x00000007 x14=0x00000000
        3175000	       316	80002444	00bf18b3	sll	x17,x30,x11	 x30:0x000000ef x11:0x00000004 x17=0x00000ef0
        3185000	       317	80002448	00059113	slli	x2,x11,0x0	 x11:0x00000004  x2=0x00000004
        3195000	       318	8000244c	ffa40413	addi	x8,x8,-6	  x8:0xfffffff7  x8=0xfffffff1
        3205000	       319	80002450	a595a497	auipc	x9,0xa595a	  x9=0x2595c44c
        3215000	       320	80002454	0f7912b7	lui	x5,0xf791	  x5=0x0f791000
        3225000	       321	80002458	0125c733	xor	x14,x11,x18	 x11:0x00000004 x18:0xfffffff7 x14=0xfffffff3
        3235000	       322	8000245c	61ab9d17	auipc	x26,0x61ab9	 x26=0xe1abb458
        3245000	       323	80002460	ff9450e3	bge	x8,x25,80002440	  x8:0xfffffff1 x25:0xffffffed
        3255000	       324	00000000	00000013	addi	x0,x0,0	  x0:0x00000000
        3265000	       325	8000243c	00000013	addi	x0,x0,0	  x0:0x00000000
        3275000	       326	80002440	0142a733	slt	x14,x5,x20	  x5:0x0f791000 x20:0x00000007 x14=0x00000000
        3285000	       327	80002444	00bf18b3	sll	x17,x30,x11	 x30:0x000000ef x11:0x00000004 x17=0x00000ef0
        3295000	       328	80002448	00059113	slli	x2,x11,0x0	 x11:0x00000004  x2=0x00000004
        3305000	       329	8000244c	ffa40413	addi	x8,x8,-6	  x8:0xfffffff1  x8=0xffffffeb
        3315000	       330	80002450	a595a497	auipc	x9,0xa595a	  x9=0x2595c44c
        3325000	       331	80002454	0f7912b7	lui	x5,0xf791	  x5=0x0f791000
        3335000	       332	80002458	0125c733	xor	x14,x11,x18	 x11:0x00000004 x18:0xfffffff7 x14=0xfffffff3
        3345000	       333	8000245c	61ab9d17	auipc	x26,0x61ab9	 x26=0xe1abb458
        3355000	       334	80002460	ff9450e3	bge	x8,x25,80002440	  x8:0xffffffeb x25:0xffffffed
        3365000	       335	80002464	396f5337	lui	x6,0x396f5	  x6=0x396f5000
        3375000	       336	80002468	00900d93	addi	x27,x0,9	  x0:0x00000000 x27=0x00000009
        3385000	       337	8000246c	003991b3	sll	x3,x19,x3	 x19:0x00000000  x3:0x03edc414  x3=0x00000000
        3395000	       338	80002470	00d412b3	sll	x5,x8,x13	  x8:0xffffffeb x13:0x00000006  x5=0xfffffac0
        3405000	       339	80002474	01460bb3	add	x23,x12,x20	 x12:0x000005b7 x20:0x00000007 x23=0x000005be
        3415000	       340	80002478	01000c13	addi	x24,x0,16	  x0:0x00000000 x24=0x00000010
        3425000	       341	8000247c	af14b113	sltiu	x2,x9,-1295	  x9:0x2595c44c  x2=0x00000001
        3435000	       342	80002480	71944a13	xori	x20,x8,1817	  x8:0xffffffeb x20=0xfffff8f2
        3445000	       343	80002484	bcb72d13	slti	x26,x14,-1077	 x14:0xfffffff3 x26=0x00000000
        3455000	       344	80002488	008d8d93	addi	x27,x27,8	 x27:0x00000009 x27=0x00000011
        3465000	       345	8000248c	01e9ba33	sltu	x20,x19,x30	 x19:0x00000000 x30:0x000000ef x20=0x00000001
        3475000	       346	80002490	00a00213	addi	x4,x0,10	  x0:0x00000000  x4=0x0000000a
        3485000	       347	80002494	d18bcb93	xori	x23,x23,-744	 x23:0x000005be x23=0xfffff8a6
        3495000	       348	80002498	00900593	addi	x11,x0,9	  x0:0x00000000 x11=0x00000009
        3505000	       349	8000249c	0119af33	slt	x30,x19,x17	 x19:0x00000000 x17:0x00000ef0 x30=0x00000001
        3515000	       350	800024a0	00000013	addi	x0,x0,0	  x0:0x00000000
        3525000	       351	800024a4	ff920213	addi	x4,x4,-7	  x4:0x0000000a  x4=0x00000003
        3535000	       352	800024a8	feb27ae3	bgeu	x4,x11,8000249c	  x4:0x00000003 x11:0x00000009
        3545000	       353	800024ac	00374833	xor	x16,x14,x3	 x14:0xfffffff3  x3:0x00000000 x16=0xfffffff3
        3555000	       354	800024b0	421c2693	slti	x13,x24,1057	 x24:0x00000010 x13=0x00000001
        3565000	       355	800024b4	fd8dc6e3	blt	x27,x24,80002480	 x27:0x00000011 x24:0x00000010
        3575000	       356	800024b8	22afc193	xori	x3,x31,554	 x31:0xffffffff  x3=0xfffffdd5
        3585000	       357	800024bc	00000993	addi	x19,x0,0	  x0:0x00000000 x19=0x00000000
        3595000	       358	800024c0	01c42433	slt	x8,x8,x28	  x8:0xffffffeb x28:0x00000001  x8=0x00000001
        3605000	       359	800024c4	ff600a13	addi	x20,x0,-10	  x0:0x00000000 x20=0xfffffff6
        3615000	       360	800024c8	41ab0633	sub	x12,x22,x26	 x22:0x00000000 x26:0x00000000 x12=0x00000000
        3625000	       361	800024cc	ff998993	addi	x19,x19,-7	 x19:0x00000000 x19=0xfffffff9
        3635000	       362	800024d0	5aeae813	ori	x16,x21,1454	 x21:0x80009f28 x16=0x80009fae
        3645000	       363	800024d4	4119d433	sra	x8,x19,x17	 x19:0xfffffff9 x17:0x00000ef0  x8=0xffffffff
        3655000	       364	800024d8	df683f93	sltiu	x31,x16,-522	 x16:0x80009fae x31=0x00000001
        3665000	       365	800024dc	012c9eb3	sll	x29,x25,x18	 x25:0xffffffed x18:0xfffffff7 x29=0xf6800000
        3675000	       366	800024e0	7b20e193	ori	x3,x1,1970	  x1:0xfffffff5  x3=0xfffffff7
        3685000	       367	800024e4	0d1e6693	ori	x13,x28,209	 x28:0x00000001 x13=0x000000d1
        3695000	       368	800024e8	00721d33	sll	x26,x4,x7	  x4:0x00000003  x7:0x0000023b x26=0x18000000
        3705000	       369	800024ec	01843733	sltu	x14,x8,x24	  x8:0xffffffff x24:0x00000010 x14=0x00000000
        3715000	       370	800024f0	fd49dce3	bge	x19,x20,800024c8	 x19:0xfffffff9 x20:0xfffffff6
        3725000	       371	00000000	00000013	addi	x0,x0,0	  x0:0x00000000
        3735000	       372	800024c4	00000013	addi	x0,x0,0	  x0:0x00000000
        3745000	       373	800024c8	41ab0633	sub	x12,x22,x26	 x22:0x00000000 x26:0x18000000 x12=0xe8000000
        3755000	       374	800024cc	ff998993	addi	x19,x19,-7	 x19:0xfffffff9 x19=0xfffffff2
        3765000	       375	800024d0	5aeae813	ori	x16,x21,1454	 x21:0x80009f28 x16=0x80009fae
        3775000	       376	800024d4	4119d433	sra	x8,x19,x17	 x19:0xfffffff2 x17:0x00000ef0  x8=0xffffffff
        3785000	       377	800024d8	df683f93	sltiu	x31,x16,-522	 x16:0x80009fae x31=0x00000001
        3795000	       378	800024dc	012c9eb3	sll	x29,x25,x18	 x25:0xffffffed x18:0xfffffff7 x29=0xf6800000
        3805000	       379	800024e0	7b20e193	ori	x3,x1,1970	  x1:0xfffffff5  x3=0xfffffff7
        3815000	       380	800024e4	0d1e6693	ori	x13,x28,209	 x28:0x00000001 x13=0x000000d1
        3825000	       381	800024e8	00721d33	sll	x26,x4,x7	  x4:0x00000003  x7:0x0000023b x26=0x18000000
        3835000	       382	800024ec	01843733	sltu	x14,x8,x24	  x8:0xffffffff x24:0x00000010 x14=0x00000000
        3845000	       383	800024f0	fd49dce3	bge	x19,x20,800024c8	 x19:0xfffffff2 x20:0xfffffff6
        3855000	       384	800024f4	00091db3	sll	x27,x18,x0	 x18:0xfffffff7  x0:0x00000000 x27=0xfffffff7
        3865000	       385	800024f8	fff00493	addi	x9,x0,-1	  x0:0x00000000  x9=0xffffffff
        3875000	       386	800024fc	00e25eb3	srl	x29,x4,x14	  x4:0x00000003 x14:0x00000000 x29=0x00000003
        3885000	       387	80002500	ffd00993	addi	x19,x0,-3	  x0:0x00000000 x19=0xfffffffd
        3895000	       388	80002504	3afe7313	andi	x6,x28,943	 x28:0x00000001  x6=0x00000001
        3905000	       389	80002508	ffb48493	addi	x9,x9,-5	  x9:0xffffffff  x9=0xfffffffa
        3915000	       390	8000250c	d2c2b313	sltiu	x6,x5,-724	  x5:0xfffffac0  x6=0x00000001
        3925000	       391	80002510	01bb2933	slt	x18,x22,x27	 x22:0x00000000 x27:0xfffffff7 x18=0x00000000
        3935000	       392	80002514	ff34d8e3	bge	x9,x19,80002504	  x9:0xfffffffa x19:0xfffffffd
        3945000	       393	80002518	62346d93	ori	x27,x8,1571	  x8:0xffffffff x27=0xffffffff
        3955000	       394	8000251c	ffd00693	addi	x13,x0,-3	  x0:0x00000000 x13=0xfffffffd
        3965000	       395	80002520	00900093	addi	x1,x0,9	  x0:0x00000000  x1=0x00000009
        3975000	       396	80002524	40c3d833	sra	x16,x7,x12	  x7:0x0000023b x12:0xe8000000 x16=0x0000023b
        3985000	       397	80002528	006c5c33	srl	x24,x24,x6	 x24:0x00000010  x6:0x00000001 x24=0x00000008
        3995000	       398	8000252c	014ae633	or	x12,x21,x20	 x21:0x80009f28 x20:0xfffffff6 x12=0xfffffffe
        4005000	       399	80002530	00468693	addi	x13,x13,4	 x13:0xfffffffd x13=0x00000001
        4015000	       400	80002534	00397a33	and	x20,x18,x3	 x18:0x00000000  x3:0xfffffff7 x20=0x00000000
        4025000	       401	80002538	00200193	addi	x3,x0,2	  x0:0x00000000  x3=0x00000002
        4035000	       402	8000253c	ff000113	addi	x2,x0,-16	  x0:0x00000000  x2=0xfffffff0
        4045000	       403	80002540	438a3713	sltiu	x14,x20,1080	 x20:0x00000000 x14=0x00000001
        4055000	       404	80002544	7487f593	andi	x11,x15,1864	 x15:0x80009fc4 x11=0x00000740
        4065000	       405	80002548	ff718193	addi	x3,x3,-9	  x3:0x00000002  x3=0xfffffff9
        4075000	       406	8000254c	fe21dae3	bge	x3,x2,80002540	  x3:0xfffffff9  x2:0xfffffff0
        4085000	       407	00000000	00000013	addi	x0,x0,0	  x0:0x00000000
        4095000	       408	8000253c	00000013	addi	x0,x0,0	  x0:0x00000000
        4105000	       409	80002540	438a3713	sltiu	x14,x20,1080	 x20:0x00000000 x14=0x00000001
        4115000	       410	80002544	7487f593	andi	x11,x15,1864	 x15:0x80009fc4 x11=0x00000740
        4125000	       411	80002548	ff718193	addi	x3,x3,-9	  x3:0xfffffff9  x3=0xfffffff0
        4135000	       412	8000254c	fe21dae3	bge	x3,x2,80002540	  x3:0xfffffff0  x2:0xfffffff0
        4145000	       413	00000000	00000013	addi	x0,x0,0	  x0:0x00000000
        4155000	       414	8000253c	00000013	addi	x0,x0,0	  x0:0x00000000
        4165000	       415	80002540	438a3713	sltiu	x14,x20,1080	 x20:0x00000000 x14=0x00000001
        4175000	       416	80002544	7487f593	andi	x11,x15,1864	 x15:0x80009fc4 x11=0x00000740
        4185000	       417	80002548	ff718193	addi	x3,x3,-9	  x3:0xfffffff0  x3=0xffffffe7
        4195000	       418	8000254c	fe21dae3	bge	x3,x2,80002540	  x3:0xffffffe7  x2:0xfffffff0
        4205000	       419	80002550	fc168ee3	beq	x13,x1,8000252c	 x13:0x00000001  x1:0x00000009
        4215000	       420	80002554	010cb733	sltu	x14,x25,x16	 x25:0xffffffed x16:0x0000023b x14=0x00000000
        4225000	       421	80002558	018c52b3	srl	x5,x24,x24	 x24:0x00000008 x24:0x00000008  x5=0x00000000
        4235000	       422	8000255c	405b0633	sub	x12,x22,x5	 x22:0x00000000  x5:0x00000000 x12=0x00000000
        4245000	       423	80002560	018c9993	slli	x19,x25,0x18	 x25:0xffffffed x19=0xed000000
        4255000	       424	80002564	00ff1093	slli	x1,x30,0xf	 x30:0x00000001  x1=0x00008000
        4265000	       425	80002568	b970b5b7	lui	x11,0xb970b	 x11=0xb970b000
        4275000	       426	8000256c	00251493	slli	x9,x10,0x2	 x10:0xfffffbff  x9=0xffffeffc
        4285000	       427	80002570	0205fa63	bgeu	x11,x0,800025a4	 x11:0xb970b000  x0:0x00000000
        4295000	       428	00000000	00000013	addi	x0,x0,0	  x0:0x00000000
        4305000	       429	800025a0	00000013	addi	x0,x0,0	  x0:0x00000000
        4315000	       430	800025a4	805cbc17	auipc	x24,0x805cb	 x24=0x005cd5a0
        4325000	       431	800025a8	00539c63	bne	x7,x5,800025c0	  x7:0x0000023b  x5:0x00000000
        4335000	       432	00000000	00000013	addi	x0,x0,0	  x0:0x00000000
        4345000	       433	800025bc	00000013	addi	x0,x0,0	  x0:0x00000000
        4355000	       434	800025c0	5206a093	slti	x1,x13,1312	 x13:0x00000001  x1=0x00000001
        4365000	       435	800025c4	04e80663	beq	x16,x14,80002610	 x16:0x0000023b x14:0x00000000
        4375000	       436	800025c8	00f65933	srl	x18,x12,x15	 x12:0x00000000 x15:0x80009fc4 x18=0x00000000
        4385000	       437	800025cc	00dc0d33	add	x26,x24,x13	 x24:0x005cd5a0 x13:0x00000001 x26=0x005cd5a1
        4395000	       438	800025d0	40235f33	sra	x30,x6,x2	  x6:0x00000001  x2:0xfffffff0 x30=0x00000000
        4405000	       439	800025d4	db63c993	xori	x19,x7,-586	  x7:0x0000023b x19=0xffffff8d
        4415000	       440	800025d8	054b6863	bltu	x22,x20,80002628	 x22:0x00000000 x20:0x00000000
        4425000	       441	800025dc	00066833	or	x16,x12,x0	 x12:0x00000000  x0:0x00000000 x16=0x00000000
        4435000	       442	800025e0	03930063	beq	x6,x25,80002600	  x6:0x00000001 x25:0xffffffed
        4445000	       443	800025e4	0030f4b3	and	x9,x1,x3	  x1:0x00000001  x3:0xffffffe7  x9=0x00000001
        4455000	       444	800025e8	0d050693	addi	x13,x10,208	 x10:0xfffffbff x13=0xfffffccf
        4465000	       445	800025ec	01355863	bge	x10,x19,800025fc	 x10:0xfffffbff x19:0xffffff8d
        4475000	       446	800025f0	23b78f93	addi	x31,x15,571	 x15:0x80009fc4 x31=0x8000a1ff
        4485000	       447	800025f4	bf6b4213	xori	x4,x22,-1034	 x22:0x00000000  x4=0xfffffbf6
        4495000	       448	800025f8	c3b16e13	ori	x28,x2,-965	  x2:0xfffffff0 x28=0xfffffffb
        4505000	       449	800025fc	a6f2a613	slti	x12,x5,-1425	  x5:0x00000000 x12=0x00000000
        4515000	       450	80002600	2d21af13	slti	x30,x3,722	  x3:0xffffffe7 x30=0x00000001
        4525000	       451	80002604	0182ceb3	xor	x29,x5,x24	  x5:0x00000000 x24:0x005cd5a0 x29=0x005cd5a0
        4535000	       452	80002608	41f8d113	srai	x2,x17,0x1f	 x17:0x00000ef0  x2=0x00000000
        4545000	       453	8000260c	023c0063	beq	x24,x3,8000262c	 x24:0x005cd5a0  x3:0xffffffe7
        4555000	       454	80002610	001ecf33	xor	x30,x29,x1	 x29:0x005cd5a0  x1:0x00000001 x30=0x005cd5a1
        4565000	       455	80002614	05ea8863	beq	x21,x30,80002664	 x21:0x80009f28 x30:0x005cd5a1
        4575000	       456	80002618	71727617	auipc	x12,0x71727	 x12=0xf1729614
        4585000	       457	8000261c	018bfbb3	and	x23,x23,x24	 x23:0xfffff8a6 x24:0x005cd5a0 x23=0x005cd0a0
        4595000	       458	80002620	00eec863	blt	x29,x14,80002630	 x29:0x005cd5a0 x14:0x00000000
        4605000	       459	80002624	03870263	beq	x14,x24,80002648	 x14:0x00000000 x24:0x005cd5a0
        4615000	       460	80002628	0099d233	srl	x4,x19,x9	 x19:0xffffff8d  x9:0x00000001  x4=0x7fffffc6
        4625000	       461	8000262c	8ad88313	addi	x6,x17,-1875	 x17:0x00000ef0  x6=0x0000079d
        4635000	       462	80002630	8818d317	auipc	x6,0x8818d	  x6=0x0818f62c
        4645000	       463	80002634	055a7463	bgeu	x20,x21,8000267c	 x20:0x00000000 x21:0x80009f28
        4655000	       464	80002638	0021d393	srli	x7,x3,0x2	  x3:0xffffffe7  x7=0x3ffffff9
        4665000	       465	8000263c	0132e333	or	x6,x5,x19	  x5:0x00000000 x19:0xffffff8d  x6=0xffffff8d
        4675000	       466	80002640	01d77db3	and	x27,x14,x29	 x14:0x00000000 x29:0x005cd5a0 x27=0x00000000
        4685000	       467	80002644	407ed033	sra	x0,x29,x7	 x29:0x005cd5a0  x7:0x3ffffff9
        4695000	       468	80002648	40170bb3	sub	x23,x14,x1	 x14:0x00000000  x1:0x00000001 x23=0xffffffff
        4705000	       469	8000264c	4130da33	sra	x20,x1,x19	  x1:0x00000001 x19:0xffffff8d x20=0x00000000
        4715000	       470	80002650	f78fe513	ori	x10,x31,-136	 x31:0x8000a1ff x10=0xffffffff
        4725000	       471	80002654	6b8c7e93	andi	x29,x24,1720	 x24:0x005cd5a0 x29=0x000004a0
        4735000	       472	80002658	00000013	addi	x0,x0,0	  x0:0x00000000
        4745000	       473	8000265c	00037463	bgeu	x6,x0,80002664	  x6:0xffffff8d  x0:0x00000000
        4755000	       474	00000000	00000013	addi	x0,x0,0	  x0:0x00000000
        4765000	       475	80002660	00000013	addi	x0,x0,0	  x0:0x00000000
        4775000	       476	80002664	cfe2b613	sltiu	x12,x5,-770	  x5:0x00000000 x12=0x00000001
        4785000	       477	80002668	025d8663	beq	x27,x5,80002694	 x27:0x00000000  x5:0x00000000
        4795000	       478	00000000	00000013	addi	x0,x0,0	  x0:0x00000000
        4805000	       479	80002690	00000013	addi	x0,x0,0	  x0:0x00000000
        4815000	       480	80002694	004f1e33	sll	x28,x30,x4	 x30:0x005cd5a1  x4:0x7fffffc6 x28=0x17356840
        4825000	       481	80002698	00526663	bltu	x4,x5,800026a4	  x4:0x7fffffc6  x5:0x00000000
        4835000	       482	8000269c	01ac20b3	slt	x1,x24,x26	 x24:0x005cd5a0 x26:0x005cd5a1  x1=0x00000001
        4845000	       483	800026a0	00a2d413	srli	x8,x5,0xa	  x5:0x00000000  x8=0x00000000
        4855000	       484	800026a4	016f9933	sll	x18,x31,x22	 x31:0x8000a1ff x22:0x00000000 x18=0x8000a1ff
        4865000	       485	800026a8	0240e863	bltu	x1,x4,800026d8	  x1:0x00000001  x4:0x7fffffc6
        4875000	       486	00000000	00000013	addi	x0,x0,0	  x0:0x00000000
        4885000	       487	800026d4	00000013	addi	x0,x0,0	  x0:0x00000000
        4895000	       488	800026d8	01c1e5b3	or	x11,x3,x28	  x3:0xffffffe7 x28:0x17356840 x11=0xffffffe7
        4905000	       489	800026dc	009978b3	and	x17,x18,x9	 x18:0x8000a1ff  x9:0x00000001 x17=0x00000001
        4915000	       490	800026e0	49f72c13	slti	x24,x14,1183	 x14:0x00000000 x24=0x00000001
        4925000	       491	800026e4	00905a33	srl	x20,x0,x9	  x0:0x00000000  x9:0x00000001 x20=0x00000000
        4935000	       492	800026e8	00f00fb3	add	x31,x0,x15	  x0:0x00000000 x15:0x80009fc4 x31=0x80009fc4
        4945000	       493	800026ec	01c2da13	srli	x20,x5,0x1c	  x5:0x00000000 x20=0x00000000
        4955000	       494	800026f0	00000013	addi	x0,x0,0	  x0:0x00000000
        4965000	       495	800026f4	4abb9897	auipc	x17,0x4abb9	 x17=0xcabbb6f0
        4975000	       496	800026f8	02884663	blt	x16,x8,80002724	 x16:0x00000000  x8:0x00000000
        4985000	       497	800026fc	403bd613	srai	x12,x23,0x3	 x23:0xffffffff x12=0xffffffff
        4995000	       498	80002700	01005c13	srli	x24,x0,0x10	  x0:0x00000000 x24=0x00000000
        5005000	       499	80002704	f8077413	andi	x8,x14,-128	 x14:0x00000000  x8=0x00000000
        5015000	       500	80002708	03600263	beq	x0,x22,8000272c	  x0:0x00000000 x22:0x00000000
        5025000	       501	00000000	00000013	addi	x0,x0,0	  x0:0x00000000
        5035000	       502	80002728	00000013	addi	x0,x0,0	  x0:0x00000000
        5045000	       503	8000272c	01e43133	sltu	x2,x8,x30	  x8:0x00000000 x30:0x005cd5a1  x2=0x00000001
        5055000	       504	80002730	7e0a6993	ori	x19,x20,2016	 x20:0x00000000 x19=0x000007e0
        5065000	       505	80002734	317d2e93	slti	x29,x26,791	 x26:0x005cd5a1 x29=0x00000000
        5075000	       506	80002738	0292c663	blt	x5,x9,80002764	  x5:0x00000000  x9:0x00000001
        5085000	       507	00000000	00000013	addi	x0,x0,0	  x0:0x00000000
        5095000	       508	80002760	00000013	addi	x0,x0,0	  x0:0x00000000
        5105000	       509	80002764	01221bb3	sll	x23,x4,x18	  x4:0x7fffffc6 x18:0x8000a1ff x23=0x00000000
        5115000	       510	80002768	71768c13	addi	x24,x13,1815	 x13:0xfffffccf x24=0x000003e6
        5125000	       511	8000276c	00d75863	bge	x14,x13,8000277c	 x14:0x00000000 x13:0xfffffccf
        5135000	       512	00000000	00000013	addi	x0,x0,0	  x0:0x00000000
        5145000	       513	80002778	00000013	addi	x0,x0,0	  x0:0x00000000
        5155000	       514	8000277c	d48ed237	lui	x4,0xd48ed	  x4=0xd48ed000
        5165000	       515	80002780	d775e593	ori	x11,x11,-649	 x11:0xffffffe7 x11=0xfffffff7
        5175000	       516	80002784	df887713	andi	x14,x16,-520	 x16:0x00000000 x14=0x00000000
        5185000	       517	80002788	011771b3	and	x3,x14,x17	 x14:0x00000000 x17:0xcabbb6f0  x3=0x00000000
        5195000	       518	8000278c	40a788b3	sub	x17,x15,x10	 x15:0x80009fc4 x10:0xffffffff x17=0x80009fc5
        5205000	       519	80002790	50f3d5b7	lui	x11,0x50f3d	 x11=0x50f3d000
        5215000	       520	80002794	044fda63	bge	x31,x4,800027e8	 x31:0x80009fc4  x4:0xd48ed000
        5225000	       521	80002798	509d8413	addi	x8,x27,1289	 x27:0x00000000  x8=0x00000509
        5235000	       522	8000279c	0197b5b3	sltu	x11,x15,x25	 x15:0x80009fc4 x25:0xffffffed x11=0x00000001
        5245000	       523	800027a0	4b430c93	addi	x25,x6,1204	  x6:0xffffff8d x25=0x00000441
        5255000	       524	800027a4	4086d893	srai	x17,x13,0x8	 x13:0xfffffccf x17=0xfffffffc
        5265000	       525	800027a8	dd15f713	andi	x14,x11,-559	 x11:0x00000001 x14=0x00000001
        5275000	       526	800027ac	c82ee017	auipc	x0,0xc82ee	
        5285000	       527	800027b0	aef82313	slti	x6,x16,-1297	 x16:0x00000000  x6=0x00000000
        5295000	       528	800027b4	01b2d0b3	srl	x1,x5,x27	  x5:0x00000000 x27:0x00000000  x1=0x00000000
        5305000	       529	800027b8	085d6493	ori	x9,x26,133	 x26:0x005cd5a1  x9=0x005cd5a5
        5315000	       530	800027bc	00db76b3	and	x13,x22,x13	 x22:0x00000000 x13:0xfffffccf x13=0x00000000
        5325000	       531	800027c0	49a8c493	xori	x9,x17,1178	 x17:0xfffffffc  x9=0xfffffb66
        5335000	       532	800027c4	dc0febef	jal	x23,800027c4	 x23=0x800027c4
        5345000	       533	00000000	00000013	addi	x0,x0,0	  x0:0x00000000
        5355000	       534	80000d80	00000013	addi	x0,x0,0	  x0:0x00000000
        5365000	       535	80000d84	019e0f33	add	x30,x28,x25	 x28:0x17356840 x25:0x00000441 x30=0x17356c81
        5375000	       536	80000d88	401ad9b3	sra	x19,x21,x1	 x21:0x80009f28  x1:0x00000000 x19=0x80009f28
        5385000	       537	80000d8c	00cf28b3	slt	x17,x30,x12	 x30:0x17356c81 x12:0xffffffff x17=0x00000000
        5395000	       538	80000d90	3db2a293	slti	x5,x5,987	  x5:0x00000000  x5=0x00000001
        5405000	       539	80000d94	ff8a8a93	addi	x21,x21,-8	 x21:0x80009f28 x21=0x80009f20
        5415000	       540	80000d98	00345db3	srl	x27,x8,x3	  x8:0x00000509  x3:0x00000000 x27=0x00000509
        5425000	       541	80000d9c	017aa223	sw	x23,4(x21)	 x21:0x80009f20 x23:0x800027c4 PA:0x80009f24
        5435000	       542	80000da0	00f75d13	srli	x26,x14,0xf	 x14:0x00000001 x26=0x00000000
        5445000	       543	80000da4	001b25b3	slt	x11,x22,x1	 x22:0x00000000  x1:0x00000000 x11=0x00000000
        5455000	       544	80000da8	40b489b3	sub	x19,x9,x11	  x9:0xfffffb66 x11:0x00000000 x19=0xfffffb66
        5465000	       545	80000dac	00100093	addi	x1,x0,1	  x0:0x00000000  x1=0x00000001
        5475000	       546	80000db0	01f15493	srli	x9,x2,0x1f	  x2:0x00000001  x9=0x00000000
        5485000	       547	80000db4	40a486b3	sub	x13,x9,x10	  x9:0x00000000 x10:0xffffffff x13=0x00000001
        5495000	       548	80000db8	40b95193	srai	x3,x18,0xb	 x18:0x8000a1ff  x3=0xfff00014
        5505000	       549	80000dbc	ffb00313	addi	x6,x0,-5	  x0:0x00000000  x6=0xfffffffb
        5515000	       550	80000dc0	206f3813	sltiu	x16,x30,518	 x30:0x17356c81 x16=0x00000000
        5525000	       551	80000dc4	4185d193	srai	x3,x11,0x18	 x11:0x00000000  x3=0x00000000
        5535000	       552	80000dc8	01f2fbb3	and	x23,x5,x31	  x5:0x00000001 x31:0x80009fc4 x23=0x00000000
        5545000	       553	80000dcc	00000013	addi	x0,x0,0	  x0:0x00000000
        5555000	       554	80000dd0	40fa8833	sub	x16,x21,x15	 x21:0x80009f20 x15:0x80009fc4 x16=0xffffff5c
        5565000	       555	80000dd4	00fc6e33	or	x28,x24,x15	 x24:0x000003e6 x15:0x80009fc4 x28=0x80009fe6
        5575000	       556	80000dd8	005a4e33	xor	x28,x20,x5	 x20:0x00000000  x5:0x00000001 x28=0x00000001
        5585000	       557	80000ddc	0116b4b3	sltu	x9,x13,x17	 x13:0x00000001 x17:0x00000000  x9=0x00000000
        5595000	       558	80000de0	416d0a33	sub	x20,x26,x22	 x26:0x00000000 x22:0x00000000 x20=0x00000000
        5605000	       559	80000de4	b84f3f97	auipc	x31,0xb84f3	 x31=0x384f3de0
        5615000	       560	80000de8	4037d693	srai	x13,x15,0x3	 x15:0x80009fc4 x13=0xf00013f8
        5625000	       561	80000dec	41bd52b3	sra	x5,x26,x27	 x26:0x00000000 x27:0x00000509  x5=0x00000000
        5635000	       562	80000df0	ffa08093	addi	x1,x1,-6	  x1:0x00000001  x1=0xfffffffb
        5645000	       563	80000df4	6f26f137	lui	x2,0x6f26f	  x2=0x6f26f000
        5655000	       564	80000df8	016f1533	sll	x10,x30,x22	 x30:0x17356c81 x22:0x00000000 x10=0x17356c81
        5665000	       565	80000dfc	00041713	slli	x14,x8,0x0	  x8:0x00000509 x14=0x00000509
        5675000	       566	80000e00	4003d693	srai	x13,x7,0x0	  x7:0x3ffffff9 x13=0x3ffffff9
        5685000	       567	80000e04	fc6082e3	beq	x1,x6,80000dc8	  x1:0xfffffffb  x6:0xfffffffb
        5695000	       568	00000000	00000013	addi	x0,x0,0	  x0:0x00000000
        5705000	       569	80000dc4	00000013	addi	x0,x0,0	  x0:0x00000000
        5715000	       570	80000dc8	01f2fbb3	and	x23,x5,x31	  x5:0x00000000 x31:0x384f3de0 x23=0x00000000
        5725000	       571	80000dcc	00000013	addi	x0,x0,0	  x0:0x00000000
        5735000	       572	80000dd0	40fa8833	sub	x16,x21,x15	 x21:0x80009f20 x15:0x80009fc4 x16=0xffffff5c
        5745000	       573	80000dd4	00fc6e33	or	x28,x24,x15	 x24:0x000003e6 x15:0x80009fc4 x28=0x80009fe6
        5755000	       574	80000dd8	005a4e33	xor	x28,x20,x5	 x20:0x00000000  x5:0x00000000 x28=0x00000000
        5765000	       575	80000ddc	0116b4b3	sltu	x9,x13,x17	 x13:0x3ffffff9 x17:0x00000000  x9=0x00000000
        5775000	       576	80000de0	416d0a33	sub	x20,x26,x22	 x26:0x00000000 x22:0x00000000 x20=0x00000000
        5785000	       577	80000de4	b84f3f97	auipc	x31,0xb84f3	 x31=0x384f3de0
        5795000	       578	80000de8	4037d693	srai	x13,x15,0x3	 x15:0x80009fc4 x13=0xf00013f8
        5805000	       579	80000dec	41bd52b3	sra	x5,x26,x27	 x26:0x00000000 x27:0x00000509  x5=0x00000000
        5815000	       580	80000df0	ffa08093	addi	x1,x1,-6	  x1:0xfffffffb  x1=0xfffffff5
        5825000	       581	80000df4	6f26f137	lui	x2,0x6f26f	  x2=0x6f26f000
        5835000	       582	80000df8	016f1533	sll	x10,x30,x22	 x30:0x17356c81 x22:0x00000000 x10=0x17356c81
        5845000	       583	80000dfc	00041713	slli	x14,x8,0x0	  x8:0x00000509 x14=0x00000509
        5855000	       584	80000e00	4003d693	srai	x13,x7,0x0	  x7:0x3ffffff9 x13=0x3ffffff9
        5865000	       585	80000e04	fc6082e3	beq	x1,x6,80000dc8	  x1:0xfffffff5  x6:0xfffffffb
        5875000	       586	80000e08	a066d917	auipc	x18,0xa066d	 x18=0x2066de04
        5885000	       587	80000e0c	00800313	addi	x6,x0,8	  x0:0x00000000  x6=0x00000008
        5895000	       588	80000e10	00800f93	addi	x31,x0,8	  x0:0x00000000 x31=0x00000008
        5905000	       589	80000e14	c30eae97	auipc	x29,0xc30ea	 x29=0x430eae10
        5915000	       590	80000e18	ffb30313	addi	x6,x6,-5	  x6:0x00000008  x6=0x00000003
        5925000	       591	80000e1c	fff37ce3	bgeu	x6,x31,80000e14	  x6:0x00000003 x31:0x00000008
        5935000	       592	80000e20	01f1d433	srl	x8,x3,x31	  x3:0x00000000 x31:0x00000008  x8=0x00000000
        5945000	       593	80000e24	00100513	addi	x10,x0,1	  x0:0x00000000 x10=0x00000001
        5955000	       594	80000e28	01131433	sll	x8,x6,x17	  x6:0x00000003 x17:0x00000000  x8=0x00000003
        5965000	       595	80000e2c	00900813	addi	x16,x0,9	  x0:0x00000000 x16=0x00000009
        5975000	       596	80000e30	be3c7a13	andi	x20,x24,-1053	 x24:0x000003e6 x20=0x000003e2
        5985000	       597	80000e34	00850513	addi	x10,x10,8	 x10:0x00000001 x10=0x00000009
        5995000	       598	80000e38	00300c13	addi	x24,x0,3	  x0:0x00000000 x24=0x00000003
        6005000	       599	80000e3c	ffc00613	addi	x12,x0,-4	  x0:0x00000000 x12=0xfffffffc
        6015000	       600	80000e40	2d9295b7	lui	x11,0x2d929	 x11=0x2d929000
        6025000	       601	80000e44	00000013	addi	x0,x0,0	  x0:0x00000000
        6035000	       602	80000e48	ff7c0c13	addi	x24,x24,-9	 x24:0x00000003 x24=0xfffffffa
        6045000	       603	80000e4c	fecc5ce3	bge	x24,x12,80000e44	 x24:0xfffffffa x12:0xfffffffc
        6055000	       604	80000e50	ff0500e3	beq	x10,x16,80000e30	 x10:0x00000009 x16:0x00000009
        6065000	       605	00000000	00000013	addi	x0,x0,0	  x0:0x00000000
        6075000	       606	80000e2c	00000013	addi	x0,x0,0	  x0:0x00000000
        6085000	       607	80000e30	be3c7a13	andi	x20,x24,-1053	 x24:0xfffffffa x20=0xfffffbe2
        6095000	       608	80000e34	00850513	addi	x10,x10,8	 x10:0x00000009 x10=0x00000011
        6105000	       609	80000e38	00300c13	addi	x24,x0,3	  x0:0x00000000 x24=0x00000003
        6115000	       610	80000e3c	ffc00613	addi	x12,x0,-4	  x0:0x00000000 x12=0xfffffffc
        6125000	       611	80000e40	2d9295b7	lui	x11,0x2d929	 x11=0x2d929000
        6135000	       612	80000e44	00000013	addi	x0,x0,0	  x0:0x00000000
        6145000	       613	80000e48	ff7c0c13	addi	x24,x24,-9	 x24:0x00000003 x24=0xfffffffa
        6155000	       614	80000e4c	fecc5ce3	bge	x24,x12,80000e44	 x24:0xfffffffa x12:0xfffffffc
        6165000	       615	80000e50	ff0500e3	beq	x10,x16,80000e30	 x10:0x00000011 x16:0x00000009
        6175000	       616	80000e54	ce940413	addi	x8,x8,-791	  x8:0x00000003  x8=0xfffffcec
        6185000	       617	80000e58	00700213	addi	x4,x0,7	  x0:0x00000000  x4=0x00000007
        6195000	       618	80000e5c	48b22d93	slti	x27,x4,1163	  x4:0x00000007 x27=0x00000001
        6205000	       619	80000e60	01476833	or	x16,x14,x20	 x14:0x00000509 x20:0xfffffbe2 x16=0xffffffeb
        6215000	       620	80000e64	015b5693	srli	x13,x22,0x15	 x22:0x00000000 x13=0x00000000
        6225000	       621	80000e68	008f93b3	sll	x7,x31,x8	 x31:0x00000008  x8:0xfffffcec  x7=0x00008000
        6235000	       622	80000e6c	aa98c613	xori	x12,x17,-1367	 x17:0x00000000 x12=0xfffffaa9
        6245000	       623	80000e70	00600293	addi	x5,x0,6	  x0:0x00000000  x5=0x00000006
        6255000	       624	80000e74	fcebe697	auipc	x13,0xfcebe	 x13=0x7cebee70
        6265000	       625	80000e78	4002dd33	sra	x26,x5,x0	  x5:0x00000006  x0:0x00000000 x26=0x00000006
        6275000	       626	80000e7c	13fd7c97	auipc	x25,0x13fd7	 x25=0x93fd7e78
        6285000	       627	80000e80	ffc20213	addi	x4,x4,-4	  x4:0x00000007  x4=0x00000003
        6295000	       628	80000e84	0125ba33	sltu	x20,x11,x18	 x11:0x2d929000 x18:0x2066de04 x20=0x00000000
        6305000	       629	80000e88	00428db3	add	x27,x5,x4	  x5:0x00000006  x4:0x00000003 x27=0x00000009
        6315000	       630	80000e8c	005575b3	and	x11,x10,x5	 x10:0x00000011  x5:0x00000006 x11=0x00000000
        6325000	       631	80000e90	00470133	add	x2,x14,x4	 x14:0x00000509  x4:0x00000003  x2=0x0000050c
        6335000	       632	80000e94	ea376393	ori	x7,x14,-349	 x14:0x00000509  x7=0xffffffab
        6345000	       633	80000e98	fa3fff93	andi	x31,x31,-93	 x31:0x00000008 x31=0x00000000
        6355000	       634	80000e9c	980ce917	auipc	x18,0x980ce	 x18=0x180cee98
        6365000	       635	80000ea0	fc527ae3	bgeu	x4,x5,80000e74	  x4:0x00000003  x5:0x00000006
        6375000	       636	80000ea4	00f3dd93	srli	x27,x7,0xf	  x7:0xffffffab x27=0x0001ffff
        6385000	       637	80000ea8	00a00f13	addi	x30,x0,10	  x0:0x00000000 x30=0x0000000a
        6395000	       638	80000eac	ce6abe13	sltiu	x28,x21,-794	 x21:0x80009f20 x28=0x00000001
        6405000	       639	80000eb0	0f43b637	lui	x12,0xf43b	 x12=0x0f43b000
        6415000	       640	80000eb4	41695fb3	sra	x31,x18,x22	 x18:0x180cee98 x22:0x00000000 x31=0x180cee98
        6425000	       641	80000eb8	002a9433	sll	x8,x21,x2	 x21:0x80009f20  x2:0x0000050c  x8=0x09f20000
        6435000	       642	80000ebc	b041d917	auipc	x18,0xb041d	 x18=0x3041deb8
        6445000	       643	80000ec0	6a79c937	lui	x18,0x6a79c	 x18=0x6a79c000
        6455000	       644	80000ec4	00a00493	addi	x9,x0,10	  x0:0x00000000  x9=0x0000000a
        6465000	       645	80000ec8	011e3d33	sltu	x26,x28,x17	 x28:0x00000001 x17:0x00000000 x26=0x00000000
        6475000	       646	80000ecc	00f53fb3	sltu	x31,x10,x15	 x10:0x00000011 x15:0x80009fc4 x31=0x00000001
        6485000	       647	80000ed0	015033b3	sltu	x7,x0,x21	  x0:0x00000000 x21:0x80009f20  x7=0x00000001
        6495000	       648	80000ed4	00aa0633	add	x12,x20,x10	 x20:0x00000000 x10:0x00000011 x12=0x00000011
        6505000	       649	80000ed8	f0bbf0b7	lui	x1,0xf0bbf	  x1=0xf0bbf000
        6515000	       650	80000edc	00f95893	srli	x17,x18,0xf	 x18:0x6a79c000 x17=0x0000d4f3
        6525000	       651	80000ee0	034b3113	sltiu	x2,x22,52	 x22:0x00000000  x2=0x00000001
        6535000	       652	80000ee4	001673b3	and	x7,x12,x1	 x12:0x00000011  x1:0xf0bbf000  x7=0x00000000
        6545000	       653	80000ee8	ff7f0f13	addi	x30,x30,-9	 x30:0x0000000a x30=0x00000001
        6555000	       654	80000eec	002702b3	add	x5,x14,x2	 x14:0x00000509  x2:0x00000001  x5=0x0000050a
        6565000	       655	80000ef0	439e7593	andi	x11,x28,1081	 x28:0x00000001 x11=0x00000001
        6575000	       656	80000ef4	6903af93	slti	x31,x7,1680	  x7:0x00000000 x31=0x00000001
        6585000	       657	80000ef8	aff94593	xori	x11,x18,-1281	 x18:0x6a79c000 x11=0x95863aff
        6595000	       658	80000efc	00000013	addi	x0,x0,0	  x0:0x00000000
        6605000	       659	80000f00	1d388813	addi	x16,x17,467	 x17:0x0000d4f3 x16=0x0000d6c6
        6615000	       660	80000f04	a1d75a17	auipc	x20,0xa1d75	 x20=0x21d75f00
        6625000	       661	80000f08	4195dc13	srai	x24,x11,0x19	 x11:0x95863aff x24=0xffffffca
        6635000	       662	80000f0c	fa9f7ee3	bgeu	x30,x9,80000ec8	 x30:0x00000001  x9:0x0000000a
        6645000	       663	80000f10	00000013	addi	x0,x0,0	  x0:0x00000000
        6655000	       664	80000f14	00a00713	addi	x14,x0,10	  x0:0x00000000 x14=0x0000000a
        6665000	       665	80000f18	9eacb993	sltiu	x19,x25,-1558	 x25:0x93fd7e78 x19=0x00000001
        6675000	       666	80000f1c	00e42333	slt	x6,x8,x14	  x8:0x09f20000 x14:0x0000000a  x6=0x00000000
        6685000	       667	80000f20	68407893	andi	x17,x0,1668	  x0:0x00000000 x17=0x00000000
        6695000	       668	80000f24	00900a13	addi	x20,x0,9	  x0:0x00000000 x20=0x00000009
        6705000	       669	80000f28	f2d14317	auipc	x6,0xf2d14	  x6=0x72d14f24
        6715000	       670	80000f2c	ff870713	addi	x14,x14,-8	 x14:0x0000000a x14=0x00000002
        6725000	       671	80000f30	c94c0913	addi	x18,x24,-876	 x24:0xffffffca x18=0xfffffc5e
        6735000	       672	80000f34	00dc0eb3	add	x29,x24,x13	 x24:0xffffffca x13:0x7cebee70 x29=0x7cebee3a
        6745000	       673	80000f38	01a2c633	xor	x12,x5,x26	  x5:0x0000050a x26:0x00000000 x12=0x0000050a
        6755000	       674	80000f3c	403cd593	srai	x11,x25,0x3	 x25:0x93fd7e78 x11=0xf27fafcf
        6765000	       675	80000f40	010be933	or	x18,x23,x16	 x23:0x00000000 x16:0x0000d6c6 x18=0x0000d6c6
        6775000	       676	80000f44	401a5433	sra	x8,x20,x1	 x20:0x00000009  x1:0xf0bbf000  x8=0x00000009
        6785000	       677	80000f48	41bcdbb3	sra	x23,x25,x27	 x25:0x93fd7e78 x27:0x0001ffff x23=0xffffffff
        6795000	       678	80000f4c	ace7f993	andi	x19,x15,-1330	 x15:0x80009fc4 x19=0x80009ac4
        6805000	       679	80000f50	010529b3	slt	x19,x10,x16	 x10:0x00000011 x16:0x0000d6c6 x19=0x00000001
        6815000	       680	80000f54	ffe00493	addi	x9,x0,-2	  x0:0x00000000  x9=0xfffffffe
        6825000	       681	80000f58	00445d93	srli	x27,x8,0x4	  x8:0x00000009 x27=0x00000000
        6835000	       682	80000f5c	00400293	addi	x5,x0,4	  x0:0x00000000  x5=0x00000004
        6845000	       683	80000f60	d5b66913	ori	x18,x12,-677	 x12:0x0000050a x18=0xfffffd5b
        6855000	       684	80000f64	0b57fe93	andi	x29,x15,181	 x15:0x80009fc4 x29=0x00000084
        6865000	       685	80000f68	f7a258b7	lui	x17,0xf7a25	 x17=0xf7a25000
        6875000	       686	80000f6c	1b830697	auipc	x13,0x1b830	 x13=0x9b830f68
        6885000	       687	80000f70	00e5e933	or	x18,x11,x14	 x11:0xf27fafcf x14:0x00000002 x18=0xf27fafcf
        6895000	       688	80000f74	c5543013	sltiu	x0,x8,-939	  x8:0x00000009
        6905000	       689	80000f78	00448493	addi	x9,x9,4	  x9:0xfffffffe  x9=0x00000002
        6915000	       690	80000f7c	fe54e6e3	bltu	x9,x5,80000f68	  x9:0x00000002  x5:0x00000004
        6925000	       691	00000000	00000013	addi	x0,x0,0	  x0:0x00000000
        6935000	       692	80000f64	00000013	addi	x0,x0,0	  x0:0x00000000
        6945000	       693	80000f68	f7a258b7	lui	x17,0xf7a25	 x17=0xf7a25000
        6955000	       694	80000f6c	1b830697	auipc	x13,0x1b830	 x13=0x9b830f68
        6965000	       695	80000f70	00e5e933	or	x18,x11,x14	 x11:0xf27fafcf x14:0x00000002 x18=0xf27fafcf
        6975000	       696	80000f74	c5543013	sltiu	x0,x8,-939	  x8:0x00000009
        6985000	       697	80000f78	00448493	addi	x9,x9,4	  x9:0x00000002  x9=0x00000006
        6995000	       698	80000f7c	fe54e6e3	bltu	x9,x5,80000f68	  x9:0x00000006  x5:0x00000004
        7005000	       699	80000f80	01341113	slli	x2,x8,0x13	  x8:0x00000009  x2=0x00480000
        7015000	       700	80000f84	01d79bb3	sll	x23,x15,x29	 x15:0x80009fc4 x29:0x00000084 x23=0x0009fc40
        7025000	       701	80000f88	ce222f93	slti	x31,x4,-798	  x4:0x00000003 x31=0x00000000
        7035000	       702	80000f8c	41065633	sra	x12,x12,x16	 x12:0x0000050a x16:0x0000d6c6 x12=0x00000014
        7045000	       703	80000f90	00ba0fb3	add	x31,x20,x11	 x20:0x00000009 x11:0xf27fafcf x31=0xf27fafd8
        7055000	       704	80000f94	f9477ae3	bgeu	x14,x20,80000f28	 x14:0x00000002 x20:0x00000009
        7065000	       705	80000f98	00000013	addi	x0,x0,0	  x0:0x00000000
        7075000	       706	80000f9c	00900513	addi	x10,x0,9	  x0:0x00000000 x10=0x00000009
        7085000	       707	80000fa0	01257033	and	x0,x10,x18	 x10:0x00000009 x18:0xf27fafcf
        7095000	       708	80000fa4	68217613	andi	x12,x2,1666	  x2:0x00480000 x12=0x00000000
        7105000	       709	80000fa8	ffc00093	addi	x1,x0,-4	  x0:0x00000000  x1=0xfffffffc
        7115000	       710	80000fac	0056f9b3	and	x19,x13,x5	 x13:0x9b830f68  x5:0x00000004 x19=0x00000000
        7125000	       711	80000fb0	015e3633	sltu	x12,x28,x21	 x28:0x00000001 x21:0x80009f20 x12=0x00000001
        7135000	       712	80000fb4	6b13a993	slti	x19,x7,1713	  x7:0x00000000 x19=0x00000001
        7145000	       713	80000fb8	018e3cb3	sltu	x25,x28,x24	 x28:0x00000001 x24:0xffffffca x25=0x00000001
        7155000	       714	80000fbc	01c406b3	add	x13,x8,x28	  x8:0x00000009 x28:0x00000001 x13=0x0000000a
        7165000	       715	80000fc0	ff750513	addi	x10,x10,-9	 x10:0x00000009 x10=0x00000000
        7175000	       716	80000fc4	ffc00a13	addi	x20,x0,-4	  x0:0x00000000 x20=0xfffffffc
        7185000	       717	80000fc8	01b58233	add	x4,x11,x27	 x11:0xf27fafcf x27:0x00000000  x4=0xf27fafcf
        7195000	       718	80000fcc	00c00593	addi	x11,x0,12	  x0:0x00000000 x11=0x0000000c
        7205000	       719	80000fd0	40520833	sub	x16,x4,x5	  x4:0xf27fafcf  x5:0x00000004 x16=0xf27fafcb
        7215000	       720	80000fd4	0143ad33	slt	x26,x7,x20	  x7:0x00000000 x20:0xfffffffc x26=0x00000000
        7225000	       721	80000fd8	40830bb3	sub	x23,x6,x8	  x6:0x72d14f24  x8:0x00000009 x23=0x72d14f1b
        7235000	       722	80000fdc	4111d813	srai	x16,x3,0x11	  x3:0x00000000 x16=0x00000000
        7245000	       723	80000fe0	01a8a893	slti	x17,x17,26	 x17:0xf7a25000 x17=0x00000001
        7255000	       724	80000fe4	001a0a13	addi	x20,x20,1	 x20:0xfffffffc x20=0xfffffffd
        7265000	       725	80000fe8	41cd51b3	sra	x3,x26,x28	 x26:0x00000000 x28:0x00000001  x3=0x00000000
        7275000	       726	80000fec	01037033	and	x0,x6,x16	  x6:0x72d14f24 x16:0x00000000
        7285000	       727	80000ff0	feba62e3	bltu	x20,x11,80000fd4	 x20:0xfffffffd x11:0x0000000c
        7295000	       728	80000ff4	01746033	or	x0,x8,x23	  x8:0x00000009 x23:0x72d14f1b
        7305000	       729	80000ff8	0169e9b3	or	x19,x19,x22	 x19:0x00000001 x22:0x00000000 x19=0x00000001
        7315000	       730	80000ffc	1e59e437	lui	x8,0x1e59e	  x8=0x1e59e000
        7325000	       731	80001000	01b94833	xor	x16,x18,x27	 x18:0xf27fafcf x27:0x00000000 x16=0xf27fafcf
        7335000	       732	80001004	00b8c433	xor	x8,x17,x11	 x17:0x00000001 x11:0x0000000c  x8=0x0000000d
        7345000	       733	80001008	fa1554e3	bge	x10,x1,80000fb0	 x10:0x00000000  x1:0xfffffffc
        7355000	       734	00000000	00000013	addi	x0,x0,0	  x0:0x00000000
        7365000	       735	80000fac	00000013	addi	x0,x0,0	  x0:0x00000000
        7375000	       736	80000fb0	015e3633	sltu	x12,x28,x21	 x28:0x00000001 x21:0x80009f20 x12=0x00000001
        7385000	       737	80000fb4	6b13a993	slti	x19,x7,1713	  x7:0x00000000 x19=0x00000001
        7395000	       738	80000fb8	018e3cb3	sltu	x25,x28,x24	 x28:0x00000001 x24:0xffffffca x25=0x00000001
        7405000	       739	80000fbc	01c406b3	add	x13,x8,x28	  x8:0x0000000d x28:0x00000001 x13=0x0000000e
        7415000	       740	80000fc0	ff750513	addi	x10,x10,-9	 x10:0x00000000 x10=0xfffffff7
        7425000	       741	80000fc4	ffc00a13	addi	x20,x0,-4	  x0:0x00000000 x20=0xfffffffc
        7435000	       742	80000fc8	01b58233	add	x4,x11,x27	 x11:0x0000000c x27:0x00000000  x4=0x0000000c
        7445000	       743	80000fcc	00c00593	addi	x11,x0,12	  x0:0x00000000 x11=0x0000000c
        7455000	       744	80000fd0	40520833	sub	x16,x4,x5	  x4:0x0000000c  x5:0x00000004 x16=0x00000008
        7465000	       745	80000fd4	0143ad33	slt	x26,x7,x20	  x7:0x00000000 x20:0xfffffffc x26=0x00000000
        7475000	       746	80000fd8	40830bb3	sub	x23,x6,x8	  x6:0x72d14f24  x8:0x0000000d x23=0x72d14f17
        7485000	       747	80000fdc	4111d813	srai	x16,x3,0x11	  x3:0x00000000 x16=0x00000000
        7495000	       748	80000fe0	01a8a893	slti	x17,x17,26	 x17:0x00000001 x17=0x00000001
        7505000	       749	80000fe4	001a0a13	addi	x20,x20,1	 x20:0xfffffffc x20=0xfffffffd
        7515000	       750	80000fe8	41cd51b3	sra	x3,x26,x28	 x26:0x00000000 x28:0x00000001  x3=0x00000000
        7525000	       751	80000fec	01037033	and	x0,x6,x16	  x6:0x72d14f24 x16:0x00000000
        7535000	       752	80000ff0	feba62e3	bltu	x20,x11,80000fd4	 x20:0xfffffffd x11:0x0000000c
        7545000	       753	80000ff4	01746033	or	x0,x8,x23	  x8:0x0000000d x23:0x72d14f17
        7555000	       754	80000ff8	0169e9b3	or	x19,x19,x22	 x19:0x00000001 x22:0x00000000 x19=0x00000001
        7565000	       755	80000ffc	1e59e437	lui	x8,0x1e59e	  x8=0x1e59e000
        7575000	       756	80001000	01b94833	xor	x16,x18,x27	 x18:0xf27fafcf x27:0x00000000 x16=0xf27fafcf
        7585000	       757	80001004	00b8c433	xor	x8,x17,x11	 x17:0x00000001 x11:0x0000000c  x8=0x0000000d
        7595000	       758	80001008	fa1554e3	bge	x10,x1,80000fb0	 x10:0xfffffff7  x1:0xfffffffc
        7605000	       759	8000100c	513ecb97	auipc	x23,0x513ec	 x23=0xd13ed008
        7615000	       760	80001010	00800393	addi	x7,x0,8	  x0:0x00000000  x7=0x00000008
        7625000	       761	80001014	8a872693	slti	x13,x14,-1880	 x14:0x00000002 x13=0x00000000
        7635000	       762	80001018	40d38bb3	sub	x23,x7,x13	  x7:0x00000008 x13:0x00000000 x23=0x00000008
        7645000	       763	8000101c	41da8d33	sub	x26,x21,x29	 x21:0x80009f20 x29:0x00000084 x26=0x80009e9c
        7655000	       764	80001020	003e9713	slli	x14,x29,0x3	 x29:0x00000084 x14=0x00000420
        7665000	       765	80001024	5ab34693	xori	x13,x6,1451	  x6:0x72d14f24 x13=0x72d14a8f
        7675000	       766	80001028	00b00113	addi	x2,x0,11	  x0:0x00000000  x2=0x0000000b
        7685000	       767	8000102c	01dfd713	srli	x14,x31,0x1d	 x31:0xf27fafd8 x14=0x00000007
        7695000	       768	80001030	00000013	addi	x0,x0,0	  x0:0x00000000
        7705000	       769	80001034	01221f13	slli	x30,x4,0x12	  x4:0x0000000c x30=0x00300000
        7715000	       770	80001038	a9467613	andi	x12,x12,-1388	 x12:0x00000001 x12=0x00000000
        7725000	       771	8000103c	0133d433	srl	x8,x7,x19	  x7:0x00000008 x19:0x00000001  x8=0x00000004
        7735000	       772	80001040	00a38393	addi	x7,x7,10	  x7:0x00000008  x7=0x00000012
        7745000	       773	80001044	dbbb84b7	lui	x9,0xdbbb8	  x9=0xdbbb8000
        7755000	       774	80001048	00356733	or	x14,x10,x3	 x10:0xfffffff7  x3:0x00000000 x14=0xfffffff7
        7765000	       775	8000104c	415a0033	sub	x0,x20,x21	 x20:0xfffffffd x21:0x80009f20
        7775000	       776	80001050	00774c33	xor	x24,x14,x7	 x14:0xfffffff7  x7:0x00000012 x24=0xffffffe5
        7785000	       777	80001054	016f4033	xor	x0,x30,x22	 x30:0x00300000 x22:0x00000000
        7795000	       778	80001058	ff2ec037	lui	x0,0xff2ec	
        7805000	       779	8000105c	fc23cee3	blt	x7,x2,80001038	  x7:0x00000012  x2:0x0000000b
        7815000	       780	80001060	013498b3	sll	x17,x9,x19	  x9:0xdbbb8000 x19:0x00000001 x17=0xb7770000
        7825000	       781	80001064	00a00513	addi	x10,x0,10	  x0:0x00000000 x10=0x0000000a
        7835000	       782	80001068	108c2413	slti	x8,x24,264	 x24:0xffffffe5  x8=0x00000001
        7845000	       783	8000106c	b7404393	xori	x7,x0,-1164	  x0:0x00000000  x7=0xfffffb74
        7855000	       784	80001070	00cb0e33	add	x28,x22,x12	 x22:0x00000000 x12:0x00000000 x28=0x00000000
        7865000	       785	80001074	13889337	lui	x6,0x13889	  x6=0x13889000
        7875000	       786	80001078	005ed393	srli	x7,x29,0x5	 x29:0x00000084  x7=0x00000004
        7885000	       787	8000107c	fc06cb93	xori	x23,x13,-64	 x13:0x72d14a8f x23=0x8d2eb54f
        7895000	       788	80001080	ff600193	addi	x3,x0,-10	  x0:0x00000000  x3=0xfffffff6
        7905000	       789	80001084	01bcef33	or	x30,x25,x27	 x25:0x00000001 x27:0x00000000 x30=0x00000001
        7915000	       790	80001088	ff650513	addi	x10,x10,-10	 x10:0x0000000a x10=0x00000000
        7925000	       791	8000108c	00000113	addi	x2,x0,0	  x0:0x00000000  x2=0x00000000
        7935000	       792	80001090	01f0e333	or	x6,x1,x31	  x1:0xfffffffc x31:0xf27fafd8  x6=0xfffffffc
        7945000	       793	80001094	00800e93	addi	x29,x0,8	  x0:0x00000000 x29=0x00000008
        7955000	       794	80001098	cab63693	sltiu	x13,x12,-853	 x12:0x00000000 x13=0x00000001
        7965000	       795	8000109c	403b5f93	srai	x31,x22,0x3	 x22:0x00000000 x31=0x00000000
        7975000	       796	800010a0	0141a4b3	slt	x9,x3,x20	  x3:0xfffffff6 x20:0xfffffffd  x9=0x00000001
        7985000	       797	800010a4	00000013	addi	x0,x0,0	  x0:0x00000000
        7995000	       798	800010a8	00410113	addi	x2,x2,4	  x2:0x00000000  x2=0x00000004
        8005000	       799	800010ac	41ad5293	srai	x5,x26,0x1a	 x26:0x80009e9c  x5=0xffffffe0
        8015000	       800	800010b0	005a9db3	sll	x27,x21,x5	 x21:0x80009f20  x5:0xffffffe0 x27=0x80009f20
        8025000	       801	800010b4	ffd166e3	bltu	x2,x29,800010a0	  x2:0x00000004 x29:0x00000008
        8035000	       802	00000000	00000013	addi	x0,x0,0	  x0:0x00000000
        8045000	       803	8000109c	00000013	addi	x0,x0,0	  x0:0x00000000
        8055000	       804	800010a0	0141a4b3	slt	x9,x3,x20	  x3:0xfffffff6 x20:0xfffffffd  x9=0x00000001
        8065000	       805	800010a4	00000013	addi	x0,x0,0	  x0:0x00000000
        8075000	       806	800010a8	00410113	addi	x2,x2,4	  x2:0x00000004  x2=0x00000008
        8085000	       807	800010ac	41ad5293	srai	x5,x26,0x1a	 x26:0x80009e9c  x5=0xffffffe0
        8095000	       808	800010b0	005a9db3	sll	x27,x21,x5	 x21:0x80009f20  x5:0xffffffe0 x27=0x80009f20
        8105000	       809	800010b4	ffd166e3	bltu	x2,x29,800010a0	  x2:0x00000008 x29:0x00000008
        8115000	       810	800010b8	fc3516e3	bne	x10,x3,80001084	 x10:0x00000000  x3:0xfffffff6
        8125000	       811	00000000	00000013	addi	x0,x0,0	  x0:0x00000000
        8135000	       812	80001080	00000013	addi	x0,x0,0	  x0:0x00000000
        8145000	       813	80001084	01bcef33	or	x30,x25,x27	 x25:0x00000001 x27:0x80009f20 x30=0x80009f21
        8155000	       814	80001088	ff650513	addi	x10,x10,-10	 x10:0x00000000 x10=0xfffffff6
        8165000	       815	8000108c	00000113	addi	x2,x0,0	  x0:0x00000000  x2=0x00000000
        8175000	       816	80001090	01f0e333	or	x6,x1,x31	  x1:0xfffffffc x31:0x00000000  x6=0xfffffffc
        8185000	       817	80001094	00800e93	addi	x29,x0,8	  x0:0x00000000 x29=0x00000008
        8195000	       818	80001098	cab63693	sltiu	x13,x12,-853	 x12:0x00000000 x13=0x00000001
        8205000	       819	8000109c	403b5f93	srai	x31,x22,0x3	 x22:0x00000000 x31=0x00000000
        8215000	       820	800010a0	0141a4b3	slt	x9,x3,x20	  x3:0xfffffff6 x20:0xfffffffd  x9=0x00000001
        8225000	       821	800010a4	00000013	addi	x0,x0,0	  x0:0x00000000
        8235000	       822	800010a8	00410113	addi	x2,x2,4	  x2:0x00000000  x2=0x00000004
        8245000	       823	800010ac	41ad5293	srai	x5,x26,0x1a	 x26:0x80009e9c  x5=0xffffffe0
        8255000	       824	800010b0	005a9db3	sll	x27,x21,x5	 x21:0x80009f20  x5:0xffffffe0 x27=0x80009f20
        8265000	       825	800010b4	ffd166e3	bltu	x2,x29,800010a0	  x2:0x00000004 x29:0x00000008
        8275000	       826	00000000	00000013	addi	x0,x0,0	  x0:0x00000000
        8285000	       827	8000109c	00000013	addi	x0,x0,0	  x0:0x00000000
        8295000	       828	800010a0	0141a4b3	slt	x9,x3,x20	  x3:0xfffffff6 x20:0xfffffffd  x9=0x00000001
        8305000	       829	800010a4	00000013	addi	x0,x0,0	  x0:0x00000000
        8315000	       830	800010a8	00410113	addi	x2,x2,4	  x2:0x00000004  x2=0x00000008
        8325000	       831	800010ac	41ad5293	srai	x5,x26,0x1a	 x26:0x80009e9c  x5=0xffffffe0
        8335000	       832	800010b0	005a9db3	sll	x27,x21,x5	 x21:0x80009f20  x5:0xffffffe0 x27=0x80009f20
        8345000	       833	800010b4	ffd166e3	bltu	x2,x29,800010a0	  x2:0x00000008 x29:0x00000008
        8355000	       834	800010b8	fc3516e3	bne	x10,x3,80001084	 x10:0xfffffff6  x3:0xfffffff6
        8365000	       835	800010bc	003082b3	add	x5,x1,x3	  x1:0xfffffffc  x3:0xfffffff6  x5=0xfffffff2
        8375000	       836	800010c0	00a00213	addi	x4,x0,10	  x0:0x00000000  x4=0x0000000a
        8385000	       837	800010c4	4bfa8913	addi	x18,x21,1215	 x21:0x80009f20 x18=0x8000a3df
        8395000	       838	800010c8	00a00a13	addi	x20,x0,10	  x0:0x00000000 x20=0x0000000a
        8405000	       839	800010cc	01e3abb3	slt	x23,x7,x30	  x7:0x00000004 x30:0x80009f21 x23=0x00000000
        8415000	       840	800010d0	407cd3b3	sra	x7,x25,x7	 x25:0x00000001  x7:0x00000004  x7=0x00000000
        8425000	       841	800010d4	00d54fb3	xor	x31,x10,x13	 x10:0xfffffff6 x13:0x00000001 x31=0xfffffff7
        8435000	       842	800010d8	686daf13	slti	x30,x27,1670	 x27:0x80009f20 x30=0x00000001
        8445000	       843	800010dc	41660733	sub	x14,x12,x22	 x12:0x00000000 x22:0x00000000 x14=0x00000000
        8455000	       844	800010e0	01b97eb3	and	x29,x18,x27	 x18:0x8000a3df x27:0x80009f20 x29=0x80008300
        8465000	       845	800010e4	ff720213	addi	x4,x4,-9	  x4:0x0000000a  x4=0x00000001
        8475000	       846	800010e8	459d3d93	sltiu	x27,x26,1113	 x26:0x80009e9c x27=0x00000000
        8485000	       847	800010ec	00e604b3	add	x9,x12,x14	 x12:0x00000000 x14:0x00000000  x9=0x00000000
        8495000	       848	800010f0	7cc4e413	ori	x8,x9,1996	  x9:0x00000000  x8=0x000007cc
        8505000	       849	800010f4	40af5e13	srai	x28,x30,0xa	 x30:0x00000001 x28=0x00000000
        8515000	       850	800010f8	01961833	sll	x16,x12,x25	 x12:0x00000000 x25:0x00000001 x16=0x00000000
        8525000	       851	800010fc	0196d433	srl	x8,x13,x25	 x13:0x00000001 x25:0x00000001  x8=0x00000000
        8535000	       852	80001100	003d9493	slli	x9,x27,0x3	 x27:0x00000000  x9=0x00000000
        8545000	       853	80001104	3adf1f17	auipc	x30,0x3adf1	 x30=0xbadf2100
        8555000	       854	80001108	016d4433	xor	x8,x26,x22	 x26:0x80009e9c x22:0x00000000  x8=0x80009e9c
        8565000	       855	8000110c	00101fb3	sll	x31,x0,x1	  x0:0x00000000  x1:0xfffffffc x31=0x00000000
        8575000	       856	80001110	0c7db513	sltiu	x10,x27,199	 x27:0x00000000 x10=0x00000001
        8585000	       857	80001114	40e8d693	srai	x13,x17,0xe	 x17:0xb7770000 x13=0xfffedddc
        8595000	       858	80001118	00d50e33	add	x28,x10,x13	 x10:0x00000001 x13:0xfffedddc x28=0xfffedddd
        8605000	       859	8000111c	00f603b3	add	x7,x12,x15	 x12:0x00000000 x15:0x80009fc4  x7=0x80009fc4
        8615000	       860	80001120	fb427ce3	bgeu	x4,x20,800010d8	  x4:0x00000001 x20:0x0000000a
        8625000	       861	80001124	006ed6b3	srl	x13,x29,x6	 x29:0x80008300  x6:0xfffffffc x13=0x00000008
        8635000	       862	80001128	00900293	addi	x5,x0,9	  x0:0x00000000  x5=0x00000009
        8645000	       863	8000112c	00800813	addi	x16,x0,8	  x0:0x00000000 x16=0x00000008
        8655000	       864	80001130	00400d33	add	x26,x0,x4	  x0:0x00000000  x4:0x00000001 x26=0x00000001
        8665000	       865	80001134	2a84c0b7	lui	x1,0x2a84c	  x1=0x2a84c000
        8675000	       866	80001138	ffa28293	addi	x5,x5,-6	  x5:0x00000009  x5=0x00000003
        8685000	       867	8000113c	ff02fae3	bgeu	x5,x16,80001130	  x5:0x00000003 x16:0x00000008
        8695000	       868	80001140	b7474093	xori	x1,x14,-1164	 x14:0x00000000  x1=0xfffffb74
        8705000	       869	80001144	00700f13	addi	x30,x0,7	  x0:0x00000000 x30=0x00000007
        8715000	       870	80001148	418c5db3	sra	x27,x24,x24	 x24:0xffffffe5 x24:0xffffffe5 x27=0xffffffff
        8725000	       871	8000114c	0063f933	and	x18,x7,x6	  x7:0x80009fc4  x6:0xfffffffc x18=0x80009fc4
        8735000	       872	80001150	01100493	addi	x9,x0,17	  x0:0x00000000  x9=0x00000011
        8745000	       873	80001154	406c5913	srai	x18,x24,0x6	 x24:0xffffffe5 x18=0xffffffff
        8755000	       874	80001158	00000013	addi	x0,x0,0	  x0:0x00000000
        8765000	       875	8000115c	00683db3	sltu	x27,x16,x6	 x16:0x00000008  x6:0xfffffffc x27=0x00000001
        8775000	       876	80001160	00af0f13	addi	x30,x30,10	 x30:0x00000007 x30=0x00000011
        8785000	       877	80001164	01d69413	slli	x8,x13,0x1d	 x13:0x00000008  x8=0x00000000
        8795000	       878	80001168	705ce513	ori	x10,x25,1797	 x25:0x00000001 x10=0x00000705
        8805000	       879	8000116c	ffd00893	addi	x17,x0,-3	  x0:0x00000000 x17=0xfffffffd
        8815000	       880	80001170	00d91593	slli	x11,x18,0xd	 x18:0xffffffff x11=0xffffe000
        8825000	       881	80001174	41f25593	srai	x11,x4,0x1f	  x4:0x00000001 x11=0x00000000
        8835000	       882	80001178	83a0d817	auipc	x16,0x83a0d	 x16=0x03a0e174
        8845000	       883	8000117c	3960fe13	andi	x28,x1,918	  x1:0xfffffb74 x28=0x00000314
        8855000	       884	80001180	00c84833	xor	x16,x16,x12	 x16:0x03a0e174 x12:0x00000000 x16=0x03a0e174
        8865000	       885	80001184	ff700993	addi	x19,x0,-9	  x0:0x00000000 x19=0xfffffff7
        8875000	       886	80001188	508c8e93	addi	x29,x25,1288	 x25:0x00000001 x29=0x00000509
        8885000	       887	8000118c	003edfb3	srl	x31,x29,x3	 x29:0x00000509  x3:0xfffffff6 x31=0x00000000
        8895000	       888	80001190	07e34c93	xori	x25,x6,126	  x6:0xfffffffc x25=0xffffff82
        8905000	       889	80001194	ffb88893	addi	x17,x17,-5	 x17:0xfffffffd x17=0xfffffff8
        8915000	       890	80001198	00a95013	srli	x0,x18,0xa	 x18:0xffffffff
        8925000	       891	8000119c	00000013	addi	x0,x0,0	  x0:0x00000000
        8935000	       892	800011a0	ff38d4e3	bge	x17,x19,80001188	 x17:0xfffffff8 x19:0xfffffff7
        8945000	       893	00000000	00000013	addi	x0,x0,0	  x0:0x00000000
        8955000	       894	80001184	00000013	addi	x0,x0,0	  x0:0x00000000
        8965000	       895	80001188	508c8e93	addi	x29,x25,1288	 x25:0xffffff82 x29=0x0000048a
        8975000	       896	8000118c	003edfb3	srl	x31,x29,x3	 x29:0x0000048a  x3:0xfffffff6 x31=0x00000000
        8985000	       897	80001190	07e34c93	xori	x25,x6,126	  x6:0xfffffffc x25=0xffffff82
        8995000	       898	80001194	ffb88893	addi	x17,x17,-5	 x17:0xfffffff8 x17=0xfffffff3
        9005000	       899	80001198	00a95013	srli	x0,x18,0xa	 x18:0xffffffff
        9015000	       900	8000119c	00000013	addi	x0,x0,0	  x0:0x00000000
        9025000	       901	800011a0	ff38d4e3	bge	x17,x19,80001188	 x17:0xfffffff3 x19:0xfffffff7
        9035000	       902	800011a4	01961e93	slli	x29,x12,0x19	 x12:0x00000000 x29=0x00000000
        9045000	       903	800011a8	40658333	sub	x6,x11,x6	 x11:0x00000000  x6:0xfffffffc  x6=0x00000004
        9055000	       904	800011ac	fa9f06e3	beq	x30,x9,80001158	 x30:0x00000011  x9:0x00000011
        9065000	       905	00000000	00000013	addi	x0,x0,0	  x0:0x00000000
        9075000	       906	80001154	00000013	addi	x0,x0,0	  x0:0x00000000
        9085000	       907	80001158	00000013	addi	x0,x0,0	  x0:0x00000000
        9095000	       908	8000115c	00683db3	sltu	x27,x16,x6	 x16:0x03a0e174  x6:0x00000004 x27=0x00000000
        9105000	       909	80001160	00af0f13	addi	x30,x30,10	 x30:0x00000011 x30=0x0000001b
        9115000	       910	80001164	01d69413	slli	x8,x13,0x1d	 x13:0x00000008  x8=0x00000000
        9125000	       911	80001168	705ce513	ori	x10,x25,1797	 x25:0xffffff82 x10=0xffffff87
        9135000	       912	8000116c	ffd00893	addi	x17,x0,-3	  x0:0x00000000 x17=0xfffffffd
        9145000	       913	80001170	00d91593	slli	x11,x18,0xd	 x18:0xffffffff x11=0xffffe000
        9155000	       914	80001174	41f25593	srai	x11,x4,0x1f	  x4:0x00000001 x11=0x00000000
        9165000	       915	80001178	83a0d817	auipc	x16,0x83a0d	 x16=0x03a0e174
        9175000	       916	8000117c	3960fe13	andi	x28,x1,918	  x1:0xfffffb74 x28=0x00000314
        9185000	       917	80001180	00c84833	xor	x16,x16,x12	 x16:0x03a0e174 x12:0x00000000 x16=0x03a0e174
        9195000	       918	80001184	ff700993	addi	x19,x0,-9	  x0:0x00000000 x19=0xfffffff7
        9205000	       919	80001188	508c8e93	addi	x29,x25,1288	 x25:0xffffff82 x29=0x0000048a
        9215000	       920	8000118c	003edfb3	srl	x31,x29,x3	 x29:0x0000048a  x3:0xfffffff6 x31=0x00000000
        9225000	       921	80001190	07e34c93	xori	x25,x6,126	  x6:0x00000004 x25=0x0000007a
        9235000	       922	80001194	ffb88893	addi	x17,x17,-5	 x17:0xfffffffd x17=0xfffffff8
        9245000	       923	80001198	00a95013	srli	x0,x18,0xa	 x18:0xffffffff
        9255000	       924	8000119c	00000013	addi	x0,x0,0	  x0:0x00000000
        9265000	       925	800011a0	ff38d4e3	bge	x17,x19,80001188	 x17:0xfffffff8 x19:0xfffffff7
        9275000	       926	00000000	00000013	addi	x0,x0,0	  x0:0x00000000
        9285000	       927	80001184	00000013	addi	x0,x0,0	  x0:0x00000000
        9295000	       928	80001188	508c8e93	addi	x29,x25,1288	 x25:0x0000007a x29=0x00000582
        9305000	       929	8000118c	003edfb3	srl	x31,x29,x3	 x29:0x00000582  x3:0xfffffff6 x31=0x00000000
        9315000	       930	80001190	07e34c93	xori	x25,x6,126	  x6:0x00000004 x25=0x0000007a
        9325000	       931	80001194	ffb88893	addi	x17,x17,-5	 x17:0xfffffff8 x17=0xfffffff3
        9335000	       932	80001198	00a95013	srli	x0,x18,0xa	 x18:0xffffffff
        9345000	       933	8000119c	00000013	addi	x0,x0,0	  x0:0x00000000
        9355000	       934	800011a0	ff38d4e3	bge	x17,x19,80001188	 x17:0xfffffff3 x19:0xfffffff7
        9365000	       935	800011a4	01961e93	slli	x29,x12,0x19	 x12:0x00000000 x29=0x00000000
        9375000	       936	800011a8	40658333	sub	x6,x11,x6	 x11:0x00000000  x6:0x00000004  x6=0xfffffffc
        9385000	       937	800011ac	fa9f06e3	beq	x30,x9,80001158	 x30:0x0000001b  x9:0x00000011
        9395000	       938	800011b0	00e0eeb3	or	x29,x1,x14	  x1:0xfffffb74 x14:0x00000000 x29=0xfffffb74
        9405000	       939	800011b4	00800193	addi	x3,x0,8	  x0:0x00000000  x3=0x00000008
        9415000	       940	800011b8	012fb0b3	sltu	x1,x31,x18	 x31:0x00000000 x18:0xffffffff  x1=0x00000001
        9425000	       941	800011bc	9efd3f13	sltiu	x30,x26,-1553	 x26:0x00000001 x30=0x00000001
        9435000	       942	800011c0	de8e8d93	addi	x27,x29,-536	 x29:0xfffffb74 x27=0xfffff95c
        9445000	       943	800011c4	00000013	addi	x0,x0,0	  x0:0x00000000
        9455000	       944	800011c8	7afe3d13	sltiu	x26,x28,1967	 x28:0x00000314 x26=0x00000001
        9465000	       945	800011cc	00c00c93	addi	x25,x0,12	  x0:0x00000000 x25=0x0000000c
        9475000	       946	800011d0	27176893	ori	x17,x14,625	 x14:0x00000000 x17=0x00000271
        9485000	       947	800011d4	40aadd13	srai	x26,x21,0xa	 x21:0x80009f20 x26=0xffe00027
        9495000	       948	800011d8	4168deb3	sra	x29,x17,x22	 x17:0x00000271 x22:0x00000000 x29=0x00000271
        9505000	       949	800011dc	689ece13	xori	x28,x29,1673	 x29:0x00000271 x28=0x000004f8
        9515000	       950	800011e0	26317413	andi	x8,x2,611	  x2:0x00000008  x8=0x00000000
        9525000	       951	800011e4	d1b12f13	slti	x30,x2,-741	  x2:0x00000008 x30=0x00000000
        9535000	       952	800011e8	018702b3	add	x5,x14,x24	 x14:0x00000000 x24:0xffffffe5  x5=0xffffffe5
        9545000	       953	800011ec	01879013	slli	x0,x15,0x18	 x15:0x80009fc4
        9555000	       954	800011f0	41b2d893	srai	x17,x5,0x1b	  x5:0xffffffe5 x17=0xffffffff
        9565000	       955	800011f4	00a18193	addi	x3,x3,10	  x3:0x00000008  x3=0x00000012
        9575000	       956	800011f8	40a7d733	sra	x14,x15,x10	 x15:0x80009fc4 x10:0xffffff87 x14=0xff00013f
        9585000	       957	800011fc	ff91c4e3	blt	x3,x25,800011e4	  x3:0x00000012 x25:0x0000000c
        9595000	       958	80001200	12327e93	andi	x29,x4,291	  x4:0x00000001 x29=0x00000001
        9605000	       959	80001204	ff700093	addi	x1,x0,-9	  x0:0x00000000  x1=0xfffffff7
        9615000	       960	80001208	00200393	addi	x7,x0,2	  x0:0x00000000  x7=0x00000002
        9625000	       961	8000120c	df724213	xori	x4,x4,-521	  x4:0x00000001  x4=0xfffffdf6
        9635000	       962	80001210	0004e933	or	x18,x9,x0	  x9:0x00000011  x0:0x00000000 x18=0x00000011
        9645000	       963	80001214	00808093	addi	x1,x1,8	  x1:0xfffffff7  x1=0xffffffff
        9655000	       964	80001218	ff600c13	addi	x24,x0,-10	  x0:0x00000000 x24=0xfffffff6
        9665000	       965	8000121c	00d00513	addi	x10,x0,13	  x0:0x00000000 x10=0x0000000d
        9675000	       966	80001220	00ed6eb3	or	x29,x26,x14	 x26:0xffe00027 x14:0xff00013f x29=0xffe0013f
        9685000	       967	80001224	01164a33	xor	x20,x12,x17	 x12:0x00000000 x17:0xffffffff x20=0xffffffff
        9695000	       968	80001228	008c0c13	addi	x24,x24,8	 x24:0xfffffff6 x24=0xfffffffe
        9705000	       969	8000122c	feac4ce3	blt	x24,x10,80001224	 x24:0xfffffffe x10:0x0000000d
        9715000	       970	00000000	00000013	addi	x0,x0,0	  x0:0x00000000
        9725000	       971	80001220	00000013	addi	x0,x0,0	  x0:0x00000000
        9735000	       972	80001224	01164a33	xor	x20,x12,x17	 x12:0x00000000 x17:0xffffffff x20=0xffffffff
        9745000	       973	80001228	008c0c13	addi	x24,x24,8	 x24:0xfffffffe x24=0x00000006
        9755000	       974	8000122c	feac4ce3	blt	x24,x10,80001224	 x24:0x00000006 x10:0x0000000d
        9765000	       975	00000000	00000013	addi	x0,x0,0	  x0:0x00000000
        9775000	       976	80001220	00000013	addi	x0,x0,0	  x0:0x00000000
        9785000	       977	80001224	01164a33	xor	x20,x12,x17	 x12:0x00000000 x17:0xffffffff x20=0xffffffff
        9795000	       978	80001228	008c0c13	addi	x24,x24,8	 x24:0x00000006 x24=0x0000000e
        9805000	       979	8000122c	feac4ce3	blt	x24,x10,80001224	 x24:0x0000000e x10:0x0000000d
        9815000	       980	80001230	fc70cee3	blt	x1,x7,8000120c	  x1:0xffffffff  x7:0x00000002
        9825000	       981	00000000	00000013	addi	x0,x0,0	  x0:0x00000000
        9835000	       982	80001208	00000013	addi	x0,x0,0	  x0:0x00000000
        9845000	       983	8000120c	df724213	xori	x4,x4,-521	  x4:0xfffffdf6  x4=0x00000001
        9855000	       984	80001210	0004e933	or	x18,x9,x0	  x9:0x00000011  x0:0x00000000 x18=0x00000011
        9865000	       985	80001214	00808093	addi	x1,x1,8	  x1:0xffffffff  x1=0x00000007
        9875000	       986	80001218	ff600c13	addi	x24,x0,-10	  x0:0x00000000 x24=0xfffffff6
        9885000	       987	8000121c	00d00513	addi	x10,x0,13	  x0:0x00000000 x10=0x0000000d
        9895000	       988	80001220	00ed6eb3	or	x29,x26,x14	 x26:0xffe00027 x14:0xff00013f x29=0xffe0013f
        9905000	       989	80001224	01164a33	xor	x20,x12,x17	 x12:0x00000000 x17:0xffffffff x20=0xffffffff
        9915000	       990	80001228	008c0c13	addi	x24,x24,8	 x24:0xfffffff6 x24=0xfffffffe
        9925000	       991	8000122c	feac4ce3	blt	x24,x10,80001224	 x24:0xfffffffe x10:0x0000000d
        9935000	       992	00000000	00000013	addi	x0,x0,0	  x0:0x00000000
        9945000	       993	80001220	00000013	addi	x0,x0,0	  x0:0x00000000
        9955000	       994	80001224	01164a33	xor	x20,x12,x17	 x12:0x00000000 x17:0xffffffff x20=0xffffffff
        9965000	       995	80001228	008c0c13	addi	x24,x24,8	 x24:0xfffffffe x24=0x00000006
        9975000	       996	8000122c	feac4ce3	blt	x24,x10,80001224	 x24:0x00000006 x10:0x0000000d
        9985000	       997	00000000	00000013	addi	x0,x0,0	  x0:0x00000000
        9995000	       998	80001220	00000013	addi	x0,x0,0	  x0:0x00000000
       10005000	       999	80001224	01164a33	xor	x20,x12,x17	 x12:0x00000000 x17:0xffffffff x20=0xffffffff
       10015000	      1000	80001228	008c0c13	addi	x24,x24,8	 x24:0x00000006 x24=0x0000000e
       10025000	      1001	8000122c	feac4ce3	blt	x24,x10,80001224	 x24:0x0000000e x10:0x0000000d
       10035000	      1002	80001230	fc70cee3	blt	x1,x7,8000120c	  x1:0x00000007  x7:0x00000002
       10045000	      1003	80001234	0075bbb3	sltu	x23,x11,x7	 x11:0x00000000  x7:0x00000002 x23=0x00000001
       10055000	      1004	80001238	00a00613	addi	x12,x0,10	  x0:0x00000000 x12=0x0000000a
       10065000	      1005	8000123c	401e02b3	sub	x5,x28,x1	 x28:0x000004f8  x1:0x00000007  x5=0x000004f1
       10075000	      1006	80001240	b5114a17	auipc	x20,0xb5114	 x20=0x3511523c
       10085000	      1007	80001244	01300b93	addi	x23,x0,19	  x0:0x00000000 x23=0x00000013
       10095000	      1008	80001248	01198f33	add	x30,x19,x17	 x19:0xfffffff7 x17:0xffffffff x30=0xfffffff6
       10105000	      1009	8000124c	40368133	sub	x2,x13,x3	 x13:0x00000008  x3:0x00000012  x2=0xfffffff6
       10115000	      1010	80001250	0022bdb3	sltu	x27,x5,x2	  x5:0x000004f1  x2:0xfffffff6 x27=0x00000001
       10125000	      1011	80001254	00660613	addi	x12,x12,6	 x12:0x0000000a x12=0x00000010
       10135000	      1012	80001258	ff764ae3	blt	x12,x23,8000124c	 x12:0x00000010 x23:0x00000013
       10145000	      1013	00000000	00000013	addi	x0,x0,0	  x0:0x00000000
       10155000	      1014	80001248	00000013	addi	x0,x0,0	  x0:0x00000000
       10165000	      1015	8000124c	40368133	sub	x2,x13,x3	 x13:0x00000008  x3:0x00000012  x2=0xfffffff6
       10175000	      1016	80001250	0022bdb3	sltu	x27,x5,x2	  x5:0x000004f1  x2:0xfffffff6 x27=0x00000001
       10185000	      1017	80001254	00660613	addi	x12,x12,6	 x12:0x00000010 x12=0x00000016
       10195000	      1018	80001258	ff764ae3	blt	x12,x23,8000124c	 x12:0x00000016 x23:0x00000013
       10205000	      1019	8000125c	11f3ff13	andi	x30,x7,287	  x7:0x00000002 x30=0x00000002
       10215000	      1020	80001260	00700293	addi	x5,x0,7	  x0:0x00000000  x5=0x00000007
       10225000	      1021	80001264	ce914413	xori	x8,x2,-791	  x2:0xfffffff6  x8=0x0000031f
       10235000	      1022	80001268	00400513	addi	x10,x0,4	  x0:0x00000000 x10=0x00000004
       10245000	      1023	8000126c	400b5733	sra	x14,x22,x0	 x22:0x00000000  x0:0x00000000 x14=0x00000000
       10255000	      1024	80001270	b92a3213	sltiu	x4,x20,-1134	 x20:0x3511523c  x4=0x00000001
       10265000	      1025	80001274	ffd28293	addi	x5,x5,-3	  x5:0x00000007  x5=0x00000004
       10275000	      1026	80001278	416be237	lui	x4,0x416be	  x4=0x416be000
       10285000	      1027	8000127c	41ff8a33	sub	x20,x31,x31	 x31:0x00000000 x31:0x00000000 x20=0x00000000
       10295000	      1028	80001280	ff600093	addi	x1,x0,-10	  x0:0x00000000  x1=0xfffffff6
       10305000	      1029	80001284	01a10eb3	add	x29,x2,x26	  x2:0xfffffff6 x26:0xffe00027 x29=0xffe0001d
       10315000	      1030	80001288	6a334d93	xori	x27,x6,1699	  x6:0xfffffffc x27=0xfffff95f
       10325000	      1031	8000128c	00600813	addi	x16,x0,6	  x0:0x00000000 x16=0x00000006
       10335000	      1032	80001290	01119a13	slli	x20,x3,0x11	  x3:0x00000012 x20=0x00240000
       10345000	      1033	80001294	400cd593	srai	x11,x25,0x0	 x25:0x0000000c x11=0x0000000c
       10355000	      1034	80001298	a98a7e93	andi	x29,x20,-1384	 x20:0x00240000 x29=0x00240000
       10365000	      1035	8000129c	00508093	addi	x1,x1,5	  x1:0xfffffff6  x1=0xfffffffb
       10375000	      1036	800012a0	003ad1b3	srl	x3,x21,x3	 x21:0x80009f20  x3:0x00000012  x3=0x00002000
       10385000	      1037	800012a4	ff00eae3	bltu	x1,x16,80001298	  x1:0xfffffffb x16:0x00000006
       10395000	      1038	800012a8	014126b3	slt	x13,x2,x20	  x2:0xfffffff6 x20:0x00240000 x13=0x00000001
       10405000	      1039	800012ac	fca2f2e3	bgeu	x5,x10,80001270	  x5:0x00000004 x10:0x00000004
       10415000	      1040	00000000	00000013	addi	x0,x0,0	  x0:0x00000000
       10425000	      1041	8000126c	00000013	addi	x0,x0,0	  x0:0x00000000
       10435000	      1042	80001270	b92a3213	sltiu	x4,x20,-1134	 x20:0x00240000  x4=0x00000001
       10445000	      1043	80001274	ffd28293	addi	x5,x5,-3	  x5:0x00000004  x5=0x00000001
       10455000	      1044	80001278	416be237	lui	x4,0x416be	  x4=0x416be000
       10465000	      1045	8000127c	41ff8a33	sub	x20,x31,x31	 x31:0x00000000 x31:0x00000000 x20=0x00000000
       10475000	      1046	80001280	ff600093	addi	x1,x0,-10	  x0:0x00000000  x1=0xfffffff6
       10485000	      1047	80001284	01a10eb3	add	x29,x2,x26	  x2:0xfffffff6 x26:0xffe00027 x29=0xffe0001d
       10495000	      1048	80001288	6a334d93	xori	x27,x6,1699	  x6:0xfffffffc x27=0xfffff95f
       10505000	      1049	8000128c	00600813	addi	x16,x0,6	  x0:0x00000000 x16=0x00000006
       10515000	      1050	80001290	01119a13	slli	x20,x3,0x11	  x3:0x00002000 x20=0x40000000
       10525000	      1051	80001294	400cd593	srai	x11,x25,0x0	 x25:0x0000000c x11=0x0000000c
       10535000	      1052	80001298	a98a7e93	andi	x29,x20,-1384	 x20:0x40000000 x29=0x40000000
       10545000	      1053	8000129c	00508093	addi	x1,x1,5	  x1:0xfffffff6  x1=0xfffffffb
       10555000	      1054	800012a0	003ad1b3	srl	x3,x21,x3	 x21:0x80009f20  x3:0x00002000  x3=0x80009f20
       10565000	      1055	800012a4	ff00eae3	bltu	x1,x16,80001298	  x1:0xfffffffb x16:0x00000006
       10575000	      1056	800012a8	014126b3	slt	x13,x2,x20	  x2:0xfffffff6 x20:0x40000000 x13=0x00000001
       10585000	      1057	800012ac	fca2f2e3	bgeu	x5,x10,80001270	  x5:0x00000001 x10:0x00000004
       10595000	      1058	800012b0	00bda333	slt	x6,x27,x11	 x27:0xfffff95f x11:0x0000000c  x6=0x00000001
       10605000	      1059	800012b4	016e2333	slt	x6,x28,x22	 x28:0x000004f8 x22:0x00000000  x6=0x00000000
       10615000	      1060	800012b8	414ddbb3	sra	x23,x27,x20	 x27:0xfffff95f x20:0x40000000 x23=0xfffff95f
       10625000	      1061	800012bc	40380033	sub	x0,x16,x3	 x16:0x00000006  x3:0x80009f20
       10635000	      1062	800012c0	8dc8a813	slti	x16,x17,-1828	 x17:0xffffffff x16=0x00000000
       10645000	      1063	800012c4	06859a63	bne	x11,x8,80001338	 x11:0x0000000c  x8:0x0000031f
       10655000	      1064	00000000	00000013	addi	x0,x0,0	  x0:0x00000000
       10665000	      1065	80001334	00000013	addi	x0,x0,0	  x0:0x00000000
       10675000	      1066	80001338	12a56013	ori	x0,x10,298	 x10:0x00000004
       10685000	      1067	8000133c	41ba8433	sub	x8,x21,x27	 x21:0x80009f20 x27:0xfffff95f  x8=0x8000a5c1
       10695000	      1068	80001340	401ad813	srai	x16,x21,0x1	 x21:0x80009f20 x16=0xc0004f90
       10705000	      1069	80001344	a3558913	addi	x18,x11,-1483	 x11:0x0000000c x18=0xfffffa41
       10715000	      1070	80001348	1a2b3893	sltiu	x17,x22,418	 x22:0x00000000 x17=0x00000001
       10725000	      1071	8000134c	14a6f993	andi	x19,x13,330	 x13:0x00000001 x19=0x00000000
       10735000	      1072	80001350	cfd9ff13	andi	x30,x19,-771	 x19:0x00000000 x30=0x00000000
       10745000	      1073	80001354	a0197493	andi	x9,x18,-1535	 x18:0xfffffa41  x9=0xfffffa01
       10755000	      1074	80001358	02df1663	bne	x30,x13,80001384	 x30:0x00000000 x13:0x00000001
       10765000	      1075	00000000	00000013	addi	x0,x0,0	  x0:0x00000000
       10775000	      1076	80001380	00000013	addi	x0,x0,0	  x0:0x00000000
       10785000	      1077	80001384	00000013	addi	x0,x0,0	  x0:0x00000000
       10795000	      1078	80001388	75782693	slti	x13,x16,1879	 x16:0xc0004f90 x13=0x00000001
       10805000	      1079	8000138c	00757533	and	x10,x10,x7	 x10:0x00000004  x7:0x00000002 x10=0x00000000
       10815000	      1080	80001390	00100f13	addi	x30,x0,1	  x0:0x00000000 x30=0x00000001
       10825000	      1081	80001394	62679197	auipc	x3,0x62679	  x3=0xe267a390
       10835000	      1082	80001398	01384db3	xor	x27,x16,x19	 x16:0xc0004f90 x19:0x00000000 x27=0xc0004f90
       10845000	      1083	8000139c	01100593	addi	x11,x0,17	  x0:0x00000000 x11=0x00000011
       10855000	      1084	800013a0	017a8933	add	x18,x21,x23	 x21:0x80009f20 x23:0xfffff95f x18=0x8000987f
       10865000	      1085	800013a4	009f0f13	addi	x30,x30,9	 x30:0x00000001 x30=0x0000000a
       10875000	      1086	800013a8	1c398a13	addi	x20,x19,451	 x19:0x00000000 x20=0x000001c3
       10885000	      1087	800013ac	41f084b3	sub	x9,x1,x31	  x1:0xfffffffb x31:0x00000000  x9=0xfffffffb
       10895000	      1088	800013b0	010e16b3	sll	x13,x28,x16	 x28:0x000004f8 x16:0xc0004f90 x13=0x04f80000
       10905000	      1089	800013b4	4164d333	sra	x6,x9,x22	  x9:0xfffffffb x22:0x00000000  x6=0xfffffffb
       10915000	      1090	800013b8	40ff5c33	sra	x24,x30,x15	 x30:0x0000000a x15:0x80009fc4 x24=0x00000000
       10925000	      1091	800013bc	011d8db3	add	x27,x27,x17	 x27:0xc0004f90 x17:0x00000001 x27=0xc0004f91
       10935000	      1092	800013c0	febf60e3	bltu	x30,x11,800013a0	 x30:0x0000000a x11:0x00000011
       10945000	      1093	00000000	00000013	addi	x0,x0,0	  x0:0x00000000
       10955000	      1094	8000139c	00000013	addi	x0,x0,0	  x0:0x00000000
       10965000	      1095	800013a0	017a8933	add	x18,x21,x23	 x21:0x80009f20 x23:0xfffff95f x18=0x8000987f
       10975000	      1096	800013a4	009f0f13	addi	x30,x30,9	 x30:0x0000000a x30=0x00000013
       10985000	      1097	800013a8	1c398a13	addi	x20,x19,451	 x19:0x00000000 x20=0x000001c3
       10995000	      1098	800013ac	41f084b3	sub	x9,x1,x31	  x1:0xfffffffb x31:0x00000000  x9=0xfffffffb
       11005000	      1099	800013b0	010e16b3	sll	x13,x28,x16	 x28:0x000004f8 x16:0xc0004f90 x13=0x04f80000
       11015000	      1100	800013b4	4164d333	sra	x6,x9,x22	  x9:0xfffffffb x22:0x00000000  x6=0xfffffffb
       11025000	      1101	800013b8	40ff5c33	sra	x24,x30,x15	 x30:0x00000013 x15:0x80009fc4 x24=0x00000001
       11035000	      1102	800013bc	011d8db3	add	x27,x27,x17	 x27:0xc0004f91 x17:0x00000001 x27=0xc0004f92
       11045000	      1103	800013c0	febf60e3	bltu	x30,x11,800013a0	 x30:0x00000013 x11:0x00000011
       11055000	      1104	800013c4	a65a4293	xori	x5,x20,-1435	 x20:0x000001c3  x5=0xfffffba6
       11065000	      1105	800013c8	dc4e7513	andi	x10,x28,-572	 x28:0x000004f8 x10=0x000004c0
       11075000	      1106	800013cc	008a1f93	slli	x31,x20,0x8	 x20:0x000001c3 x31=0x0001c300
       11085000	      1107	800013d0	01c39033	sll	x0,x7,x28	  x7:0x00000002 x28:0x000004f8
       11095000	      1108	800013d4	01399e33	sll	x28,x19,x19	 x19:0x00000000 x19:0x00000000 x28=0x00000000
       11105000	      1109	800013d8	014c00b3	add	x1,x24,x20	 x24:0x00000001 x20:0x000001c3  x1=0x000001c4
       11115000	      1110	800013dc	00493433	sltu	x8,x18,x4	 x18:0x8000987f  x4:0x416be000  x8=0x00000000
       11125000	      1111	800013e0	3e059a17	auipc	x20,0x3e059	 x20=0xbe05a3dc
       11135000	      1112	800013e4	00e21d13	slli	x26,x4,0xe	  x4:0x416be000 x26=0xf8000000
       11145000	      1113	800013e8	0320fa63	bgeu	x1,x18,8000141c	  x1:0x000001c4 x18:0x8000987f
       11155000	      1114	800013ec	01accdb3	xor	x27,x25,x26	 x25:0x0000000c x26:0xf8000000 x27=0xf800000c
       11165000	      1115	800013f0	01bab633	sltu	x12,x21,x27	 x21:0x80009f20 x27:0xf800000c x12=0x00000001
       11175000	      1116	800013f4	00000013	addi	x0,x0,0	  x0:0x00000000
       11185000	      1117	800013f8	48aaf513	andi	x10,x21,1162	 x21:0x80009f20 x10=0x00000400
       11195000	      1118	800013fc	017a1333	sll	x6,x20,x23	 x20:0xbe05a3dc x23:0xfffff95f  x6=0x00000000
       11205000	      1119	80001400	9bbe6997	auipc	x19,0x9bbe6	 x19=0x1bbe73fc
       11215000	      1120	80001404	018e60b3	or	x1,x28,x24	 x28:0x00000000 x24:0x00000001  x1=0x00000001
       11225000	      1121	80001408	0295d863	bge	x11,x9,80001438	 x11:0x00000011  x9:0xfffffffb
       11235000	      1122	00000000	00000013	addi	x0,x0,0	  x0:0x00000000
       11245000	      1123	80001434	00000013	addi	x0,x0,0	  x0:0x00000000
       11255000	      1124	80001438	01e9e533	or	x10,x19,x30	 x19:0x1bbe73fc x30:0x00000013 x10=0x1bbe73ff
       11265000	      1125	8000143c	406d8033	sub	x0,x27,x6	 x27:0xf800000c  x6:0x00000000
       11275000	      1126	80001440	6a860e93	addi	x29,x12,1704	 x12:0x00000001 x29=0x000006a9
       11285000	      1127	80001444	000628b3	slt	x17,x12,x0	 x12:0x00000001  x0:0x00000000 x17=0x00000000
       11295000	      1128	80001448	0181ca63	blt	x3,x24,8000145c	  x3:0xe267a390 x24:0x00000001
       11305000	      1129	00000000	00000013	addi	x0,x0,0	  x0:0x00000000
       11315000	      1130	80001458	00000013	addi	x0,x0,0	  x0:0x00000000
       11325000	      1131	8000145c	000301b3	add	x3,x6,x0	  x6:0x00000000  x0:0x00000000  x3=0x00000000
       11335000	      1132	80001460	00900933	add	x18,x0,x9	  x0:0x00000000  x9:0xfffffffb x18=0xfffffffb
       11345000	      1133	80001464	66b47513	andi	x10,x8,1643	  x8:0x00000000 x10=0x00000000
       11355000	      1134	80001468	8cc9f393	andi	x7,x19,-1844	 x19:0x1bbe73fc  x7=0x1bbe70cc
       11365000	      1135	8000146c	af03f813	andi	x16,x7,-1296	  x7:0x1bbe70cc x16=0x1bbe70c0
       11375000	      1136	80001470	da4c4113	xori	x2,x24,-604	 x24:0x00000001  x2=0xfffffda5
       11385000	      1137	80001474	01a22933	slt	x18,x4,x26	  x4:0x416be000 x26:0xf8000000 x18=0x00000000
       11395000	      1138	80001478	02b76263	bltu	x14,x11,8000149c	 x14:0x00000000 x11:0x00000011
       11405000	      1139	00000000	00000013	addi	x0,x0,0	  x0:0x00000000
       11415000	      1140	80001498	00000013	addi	x0,x0,0	  x0:0x00000000
       11425000	      1141	8000149c	05909863	bne	x1,x25,800014ec	  x1:0x00000001 x25:0x0000000c
       11435000	      1142	00000000	00000013	addi	x0,x0,0	  x0:0x00000000
       11445000	      1143	800014e8	00000013	addi	x0,x0,0	  x0:0x00000000
       11455000	      1144	800014ec	40afd4b3	sra	x9,x31,x10	 x31:0x0001c300 x10:0x00000000  x9=0x0001c300
       11465000	      1145	800014f0	40f95db3	sra	x27,x18,x15	 x18:0x00000000 x15:0x80009fc4 x27=0x00000000
       11475000	      1146	800014f4	0189de33	srl	x28,x19,x24	 x19:0x1bbe73fc x24:0x00000001 x28=0x0ddf39fe
       11485000	      1147	800014f8	00a31933	sll	x18,x6,x10	  x6:0x00000000 x10:0x00000000 x18=0x00000000
       11495000	      1148	800014fc	012e4e63	blt	x28,x18,80001518	 x28:0x0ddf39fe x18:0x00000000
       11505000	      1149	80001500	042e9863	bne	x29,x2,80001550	 x29:0x000006a9  x2:0xfffffda5
       11515000	      1150	00000000	00000013	addi	x0,x0,0	  x0:0x00000000
       11525000	      1151	8000154c	00000013	addi	x0,x0,0	  x0:0x00000000
       11535000	      1152	80001550	01f23cb3	sltu	x25,x4,x31	  x4:0x416be000 x31:0x0001c300 x25=0x00000000
       11545000	      1153	80001554	ecdda613	slti	x12,x27,-307	 x27:0x00000000 x12=0x00000000
       11555000	      1154	80001558	01846db3	or	x27,x8,x24	  x8:0x00000000 x24:0x00000001 x27=0x00000001
       11565000	      1155	8000155c	0102c033	xor	x0,x5,x16	  x5:0xfffffba6 x16:0x1bbe70c0
       11575000	      1156	80001560	01745c63	bge	x8,x23,80001578	  x8:0x00000000 x23:0xfffff95f
       11585000	      1157	00000000	00000013	addi	x0,x0,0	  x0:0x00000000
       11595000	      1158	80001574	00000013	addi	x0,x0,0	  x0:0x00000000
       11605000	      1159	80001578	00639c63	bne	x7,x6,80001590	  x7:0x1bbe70cc  x6:0x00000000
       11615000	      1160	00000000	00000013	addi	x0,x0,0	  x0:0x00000000
       11625000	      1161	8000158c	00000013	addi	x0,x0,0	  x0:0x00000000
       11635000	      1162	80001590	01c28233	add	x4,x5,x28	  x5:0xfffffba6 x28:0x0ddf39fe  x4=0x0ddf35a4
       11645000	      1163	80001594	023f5e63	bge	x30,x3,800015d0	 x30:0x00000013  x3:0x00000000
       11655000	      1164	00000000	00000013	addi	x0,x0,0	  x0:0x00000000
       11665000	      1165	800015cc	00000013	addi	x0,x0,0	  x0:0x00000000
       11675000	      1166	800015d0	00000013	addi	x0,x0,0	  x0:0x00000000
       11685000	      1167	800015d4	20870613	addi	x12,x14,520	 x14:0x00000000 x12=0x00000208
       11695000	      1168	800015d8	00f79693	slli	x13,x15,0xf	 x15:0x80009fc4 x13=0x4fe20000
       11705000	      1169	800015dc	190cc693	xori	x13,x25,400	 x25:0x00000000 x13=0x00000190
       11715000	      1170	800015e0	d748c217	auipc	x4,0xd748c	  x4=0x5748d5dc
       11725000	      1171	800015e4	009304b3	add	x9,x6,x9	  x6:0x00000000  x9:0x0001c300  x9=0x0001c300
       11735000	      1172	800015e8	00be9713	slli	x14,x29,0xb	 x29:0x000006a9 x14=0x00354800
       11745000	      1173	800015ec	00075c63	bge	x14,x0,80001604	 x14:0x00354800  x0:0x00000000
       11755000	      1174	00000000	00000013	addi	x0,x0,0	  x0:0x00000000
       11765000	      1175	80001600	00000013	addi	x0,x0,0	  x0:0x00000000
       11775000	      1176	80001604	7c654f93	xori	x31,x10,1990	 x10:0x00000000 x31=0x000007c6
       11785000	      1177	80001608	002afeb3	and	x29,x21,x2	 x21:0x80009f20  x2:0xfffffda5 x29=0x80009d20
       11795000	      1178	8000160c	006133b3	sltu	x7,x2,x6	  x2:0xfffffda5  x6:0x00000000  x7=0x00000000
       11805000	      1179	80001610	008af933	and	x18,x21,x8	 x21:0x80009f20  x8:0x00000000 x18=0x00000000
       11815000	      1180	80001614	ffa9b693	sltiu	x13,x19,-6	 x19:0x1bbe73fc x13=0x00000001
       11825000	      1181	80001618	160c2093	slti	x1,x24,352	 x24:0x00000001  x1=0x00000001
       11835000	      1182	8000161c	41addb93	srai	x23,x27,0x1a	 x27:0x00000001 x23=0x00000000
       11845000	      1183	80001620	01040463	beq	x8,x16,80001628	  x8:0x00000000 x16:0x1bbe70c0
       11855000	      1184	80001624	01e25a13	srli	x20,x4,0x1e	  x4:0x5748d5dc x20=0x00000001
       11865000	      1185	80001628	01bfac33	slt	x24,x31,x27	 x31:0x000007c6 x27:0x00000001 x24=0x00000000
       11875000	      1186	8000162c	018aa633	slt	x12,x21,x24	 x21:0x80009f20 x24:0x00000000 x12=0x00000001
       11885000	      1187	80001630	3ef96713	ori	x14,x18,1007	 x18:0x00000000 x14=0x000003ef
       11895000	      1188	80001634	0424d863	bge	x9,x2,80001684	  x9:0x0001c300  x2:0xfffffda5
       11905000	      1189	00000000	00000013	addi	x0,x0,0	  x0:0x00000000
       11915000	      1190	80001680	00000013	addi	x0,x0,0	  x0:0x00000000
       11925000	      1191	80001684	001f03b3	add	x7,x30,x1	 x30:0x00000013  x1:0x00000001  x7=0x00000014
       11935000	      1192	80001688	01c72eb3	slt	x29,x14,x28	 x14:0x000003ef x28:0x0ddf39fe x29=0x00000001
       11945000	      1193	8000168c	26963d93	sltiu	x27,x12,617	 x12:0x00000001 x27=0x00000001
       11955000	      1194	80001690	403b5893	srai	x17,x22,0x3	 x22:0x00000000 x17=0x00000000
       11965000	      1195	80001694	00001d93	slli	x27,x0,0x0	  x0:0x00000000 x27=0x00000000
       11975000	      1196	80001698	94f5f613	andi	x12,x11,-1713	 x11:0x00000011 x12=0x00000001
       11985000	      1197	8000169c	022c6263	bltu	x24,x2,800016c0	 x24:0x00000000  x2:0xfffffda5
       11995000	      1198	00000000	00000013	addi	x0,x0,0	  x0:0x00000000
       12005000	      1199	800016bc	00000013	addi	x0,x0,0	  x0:0x00000000
       12015000	      1200	800016c0	ac377017	auipc	x0,0xac377	
       12025000	      1201	800016c4	7b55cb93	xori	x23,x11,1973	 x11:0x00000011 x23=0x000007a4
       12035000	      1202	800016c8	aadfb893	sltiu	x17,x31,-1363	 x31:0x000007c6 x17=0x00000001
       12045000	      1203	800016cc	03939863	bne	x7,x25,800016fc	  x7:0x00000014 x25:0x00000000
       12055000	      1204	00000000	00000013	addi	x0,x0,0	  x0:0x00000000
       12065000	      1205	800016f8	00000013	addi	x0,x0,0	  x0:0x00000000
       12075000	      1206	800016fc	8abd2813	slti	x16,x26,-1877	 x26:0xf8000000 x16=0x00000001
       12085000	      1207	80001700	016f3233	sltu	x4,x30,x22	 x30:0x00000013 x22:0x00000000  x4=0x00000000
       12095000	      1208	80001704	00e18863	beq	x3,x14,80001714	  x3:0x00000000 x14:0x000003ef
       12105000	      1209	80001708	0154acb3	slt	x25,x9,x21	  x9:0x0001c300 x21:0x80009f20 x25=0x00000000
       12115000	      1210	8000170c	4134d033	sra	x0,x9,x19	  x9:0x0001c300 x19:0x1bbe73fc
       12125000	      1211	80001710	00049333	sll	x6,x9,x0	  x9:0x0001c300  x0:0x00000000  x6=0x0001c300
       12135000	      1212	80001714	857ebd17	auipc	x26,0x857eb	 x26=0x057ec710
       12145000	      1213	80001718	00452833	slt	x16,x10,x4	 x10:0x00000000  x4:0x00000000 x16=0x00000000
       12155000	      1214	8000171c	4052dd33	sra	x26,x5,x5	  x5:0xfffffba6  x5:0xfffffba6 x26=0xffffffee
       12165000	      1215	80001720	00000013	addi	x0,x0,0	  x0:0x00000000
       12175000	      1216	80001724	01a18863	beq	x3,x26,80001734	  x3:0x00000000 x26:0xffffffee
       12185000	      1217	80001728	94cf3593	sltiu	x11,x30,-1716	 x30:0x00000013 x11=0x00000001
       12195000	      1218	8000172c	355ccf93	xori	x31,x25,853	 x25:0x00000000 x31=0x00000355
       12205000	      1219	80001730	f2625a17	auipc	x20,0xf2625	 x20=0x7262672c
       12215000	      1220	80001734	97873337	lui	x6,0x97873	  x6=0x97873000
       12225000	      1221	80001738	009528b3	slt	x17,x10,x9	 x10:0x00000000  x9:0x0001c300 x17=0x00000001
       12235000	      1222	8000173c	0059ca63	blt	x19,x5,80001750	 x19:0x1bbe73fc  x5:0xfffffba6
       12245000	      1223	80001740	001dc8b3	xor	x17,x27,x1	 x27:0x00000000  x1:0x00000001 x17=0x00000001
       12255000	      1224	80001744	414c8733	sub	x14,x25,x20	 x25:0x00000000 x20:0x7262672c x14=0x8d9d98d4
       12265000	      1225	80001748	01182733	slt	x14,x16,x17	 x16:0x00000000 x17:0x00000001 x14=0x00000001
       12275000	      1226	8000174c	016fe613	ori	x12,x31,22	 x31:0x00000355 x12=0x00000357
       12285000	      1227	80001750	00000013	addi	x0,x0,0	  x0:0x00000000
       12295000	      1228	80001754	77ea8393	addi	x7,x21,1918	 x21:0x80009f20  x7=0x8000a69e
       12305000	      1229	80001758	01fc1413	slli	x8,x24,0x1f	 x24:0x00000000  x8=0x00000000
       12315000	      1230	8000175c	0024ffb3	and	x31,x9,x2	  x9:0x0001c300  x2:0xfffffda5 x31=0x0001c100
       12325000	      1231	80001760	00ca7463	bgeu	x20,x12,80001768	 x20:0x7262672c x12:0x00000357
       12335000	      1232	00000000	00000013	addi	x0,x0,0	  x0:0x00000000
       12345000	      1233	80001764	00000013	addi	x0,x0,0	  x0:0x00000000
       12355000	      1234	80001768	03200863	beq	x0,x18,80001798	  x0:0x00000000 x18:0x00000000
       12365000	      1235	00000000	00000013	addi	x0,x0,0	  x0:0x00000000
       12375000	      1236	80001794	00000013	addi	x0,x0,0	  x0:0x00000000
       12385000	      1237	80001798	00000013	addi	x0,x0,0	  x0:0x00000000
       12395000	      1238	8000179c	00a7f4b3	and	x9,x15,x10	 x15:0x80009fc4 x10:0x00000000  x9=0x00000000
       12405000	      1239	800017a0	01aafa33	and	x20,x21,x26	 x21:0x80009f20 x26:0xffffffee x20=0x80009f20
       12415000	      1240	800017a4	fcea8993	addi	x19,x21,-50	 x21:0x80009f20 x19=0x80009eee
       12425000	      1241	800017a8	020f4263	blt	x30,x0,800017cc	 x30:0x00000013  x0:0x00000000
       12435000	      1242	800017ac	01f45d33	srl	x26,x8,x31	  x8:0x00000000 x31:0x0001c100 x26=0x00000000
       12445000	      1243	800017b0	04fa7263	bgeu	x20,x15,800017f4	 x20:0x80009f20 x15:0x80009fc4
       12455000	      1244	800017b4	053a5863	bge	x20,x19,80001804	 x20:0x80009f20 x19:0x80009eee
       12465000	      1245	00000000	00000013	addi	x0,x0,0	  x0:0x00000000
       12475000	      1246	80001800	00000013	addi	x0,x0,0	  x0:0x00000000
       12485000	      1247	80001804	04744063	blt	x8,x7,80001844	  x8:0x00000000  x7:0x8000a69e
       12495000	      1248	80001808	60c13f97	auipc	x31,0x60c13	 x31=0xe0c14804
       12505000	      1249	8000180c	011dec33	or	x24,x27,x17	 x27:0x00000000 x17:0x00000001 x24=0x00000001
       12515000	      1250	80001810	042c4863	blt	x24,x2,80001860	 x24:0x00000001  x2:0xfffffda5
       12525000	      1251	80001814	194e4917	auipc	x18,0x194e4	 x18=0x994e5810
       12535000	      1252	80001818	011b73b3	and	x7,x22,x17	 x22:0x00000000 x17:0x00000001  x7=0x00000000
       12545000	      1253	8000181c	8914e513	ori	x10,x9,-1903	  x9:0x00000000 x10=0xfffff891
       12555000	      1254	80001820	3551b097	auipc	x1,0x3551b	  x1=0xb551c81c
       12565000	      1255	80001824	3d24fe37	lui	x28,0x3d24f	 x28=0x3d24f000
       12575000	      1256	80001828	40280f33	sub	x30,x16,x2	 x16:0x00000000  x2:0xfffffda5 x30=0x0000025b
       12585000	      1257	8000182c	404cdc93	srai	x25,x25,0x4	 x25:0x00000000 x25=0x00000000
       12595000	      1258	80001830	15e08393	addi	x7,x1,350	  x1:0xb551c81c  x7=0xb551c97a
       12605000	      1259	80001834	00cf9613	slli	x12,x31,0xc	 x31:0xe0c14804 x12=0x14804000
       12615000	      1260	80001838	0184e263	bltu	x9,x24,8000183c	  x9:0x00000000 x24:0x00000001
       12625000	      1261	00000000	00000013	addi	x0,x0,0	  x0:0x00000000
       12635000	      1262	80001838	00000013	addi	x0,x0,0	  x0:0x00000000
       12645000	      1263	8000183c	00fb6fb3	or	x31,x22,x15	 x22:0x00000000 x15:0x80009fc4 x31=0x80009fc4
       12655000	      1264	80001840	01f50863	beq	x10,x31,80001850	 x10:0xfffff891 x31:0x80009fc4
       12665000	      1265	80001844	3df94513	xori	x10,x18,991	 x18:0x994e5810 x10=0x994e5bcf
       12675000	      1266	80001848	00da8933	add	x18,x21,x13	 x21:0x80009f20 x13:0x00000001 x18=0x80009f21
       12685000	      1267	8000184c	014d02b3	add	x5,x26,x20	 x26:0x00000000 x20:0x80009f20  x5=0x80009f20
       12695000	      1268	80001850	99177293	andi	x5,x14,-1647	 x14:0x00000001  x5=0x00000001
       12705000	      1269	80001854	00000013	addi	x0,x0,0	  x0:0x00000000
       12715000	      1270	80001858	015ee5b3	or	x11,x29,x21	 x29:0x00000001 x21:0x80009f20 x11=0x80009f21
       12725000	      1271	8000185c	4062d293	srai	x5,x5,0x6	  x5:0x00000001  x5=0x00000000
       12735000	      1272	80001860	02136e63	bltu	x6,x1,8000189c	  x6:0x97873000  x1:0xb551c81c
       12745000	      1273	00000000	00000013	addi	x0,x0,0	  x0:0x00000000
       12755000	      1274	80001898	00000013	addi	x0,x0,0	  x0:0x00000000
       12765000	      1275	8000189c	01106733	or	x14,x0,x17	  x0:0x00000000 x17:0x00000001 x14=0x00000001
       12775000	      1276	800018a0	01572533	slt	x10,x14,x21	 x14:0x00000001 x21:0x80009f20 x10=0x00000000
       12785000	      1277	800018a4	1d747513	andi	x10,x8,471	  x8:0x00000000 x10=0x00000000
       12795000	      1278	800018a8	00e4dd13	srli	x26,x9,0xe	  x9:0x00000000 x26=0x00000000
       12805000	      1279	800018ac	01b3e833	or	x16,x7,x27	  x7:0xb551c97a x27:0x00000000 x16=0xb551c97a
       12815000	      1280	800018b0	40c65b93	srai	x23,x12,0xc	 x12:0x14804000 x23=0x00014804
       12825000	      1281	800018b4	74cf1037	lui	x0,0x74cf1	
       12835000	      1282	800018b8	01a141b3	xor	x3,x2,x26	  x2:0xfffffda5 x26:0x00000000  x3=0xfffffda5
       12845000	      1283	800018bc	212fbc13	sltiu	x24,x31,530	 x31:0x80009fc4 x24=0x00000000
       12855000	      1284	800018c0	00713733	sltu	x14,x2,x7	  x2:0xfffffda5  x7:0xb551c97a x14=0x00000000
       12865000	      1285	800018c4	025f4263	blt	x30,x5,800018e8	 x30:0x0000025b  x5:0x00000000
       12875000	      1286	800018c8	01691593	slli	x11,x18,0x16	 x18:0x80009f21 x11=0xc8400000
       12885000	      1287	800018cc	0f2e21b7	lui	x3,0xf2e2	  x3=0x0f2e2000
       12895000	      1288	800018d0	019d6db3	or	x27,x26,x25	 x26:0x00000000 x25:0x00000000 x27=0x00000000
       12905000	      1289	800018d4	01d6c663	blt	x13,x29,800018e0	 x13:0x00000001 x29:0x00000001
       12915000	      1290	800018d8	01ee23b3	slt	x7,x28,x30	 x28:0x3d24f000 x30:0x0000025b  x7=0x00000000
       12925000	      1291	800018dc	c6a2c113	xori	x2,x5,-918	  x5:0x00000000  x2=0xfffffc6a
       12935000	      1292	800018e0	2a69a293	slti	x5,x19,678	 x19:0x80009eee  x5=0x00000001
       12945000	      1293	800018e4	007568b3	or	x17,x10,x7	 x10:0x00000000  x7:0x00000000 x17=0x00000000
       12955000	      1294	800018e8	c8afe813	ori	x16,x31,-886	 x31:0x80009fc4 x16=0xffffffce
       12965000	      1295	800018ec	0137b8b3	sltu	x17,x15,x19	 x15:0x80009fc4 x19:0x80009eee x17=0x00000000
       12975000	      1296	800018f0	01cf6cb3	or	x25,x30,x28	 x30:0x0000025b x28:0x3d24f000 x25=0x3d24f25b
       12985000	      1297	800018f4	00855c93	srli	x25,x10,0x8	 x10:0x00000000 x25=0x00000000
       12995000	      1298	800018f8	ba57f313	andi	x6,x15,-1115	 x15:0x80009fc4  x6=0x80009b84
       13005000	      1299	800018fc	006c9c93	slli	x25,x25,0x6	 x25:0x00000000 x25=0x00000000
       13015000	      1300	80001900	41b30933	sub	x18,x6,x27	  x6:0x80009b84 x27:0x00000000 x18=0x80009b84
       13025000	      1301	80001904	1121f113	andi	x2,x3,274	  x3:0x0f2e2000  x2=0x00000000
       13035000	      1302	80001908	02450663	beq	x10,x4,80001934	 x10:0x00000000  x4:0x00000000
       13045000	      1303	00000000	00000013	addi	x0,x0,0	  x0:0x00000000
       13055000	      1304	80001930	00000013	addi	x0,x0,0	  x0:0x00000000
       13065000	      1305	80001934	3d507913	andi	x18,x0,981	  x0:0x00000000 x18=0x00000000
       13075000	      1306	80001938	404f0db3	sub	x27,x30,x4	 x30:0x0000025b  x4:0x00000000 x27=0x0000025b
       13085000	      1307	8000193c	000f3fb3	sltu	x31,x30,x0	 x30:0x0000025b  x0:0x00000000 x31=0x00000000
       13095000	      1308	80001940	02baea63	bltu	x21,x11,80001974	 x21:0x80009f20 x11:0xc8400000
       13105000	      1309	00000000	00000013	addi	x0,x0,0	  x0:0x00000000
       13115000	      1310	80001970	00000013	addi	x0,x0,0	  x0:0x00000000
       13125000	      1311	80001974	009b29b3	slt	x19,x22,x9	 x22:0x00000000  x9:0x00000000 x19=0x00000000
       13135000	      1312	80001978	000d7233	and	x4,x26,x0	 x26:0x00000000  x0:0x00000000  x4=0x00000000
       13145000	      1313	8000197c	01ce22b3	slt	x5,x28,x28	 x28:0x3d24f000 x28:0x3d24f000  x5=0x00000000
       13155000	      1314	80001980	51966513	ori	x10,x12,1305	 x12:0x14804000 x10=0x14804519
       13165000	      1315	80001984	01c61d93	slli	x27,x12,0x1c	 x12:0x14804000 x27=0x00000000
       13175000	      1316	80001988	19cdbe13	sltiu	x28,x27,412	 x27:0x00000000 x28=0x00000001
       13185000	      1317	8000198c	04a8e263	bltu	x17,x10,800019d0	 x17:0x00000000 x10:0x14804519
       13195000	      1318	00000000	00000013	addi	x0,x0,0	  x0:0x00000000
       13205000	      1319	800019cc	00000013	addi	x0,x0,0	  x0:0x00000000
       13215000	      1320	800019d0	5f42b893	sltiu	x17,x5,1524	  x5:0x00000000 x17=0x00000001
       13225000	      1321	800019d4	eaaab217	auipc	x4,0xeaaab	  x4=0x6aaac9d0
       13235000	      1322	800019d8	67668f13	addi	x30,x13,1654	 x13:0x00000001 x30=0x00000677
       13245000	      1323	800019dc	00000013	addi	x0,x0,0	  x0:0x00000000
       13255000	      1324	800019e0	335ca013	slti	x0,x25,821	 x25:0x00000000
       13265000	      1325	800019e4	00db2733	slt	x14,x22,x13	 x22:0x00000000 x13:0x00000001 x14=0x00000001
       13275000	      1326	800019e8	e0ab0093	addi	x1,x22,-502	 x22:0x00000000  x1=0xfffffe0a
       13285000	      1327	800019ec	40fb5d33	sra	x26,x22,x15	 x22:0x00000000 x15:0x80009fc4 x26=0x00000000
       13295000	      1328	800019f0	01bf4c63	blt	x30,x27,80001a08	 x30:0x00000677 x27:0x00000000
       13305000	      1329	800019f4	ffc76313	ori	x6,x14,-4	 x14:0x00000001  x6=0xfffffffd
       13315000	      1330	800019f8	01b99293	slli	x5,x19,0x1b	 x19:0x00000000  x5=0x00000000
       13325000	      1331	800019fc	00836133	or	x2,x6,x8	  x6:0xfffffffd  x8:0x00000000  x2=0xfffffffd
       13335000	      1332	80001a00	0012b4b3	sltu	x9,x5,x1	  x5:0x00000000  x1:0xfffffe0a  x9=0x00000001
       13345000	      1333	80001a04	030ff663	bgeu	x31,x16,80001a30	 x31:0x00000000 x16:0xffffffce
       13355000	      1334	80001a08	41475f33	sra	x30,x14,x20	 x14:0x00000001 x20:0x80009f20 x30=0x00000001
       13365000	      1335	80001a0c	00b85e13	srli	x28,x16,0xb	 x16:0xffffffce x28=0x001fffff
       13375000	      1336	80001a10	02dc7263	bgeu	x24,x13,80001a34	 x24:0x00000000 x13:0x00000001
       13385000	      1337	80001a14	03d5ec63	bltu	x11,x29,80001a4c	 x11:0xc8400000 x29:0x00000001
       13395000	      1338	80001a18	02857863	bgeu	x10,x8,80001a48	 x10:0x14804519  x8:0x00000000
       13405000	      1339	00000000	00000013	addi	x0,x0,0	  x0:0x00000000
       13415000	      1340	80001a44	00000013	addi	x0,x0,0	  x0:0x00000000
       13425000	      1341	80001a48	00d359b3	srl	x19,x6,x13	  x6:0xfffffffd x13:0x00000001 x19=0x7ffffffe
       13435000	      1342	80001a4c	655c6193	ori	x3,x24,1621	 x24:0x00000000  x3=0x00000655
       13445000	      1343	80001a50	013d9513	slli	x10,x27,0x13	 x27:0x00000000 x10=0x00000000
       13455000	      1344	80001a54	04c91863	bne	x18,x12,80001aa4	 x18:0x00000000 x12:0x14804000
       13465000	      1345	00000000	00000013	addi	x0,x0,0	  x0:0x00000000
       13475000	      1346	80001aa0	00000013	addi	x0,x0,0	  x0:0x00000000
       13485000	      1347	80001aa4	d7c5f0b7	lui	x1,0xd7c5f	  x1=0xd7c5f000
       13495000	      1348	80001aa8	00f10663	beq	x2,x15,80001ab4	  x2:0xfffffffd x15:0x80009fc4
       13505000	      1349	80001aac	4056d633	sra	x12,x13,x5	 x13:0x00000001  x5:0x00000000 x12=0x00000001
       13515000	      1350	80001ab0	00ad9533	sll	x10,x27,x10	 x27:0x00000000 x10:0x00000000 x10=0x00000000
       13525000	      1351	80001ab4	b2a2cd13	xori	x26,x5,-1238	  x5:0x00000000 x26=0xfffffb2a
       13535000	      1352	80001ab8	a2e59e37	lui	x28,0xa2e59	 x28=0xa2e59000
       13545000	      1353	80001abc	01e6afb3	slt	x31,x13,x30	 x13:0x00000001 x30:0x00000001 x31=0x00000000
       13555000	      1354	80001ac0	00000013	addi	x0,x0,0	  x0:0x00000000
       13565000	      1355	80001ac4	01fb1233	sll	x4,x22,x31	 x22:0x00000000 x31:0x00000000  x4=0x00000000
       13575000	      1356	80001ac8	41c45a13	srai	x20,x8,0x1c	  x8:0x00000000 x20=0x00000000
       13585000	      1357	80001acc	012c78b3	and	x17,x24,x18	 x24:0x00000000 x18:0x00000000 x17=0x00000000
       13595000	      1358	80001ad0	ff02aeb7	lui	x29,0xff02a	 x29=0xff02a000
       13605000	      1359	80001ad4	00000013	addi	x0,x0,0	  x0:0x00000000
       13615000	      1360	80001ad8	01dd1013	slli	x0,x26,0x1d	 x26:0xfffffb2a
       13625000	      1361	80001adc	00f58033	add	x0,x11,x15	 x11:0xc8400000 x15:0x80009fc4
       13635000	      1362	80001ae0	00dd3433	sltu	x8,x26,x13	 x26:0xfffffb2a x13:0x00000001  x8=0x00000000
       13645000	      1363	80001ae4	00076bb3	or	x23,x14,x0	 x14:0x00000001  x0:0x00000000 x23=0x00000001
       13655000	      1364	80001ae8	05286863	bltu	x16,x18,80001b38	 x16:0xffffffce x18:0x00000000
       13665000	      1365	80001aec	01165f93	srli	x31,x12,0x11	 x12:0x00000001 x31=0x00000000
       13675000	      1366	80001af0	01758c63	beq	x11,x23,80001b08	 x11:0xc8400000 x23:0x00000001
       13685000	      1367	80001af4	02741c63	bne	x8,x7,80001b2c	  x8:0x00000000  x7:0x00000000
       13695000	      1368	80001af8	01621c33	sll	x24,x4,x22	  x4:0x00000000 x22:0x00000000 x24=0x00000000
       13705000	      1369	80001afc	00997663	bgeu	x18,x9,80001b08	 x18:0x00000000  x9:0x00000001
       13715000	      1370	80001b00	ef99a213	slti	x4,x19,-263	 x19:0x7ffffffe  x4=0x00000000
       13725000	      1371	80001b04	00801d93	slli	x27,x0,0x8	  x0:0x00000000 x27=0x00000000
       13735000	      1372	80001b08	991b0a13	addi	x20,x22,-1647	 x22:0x00000000 x20=0xfffff991
       13745000	      1373	80001b0c	048ae863	bltu	x21,x8,80001b5c	 x21:0x80009f20  x8:0x00000000
       13755000	      1374	80001b10	00f5b2b3	sltu	x5,x11,x15	 x11:0xc8400000 x15:0x80009fc4  x5=0x00000000
       13765000	      1375	80001b14	f7f8e713	ori	x14,x17,-129	 x17:0x00000000 x14=0xffffff7f
       13775000	      1376	80001b18	00a39e13	slli	x28,x7,0xa	  x7:0x00000000 x28=0x00000000
       13785000	      1377	80001b1c	0239de63	bge	x19,x3,80001b58	 x19:0x7ffffffe  x3:0x00000655
       13795000	      1378	00000000	00000013	addi	x0,x0,0	  x0:0x00000000
       13805000	      1379	80001b54	00000013	addi	x0,x0,0	  x0:0x00000000
       13815000	      1380	80001b58	02331663	bne	x6,x3,80001b84	  x6:0xfffffffd  x3:0x00000655
       13825000	      1381	00000000	00000013	addi	x0,x0,0	  x0:0x00000000
       13835000	      1382	80001b80	00000013	addi	x0,x0,0	  x0:0x00000000
       13845000	      1383	80001b84	00000013	addi	x0,x0,0	  x0:0x00000000
       13855000	      1384	80001b88	01115c63	bge	x2,x17,80001ba0	  x2:0xfffffffd x17:0x00000000
       13865000	      1385	80001b8c	006783b3	add	x7,x15,x6	 x15:0x80009fc4  x6:0xfffffffd  x7=0x80009fc1
       13875000	      1386	80001b90	6eced717	auipc	x14,0x6eced	 x14=0xeeceeb8c
       13885000	      1387	80001b94	00546233	or	x4,x8,x5	  x8:0x00000000  x5:0x00000000  x4=0x00000000
       13895000	      1388	80001b98	418a5c33	sra	x24,x20,x24	 x20:0xfffff991 x24:0x00000000 x24=0xfffff991
       13905000	      1389	80001b9c	01fc9833	sll	x16,x25,x31	 x25:0x00000000 x31:0x00000000 x16=0x00000000
       13915000	      1390	80001ba0	ed938d13	addi	x26,x7,-295	  x7:0x80009fc1 x26=0x80009e9a
       13925000	      1391	80001ba4	03c87a63	bgeu	x16,x28,80001bd8	 x16:0x00000000 x28:0x00000000
       13935000	      1392	00000000	00000013	addi	x0,x0,0	  x0:0x00000000
       13945000	      1393	80001bd4	00000013	addi	x0,x0,0	  x0:0x00000000
       13955000	      1394	80001bd8	01d77263	bgeu	x14,x29,80001bdc	 x14:0xeeceeb8c x29:0xff02a000
       13965000	      1395	80001bdc	943bf413	andi	x8,x23,-1725	 x23:0x00000001  x8=0x00000001
       13975000	      1396	80001be0	f34dc093	xori	x1,x27,-204	 x27:0x00000000  x1=0xffffff34
       13985000	      1397	80001be4	00629b93	slli	x23,x5,0x6	  x5:0x00000000 x23=0x00000000
       13995000	      1398	80001be8	04a05263	bge	x0,x10,80001c2c	  x0:0x00000000 x10:0x00000000
       14005000	      1399	00000000	00000013	addi	x0,x0,0	  x0:0x00000000
       14015000	      1400	80001c28	00000013	addi	x0,x0,0	  x0:0x00000000
       14025000	      1401	80001c2c	01772733	slt	x14,x14,x23	 x14:0xeeceeb8c x23:0x00000000 x14=0x00000001
       14035000	      1402	80001c30	004fdeb3	srl	x29,x31,x4	 x31:0x00000000  x4:0x00000000 x29=0x00000000
       14045000	      1403	80001c34	e87a3093	sltiu	x1,x20,-377	 x20:0xfffff991  x1=0x00000001
       14055000	      1404	80001c38	0115df33	srl	x30,x11,x17	 x11:0xc8400000 x17:0x00000000 x30=0xc8400000
       14065000	      1405	80001c3c	0458fc63	bgeu	x17,x5,80001c94	 x17:0x00000000  x5:0x00000000
       14075000	      1406	00000000	00000013	addi	x0,x0,0	  x0:0x00000000
       14085000	      1407	80001c90	00000013	addi	x0,x0,0	  x0:0x00000000
       14095000	      1408	80001c94	03158663	beq	x11,x17,80001cc0	 x11:0xc8400000 x17:0x00000000
       14105000	      1409	80001c98	8eff4513	xori	x10,x30,-1809	 x30:0xc8400000 x10=0x37bff8ef
       14115000	      1410	80001c9c	00f17a33	and	x20,x2,x15	  x2:0xfffffffd x15:0x80009fc4 x20=0x80009fc4
       14125000	      1411	80001ca0	01d076b3	and	x13,x0,x29	  x0:0x00000000 x29:0x00000000 x13=0x00000000
       14135000	      1412	80001ca4	410a5313	srai	x6,x20,0x10	 x20:0x80009fc4  x6=0xffff8000
       14145000	      1413	80001ca8	0362c263	blt	x5,x22,80001ccc	  x5:0x00000000 x22:0x00000000
       14155000	      1414	80001cac	00276fb3	or	x31,x14,x2	 x14:0x00000001  x2:0xfffffffd x31=0xfffffffd
       14165000	      1415	80001cb0	417a8333	sub	x6,x21,x23	 x21:0x80009f20 x23:0x00000000  x6=0x80009f20
       14175000	      1416	80001cb4	b9eb8c93	addi	x25,x23,-1122	 x23:0x00000000 x25=0xfffffb9e
       14185000	      1417	80001cb8	013184b3	add	x9,x3,x19	  x3:0x00000655 x19:0x7ffffffe  x9=0x80000653
       14195000	      1418	80001cbc	e3724513	xori	x10,x4,-457	  x4:0x00000000 x10=0xfffffe37
       14205000	      1419	80001cc0	00ec9463	bne	x25,x14,80001cc8	 x25:0xfffffb9e x14:0x00000001
       14215000	      1420	00000000	00000013	addi	x0,x0,0	  x0:0x00000000
       14225000	      1421	80001cc4	00000013	addi	x0,x0,0	  x0:0x00000000
       14235000	      1422	80001cc8	00007863	bgeu	x0,x0,80001cd8	  x0:0x00000000  x0:0x00000000
       14245000	      1423	00000000	00000013	addi	x0,x0,0	  x0:0x00000000
       14255000	      1424	80001cd4	00000013	addi	x0,x0,0	  x0:0x00000000
       14265000	      1425	80001cd8	cc25b393	sltiu	x7,x11,-830	 x11:0xc8400000  x7=0x00000001
       14275000	      1426	80001cdc	016ad193	srli	x3,x21,0x16	 x21:0x80009f20  x3=0x00000200
       14285000	      1427	80001ce0	806aba13	sltiu	x20,x21,-2042	 x21:0x80009f20 x20=0x00000001
       14295000	      1428	80001ce4	8f0060b7	lui	x1,0x8f006	  x1=0x8f006000
       14305000	      1429	80001ce8	68ed4f93	xori	x31,x26,1678	 x26:0x80009e9a x31=0x80009814
       14315000	      1430	80001cec	00ae5a13	srli	x20,x28,0xa	 x28:0x00000000 x20=0x00000000
       14325000	      1431	80001cf0	008c8c33	add	x24,x25,x8	 x25:0xfffffb9e  x8:0x00000001 x24=0xfffffb9f
       14335000	      1432	80001cf4	da1cf993	andi	x19,x25,-607	 x25:0xfffffb9e x19=0xfffff980
       14345000	      1433	80001cf8	0433b193	sltiu	x3,x7,67	  x7:0x00000001  x3=0x00000001
       14355000	      1434	80001cfc	002e9bb3	sll	x23,x29,x2	 x29:0x00000000  x2:0xfffffffd x23=0x00000000
       14365000	      1435	80001d00	3fbe3a37	lui	x20,0x3fbe3	 x20=0x3fbe3000
       14375000	      1436	80001d04	00cde833	or	x16,x27,x12	 x27:0x00000000 x12:0x00000001 x16=0x00000001
       14385000	      1437	80001d08	4b376413	ori	x8,x14,1203	 x14:0x00000001  x8=0x000004b3
       14395000	      1438	80001d0c	62340613	addi	x12,x8,1571	  x8:0x000004b3 x12=0x00000ad6
       14405000	      1439	80001d10	01195c63	bge	x18,x17,80001d28	 x18:0x00000000 x17:0x00000000
       14415000	      1440	00000000	00000013	addi	x0,x0,0	  x0:0x00000000
       14425000	      1441	80001d24	00000013	addi	x0,x0,0	  x0:0x00000000
       14435000	      1442	80001d28	0089a5b3	slt	x11,x19,x8	 x19:0xfffff980  x8:0x000004b3 x11=0x00000001
       14445000	      1443	80001d2c	01701713	slli	x14,x0,0x17	  x0:0x00000000 x14=0x00000000
       14455000	      1444	80001d30	4a670513	addi	x10,x14,1190	 x14:0x00000000 x10=0x000004a6
       14465000	      1445	80001d34	002c8733	add	x14,x25,x2	 x25:0xfffffb9e  x2:0xfffffffd x14=0xfffffb9b
       14475000	      1446	80001d38	b5424093	xori	x1,x4,-1196	  x4:0x00000000  x1=0xfffffb54
       14485000	      1447	80001d3c	00118d33	add	x26,x3,x1	  x3:0x00000001  x1:0xfffffb54 x26=0xfffffb55
       14495000	      1448	80001d40	518b25b7	lui	x11,0x518b2	 x11=0x518b2000
       14505000	      1449	80001d44	ca84b297	auipc	x5,0xca84b	  x5=0x4a84cd40
       14515000	      1450	80001d48	01c40db3	add	x27,x8,x28	  x8:0x000004b3 x28:0x00000000 x27=0x000004b3
       14525000	      1451	80001d4c	01d30f33	add	x30,x6,x29	  x6:0x80009f20 x29:0x00000000 x30=0x80009f20
       14535000	      1452	80001d50	00a01d13	slli	x26,x0,0xa	  x0:0x00000000 x26=0x00000000
       14545000	      1453	80001d54	403d8fb3	sub	x31,x27,x3	 x27:0x000004b3  x3:0x00000001 x31=0x000004b2
       14555000	      1454	80001d58	00000013	addi	x0,x0,0	  x0:0x00000000
       14565000	      1455	80001d5c	0003d9b3	srl	x19,x7,x0	  x7:0x00000001  x0:0x00000000 x19=0x00000001
       14575000	      1456	80001d60	2bbb7313	andi	x6,x22,699	 x22:0x00000000  x6=0x00000000
       14585000	      1457	80001d64	40685fb3	sra	x31,x16,x6	 x16:0x00000001  x6:0x00000000 x31=0x00000001
       14595000	      1458	80001d68	037d8863	beq	x27,x23,80001d98	 x27:0x000004b3 x23:0x00000000
       14605000	      1459	80001d6c	2bfae137	lui	x2,0x2bfae	  x2=0x2bfae000
       14615000	      1460	80001d70	69933013	sltiu	x0,x6,1689	  x6:0x00000000
       14625000	      1461	80001d74	bae94db7	lui	x27,0xbae94	 x27=0xbae94000
       14635000	      1462	80001d78	01efe663	bltu	x31,x30,80001d84	 x31:0x00000001 x30:0x80009f20
       14645000	      1463	00000000	00000013	addi	x0,x0,0	  x0:0x00000000
       14655000	      1464	80001d80	00000013	addi	x0,x0,0	  x0:0x00000000
       14665000	      1465	80001d84	00b78833	add	x16,x15,x11	 x15:0x80009fc4 x11:0x518b2000 x16=0xd18bbfc4
       14675000	      1466	80001d88	d1a17713	andi	x14,x2,-742	  x2:0x2bfae000 x14=0x2bfae000
       14685000	      1467	80001d8c	0a4af313	andi	x6,x21,164	 x21:0x80009f20  x6=0x00000020
       14695000	      1468	80001d90	1fb8ff93	andi	x31,x17,507	 x17:0x00000000 x31=0x00000000
       14705000	      1469	80001d94	00f2d613	srli	x12,x5,0xf	  x5:0x4a84cd40 x12=0x00009509
       14715000	      1470	80001d98	027d0663	beq	x26,x7,80001dc4	 x26:0x00000000  x7:0x00000001
       14725000	      1471	80001d9c	00d75463	bge	x14,x13,80001da4	 x14:0x2bfae000 x13:0x00000000
       14735000	      1472	00000000	00000013	addi	x0,x0,0	  x0:0x00000000
       14745000	      1473	80001da0	00000013	addi	x0,x0,0	  x0:0x00000000
       14755000	      1474	80001da4	9a41b293	sltiu	x5,x3,-1628	  x3:0x00000001  x5=0x00000001
       14765000	      1475	80001da8	41c556b3	sra	x13,x10,x28	 x10:0x000004a6 x28:0x00000000 x13=0x000004a6
       14775000	      1476	80001dac	05cbf863	bgeu	x23,x28,80001dfc	 x23:0x00000000 x28:0x00000000
       14785000	      1477	00000000	00000013	addi	x0,x0,0	  x0:0x00000000
       14795000	      1478	80001df8	00000013	addi	x0,x0,0	  x0:0x00000000
       14805000	      1479	80001dfc	9447f537	lui	x10,0x9447f	 x10=0x9447f000
       14815000	      1480	80001e00	400f5713	srai	x14,x30,0x0	 x30:0x80009f20 x14=0x80009f20
       14825000	      1481	80001e04	41dd08b3	sub	x17,x26,x29	 x26:0x00000000 x29:0x00000000 x17=0x00000000
       14835000	      1482	80001e08	013a5493	srli	x9,x20,0x13	 x20:0x3fbe3000  x9=0x000007f7
       14845000	      1483	80001e0c	05b9c863	blt	x19,x27,80001e5c	 x19:0x00000001 x27:0xbae94000
       14855000	      1484	80001e10	5a7b4913	xori	x18,x22,1447	 x22:0x00000000 x18=0x000005a7
       14865000	      1485	80001e14	4236a813	slti	x16,x13,1059	 x13:0x000004a6 x16=0x00000000
       14875000	      1486	80001e18	017ad133	srl	x2,x21,x23	 x21:0x80009f20 x23:0x00000000  x2=0x80009f20
       14885000	      1487	80001e1c	0005acb3	slt	x25,x11,x0	 x11:0x518b2000  x0:0x00000000 x25=0x00000000
       14895000	      1488	80001e20	01344f33	xor	x30,x8,x19	  x8:0x000004b3 x19:0x00000001 x30=0x000004b2
       14905000	      1489	80001e24	04c70863	beq	x14,x12,80001e74	 x14:0x80009f20 x12:0x00009509
       14915000	      1490	80001e28	01de41b3	xor	x3,x28,x29	 x28:0x00000000 x29:0x00000000  x3=0x00000000
       14925000	      1491	80001e2c	7d5fe313	ori	x6,x31,2005	 x31:0x00000000  x6=0x000007d5
       14935000	      1492	80001e30	00fa2bb3	slt	x23,x20,x15	 x20:0x3fbe3000 x15:0x80009fc4 x23=0x00000000
       14945000	      1493	80001e34	03105c63	bge	x0,x17,80001e6c	  x0:0x00000000 x17:0x00000000
       14955000	      1494	00000000	00000013	addi	x0,x0,0	  x0:0x00000000
       14965000	      1495	80001e68	00000013	addi	x0,x0,0	  x0:0x00000000
       14975000	      1496	80001e6c	00d7dc63	bge	x15,x13,80001e84	 x15:0x80009fc4 x13:0x000004a6
       14985000	      1497	80001e70	0535d263	bge	x11,x19,80001eb4	 x11:0x518b2000 x19:0x00000001
       14995000	      1498	00000000	00000013	addi	x0,x0,0	  x0:0x00000000
       15005000	      1499	80001eb0	00000013	addi	x0,x0,0	  x0:0x00000000
       15015000	      1500	80001eb4	00000013	addi	x0,x0,0	  x0:0x00000000
       15025000	      1501	80001eb8	00f95693	srli	x13,x18,0xf	 x18:0x000005a7 x13=0x00000000
       15035000	      1502	80001ebc	41e955b3	sra	x11,x18,x30	 x18:0x000005a7 x30:0x000004b2 x11=0x00000000
       15045000	      1503	80001ec0	01a962b3	or	x5,x18,x26	 x18:0x000005a7 x26:0x00000000  x5=0x000005a7
       15055000	      1504	80001ec4	01f1b133	sltu	x2,x3,x31	  x3:0x00000000 x31:0x00000000  x2=0x00000000
       15065000	      1505	80001ec8	e1ed2e93	slti	x29,x26,-482	 x26:0x00000000 x29=0x00000000
       15075000	      1506	80001ecc	1311fb93	andi	x23,x3,305	  x3:0x00000000 x23=0x00000000
       15085000	      1507	80001ed0	00a788b3	add	x17,x15,x10	 x15:0x80009fc4 x10:0x9447f000 x17=0x14488fc4
       15095000	      1508	80001ed4	04275063	bge	x14,x2,80001f14	 x14:0x80009f20  x2:0x00000000
       15105000	      1509	80001ed8	5b668613	addi	x12,x13,1462	 x13:0x00000000 x12=0x000005b6
       15115000	      1510	80001edc	03591263	bne	x18,x21,80001f00	 x18:0x000005a7 x21:0x80009f20
       15125000	      1511	00000000	00000013	addi	x0,x0,0	  x0:0x00000000
       15135000	      1512	80001efc	00000013	addi	x0,x0,0	  x0:0x00000000
       15145000	      1513	80001f00	01791193	slli	x3,x18,0x17	 x18:0x000005a7  x3=0xd3800000
       15155000	      1514	80001f04	02d06663	bltu	x0,x13,80001f30	  x0:0x00000000 x13:0x00000000
       15165000	      1515	80001f08	00537c63	bgeu	x6,x5,80001f20	  x6:0x000007d5  x5:0x000005a7
       15175000	      1516	00000000	00000013	addi	x0,x0,0	  x0:0x00000000
       15185000	      1517	80001f1c	00000013	addi	x0,x0,0	  x0:0x00000000
       15195000	      1518	80001f20	7bdb3c13	sltiu	x24,x22,1981	 x22:0x00000000 x24=0x00000001
       15205000	      1519	80001f24	03aa6e63	bltu	x20,x26,80001f60	 x20:0x3fbe3000 x26:0x00000000
       15215000	      1520	80001f28	01a7b9b3	sltu	x19,x15,x26	 x15:0x80009fc4 x26:0x00000000 x19=0x00000000
       15225000	      1521	80001f2c	039e5063	bge	x28,x25,80001f4c	 x28:0x00000000 x25:0x00000000
       15235000	      1522	00000000	00000013	addi	x0,x0,0	  x0:0x00000000
       15245000	      1523	80001f48	00000013	addi	x0,x0,0	  x0:0x00000000
       15255000	      1524	80001f4c	40f25f13	srai	x30,x4,0xf	  x4:0x00000000 x30=0x00000000
       15265000	      1525	80001f50	40bf5d13	srai	x26,x30,0xb	 x30:0x00000000 x26=0x00000000
       15275000	      1526	80001f54	0294e863	bltu	x9,x9,80001f84	  x9:0x000007f7  x9:0x000007f7
       15285000	      1527	80001f58	4048dfb3	sra	x31,x17,x4	 x17:0x14488fc4  x4:0x00000000 x31=0x14488fc4
       15295000	      1528	80001f5c	003a60b3	or	x1,x20,x3	 x20:0x3fbe3000  x3:0xd3800000  x1=0xffbe3000
       15305000	      1529	80001f60	00e91613	slli	x12,x18,0xe	 x18:0x000005a7 x12=0x0169c000
       15315000	      1530	80001f64	00e11293	slli	x5,x2,0xe	  x2:0x00000000  x5=0x00000000
       15325000	      1531	80001f68	0103a633	slt	x12,x7,x16	  x7:0x00000001 x16:0x00000000 x12=0x00000000
       15335000	      1532	80001f6c	00011c63	bne	x2,x0,80001f84	  x2:0x00000000  x0:0x00000000
       15345000	      1533	80001f70	01728fb3	add	x31,x5,x23	  x5:0x00000000 x23:0x00000000 x31=0x00000000
       15355000	      1534	80001f74	00f89813	slli	x16,x17,0xf	 x17:0x14488fc4 x16=0x47e20000
       15365000	      1535	80001f78	01840463	beq	x8,x24,80001f80	  x8:0x000004b3 x24:0x00000001
       15375000	      1536	80001f7c	40bf5433	sra	x8,x30,x11	 x30:0x00000000 x11:0x00000000  x8=0x00000000
       15385000	      1537	80001f80	01fe1833	sll	x16,x28,x31	 x28:0x00000000 x31:0x00000000 x16=0x00000000
       15395000	      1538	80001f84	0078c333	xor	x6,x17,x7	 x17:0x14488fc4  x7:0x00000001  x6=0x14488fc5
       15405000	      1539	80001f88	019d1863	bne	x26,x25,80001f98	 x26:0x00000000 x25:0x00000000
       15415000	      1540	80001f8c	00290c33	add	x24,x18,x2	 x18:0x000005a7  x2:0x00000000 x24=0x000005a7
       15425000	      1541	80001f90	40120133	sub	x2,x4,x1	  x4:0x00000000  x1:0xffbe3000  x2=0x0041d000
       15435000	      1542	80001f94	00000013	addi	x0,x0,0	  x0:0x00000000
       15445000	      1543	80001f98	01a9cbb3	xor	x23,x19,x26	 x19:0x00000000 x26:0x00000000 x23=0x00000000
       15455000	      1544	80001f9c	2ff1e993	ori	x19,x3,767	  x3:0xd3800000 x19=0xd38002ff
       15465000	      1545	80001fa0	91580d13	addi	x26,x16,-1771	 x16:0x00000000 x26=0xfffff915
       15475000	      1546	80001fa4	416885b3	sub	x11,x17,x22	 x17:0x14488fc4 x22:0x00000000 x11=0x14488fc4
       15485000	      1547	80001fa8	b25fc693	xori	x13,x31,-1243	 x31:0x00000000 x13=0xfffffb25
       15495000	      1548	80001fac	013f8f33	add	x30,x31,x19	 x31:0x00000000 x19:0xd38002ff x30=0xd38002ff
       15505000	      1549	80001fb0	006794b3	sll	x9,x15,x6	 x15:0x80009fc4  x6:0x14488fc5  x9=0x0013f880
       15515000	      1550	80001fb4	0178d333	srl	x6,x17,x23	 x17:0x14488fc4 x23:0x00000000  x6=0x14488fc4
       15525000	      1551	80001fb8	0283c263	blt	x7,x8,80001fdc	  x7:0x00000001  x8:0x00000000
       15535000	      1552	80001fbc	03a91263	bne	x18,x26,80001fe0	 x18:0x000005a7 x26:0xfffff915
       15545000	      1553	00000000	00000013	addi	x0,x0,0	  x0:0x00000000
       15555000	      1554	80001fdc	00000013	addi	x0,x0,0	  x0:0x00000000
       15565000	      1555	80001fe0	c6516713	ori	x14,x2,-923	  x2:0x0041d000 x14=0xfffffc65
       15575000	      1556	80001fe4	01780a63	beq	x16,x23,80001ff8	 x16:0x00000000 x23:0x00000000
       15585000	      1557	00000000	00000013	addi	x0,x0,0	  x0:0x00000000
       15595000	      1558	80001ff4	00000013	addi	x0,x0,0	  x0:0x00000000
       15605000	      1559	80001ff8	01ca53b3	srl	x7,x20,x28	 x20:0x3fbe3000 x28:0x00000000  x7=0x3fbe3000
       15615000	      1560	80001ffc	23e83693	sltiu	x13,x16,574	 x16:0x00000000 x13=0x00000001
       15625000	      1561	80002000	c8af0813	addi	x16,x30,-886	 x30:0xd38002ff x16=0xd37fff89
       15635000	      1562	80002004	404e01b3	sub	x3,x28,x4	 x28:0x00000000  x4:0x00000000  x3=0x00000000
       15645000	      1563	80002008	cabb7413	andi	x8,x22,-853	 x22:0x00000000  x8=0x00000000
       15655000	      1564	8000200c	41cd0133	sub	x2,x26,x28	 x26:0xfffff915 x28:0x00000000  x2=0xfffff915
       15665000	      1565	80002010	ac072d37	lui	x26,0xac072	 x26=0xac072000
       15675000	      1566	80002014	03840a63	beq	x8,x24,80002048	  x8:0x00000000 x24:0x000005a7
       15685000	      1567	80002018	009fc863	blt	x31,x9,80002028	 x31:0x00000000  x9:0x0013f880
       15695000	      1568	00000000	00000013	addi	x0,x0,0	  x0:0x00000000
       15705000	      1569	80002024	00000013	addi	x0,x0,0	  x0:0x00000000
       15715000	      1570	80002028	010d06b3	add	x13,x26,x16	 x26:0xac072000 x16:0xd37fff89 x13=0x7f871f89
       15725000	      1571	8000202c	056ad263	bge	x21,x22,80002070	 x21:0x80009f20 x22:0x00000000
       15735000	      1572	80002030	00ecd013	srli	x0,x25,0xe	 x25:0x00000000
       15745000	      1573	80002034	00000013	addi	x0,x0,0	  x0:0x00000000
       15755000	      1574	80002038	01201513	slli	x10,x0,0x12	  x0:0x00000000 x10=0x00000000
       15765000	      1575	8000203c	01489c13	slli	x24,x17,0x14	 x17:0x14488fc4 x24=0xfc400000
       15775000	      1576	80002040	016d5663	bge	x26,x22,8000204c	 x26:0xac072000 x22:0x00000000
       15785000	      1577	80002044	044b7863	bgeu	x22,x4,80002094	 x22:0x00000000  x4:0x00000000
       15795000	      1578	00000000	00000013	addi	x0,x0,0	  x0:0x00000000
       15805000	      1579	80002090	00000013	addi	x0,x0,0	  x0:0x00000000
       15815000	      1580	80002094	0ee48f13	addi	x30,x9,238	  x9:0x0013f880 x30=0x0013f96e
       15825000	      1581	80002098	00ebd393	srli	x7,x23,0xe	 x23:0x00000000  x7=0x00000000
       15835000	      1582	8000209c	6fb7e613	ori	x12,x15,1787	 x15:0x80009fc4 x12=0x80009fff
       15845000	      1583	800020a0	0157e933	or	x18,x15,x21	 x15:0x80009fc4 x21:0x80009f20 x18=0x80009fe4
       15855000	      1584	800020a4	055d6063	bltu	x26,x21,800020e4	 x26:0xac072000 x21:0x80009f20
       15865000	      1585	800020a8	f8ef2493	slti	x9,x30,-114	 x30:0x0013f96e  x9=0x00000000
       15875000	      1586	800020ac	40acd0b3	sra	x1,x25,x10	 x25:0x00000000 x10:0x00000000  x1=0x00000000
       15885000	      1587	800020b0	0061fdb3	and	x27,x3,x6	  x3:0x00000000  x6:0x14488fc4 x27=0x00000000
       15895000	      1588	800020b4	012e6eb3	or	x29,x28,x18	 x28:0x00000000 x18:0x80009fe4 x29=0x80009fe4
       15905000	      1589	800020b8	01aac0b3	xor	x1,x21,x26	 x21:0x80009f20 x26:0xac072000  x1=0x2c07bf20
       15915000	      1590	800020bc	01ff9263	bne	x31,x31,800020c0	 x31:0x00000000 x31:0x00000000
       15925000	      1591	800020c0	01b46fb3	or	x31,x8,x27	  x8:0x00000000 x27:0x00000000 x31=0x00000000
       15935000	      1592	800020c4	00000013	addi	x0,x0,0	  x0:0x00000000
       15945000	      1593	800020c8	e755b593	sltiu	x11,x11,-395	 x11:0x14488fc4 x11=0x00000001
       15955000	      1594	800020cc	015a9013	slli	x0,x21,0x15	 x21:0x80009f20
       15965000	      1595	800020d0	01716d33	or	x26,x2,x23	  x2:0xfffff915 x23:0x00000000 x26=0xfffff915
       15975000	      1596	800020d4	042cb093	sltiu	x1,x25,66	 x25:0x00000000  x1=0x00000001
       15985000	      1597	800020d8	00df44b3	xor	x9,x30,x13	 x30:0x0013f96e x13:0x7f871f89  x9=0x7f94e6e7
       15995000	      1598	800020dc	01c56e63	bltu	x10,x28,800020f8	 x10:0x00000000 x28:0x00000000
       16005000	      1599	800020e0	009bd663	bge	x23,x9,800020ec	 x23:0x00000000  x9:0x7f94e6e7
       16015000	      1600	800020e4	00fedc63	bge	x29,x15,800020fc	 x29:0x80009fe4 x15:0x80009fc4
       16025000	      1601	00000000	00000013	addi	x0,x0,0	  x0:0x00000000
       16035000	      1602	800020f8	00000013	addi	x0,x0,0	  x0:0x00000000
       16045000	      1603	800020fc	00745f33	srl	x30,x8,x7	  x8:0x00000000  x7:0x00000000 x30=0x00000000
       16055000	      1604	80002100	017b5fb3	srl	x31,x22,x23	 x22:0x00000000 x23:0x00000000 x31=0x00000000
       16065000	      1605	80002104	05689863	bne	x17,x22,80002154	 x17:0x14488fc4 x22:0x00000000
       16075000	      1606	00000000	00000013	addi	x0,x0,0	  x0:0x00000000
       16085000	      1607	80002150	00000013	addi	x0,x0,0	  x0:0x00000000
       16095000	      1608	80002154	1cb0e713	ori	x14,x1,459	  x1:0x00000001 x14=0x000001cb
       16105000	      1609	80002158	04269263	bne	x13,x2,8000219c	 x13:0x7f871f89  x2:0xfffff915
       16115000	      1610	00000000	00000013	addi	x0,x0,0	  x0:0x00000000
       16125000	      1611	80002198	00000013	addi	x0,x0,0	  x0:0x00000000
       16135000	      1612	8000219c	01a89c13	slli	x24,x17,0x1a	 x17:0x14488fc4 x24=0x10000000
       16145000	      1613	800021a0	01324433	xor	x8,x4,x19	  x4:0x00000000 x19:0xd38002ff  x8=0xd38002ff
       16155000	      1614	800021a4	2ddc1737	lui	x14,0x2ddc1	 x14=0x2ddc1000
       16165000	      1615	800021a8	41a6dd33	sra	x26,x13,x26	 x13:0x7f871f89 x26:0xfffff915 x26=0x000003fc
       16175000	      1616	800021ac	05e6e863	bltu	x13,x30,800021fc	 x13:0x7f871f89 x30:0x00000000
       16185000	      1617	800021b0	40958833	sub	x16,x11,x9	 x11:0x00000001  x9:0x7f94e6e7 x16=0x806b191a
       16195000	      1618	800021b4	6cd23413	sltiu	x8,x4,1741	  x4:0x00000000  x8=0x00000001
       16205000	      1619	800021b8	00128d33	add	x26,x5,x1	  x5:0x00000000  x1:0x00000001 x26=0x00000001
       16215000	      1620	800021bc	027d8063	beq	x27,x7,800021dc	 x27:0x00000000  x7:0x00000000
       16225000	      1621	00000000	00000013	addi	x0,x0,0	  x0:0x00000000
       16235000	      1622	800021d8	00000013	addi	x0,x0,0	  x0:0x00000000
       16245000	      1623	800021dc	01e31333	sll	x6,x6,x30	  x6:0x14488fc4 x30:0x00000000  x6=0x14488fc4
       16255000	      1624	800021e0	a2735437	lui	x8,0xa2735	  x8=0xa2735000
       16265000	      1625	800021e4	ade9cd13	xori	x26,x19,-1314	 x19:0xd38002ff x26=0x2c7ff821
       16275000	      1626	800021e8	00ae9e33	sll	x28,x29,x10	 x29:0x80009fe4 x10:0x00000000 x28=0x80009fe4
       16285000	      1627	800021ec	4055dcb3	sra	x25,x11,x5	 x11:0x00000001  x5:0x00000000 x25=0x00000001
       16295000	      1628	800021f0	41b785b3	sub	x11,x15,x27	 x15:0x80009fc4 x27:0x00000000 x11=0x80009fc4
       16305000	      1629	800021f4	fdc10c37	lui	x24,0xfdc10	 x24=0xfdc10000
       16315000	      1630	800021f8	01dc0cb3	add	x25,x24,x29	 x24:0xfdc10000 x29:0x80009fe4 x25=0x7dc19fe4
       16325000	      1631	800021fc	d43989b7	lui	x19,0xd4398	 x19=0xd4398000
       16335000	      1632	80002200	0227fa63	bgeu	x15,x2,80002234	 x15:0x80009fc4  x2:0xfffff915
       16345000	      1633	80002204	41dd5233	sra	x4,x26,x29	 x26:0x2c7ff821 x29:0x80009fe4  x4=0x02c7ff82
       16355000	      1634	80002208	400ed333	sra	x6,x29,x0	 x29:0x80009fe4  x0:0x00000000  x6=0x80009fe4
       16365000	      1635	8000220c	40855933	sra	x18,x10,x8	 x10:0x00000000  x8:0xa2735000 x18=0x00000000
       16375000	      1636	80002210	00de5db3	srl	x27,x28,x13	 x28:0x80009fe4 x13:0x7f871f89 x27=0x0040004f
       16385000	      1637	80002214	02cbc663	blt	x23,x12,80002240	 x23:0x00000000 x12:0x80009fff
       16395000	      1638	80002218	002109b3	add	x19,x2,x2	  x2:0xfffff915  x2:0xfffff915 x19=0xfffff22a
       16405000	      1639	8000221c	0061ec63	bltu	x3,x6,80002234	  x3:0x00000000  x6:0x80009fe4
       16415000	      1640	00000000	00000013	addi	x0,x0,0	  x0:0x00000000
       16425000	      1641	80002230	00000013	addi	x0,x0,0	  x0:0x00000000
       16435000	      1642	80002234	98cd4693	xori	x13,x26,-1652	 x26:0x2c7ff821 x13=0xd38001ad
       16445000	      1643	80002238	00e76863	bltu	x14,x14,80002248	 x14:0x2ddc1000 x14:0x2ddc1000
       16455000	      1644	8000223c	01f8f5b3	and	x11,x17,x31	 x17:0x14488fc4 x31:0x00000000 x11=0x00000000
       16465000	      1645	80002240	007f3a33	sltu	x20,x30,x7	 x30:0x00000000  x7:0x00000000 x20=0x00000000
       16475000	      1646	80002244	40658433	sub	x8,x11,x6	 x11:0x00000000  x6:0x80009fe4  x8=0x7fff601c
       16485000	      1647	80002248	215fec93	ori	x25,x31,533	 x31:0x00000000 x25=0x00000215
       16495000	      1648	8000224c	41cd54b3	sra	x9,x26,x28	 x26:0x2c7ff821 x28:0x80009fe4  x9=0x02c7ff82
       16505000	      1649	80002250	0067a2b3	slt	x5,x15,x6	 x15:0x80009fc4  x6:0x80009fe4  x5=0x00000001
       16515000	      1650	80002254	41ed53b3	sra	x7,x26,x30	 x26:0x2c7ff821 x30:0x00000000  x7=0x2c7ff821
       16525000	      1651	80002258	028a8263	beq	x21,x8,8000227c	 x21:0x80009f20  x8:0x7fff601c
       16535000	      1652	8000225c	014582b3	add	x5,x11,x20	 x11:0x00000000 x20:0x00000000  x5=0x00000000
       16545000	      1653	80002260	014dc0b3	xor	x1,x27,x20	 x27:0x0040004f x20:0x00000000  x1=0x0040004f
       16555000	      1654	80002264	009ea5b3	slt	x11,x29,x9	 x29:0x80009fe4  x9:0x02c7ff82 x11=0x00000001
       16565000	      1655	80002268	4070d993	srai	x19,x1,0x7	  x1:0x0040004f x19=0x00008000
       16575000	      1656	8000226c	4be74f13	xori	x30,x14,1214	 x14:0x2ddc1000 x30=0x2ddc14be
       16585000	      1657	80002270	00f1b5b3	sltu	x11,x3,x15	  x3:0x00000000 x15:0x80009fc4 x11=0x00000001
       16595000	      1658	80002274	01bf5663	bge	x30,x27,80002280	 x30:0x2ddc14be x27:0x0040004f
       16605000	      1659	00000000	00000013	addi	x0,x0,0	  x0:0x00000000
       16615000	      1660	8000227c	00000013	addi	x0,x0,0	  x0:0x00000000
       16625000	      1661	80002280	1ee06113	ori	x2,x0,494	  x0:0x00000000  x2=0x000001ee
       16635000	      1662	80002284	01c56f33	or	x30,x10,x28	 x10:0x00000000 x28:0x80009fe4 x30=0x80009fe4
       16645000	      1663	80002288	443f4d17	auipc	x26,0x443f4	 x26=0xc43f6284
       16655000	      1664	8000228c	004aab83	lw	x23,4(x21)	 x21:0x80009f20 x23=0x800027c4 PA:0x80009f24
       16665000	      1665	80002290	012525b3	slt	x11,x10,x18	 x10:0x00000000 x18:0x00000000 x11=0x00000000
       16675000	      1666	80002294	00656cb3	or	x25,x10,x6	 x10:0x00000000  x6:0x80009fe4 x25=0x80009fe4
       16685000	      1667	80002298	008a8a93	addi	x21,x21,8	 x21:0x80009f20 x21=0x80009f28
       16695000	      1668	8000229c	00000013	addi	x0,x0,0	  x0:0x00000000
       16705000	      1669	800022a0	1e560497	auipc	x9,0x1e560	  x9=0x9e56229c
       16715000	      1670	800022a4	c12d4093	xori	x1,x26,-1006	 x26:0xc43f6284  x1=0x3bc09e96
       16725000	      1671	800022a8	00354433	xor	x8,x10,x3	 x10:0x00000000  x3:0x00000000  x8=0x00000000
       16735000	      1672	800022ac	001b8b93	addi	x23,x23,1	 x23:0x800027c4 x23=0x800027c5
       16745000	      1673	800022b0	000b8be7	jalr	x23,x23,0	 x23:0x800027c5 x23=0x800022b0
       16755000	      1674	00000000	00000013	addi	x0,x0,0	  x0:0x00000000
       16765000	      1675	800027c4	00000013	addi	x0,x0,0	  x0:0x00000000
       16775000	      1676	800027c8	01c5e9b3	or	x19,x11,x28	 x11:0x00000000 x28:0x80009fe4 x19=0x80009fe4
       16785000	      1677	800027cc	00bc4cb3	xor	x25,x24,x11	 x24:0xfdc10000 x11:0x00000000 x25=0xfdc10000
       16795000	      1678	800027d0	df30f213	andi	x4,x1,-525	  x1:0x3bc09e96  x4=0x3bc09c92
       16805000	      1679	800027d4	03c18463	beq	x3,x28,800027fc	  x3:0x00000000 x28:0x80009fe4
       16815000	      1680	800027d8	012591b3	sll	x3,x11,x18	 x11:0x00000000 x18:0x00000000  x3=0x00000000
       16825000	      1681	800027dc	d1c98c13	addi	x24,x19,-740	 x19:0x80009fe4 x24=0x80009d00
       16835000	      1682	800027e0	00a563b3	or	x7,x10,x10	 x10:0x00000000 x10:0x00000000  x7=0x00000000
       16845000	      1683	800027e4	402bd033	sra	x0,x23,x2	 x23:0x800022b0  x2:0x000001ee
       16855000	      1684	800027e8	002f7433	and	x8,x30,x2	 x30:0x80009fe4  x2:0x000001ee  x8=0x000001e4
       16865000	      1685	800027ec	00701d13	slli	x26,x0,0x7	  x0:0x00000000 x26=0x00000000
       16875000	      1686	800027f0	001c6533	or	x10,x24,x1	 x24:0x80009d00  x1:0x3bc09e96 x10=0xbbc09f96
       16885000	      1687	800027f4	0019f3b3	and	x7,x19,x1	 x19:0x80009fe4  x1:0x3bc09e96  x7=0x00009e84
       16895000	      1688	800027f8	011861b3	or	x3,x16,x17	 x16:0x806b191a x17:0x14488fc4  x3=0x946b9fde
       16905000	      1689	800027fc	01f28133	add	x2,x5,x31	  x5:0x00000000 x31:0x00000000  x2=0x00000000
       16915000	      1690	80002800	0359de63	bge	x19,x21,8000283c	 x19:0x80009fe4 x21:0x80009f28
       16925000	      1691	00000000	00000013	addi	x0,x0,0	  x0:0x00000000
       16935000	      1692	80002838	00000013	addi	x0,x0,0	  x0:0x00000000
       16945000	      1693	8000283c	00000013	addi	x0,x0,0	  x0:0x00000000
       16955000	      1694	80002840	02b3de63	bge	x7,x11,8000287c	  x7:0x00009e84 x11:0x00000000
       16965000	      1695	00000000	00000013	addi	x0,x0,0	  x0:0x00000000
       16975000	      1696	80002878	00000013	addi	x0,x0,0	  x0:0x00000000
       16985000	      1697	8000287c	0199d663	bge	x19,x25,80002888	 x19:0x80009fe4 x25:0xfdc10000
       16995000	      1698	80002880	12b33493	sltiu	x9,x6,299	  x6:0x80009fe4  x9=0x00000000
       17005000	      1699	80002884	014d9bb3	sll	x23,x27,x20	 x27:0x0040004f x20:0x00000000 x23=0x0040004f
       17015000	      1700	80002888	004fcc33	xor	x24,x31,x4	 x31:0x00000000  x4:0x3bc09c92 x24=0x3bc09c92
       17025000	      1701	8000288c	4134de13	srai	x28,x9,0x13	  x9:0x00000000 x28=0x00000000
       17035000	      1702	80002890	9d37a113	slti	x2,x15,-1581	 x15:0x80009fc4  x2=0x00000001
       17045000	      1703	80002894	7eff7b93	andi	x23,x30,2031	 x30:0x80009fe4 x23=0x000007e4
       17055000	      1704	80002898	01d63933	sltu	x18,x12,x29	 x12:0x80009fff x29:0x80009fe4 x18=0x00000000
       17065000	      1705	8000289c	020f1663	bne	x30,x0,800028c8	 x30:0x80009fe4  x0:0x00000000
       17075000	      1706	00000000	00000013	addi	x0,x0,0	  x0:0x00000000
       17085000	      1707	800028c4	00000013	addi	x0,x0,0	  x0:0x00000000
       17095000	      1708	800028c8	00dc34b3	sltu	x9,x24,x13	 x24:0x3bc09c92 x13:0xd38001ad  x9=0x00000001
       17105000	      1709	800028cc	01486eb3	or	x29,x16,x20	 x16:0x806b191a x20:0x00000000 x29=0x806b191a
       17115000	      1710	800028d0	00d8a633	slt	x12,x17,x13	 x17:0x14488fc4 x13:0xd38001ad x12=0x00000000
       17125000	      1711	800028d4	00561463	bne	x12,x5,800028dc	 x12:0x00000000  x5:0x00000000
       17135000	      1712	800028d8	0043a8b3	slt	x17,x7,x4	  x7:0x00009e84  x4:0x3bc09c92 x17=0x00000001
       17145000	      1713	800028dc	41225893	srai	x17,x4,0x12	  x4:0x3bc09c92 x17=0x00000ef0
       17155000	      1714	800028e0	018bd533	srl	x10,x23,x24	 x23:0x000007e4 x24:0x3bc09c92 x10=0x00000000
       17165000	      1715	800028e4	01f6ef33	or	x30,x13,x31	 x13:0xd38001ad x31:0x00000000 x30=0xd38001ad
       17175000	      1716	800028e8	039a4063	blt	x20,x25,80002908	 x20:0x00000000 x25:0xfdc10000
       17185000	      1717	800028ec	19162513	slti	x10,x12,401	 x12:0x00000000 x10=0x00000001
       17195000	      1718	800028f0	00c9a233	slt	x4,x19,x12	 x19:0x80009fe4 x12:0x00000000  x4=0x00000001
       17205000	      1719	800028f4	039de863	bltu	x27,x25,80002924	 x27:0x0040004f x25:0xfdc10000
       17215000	      1720	00000000	00000013	addi	x0,x0,0	  x0:0x00000000
       17225000	      1721	80002920	00000013	addi	x0,x0,0	  x0:0x00000000
       17235000	      1722	80002924	015be833	or	x16,x23,x21	 x23:0x000007e4 x21:0x80009f28 x16=0x80009fec
       17245000	      1723	80002928	e63b0313	addi	x6,x22,-413	 x22:0x00000000  x6=0xfffffe63
       17255000	      1724	8000292c	01d01863	bne	x0,x29,8000293c	  x0:0x00000000 x29:0x806b191a
       17265000	      1725	00000000	00000013	addi	x0,x0,0	  x0:0x00000000
       17275000	      1726	80002938	00000013	addi	x0,x0,0	  x0:0x00000000
       17285000	      1727	8000293c	1691f893	andi	x17,x3,361	  x3:0x946b9fde x17=0x00000148
       17295000	      1728	80002940	0003f933	and	x18,x7,x0	  x7:0x00009e84  x0:0x00000000 x18=0x00000000
       17305000	      1729	80002944	01e191b3	sll	x3,x3,x30	  x3:0x946b9fde x30:0xd38001ad  x3=0x73fbc000
       17315000	      1730	80002948	6ce1e693	ori	x13,x3,1742	  x3:0x73fbc000 x13=0x73fbc6ce
       17325000	      1731	8000294c	5684f893	andi	x17,x9,1384	  x9:0x00000001 x17=0x00000000
       17335000	      1732	80002950	00000013	addi	x0,x0,0	  x0:0x00000000
       17345000	      1733	80002954	037ba813	slti	x16,x23,55	 x23:0x000007e4 x16=0x00000000
       17355000	      1734	80002958	00456a63	bltu	x10,x4,8000296c	 x10:0x00000001  x4:0x00000001
       17365000	      1735	8000295c	f1aca993	slti	x19,x25,-230	 x25:0xfdc10000 x19=0x00000001
       17375000	      1736	80002960	8e714093	xori	x1,x2,-1817	  x2:0x00000001  x1=0xfffff8e6
       17385000	      1737	80002964	a27e3913	sltiu	x18,x28,-1497	 x28:0x00000000 x18=0x00000001
       17395000	      1738	80002968	00a9fe33	and	x28,x19,x10	 x19:0x00000001 x10:0x00000001 x28=0x00000001
       17405000	      1739	8000296c	00ed2233	slt	x4,x26,x14	 x26:0x00000000 x14:0x2ddc1000  x4=0x00000001
       17415000	      1740	80002970	c5f21c17	auipc	x24,0xc5f21	 x24=0x45f2396c
       17425000	      1741	80002974	002c9193	slli	x3,x25,0x2	 x25:0xfdc10000  x3=0xf7040000
       17435000	      1742	80002978	03449663	bne	x9,x20,800029a4	  x9:0x00000001 x20:0x00000000
       17445000	      1743	00000000	00000013	addi	x0,x0,0	  x0:0x00000000
       17455000	      1744	800029a0	00000013	addi	x0,x0,0	  x0:0x00000000
       17465000	      1745	800029a4	cb080113	addi	x2,x16,-848	 x16:0x00000000  x2=0xfffffcb0
       17475000	      1746	800029a8	012f0f33	add	x30,x30,x18	 x30:0xd38001ad x18:0x00000001 x30=0xd38001ae
       17485000	      1747	800029ac	01319e93	slli	x29,x3,0x13	  x3:0xf7040000 x29=0x00000000
       17495000	      1748	800029b0	e6737f93	andi	x31,x6,-409	  x6:0xfffffe63 x31=0xfffffe63
       17505000	      1749	800029b4	00019c33	sll	x24,x3,x0	  x3:0xf7040000  x0:0x00000000 x24=0xf7040000
       17515000	      1750	800029b8	05b1f863	bgeu	x3,x27,80002a08	  x3:0xf7040000 x27:0x0040004f
       17525000	      1751	00000000	00000013	addi	x0,x0,0	  x0:0x00000000
       17535000	      1752	80002a04	00000013	addi	x0,x0,0	  x0:0x00000000
       17545000	      1753	80002a08	fd1fc693	xori	x13,x31,-47	 x31:0xfffffe63 x13=0x000001b2
       17555000	      1754	80002a0c	00000013	addi	x0,x0,0	  x0:0x00000000
       17565000	      1755	80002a10	00ee9cb3	sll	x25,x29,x14	 x29:0x00000000 x14:0x2ddc1000 x25=0x00000000
       17575000	      1756	80002a14	2f45bd93	sltiu	x27,x11,756	 x11:0x00000000 x27=0x00000001
       17585000	      1757	80002a18	011f1663	bne	x30,x17,80002a24	 x30:0xd38001ae x17:0x00000000
       17595000	      1758	00000000	00000013	addi	x0,x0,0	  x0:0x00000000
       17605000	      1759	80002a20	00000013	addi	x0,x0,0	  x0:0x00000000
       17615000	      1760	80002a24	0507c863	blt	x15,x16,80002a74	 x15:0x80009fc4 x16:0x00000000
       17625000	      1761	00000000	00000013	addi	x0,x0,0	  x0:0x00000000
       17635000	      1762	80002a70	00000013	addi	x0,x0,0	  x0:0x00000000
       17645000	      1763	80002a74	00aa1c13	slli	x24,x20,0xa	 x20:0x00000000 x24=0x00000000
       17655000	      1764	80002a78	02624663	blt	x4,x6,80002aa4	  x4:0x00000001  x6:0xfffffe63
       17665000	      1765	80002a7c	ed8ef937	lui	x18,0xed8ef	 x18=0xed8ef000
       17675000	      1766	80002a80	0270d663	bge	x1,x7,80002aac	  x1:0xfffff8e6  x7:0x00009e84
       17685000	      1767	80002a84	0066d113	srli	x2,x13,0x6	 x13:0x000001b2  x2=0x00000006
       17695000	      1768	80002a88	02e94063	blt	x18,x14,80002aa8	 x18:0xed8ef000 x14:0x2ddc1000
       17705000	      1769	00000000	00000013	addi	x0,x0,0	  x0:0x00000000
       17715000	      1770	80002aa4	00000013	addi	x0,x0,0	  x0:0x00000000
       17725000	      1771	80002aa8	406784b3	sub	x9,x15,x6	 x15:0x80009fc4  x6:0xfffffe63  x9=0x8000a161
       17735000	      1772	80002aac	010f76b3	and	x13,x30,x16	 x30:0xd38001ae x16:0x00000000 x13=0x00000000
       17745000	      1773	80002ab0	e6927293	andi	x5,x4,-407	  x4:0x00000001  x5=0x00000001
       17755000	      1774	80002ab4	01b79413	slli	x8,x15,0x1b	 x15:0x80009fc4  x8=0x20000000
       17765000	      1775	80002ab8	453faeb7	lui	x29,0x453fa	 x29=0x453fa000
       17775000	      1776	80002abc	41d253b3	sra	x7,x4,x29	  x4:0x00000001 x29:0x453fa000  x7=0x00000001
       17785000	      1777	80002ac0	0038c533	xor	x10,x17,x3	 x17:0x00000000  x3:0xf7040000 x10=0xf7040000
       17795000	      1778	80002ac4	00000013	addi	x0,x0,0	  x0:0x00000000
       17805000	      1779	80002ac8	00fc5bb3	srl	x23,x24,x15	 x24:0x00000000 x15:0x80009fc4 x23=0x00000000
       17815000	      1780	80002acc	00000013	addi	x0,x0,0	  x0:0x00000000
       17825000	      1781	80002ad0	02d06263	bltu	x0,x13,80002af4	  x0:0x00000000 x13:0x00000000
       17835000	      1782	80002ad4	012a7f33	and	x30,x20,x18	 x20:0x00000000 x18:0xed8ef000 x30=0x00000000
       17845000	      1783	80002ad8	063db493	sltiu	x9,x27,99	 x27:0x00000001  x9=0x00000001
       17855000	      1784	80002adc	013e0663	beq	x28,x19,80002ae8	 x28:0x00000001 x19:0x00000001
       17865000	      1785	00000000	00000013	addi	x0,x0,0	  x0:0x00000000
       17875000	      1786	80002ae4	00000013	addi	x0,x0,0	  x0:0x00000000
       17885000	      1787	80002ae8	9018c313	xori	x6,x17,-1791	 x17:0x00000000  x6=0xfffff901
       17895000	      1788	80002aec	02ebfa63	bgeu	x23,x14,80002b20	 x23:0x00000000 x14:0x2ddc1000
       17905000	      1789	80002af0	02011863	bne	x2,x0,80002b20	  x2:0x00000006  x0:0x00000000
       17915000	      1790	00000000	00000013	addi	x0,x0,0	  x0:0x00000000
       17925000	      1791	80002b1c	00000013	addi	x0,x0,0	  x0:0x00000000
       17935000	      1792	80002b20	00b5edb3	or	x27,x11,x11	 x11:0x00000000 x11:0x00000000 x27=0x00000000
       17945000	      1793	80002b24	011ad113	srli	x2,x21,0x11	 x21:0x80009f28  x2=0x00004000
       17955000	      1794	80002b28	00000013	addi	x0,x0,0	  x0:0x00000000
       17965000	      1795	80002b2c	02a87e63	bgeu	x16,x10,80002b68	 x16:0x00000000 x10:0xf7040000
       17975000	      1796	80002b30	00199713	slli	x14,x19,0x1	 x19:0x00000001 x14=0x00000002
       17985000	      1797	80002b34	01f83733	sltu	x14,x16,x31	 x16:0x00000000 x31:0xfffffe63 x14=0x00000001
       17995000	      1798	80002b38	020e8263	beq	x29,x0,80002b5c	 x29:0x453fa000  x0:0x00000000
       18005000	      1799	80002b3c	0066d093	srli	x1,x13,0x6	 x13:0x00000000  x1=0x00000000
       18015000	      1800	80002b40	00f36d33	or	x26,x6,x15	  x6:0xfffff901 x15:0x80009fc4 x26=0xffffffc5
       18025000	      1801	80002b44	402f5c93	srai	x25,x30,0x2	 x30:0x00000000 x25=0x00000000
       18035000	      1802	80002b48	eca7f493	andi	x9,x15,-310	 x15:0x80009fc4  x9=0x80009ec0
       18045000	      1803	80002b4c	00ebacb3	slt	x25,x23,x14	 x23:0x00000000 x14:0x00000001 x25=0x00000001
       18055000	      1804	80002b50	01c90c33	add	x24,x18,x28	 x18:0xed8ef000 x28:0x00000001 x24=0xed8ef001
       18065000	      1805	80002b54	00f01a13	slli	x20,x0,0xf	  x0:0x00000000 x20=0x00000000
       18075000	      1806	80002b58	0178ffb3	and	x31,x17,x23	 x17:0x00000000 x23:0x00000000 x31=0x00000000
       18085000	      1807	80002b5c	93f05fb7	lui	x31,0x93f05	 x31=0x93f05000
       18095000	      1808	80002b60	01ea8133	add	x2,x21,x30	 x21:0x80009f28 x30:0x00000000  x2=0x80009f28
       18105000	      1809	80002b64	02a72893	slti	x17,x14,42	 x14:0x00000001 x17=0x00000001
       18115000	      1810	80002b68	05aa8863	beq	x21,x26,80002bb8	 x21:0x80009f28 x26:0xffffffc5
       18125000	      1811	80002b6c	002e7863	bgeu	x28,x2,80002b7c	 x28:0x00000001  x2:0x80009f28
       18135000	      1812	80002b70	014e5e13	srli	x28,x28,0x14	 x28:0x00000001 x28=0x00000000
       18145000	      1813	80002b74	00a25fb3	srl	x31,x4,x10	  x4:0x00000001 x10:0xf7040000 x31=0x00000001
       18155000	      1814	80002b78	43954613	xori	x12,x10,1081	 x10:0xf7040000 x12=0xf7040439
       18165000	      1815	80002b7c	02ebc663	blt	x23,x14,80002ba8	 x23:0x00000000 x14:0x00000001
       18175000	      1816	00000000	00000013	addi	x0,x0,0	  x0:0x00000000
       18185000	      1817	80002ba4	00000013	addi	x0,x0,0	  x0:0x00000000
       18195000	      1818	80002ba8	0198f2b3	and	x5,x17,x25	 x17:0x00000001 x25:0x00000001  x5=0x00000001
       18205000	      1819	80002bac	02a31263	bne	x6,x10,80002bd0	  x6:0xfffff901 x10:0xf7040000
       18215000	      1820	00000000	00000013	addi	x0,x0,0	  x0:0x00000000
       18225000	      1821	80002bcc	00000013	addi	x0,x0,0	  x0:0x00000000
       18235000	      1822	80002bd0	530b7493	andi	x9,x22,1328	 x22:0x00000000  x9=0x00000000
       18245000	      1823	80002bd4	bf41f413	andi	x8,x3,-1036	  x3:0xf7040000  x8=0xf7040000
       18255000	      1824	80002bd8	7ef9c693	xori	x13,x19,2031	 x19:0x00000001 x13=0x000007ee
       18265000	      1825	80002bdc	1fe0ed93	ori	x27,x1,510	  x1:0x00000000 x27=0x000001fe
       18275000	      1826	80002be0	e72f4993	xori	x19,x30,-398	 x30:0x00000000 x19=0xfffffe72
       18285000	      1827	80002be4	5e36c193	xori	x3,x13,1507	 x13:0x000007ee  x3=0x0000020d
       18295000	      1828	80002be8	00f2fc33	and	x24,x5,x15	  x5:0x00000001 x15:0x80009fc4 x24=0x00000000
       18305000	      1829	80002bec	007a8233	add	x4,x21,x7	 x21:0x80009f28  x7:0x00000001  x4=0x80009f29
       18315000	      1830	80002bf0	a06c9597	auipc	x11,0xa06c9	 x11=0x206cbbec
       18325000	      1831	80002bf4	00000013	addi	x0,x0,0	  x0:0x00000000
       18335000	      1832	80002bf8	05e24463	blt	x4,x30,80002c40	  x4:0x80009f29 x30:0x00000000
       18345000	      1833	00000000	00000013	addi	x0,x0,0	  x0:0x00000000
       18355000	      1834	80002c3c	00000013	addi	x0,x0,0	  x0:0x00000000
       18365000	      1835	80002c40	00f04933	xor	x18,x0,x15	  x0:0x00000000 x15:0x80009fc4 x18=0x80009fc4
       18375000	      1836	80002c44	00e37cb3	and	x25,x6,x14	  x6:0xfffff901 x14:0x00000001 x25=0x00000001
       18385000	      1837	80002c48	b100bc13	sltiu	x24,x1,-1264	  x1:0x00000000 x24=0x00000001
       18395000	      1838	80002c4c	91378817	auipc	x16,0x91378	 x16=0x1137ac48
       18405000	      1839	80002c50	00000013	addi	x0,x0,0	  x0:0x00000000
       18415000	      1840	80002c54	007c3e33	sltu	x28,x24,x7	 x24:0x00000001  x7:0x00000001 x28=0x00000000
       18425000	      1841	80002c58	03520663	beq	x4,x21,80002c84	  x4:0x80009f29 x21:0x80009f28
       18435000	      1842	80002c5c	40105113	srai	x2,x0,0x1	  x0:0x00000000  x2=0x00000000
       18445000	      1843	80002c60	016aa333	slt	x6,x21,x22	 x21:0x80009f28 x22:0x00000000  x6=0x00000001
       18455000	      1844	80002c64	41985993	srai	x19,x16,0x19	 x16:0x1137ac48 x19=0x00000008
       18465000	      1845	80002c68	01b31863	bne	x6,x27,80002c78	  x6:0x00000001 x27:0x000001fe
       18475000	      1846	00000000	00000013	addi	x0,x0,0	  x0:0x00000000
       18485000	      1847	80002c74	00000013	addi	x0,x0,0	  x0:0x00000000
       18495000	      1848	80002c78	40d4d093	srai	x1,x9,0xd	  x9:0x00000000  x1=0x00000000
       18505000	      1849	80002c7c	01969d13	slli	x26,x13,0x19	 x13:0x000007ee x26=0xdc000000
       18515000	      1850	80002c80	409e8433	sub	x8,x29,x9	 x29:0x453fa000  x9:0x00000000  x8=0x453fa000
       18525000	      1851	80002c84	25c14813	xori	x16,x2,604	  x2:0x00000000 x16=0x0000025c
       18535000	      1852	80002c88	00603a33	sltu	x20,x0,x6	  x0:0x00000000  x6:0x00000001 x20=0x00000001
       18545000	      1853	80002c8c	01d8b0b3	sltu	x1,x17,x29	 x17:0x00000001 x29:0x453fa000  x1=0x00000001
       18555000	      1854	80002c90	0476c663	blt	x13,x7,80002cdc	 x13:0x000007ee  x7:0x00000001
       18565000	      1855	80002c94	014d9393	slli	x7,x27,0x14	 x27:0x000001fe  x7=0x1fe00000
       18575000	      1856	80002c98	00beec33	or	x24,x29,x11	 x29:0x453fa000 x11:0x206cbbec x24=0x657fbbec
       18585000	      1857	80002c9c	008496b3	sll	x13,x9,x8	  x9:0x00000000  x8:0x453fa000 x13=0x00000000
       18595000	      1858	80002ca0	006752b3	srl	x5,x14,x6	 x14:0x00000001  x6:0x00000001  x5=0x00000000
       18605000	      1859	80002ca4	41540eb3	sub	x29,x8,x21	  x8:0x453fa000 x21:0x80009f28 x29=0xc53f00d8
       18615000	      1860	80002ca8	01a50fb3	add	x31,x10,x26	 x10:0xf7040000 x26:0xdc000000 x31=0xd3040000
       18625000	      1861	80002cac	40810233	sub	x4,x2,x8	  x2:0x00000000  x8:0x453fa000  x4=0xbac06000
       18635000	      1862	80002cb0	0080d863	bge	x1,x8,80002cc0	  x1:0x00000001  x8:0x453fa000
       18645000	      1863	80002cb4	00000013	addi	x0,x0,0	  x0:0x00000000
       18655000	      1864	80002cb8	0003b2b3	sltu	x5,x7,x0	  x7:0x1fe00000  x0:0x00000000  x5=0x00000000
       18665000	      1865	80002cbc	00000013	addi	x0,x0,0	  x0:0x00000000
       18675000	      1866	80002cc0	01ef02b3	add	x5,x30,x30	 x30:0x00000000 x30:0x00000000  x5=0x00000000
       18685000	      1867	80002cc4	03a66d37	lui	x26,0x3a66	 x26=0x03a66000
       18695000	      1868	80002cc8	009f84b3	add	x9,x31,x9	 x31:0xd3040000  x9:0x00000000  x9=0xd3040000
       18705000	      1869	80002ccc	00b77c63	bgeu	x14,x11,80002ce4	 x14:0x00000001 x11:0x206cbbec
       18715000	      1870	80002cd0	0182a6b3	slt	x13,x5,x24	  x5:0x00000000 x24:0x657fbbec x13=0x00000001
       18725000	      1871	80002cd4	f3ea0d17	auipc	x26,0xf3ea0	 x26=0x73ea2cd0
       18735000	      1872	80002cd8	0b06ba13	sltiu	x20,x13,176	 x13:0x00000001 x20=0x00000001
       18745000	      1873	80002cdc	01ee9993	slli	x19,x29,0x1e	 x29:0xc53f00d8 x19=0x00000000
       18755000	      1874	80002ce0	00cdb9b3	sltu	x19,x27,x12	 x27:0x000001fe x12:0xf7040439 x19=0x00000001
       18765000	      1875	80002ce4	a39b3813	sltiu	x16,x22,-1479	 x22:0x00000000 x16=0x00000001
       18775000	      1876	80002ce8	00bec233	xor	x4,x29,x11	 x29:0xc53f00d8 x11:0x206cbbec  x4=0xe553bb34
       18785000	      1877	80002cec	01a94663	blt	x18,x26,80002cf8	 x18:0x80009fc4 x26:0x73ea2cd0
       18795000	      1878	00000000	00000013	addi	x0,x0,0	  x0:0x00000000
       18805000	      1879	80002cf4	00000013	addi	x0,x0,0	  x0:0x00000000
       18815000	      1880	80002cf8	007589b3	add	x19,x11,x7	 x11:0x206cbbec  x7:0x1fe00000 x19=0x404cbbec
       18825000	      1881	80002cfc	01c5a6b3	slt	x13,x11,x28	 x11:0x206cbbec x28:0x00000000 x13=0x00000000
       18835000	      1882	80002d00	71adb513	sltiu	x10,x27,1818	 x27:0x000001fe x10=0x00000001
       18845000	      1883	80002d04	004aab83	lw	x23,4(x21)	 x21:0x80009f28 x23=0x80002d6c PA:0x80009f2c
       18855000	      1884	80002d08	00e6d733	srl	x14,x13,x14	 x13:0x00000000 x14:0x00000001 x14=0x00000000
       18865000	      1885	80002d0c	01dfdf13	srli	x30,x31,0x1d	 x31:0xd3040000 x30=0x00000006
       18875000	      1886	80002d10	8e30b893	sltiu	x17,x1,-1821	  x1:0x00000001 x17=0x00000001
       18885000	      1887	80002d14	013e9513	slli	x10,x29,0x13	 x29:0xc53f00d8 x10=0x06c00000
       18895000	      1888	80002d18	024a8a93	addi	x21,x21,36	 x21:0x80009f28 x21=0x80009f4c
       18905000	      1889	80002d1c	5a997cb7	lui	x25,0x5a997	 x25=0x5a997000
       18915000	      1890	80002d20	0152f0b3	and	x1,x5,x21	  x5:0x00000000 x21:0x80009f4c  x1=0x00000000
       18925000	      1891	80002d24	000b8513	addi	x10,x23,0	 x23:0x80002d6c x10=0x80002d6c
       18935000	      1892	80002d28	00050567	jalr	x10,x10,0	 x10:0x80002d6c x10=0x80002d28
       18945000	      1893	00000000	00000013	addi	x0,x0,0	  x0:0x00000000
       18955000	      1894	80002d6c	00000013	addi	x0,x0,0	  x0:0x00000000
       18965000	      1895	80002d70	00b35613	srli	x12,x6,0xb	  x6:0x00000001 x12=0x00000000
       18975000	      1896	80002d74	66e3dbb7	lui	x23,0x66e3d	 x23=0x66e3d000
       18985000	      1897	80002d78	0271c063	blt	x3,x7,80002d98	  x3:0x0000020d  x7:0x1fe00000
       18995000	      1898	00000000	00000013	addi	x0,x0,0	  x0:0x00000000
       19005000	      1899	80002d94	00000013	addi	x0,x0,0	  x0:0x00000000
       19015000	      1900	80002d98	c61fdbef	jal	x23,80002d98	 x23=0x80002d98
       19025000	      1901	00000000	00000013	addi	x0,x0,0	  x0:0x00000000
       19035000	      1902	800009f4	00000013	addi	x0,x0,0	  x0:0x00000000
       19045000	      1903	800009f8	f29a6893	ori	x17,x20,-215	 x20:0x00000001 x17=0xffffff29
       19055000	      1904	800009fc	01396663	bltu	x18,x19,80000a08	 x18:0x80009fc4 x19:0x404cbbec
       19065000	      1905	80000a00	01d90733	add	x14,x18,x29	 x18:0x80009fc4 x29:0xc53f00d8 x14=0x453fa09c
       19075000	      1906	80000a04	01de09b3	add	x19,x28,x29	 x28:0x00000000 x29:0xc53f00d8 x19=0xc53f00d8
       19085000	      1907	80000a08	fdca8a93	addi	x21,x21,-36	 x21:0x80009f4c x21=0x80009f28
       19095000	      1908	80000a0c	017aa223	sw	x23,4(x21)	 x21:0x80009f28 x23:0x80002d98 PA:0x80009f2c
       19105000	      1909	80000a10	400f5293	srai	x5,x30,0x0	 x30:0x00000006  x5=0x00000006
       19115000	      1910	80000a14	01b4ed33	or	x26,x9,x27	  x9:0xd3040000 x27:0x000001fe x26=0xd30401fe
       19125000	      1911	80000a18	00000317	auipc	x6,0x0	  x6=0x80000a14
       19135000	      1912	80000a1c	36c30313	addi	x6,x6,876	  x6:0x80000a14  x6=0x80000d80
       19145000	      1913	80000a20	00000013	addi	x0,x0,0	  x0:0x00000000
       19155000	      1914	80000a24	012dda13	srli	x20,x27,0x12	 x27:0x000001fe x20=0x00000000
       19165000	      1915	80000a28	0d21ff37	lui	x30,0xd21f	 x30=0x0d21f000
       19175000	      1916	80000a2c	24530313	addi	x6,x6,581	  x6:0x80000d80  x6=0x80000fc5
       19185000	      1917	80000a30	414c83b3	sub	x7,x25,x20	 x25:0x5a997000 x20:0x00000000  x7=0x5a997000
       19195000	      1918	80000a34	f2507d13	andi	x26,x0,-219	  x0:0x00000000 x26=0x00000000
       19205000	      1919	80000a38	aec54c13	xori	x24,x10,-1300	 x10:0x80002d28 x24=0x7fffd7c4
       19215000	      1920	80000a3c	0025dfb3	srl	x31,x11,x2	 x11:0x206cbbec  x2:0x00000000 x31=0x206cbbec
       19225000	      1921	80000a40	dbb30be7	jalr	x23,x6,-581	  x6:0x80000fc5 x23=0x80000a40
       19235000	      1922	00000000	00000013	addi	x0,x0,0	  x0:0x00000000
       19245000	      1923	80000d80	00000013	addi	x0,x0,0	  x0:0x00000000
       19255000	      1924	80000d84	019e0f33	add	x30,x28,x25	 x28:0x00000000 x25:0x5a997000 x30=0x5a997000
       19265000	      1925	80000d88	401ad9b3	sra	x19,x21,x1	 x21:0x80009f28  x1:0x00000000 x19=0x80009f28
       19275000	      1926	80000d8c	00cf28b3	slt	x17,x30,x12	 x30:0x5a997000 x12:0x00000000 x17=0x00000000
       19285000	      1927	80000d90	3db2a293	slti	x5,x5,987	  x5:0x00000006  x5=0x00000001
       19295000	      1928	80000d94	ff8a8a93	addi	x21,x21,-8	 x21:0x80009f28 x21=0x80009f20
       19305000	      1929	80000d98	00345db3	srl	x27,x8,x3	  x8:0x453fa000  x3:0x0000020d x27=0x000229fd
       19315000	      1930	80000d9c	017aa223	sw	x23,4(x21)	 x21:0x80009f20 x23:0x80000a40 PA:0x80009f24
       19325000	      1931	80000da0	00f75d13	srli	x26,x14,0xf	 x14:0x453fa09c x26=0x00008a7f
       19335000	      1932	80000da4	001b25b3	slt	x11,x22,x1	 x22:0x00000000  x1:0x00000000 x11=0x00000000
       19345000	      1933	80000da8	40b489b3	sub	x19,x9,x11	  x9:0xd3040000 x11:0x00000000 x19=0xd3040000
       19355000	      1934	80000dac	00100093	addi	x1,x0,1	  x0:0x00000000  x1=0x00000001
       19365000	      1935	80000db0	01f15493	srli	x9,x2,0x1f	  x2:0x00000000  x9=0x00000000
       19375000	      1936	80000db4	40a486b3	sub	x13,x9,x10	  x9:0x00000000 x10:0x80002d28 x13=0x7fffd2d8
       19385000	      1937	80000db8	40b95193	srai	x3,x18,0xb	 x18:0x80009fc4  x3=0xfff00013
       19395000	      1938	80000dbc	ffb00313	addi	x6,x0,-5	  x0:0x00000000  x6=0xfffffffb
       19405000	      1939	80000dc0	206f3813	sltiu	x16,x30,518	 x30:0x5a997000 x16=0x00000000
       19415000	      1940	80000dc4	4185d193	srai	x3,x11,0x18	 x11:0x00000000  x3=0x00000000
       19425000	      1941	80000dc8	01f2fbb3	and	x23,x5,x31	  x5:0x00000001 x31:0x206cbbec x23=0x00000000
       19435000	      1942	80000dcc	00000013	addi	x0,x0,0	  x0:0x00000000
       19445000	      1943	80000dd0	40fa8833	sub	x16,x21,x15	 x21:0x80009f20 x15:0x80009fc4 x16=0xffffff5c
       19455000	      1944	80000dd4	00fc6e33	or	x28,x24,x15	 x24:0x7fffd7c4 x15:0x80009fc4 x28=0xffffdfc4
       19465000	      1945	80000dd8	005a4e33	xor	x28,x20,x5	 x20:0x00000000  x5:0x00000001 x28=0x00000001
       19475000	      1946	80000ddc	0116b4b3	sltu	x9,x13,x17	 x13:0x7fffd2d8 x17:0x00000000  x9=0x00000000
       19485000	      1947	80000de0	416d0a33	sub	x20,x26,x22	 x26:0x00008a7f x22:0x00000000 x20=0x00008a7f
       19495000	      1948	80000de4	b84f3f97	auipc	x31,0xb84f3	 x31=0x384f3de0
       19505000	      1949	80000de8	4037d693	srai	x13,x15,0x3	 x15:0x80009fc4 x13=0xf00013f8
       19515000	      1950	80000dec	41bd52b3	sra	x5,x26,x27	 x26:0x00008a7f x27:0x000229fd  x5=0x00000000
       19525000	      1951	80000df0	ffa08093	addi	x1,x1,-6	  x1:0x00000001  x1=0xfffffffb
       19535000	      1952	80000df4	6f26f137	lui	x2,0x6f26f	  x2=0x6f26f000
       19545000	      1953	80000df8	016f1533	sll	x10,x30,x22	 x30:0x5a997000 x22:0x00000000 x10=0x5a997000
       19555000	      1954	80000dfc	00041713	slli	x14,x8,0x0	  x8:0x453fa000 x14=0x453fa000
       19565000	      1955	80000e00	4003d693	srai	x13,x7,0x0	  x7:0x5a997000 x13=0x5a997000
       19575000	      1956	80000e04	fc6082e3	beq	x1,x6,80000dc8	  x1:0xfffffffb  x6:0xfffffffb
       19585000	      1957	00000000	00000013	addi	x0,x0,0	  x0:0x00000000
       19595000	      1958	80000dc4	00000013	addi	x0,x0,0	  x0:0x00000000
       19605000	      1959	80000dc8	01f2fbb3	and	x23,x5,x31	  x5:0x00000000 x31:0x384f3de0 x23=0x00000000
       19615000	      1960	80000dcc	00000013	addi	x0,x0,0	  x0:0x00000000
       19625000	      1961	80000dd0	40fa8833	sub	x16,x21,x15	 x21:0x80009f20 x15:0x80009fc4 x16=0xffffff5c
       19635000	      1962	80000dd4	00fc6e33	or	x28,x24,x15	 x24:0x7fffd7c4 x15:0x80009fc4 x28=0xffffdfc4
       19645000	      1963	80000dd8	005a4e33	xor	x28,x20,x5	 x20:0x00008a7f  x5:0x00000000 x28=0x00008a7f
       19655000	      1964	80000ddc	0116b4b3	sltu	x9,x13,x17	 x13:0x5a997000 x17:0x00000000  x9=0x00000000
       19665000	      1965	80000de0	416d0a33	sub	x20,x26,x22	 x26:0x00008a7f x22:0x00000000 x20=0x00008a7f
       19675000	      1966	80000de4	b84f3f97	auipc	x31,0xb84f3	 x31=0x384f3de0
       19685000	      1967	80000de8	4037d693	srai	x13,x15,0x3	 x15:0x80009fc4 x13=0xf00013f8
       19695000	      1968	80000dec	41bd52b3	sra	x5,x26,x27	 x26:0x00008a7f x27:0x000229fd  x5=0x00000000
       19705000	      1969	80000df0	ffa08093	addi	x1,x1,-6	  x1:0xfffffffb  x1=0xfffffff5
       19715000	      1970	80000df4	6f26f137	lui	x2,0x6f26f	  x2=0x6f26f000
       19725000	      1971	80000df8	016f1533	sll	x10,x30,x22	 x30:0x5a997000 x22:0x00000000 x10=0x5a997000
       19735000	      1972	80000dfc	00041713	slli	x14,x8,0x0	  x8:0x453fa000 x14=0x453fa000
       19745000	      1973	80000e00	4003d693	srai	x13,x7,0x0	  x7:0x5a997000 x13=0x5a997000
       19755000	      1974	80000e04	fc6082e3	beq	x1,x6,80000dc8	  x1:0xfffffff5  x6:0xfffffffb
       19765000	      1975	80000e08	a066d917	auipc	x18,0xa066d	 x18=0x2066de04
       19775000	      1976	80000e0c	00800313	addi	x6,x0,8	  x0:0x00000000  x6=0x00000008
       19785000	      1977	80000e10	00800f93	addi	x31,x0,8	  x0:0x00000000 x31=0x00000008
       19795000	      1978	80000e14	c30eae97	auipc	x29,0xc30ea	 x29=0x430eae10
       19805000	      1979	80000e18	ffb30313	addi	x6,x6,-5	  x6:0x00000008  x6=0x00000003
       19815000	      1980	80000e1c	fff37ce3	bgeu	x6,x31,80000e14	  x6:0x00000003 x31:0x00000008
       19825000	      1981	80000e20	01f1d433	srl	x8,x3,x31	  x3:0x00000000 x31:0x00000008  x8=0x00000000
       19835000	      1982	80000e24	00100513	addi	x10,x0,1	  x0:0x00000000 x10=0x00000001
       19845000	      1983	80000e28	01131433	sll	x8,x6,x17	  x6:0x00000003 x17:0x00000000  x8=0x00000003
       19855000	      1984	80000e2c	00900813	addi	x16,x0,9	  x0:0x00000000 x16=0x00000009
       19865000	      1985	80000e30	be3c7a13	andi	x20,x24,-1053	 x24:0x7fffd7c4 x20=0x7fffd3c0
       19875000	      1986	80000e34	00850513	addi	x10,x10,8	 x10:0x00000001 x10=0x00000009
       19885000	      1987	80000e38	00300c13	addi	x24,x0,3	  x0:0x00000000 x24=0x00000003
       19895000	      1988	80000e3c	ffc00613	addi	x12,x0,-4	  x0:0x00000000 x12=0xfffffffc
       19905000	      1989	80000e40	2d9295b7	lui	x11,0x2d929	 x11=0x2d929000
       19915000	      1990	80000e44	00000013	addi	x0,x0,0	  x0:0x00000000
       19925000	      1991	80000e48	ff7c0c13	addi	x24,x24,-9	 x24:0x00000003 x24=0xfffffffa
       19935000	      1992	80000e4c	fecc5ce3	bge	x24,x12,80000e44	 x24:0xfffffffa x12:0xfffffffc
       19945000	      1993	80000e50	ff0500e3	beq	x10,x16,80000e30	 x10:0x00000009 x16:0x00000009
       19955000	      1994	00000000	00000013	addi	x0,x0,0	  x0:0x00000000
       19965000	      1995	80000e2c	00000013	addi	x0,x0,0	  x0:0x00000000
       19975000	      1996	80000e30	be3c7a13	andi	x20,x24,-1053	 x24:0xfffffffa x20=0xfffffbe2
       19985000	      1997	80000e34	00850513	addi	x10,x10,8	 x10:0x00000009 x10=0x00000011
       19995000	      1998	80000e38	00300c13	addi	x24,x0,3	  x0:0x00000000 x24=0x00000003
       20005000	      1999	80000e3c	ffc00613	addi	x12,x0,-4	  x0:0x00000000 x12=0xfffffffc
       20015000	      2000	80000e40	2d9295b7	lui	x11,0x2d929	 x11=0x2d929000
       20025000	      2001	80000e44	00000013	addi	x0,x0,0	  x0:0x00000000
       20035000	      2002	80000e48	ff7c0c13	addi	x24,x24,-9	 x24:0x00000003 x24=0xfffffffa
       20045000	      2003	80000e4c	fecc5ce3	bge	x24,x12,80000e44	 x24:0xfffffffa x12:0xfffffffc
       20055000	      2004	80000e50	ff0500e3	beq	x10,x16,80000e30	 x10:0x00000011 x16:0x00000009
       20065000	      2005	80000e54	ce940413	addi	x8,x8,-791	  x8:0x00000003  x8=0xfffffcec
       20075000	      2006	80000e58	00700213	addi	x4,x0,7	  x0:0x00000000  x4=0x00000007
       20085000	      2007	80000e5c	48b22d93	slti	x27,x4,1163	  x4:0x00000007 x27=0x00000001
       20095000	      2008	80000e60	01476833	or	x16,x14,x20	 x14:0x453fa000 x20:0xfffffbe2 x16=0xfffffbe2
       20105000	      2009	80000e64	015b5693	srli	x13,x22,0x15	 x22:0x00000000 x13=0x00000000
       20115000	      2010	80000e68	008f93b3	sll	x7,x31,x8	 x31:0x00000008  x8:0xfffffcec  x7=0x00008000
       20125000	      2011	80000e6c	aa98c613	xori	x12,x17,-1367	 x17:0x00000000 x12=0xfffffaa9
       20135000	      2012	80000e70	00600293	addi	x5,x0,6	  x0:0x00000000  x5=0x00000006
       20145000	      2013	80000e74	fcebe697	auipc	x13,0xfcebe	 x13=0x7cebee70
       20155000	      2014	80000e78	4002dd33	sra	x26,x5,x0	  x5:0x00000006  x0:0x00000000 x26=0x00000006
       20165000	      2015	80000e7c	13fd7c97	auipc	x25,0x13fd7	 x25=0x93fd7e78
       20175000	      2016	80000e80	ffc20213	addi	x4,x4,-4	  x4:0x00000007  x4=0x00000003
       20185000	      2017	80000e84	0125ba33	sltu	x20,x11,x18	 x11:0x2d929000 x18:0x2066de04 x20=0x00000000
       20195000	      2018	80000e88	00428db3	add	x27,x5,x4	  x5:0x00000006  x4:0x00000003 x27=0x00000009
       20205000	      2019	80000e8c	005575b3	and	x11,x10,x5	 x10:0x00000011  x5:0x00000006 x11=0x00000000
       20215000	      2020	80000e90	00470133	add	x2,x14,x4	 x14:0x453fa000  x4:0x00000003  x2=0x453fa003
       20225000	      2021	80000e94	ea376393	ori	x7,x14,-349	 x14:0x453fa000  x7=0xfffffea3
       20235000	      2022	80000e98	fa3fff93	andi	x31,x31,-93	 x31:0x00000008 x31=0x00000000
       20245000	      2023	80000e9c	980ce917	auipc	x18,0x980ce	 x18=0x180cee98
       20255000	      2024	80000ea0	fc527ae3	bgeu	x4,x5,80000e74	  x4:0x00000003  x5:0x00000006
       20265000	      2025	80000ea4	00f3dd93	srli	x27,x7,0xf	  x7:0xfffffea3 x27=0x0001ffff
       20275000	      2026	80000ea8	00a00f13	addi	x30,x0,10	  x0:0x00000000 x30=0x0000000a
       20285000	      2027	80000eac	ce6abe13	sltiu	x28,x21,-794	 x21:0x80009f20 x28=0x00000001
       20295000	      2028	80000eb0	0f43b637	lui	x12,0xf43b	 x12=0x0f43b000
       20305000	      2029	80000eb4	41695fb3	sra	x31,x18,x22	 x18:0x180cee98 x22:0x00000000 x31=0x180cee98
       20315000	      2030	80000eb8	002a9433	sll	x8,x21,x2	 x21:0x80009f20  x2:0x453fa003  x8=0x0004f900
       20325000	      2031	80000ebc	b041d917	auipc	x18,0xb041d	 x18=0x3041deb8
       20335000	      2032	80000ec0	6a79c937	lui	x18,0x6a79c	 x18=0x6a79c000
       20345000	      2033	80000ec4	00a00493	addi	x9,x0,10	  x0:0x00000000  x9=0x0000000a
       20355000	      2034	80000ec8	011e3d33	sltu	x26,x28,x17	 x28:0x00000001 x17:0x00000000 x26=0x00000000
       20365000	      2035	80000ecc	00f53fb3	sltu	x31,x10,x15	 x10:0x00000011 x15:0x80009fc4 x31=0x00000001
       20375000	      2036	80000ed0	015033b3	sltu	x7,x0,x21	  x0:0x00000000 x21:0x80009f20  x7=0x00000001
       20385000	      2037	80000ed4	00aa0633	add	x12,x20,x10	 x20:0x00000000 x10:0x00000011 x12=0x00000011
       20395000	      2038	80000ed8	f0bbf0b7	lui	x1,0xf0bbf	  x1=0xf0bbf000
       20405000	      2039	80000edc	00f95893	srli	x17,x18,0xf	 x18:0x6a79c000 x17=0x0000d4f3
       20415000	      2040	80000ee0	034b3113	sltiu	x2,x22,52	 x22:0x00000000  x2=0x00000001
       20425000	      2041	80000ee4	001673b3	and	x7,x12,x1	 x12:0x00000011  x1:0xf0bbf000  x7=0x00000000
       20435000	      2042	80000ee8	ff7f0f13	addi	x30,x30,-9	 x30:0x0000000a x30=0x00000001
       20445000	      2043	80000eec	002702b3	add	x5,x14,x2	 x14:0x453fa000  x2:0x00000001  x5=0x453fa001
       20455000	      2044	80000ef0	439e7593	andi	x11,x28,1081	 x28:0x00000001 x11=0x00000001
       20465000	      2045	80000ef4	6903af93	slti	x31,x7,1680	  x7:0x00000000 x31=0x00000001
       20475000	      2046	80000ef8	aff94593	xori	x11,x18,-1281	 x18:0x6a79c000 x11=0x95863aff
       20485000	      2047	80000efc	00000013	addi	x0,x0,0	  x0:0x00000000
       20495000	      2048	80000f00	1d388813	addi	x16,x17,467	 x17:0x0000d4f3 x16=0x0000d6c6
       20505000	      2049	80000f04	a1d75a17	auipc	x20,0xa1d75	 x20=0x21d75f00
       20515000	      2050	80000f08	4195dc13	srai	x24,x11,0x19	 x11:0x95863aff x24=0xffffffca
       20525000	      2051	80000f0c	fa9f7ee3	bgeu	x30,x9,80000ec8	 x30:0x00000001  x9:0x0000000a
       20535000	      2052	80000f10	00000013	addi	x0,x0,0	  x0:0x00000000
       20545000	      2053	80000f14	00a00713	addi	x14,x0,10	  x0:0x00000000 x14=0x0000000a
       20555000	      2054	80000f18	9eacb993	sltiu	x19,x25,-1558	 x25:0x93fd7e78 x19=0x00000001
       20565000	      2055	80000f1c	00e42333	slt	x6,x8,x14	  x8:0x0004f900 x14:0x0000000a  x6=0x00000000
       20575000	      2056	80000f20	68407893	andi	x17,x0,1668	  x0:0x00000000 x17=0x00000000
       20585000	      2057	80000f24	00900a13	addi	x20,x0,9	  x0:0x00000000 x20=0x00000009
       20595000	      2058	80000f28	f2d14317	auipc	x6,0xf2d14	  x6=0x72d14f24
       20605000	      2059	80000f2c	ff870713	addi	x14,x14,-8	 x14:0x0000000a x14=0x00000002
       20615000	      2060	80000f30	c94c0913	addi	x18,x24,-876	 x24:0xffffffca x18=0xfffffc5e
       20625000	      2061	80000f34	00dc0eb3	add	x29,x24,x13	 x24:0xffffffca x13:0x7cebee70 x29=0x7cebee3a
       20635000	      2062	80000f38	01a2c633	xor	x12,x5,x26	  x5:0x453fa001 x26:0x00000000 x12=0x453fa001
       20645000	      2063	80000f3c	403cd593	srai	x11,x25,0x3	 x25:0x93fd7e78 x11=0xf27fafcf
       20655000	      2064	80000f40	010be933	or	x18,x23,x16	 x23:0x00000000 x16:0x0000d6c6 x18=0x0000d6c6
       20665000	      2065	80000f44	401a5433	sra	x8,x20,x1	 x20:0x00000009  x1:0xf0bbf000  x8=0x00000009
       20675000	      2066	80000f48	41bcdbb3	sra	x23,x25,x27	 x25:0x93fd7e78 x27:0x0001ffff x23=0xffffffff
       20685000	      2067	80000f4c	ace7f993	andi	x19,x15,-1330	 x15:0x80009fc4 x19=0x80009ac4
       20695000	      2068	80000f50	010529b3	slt	x19,x10,x16	 x10:0x00000011 x16:0x0000d6c6 x19=0x00000001
       20705000	      2069	80000f54	ffe00493	addi	x9,x0,-2	  x0:0x00000000  x9=0xfffffffe
       20715000	      2070	80000f58	00445d93	srli	x27,x8,0x4	  x8:0x00000009 x27=0x00000000
       20725000	      2071	80000f5c	00400293	addi	x5,x0,4	  x0:0x00000000  x5=0x00000004
       20735000	      2072	80000f60	d5b66913	ori	x18,x12,-677	 x12:0x453fa001 x18=0xfffffd5b
       20745000	      2073	80000f64	0b57fe93	andi	x29,x15,181	 x15:0x80009fc4 x29=0x00000084
       20755000	      2074	80000f68	f7a258b7	lui	x17,0xf7a25	 x17=0xf7a25000
       20765000	      2075	80000f6c	1b830697	auipc	x13,0x1b830	 x13=0x9b830f68
       20775000	      2076	80000f70	00e5e933	or	x18,x11,x14	 x11:0xf27fafcf x14:0x00000002 x18=0xf27fafcf
       20785000	      2077	80000f74	c5543013	sltiu	x0,x8,-939	  x8:0x00000009
       20795000	      2078	80000f78	00448493	addi	x9,x9,4	  x9:0xfffffffe  x9=0x00000002
       20805000	      2079	80000f7c	fe54e6e3	bltu	x9,x5,80000f68	  x9:0x00000002  x5:0x00000004
       20815000	      2080	00000000	00000013	addi	x0,x0,0	  x0:0x00000000
       20825000	      2081	80000f64	00000013	addi	x0,x0,0	  x0:0x00000000
       20835000	      2082	80000f68	f7a258b7	lui	x17,0xf7a25	 x17=0xf7a25000
       20845000	      2083	80000f6c	1b830697	auipc	x13,0x1b830	 x13=0x9b830f68
       20855000	      2084	80000f70	00e5e933	or	x18,x11,x14	 x11:0xf27fafcf x14:0x00000002 x18=0xf27fafcf
       20865000	      2085	80000f74	c5543013	sltiu	x0,x8,-939	  x8:0x00000009
       20875000	      2086	80000f78	00448493	addi	x9,x9,4	  x9:0x00000002  x9=0x00000006
       20885000	      2087	80000f7c	fe54e6e3	bltu	x9,x5,80000f68	  x9:0x00000006  x5:0x00000004
       20895000	      2088	80000f80	01341113	slli	x2,x8,0x13	  x8:0x00000009  x2=0x00480000
       20905000	      2089	80000f84	01d79bb3	sll	x23,x15,x29	 x15:0x80009fc4 x29:0x00000084 x23=0x0009fc40
       20915000	      2090	80000f88	ce222f93	slti	x31,x4,-798	  x4:0x00000003 x31=0x00000000
       20925000	      2091	80000f8c	41065633	sra	x12,x12,x16	 x12:0x453fa001 x16:0x0000d6c6 x12=0x0114fe80
       20935000	      2092	80000f90	00ba0fb3	add	x31,x20,x11	 x20:0x00000009 x11:0xf27fafcf x31=0xf27fafd8
       20945000	      2093	80000f94	f9477ae3	bgeu	x14,x20,80000f28	 x14:0x00000002 x20:0x00000009
       20955000	      2094	80000f98	00000013	addi	x0,x0,0	  x0:0x00000000
       20965000	      2095	80000f9c	00900513	addi	x10,x0,9	  x0:0x00000000 x10=0x00000009
       20975000	      2096	80000fa0	01257033	and	x0,x10,x18	 x10:0x00000009 x18:0xf27fafcf
       20985000	      2097	80000fa4	68217613	andi	x12,x2,1666	  x2:0x00480000 x12=0x00000000
       20995000	      2098	80000fa8	ffc00093	addi	x1,x0,-4	  x0:0x00000000  x1=0xfffffffc
       21005000	      2099	80000fac	0056f9b3	and	x19,x13,x5	 x13:0x9b830f68  x5:0x00000004 x19=0x00000000
       21015000	      2100	80000fb0	015e3633	sltu	x12,x28,x21	 x28:0x00000001 x21:0x80009f20 x12=0x00000001
       21025000	      2101	80000fb4	6b13a993	slti	x19,x7,1713	  x7:0x00000000 x19=0x00000001
       21035000	      2102	80000fb8	018e3cb3	sltu	x25,x28,x24	 x28:0x00000001 x24:0xffffffca x25=0x00000001
       21045000	      2103	80000fbc	01c406b3	add	x13,x8,x28	  x8:0x00000009 x28:0x00000001 x13=0x0000000a
       21055000	      2104	80000fc0	ff750513	addi	x10,x10,-9	 x10:0x00000009 x10=0x00000000
       21065000	      2105	80000fc4	ffc00a13	addi	x20,x0,-4	  x0:0x00000000 x20=0xfffffffc
       21075000	      2106	80000fc8	01b58233	add	x4,x11,x27	 x11:0xf27fafcf x27:0x00000000  x4=0xf27fafcf
       21085000	      2107	80000fcc	00c00593	addi	x11,x0,12	  x0:0x00000000 x11=0x0000000c
       21095000	      2108	80000fd0	40520833	sub	x16,x4,x5	  x4:0xf27fafcf  x5:0x00000004 x16=0xf27fafcb
       21105000	      2109	80000fd4	0143ad33	slt	x26,x7,x20	  x7:0x00000000 x20:0xfffffffc x26=0x00000000
       21115000	      2110	80000fd8	40830bb3	sub	x23,x6,x8	  x6:0x72d14f24  x8:0x00000009 x23=0x72d14f1b
       21125000	      2111	80000fdc	4111d813	srai	x16,x3,0x11	  x3:0x00000000 x16=0x00000000
       21135000	      2112	80000fe0	01a8a893	slti	x17,x17,26	 x17:0xf7a25000 x17=0x00000001
       21145000	      2113	80000fe4	001a0a13	addi	x20,x20,1	 x20:0xfffffffc x20=0xfffffffd
       21155000	      2114	80000fe8	41cd51b3	sra	x3,x26,x28	 x26:0x00000000 x28:0x00000001  x3=0x00000000
       21165000	      2115	80000fec	01037033	and	x0,x6,x16	  x6:0x72d14f24 x16:0x00000000
       21175000	      2116	80000ff0	feba62e3	bltu	x20,x11,80000fd4	 x20:0xfffffffd x11:0x0000000c
       21185000	      2117	80000ff4	01746033	or	x0,x8,x23	  x8:0x00000009 x23:0x72d14f1b
       21195000	      2118	80000ff8	0169e9b3	or	x19,x19,x22	 x19:0x00000001 x22:0x00000000 x19=0x00000001
       21205000	      2119	80000ffc	1e59e437	lui	x8,0x1e59e	  x8=0x1e59e000
       21215000	      2120	80001000	01b94833	xor	x16,x18,x27	 x18:0xf27fafcf x27:0x00000000 x16=0xf27fafcf
       21225000	      2121	80001004	00b8c433	xor	x8,x17,x11	 x17:0x00000001 x11:0x0000000c  x8=0x0000000d
       21235000	      2122	80001008	fa1554e3	bge	x10,x1,80000fb0	 x10:0x00000000  x1:0xfffffffc
       21245000	      2123	00000000	00000013	addi	x0,x0,0	  x0:0x00000000
       21255000	      2124	80000fac	00000013	addi	x0,x0,0	  x0:0x00000000
       21265000	      2125	80000fb0	015e3633	sltu	x12,x28,x21	 x28:0x00000001 x21:0x80009f20 x12=0x00000001
       21275000	      2126	80000fb4	6b13a993	slti	x19,x7,1713	  x7:0x00000000 x19=0x00000001
       21285000	      2127	80000fb8	018e3cb3	sltu	x25,x28,x24	 x28:0x00000001 x24:0xffffffca x25=0x00000001
       21295000	      2128	80000fbc	01c406b3	add	x13,x8,x28	  x8:0x0000000d x28:0x00000001 x13=0x0000000e
       21305000	      2129	80000fc0	ff750513	addi	x10,x10,-9	 x10:0x00000000 x10=0xfffffff7
       21315000	      2130	80000fc4	ffc00a13	addi	x20,x0,-4	  x0:0x00000000 x20=0xfffffffc
       21325000	      2131	80000fc8	01b58233	add	x4,x11,x27	 x11:0x0000000c x27:0x00000000  x4=0x0000000c
       21335000	      2132	80000fcc	00c00593	addi	x11,x0,12	  x0:0x00000000 x11=0x0000000c
       21345000	      2133	80000fd0	40520833	sub	x16,x4,x5	  x4:0x0000000c  x5:0x00000004 x16=0x00000008
       21355000	      2134	80000fd4	0143ad33	slt	x26,x7,x20	  x7:0x00000000 x20:0xfffffffc x26=0x00000000
       21365000	      2135	80000fd8	40830bb3	sub	x23,x6,x8	  x6:0x72d14f24  x8:0x0000000d x23=0x72d14f17
       21375000	      2136	80000fdc	4111d813	srai	x16,x3,0x11	  x3:0x00000000 x16=0x00000000
       21385000	      2137	80000fe0	01a8a893	slti	x17,x17,26	 x17:0x00000001 x17=0x00000001
       21395000	      2138	80000fe4	001a0a13	addi	x20,x20,1	 x20:0xfffffffc x20=0xfffffffd
       21405000	      2139	80000fe8	41cd51b3	sra	x3,x26,x28	 x26:0x00000000 x28:0x00000001  x3=0x00000000
       21415000	      2140	80000fec	01037033	and	x0,x6,x16	  x6:0x72d14f24 x16:0x00000000
       21425000	      2141	80000ff0	feba62e3	bltu	x20,x11,80000fd4	 x20:0xfffffffd x11:0x0000000c
       21435000	      2142	80000ff4	01746033	or	x0,x8,x23	  x8:0x0000000d x23:0x72d14f17
       21445000	      2143	80000ff8	0169e9b3	or	x19,x19,x22	 x19:0x00000001 x22:0x00000000 x19=0x00000001
       21455000	      2144	80000ffc	1e59e437	lui	x8,0x1e59e	  x8=0x1e59e000
       21465000	      2145	80001000	01b94833	xor	x16,x18,x27	 x18:0xf27fafcf x27:0x00000000 x16=0xf27fafcf
       21475000	      2146	80001004	00b8c433	xor	x8,x17,x11	 x17:0x00000001 x11:0x0000000c  x8=0x0000000d
       21485000	      2147	80001008	fa1554e3	bge	x10,x1,80000fb0	 x10:0xfffffff7  x1:0xfffffffc
       21495000	      2148	8000100c	513ecb97	auipc	x23,0x513ec	 x23=0xd13ed008
       21505000	      2149	80001010	00800393	addi	x7,x0,8	  x0:0x00000000  x7=0x00000008
       21515000	      2150	80001014	8a872693	slti	x13,x14,-1880	 x14:0x00000002 x13=0x00000000
       21525000	      2151	80001018	40d38bb3	sub	x23,x7,x13	  x7:0x00000008 x13:0x00000000 x23=0x00000008
       21535000	      2152	8000101c	41da8d33	sub	x26,x21,x29	 x21:0x80009f20 x29:0x00000084 x26=0x80009e9c
       21545000	      2153	80001020	003e9713	slli	x14,x29,0x3	 x29:0x00000084 x14=0x00000420
       21555000	      2154	80001024	5ab34693	xori	x13,x6,1451	  x6:0x72d14f24 x13=0x72d14a8f
       21565000	      2155	80001028	00b00113	addi	x2,x0,11	  x0:0x00000000  x2=0x0000000b
       21575000	      2156	8000102c	01dfd713	srli	x14,x31,0x1d	 x31:0xf27fafd8 x14=0x00000007
       21585000	      2157	80001030	00000013	addi	x0,x0,0	  x0:0x00000000
       21595000	      2158	80001034	01221f13	slli	x30,x4,0x12	  x4:0x0000000c x30=0x00300000
       21605000	      2159	80001038	a9467613	andi	x12,x12,-1388	 x12:0x00000001 x12=0x00000000
       21615000	      2160	8000103c	0133d433	srl	x8,x7,x19	  x7:0x00000008 x19:0x00000001  x8=0x00000004
       21625000	      2161	80001040	00a38393	addi	x7,x7,10	  x7:0x00000008  x7=0x00000012
       21635000	      2162	80001044	dbbb84b7	lui	x9,0xdbbb8	  x9=0xdbbb8000
       21645000	      2163	80001048	00356733	or	x14,x10,x3	 x10:0xfffffff7  x3:0x00000000 x14=0xfffffff7
       21655000	      2164	8000104c	415a0033	sub	x0,x20,x21	 x20:0xfffffffd x21:0x80009f20
       21665000	      2165	80001050	00774c33	xor	x24,x14,x7	 x14:0xfffffff7  x7:0x00000012 x24=0xffffffe5
       21675000	      2166	80001054	016f4033	xor	x0,x30,x22	 x30:0x00300000 x22:0x00000000
       21685000	      2167	80001058	ff2ec037	lui	x0,0xff2ec	
       21695000	      2168	8000105c	fc23cee3	blt	x7,x2,80001038	  x7:0x00000012  x2:0x0000000b
       21705000	      2169	80001060	013498b3	sll	x17,x9,x19	  x9:0xdbbb8000 x19:0x00000001 x17=0xb7770000
       21715000	      2170	80001064	00a00513	addi	x10,x0,10	  x0:0x00000000 x10=0x0000000a
       21725000	      2171	80001068	108c2413	slti	x8,x24,264	 x24:0xffffffe5  x8=0x00000001
       21735000	      2172	8000106c	b7404393	xori	x7,x0,-1164	  x0:0x00000000  x7=0xfffffb74
       21745000	      2173	80001070	00cb0e33	add	x28,x22,x12	 x22:0x00000000 x12:0x00000000 x28=0x00000000
       21755000	      2174	80001074	13889337	lui	x6,0x13889	  x6=0x13889000
       21765000	      2175	80001078	005ed393	srli	x7,x29,0x5	 x29:0x00000084  x7=0x00000004
       21775000	      2176	8000107c	fc06cb93	xori	x23,x13,-64	 x13:0x72d14a8f x23=0x8d2eb54f
       21785000	      2177	80001080	ff600193	addi	x3,x0,-10	  x0:0x00000000  x3=0xfffffff6
       21795000	      2178	80001084	01bcef33	or	x30,x25,x27	 x25:0x00000001 x27:0x00000000 x30=0x00000001
       21805000	      2179	80001088	ff650513	addi	x10,x10,-10	 x10:0x0000000a x10=0x00000000
       21815000	      2180	8000108c	00000113	addi	x2,x0,0	  x0:0x00000000  x2=0x00000000
       21825000	      2181	80001090	01f0e333	or	x6,x1,x31	  x1:0xfffffffc x31:0xf27fafd8  x6=0xfffffffc
       21835000	      2182	80001094	00800e93	addi	x29,x0,8	  x0:0x00000000 x29=0x00000008
       21845000	      2183	80001098	cab63693	sltiu	x13,x12,-853	 x12:0x00000000 x13=0x00000001
       21855000	      2184	8000109c	403b5f93	srai	x31,x22,0x3	 x22:0x00000000 x31=0x00000000
       21865000	      2185	800010a0	0141a4b3	slt	x9,x3,x20	  x3:0xfffffff6 x20:0xfffffffd  x9=0x00000001
       21875000	      2186	800010a4	00000013	addi	x0,x0,0	  x0:0x00000000
       21885000	      2187	800010a8	00410113	addi	x2,x2,4	  x2:0x00000000  x2=0x00000004
       21895000	      2188	800010ac	41ad5293	srai	x5,x26,0x1a	 x26:0x80009e9c  x5=0xffffffe0
       21905000	      2189	800010b0	005a9db3	sll	x27,x21,x5	 x21:0x80009f20  x5:0xffffffe0 x27=0x80009f20
       21915000	      2190	800010b4	ffd166e3	bltu	x2,x29,800010a0	  x2:0x00000004 x29:0x00000008
       21925000	      2191	00000000	00000013	addi	x0,x0,0	  x0:0x00000000
       21935000	      2192	8000109c	00000013	addi	x0,x0,0	  x0:0x00000000
       21945000	      2193	800010a0	0141a4b3	slt	x9,x3,x20	  x3:0xfffffff6 x20:0xfffffffd  x9=0x00000001
       21955000	      2194	800010a4	00000013	addi	x0,x0,0	  x0:0x00000000
       21965000	      2195	800010a8	00410113	addi	x2,x2,4	  x2:0x00000004  x2=0x00000008
       21975000	      2196	800010ac	41ad5293	srai	x5,x26,0x1a	 x26:0x80009e9c  x5=0xffffffe0
       21985000	      2197	800010b0	005a9db3	sll	x27,x21,x5	 x21:0x80009f20  x5:0xffffffe0 x27=0x80009f20
       21995000	      2198	800010b4	ffd166e3	bltu	x2,x29,800010a0	  x2:0x00000008 x29:0x00000008
       22005000	      2199	800010b8	fc3516e3	bne	x10,x3,80001084	 x10:0x00000000  x3:0xfffffff6
       22015000	      2200	00000000	00000013	addi	x0,x0,0	  x0:0x00000000
       22025000	      2201	80001080	00000013	addi	x0,x0,0	  x0:0x00000000
       22035000	      2202	80001084	01bcef33	or	x30,x25,x27	 x25:0x00000001 x27:0x80009f20 x30=0x80009f21
       22045000	      2203	80001088	ff650513	addi	x10,x10,-10	 x10:0x00000000 x10=0xfffffff6
       22055000	      2204	8000108c	00000113	addi	x2,x0,0	  x0:0x00000000  x2=0x00000000
       22065000	      2205	80001090	01f0e333	or	x6,x1,x31	  x1:0xfffffffc x31:0x00000000  x6=0xfffffffc
       22075000	      2206	80001094	00800e93	addi	x29,x0,8	  x0:0x00000000 x29=0x00000008
       22085000	      2207	80001098	cab63693	sltiu	x13,x12,-853	 x12:0x00000000 x13=0x00000001
       22095000	      2208	8000109c	403b5f93	srai	x31,x22,0x3	 x22:0x00000000 x31=0x00000000
       22105000	      2209	800010a0	0141a4b3	slt	x9,x3,x20	  x3:0xfffffff6 x20:0xfffffffd  x9=0x00000001
       22115000	      2210	800010a4	00000013	addi	x0,x0,0	  x0:0x00000000
       22125000	      2211	800010a8	00410113	addi	x2,x2,4	  x2:0x00000000  x2=0x00000004
       22135000	      2212	800010ac	41ad5293	srai	x5,x26,0x1a	 x26:0x80009e9c  x5=0xffffffe0
       22145000	      2213	800010b0	005a9db3	sll	x27,x21,x5	 x21:0x80009f20  x5:0xffffffe0 x27=0x80009f20
       22155000	      2214	800010b4	ffd166e3	bltu	x2,x29,800010a0	  x2:0x00000004 x29:0x00000008
       22165000	      2215	00000000	00000013	addi	x0,x0,0	  x0:0x00000000
       22175000	      2216	8000109c	00000013	addi	x0,x0,0	  x0:0x00000000
       22185000	      2217	800010a0	0141a4b3	slt	x9,x3,x20	  x3:0xfffffff6 x20:0xfffffffd  x9=0x00000001
       22195000	      2218	800010a4	00000013	addi	x0,x0,0	  x0:0x00000000
       22205000	      2219	800010a8	00410113	addi	x2,x2,4	  x2:0x00000004  x2=0x00000008
       22215000	      2220	800010ac	41ad5293	srai	x5,x26,0x1a	 x26:0x80009e9c  x5=0xffffffe0
       22225000	      2221	800010b0	005a9db3	sll	x27,x21,x5	 x21:0x80009f20  x5:0xffffffe0 x27=0x80009f20
       22235000	      2222	800010b4	ffd166e3	bltu	x2,x29,800010a0	  x2:0x00000008 x29:0x00000008
       22245000	      2223	800010b8	fc3516e3	bne	x10,x3,80001084	 x10:0xfffffff6  x3:0xfffffff6
       22255000	      2224	800010bc	003082b3	add	x5,x1,x3	  x1:0xfffffffc  x3:0xfffffff6  x5=0xfffffff2
       22265000	      2225	800010c0	00a00213	addi	x4,x0,10	  x0:0x00000000  x4=0x0000000a
       22275000	      2226	800010c4	4bfa8913	addi	x18,x21,1215	 x21:0x80009f20 x18=0x8000a3df
       22285000	      2227	800010c8	00a00a13	addi	x20,x0,10	  x0:0x00000000 x20=0x0000000a
       22295000	      2228	800010cc	01e3abb3	slt	x23,x7,x30	  x7:0x00000004 x30:0x80009f21 x23=0x00000000
       22305000	      2229	800010d0	407cd3b3	sra	x7,x25,x7	 x25:0x00000001  x7:0x00000004  x7=0x00000000
       22315000	      2230	800010d4	00d54fb3	xor	x31,x10,x13	 x10:0xfffffff6 x13:0x00000001 x31=0xfffffff7
       22325000	      2231	800010d8	686daf13	slti	x30,x27,1670	 x27:0x80009f20 x30=0x00000001
       22335000	      2232	800010dc	41660733	sub	x14,x12,x22	 x12:0x00000000 x22:0x00000000 x14=0x00000000
       22345000	      2233	800010e0	01b97eb3	and	x29,x18,x27	 x18:0x8000a3df x27:0x80009f20 x29=0x80008300
       22355000	      2234	800010e4	ff720213	addi	x4,x4,-9	  x4:0x0000000a  x4=0x00000001
       22365000	      2235	800010e8	459d3d93	sltiu	x27,x26,1113	 x26:0x80009e9c x27=0x00000000
       22375000	      2236	800010ec	00e604b3	add	x9,x12,x14	 x12:0x00000000 x14:0x00000000  x9=0x00000000
       22385000	      2237	800010f0	7cc4e413	ori	x8,x9,1996	  x9:0x00000000  x8=0x000007cc
       22395000	      2238	800010f4	40af5e13	srai	x28,x30,0xa	 x30:0x00000001 x28=0x00000000
       22405000	      2239	800010f8	01961833	sll	x16,x12,x25	 x12:0x00000000 x25:0x00000001 x16=0x00000000
       22415000	      2240	800010fc	0196d433	srl	x8,x13,x25	 x13:0x00000001 x25:0x00000001  x8=0x00000000
       22425000	      2241	80001100	003d9493	slli	x9,x27,0x3	 x27:0x00000000  x9=0x00000000
       22435000	      2242	80001104	3adf1f17	auipc	x30,0x3adf1	 x30=0xbadf2100
       22445000	      2243	80001108	016d4433	xor	x8,x26,x22	 x26:0x80009e9c x22:0x00000000  x8=0x80009e9c
       22455000	      2244	8000110c	00101fb3	sll	x31,x0,x1	  x0:0x00000000  x1:0xfffffffc x31=0x00000000
       22465000	      2245	80001110	0c7db513	sltiu	x10,x27,199	 x27:0x00000000 x10=0x00000001
       22475000	      2246	80001114	40e8d693	srai	x13,x17,0xe	 x17:0xb7770000 x13=0xfffedddc
       22485000	      2247	80001118	00d50e33	add	x28,x10,x13	 x10:0x00000001 x13:0xfffedddc x28=0xfffedddd
       22495000	      2248	8000111c	00f603b3	add	x7,x12,x15	 x12:0x00000000 x15:0x80009fc4  x7=0x80009fc4
       22505000	      2249	80001120	fb427ce3	bgeu	x4,x20,800010d8	  x4:0x00000001 x20:0x0000000a
       22515000	      2250	80001124	006ed6b3	srl	x13,x29,x6	 x29:0x80008300  x6:0xfffffffc x13=0x00000008
       22525000	      2251	80001128	00900293	addi	x5,x0,9	  x0:0x00000000  x5=0x00000009
       22535000	      2252	8000112c	00800813	addi	x16,x0,8	  x0:0x00000000 x16=0x00000008
       22545000	      2253	80001130	00400d33	add	x26,x0,x4	  x0:0x00000000  x4:0x00000001 x26=0x00000001
       22555000	      2254	80001134	2a84c0b7	lui	x1,0x2a84c	  x1=0x2a84c000
       22565000	      2255	80001138	ffa28293	addi	x5,x5,-6	  x5:0x00000009  x5=0x00000003
       22575000	      2256	8000113c	ff02fae3	bgeu	x5,x16,80001130	  x5:0x00000003 x16:0x00000008
       22585000	      2257	80001140	b7474093	xori	x1,x14,-1164	 x14:0x00000000  x1=0xfffffb74
       22595000	      2258	80001144	00700f13	addi	x30,x0,7	  x0:0x00000000 x30=0x00000007
       22605000	      2259	80001148	418c5db3	sra	x27,x24,x24	 x24:0xffffffe5 x24:0xffffffe5 x27=0xffffffff
       22615000	      2260	8000114c	0063f933	and	x18,x7,x6	  x7:0x80009fc4  x6:0xfffffffc x18=0x80009fc4
       22625000	      2261	80001150	01100493	addi	x9,x0,17	  x0:0x00000000  x9=0x00000011
       22635000	      2262	80001154	406c5913	srai	x18,x24,0x6	 x24:0xffffffe5 x18=0xffffffff
       22645000	      2263	80001158	00000013	addi	x0,x0,0	  x0:0x00000000
       22655000	      2264	8000115c	00683db3	sltu	x27,x16,x6	 x16:0x00000008  x6:0xfffffffc x27=0x00000001
       22665000	      2265	80001160	00af0f13	addi	x30,x30,10	 x30:0x00000007 x30=0x00000011
       22675000	      2266	80001164	01d69413	slli	x8,x13,0x1d	 x13:0x00000008  x8=0x00000000
       22685000	      2267	80001168	705ce513	ori	x10,x25,1797	 x25:0x00000001 x10=0x00000705
       22695000	      2268	8000116c	ffd00893	addi	x17,x0,-3	  x0:0x00000000 x17=0xfffffffd
       22705000	      2269	80001170	00d91593	slli	x11,x18,0xd	 x18:0xffffffff x11=0xffffe000
       22715000	      2270	80001174	41f25593	srai	x11,x4,0x1f	  x4:0x00000001 x11=0x00000000
       22725000	      2271	80001178	83a0d817	auipc	x16,0x83a0d	 x16=0x03a0e174
       22735000	      2272	8000117c	3960fe13	andi	x28,x1,918	  x1:0xfffffb74 x28=0x00000314
       22745000	      2273	80001180	00c84833	xor	x16,x16,x12	 x16:0x03a0e174 x12:0x00000000 x16=0x03a0e174
       22755000	      2274	80001184	ff700993	addi	x19,x0,-9	  x0:0x00000000 x19=0xfffffff7
       22765000	      2275	80001188	508c8e93	addi	x29,x25,1288	 x25:0x00000001 x29=0x00000509
       22775000	      2276	8000118c	003edfb3	srl	x31,x29,x3	 x29:0x00000509  x3:0xfffffff6 x31=0x00000000
       22785000	      2277	80001190	07e34c93	xori	x25,x6,126	  x6:0xfffffffc x25=0xffffff82
       22795000	      2278	80001194	ffb88893	addi	x17,x17,-5	 x17:0xfffffffd x17=0xfffffff8
       22805000	      2279	80001198	00a95013	srli	x0,x18,0xa	 x18:0xffffffff
       22815000	      2280	8000119c	00000013	addi	x0,x0,0	  x0:0x00000000
       22825000	      2281	800011a0	ff38d4e3	bge	x17,x19,80001188	 x17:0xfffffff8 x19:0xfffffff7
       22835000	      2282	00000000	00000013	addi	x0,x0,0	  x0:0x00000000
       22845000	      2283	80001184	00000013	addi	x0,x0,0	  x0:0x00000000
       22855000	      2284	80001188	508c8e93	addi	x29,x25,1288	 x25:0xffffff82 x29=0x0000048a
       22865000	      2285	8000118c	003edfb3	srl	x31,x29,x3	 x29:0x0000048a  x3:0xfffffff6 x31=0x00000000
       22875000	      2286	80001190	07e34c93	xori	x25,x6,126	  x6:0xfffffffc x25=0xffffff82
       22885000	      2287	80001194	ffb88893	addi	x17,x17,-5	 x17:0xfffffff8 x17=0xfffffff3
       22895000	      2288	80001198	00a95013	srli	x0,x18,0xa	 x18:0xffffffff
       22905000	      2289	8000119c	00000013	addi	x0,x0,0	  x0:0x00000000
       22915000	      2290	800011a0	ff38d4e3	bge	x17,x19,80001188	 x17:0xfffffff3 x19:0xfffffff7
       22925000	      2291	800011a4	01961e93	slli	x29,x12,0x19	 x12:0x00000000 x29=0x00000000
       22935000	      2292	800011a8	40658333	sub	x6,x11,x6	 x11:0x00000000  x6:0xfffffffc  x6=0x00000004
       22945000	      2293	800011ac	fa9f06e3	beq	x30,x9,80001158	 x30:0x00000011  x9:0x00000011
       22955000	      2294	00000000	00000013	addi	x0,x0,0	  x0:0x00000000
       22965000	      2295	80001154	00000013	addi	x0,x0,0	  x0:0x00000000
       22975000	      2296	80001158	00000013	addi	x0,x0,0	  x0:0x00000000
       22985000	      2297	8000115c	00683db3	sltu	x27,x16,x6	 x16:0x03a0e174  x6:0x00000004 x27=0x00000000
       22995000	      2298	80001160	00af0f13	addi	x30,x30,10	 x30:0x00000011 x30=0x0000001b
       23005000	      2299	80001164	01d69413	slli	x8,x13,0x1d	 x13:0x00000008  x8=0x00000000
       23015000	      2300	80001168	705ce513	ori	x10,x25,1797	 x25:0xffffff82 x10=0xffffff87
       23025000	      2301	8000116c	ffd00893	addi	x17,x0,-3	  x0:0x00000000 x17=0xfffffffd
       23035000	      2302	80001170	00d91593	slli	x11,x18,0xd	 x18:0xffffffff x11=0xffffe000
       23045000	      2303	80001174	41f25593	srai	x11,x4,0x1f	  x4:0x00000001 x11=0x00000000
       23055000	      2304	80001178	83a0d817	auipc	x16,0x83a0d	 x16=0x03a0e174
       23065000	      2305	8000117c	3960fe13	andi	x28,x1,918	  x1:0xfffffb74 x28=0x00000314
       23075000	      2306	80001180	00c84833	xor	x16,x16,x12	 x16:0x03a0e174 x12:0x00000000 x16=0x03a0e174
       23085000	      2307	80001184	ff700993	addi	x19,x0,-9	  x0:0x00000000 x19=0xfffffff7
       23095000	      2308	80001188	508c8e93	addi	x29,x25,1288	 x25:0xffffff82 x29=0x0000048a
       23105000	      2309	8000118c	003edfb3	srl	x31,x29,x3	 x29:0x0000048a  x3:0xfffffff6 x31=0x00000000
       23115000	      2310	80001190	07e34c93	xori	x25,x6,126	  x6:0x00000004 x25=0x0000007a
       23125000	      2311	80001194	ffb88893	addi	x17,x17,-5	 x17:0xfffffffd x17=0xfffffff8
       23135000	      2312	80001198	00a95013	srli	x0,x18,0xa	 x18:0xffffffff
       23145000	      2313	8000119c	00000013	addi	x0,x0,0	  x0:0x00000000
       23155000	      2314	800011a0	ff38d4e3	bge	x17,x19,80001188	 x17:0xfffffff8 x19:0xfffffff7
       23165000	      2315	00000000	00000013	addi	x0,x0,0	  x0:0x00000000
       23175000	      2316	80001184	00000013	addi	x0,x0,0	  x0:0x00000000
       23185000	      2317	80001188	508c8e93	addi	x29,x25,1288	 x25:0x0000007a x29=0x00000582
       23195000	      2318	8000118c	003edfb3	srl	x31,x29,x3	 x29:0x00000582  x3:0xfffffff6 x31=0x00000000
       23205000	      2319	80001190	07e34c93	xori	x25,x6,126	  x6:0x00000004 x25=0x0000007a
       23215000	      2320	80001194	ffb88893	addi	x17,x17,-5	 x17:0xfffffff8 x17=0xfffffff3
       23225000	      2321	80001198	00a95013	srli	x0,x18,0xa	 x18:0xffffffff
       23235000	      2322	8000119c	00000013	addi	x0,x0,0	  x0:0x00000000
       23245000	      2323	800011a0	ff38d4e3	bge	x17,x19,80001188	 x17:0xfffffff3 x19:0xfffffff7
       23255000	      2324	800011a4	01961e93	slli	x29,x12,0x19	 x12:0x00000000 x29=0x00000000
       23265000	      2325	800011a8	40658333	sub	x6,x11,x6	 x11:0x00000000  x6:0x00000004  x6=0xfffffffc
       23275000	      2326	800011ac	fa9f06e3	beq	x30,x9,80001158	 x30:0x0000001b  x9:0x00000011
       23285000	      2327	800011b0	00e0eeb3	or	x29,x1,x14	  x1:0xfffffb74 x14:0x00000000 x29=0xfffffb74
       23295000	      2328	800011b4	00800193	addi	x3,x0,8	  x0:0x00000000  x3=0x00000008
       23305000	      2329	800011b8	012fb0b3	sltu	x1,x31,x18	 x31:0x00000000 x18:0xffffffff  x1=0x00000001
       23315000	      2330	800011bc	9efd3f13	sltiu	x30,x26,-1553	 x26:0x00000001 x30=0x00000001
       23325000	      2331	800011c0	de8e8d93	addi	x27,x29,-536	 x29:0xfffffb74 x27=0xfffff95c
       23335000	      2332	800011c4	00000013	addi	x0,x0,0	  x0:0x00000000
       23345000	      2333	800011c8	7afe3d13	sltiu	x26,x28,1967	 x28:0x00000314 x26=0x00000001
       23355000	      2334	800011cc	00c00c93	addi	x25,x0,12	  x0:0x00000000 x25=0x0000000c
       23365000	      2335	800011d0	27176893	ori	x17,x14,625	 x14:0x00000000 x17=0x00000271
       23375000	      2336	800011d4	40aadd13	srai	x26,x21,0xa	 x21:0x80009f20 x26=0xffe00027
       23385000	      2337	800011d8	4168deb3	sra	x29,x17,x22	 x17:0x00000271 x22:0x00000000 x29=0x00000271
       23395000	      2338	800011dc	689ece13	xori	x28,x29,1673	 x29:0x00000271 x28=0x000004f8
       23405000	      2339	800011e0	26317413	andi	x8,x2,611	  x2:0x00000008  x8=0x00000000
       23415000	      2340	800011e4	d1b12f13	slti	x30,x2,-741	  x2:0x00000008 x30=0x00000000
       23425000	      2341	800011e8	018702b3	add	x5,x14,x24	 x14:0x00000000 x24:0xffffffe5  x5=0xffffffe5
       23435000	      2342	800011ec	01879013	slli	x0,x15,0x18	 x15:0x80009fc4
       23445000	      2343	800011f0	41b2d893	srai	x17,x5,0x1b	  x5:0xffffffe5 x17=0xffffffff
       23455000	      2344	800011f4	00a18193	addi	x3,x3,10	  x3:0x00000008  x3=0x00000012
       23465000	      2345	800011f8	40a7d733	sra	x14,x15,x10	 x15:0x80009fc4 x10:0xffffff87 x14=0xff00013f
       23475000	      2346	800011fc	ff91c4e3	blt	x3,x25,800011e4	  x3:0x00000012 x25:0x0000000c
       23485000	      2347	80001200	12327e93	andi	x29,x4,291	  x4:0x00000001 x29=0x00000001
       23495000	      2348	80001204	ff700093	addi	x1,x0,-9	  x0:0x00000000  x1=0xfffffff7
       23505000	      2349	80001208	00200393	addi	x7,x0,2	  x0:0x00000000  x7=0x00000002
       23515000	      2350	8000120c	df724213	xori	x4,x4,-521	  x4:0x00000001  x4=0xfffffdf6
       23525000	      2351	80001210	0004e933	or	x18,x9,x0	  x9:0x00000011  x0:0x00000000 x18=0x00000011
       23535000	      2352	80001214	00808093	addi	x1,x1,8	  x1:0xfffffff7  x1=0xffffffff
       23545000	      2353	80001218	ff600c13	addi	x24,x0,-10	  x0:0x00000000 x24=0xfffffff6
       23555000	      2354	8000121c	00d00513	addi	x10,x0,13	  x0:0x00000000 x10=0x0000000d
       23565000	      2355	80001220	00ed6eb3	or	x29,x26,x14	 x26:0xffe00027 x14:0xff00013f x29=0xffe0013f
       23575000	      2356	80001224	01164a33	xor	x20,x12,x17	 x12:0x00000000 x17:0xffffffff x20=0xffffffff
       23585000	      2357	80001228	008c0c13	addi	x24,x24,8	 x24:0xfffffff6 x24=0xfffffffe
       23595000	      2358	8000122c	feac4ce3	blt	x24,x10,80001224	 x24:0xfffffffe x10:0x0000000d
       23605000	      2359	00000000	00000013	addi	x0,x0,0	  x0:0x00000000
       23615000	      2360	80001220	00000013	addi	x0,x0,0	  x0:0x00000000
       23625000	      2361	80001224	01164a33	xor	x20,x12,x17	 x12:0x00000000 x17:0xffffffff x20=0xffffffff
       23635000	      2362	80001228	008c0c13	addi	x24,x24,8	 x24:0xfffffffe x24=0x00000006
       23645000	      2363	8000122c	feac4ce3	blt	x24,x10,80001224	 x24:0x00000006 x10:0x0000000d
       23655000	      2364	00000000	00000013	addi	x0,x0,0	  x0:0x00000000
       23665000	      2365	80001220	00000013	addi	x0,x0,0	  x0:0x00000000
       23675000	      2366	80001224	01164a33	xor	x20,x12,x17	 x12:0x00000000 x17:0xffffffff x20=0xffffffff
       23685000	      2367	80001228	008c0c13	addi	x24,x24,8	 x24:0x00000006 x24=0x0000000e
       23695000	      2368	8000122c	feac4ce3	blt	x24,x10,80001224	 x24:0x0000000e x10:0x0000000d
       23705000	      2369	80001230	fc70cee3	blt	x1,x7,8000120c	  x1:0xffffffff  x7:0x00000002
       23715000	      2370	00000000	00000013	addi	x0,x0,0	  x0:0x00000000
       23725000	      2371	80001208	00000013	addi	x0,x0,0	  x0:0x00000000
       23735000	      2372	8000120c	df724213	xori	x4,x4,-521	  x4:0xfffffdf6  x4=0x00000001
       23745000	      2373	80001210	0004e933	or	x18,x9,x0	  x9:0x00000011  x0:0x00000000 x18=0x00000011
       23755000	      2374	80001214	00808093	addi	x1,x1,8	  x1:0xffffffff  x1=0x00000007
       23765000	      2375	80001218	ff600c13	addi	x24,x0,-10	  x0:0x00000000 x24=0xfffffff6
       23775000	      2376	8000121c	00d00513	addi	x10,x0,13	  x0:0x00000000 x10=0x0000000d
       23785000	      2377	80001220	00ed6eb3	or	x29,x26,x14	 x26:0xffe00027 x14:0xff00013f x29=0xffe0013f
       23795000	      2378	80001224	01164a33	xor	x20,x12,x17	 x12:0x00000000 x17:0xffffffff x20=0xffffffff
       23805000	      2379	80001228	008c0c13	addi	x24,x24,8	 x24:0xfffffff6 x24=0xfffffffe
       23815000	      2380	8000122c	feac4ce3	blt	x24,x10,80001224	 x24:0xfffffffe x10:0x0000000d
       23825000	      2381	00000000	00000013	addi	x0,x0,0	  x0:0x00000000
       23835000	      2382	80001220	00000013	addi	x0,x0,0	  x0:0x00000000
       23845000	      2383	80001224	01164a33	xor	x20,x12,x17	 x12:0x00000000 x17:0xffffffff x20=0xffffffff
       23855000	      2384	80001228	008c0c13	addi	x24,x24,8	 x24:0xfffffffe x24=0x00000006
       23865000	      2385	8000122c	feac4ce3	blt	x24,x10,80001224	 x24:0x00000006 x10:0x0000000d
       23875000	      2386	00000000	00000013	addi	x0,x0,0	  x0:0x00000000
       23885000	      2387	80001220	00000013	addi	x0,x0,0	  x0:0x00000000
       23895000	      2388	80001224	01164a33	xor	x20,x12,x17	 x12:0x00000000 x17:0xffffffff x20=0xffffffff
       23905000	      2389	80001228	008c0c13	addi	x24,x24,8	 x24:0x00000006 x24=0x0000000e
       23915000	      2390	8000122c	feac4ce3	blt	x24,x10,80001224	 x24:0x0000000e x10:0x0000000d
       23925000	      2391	80001230	fc70cee3	blt	x1,x7,8000120c	  x1:0x00000007  x7:0x00000002
       23935000	      2392	80001234	0075bbb3	sltu	x23,x11,x7	 x11:0x00000000  x7:0x00000002 x23=0x00000001
       23945000	      2393	80001238	00a00613	addi	x12,x0,10	  x0:0x00000000 x12=0x0000000a
       23955000	      2394	8000123c	401e02b3	sub	x5,x28,x1	 x28:0x000004f8  x1:0x00000007  x5=0x000004f1
       23965000	      2395	80001240	b5114a17	auipc	x20,0xb5114	 x20=0x3511523c
       23975000	      2396	80001244	01300b93	addi	x23,x0,19	  x0:0x00000000 x23=0x00000013
       23985000	      2397	80001248	01198f33	add	x30,x19,x17	 x19:0xfffffff7 x17:0xffffffff x30=0xfffffff6
       23995000	      2398	8000124c	40368133	sub	x2,x13,x3	 x13:0x00000008  x3:0x00000012  x2=0xfffffff6
       24005000	      2399	80001250	0022bdb3	sltu	x27,x5,x2	  x5:0x000004f1  x2:0xfffffff6 x27=0x00000001
       24015000	      2400	80001254	00660613	addi	x12,x12,6	 x12:0x0000000a x12=0x00000010
       24025000	      2401	80001258	ff764ae3	blt	x12,x23,8000124c	 x12:0x00000010 x23:0x00000013
       24035000	      2402	00000000	00000013	addi	x0,x0,0	  x0:0x00000000
       24045000	      2403	80001248	00000013	addi	x0,x0,0	  x0:0x00000000
       24055000	      2404	8000124c	40368133	sub	x2,x13,x3	 x13:0x00000008  x3:0x00000012  x2=0xfffffff6
       24065000	      2405	80001250	0022bdb3	sltu	x27,x5,x2	  x5:0x000004f1  x2:0xfffffff6 x27=0x00000001
       24075000	      2406	80001254	00660613	addi	x12,x12,6	 x12:0x00000010 x12=0x00000016
       24085000	      2407	80001258	ff764ae3	blt	x12,x23,8000124c	 x12:0x00000016 x23:0x00000013
       24095000	      2408	8000125c	11f3ff13	andi	x30,x7,287	  x7:0x00000002 x30=0x00000002
       24105000	      2409	80001260	00700293	addi	x5,x0,7	  x0:0x00000000  x5=0x00000007
       24115000	      2410	80001264	ce914413	xori	x8,x2,-791	  x2:0xfffffff6  x8=0x0000031f
       24125000	      2411	80001268	00400513	addi	x10,x0,4	  x0:0x00000000 x10=0x00000004
       24135000	      2412	8000126c	400b5733	sra	x14,x22,x0	 x22:0x00000000  x0:0x00000000 x14=0x00000000
       24145000	      2413	80001270	b92a3213	sltiu	x4,x20,-1134	 x20:0x3511523c  x4=0x00000001
       24155000	      2414	80001274	ffd28293	addi	x5,x5,-3	  x5:0x00000007  x5=0x00000004
       24165000	      2415	80001278	416be237	lui	x4,0x416be	  x4=0x416be000
       24175000	      2416	8000127c	41ff8a33	sub	x20,x31,x31	 x31:0x00000000 x31:0x00000000 x20=0x00000000
       24185000	      2417	80001280	ff600093	addi	x1,x0,-10	  x0:0x00000000  x1=0xfffffff6
       24195000	      2418	80001284	01a10eb3	add	x29,x2,x26	  x2:0xfffffff6 x26:0xffe00027 x29=0xffe0001d
       24205000	      2419	80001288	6a334d93	xori	x27,x6,1699	  x6:0xfffffffc x27=0xfffff95f
       24215000	      2420	8000128c	00600813	addi	x16,x0,6	  x0:0x00000000 x16=0x00000006
       24225000	      2421	80001290	01119a13	slli	x20,x3,0x11	  x3:0x00000012 x20=0x00240000
       24235000	      2422	80001294	400cd593	srai	x11,x25,0x0	 x25:0x0000000c x11=0x0000000c
       24245000	      2423	80001298	a98a7e93	andi	x29,x20,-1384	 x20:0x00240000 x29=0x00240000
       24255000	      2424	8000129c	00508093	addi	x1,x1,5	  x1:0xfffffff6  x1=0xfffffffb
       24265000	      2425	800012a0	003ad1b3	srl	x3,x21,x3	 x21:0x80009f20  x3:0x00000012  x3=0x00002000
       24275000	      2426	800012a4	ff00eae3	bltu	x1,x16,80001298	  x1:0xfffffffb x16:0x00000006
       24285000	      2427	800012a8	014126b3	slt	x13,x2,x20	  x2:0xfffffff6 x20:0x00240000 x13=0x00000001
       24295000	      2428	800012ac	fca2f2e3	bgeu	x5,x10,80001270	  x5:0x00000004 x10:0x00000004
       24305000	      2429	00000000	00000013	addi	x0,x0,0	  x0:0x00000000
       24315000	      2430	8000126c	00000013	addi	x0,x0,0	  x0:0x00000000
       24325000	      2431	80001270	b92a3213	sltiu	x4,x20,-1134	 x20:0x00240000  x4=0x00000001
       24335000	      2432	80001274	ffd28293	addi	x5,x5,-3	  x5:0x00000004  x5=0x00000001
       24345000	      2433	80001278	416be237	lui	x4,0x416be	  x4=0x416be000
       24355000	      2434	8000127c	41ff8a33	sub	x20,x31,x31	 x31:0x00000000 x31:0x00000000 x20=0x00000000
       24365000	      2435	80001280	ff600093	addi	x1,x0,-10	  x0:0x00000000  x1=0xfffffff6
       24375000	      2436	80001284	01a10eb3	add	x29,x2,x26	  x2:0xfffffff6 x26:0xffe00027 x29=0xffe0001d
       24385000	      2437	80001288	6a334d93	xori	x27,x6,1699	  x6:0xfffffffc x27=0xfffff95f
       24395000	      2438	8000128c	00600813	addi	x16,x0,6	  x0:0x00000000 x16=0x00000006
       24405000	      2439	80001290	01119a13	slli	x20,x3,0x11	  x3:0x00002000 x20=0x40000000
       24415000	      2440	80001294	400cd593	srai	x11,x25,0x0	 x25:0x0000000c x11=0x0000000c
       24425000	      2441	80001298	a98a7e93	andi	x29,x20,-1384	 x20:0x40000000 x29=0x40000000
       24435000	      2442	8000129c	00508093	addi	x1,x1,5	  x1:0xfffffff6  x1=0xfffffffb
       24445000	      2443	800012a0	003ad1b3	srl	x3,x21,x3	 x21:0x80009f20  x3:0x00002000  x3=0x80009f20
       24455000	      2444	800012a4	ff00eae3	bltu	x1,x16,80001298	  x1:0xfffffffb x16:0x00000006
       24465000	      2445	800012a8	014126b3	slt	x13,x2,x20	  x2:0xfffffff6 x20:0x40000000 x13=0x00000001
       24475000	      2446	800012ac	fca2f2e3	bgeu	x5,x10,80001270	  x5:0x00000001 x10:0x00000004
       24485000	      2447	800012b0	00bda333	slt	x6,x27,x11	 x27:0xfffff95f x11:0x0000000c  x6=0x00000001
       24495000	      2448	800012b4	016e2333	slt	x6,x28,x22	 x28:0x000004f8 x22:0x00000000  x6=0x00000000
       24505000	      2449	800012b8	414ddbb3	sra	x23,x27,x20	 x27:0xfffff95f x20:0x40000000 x23=0xfffff95f
       24515000	      2450	800012bc	40380033	sub	x0,x16,x3	 x16:0x00000006  x3:0x80009f20
       24525000	      2451	800012c0	8dc8a813	slti	x16,x17,-1828	 x17:0xffffffff x16=0x00000000
       24535000	      2452	800012c4	06859a63	bne	x11,x8,80001338	 x11:0x0000000c  x8:0x0000031f
       24545000	      2453	00000000	00000013	addi	x0,x0,0	  x0:0x00000000
       24555000	      2454	80001334	00000013	addi	x0,x0,0	  x0:0x00000000
       24565000	      2455	80001338	12a56013	ori	x0,x10,298	 x10:0x00000004
       24575000	      2456	8000133c	41ba8433	sub	x8,x21,x27	 x21:0x80009f20 x27:0xfffff95f  x8=0x8000a5c1
       24585000	      2457	80001340	401ad813	srai	x16,x21,0x1	 x21:0x80009f20 x16=0xc0004f90
       24595000	      2458	80001344	a3558913	addi	x18,x11,-1483	 x11:0x0000000c x18=0xfffffa41
       24605000	      2459	80001348	1a2b3893	sltiu	x17,x22,418	 x22:0x00000000 x17=0x00000001
       24615000	      2460	8000134c	14a6f993	andi	x19,x13,330	 x13:0x00000001 x19=0x00000000
       24625000	      2461	80001350	cfd9ff13	andi	x30,x19,-771	 x19:0x00000000 x30=0x00000000
       24635000	      2462	80001354	a0197493	andi	x9,x18,-1535	 x18:0xfffffa41  x9=0xfffffa01
       24645000	      2463	80001358	02df1663	bne	x30,x13,80001384	 x30:0x00000000 x13:0x00000001
       24655000	      2464	00000000	00000013	addi	x0,x0,0	  x0:0x00000000
       24665000	      2465	80001380	00000013	addi	x0,x0,0	  x0:0x00000000
       24675000	      2466	80001384	00000013	addi	x0,x0,0	  x0:0x00000000
       24685000	      2467	80001388	75782693	slti	x13,x16,1879	 x16:0xc0004f90 x13=0x00000001
       24695000	      2468	8000138c	00757533	and	x10,x10,x7	 x10:0x00000004  x7:0x00000002 x10=0x00000000
       24705000	      2469	80001390	00100f13	addi	x30,x0,1	  x0:0x00000000 x30=0x00000001
       24715000	      2470	80001394	62679197	auipc	x3,0x62679	  x3=0xe267a390
       24725000	      2471	80001398	01384db3	xor	x27,x16,x19	 x16:0xc0004f90 x19:0x00000000 x27=0xc0004f90
       24735000	      2472	8000139c	01100593	addi	x11,x0,17	  x0:0x00000000 x11=0x00000011
       24745000	      2473	800013a0	017a8933	add	x18,x21,x23	 x21:0x80009f20 x23:0xfffff95f x18=0x8000987f
       24755000	      2474	800013a4	009f0f13	addi	x30,x30,9	 x30:0x00000001 x30=0x0000000a
       24765000	      2475	800013a8	1c398a13	addi	x20,x19,451	 x19:0x00000000 x20=0x000001c3
       24775000	      2476	800013ac	41f084b3	sub	x9,x1,x31	  x1:0xfffffffb x31:0x00000000  x9=0xfffffffb
       24785000	      2477	800013b0	010e16b3	sll	x13,x28,x16	 x28:0x000004f8 x16:0xc0004f90 x13=0x04f80000
       24795000	      2478	800013b4	4164d333	sra	x6,x9,x22	  x9:0xfffffffb x22:0x00000000  x6=0xfffffffb
       24805000	      2479	800013b8	40ff5c33	sra	x24,x30,x15	 x30:0x0000000a x15:0x80009fc4 x24=0x00000000
       24815000	      2480	800013bc	011d8db3	add	x27,x27,x17	 x27:0xc0004f90 x17:0x00000001 x27=0xc0004f91
       24825000	      2481	800013c0	febf60e3	bltu	x30,x11,800013a0	 x30:0x0000000a x11:0x00000011
       24835000	      2482	00000000	00000013	addi	x0,x0,0	  x0:0x00000000
       24845000	      2483	8000139c	00000013	addi	x0,x0,0	  x0:0x00000000
       24855000	      2484	800013a0	017a8933	add	x18,x21,x23	 x21:0x80009f20 x23:0xfffff95f x18=0x8000987f
       24865000	      2485	800013a4	009f0f13	addi	x30,x30,9	 x30:0x0000000a x30=0x00000013
       24875000	      2486	800013a8	1c398a13	addi	x20,x19,451	 x19:0x00000000 x20=0x000001c3
       24885000	      2487	800013ac	41f084b3	sub	x9,x1,x31	  x1:0xfffffffb x31:0x00000000  x9=0xfffffffb
       24895000	      2488	800013b0	010e16b3	sll	x13,x28,x16	 x28:0x000004f8 x16:0xc0004f90 x13=0x04f80000
       24905000	      2489	800013b4	4164d333	sra	x6,x9,x22	  x9:0xfffffffb x22:0x00000000  x6=0xfffffffb
       24915000	      2490	800013b8	40ff5c33	sra	x24,x30,x15	 x30:0x00000013 x15:0x80009fc4 x24=0x00000001
       24925000	      2491	800013bc	011d8db3	add	x27,x27,x17	 x27:0xc0004f91 x17:0x00000001 x27=0xc0004f92
       24935000	      2492	800013c0	febf60e3	bltu	x30,x11,800013a0	 x30:0x00000013 x11:0x00000011
       24945000	      2493	800013c4	a65a4293	xori	x5,x20,-1435	 x20:0x000001c3  x5=0xfffffba6
       24955000	      2494	800013c8	dc4e7513	andi	x10,x28,-572	 x28:0x000004f8 x10=0x000004c0
       24965000	      2495	800013cc	008a1f93	slli	x31,x20,0x8	 x20:0x000001c3 x31=0x0001c300
       24975000	      2496	800013d0	01c39033	sll	x0,x7,x28	  x7:0x00000002 x28:0x000004f8
       24985000	      2497	800013d4	01399e33	sll	x28,x19,x19	 x19:0x00000000 x19:0x00000000 x28=0x00000000
       24995000	      2498	800013d8	014c00b3	add	x1,x24,x20	 x24:0x00000001 x20:0x000001c3  x1=0x000001c4
       25005000	      2499	800013dc	00493433	sltu	x8,x18,x4	 x18:0x8000987f  x4:0x416be000  x8=0x00000000
       25015000	      2500	800013e0	3e059a17	auipc	x20,0x3e059	 x20=0xbe05a3dc
       25025000	      2501	800013e4	00e21d13	slli	x26,x4,0xe	  x4:0x416be000 x26=0xf8000000
       25035000	      2502	800013e8	0320fa63	bgeu	x1,x18,8000141c	  x1:0x000001c4 x18:0x8000987f
       25045000	      2503	800013ec	01accdb3	xor	x27,x25,x26	 x25:0x0000000c x26:0xf8000000 x27=0xf800000c
       25055000	      2504	800013f0	01bab633	sltu	x12,x21,x27	 x21:0x80009f20 x27:0xf800000c x12=0x00000001
       25065000	      2505	800013f4	00000013	addi	x0,x0,0	  x0:0x00000000
       25075000	      2506	800013f8	48aaf513	andi	x10,x21,1162	 x21:0x80009f20 x10=0x00000400
       25085000	      2507	800013fc	017a1333	sll	x6,x20,x23	 x20:0xbe05a3dc x23:0xfffff95f  x6=0x00000000
       25095000	      2508	80001400	9bbe6997	auipc	x19,0x9bbe6	 x19=0x1bbe73fc
       25105000	      2509	80001404	018e60b3	or	x1,x28,x24	 x28:0x00000000 x24:0x00000001  x1=0x00000001
       25115000	      2510	80001408	0295d863	bge	x11,x9,80001438	 x11:0x00000011  x9:0xfffffffb
       25125000	      2511	00000000	00000013	addi	x0,x0,0	  x0:0x00000000
       25135000	      2512	80001434	00000013	addi	x0,x0,0	  x0:0x00000000
       25145000	      2513	80001438	01e9e533	or	x10,x19,x30	 x19:0x1bbe73fc x30:0x00000013 x10=0x1bbe73ff
       25155000	      2514	8000143c	406d8033	sub	x0,x27,x6	 x27:0xf800000c  x6:0x00000000
       25165000	      2515	80001440	6a860e93	addi	x29,x12,1704	 x12:0x00000001 x29=0x000006a9
       25175000	      2516	80001444	000628b3	slt	x17,x12,x0	 x12:0x00000001  x0:0x00000000 x17=0x00000000
       25185000	      2517	80001448	0181ca63	blt	x3,x24,8000145c	  x3:0xe267a390 x24:0x00000001
       25195000	      2518	00000000	00000013	addi	x0,x0,0	  x0:0x00000000
       25205000	      2519	80001458	00000013	addi	x0,x0,0	  x0:0x00000000
       25215000	      2520	8000145c	000301b3	add	x3,x6,x0	  x6:0x00000000  x0:0x00000000  x3=0x00000000
       25225000	      2521	80001460	00900933	add	x18,x0,x9	  x0:0x00000000  x9:0xfffffffb x18=0xfffffffb
       25235000	      2522	80001464	66b47513	andi	x10,x8,1643	  x8:0x00000000 x10=0x00000000
       25245000	      2523	80001468	8cc9f393	andi	x7,x19,-1844	 x19:0x1bbe73fc  x7=0x1bbe70cc
       25255000	      2524	8000146c	af03f813	andi	x16,x7,-1296	  x7:0x1bbe70cc x16=0x1bbe70c0
       25265000	      2525	80001470	da4c4113	xori	x2,x24,-604	 x24:0x00000001  x2=0xfffffda5
       25275000	      2526	80001474	01a22933	slt	x18,x4,x26	  x4:0x416be000 x26:0xf8000000 x18=0x00000000
       25285000	      2527	80001478	02b76263	bltu	x14,x11,8000149c	 x14:0x00000000 x11:0x00000011
       25295000	      2528	00000000	00000013	addi	x0,x0,0	  x0:0x00000000
       25305000	      2529	80001498	00000013	addi	x0,x0,0	  x0:0x00000000
       25315000	      2530	8000149c	05909863	bne	x1,x25,800014ec	  x1:0x00000001 x25:0x0000000c
       25325000	      2531	00000000	00000013	addi	x0,x0,0	  x0:0x00000000
       25335000	      2532	800014e8	00000013	addi	x0,x0,0	  x0:0x00000000
       25345000	      2533	800014ec	40afd4b3	sra	x9,x31,x10	 x31:0x0001c300 x10:0x00000000  x9=0x0001c300
       25355000	      2534	800014f0	40f95db3	sra	x27,x18,x15	 x18:0x00000000 x15:0x80009fc4 x27=0x00000000
       25365000	      2535	800014f4	0189de33	srl	x28,x19,x24	 x19:0x1bbe73fc x24:0x00000001 x28=0x0ddf39fe
       25375000	      2536	800014f8	00a31933	sll	x18,x6,x10	  x6:0x00000000 x10:0x00000000 x18=0x00000000
       25385000	      2537	800014fc	012e4e63	blt	x28,x18,80001518	 x28:0x0ddf39fe x18:0x00000000
       25395000	      2538	80001500	042e9863	bne	x29,x2,80001550	 x29:0x000006a9  x2:0xfffffda5
       25405000	      2539	00000000	00000013	addi	x0,x0,0	  x0:0x00000000
       25415000	      2540	8000154c	00000013	addi	x0,x0,0	  x0:0x00000000
       25425000	      2541	80001550	01f23cb3	sltu	x25,x4,x31	  x4:0x416be000 x31:0x0001c300 x25=0x00000000
       25435000	      2542	80001554	ecdda613	slti	x12,x27,-307	 x27:0x00000000 x12=0x00000000
       25445000	      2543	80001558	01846db3	or	x27,x8,x24	  x8:0x00000000 x24:0x00000001 x27=0x00000001
       25455000	      2544	8000155c	0102c033	xor	x0,x5,x16	  x5:0xfffffba6 x16:0x1bbe70c0
       25465000	      2545	80001560	01745c63	bge	x8,x23,80001578	  x8:0x00000000 x23:0xfffff95f
       25475000	      2546	00000000	00000013	addi	x0,x0,0	  x0:0x00000000
       25485000	      2547	80001574	00000013	addi	x0,x0,0	  x0:0x00000000
       25495000	      2548	80001578	00639c63	bne	x7,x6,80001590	  x7:0x1bbe70cc  x6:0x00000000
       25505000	      2549	00000000	00000013	addi	x0,x0,0	  x0:0x00000000
       25515000	      2550	8000158c	00000013	addi	x0,x0,0	  x0:0x00000000
       25525000	      2551	80001590	01c28233	add	x4,x5,x28	  x5:0xfffffba6 x28:0x0ddf39fe  x4=0x0ddf35a4
       25535000	      2552	80001594	023f5e63	bge	x30,x3,800015d0	 x30:0x00000013  x3:0x00000000
       25545000	      2553	00000000	00000013	addi	x0,x0,0	  x0:0x00000000
       25555000	      2554	800015cc	00000013	addi	x0,x0,0	  x0:0x00000000
       25565000	      2555	800015d0	00000013	addi	x0,x0,0	  x0:0x00000000
       25575000	      2556	800015d4	20870613	addi	x12,x14,520	 x14:0x00000000 x12=0x00000208
       25585000	      2557	800015d8	00f79693	slli	x13,x15,0xf	 x15:0x80009fc4 x13=0x4fe20000
       25595000	      2558	800015dc	190cc693	xori	x13,x25,400	 x25:0x00000000 x13=0x00000190
       25605000	      2559	800015e0	d748c217	auipc	x4,0xd748c	  x4=0x5748d5dc
       25615000	      2560	800015e4	009304b3	add	x9,x6,x9	  x6:0x00000000  x9:0x0001c300  x9=0x0001c300
       25625000	      2561	800015e8	00be9713	slli	x14,x29,0xb	 x29:0x000006a9 x14=0x00354800
       25635000	      2562	800015ec	00075c63	bge	x14,x0,80001604	 x14:0x00354800  x0:0x00000000
       25645000	      2563	00000000	00000013	addi	x0,x0,0	  x0:0x00000000
       25655000	      2564	80001600	00000013	addi	x0,x0,0	  x0:0x00000000
       25665000	      2565	80001604	7c654f93	xori	x31,x10,1990	 x10:0x00000000 x31=0x000007c6
       25675000	      2566	80001608	002afeb3	and	x29,x21,x2	 x21:0x80009f20  x2:0xfffffda5 x29=0x80009d20
       25685000	      2567	8000160c	006133b3	sltu	x7,x2,x6	  x2:0xfffffda5  x6:0x00000000  x7=0x00000000
       25695000	      2568	80001610	008af933	and	x18,x21,x8	 x21:0x80009f20  x8:0x00000000 x18=0x00000000
       25705000	      2569	80001614	ffa9b693	sltiu	x13,x19,-6	 x19:0x1bbe73fc x13=0x00000001
       25715000	      2570	80001618	160c2093	slti	x1,x24,352	 x24:0x00000001  x1=0x00000001
       25725000	      2571	8000161c	41addb93	srai	x23,x27,0x1a	 x27:0x00000001 x23=0x00000000
       25735000	      2572	80001620	01040463	beq	x8,x16,80001628	  x8:0x00000000 x16:0x1bbe70c0
       25745000	      2573	80001624	01e25a13	srli	x20,x4,0x1e	  x4:0x5748d5dc x20=0x00000001
       25755000	      2574	80001628	01bfac33	slt	x24,x31,x27	 x31:0x000007c6 x27:0x00000001 x24=0x00000000
       25765000	      2575	8000162c	018aa633	slt	x12,x21,x24	 x21:0x80009f20 x24:0x00000000 x12=0x00000001
       25775000	      2576	80001630	3ef96713	ori	x14,x18,1007	 x18:0x00000000 x14=0x000003ef
       25785000	      2577	80001634	0424d863	bge	x9,x2,80001684	  x9:0x0001c300  x2:0xfffffda5
       25795000	      2578	00000000	00000013	addi	x0,x0,0	  x0:0x00000000
       25805000	      2579	80001680	00000013	addi	x0,x0,0	  x0:0x00000000
       25815000	      2580	80001684	001f03b3	add	x7,x30,x1	 x30:0x00000013  x1:0x00000001  x7=0x00000014
       25825000	      2581	80001688	01c72eb3	slt	x29,x14,x28	 x14:0x000003ef x28:0x0ddf39fe x29=0x00000001
       25835000	      2582	8000168c	26963d93	sltiu	x27,x12,617	 x12:0x00000001 x27=0x00000001
       25845000	      2583	80001690	403b5893	srai	x17,x22,0x3	 x22:0x00000000 x17=0x00000000
       25855000	      2584	80001694	00001d93	slli	x27,x0,0x0	  x0:0x00000000 x27=0x00000000
       25865000	      2585	80001698	94f5f613	andi	x12,x11,-1713	 x11:0x00000011 x12=0x00000001
       25875000	      2586	8000169c	022c6263	bltu	x24,x2,800016c0	 x24:0x00000000  x2:0xfffffda5
       25885000	      2587	00000000	00000013	addi	x0,x0,0	  x0:0x00000000
       25895000	      2588	800016bc	00000013	addi	x0,x0,0	  x0:0x00000000
       25905000	      2589	800016c0	ac377017	auipc	x0,0xac377	
       25915000	      2590	800016c4	7b55cb93	xori	x23,x11,1973	 x11:0x00000011 x23=0x000007a4
       25925000	      2591	800016c8	aadfb893	sltiu	x17,x31,-1363	 x31:0x000007c6 x17=0x00000001
       25935000	      2592	800016cc	03939863	bne	x7,x25,800016fc	  x7:0x00000014 x25:0x00000000
       25945000	      2593	00000000	00000013	addi	x0,x0,0	  x0:0x00000000
       25955000	      2594	800016f8	00000013	addi	x0,x0,0	  x0:0x00000000
       25965000	      2595	800016fc	8abd2813	slti	x16,x26,-1877	 x26:0xf8000000 x16=0x00000001
       25975000	      2596	80001700	016f3233	sltu	x4,x30,x22	 x30:0x00000013 x22:0x00000000  x4=0x00000000
       25985000	      2597	80001704	00e18863	beq	x3,x14,80001714	  x3:0x00000000 x14:0x000003ef
       25995000	      2598	80001708	0154acb3	slt	x25,x9,x21	  x9:0x0001c300 x21:0x80009f20 x25=0x00000000
       26005000	      2599	8000170c	4134d033	sra	x0,x9,x19	  x9:0x0001c300 x19:0x1bbe73fc
       26015000	      2600	80001710	00049333	sll	x6,x9,x0	  x9:0x0001c300  x0:0x00000000  x6=0x0001c300
       26025000	      2601	80001714	857ebd17	auipc	x26,0x857eb	 x26=0x057ec710
       26035000	      2602	80001718	00452833	slt	x16,x10,x4	 x10:0x00000000  x4:0x00000000 x16=0x00000000
       26045000	      2603	8000171c	4052dd33	sra	x26,x5,x5	  x5:0xfffffba6  x5:0xfffffba6 x26=0xffffffee
       26055000	      2604	80001720	00000013	addi	x0,x0,0	  x0:0x00000000
       26065000	      2605	80001724	01a18863	beq	x3,x26,80001734	  x3:0x00000000 x26:0xffffffee
       26075000	      2606	80001728	94cf3593	sltiu	x11,x30,-1716	 x30:0x00000013 x11=0x00000001
       26085000	      2607	8000172c	355ccf93	xori	x31,x25,853	 x25:0x00000000 x31=0x00000355
       26095000	      2608	80001730	f2625a17	auipc	x20,0xf2625	 x20=0x7262672c
       26105000	      2609	80001734	97873337	lui	x6,0x97873	  x6=0x97873000
       26115000	      2610	80001738	009528b3	slt	x17,x10,x9	 x10:0x00000000  x9:0x0001c300 x17=0x00000001
       26125000	      2611	8000173c	0059ca63	blt	x19,x5,80001750	 x19:0x1bbe73fc  x5:0xfffffba6
       26135000	      2612	80001740	001dc8b3	xor	x17,x27,x1	 x27:0x00000000  x1:0x00000001 x17=0x00000001
       26145000	      2613	80001744	414c8733	sub	x14,x25,x20	 x25:0x00000000 x20:0x7262672c x14=0x8d9d98d4
       26155000	      2614	80001748	01182733	slt	x14,x16,x17	 x16:0x00000000 x17:0x00000001 x14=0x00000001
       26165000	      2615	8000174c	016fe613	ori	x12,x31,22	 x31:0x00000355 x12=0x00000357
       26175000	      2616	80001750	00000013	addi	x0,x0,0	  x0:0x00000000
       26185000	      2617	80001754	77ea8393	addi	x7,x21,1918	 x21:0x80009f20  x7=0x8000a69e
       26195000	      2618	80001758	01fc1413	slli	x8,x24,0x1f	 x24:0x00000000  x8=0x00000000
       26205000	      2619	8000175c	0024ffb3	and	x31,x9,x2	  x9:0x0001c300  x2:0xfffffda5 x31=0x0001c100
       26215000	      2620	80001760	00ca7463	bgeu	x20,x12,80001768	 x20:0x7262672c x12:0x00000357
       26225000	      2621	00000000	00000013	addi	x0,x0,0	  x0:0x00000000
       26235000	      2622	80001764	00000013	addi	x0,x0,0	  x0:0x00000000
       26245000	      2623	80001768	03200863	beq	x0,x18,80001798	  x0:0x00000000 x18:0x00000000
       26255000	      2624	00000000	00000013	addi	x0,x0,0	  x0:0x00000000
       26265000	      2625	80001794	00000013	addi	x0,x0,0	  x0:0x00000000
       26275000	      2626	80001798	00000013	addi	x0,x0,0	  x0:0x00000000
       26285000	      2627	8000179c	00a7f4b3	and	x9,x15,x10	 x15:0x80009fc4 x10:0x00000000  x9=0x00000000
       26295000	      2628	800017a0	01aafa33	and	x20,x21,x26	 x21:0x80009f20 x26:0xffffffee x20=0x80009f20
       26305000	      2629	800017a4	fcea8993	addi	x19,x21,-50	 x21:0x80009f20 x19=0x80009eee
       26315000	      2630	800017a8	020f4263	blt	x30,x0,800017cc	 x30:0x00000013  x0:0x00000000
       26325000	      2631	800017ac	01f45d33	srl	x26,x8,x31	  x8:0x00000000 x31:0x0001c100 x26=0x00000000
       26335000	      2632	800017b0	04fa7263	bgeu	x20,x15,800017f4	 x20:0x80009f20 x15:0x80009fc4
       26345000	      2633	800017b4	053a5863	bge	x20,x19,80001804	 x20:0x80009f20 x19:0x80009eee
       26355000	      2634	00000000	00000013	addi	x0,x0,0	  x0:0x00000000
       26365000	      2635	80001800	00000013	addi	x0,x0,0	  x0:0x00000000
       26375000	      2636	80001804	04744063	blt	x8,x7,80001844	  x8:0x00000000  x7:0x8000a69e
       26385000	      2637	80001808	60c13f97	auipc	x31,0x60c13	 x31=0xe0c14804
       26395000	      2638	8000180c	011dec33	or	x24,x27,x17	 x27:0x00000000 x17:0x00000001 x24=0x00000001
       26405000	      2639	80001810	042c4863	blt	x24,x2,80001860	 x24:0x00000001  x2:0xfffffda5
       26415000	      2640	80001814	194e4917	auipc	x18,0x194e4	 x18=0x994e5810
       26425000	      2641	80001818	011b73b3	and	x7,x22,x17	 x22:0x00000000 x17:0x00000001  x7=0x00000000
       26435000	      2642	8000181c	8914e513	ori	x10,x9,-1903	  x9:0x00000000 x10=0xfffff891
       26445000	      2643	80001820	3551b097	auipc	x1,0x3551b	  x1=0xb551c81c
       26455000	      2644	80001824	3d24fe37	lui	x28,0x3d24f	 x28=0x3d24f000
       26465000	      2645	80001828	40280f33	sub	x30,x16,x2	 x16:0x00000000  x2:0xfffffda5 x30=0x0000025b
       26475000	      2646	8000182c	404cdc93	srai	x25,x25,0x4	 x25:0x00000000 x25=0x00000000
       26485000	      2647	80001830	15e08393	addi	x7,x1,350	  x1:0xb551c81c  x7=0xb551c97a
       26495000	      2648	80001834	00cf9613	slli	x12,x31,0xc	 x31:0xe0c14804 x12=0x14804000
       26505000	      2649	80001838	0184e263	bltu	x9,x24,8000183c	  x9:0x00000000 x24:0x00000001
       26515000	      2650	00000000	00000013	addi	x0,x0,0	  x0:0x00000000
       26525000	      2651	80001838	00000013	addi	x0,x0,0	  x0:0x00000000
       26535000	      2652	8000183c	00fb6fb3	or	x31,x22,x15	 x22:0x00000000 x15:0x80009fc4 x31=0x80009fc4
       26545000	      2653	80001840	01f50863	beq	x10,x31,80001850	 x10:0xfffff891 x31:0x80009fc4
       26555000	      2654	80001844	3df94513	xori	x10,x18,991	 x18:0x994e5810 x10=0x994e5bcf
       26565000	      2655	80001848	00da8933	add	x18,x21,x13	 x21:0x80009f20 x13:0x00000001 x18=0x80009f21
       26575000	      2656	8000184c	014d02b3	add	x5,x26,x20	 x26:0x00000000 x20:0x80009f20  x5=0x80009f20
       26585000	      2657	80001850	99177293	andi	x5,x14,-1647	 x14:0x00000001  x5=0x00000001
       26595000	      2658	80001854	00000013	addi	x0,x0,0	  x0:0x00000000
       26605000	      2659	80001858	015ee5b3	or	x11,x29,x21	 x29:0x00000001 x21:0x80009f20 x11=0x80009f21
       26615000	      2660	8000185c	4062d293	srai	x5,x5,0x6	  x5:0x00000001  x5=0x00000000
       26625000	      2661	80001860	02136e63	bltu	x6,x1,8000189c	  x6:0x97873000  x1:0xb551c81c
       26635000	      2662	00000000	00000013	addi	x0,x0,0	  x0:0x00000000
       26645000	      2663	80001898	00000013	addi	x0,x0,0	  x0:0x00000000
       26655000	      2664	8000189c	01106733	or	x14,x0,x17	  x0:0x00000000 x17:0x00000001 x14=0x00000001
       26665000	      2665	800018a0	01572533	slt	x10,x14,x21	 x14:0x00000001 x21:0x80009f20 x10=0x00000000
       26675000	      2666	800018a4	1d747513	andi	x10,x8,471	  x8:0x00000000 x10=0x00000000
       26685000	      2667	800018a8	00e4dd13	srli	x26,x9,0xe	  x9:0x00000000 x26=0x00000000
       26695000	      2668	800018ac	01b3e833	or	x16,x7,x27	  x7:0xb551c97a x27:0x00000000 x16=0xb551c97a
       26705000	      2669	800018b0	40c65b93	srai	x23,x12,0xc	 x12:0x14804000 x23=0x00014804
       26715000	      2670	800018b4	74cf1037	lui	x0,0x74cf1	
       26725000	      2671	800018b8	01a141b3	xor	x3,x2,x26	  x2:0xfffffda5 x26:0x00000000  x3=0xfffffda5
       26735000	      2672	800018bc	212fbc13	sltiu	x24,x31,530	 x31:0x80009fc4 x24=0x00000000
       26745000	      2673	800018c0	00713733	sltu	x14,x2,x7	  x2:0xfffffda5  x7:0xb551c97a x14=0x00000000
       26755000	      2674	800018c4	025f4263	blt	x30,x5,800018e8	 x30:0x0000025b  x5:0x00000000
       26765000	      2675	800018c8	01691593	slli	x11,x18,0x16	 x18:0x80009f21 x11=0xc8400000
       26775000	      2676	800018cc	0f2e21b7	lui	x3,0xf2e2	  x3=0x0f2e2000
       26785000	      2677	800018d0	019d6db3	or	x27,x26,x25	 x26:0x00000000 x25:0x00000000 x27=0x00000000
       26795000	      2678	800018d4	01d6c663	blt	x13,x29,800018e0	 x13:0x00000001 x29:0x00000001
       26805000	      2679	800018d8	01ee23b3	slt	x7,x28,x30	 x28:0x3d24f000 x30:0x0000025b  x7=0x00000000
       26815000	      2680	800018dc	c6a2c113	xori	x2,x5,-918	  x5:0x00000000  x2=0xfffffc6a
       26825000	      2681	800018e0	2a69a293	slti	x5,x19,678	 x19:0x80009eee  x5=0x00000001
       26835000	      2682	800018e4	007568b3	or	x17,x10,x7	 x10:0x00000000  x7:0x00000000 x17=0x00000000
       26845000	      2683	800018e8	c8afe813	ori	x16,x31,-886	 x31:0x80009fc4 x16=0xffffffce
       26855000	      2684	800018ec	0137b8b3	sltu	x17,x15,x19	 x15:0x80009fc4 x19:0x80009eee x17=0x00000000
       26865000	      2685	800018f0	01cf6cb3	or	x25,x30,x28	 x30:0x0000025b x28:0x3d24f000 x25=0x3d24f25b
       26875000	      2686	800018f4	00855c93	srli	x25,x10,0x8	 x10:0x00000000 x25=0x00000000
       26885000	      2687	800018f8	ba57f313	andi	x6,x15,-1115	 x15:0x80009fc4  x6=0x80009b84
       26895000	      2688	800018fc	006c9c93	slli	x25,x25,0x6	 x25:0x00000000 x25=0x00000000
       26905000	      2689	80001900	41b30933	sub	x18,x6,x27	  x6:0x80009b84 x27:0x00000000 x18=0x80009b84
       26915000	      2690	80001904	1121f113	andi	x2,x3,274	  x3:0x0f2e2000  x2=0x00000000
       26925000	      2691	80001908	02450663	beq	x10,x4,80001934	 x10:0x00000000  x4:0x00000000
       26935000	      2692	00000000	00000013	addi	x0,x0,0	  x0:0x00000000
       26945000	      2693	80001930	00000013	addi	x0,x0,0	  x0:0x00000000
       26955000	      2694	80001934	3d507913	andi	x18,x0,981	  x0:0x00000000 x18=0x00000000
       26965000	      2695	80001938	404f0db3	sub	x27,x30,x4	 x30:0x0000025b  x4:0x00000000 x27=0x0000025b
       26975000	      2696	8000193c	000f3fb3	sltu	x31,x30,x0	 x30:0x0000025b  x0:0x00000000 x31=0x00000000
       26985000	      2697	80001940	02baea63	bltu	x21,x11,80001974	 x21:0x80009f20 x11:0xc8400000
       26995000	      2698	00000000	00000013	addi	x0,x0,0	  x0:0x00000000
       27005000	      2699	80001970	00000013	addi	x0,x0,0	  x0:0x00000000
       27015000	      2700	80001974	009b29b3	slt	x19,x22,x9	 x22:0x00000000  x9:0x00000000 x19=0x00000000
       27025000	      2701	80001978	000d7233	and	x4,x26,x0	 x26:0x00000000  x0:0x00000000  x4=0x00000000
       27035000	      2702	8000197c	01ce22b3	slt	x5,x28,x28	 x28:0x3d24f000 x28:0x3d24f000  x5=0x00000000
       27045000	      2703	80001980	51966513	ori	x10,x12,1305	 x12:0x14804000 x10=0x14804519
       27055000	      2704	80001984	01c61d93	slli	x27,x12,0x1c	 x12:0x14804000 x27=0x00000000
       27065000	      2705	80001988	19cdbe13	sltiu	x28,x27,412	 x27:0x00000000 x28=0x00000001
       27075000	      2706	8000198c	04a8e263	bltu	x17,x10,800019d0	 x17:0x00000000 x10:0x14804519
       27085000	      2707	00000000	00000013	addi	x0,x0,0	  x0:0x00000000
       27095000	      2708	800019cc	00000013	addi	x0,x0,0	  x0:0x00000000
       27105000	      2709	800019d0	5f42b893	sltiu	x17,x5,1524	  x5:0x00000000 x17=0x00000001
       27115000	      2710	800019d4	eaaab217	auipc	x4,0xeaaab	  x4=0x6aaac9d0
       27125000	      2711	800019d8	67668f13	addi	x30,x13,1654	 x13:0x00000001 x30=0x00000677
       27135000	      2712	800019dc	00000013	addi	x0,x0,0	  x0:0x00000000
       27145000	      2713	800019e0	335ca013	slti	x0,x25,821	 x25:0x00000000
       27155000	      2714	800019e4	00db2733	slt	x14,x22,x13	 x22:0x00000000 x13:0x00000001 x14=0x00000001
       27165000	      2715	800019e8	e0ab0093	addi	x1,x22,-502	 x22:0x00000000  x1=0xfffffe0a
       27175000	      2716	800019ec	40fb5d33	sra	x26,x22,x15	 x22:0x00000000 x15:0x80009fc4 x26=0x00000000
       27185000	      2717	800019f0	01bf4c63	blt	x30,x27,80001a08	 x30:0x00000677 x27:0x00000000
       27195000	      2718	800019f4	ffc76313	ori	x6,x14,-4	 x14:0x00000001  x6=0xfffffffd
       27205000	      2719	800019f8	01b99293	slli	x5,x19,0x1b	 x19:0x00000000  x5=0x00000000
       27215000	      2720	800019fc	00836133	or	x2,x6,x8	  x6:0xfffffffd  x8:0x00000000  x2=0xfffffffd
       27225000	      2721	80001a00	0012b4b3	sltu	x9,x5,x1	  x5:0x00000000  x1:0xfffffe0a  x9=0x00000001
       27235000	      2722	80001a04	030ff663	bgeu	x31,x16,80001a30	 x31:0x00000000 x16:0xffffffce
       27245000	      2723	80001a08	41475f33	sra	x30,x14,x20	 x14:0x00000001 x20:0x80009f20 x30=0x00000001
       27255000	      2724	80001a0c	00b85e13	srli	x28,x16,0xb	 x16:0xffffffce x28=0x001fffff
       27265000	      2725	80001a10	02dc7263	bgeu	x24,x13,80001a34	 x24:0x00000000 x13:0x00000001
       27275000	      2726	80001a14	03d5ec63	bltu	x11,x29,80001a4c	 x11:0xc8400000 x29:0x00000001
       27285000	      2727	80001a18	02857863	bgeu	x10,x8,80001a48	 x10:0x14804519  x8:0x00000000
       27295000	      2728	00000000	00000013	addi	x0,x0,0	  x0:0x00000000
       27305000	      2729	80001a44	00000013	addi	x0,x0,0	  x0:0x00000000
       27315000	      2730	80001a48	00d359b3	srl	x19,x6,x13	  x6:0xfffffffd x13:0x00000001 x19=0x7ffffffe
       27325000	      2731	80001a4c	655c6193	ori	x3,x24,1621	 x24:0x00000000  x3=0x00000655
       27335000	      2732	80001a50	013d9513	slli	x10,x27,0x13	 x27:0x00000000 x10=0x00000000
       27345000	      2733	80001a54	04c91863	bne	x18,x12,80001aa4	 x18:0x00000000 x12:0x14804000
       27355000	      2734	00000000	00000013	addi	x0,x0,0	  x0:0x00000000
       27365000	      2735	80001aa0	00000013	addi	x0,x0,0	  x0:0x00000000
       27375000	      2736	80001aa4	d7c5f0b7	lui	x1,0xd7c5f	  x1=0xd7c5f000
       27385000	      2737	80001aa8	00f10663	beq	x2,x15,80001ab4	  x2:0xfffffffd x15:0x80009fc4
       27395000	      2738	80001aac	4056d633	sra	x12,x13,x5	 x13:0x00000001  x5:0x00000000 x12=0x00000001
       27405000	      2739	80001ab0	00ad9533	sll	x10,x27,x10	 x27:0x00000000 x10:0x00000000 x10=0x00000000
       27415000	      2740	80001ab4	b2a2cd13	xori	x26,x5,-1238	  x5:0x00000000 x26=0xfffffb2a
       27425000	      2741	80001ab8	a2e59e37	lui	x28,0xa2e59	 x28=0xa2e59000
       27435000	      2742	80001abc	01e6afb3	slt	x31,x13,x30	 x13:0x00000001 x30:0x00000001 x31=0x00000000
       27445000	      2743	80001ac0	00000013	addi	x0,x0,0	  x0:0x00000000
       27455000	      2744	80001ac4	01fb1233	sll	x4,x22,x31	 x22:0x00000000 x31:0x00000000  x4=0x00000000
       27465000	      2745	80001ac8	41c45a13	srai	x20,x8,0x1c	  x8:0x00000000 x20=0x00000000
       27475000	      2746	80001acc	012c78b3	and	x17,x24,x18	 x24:0x00000000 x18:0x00000000 x17=0x00000000
       27485000	      2747	80001ad0	ff02aeb7	lui	x29,0xff02a	 x29=0xff02a000
       27495000	      2748	80001ad4	00000013	addi	x0,x0,0	  x0:0x00000000
       27505000	      2749	80001ad8	01dd1013	slli	x0,x26,0x1d	 x26:0xfffffb2a
       27515000	      2750	80001adc	00f58033	add	x0,x11,x15	 x11:0xc8400000 x15:0x80009fc4
       27525000	      2751	80001ae0	00dd3433	sltu	x8,x26,x13	 x26:0xfffffb2a x13:0x00000001  x8=0x00000000
       27535000	      2752	80001ae4	00076bb3	or	x23,x14,x0	 x14:0x00000001  x0:0x00000000 x23=0x00000001
       27545000	      2753	80001ae8	05286863	bltu	x16,x18,80001b38	 x16:0xffffffce x18:0x00000000
       27555000	      2754	80001aec	01165f93	srli	x31,x12,0x11	 x12:0x00000001 x31=0x00000000
       27565000	      2755	80001af0	01758c63	beq	x11,x23,80001b08	 x11:0xc8400000 x23:0x00000001
       27575000	      2756	80001af4	02741c63	bne	x8,x7,80001b2c	  x8:0x00000000  x7:0x00000000
       27585000	      2757	80001af8	01621c33	sll	x24,x4,x22	  x4:0x00000000 x22:0x00000000 x24=0x00000000
       27595000	      2758	80001afc	00997663	bgeu	x18,x9,80001b08	 x18:0x00000000  x9:0x00000001
       27605000	      2759	80001b00	ef99a213	slti	x4,x19,-263	 x19:0x7ffffffe  x4=0x00000000
       27615000	      2760	80001b04	00801d93	slli	x27,x0,0x8	  x0:0x00000000 x27=0x00000000
       27625000	      2761	80001b08	991b0a13	addi	x20,x22,-1647	 x22:0x00000000 x20=0xfffff991
       27635000	      2762	80001b0c	048ae863	bltu	x21,x8,80001b5c	 x21:0x80009f20  x8:0x00000000
       27645000	      2763	80001b10	00f5b2b3	sltu	x5,x11,x15	 x11:0xc8400000 x15:0x80009fc4  x5=0x00000000
       27655000	      2764	80001b14	f7f8e713	ori	x14,x17,-129	 x17:0x00000000 x14=0xffffff7f
       27665000	      2765	80001b18	00a39e13	slli	x28,x7,0xa	  x7:0x00000000 x28=0x00000000
       27675000	      2766	80001b1c	0239de63	bge	x19,x3,80001b58	 x19:0x7ffffffe  x3:0x00000655
       27685000	      2767	00000000	00000013	addi	x0,x0,0	  x0:0x00000000
       27695000	      2768	80001b54	00000013	addi	x0,x0,0	  x0:0x00000000
       27705000	      2769	80001b58	02331663	bne	x6,x3,80001b84	  x6:0xfffffffd  x3:0x00000655
       27715000	      2770	00000000	00000013	addi	x0,x0,0	  x0:0x00000000
       27725000	      2771	80001b80	00000013	addi	x0,x0,0	  x0:0x00000000
       27735000	      2772	80001b84	00000013	addi	x0,x0,0	  x0:0x00000000
       27745000	      2773	80001b88	01115c63	bge	x2,x17,80001ba0	  x2:0xfffffffd x17:0x00000000
       27755000	      2774	80001b8c	006783b3	add	x7,x15,x6	 x15:0x80009fc4  x6:0xfffffffd  x7=0x80009fc1
       27765000	      2775	80001b90	6eced717	auipc	x14,0x6eced	 x14=0xeeceeb8c
       27775000	      2776	80001b94	00546233	or	x4,x8,x5	  x8:0x00000000  x5:0x00000000  x4=0x00000000
       27785000	      2777	80001b98	418a5c33	sra	x24,x20,x24	 x20:0xfffff991 x24:0x00000000 x24=0xfffff991
       27795000	      2778	80001b9c	01fc9833	sll	x16,x25,x31	 x25:0x00000000 x31:0x00000000 x16=0x00000000
       27805000	      2779	80001ba0	ed938d13	addi	x26,x7,-295	  x7:0x80009fc1 x26=0x80009e9a
       27815000	      2780	80001ba4	03c87a63	bgeu	x16,x28,80001bd8	 x16:0x00000000 x28:0x00000000
       27825000	      2781	00000000	00000013	addi	x0,x0,0	  x0:0x00000000
       27835000	      2782	80001bd4	00000013	addi	x0,x0,0	  x0:0x00000000
       27845000	      2783	80001bd8	01d77263	bgeu	x14,x29,80001bdc	 x14:0xeeceeb8c x29:0xff02a000
       27855000	      2784	80001bdc	943bf413	andi	x8,x23,-1725	 x23:0x00000001  x8=0x00000001
       27865000	      2785	80001be0	f34dc093	xori	x1,x27,-204	 x27:0x00000000  x1=0xffffff34
       27875000	      2786	80001be4	00629b93	slli	x23,x5,0x6	  x5:0x00000000 x23=0x00000000
       27885000	      2787	80001be8	04a05263	bge	x0,x10,80001c2c	  x0:0x00000000 x10:0x00000000
       27895000	      2788	00000000	00000013	addi	x0,x0,0	  x0:0x00000000
       27905000	      2789	80001c28	00000013	addi	x0,x0,0	  x0:0x00000000
       27915000	      2790	80001c2c	01772733	slt	x14,x14,x23	 x14:0xeeceeb8c x23:0x00000000 x14=0x00000001
       27925000	      2791	80001c30	004fdeb3	srl	x29,x31,x4	 x31:0x00000000  x4:0x00000000 x29=0x00000000
       27935000	      2792	80001c34	e87a3093	sltiu	x1,x20,-377	 x20:0xfffff991  x1=0x00000001
       27945000	      2793	80001c38	0115df33	srl	x30,x11,x17	 x11:0xc8400000 x17:0x00000000 x30=0xc8400000
       27955000	      2794	80001c3c	0458fc63	bgeu	x17,x5,80001c94	 x17:0x00000000  x5:0x00000000
       27965000	      2795	00000000	00000013	addi	x0,x0,0	  x0:0x00000000
       27975000	      2796	80001c90	00000013	addi	x0,x0,0	  x0:0x00000000
       27985000	      2797	80001c94	03158663	beq	x11,x17,80001cc0	 x11:0xc8400000 x17:0x00000000
       27995000	      2798	80001c98	8eff4513	xori	x10,x30,-1809	 x30:0xc8400000 x10=0x37bff8ef
       28005000	      2799	80001c9c	00f17a33	and	x20,x2,x15	  x2:0xfffffffd x15:0x80009fc4 x20=0x80009fc4
       28015000	      2800	80001ca0	01d076b3	and	x13,x0,x29	  x0:0x00000000 x29:0x00000000 x13=0x00000000
       28025000	      2801	80001ca4	410a5313	srai	x6,x20,0x10	 x20:0x80009fc4  x6=0xffff8000
       28035000	      2802	80001ca8	0362c263	blt	x5,x22,80001ccc	  x5:0x00000000 x22:0x00000000
       28045000	      2803	80001cac	00276fb3	or	x31,x14,x2	 x14:0x00000001  x2:0xfffffffd x31=0xfffffffd
       28055000	      2804	80001cb0	417a8333	sub	x6,x21,x23	 x21:0x80009f20 x23:0x00000000  x6=0x80009f20
       28065000	      2805	80001cb4	b9eb8c93	addi	x25,x23,-1122	 x23:0x00000000 x25=0xfffffb9e
       28075000	      2806	80001cb8	013184b3	add	x9,x3,x19	  x3:0x00000655 x19:0x7ffffffe  x9=0x80000653
       28085000	      2807	80001cbc	e3724513	xori	x10,x4,-457	  x4:0x00000000 x10=0xfffffe37
       28095000	      2808	80001cc0	00ec9463	bne	x25,x14,80001cc8	 x25:0xfffffb9e x14:0x00000001
       28105000	      2809	00000000	00000013	addi	x0,x0,0	  x0:0x00000000
       28115000	      2810	80001cc4	00000013	addi	x0,x0,0	  x0:0x00000000
       28125000	      2811	80001cc8	00007863	bgeu	x0,x0,80001cd8	  x0:0x00000000  x0:0x00000000
       28135000	      2812	00000000	00000013	addi	x0,x0,0	  x0:0x00000000
       28145000	      2813	80001cd4	00000013	addi	x0,x0,0	  x0:0x00000000
       28155000	      2814	80001cd8	cc25b393	sltiu	x7,x11,-830	 x11:0xc8400000  x7=0x00000001
       28165000	      2815	80001cdc	016ad193	srli	x3,x21,0x16	 x21:0x80009f20  x3=0x00000200
       28175000	      2816	80001ce0	806aba13	sltiu	x20,x21,-2042	 x21:0x80009f20 x20=0x00000001
       28185000	      2817	80001ce4	8f0060b7	lui	x1,0x8f006	  x1=0x8f006000
       28195000	      2818	80001ce8	68ed4f93	xori	x31,x26,1678	 x26:0x80009e9a x31=0x80009814
       28205000	      2819	80001cec	00ae5a13	srli	x20,x28,0xa	 x28:0x00000000 x20=0x00000000
       28215000	      2820	80001cf0	008c8c33	add	x24,x25,x8	 x25:0xfffffb9e  x8:0x00000001 x24=0xfffffb9f
       28225000	      2821	80001cf4	da1cf993	andi	x19,x25,-607	 x25:0xfffffb9e x19=0xfffff980
       28235000	      2822	80001cf8	0433b193	sltiu	x3,x7,67	  x7:0x00000001  x3=0x00000001
       28245000	      2823	80001cfc	002e9bb3	sll	x23,x29,x2	 x29:0x00000000  x2:0xfffffffd x23=0x00000000
       28255000	      2824	80001d00	3fbe3a37	lui	x20,0x3fbe3	 x20=0x3fbe3000
       28265000	      2825	80001d04	00cde833	or	x16,x27,x12	 x27:0x00000000 x12:0x00000001 x16=0x00000001
       28275000	      2826	80001d08	4b376413	ori	x8,x14,1203	 x14:0x00000001  x8=0x000004b3
       28285000	      2827	80001d0c	62340613	addi	x12,x8,1571	  x8:0x000004b3 x12=0x00000ad6
       28295000	      2828	80001d10	01195c63	bge	x18,x17,80001d28	 x18:0x00000000 x17:0x00000000
       28305000	      2829	00000000	00000013	addi	x0,x0,0	  x0:0x00000000
       28315000	      2830	80001d24	00000013	addi	x0,x0,0	  x0:0x00000000
       28325000	      2831	80001d28	0089a5b3	slt	x11,x19,x8	 x19:0xfffff980  x8:0x000004b3 x11=0x00000001
       28335000	      2832	80001d2c	01701713	slli	x14,x0,0x17	  x0:0x00000000 x14=0x00000000
       28345000	      2833	80001d30	4a670513	addi	x10,x14,1190	 x14:0x00000000 x10=0x000004a6
       28355000	      2834	80001d34	002c8733	add	x14,x25,x2	 x25:0xfffffb9e  x2:0xfffffffd x14=0xfffffb9b
       28365000	      2835	80001d38	b5424093	xori	x1,x4,-1196	  x4:0x00000000  x1=0xfffffb54
       28375000	      2836	80001d3c	00118d33	add	x26,x3,x1	  x3:0x00000001  x1:0xfffffb54 x26=0xfffffb55
       28385000	      2837	80001d40	518b25b7	lui	x11,0x518b2	 x11=0x518b2000
       28395000	      2838	80001d44	ca84b297	auipc	x5,0xca84b	  x5=0x4a84cd40
       28405000	      2839	80001d48	01c40db3	add	x27,x8,x28	  x8:0x000004b3 x28:0x00000000 x27=0x000004b3
       28415000	      2840	80001d4c	01d30f33	add	x30,x6,x29	  x6:0x80009f20 x29:0x00000000 x30=0x80009f20
       28425000	      2841	80001d50	00a01d13	slli	x26,x0,0xa	  x0:0x00000000 x26=0x00000000
       28435000	      2842	80001d54	403d8fb3	sub	x31,x27,x3	 x27:0x000004b3  x3:0x00000001 x31=0x000004b2
       28445000	      2843	80001d58	00000013	addi	x0,x0,0	  x0:0x00000000
       28455000	      2844	80001d5c	0003d9b3	srl	x19,x7,x0	  x7:0x00000001  x0:0x00000000 x19=0x00000001
       28465000	      2845	80001d60	2bbb7313	andi	x6,x22,699	 x22:0x00000000  x6=0x00000000
       28475000	      2846	80001d64	40685fb3	sra	x31,x16,x6	 x16:0x00000001  x6:0x00000000 x31=0x00000001
       28485000	      2847	80001d68	037d8863	beq	x27,x23,80001d98	 x27:0x000004b3 x23:0x00000000
       28495000	      2848	80001d6c	2bfae137	lui	x2,0x2bfae	  x2=0x2bfae000
       28505000	      2849	80001d70	69933013	sltiu	x0,x6,1689	  x6:0x00000000
       28515000	      2850	80001d74	bae94db7	lui	x27,0xbae94	 x27=0xbae94000
       28525000	      2851	80001d78	01efe663	bltu	x31,x30,80001d84	 x31:0x00000001 x30:0x80009f20
       28535000	      2852	00000000	00000013	addi	x0,x0,0	  x0:0x00000000
       28545000	      2853	80001d80	00000013	addi	x0,x0,0	  x0:0x00000000
       28555000	      2854	80001d84	00b78833	add	x16,x15,x11	 x15:0x80009fc4 x11:0x518b2000 x16=0xd18bbfc4
       28565000	      2855	80001d88	d1a17713	andi	x14,x2,-742	  x2:0x2bfae000 x14=0x2bfae000
       28575000	      2856	80001d8c	0a4af313	andi	x6,x21,164	 x21:0x80009f20  x6=0x00000020
       28585000	      2857	80001d90	1fb8ff93	andi	x31,x17,507	 x17:0x00000000 x31=0x00000000
       28595000	      2858	80001d94	00f2d613	srli	x12,x5,0xf	  x5:0x4a84cd40 x12=0x00009509
       28605000	      2859	80001d98	027d0663	beq	x26,x7,80001dc4	 x26:0x00000000  x7:0x00000001
       28615000	      2860	80001d9c	00d75463	bge	x14,x13,80001da4	 x14:0x2bfae000 x13:0x00000000
       28625000	      2861	00000000	00000013	addi	x0,x0,0	  x0:0x00000000
       28635000	      2862	80001da0	00000013	addi	x0,x0,0	  x0:0x00000000
       28645000	      2863	80001da4	9a41b293	sltiu	x5,x3,-1628	  x3:0x00000001  x5=0x00000001
       28655000	      2864	80001da8	41c556b3	sra	x13,x10,x28	 x10:0x000004a6 x28:0x00000000 x13=0x000004a6
       28665000	      2865	80001dac	05cbf863	bgeu	x23,x28,80001dfc	 x23:0x00000000 x28:0x00000000
       28675000	      2866	00000000	00000013	addi	x0,x0,0	  x0:0x00000000
       28685000	      2867	80001df8	00000013	addi	x0,x0,0	  x0:0x00000000
       28695000	      2868	80001dfc	9447f537	lui	x10,0x9447f	 x10=0x9447f000
       28705000	      2869	80001e00	400f5713	srai	x14,x30,0x0	 x30:0x80009f20 x14=0x80009f20
       28715000	      2870	80001e04	41dd08b3	sub	x17,x26,x29	 x26:0x00000000 x29:0x00000000 x17=0x00000000
       28725000	      2871	80001e08	013a5493	srli	x9,x20,0x13	 x20:0x3fbe3000  x9=0x000007f7
       28735000	      2872	80001e0c	05b9c863	blt	x19,x27,80001e5c	 x19:0x00000001 x27:0xbae94000
       28745000	      2873	80001e10	5a7b4913	xori	x18,x22,1447	 x22:0x00000000 x18=0x000005a7
       28755000	      2874	80001e14	4236a813	slti	x16,x13,1059	 x13:0x000004a6 x16=0x00000000
       28765000	      2875	80001e18	017ad133	srl	x2,x21,x23	 x21:0x80009f20 x23:0x00000000  x2=0x80009f20
       28775000	      2876	80001e1c	0005acb3	slt	x25,x11,x0	 x11:0x518b2000  x0:0x00000000 x25=0x00000000
       28785000	      2877	80001e20	01344f33	xor	x30,x8,x19	  x8:0x000004b3 x19:0x00000001 x30=0x000004b2
       28795000	      2878	80001e24	04c70863	beq	x14,x12,80001e74	 x14:0x80009f20 x12:0x00009509
       28805000	      2879	80001e28	01de41b3	xor	x3,x28,x29	 x28:0x00000000 x29:0x00000000  x3=0x00000000
       28815000	      2880	80001e2c	7d5fe313	ori	x6,x31,2005	 x31:0x00000000  x6=0x000007d5
       28825000	      2881	80001e30	00fa2bb3	slt	x23,x20,x15	 x20:0x3fbe3000 x15:0x80009fc4 x23=0x00000000
       28835000	      2882	80001e34	03105c63	bge	x0,x17,80001e6c	  x0:0x00000000 x17:0x00000000
       28845000	      2883	00000000	00000013	addi	x0,x0,0	  x0:0x00000000
       28855000	      2884	80001e68	00000013	addi	x0,x0,0	  x0:0x00000000
       28865000	      2885	80001e6c	00d7dc63	bge	x15,x13,80001e84	 x15:0x80009fc4 x13:0x000004a6
       28875000	      2886	80001e70	0535d263	bge	x11,x19,80001eb4	 x11:0x518b2000 x19:0x00000001
       28885000	      2887	00000000	00000013	addi	x0,x0,0	  x0:0x00000000
       28895000	      2888	80001eb0	00000013	addi	x0,x0,0	  x0:0x00000000
       28905000	      2889	80001eb4	00000013	addi	x0,x0,0	  x0:0x00000000
       28915000	      2890	80001eb8	00f95693	srli	x13,x18,0xf	 x18:0x000005a7 x13=0x00000000
       28925000	      2891	80001ebc	41e955b3	sra	x11,x18,x30	 x18:0x000005a7 x30:0x000004b2 x11=0x00000000
       28935000	      2892	80001ec0	01a962b3	or	x5,x18,x26	 x18:0x000005a7 x26:0x00000000  x5=0x000005a7
       28945000	      2893	80001ec4	01f1b133	sltu	x2,x3,x31	  x3:0x00000000 x31:0x00000000  x2=0x00000000
       28955000	      2894	80001ec8	e1ed2e93	slti	x29,x26,-482	 x26:0x00000000 x29=0x00000000
       28965000	      2895	80001ecc	1311fb93	andi	x23,x3,305	  x3:0x00000000 x23=0x00000000
       28975000	      2896	80001ed0	00a788b3	add	x17,x15,x10	 x15:0x80009fc4 x10:0x9447f000 x17=0x14488fc4
       28985000	      2897	80001ed4	04275063	bge	x14,x2,80001f14	 x14:0x80009f20  x2:0x00000000
       28995000	      2898	80001ed8	5b668613	addi	x12,x13,1462	 x13:0x00000000 x12=0x000005b6
       29005000	      2899	80001edc	03591263	bne	x18,x21,80001f00	 x18:0x000005a7 x21:0x80009f20
       29015000	      2900	00000000	00000013	addi	x0,x0,0	  x0:0x00000000
       29025000	      2901	80001efc	00000013	addi	x0,x0,0	  x0:0x00000000
       29035000	      2902	80001f00	01791193	slli	x3,x18,0x17	 x18:0x000005a7  x3=0xd3800000
       29045000	      2903	80001f04	02d06663	bltu	x0,x13,80001f30	  x0:0x00000000 x13:0x00000000
       29055000	      2904	80001f08	00537c63	bgeu	x6,x5,80001f20	  x6:0x000007d5  x5:0x000005a7
       29065000	      2905	00000000	00000013	addi	x0,x0,0	  x0:0x00000000
       29075000	      2906	80001f1c	00000013	addi	x0,x0,0	  x0:0x00000000
       29085000	      2907	80001f20	7bdb3c13	sltiu	x24,x22,1981	 x22:0x00000000 x24=0x00000001
       29095000	      2908	80001f24	03aa6e63	bltu	x20,x26,80001f60	 x20:0x3fbe3000 x26:0x00000000
       29105000	      2909	80001f28	01a7b9b3	sltu	x19,x15,x26	 x15:0x80009fc4 x26:0x00000000 x19=0x00000000
       29115000	      2910	80001f2c	039e5063	bge	x28,x25,80001f4c	 x28:0x00000000 x25:0x00000000
       29125000	      2911	00000000	00000013	addi	x0,x0,0	  x0:0x00000000
       29135000	      2912	80001f48	00000013	addi	x0,x0,0	  x0:0x00000000
       29145000	      2913	80001f4c	40f25f13	srai	x30,x4,0xf	  x4:0x00000000 x30=0x00000000
       29155000	      2914	80001f50	40bf5d13	srai	x26,x30,0xb	 x30:0x00000000 x26=0x00000000
       29165000	      2915	80001f54	0294e863	bltu	x9,x9,80001f84	  x9:0x000007f7  x9:0x000007f7
       29175000	      2916	80001f58	4048dfb3	sra	x31,x17,x4	 x17:0x14488fc4  x4:0x00000000 x31=0x14488fc4
       29185000	      2917	80001f5c	003a60b3	or	x1,x20,x3	 x20:0x3fbe3000  x3:0xd3800000  x1=0xffbe3000
       29195000	      2918	80001f60	00e91613	slli	x12,x18,0xe	 x18:0x000005a7 x12=0x0169c000
       29205000	      2919	80001f64	00e11293	slli	x5,x2,0xe	  x2:0x00000000  x5=0x00000000
       29215000	      2920	80001f68	0103a633	slt	x12,x7,x16	  x7:0x00000001 x16:0x00000000 x12=0x00000000
       29225000	      2921	80001f6c	00011c63	bne	x2,x0,80001f84	  x2:0x00000000  x0:0x00000000
       29235000	      2922	80001f70	01728fb3	add	x31,x5,x23	  x5:0x00000000 x23:0x00000000 x31=0x00000000
       29245000	      2923	80001f74	00f89813	slli	x16,x17,0xf	 x17:0x14488fc4 x16=0x47e20000
       29255000	      2924	80001f78	01840463	beq	x8,x24,80001f80	  x8:0x000004b3 x24:0x00000001
       29265000	      2925	80001f7c	40bf5433	sra	x8,x30,x11	 x30:0x00000000 x11:0x00000000  x8=0x00000000
       29275000	      2926	80001f80	01fe1833	sll	x16,x28,x31	 x28:0x00000000 x31:0x00000000 x16=0x00000000
       29285000	      2927	80001f84	0078c333	xor	x6,x17,x7	 x17:0x14488fc4  x7:0x00000001  x6=0x14488fc5
       29295000	      2928	80001f88	019d1863	bne	x26,x25,80001f98	 x26:0x00000000 x25:0x00000000
       29305000	      2929	80001f8c	00290c33	add	x24,x18,x2	 x18:0x000005a7  x2:0x00000000 x24=0x000005a7
       29315000	      2930	80001f90	40120133	sub	x2,x4,x1	  x4:0x00000000  x1:0xffbe3000  x2=0x0041d000
       29325000	      2931	80001f94	00000013	addi	x0,x0,0	  x0:0x00000000
       29335000	      2932	80001f98	01a9cbb3	xor	x23,x19,x26	 x19:0x00000000 x26:0x00000000 x23=0x00000000
       29345000	      2933	80001f9c	2ff1e993	ori	x19,x3,767	  x3:0xd3800000 x19=0xd38002ff
       29355000	      2934	80001fa0	91580d13	addi	x26,x16,-1771	 x16:0x00000000 x26=0xfffff915
       29365000	      2935	80001fa4	416885b3	sub	x11,x17,x22	 x17:0x14488fc4 x22:0x00000000 x11=0x14488fc4
       29375000	      2936	80001fa8	b25fc693	xori	x13,x31,-1243	 x31:0x00000000 x13=0xfffffb25
       29385000	      2937	80001fac	013f8f33	add	x30,x31,x19	 x31:0x00000000 x19:0xd38002ff x30=0xd38002ff
       29395000	      2938	80001fb0	006794b3	sll	x9,x15,x6	 x15:0x80009fc4  x6:0x14488fc5  x9=0x0013f880
       29405000	      2939	80001fb4	0178d333	srl	x6,x17,x23	 x17:0x14488fc4 x23:0x00000000  x6=0x14488fc4
       29415000	      2940	80001fb8	0283c263	blt	x7,x8,80001fdc	  x7:0x00000001  x8:0x00000000
       29425000	      2941	80001fbc	03a91263	bne	x18,x26,80001fe0	 x18:0x000005a7 x26:0xfffff915
       29435000	      2942	00000000	00000013	addi	x0,x0,0	  x0:0x00000000
       29445000	      2943	80001fdc	00000013	addi	x0,x0,0	  x0:0x00000000
       29455000	      2944	80001fe0	c6516713	ori	x14,x2,-923	  x2:0x0041d000 x14=0xfffffc65
       29465000	      2945	80001fe4	01780a63	beq	x16,x23,80001ff8	 x16:0x00000000 x23:0x00000000
       29475000	      2946	00000000	00000013	addi	x0,x0,0	  x0:0x00000000
       29485000	      2947	80001ff4	00000013	addi	x0,x0,0	  x0:0x00000000
       29495000	      2948	80001ff8	01ca53b3	srl	x7,x20,x28	 x20:0x3fbe3000 x28:0x00000000  x7=0x3fbe3000
       29505000	      2949	80001ffc	23e83693	sltiu	x13,x16,574	 x16:0x00000000 x13=0x00000001
       29515000	      2950	80002000	c8af0813	addi	x16,x30,-886	 x30:0xd38002ff x16=0xd37fff89
       29525000	      2951	80002004	404e01b3	sub	x3,x28,x4	 x28:0x00000000  x4:0x00000000  x3=0x00000000
       29535000	      2952	80002008	cabb7413	andi	x8,x22,-853	 x22:0x00000000  x8=0x00000000
       29545000	      2953	8000200c	41cd0133	sub	x2,x26,x28	 x26:0xfffff915 x28:0x00000000  x2=0xfffff915
       29555000	      2954	80002010	ac072d37	lui	x26,0xac072	 x26=0xac072000
       29565000	      2955	80002014	03840a63	beq	x8,x24,80002048	  x8:0x00000000 x24:0x000005a7
       29575000	      2956	80002018	009fc863	blt	x31,x9,80002028	 x31:0x00000000  x9:0x0013f880
       29585000	      2957	00000000	00000013	addi	x0,x0,0	  x0:0x00000000
       29595000	      2958	80002024	00000013	addi	x0,x0,0	  x0:0x00000000
       29605000	      2959	80002028	010d06b3	add	x13,x26,x16	 x26:0xac072000 x16:0xd37fff89 x13=0x7f871f89
       29615000	      2960	8000202c	056ad263	bge	x21,x22,80002070	 x21:0x80009f20 x22:0x00000000
       29625000	      2961	80002030	00ecd013	srli	x0,x25,0xe	 x25:0x00000000
       29635000	      2962	80002034	00000013	addi	x0,x0,0	  x0:0x00000000
       29645000	      2963	80002038	01201513	slli	x10,x0,0x12	  x0:0x00000000 x10=0x00000000
       29655000	      2964	8000203c	01489c13	slli	x24,x17,0x14	 x17:0x14488fc4 x24=0xfc400000
       29665000	      2965	80002040	016d5663	bge	x26,x22,8000204c	 x26:0xac072000 x22:0x00000000
       29675000	      2966	80002044	044b7863	bgeu	x22,x4,80002094	 x22:0x00000000  x4:0x00000000
       29685000	      2967	00000000	00000013	addi	x0,x0,0	  x0:0x00000000
       29695000	      2968	80002090	00000013	addi	x0,x0,0	  x0:0x00000000
       29705000	      2969	80002094	0ee48f13	addi	x30,x9,238	  x9:0x0013f880 x30=0x0013f96e
       29715000	      2970	80002098	00ebd393	srli	x7,x23,0xe	 x23:0x00000000  x7=0x00000000
       29725000	      2971	8000209c	6fb7e613	ori	x12,x15,1787	 x15:0x80009fc4 x12=0x80009fff
       29735000	      2972	800020a0	0157e933	or	x18,x15,x21	 x15:0x80009fc4 x21:0x80009f20 x18=0x80009fe4
       29745000	      2973	800020a4	055d6063	bltu	x26,x21,800020e4	 x26:0xac072000 x21:0x80009f20
       29755000	      2974	800020a8	f8ef2493	slti	x9,x30,-114	 x30:0x0013f96e  x9=0x00000000
       29765000	      2975	800020ac	40acd0b3	sra	x1,x25,x10	 x25:0x00000000 x10:0x00000000  x1=0x00000000
       29775000	      2976	800020b0	0061fdb3	and	x27,x3,x6	  x3:0x00000000  x6:0x14488fc4 x27=0x00000000
       29785000	      2977	800020b4	012e6eb3	or	x29,x28,x18	 x28:0x00000000 x18:0x80009fe4 x29=0x80009fe4
       29795000	      2978	800020b8	01aac0b3	xor	x1,x21,x26	 x21:0x80009f20 x26:0xac072000  x1=0x2c07bf20
       29805000	      2979	800020bc	01ff9263	bne	x31,x31,800020c0	 x31:0x00000000 x31:0x00000000
       29815000	      2980	800020c0	01b46fb3	or	x31,x8,x27	  x8:0x00000000 x27:0x00000000 x31=0x00000000
       29825000	      2981	800020c4	00000013	addi	x0,x0,0	  x0:0x00000000
       29835000	      2982	800020c8	e755b593	sltiu	x11,x11,-395	 x11:0x14488fc4 x11=0x00000001
       29845000	      2983	800020cc	015a9013	slli	x0,x21,0x15	 x21:0x80009f20
       29855000	      2984	800020d0	01716d33	or	x26,x2,x23	  x2:0xfffff915 x23:0x00000000 x26=0xfffff915
       29865000	      2985	800020d4	042cb093	sltiu	x1,x25,66	 x25:0x00000000  x1=0x00000001
       29875000	      2986	800020d8	00df44b3	xor	x9,x30,x13	 x30:0x0013f96e x13:0x7f871f89  x9=0x7f94e6e7
       29885000	      2987	800020dc	01c56e63	bltu	x10,x28,800020f8	 x10:0x00000000 x28:0x00000000
       29895000	      2988	800020e0	009bd663	bge	x23,x9,800020ec	 x23:0x00000000  x9:0x7f94e6e7
       29905000	      2989	800020e4	00fedc63	bge	x29,x15,800020fc	 x29:0x80009fe4 x15:0x80009fc4
       29915000	      2990	00000000	00000013	addi	x0,x0,0	  x0:0x00000000
       29925000	      2991	800020f8	00000013	addi	x0,x0,0	  x0:0x00000000
       29935000	      2992	800020fc	00745f33	srl	x30,x8,x7	  x8:0x00000000  x7:0x00000000 x30=0x00000000
       29945000	      2993	80002100	017b5fb3	srl	x31,x22,x23	 x22:0x00000000 x23:0x00000000 x31=0x00000000
       29955000	      2994	80002104	05689863	bne	x17,x22,80002154	 x17:0x14488fc4 x22:0x00000000
       29965000	      2995	00000000	00000013	addi	x0,x0,0	  x0:0x00000000
       29975000	      2996	80002150	00000013	addi	x0,x0,0	  x0:0x00000000
       29985000	      2997	80002154	1cb0e713	ori	x14,x1,459	  x1:0x00000001 x14=0x000001cb
       29995000	      2998	80002158	04269263	bne	x13,x2,8000219c	 x13:0x7f871f89  x2:0xfffff915
       30005000	      2999	00000000	00000013	addi	x0,x0,0	  x0:0x00000000
       30015000	      3000	80002198	00000013	addi	x0,x0,0	  x0:0x00000000
       30025000	      3001	8000219c	01a89c13	slli	x24,x17,0x1a	 x17:0x14488fc4 x24=0x10000000
       30035000	      3002	800021a0	01324433	xor	x8,x4,x19	  x4:0x00000000 x19:0xd38002ff  x8=0xd38002ff
       30045000	      3003	800021a4	2ddc1737	lui	x14,0x2ddc1	 x14=0x2ddc1000
       30055000	      3004	800021a8	41a6dd33	sra	x26,x13,x26	 x13:0x7f871f89 x26:0xfffff915 x26=0x000003fc
       30065000	      3005	800021ac	05e6e863	bltu	x13,x30,800021fc	 x13:0x7f871f89 x30:0x00000000
       30075000	      3006	800021b0	40958833	sub	x16,x11,x9	 x11:0x00000001  x9:0x7f94e6e7 x16=0x806b191a
       30085000	      3007	800021b4	6cd23413	sltiu	x8,x4,1741	  x4:0x00000000  x8=0x00000001
       30095000	      3008	800021b8	00128d33	add	x26,x5,x1	  x5:0x00000000  x1:0x00000001 x26=0x00000001
       30105000	      3009	800021bc	027d8063	beq	x27,x7,800021dc	 x27:0x00000000  x7:0x00000000
       30115000	      3010	00000000	00000013	addi	x0,x0,0	  x0:0x00000000
       30125000	      3011	800021d8	00000013	addi	x0,x0,0	  x0:0x00000000
       30135000	      3012	800021dc	01e31333	sll	x6,x6,x30	  x6:0x14488fc4 x30:0x00000000  x6=0x14488fc4
       30145000	      3013	800021e0	a2735437	lui	x8,0xa2735	  x8=0xa2735000
       30155000	      3014	800021e4	ade9cd13	xori	x26,x19,-1314	 x19:0xd38002ff x26=0x2c7ff821
       30165000	      3015	800021e8	00ae9e33	sll	x28,x29,x10	 x29:0x80009fe4 x10:0x00000000 x28=0x80009fe4
       30175000	      3016	800021ec	4055dcb3	sra	x25,x11,x5	 x11:0x00000001  x5:0x00000000 x25=0x00000001
       30185000	      3017	800021f0	41b785b3	sub	x11,x15,x27	 x15:0x80009fc4 x27:0x00000000 x11=0x80009fc4
       30195000	      3018	800021f4	fdc10c37	lui	x24,0xfdc10	 x24=0xfdc10000
       30205000	      3019	800021f8	01dc0cb3	add	x25,x24,x29	 x24:0xfdc10000 x29:0x80009fe4 x25=0x7dc19fe4
       30215000	      3020	800021fc	d43989b7	lui	x19,0xd4398	 x19=0xd4398000
       30225000	      3021	80002200	0227fa63	bgeu	x15,x2,80002234	 x15:0x80009fc4  x2:0xfffff915
       30235000	      3022	80002204	41dd5233	sra	x4,x26,x29	 x26:0x2c7ff821 x29:0x80009fe4  x4=0x02c7ff82
       30245000	      3023	80002208	400ed333	sra	x6,x29,x0	 x29:0x80009fe4  x0:0x00000000  x6=0x80009fe4
       30255000	      3024	8000220c	40855933	sra	x18,x10,x8	 x10:0x00000000  x8:0xa2735000 x18=0x00000000
       30265000	      3025	80002210	00de5db3	srl	x27,x28,x13	 x28:0x80009fe4 x13:0x7f871f89 x27=0x0040004f
       30275000	      3026	80002214	02cbc663	blt	x23,x12,80002240	 x23:0x00000000 x12:0x80009fff
       30285000	      3027	80002218	002109b3	add	x19,x2,x2	  x2:0xfffff915  x2:0xfffff915 x19=0xfffff22a
       30295000	      3028	8000221c	0061ec63	bltu	x3,x6,80002234	  x3:0x00000000  x6:0x80009fe4
       30305000	      3029	00000000	00000013	addi	x0,x0,0	  x0:0x00000000
       30315000	      3030	80002230	00000013	addi	x0,x0,0	  x0:0x00000000
       30325000	      3031	80002234	98cd4693	xori	x13,x26,-1652	 x26:0x2c7ff821 x13=0xd38001ad
       30335000	      3032	80002238	00e76863	bltu	x14,x14,80002248	 x14:0x2ddc1000 x14:0x2ddc1000
       30345000	      3033	8000223c	01f8f5b3	and	x11,x17,x31	 x17:0x14488fc4 x31:0x00000000 x11=0x00000000
       30355000	      3034	80002240	007f3a33	sltu	x20,x30,x7	 x30:0x00000000  x7:0x00000000 x20=0x00000000
       30365000	      3035	80002244	40658433	sub	x8,x11,x6	 x11:0x00000000  x6:0x80009fe4  x8=0x7fff601c
       30375000	      3036	80002248	215fec93	ori	x25,x31,533	 x31:0x00000000 x25=0x00000215
       30385000	      3037	8000224c	41cd54b3	sra	x9,x26,x28	 x26:0x2c7ff821 x28:0x80009fe4  x9=0x02c7ff82
       30395000	      3038	80002250	0067a2b3	slt	x5,x15,x6	 x15:0x80009fc4  x6:0x80009fe4  x5=0x00000001
       30405000	      3039	80002254	41ed53b3	sra	x7,x26,x30	 x26:0x2c7ff821 x30:0x00000000  x7=0x2c7ff821
       30415000	      3040	80002258	028a8263	beq	x21,x8,8000227c	 x21:0x80009f20  x8:0x7fff601c
       30425000	      3041	8000225c	014582b3	add	x5,x11,x20	 x11:0x00000000 x20:0x00000000  x5=0x00000000
       30435000	      3042	80002260	014dc0b3	xor	x1,x27,x20	 x27:0x0040004f x20:0x00000000  x1=0x0040004f
       30445000	      3043	80002264	009ea5b3	slt	x11,x29,x9	 x29:0x80009fe4  x9:0x02c7ff82 x11=0x00000001
       30455000	      3044	80002268	4070d993	srai	x19,x1,0x7	  x1:0x0040004f x19=0x00008000
       30465000	      3045	8000226c	4be74f13	xori	x30,x14,1214	 x14:0x2ddc1000 x30=0x2ddc14be
       30475000	      3046	80002270	00f1b5b3	sltu	x11,x3,x15	  x3:0x00000000 x15:0x80009fc4 x11=0x00000001
       30485000	      3047	80002274	01bf5663	bge	x30,x27,80002280	 x30:0x2ddc14be x27:0x0040004f
       30495000	      3048	00000000	00000013	addi	x0,x0,0	  x0:0x00000000
       30505000	      3049	8000227c	00000013	addi	x0,x0,0	  x0:0x00000000
       30515000	      3050	80002280	1ee06113	ori	x2,x0,494	  x0:0x00000000  x2=0x000001ee
       30525000	      3051	80002284	01c56f33	or	x30,x10,x28	 x10:0x00000000 x28:0x80009fe4 x30=0x80009fe4
       30535000	      3052	80002288	443f4d17	auipc	x26,0x443f4	 x26=0xc43f6284
       30545000	      3053	8000228c	004aab83	lw	x23,4(x21)	 x21:0x80009f20 x23=0x80000a40 PA:0x80009f24
       30555000	      3054	80002290	012525b3	slt	x11,x10,x18	 x10:0x00000000 x18:0x00000000 x11=0x00000000
       30565000	      3055	80002294	00656cb3	or	x25,x10,x6	 x10:0x00000000  x6:0x80009fe4 x25=0x80009fe4
       30575000	      3056	80002298	008a8a93	addi	x21,x21,8	 x21:0x80009f20 x21=0x80009f28
       30585000	      3057	8000229c	00000013	addi	x0,x0,0	  x0:0x00000000
       30595000	      3058	800022a0	1e560497	auipc	x9,0x1e560	  x9=0x9e56229c
       30605000	      3059	800022a4	c12d4093	xori	x1,x26,-1006	 x26:0xc43f6284  x1=0x3bc09e96
       30615000	      3060	800022a8	00354433	xor	x8,x10,x3	 x10:0x00000000  x3:0x00000000  x8=0x00000000
       30625000	      3061	800022ac	001b8b93	addi	x23,x23,1	 x23:0x80000a40 x23=0x80000a41
       30635000	      3062	800022b0	000b8be7	jalr	x23,x23,0	 x23:0x80000a41 x23=0x800022b0
       30645000	      3063	00000000	00000013	addi	x0,x0,0	  x0:0x00000000
       30655000	      3064	80000a40	00000013	addi	x0,x0,0	  x0:0x00000000
       30665000	      3065	80000a44	00400713	addi	x14,x0,4	  x0:0x00000000 x14=0x00000004
       30675000	      3066	80000a48	93d3f693	andi	x13,x7,-1731	  x7:0x2c7ff821 x13=0x2c7ff821
       30685000	      3067	80000a4c	01161213	slli	x4,x12,0x11	 x12:0x80009fff  x4=0x3ffe0000
       30695000	      3068	80000a50	00f7e4b3	or	x9,x15,x15	 x15:0x80009fc4 x15:0x80009fc4  x9=0x80009fc4
       30705000	      3069	80000a54	00400c13	addi	x24,x0,4	  x0:0x00000000 x24=0x00000004
       30715000	      3070	80000a58	4237b513	sltiu	x10,x15,1059	 x15:0x80009fc4 x10=0x00000000
       30725000	      3071	80000a5c	01629fb3	sll	x31,x5,x22	  x5:0x00000000 x22:0x00000000 x31=0x00000000
       30735000	      3072	80000a60	01c32533	slt	x10,x6,x28	  x6:0x80009fe4 x28:0x80009fe4 x10=0x00000000
       30745000	      3073	80000a64	01115893	srli	x17,x2,0x11	  x2:0x000001ee x17=0x00000000
       30755000	      3074	80000a68	ffd70713	addi	x14,x14,-3	 x14:0x00000004 x14=0x00000001
       30765000	      3075	80000a6c	13c36817	auipc	x16,0x13c36	 x16=0x93c36a68
       30775000	      3076	80000a70	3fa78d13	addi	x26,x15,1018	 x15:0x80009fc4 x26=0x8000a3be
       30785000	      3077	80000a74	8945d817	auipc	x16,0x8945d	 x16=0x0945da70
       30795000	      3078	80000a78	fb0a78b7	lui	x17,0xfb0a7	 x17=0xfb0a7000
       30805000	      3079	80000a7c	0e7cb813	sltiu	x16,x25,231	 x25:0x80009fe4 x16=0x00000000
       30815000	      3080	80000a80	005d5fb3	srl	x31,x26,x5	 x26:0x8000a3be  x5:0x00000000 x31=0x8000a3be
       30825000	      3081	80000a84	0dcaa113	slti	x2,x21,220	 x21:0x80009f28  x2=0x00000001
       30835000	      3082	80000a88	fd8778e3	bgeu	x14,x24,80000a58	 x14:0x00000001 x24:0x00000004
       30845000	      3083	80000a8c	017cafb3	slt	x31,x25,x23	 x25:0x80009fe4 x23:0x800022b0 x31=0x00000000
       30855000	      3084	80000a90	00a00613	addi	x12,x0,10	  x0:0x00000000 x12=0x0000000a
       30865000	      3085	80000a94	2e636093	ori	x1,x6,742	  x6:0x80009fe4  x1=0x80009fe6
       30875000	      3086	80000a98	41418533	sub	x10,x3,x20	  x3:0x00000000 x20:0x00000000 x10=0x00000000
       30885000	      3087	80000a9c	00a00c13	addi	x24,x0,10	  x0:0x00000000 x24=0x0000000a
       30895000	      3088	80000aa0	004373b3	and	x7,x6,x4	  x6:0x80009fe4  x4:0x3ffe0000  x7=0x00000000
       30905000	      3089	80000aa4	018121b3	slt	x3,x2,x24	  x2:0x00000001 x24:0x0000000a  x3=0x00000001
       30915000	      3090	80000aa8	ff760613	addi	x12,x12,-9	 x12:0x0000000a x12=0x00000001
       30925000	      3091	80000aac	01174fb3	xor	x31,x14,x17	 x14:0x00000001 x17:0xfb0a7000 x31=0xfb0a7001
       30935000	      3092	80000ab0	0068c5b3	xor	x11,x17,x6	 x17:0xfb0a7000  x6:0x80009fe4 x11=0x7b0aefe4
       30945000	      3093	80000ab4	d1bba597	auipc	x11,0xd1bba	 x11=0x51bbaab0
       30955000	      3094	80000ab8	36288393	addi	x7,x17,866	 x17:0xfb0a7000  x7=0xfb0a7362
       30965000	      3095	80000abc	00000013	addi	x0,x0,0	  x0:0x00000000
       30975000	      3096	80000ac0	ff8670e3	bgeu	x12,x24,80000aa0	 x12:0x00000001 x24:0x0000000a
       30985000	      3097	80000ac4	4fe64393	xori	x7,x12,1278	 x12:0x00000001  x7=0x000004ff
       30995000	      3098	80000ac8	ff700b93	addi	x23,x0,-9	  x0:0x00000000 x23=0xfffffff7
       31005000	      3099	80000acc	82676213	ori	x4,x14,-2010	 x14:0x00000001  x4=0xfffff827
       31015000	      3100	80000ad0	0e06bd13	sltiu	x26,x13,224	 x13:0x2c7ff821 x26=0x00000000
       31025000	      3101	80000ad4	0141dfb3	srl	x31,x3,x20	  x3:0x00000001 x20:0x00000000 x31=0x00000001
       31035000	      3102	80000ad8	01300913	addi	x18,x0,19	  x0:0x00000000 x18=0x00000013
       31045000	      3103	80000adc	413a5cb3	sra	x25,x20,x19	 x20:0x00000000 x19:0x00008000 x25=0x00000000
       31055000	      3104	80000ae0	6c8c6693	ori	x13,x24,1736	 x24:0x0000000a x13=0x000006ca
       31065000	      3105	80000ae4	00c40433	add	x8,x8,x12	  x8:0x00000000 x12:0x00000001  x8=0x00000001
       31075000	      3106	80000ae8	0191c8b3	xor	x17,x3,x25	  x3:0x00000001 x25:0x00000000 x17=0x00000001
       31085000	      3107	80000aec	004b8b93	addi	x23,x23,4	 x23:0xfffffff7 x23=0xfffffffb
       31095000	      3108	80000af0	ff2beae3	bltu	x23,x18,80000ae4	 x23:0xfffffffb x18:0x00000013
       31105000	      3109	80000af4	013458b3	srl	x17,x8,x19	  x8:0x00000001 x19:0x00008000 x17=0x00000001
       31115000	      3110	80000af8	048a5463	bge	x20,x8,80000b40	 x20:0x00000000  x8:0x00000001
       31125000	      3111	80000afc	00a26633	or	x12,x4,x10	  x4:0xfffff827 x10:0x00000000 x12=0xfffff827
       31135000	      3112	80000b00	0135c3b3	xor	x7,x11,x19	 x11:0x51bbaab0 x19:0x00008000  x7=0x51bb2ab0
       31145000	      3113	80000b04	40bc5a33	sra	x20,x24,x11	 x24:0x0000000a x11:0x51bbaab0 x20=0x00000000
       31155000	      3114	80000b08	011ed833	srl	x16,x29,x17	 x29:0x80009fe4 x17:0x00000001 x16=0x40004ff2
       31165000	      3115	80000b0c	e1a50393	addi	x7,x10,-486	 x10:0x00000000  x7=0xfffffe1a
       31175000	      3116	80000b10	0093c833	xor	x16,x7,x9	  x7:0xfffffe1a  x9:0x80009fc4 x16=0x7fff61de
       31185000	      3117	80000b14	40e55613	srai	x12,x10,0xe	 x10:0x00000000 x12=0x00000000
       31195000	      3118	80000b18	ac7c2237	lui	x4,0xac7c2	  x4=0xac7c2000
       31205000	      3119	80000b1c	74c4e893	ori	x17,x9,1868	  x9:0x80009fc4 x17=0x80009fcc
       31215000	      3120	80000b20	4128dc13	srai	x24,x17,0x12	 x17:0x80009fcc x24=0xffffe000
       31225000	      3121	80000b24	e8a47993	andi	x19,x8,-374	  x8:0x00000001 x19=0x00000000
       31235000	      3122	80000b28	002b8cb3	add	x25,x23,x2	 x23:0xfffffffb  x2:0x00000001 x25=0xfffffffc
       31245000	      3123	80000b2c	00000013	addi	x0,x0,0	  x0:0x00000000
       31255000	      3124	80000b30	008ed533	srl	x10,x29,x8	 x29:0x80009fe4  x8:0x00000001 x10=0x40004ff2
       31265000	      3125	80000b34	fbb1f113	andi	x2,x3,-69	  x3:0x00000001  x2=0x00000001
       31275000	      3126	80000b38	01b56133	or	x2,x10,x27	 x10:0x40004ff2 x27:0x0040004f  x2=0x40404fff
       31285000	      3127	80000b3c	35958593	addi	x11,x11,857	 x11:0x51bbaab0 x11=0x51bbae09
       31295000	      3128	80000b40	2ba8c013	xori	x0,x17,698	 x17:0x80009fcc
       31305000	      3129	80000b44	40d106b3	sub	x13,x2,x13	  x2:0x40404fff x13:0x000006ca x13=0x40404935
       31315000	      3130	80000b48	03698493	addi	x9,x19,54	 x19:0x00000000  x9=0x00000036
       31325000	      3131	80000b4c	01afee63	bltu	x31,x26,80000b68	 x31:0x00000001 x26:0x00000000
       31335000	      3132	80000b50	407002b3	sub	x5,x0,x7	  x0:0x00000000  x7:0xfffffe1a  x5=0x000001e6
       31345000	      3133	80000b54	023e1a63	bne	x28,x3,80000b88	 x28:0x80009fe4  x3:0x00000001
       31355000	      3134	00000000	00000013	addi	x0,x0,0	  x0:0x00000000
       31365000	      3135	80000b84	00000013	addi	x0,x0,0	  x0:0x00000000
       31375000	      3136	80000b88	00a885b3	add	x11,x17,x10	 x17:0x80009fcc x10:0x40004ff2 x11=0xc000efbe
       31385000	      3137	80000b8c	000dbd33	sltu	x26,x27,x0	 x27:0x0040004f  x0:0x00000000 x26=0x00000000
       31395000	      3138	80000b90	00167433	and	x8,x12,x1	 x12:0x00000000  x1:0x80009fe6  x8=0x00000000
       31405000	      3139	80000b94	b5ede313	ori	x6,x27,-1186	 x27:0x0040004f  x6=0xfffffb5f
       31415000	      3140	80000b98	00e6a0b3	slt	x1,x13,x14	 x13:0x40404935 x14:0x00000001  x1=0x00000000
       31425000	      3141	80000b9c	008033b3	sltu	x7,x0,x8	  x0:0x00000000  x8:0x00000000  x7=0x00000000
       31435000	      3142	80000ba0	0049fe33	and	x28,x19,x4	 x19:0x00000000  x4:0xac7c2000 x28=0x00000000
       31445000	      3143	80000ba4	de802a13	slti	x20,x0,-536	  x0:0x00000000 x20=0x00000000
       31455000	      3144	80000ba8	014d1a33	sll	x20,x26,x20	 x26:0x00000000 x20:0x00000000 x20=0x00000000
       31465000	      3145	80000bac	00ae9a13	slli	x20,x29,0xa	 x29:0x80009fe4 x20=0x027f9000
       31475000	      3146	80000bb0	d0752993	slti	x19,x10,-761	 x10:0x40004ff2 x19=0x00000000
       31485000	      3147	80000bb4	03e14a63	blt	x2,x30,80000be8	  x2:0x40404fff x30:0x80009fe4
       31495000	      3148	80000bb8	00637c63	bgeu	x6,x6,80000bd0	  x6:0xfffffb5f  x6:0xfffffb5f
       31505000	      3149	00000000	00000013	addi	x0,x0,0	  x0:0x00000000
       31515000	      3150	80000bcc	00000013	addi	x0,x0,0	  x0:0x00000000
       31525000	      3151	80000bd0	05c5f063	bgeu	x11,x28,80000c10	 x11:0xc000efbe x28:0x00000000
       31535000	      3152	00000000	00000013	addi	x0,x0,0	  x0:0x00000000
       31545000	      3153	80000c0c	00000013	addi	x0,x0,0	  x0:0x00000000
       31555000	      3154	80000c10	c4e48813	addi	x16,x9,-946	  x9:0x00000036 x16=0xfffffc84
       31565000	      3155	80000c14	01a0fa63	bgeu	x1,x26,80000c28	  x1:0x00000000 x26:0x00000000
       31575000	      3156	00000000	00000013	addi	x0,x0,0	  x0:0x00000000
       31585000	      3157	80000c24	00000013	addi	x0,x0,0	  x0:0x00000000
       31595000	      3158	80000c28	01e834b3	sltu	x9,x16,x30	 x16:0xfffffc84 x30:0x80009fe4  x9=0x00000000
       31605000	      3159	80000c2c	a0d1e113	ori	x2,x3,-1523	  x3:0x00000001  x2=0xfffffa0d
       31615000	      3160	80000c30	00d19c63	bne	x3,x13,80000c48	  x3:0x00000001 x13:0x40404935
       31625000	      3161	00000000	00000013	addi	x0,x0,0	  x0:0x00000000
       31635000	      3162	80000c44	00000013	addi	x0,x0,0	  x0:0x00000000
       31645000	      3163	80000c48	00fe7e63	bgeu	x28,x15,80000c64	 x28:0x00000000 x15:0x80009fc4
       31655000	      3164	80000c4c	02925263	bge	x4,x9,80000c70	  x4:0xac7c2000  x9:0x00000000
       31665000	      3165	80000c50	007f5bb3	srl	x23,x30,x7	 x30:0x80009fe4  x7:0x00000000 x23=0x80009fe4
       31675000	      3166	80000c54	04c66863	bltu	x12,x12,80000ca4	 x12:0x00000000 x12:0x00000000
       31685000	      3167	80000c58	005ee663	bltu	x29,x5,80000c64	 x29:0x80009fe4  x5:0x000001e6
       31695000	      3168	80000c5c	03097c63	bgeu	x18,x16,80000c94	 x18:0x00000013 x16:0xfffffc84
       31705000	      3169	80000c60	c8378493	addi	x9,x15,-893	 x15:0x80009fc4  x9=0x80009c47
       31715000	      3170	80000c64	fad87293	andi	x5,x16,-83	 x16:0xfffffc84  x5=0xfffffc84
       31725000	      3171	80000c68	02b8cc63	blt	x17,x11,80000ca0	 x17:0x80009fcc x11:0xc000efbe
       31735000	      3172	00000000	00000013	addi	x0,x0,0	  x0:0x00000000
       31745000	      3173	80000c9c	00000013	addi	x0,x0,0	  x0:0x00000000
       31755000	      3174	80000ca0	00000833	add	x16,x0,x0	  x0:0x00000000  x0:0x00000000 x16=0x00000000
       31765000	      3175	80000ca4	00da3eb3	sltu	x29,x20,x13	 x20:0x027f9000 x13:0x40404935 x29=0x00000001
       31775000	      3176	80000ca8	014c5913	srli	x18,x24,0x14	 x24:0xffffe000 x18=0x00000fff
       31785000	      3177	80000cac	01935833	srl	x16,x6,x25	  x6:0xfffffb5f x25:0xfffffffc x16=0x0000000f
       31795000	      3178	80000cb0	62d33313	sltiu	x6,x6,1581	  x6:0xfffffb5f  x6=0x00000000
       31805000	      3179	80000cb4	00ad7e63	bgeu	x26,x10,80000cd0	 x26:0x00000000 x10:0x40004ff2
       31815000	      3180	80000cb8	4103e213	ori	x4,x7,1040	  x7:0x00000000  x4=0x00000410
       31825000	      3181	80000cbc	012f5463	bge	x30,x18,80000cc4	 x30:0x80009fe4 x18:0x00000fff
       31835000	      3182	80000cc0	012db3b3	sltu	x7,x27,x18	 x27:0x0040004f x18:0x00000fff  x7=0x00000000
       31845000	      3183	80000cc4	ea132293	slti	x5,x6,-351	  x6:0x00000000  x5=0x00000000
       31855000	      3184	80000cc8	8e2cf713	andi	x14,x25,-1822	 x25:0xfffffffc x14=0xfffff8e0
       31865000	      3185	80000ccc	41265133	sra	x2,x12,x18	 x12:0x00000000 x18:0x00000fff  x2=0x00000000
       31875000	      3186	80000cd0	027a4663	blt	x20,x7,80000cfc	 x20:0x027f9000  x7:0x00000000
       31885000	      3187	80000cd4	4a3cdfb7	lui	x31,0x4a3cd	 x31=0x4a3cd000
       31895000	      3188	80000cd8	013a1c13	slli	x24,x20,0x13	 x20:0x027f9000 x24=0x80000000
       31905000	      3189	80000cdc	00a23d33	sltu	x26,x4,x10	  x4:0x00000410 x10:0x40004ff2 x26=0x00000001
       31915000	      3190	80000ce0	e7a9c013	xori	x0,x19,-390	 x19:0x00000000
       31925000	      3191	80000ce4	00063133	sltu	x2,x12,x0	 x12:0x00000000  x0:0x00000000  x2=0x00000000
       31935000	      3192	80000ce8	00000013	addi	x0,x0,0	  x0:0x00000000
       31945000	      3193	80000cec	e8edfe97	auipc	x29,0xe8edf	 x29=0x68edfce8
       31955000	      3194	80000cf0	01d75993	srli	x19,x14,0x1d	 x14:0xfffff8e0 x19=0x00000007
       31965000	      3195	80000cf4	015d5493	srli	x9,x26,0x15	 x26:0x00000001  x9=0x00000000
       31975000	      3196	80000cf8	011a3533	sltu	x10,x20,x17	 x20:0x027f9000 x17:0x80009fcc x10=0x00000001
       31985000	      3197	80000cfc	60ad4913	xori	x18,x26,1546	 x26:0x00000001 x18=0x0000060b
       31995000	      3198	80000d00	402406b3	sub	x13,x8,x2	  x8:0x00000000  x2:0x00000000 x13=0x00000000
       32005000	      3199	80000d04	0632e293	ori	x5,x5,99	  x5:0x00000000  x5=0x00000063
       32015000	      3200	80000d08	05311063	bne	x2,x19,80000d48	  x2:0x00000000 x19:0x00000007
       32025000	      3201	00000000	00000013	addi	x0,x0,0	  x0:0x00000000
       32035000	      3202	80000d44	00000013	addi	x0,x0,0	  x0:0x00000000
       32045000	      3203	80000d48	f280c093	xori	x1,x1,-216	  x1:0x00000000  x1=0xffffff28
       32055000	      3204	80000d4c	00e53d33	sltu	x26,x10,x14	 x10:0x00000001 x14:0xfffff8e0 x26=0x00000001
       32065000	      3205	80000d50	003cb8b3	sltu	x17,x25,x3	 x25:0xfffffffc  x3:0x00000001 x17=0x00000000
       32075000	      3206	80000d54	4144d5b3	sra	x11,x9,x20	  x9:0x00000000 x20:0x027f9000 x11=0x00000000
       32085000	      3207	80000d58	004aab83	lw	x23,4(x21)	 x21:0x80009f28 x23=0x80002d98 PA:0x80009f2c
       32095000	      3208	80000d5c	0105b0b3	sltu	x1,x11,x16	 x11:0x00000000 x16:0x0000000f  x1=0x00000001
       32105000	      3209	80000d60	01777933	and	x18,x14,x23	 x14:0xfffff8e0 x23:0x80002d98 x18=0x80002880
       32115000	      3210	80000d64	417f5493	srai	x9,x30,0x17	 x30:0x80009fe4  x9=0xffffff00
       32125000	      3211	80000d68	01ca73b3	and	x7,x20,x28	 x20:0x027f9000 x28:0x00000000  x7=0x00000000
       32135000	      3212	80000d6c	01d9b1b3	sltu	x3,x19,x29	 x19:0x00000007 x29:0x68edfce8  x3=0x00000001
       32145000	      3213	80000d70	024a8a93	addi	x21,x21,36	 x21:0x80009f28 x21=0x80009f4c
       32155000	      3214	80000d74	dc444a13	xori	x20,x8,-572	  x8:0x00000000 x20=0xfffffdc4
       32165000	      3215	80000d78	01e67833	and	x16,x12,x30	 x12:0x00000000 x30:0x80009fe4 x16=0x00000000
       32175000	      3216	80000d7c	000b8d13	addi	x26,x23,0	 x23:0x80002d98 x26=0x80002d98
       32185000	      3217	80000d80	000d0d67	jalr	x26,x26,0	 x26:0x80002d98 x26=0x80000d80
       32195000	      3218	00000000	00000013	addi	x0,x0,0	  x0:0x00000000
       32205000	      3219	80002d98	00000013	addi	x0,x0,0	  x0:0x00000000
       32215000	      3220	80002d9c	011cd133	srl	x2,x25,x17	 x25:0xfffffffc x17:0x00000000  x2=0xfffffffc
       32225000	      3221	80002da0	01a7d593	srli	x11,x15,0x1a	 x15:0x80009fc4 x11=0x00000020
       32235000	      3222	80002da4	0003c0b3	xor	x1,x7,x0	  x7:0x00000000  x0:0x00000000  x1=0x00000000
       32245000	      3223	80002da8	15a53fb7	lui	x31,0x15a53	 x31=0x15a53000
       32255000	      3224	80002dac	018d9333	sll	x6,x27,x24	 x27:0x0040004f x24:0x80000000  x6=0x0040004f
       32265000	      3225	80002db0	ac312293	slti	x5,x2,-1341	  x2:0xfffffffc  x5=0x00000000
       32275000	      3226	80002db4	ffffd417	auipc	x8,0xffffd	  x8=0x7ffffdb0
       32285000	      3227	80002db8	4a840413	addi	x8,x8,1192	  x8:0x7ffffdb0  x8=0x80000258
       32295000	      3228	80002dbc	ca740413	addi	x8,x8,-857	  x8:0x80000258  x8=0x7ffffeff
       32305000	      3229	80002dc0	0d1f6b93	ori	x23,x30,209	 x30:0x80009fe4 x23=0x80009ff5
       32315000	      3230	80002dc4	01226663	bltu	x4,x18,80002dd0	  x4:0x00000410 x18:0x80002880
       32325000	      3231	00000000	00000013	addi	x0,x0,0	  x0:0x00000000
       32335000	      3232	80002dcc	00000013	addi	x0,x0,0	  x0:0x00000000
       32345000	      3233	80002dd0	35a40be7	jalr	x23,x8,858	  x8:0x7ffffeff x23=0x80002dd0
       32355000	      3234	00000000	00000013	addi	x0,x0,0	  x0:0x00000000
       32365000	      3235	80000258	00000013	addi	x0,x0,0	  x0:0x00000000
       32375000	      3236	8000025c	fd0a8a93	addi	x21,x21,-48	 x21:0x80009f4c x21=0x80009f1c
       32385000	      3237	80000260	416b5313	srai	x6,x22,0x16	 x22:0x00000000  x6=0x00000000
       32395000	      3238	80000264	2f8f4093	xori	x1,x30,760	 x30:0x80009fe4  x1=0x80009d1c
       32405000	      3239	80000268	1da77a13	andi	x20,x14,474	 x14:0xfffff8e0 x20=0x000000c0
       32415000	      3240	8000026c	098192b7	lui	x5,0x9819	  x5=0x09819000
       32425000	      3241	80000270	41e65813	srai	x16,x12,0x1e	 x12:0x00000000 x16=0x00000000
       32435000	      3242	80000274	01e09693	slli	x13,x1,0x1e	  x1:0x80009d1c x13=0x00000000
       32445000	      3243	80000278	411753b3	sra	x7,x14,x17	 x14:0xfffff8e0 x17:0x00000000  x7=0xfffff8e0
       32455000	      3244	8000027c	70f9f993	andi	x19,x19,1807	 x19:0x00000007 x19=0x00000007
       32465000	      3245	80000280	017aa223	sw	x23,4(x21)	 x21:0x80009f1c x23:0x80002dd0 PA:0x80009f20
       32475000	      3246	80000284	c6658d13	addi	x26,x11,-922	 x11:0x00000020 x26=0xfffffc86
       32485000	      3247	80000288	00a00913	addi	x18,x0,10	  x0:0x00000000 x18=0x0000000a
       32495000	      3248	8000028c	01721013	slli	x0,x4,0x17	  x4:0x00000410
       32505000	      3249	80000290	01aeba33	sltu	x20,x29,x26	 x29:0x68edfce8 x26:0xfffffc86 x20=0x00000001
       32515000	      3250	80000294	00a00813	addi	x16,x0,10	  x0:0x00000000 x16=0x0000000a
       32525000	      3251	80000298	00a87733	and	x14,x16,x10	 x16:0x0000000a x10:0x00000001 x14=0x00000000
       32535000	      3252	8000029c	ff990913	addi	x18,x18,-7	 x18:0x0000000a x18=0x00000003
       32545000	      3253	800002a0	007c99b3	sll	x19,x25,x7	 x25:0xfffffffc  x7:0xfffff8e0 x19=0xfffffffc
       32555000	      3254	800002a4	ff097ae3	bgeu	x18,x16,80000298	 x18:0x00000003 x16:0x0000000a
       32565000	      3255	800002a8	3c5d8693	addi	x13,x27,965	 x27:0x0040004f x13=0x00400414
       32575000	      3256	800002ac	00800e13	addi	x28,x0,8	  x0:0x00000000 x28=0x00000008
       32585000	      3257	800002b0	4092de93	srai	x29,x5,0x9	  x5:0x09819000 x29=0x0004c0c8
       32595000	      3258	800002b4	ffc00d93	addi	x27,x0,-4	  x0:0x00000000 x27=0xfffffffc
       32605000	      3259	800002b8	0001e533	or	x10,x3,x0	  x3:0x00000001  x0:0x00000000 x10=0x00000001
       32615000	      3260	800002bc	bfd5e093	ori	x1,x11,-1027	 x11:0x00000020  x1=0xfffffbfd
       32625000	      3261	800002c0	00735113	srli	x2,x6,0x7	  x6:0x00000000  x2=0x00000000
       32635000	      3262	800002c4	fffe0e13	addi	x28,x28,-1	 x28:0x00000008 x28=0x00000007
       32645000	      3263	800002c8	00600a13	addi	x20,x0,6	  x0:0x00000000 x20=0x00000006
       32655000	      3264	800002cc	00c7d533	srl	x10,x15,x12	 x15:0x80009fc4 x12:0x00000000 x10=0x80009fc4
       32665000	      3265	800002d0	01100413	addi	x8,x0,17	  x0:0x00000000  x8=0x00000011
       32675000	      3266	800002d4	01357833	and	x16,x10,x19	 x10:0x80009fc4 x19:0xfffffffc x16=0x80009fc4
       32685000	      3267	800002d8	2c143093	sltiu	x1,x8,705	  x8:0x00000011  x1=0x00000001
       32695000	      3268	800002dc	0072d993	srli	x19,x5,0x7	  x5:0x09819000 x19=0x00130320
       32705000	      3269	800002e0	00c16333	or	x6,x2,x12	  x2:0x00000000 x12:0x00000000  x6=0x00000000
       32715000	      3270	800002e4	4267cb93	xori	x23,x15,1062	 x15:0x80009fc4 x23=0x80009be2
       32725000	      3271	800002e8	009a0a13	addi	x20,x20,9	 x20:0x00000006 x20=0x0000000f
       32735000	      3272	800002ec	e176e3b7	lui	x7,0xe176e	  x7=0xe176e000
       32745000	      3273	800002f0	41250233	sub	x4,x10,x18	 x10:0x80009fc4 x18:0x00000003  x4=0x80009fc1
       32755000	      3274	800002f4	5e237693	andi	x13,x6,1506	  x6:0x00000000 x13=0x00000000
       32765000	      3275	800002f8	fe8a60e3	bltu	x20,x8,800002d8	 x20:0x0000000f  x8:0x00000011
       32775000	      3276	00000000	00000013	addi	x0,x0,0	  x0:0x00000000
       32785000	      3277	800002d4	00000013	addi	x0,x0,0	  x0:0x00000000
       32795000	      3278	800002d8	2c143093	sltiu	x1,x8,705	  x8:0x00000011  x1=0x00000001
       32805000	      3279	800002dc	0072d993	srli	x19,x5,0x7	  x5:0x09819000 x19=0x00130320
       32815000	      3280	800002e0	00c16333	or	x6,x2,x12	  x2:0x00000000 x12:0x00000000  x6=0x00000000
       32825000	      3281	800002e4	4267cb93	xori	x23,x15,1062	 x15:0x80009fc4 x23=0x80009be2
       32835000	      3282	800002e8	009a0a13	addi	x20,x20,9	 x20:0x0000000f x20=0x00000018
       32845000	      3283	800002ec	e176e3b7	lui	x7,0xe176e	  x7=0xe176e000
       32855000	      3284	800002f0	41250233	sub	x4,x10,x18	 x10:0x80009fc4 x18:0x00000003  x4=0x80009fc1
       32865000	      3285	800002f4	5e237693	andi	x13,x6,1506	  x6:0x00000000 x13=0x00000000
       32875000	      3286	800002f8	fe8a60e3	bltu	x20,x8,800002d8	 x20:0x00000018  x8:0x00000011
       32885000	      3287	800002fc	0025c3b3	xor	x7,x11,x2	 x11:0x00000020  x2:0x00000000  x7=0x00000020
       32895000	      3288	80000300	400cd733	sra	x14,x25,x0	 x25:0xfffffffc  x0:0x00000000 x14=0xfffffffc
       32905000	      3289	80000304	a1fdc337	lui	x6,0xa1fdc	  x6=0xa1fdc000
       32915000	      3290	80000308	cebb8913	addi	x18,x23,-789	 x23:0x80009be2 x18=0x800098cd
       32925000	      3291	8000030c	fbbe58e3	bge	x28,x27,800002bc	 x28:0x00000007 x27:0xfffffffc
       32935000	      3292	00000000	00000013	addi	x0,x0,0	  x0:0x00000000
       32945000	      3293	800002b8	00000013	addi	x0,x0,0	  x0:0x00000000
       32955000	      3294	800002bc	bfd5e093	ori	x1,x11,-1027	 x11:0x00000020  x1=0xfffffbfd
       32965000	      3295	800002c0	00735113	srli	x2,x6,0x7	  x6:0xa1fdc000  x2=0x0143fb80
       32975000	      3296	800002c4	fffe0e13	addi	x28,x28,-1	 x28:0x00000007 x28=0x00000006
       32985000	      3297	800002c8	00600a13	addi	x20,x0,6	  x0:0x00000000 x20=0x00000006
       32995000	      3298	800002cc	00c7d533	srl	x10,x15,x12	 x15:0x80009fc4 x12:0x00000000 x10=0x80009fc4
       33005000	      3299	800002d0	01100413	addi	x8,x0,17	  x0:0x00000000  x8=0x00000011
       33015000	      3300	800002d4	01357833	and	x16,x10,x19	 x10:0x80009fc4 x19:0x00130320 x16=0x00000300
       33025000	      3301	800002d8	2c143093	sltiu	x1,x8,705	  x8:0x00000011  x1=0x00000001
       33035000	      3302	800002dc	0072d993	srli	x19,x5,0x7	  x5:0x09819000 x19=0x00130320
       33045000	      3303	800002e0	00c16333	or	x6,x2,x12	  x2:0x0143fb80 x12:0x00000000  x6=0x0143fb80
       33055000	      3304	800002e4	4267cb93	xori	x23,x15,1062	 x15:0x80009fc4 x23=0x80009be2
       33065000	      3305	800002e8	009a0a13	addi	x20,x20,9	 x20:0x00000006 x20=0x0000000f
       33075000	      3306	800002ec	e176e3b7	lui	x7,0xe176e	  x7=0xe176e000
       33085000	      3307	800002f0	41250233	sub	x4,x10,x18	 x10:0x80009fc4 x18:0x800098cd  x4=0x000006f7
       33095000	      3308	800002f4	5e237693	andi	x13,x6,1506	  x6:0x0143fb80 x13=0x00000180
       33105000	      3309	800002f8	fe8a60e3	bltu	x20,x8,800002d8	 x20:0x0000000f  x8:0x00000011
       33115000	      3310	00000000	00000013	addi	x0,x0,0	  x0:0x00000000
       33125000	      3311	800002d4	00000013	addi	x0,x0,0	  x0:0x00000000
       33135000	      3312	800002d8	2c143093	sltiu	x1,x8,705	  x8:0x00000011  x1=0x00000001
       33145000	      3313	800002dc	0072d993	srli	x19,x5,0x7	  x5:0x09819000 x19=0x00130320
       33155000	      3314	800002e0	00c16333	or	x6,x2,x12	  x2:0x0143fb80 x12:0x00000000  x6=0x0143fb80
       33165000	      3315	800002e4	4267cb93	xori	x23,x15,1062	 x15:0x80009fc4 x23=0x80009be2
       33175000	      3316	800002e8	009a0a13	addi	x20,x20,9	 x20:0x0000000f x20=0x00000018
       33185000	      3317	800002ec	e176e3b7	lui	x7,0xe176e	  x7=0xe176e000
       33195000	      3318	800002f0	41250233	sub	x4,x10,x18	 x10:0x80009fc4 x18:0x800098cd  x4=0x000006f7
       33205000	      3319	800002f4	5e237693	andi	x13,x6,1506	  x6:0x0143fb80 x13=0x00000180
       33215000	      3320	800002f8	fe8a60e3	bltu	x20,x8,800002d8	 x20:0x00000018  x8:0x00000011
       33225000	      3321	800002fc	0025c3b3	xor	x7,x11,x2	 x11:0x00000020  x2:0x0143fb80  x7=0x0143fba0
       33235000	      3322	80000300	400cd733	sra	x14,x25,x0	 x25:0xfffffffc  x0:0x00000000 x14=0xfffffffc
       33245000	      3323	80000304	a1fdc337	lui	x6,0xa1fdc	  x6=0xa1fdc000
       33255000	      3324	80000308	cebb8913	addi	x18,x23,-789	 x23:0x80009be2 x18=0x800098cd
       33265000	      3325	8000030c	fbbe58e3	bge	x28,x27,800002bc	 x28:0x00000006 x27:0xfffffffc
       33275000	      3326	00000000	00000013	addi	x0,x0,0	  x0:0x00000000
       33285000	      3327	800002b8	00000013	addi	x0,x0,0	  x0:0x00000000
       33295000	      3328	800002bc	bfd5e093	ori	x1,x11,-1027	 x11:0x00000020  x1=0xfffffbfd
       33305000	      3329	800002c0	00735113	srli	x2,x6,0x7	  x6:0xa1fdc000  x2=0x0143fb80
       33315000	      3330	800002c4	fffe0e13	addi	x28,x28,-1	 x28:0x00000006 x28=0x00000005
       33325000	      3331	800002c8	00600a13	addi	x20,x0,6	  x0:0x00000000 x20=0x00000006
       33335000	      3332	800002cc	00c7d533	srl	x10,x15,x12	 x15:0x80009fc4 x12:0x00000000 x10=0x80009fc4
       33345000	      3333	800002d0	01100413	addi	x8,x0,17	  x0:0x00000000  x8=0x00000011
       33355000	      3334	800002d4	01357833	and	x16,x10,x19	 x10:0x80009fc4 x19:0x00130320 x16=0x00000300
       33365000	      3335	800002d8	2c143093	sltiu	x1,x8,705	  x8:0x00000011  x1=0x00000001
       33375000	      3336	800002dc	0072d993	srli	x19,x5,0x7	  x5:0x09819000 x19=0x00130320
       33385000	      3337	800002e0	00c16333	or	x6,x2,x12	  x2:0x0143fb80 x12:0x00000000  x6=0x0143fb80
       33395000	      3338	800002e4	4267cb93	xori	x23,x15,1062	 x15:0x80009fc4 x23=0x80009be2
       33405000	      3339	800002e8	009a0a13	addi	x20,x20,9	 x20:0x00000006 x20=0x0000000f
       33415000	      3340	800002ec	e176e3b7	lui	x7,0xe176e	  x7=0xe176e000
       33425000	      3341	800002f0	41250233	sub	x4,x10,x18	 x10:0x80009fc4 x18:0x800098cd  x4=0x000006f7
       33435000	      3342	800002f4	5e237693	andi	x13,x6,1506	  x6:0x0143fb80 x13=0x00000180
       33445000	      3343	800002f8	fe8a60e3	bltu	x20,x8,800002d8	 x20:0x0000000f  x8:0x00000011
       33455000	      3344	00000000	00000013	addi	x0,x0,0	  x0:0x00000000
       33465000	      3345	800002d4	00000013	addi	x0,x0,0	  x0:0x00000000
       33475000	      3346	800002d8	2c143093	sltiu	x1,x8,705	  x8:0x00000011  x1=0x00000001
       33485000	      3347	800002dc	0072d993	srli	x19,x5,0x7	  x5:0x09819000 x19=0x00130320
       33495000	      3348	800002e0	00c16333	or	x6,x2,x12	  x2:0x0143fb80 x12:0x00000000  x6=0x0143fb80
       33505000	      3349	800002e4	4267cb93	xori	x23,x15,1062	 x15:0x80009fc4 x23=0x80009be2
       33515000	      3350	800002e8	009a0a13	addi	x20,x20,9	 x20:0x0000000f x20=0x00000018
       33525000	      3351	800002ec	e176e3b7	lui	x7,0xe176e	  x7=0xe176e000
       33535000	      3352	800002f0	41250233	sub	x4,x10,x18	 x10:0x80009fc4 x18:0x800098cd  x4=0x000006f7
       33545000	      3353	800002f4	5e237693	andi	x13,x6,1506	  x6:0x0143fb80 x13=0x00000180
       33555000	      3354	800002f8	fe8a60e3	bltu	x20,x8,800002d8	 x20:0x00000018  x8:0x00000011
       33565000	      3355	800002fc	0025c3b3	xor	x7,x11,x2	 x11:0x00000020  x2:0x0143fb80  x7=0x0143fba0
       33575000	      3356	80000300	400cd733	sra	x14,x25,x0	 x25:0xfffffffc  x0:0x00000000 x14=0xfffffffc
       33585000	      3357	80000304	a1fdc337	lui	x6,0xa1fdc	  x6=0xa1fdc000
       33595000	      3358	80000308	cebb8913	addi	x18,x23,-789	 x23:0x80009be2 x18=0x800098cd
       33605000	      3359	8000030c	fbbe58e3	bge	x28,x27,800002bc	 x28:0x00000005 x27:0xfffffffc
       33615000	      3360	00000000	00000013	addi	x0,x0,0	  x0:0x00000000
       33625000	      3361	800002b8	00000013	addi	x0,x0,0	  x0:0x00000000
       33635000	      3362	800002bc	bfd5e093	ori	x1,x11,-1027	 x11:0x00000020  x1=0xfffffbfd
       33645000	      3363	800002c0	00735113	srli	x2,x6,0x7	  x6:0xa1fdc000  x2=0x0143fb80
       33655000	      3364	800002c4	fffe0e13	addi	x28,x28,-1	 x28:0x00000005 x28=0x00000004
       33665000	      3365	800002c8	00600a13	addi	x20,x0,6	  x0:0x00000000 x20=0x00000006
       33675000	      3366	800002cc	00c7d533	srl	x10,x15,x12	 x15:0x80009fc4 x12:0x00000000 x10=0x80009fc4
       33685000	      3367	800002d0	01100413	addi	x8,x0,17	  x0:0x00000000  x8=0x00000011
       33695000	      3368	800002d4	01357833	and	x16,x10,x19	 x10:0x80009fc4 x19:0x00130320 x16=0x00000300
       33705000	      3369	800002d8	2c143093	sltiu	x1,x8,705	  x8:0x00000011  x1=0x00000001
       33715000	      3370	800002dc	0072d993	srli	x19,x5,0x7	  x5:0x09819000 x19=0x00130320
       33725000	      3371	800002e0	00c16333	or	x6,x2,x12	  x2:0x0143fb80 x12:0x00000000  x6=0x0143fb80
       33735000	      3372	800002e4	4267cb93	xori	x23,x15,1062	 x15:0x80009fc4 x23=0x80009be2
       33745000	      3373	800002e8	009a0a13	addi	x20,x20,9	 x20:0x00000006 x20=0x0000000f
       33755000	      3374	800002ec	e176e3b7	lui	x7,0xe176e	  x7=0xe176e000
       33765000	      3375	800002f0	41250233	sub	x4,x10,x18	 x10:0x80009fc4 x18:0x800098cd  x4=0x000006f7
       33775000	      3376	800002f4	5e237693	andi	x13,x6,1506	  x6:0x0143fb80 x13=0x00000180
       33785000	      3377	800002f8	fe8a60e3	bltu	x20,x8,800002d8	 x20:0x0000000f  x8:0x00000011
       33795000	      3378	00000000	00000013	addi	x0,x0,0	  x0:0x00000000
       33805000	      3379	800002d4	00000013	addi	x0,x0,0	  x0:0x00000000
       33815000	      3380	800002d8	2c143093	sltiu	x1,x8,705	  x8:0x00000011  x1=0x00000001
       33825000	      3381	800002dc	0072d993	srli	x19,x5,0x7	  x5:0x09819000 x19=0x00130320
       33835000	      3382	800002e0	00c16333	or	x6,x2,x12	  x2:0x0143fb80 x12:0x00000000  x6=0x0143fb80
       33845000	      3383	800002e4	4267cb93	xori	x23,x15,1062	 x15:0x80009fc4 x23=0x80009be2
       33855000	      3384	800002e8	009a0a13	addi	x20,x20,9	 x20:0x0000000f x20=0x00000018
       33865000	      3385	800002ec	e176e3b7	lui	x7,0xe176e	  x7=0xe176e000
       33875000	      3386	800002f0	41250233	sub	x4,x10,x18	 x10:0x80009fc4 x18:0x800098cd  x4=0x000006f7
       33885000	      3387	800002f4	5e237693	andi	x13,x6,1506	  x6:0x0143fb80 x13=0x00000180
       33895000	      3388	800002f8	fe8a60e3	bltu	x20,x8,800002d8	 x20:0x00000018  x8:0x00000011
       33905000	      3389	800002fc	0025c3b3	xor	x7,x11,x2	 x11:0x00000020  x2:0x0143fb80  x7=0x0143fba0
       33915000	      3390	80000300	400cd733	sra	x14,x25,x0	 x25:0xfffffffc  x0:0x00000000 x14=0xfffffffc
       33925000	      3391	80000304	a1fdc337	lui	x6,0xa1fdc	  x6=0xa1fdc000
       33935000	      3392	80000308	cebb8913	addi	x18,x23,-789	 x23:0x80009be2 x18=0x800098cd
       33945000	      3393	8000030c	fbbe58e3	bge	x28,x27,800002bc	 x28:0x00000004 x27:0xfffffffc
       33955000	      3394	00000000	00000013	addi	x0,x0,0	  x0:0x00000000
       33965000	      3395	800002b8	00000013	addi	x0,x0,0	  x0:0x00000000
       33975000	      3396	800002bc	bfd5e093	ori	x1,x11,-1027	 x11:0x00000020  x1=0xfffffbfd
       33985000	      3397	800002c0	00735113	srli	x2,x6,0x7	  x6:0xa1fdc000  x2=0x0143fb80
       33995000	      3398	800002c4	fffe0e13	addi	x28,x28,-1	 x28:0x00000004 x28=0x00000003
       34005000	      3399	800002c8	00600a13	addi	x20,x0,6	  x0:0x00000000 x20=0x00000006
       34015000	      3400	800002cc	00c7d533	srl	x10,x15,x12	 x15:0x80009fc4 x12:0x00000000 x10=0x80009fc4
       34025000	      3401	800002d0	01100413	addi	x8,x0,17	  x0:0x00000000  x8=0x00000011
       34035000	      3402	800002d4	01357833	and	x16,x10,x19	 x10:0x80009fc4 x19:0x00130320 x16=0x00000300
       34045000	      3403	800002d8	2c143093	sltiu	x1,x8,705	  x8:0x00000011  x1=0x00000001
       34055000	      3404	800002dc	0072d993	srli	x19,x5,0x7	  x5:0x09819000 x19=0x00130320
       34065000	      3405	800002e0	00c16333	or	x6,x2,x12	  x2:0x0143fb80 x12:0x00000000  x6=0x0143fb80
       34075000	      3406	800002e4	4267cb93	xori	x23,x15,1062	 x15:0x80009fc4 x23=0x80009be2
       34085000	      3407	800002e8	009a0a13	addi	x20,x20,9	 x20:0x00000006 x20=0x0000000f
       34095000	      3408	800002ec	e176e3b7	lui	x7,0xe176e	  x7=0xe176e000
       34105000	      3409	800002f0	41250233	sub	x4,x10,x18	 x10:0x80009fc4 x18:0x800098cd  x4=0x000006f7
       34115000	      3410	800002f4	5e237693	andi	x13,x6,1506	  x6:0x0143fb80 x13=0x00000180
       34125000	      3411	800002f8	fe8a60e3	bltu	x20,x8,800002d8	 x20:0x0000000f  x8:0x00000011
       34135000	      3412	00000000	00000013	addi	x0,x0,0	  x0:0x00000000
       34145000	      3413	800002d4	00000013	addi	x0,x0,0	  x0:0x00000000
       34155000	      3414	800002d8	2c143093	sltiu	x1,x8,705	  x8:0x00000011  x1=0x00000001
       34165000	      3415	800002dc	0072d993	srli	x19,x5,0x7	  x5:0x09819000 x19=0x00130320
       34175000	      3416	800002e0	00c16333	or	x6,x2,x12	  x2:0x0143fb80 x12:0x00000000  x6=0x0143fb80
       34185000	      3417	800002e4	4267cb93	xori	x23,x15,1062	 x15:0x80009fc4 x23=0x80009be2
       34195000	      3418	800002e8	009a0a13	addi	x20,x20,9	 x20:0x0000000f x20=0x00000018
       34205000	      3419	800002ec	e176e3b7	lui	x7,0xe176e	  x7=0xe176e000
       34215000	      3420	800002f0	41250233	sub	x4,x10,x18	 x10:0x80009fc4 x18:0x800098cd  x4=0x000006f7
       34225000	      3421	800002f4	5e237693	andi	x13,x6,1506	  x6:0x0143fb80 x13=0x00000180
       34235000	      3422	800002f8	fe8a60e3	bltu	x20,x8,800002d8	 x20:0x00000018  x8:0x00000011
       34245000	      3423	800002fc	0025c3b3	xor	x7,x11,x2	 x11:0x00000020  x2:0x0143fb80  x7=0x0143fba0
       34255000	      3424	80000300	400cd733	sra	x14,x25,x0	 x25:0xfffffffc  x0:0x00000000 x14=0xfffffffc
       34265000	      3425	80000304	a1fdc337	lui	x6,0xa1fdc	  x6=0xa1fdc000
       34275000	      3426	80000308	cebb8913	addi	x18,x23,-789	 x23:0x80009be2 x18=0x800098cd
       34285000	      3427	8000030c	fbbe58e3	bge	x28,x27,800002bc	 x28:0x00000003 x27:0xfffffffc
       34295000	      3428	00000000	00000013	addi	x0,x0,0	  x0:0x00000000
       34305000	      3429	800002b8	00000013	addi	x0,x0,0	  x0:0x00000000
       34315000	      3430	800002bc	bfd5e093	ori	x1,x11,-1027	 x11:0x00000020  x1=0xfffffbfd
       34325000	      3431	800002c0	00735113	srli	x2,x6,0x7	  x6:0xa1fdc000  x2=0x0143fb80
       34335000	      3432	800002c4	fffe0e13	addi	x28,x28,-1	 x28:0x00000003 x28=0x00000002
       34345000	      3433	800002c8	00600a13	addi	x20,x0,6	  x0:0x00000000 x20=0x00000006
       34355000	      3434	800002cc	00c7d533	srl	x10,x15,x12	 x15:0x80009fc4 x12:0x00000000 x10=0x80009fc4
       34365000	      3435	800002d0	01100413	addi	x8,x0,17	  x0:0x00000000  x8=0x00000011
       34375000	      3436	800002d4	01357833	and	x16,x10,x19	 x10:0x80009fc4 x19:0x00130320 x16=0x00000300
       34385000	      3437	800002d8	2c143093	sltiu	x1,x8,705	  x8:0x00000011  x1=0x00000001
       34395000	      3438	800002dc	0072d993	srli	x19,x5,0x7	  x5:0x09819000 x19=0x00130320
       34405000	      3439	800002e0	00c16333	or	x6,x2,x12	  x2:0x0143fb80 x12:0x00000000  x6=0x0143fb80
       34415000	      3440	800002e4	4267cb93	xori	x23,x15,1062	 x15:0x80009fc4 x23=0x80009be2
       34425000	      3441	800002e8	009a0a13	addi	x20,x20,9	 x20:0x00000006 x20=0x0000000f
       34435000	      3442	800002ec	e176e3b7	lui	x7,0xe176e	  x7=0xe176e000
       34445000	      3443	800002f0	41250233	sub	x4,x10,x18	 x10:0x80009fc4 x18:0x800098cd  x4=0x000006f7
       34455000	      3444	800002f4	5e237693	andi	x13,x6,1506	  x6:0x0143fb80 x13=0x00000180
       34465000	      3445	800002f8	fe8a60e3	bltu	x20,x8,800002d8	 x20:0x0000000f  x8:0x00000011
       34475000	      3446	00000000	00000013	addi	x0,x0,0	  x0:0x00000000
       34485000	      3447	800002d4	00000013	addi	x0,x0,0	  x0:0x00000000
       34495000	      3448	800002d8	2c143093	sltiu	x1,x8,705	  x8:0x00000011  x1=0x00000001
       34505000	      3449	800002dc	0072d993	srli	x19,x5,0x7	  x5:0x09819000 x19=0x00130320
       34515000	      3450	800002e0	00c16333	or	x6,x2,x12	  x2:0x0143fb80 x12:0x00000000  x6=0x0143fb80
       34525000	      3451	800002e4	4267cb93	xori	x23,x15,1062	 x15:0x80009fc4 x23=0x80009be2
       34535000	      3452	800002e8	009a0a13	addi	x20,x20,9	 x20:0x0000000f x20=0x00000018
       34545000	      3453	800002ec	e176e3b7	lui	x7,0xe176e	  x7=0xe176e000
       34555000	      3454	800002f0	41250233	sub	x4,x10,x18	 x10:0x80009fc4 x18:0x800098cd  x4=0x000006f7
       34565000	      3455	800002f4	5e237693	andi	x13,x6,1506	  x6:0x0143fb80 x13=0x00000180
       34575000	      3456	800002f8	fe8a60e3	bltu	x20,x8,800002d8	 x20:0x00000018  x8:0x00000011
       34585000	      3457	800002fc	0025c3b3	xor	x7,x11,x2	 x11:0x00000020  x2:0x0143fb80  x7=0x0143fba0
       34595000	      3458	80000300	400cd733	sra	x14,x25,x0	 x25:0xfffffffc  x0:0x00000000 x14=0xfffffffc
       34605000	      3459	80000304	a1fdc337	lui	x6,0xa1fdc	  x6=0xa1fdc000
       34615000	      3460	80000308	cebb8913	addi	x18,x23,-789	 x23:0x80009be2 x18=0x800098cd
       34625000	      3461	8000030c	fbbe58e3	bge	x28,x27,800002bc	 x28:0x00000002 x27:0xfffffffc
       34635000	      3462	00000000	00000013	addi	x0,x0,0	  x0:0x00000000
       34645000	      3463	800002b8	00000013	addi	x0,x0,0	  x0:0x00000000
       34655000	      3464	800002bc	bfd5e093	ori	x1,x11,-1027	 x11:0x00000020  x1=0xfffffbfd
       34665000	      3465	800002c0	00735113	srli	x2,x6,0x7	  x6:0xa1fdc000  x2=0x0143fb80
       34675000	      3466	800002c4	fffe0e13	addi	x28,x28,-1	 x28:0x00000002 x28=0x00000001
       34685000	      3467	800002c8	00600a13	addi	x20,x0,6	  x0:0x00000000 x20=0x00000006
       34695000	      3468	800002cc	00c7d533	srl	x10,x15,x12	 x15:0x80009fc4 x12:0x00000000 x10=0x80009fc4
       34705000	      3469	800002d0	01100413	addi	x8,x0,17	  x0:0x00000000  x8=0x00000011
       34715000	      3470	800002d4	01357833	and	x16,x10,x19	 x10:0x80009fc4 x19:0x00130320 x16=0x00000300
       34725000	      3471	800002d8	2c143093	sltiu	x1,x8,705	  x8:0x00000011  x1=0x00000001
       34735000	      3472	800002dc	0072d993	srli	x19,x5,0x7	  x5:0x09819000 x19=0x00130320
       34745000	      3473	800002e0	00c16333	or	x6,x2,x12	  x2:0x0143fb80 x12:0x00000000  x6=0x0143fb80
       34755000	      3474	800002e4	4267cb93	xori	x23,x15,1062	 x15:0x80009fc4 x23=0x80009be2
       34765000	      3475	800002e8	009a0a13	addi	x20,x20,9	 x20:0x00000006 x20=0x0000000f
       34775000	      3476	800002ec	e176e3b7	lui	x7,0xe176e	  x7=0xe176e000
       34785000	      3477	800002f0	41250233	sub	x4,x10,x18	 x10:0x80009fc4 x18:0x800098cd  x4=0x000006f7
       34795000	      3478	800002f4	5e237693	andi	x13,x6,1506	  x6:0x0143fb80 x13=0x00000180
       34805000	      3479	800002f8	fe8a60e3	bltu	x20,x8,800002d8	 x20:0x0000000f  x8:0x00000011
       34815000	      3480	00000000	00000013	addi	x0,x0,0	  x0:0x00000000
       34825000	      3481	800002d4	00000013	addi	x0,x0,0	  x0:0x00000000
       34835000	      3482	800002d8	2c143093	sltiu	x1,x8,705	  x8:0x00000011  x1=0x00000001
       34845000	      3483	800002dc	0072d993	srli	x19,x5,0x7	  x5:0x09819000 x19=0x00130320
       34855000	      3484	800002e0	00c16333	or	x6,x2,x12	  x2:0x0143fb80 x12:0x00000000  x6=0x0143fb80
       34865000	      3485	800002e4	4267cb93	xori	x23,x15,1062	 x15:0x80009fc4 x23=0x80009be2
       34875000	      3486	800002e8	009a0a13	addi	x20,x20,9	 x20:0x0000000f x20=0x00000018
       34885000	      3487	800002ec	e176e3b7	lui	x7,0xe176e	  x7=0xe176e000
       34895000	      3488	800002f0	41250233	sub	x4,x10,x18	 x10:0x80009fc4 x18:0x800098cd  x4=0x000006f7
       34905000	      3489	800002f4	5e237693	andi	x13,x6,1506	  x6:0x0143fb80 x13=0x00000180
       34915000	      3490	800002f8	fe8a60e3	bltu	x20,x8,800002d8	 x20:0x00000018  x8:0x00000011
       34925000	      3491	800002fc	0025c3b3	xor	x7,x11,x2	 x11:0x00000020  x2:0x0143fb80  x7=0x0143fba0
       34935000	      3492	80000300	400cd733	sra	x14,x25,x0	 x25:0xfffffffc  x0:0x00000000 x14=0xfffffffc
       34945000	      3493	80000304	a1fdc337	lui	x6,0xa1fdc	  x6=0xa1fdc000
       34955000	      3494	80000308	cebb8913	addi	x18,x23,-789	 x23:0x80009be2 x18=0x800098cd
       34965000	      3495	8000030c	fbbe58e3	bge	x28,x27,800002bc	 x28:0x00000001 x27:0xfffffffc
       34975000	      3496	00000000	00000013	addi	x0,x0,0	  x0:0x00000000
       34985000	      3497	800002b8	00000013	addi	x0,x0,0	  x0:0x00000000
       34995000	      3498	800002bc	bfd5e093	ori	x1,x11,-1027	 x11:0x00000020  x1=0xfffffbfd
       35005000	      3499	800002c0	00735113	srli	x2,x6,0x7	  x6:0xa1fdc000  x2=0x0143fb80
       35015000	      3500	800002c4	fffe0e13	addi	x28,x28,-1	 x28:0x00000001 x28=0x00000000
       35025000	      3501	800002c8	00600a13	addi	x20,x0,6	  x0:0x00000000 x20=0x00000006
       35035000	      3502	800002cc	00c7d533	srl	x10,x15,x12	 x15:0x80009fc4 x12:0x00000000 x10=0x80009fc4
       35045000	      3503	800002d0	01100413	addi	x8,x0,17	  x0:0x00000000  x8=0x00000011
       35055000	      3504	800002d4	01357833	and	x16,x10,x19	 x10:0x80009fc4 x19:0x00130320 x16=0x00000300
       35065000	      3505	800002d8	2c143093	sltiu	x1,x8,705	  x8:0x00000011  x1=0x00000001
       35075000	      3506	800002dc	0072d993	srli	x19,x5,0x7	  x5:0x09819000 x19=0x00130320
       35085000	      3507	800002e0	00c16333	or	x6,x2,x12	  x2:0x0143fb80 x12:0x00000000  x6=0x0143fb80
       35095000	      3508	800002e4	4267cb93	xori	x23,x15,1062	 x15:0x80009fc4 x23=0x80009be2
       35105000	      3509	800002e8	009a0a13	addi	x20,x20,9	 x20:0x00000006 x20=0x0000000f
       35115000	      3510	800002ec	e176e3b7	lui	x7,0xe176e	  x7=0xe176e000
       35125000	      3511	800002f0	41250233	sub	x4,x10,x18	 x10:0x80009fc4 x18:0x800098cd  x4=0x000006f7
       35135000	      3512	800002f4	5e237693	andi	x13,x6,1506	  x6:0x0143fb80 x13=0x00000180
       35145000	      3513	800002f8	fe8a60e3	bltu	x20,x8,800002d8	 x20:0x0000000f  x8:0x00000011
       35155000	      3514	00000000	00000013	addi	x0,x0,0	  x0:0x00000000
       35165000	      3515	800002d4	00000013	addi	x0,x0,0	  x0:0x00000000
       35175000	      3516	800002d8	2c143093	sltiu	x1,x8,705	  x8:0x00000011  x1=0x00000001
       35185000	      3517	800002dc	0072d993	srli	x19,x5,0x7	  x5:0x09819000 x19=0x00130320
       35195000	      3518	800002e0	00c16333	or	x6,x2,x12	  x2:0x0143fb80 x12:0x00000000  x6=0x0143fb80
       35205000	      3519	800002e4	4267cb93	xori	x23,x15,1062	 x15:0x80009fc4 x23=0x80009be2
       35215000	      3520	800002e8	009a0a13	addi	x20,x20,9	 x20:0x0000000f x20=0x00000018
       35225000	      3521	800002ec	e176e3b7	lui	x7,0xe176e	  x7=0xe176e000
       35235000	      3522	800002f0	41250233	sub	x4,x10,x18	 x10:0x80009fc4 x18:0x800098cd  x4=0x000006f7
       35245000	      3523	800002f4	5e237693	andi	x13,x6,1506	  x6:0x0143fb80 x13=0x00000180
       35255000	      3524	800002f8	fe8a60e3	bltu	x20,x8,800002d8	 x20:0x00000018  x8:0x00000011
       35265000	      3525	800002fc	0025c3b3	xor	x7,x11,x2	 x11:0x00000020  x2:0x0143fb80  x7=0x0143fba0
       35275000	      3526	80000300	400cd733	sra	x14,x25,x0	 x25:0xfffffffc  x0:0x00000000 x14=0xfffffffc
       35285000	      3527	80000304	a1fdc337	lui	x6,0xa1fdc	  x6=0xa1fdc000
       35295000	      3528	80000308	cebb8913	addi	x18,x23,-789	 x23:0x80009be2 x18=0x800098cd
       35305000	      3529	8000030c	fbbe58e3	bge	x28,x27,800002bc	 x28:0x00000000 x27:0xfffffffc
       35315000	      3530	00000000	00000013	addi	x0,x0,0	  x0:0x00000000
       35325000	      3531	800002b8	00000013	addi	x0,x0,0	  x0:0x00000000
       35335000	      3532	800002bc	bfd5e093	ori	x1,x11,-1027	 x11:0x00000020  x1=0xfffffbfd
       35345000	      3533	800002c0	00735113	srli	x2,x6,0x7	  x6:0xa1fdc000  x2=0x0143fb80
       35355000	      3534	800002c4	fffe0e13	addi	x28,x28,-1	 x28:0x00000000 x28=0xffffffff
       35365000	      3535	800002c8	00600a13	addi	x20,x0,6	  x0:0x00000000 x20=0x00000006
       35375000	      3536	800002cc	00c7d533	srl	x10,x15,x12	 x15:0x80009fc4 x12:0x00000000 x10=0x80009fc4
       35385000	      3537	800002d0	01100413	addi	x8,x0,17	  x0:0x00000000  x8=0x00000011
       35395000	      3538	800002d4	01357833	and	x16,x10,x19	 x10:0x80009fc4 x19:0x00130320 x16=0x00000300
       35405000	      3539	800002d8	2c143093	sltiu	x1,x8,705	  x8:0x00000011  x1=0x00000001
       35415000	      3540	800002dc	0072d993	srli	x19,x5,0x7	  x5:0x09819000 x19=0x00130320
       35425000	      3541	800002e0	00c16333	or	x6,x2,x12	  x2:0x0143fb80 x12:0x00000000  x6=0x0143fb80
       35435000	      3542	800002e4	4267cb93	xori	x23,x15,1062	 x15:0x80009fc4 x23=0x80009be2
       35445000	      3543	800002e8	009a0a13	addi	x20,x20,9	 x20:0x00000006 x20=0x0000000f
       35455000	      3544	800002ec	e176e3b7	lui	x7,0xe176e	  x7=0xe176e000
       35465000	      3545	800002f0	41250233	sub	x4,x10,x18	 x10:0x80009fc4 x18:0x800098cd  x4=0x000006f7
       35475000	      3546	800002f4	5e237693	andi	x13,x6,1506	  x6:0x0143fb80 x13=0x00000180
       35485000	      3547	800002f8	fe8a60e3	bltu	x20,x8,800002d8	 x20:0x0000000f  x8:0x00000011
       35495000	      3548	00000000	00000013	addi	x0,x0,0	  x0:0x00000000
       35505000	      3549	800002d4	00000013	addi	x0,x0,0	  x0:0x00000000
       35515000	      3550	800002d8	2c143093	sltiu	x1,x8,705	  x8:0x00000011  x1=0x00000001
       35525000	      3551	800002dc	0072d993	srli	x19,x5,0x7	  x5:0x09819000 x19=0x00130320
       35535000	      3552	800002e0	00c16333	or	x6,x2,x12	  x2:0x0143fb80 x12:0x00000000  x6=0x0143fb80
       35545000	      3553	800002e4	4267cb93	xori	x23,x15,1062	 x15:0x80009fc4 x23=0x80009be2
       35555000	      3554	800002e8	009a0a13	addi	x20,x20,9	 x20:0x0000000f x20=0x00000018
       35565000	      3555	800002ec	e176e3b7	lui	x7,0xe176e	  x7=0xe176e000
       35575000	      3556	800002f0	41250233	sub	x4,x10,x18	 x10:0x80009fc4 x18:0x800098cd  x4=0x000006f7
       35585000	      3557	800002f4	5e237693	andi	x13,x6,1506	  x6:0x0143fb80 x13=0x00000180
       35595000	      3558	800002f8	fe8a60e3	bltu	x20,x8,800002d8	 x20:0x00000018  x8:0x00000011
       35605000	      3559	800002fc	0025c3b3	xor	x7,x11,x2	 x11:0x00000020  x2:0x0143fb80  x7=0x0143fba0
       35615000	      3560	80000300	400cd733	sra	x14,x25,x0	 x25:0xfffffffc  x0:0x00000000 x14=0xfffffffc
       35625000	      3561	80000304	a1fdc337	lui	x6,0xa1fdc	  x6=0xa1fdc000
       35635000	      3562	80000308	cebb8913	addi	x18,x23,-789	 x23:0x80009be2 x18=0x800098cd
       35645000	      3563	8000030c	fbbe58e3	bge	x28,x27,800002bc	 x28:0xffffffff x27:0xfffffffc
       35655000	      3564	00000000	00000013	addi	x0,x0,0	  x0:0x00000000
       35665000	      3565	800002b8	00000013	addi	x0,x0,0	  x0:0x00000000
       35675000	      3566	800002bc	bfd5e093	ori	x1,x11,-1027	 x11:0x00000020  x1=0xfffffbfd
       35685000	      3567	800002c0	00735113	srli	x2,x6,0x7	  x6:0xa1fdc000  x2=0x0143fb80
       35695000	      3568	800002c4	fffe0e13	addi	x28,x28,-1	 x28:0xffffffff x28=0xfffffffe
       35705000	      3569	800002c8	00600a13	addi	x20,x0,6	  x0:0x00000000 x20=0x00000006
       35715000	      3570	800002cc	00c7d533	srl	x10,x15,x12	 x15:0x80009fc4 x12:0x00000000 x10=0x80009fc4
       35725000	      3571	800002d0	01100413	addi	x8,x0,17	  x0:0x00000000  x8=0x00000011
       35735000	      3572	800002d4	01357833	and	x16,x10,x19	 x10:0x80009fc4 x19:0x00130320 x16=0x00000300
       35745000	      3573	800002d8	2c143093	sltiu	x1,x8,705	  x8:0x00000011  x1=0x00000001
       35755000	      3574	800002dc	0072d993	srli	x19,x5,0x7	  x5:0x09819000 x19=0x00130320
       35765000	      3575	800002e0	00c16333	or	x6,x2,x12	  x2:0x0143fb80 x12:0x00000000  x6=0x0143fb80
       35775000	      3576	800002e4	4267cb93	xori	x23,x15,1062	 x15:0x80009fc4 x23=0x80009be2
       35785000	      3577	800002e8	009a0a13	addi	x20,x20,9	 x20:0x00000006 x20=0x0000000f
       35795000	      3578	800002ec	e176e3b7	lui	x7,0xe176e	  x7=0xe176e000
       35805000	      3579	800002f0	41250233	sub	x4,x10,x18	 x10:0x80009fc4 x18:0x800098cd  x4=0x000006f7
       35815000	      3580	800002f4	5e237693	andi	x13,x6,1506	  x6:0x0143fb80 x13=0x00000180
       35825000	      3581	800002f8	fe8a60e3	bltu	x20,x8,800002d8	 x20:0x0000000f  x8:0x00000011
       35835000	      3582	00000000	00000013	addi	x0,x0,0	  x0:0x00000000
       35845000	      3583	800002d4	00000013	addi	x0,x0,0	  x0:0x00000000
       35855000	      3584	800002d8	2c143093	sltiu	x1,x8,705	  x8:0x00000011  x1=0x00000001
       35865000	      3585	800002dc	0072d993	srli	x19,x5,0x7	  x5:0x09819000 x19=0x00130320
       35875000	      3586	800002e0	00c16333	or	x6,x2,x12	  x2:0x0143fb80 x12:0x00000000  x6=0x0143fb80
       35885000	      3587	800002e4	4267cb93	xori	x23,x15,1062	 x15:0x80009fc4 x23=0x80009be2
       35895000	      3588	800002e8	009a0a13	addi	x20,x20,9	 x20:0x0000000f x20=0x00000018
       35905000	      3589	800002ec	e176e3b7	lui	x7,0xe176e	  x7=0xe176e000
       35915000	      3590	800002f0	41250233	sub	x4,x10,x18	 x10:0x80009fc4 x18:0x800098cd  x4=0x000006f7
       35925000	      3591	800002f4	5e237693	andi	x13,x6,1506	  x6:0x0143fb80 x13=0x00000180
       35935000	      3592	800002f8	fe8a60e3	bltu	x20,x8,800002d8	 x20:0x00000018  x8:0x00000011
       35945000	      3593	800002fc	0025c3b3	xor	x7,x11,x2	 x11:0x00000020  x2:0x0143fb80  x7=0x0143fba0
       35955000	      3594	80000300	400cd733	sra	x14,x25,x0	 x25:0xfffffffc  x0:0x00000000 x14=0xfffffffc
       35965000	      3595	80000304	a1fdc337	lui	x6,0xa1fdc	  x6=0xa1fdc000
       35975000	      3596	80000308	cebb8913	addi	x18,x23,-789	 x23:0x80009be2 x18=0x800098cd
       35985000	      3597	8000030c	fbbe58e3	bge	x28,x27,800002bc	 x28:0xfffffffe x27:0xfffffffc
       35995000	      3598	00000000	00000013	addi	x0,x0,0	  x0:0x00000000
       36005000	      3599	800002b8	00000013	addi	x0,x0,0	  x0:0x00000000
       36015000	      3600	800002bc	bfd5e093	ori	x1,x11,-1027	 x11:0x00000020  x1=0xfffffbfd
       36025000	      3601	800002c0	00735113	srli	x2,x6,0x7	  x6:0xa1fdc000  x2=0x0143fb80
       36035000	      3602	800002c4	fffe0e13	addi	x28,x28,-1	 x28:0xfffffffe x28=0xfffffffd
       36045000	      3603	800002c8	00600a13	addi	x20,x0,6	  x0:0x00000000 x20=0x00000006
       36055000	      3604	800002cc	00c7d533	srl	x10,x15,x12	 x15:0x80009fc4 x12:0x00000000 x10=0x80009fc4
       36065000	      3605	800002d0	01100413	addi	x8,x0,17	  x0:0x00000000  x8=0x00000011
       36075000	      3606	800002d4	01357833	and	x16,x10,x19	 x10:0x80009fc4 x19:0x00130320 x16=0x00000300
       36085000	      3607	800002d8	2c143093	sltiu	x1,x8,705	  x8:0x00000011  x1=0x00000001
       36095000	      3608	800002dc	0072d993	srli	x19,x5,0x7	  x5:0x09819000 x19=0x00130320
       36105000	      3609	800002e0	00c16333	or	x6,x2,x12	  x2:0x0143fb80 x12:0x00000000  x6=0x0143fb80
       36115000	      3610	800002e4	4267cb93	xori	x23,x15,1062	 x15:0x80009fc4 x23=0x80009be2
       36125000	      3611	800002e8	009a0a13	addi	x20,x20,9	 x20:0x00000006 x20=0x0000000f
       36135000	      3612	800002ec	e176e3b7	lui	x7,0xe176e	  x7=0xe176e000
       36145000	      3613	800002f0	41250233	sub	x4,x10,x18	 x10:0x80009fc4 x18:0x800098cd  x4=0x000006f7
       36155000	      3614	800002f4	5e237693	andi	x13,x6,1506	  x6:0x0143fb80 x13=0x00000180
       36165000	      3615	800002f8	fe8a60e3	bltu	x20,x8,800002d8	 x20:0x0000000f  x8:0x00000011
       36175000	      3616	00000000	00000013	addi	x0,x0,0	  x0:0x00000000
       36185000	      3617	800002d4	00000013	addi	x0,x0,0	  x0:0x00000000
       36195000	      3618	800002d8	2c143093	sltiu	x1,x8,705	  x8:0x00000011  x1=0x00000001
       36205000	      3619	800002dc	0072d993	srli	x19,x5,0x7	  x5:0x09819000 x19=0x00130320
       36215000	      3620	800002e0	00c16333	or	x6,x2,x12	  x2:0x0143fb80 x12:0x00000000  x6=0x0143fb80
       36225000	      3621	800002e4	4267cb93	xori	x23,x15,1062	 x15:0x80009fc4 x23=0x80009be2
       36235000	      3622	800002e8	009a0a13	addi	x20,x20,9	 x20:0x0000000f x20=0x00000018
       36245000	      3623	800002ec	e176e3b7	lui	x7,0xe176e	  x7=0xe176e000
       36255000	      3624	800002f0	41250233	sub	x4,x10,x18	 x10:0x80009fc4 x18:0x800098cd  x4=0x000006f7
       36265000	      3625	800002f4	5e237693	andi	x13,x6,1506	  x6:0x0143fb80 x13=0x00000180
       36275000	      3626	800002f8	fe8a60e3	bltu	x20,x8,800002d8	 x20:0x00000018  x8:0x00000011
       36285000	      3627	800002fc	0025c3b3	xor	x7,x11,x2	 x11:0x00000020  x2:0x0143fb80  x7=0x0143fba0
       36295000	      3628	80000300	400cd733	sra	x14,x25,x0	 x25:0xfffffffc  x0:0x00000000 x14=0xfffffffc
       36305000	      3629	80000304	a1fdc337	lui	x6,0xa1fdc	  x6=0xa1fdc000
       36315000	      3630	80000308	cebb8913	addi	x18,x23,-789	 x23:0x80009be2 x18=0x800098cd
       36325000	      3631	8000030c	fbbe58e3	bge	x28,x27,800002bc	 x28:0xfffffffd x27:0xfffffffc
       36335000	      3632	00000000	00000013	addi	x0,x0,0	  x0:0x00000000
       36345000	      3633	800002b8	00000013	addi	x0,x0,0	  x0:0x00000000
       36355000	      3634	800002bc	bfd5e093	ori	x1,x11,-1027	 x11:0x00000020  x1=0xfffffbfd
       36365000	      3635	800002c0	00735113	srli	x2,x6,0x7	  x6:0xa1fdc000  x2=0x0143fb80
       36375000	      3636	800002c4	fffe0e13	addi	x28,x28,-1	 x28:0xfffffffd x28=0xfffffffc
       36385000	      3637	800002c8	00600a13	addi	x20,x0,6	  x0:0x00000000 x20=0x00000006
       36395000	      3638	800002cc	00c7d533	srl	x10,x15,x12	 x15:0x80009fc4 x12:0x00000000 x10=0x80009fc4
       36405000	      3639	800002d0	01100413	addi	x8,x0,17	  x0:0x00000000  x8=0x00000011
       36415000	      3640	800002d4	01357833	and	x16,x10,x19	 x10:0x80009fc4 x19:0x00130320 x16=0x00000300
       36425000	      3641	800002d8	2c143093	sltiu	x1,x8,705	  x8:0x00000011  x1=0x00000001
       36435000	      3642	800002dc	0072d993	srli	x19,x5,0x7	  x5:0x09819000 x19=0x00130320
       36445000	      3643	800002e0	00c16333	or	x6,x2,x12	  x2:0x0143fb80 x12:0x00000000  x6=0x0143fb80
       36455000	      3644	800002e4	4267cb93	xori	x23,x15,1062	 x15:0x80009fc4 x23=0x80009be2
       36465000	      3645	800002e8	009a0a13	addi	x20,x20,9	 x20:0x00000006 x20=0x0000000f
       36475000	      3646	800002ec	e176e3b7	lui	x7,0xe176e	  x7=0xe176e000
       36485000	      3647	800002f0	41250233	sub	x4,x10,x18	 x10:0x80009fc4 x18:0x800098cd  x4=0x000006f7
       36495000	      3648	800002f4	5e237693	andi	x13,x6,1506	  x6:0x0143fb80 x13=0x00000180
       36505000	      3649	800002f8	fe8a60e3	bltu	x20,x8,800002d8	 x20:0x0000000f  x8:0x00000011
       36515000	      3650	00000000	00000013	addi	x0,x0,0	  x0:0x00000000
       36525000	      3651	800002d4	00000013	addi	x0,x0,0	  x0:0x00000000
       36535000	      3652	800002d8	2c143093	sltiu	x1,x8,705	  x8:0x00000011  x1=0x00000001
       36545000	      3653	800002dc	0072d993	srli	x19,x5,0x7	  x5:0x09819000 x19=0x00130320
       36555000	      3654	800002e0	00c16333	or	x6,x2,x12	  x2:0x0143fb80 x12:0x00000000  x6=0x0143fb80
       36565000	      3655	800002e4	4267cb93	xori	x23,x15,1062	 x15:0x80009fc4 x23=0x80009be2
       36575000	      3656	800002e8	009a0a13	addi	x20,x20,9	 x20:0x0000000f x20=0x00000018
       36585000	      3657	800002ec	e176e3b7	lui	x7,0xe176e	  x7=0xe176e000
       36595000	      3658	800002f0	41250233	sub	x4,x10,x18	 x10:0x80009fc4 x18:0x800098cd  x4=0x000006f7
       36605000	      3659	800002f4	5e237693	andi	x13,x6,1506	  x6:0x0143fb80 x13=0x00000180
       36615000	      3660	800002f8	fe8a60e3	bltu	x20,x8,800002d8	 x20:0x00000018  x8:0x00000011
       36625000	      3661	800002fc	0025c3b3	xor	x7,x11,x2	 x11:0x00000020  x2:0x0143fb80  x7=0x0143fba0
       36635000	      3662	80000300	400cd733	sra	x14,x25,x0	 x25:0xfffffffc  x0:0x00000000 x14=0xfffffffc
       36645000	      3663	80000304	a1fdc337	lui	x6,0xa1fdc	  x6=0xa1fdc000
       36655000	      3664	80000308	cebb8913	addi	x18,x23,-789	 x23:0x80009be2 x18=0x800098cd
       36665000	      3665	8000030c	fbbe58e3	bge	x28,x27,800002bc	 x28:0xfffffffc x27:0xfffffffc
       36675000	      3666	00000000	00000013	addi	x0,x0,0	  x0:0x00000000
       36685000	      3667	800002b8	00000013	addi	x0,x0,0	  x0:0x00000000
       36695000	      3668	800002bc	bfd5e093	ori	x1,x11,-1027	 x11:0x00000020  x1=0xfffffbfd
       36705000	      3669	800002c0	00735113	srli	x2,x6,0x7	  x6:0xa1fdc000  x2=0x0143fb80
       36715000	      3670	800002c4	fffe0e13	addi	x28,x28,-1	 x28:0xfffffffc x28=0xfffffffb
       36725000	      3671	800002c8	00600a13	addi	x20,x0,6	  x0:0x00000000 x20=0x00000006
       36735000	      3672	800002cc	00c7d533	srl	x10,x15,x12	 x15:0x80009fc4 x12:0x00000000 x10=0x80009fc4
       36745000	      3673	800002d0	01100413	addi	x8,x0,17	  x0:0x00000000  x8=0x00000011
       36755000	      3674	800002d4	01357833	and	x16,x10,x19	 x10:0x80009fc4 x19:0x00130320 x16=0x00000300
       36765000	      3675	800002d8	2c143093	sltiu	x1,x8,705	  x8:0x00000011  x1=0x00000001
       36775000	      3676	800002dc	0072d993	srli	x19,x5,0x7	  x5:0x09819000 x19=0x00130320
       36785000	      3677	800002e0	00c16333	or	x6,x2,x12	  x2:0x0143fb80 x12:0x00000000  x6=0x0143fb80
       36795000	      3678	800002e4	4267cb93	xori	x23,x15,1062	 x15:0x80009fc4 x23=0x80009be2
       36805000	      3679	800002e8	009a0a13	addi	x20,x20,9	 x20:0x00000006 x20=0x0000000f
       36815000	      3680	800002ec	e176e3b7	lui	x7,0xe176e	  x7=0xe176e000
       36825000	      3681	800002f0	41250233	sub	x4,x10,x18	 x10:0x80009fc4 x18:0x800098cd  x4=0x000006f7
       36835000	      3682	800002f4	5e237693	andi	x13,x6,1506	  x6:0x0143fb80 x13=0x00000180
       36845000	      3683	800002f8	fe8a60e3	bltu	x20,x8,800002d8	 x20:0x0000000f  x8:0x00000011
       36855000	      3684	00000000	00000013	addi	x0,x0,0	  x0:0x00000000
       36865000	      3685	800002d4	00000013	addi	x0,x0,0	  x0:0x00000000
       36875000	      3686	800002d8	2c143093	sltiu	x1,x8,705	  x8:0x00000011  x1=0x00000001
       36885000	      3687	800002dc	0072d993	srli	x19,x5,0x7	  x5:0x09819000 x19=0x00130320
       36895000	      3688	800002e0	00c16333	or	x6,x2,x12	  x2:0x0143fb80 x12:0x00000000  x6=0x0143fb80
       36905000	      3689	800002e4	4267cb93	xori	x23,x15,1062	 x15:0x80009fc4 x23=0x80009be2
       36915000	      3690	800002e8	009a0a13	addi	x20,x20,9	 x20:0x0000000f x20=0x00000018
       36925000	      3691	800002ec	e176e3b7	lui	x7,0xe176e	  x7=0xe176e000
       36935000	      3692	800002f0	41250233	sub	x4,x10,x18	 x10:0x80009fc4 x18:0x800098cd  x4=0x000006f7
       36945000	      3693	800002f4	5e237693	andi	x13,x6,1506	  x6:0x0143fb80 x13=0x00000180
       36955000	      3694	800002f8	fe8a60e3	bltu	x20,x8,800002d8	 x20:0x00000018  x8:0x00000011
       36965000	      3695	800002fc	0025c3b3	xor	x7,x11,x2	 x11:0x00000020  x2:0x0143fb80  x7=0x0143fba0
       36975000	      3696	80000300	400cd733	sra	x14,x25,x0	 x25:0xfffffffc  x0:0x00000000 x14=0xfffffffc
       36985000	      3697	80000304	a1fdc337	lui	x6,0xa1fdc	  x6=0xa1fdc000
       36995000	      3698	80000308	cebb8913	addi	x18,x23,-789	 x23:0x80009be2 x18=0x800098cd
       37005000	      3699	8000030c	fbbe58e3	bge	x28,x27,800002bc	 x28:0xfffffffb x27:0xfffffffc
       37015000	      3700	80000310	5fd6a913	slti	x18,x13,1533	 x13:0x00000180 x18=0x00000001
       37025000	      3701	80000314	00600813	addi	x16,x0,6	  x0:0x00000000 x16=0x00000006
       37035000	      3702	80000318	00500e13	addi	x28,x0,5	  x0:0x00000000 x28=0x00000005
       37045000	      3703	8000031c	41785033	sra	x0,x16,x23	 x16:0x00000006 x23:0x80009be2
       37055000	      3704	80000320	0173acb3	slt	x25,x7,x23	  x7:0x0143fba0 x23:0x80009be2 x25=0x00000000
       37065000	      3705	80000324	ffd80813	addi	x16,x16,-3	 x16:0x00000006 x16=0x00000003
       37075000	      3706	80000328	ff800313	addi	x6,x0,-8	  x0:0x00000000  x6=0xfffffff8
       37085000	      3707	8000032c	00f00993	addi	x19,x0,15	  x0:0x00000000 x19=0x0000000f
       37095000	      3708	80000330	01c6d013	srli	x0,x13,0x1c	 x13:0x00000180
       37105000	      3709	80000334	00000013	addi	x0,x0,0	  x0:0x00000000
       37115000	      3710	80000338	00230313	addi	x6,x6,2	  x6:0xfffffff8  x6=0xfffffffa
       37125000	      3711	8000033c	ff336ce3	bltu	x6,x19,80000334	  x6:0xfffffffa x19:0x0000000f
       37135000	      3712	80000340	ffc870e3	bgeu	x16,x28,80000320	 x16:0x00000003 x28:0x00000005
       37145000	      3713	80000344	01e4b1b3	sltu	x3,x9,x30	  x9:0xffffff00 x30:0x80009fe4  x3=0x00000000
       37155000	      3714	80000348	00500593	addi	x11,x0,5	  x0:0x00000000 x11=0x00000005
       37165000	      3715	8000034c	00c3df93	srli	x31,x7,0xc	  x7:0x0143fba0 x31=0x0000143f
       37175000	      3716	80000350	010b56b3	srl	x13,x22,x16	 x22:0x00000000 x16:0x00000003 x13=0x00000000
       37185000	      3717	80000354	00500893	addi	x17,x0,5	  x0:0x00000000 x17=0x00000005
       37195000	      3718	80000358	fa4db117	auipc	x2,0xfa4db	  x2=0x7a4db354
       37205000	      3719	8000035c	77bd0493	addi	x9,x26,1915	 x26:0xfffffc86  x9=0x00000401
       37215000	      3720	80000360	f4c98293	addi	x5,x19,-180	 x19:0x0000000f  x5=0xffffff5b
       37225000	      3721	80000364	29c10193	addi	x3,x2,668	  x2:0x7a4db354  x3=0x7a4db5f0
       37235000	      3722	80000368	00ab9233	sll	x4,x23,x10	 x23:0x80009be2 x10:0x80009fc4  x4=0x0009be20
       37245000	      3723	8000036c	b83e4e13	xori	x28,x28,-1149	 x28:0x00000005 x28=0xfffffb86
       37255000	      3724	80000370	00b82e33	slt	x28,x16,x11	 x16:0x00000003 x11:0x00000005 x28=0x00000001
       37265000	      3725	80000374	00000013	addi	x0,x0,0	  x0:0x00000000
       37275000	      3726	80000378	b009c413	xori	x8,x19,-1280	 x19:0x0000000f  x8=0xfffffb0f
       37285000	      3727	8000037c	00d8f333	and	x6,x17,x13	 x17:0x00000005 x13:0x00000000  x6=0x00000000
       37295000	      3728	80000380	015ecf33	xor	x30,x29,x21	 x29:0x0004c0c8 x21:0x80009f1c x30=0x80045fd4
       37305000	      3729	80000384	ffc58593	addi	x11,x11,-4	 x11:0x00000005 x11=0x00000001
       37315000	      3730	80000388	c327b513	sltiu	x10,x15,-974	 x15:0x80009fc4 x10=0x00000001
       37325000	      3731	8000038c	01de00b3	add	x1,x28,x29	 x28:0x00000001 x29:0x0004c0c8  x1=0x0004c0c9
       37335000	      3732	80000390	0049d393	srli	x7,x19,0x4	 x19:0x0000000f  x7=0x00000000
       37345000	      3733	80000394	e82ac193	xori	x3,x21,-382	 x21:0x80009f1c  x3=0x7fff619e
       37355000	      3734	80000398	6a1f6e93	ori	x29,x30,1697	 x30:0x80045fd4 x29=0x80045ff5
       37365000	      3735	8000039c	001dd393	srli	x7,x27,0x1	 x27:0xfffffffc  x7=0x7ffffffe
       37375000	      3736	800003a0	fd15f6e3	bgeu	x11,x17,8000036c	 x11:0x00000001 x17:0x00000005
       37385000	      3737	800003a4	012a9193	slli	x3,x21,0x12	 x21:0x80009f1c  x3=0x7c700000
       37395000	      3738	800003a8	00000493	addi	x9,x0,0	  x0:0x00000000  x9=0x00000000
       37405000	      3739	800003ac	01400c13	addi	x24,x0,20	  x0:0x00000000 x24=0x00000014
       37415000	      3740	800003b0	0141b433	sltu	x8,x3,x20	  x3:0x7c700000 x20:0x00000018  x8=0x00000000
       37425000	      3741	800003b4	00248493	addi	x9,x9,2	  x9:0x00000000  x9=0x00000002
       37435000	      3742	800003b8	ba100d93	addi	x27,x0,-1119	  x0:0x00000000 x27=0xfffffba1
       37445000	      3743	800003bc	003c60b3	or	x1,x24,x3	 x24:0x00000014  x3:0x7c700000  x1=0x7c700014
       37455000	      3744	800003c0	ff84c8e3	blt	x9,x24,800003b0	  x9:0x00000002 x24:0x00000014
       37465000	      3745	00000000	00000013	addi	x0,x0,0	  x0:0x00000000
       37475000	      3746	800003ac	00000013	addi	x0,x0,0	  x0:0x00000000
       37485000	      3747	800003b0	0141b433	sltu	x8,x3,x20	  x3:0x7c700000 x20:0x00000018  x8=0x00000000
       37495000	      3748	800003b4	00248493	addi	x9,x9,2	  x9:0x00000002  x9=0x00000004
       37505000	      3749	800003b8	ba100d93	addi	x27,x0,-1119	  x0:0x00000000 x27=0xfffffba1
       37515000	      3750	800003bc	003c60b3	or	x1,x24,x3	 x24:0x00000014  x3:0x7c700000  x1=0x7c700014
       37525000	      3751	800003c0	ff84c8e3	blt	x9,x24,800003b0	  x9:0x00000004 x24:0x00000014
       37535000	      3752	00000000	00000013	addi	x0,x0,0	  x0:0x00000000
       37545000	      3753	800003ac	00000013	addi	x0,x0,0	  x0:0x00000000
       37555000	      3754	800003b0	0141b433	sltu	x8,x3,x20	  x3:0x7c700000 x20:0x00000018  x8=0x00000000
       37565000	      3755	800003b4	00248493	addi	x9,x9,2	  x9:0x00000004  x9=0x00000006
       37575000	      3756	800003b8	ba100d93	addi	x27,x0,-1119	  x0:0x00000000 x27=0xfffffba1
       37585000	      3757	800003bc	003c60b3	or	x1,x24,x3	 x24:0x00000014  x3:0x7c700000  x1=0x7c700014
       37595000	      3758	800003c0	ff84c8e3	blt	x9,x24,800003b0	  x9:0x00000006 x24:0x00000014
       37605000	      3759	00000000	00000013	addi	x0,x0,0	  x0:0x00000000
       37615000	      3760	800003ac	00000013	addi	x0,x0,0	  x0:0x00000000
       37625000	      3761	800003b0	0141b433	sltu	x8,x3,x20	  x3:0x7c700000 x20:0x00000018  x8=0x00000000
       37635000	      3762	800003b4	00248493	addi	x9,x9,2	  x9:0x00000006  x9=0x00000008
       37645000	      3763	800003b8	ba100d93	addi	x27,x0,-1119	  x0:0x00000000 x27=0xfffffba1
       37655000	      3764	800003bc	003c60b3	or	x1,x24,x3	 x24:0x00000014  x3:0x7c700000  x1=0x7c700014
       37665000	      3765	800003c0	ff84c8e3	blt	x9,x24,800003b0	  x9:0x00000008 x24:0x00000014
       37675000	      3766	00000000	00000013	addi	x0,x0,0	  x0:0x00000000
       37685000	      3767	800003ac	00000013	addi	x0,x0,0	  x0:0x00000000
       37695000	      3768	800003b0	0141b433	sltu	x8,x3,x20	  x3:0x7c700000 x20:0x00000018  x8=0x00000000
       37705000	      3769	800003b4	00248493	addi	x9,x9,2	  x9:0x00000008  x9=0x0000000a
       37715000	      3770	800003b8	ba100d93	addi	x27,x0,-1119	  x0:0x00000000 x27=0xfffffba1
       37725000	      3771	800003bc	003c60b3	or	x1,x24,x3	 x24:0x00000014  x3:0x7c700000  x1=0x7c700014
       37735000	      3772	800003c0	ff84c8e3	blt	x9,x24,800003b0	  x9:0x0000000a x24:0x00000014
       37745000	      3773	00000000	00000013	addi	x0,x0,0	  x0:0x00000000
       37755000	      3774	800003ac	00000013	addi	x0,x0,0	  x0:0x00000000
       37765000	      3775	800003b0	0141b433	sltu	x8,x3,x20	  x3:0x7c700000 x20:0x00000018  x8=0x00000000
       37775000	      3776	800003b4	00248493	addi	x9,x9,2	  x9:0x0000000a  x9=0x0000000c
       37785000	      3777	800003b8	ba100d93	addi	x27,x0,-1119	  x0:0x00000000 x27=0xfffffba1
       37795000	      3778	800003bc	003c60b3	or	x1,x24,x3	 x24:0x00000014  x3:0x7c700000  x1=0x7c700014
       37805000	      3779	800003c0	ff84c8e3	blt	x9,x24,800003b0	  x9:0x0000000c x24:0x00000014
       37815000	      3780	00000000	00000013	addi	x0,x0,0	  x0:0x00000000
       37825000	      3781	800003ac	00000013	addi	x0,x0,0	  x0:0x00000000
       37835000	      3782	800003b0	0141b433	sltu	x8,x3,x20	  x3:0x7c700000 x20:0x00000018  x8=0x00000000
       37845000	      3783	800003b4	00248493	addi	x9,x9,2	  x9:0x0000000c  x9=0x0000000e
       37855000	      3784	800003b8	ba100d93	addi	x27,x0,-1119	  x0:0x00000000 x27=0xfffffba1
       37865000	      3785	800003bc	003c60b3	or	x1,x24,x3	 x24:0x00000014  x3:0x7c700000  x1=0x7c700014
       37875000	      3786	800003c0	ff84c8e3	blt	x9,x24,800003b0	  x9:0x0000000e x24:0x00000014
       37885000	      3787	00000000	00000013	addi	x0,x0,0	  x0:0x00000000
       37895000	      3788	800003ac	00000013	addi	x0,x0,0	  x0:0x00000000
       37905000	      3789	800003b0	0141b433	sltu	x8,x3,x20	  x3:0x7c700000 x20:0x00000018  x8=0x00000000
       37915000	      3790	800003b4	00248493	addi	x9,x9,2	  x9:0x0000000e  x9=0x00000010
       37925000	      3791	800003b8	ba100d93	addi	x27,x0,-1119	  x0:0x00000000 x27=0xfffffba1
       37935000	      3792	800003bc	003c60b3	or	x1,x24,x3	 x24:0x00000014  x3:0x7c700000  x1=0x7c700014
       37945000	      3793	800003c0	ff84c8e3	blt	x9,x24,800003b0	  x9:0x00000010 x24:0x00000014
       37955000	      3794	00000000	00000013	addi	x0,x0,0	  x0:0x00000000
       37965000	      3795	800003ac	00000013	addi	x0,x0,0	  x0:0x00000000
       37975000	      3796	800003b0	0141b433	sltu	x8,x3,x20	  x3:0x7c700000 x20:0x00000018  x8=0x00000000
       37985000	      3797	800003b4	00248493	addi	x9,x9,2	  x9:0x00000010  x9=0x00000012
       37995000	      3798	800003b8	ba100d93	addi	x27,x0,-1119	  x0:0x00000000 x27=0xfffffba1
       38005000	      3799	800003bc	003c60b3	or	x1,x24,x3	 x24:0x00000014  x3:0x7c700000  x1=0x7c700014
       38015000	      3800	800003c0	ff84c8e3	blt	x9,x24,800003b0	  x9:0x00000012 x24:0x00000014
       38025000	      3801	00000000	00000013	addi	x0,x0,0	  x0:0x00000000
       38035000	      3802	800003ac	00000013	addi	x0,x0,0	  x0:0x00000000
       38045000	      3803	800003b0	0141b433	sltu	x8,x3,x20	  x3:0x7c700000 x20:0x00000018  x8=0x00000000
       38055000	      3804	800003b4	00248493	addi	x9,x9,2	  x9:0x00000012  x9=0x00000014
       38065000	      3805	800003b8	ba100d93	addi	x27,x0,-1119	  x0:0x00000000 x27=0xfffffba1
       38075000	      3806	800003bc	003c60b3	or	x1,x24,x3	 x24:0x00000014  x3:0x7c700000  x1=0x7c700014
       38085000	      3807	800003c0	ff84c8e3	blt	x9,x24,800003b0	  x9:0x00000014 x24:0x00000014
       38095000	      3808	800003c4	40625733	sra	x14,x4,x6	  x4:0x0009be20  x6:0x00000000 x14=0x0009be20
       38105000	      3809	800003c8	00000313	addi	x6,x0,0	  x0:0x00000000  x6=0x00000000
       38115000	      3810	800003cc	01000913	addi	x18,x0,16	  x0:0x00000000 x18=0x00000010
       38125000	      3811	800003d0	0105c033	xor	x0,x11,x16	 x11:0x00000001 x16:0x00000003
       38135000	      3812	800003d4	00a30313	addi	x6,x6,10	  x6:0x00000000  x6=0x0000000a
       38145000	      3813	800003d8	ff236ce3	bltu	x6,x18,800003d0	  x6:0x0000000a x18:0x00000010
       38155000	      3814	00000000	00000013	addi	x0,x0,0	  x0:0x00000000
       38165000	      3815	800003cc	00000013	addi	x0,x0,0	  x0:0x00000000
       38175000	      3816	800003d0	0105c033	xor	x0,x11,x16	 x11:0x00000001 x16:0x00000003
       38185000	      3817	800003d4	00a30313	addi	x6,x6,10	  x6:0x0000000a  x6=0x00000014
       38195000	      3818	800003d8	ff236ce3	bltu	x6,x18,800003d0	  x6:0x00000014 x18:0x00000010
       38205000	      3819	800003dc	ab770613	addi	x12,x14,-1353	 x14:0x0009be20 x12=0x0009b8d7
       38215000	      3820	800003e0	c15f8513	addi	x10,x31,-1003	 x31:0x0000143f x10=0x00001054
       38225000	      3821	800003e4	41b9d813	srai	x16,x19,0x1b	 x19:0x0000000f x16=0x00000000
       38235000	      3822	800003e8	337a2d13	slti	x26,x20,823	 x20:0x00000018 x26=0x00000001
       38245000	      3823	800003ec	00b9f2b3	and	x5,x19,x11	 x19:0x0000000f x11:0x00000001  x5=0x00000001
       38255000	      3824	800003f0	21fd5197	auipc	x3,0x21fd5	  x3=0xa1fd53ec
       38265000	      3825	800003f4	010582b3	add	x5,x11,x16	 x11:0x00000001 x16:0x00000000  x5=0x00000001
       38275000	      3826	800003f8	65eaef13	ori	x30,x21,1630	 x21:0x80009f1c x30=0x80009f5e
       38285000	      3827	800003fc	003f1213	slli	x4,x30,0x3	 x30:0x80009f5e  x4=0x0004faf0
       38295000	      3828	80000400	007ace33	xor	x28,x21,x7	 x21:0x80009f1c  x7:0x7ffffffe x28=0xffff60e2
       38305000	      3829	80000404	00054cb3	xor	x25,x10,x0	 x10:0x00001054  x0:0x00000000 x25=0x00001054
       38315000	      3830	80000408	01f86a63	bltu	x16,x31,8000041c	 x16:0x00000000 x31:0x0000143f
       38325000	      3831	00000000	00000013	addi	x0,x0,0	  x0:0x00000000
       38335000	      3832	80000418	00000013	addi	x0,x0,0	  x0:0x00000000
       38345000	      3833	8000041c	01201c13	slli	x24,x0,0x12	  x0:0x00000000 x24=0x00000000
       38355000	      3834	80000420	01199c13	slli	x24,x19,0x11	 x19:0x0000000f x24=0x001e0000
       38365000	      3835	80000424	41fb5193	srai	x3,x22,0x1f	 x22:0x00000000  x3=0x00000000
       38375000	      3836	80000428	00000013	addi	x0,x0,0	  x0:0x00000000
       38385000	      3837	8000042c	017dee63	bltu	x27,x23,80000448	 x27:0xfffffba1 x23:0x80009be2
       38395000	      3838	80000430	057ed863	bge	x29,x23,80000480	 x29:0x80045ff5 x23:0x80009be2
       38405000	      3839	00000000	00000013	addi	x0,x0,0	  x0:0x00000000
       38415000	      3840	8000047c	00000013	addi	x0,x0,0	  x0:0x00000000
       38425000	      3841	80000480	04b1f463	bgeu	x3,x11,800004c8	  x3:0x00000000 x11:0x00000001
       38435000	      3842	80000484	04711063	bne	x2,x7,800004c4	  x2:0x7a4db354  x7:0x7ffffffe
       38445000	      3843	00000000	00000013	addi	x0,x0,0	  x0:0x00000000
       38455000	      3844	800004c0	00000013	addi	x0,x0,0	  x0:0x00000000
       38465000	      3845	800004c4	00000013	addi	x0,x0,0	  x0:0x00000000
       38475000	      3846	800004c8	02150863	beq	x10,x1,800004f8	 x10:0x00001054  x1:0x7c700014
       38485000	      3847	800004cc	00c99433	sll	x8,x19,x12	 x19:0x0000000f x12:0x0009b8d7  x8=0x07800000
       38495000	      3848	800004d0	00eda833	slt	x16,x27,x14	 x27:0xfffffba1 x14:0x0009be20 x16=0x00000001
       38505000	      3849	800004d4	02bfd863	bge	x31,x11,80000504	 x31:0x0000143f x11:0x00000001
       38515000	      3850	00000000	00000013	addi	x0,x0,0	  x0:0x00000000
       38525000	      3851	80000500	00000013	addi	x0,x0,0	  x0:0x00000000
       38535000	      3852	80000504	0047fe33	and	x28,x15,x4	 x15:0x80009fc4  x4:0x0004faf0 x28=0x00009ac0
       38545000	      3853	80000508	01e91db3	sll	x27,x18,x30	 x18:0x00000010 x30:0x80009f5e x27=0x00000000
       38555000	      3854	8000050c	03734e63	blt	x6,x23,80000548	  x6:0x00000014 x23:0x80009be2
       38565000	      3855	80000510	04bfd063	bge	x31,x11,80000550	 x31:0x0000143f x11:0x00000001
       38575000	      3856	00000000	00000013	addi	x0,x0,0	  x0:0x00000000
       38585000	      3857	8000054c	00000013	addi	x0,x0,0	  x0:0x00000000
       38595000	      3858	80000550	00159413	slli	x8,x11,0x1	 x11:0x00000001  x8=0x00000002
       38605000	      3859	80000554	03117863	bgeu	x2,x17,80000584	  x2:0x7a4db354 x17:0x00000005
       38615000	      3860	00000000	00000013	addi	x0,x0,0	  x0:0x00000000
       38625000	      3861	80000580	00000013	addi	x0,x0,0	  x0:0x00000000
       38635000	      3862	80000584	019201b3	add	x3,x4,x25	  x4:0x0004faf0 x25:0x00001054  x3=0x00050b44
       38645000	      3863	80000588	89ac0017	auipc	x0,0x89ac0	
       38655000	      3864	8000058c	05e61063	bne	x12,x30,800005cc	 x12:0x0009b8d7 x30:0x80009f5e
       38665000	      3865	00000000	00000013	addi	x0,x0,0	  x0:0x00000000
       38675000	      3866	800005c8	00000013	addi	x0,x0,0	  x0:0x00000000
       38685000	      3867	800005cc	019110b3	sll	x1,x2,x25	  x2:0x7a4db354 x25:0x00001054  x1=0x35400000
       38695000	      3868	800005d0	00011f13	slli	x30,x2,0x0	  x2:0x7a4db354 x30=0x7a4db354
       38705000	      3869	800005d4	3d007437	lui	x8,0x3d007	  x8=0x3d007000
       38715000	      3870	800005d8	d961abb7	lui	x23,0xd961a	 x23=0xd961a000
       38725000	      3871	800005dc	00000013	addi	x0,x0,0	  x0:0x00000000
       38735000	      3872	800005e0	002b6a63	bltu	x22,x2,800005f4	 x22:0x00000000  x2:0x7a4db354
       38745000	      3873	00000000	00000013	addi	x0,x0,0	  x0:0x00000000
       38755000	      3874	800005f0	00000013	addi	x0,x0,0	  x0:0x00000000
       38765000	      3875	800005f4	03309e63	bne	x1,x19,80000630	  x1:0x35400000 x19:0x0000000f
       38775000	      3876	00000000	00000013	addi	x0,x0,0	  x0:0x00000000
       38785000	      3877	8000062c	00000013	addi	x0,x0,0	  x0:0x00000000
       38795000	      3878	80000630	00f5d393	srli	x7,x11,0xf	 x11:0x00000001  x7=0x00000000
       38805000	      3879	80000634	09345063	bge	x8,x19,800006b4	  x8:0x3d007000 x19:0x0000000f
       38815000	      3880	00000000	00000013	addi	x0,x0,0	  x0:0x00000000
       38825000	      3881	800006b0	00000013	addi	x0,x0,0	  x0:0x00000000
       38835000	      3882	800006b4	565f3593	sltiu	x11,x30,1381	 x30:0x7a4db354 x11=0x00000000
       38845000	      3883	800006b8	417602b3	sub	x5,x12,x23	 x12:0x0009b8d7 x23:0xd961a000  x5=0x26a818d7
       38855000	      3884	800006bc	00b73633	sltu	x12,x14,x11	 x14:0x0009be20 x11:0x00000000 x12=0x00000000
       38865000	      3885	800006c0	fede2d13	slti	x26,x28,-19	 x28:0x00009ac0 x26=0x00000000
       38875000	      3886	800006c4	e420e993	ori	x19,x1,-446	  x1:0x35400000 x19=0xfffffe42
       38885000	      3887	800006c8	007d3fb3	sltu	x31,x26,x7	 x26:0x00000000  x7:0x00000000 x31=0x00000000
       38895000	      3888	800006cc	05b05463	bge	x0,x27,80000714	  x0:0x00000000 x27:0x00000000
       38905000	      3889	00000000	00000013	addi	x0,x0,0	  x0:0x00000000
       38915000	      3890	80000710	00000013	addi	x0,x0,0	  x0:0x00000000
       38925000	      3891	80000714	01aa7fb3	and	x31,x20,x26	 x20:0x00000018 x26:0x00000000 x31=0x00000000
       38935000	      3892	80000718	003b6bb3	or	x23,x22,x3	 x22:0x00000000  x3:0x00050b44 x23=0x00050b44
       38945000	      3893	8000071c	49384613	xori	x12,x16,1171	 x16:0x00000001 x12=0x00000492
       38955000	      3894	80000720	05dd6863	bltu	x26,x29,80000770	 x26:0x00000000 x29:0x80045ff5
       38965000	      3895	00000000	00000013	addi	x0,x0,0	  x0:0x00000000
       38975000	      3896	8000076c	00000013	addi	x0,x0,0	  x0:0x00000000
       38985000	      3897	80000770	00f25a63	bge	x4,x15,80000784	  x4:0x0004faf0 x15:0x80009fc4
       38995000	      3898	00000000	00000013	addi	x0,x0,0	  x0:0x00000000
       39005000	      3899	80000780	00000013	addi	x0,x0,0	  x0:0x00000000
       39015000	      3900	80000784	1b684113	xori	x2,x16,438	 x16:0x00000001  x2=0x000001b7
       39025000	      3901	80000788	009f9c33	sll	x24,x31,x9	 x31:0x00000000  x9:0x00000014 x24=0x00000000
       39035000	      3902	8000078c	00000013	addi	x0,x0,0	  x0:0x00000000
       39045000	      3903	80000790	408888b3	sub	x17,x17,x8	 x17:0x00000005  x8:0x3d007000 x17=0xc2ff9005
       39055000	      3904	80000794	00000013	addi	x0,x0,0	  x0:0x00000000
       39065000	      3905	80000798	018239b3	sltu	x19,x4,x24	  x4:0x0004faf0 x24:0x00000000 x19=0x00000000
       39075000	      3906	8000079c	509d3113	sltiu	x2,x26,1289	 x26:0x00000000  x2=0x00000001
       39085000	      3907	800007a0	00000013	addi	x0,x0,0	  x0:0x00000000
       39095000	      3908	800007a4	9d4c3bb7	lui	x23,0x9d4c3	 x23=0x9d4c3000
       39105000	      3909	800007a8	00d85e13	srli	x28,x16,0xd	 x16:0x00000001 x28=0x00000000
       39115000	      3910	800007ac	01cc5693	srli	x13,x24,0x1c	 x24:0x00000000 x13=0x00000000
       39125000	      3911	800007b0	009d8593	addi	x11,x27,9	 x27:0x00000000 x11=0x00000009
       39135000	      3912	800007b4	00000013	addi	x0,x0,0	  x0:0x00000000
       39145000	      3913	800007b8	05f15063	bge	x2,x31,800007f8	  x2:0x00000001 x31:0x00000000
       39155000	      3914	00000000	00000013	addi	x0,x0,0	  x0:0x00000000
       39165000	      3915	800007f4	00000013	addi	x0,x0,0	  x0:0x00000000
       39175000	      3916	800007f8	00e31a33	sll	x20,x6,x14	  x6:0x00000014 x14:0x0009be20 x20=0x00000014
       39185000	      3917	800007fc	030ac863	blt	x21,x16,8000082c	 x21:0x80009f1c x16:0x00000001
       39195000	      3918	00000000	00000013	addi	x0,x0,0	  x0:0x00000000
       39205000	      3919	80000828	00000013	addi	x0,x0,0	  x0:0x00000000
       39215000	      3920	8000082c	418f5833	sra	x16,x30,x24	 x30:0x7a4db354 x24:0x00000000 x16=0x7a4db354
       39225000	      3921	80000830	0039a733	slt	x14,x19,x3	 x19:0x00000000  x3:0x00050b44 x14=0x00000001
       39235000	      3922	80000834	09dc9337	lui	x6,0x9dc9	  x6=0x09dc9000
       39245000	      3923	80000838	05781263	bne	x16,x23,8000087c	 x16:0x7a4db354 x23:0x9d4c3000
       39255000	      3924	00000000	00000013	addi	x0,x0,0	  x0:0x00000000
       39265000	      3925	80000878	00000013	addi	x0,x0,0	  x0:0x00000000
       39275000	      3926	8000087c	7b838b93	addi	x23,x7,1976	  x7:0x00000000 x23=0x000007b8
       39285000	      3927	80000880	047f1063	bne	x30,x7,800008c0	 x30:0x7a4db354  x7:0x00000000
       39295000	      3928	00000000	00000013	addi	x0,x0,0	  x0:0x00000000
       39305000	      3929	800008bc	00000013	addi	x0,x0,0	  x0:0x00000000
       39315000	      3930	800008c0	41bedcb3	sra	x25,x29,x27	 x29:0x80045ff5 x27:0x00000000 x25=0x80045ff5
       39325000	      3931	800008c4	010fed33	or	x26,x31,x16	 x31:0x00000000 x16:0x7a4db354 x26=0x7a4db354
       39335000	      3932	800008c8	64d98837	lui	x16,0x64d98	 x16=0x64d98000
       39345000	      3933	800008cc	027cf263	bgeu	x25,x7,800008f0	 x25:0x80045ff5  x7:0x00000000
       39355000	      3934	00000000	00000013	addi	x0,x0,0	  x0:0x00000000
       39365000	      3935	800008ec	00000013	addi	x0,x0,0	  x0:0x00000000
       39375000	      3936	800008f0	73434113	xori	x2,x6,1844	  x6:0x09dc9000  x2=0x09dc9734
       39385000	      3937	800008f4	6fc7c513	xori	x10,x15,1788	 x15:0x80009fc4 x10=0x80009938
       39395000	      3938	800008f8	01dd9fb3	sll	x31,x27,x29	 x27:0x00000000 x29:0x80045ff5 x31=0x00000000
       39405000	      3939	800008fc	017c75b3	and	x11,x24,x23	 x24:0x00000000 x23:0x000007b8 x11=0x00000000
       39415000	      3940	80000900	00000013	addi	x0,x0,0	  x0:0x00000000
       39425000	      3941	80000904	00b5e633	or	x12,x11,x11	 x11:0x00000000 x11:0x00000000 x12=0x00000000
       39435000	      3942	80000908	fcfac693	xori	x13,x21,-49	 x21:0x80009f1c x13=0x7fff60d3
       39445000	      3943	8000090c	016bc2b3	xor	x5,x23,x22	 x23:0x000007b8 x22:0x00000000  x5=0x000007b8
       39455000	      3944	80000910	01527533	and	x10,x4,x21	  x4:0x0004faf0 x21:0x80009f1c x10=0x00009a10
       39465000	      3945	80000914	04699063	bne	x19,x6,80000954	 x19:0x00000000  x6:0x09dc9000
       39475000	      3946	00000000	00000013	addi	x0,x0,0	  x0:0x00000000
       39485000	      3947	80000950	00000013	addi	x0,x0,0	  x0:0x00000000
       39495000	      3948	80000954	02308463	beq	x1,x3,8000097c	  x1:0x35400000  x3:0x00050b44
       39505000	      3949	80000958	01031513	slli	x10,x6,0x10	  x6:0x09dc9000 x10=0x90000000
       39515000	      3950	8000095c	00d094b3	sll	x9,x1,x13	  x1:0x35400000 x13:0x7fff60d3  x9=0x00000000
       39525000	      3951	80000960	fc9d0593	addi	x11,x26,-55	 x26:0x7a4db354 x11=0x7a4db31d
       39535000	      3952	80000964	00000013	addi	x0,x0,0	  x0:0x00000000
       39545000	      3953	80000968	002cca63	blt	x25,x2,8000097c	 x25:0x80045ff5  x2:0x09dc9734
       39555000	      3954	00000000	00000013	addi	x0,x0,0	  x0:0x00000000
       39565000	      3955	80000978	00000013	addi	x0,x0,0	  x0:0x00000000
       39575000	      3956	8000097c	03931863	bne	x6,x25,800009ac	  x6:0x09dc9000 x25:0x80045ff5
       39585000	      3957	00000000	00000013	addi	x0,x0,0	  x0:0x00000000
       39595000	      3958	800009a8	00000013	addi	x0,x0,0	  x0:0x00000000
       39605000	      3959	800009ac	4074d713	srai	x14,x9,0x7	  x9:0x00000000 x14=0x00000000
       39615000	      3960	800009b0	00008863	beq	x1,x0,800009c0	  x1:0x35400000  x0:0x00000000
       39625000	      3961	800009b4	01d84933	xor	x18,x16,x29	 x16:0x64d98000 x29:0x80045ff5 x18=0xe4dddff5
       39635000	      3962	800009b8	00639993	slli	x19,x7,0x6	  x7:0x00000000 x19=0x00000000
       39645000	      3963	800009bc	010d7a63	bgeu	x26,x16,800009d0	 x26:0x7a4db354 x16:0x64d98000
       39655000	      3964	00000000	00000013	addi	x0,x0,0	  x0:0x00000000
       39665000	      3965	800009cc	00000013	addi	x0,x0,0	  x0:0x00000000
       39675000	      3966	800009d0	ea5de1b7	lui	x3,0xea5de	  x3=0xea5de000
       39685000	      3967	800009d4	004aab83	lw	x23,4(x21)	 x21:0x80009f1c x23=0x80002dd0 PA:0x80009f20
       39695000	      3968	800009d8	009cd1b3	srl	x3,x25,x9	 x25:0x80045ff5  x9:0x00000000  x3=0x80045ff5
       39705000	      3969	800009dc	030a8a93	addi	x21,x21,48	 x21:0x80009f1c x21=0x80009f4c
       39715000	      3970	800009e0	38b6b693	sltiu	x13,x13,907	 x13:0x7fff60d3 x13=0x00000000
       39725000	      3971	800009e4	41acd1b3	sra	x3,x25,x26	 x25:0x80045ff5 x26:0x7a4db354  x3=0xfffff800
       39735000	      3972	800009e8	26c939b7	lui	x19,0x26c93	 x19=0x26c93000
       39745000	      3973	800009ec	40f1d1b3	sra	x3,x3,x15	  x3:0xfffff800 x15:0x80009fc4  x3=0xffffff80
       39755000	      3974	800009f0	000b8213	addi	x4,x23,0	 x23:0x80002dd0  x4=0x80002dd0
       39765000	      3975	800009f4	00020267	jalr	x4,x4,0	  x4:0x80002dd0  x4=0x800009f4
       39775000	      3976	00000000	00000013	addi	x0,x0,0	  x0:0x00000000
       39785000	      3977	80002dd0	00000013	addi	x0,x0,0	  x0:0x00000000
       39795000	      3978	80002dd4	017f7633	and	x12,x30,x23	 x30:0x7a4db354 x23:0x80002dd0 x12=0x00002150
       39805000	      3979	80002dd8	005d0e33	add	x28,x26,x5	 x26:0x7a4db354  x5:0x000007b8 x28=0x7a4dbb0c
       39815000	      3980	80002ddc	03eb5063	bge	x22,x30,80002dfc	 x22:0x00000000 x30:0x7a4db354
       39825000	      3981	80002de0	01bfc233	xor	x4,x31,x27	 x31:0x00000000 x27:0x00000000  x4=0x00000000
       39835000	      3982	80002de4	018e5463	bge	x28,x24,80002dec	 x28:0x7a4dbb0c x24:0x00000000
       39845000	      3983	00000000	00000013	addi	x0,x0,0	  x0:0x00000000
       39855000	      3984	80002de8	00000013	addi	x0,x0,0	  x0:0x00000000
       39865000	      3985	80002dec	0f120093	addi	x1,x4,241	  x4:0x00000000  x1=0x000000f1
       39875000	      3986	80002df0	00000013	addi	x0,x0,0	  x0:0x00000000
       39885000	      3987	80002df4	a1464993	xori	x19,x12,-1516	 x12:0x00002150 x19=0xffffdb44
       39895000	      3988	80002df8	00c28433	add	x8,x5,x12	  x5:0x000007b8 x12:0x00002150  x8=0x00002908
       39905000	      3989	80002dfc	0080d433	srl	x8,x1,x8	  x1:0x000000f1  x8:0x00002908  x8=0x00000000
       39915000	      3990	80002e00	00ebcf33	xor	x30,x23,x14	 x23:0x80002dd0 x14:0x00000000 x30=0x80002dd0
       39925000	      3991	80002e04	eaf96a13	ori	x20,x18,-337	 x18:0xe4dddff5 x20=0xffffffff
       39935000	      3992	80002e08	004aab83	lw	x23,4(x21)	 x21:0x80009f4c x23=0x80000150 PA:0x80009f50
       39945000	      3993	80002e0c	404683b3	sub	x7,x13,x4	 x13:0x00000000  x4:0x00000000  x7=0x00000000
       39955000	      3994	80002e10	40b1a413	slti	x8,x3,1035	  x3:0xffffff80  x8=0x00000001
       39965000	      3995	80002e14	5acd7813	andi	x16,x26,1452	 x26:0x7a4db354 x16=0x00000104
       39975000	      3996	80002e18	15b2b813	sltiu	x16,x5,347	  x5:0x000007b8 x16=0x00000000
       39985000	      3997	80002e1c	038a8a93	addi	x21,x21,56	 x21:0x80009f4c x21=0x80009f84
       39995000	      3998	80002e20	fba12d97	auipc	x27,0xfba12	 x27=0x7ba14e1c
       40005000	      3999	80002e24	0073b433	sltu	x8,x7,x7	  x7:0x00000000  x7:0x00000000  x8=0x00000000
       40015000	      4000	80002e28	001b8293	addi	x5,x23,1	 x23:0x80000150  x5=0x80000151
       40025000	      4001	80002e2c	000282e7	jalr	x5,x5,0	  x5:0x80000151  x5=0x80002e2c
       40035000	      4002	00000000	00000013	addi	x0,x0,0	  x0:0x00000000
       40045000	      4003	80000150	00000013	addi	x0,x0,0	  x0:0x00000000
       40055000	      4004	80000154	401188b3	sub	x17,x3,x1	  x3:0xffffff80  x1:0x000000f1 x17=0xfffffe8f
       40065000	      4005	80000158	62e99e17	auipc	x28,0x62e99	 x28=0xe2e99154
       40075000	      4006	8000015c	00003317	auipc	x6,0x3	  x6=0x80003158
       40085000	      4007	80000160	bd030313	addi	x6,x6,-1072	  x6:0x80003158  x6=0x80002d28
       40095000	      4008	80000164	0b230313	addi	x6,x6,178	  x6:0x80002d28  x6=0x80002dda
       40105000	      4009	80000168	418e5c93	srai	x25,x28,0x18	 x28:0xe2e99154 x25=0xffffffe2
       40115000	      4010	8000016c	015ac8b3	xor	x17,x21,x21	 x21:0x80009f84 x21:0x80009f84 x17=0x00000000
       40125000	      4011	80000170	01224463	blt	x4,x18,80000178	  x4:0x00000000 x18:0xe4dddff5
       40135000	      4012	80000174	0114c933	xor	x18,x9,x17	  x9:0x00000000 x17:0x00000000 x18=0x00000000
       40145000	      4013	80000178	f4f30be7	jalr	x23,x6,-177	  x6:0x80002dda x23=0x80000178
       40155000	      4014	00000000	00000013	addi	x0,x0,0	  x0:0x00000000
       40165000	      4015	80002d28	00000013	addi	x0,x0,0	  x0:0x00000000
       40175000	      4016	80002d2c	401a5db3	sra	x27,x20,x1	 x20:0xffffffff  x1:0x000000f1 x27=0xffffffff
       40185000	      4017	80002d30	fc8a8a93	addi	x21,x21,-56	 x21:0x80009f84 x21=0x80009f4c
       40195000	      4018	80002d34	01c10833	add	x16,x2,x28	  x2:0x09dc9734 x28:0xe2e99154 x16=0xecc62888
       40205000	      4019	80002d38	921eb493	sltiu	x9,x29,-1759	 x29:0x80045ff5  x9=0x00000001
       40215000	      4020	80002d3c	017aa223	sw	x23,4(x21)	 x21:0x80009f4c x23:0x80000178 PA:0x80009f50
       40225000	      4021	80002d40	003eca33	xor	x20,x29,x3	 x29:0x80045ff5  x3:0xffffff80 x20=0x7ffba075
       40235000	      4022	80002d44	6f2fe693	ori	x13,x31,1778	 x31:0x00000000 x13=0x000006f2
       40245000	      4023	80002d48	02b38263	beq	x7,x11,80002d6c	  x7:0x00000000 x11:0x7a4db31d
       40255000	      4024	80002d4c	001d1493	slli	x9,x26,0x1	 x26:0x7a4db354  x9=0xf49b66a8
       40265000	      4025	80002d50	01a89613	slli	x12,x17,0x1a	 x17:0x00000000 x12=0x00000000
       40275000	      4026	80002d54	00f4adb3	slt	x27,x9,x15	  x9:0xf49b66a8 x15:0x80009fc4 x27=0x00000000
       40285000	      4027	80002d58	41af5113	srai	x2,x30,0x1a	 x30:0x80002dd0  x2=0xffffffe0
       40295000	      4028	80002d5c	17f295b7	lui	x11,0x17f29	 x11=0x17f29000
       40305000	      4029	80002d60	00d9a433	slt	x8,x19,x13	 x19:0xffffdb44 x13:0x000006f2  x8=0x00000001
       40315000	      4030	80002d64	414f5eb3	sra	x29,x30,x20	 x30:0x80002dd0 x20:0x7ffba075 x29=0xfffffc00
       40325000	      4031	80002d68	01bf20b3	slt	x1,x30,x27	 x30:0x80002dd0 x27:0x00000000  x1=0x00000001
       40335000	      4032	80002d6c	d48ffbef	jal	x23,80002d6c	 x23=0x80002d6c
       40345000	      4033	00000000	00000013	addi	x0,x0,0	  x0:0x00000000
       40355000	      4034	800022b0	00000013	addi	x0,x0,0	  x0:0x00000000
       40365000	      4035	800022b4	00000013	addi	x0,x0,0	  x0:0x00000000
       40375000	      4036	800022b8	0027e463	bltu	x15,x2,800022c0	 x15:0x80009fc4  x2:0xffffffe0
       40385000	      4037	00000000	00000013	addi	x0,x0,0	  x0:0x00000000
       40395000	      4038	800022bc	00000013	addi	x0,x0,0	  x0:0x00000000
       40405000	      4039	800022c0	fdca8a93	addi	x21,x21,-36	 x21:0x80009f4c x21=0x80009f28
       40415000	      4040	800022c4	01394c33	xor	x24,x18,x19	 x18:0x00000000 x19:0xffffdb44 x24=0xffffdb44
       40425000	      4041	800022c8	00000013	addi	x0,x0,0	  x0:0x00000000
       40435000	      4042	800022cc	017aa223	sw	x23,4(x21)	 x21:0x80009f28 x23:0x80002d6c PA:0x80009f2c
       40445000	      4043	800022d0	672f3493	sltiu	x9,x30,1650	 x30:0x80002dd0  x9=0x00000000
       40455000	      4044	800022d4	7e7b7937	lui	x18,0x7e7b7	 x18=0x7e7b7000
       40465000	      4045	800022d8	418a8733	sub	x14,x21,x24	 x21:0x80009f28 x24:0xffffdb44 x14=0x8000c3e4
       40475000	      4046	800022dc	00c17533	and	x10,x2,x12	  x2:0xffffffe0 x12:0x00000000 x10=0x00000000
       40485000	      4047	800022e0	00700913	addi	x18,x0,7	  x0:0x00000000 x18=0x00000007
       40495000	      4048	800022e4	fff00993	addi	x19,x0,-1	  x0:0x00000000 x19=0xffffffff
       40505000	      4049	800022e8	41425093	srai	x1,x4,0x14	  x4:0x00000000  x1=0x00000000
       40515000	      4050	800022ec	c86a18b7	lui	x17,0xc86a1	 x17=0xc86a1000
       40525000	      4051	800022f0	0038f6b3	and	x13,x17,x3	 x17:0xc86a1000  x3:0xffffff80 x13=0xc86a1000
       40535000	      4052	800022f4	00b87433	and	x8,x16,x11	 x16:0xecc62888 x11:0x17f29000  x8=0x04c20000
       40545000	      4053	800022f8	ff890913	addi	x18,x18,-8	 x18:0x00000007 x18=0xffffffff
       40555000	      4054	800022fc	4ea1ba13	sltiu	x20,x3,1258	  x3:0xffffff80 x20=0x00000000
       40565000	      4055	80002300	00f42c33	slt	x24,x8,x15	  x8:0x04c20000 x15:0x80009fc4 x24=0x00000000
       40575000	      4056	80002304	0057a833	slt	x16,x15,x5	 x15:0x80009fc4  x5:0x80002e2c x16=0x00000000
       40585000	      4057	80002308	00a00b93	addi	x23,x0,10	  x0:0x00000000 x23=0x0000000a
       40595000	      4058	8000230c	012a02b3	add	x5,x20,x18	 x20:0x00000000 x18:0xffffffff  x5=0xffffffff
       40605000	      4059	80002310	ffe00713	addi	x14,x0,-2	  x0:0x00000000 x14=0xfffffffe
       40615000	      4060	80002314	bff06513	ori	x10,x0,-1025	  x0:0x00000000 x10=0xfffffbff
       40625000	      4061	80002318	40a651b3	sra	x3,x12,x10	 x12:0x00000000 x10:0xfffffbff  x3=0x00000000
       40635000	      4062	8000231c	ffcb8b93	addi	x23,x23,-4	 x23:0x0000000a x23=0x00000006
       40645000	      4063	80002320	e1e5b493	sltiu	x9,x11,-482	 x11:0x17f29000  x9=0x00000001
       40655000	      4064	80002324	feeb98e3	bne	x23,x14,80002314	 x23:0x00000006 x14:0xfffffffe
       40665000	      4065	00000000	00000013	addi	x0,x0,0	  x0:0x00000000
       40675000	      4066	80002310	00000013	addi	x0,x0,0	  x0:0x00000000
       40685000	      4067	80002314	bff06513	ori	x10,x0,-1025	  x0:0x00000000 x10=0xfffffbff
       40695000	      4068	80002318	40a651b3	sra	x3,x12,x10	 x12:0x00000000 x10:0xfffffbff  x3=0x00000000
       40705000	      4069	8000231c	ffcb8b93	addi	x23,x23,-4	 x23:0x00000006 x23=0x00000002
       40715000	      4070	80002320	e1e5b493	sltiu	x9,x11,-482	 x11:0x17f29000  x9=0x00000001
       40725000	      4071	80002324	feeb98e3	bne	x23,x14,80002314	 x23:0x00000002 x14:0xfffffffe
       40735000	      4072	00000000	00000013	addi	x0,x0,0	  x0:0x00000000
       40745000	      4073	80002310	00000013	addi	x0,x0,0	  x0:0x00000000
       40755000	      4074	80002314	bff06513	ori	x10,x0,-1025	  x0:0x00000000 x10=0xfffffbff
       40765000	      4075	80002318	40a651b3	sra	x3,x12,x10	 x12:0x00000000 x10:0xfffffbff  x3=0x00000000
       40775000	      4076	8000231c	ffcb8b93	addi	x23,x23,-4	 x23:0x00000002 x23=0xfffffffe
       40785000	      4077	80002320	e1e5b493	sltiu	x9,x11,-482	 x11:0x17f29000  x9=0x00000001
       40795000	      4078	80002324	feeb98e3	bne	x23,x14,80002314	 x23:0xfffffffe x14:0xfffffffe
       40805000	      4079	80002328	932d0113	addi	x2,x26,-1742	 x26:0x7a4db354  x2=0x7a4dac86
       40815000	      4080	8000232c	00000013	addi	x0,x0,0	  x0:0x00000000
       40825000	      4081	80002330	6fde4e13	xori	x28,x28,1789	 x28:0xe2e99154 x28=0xe2e997a9
       40835000	      4082	80002334	fb390ee3	beq	x18,x19,800022f0	 x18:0xffffffff x19:0xffffffff
       40845000	      4083	00000000	00000013	addi	x0,x0,0	  x0:0x00000000
       40855000	      4084	800022ec	00000013	addi	x0,x0,0	  x0:0x00000000
       40865000	      4085	800022f0	0038f6b3	and	x13,x17,x3	 x17:0xc86a1000  x3:0x00000000 x13=0x00000000
       40875000	      4086	800022f4	00b87433	and	x8,x16,x11	 x16:0x00000000 x11:0x17f29000  x8=0x00000000
       40885000	      4087	800022f8	ff890913	addi	x18,x18,-8	 x18:0xffffffff x18=0xfffffff7
       40895000	      4088	800022fc	4ea1ba13	sltiu	x20,x3,1258	  x3:0x00000000 x20=0x00000001
       40905000	      4089	80002300	00f42c33	slt	x24,x8,x15	  x8:0x00000000 x15:0x80009fc4 x24=0x00000000
       40915000	      4090	80002304	0057a833	slt	x16,x15,x5	 x15:0x80009fc4  x5:0xffffffff x16=0x00000001
       40925000	      4091	80002308	00a00b93	addi	x23,x0,10	  x0:0x00000000 x23=0x0000000a
       40935000	      4092	8000230c	012a02b3	add	x5,x20,x18	 x20:0x00000001 x18:0xfffffff7  x5=0xfffffff8
       40945000	      4093	80002310	ffe00713	addi	x14,x0,-2	  x0:0x00000000 x14=0xfffffffe
       40955000	      4094	80002314	bff06513	ori	x10,x0,-1025	  x0:0x00000000 x10=0xfffffbff
       40965000	      4095	80002318	40a651b3	sra	x3,x12,x10	 x12:0x00000000 x10:0xfffffbff  x3=0x00000000
       40975000	      4096	8000231c	ffcb8b93	addi	x23,x23,-4	 x23:0x0000000a x23=0x00000006
       40985000	      4097	80002320	e1e5b493	sltiu	x9,x11,-482	 x11:0x17f29000  x9=0x00000001
       40995000	      4098	80002324	feeb98e3	bne	x23,x14,80002314	 x23:0x00000006 x14:0xfffffffe
       41005000	      4099	00000000	00000013	addi	x0,x0,0	  x0:0x00000000
       41015000	      4100	80002310	00000013	addi	x0,x0,0	  x0:0x00000000
       41025000	      4101	80002314	bff06513	ori	x10,x0,-1025	  x0:0x00000000 x10=0xfffffbff
       41035000	      4102	80002318	40a651b3	sra	x3,x12,x10	 x12:0x00000000 x10:0xfffffbff  x3=0x00000000
       41045000	      4103	8000231c	ffcb8b93	addi	x23,x23,-4	 x23:0x00000006 x23=0x00000002
       41055000	      4104	80002320	e1e5b493	sltiu	x9,x11,-482	 x11:0x17f29000  x9=0x00000001
       41065000	      4105	80002324	feeb98e3	bne	x23,x14,80002314	 x23:0x00000002 x14:0xfffffffe
       41075000	      4106	00000000	00000013	addi	x0,x0,0	  x0:0x00000000
       41085000	      4107	80002310	00000013	addi	x0,x0,0	  x0:0x00000000
       41095000	      4108	80002314	bff06513	ori	x10,x0,-1025	  x0:0x00000000 x10=0xfffffbff
       41105000	      4109	80002318	40a651b3	sra	x3,x12,x10	 x12:0x00000000 x10:0xfffffbff  x3=0x00000000
       41115000	      4110	8000231c	ffcb8b93	addi	x23,x23,-4	 x23:0x00000002 x23=0xfffffffe
       41125000	      4111	80002320	e1e5b493	sltiu	x9,x11,-482	 x11:0x17f29000  x9=0x00000001
       41135000	      4112	80002324	feeb98e3	bne	x23,x14,80002314	 x23:0xfffffffe x14:0xfffffffe
       41145000	      4113	80002328	932d0113	addi	x2,x26,-1742	 x26:0x7a4db354  x2=0x7a4dac86
       41155000	      4114	8000232c	00000013	addi	x0,x0,0	  x0:0x00000000
       41165000	      4115	80002330	6fde4e13	xori	x28,x28,1789	 x28:0xe2e997a9 x28=0xe2e99154
       41175000	      4116	80002334	fb390ee3	beq	x18,x19,800022f0	 x18:0xfffffff7 x19:0xffffffff
       41185000	      4117	80002338	1819b293	sltiu	x5,x19,385	 x19:0xffffffff  x5=0x00000000
       41195000	      4118	8000233c	ff700813	addi	x16,x0,-9	  x0:0x00000000 x16=0xfffffff7
       41205000	      4119	80002340	5d9a6c13	ori	x24,x20,1497	 x20:0x00000001 x24=0x000005d9
       41215000	      4120	80002344	00d3b0b3	sltu	x1,x7,x13	  x7:0x00000000 x13:0x00000000  x1=0x00000000
       41225000	      4121	80002348	0e6a4613	xori	x12,x20,230	 x20:0x00000001 x12=0x000000e7
       41235000	      4122	8000234c	00900b93	addi	x23,x0,9	  x0:0x00000000 x23=0x00000009
       41245000	      4123	80002350	014a3fb3	sltu	x31,x20,x20	 x20:0x00000001 x20:0x00000001 x31=0x00000000
       41255000	      4124	80002354	00a339b3	sltu	x19,x6,x10	  x6:0x80002dda x10:0xfffffbff x19=0x00000001
       41265000	      4125	80002358	014598b3	sll	x17,x11,x20	 x11:0x17f29000 x20:0x00000001 x17=0x2fe52000
       41275000	      4126	8000235c	31e4aa13	slti	x20,x9,798	  x9:0x00000001 x20=0x00000001
       41285000	      4127	80002360	72d7ef13	ori	x30,x15,1837	 x15:0x80009fc4 x30=0x80009fed
       41295000	      4128	80002364	542e7713	andi	x14,x28,1346	 x28:0xe2e99154 x14=0x00000140
       41305000	      4129	80002368	00a1de93	srli	x29,x3,0xa	  x3:0x00000000 x29=0x00000000
       41315000	      4130	8000236c	008455b3	srl	x11,x8,x8	  x8:0x00000000  x8:0x00000000 x11=0x00000000
       41325000	      4131	80002370	af83b093	sltiu	x1,x7,-1288	  x7:0x00000000  x1=0x00000001
       41335000	      4132	80002374	00a80813	addi	x16,x16,10	 x16:0xfffffff7 x16=0x00000001
       41345000	      4133	80002378	62b58193	addi	x3,x11,1579	 x11:0x00000000  x3=0x0000062b
       41355000	      4134	8000237c	46c27593	andi	x11,x4,1132	  x4:0x00000000 x11=0x00000000
       41365000	      4135	80002380	0112c2b3	xor	x5,x5,x17	  x5:0x00000000 x17:0x2fe52000  x5=0x2fe52000
       41375000	      4136	80002384	b0bfe497	auipc	x9,0xb0bfe	  x9=0x30c00380
       41385000	      4137	80002388	0135c4b3	xor	x9,x11,x19	 x11:0x00000000 x19:0x00000001  x9=0x00000001
       41395000	      4138	8000238c	01dbd313	srli	x6,x23,0x1d	 x23:0x00000009  x6=0x00000000
       41405000	      4139	80002390	00ca8233	add	x4,x21,x12	 x21:0x80009f28 x12:0x000000e7  x4=0x8000a00f
       41415000	      4140	80002394	fd7864e3	bltu	x16,x23,8000235c	 x16:0x00000001 x23:0x00000009
       41425000	      4141	00000000	00000013	addi	x0,x0,0	  x0:0x00000000
       41435000	      4142	80002358	00000013	addi	x0,x0,0	  x0:0x00000000
       41445000	      4143	8000235c	31e4aa13	slti	x20,x9,798	  x9:0x00000001 x20=0x00000001
       41455000	      4144	80002360	72d7ef13	ori	x30,x15,1837	 x15:0x80009fc4 x30=0x80009fed
       41465000	      4145	80002364	542e7713	andi	x14,x28,1346	 x28:0xe2e99154 x14=0x00000140
       41475000	      4146	80002368	00a1de93	srli	x29,x3,0xa	  x3:0x0000062b x29=0x00000001
       41485000	      4147	8000236c	008455b3	srl	x11,x8,x8	  x8:0x00000000  x8:0x00000000 x11=0x00000000
       41495000	      4148	80002370	af83b093	sltiu	x1,x7,-1288	  x7:0x00000000  x1=0x00000001
       41505000	      4149	80002374	00a80813	addi	x16,x16,10	 x16:0x00000001 x16=0x0000000b
       41515000	      4150	80002378	62b58193	addi	x3,x11,1579	 x11:0x00000000  x3=0x0000062b
       41525000	      4151	8000237c	46c27593	andi	x11,x4,1132	  x4:0x8000a00f x11=0x0000000c
       41535000	      4152	80002380	0112c2b3	xor	x5,x5,x17	  x5:0x2fe52000 x17:0x2fe52000  x5=0x00000000
       41545000	      4153	80002384	b0bfe497	auipc	x9,0xb0bfe	  x9=0x30c00380
       41555000	      4154	80002388	0135c4b3	xor	x9,x11,x19	 x11:0x0000000c x19:0x00000001  x9=0x0000000d
       41565000	      4155	8000238c	01dbd313	srli	x6,x23,0x1d	 x23:0x00000009  x6=0x00000000
       41575000	      4156	80002390	00ca8233	add	x4,x21,x12	 x21:0x80009f28 x12:0x000000e7  x4=0x8000a00f
       41585000	      4157	80002394	fd7864e3	bltu	x16,x23,8000235c	 x16:0x0000000b x23:0x00000009
       41595000	      4158	80002398	01fe5cb3	srl	x25,x28,x31	 x28:0xe2e99154 x31:0x00000000 x25=0xe2e99154
       41605000	      4159	8000239c	ffd00713	addi	x14,x0,-3	  x0:0x00000000 x14=0xfffffffd
       41615000	      4160	800023a0	00700a13	addi	x20,x0,7	  x0:0x00000000 x20=0x00000007
       41625000	      4161	800023a4	0088a8b3	slt	x17,x17,x8	 x17:0x2fe52000  x8:0x00000000 x17=0x00000000
       41635000	      4162	800023a8	00970713	addi	x14,x14,9	 x14:0xfffffffd x14=0x00000006
       41645000	      4163	800023ac	ffc00093	addi	x1,x0,-4	  x0:0x00000000  x1=0xfffffffc
       41655000	      4164	800023b0	72ef4393	xori	x7,x30,1838	 x30:0x80009fed  x7=0x800098c3
       41665000	      4165	800023b4	ffb00413	addi	x8,x0,-5	  x0:0x00000000  x8=0xfffffffb
       41675000	      4166	800023b8	0070ed33	or	x26,x1,x7	  x1:0xfffffffc  x7:0x800098c3 x26=0xffffffff
       41685000	      4167	800023bc	00000013	addi	x0,x0,0	  x0:0x00000000
       41695000	      4168	800023c0	ff908093	addi	x1,x1,-7	  x1:0xfffffffc  x1=0xfffffff5
       41705000	      4169	800023c4	fe80dae3	bge	x1,x8,800023b8	  x1:0xfffffff5  x8:0xfffffffb
       41715000	      4170	800023c8	fd476ee3	bltu	x14,x20,800023a4	 x14:0x00000006 x20:0x00000007
       41725000	      4171	00000000	00000013	addi	x0,x0,0	  x0:0x00000000
       41735000	      4172	800023a0	00000013	addi	x0,x0,0	  x0:0x00000000
       41745000	      4173	800023a4	0088a8b3	slt	x17,x17,x8	 x17:0x00000000  x8:0xfffffffb x17=0x00000000
       41755000	      4174	800023a8	00970713	addi	x14,x14,9	 x14:0x00000006 x14=0x0000000f
       41765000	      4175	800023ac	ffc00093	addi	x1,x0,-4	  x0:0x00000000  x1=0xfffffffc
       41775000	      4176	800023b0	72ef4393	xori	x7,x30,1838	 x30:0x80009fed  x7=0x800098c3
       41785000	      4177	800023b4	ffb00413	addi	x8,x0,-5	  x0:0x00000000  x8=0xfffffffb
       41795000	      4178	800023b8	0070ed33	or	x26,x1,x7	  x1:0xfffffffc  x7:0x800098c3 x26=0xffffffff
       41805000	      4179	800023bc	00000013	addi	x0,x0,0	  x0:0x00000000
       41815000	      4180	800023c0	ff908093	addi	x1,x1,-7	  x1:0xfffffffc  x1=0xfffffff5
       41825000	      4181	800023c4	fe80dae3	bge	x1,x8,800023b8	  x1:0xfffffff5  x8:0xfffffffb
       41835000	      4182	800023c8	fd476ee3	bltu	x14,x20,800023a4	 x14:0x0000000f x20:0x00000007
       41845000	      4183	800023cc	63a9fe93	andi	x29,x19,1594	 x19:0x00000001 x29=0x00000000
       41855000	      4184	800023d0	ff800d93	addi	x27,x0,-8	  x0:0x00000000 x27=0xfffffff8
       41865000	      4185	800023d4	00c25293	srli	x5,x4,0xc	  x4:0x8000a00f  x5=0x0008000a
       41875000	      4186	800023d8	00400813	addi	x16,x0,4	  x0:0x00000000 x16=0x00000004
       41885000	      4187	800023dc	417f7d13	andi	x26,x30,1047	 x30:0x80009fed x26=0x00000405
       41895000	      4188	800023e0	00495213	srli	x4,x18,0x4	 x18:0xfffffff7  x4=0x0fffffff
       41905000	      4189	800023e4	2712b993	sltiu	x19,x5,625	  x5:0x0008000a x19=0x00000000
       41915000	      4190	800023e8	409d59b3	sra	x19,x26,x9	 x26:0x00000405  x9:0x0000000d x19=0x00000000
       41925000	      4191	800023ec	006d8d93	addi	x27,x27,6	 x27:0xfffffff8 x27=0xfffffffe
       41935000	      4192	800023f0	ff800f93	addi	x31,x0,-8	  x0:0x00000000 x31=0xfffffff8
       41945000	      4193	800023f4	00600693	addi	x13,x0,6	  x0:0x00000000 x13=0x00000006
       41955000	      4194	800023f8	00a501b3	add	x3,x10,x10	 x10:0xfffffbff x10:0xfffffbff  x3=0xfffff7fe
       41965000	      4195	800023fc	00fc2cb3	slt	x25,x24,x15	 x24:0x000005d9 x15:0x80009fc4 x25=0x00000000
       41975000	      4196	80002400	007f8f93	addi	x31,x31,7	 x31:0xfffffff8 x31=0xffffffff
       41985000	      4197	80002404	af448eb7	lui	x29,0xaf448	 x29=0xaf448000
       41995000	      4198	80002408	fedfeae3	bltu	x31,x13,800023fc	 x31:0xffffffff x13:0x00000006
       42005000	      4199	8000240c	fd0d9ce3	bne	x27,x16,800023e4	 x27:0xfffffffe x16:0x00000004
       42015000	      4200	00000000	00000013	addi	x0,x0,0	  x0:0x00000000
       42025000	      4201	800023e0	00000013	addi	x0,x0,0	  x0:0x00000000
       42035000	      4202	800023e4	2712b993	sltiu	x19,x5,625	  x5:0x0008000a x19=0x00000000
       42045000	      4203	800023e8	409d59b3	sra	x19,x26,x9	 x26:0x00000405  x9:0x0000000d x19=0x00000000
       42055000	      4204	800023ec	006d8d93	addi	x27,x27,6	 x27:0xfffffffe x27=0x00000004
       42065000	      4205	800023f0	ff800f93	addi	x31,x0,-8	  x0:0x00000000 x31=0xfffffff8
       42075000	      4206	800023f4	00600693	addi	x13,x0,6	  x0:0x00000000 x13=0x00000006
       42085000	      4207	800023f8	00a501b3	add	x3,x10,x10	 x10:0xfffffbff x10:0xfffffbff  x3=0xfffff7fe
       42095000	      4208	800023fc	00fc2cb3	slt	x25,x24,x15	 x24:0x000005d9 x15:0x80009fc4 x25=0x00000000
       42105000	      4209	80002400	007f8f93	addi	x31,x31,7	 x31:0xfffffff8 x31=0xffffffff
       42115000	      4210	80002404	af448eb7	lui	x29,0xaf448	 x29=0xaf448000
       42125000	      4211	80002408	fedfeae3	bltu	x31,x13,800023fc	 x31:0xffffffff x13:0x00000006
       42135000	      4212	8000240c	fd0d9ce3	bne	x27,x16,800023e4	 x27:0x00000004 x16:0x00000004
       42145000	      4213	80002410	00eca1b3	slt	x3,x25,x14	 x25:0x00000000 x14:0x0000000f  x3=0x00000001
       42155000	      4214	80002414	ffd00413	addi	x8,x0,-3	  x0:0x00000000  x8=0xfffffffd
       42165000	      4215	80002418	83eda197	auipc	x3,0x83eda	  x3=0x03edc414
       42175000	      4216	8000241c	57766b93	ori	x23,x12,1399	 x12:0x000000e7 x23=0x000005f7
       42185000	      4217	80002420	fed00c93	addi	x25,x0,-19	  x0:0x00000000 x25=0xffffffed
       42195000	      4218	80002424	01261d13	slli	x26,x12,0x12	 x12:0x000000e7 x26=0x039c0000
       42205000	      4219	80002428	b0b4e297	auipc	x5,0xb0b4e	  x5=0x30b50424
       42215000	      4220	8000242c	006d85b3	add	x11,x27,x6	 x27:0x00000004  x6:0x00000000 x11=0x00000004
       42225000	      4221	80002430	4297ff13	andi	x30,x15,1065	 x15:0x80009fc4 x30=0x00000400
       42235000	      4222	80002434	00e66f33	or	x30,x12,x14	 x12:0x000000e7 x14:0x0000000f x30=0x000000ef
       42245000	      4223	80002438	5b0a6613	ori	x12,x20,1456	 x20:0x00000007 x12=0x000005b7
       42255000	      4224	8000243c	23b98393	addi	x7,x19,571	 x19:0x00000000  x7=0x0000023b
       42265000	      4225	80002440	0142a733	slt	x14,x5,x20	  x5:0x30b50424 x20:0x00000007 x14=0x00000000
       42275000	      4226	80002444	00bf18b3	sll	x17,x30,x11	 x30:0x000000ef x11:0x00000004 x17=0x00000ef0
       42285000	      4227	80002448	00059113	slli	x2,x11,0x0	 x11:0x00000004  x2=0x00000004
       42295000	      4228	8000244c	ffa40413	addi	x8,x8,-6	  x8:0xfffffffd  x8=0xfffffff7
       42305000	      4229	80002450	a595a497	auipc	x9,0xa595a	  x9=0x2595c44c
       42315000	      4230	80002454	0f7912b7	lui	x5,0xf791	  x5=0x0f791000
       42325000	      4231	80002458	0125c733	xor	x14,x11,x18	 x11:0x00000004 x18:0xfffffff7 x14=0xfffffff3
       42335000	      4232	8000245c	61ab9d17	auipc	x26,0x61ab9	 x26=0xe1abb458
       42345000	      4233	80002460	ff9450e3	bge	x8,x25,80002440	  x8:0xfffffff7 x25:0xffffffed
       42355000	      4234	00000000	00000013	addi	x0,x0,0	  x0:0x00000000
       42365000	      4235	8000243c	00000013	addi	x0,x0,0	  x0:0x00000000
       42375000	      4236	80002440	0142a733	slt	x14,x5,x20	  x5:0x0f791000 x20:0x00000007 x14=0x00000000
       42385000	      4237	80002444	00bf18b3	sll	x17,x30,x11	 x30:0x000000ef x11:0x00000004 x17=0x00000ef0
       42395000	      4238	80002448	00059113	slli	x2,x11,0x0	 x11:0x00000004  x2=0x00000004
       42405000	      4239	8000244c	ffa40413	addi	x8,x8,-6	  x8:0xfffffff7  x8=0xfffffff1
       42415000	      4240	80002450	a595a497	auipc	x9,0xa595a	  x9=0x2595c44c
       42425000	      4241	80002454	0f7912b7	lui	x5,0xf791	  x5=0x0f791000
       42435000	      4242	80002458	0125c733	xor	x14,x11,x18	 x11:0x00000004 x18:0xfffffff7 x14=0xfffffff3
       42445000	      4243	8000245c	61ab9d17	auipc	x26,0x61ab9	 x26=0xe1abb458
       42455000	      4244	80002460	ff9450e3	bge	x8,x25,80002440	  x8:0xfffffff1 x25:0xffffffed
       42465000	      4245	00000000	00000013	addi	x0,x0,0	  x0:0x00000000
       42475000	      4246	8000243c	00000013	addi	x0,x0,0	  x0:0x00000000
       42485000	      4247	80002440	0142a733	slt	x14,x5,x20	  x5:0x0f791000 x20:0x00000007 x14=0x00000000
       42495000	      4248	80002444	00bf18b3	sll	x17,x30,x11	 x30:0x000000ef x11:0x00000004 x17=0x00000ef0
       42505000	      4249	80002448	00059113	slli	x2,x11,0x0	 x11:0x00000004  x2=0x00000004
       42515000	      4250	8000244c	ffa40413	addi	x8,x8,-6	  x8:0xfffffff1  x8=0xffffffeb
       42525000	      4251	80002450	a595a497	auipc	x9,0xa595a	  x9=0x2595c44c
       42535000	      4252	80002454	0f7912b7	lui	x5,0xf791	  x5=0x0f791000
       42545000	      4253	80002458	0125c733	xor	x14,x11,x18	 x11:0x00000004 x18:0xfffffff7 x14=0xfffffff3
       42555000	      4254	8000245c	61ab9d17	auipc	x26,0x61ab9	 x26=0xe1abb458
       42565000	      4255	80002460	ff9450e3	bge	x8,x25,80002440	  x8:0xffffffeb x25:0xffffffed
       42575000	      4256	80002464	396f5337	lui	x6,0x396f5	  x6=0x396f5000
       42585000	      4257	80002468	00900d93	addi	x27,x0,9	  x0:0x00000000 x27=0x00000009
       42595000	      4258	8000246c	003991b3	sll	x3,x19,x3	 x19:0x00000000  x3:0x03edc414  x3=0x00000000
       42605000	      4259	80002470	00d412b3	sll	x5,x8,x13	  x8:0xffffffeb x13:0x00000006  x5=0xfffffac0
       42615000	      4260	80002474	01460bb3	add	x23,x12,x20	 x12:0x000005b7 x20:0x00000007 x23=0x000005be
       42625000	      4261	80002478	01000c13	addi	x24,x0,16	  x0:0x00000000 x24=0x00000010
       42635000	      4262	8000247c	af14b113	sltiu	x2,x9,-1295	  x9:0x2595c44c  x2=0x00000001
       42645000	      4263	80002480	71944a13	xori	x20,x8,1817	  x8:0xffffffeb x20=0xfffff8f2
       42655000	      4264	80002484	bcb72d13	slti	x26,x14,-1077	 x14:0xfffffff3 x26=0x00000000
       42665000	      4265	80002488	008d8d93	addi	x27,x27,8	 x27:0x00000009 x27=0x00000011
       42675000	      4266	8000248c	01e9ba33	sltu	x20,x19,x30	 x19:0x00000000 x30:0x000000ef x20=0x00000001
       42685000	      4267	80002490	00a00213	addi	x4,x0,10	  x0:0x00000000  x4=0x0000000a
       42695000	      4268	80002494	d18bcb93	xori	x23,x23,-744	 x23:0x000005be x23=0xfffff8a6
       42705000	      4269	80002498	00900593	addi	x11,x0,9	  x0:0x00000000 x11=0x00000009
       42715000	      4270	8000249c	0119af33	slt	x30,x19,x17	 x19:0x00000000 x17:0x00000ef0 x30=0x00000001
       42725000	      4271	800024a0	00000013	addi	x0,x0,0	  x0:0x00000000
       42735000	      4272	800024a4	ff920213	addi	x4,x4,-7	  x4:0x0000000a  x4=0x00000003
       42745000	      4273	800024a8	feb27ae3	bgeu	x4,x11,8000249c	  x4:0x00000003 x11:0x00000009
       42755000	      4274	800024ac	00374833	xor	x16,x14,x3	 x14:0xfffffff3  x3:0x00000000 x16=0xfffffff3
       42765000	      4275	800024b0	421c2693	slti	x13,x24,1057	 x24:0x00000010 x13=0x00000001
       42775000	      4276	800024b4	fd8dc6e3	blt	x27,x24,80002480	 x27:0x00000011 x24:0x00000010
       42785000	      4277	800024b8	22afc193	xori	x3,x31,554	 x31:0xffffffff  x3=0xfffffdd5
       42795000	      4278	800024bc	00000993	addi	x19,x0,0	  x0:0x00000000 x19=0x00000000
       42805000	      4279	800024c0	01c42433	slt	x8,x8,x28	  x8:0xffffffeb x28:0xe2e99154  x8=0x00000000
       42815000	      4280	800024c4	ff600a13	addi	x20,x0,-10	  x0:0x00000000 x20=0xfffffff6
       42825000	      4281	800024c8	41ab0633	sub	x12,x22,x26	 x22:0x00000000 x26:0x00000000 x12=0x00000000
       42835000	      4282	800024cc	ff998993	addi	x19,x19,-7	 x19:0x00000000 x19=0xfffffff9
       42845000	      4283	800024d0	5aeae813	ori	x16,x21,1454	 x21:0x80009f28 x16=0x80009fae
       42855000	      4284	800024d4	4119d433	sra	x8,x19,x17	 x19:0xfffffff9 x17:0x00000ef0  x8=0xffffffff
       42865000	      4285	800024d8	df683f93	sltiu	x31,x16,-522	 x16:0x80009fae x31=0x00000001
       42875000	      4286	800024dc	012c9eb3	sll	x29,x25,x18	 x25:0xffffffed x18:0xfffffff7 x29=0xf6800000
       42885000	      4287	800024e0	7b20e193	ori	x3,x1,1970	  x1:0xfffffff5  x3=0xfffffff7
       42895000	      4288	800024e4	0d1e6693	ori	x13,x28,209	 x28:0xe2e99154 x13=0xe2e991d5
       42905000	      4289	800024e8	00721d33	sll	x26,x4,x7	  x4:0x00000003  x7:0x0000023b x26=0x18000000
       42915000	      4290	800024ec	01843733	sltu	x14,x8,x24	  x8:0xffffffff x24:0x00000010 x14=0x00000000
       42925000	      4291	800024f0	fd49dce3	bge	x19,x20,800024c8	 x19:0xfffffff9 x20:0xfffffff6
       42935000	      4292	00000000	00000013	addi	x0,x0,0	  x0:0x00000000
       42945000	      4293	800024c4	00000013	addi	x0,x0,0	  x0:0x00000000
       42955000	      4294	800024c8	41ab0633	sub	x12,x22,x26	 x22:0x00000000 x26:0x18000000 x12=0xe8000000
       42965000	      4295	800024cc	ff998993	addi	x19,x19,-7	 x19:0xfffffff9 x19=0xfffffff2
       42975000	      4296	800024d0	5aeae813	ori	x16,x21,1454	 x21:0x80009f28 x16=0x80009fae
       42985000	      4297	800024d4	4119d433	sra	x8,x19,x17	 x19:0xfffffff2 x17:0x00000ef0  x8=0xffffffff
       42995000	      4298	800024d8	df683f93	sltiu	x31,x16,-522	 x16:0x80009fae x31=0x00000001
       43005000	      4299	800024dc	012c9eb3	sll	x29,x25,x18	 x25:0xffffffed x18:0xfffffff7 x29=0xf6800000
       43015000	      4300	800024e0	7b20e193	ori	x3,x1,1970	  x1:0xfffffff5  x3=0xfffffff7
       43025000	      4301	800024e4	0d1e6693	ori	x13,x28,209	 x28:0xe2e99154 x13=0xe2e991d5
       43035000	      4302	800024e8	00721d33	sll	x26,x4,x7	  x4:0x00000003  x7:0x0000023b x26=0x18000000
       43045000	      4303	800024ec	01843733	sltu	x14,x8,x24	  x8:0xffffffff x24:0x00000010 x14=0x00000000
       43055000	      4304	800024f0	fd49dce3	bge	x19,x20,800024c8	 x19:0xfffffff2 x20:0xfffffff6
       43065000	      4305	800024f4	00091db3	sll	x27,x18,x0	 x18:0xfffffff7  x0:0x00000000 x27=0xfffffff7
       43075000	      4306	800024f8	fff00493	addi	x9,x0,-1	  x0:0x00000000  x9=0xffffffff
       43085000	      4307	800024fc	00e25eb3	srl	x29,x4,x14	  x4:0x00000003 x14:0x00000000 x29=0x00000003
       43095000	      4308	80002500	ffd00993	addi	x19,x0,-3	  x0:0x00000000 x19=0xfffffffd
       43105000	      4309	80002504	3afe7313	andi	x6,x28,943	 x28:0xe2e99154  x6=0x00000104
       43115000	      4310	80002508	ffb48493	addi	x9,x9,-5	  x9:0xffffffff  x9=0xfffffffa
       43125000	      4311	8000250c	d2c2b313	sltiu	x6,x5,-724	  x5:0xfffffac0  x6=0x00000001
       43135000	      4312	80002510	01bb2933	slt	x18,x22,x27	 x22:0x00000000 x27:0xfffffff7 x18=0x00000000
       43145000	      4313	80002514	ff34d8e3	bge	x9,x19,80002504	  x9:0xfffffffa x19:0xfffffffd
       43155000	      4314	80002518	62346d93	ori	x27,x8,1571	  x8:0xffffffff x27=0xffffffff
       43165000	      4315	8000251c	ffd00693	addi	x13,x0,-3	  x0:0x00000000 x13=0xfffffffd
       43175000	      4316	80002520	00900093	addi	x1,x0,9	  x0:0x00000000  x1=0x00000009
       43185000	      4317	80002524	40c3d833	sra	x16,x7,x12	  x7:0x0000023b x12:0xe8000000 x16=0x0000023b
       43195000	      4318	80002528	006c5c33	srl	x24,x24,x6	 x24:0x00000010  x6:0x00000001 x24=0x00000008
       43205000	      4319	8000252c	014ae633	or	x12,x21,x20	 x21:0x80009f28 x20:0xfffffff6 x12=0xfffffffe
       43215000	      4320	80002530	00468693	addi	x13,x13,4	 x13:0xfffffffd x13=0x00000001
       43225000	      4321	80002534	00397a33	and	x20,x18,x3	 x18:0x00000000  x3:0xfffffff7 x20=0x00000000
       43235000	      4322	80002538	00200193	addi	x3,x0,2	  x0:0x00000000  x3=0x00000002
       43245000	      4323	8000253c	ff000113	addi	x2,x0,-16	  x0:0x00000000  x2=0xfffffff0
       43255000	      4324	80002540	438a3713	sltiu	x14,x20,1080	 x20:0x00000000 x14=0x00000001
       43265000	      4325	80002544	7487f593	andi	x11,x15,1864	 x15:0x80009fc4 x11=0x00000740
       43275000	      4326	80002548	ff718193	addi	x3,x3,-9	  x3:0x00000002  x3=0xfffffff9
       43285000	      4327	8000254c	fe21dae3	bge	x3,x2,80002540	  x3:0xfffffff9  x2:0xfffffff0
       43295000	      4328	00000000	00000013	addi	x0,x0,0	  x0:0x00000000
       43305000	      4329	8000253c	00000013	addi	x0,x0,0	  x0:0x00000000
       43315000	      4330	80002540	438a3713	sltiu	x14,x20,1080	 x20:0x00000000 x14=0x00000001
       43325000	      4331	80002544	7487f593	andi	x11,x15,1864	 x15:0x80009fc4 x11=0x00000740
       43335000	      4332	80002548	ff718193	addi	x3,x3,-9	  x3:0xfffffff9  x3=0xfffffff0
       43345000	      4333	8000254c	fe21dae3	bge	x3,x2,80002540	  x3:0xfffffff0  x2:0xfffffff0
       43355000	      4334	00000000	00000013	addi	x0,x0,0	  x0:0x00000000
       43365000	      4335	8000253c	00000013	addi	x0,x0,0	  x0:0x00000000
       43375000	      4336	80002540	438a3713	sltiu	x14,x20,1080	 x20:0x00000000 x14=0x00000001
       43385000	      4337	80002544	7487f593	andi	x11,x15,1864	 x15:0x80009fc4 x11=0x00000740
       43395000	      4338	80002548	ff718193	addi	x3,x3,-9	  x3:0xfffffff0  x3=0xffffffe7
       43405000	      4339	8000254c	fe21dae3	bge	x3,x2,80002540	  x3:0xffffffe7  x2:0xfffffff0
       43415000	      4340	80002550	fc168ee3	beq	x13,x1,8000252c	 x13:0x00000001  x1:0x00000009
       43425000	      4341	80002554	010cb733	sltu	x14,x25,x16	 x25:0xffffffed x16:0x0000023b x14=0x00000000
       43435000	      4342	80002558	018c52b3	srl	x5,x24,x24	 x24:0x00000008 x24:0x00000008  x5=0x00000000
       43445000	      4343	8000255c	405b0633	sub	x12,x22,x5	 x22:0x00000000  x5:0x00000000 x12=0x00000000
       43455000	      4344	80002560	018c9993	slli	x19,x25,0x18	 x25:0xffffffed x19=0xed000000
       43465000	      4345	80002564	00ff1093	slli	x1,x30,0xf	 x30:0x00000001  x1=0x00008000
       43475000	      4346	80002568	b970b5b7	lui	x11,0xb970b	 x11=0xb970b000
       43485000	      4347	8000256c	00251493	slli	x9,x10,0x2	 x10:0xfffffbff  x9=0xffffeffc
       43495000	      4348	80002570	0205fa63	bgeu	x11,x0,800025a4	 x11:0xb970b000  x0:0x00000000
       43505000	      4349	00000000	00000013	addi	x0,x0,0	  x0:0x00000000
       43515000	      4350	800025a0	00000013	addi	x0,x0,0	  x0:0x00000000
       43525000	      4351	800025a4	805cbc17	auipc	x24,0x805cb	 x24=0x005cd5a0
       43535000	      4352	800025a8	00539c63	bne	x7,x5,800025c0	  x7:0x0000023b  x5:0x00000000
       43545000	      4353	00000000	00000013	addi	x0,x0,0	  x0:0x00000000
       43555000	      4354	800025bc	00000013	addi	x0,x0,0	  x0:0x00000000
       43565000	      4355	800025c0	5206a093	slti	x1,x13,1312	 x13:0x00000001  x1=0x00000001
       43575000	      4356	800025c4	04e80663	beq	x16,x14,80002610	 x16:0x0000023b x14:0x00000000
       43585000	      4357	800025c8	00f65933	srl	x18,x12,x15	 x12:0x00000000 x15:0x80009fc4 x18=0x00000000
       43595000	      4358	800025cc	00dc0d33	add	x26,x24,x13	 x24:0x005cd5a0 x13:0x00000001 x26=0x005cd5a1
       43605000	      4359	800025d0	40235f33	sra	x30,x6,x2	  x6:0x00000001  x2:0xfffffff0 x30=0x00000000
       43615000	      4360	800025d4	db63c993	xori	x19,x7,-586	  x7:0x0000023b x19=0xffffff8d
       43625000	      4361	800025d8	054b6863	bltu	x22,x20,80002628	 x22:0x00000000 x20:0x00000000
       43635000	      4362	800025dc	00066833	or	x16,x12,x0	 x12:0x00000000  x0:0x00000000 x16=0x00000000
       43645000	      4363	800025e0	03930063	beq	x6,x25,80002600	  x6:0x00000001 x25:0xffffffed
       43655000	      4364	800025e4	0030f4b3	and	x9,x1,x3	  x1:0x00000001  x3:0xffffffe7  x9=0x00000001
       43665000	      4365	800025e8	0d050693	addi	x13,x10,208	 x10:0xfffffbff x13=0xfffffccf
       43675000	      4366	800025ec	01355863	bge	x10,x19,800025fc	 x10:0xfffffbff x19:0xffffff8d
       43685000	      4367	800025f0	23b78f93	addi	x31,x15,571	 x15:0x80009fc4 x31=0x8000a1ff
       43695000	      4368	800025f4	bf6b4213	xori	x4,x22,-1034	 x22:0x00000000  x4=0xfffffbf6
       43705000	      4369	800025f8	c3b16e13	ori	x28,x2,-965	  x2:0xfffffff0 x28=0xfffffffb
       43715000	      4370	800025fc	a6f2a613	slti	x12,x5,-1425	  x5:0x00000000 x12=0x00000000
       43725000	      4371	80002600	2d21af13	slti	x30,x3,722	  x3:0xffffffe7 x30=0x00000001
       43735000	      4372	80002604	0182ceb3	xor	x29,x5,x24	  x5:0x00000000 x24:0x005cd5a0 x29=0x005cd5a0
       43745000	      4373	80002608	41f8d113	srai	x2,x17,0x1f	 x17:0x00000ef0  x2=0x00000000
       43755000	      4374	8000260c	023c0063	beq	x24,x3,8000262c	 x24:0x005cd5a0  x3:0xffffffe7
       43765000	      4375	80002610	001ecf33	xor	x30,x29,x1	 x29:0x005cd5a0  x1:0x00000001 x30=0x005cd5a1
       43775000	      4376	80002614	05ea8863	beq	x21,x30,80002664	 x21:0x80009f28 x30:0x005cd5a1
       43785000	      4377	80002618	71727617	auipc	x12,0x71727	 x12=0xf1729614
       43795000	      4378	8000261c	018bfbb3	and	x23,x23,x24	 x23:0xfffff8a6 x24:0x005cd5a0 x23=0x005cd0a0
       43805000	      4379	80002620	00eec863	blt	x29,x14,80002630	 x29:0x005cd5a0 x14:0x00000000
       43815000	      4380	80002624	03870263	beq	x14,x24,80002648	 x14:0x00000000 x24:0x005cd5a0
       43825000	      4381	80002628	0099d233	srl	x4,x19,x9	 x19:0xffffff8d  x9:0x00000001  x4=0x7fffffc6
       43835000	      4382	8000262c	8ad88313	addi	x6,x17,-1875	 x17:0x00000ef0  x6=0x0000079d
       43845000	      4383	80002630	8818d317	auipc	x6,0x8818d	  x6=0x0818f62c
       43855000	      4384	80002634	055a7463	bgeu	x20,x21,8000267c	 x20:0x00000000 x21:0x80009f28
       43865000	      4385	80002638	0021d393	srli	x7,x3,0x2	  x3:0xffffffe7  x7=0x3ffffff9
       43875000	      4386	8000263c	0132e333	or	x6,x5,x19	  x5:0x00000000 x19:0xffffff8d  x6=0xffffff8d
       43885000	      4387	80002640	01d77db3	and	x27,x14,x29	 x14:0x00000000 x29:0x005cd5a0 x27=0x00000000
       43895000	      4388	80002644	407ed033	sra	x0,x29,x7	 x29:0x005cd5a0  x7:0x3ffffff9
       43905000	      4389	80002648	40170bb3	sub	x23,x14,x1	 x14:0x00000000  x1:0x00000001 x23=0xffffffff
       43915000	      4390	8000264c	4130da33	sra	x20,x1,x19	  x1:0x00000001 x19:0xffffff8d x20=0x00000000
       43925000	      4391	80002650	f78fe513	ori	x10,x31,-136	 x31:0x8000a1ff x10=0xffffffff
       43935000	      4392	80002654	6b8c7e93	andi	x29,x24,1720	 x24:0x005cd5a0 x29=0x000004a0
       43945000	      4393	80002658	00000013	addi	x0,x0,0	  x0:0x00000000
       43955000	      4394	8000265c	00037463	bgeu	x6,x0,80002664	  x6:0xffffff8d  x0:0x00000000
       43965000	      4395	00000000	00000013	addi	x0,x0,0	  x0:0x00000000
       43975000	      4396	80002660	00000013	addi	x0,x0,0	  x0:0x00000000
       43985000	      4397	80002664	cfe2b613	sltiu	x12,x5,-770	  x5:0x00000000 x12=0x00000001
       43995000	      4398	80002668	025d8663	beq	x27,x5,80002694	 x27:0x00000000  x5:0x00000000
       44005000	      4399	00000000	00000013	addi	x0,x0,0	  x0:0x00000000
       44015000	      4400	80002690	00000013	addi	x0,x0,0	  x0:0x00000000
       44025000	      4401	80002694	004f1e33	sll	x28,x30,x4	 x30:0x005cd5a1  x4:0x7fffffc6 x28=0x17356840
       44035000	      4402	80002698	00526663	bltu	x4,x5,800026a4	  x4:0x7fffffc6  x5:0x00000000
       44045000	      4403	8000269c	01ac20b3	slt	x1,x24,x26	 x24:0x005cd5a0 x26:0x005cd5a1  x1=0x00000001
       44055000	      4404	800026a0	00a2d413	srli	x8,x5,0xa	  x5:0x00000000  x8=0x00000000
       44065000	      4405	800026a4	016f9933	sll	x18,x31,x22	 x31:0x8000a1ff x22:0x00000000 x18=0x8000a1ff
       44075000	      4406	800026a8	0240e863	bltu	x1,x4,800026d8	  x1:0x00000001  x4:0x7fffffc6
       44085000	      4407	00000000	00000013	addi	x0,x0,0	  x0:0x00000000
       44095000	      4408	800026d4	00000013	addi	x0,x0,0	  x0:0x00000000
       44105000	      4409	800026d8	01c1e5b3	or	x11,x3,x28	  x3:0xffffffe7 x28:0x17356840 x11=0xffffffe7
       44115000	      4410	800026dc	009978b3	and	x17,x18,x9	 x18:0x8000a1ff  x9:0x00000001 x17=0x00000001
       44125000	      4411	800026e0	49f72c13	slti	x24,x14,1183	 x14:0x00000000 x24=0x00000001
       44135000	      4412	800026e4	00905a33	srl	x20,x0,x9	  x0:0x00000000  x9:0x00000001 x20=0x00000000
       44145000	      4413	800026e8	00f00fb3	add	x31,x0,x15	  x0:0x00000000 x15:0x80009fc4 x31=0x80009fc4
       44155000	      4414	800026ec	01c2da13	srli	x20,x5,0x1c	  x5:0x00000000 x20=0x00000000
       44165000	      4415	800026f0	00000013	addi	x0,x0,0	  x0:0x00000000
       44175000	      4416	800026f4	4abb9897	auipc	x17,0x4abb9	 x17=0xcabbb6f0
       44185000	      4417	800026f8	02884663	blt	x16,x8,80002724	 x16:0x00000000  x8:0x00000000
       44195000	      4418	800026fc	403bd613	srai	x12,x23,0x3	 x23:0xffffffff x12=0xffffffff
       44205000	      4419	80002700	01005c13	srli	x24,x0,0x10	  x0:0x00000000 x24=0x00000000
       44215000	      4420	80002704	f8077413	andi	x8,x14,-128	 x14:0x00000000  x8=0x00000000
       44225000	      4421	80002708	03600263	beq	x0,x22,8000272c	  x0:0x00000000 x22:0x00000000
       44235000	      4422	00000000	00000013	addi	x0,x0,0	  x0:0x00000000
       44245000	      4423	80002728	00000013	addi	x0,x0,0	  x0:0x00000000
       44255000	      4424	8000272c	01e43133	sltu	x2,x8,x30	  x8:0x00000000 x30:0x005cd5a1  x2=0x00000001
       44265000	      4425	80002730	7e0a6993	ori	x19,x20,2016	 x20:0x00000000 x19=0x000007e0
       44275000	      4426	80002734	317d2e93	slti	x29,x26,791	 x26:0x005cd5a1 x29=0x00000000
       44285000	      4427	80002738	0292c663	blt	x5,x9,80002764	  x5:0x00000000  x9:0x00000001
       44295000	      4428	00000000	00000013	addi	x0,x0,0	  x0:0x00000000
       44305000	      4429	80002760	00000013	addi	x0,x0,0	  x0:0x00000000
       44315000	      4430	80002764	01221bb3	sll	x23,x4,x18	  x4:0x7fffffc6 x18:0x8000a1ff x23=0x00000000
       44325000	      4431	80002768	71768c13	addi	x24,x13,1815	 x13:0xfffffccf x24=0x000003e6
       44335000	      4432	8000276c	00d75863	bge	x14,x13,8000277c	 x14:0x00000000 x13:0xfffffccf
       44345000	      4433	00000000	00000013	addi	x0,x0,0	  x0:0x00000000
       44355000	      4434	80002778	00000013	addi	x0,x0,0	  x0:0x00000000
       44365000	      4435	8000277c	d48ed237	lui	x4,0xd48ed	  x4=0xd48ed000
       44375000	      4436	80002780	d775e593	ori	x11,x11,-649	 x11:0xffffffe7 x11=0xfffffff7
       44385000	      4437	80002784	df887713	andi	x14,x16,-520	 x16:0x00000000 x14=0x00000000
       44395000	      4438	80002788	011771b3	and	x3,x14,x17	 x14:0x00000000 x17:0xcabbb6f0  x3=0x00000000
       44405000	      4439	8000278c	40a788b3	sub	x17,x15,x10	 x15:0x80009fc4 x10:0xffffffff x17=0x80009fc5
       44415000	      4440	80002790	50f3d5b7	lui	x11,0x50f3d	 x11=0x50f3d000
       44425000	      4441	80002794	044fda63	bge	x31,x4,800027e8	 x31:0x80009fc4  x4:0xd48ed000
       44435000	      4442	80002798	509d8413	addi	x8,x27,1289	 x27:0x00000000  x8=0x00000509
       44445000	      4443	8000279c	0197b5b3	sltu	x11,x15,x25	 x15:0x80009fc4 x25:0xffffffed x11=0x00000001
       44455000	      4444	800027a0	4b430c93	addi	x25,x6,1204	  x6:0xffffff8d x25=0x00000441
       44465000	      4445	800027a4	4086d893	srai	x17,x13,0x8	 x13:0xfffffccf x17=0xfffffffc
       44475000	      4446	800027a8	dd15f713	andi	x14,x11,-559	 x11:0x00000001 x14=0x00000001
       44485000	      4447	800027ac	c82ee017	auipc	x0,0xc82ee	
       44495000	      4448	800027b0	aef82313	slti	x6,x16,-1297	 x16:0x00000000  x6=0x00000000
       44505000	      4449	800027b4	01b2d0b3	srl	x1,x5,x27	  x5:0x00000000 x27:0x00000000  x1=0x00000000
       44515000	      4450	800027b8	085d6493	ori	x9,x26,133	 x26:0x005cd5a1  x9=0x005cd5a5
       44525000	      4451	800027bc	00db76b3	and	x13,x22,x13	 x22:0x00000000 x13:0xfffffccf x13=0x00000000
       44535000	      4452	800027c0	49a8c493	xori	x9,x17,1178	 x17:0xfffffffc  x9=0xfffffb66
       44545000	      4453	800027c4	dc0febef	jal	x23,800027c4	 x23=0x800027c4
       44555000	      4454	00000000	00000013	addi	x0,x0,0	  x0:0x00000000
       44565000	      4455	80000d80	00000013	addi	x0,x0,0	  x0:0x00000000
       44575000	      4456	80000d84	019e0f33	add	x30,x28,x25	 x28:0x17356840 x25:0x00000441 x30=0x17356c81
       44585000	      4457	80000d88	401ad9b3	sra	x19,x21,x1	 x21:0x80009f28  x1:0x00000000 x19=0x80009f28
       44595000	      4458	80000d8c	00cf28b3	slt	x17,x30,x12	 x30:0x17356c81 x12:0xffffffff x17=0x00000000
       44605000	      4459	80000d90	3db2a293	slti	x5,x5,987	  x5:0x00000000  x5=0x00000001
       44615000	      4460	80000d94	ff8a8a93	addi	x21,x21,-8	 x21:0x80009f28 x21=0x80009f20
       44625000	      4461	80000d98	00345db3	srl	x27,x8,x3	  x8:0x00000509  x3:0x00000000 x27=0x00000509
       44635000	      4462	80000d9c	017aa223	sw	x23,4(x21)	 x21:0x80009f20 x23:0x800027c4 PA:0x80009f24
       44645000	      4463	80000da0	00f75d13	srli	x26,x14,0xf	 x14:0x00000001 x26=0x00000000
       44655000	      4464	80000da4	001b25b3	slt	x11,x22,x1	 x22:0x00000000  x1:0x00000000 x11=0x00000000
       44665000	      4465	80000da8	40b489b3	sub	x19,x9,x11	  x9:0xfffffb66 x11:0x00000000 x19=0xfffffb66
       44675000	      4466	80000dac	00100093	addi	x1,x0,1	  x0:0x00000000  x1=0x00000001
       44685000	      4467	80000db0	01f15493	srli	x9,x2,0x1f	  x2:0x00000001  x9=0x00000000
       44695000	      4468	80000db4	40a486b3	sub	x13,x9,x10	  x9:0x00000000 x10:0xffffffff x13=0x00000001
       44705000	      4469	80000db8	40b95193	srai	x3,x18,0xb	 x18:0x8000a1ff  x3=0xfff00014
       44715000	      4470	80000dbc	ffb00313	addi	x6,x0,-5	  x0:0x00000000  x6=0xfffffffb
       44725000	      4471	80000dc0	206f3813	sltiu	x16,x30,518	 x30:0x17356c81 x16=0x00000000
       44735000	      4472	80000dc4	4185d193	srai	x3,x11,0x18	 x11:0x00000000  x3=0x00000000
       44745000	      4473	80000dc8	01f2fbb3	and	x23,x5,x31	  x5:0x00000001 x31:0x80009fc4 x23=0x00000000
       44755000	      4474	80000dcc	00000013	addi	x0,x0,0	  x0:0x00000000
       44765000	      4475	80000dd0	40fa8833	sub	x16,x21,x15	 x21:0x80009f20 x15:0x80009fc4 x16=0xffffff5c
       44775000	      4476	80000dd4	00fc6e33	or	x28,x24,x15	 x24:0x000003e6 x15:0x80009fc4 x28=0x80009fe6
       44785000	      4477	80000dd8	005a4e33	xor	x28,x20,x5	 x20:0x00000000  x5:0x00000001 x28=0x00000001
       44795000	      4478	80000ddc	0116b4b3	sltu	x9,x13,x17	 x13:0x00000001 x17:0x00000000  x9=0x00000000
       44805000	      4479	80000de0	416d0a33	sub	x20,x26,x22	 x26:0x00000000 x22:0x00000000 x20=0x00000000
       44815000	      4480	80000de4	b84f3f97	auipc	x31,0xb84f3	 x31=0x384f3de0
       44825000	      4481	80000de8	4037d693	srai	x13,x15,0x3	 x15:0x80009fc4 x13=0xf00013f8
       44835000	      4482	80000dec	41bd52b3	sra	x5,x26,x27	 x26:0x00000000 x27:0x00000509  x5=0x00000000
       44845000	      4483	80000df0	ffa08093	addi	x1,x1,-6	  x1:0x00000001  x1=0xfffffffb
       44855000	      4484	80000df4	6f26f137	lui	x2,0x6f26f	  x2=0x6f26f000
       44865000	      4485	80000df8	016f1533	sll	x10,x30,x22	 x30:0x17356c81 x22:0x00000000 x10=0x17356c81
       44875000	      4486	80000dfc	00041713	slli	x14,x8,0x0	  x8:0x00000509 x14=0x00000509
       44885000	      4487	80000e00	4003d693	srai	x13,x7,0x0	  x7:0x3ffffff9 x13=0x3ffffff9
       44895000	      4488	80000e04	fc6082e3	beq	x1,x6,80000dc8	  x1:0xfffffffb  x6:0xfffffffb
       44905000	      4489	00000000	00000013	addi	x0,x0,0	  x0:0x00000000
       44915000	      4490	80000dc4	00000013	addi	x0,x0,0	  x0:0x00000000
       44925000	      4491	80000dc8	01f2fbb3	and	x23,x5,x31	  x5:0x00000000 x31:0x384f3de0 x23=0x00000000
       44935000	      4492	80000dcc	00000013	addi	x0,x0,0	  x0:0x00000000
       44945000	      4493	80000dd0	40fa8833	sub	x16,x21,x15	 x21:0x80009f20 x15:0x80009fc4 x16=0xffffff5c
       44955000	      4494	80000dd4	00fc6e33	or	x28,x24,x15	 x24:0x000003e6 x15:0x80009fc4 x28=0x80009fe6
       44965000	      4495	80000dd8	005a4e33	xor	x28,x20,x5	 x20:0x00000000  x5:0x00000000 x28=0x00000000
       44975000	      4496	80000ddc	0116b4b3	sltu	x9,x13,x17	 x13:0x3ffffff9 x17:0x00000000  x9=0x00000000
       44985000	      4497	80000de0	416d0a33	sub	x20,x26,x22	 x26:0x00000000 x22:0x00000000 x20=0x00000000
       44995000	      4498	80000de4	b84f3f97	auipc	x31,0xb84f3	 x31=0x384f3de0
       45005000	      4499	80000de8	4037d693	srai	x13,x15,0x3	 x15:0x80009fc4 x13=0xf00013f8
       45015000	      4500	80000dec	41bd52b3	sra	x5,x26,x27	 x26:0x00000000 x27:0x00000509  x5=0x00000000
       45025000	      4501	80000df0	ffa08093	addi	x1,x1,-6	  x1:0xfffffffb  x1=0xfffffff5
       45035000	      4502	80000df4	6f26f137	lui	x2,0x6f26f	  x2=0x6f26f000
       45045000	      4503	80000df8	016f1533	sll	x10,x30,x22	 x30:0x17356c81 x22:0x00000000 x10=0x17356c81
       45055000	      4504	80000dfc	00041713	slli	x14,x8,0x0	  x8:0x00000509 x14=0x00000509
       45065000	      4505	80000e00	4003d693	srai	x13,x7,0x0	  x7:0x3ffffff9 x13=0x3ffffff9
       45075000	      4506	80000e04	fc6082e3	beq	x1,x6,80000dc8	  x1:0xfffffff5  x6:0xfffffffb
       45085000	      4507	80000e08	a066d917	auipc	x18,0xa066d	 x18=0x2066de04
       45095000	      4508	80000e0c	00800313	addi	x6,x0,8	  x0:0x00000000  x6=0x00000008
       45105000	      4509	80000e10	00800f93	addi	x31,x0,8	  x0:0x00000000 x31=0x00000008
       45115000	      4510	80000e14	c30eae97	auipc	x29,0xc30ea	 x29=0x430eae10
       45125000	      4511	80000e18	ffb30313	addi	x6,x6,-5	  x6:0x00000008  x6=0x00000003
       45135000	      4512	80000e1c	fff37ce3	bgeu	x6,x31,80000e14	  x6:0x00000003 x31:0x00000008
       45145000	      4513	80000e20	01f1d433	srl	x8,x3,x31	  x3:0x00000000 x31:0x00000008  x8=0x00000000
       45155000	      4514	80000e24	00100513	addi	x10,x0,1	  x0:0x00000000 x10=0x00000001
       45165000	      4515	80000e28	01131433	sll	x8,x6,x17	  x6:0x00000003 x17:0x00000000  x8=0x00000003
       45175000	      4516	80000e2c	00900813	addi	x16,x0,9	  x0:0x00000000 x16=0x00000009
       45185000	      4517	80000e30	be3c7a13	andi	x20,x24,-1053	 x24:0x000003e6 x20=0x000003e2
       45195000	      4518	80000e34	00850513	addi	x10,x10,8	 x10:0x00000001 x10=0x00000009
       45205000	      4519	80000e38	00300c13	addi	x24,x0,3	  x0:0x00000000 x24=0x00000003
       45215000	      4520	80000e3c	ffc00613	addi	x12,x0,-4	  x0:0x00000000 x12=0xfffffffc
       45225000	      4521	80000e40	2d9295b7	lui	x11,0x2d929	 x11=0x2d929000
       45235000	      4522	80000e44	00000013	addi	x0,x0,0	  x0:0x00000000
       45245000	      4523	80000e48	ff7c0c13	addi	x24,x24,-9	 x24:0x00000003 x24=0xfffffffa
       45255000	      4524	80000e4c	fecc5ce3	bge	x24,x12,80000e44	 x24:0xfffffffa x12:0xfffffffc
       45265000	      4525	80000e50	ff0500e3	beq	x10,x16,80000e30	 x10:0x00000009 x16:0x00000009
       45275000	      4526	00000000	00000013	addi	x0,x0,0	  x0:0x00000000
       45285000	      4527	80000e2c	00000013	addi	x0,x0,0	  x0:0x00000000
       45295000	      4528	80000e30	be3c7a13	andi	x20,x24,-1053	 x24:0xfffffffa x20=0xfffffbe2
       45305000	      4529	80000e34	00850513	addi	x10,x10,8	 x10:0x00000009 x10=0x00000011
       45315000	      4530	80000e38	00300c13	addi	x24,x0,3	  x0:0x00000000 x24=0x00000003
       45325000	      4531	80000e3c	ffc00613	addi	x12,x0,-4	  x0:0x00000000 x12=0xfffffffc
       45335000	      4532	80000e40	2d9295b7	lui	x11,0x2d929	 x11=0x2d929000
       45345000	      4533	80000e44	00000013	addi	x0,x0,0	  x0:0x00000000
       45355000	      4534	80000e48	ff7c0c13	addi	x24,x24,-9	 x24:0x00000003 x24=0xfffffffa
       45365000	      4535	80000e4c	fecc5ce3	bge	x24,x12,80000e44	 x24:0xfffffffa x12:0xfffffffc
       45375000	      4536	80000e50	ff0500e3	beq	x10,x16,80000e30	 x10:0x00000011 x16:0x00000009
       45385000	      4537	80000e54	ce940413	addi	x8,x8,-791	  x8:0x00000003  x8=0xfffffcec
       45395000	      4538	80000e58	00700213	addi	x4,x0,7	  x0:0x00000000  x4=0x00000007
       45405000	      4539	80000e5c	48b22d93	slti	x27,x4,1163	  x4:0x00000007 x27=0x00000001
       45415000	      4540	80000e60	01476833	or	x16,x14,x20	 x14:0x00000509 x20:0xfffffbe2 x16=0xffffffeb
       45425000	      4541	80000e64	015b5693	srli	x13,x22,0x15	 x22:0x00000000 x13=0x00000000
       45435000	      4542	80000e68	008f93b3	sll	x7,x31,x8	 x31:0x00000008  x8:0xfffffcec  x7=0x00008000
       45445000	      4543	80000e6c	aa98c613	xori	x12,x17,-1367	 x17:0x00000000 x12=0xfffffaa9
       45455000	      4544	80000e70	00600293	addi	x5,x0,6	  x0:0x00000000  x5=0x00000006
       45465000	      4545	80000e74	fcebe697	auipc	x13,0xfcebe	 x13=0x7cebee70
       45475000	      4546	80000e78	4002dd33	sra	x26,x5,x0	  x5:0x00000006  x0:0x00000000 x26=0x00000006
       45485000	      4547	80000e7c	13fd7c97	auipc	x25,0x13fd7	 x25=0x93fd7e78
       45495000	      4548	80000e80	ffc20213	addi	x4,x4,-4	  x4:0x00000007  x4=0x00000003
       45505000	      4549	80000e84	0125ba33	sltu	x20,x11,x18	 x11:0x2d929000 x18:0x2066de04 x20=0x00000000
       45515000	      4550	80000e88	00428db3	add	x27,x5,x4	  x5:0x00000006  x4:0x00000003 x27=0x00000009
       45525000	      4551	80000e8c	005575b3	and	x11,x10,x5	 x10:0x00000011  x5:0x00000006 x11=0x00000000
       45535000	      4552	80000e90	00470133	add	x2,x14,x4	 x14:0x00000509  x4:0x00000003  x2=0x0000050c
       45545000	      4553	80000e94	ea376393	ori	x7,x14,-349	 x14:0x00000509  x7=0xffffffab
       45555000	      4554	80000e98	fa3fff93	andi	x31,x31,-93	 x31:0x00000008 x31=0x00000000
       45565000	      4555	80000e9c	980ce917	auipc	x18,0x980ce	 x18=0x180cee98
       45575000	      4556	80000ea0	fc527ae3	bgeu	x4,x5,80000e74	  x4:0x00000003  x5:0x00000006
       45585000	      4557	80000ea4	00f3dd93	srli	x27,x7,0xf	  x7:0xffffffab x27=0x0001ffff
       45595000	      4558	80000ea8	00a00f13	addi	x30,x0,10	  x0:0x00000000 x30=0x0000000a
       45605000	      4559	80000eac	ce6abe13	sltiu	x28,x21,-794	 x21:0x80009f20 x28=0x00000001
       45615000	      4560	80000eb0	0f43b637	lui	x12,0xf43b	 x12=0x0f43b000
       45625000	      4561	80000eb4	41695fb3	sra	x31,x18,x22	 x18:0x180cee98 x22:0x00000000 x31=0x180cee98
       45635000	      4562	80000eb8	002a9433	sll	x8,x21,x2	 x21:0x80009f20  x2:0x0000050c  x8=0x09f20000
       45645000	      4563	80000ebc	b041d917	auipc	x18,0xb041d	 x18=0x3041deb8
       45655000	      4564	80000ec0	6a79c937	lui	x18,0x6a79c	 x18=0x6a79c000
       45665000	      4565	80000ec4	00a00493	addi	x9,x0,10	  x0:0x00000000  x9=0x0000000a
       45675000	      4566	80000ec8	011e3d33	sltu	x26,x28,x17	 x28:0x00000001 x17:0x00000000 x26=0x00000000
       45685000	      4567	80000ecc	00f53fb3	sltu	x31,x10,x15	 x10:0x00000011 x15:0x80009fc4 x31=0x00000001
       45695000	      4568	80000ed0	015033b3	sltu	x7,x0,x21	  x0:0x00000000 x21:0x80009f20  x7=0x00000001
       45705000	      4569	80000ed4	00aa0633	add	x12,x20,x10	 x20:0x00000000 x10:0x00000011 x12=0x00000011
       45715000	      4570	80000ed8	f0bbf0b7	lui	x1,0xf0bbf	  x1=0xf0bbf000
       45725000	      4571	80000edc	00f95893	srli	x17,x18,0xf	 x18:0x6a79c000 x17=0x0000d4f3
       45735000	      4572	80000ee0	034b3113	sltiu	x2,x22,52	 x22:0x00000000  x2=0x00000001
       45745000	      4573	80000ee4	001673b3	and	x7,x12,x1	 x12:0x00000011  x1:0xf0bbf000  x7=0x00000000
       45755000	      4574	80000ee8	ff7f0f13	addi	x30,x30,-9	 x30:0x0000000a x30=0x00000001
       45765000	      4575	80000eec	002702b3	add	x5,x14,x2	 x14:0x00000509  x2:0x00000001  x5=0x0000050a
       45775000	      4576	80000ef0	439e7593	andi	x11,x28,1081	 x28:0x00000001 x11=0x00000001
       45785000	      4577	80000ef4	6903af93	slti	x31,x7,1680	  x7:0x00000000 x31=0x00000001
       45795000	      4578	80000ef8	aff94593	xori	x11,x18,-1281	 x18:0x6a79c000 x11=0x95863aff
       45805000	      4579	80000efc	00000013	addi	x0,x0,0	  x0:0x00000000
       45815000	      4580	80000f00	1d388813	addi	x16,x17,467	 x17:0x0000d4f3 x16=0x0000d6c6
       45825000	      4581	80000f04	a1d75a17	auipc	x20,0xa1d75	 x20=0x21d75f00
       45835000	      4582	80000f08	4195dc13	srai	x24,x11,0x19	 x11:0x95863aff x24=0xffffffca
       45845000	      4583	80000f0c	fa9f7ee3	bgeu	x30,x9,80000ec8	 x30:0x00000001  x9:0x0000000a
       45855000	      4584	80000f10	00000013	addi	x0,x0,0	  x0:0x00000000
       45865000	      4585	80000f14	00a00713	addi	x14,x0,10	  x0:0x00000000 x14=0x0000000a
       45875000	      4586	80000f18	9eacb993	sltiu	x19,x25,-1558	 x25:0x93fd7e78 x19=0x00000001
       45885000	      4587	80000f1c	00e42333	slt	x6,x8,x14	  x8:0x09f20000 x14:0x0000000a  x6=0x00000000
       45895000	      4588	80000f20	68407893	andi	x17,x0,1668	  x0:0x00000000 x17=0x00000000
       45905000	      4589	80000f24	00900a13	addi	x20,x0,9	  x0:0x00000000 x20=0x00000009
       45915000	      4590	80000f28	f2d14317	auipc	x6,0xf2d14	  x6=0x72d14f24
       45925000	      4591	80000f2c	ff870713	addi	x14,x14,-8	 x14:0x0000000a x14=0x00000002
       45935000	      4592	80000f30	c94c0913	addi	x18,x24,-876	 x24:0xffffffca x18=0xfffffc5e
       45945000	      4593	80000f34	00dc0eb3	add	x29,x24,x13	 x24:0xffffffca x13:0x7cebee70 x29=0x7cebee3a
       45955000	      4594	80000f38	01a2c633	xor	x12,x5,x26	  x5:0x0000050a x26:0x00000000 x12=0x0000050a
       45965000	      4595	80000f3c	403cd593	srai	x11,x25,0x3	 x25:0x93fd7e78 x11=0xf27fafcf
       45975000	      4596	80000f40	010be933	or	x18,x23,x16	 x23:0x00000000 x16:0x0000d6c6 x18=0x0000d6c6
       45985000	      4597	80000f44	401a5433	sra	x8,x20,x1	 x20:0x00000009  x1:0xf0bbf000  x8=0x00000009
       45995000	      4598	80000f48	41bcdbb3	sra	x23,x25,x27	 x25:0x93fd7e78 x27:0x0001ffff x23=0xffffffff
       46005000	      4599	80000f4c	ace7f993	andi	x19,x15,-1330	 x15:0x80009fc4 x19=0x80009ac4
       46015000	      4600	80000f50	010529b3	slt	x19,x10,x16	 x10:0x00000011 x16:0x0000d6c6 x19=0x00000001
       46025000	      4601	80000f54	ffe00493	addi	x9,x0,-2	  x0:0x00000000  x9=0xfffffffe
       46035000	      4602	80000f58	00445d93	srli	x27,x8,0x4	  x8:0x00000009 x27=0x00000000
       46045000	      4603	80000f5c	00400293	addi	x5,x0,4	  x0:0x00000000  x5=0x00000004
       46055000	      4604	80000f60	d5b66913	ori	x18,x12,-677	 x12:0x0000050a x18=0xfffffd5b
       46065000	      4605	80000f64	0b57fe93	andi	x29,x15,181	 x15:0x80009fc4 x29=0x00000084
       46075000	      4606	80000f68	f7a258b7	lui	x17,0xf7a25	 x17=0xf7a25000
       46085000	      4607	80000f6c	1b830697	auipc	x13,0x1b830	 x13=0x9b830f68
       46095000	      4608	80000f70	00e5e933	or	x18,x11,x14	 x11:0xf27fafcf x14:0x00000002 x18=0xf27fafcf
       46105000	      4609	80000f74	c5543013	sltiu	x0,x8,-939	  x8:0x00000009
       46115000	      4610	80000f78	00448493	addi	x9,x9,4	  x9:0xfffffffe  x9=0x00000002
       46125000	      4611	80000f7c	fe54e6e3	bltu	x9,x5,80000f68	  x9:0x00000002  x5:0x00000004
       46135000	      4612	00000000	00000013	addi	x0,x0,0	  x0:0x00000000
       46145000	      4613	80000f64	00000013	addi	x0,x0,0	  x0:0x00000000
       46155000	      4614	80000f68	f7a258b7	lui	x17,0xf7a25	 x17=0xf7a25000
       46165000	      4615	80000f6c	1b830697	auipc	x13,0x1b830	 x13=0x9b830f68
       46175000	      4616	80000f70	00e5e933	or	x18,x11,x14	 x11:0xf27fafcf x14:0x00000002 x18=0xf27fafcf
       46185000	      4617	80000f74	c5543013	sltiu	x0,x8,-939	  x8:0x00000009
       46195000	      4618	80000f78	00448493	addi	x9,x9,4	  x9:0x00000002  x9=0x00000006
       46205000	      4619	80000f7c	fe54e6e3	bltu	x9,x5,80000f68	  x9:0x00000006  x5:0x00000004
       46215000	      4620	80000f80	01341113	slli	x2,x8,0x13	  x8:0x00000009  x2=0x00480000
       46225000	      4621	80000f84	01d79bb3	sll	x23,x15,x29	 x15:0x80009fc4 x29:0x00000084 x23=0x0009fc40
       46235000	      4622	80000f88	ce222f93	slti	x31,x4,-798	  x4:0x00000003 x31=0x00000000
       46245000	      4623	80000f8c	41065633	sra	x12,x12,x16	 x12:0x0000050a x16:0x0000d6c6 x12=0x00000014
       46255000	      4624	80000f90	00ba0fb3	add	x31,x20,x11	 x20:0x00000009 x11:0xf27fafcf x31=0xf27fafd8
       46265000	      4625	80000f94	f9477ae3	bgeu	x14,x20,80000f28	 x14:0x00000002 x20:0x00000009
       46275000	      4626	80000f98	00000013	addi	x0,x0,0	  x0:0x00000000
       46285000	      4627	80000f9c	00900513	addi	x10,x0,9	  x0:0x00000000 x10=0x00000009
       46295000	      4628	80000fa0	01257033	and	x0,x10,x18	 x10:0x00000009 x18:0xf27fafcf
       46305000	      4629	80000fa4	68217613	andi	x12,x2,1666	  x2:0x00480000 x12=0x00000000
       46315000	      4630	80000fa8	ffc00093	addi	x1,x0,-4	  x0:0x00000000  x1=0xfffffffc
       46325000	      4631	80000fac	0056f9b3	and	x19,x13,x5	 x13:0x9b830f68  x5:0x00000004 x19=0x00000000
       46335000	      4632	80000fb0	015e3633	sltu	x12,x28,x21	 x28:0x00000001 x21:0x80009f20 x12=0x00000001
       46345000	      4633	80000fb4	6b13a993	slti	x19,x7,1713	  x7:0x00000000 x19=0x00000001
       46355000	      4634	80000fb8	018e3cb3	sltu	x25,x28,x24	 x28:0x00000001 x24:0xffffffca x25=0x00000001
       46365000	      4635	80000fbc	01c406b3	add	x13,x8,x28	  x8:0x00000009 x28:0x00000001 x13=0x0000000a
       46375000	      4636	80000fc0	ff750513	addi	x10,x10,-9	 x10:0x00000009 x10=0x00000000
       46385000	      4637	80000fc4	ffc00a13	addi	x20,x0,-4	  x0:0x00000000 x20=0xfffffffc
       46395000	      4638	80000fc8	01b58233	add	x4,x11,x27	 x11:0xf27fafcf x27:0x00000000  x4=0xf27fafcf
       46405000	      4639	80000fcc	00c00593	addi	x11,x0,12	  x0:0x00000000 x11=0x0000000c
       46415000	      4640	80000fd0	40520833	sub	x16,x4,x5	  x4:0xf27fafcf  x5:0x00000004 x16=0xf27fafcb
       46425000	      4641	80000fd4	0143ad33	slt	x26,x7,x20	  x7:0x00000000 x20:0xfffffffc x26=0x00000000
       46435000	      4642	80000fd8	40830bb3	sub	x23,x6,x8	  x6:0x72d14f24  x8:0x00000009 x23=0x72d14f1b
       46445000	      4643	80000fdc	4111d813	srai	x16,x3,0x11	  x3:0x00000000 x16=0x00000000
       46455000	      4644	80000fe0	01a8a893	slti	x17,x17,26	 x17:0xf7a25000 x17=0x00000001
       46465000	      4645	80000fe4	001a0a13	addi	x20,x20,1	 x20:0xfffffffc x20=0xfffffffd
       46475000	      4646	80000fe8	41cd51b3	sra	x3,x26,x28	 x26:0x00000000 x28:0x00000001  x3=0x00000000
       46485000	      4647	80000fec	01037033	and	x0,x6,x16	  x6:0x72d14f24 x16:0x00000000
       46495000	      4648	80000ff0	feba62e3	bltu	x20,x11,80000fd4	 x20:0xfffffffd x11:0x0000000c
       46505000	      4649	80000ff4	01746033	or	x0,x8,x23	  x8:0x00000009 x23:0x72d14f1b
       46515000	      4650	80000ff8	0169e9b3	or	x19,x19,x22	 x19:0x00000001 x22:0x00000000 x19=0x00000001
       46525000	      4651	80000ffc	1e59e437	lui	x8,0x1e59e	  x8=0x1e59e000
       46535000	      4652	80001000	01b94833	xor	x16,x18,x27	 x18:0xf27fafcf x27:0x00000000 x16=0xf27fafcf
       46545000	      4653	80001004	00b8c433	xor	x8,x17,x11	 x17:0x00000001 x11:0x0000000c  x8=0x0000000d
       46555000	      4654	80001008	fa1554e3	bge	x10,x1,80000fb0	 x10:0x00000000  x1:0xfffffffc
       46565000	      4655	00000000	00000013	addi	x0,x0,0	  x0:0x00000000
       46575000	      4656	80000fac	00000013	addi	x0,x0,0	  x0:0x00000000
       46585000	      4657	80000fb0	015e3633	sltu	x12,x28,x21	 x28:0x00000001 x21:0x80009f20 x12=0x00000001
       46595000	      4658	80000fb4	6b13a993	slti	x19,x7,1713	  x7:0x00000000 x19=0x00000001
       46605000	      4659	80000fb8	018e3cb3	sltu	x25,x28,x24	 x28:0x00000001 x24:0xffffffca x25=0x00000001
       46615000	      4660	80000fbc	01c406b3	add	x13,x8,x28	  x8:0x0000000d x28:0x00000001 x13=0x0000000e
       46625000	      4661	80000fc0	ff750513	addi	x10,x10,-9	 x10:0x00000000 x10=0xfffffff7
       46635000	      4662	80000fc4	ffc00a13	addi	x20,x0,-4	  x0:0x00000000 x20=0xfffffffc
       46645000	      4663	80000fc8	01b58233	add	x4,x11,x27	 x11:0x0000000c x27:0x00000000  x4=0x0000000c
       46655000	      4664	80000fcc	00c00593	addi	x11,x0,12	  x0:0x00000000 x11=0x0000000c
       46665000	      4665	80000fd0	40520833	sub	x16,x4,x5	  x4:0x0000000c  x5:0x00000004 x16=0x00000008
       46675000	      4666	80000fd4	0143ad33	slt	x26,x7,x20	  x7:0x00000000 x20:0xfffffffc x26=0x00000000
       46685000	      4667	80000fd8	40830bb3	sub	x23,x6,x8	  x6:0x72d14f24  x8:0x0000000d x23=0x72d14f17
       46695000	      4668	80000fdc	4111d813	srai	x16,x3,0x11	  x3:0x00000000 x16=0x00000000
       46705000	      4669	80000fe0	01a8a893	slti	x17,x17,26	 x17:0x00000001 x17=0x00000001
       46715000	      4670	80000fe4	001a0a13	addi	x20,x20,1	 x20:0xfffffffc x20=0xfffffffd
       46725000	      4671	80000fe8	41cd51b3	sra	x3,x26,x28	 x26:0x00000000 x28:0x00000001  x3=0x00000000
       46735000	      4672	80000fec	01037033	and	x0,x6,x16	  x6:0x72d14f24 x16:0x00000000
       46745000	      4673	80000ff0	feba62e3	bltu	x20,x11,80000fd4	 x20:0xfffffffd x11:0x0000000c
       46755000	      4674	80000ff4	01746033	or	x0,x8,x23	  x8:0x0000000d x23:0x72d14f17
       46765000	      4675	80000ff8	0169e9b3	or	x19,x19,x22	 x19:0x00000001 x22:0x00000000 x19=0x00000001
       46775000	      4676	80000ffc	1e59e437	lui	x8,0x1e59e	  x8=0x1e59e000
       46785000	      4677	80001000	01b94833	xor	x16,x18,x27	 x18:0xf27fafcf x27:0x00000000 x16=0xf27fafcf
       46795000	      4678	80001004	00b8c433	xor	x8,x17,x11	 x17:0x00000001 x11:0x0000000c  x8=0x0000000d
       46805000	      4679	80001008	fa1554e3	bge	x10,x1,80000fb0	 x10:0xfffffff7  x1:0xfffffffc
       46815000	      4680	8000100c	513ecb97	auipc	x23,0x513ec	 x23=0xd13ed008
       46825000	      4681	80001010	00800393	addi	x7,x0,8	  x0:0x00000000  x7=0x00000008
       46835000	      4682	80001014	8a872693	slti	x13,x14,-1880	 x14:0x00000002 x13=0x00000000
       46845000	      4683	80001018	40d38bb3	sub	x23,x7,x13	  x7:0x00000008 x13:0x00000000 x23=0x00000008
       46855000	      4684	8000101c	41da8d33	sub	x26,x21,x29	 x21:0x80009f20 x29:0x00000084 x26=0x80009e9c
       46865000	      4685	80001020	003e9713	slli	x14,x29,0x3	 x29:0x00000084 x14=0x00000420
       46875000	      4686	80001024	5ab34693	xori	x13,x6,1451	  x6:0x72d14f24 x13=0x72d14a8f
       46885000	      4687	80001028	00b00113	addi	x2,x0,11	  x0:0x00000000  x2=0x0000000b
       46895000	      4688	8000102c	01dfd713	srli	x14,x31,0x1d	 x31:0xf27fafd8 x14=0x00000007
       46905000	      4689	80001030	00000013	addi	x0,x0,0	  x0:0x00000000
       46915000	      4690	80001034	01221f13	slli	x30,x4,0x12	  x4:0x0000000c x30=0x00300000
       46925000	      4691	80001038	a9467613	andi	x12,x12,-1388	 x12:0x00000001 x12=0x00000000
       46935000	      4692	8000103c	0133d433	srl	x8,x7,x19	  x7:0x00000008 x19:0x00000001  x8=0x00000004
       46945000	      4693	80001040	00a38393	addi	x7,x7,10	  x7:0x00000008  x7=0x00000012
       46955000	      4694	80001044	dbbb84b7	lui	x9,0xdbbb8	  x9=0xdbbb8000
       46965000	      4695	80001048	00356733	or	x14,x10,x3	 x10:0xfffffff7  x3:0x00000000 x14=0xfffffff7
       46975000	      4696	8000104c	415a0033	sub	x0,x20,x21	 x20:0xfffffffd x21:0x80009f20
       46985000	      4697	80001050	00774c33	xor	x24,x14,x7	 x14:0xfffffff7  x7:0x00000012 x24=0xffffffe5
       46995000	      4698	80001054	016f4033	xor	x0,x30,x22	 x30:0x00300000 x22:0x00000000
       47005000	      4699	80001058	ff2ec037	lui	x0,0xff2ec	
       47015000	      4700	8000105c	fc23cee3	blt	x7,x2,80001038	  x7:0x00000012  x2:0x0000000b
       47025000	      4701	80001060	013498b3	sll	x17,x9,x19	  x9:0xdbbb8000 x19:0x00000001 x17=0xb7770000
       47035000	      4702	80001064	00a00513	addi	x10,x0,10	  x0:0x00000000 x10=0x0000000a
       47045000	      4703	80001068	108c2413	slti	x8,x24,264	 x24:0xffffffe5  x8=0x00000001
       47055000	      4704	8000106c	b7404393	xori	x7,x0,-1164	  x0:0x00000000  x7=0xfffffb74
       47065000	      4705	80001070	00cb0e33	add	x28,x22,x12	 x22:0x00000000 x12:0x00000000 x28=0x00000000
       47075000	      4706	80001074	13889337	lui	x6,0x13889	  x6=0x13889000
       47085000	      4707	80001078	005ed393	srli	x7,x29,0x5	 x29:0x00000084  x7=0x00000004
       47095000	      4708	8000107c	fc06cb93	xori	x23,x13,-64	 x13:0x72d14a8f x23=0x8d2eb54f
       47105000	      4709	80001080	ff600193	addi	x3,x0,-10	  x0:0x00000000  x3=0xfffffff6
       47115000	      4710	80001084	01bcef33	or	x30,x25,x27	 x25:0x00000001 x27:0x00000000 x30=0x00000001
       47125000	      4711	80001088	ff650513	addi	x10,x10,-10	 x10:0x0000000a x10=0x00000000
       47135000	      4712	8000108c	00000113	addi	x2,x0,0	  x0:0x00000000  x2=0x00000000
       47145000	      4713	80001090	01f0e333	or	x6,x1,x31	  x1:0xfffffffc x31:0xf27fafd8  x6=0xfffffffc
       47155000	      4714	80001094	00800e93	addi	x29,x0,8	  x0:0x00000000 x29=0x00000008
       47165000	      4715	80001098	cab63693	sltiu	x13,x12,-853	 x12:0x00000000 x13=0x00000001
       47175000	      4716	8000109c	403b5f93	srai	x31,x22,0x3	 x22:0x00000000 x31=0x00000000
       47185000	      4717	800010a0	0141a4b3	slt	x9,x3,x20	  x3:0xfffffff6 x20:0xfffffffd  x9=0x00000001
       47195000	      4718	800010a4	00000013	addi	x0,x0,0	  x0:0x00000000
       47205000	      4719	800010a8	00410113	addi	x2,x2,4	  x2:0x00000000  x2=0x00000004
       47215000	      4720	800010ac	41ad5293	srai	x5,x26,0x1a	 x26:0x80009e9c  x5=0xffffffe0
       47225000	      4721	800010b0	005a9db3	sll	x27,x21,x5	 x21:0x80009f20  x5:0xffffffe0 x27=0x80009f20
       47235000	      4722	800010b4	ffd166e3	bltu	x2,x29,800010a0	  x2:0x00000004 x29:0x00000008
       47245000	      4723	00000000	00000013	addi	x0,x0,0	  x0:0x00000000
       47255000	      4724	8000109c	00000013	addi	x0,x0,0	  x0:0x00000000
       47265000	      4725	800010a0	0141a4b3	slt	x9,x3,x20	  x3:0xfffffff6 x20:0xfffffffd  x9=0x00000001
       47275000	      4726	800010a4	00000013	addi	x0,x0,0	  x0:0x00000000
       47285000	      4727	800010a8	00410113	addi	x2,x2,4	  x2:0x00000004  x2=0x00000008
       47295000	      4728	800010ac	41ad5293	srai	x5,x26,0x1a	 x26:0x80009e9c  x5=0xffffffe0
       47305000	      4729	800010b0	005a9db3	sll	x27,x21,x5	 x21:0x80009f20  x5:0xffffffe0 x27=0x80009f20
       47315000	      4730	800010b4	ffd166e3	bltu	x2,x29,800010a0	  x2:0x00000008 x29:0x00000008
       47325000	      4731	800010b8	fc3516e3	bne	x10,x3,80001084	 x10:0x00000000  x3:0xfffffff6
       47335000	      4732	00000000	00000013	addi	x0,x0,0	  x0:0x00000000
       47345000	      4733	80001080	00000013	addi	x0,x0,0	  x0:0x00000000
       47355000	      4734	80001084	01bcef33	or	x30,x25,x27	 x25:0x00000001 x27:0x80009f20 x30=0x80009f21
       47365000	      4735	80001088	ff650513	addi	x10,x10,-10	 x10:0x00000000 x10=0xfffffff6
       47375000	      4736	8000108c	00000113	addi	x2,x0,0	  x0:0x00000000  x2=0x00000000
       47385000	      4737	80001090	01f0e333	or	x6,x1,x31	  x1:0xfffffffc x31:0x00000000  x6=0xfffffffc
       47395000	      4738	80001094	00800e93	addi	x29,x0,8	  x0:0x00000000 x29=0x00000008
       47405000	      4739	80001098	cab63693	sltiu	x13,x12,-853	 x12:0x00000000 x13=0x00000001
       47415000	      4740	8000109c	403b5f93	srai	x31,x22,0x3	 x22:0x00000000 x31=0x00000000
       47425000	      4741	800010a0	0141a4b3	slt	x9,x3,x20	  x3:0xfffffff6 x20:0xfffffffd  x9=0x00000001
       47435000	      4742	800010a4	00000013	addi	x0,x0,0	  x0:0x00000000
       47445000	      4743	800010a8	00410113	addi	x2,x2,4	  x2:0x00000000  x2=0x00000004
       47455000	      4744	800010ac	41ad5293	srai	x5,x26,0x1a	 x26:0x80009e9c  x5=0xffffffe0
       47465000	      4745	800010b0	005a9db3	sll	x27,x21,x5	 x21:0x80009f20  x5:0xffffffe0 x27=0x80009f20
       47475000	      4746	800010b4	ffd166e3	bltu	x2,x29,800010a0	  x2:0x00000004 x29:0x00000008
       47485000	      4747	00000000	00000013	addi	x0,x0,0	  x0:0x00000000
       47495000	      4748	8000109c	00000013	addi	x0,x0,0	  x0:0x00000000
       47505000	      4749	800010a0	0141a4b3	slt	x9,x3,x20	  x3:0xfffffff6 x20:0xfffffffd  x9=0x00000001
       47515000	      4750	800010a4	00000013	addi	x0,x0,0	  x0:0x00000000
       47525000	      4751	800010a8	00410113	addi	x2,x2,4	  x2:0x00000004  x2=0x00000008
       47535000	      4752	800010ac	41ad5293	srai	x5,x26,0x1a	 x26:0x80009e9c  x5=0xffffffe0
       47545000	      4753	800010b0	005a9db3	sll	x27,x21,x5	 x21:0x80009f20  x5:0xffffffe0 x27=0x80009f20
       47555000	      4754	800010b4	ffd166e3	bltu	x2,x29,800010a0	  x2:0x00000008 x29:0x00000008
       47565000	      4755	800010b8	fc3516e3	bne	x10,x3,80001084	 x10:0xfffffff6  x3:0xfffffff6
       47575000	      4756	800010bc	003082b3	add	x5,x1,x3	  x1:0xfffffffc  x3:0xfffffff6  x5=0xfffffff2
       47585000	      4757	800010c0	00a00213	addi	x4,x0,10	  x0:0x00000000  x4=0x0000000a
       47595000	      4758	800010c4	4bfa8913	addi	x18,x21,1215	 x21:0x80009f20 x18=0x8000a3df
       47605000	      4759	800010c8	00a00a13	addi	x20,x0,10	  x0:0x00000000 x20=0x0000000a
       47615000	      4760	800010cc	01e3abb3	slt	x23,x7,x30	  x7:0x00000004 x30:0x80009f21 x23=0x00000000
       47625000	      4761	800010d0	407cd3b3	sra	x7,x25,x7	 x25:0x00000001  x7:0x00000004  x7=0x00000000
       47635000	      4762	800010d4	00d54fb3	xor	x31,x10,x13	 x10:0xfffffff6 x13:0x00000001 x31=0xfffffff7
       47645000	      4763	800010d8	686daf13	slti	x30,x27,1670	 x27:0x80009f20 x30=0x00000001
       47655000	      4764	800010dc	41660733	sub	x14,x12,x22	 x12:0x00000000 x22:0x00000000 x14=0x00000000
       47665000	      4765	800010e0	01b97eb3	and	x29,x18,x27	 x18:0x8000a3df x27:0x80009f20 x29=0x80008300
       47675000	      4766	800010e4	ff720213	addi	x4,x4,-9	  x4:0x0000000a  x4=0x00000001
       47685000	      4767	800010e8	459d3d93	sltiu	x27,x26,1113	 x26:0x80009e9c x27=0x00000000
       47695000	      4768	800010ec	00e604b3	add	x9,x12,x14	 x12:0x00000000 x14:0x00000000  x9=0x00000000
       47705000	      4769	800010f0	7cc4e413	ori	x8,x9,1996	  x9:0x00000000  x8=0x000007cc
       47715000	      4770	800010f4	40af5e13	srai	x28,x30,0xa	 x30:0x00000001 x28=0x00000000
       47725000	      4771	800010f8	01961833	sll	x16,x12,x25	 x12:0x00000000 x25:0x00000001 x16=0x00000000
       47735000	      4772	800010fc	0196d433	srl	x8,x13,x25	 x13:0x00000001 x25:0x00000001  x8=0x00000000
       47745000	      4773	80001100	003d9493	slli	x9,x27,0x3	 x27:0x00000000  x9=0x00000000
       47755000	      4774	80001104	3adf1f17	auipc	x30,0x3adf1	 x30=0xbadf2100
       47765000	      4775	80001108	016d4433	xor	x8,x26,x22	 x26:0x80009e9c x22:0x00000000  x8=0x80009e9c
       47775000	      4776	8000110c	00101fb3	sll	x31,x0,x1	  x0:0x00000000  x1:0xfffffffc x31=0x00000000
       47785000	      4777	80001110	0c7db513	sltiu	x10,x27,199	 x27:0x00000000 x10=0x00000001
       47795000	      4778	80001114	40e8d693	srai	x13,x17,0xe	 x17:0xb7770000 x13=0xfffedddc
       47805000	      4779	80001118	00d50e33	add	x28,x10,x13	 x10:0x00000001 x13:0xfffedddc x28=0xfffedddd
       47815000	      4780	8000111c	00f603b3	add	x7,x12,x15	 x12:0x00000000 x15:0x80009fc4  x7=0x80009fc4
       47825000	      4781	80001120	fb427ce3	bgeu	x4,x20,800010d8	  x4:0x00000001 x20:0x0000000a
       47835000	      4782	80001124	006ed6b3	srl	x13,x29,x6	 x29:0x80008300  x6:0xfffffffc x13=0x00000008
       47845000	      4783	80001128	00900293	addi	x5,x0,9	  x0:0x00000000  x5=0x00000009
       47855000	      4784	8000112c	00800813	addi	x16,x0,8	  x0:0x00000000 x16=0x00000008
       47865000	      4785	80001130	00400d33	add	x26,x0,x4	  x0:0x00000000  x4:0x00000001 x26=0x00000001
       47875000	      4786	80001134	2a84c0b7	lui	x1,0x2a84c	  x1=0x2a84c000
       47885000	      4787	80001138	ffa28293	addi	x5,x5,-6	  x5:0x00000009  x5=0x00000003
       47895000	      4788	8000113c	ff02fae3	bgeu	x5,x16,80001130	  x5:0x00000003 x16:0x00000008
       47905000	      4789	80001140	b7474093	xori	x1,x14,-1164	 x14:0x00000000  x1=0xfffffb74
       47915000	      4790	80001144	00700f13	addi	x30,x0,7	  x0:0x00000000 x30=0x00000007
       47925000	      4791	80001148	418c5db3	sra	x27,x24,x24	 x24:0xffffffe5 x24:0xffffffe5 x27=0xffffffff
       47935000	      4792	8000114c	0063f933	and	x18,x7,x6	  x7:0x80009fc4  x6:0xfffffffc x18=0x80009fc4
       47945000	      4793	80001150	01100493	addi	x9,x0,17	  x0:0x00000000  x9=0x00000011
       47955000	      4794	80001154	406c5913	srai	x18,x24,0x6	 x24:0xffffffe5 x18=0xffffffff
       47965000	      4795	80001158	00000013	addi	x0,x0,0	  x0:0x00000000
       47975000	      4796	8000115c	00683db3	sltu	x27,x16,x6	 x16:0x00000008  x6:0xfffffffc x27=0x00000001
       47985000	      4797	80001160	00af0f13	addi	x30,x30,10	 x30:0x00000007 x30=0x00000011
       47995000	      4798	80001164	01d69413	slli	x8,x13,0x1d	 x13:0x00000008  x8=0x00000000
       48005000	      4799	80001168	705ce513	ori	x10,x25,1797	 x25:0x00000001 x10=0x00000705
       48015000	      4800	8000116c	ffd00893	addi	x17,x0,-3	  x0:0x00000000 x17=0xfffffffd
       48025000	      4801	80001170	00d91593	slli	x11,x18,0xd	 x18:0xffffffff x11=0xffffe000
       48035000	      4802	80001174	41f25593	srai	x11,x4,0x1f	  x4:0x00000001 x11=0x00000000
       48045000	      4803	80001178	83a0d817	auipc	x16,0x83a0d	 x16=0x03a0e174
       48055000	      4804	8000117c	3960fe13	andi	x28,x1,918	  x1:0xfffffb74 x28=0x00000314
       48065000	      4805	80001180	00c84833	xor	x16,x16,x12	 x16:0x03a0e174 x12:0x00000000 x16=0x03a0e174
       48075000	      4806	80001184	ff700993	addi	x19,x0,-9	  x0:0x00000000 x19=0xfffffff7
       48085000	      4807	80001188	508c8e93	addi	x29,x25,1288	 x25:0x00000001 x29=0x00000509
       48095000	      4808	8000118c	003edfb3	srl	x31,x29,x3	 x29:0x00000509  x3:0xfffffff6 x31=0x00000000
       48105000	      4809	80001190	07e34c93	xori	x25,x6,126	  x6:0xfffffffc x25=0xffffff82
       48115000	      4810	80001194	ffb88893	addi	x17,x17,-5	 x17:0xfffffffd x17=0xfffffff8
       48125000	      4811	80001198	00a95013	srli	x0,x18,0xa	 x18:0xffffffff
       48135000	      4812	8000119c	00000013	addi	x0,x0,0	  x0:0x00000000
       48145000	      4813	800011a0	ff38d4e3	bge	x17,x19,80001188	 x17:0xfffffff8 x19:0xfffffff7
       48155000	      4814	00000000	00000013	addi	x0,x0,0	  x0:0x00000000
       48165000	      4815	80001184	00000013	addi	x0,x0,0	  x0:0x00000000
       48175000	      4816	80001188	508c8e93	addi	x29,x25,1288	 x25:0xffffff82 x29=0x0000048a
       48185000	      4817	8000118c	003edfb3	srl	x31,x29,x3	 x29:0x0000048a  x3:0xfffffff6 x31=0x00000000
       48195000	      4818	80001190	07e34c93	xori	x25,x6,126	  x6:0xfffffffc x25=0xffffff82
       48205000	      4819	80001194	ffb88893	addi	x17,x17,-5	 x17:0xfffffff8 x17=0xfffffff3
       48215000	      4820	80001198	00a95013	srli	x0,x18,0xa	 x18:0xffffffff
       48225000	      4821	8000119c	00000013	addi	x0,x0,0	  x0:0x00000000
       48235000	      4822	800011a0	ff38d4e3	bge	x17,x19,80001188	 x17:0xfffffff3 x19:0xfffffff7
       48245000	      4823	800011a4	01961e93	slli	x29,x12,0x19	 x12:0x00000000 x29=0x00000000
       48255000	      4824	800011a8	40658333	sub	x6,x11,x6	 x11:0x00000000  x6:0xfffffffc  x6=0x00000004
       48265000	      4825	800011ac	fa9f06e3	beq	x30,x9,80001158	 x30:0x00000011  x9:0x00000011
       48275000	      4826	00000000	00000013	addi	x0,x0,0	  x0:0x00000000
       48285000	      4827	80001154	00000013	addi	x0,x0,0	  x0:0x00000000
       48295000	      4828	80001158	00000013	addi	x0,x0,0	  x0:0x00000000
       48305000	      4829	8000115c	00683db3	sltu	x27,x16,x6	 x16:0x03a0e174  x6:0x00000004 x27=0x00000000
       48315000	      4830	80001160	00af0f13	addi	x30,x30,10	 x30:0x00000011 x30=0x0000001b
       48325000	      4831	80001164	01d69413	slli	x8,x13,0x1d	 x13:0x00000008  x8=0x00000000
       48335000	      4832	80001168	705ce513	ori	x10,x25,1797	 x25:0xffffff82 x10=0xffffff87
       48345000	      4833	8000116c	ffd00893	addi	x17,x0,-3	  x0:0x00000000 x17=0xfffffffd
       48355000	      4834	80001170	00d91593	slli	x11,x18,0xd	 x18:0xffffffff x11=0xffffe000
       48365000	      4835	80001174	41f25593	srai	x11,x4,0x1f	  x4:0x00000001 x11=0x00000000
       48375000	      4836	80001178	83a0d817	auipc	x16,0x83a0d	 x16=0x03a0e174
       48385000	      4837	8000117c	3960fe13	andi	x28,x1,918	  x1:0xfffffb74 x28=0x00000314
       48395000	      4838	80001180	00c84833	xor	x16,x16,x12	 x16:0x03a0e174 x12:0x00000000 x16=0x03a0e174
       48405000	      4839	80001184	ff700993	addi	x19,x0,-9	  x0:0x00000000 x19=0xfffffff7
       48415000	      4840	80001188	508c8e93	addi	x29,x25,1288	 x25:0xffffff82 x29=0x0000048a
       48425000	      4841	8000118c	003edfb3	srl	x31,x29,x3	 x29:0x0000048a  x3:0xfffffff6 x31=0x00000000
       48435000	      4842	80001190	07e34c93	xori	x25,x6,126	  x6:0x00000004 x25=0x0000007a
       48445000	      4843	80001194	ffb88893	addi	x17,x17,-5	 x17:0xfffffffd x17=0xfffffff8
       48455000	      4844	80001198	00a95013	srli	x0,x18,0xa	 x18:0xffffffff
       48465000	      4845	8000119c	00000013	addi	x0,x0,0	  x0:0x00000000
       48475000	      4846	800011a0	ff38d4e3	bge	x17,x19,80001188	 x17:0xfffffff8 x19:0xfffffff7
       48485000	      4847	00000000	00000013	addi	x0,x0,0	  x0:0x00000000
       48495000	      4848	80001184	00000013	addi	x0,x0,0	  x0:0x00000000
       48505000	      4849	80001188	508c8e93	addi	x29,x25,1288	 x25:0x0000007a x29=0x00000582
       48515000	      4850	8000118c	003edfb3	srl	x31,x29,x3	 x29:0x00000582  x3:0xfffffff6 x31=0x00000000
       48525000	      4851	80001190	07e34c93	xori	x25,x6,126	  x6:0x00000004 x25=0x0000007a
       48535000	      4852	80001194	ffb88893	addi	x17,x17,-5	 x17:0xfffffff8 x17=0xfffffff3
       48545000	      4853	80001198	00a95013	srli	x0,x18,0xa	 x18:0xffffffff
       48555000	      4854	8000119c	00000013	addi	x0,x0,0	  x0:0x00000000
       48565000	      4855	800011a0	ff38d4e3	bge	x17,x19,80001188	 x17:0xfffffff3 x19:0xfffffff7
       48575000	      4856	800011a4	01961e93	slli	x29,x12,0x19	 x12:0x00000000 x29=0x00000000
       48585000	      4857	800011a8	40658333	sub	x6,x11,x6	 x11:0x00000000  x6:0x00000004  x6=0xfffffffc
       48595000	      4858	800011ac	fa9f06e3	beq	x30,x9,80001158	 x30:0x0000001b  x9:0x00000011
       48605000	      4859	800011b0	00e0eeb3	or	x29,x1,x14	  x1:0xfffffb74 x14:0x00000000 x29=0xfffffb74
       48615000	      4860	800011b4	00800193	addi	x3,x0,8	  x0:0x00000000  x3=0x00000008
       48625000	      4861	800011b8	012fb0b3	sltu	x1,x31,x18	 x31:0x00000000 x18:0xffffffff  x1=0x00000001
       48635000	      4862	800011bc	9efd3f13	sltiu	x30,x26,-1553	 x26:0x00000001 x30=0x00000001
       48645000	      4863	800011c0	de8e8d93	addi	x27,x29,-536	 x29:0xfffffb74 x27=0xfffff95c
       48655000	      4864	800011c4	00000013	addi	x0,x0,0	  x0:0x00000000
       48665000	      4865	800011c8	7afe3d13	sltiu	x26,x28,1967	 x28:0x00000314 x26=0x00000001
       48675000	      4866	800011cc	00c00c93	addi	x25,x0,12	  x0:0x00000000 x25=0x0000000c
       48685000	      4867	800011d0	27176893	ori	x17,x14,625	 x14:0x00000000 x17=0x00000271
       48695000	      4868	800011d4	40aadd13	srai	x26,x21,0xa	 x21:0x80009f20 x26=0xffe00027
       48705000	      4869	800011d8	4168deb3	sra	x29,x17,x22	 x17:0x00000271 x22:0x00000000 x29=0x00000271
       48715000	      4870	800011dc	689ece13	xori	x28,x29,1673	 x29:0x00000271 x28=0x000004f8
       48725000	      4871	800011e0	26317413	andi	x8,x2,611	  x2:0x00000008  x8=0x00000000
       48735000	      4872	800011e4	d1b12f13	slti	x30,x2,-741	  x2:0x00000008 x30=0x00000000
       48745000	      4873	800011e8	018702b3	add	x5,x14,x24	 x14:0x00000000 x24:0xffffffe5  x5=0xffffffe5
       48755000	      4874	800011ec	01879013	slli	x0,x15,0x18	 x15:0x80009fc4
       48765000	      4875	800011f0	41b2d893	srai	x17,x5,0x1b	  x5:0xffffffe5 x17=0xffffffff
       48775000	      4876	800011f4	00a18193	addi	x3,x3,10	  x3:0x00000008  x3=0x00000012
       48785000	      4877	800011f8	40a7d733	sra	x14,x15,x10	 x15:0x80009fc4 x10:0xffffff87 x14=0xff00013f
       48795000	      4878	800011fc	ff91c4e3	blt	x3,x25,800011e4	  x3:0x00000012 x25:0x0000000c
       48805000	      4879	80001200	12327e93	andi	x29,x4,291	  x4:0x00000001 x29=0x00000001
       48815000	      4880	80001204	ff700093	addi	x1,x0,-9	  x0:0x00000000  x1=0xfffffff7
       48825000	      4881	80001208	00200393	addi	x7,x0,2	  x0:0x00000000  x7=0x00000002
       48835000	      4882	8000120c	df724213	xori	x4,x4,-521	  x4:0x00000001  x4=0xfffffdf6
       48845000	      4883	80001210	0004e933	or	x18,x9,x0	  x9:0x00000011  x0:0x00000000 x18=0x00000011
       48855000	      4884	80001214	00808093	addi	x1,x1,8	  x1:0xfffffff7  x1=0xffffffff
       48865000	      4885	80001218	ff600c13	addi	x24,x0,-10	  x0:0x00000000 x24=0xfffffff6
       48875000	      4886	8000121c	00d00513	addi	x10,x0,13	  x0:0x00000000 x10=0x0000000d
       48885000	      4887	80001220	00ed6eb3	or	x29,x26,x14	 x26:0xffe00027 x14:0xff00013f x29=0xffe0013f
       48895000	      4888	80001224	01164a33	xor	x20,x12,x17	 x12:0x00000000 x17:0xffffffff x20=0xffffffff
       48905000	      4889	80001228	008c0c13	addi	x24,x24,8	 x24:0xfffffff6 x24=0xfffffffe
       48915000	      4890	8000122c	feac4ce3	blt	x24,x10,80001224	 x24:0xfffffffe x10:0x0000000d
       48925000	      4891	00000000	00000013	addi	x0,x0,0	  x0:0x00000000
       48935000	      4892	80001220	00000013	addi	x0,x0,0	  x0:0x00000000
       48945000	      4893	80001224	01164a33	xor	x20,x12,x17	 x12:0x00000000 x17:0xffffffff x20=0xffffffff
       48955000	      4894	80001228	008c0c13	addi	x24,x24,8	 x24:0xfffffffe x24=0x00000006
       48965000	      4895	8000122c	feac4ce3	blt	x24,x10,80001224	 x24:0x00000006 x10:0x0000000d
       48975000	      4896	00000000	00000013	addi	x0,x0,0	  x0:0x00000000
       48985000	      4897	80001220	00000013	addi	x0,x0,0	  x0:0x00000000
       48995000	      4898	80001224	01164a33	xor	x20,x12,x17	 x12:0x00000000 x17:0xffffffff x20=0xffffffff
       49005000	      4899	80001228	008c0c13	addi	x24,x24,8	 x24:0x00000006 x24=0x0000000e
       49015000	      4900	8000122c	feac4ce3	blt	x24,x10,80001224	 x24:0x0000000e x10:0x0000000d
       49025000	      4901	80001230	fc70cee3	blt	x1,x7,8000120c	  x1:0xffffffff  x7:0x00000002
       49035000	      4902	00000000	00000013	addi	x0,x0,0	  x0:0x00000000
       49045000	      4903	80001208	00000013	addi	x0,x0,0	  x0:0x00000000
       49055000	      4904	8000120c	df724213	xori	x4,x4,-521	  x4:0xfffffdf6  x4=0x00000001
       49065000	      4905	80001210	0004e933	or	x18,x9,x0	  x9:0x00000011  x0:0x00000000 x18=0x00000011
       49075000	      4906	80001214	00808093	addi	x1,x1,8	  x1:0xffffffff  x1=0x00000007
       49085000	      4907	80001218	ff600c13	addi	x24,x0,-10	  x0:0x00000000 x24=0xfffffff6
       49095000	      4908	8000121c	00d00513	addi	x10,x0,13	  x0:0x00000000 x10=0x0000000d
       49105000	      4909	80001220	00ed6eb3	or	x29,x26,x14	 x26:0xffe00027 x14:0xff00013f x29=0xffe0013f
       49115000	      4910	80001224	01164a33	xor	x20,x12,x17	 x12:0x00000000 x17:0xffffffff x20=0xffffffff
       49125000	      4911	80001228	008c0c13	addi	x24,x24,8	 x24:0xfffffff6 x24=0xfffffffe
       49135000	      4912	8000122c	feac4ce3	blt	x24,x10,80001224	 x24:0xfffffffe x10:0x0000000d
       49145000	      4913	00000000	00000013	addi	x0,x0,0	  x0:0x00000000
       49155000	      4914	80001220	00000013	addi	x0,x0,0	  x0:0x00000000
       49165000	      4915	80001224	01164a33	xor	x20,x12,x17	 x12:0x00000000 x17:0xffffffff x20=0xffffffff
       49175000	      4916	80001228	008c0c13	addi	x24,x24,8	 x24:0xfffffffe x24=0x00000006
       49185000	      4917	8000122c	feac4ce3	blt	x24,x10,80001224	 x24:0x00000006 x10:0x0000000d
       49195000	      4918	00000000	00000013	addi	x0,x0,0	  x0:0x00000000
       49205000	      4919	80001220	00000013	addi	x0,x0,0	  x0:0x00000000
       49215000	      4920	80001224	01164a33	xor	x20,x12,x17	 x12:0x00000000 x17:0xffffffff x20=0xffffffff
       49225000	      4921	80001228	008c0c13	addi	x24,x24,8	 x24:0x00000006 x24=0x0000000e
       49235000	      4922	8000122c	feac4ce3	blt	x24,x10,80001224	 x24:0x0000000e x10:0x0000000d
       49245000	      4923	80001230	fc70cee3	blt	x1,x7,8000120c	  x1:0x00000007  x7:0x00000002
       49255000	      4924	80001234	0075bbb3	sltu	x23,x11,x7	 x11:0x00000000  x7:0x00000002 x23=0x00000001
       49265000	      4925	80001238	00a00613	addi	x12,x0,10	  x0:0x00000000 x12=0x0000000a
       49275000	      4926	8000123c	401e02b3	sub	x5,x28,x1	 x28:0x000004f8  x1:0x00000007  x5=0x000004f1
       49285000	      4927	80001240	b5114a17	auipc	x20,0xb5114	 x20=0x3511523c
       49295000	      4928	80001244	01300b93	addi	x23,x0,19	  x0:0x00000000 x23=0x00000013
       49305000	      4929	80001248	01198f33	add	x30,x19,x17	 x19:0xfffffff7 x17:0xffffffff x30=0xfffffff6
       49315000	      4930	8000124c	40368133	sub	x2,x13,x3	 x13:0x00000008  x3:0x00000012  x2=0xfffffff6
       49325000	      4931	80001250	0022bdb3	sltu	x27,x5,x2	  x5:0x000004f1  x2:0xfffffff6 x27=0x00000001
       49335000	      4932	80001254	00660613	addi	x12,x12,6	 x12:0x0000000a x12=0x00000010
       49345000	      4933	80001258	ff764ae3	blt	x12,x23,8000124c	 x12:0x00000010 x23:0x00000013
       49355000	      4934	00000000	00000013	addi	x0,x0,0	  x0:0x00000000
       49365000	      4935	80001248	00000013	addi	x0,x0,0	  x0:0x00000000
       49375000	      4936	8000124c	40368133	sub	x2,x13,x3	 x13:0x00000008  x3:0x00000012  x2=0xfffffff6
       49385000	      4937	80001250	0022bdb3	sltu	x27,x5,x2	  x5:0x000004f1  x2:0xfffffff6 x27=0x00000001
       49395000	      4938	80001254	00660613	addi	x12,x12,6	 x12:0x00000010 x12=0x00000016
       49405000	      4939	80001258	ff764ae3	blt	x12,x23,8000124c	 x12:0x00000016 x23:0x00000013
       49415000	      4940	8000125c	11f3ff13	andi	x30,x7,287	  x7:0x00000002 x30=0x00000002
       49425000	      4941	80001260	00700293	addi	x5,x0,7	  x0:0x00000000  x5=0x00000007
       49435000	      4942	80001264	ce914413	xori	x8,x2,-791	  x2:0xfffffff6  x8=0x0000031f
       49445000	      4943	80001268	00400513	addi	x10,x0,4	  x0:0x00000000 x10=0x00000004
       49455000	      4944	8000126c	400b5733	sra	x14,x22,x0	 x22:0x00000000  x0:0x00000000 x14=0x00000000
       49465000	      4945	80001270	b92a3213	sltiu	x4,x20,-1134	 x20:0x3511523c  x4=0x00000001
       49475000	      4946	80001274	ffd28293	addi	x5,x5,-3	  x5:0x00000007  x5=0x00000004
       49485000	      4947	80001278	416be237	lui	x4,0x416be	  x4=0x416be000
       49495000	      4948	8000127c	41ff8a33	sub	x20,x31,x31	 x31:0x00000000 x31:0x00000000 x20=0x00000000
       49505000	      4949	80001280	ff600093	addi	x1,x0,-10	  x0:0x00000000  x1=0xfffffff6
       49515000	      4950	80001284	01a10eb3	add	x29,x2,x26	  x2:0xfffffff6 x26:0xffe00027 x29=0xffe0001d
       49525000	      4951	80001288	6a334d93	xori	x27,x6,1699	  x6:0xfffffffc x27=0xfffff95f
       49535000	      4952	8000128c	00600813	addi	x16,x0,6	  x0:0x00000000 x16=0x00000006
       49545000	      4953	80001290	01119a13	slli	x20,x3,0x11	  x3:0x00000012 x20=0x00240000
       49555000	      4954	80001294	400cd593	srai	x11,x25,0x0	 x25:0x0000000c x11=0x0000000c
       49565000	      4955	80001298	a98a7e93	andi	x29,x20,-1384	 x20:0x00240000 x29=0x00240000
       49575000	      4956	8000129c	00508093	addi	x1,x1,5	  x1:0xfffffff6  x1=0xfffffffb
       49585000	      4957	800012a0	003ad1b3	srl	x3,x21,x3	 x21:0x80009f20  x3:0x00000012  x3=0x00002000
       49595000	      4958	800012a4	ff00eae3	bltu	x1,x16,80001298	  x1:0xfffffffb x16:0x00000006
       49605000	      4959	800012a8	014126b3	slt	x13,x2,x20	  x2:0xfffffff6 x20:0x00240000 x13=0x00000001
       49615000	      4960	800012ac	fca2f2e3	bgeu	x5,x10,80001270	  x5:0x00000004 x10:0x00000004
       49625000	      4961	00000000	00000013	addi	x0,x0,0	  x0:0x00000000
       49635000	      4962	8000126c	00000013	addi	x0,x0,0	  x0:0x00000000
       49645000	      4963	80001270	b92a3213	sltiu	x4,x20,-1134	 x20:0x00240000  x4=0x00000001
       49655000	      4964	80001274	ffd28293	addi	x5,x5,-3	  x5:0x00000004  x5=0x00000001
       49665000	      4965	80001278	416be237	lui	x4,0x416be	  x4=0x416be000
       49675000	      4966	8000127c	41ff8a33	sub	x20,x31,x31	 x31:0x00000000 x31:0x00000000 x20=0x00000000
       49685000	      4967	80001280	ff600093	addi	x1,x0,-10	  x0:0x00000000  x1=0xfffffff6
       49695000	      4968	80001284	01a10eb3	add	x29,x2,x26	  x2:0xfffffff6 x26:0xffe00027 x29=0xffe0001d
       49705000	      4969	80001288	6a334d93	xori	x27,x6,1699	  x6:0xfffffffc x27=0xfffff95f
       49715000	      4970	8000128c	00600813	addi	x16,x0,6	  x0:0x00000000 x16=0x00000006
       49725000	      4971	80001290	01119a13	slli	x20,x3,0x11	  x3:0x00002000 x20=0x40000000
       49735000	      4972	80001294	400cd593	srai	x11,x25,0x0	 x25:0x0000000c x11=0x0000000c
       49745000	      4973	80001298	a98a7e93	andi	x29,x20,-1384	 x20:0x40000000 x29=0x40000000
       49755000	      4974	8000129c	00508093	addi	x1,x1,5	  x1:0xfffffff6  x1=0xfffffffb
       49765000	      4975	800012a0	003ad1b3	srl	x3,x21,x3	 x21:0x80009f20  x3:0x00002000  x3=0x80009f20
       49775000	      4976	800012a4	ff00eae3	bltu	x1,x16,80001298	  x1:0xfffffffb x16:0x00000006
       49785000	      4977	800012a8	014126b3	slt	x13,x2,x20	  x2:0xfffffff6 x20:0x40000000 x13=0x00000001
       49795000	      4978	800012ac	fca2f2e3	bgeu	x5,x10,80001270	  x5:0x00000001 x10:0x00000004
       49805000	      4979	800012b0	00bda333	slt	x6,x27,x11	 x27:0xfffff95f x11:0x0000000c  x6=0x00000001
       49815000	      4980	800012b4	016e2333	slt	x6,x28,x22	 x28:0x000004f8 x22:0x00000000  x6=0x00000000
       49825000	      4981	800012b8	414ddbb3	sra	x23,x27,x20	 x27:0xfffff95f x20:0x40000000 x23=0xfffff95f
       49835000	      4982	800012bc	40380033	sub	x0,x16,x3	 x16:0x00000006  x3:0x80009f20
       49845000	      4983	800012c0	8dc8a813	slti	x16,x17,-1828	 x17:0xffffffff x16=0x00000000
       49855000	      4984	800012c4	06859a63	bne	x11,x8,80001338	 x11:0x0000000c  x8:0x0000031f
       49865000	      4985	00000000	00000013	addi	x0,x0,0	  x0:0x00000000
       49875000	      4986	80001334	00000013	addi	x0,x0,0	  x0:0x00000000
       49885000	      4987	80001338	12a56013	ori	x0,x10,298	 x10:0x00000004
       49895000	      4988	8000133c	41ba8433	sub	x8,x21,x27	 x21:0x80009f20 x27:0xfffff95f  x8=0x8000a5c1
       49905000	      4989	80001340	401ad813	srai	x16,x21,0x1	 x21:0x80009f20 x16=0xc0004f90
       49915000	      4990	80001344	a3558913	addi	x18,x11,-1483	 x11:0x0000000c x18=0xfffffa41
       49925000	      4991	80001348	1a2b3893	sltiu	x17,x22,418	 x22:0x00000000 x17=0x00000001
       49935000	      4992	8000134c	14a6f993	andi	x19,x13,330	 x13:0x00000001 x19=0x00000000
       49945000	      4993	80001350	cfd9ff13	andi	x30,x19,-771	 x19:0x00000000 x30=0x00000000
       49955000	      4994	80001354	a0197493	andi	x9,x18,-1535	 x18:0xfffffa41  x9=0xfffffa01
       49965000	      4995	80001358	02df1663	bne	x30,x13,80001384	 x30:0x00000000 x13:0x00000001
       49975000	      4996	00000000	00000013	addi	x0,x0,0	  x0:0x00000000
       49985000	      4997	80001380	00000013	addi	x0,x0,0	  x0:0x00000000
       49995000	      4998	80001384	00000013	addi	x0,x0,0	  x0:0x00000000
       50005000	      4999	80001388	75782693	slti	x13,x16,1879	 x16:0xc0004f90 x13=0x00000001
       50015000	      5000	8000138c	00757533	and	x10,x10,x7	 x10:0x00000004  x7:0x00000002 x10=0x00000000
       50025000	      5001	80001390	00100f13	addi	x30,x0,1	  x0:0x00000000 x30=0x00000001
       50035000	      5002	80001394	62679197	auipc	x3,0x62679	  x3=0xe267a390
       50045000	      5003	80001398	01384db3	xor	x27,x16,x19	 x16:0xc0004f90 x19:0x00000000 x27=0xc0004f90
       50055000	      5004	8000139c	01100593	addi	x11,x0,17	  x0:0x00000000 x11=0x00000011
       50065000	      5005	800013a0	017a8933	add	x18,x21,x23	 x21:0x80009f20 x23:0xfffff95f x18=0x8000987f
       50075000	      5006	800013a4	009f0f13	addi	x30,x30,9	 x30:0x00000001 x30=0x0000000a
       50085000	      5007	800013a8	1c398a13	addi	x20,x19,451	 x19:0x00000000 x20=0x000001c3
       50095000	      5008	800013ac	41f084b3	sub	x9,x1,x31	  x1:0xfffffffb x31:0x00000000  x9=0xfffffffb
       50105000	      5009	800013b0	010e16b3	sll	x13,x28,x16	 x28:0x000004f8 x16:0xc0004f90 x13=0x04f80000
       50115000	      5010	800013b4	4164d333	sra	x6,x9,x22	  x9:0xfffffffb x22:0x00000000  x6=0xfffffffb
       50125000	      5011	800013b8	40ff5c33	sra	x24,x30,x15	 x30:0x0000000a x15:0x80009fc4 x24=0x00000000
       50135000	      5012	800013bc	011d8db3	add	x27,x27,x17	 x27:0xc0004f90 x17:0x00000001 x27=0xc0004f91
       50145000	      5013	800013c0	febf60e3	bltu	x30,x11,800013a0	 x30:0x0000000a x11:0x00000011
       50155000	      5014	00000000	00000013	addi	x0,x0,0	  x0:0x00000000
       50165000	      5015	8000139c	00000013	addi	x0,x0,0	  x0:0x00000000
       50175000	      5016	800013a0	017a8933	add	x18,x21,x23	 x21:0x80009f20 x23:0xfffff95f x18=0x8000987f
       50185000	      5017	800013a4	009f0f13	addi	x30,x30,9	 x30:0x0000000a x30=0x00000013
       50195000	      5018	800013a8	1c398a13	addi	x20,x19,451	 x19:0x00000000 x20=0x000001c3
       50205000	      5019	800013ac	41f084b3	sub	x9,x1,x31	  x1:0xfffffffb x31:0x00000000  x9=0xfffffffb
       50215000	      5020	800013b0	010e16b3	sll	x13,x28,x16	 x28:0x000004f8 x16:0xc0004f90 x13=0x04f80000
       50225000	      5021	800013b4	4164d333	sra	x6,x9,x22	  x9:0xfffffffb x22:0x00000000  x6=0xfffffffb
       50235000	      5022	800013b8	40ff5c33	sra	x24,x30,x15	 x30:0x00000013 x15:0x80009fc4 x24=0x00000001
       50245000	      5023	800013bc	011d8db3	add	x27,x27,x17	 x27:0xc0004f91 x17:0x00000001 x27=0xc0004f92
       50255000	      5024	800013c0	febf60e3	bltu	x30,x11,800013a0	 x30:0x00000013 x11:0x00000011
       50265000	      5025	800013c4	a65a4293	xori	x5,x20,-1435	 x20:0x000001c3  x5=0xfffffba6
       50275000	      5026	800013c8	dc4e7513	andi	x10,x28,-572	 x28:0x000004f8 x10=0x000004c0
       50285000	      5027	800013cc	008a1f93	slli	x31,x20,0x8	 x20:0x000001c3 x31=0x0001c300
       50295000	      5028	800013d0	01c39033	sll	x0,x7,x28	  x7:0x00000002 x28:0x000004f8
       50305000	      5029	800013d4	01399e33	sll	x28,x19,x19	 x19:0x00000000 x19:0x00000000 x28=0x00000000
       50315000	      5030	800013d8	014c00b3	add	x1,x24,x20	 x24:0x00000001 x20:0x000001c3  x1=0x000001c4
       50325000	      5031	800013dc	00493433	sltu	x8,x18,x4	 x18:0x8000987f  x4:0x416be000  x8=0x00000000
       50335000	      5032	800013e0	3e059a17	auipc	x20,0x3e059	 x20=0xbe05a3dc
       50345000	      5033	800013e4	00e21d13	slli	x26,x4,0xe	  x4:0x416be000 x26=0xf8000000
       50355000	      5034	800013e8	0320fa63	bgeu	x1,x18,8000141c	  x1:0x000001c4 x18:0x8000987f
       50365000	      5035	800013ec	01accdb3	xor	x27,x25,x26	 x25:0x0000000c x26:0xf8000000 x27=0xf800000c
       50375000	      5036	800013f0	01bab633	sltu	x12,x21,x27	 x21:0x80009f20 x27:0xf800000c x12=0x00000001
       50385000	      5037	800013f4	00000013	addi	x0,x0,0	  x0:0x00000000
       50395000	      5038	800013f8	48aaf513	andi	x10,x21,1162	 x21:0x80009f20 x10=0x00000400
       50405000	      5039	800013fc	017a1333	sll	x6,x20,x23	 x20:0xbe05a3dc x23:0xfffff95f  x6=0x00000000
       50415000	      5040	80001400	9bbe6997	auipc	x19,0x9bbe6	 x19=0x1bbe73fc
       50425000	      5041	80001404	018e60b3	or	x1,x28,x24	 x28:0x00000000 x24:0x00000001  x1=0x00000001
       50435000	      5042	80001408	0295d863	bge	x11,x9,80001438	 x11:0x00000011  x9:0xfffffffb
       50445000	      5043	00000000	00000013	addi	x0,x0,0	  x0:0x00000000
       50455000	      5044	80001434	00000013	addi	x0,x0,0	  x0:0x00000000
       50465000	      5045	80001438	01e9e533	or	x10,x19,x30	 x19:0x1bbe73fc x30:0x00000013 x10=0x1bbe73ff
       50475000	      5046	8000143c	406d8033	sub	x0,x27,x6	 x27:0xf800000c  x6:0x00000000
       50485000	      5047	80001440	6a860e93	addi	x29,x12,1704	 x12:0x00000001 x29=0x000006a9
       50495000	      5048	80001444	000628b3	slt	x17,x12,x0	 x12:0x00000001  x0:0x00000000 x17=0x00000000
       50505000	      5049	80001448	0181ca63	blt	x3,x24,8000145c	  x3:0xe267a390 x24:0x00000001
       50515000	      5050	00000000	00000013	addi	x0,x0,0	  x0:0x00000000
       50525000	      5051	80001458	00000013	addi	x0,x0,0	  x0:0x00000000
       50535000	      5052	8000145c	000301b3	add	x3,x6,x0	  x6:0x00000000  x0:0x00000000  x3=0x00000000
       50545000	      5053	80001460	00900933	add	x18,x0,x9	  x0:0x00000000  x9:0xfffffffb x18=0xfffffffb
       50555000	      5054	80001464	66b47513	andi	x10,x8,1643	  x8:0x00000000 x10=0x00000000
       50565000	      5055	80001468	8cc9f393	andi	x7,x19,-1844	 x19:0x1bbe73fc  x7=0x1bbe70cc
       50575000	      5056	8000146c	af03f813	andi	x16,x7,-1296	  x7:0x1bbe70cc x16=0x1bbe70c0
       50585000	      5057	80001470	da4c4113	xori	x2,x24,-604	 x24:0x00000001  x2=0xfffffda5
       50595000	      5058	80001474	01a22933	slt	x18,x4,x26	  x4:0x416be000 x26:0xf8000000 x18=0x00000000
       50605000	      5059	80001478	02b76263	bltu	x14,x11,8000149c	 x14:0x00000000 x11:0x00000011
       50615000	      5060	00000000	00000013	addi	x0,x0,0	  x0:0x00000000
       50625000	      5061	80001498	00000013	addi	x0,x0,0	  x0:0x00000000
       50635000	      5062	8000149c	05909863	bne	x1,x25,800014ec	  x1:0x00000001 x25:0x0000000c
       50645000	      5063	00000000	00000013	addi	x0,x0,0	  x0:0x00000000
       50655000	      5064	800014e8	00000013	addi	x0,x0,0	  x0:0x00000000
       50665000	      5065	800014ec	40afd4b3	sra	x9,x31,x10	 x31:0x0001c300 x10:0x00000000  x9=0x0001c300
       50675000	      5066	800014f0	40f95db3	sra	x27,x18,x15	 x18:0x00000000 x15:0x80009fc4 x27=0x00000000
       50685000	      5067	800014f4	0189de33	srl	x28,x19,x24	 x19:0x1bbe73fc x24:0x00000001 x28=0x0ddf39fe
       50695000	      5068	800014f8	00a31933	sll	x18,x6,x10	  x6:0x00000000 x10:0x00000000 x18=0x00000000
       50705000	      5069	800014fc	012e4e63	blt	x28,x18,80001518	 x28:0x0ddf39fe x18:0x00000000
       50715000	      5070	80001500	042e9863	bne	x29,x2,80001550	 x29:0x000006a9  x2:0xfffffda5
       50725000	      5071	00000000	00000013	addi	x0,x0,0	  x0:0x00000000
       50735000	      5072	8000154c	00000013	addi	x0,x0,0	  x0:0x00000000
       50745000	      5073	80001550	01f23cb3	sltu	x25,x4,x31	  x4:0x416be000 x31:0x0001c300 x25=0x00000000
       50755000	      5074	80001554	ecdda613	slti	x12,x27,-307	 x27:0x00000000 x12=0x00000000
       50765000	      5075	80001558	01846db3	or	x27,x8,x24	  x8:0x00000000 x24:0x00000001 x27=0x00000001
       50775000	      5076	8000155c	0102c033	xor	x0,x5,x16	  x5:0xfffffba6 x16:0x1bbe70c0
       50785000	      5077	80001560	01745c63	bge	x8,x23,80001578	  x8:0x00000000 x23:0xfffff95f
       50795000	      5078	00000000	00000013	addi	x0,x0,0	  x0:0x00000000
       50805000	      5079	80001574	00000013	addi	x0,x0,0	  x0:0x00000000
       50815000	      5080	80001578	00639c63	bne	x7,x6,80001590	  x7:0x1bbe70cc  x6:0x00000000
       50825000	      5081	00000000	00000013	addi	x0,x0,0	  x0:0x00000000
       50835000	      5082	8000158c	00000013	addi	x0,x0,0	  x0:0x00000000
       50845000	      5083	80001590	01c28233	add	x4,x5,x28	  x5:0xfffffba6 x28:0x0ddf39fe  x4=0x0ddf35a4
       50855000	      5084	80001594	023f5e63	bge	x30,x3,800015d0	 x30:0x00000013  x3:0x00000000
       50865000	      5085	00000000	00000013	addi	x0,x0,0	  x0:0x00000000
       50875000	      5086	800015cc	00000013	addi	x0,x0,0	  x0:0x00000000
       50885000	      5087	800015d0	00000013	addi	x0,x0,0	  x0:0x00000000
       50895000	      5088	800015d4	20870613	addi	x12,x14,520	 x14:0x00000000 x12=0x00000208
       50905000	      5089	800015d8	00f79693	slli	x13,x15,0xf	 x15:0x80009fc4 x13=0x4fe20000
       50915000	      5090	800015dc	190cc693	xori	x13,x25,400	 x25:0x00000000 x13=0x00000190
       50925000	      5091	800015e0	d748c217	auipc	x4,0xd748c	  x4=0x5748d5dc
       50935000	      5092	800015e4	009304b3	add	x9,x6,x9	  x6:0x00000000  x9:0x0001c300  x9=0x0001c300
       50945000	      5093	800015e8	00be9713	slli	x14,x29,0xb	 x29:0x000006a9 x14=0x00354800
       50955000	      5094	800015ec	00075c63	bge	x14,x0,80001604	 x14:0x00354800  x0:0x00000000
       50965000	      5095	00000000	00000013	addi	x0,x0,0	  x0:0x00000000
       50975000	      5096	80001600	00000013	addi	x0,x0,0	  x0:0x00000000
       50985000	      5097	80001604	7c654f93	xori	x31,x10,1990	 x10:0x00000000 x31=0x000007c6
       50995000	      5098	80001608	002afeb3	and	x29,x21,x2	 x21:0x80009f20  x2:0xfffffda5 x29=0x80009d20
       51005000	      5099	8000160c	006133b3	sltu	x7,x2,x6	  x2:0xfffffda5  x6:0x00000000  x7=0x00000000
       51015000	      5100	80001610	008af933	and	x18,x21,x8	 x21:0x80009f20  x8:0x00000000 x18=0x00000000
       51025000	      5101	80001614	ffa9b693	sltiu	x13,x19,-6	 x19:0x1bbe73fc x13=0x00000001
       51035000	      5102	80001618	160c2093	slti	x1,x24,352	 x24:0x00000001  x1=0x00000001
       51045000	      5103	8000161c	41addb93	srai	x23,x27,0x1a	 x27:0x00000001 x23=0x00000000
       51055000	      5104	80001620	01040463	beq	x8,x16,80001628	  x8:0x00000000 x16:0x1bbe70c0
       51065000	      5105	80001624	01e25a13	srli	x20,x4,0x1e	  x4:0x5748d5dc x20=0x00000001
       51075000	      5106	80001628	01bfac33	slt	x24,x31,x27	 x31:0x000007c6 x27:0x00000001 x24=0x00000000
       51085000	      5107	8000162c	018aa633	slt	x12,x21,x24	 x21:0x80009f20 x24:0x00000000 x12=0x00000001
       51095000	      5108	80001630	3ef96713	ori	x14,x18,1007	 x18:0x00000000 x14=0x000003ef
       51105000	      5109	80001634	0424d863	bge	x9,x2,80001684	  x9:0x0001c300  x2:0xfffffda5
       51115000	      5110	00000000	00000013	addi	x0,x0,0	  x0:0x00000000
       51125000	      5111	80001680	00000013	addi	x0,x0,0	  x0:0x00000000
       51135000	      5112	80001684	001f03b3	add	x7,x30,x1	 x30:0x00000013  x1:0x00000001  x7=0x00000014
       51145000	      5113	80001688	01c72eb3	slt	x29,x14,x28	 x14:0x000003ef x28:0x0ddf39fe x29=0x00000001
       51155000	      5114	8000168c	26963d93	sltiu	x27,x12,617	 x12:0x00000001 x27=0x00000001
       51165000	      5115	80001690	403b5893	srai	x17,x22,0x3	 x22:0x00000000 x17=0x00000000
       51175000	      5116	80001694	00001d93	slli	x27,x0,0x0	  x0:0x00000000 x27=0x00000000
       51185000	      5117	80001698	94f5f613	andi	x12,x11,-1713	 x11:0x00000011 x12=0x00000001
       51195000	      5118	8000169c	022c6263	bltu	x24,x2,800016c0	 x24:0x00000000  x2:0xfffffda5
       51205000	      5119	00000000	00000013	addi	x0,x0,0	  x0:0x00000000
       51215000	      5120	800016bc	00000013	addi	x0,x0,0	  x0:0x00000000
       51225000	      5121	800016c0	ac377017	auipc	x0,0xac377	
       51235000	      5122	800016c4	7b55cb93	xori	x23,x11,1973	 x11:0x00000011 x23=0x000007a4
       51245000	      5123	800016c8	aadfb893	sltiu	x17,x31,-1363	 x31:0x000007c6 x17=0x00000001
       51255000	      5124	800016cc	03939863	bne	x7,x25,800016fc	  x7:0x00000014 x25:0x00000000
       51265000	      5125	00000000	00000013	addi	x0,x0,0	  x0:0x00000000
       51275000	      5126	800016f8	00000013	addi	x0,x0,0	  x0:0x00000000
       51285000	      5127	800016fc	8abd2813	slti	x16,x26,-1877	 x26:0xf8000000 x16=0x00000001
       51295000	      5128	80001700	016f3233	sltu	x4,x30,x22	 x30:0x00000013 x22:0x00000000  x4=0x00000000
       51305000	      5129	80001704	00e18863	beq	x3,x14,80001714	  x3:0x00000000 x14:0x000003ef
       51315000	      5130	80001708	0154acb3	slt	x25,x9,x21	  x9:0x0001c300 x21:0x80009f20 x25=0x00000000
       51325000	      5131	8000170c	4134d033	sra	x0,x9,x19	  x9:0x0001c300 x19:0x1bbe73fc
       51335000	      5132	80001710	00049333	sll	x6,x9,x0	  x9:0x0001c300  x0:0x00000000  x6=0x0001c300
       51345000	      5133	80001714	857ebd17	auipc	x26,0x857eb	 x26=0x057ec710
       51355000	      5134	80001718	00452833	slt	x16,x10,x4	 x10:0x00000000  x4:0x00000000 x16=0x00000000
       51365000	      5135	8000171c	4052dd33	sra	x26,x5,x5	  x5:0xfffffba6  x5:0xfffffba6 x26=0xffffffee
       51375000	      5136	80001720	00000013	addi	x0,x0,0	  x0:0x00000000
       51385000	      5137	80001724	01a18863	beq	x3,x26,80001734	  x3:0x00000000 x26:0xffffffee
       51395000	      5138	80001728	94cf3593	sltiu	x11,x30,-1716	 x30:0x00000013 x11=0x00000001
       51405000	      5139	8000172c	355ccf93	xori	x31,x25,853	 x25:0x00000000 x31=0x00000355
       51415000	      5140	80001730	f2625a17	auipc	x20,0xf2625	 x20=0x7262672c
       51425000	      5141	80001734	97873337	lui	x6,0x97873	  x6=0x97873000
       51435000	      5142	80001738	009528b3	slt	x17,x10,x9	 x10:0x00000000  x9:0x0001c300 x17=0x00000001
       51445000	      5143	8000173c	0059ca63	blt	x19,x5,80001750	 x19:0x1bbe73fc  x5:0xfffffba6
       51455000	      5144	80001740	001dc8b3	xor	x17,x27,x1	 x27:0x00000000  x1:0x00000001 x17=0x00000001
       51465000	      5145	80001744	414c8733	sub	x14,x25,x20	 x25:0x00000000 x20:0x7262672c x14=0x8d9d98d4
       51475000	      5146	80001748	01182733	slt	x14,x16,x17	 x16:0x00000000 x17:0x00000001 x14=0x00000001
       51485000	      5147	8000174c	016fe613	ori	x12,x31,22	 x31:0x00000355 x12=0x00000357
       51495000	      5148	80001750	00000013	addi	x0,x0,0	  x0:0x00000000
       51505000	      5149	80001754	77ea8393	addi	x7,x21,1918	 x21:0x80009f20  x7=0x8000a69e
       51515000	      5150	80001758	01fc1413	slli	x8,x24,0x1f	 x24:0x00000000  x8=0x00000000
       51525000	      5151	8000175c	0024ffb3	and	x31,x9,x2	  x9:0x0001c300  x2:0xfffffda5 x31=0x0001c100
       51535000	      5152	80001760	00ca7463	bgeu	x20,x12,80001768	 x20:0x7262672c x12:0x00000357
       51545000	      5153	00000000	00000013	addi	x0,x0,0	  x0:0x00000000
       51555000	      5154	80001764	00000013	addi	x0,x0,0	  x0:0x00000000
       51565000	      5155	80001768	03200863	beq	x0,x18,80001798	  x0:0x00000000 x18:0x00000000
       51575000	      5156	00000000	00000013	addi	x0,x0,0	  x0:0x00000000
       51585000	      5157	80001794	00000013	addi	x0,x0,0	  x0:0x00000000
       51595000	      5158	80001798	00000013	addi	x0,x0,0	  x0:0x00000000
       51605000	      5159	8000179c	00a7f4b3	and	x9,x15,x10	 x15:0x80009fc4 x10:0x00000000  x9=0x00000000
       51615000	      5160	800017a0	01aafa33	and	x20,x21,x26	 x21:0x80009f20 x26:0xffffffee x20=0x80009f20
       51625000	      5161	800017a4	fcea8993	addi	x19,x21,-50	 x21:0x80009f20 x19=0x80009eee
       51635000	      5162	800017a8	020f4263	blt	x30,x0,800017cc	 x30:0x00000013  x0:0x00000000
       51645000	      5163	800017ac	01f45d33	srl	x26,x8,x31	  x8:0x00000000 x31:0x0001c100 x26=0x00000000
       51655000	      5164	800017b0	04fa7263	bgeu	x20,x15,800017f4	 x20:0x80009f20 x15:0x80009fc4
       51665000	      5165	800017b4	053a5863	bge	x20,x19,80001804	 x20:0x80009f20 x19:0x80009eee
       51675000	      5166	00000000	00000013	addi	x0,x0,0	  x0:0x00000000
       51685000	      5167	80001800	00000013	addi	x0,x0,0	  x0:0x00000000
       51695000	      5168	80001804	04744063	blt	x8,x7,80001844	  x8:0x00000000  x7:0x8000a69e
       51705000	      5169	80001808	60c13f97	auipc	x31,0x60c13	 x31=0xe0c14804
       51715000	      5170	8000180c	011dec33	or	x24,x27,x17	 x27:0x00000000 x17:0x00000001 x24=0x00000001
       51725000	      5171	80001810	042c4863	blt	x24,x2,80001860	 x24:0x00000001  x2:0xfffffda5
       51735000	      5172	80001814	194e4917	auipc	x18,0x194e4	 x18=0x994e5810
       51745000	      5173	80001818	011b73b3	and	x7,x22,x17	 x22:0x00000000 x17:0x00000001  x7=0x00000000
       51755000	      5174	8000181c	8914e513	ori	x10,x9,-1903	  x9:0x00000000 x10=0xfffff891
       51765000	      5175	80001820	3551b097	auipc	x1,0x3551b	  x1=0xb551c81c
       51775000	      5176	80001824	3d24fe37	lui	x28,0x3d24f	 x28=0x3d24f000
       51785000	      5177	80001828	40280f33	sub	x30,x16,x2	 x16:0x00000000  x2:0xfffffda5 x30=0x0000025b
       51795000	      5178	8000182c	404cdc93	srai	x25,x25,0x4	 x25:0x00000000 x25=0x00000000
       51805000	      5179	80001830	15e08393	addi	x7,x1,350	  x1:0xb551c81c  x7=0xb551c97a
       51815000	      5180	80001834	00cf9613	slli	x12,x31,0xc	 x31:0xe0c14804 x12=0x14804000
       51825000	      5181	80001838	0184e263	bltu	x9,x24,8000183c	  x9:0x00000000 x24:0x00000001
       51835000	      5182	00000000	00000013	addi	x0,x0,0	  x0:0x00000000
       51845000	      5183	80001838	00000013	addi	x0,x0,0	  x0:0x00000000
       51855000	      5184	8000183c	00fb6fb3	or	x31,x22,x15	 x22:0x00000000 x15:0x80009fc4 x31=0x80009fc4
       51865000	      5185	80001840	01f50863	beq	x10,x31,80001850	 x10:0xfffff891 x31:0x80009fc4
       51875000	      5186	80001844	3df94513	xori	x10,x18,991	 x18:0x994e5810 x10=0x994e5bcf
       51885000	      5187	80001848	00da8933	add	x18,x21,x13	 x21:0x80009f20 x13:0x00000001 x18=0x80009f21
       51895000	      5188	8000184c	014d02b3	add	x5,x26,x20	 x26:0x00000000 x20:0x80009f20  x5=0x80009f20
       51905000	      5189	80001850	99177293	andi	x5,x14,-1647	 x14:0x00000001  x5=0x00000001
       51915000	      5190	80001854	00000013	addi	x0,x0,0	  x0:0x00000000
       51925000	      5191	80001858	015ee5b3	or	x11,x29,x21	 x29:0x00000001 x21:0x80009f20 x11=0x80009f21
       51935000	      5192	8000185c	4062d293	srai	x5,x5,0x6	  x5:0x00000001  x5=0x00000000
       51945000	      5193	80001860	02136e63	bltu	x6,x1,8000189c	  x6:0x97873000  x1:0xb551c81c
       51955000	      5194	00000000	00000013	addi	x0,x0,0	  x0:0x00000000
       51965000	      5195	80001898	00000013	addi	x0,x0,0	  x0:0x00000000
       51975000	      5196	8000189c	01106733	or	x14,x0,x17	  x0:0x00000000 x17:0x00000001 x14=0x00000001
       51985000	      5197	800018a0	01572533	slt	x10,x14,x21	 x14:0x00000001 x21:0x80009f20 x10=0x00000000
       51995000	      5198	800018a4	1d747513	andi	x10,x8,471	  x8:0x00000000 x10=0x00000000
       52005000	      5199	800018a8	00e4dd13	srli	x26,x9,0xe	  x9:0x00000000 x26=0x00000000
       52015000	      5200	800018ac	01b3e833	or	x16,x7,x27	  x7:0xb551c97a x27:0x00000000 x16=0xb551c97a
       52025000	      5201	800018b0	40c65b93	srai	x23,x12,0xc	 x12:0x14804000 x23=0x00014804
       52035000	      5202	800018b4	74cf1037	lui	x0,0x74cf1	
       52045000	      5203	800018b8	01a141b3	xor	x3,x2,x26	  x2:0xfffffda5 x26:0x00000000  x3=0xfffffda5
       52055000	      5204	800018bc	212fbc13	sltiu	x24,x31,530	 x31:0x80009fc4 x24=0x00000000
       52065000	      5205	800018c0	00713733	sltu	x14,x2,x7	  x2:0xfffffda5  x7:0xb551c97a x14=0x00000000
       52075000	      5206	800018c4	025f4263	blt	x30,x5,800018e8	 x30:0x0000025b  x5:0x00000000
       52085000	      5207	800018c8	01691593	slli	x11,x18,0x16	 x18:0x80009f21 x11=0xc8400000
       52095000	      5208	800018cc	0f2e21b7	lui	x3,0xf2e2	  x3=0x0f2e2000
       52105000	      5209	800018d0	019d6db3	or	x27,x26,x25	 x26:0x00000000 x25:0x00000000 x27=0x00000000
       52115000	      5210	800018d4	01d6c663	blt	x13,x29,800018e0	 x13:0x00000001 x29:0x00000001
       52125000	      5211	800018d8	01ee23b3	slt	x7,x28,x30	 x28:0x3d24f000 x30:0x0000025b  x7=0x00000000
       52135000	      5212	800018dc	c6a2c113	xori	x2,x5,-918	  x5:0x00000000  x2=0xfffffc6a
       52145000	      5213	800018e0	2a69a293	slti	x5,x19,678	 x19:0x80009eee  x5=0x00000001
       52155000	      5214	800018e4	007568b3	or	x17,x10,x7	 x10:0x00000000  x7:0x00000000 x17=0x00000000
       52165000	      5215	800018e8	c8afe813	ori	x16,x31,-886	 x31:0x80009fc4 x16=0xffffffce
       52175000	      5216	800018ec	0137b8b3	sltu	x17,x15,x19	 x15:0x80009fc4 x19:0x80009eee x17=0x00000000
       52185000	      5217	800018f0	01cf6cb3	or	x25,x30,x28	 x30:0x0000025b x28:0x3d24f000 x25=0x3d24f25b
       52195000	      5218	800018f4	00855c93	srli	x25,x10,0x8	 x10:0x00000000 x25=0x00000000
       52205000	      5219	800018f8	ba57f313	andi	x6,x15,-1115	 x15:0x80009fc4  x6=0x80009b84
       52215000	      5220	800018fc	006c9c93	slli	x25,x25,0x6	 x25:0x00000000 x25=0x00000000
       52225000	      5221	80001900	41b30933	sub	x18,x6,x27	  x6:0x80009b84 x27:0x00000000 x18=0x80009b84
       52235000	      5222	80001904	1121f113	andi	x2,x3,274	  x3:0x0f2e2000  x2=0x00000000
       52245000	      5223	80001908	02450663	beq	x10,x4,80001934	 x10:0x00000000  x4:0x00000000
       52255000	      5224	00000000	00000013	addi	x0,x0,0	  x0:0x00000000
       52265000	      5225	80001930	00000013	addi	x0,x0,0	  x0:0x00000000
       52275000	      5226	80001934	3d507913	andi	x18,x0,981	  x0:0x00000000 x18=0x00000000
       52285000	      5227	80001938	404f0db3	sub	x27,x30,x4	 x30:0x0000025b  x4:0x00000000 x27=0x0000025b
       52295000	      5228	8000193c	000f3fb3	sltu	x31,x30,x0	 x30:0x0000025b  x0:0x00000000 x31=0x00000000
       52305000	      5229	80001940	02baea63	bltu	x21,x11,80001974	 x21:0x80009f20 x11:0xc8400000
       52315000	      5230	00000000	00000013	addi	x0,x0,0	  x0:0x00000000
       52325000	      5231	80001970	00000013	addi	x0,x0,0	  x0:0x00000000
       52335000	      5232	80001974	009b29b3	slt	x19,x22,x9	 x22:0x00000000  x9:0x00000000 x19=0x00000000
       52345000	      5233	80001978	000d7233	and	x4,x26,x0	 x26:0x00000000  x0:0x00000000  x4=0x00000000
       52355000	      5234	8000197c	01ce22b3	slt	x5,x28,x28	 x28:0x3d24f000 x28:0x3d24f000  x5=0x00000000
       52365000	      5235	80001980	51966513	ori	x10,x12,1305	 x12:0x14804000 x10=0x14804519
       52375000	      5236	80001984	01c61d93	slli	x27,x12,0x1c	 x12:0x14804000 x27=0x00000000
       52385000	      5237	80001988	19cdbe13	sltiu	x28,x27,412	 x27:0x00000000 x28=0x00000001
       52395000	      5238	8000198c	04a8e263	bltu	x17,x10,800019d0	 x17:0x00000000 x10:0x14804519
       52405000	      5239	00000000	00000013	addi	x0,x0,0	  x0:0x00000000
       52415000	      5240	800019cc	00000013	addi	x0,x0,0	  x0:0x00000000
       52425000	      5241	800019d0	5f42b893	sltiu	x17,x5,1524	  x5:0x00000000 x17=0x00000001
       52435000	      5242	800019d4	eaaab217	auipc	x4,0xeaaab	  x4=0x6aaac9d0
       52445000	      5243	800019d8	67668f13	addi	x30,x13,1654	 x13:0x00000001 x30=0x00000677
       52455000	      5244	800019dc	00000013	addi	x0,x0,0	  x0:0x00000000
       52465000	      5245	800019e0	335ca013	slti	x0,x25,821	 x25:0x00000000
       52475000	      5246	800019e4	00db2733	slt	x14,x22,x13	 x22:0x00000000 x13:0x00000001 x14=0x00000001
       52485000	      5247	800019e8	e0ab0093	addi	x1,x22,-502	 x22:0x00000000  x1=0xfffffe0a
       52495000	      5248	800019ec	40fb5d33	sra	x26,x22,x15	 x22:0x00000000 x15:0x80009fc4 x26=0x00000000
       52505000	      5249	800019f0	01bf4c63	blt	x30,x27,80001a08	 x30:0x00000677 x27:0x00000000
       52515000	      5250	800019f4	ffc76313	ori	x6,x14,-4	 x14:0x00000001  x6=0xfffffffd
       52525000	      5251	800019f8	01b99293	slli	x5,x19,0x1b	 x19:0x00000000  x5=0x00000000
       52535000	      5252	800019fc	00836133	or	x2,x6,x8	  x6:0xfffffffd  x8:0x00000000  x2=0xfffffffd
       52545000	      5253	80001a00	0012b4b3	sltu	x9,x5,x1	  x5:0x00000000  x1:0xfffffe0a  x9=0x00000001
       52555000	      5254	80001a04	030ff663	bgeu	x31,x16,80001a30	 x31:0x00000000 x16:0xffffffce
       52565000	      5255	80001a08	41475f33	sra	x30,x14,x20	 x14:0x00000001 x20:0x80009f20 x30=0x00000001
       52575000	      5256	80001a0c	00b85e13	srli	x28,x16,0xb	 x16:0xffffffce x28=0x001fffff
       52585000	      5257	80001a10	02dc7263	bgeu	x24,x13,80001a34	 x24:0x00000000 x13:0x00000001
       52595000	      5258	80001a14	03d5ec63	bltu	x11,x29,80001a4c	 x11:0xc8400000 x29:0x00000001
       52605000	      5259	80001a18	02857863	bgeu	x10,x8,80001a48	 x10:0x14804519  x8:0x00000000
       52615000	      5260	00000000	00000013	addi	x0,x0,0	  x0:0x00000000
       52625000	      5261	80001a44	00000013	addi	x0,x0,0	  x0:0x00000000
       52635000	      5262	80001a48	00d359b3	srl	x19,x6,x13	  x6:0xfffffffd x13:0x00000001 x19=0x7ffffffe
       52645000	      5263	80001a4c	655c6193	ori	x3,x24,1621	 x24:0x00000000  x3=0x00000655
       52655000	      5264	80001a50	013d9513	slli	x10,x27,0x13	 x27:0x00000000 x10=0x00000000
       52665000	      5265	80001a54	04c91863	bne	x18,x12,80001aa4	 x18:0x00000000 x12:0x14804000
       52675000	      5266	00000000	00000013	addi	x0,x0,0	  x0:0x00000000
       52685000	      5267	80001aa0	00000013	addi	x0,x0,0	  x0:0x00000000
       52695000	      5268	80001aa4	d7c5f0b7	lui	x1,0xd7c5f	  x1=0xd7c5f000
       52705000	      5269	80001aa8	00f10663	beq	x2,x15,80001ab4	  x2:0xfffffffd x15:0x80009fc4
       52715000	      5270	80001aac	4056d633	sra	x12,x13,x5	 x13:0x00000001  x5:0x00000000 x12=0x00000001
       52725000	      5271	80001ab0	00ad9533	sll	x10,x27,x10	 x27:0x00000000 x10:0x00000000 x10=0x00000000
       52735000	      5272	80001ab4	b2a2cd13	xori	x26,x5,-1238	  x5:0x00000000 x26=0xfffffb2a
       52745000	      5273	80001ab8	a2e59e37	lui	x28,0xa2e59	 x28=0xa2e59000
       52755000	      5274	80001abc	01e6afb3	slt	x31,x13,x30	 x13:0x00000001 x30:0x00000001 x31=0x00000000
       52765000	      5275	80001ac0	00000013	addi	x0,x0,0	  x0:0x00000000
       52775000	      5276	80001ac4	01fb1233	sll	x4,x22,x31	 x22:0x00000000 x31:0x00000000  x4=0x00000000
       52785000	      5277	80001ac8	41c45a13	srai	x20,x8,0x1c	  x8:0x00000000 x20=0x00000000
       52795000	      5278	80001acc	012c78b3	and	x17,x24,x18	 x24:0x00000000 x18:0x00000000 x17=0x00000000
       52805000	      5279	80001ad0	ff02aeb7	lui	x29,0xff02a	 x29=0xff02a000
       52815000	      5280	80001ad4	00000013	addi	x0,x0,0	  x0:0x00000000
       52825000	      5281	80001ad8	01dd1013	slli	x0,x26,0x1d	 x26:0xfffffb2a
       52835000	      5282	80001adc	00f58033	add	x0,x11,x15	 x11:0xc8400000 x15:0x80009fc4
       52845000	      5283	80001ae0	00dd3433	sltu	x8,x26,x13	 x26:0xfffffb2a x13:0x00000001  x8=0x00000000
       52855000	      5284	80001ae4	00076bb3	or	x23,x14,x0	 x14:0x00000001  x0:0x00000000 x23=0x00000001
       52865000	      5285	80001ae8	05286863	bltu	x16,x18,80001b38	 x16:0xffffffce x18:0x00000000
       52875000	      5286	80001aec	01165f93	srli	x31,x12,0x11	 x12:0x00000001 x31=0x00000000
       52885000	      5287	80001af0	01758c63	beq	x11,x23,80001b08	 x11:0xc8400000 x23:0x00000001
       52895000	      5288	80001af4	02741c63	bne	x8,x7,80001b2c	  x8:0x00000000  x7:0x00000000
       52905000	      5289	80001af8	01621c33	sll	x24,x4,x22	  x4:0x00000000 x22:0x00000000 x24=0x00000000
       52915000	      5290	80001afc	00997663	bgeu	x18,x9,80001b08	 x18:0x00000000  x9:0x00000001
       52925000	      5291	80001b00	ef99a213	slti	x4,x19,-263	 x19:0x7ffffffe  x4=0x00000000
       52935000	      5292	80001b04	00801d93	slli	x27,x0,0x8	  x0:0x00000000 x27=0x00000000
       52945000	      5293	80001b08	991b0a13	addi	x20,x22,-1647	 x22:0x00000000 x20=0xfffff991
       52955000	      5294	80001b0c	048ae863	bltu	x21,x8,80001b5c	 x21:0x80009f20  x8:0x00000000
       52965000	      5295	80001b10	00f5b2b3	sltu	x5,x11,x15	 x11:0xc8400000 x15:0x80009fc4  x5=0x00000000
       52975000	      5296	80001b14	f7f8e713	ori	x14,x17,-129	 x17:0x00000000 x14=0xffffff7f
       52985000	      5297	80001b18	00a39e13	slli	x28,x7,0xa	  x7:0x00000000 x28=0x00000000
       52995000	      5298	80001b1c	0239de63	bge	x19,x3,80001b58	 x19:0x7ffffffe  x3:0x00000655
       53005000	      5299	00000000	00000013	addi	x0,x0,0	  x0:0x00000000
       53015000	      5300	80001b54	00000013	addi	x0,x0,0	  x0:0x00000000
       53025000	      5301	80001b58	02331663	bne	x6,x3,80001b84	  x6:0xfffffffd  x3:0x00000655
       53035000	      5302	00000000	00000013	addi	x0,x0,0	  x0:0x00000000
       53045000	      5303	80001b80	00000013	addi	x0,x0,0	  x0:0x00000000
       53055000	      5304	80001b84	00000013	addi	x0,x0,0	  x0:0x00000000
       53065000	      5305	80001b88	01115c63	bge	x2,x17,80001ba0	  x2:0xfffffffd x17:0x00000000
       53075000	      5306	80001b8c	006783b3	add	x7,x15,x6	 x15:0x80009fc4  x6:0xfffffffd  x7=0x80009fc1
       53085000	      5307	80001b90	6eced717	auipc	x14,0x6eced	 x14=0xeeceeb8c
       53095000	      5308	80001b94	00546233	or	x4,x8,x5	  x8:0x00000000  x5:0x00000000  x4=0x00000000
       53105000	      5309	80001b98	418a5c33	sra	x24,x20,x24	 x20:0xfffff991 x24:0x00000000 x24=0xfffff991
       53115000	      5310	80001b9c	01fc9833	sll	x16,x25,x31	 x25:0x00000000 x31:0x00000000 x16=0x00000000
       53125000	      5311	80001ba0	ed938d13	addi	x26,x7,-295	  x7:0x80009fc1 x26=0x80009e9a
       53135000	      5312	80001ba4	03c87a63	bgeu	x16,x28,80001bd8	 x16:0x00000000 x28:0x00000000
       53145000	      5313	00000000	00000013	addi	x0,x0,0	  x0:0x00000000
       53155000	      5314	80001bd4	00000013	addi	x0,x0,0	  x0:0x00000000
       53165000	      5315	80001bd8	01d77263	bgeu	x14,x29,80001bdc	 x14:0xeeceeb8c x29:0xff02a000
       53175000	      5316	80001bdc	943bf413	andi	x8,x23,-1725	 x23:0x00000001  x8=0x00000001
       53185000	      5317	80001be0	f34dc093	xori	x1,x27,-204	 x27:0x00000000  x1=0xffffff34
       53195000	      5318	80001be4	00629b93	slli	x23,x5,0x6	  x5:0x00000000 x23=0x00000000
       53205000	      5319	80001be8	04a05263	bge	x0,x10,80001c2c	  x0:0x00000000 x10:0x00000000
       53215000	      5320	00000000	00000013	addi	x0,x0,0	  x0:0x00000000
       53225000	      5321	80001c28	00000013	addi	x0,x0,0	  x0:0x00000000
       53235000	      5322	80001c2c	01772733	slt	x14,x14,x23	 x14:0xeeceeb8c x23:0x00000000 x14=0x00000001
       53245000	      5323	80001c30	004fdeb3	srl	x29,x31,x4	 x31:0x00000000  x4:0x00000000 x29=0x00000000
       53255000	      5324	80001c34	e87a3093	sltiu	x1,x20,-377	 x20:0xfffff991  x1=0x00000001
       53265000	      5325	80001c38	0115df33	srl	x30,x11,x17	 x11:0xc8400000 x17:0x00000000 x30=0xc8400000
       53275000	      5326	80001c3c	0458fc63	bgeu	x17,x5,80001c94	 x17:0x00000000  x5:0x00000000
       53285000	      5327	00000000	00000013	addi	x0,x0,0	  x0:0x00000000
       53295000	      5328	80001c90	00000013	addi	x0,x0,0	  x0:0x00000000
       53305000	      5329	80001c94	03158663	beq	x11,x17,80001cc0	 x11:0xc8400000 x17:0x00000000
       53315000	      5330	80001c98	8eff4513	xori	x10,x30,-1809	 x30:0xc8400000 x10=0x37bff8ef
       53325000	      5331	80001c9c	00f17a33	and	x20,x2,x15	  x2:0xfffffffd x15:0x80009fc4 x20=0x80009fc4
       53335000	      5332	80001ca0	01d076b3	and	x13,x0,x29	  x0:0x00000000 x29:0x00000000 x13=0x00000000
       53345000	      5333	80001ca4	410a5313	srai	x6,x20,0x10	 x20:0x80009fc4  x6=0xffff8000
       53355000	      5334	80001ca8	0362c263	blt	x5,x22,80001ccc	  x5:0x00000000 x22:0x00000000
       53365000	      5335	80001cac	00276fb3	or	x31,x14,x2	 x14:0x00000001  x2:0xfffffffd x31=0xfffffffd
       53375000	      5336	80001cb0	417a8333	sub	x6,x21,x23	 x21:0x80009f20 x23:0x00000000  x6=0x80009f20
       53385000	      5337	80001cb4	b9eb8c93	addi	x25,x23,-1122	 x23:0x00000000 x25=0xfffffb9e
       53395000	      5338	80001cb8	013184b3	add	x9,x3,x19	  x3:0x00000655 x19:0x7ffffffe  x9=0x80000653
       53405000	      5339	80001cbc	e3724513	xori	x10,x4,-457	  x4:0x00000000 x10=0xfffffe37
       53415000	      5340	80001cc0	00ec9463	bne	x25,x14,80001cc8	 x25:0xfffffb9e x14:0x00000001
       53425000	      5341	00000000	00000013	addi	x0,x0,0	  x0:0x00000000
       53435000	      5342	80001cc4	00000013	addi	x0,x0,0	  x0:0x00000000
       53445000	      5343	80001cc8	00007863	bgeu	x0,x0,80001cd8	  x0:0x00000000  x0:0x00000000
       53455000	      5344	00000000	00000013	addi	x0,x0,0	  x0:0x00000000
       53465000	      5345	80001cd4	00000013	addi	x0,x0,0	  x0:0x00000000
       53475000	      5346	80001cd8	cc25b393	sltiu	x7,x11,-830	 x11:0xc8400000  x7=0x00000001
       53485000	      5347	80001cdc	016ad193	srli	x3,x21,0x16	 x21:0x80009f20  x3=0x00000200
       53495000	      5348	80001ce0	806aba13	sltiu	x20,x21,-2042	 x21:0x80009f20 x20=0x00000001
       53505000	      5349	80001ce4	8f0060b7	lui	x1,0x8f006	  x1=0x8f006000
       53515000	      5350	80001ce8	68ed4f93	xori	x31,x26,1678	 x26:0x80009e9a x31=0x80009814
       53525000	      5351	80001cec	00ae5a13	srli	x20,x28,0xa	 x28:0x00000000 x20=0x00000000
       53535000	      5352	80001cf0	008c8c33	add	x24,x25,x8	 x25:0xfffffb9e  x8:0x00000001 x24=0xfffffb9f
       53545000	      5353	80001cf4	da1cf993	andi	x19,x25,-607	 x25:0xfffffb9e x19=0xfffff980
       53555000	      5354	80001cf8	0433b193	sltiu	x3,x7,67	  x7:0x00000001  x3=0x00000001
       53565000	      5355	80001cfc	002e9bb3	sll	x23,x29,x2	 x29:0x00000000  x2:0xfffffffd x23=0x00000000
       53575000	      5356	80001d00	3fbe3a37	lui	x20,0x3fbe3	 x20=0x3fbe3000
       53585000	      5357	80001d04	00cde833	or	x16,x27,x12	 x27:0x00000000 x12:0x00000001 x16=0x00000001
       53595000	      5358	80001d08	4b376413	ori	x8,x14,1203	 x14:0x00000001  x8=0x000004b3
       53605000	      5359	80001d0c	62340613	addi	x12,x8,1571	  x8:0x000004b3 x12=0x00000ad6
       53615000	      5360	80001d10	01195c63	bge	x18,x17,80001d28	 x18:0x00000000 x17:0x00000000
       53625000	      5361	00000000	00000013	addi	x0,x0,0	  x0:0x00000000
       53635000	      5362	80001d24	00000013	addi	x0,x0,0	  x0:0x00000000
       53645000	      5363	80001d28	0089a5b3	slt	x11,x19,x8	 x19:0xfffff980  x8:0x000004b3 x11=0x00000001
       53655000	      5364	80001d2c	01701713	slli	x14,x0,0x17	  x0:0x00000000 x14=0x00000000
       53665000	      5365	80001d30	4a670513	addi	x10,x14,1190	 x14:0x00000000 x10=0x000004a6
       53675000	      5366	80001d34	002c8733	add	x14,x25,x2	 x25:0xfffffb9e  x2:0xfffffffd x14=0xfffffb9b
       53685000	      5367	80001d38	b5424093	xori	x1,x4,-1196	  x4:0x00000000  x1=0xfffffb54
       53695000	      5368	80001d3c	00118d33	add	x26,x3,x1	  x3:0x00000001  x1:0xfffffb54 x26=0xfffffb55
       53705000	      5369	80001d40	518b25b7	lui	x11,0x518b2	 x11=0x518b2000
       53715000	      5370	80001d44	ca84b297	auipc	x5,0xca84b	  x5=0x4a84cd40
       53725000	      5371	80001d48	01c40db3	add	x27,x8,x28	  x8:0x000004b3 x28:0x00000000 x27=0x000004b3
       53735000	      5372	80001d4c	01d30f33	add	x30,x6,x29	  x6:0x80009f20 x29:0x00000000 x30=0x80009f20
       53745000	      5373	80001d50	00a01d13	slli	x26,x0,0xa	  x0:0x00000000 x26=0x00000000
       53755000	      5374	80001d54	403d8fb3	sub	x31,x27,x3	 x27:0x000004b3  x3:0x00000001 x31=0x000004b2
       53765000	      5375	80001d58	00000013	addi	x0,x0,0	  x0:0x00000000
       53775000	      5376	80001d5c	0003d9b3	srl	x19,x7,x0	  x7:0x00000001  x0:0x00000000 x19=0x00000001
       53785000	      5377	80001d60	2bbb7313	andi	x6,x22,699	 x22:0x00000000  x6=0x00000000
       53795000	      5378	80001d64	40685fb3	sra	x31,x16,x6	 x16:0x00000001  x6:0x00000000 x31=0x00000001
       53805000	      5379	80001d68	037d8863	beq	x27,x23,80001d98	 x27:0x000004b3 x23:0x00000000
       53815000	      5380	80001d6c	2bfae137	lui	x2,0x2bfae	  x2=0x2bfae000
       53825000	      5381	80001d70	69933013	sltiu	x0,x6,1689	  x6:0x00000000
       53835000	      5382	80001d74	bae94db7	lui	x27,0xbae94	 x27=0xbae94000
       53845000	      5383	80001d78	01efe663	bltu	x31,x30,80001d84	 x31:0x00000001 x30:0x80009f20
       53855000	      5384	00000000	00000013	addi	x0,x0,0	  x0:0x00000000
       53865000	      5385	80001d80	00000013	addi	x0,x0,0	  x0:0x00000000
       53875000	      5386	80001d84	00b78833	add	x16,x15,x11	 x15:0x80009fc4 x11:0x518b2000 x16=0xd18bbfc4
       53885000	      5387	80001d88	d1a17713	andi	x14,x2,-742	  x2:0x2bfae000 x14=0x2bfae000
       53895000	      5388	80001d8c	0a4af313	andi	x6,x21,164	 x21:0x80009f20  x6=0x00000020
       53905000	      5389	80001d90	1fb8ff93	andi	x31,x17,507	 x17:0x00000000 x31=0x00000000
       53915000	      5390	80001d94	00f2d613	srli	x12,x5,0xf	  x5:0x4a84cd40 x12=0x00009509
       53925000	      5391	80001d98	027d0663	beq	x26,x7,80001dc4	 x26:0x00000000  x7:0x00000001
       53935000	      5392	80001d9c	00d75463	bge	x14,x13,80001da4	 x14:0x2bfae000 x13:0x00000000
       53945000	      5393	00000000	00000013	addi	x0,x0,0	  x0:0x00000000
       53955000	      5394	80001da0	00000013	addi	x0,x0,0	  x0:0x00000000
       53965000	      5395	80001da4	9a41b293	sltiu	x5,x3,-1628	  x3:0x00000001  x5=0x00000001
       53975000	      5396	80001da8	41c556b3	sra	x13,x10,x28	 x10:0x000004a6 x28:0x00000000 x13=0x000004a6
       53985000	      5397	80001dac	05cbf863	bgeu	x23,x28,80001dfc	 x23:0x00000000 x28:0x00000000
       53995000	      5398	00000000	00000013	addi	x0,x0,0	  x0:0x00000000
       54005000	      5399	80001df8	00000013	addi	x0,x0,0	  x0:0x00000000
       54015000	      5400	80001dfc	9447f537	lui	x10,0x9447f	 x10=0x9447f000
       54025000	      5401	80001e00	400f5713	srai	x14,x30,0x0	 x30:0x80009f20 x14=0x80009f20
       54035000	      5402	80001e04	41dd08b3	sub	x17,x26,x29	 x26:0x00000000 x29:0x00000000 x17=0x00000000
       54045000	      5403	80001e08	013a5493	srli	x9,x20,0x13	 x20:0x3fbe3000  x9=0x000007f7
       54055000	      5404	80001e0c	05b9c863	blt	x19,x27,80001e5c	 x19:0x00000001 x27:0xbae94000
       54065000	      5405	80001e10	5a7b4913	xori	x18,x22,1447	 x22:0x00000000 x18=0x000005a7
       54075000	      5406	80001e14	4236a813	slti	x16,x13,1059	 x13:0x000004a6 x16=0x00000000
       54085000	      5407	80001e18	017ad133	srl	x2,x21,x23	 x21:0x80009f20 x23:0x00000000  x2=0x80009f20
       54095000	      5408	80001e1c	0005acb3	slt	x25,x11,x0	 x11:0x518b2000  x0:0x00000000 x25=0x00000000
       54105000	      5409	80001e20	01344f33	xor	x30,x8,x19	  x8:0x000004b3 x19:0x00000001 x30=0x000004b2
       54115000	      5410	80001e24	04c70863	beq	x14,x12,80001e74	 x14:0x80009f20 x12:0x00009509
       54125000	      5411	80001e28	01de41b3	xor	x3,x28,x29	 x28:0x00000000 x29:0x00000000  x3=0x00000000
       54135000	      5412	80001e2c	7d5fe313	ori	x6,x31,2005	 x31:0x00000000  x6=0x000007d5
       54145000	      5413	80001e30	00fa2bb3	slt	x23,x20,x15	 x20:0x3fbe3000 x15:0x80009fc4 x23=0x00000000
       54155000	      5414	80001e34	03105c63	bge	x0,x17,80001e6c	  x0:0x00000000 x17:0x00000000
       54165000	      5415	00000000	00000013	addi	x0,x0,0	  x0:0x00000000
       54175000	      5416	80001e68	00000013	addi	x0,x0,0	  x0:0x00000000
       54185000	      5417	80001e6c	00d7dc63	bge	x15,x13,80001e84	 x15:0x80009fc4 x13:0x000004a6
       54195000	      5418	80001e70	0535d263	bge	x11,x19,80001eb4	 x11:0x518b2000 x19:0x00000001
       54205000	      5419	00000000	00000013	addi	x0,x0,0	  x0:0x00000000
       54215000	      5420	80001eb0	00000013	addi	x0,x0,0	  x0:0x00000000
       54225000	      5421	80001eb4	00000013	addi	x0,x0,0	  x0:0x00000000
       54235000	      5422	80001eb8	00f95693	srli	x13,x18,0xf	 x18:0x000005a7 x13=0x00000000
       54245000	      5423	80001ebc	41e955b3	sra	x11,x18,x30	 x18:0x000005a7 x30:0x000004b2 x11=0x00000000
       54255000	      5424	80001ec0	01a962b3	or	x5,x18,x26	 x18:0x000005a7 x26:0x00000000  x5=0x000005a7
       54265000	      5425	80001ec4	01f1b133	sltu	x2,x3,x31	  x3:0x00000000 x31:0x00000000  x2=0x00000000
       54275000	      5426	80001ec8	e1ed2e93	slti	x29,x26,-482	 x26:0x00000000 x29=0x00000000
       54285000	      5427	80001ecc	1311fb93	andi	x23,x3,305	  x3:0x00000000 x23=0x00000000
       54295000	      5428	80001ed0	00a788b3	add	x17,x15,x10	 x15:0x80009fc4 x10:0x9447f000 x17=0x14488fc4
       54305000	      5429	80001ed4	04275063	bge	x14,x2,80001f14	 x14:0x80009f20  x2:0x00000000
       54315000	      5430	80001ed8	5b668613	addi	x12,x13,1462	 x13:0x00000000 x12=0x000005b6
       54325000	      5431	80001edc	03591263	bne	x18,x21,80001f00	 x18:0x000005a7 x21:0x80009f20
       54335000	      5432	00000000	00000013	addi	x0,x0,0	  x0:0x00000000
       54345000	      5433	80001efc	00000013	addi	x0,x0,0	  x0:0x00000000
       54355000	      5434	80001f00	01791193	slli	x3,x18,0x17	 x18:0x000005a7  x3=0xd3800000
       54365000	      5435	80001f04	02d06663	bltu	x0,x13,80001f30	  x0:0x00000000 x13:0x00000000
       54375000	      5436	80001f08	00537c63	bgeu	x6,x5,80001f20	  x6:0x000007d5  x5:0x000005a7
       54385000	      5437	00000000	00000013	addi	x0,x0,0	  x0:0x00000000
       54395000	      5438	80001f1c	00000013	addi	x0,x0,0	  x0:0x00000000
       54405000	      5439	80001f20	7bdb3c13	sltiu	x24,x22,1981	 x22:0x00000000 x24=0x00000001
       54415000	      5440	80001f24	03aa6e63	bltu	x20,x26,80001f60	 x20:0x3fbe3000 x26:0x00000000
       54425000	      5441	80001f28	01a7b9b3	sltu	x19,x15,x26	 x15:0x80009fc4 x26:0x00000000 x19=0x00000000
       54435000	      5442	80001f2c	039e5063	bge	x28,x25,80001f4c	 x28:0x00000000 x25:0x00000000
       54445000	      5443	00000000	00000013	addi	x0,x0,0	  x0:0x00000000
       54455000	      5444	80001f48	00000013	addi	x0,x0,0	  x0:0x00000000
       54465000	      5445	80001f4c	40f25f13	srai	x30,x4,0xf	  x4:0x00000000 x30=0x00000000
       54475000	      5446	80001f50	40bf5d13	srai	x26,x30,0xb	 x30:0x00000000 x26=0x00000000
       54485000	      5447	80001f54	0294e863	bltu	x9,x9,80001f84	  x9:0x000007f7  x9:0x000007f7
       54495000	      5448	80001f58	4048dfb3	sra	x31,x17,x4	 x17:0x14488fc4  x4:0x00000000 x31=0x14488fc4
       54505000	      5449	80001f5c	003a60b3	or	x1,x20,x3	 x20:0x3fbe3000  x3:0xd3800000  x1=0xffbe3000
       54515000	      5450	80001f60	00e91613	slli	x12,x18,0xe	 x18:0x000005a7 x12=0x0169c000
       54525000	      5451	80001f64	00e11293	slli	x5,x2,0xe	  x2:0x00000000  x5=0x00000000
       54535000	      5452	80001f68	0103a633	slt	x12,x7,x16	  x7:0x00000001 x16:0x00000000 x12=0x00000000
       54545000	      5453	80001f6c	00011c63	bne	x2,x0,80001f84	  x2:0x00000000  x0:0x00000000
       54555000	      5454	80001f70	01728fb3	add	x31,x5,x23	  x5:0x00000000 x23:0x00000000 x31=0x00000000
       54565000	      5455	80001f74	00f89813	slli	x16,x17,0xf	 x17:0x14488fc4 x16=0x47e20000
       54575000	      5456	80001f78	01840463	beq	x8,x24,80001f80	  x8:0x000004b3 x24:0x00000001
       54585000	      5457	80001f7c	40bf5433	sra	x8,x30,x11	 x30:0x00000000 x11:0x00000000  x8=0x00000000
       54595000	      5458	80001f80	01fe1833	sll	x16,x28,x31	 x28:0x00000000 x31:0x00000000 x16=0x00000000
       54605000	      5459	80001f84	0078c333	xor	x6,x17,x7	 x17:0x14488fc4  x7:0x00000001  x6=0x14488fc5
       54615000	      5460	80001f88	019d1863	bne	x26,x25,80001f98	 x26:0x00000000 x25:0x00000000
       54625000	      5461	80001f8c	00290c33	add	x24,x18,x2	 x18:0x000005a7  x2:0x00000000 x24=0x000005a7
       54635000	      5462	80001f90	40120133	sub	x2,x4,x1	  x4:0x00000000  x1:0xffbe3000  x2=0x0041d000
       54645000	      5463	80001f94	00000013	addi	x0,x0,0	  x0:0x00000000
       54655000	      5464	80001f98	01a9cbb3	xor	x23,x19,x26	 x19:0x00000000 x26:0x00000000 x23=0x00000000
       54665000	      5465	80001f9c	2ff1e993	ori	x19,x3,767	  x3:0xd3800000 x19=0xd38002ff
       54675000	      5466	80001fa0	91580d13	addi	x26,x16,-1771	 x16:0x00000000 x26=0xfffff915
       54685000	      5467	80001fa4	416885b3	sub	x11,x17,x22	 x17:0x14488fc4 x22:0x00000000 x11=0x14488fc4
       54695000	      5468	80001fa8	b25fc693	xori	x13,x31,-1243	 x31:0x00000000 x13=0xfffffb25
       54705000	      5469	80001fac	013f8f33	add	x30,x31,x19	 x31:0x00000000 x19:0xd38002ff x30=0xd38002ff
       54715000	      5470	80001fb0	006794b3	sll	x9,x15,x6	 x15:0x80009fc4  x6:0x14488fc5  x9=0x0013f880
       54725000	      5471	80001fb4	0178d333	srl	x6,x17,x23	 x17:0x14488fc4 x23:0x00000000  x6=0x14488fc4
       54735000	      5472	80001fb8	0283c263	blt	x7,x8,80001fdc	  x7:0x00000001  x8:0x00000000
       54745000	      5473	80001fbc	03a91263	bne	x18,x26,80001fe0	 x18:0x000005a7 x26:0xfffff915
       54755000	      5474	00000000	00000013	addi	x0,x0,0	  x0:0x00000000
       54765000	      5475	80001fdc	00000013	addi	x0,x0,0	  x0:0x00000000
       54775000	      5476	80001fe0	c6516713	ori	x14,x2,-923	  x2:0x0041d000 x14=0xfffffc65
       54785000	      5477	80001fe4	01780a63	beq	x16,x23,80001ff8	 x16:0x00000000 x23:0x00000000
       54795000	      5478	00000000	00000013	addi	x0,x0,0	  x0:0x00000000
       54805000	      5479	80001ff4	00000013	addi	x0,x0,0	  x0:0x00000000
       54815000	      5480	80001ff8	01ca53b3	srl	x7,x20,x28	 x20:0x3fbe3000 x28:0x00000000  x7=0x3fbe3000
       54825000	      5481	80001ffc	23e83693	sltiu	x13,x16,574	 x16:0x00000000 x13=0x00000001
       54835000	      5482	80002000	c8af0813	addi	x16,x30,-886	 x30:0xd38002ff x16=0xd37fff89
       54845000	      5483	80002004	404e01b3	sub	x3,x28,x4	 x28:0x00000000  x4:0x00000000  x3=0x00000000
       54855000	      5484	80002008	cabb7413	andi	x8,x22,-853	 x22:0x00000000  x8=0x00000000
       54865000	      5485	8000200c	41cd0133	sub	x2,x26,x28	 x26:0xfffff915 x28:0x00000000  x2=0xfffff915
       54875000	      5486	80002010	ac072d37	lui	x26,0xac072	 x26=0xac072000
       54885000	      5487	80002014	03840a63	beq	x8,x24,80002048	  x8:0x00000000 x24:0x000005a7
       54895000	      5488	80002018	009fc863	blt	x31,x9,80002028	 x31:0x00000000  x9:0x0013f880
       54905000	      5489	00000000	00000013	addi	x0,x0,0	  x0:0x00000000
       54915000	      5490	80002024	00000013	addi	x0,x0,0	  x0:0x00000000
       54925000	      5491	80002028	010d06b3	add	x13,x26,x16	 x26:0xac072000 x16:0xd37fff89 x13=0x7f871f89
       54935000	      5492	8000202c	056ad263	bge	x21,x22,80002070	 x21:0x80009f20 x22:0x00000000
       54945000	      5493	80002030	00ecd013	srli	x0,x25,0xe	 x25:0x00000000
       54955000	      5494	80002034	00000013	addi	x0,x0,0	  x0:0x00000000
       54965000	      5495	80002038	01201513	slli	x10,x0,0x12	  x0:0x00000000 x10=0x00000000
       54975000	      5496	8000203c	01489c13	slli	x24,x17,0x14	 x17:0x14488fc4 x24=0xfc400000
       54985000	      5497	80002040	016d5663	bge	x26,x22,8000204c	 x26:0xac072000 x22:0x00000000
       54995000	      5498	80002044	044b7863	bgeu	x22,x4,80002094	 x22:0x00000000  x4:0x00000000
       55005000	      5499	00000000	00000013	addi	x0,x0,0	  x0:0x00000000
       55015000	      5500	80002090	00000013	addi	x0,x0,0	  x0:0x00000000
       55025000	      5501	80002094	0ee48f13	addi	x30,x9,238	  x9:0x0013f880 x30=0x0013f96e
       55035000	      5502	80002098	00ebd393	srli	x7,x23,0xe	 x23:0x00000000  x7=0x00000000
       55045000	      5503	8000209c	6fb7e613	ori	x12,x15,1787	 x15:0x80009fc4 x12=0x80009fff
       55055000	      5504	800020a0	0157e933	or	x18,x15,x21	 x15:0x80009fc4 x21:0x80009f20 x18=0x80009fe4
       55065000	      5505	800020a4	055d6063	bltu	x26,x21,800020e4	 x26:0xac072000 x21:0x80009f20
       55075000	      5506	800020a8	f8ef2493	slti	x9,x30,-114	 x30:0x0013f96e  x9=0x00000000
       55085000	      5507	800020ac	40acd0b3	sra	x1,x25,x10	 x25:0x00000000 x10:0x00000000  x1=0x00000000
       55095000	      5508	800020b0	0061fdb3	and	x27,x3,x6	  x3:0x00000000  x6:0x14488fc4 x27=0x00000000
       55105000	      5509	800020b4	012e6eb3	or	x29,x28,x18	 x28:0x00000000 x18:0x80009fe4 x29=0x80009fe4
       55115000	      5510	800020b8	01aac0b3	xor	x1,x21,x26	 x21:0x80009f20 x26:0xac072000  x1=0x2c07bf20
       55125000	      5511	800020bc	01ff9263	bne	x31,x31,800020c0	 x31:0x00000000 x31:0x00000000
       55135000	      5512	800020c0	01b46fb3	or	x31,x8,x27	  x8:0x00000000 x27:0x00000000 x31=0x00000000
       55145000	      5513	800020c4	00000013	addi	x0,x0,0	  x0:0x00000000
       55155000	      5514	800020c8	e755b593	sltiu	x11,x11,-395	 x11:0x14488fc4 x11=0x00000001
       55165000	      5515	800020cc	015a9013	slli	x0,x21,0x15	 x21:0x80009f20
       55175000	      5516	800020d0	01716d33	or	x26,x2,x23	  x2:0xfffff915 x23:0x00000000 x26=0xfffff915
       55185000	      5517	800020d4	042cb093	sltiu	x1,x25,66	 x25:0x00000000  x1=0x00000001
       55195000	      5518	800020d8	00df44b3	xor	x9,x30,x13	 x30:0x0013f96e x13:0x7f871f89  x9=0x7f94e6e7
       55205000	      5519	800020dc	01c56e63	bltu	x10,x28,800020f8	 x10:0x00000000 x28:0x00000000
       55215000	      5520	800020e0	009bd663	bge	x23,x9,800020ec	 x23:0x00000000  x9:0x7f94e6e7
       55225000	      5521	800020e4	00fedc63	bge	x29,x15,800020fc	 x29:0x80009fe4 x15:0x80009fc4
       55235000	      5522	00000000	00000013	addi	x0,x0,0	  x0:0x00000000
       55245000	      5523	800020f8	00000013	addi	x0,x0,0	  x0:0x00000000
       55255000	      5524	800020fc	00745f33	srl	x30,x8,x7	  x8:0x00000000  x7:0x00000000 x30=0x00000000
       55265000	      5525	80002100	017b5fb3	srl	x31,x22,x23	 x22:0x00000000 x23:0x00000000 x31=0x00000000
       55275000	      5526	80002104	05689863	bne	x17,x22,80002154	 x17:0x14488fc4 x22:0x00000000
       55285000	      5527	00000000	00000013	addi	x0,x0,0	  x0:0x00000000
       55295000	      5528	80002150	00000013	addi	x0,x0,0	  x0:0x00000000
       55305000	      5529	80002154	1cb0e713	ori	x14,x1,459	  x1:0x00000001 x14=0x000001cb
       55315000	      5530	80002158	04269263	bne	x13,x2,8000219c	 x13:0x7f871f89  x2:0xfffff915
       55325000	      5531	00000000	00000013	addi	x0,x0,0	  x0:0x00000000
       55335000	      5532	80002198	00000013	addi	x0,x0,0	  x0:0x00000000
       55345000	      5533	8000219c	01a89c13	slli	x24,x17,0x1a	 x17:0x14488fc4 x24=0x10000000
       55355000	      5534	800021a0	01324433	xor	x8,x4,x19	  x4:0x00000000 x19:0xd38002ff  x8=0xd38002ff
       55365000	      5535	800021a4	2ddc1737	lui	x14,0x2ddc1	 x14=0x2ddc1000
       55375000	      5536	800021a8	41a6dd33	sra	x26,x13,x26	 x13:0x7f871f89 x26:0xfffff915 x26=0x000003fc
       55385000	      5537	800021ac	05e6e863	bltu	x13,x30,800021fc	 x13:0x7f871f89 x30:0x00000000
       55395000	      5538	800021b0	40958833	sub	x16,x11,x9	 x11:0x00000001  x9:0x7f94e6e7 x16=0x806b191a
       55405000	      5539	800021b4	6cd23413	sltiu	x8,x4,1741	  x4:0x00000000  x8=0x00000001
       55415000	      5540	800021b8	00128d33	add	x26,x5,x1	  x5:0x00000000  x1:0x00000001 x26=0x00000001
       55425000	      5541	800021bc	027d8063	beq	x27,x7,800021dc	 x27:0x00000000  x7:0x00000000
       55435000	      5542	00000000	00000013	addi	x0,x0,0	  x0:0x00000000
       55445000	      5543	800021d8	00000013	addi	x0,x0,0	  x0:0x00000000
       55455000	      5544	800021dc	01e31333	sll	x6,x6,x30	  x6:0x14488fc4 x30:0x00000000  x6=0x14488fc4
       55465000	      5545	800021e0	a2735437	lui	x8,0xa2735	  x8=0xa2735000
       55475000	      5546	800021e4	ade9cd13	xori	x26,x19,-1314	 x19:0xd38002ff x26=0x2c7ff821
       55485000	      5547	800021e8	00ae9e33	sll	x28,x29,x10	 x29:0x80009fe4 x10:0x00000000 x28=0x80009fe4
       55495000	      5548	800021ec	4055dcb3	sra	x25,x11,x5	 x11:0x00000001  x5:0x00000000 x25=0x00000001
       55505000	      5549	800021f0	41b785b3	sub	x11,x15,x27	 x15:0x80009fc4 x27:0x00000000 x11=0x80009fc4
       55515000	      5550	800021f4	fdc10c37	lui	x24,0xfdc10	 x24=0xfdc10000
       55525000	      5551	800021f8	01dc0cb3	add	x25,x24,x29	 x24:0xfdc10000 x29:0x80009fe4 x25=0x7dc19fe4
       55535000	      5552	800021fc	d43989b7	lui	x19,0xd4398	 x19=0xd4398000
       55545000	      5553	80002200	0227fa63	bgeu	x15,x2,80002234	 x15:0x80009fc4  x2:0xfffff915
       55555000	      5554	80002204	41dd5233	sra	x4,x26,x29	 x26:0x2c7ff821 x29:0x80009fe4  x4=0x02c7ff82
       55565000	      5555	80002208	400ed333	sra	x6,x29,x0	 x29:0x80009fe4  x0:0x00000000  x6=0x80009fe4
       55575000	      5556	8000220c	40855933	sra	x18,x10,x8	 x10:0x00000000  x8:0xa2735000 x18=0x00000000
       55585000	      5557	80002210	00de5db3	srl	x27,x28,x13	 x28:0x80009fe4 x13:0x7f871f89 x27=0x0040004f
       55595000	      5558	80002214	02cbc663	blt	x23,x12,80002240	 x23:0x00000000 x12:0x80009fff
       55605000	      5559	80002218	002109b3	add	x19,x2,x2	  x2:0xfffff915  x2:0xfffff915 x19=0xfffff22a
       55615000	      5560	8000221c	0061ec63	bltu	x3,x6,80002234	  x3:0x00000000  x6:0x80009fe4
       55625000	      5561	00000000	00000013	addi	x0,x0,0	  x0:0x00000000
       55635000	      5562	80002230	00000013	addi	x0,x0,0	  x0:0x00000000
       55645000	      5563	80002234	98cd4693	xori	x13,x26,-1652	 x26:0x2c7ff821 x13=0xd38001ad
       55655000	      5564	80002238	00e76863	bltu	x14,x14,80002248	 x14:0x2ddc1000 x14:0x2ddc1000
       55665000	      5565	8000223c	01f8f5b3	and	x11,x17,x31	 x17:0x14488fc4 x31:0x00000000 x11=0x00000000
       55675000	      5566	80002240	007f3a33	sltu	x20,x30,x7	 x30:0x00000000  x7:0x00000000 x20=0x00000000
       55685000	      5567	80002244	40658433	sub	x8,x11,x6	 x11:0x00000000  x6:0x80009fe4  x8=0x7fff601c
       55695000	      5568	80002248	215fec93	ori	x25,x31,533	 x31:0x00000000 x25=0x00000215
       55705000	      5569	8000224c	41cd54b3	sra	x9,x26,x28	 x26:0x2c7ff821 x28:0x80009fe4  x9=0x02c7ff82
       55715000	      5570	80002250	0067a2b3	slt	x5,x15,x6	 x15:0x80009fc4  x6:0x80009fe4  x5=0x00000001
       55725000	      5571	80002254	41ed53b3	sra	x7,x26,x30	 x26:0x2c7ff821 x30:0x00000000  x7=0x2c7ff821
       55735000	      5572	80002258	028a8263	beq	x21,x8,8000227c	 x21:0x80009f20  x8:0x7fff601c
       55745000	      5573	8000225c	014582b3	add	x5,x11,x20	 x11:0x00000000 x20:0x00000000  x5=0x00000000
       55755000	      5574	80002260	014dc0b3	xor	x1,x27,x20	 x27:0x0040004f x20:0x00000000  x1=0x0040004f
       55765000	      5575	80002264	009ea5b3	slt	x11,x29,x9	 x29:0x80009fe4  x9:0x02c7ff82 x11=0x00000001
       55775000	      5576	80002268	4070d993	srai	x19,x1,0x7	  x1:0x0040004f x19=0x00008000
       55785000	      5577	8000226c	4be74f13	xori	x30,x14,1214	 x14:0x2ddc1000 x30=0x2ddc14be
       55795000	      5578	80002270	00f1b5b3	sltu	x11,x3,x15	  x3:0x00000000 x15:0x80009fc4 x11=0x00000001
       55805000	      5579	80002274	01bf5663	bge	x30,x27,80002280	 x30:0x2ddc14be x27:0x0040004f
       55815000	      5580	00000000	00000013	addi	x0,x0,0	  x0:0x00000000
       55825000	      5581	8000227c	00000013	addi	x0,x0,0	  x0:0x00000000
       55835000	      5582	80002280	1ee06113	ori	x2,x0,494	  x0:0x00000000  x2=0x000001ee
       55845000	      5583	80002284	01c56f33	or	x30,x10,x28	 x10:0x00000000 x28:0x80009fe4 x30=0x80009fe4
       55855000	      5584	80002288	443f4d17	auipc	x26,0x443f4	 x26=0xc43f6284
       55865000	      5585	8000228c	004aab83	lw	x23,4(x21)	 x21:0x80009f20 x23=0x800027c4 PA:0x80009f24
       55875000	      5586	80002290	012525b3	slt	x11,x10,x18	 x10:0x00000000 x18:0x00000000 x11=0x00000000
       55885000	      5587	80002294	00656cb3	or	x25,x10,x6	 x10:0x00000000  x6:0x80009fe4 x25=0x80009fe4
       55895000	      5588	80002298	008a8a93	addi	x21,x21,8	 x21:0x80009f20 x21=0x80009f28
       55905000	      5589	8000229c	00000013	addi	x0,x0,0	  x0:0x00000000
       55915000	      5590	800022a0	1e560497	auipc	x9,0x1e560	  x9=0x9e56229c
       55925000	      5591	800022a4	c12d4093	xori	x1,x26,-1006	 x26:0xc43f6284  x1=0x3bc09e96
       55935000	      5592	800022a8	00354433	xor	x8,x10,x3	 x10:0x00000000  x3:0x00000000  x8=0x00000000
       55945000	      5593	800022ac	001b8b93	addi	x23,x23,1	 x23:0x800027c4 x23=0x800027c5
       55955000	      5594	800022b0	000b8be7	jalr	x23,x23,0	 x23:0x800027c5 x23=0x800022b0
       55965000	      5595	00000000	00000013	addi	x0,x0,0	  x0:0x00000000
       55975000	      5596	800027c4	00000013	addi	x0,x0,0	  x0:0x00000000
       55985000	      5597	800027c8	01c5e9b3	or	x19,x11,x28	 x11:0x00000000 x28:0x80009fe4 x19=0x80009fe4
       55995000	      5598	800027cc	00bc4cb3	xor	x25,x24,x11	 x24:0xfdc10000 x11:0x00000000 x25=0xfdc10000
       56005000	      5599	800027d0	df30f213	andi	x4,x1,-525	  x1:0x3bc09e96  x4=0x3bc09c92
       56015000	      5600	800027d4	03c18463	beq	x3,x28,800027fc	  x3:0x00000000 x28:0x80009fe4
       56025000	      5601	800027d8	012591b3	sll	x3,x11,x18	 x11:0x00000000 x18:0x00000000  x3=0x00000000
       56035000	      5602	800027dc	d1c98c13	addi	x24,x19,-740	 x19:0x80009fe4 x24=0x80009d00
       56045000	      5603	800027e0	00a563b3	or	x7,x10,x10	 x10:0x00000000 x10:0x00000000  x7=0x00000000
       56055000	      5604	800027e4	402bd033	sra	x0,x23,x2	 x23:0x800022b0  x2:0x000001ee
       56065000	      5605	800027e8	002f7433	and	x8,x30,x2	 x30:0x80009fe4  x2:0x000001ee  x8=0x000001e4
       56075000	      5606	800027ec	00701d13	slli	x26,x0,0x7	  x0:0x00000000 x26=0x00000000
       56085000	      5607	800027f0	001c6533	or	x10,x24,x1	 x24:0x80009d00  x1:0x3bc09e96 x10=0xbbc09f96
       56095000	      5608	800027f4	0019f3b3	and	x7,x19,x1	 x19:0x80009fe4  x1:0x3bc09e96  x7=0x00009e84
       56105000	      5609	800027f8	011861b3	or	x3,x16,x17	 x16:0x806b191a x17:0x14488fc4  x3=0x946b9fde
       56115000	      5610	800027fc	01f28133	add	x2,x5,x31	  x5:0x00000000 x31:0x00000000  x2=0x00000000
       56125000	      5611	80002800	0359de63	bge	x19,x21,8000283c	 x19:0x80009fe4 x21:0x80009f28
       56135000	      5612	00000000	00000013	addi	x0,x0,0	  x0:0x00000000
       56145000	      5613	80002838	00000013	addi	x0,x0,0	  x0:0x00000000
       56155000	      5614	8000283c	00000013	addi	x0,x0,0	  x0:0x00000000
       56165000	      5615	80002840	02b3de63	bge	x7,x11,8000287c	  x7:0x00009e84 x11:0x00000000
       56175000	      5616	00000000	00000013	addi	x0,x0,0	  x0:0x00000000
       56185000	      5617	80002878	00000013	addi	x0,x0,0	  x0:0x00000000
       56195000	      5618	8000287c	0199d663	bge	x19,x25,80002888	 x19:0x80009fe4 x25:0xfdc10000
       56205000	      5619	80002880	12b33493	sltiu	x9,x6,299	  x6:0x80009fe4  x9=0x00000000
       56215000	      5620	80002884	014d9bb3	sll	x23,x27,x20	 x27:0x0040004f x20:0x00000000 x23=0x0040004f
       56225000	      5621	80002888	004fcc33	xor	x24,x31,x4	 x31:0x00000000  x4:0x3bc09c92 x24=0x3bc09c92
       56235000	      5622	8000288c	4134de13	srai	x28,x9,0x13	  x9:0x00000000 x28=0x00000000
       56245000	      5623	80002890	9d37a113	slti	x2,x15,-1581	 x15:0x80009fc4  x2=0x00000001
       56255000	      5624	80002894	7eff7b93	andi	x23,x30,2031	 x30:0x80009fe4 x23=0x000007e4
       56265000	      5625	80002898	01d63933	sltu	x18,x12,x29	 x12:0x80009fff x29:0x80009fe4 x18=0x00000000
       56275000	      5626	8000289c	020f1663	bne	x30,x0,800028c8	 x30:0x80009fe4  x0:0x00000000
       56285000	      5627	00000000	00000013	addi	x0,x0,0	  x0:0x00000000
       56295000	      5628	800028c4	00000013	addi	x0,x0,0	  x0:0x00000000
       56305000	      5629	800028c8	00dc34b3	sltu	x9,x24,x13	 x24:0x3bc09c92 x13:0xd38001ad  x9=0x00000001
       56315000	      5630	800028cc	01486eb3	or	x29,x16,x20	 x16:0x806b191a x20:0x00000000 x29=0x806b191a
       56325000	      5631	800028d0	00d8a633	slt	x12,x17,x13	 x17:0x14488fc4 x13:0xd38001ad x12=0x00000000
       56335000	      5632	800028d4	00561463	bne	x12,x5,800028dc	 x12:0x00000000  x5:0x00000000
       56345000	      5633	800028d8	0043a8b3	slt	x17,x7,x4	  x7:0x00009e84  x4:0x3bc09c92 x17=0x00000001
       56355000	      5634	800028dc	41225893	srai	x17,x4,0x12	  x4:0x3bc09c92 x17=0x00000ef0
       56365000	      5635	800028e0	018bd533	srl	x10,x23,x24	 x23:0x000007e4 x24:0x3bc09c92 x10=0x00000000
       56375000	      5636	800028e4	01f6ef33	or	x30,x13,x31	 x13:0xd38001ad x31:0x00000000 x30=0xd38001ad
       56385000	      5637	800028e8	039a4063	blt	x20,x25,80002908	 x20:0x00000000 x25:0xfdc10000
       56395000	      5638	800028ec	19162513	slti	x10,x12,401	 x12:0x00000000 x10=0x00000001
       56405000	      5639	800028f0	00c9a233	slt	x4,x19,x12	 x19:0x80009fe4 x12:0x00000000  x4=0x00000001
       56415000	      5640	800028f4	039de863	bltu	x27,x25,80002924	 x27:0x0040004f x25:0xfdc10000
       56425000	      5641	00000000	00000013	addi	x0,x0,0	  x0:0x00000000
       56435000	      5642	80002920	00000013	addi	x0,x0,0	  x0:0x00000000
       56445000	      5643	80002924	015be833	or	x16,x23,x21	 x23:0x000007e4 x21:0x80009f28 x16=0x80009fec
       56455000	      5644	80002928	e63b0313	addi	x6,x22,-413	 x22:0x00000000  x6=0xfffffe63
       56465000	      5645	8000292c	01d01863	bne	x0,x29,8000293c	  x0:0x00000000 x29:0x806b191a
       56475000	      5646	00000000	00000013	addi	x0,x0,0	  x0:0x00000000
       56485000	      5647	80002938	00000013	addi	x0,x0,0	  x0:0x00000000
       56495000	      5648	8000293c	1691f893	andi	x17,x3,361	  x3:0x946b9fde x17=0x00000148
       56505000	      5649	80002940	0003f933	and	x18,x7,x0	  x7:0x00009e84  x0:0x00000000 x18=0x00000000
       56515000	      5650	80002944	01e191b3	sll	x3,x3,x30	  x3:0x946b9fde x30:0xd38001ad  x3=0x73fbc000
       56525000	      5651	80002948	6ce1e693	ori	x13,x3,1742	  x3:0x73fbc000 x13=0x73fbc6ce
       56535000	      5652	8000294c	5684f893	andi	x17,x9,1384	  x9:0x00000001 x17=0x00000000
       56545000	      5653	80002950	00000013	addi	x0,x0,0	  x0:0x00000000
       56555000	      5654	80002954	037ba813	slti	x16,x23,55	 x23:0x000007e4 x16=0x00000000
       56565000	      5655	80002958	00456a63	bltu	x10,x4,8000296c	 x10:0x00000001  x4:0x00000001
       56575000	      5656	8000295c	f1aca993	slti	x19,x25,-230	 x25:0xfdc10000 x19=0x00000001
       56585000	      5657	80002960	8e714093	xori	x1,x2,-1817	  x2:0x00000001  x1=0xfffff8e6
       56595000	      5658	80002964	a27e3913	sltiu	x18,x28,-1497	 x28:0x00000000 x18=0x00000001
       56605000	      5659	80002968	00a9fe33	and	x28,x19,x10	 x19:0x00000001 x10:0x00000001 x28=0x00000001
       56615000	      5660	8000296c	00ed2233	slt	x4,x26,x14	 x26:0x00000000 x14:0x2ddc1000  x4=0x00000001
       56625000	      5661	80002970	c5f21c17	auipc	x24,0xc5f21	 x24=0x45f2396c
       56635000	      5662	80002974	002c9193	slli	x3,x25,0x2	 x25:0xfdc10000  x3=0xf7040000
       56645000	      5663	80002978	03449663	bne	x9,x20,800029a4	  x9:0x00000001 x20:0x00000000
       56655000	      5664	00000000	00000013	addi	x0,x0,0	  x0:0x00000000
       56665000	      5665	800029a0	00000013	addi	x0,x0,0	  x0:0x00000000
       56675000	      5666	800029a4	cb080113	addi	x2,x16,-848	 x16:0x00000000  x2=0xfffffcb0
       56685000	      5667	800029a8	012f0f33	add	x30,x30,x18	 x30:0xd38001ad x18:0x00000001 x30=0xd38001ae
       56695000	      5668	800029ac	01319e93	slli	x29,x3,0x13	  x3:0xf7040000 x29=0x00000000
       56705000	      5669	800029b0	e6737f93	andi	x31,x6,-409	  x6:0xfffffe63 x31=0xfffffe63
       56715000	      5670	800029b4	00019c33	sll	x24,x3,x0	  x3:0xf7040000  x0:0x00000000 x24=0xf7040000
       56725000	      5671	800029b8	05b1f863	bgeu	x3,x27,80002a08	  x3:0xf7040000 x27:0x0040004f
       56735000	      5672	00000000	00000013	addi	x0,x0,0	  x0:0x00000000
       56745000	      5673	80002a04	00000013	addi	x0,x0,0	  x0:0x00000000
       56755000	      5674	80002a08	fd1fc693	xori	x13,x31,-47	 x31:0xfffffe63 x13=0x000001b2
       56765000	      5675	80002a0c	00000013	addi	x0,x0,0	  x0:0x00000000
       56775000	      5676	80002a10	00ee9cb3	sll	x25,x29,x14	 x29:0x00000000 x14:0x2ddc1000 x25=0x00000000
       56785000	      5677	80002a14	2f45bd93	sltiu	x27,x11,756	 x11:0x00000000 x27=0x00000001
       56795000	      5678	80002a18	011f1663	bne	x30,x17,80002a24	 x30:0xd38001ae x17:0x00000000
       56805000	      5679	00000000	00000013	addi	x0,x0,0	  x0:0x00000000
       56815000	      5680	80002a20	00000013	addi	x0,x0,0	  x0:0x00000000
       56825000	      5681	80002a24	0507c863	blt	x15,x16,80002a74	 x15:0x80009fc4 x16:0x00000000
       56835000	      5682	00000000	00000013	addi	x0,x0,0	  x0:0x00000000
       56845000	      5683	80002a70	00000013	addi	x0,x0,0	  x0:0x00000000
       56855000	      5684	80002a74	00aa1c13	slli	x24,x20,0xa	 x20:0x00000000 x24=0x00000000
       56865000	      5685	80002a78	02624663	blt	x4,x6,80002aa4	  x4:0x00000001  x6:0xfffffe63
       56875000	      5686	80002a7c	ed8ef937	lui	x18,0xed8ef	 x18=0xed8ef000
       56885000	      5687	80002a80	0270d663	bge	x1,x7,80002aac	  x1:0xfffff8e6  x7:0x00009e84
       56895000	      5688	80002a84	0066d113	srli	x2,x13,0x6	 x13:0x000001b2  x2=0x00000006
       56905000	      5689	80002a88	02e94063	blt	x18,x14,80002aa8	 x18:0xed8ef000 x14:0x2ddc1000
       56915000	      5690	00000000	00000013	addi	x0,x0,0	  x0:0x00000000
       56925000	      5691	80002aa4	00000013	addi	x0,x0,0	  x0:0x00000000
       56935000	      5692	80002aa8	406784b3	sub	x9,x15,x6	 x15:0x80009fc4  x6:0xfffffe63  x9=0x8000a161
       56945000	      5693	80002aac	010f76b3	and	x13,x30,x16	 x30:0xd38001ae x16:0x00000000 x13=0x00000000
       56955000	      5694	80002ab0	e6927293	andi	x5,x4,-407	  x4:0x00000001  x5=0x00000001
       56965000	      5695	80002ab4	01b79413	slli	x8,x15,0x1b	 x15:0x80009fc4  x8=0x20000000
       56975000	      5696	80002ab8	453faeb7	lui	x29,0x453fa	 x29=0x453fa000
       56985000	      5697	80002abc	41d253b3	sra	x7,x4,x29	  x4:0x00000001 x29:0x453fa000  x7=0x00000001
       56995000	      5698	80002ac0	0038c533	xor	x10,x17,x3	 x17:0x00000000  x3:0xf7040000 x10=0xf7040000
       57005000	      5699	80002ac4	00000013	addi	x0,x0,0	  x0:0x00000000
       57015000	      5700	80002ac8	00fc5bb3	srl	x23,x24,x15	 x24:0x00000000 x15:0x80009fc4 x23=0x00000000
       57025000	      5701	80002acc	00000013	addi	x0,x0,0	  x0:0x00000000
       57035000	      5702	80002ad0	02d06263	bltu	x0,x13,80002af4	  x0:0x00000000 x13:0x00000000
       57045000	      5703	80002ad4	012a7f33	and	x30,x20,x18	 x20:0x00000000 x18:0xed8ef000 x30=0x00000000
       57055000	      5704	80002ad8	063db493	sltiu	x9,x27,99	 x27:0x00000001  x9=0x00000001
       57065000	      5705	80002adc	013e0663	beq	x28,x19,80002ae8	 x28:0x00000001 x19:0x00000001
       57075000	      5706	00000000	00000013	addi	x0,x0,0	  x0:0x00000000
       57085000	      5707	80002ae4	00000013	addi	x0,x0,0	  x0:0x00000000
       57095000	      5708	80002ae8	9018c313	xori	x6,x17,-1791	 x17:0x00000000  x6=0xfffff901
       57105000	      5709	80002aec	02ebfa63	bgeu	x23,x14,80002b20	 x23:0x00000000 x14:0x2ddc1000
       57115000	      5710	80002af0	02011863	bne	x2,x0,80002b20	  x2:0x00000006  x0:0x00000000
       57125000	      5711	00000000	00000013	addi	x0,x0,0	  x0:0x00000000
       57135000	      5712	80002b1c	00000013	addi	x0,x0,0	  x0:0x00000000
       57145000	      5713	80002b20	00b5edb3	or	x27,x11,x11	 x11:0x00000000 x11:0x00000000 x27=0x00000000
       57155000	      5714	80002b24	011ad113	srli	x2,x21,0x11	 x21:0x80009f28  x2=0x00004000
       57165000	      5715	80002b28	00000013	addi	x0,x0,0	  x0:0x00000000
       57175000	      5716	80002b2c	02a87e63	bgeu	x16,x10,80002b68	 x16:0x00000000 x10:0xf7040000
       57185000	      5717	80002b30	00199713	slli	x14,x19,0x1	 x19:0x00000001 x14=0x00000002
       57195000	      5718	80002b34	01f83733	sltu	x14,x16,x31	 x16:0x00000000 x31:0xfffffe63 x14=0x00000001
       57205000	      5719	80002b38	020e8263	beq	x29,x0,80002b5c	 x29:0x453fa000  x0:0x00000000
       57215000	      5720	80002b3c	0066d093	srli	x1,x13,0x6	 x13:0x00000000  x1=0x00000000
       57225000	      5721	80002b40	00f36d33	or	x26,x6,x15	  x6:0xfffff901 x15:0x80009fc4 x26=0xffffffc5
       57235000	      5722	80002b44	402f5c93	srai	x25,x30,0x2	 x30:0x00000000 x25=0x00000000
       57245000	      5723	80002b48	eca7f493	andi	x9,x15,-310	 x15:0x80009fc4  x9=0x80009ec0
       57255000	      5724	80002b4c	00ebacb3	slt	x25,x23,x14	 x23:0x00000000 x14:0x00000001 x25=0x00000001
       57265000	      5725	80002b50	01c90c33	add	x24,x18,x28	 x18:0xed8ef000 x28:0x00000001 x24=0xed8ef001
       57275000	      5726	80002b54	00f01a13	slli	x20,x0,0xf	  x0:0x00000000 x20=0x00000000
       57285000	      5727	80002b58	0178ffb3	and	x31,x17,x23	 x17:0x00000000 x23:0x00000000 x31=0x00000000
       57295000	      5728	80002b5c	93f05fb7	lui	x31,0x93f05	 x31=0x93f05000
       57305000	      5729	80002b60	01ea8133	add	x2,x21,x30	 x21:0x80009f28 x30:0x00000000  x2=0x80009f28
       57315000	      5730	80002b64	02a72893	slti	x17,x14,42	 x14:0x00000001 x17=0x00000001
       57325000	      5731	80002b68	05aa8863	beq	x21,x26,80002bb8	 x21:0x80009f28 x26:0xffffffc5
       57335000	      5732	80002b6c	002e7863	bgeu	x28,x2,80002b7c	 x28:0x00000001  x2:0x80009f28
       57345000	      5733	80002b70	014e5e13	srli	x28,x28,0x14	 x28:0x00000001 x28=0x00000000
       57355000	      5734	80002b74	00a25fb3	srl	x31,x4,x10	  x4:0x00000001 x10:0xf7040000 x31=0x00000001
       57365000	      5735	80002b78	43954613	xori	x12,x10,1081	 x10:0xf7040000 x12=0xf7040439
       57375000	      5736	80002b7c	02ebc663	blt	x23,x14,80002ba8	 x23:0x00000000 x14:0x00000001
       57385000	      5737	00000000	00000013	addi	x0,x0,0	  x0:0x00000000
       57395000	      5738	80002ba4	00000013	addi	x0,x0,0	  x0:0x00000000
       57405000	      5739	80002ba8	0198f2b3	and	x5,x17,x25	 x17:0x00000001 x25:0x00000001  x5=0x00000001
       57415000	      5740	80002bac	02a31263	bne	x6,x10,80002bd0	  x6:0xfffff901 x10:0xf7040000
       57425000	      5741	00000000	00000013	addi	x0,x0,0	  x0:0x00000000
       57435000	      5742	80002bcc	00000013	addi	x0,x0,0	  x0:0x00000000
       57445000	      5743	80002bd0	530b7493	andi	x9,x22,1328	 x22:0x00000000  x9=0x00000000
       57455000	      5744	80002bd4	bf41f413	andi	x8,x3,-1036	  x3:0xf7040000  x8=0xf7040000
       57465000	      5745	80002bd8	7ef9c693	xori	x13,x19,2031	 x19:0x00000001 x13=0x000007ee
       57475000	      5746	80002bdc	1fe0ed93	ori	x27,x1,510	  x1:0x00000000 x27=0x000001fe
       57485000	      5747	80002be0	e72f4993	xori	x19,x30,-398	 x30:0x00000000 x19=0xfffffe72
       57495000	      5748	80002be4	5e36c193	xori	x3,x13,1507	 x13:0x000007ee  x3=0x0000020d
       57505000	      5749	80002be8	00f2fc33	and	x24,x5,x15	  x5:0x00000001 x15:0x80009fc4 x24=0x00000000
       57515000	      5750	80002bec	007a8233	add	x4,x21,x7	 x21:0x80009f28  x7:0x00000001  x4=0x80009f29
       57525000	      5751	80002bf0	a06c9597	auipc	x11,0xa06c9	 x11=0x206cbbec
       57535000	      5752	80002bf4	00000013	addi	x0,x0,0	  x0:0x00000000
       57545000	      5753	80002bf8	05e24463	blt	x4,x30,80002c40	  x4:0x80009f29 x30:0x00000000
       57555000	      5754	00000000	00000013	addi	x0,x0,0	  x0:0x00000000
       57565000	      5755	80002c3c	00000013	addi	x0,x0,0	  x0:0x00000000
       57575000	      5756	80002c40	00f04933	xor	x18,x0,x15	  x0:0x00000000 x15:0x80009fc4 x18=0x80009fc4
       57585000	      5757	80002c44	00e37cb3	and	x25,x6,x14	  x6:0xfffff901 x14:0x00000001 x25=0x00000001
       57595000	      5758	80002c48	b100bc13	sltiu	x24,x1,-1264	  x1:0x00000000 x24=0x00000001
       57605000	      5759	80002c4c	91378817	auipc	x16,0x91378	 x16=0x1137ac48
       57615000	      5760	80002c50	00000013	addi	x0,x0,0	  x0:0x00000000
       57625000	      5761	80002c54	007c3e33	sltu	x28,x24,x7	 x24:0x00000001  x7:0x00000001 x28=0x00000000
       57635000	      5762	80002c58	03520663	beq	x4,x21,80002c84	  x4:0x80009f29 x21:0x80009f28
       57645000	      5763	80002c5c	40105113	srai	x2,x0,0x1	  x0:0x00000000  x2=0x00000000
       57655000	      5764	80002c60	016aa333	slt	x6,x21,x22	 x21:0x80009f28 x22:0x00000000  x6=0x00000001
       57665000	      5765	80002c64	41985993	srai	x19,x16,0x19	 x16:0x1137ac48 x19=0x00000008
       57675000	      5766	80002c68	01b31863	bne	x6,x27,80002c78	  x6:0x00000001 x27:0x000001fe
       57685000	      5767	00000000	00000013	addi	x0,x0,0	  x0:0x00000000
       57695000	      5768	80002c74	00000013	addi	x0,x0,0	  x0:0x00000000
       57705000	      5769	80002c78	40d4d093	srai	x1,x9,0xd	  x9:0x00000000  x1=0x00000000
       57715000	      5770	80002c7c	01969d13	slli	x26,x13,0x19	 x13:0x000007ee x26=0xdc000000
       57725000	      5771	80002c80	409e8433	sub	x8,x29,x9	 x29:0x453fa000  x9:0x00000000  x8=0x453fa000
       57735000	      5772	80002c84	25c14813	xori	x16,x2,604	  x2:0x00000000 x16=0x0000025c
       57745000	      5773	80002c88	00603a33	sltu	x20,x0,x6	  x0:0x00000000  x6:0x00000001 x20=0x00000001
       57755000	      5774	80002c8c	01d8b0b3	sltu	x1,x17,x29	 x17:0x00000001 x29:0x453fa000  x1=0x00000001
       57765000	      5775	80002c90	0476c663	blt	x13,x7,80002cdc	 x13:0x000007ee  x7:0x00000001
       57775000	      5776	80002c94	014d9393	slli	x7,x27,0x14	 x27:0x000001fe  x7=0x1fe00000
       57785000	      5777	80002c98	00beec33	or	x24,x29,x11	 x29:0x453fa000 x11:0x206cbbec x24=0x657fbbec
       57795000	      5778	80002c9c	008496b3	sll	x13,x9,x8	  x9:0x00000000  x8:0x453fa000 x13=0x00000000
       57805000	      5779	80002ca0	006752b3	srl	x5,x14,x6	 x14:0x00000001  x6:0x00000001  x5=0x00000000
       57815000	      5780	80002ca4	41540eb3	sub	x29,x8,x21	  x8:0x453fa000 x21:0x80009f28 x29=0xc53f00d8
       57825000	      5781	80002ca8	01a50fb3	add	x31,x10,x26	 x10:0xf7040000 x26:0xdc000000 x31=0xd3040000
       57835000	      5782	80002cac	40810233	sub	x4,x2,x8	  x2:0x00000000  x8:0x453fa000  x4=0xbac06000
       57845000	      5783	80002cb0	0080d863	bge	x1,x8,80002cc0	  x1:0x00000001  x8:0x453fa000
       57855000	      5784	80002cb4	00000013	addi	x0,x0,0	  x0:0x00000000
       57865000	      5785	80002cb8	0003b2b3	sltu	x5,x7,x0	  x7:0x1fe00000  x0:0x00000000  x5=0x00000000
       57875000	      5786	80002cbc	00000013	addi	x0,x0,0	  x0:0x00000000
       57885000	      5787	80002cc0	01ef02b3	add	x5,x30,x30	 x30:0x00000000 x30:0x00000000  x5=0x00000000
       57895000	      5788	80002cc4	03a66d37	lui	x26,0x3a66	 x26=0x03a66000
       57905000	      5789	80002cc8	009f84b3	add	x9,x31,x9	 x31:0xd3040000  x9:0x00000000  x9=0xd3040000
       57915000	      5790	80002ccc	00b77c63	bgeu	x14,x11,80002ce4	 x14:0x00000001 x11:0x206cbbec
       57925000	      5791	80002cd0	0182a6b3	slt	x13,x5,x24	  x5:0x00000000 x24:0x657fbbec x13=0x00000001
       57935000	      5792	80002cd4	f3ea0d17	auipc	x26,0xf3ea0	 x26=0x73ea2cd0
       57945000	      5793	80002cd8	0b06ba13	sltiu	x20,x13,176	 x13:0x00000001 x20=0x00000001
       57955000	      5794	80002cdc	01ee9993	slli	x19,x29,0x1e	 x29:0xc53f00d8 x19=0x00000000
       57965000	      5795	80002ce0	00cdb9b3	sltu	x19,x27,x12	 x27:0x000001fe x12:0xf7040439 x19=0x00000001
       57975000	      5796	80002ce4	a39b3813	sltiu	x16,x22,-1479	 x22:0x00000000 x16=0x00000001
       57985000	      5797	80002ce8	00bec233	xor	x4,x29,x11	 x29:0xc53f00d8 x11:0x206cbbec  x4=0xe553bb34
       57995000	      5798	80002cec	01a94663	blt	x18,x26,80002cf8	 x18:0x80009fc4 x26:0x73ea2cd0
       58005000	      5799	00000000	00000013	addi	x0,x0,0	  x0:0x00000000
       58015000	      5800	80002cf4	00000013	addi	x0,x0,0	  x0:0x00000000
       58025000	      5801	80002cf8	007589b3	add	x19,x11,x7	 x11:0x206cbbec  x7:0x1fe00000 x19=0x404cbbec
       58035000	      5802	80002cfc	01c5a6b3	slt	x13,x11,x28	 x11:0x206cbbec x28:0x00000000 x13=0x00000000
       58045000	      5803	80002d00	71adb513	sltiu	x10,x27,1818	 x27:0x000001fe x10=0x00000001
       58055000	      5804	80002d04	004aab83	lw	x23,4(x21)	 x21:0x80009f28 x23=0x80002d6c PA:0x80009f2c
       58065000	      5805	80002d08	00e6d733	srl	x14,x13,x14	 x13:0x00000000 x14:0x00000001 x14=0x00000000
       58075000	      5806	80002d0c	01dfdf13	srli	x30,x31,0x1d	 x31:0xd3040000 x30=0x00000006
       58085000	      5807	80002d10	8e30b893	sltiu	x17,x1,-1821	  x1:0x00000001 x17=0x00000001
       58095000	      5808	80002d14	013e9513	slli	x10,x29,0x13	 x29:0xc53f00d8 x10=0x06c00000
       58105000	      5809	80002d18	024a8a93	addi	x21,x21,36	 x21:0x80009f28 x21=0x80009f4c
       58115000	      5810	80002d1c	5a997cb7	lui	x25,0x5a997	 x25=0x5a997000
       58125000	      5811	80002d20	0152f0b3	and	x1,x5,x21	  x5:0x00000000 x21:0x80009f4c  x1=0x00000000
       58135000	      5812	80002d24	000b8513	addi	x10,x23,0	 x23:0x80002d6c x10=0x80002d6c
       58145000	      5813	80002d28	00050567	jalr	x10,x10,0	 x10:0x80002d6c x10=0x80002d28
       58155000	      5814	00000000	00000013	addi	x0,x0,0	  x0:0x00000000
       58165000	      5815	80002d6c	00000013	addi	x0,x0,0	  x0:0x00000000
       58175000	      5816	80002d70	00b35613	srli	x12,x6,0xb	  x6:0x00000001 x12=0x00000000
       58185000	      5817	80002d74	66e3dbb7	lui	x23,0x66e3d	 x23=0x66e3d000
       58195000	      5818	80002d78	0271c063	blt	x3,x7,80002d98	  x3:0x0000020d  x7:0x1fe00000
       58205000	      5819	00000000	00000013	addi	x0,x0,0	  x0:0x00000000
       58215000	      5820	80002d94	00000013	addi	x0,x0,0	  x0:0x00000000
       58225000	      5821	80002d98	c61fdbef	jal	x23,80002d98	 x23=0x80002d98
       58235000	      5822	00000000	00000013	addi	x0,x0,0	  x0:0x00000000
       58245000	      5823	800009f4	00000013	addi	x0,x0,0	  x0:0x00000000
       58255000	      5824	800009f8	f29a6893	ori	x17,x20,-215	 x20:0x00000001 x17=0xffffff29
       58265000	      5825	800009fc	01396663	bltu	x18,x19,80000a08	 x18:0x80009fc4 x19:0x404cbbec
       58275000	      5826	80000a00	01d90733	add	x14,x18,x29	 x18:0x80009fc4 x29:0xc53f00d8 x14=0x453fa09c
       58285000	      5827	80000a04	01de09b3	add	x19,x28,x29	 x28:0x00000000 x29:0xc53f00d8 x19=0xc53f00d8
       58295000	      5828	80000a08	fdca8a93	addi	x21,x21,-36	 x21:0x80009f4c x21=0x80009f28
       58305000	      5829	80000a0c	017aa223	sw	x23,4(x21)	 x21:0x80009f28 x23:0x80002d98 PA:0x80009f2c
       58315000	      5830	80000a10	400f5293	srai	x5,x30,0x0	 x30:0x00000006  x5=0x00000006
       58325000	      5831	80000a14	01b4ed33	or	x26,x9,x27	  x9:0xd3040000 x27:0x000001fe x26=0xd30401fe
       58335000	      5832	80000a18	00000317	auipc	x6,0x0	  x6=0x80000a14
       58345000	      5833	80000a1c	36c30313	addi	x6,x6,876	  x6:0x80000a14  x6=0x80000d80
       58355000	      5834	80000a20	00000013	addi	x0,x0,0	  x0:0x00000000
       58365000	      5835	80000a24	012dda13	srli	x20,x27,0x12	 x27:0x000001fe x20=0x00000000
       58375000	      5836	80000a28	0d21ff37	lui	x30,0xd21f	 x30=0x0d21f000
       58385000	      5837	80000a2c	24530313	addi	x6,x6,581	  x6:0x80000d80  x6=0x80000fc5
       58395000	      5838	80000a30	414c83b3	sub	x7,x25,x20	 x25:0x5a997000 x20:0x00000000  x7=0x5a997000
       58405000	      5839	80000a34	f2507d13	andi	x26,x0,-219	  x0:0x00000000 x26=0x00000000
       58415000	      5840	80000a38	aec54c13	xori	x24,x10,-1300	 x10:0x80002d28 x24=0x7fffd7c4
       58425000	      5841	80000a3c	0025dfb3	srl	x31,x11,x2	 x11:0x206cbbec  x2:0x00000000 x31=0x206cbbec
       58435000	      5842	80000a40	dbb30be7	jalr	x23,x6,-581	  x6:0x80000fc5 x23=0x80000a40
       58445000	      5843	00000000	00000013	addi	x0,x0,0	  x0:0x00000000
       58455000	      5844	80000d80	00000013	addi	x0,x0,0	  x0:0x00000000
       58465000	      5845	80000d84	019e0f33	add	x30,x28,x25	 x28:0x00000000 x25:0x5a997000 x30=0x5a997000
       58475000	      5846	80000d88	401ad9b3	sra	x19,x21,x1	 x21:0x80009f28  x1:0x00000000 x19=0x80009f28
       58485000	      5847	80000d8c	00cf28b3	slt	x17,x30,x12	 x30:0x5a997000 x12:0x00000000 x17=0x00000000
       58495000	      5848	80000d90	3db2a293	slti	x5,x5,987	  x5:0x00000006  x5=0x00000001
       58505000	      5849	80000d94	ff8a8a93	addi	x21,x21,-8	 x21:0x80009f28 x21=0x80009f20
       58515000	      5850	80000d98	00345db3	srl	x27,x8,x3	  x8:0x453fa000  x3:0x0000020d x27=0x000229fd
       58525000	      5851	80000d9c	017aa223	sw	x23,4(x21)	 x21:0x80009f20 x23:0x80000a40 PA:0x80009f24
       58535000	      5852	80000da0	00f75d13	srli	x26,x14,0xf	 x14:0x453fa09c x26=0x00008a7f
       58545000	      5853	80000da4	001b25b3	slt	x11,x22,x1	 x22:0x00000000  x1:0x00000000 x11=0x00000000
       58555000	      5854	80000da8	40b489b3	sub	x19,x9,x11	  x9:0xd3040000 x11:0x00000000 x19=0xd3040000
       58565000	      5855	80000dac	00100093	addi	x1,x0,1	  x0:0x00000000  x1=0x00000001
       58575000	      5856	80000db0	01f15493	srli	x9,x2,0x1f	  x2:0x00000000  x9=0x00000000
       58585000	      5857	80000db4	40a486b3	sub	x13,x9,x10	  x9:0x00000000 x10:0x80002d28 x13=0x7fffd2d8
       58595000	      5858	80000db8	40b95193	srai	x3,x18,0xb	 x18:0x80009fc4  x3=0xfff00013
       58605000	      5859	80000dbc	ffb00313	addi	x6,x0,-5	  x0:0x00000000  x6=0xfffffffb
       58615000	      5860	80000dc0	206f3813	sltiu	x16,x30,518	 x30:0x5a997000 x16=0x00000000
       58625000	      5861	80000dc4	4185d193	srai	x3,x11,0x18	 x11:0x00000000  x3=0x00000000
       58635000	      5862	80000dc8	01f2fbb3	and	x23,x5,x31	  x5:0x00000001 x31:0x206cbbec x23=0x00000000
       58645000	      5863	80000dcc	00000013	addi	x0,x0,0	  x0:0x00000000
       58655000	      5864	80000dd0	40fa8833	sub	x16,x21,x15	 x21:0x80009f20 x15:0x80009fc4 x16=0xffffff5c
       58665000	      5865	80000dd4	00fc6e33	or	x28,x24,x15	 x24:0x7fffd7c4 x15:0x80009fc4 x28=0xffffdfc4
       58675000	      5866	80000dd8	005a4e33	xor	x28,x20,x5	 x20:0x00000000  x5:0x00000001 x28=0x00000001
       58685000	      5867	80000ddc	0116b4b3	sltu	x9,x13,x17	 x13:0x7fffd2d8 x17:0x00000000  x9=0x00000000
       58695000	      5868	80000de0	416d0a33	sub	x20,x26,x22	 x26:0x00008a7f x22:0x00000000 x20=0x00008a7f
       58705000	      5869	80000de4	b84f3f97	auipc	x31,0xb84f3	 x31=0x384f3de0
       58715000	      5870	80000de8	4037d693	srai	x13,x15,0x3	 x15:0x80009fc4 x13=0xf00013f8
       58725000	      5871	80000dec	41bd52b3	sra	x5,x26,x27	 x26:0x00008a7f x27:0x000229fd  x5=0x00000000
       58735000	      5872	80000df0	ffa08093	addi	x1,x1,-6	  x1:0x00000001  x1=0xfffffffb
       58745000	      5873	80000df4	6f26f137	lui	x2,0x6f26f	  x2=0x6f26f000
       58755000	      5874	80000df8	016f1533	sll	x10,x30,x22	 x30:0x5a997000 x22:0x00000000 x10=0x5a997000
       58765000	      5875	80000dfc	00041713	slli	x14,x8,0x0	  x8:0x453fa000 x14=0x453fa000
       58775000	      5876	80000e00	4003d693	srai	x13,x7,0x0	  x7:0x5a997000 x13=0x5a997000
       58785000	      5877	80000e04	fc6082e3	beq	x1,x6,80000dc8	  x1:0xfffffffb  x6:0xfffffffb
       58795000	      5878	00000000	00000013	addi	x0,x0,0	  x0:0x00000000
       58805000	      5879	80000dc4	00000013	addi	x0,x0,0	  x0:0x00000000
       58815000	      5880	80000dc8	01f2fbb3	and	x23,x5,x31	  x5:0x00000000 x31:0x384f3de0 x23=0x00000000
       58825000	      5881	80000dcc	00000013	addi	x0,x0,0	  x0:0x00000000
       58835000	      5882	80000dd0	40fa8833	sub	x16,x21,x15	 x21:0x80009f20 x15:0x80009fc4 x16=0xffffff5c
       58845000	      5883	80000dd4	00fc6e33	or	x28,x24,x15	 x24:0x7fffd7c4 x15:0x80009fc4 x28=0xffffdfc4
       58855000	      5884	80000dd8	005a4e33	xor	x28,x20,x5	 x20:0x00008a7f  x5:0x00000000 x28=0x00008a7f
       58865000	      5885	80000ddc	0116b4b3	sltu	x9,x13,x17	 x13:0x5a997000 x17:0x00000000  x9=0x00000000
       58875000	      5886	80000de0	416d0a33	sub	x20,x26,x22	 x26:0x00008a7f x22:0x00000000 x20=0x00008a7f
       58885000	      5887	80000de4	b84f3f97	auipc	x31,0xb84f3	 x31=0x384f3de0
       58895000	      5888	80000de8	4037d693	srai	x13,x15,0x3	 x15:0x80009fc4 x13=0xf00013f8
       58905000	      5889	80000dec	41bd52b3	sra	x5,x26,x27	 x26:0x00008a7f x27:0x000229fd  x5=0x00000000
       58915000	      5890	80000df0	ffa08093	addi	x1,x1,-6	  x1:0xfffffffb  x1=0xfffffff5
       58925000	      5891	80000df4	6f26f137	lui	x2,0x6f26f	  x2=0x6f26f000
       58935000	      5892	80000df8	016f1533	sll	x10,x30,x22	 x30:0x5a997000 x22:0x00000000 x10=0x5a997000
       58945000	      5893	80000dfc	00041713	slli	x14,x8,0x0	  x8:0x453fa000 x14=0x453fa000
       58955000	      5894	80000e00	4003d693	srai	x13,x7,0x0	  x7:0x5a997000 x13=0x5a997000
       58965000	      5895	80000e04	fc6082e3	beq	x1,x6,80000dc8	  x1:0xfffffff5  x6:0xfffffffb
       58975000	      5896	80000e08	a066d917	auipc	x18,0xa066d	 x18=0x2066de04
       58985000	      5897	80000e0c	00800313	addi	x6,x0,8	  x0:0x00000000  x6=0x00000008
       58995000	      5898	80000e10	00800f93	addi	x31,x0,8	  x0:0x00000000 x31=0x00000008
       59005000	      5899	80000e14	c30eae97	auipc	x29,0xc30ea	 x29=0x430eae10
       59015000	      5900	80000e18	ffb30313	addi	x6,x6,-5	  x6:0x00000008  x6=0x00000003
       59025000	      5901	80000e1c	fff37ce3	bgeu	x6,x31,80000e14	  x6:0x00000003 x31:0x00000008
       59035000	      5902	80000e20	01f1d433	srl	x8,x3,x31	  x3:0x00000000 x31:0x00000008  x8=0x00000000
       59045000	      5903	80000e24	00100513	addi	x10,x0,1	  x0:0x00000000 x10=0x00000001
       59055000	      5904	80000e28	01131433	sll	x8,x6,x17	  x6:0x00000003 x17:0x00000000  x8=0x00000003
       59065000	      5905	80000e2c	00900813	addi	x16,x0,9	  x0:0x00000000 x16=0x00000009
       59075000	      5906	80000e30	be3c7a13	andi	x20,x24,-1053	 x24:0x7fffd7c4 x20=0x7fffd3c0
       59085000	      5907	80000e34	00850513	addi	x10,x10,8	 x10:0x00000001 x10=0x00000009
       59095000	      5908	80000e38	00300c13	addi	x24,x0,3	  x0:0x00000000 x24=0x00000003
       59105000	      5909	80000e3c	ffc00613	addi	x12,x0,-4	  x0:0x00000000 x12=0xfffffffc
       59115000	      5910	80000e40	2d9295b7	lui	x11,0x2d929	 x11=0x2d929000
       59125000	      5911	80000e44	00000013	addi	x0,x0,0	  x0:0x00000000
       59135000	      5912	80000e48	ff7c0c13	addi	x24,x24,-9	 x24:0x00000003 x24=0xfffffffa
       59145000	      5913	80000e4c	fecc5ce3	bge	x24,x12,80000e44	 x24:0xfffffffa x12:0xfffffffc
       59155000	      5914	80000e50	ff0500e3	beq	x10,x16,80000e30	 x10:0x00000009 x16:0x00000009
       59165000	      5915	00000000	00000013	addi	x0,x0,0	  x0:0x00000000
       59175000	      5916	80000e2c	00000013	addi	x0,x0,0	  x0:0x00000000
       59185000	      5917	80000e30	be3c7a13	andi	x20,x24,-1053	 x24:0xfffffffa x20=0xfffffbe2
       59195000	      5918	80000e34	00850513	addi	x10,x10,8	 x10:0x00000009 x10=0x00000011
       59205000	      5919	80000e38	00300c13	addi	x24,x0,3	  x0:0x00000000 x24=0x00000003
       59215000	      5920	80000e3c	ffc00613	addi	x12,x0,-4	  x0:0x00000000 x12=0xfffffffc
       59225000	      5921	80000e40	2d9295b7	lui	x11,0x2d929	 x11=0x2d929000
       59235000	      5922	80000e44	00000013	addi	x0,x0,0	  x0:0x00000000
       59245000	      5923	80000e48	ff7c0c13	addi	x24,x24,-9	 x24:0x00000003 x24=0xfffffffa
       59255000	      5924	80000e4c	fecc5ce3	bge	x24,x12,80000e44	 x24:0xfffffffa x12:0xfffffffc
       59265000	      5925	80000e50	ff0500e3	beq	x10,x16,80000e30	 x10:0x00000011 x16:0x00000009
       59275000	      5926	80000e54	ce940413	addi	x8,x8,-791	  x8:0x00000003  x8=0xfffffcec
       59285000	      5927	80000e58	00700213	addi	x4,x0,7	  x0:0x00000000  x4=0x00000007
       59295000	      5928	80000e5c	48b22d93	slti	x27,x4,1163	  x4:0x00000007 x27=0x00000001
       59305000	      5929	80000e60	01476833	or	x16,x14,x20	 x14:0x453fa000 x20:0xfffffbe2 x16=0xfffffbe2
       59315000	      5930	80000e64	015b5693	srli	x13,x22,0x15	 x22:0x00000000 x13=0x00000000
       59325000	      5931	80000e68	008f93b3	sll	x7,x31,x8	 x31:0x00000008  x8:0xfffffcec  x7=0x00008000
       59335000	      5932	80000e6c	aa98c613	xori	x12,x17,-1367	 x17:0x00000000 x12=0xfffffaa9
       59345000	      5933	80000e70	00600293	addi	x5,x0,6	  x0:0x00000000  x5=0x00000006
       59355000	      5934	80000e74	fcebe697	auipc	x13,0xfcebe	 x13=0x7cebee70
       59365000	      5935	80000e78	4002dd33	sra	x26,x5,x0	  x5:0x00000006  x0:0x00000000 x26=0x00000006
       59375000	      5936	80000e7c	13fd7c97	auipc	x25,0x13fd7	 x25=0x93fd7e78
       59385000	      5937	80000e80	ffc20213	addi	x4,x4,-4	  x4:0x00000007  x4=0x00000003
       59395000	      5938	80000e84	0125ba33	sltu	x20,x11,x18	 x11:0x2d929000 x18:0x2066de04 x20=0x00000000
       59405000	      5939	80000e88	00428db3	add	x27,x5,x4	  x5:0x00000006  x4:0x00000003 x27=0x00000009
       59415000	      5940	80000e8c	005575b3	and	x11,x10,x5	 x10:0x00000011  x5:0x00000006 x11=0x00000000
       59425000	      5941	80000e90	00470133	add	x2,x14,x4	 x14:0x453fa000  x4:0x00000003  x2=0x453fa003
       59435000	      5942	80000e94	ea376393	ori	x7,x14,-349	 x14:0x453fa000  x7=0xfffffea3
       59445000	      5943	80000e98	fa3fff93	andi	x31,x31,-93	 x31:0x00000008 x31=0x00000000
       59455000	      5944	80000e9c	980ce917	auipc	x18,0x980ce	 x18=0x180cee98
       59465000	      5945	80000ea0	fc527ae3	bgeu	x4,x5,80000e74	  x4:0x00000003  x5:0x00000006
       59475000	      5946	80000ea4	00f3dd93	srli	x27,x7,0xf	  x7:0xfffffea3 x27=0x0001ffff
       59485000	      5947	80000ea8	00a00f13	addi	x30,x0,10	  x0:0x00000000 x30=0x0000000a
       59495000	      5948	80000eac	ce6abe13	sltiu	x28,x21,-794	 x21:0x80009f20 x28=0x00000001
       59505000	      5949	80000eb0	0f43b637	lui	x12,0xf43b	 x12=0x0f43b000
       59515000	      5950	80000eb4	41695fb3	sra	x31,x18,x22	 x18:0x180cee98 x22:0x00000000 x31=0x180cee98
       59525000	      5951	80000eb8	002a9433	sll	x8,x21,x2	 x21:0x80009f20  x2:0x453fa003  x8=0x0004f900
       59535000	      5952	80000ebc	b041d917	auipc	x18,0xb041d	 x18=0x3041deb8
       59545000	      5953	80000ec0	6a79c937	lui	x18,0x6a79c	 x18=0x6a79c000
       59555000	      5954	80000ec4	00a00493	addi	x9,x0,10	  x0:0x00000000  x9=0x0000000a
       59565000	      5955	80000ec8	011e3d33	sltu	x26,x28,x17	 x28:0x00000001 x17:0x00000000 x26=0x00000000
       59575000	      5956	80000ecc	00f53fb3	sltu	x31,x10,x15	 x10:0x00000011 x15:0x80009fc4 x31=0x00000001
       59585000	      5957	80000ed0	015033b3	sltu	x7,x0,x21	  x0:0x00000000 x21:0x80009f20  x7=0x00000001
       59595000	      5958	80000ed4	00aa0633	add	x12,x20,x10	 x20:0x00000000 x10:0x00000011 x12=0x00000011
       59605000	      5959	80000ed8	f0bbf0b7	lui	x1,0xf0bbf	  x1=0xf0bbf000
       59615000	      5960	80000edc	00f95893	srli	x17,x18,0xf	 x18:0x6a79c000 x17=0x0000d4f3
       59625000	      5961	80000ee0	034b3113	sltiu	x2,x22,52	 x22:0x00000000  x2=0x00000001
       59635000	      5962	80000ee4	001673b3	and	x7,x12,x1	 x12:0x00000011  x1:0xf0bbf000  x7=0x00000000
       59645000	      5963	80000ee8	ff7f0f13	addi	x30,x30,-9	 x30:0x0000000a x30=0x00000001
       59655000	      5964	80000eec	002702b3	add	x5,x14,x2	 x14:0x453fa000  x2:0x00000001  x5=0x453fa001
       59665000	      5965	80000ef0	439e7593	andi	x11,x28,1081	 x28:0x00000001 x11=0x00000001
       59675000	      5966	80000ef4	6903af93	slti	x31,x7,1680	  x7:0x00000000 x31=0x00000001
       59685000	      5967	80000ef8	aff94593	xori	x11,x18,-1281	 x18:0x6a79c000 x11=0x95863aff
       59695000	      5968	80000efc	00000013	addi	x0,x0,0	  x0:0x00000000
       59705000	      5969	80000f00	1d388813	addi	x16,x17,467	 x17:0x0000d4f3 x16=0x0000d6c6
       59715000	      5970	80000f04	a1d75a17	auipc	x20,0xa1d75	 x20=0x21d75f00
       59725000	      5971	80000f08	4195dc13	srai	x24,x11,0x19	 x11:0x95863aff x24=0xffffffca
       59735000	      5972	80000f0c	fa9f7ee3	bgeu	x30,x9,80000ec8	 x30:0x00000001  x9:0x0000000a
       59745000	      5973	80000f10	00000013	addi	x0,x0,0	  x0:0x00000000
       59755000	      5974	80000f14	00a00713	addi	x14,x0,10	  x0:0x00000000 x14=0x0000000a
       59765000	      5975	80000f18	9eacb993	sltiu	x19,x25,-1558	 x25:0x93fd7e78 x19=0x00000001
       59775000	      5976	80000f1c	00e42333	slt	x6,x8,x14	  x8:0x0004f900 x14:0x0000000a  x6=0x00000000
       59785000	      5977	80000f20	68407893	andi	x17,x0,1668	  x0:0x00000000 x17=0x00000000
       59795000	      5978	80000f24	00900a13	addi	x20,x0,9	  x0:0x00000000 x20=0x00000009
       59805000	      5979	80000f28	f2d14317	auipc	x6,0xf2d14	  x6=0x72d14f24
       59815000	      5980	80000f2c	ff870713	addi	x14,x14,-8	 x14:0x0000000a x14=0x00000002
       59825000	      5981	80000f30	c94c0913	addi	x18,x24,-876	 x24:0xffffffca x18=0xfffffc5e
       59835000	      5982	80000f34	00dc0eb3	add	x29,x24,x13	 x24:0xffffffca x13:0x7cebee70 x29=0x7cebee3a
       59845000	      5983	80000f38	01a2c633	xor	x12,x5,x26	  x5:0x453fa001 x26:0x00000000 x12=0x453fa001
       59855000	      5984	80000f3c	403cd593	srai	x11,x25,0x3	 x25:0x93fd7e78 x11=0xf27fafcf
       59865000	      5985	80000f40	010be933	or	x18,x23,x16	 x23:0x00000000 x16:0x0000d6c6 x18=0x0000d6c6
       59875000	      5986	80000f44	401a5433	sra	x8,x20,x1	 x20:0x00000009  x1:0xf0bbf000  x8=0x00000009
       59885000	      5987	80000f48	41bcdbb3	sra	x23,x25,x27	 x25:0x93fd7e78 x27:0x0001ffff x23=0xffffffff
       59895000	      5988	80000f4c	ace7f993	andi	x19,x15,-1330	 x15:0x80009fc4 x19=0x80009ac4
       59905000	      5989	80000f50	010529b3	slt	x19,x10,x16	 x10:0x00000011 x16:0x0000d6c6 x19=0x00000001
       59915000	      5990	80000f54	ffe00493	addi	x9,x0,-2	  x0:0x00000000  x9=0xfffffffe
       59925000	      5991	80000f58	00445d93	srli	x27,x8,0x4	  x8:0x00000009 x27=0x00000000
       59935000	      5992	80000f5c	00400293	addi	x5,x0,4	  x0:0x00000000  x5=0x00000004
       59945000	      5993	80000f60	d5b66913	ori	x18,x12,-677	 x12:0x453fa001 x18=0xfffffd5b
       59955000	      5994	80000f64	0b57fe93	andi	x29,x15,181	 x15:0x80009fc4 x29=0x00000084
       59965000	      5995	80000f68	f7a258b7	lui	x17,0xf7a25	 x17=0xf7a25000
       59975000	      5996	80000f6c	1b830697	auipc	x13,0x1b830	 x13=0x9b830f68
       59985000	      5997	80000f70	00e5e933	or	x18,x11,x14	 x11:0xf27fafcf x14:0x00000002 x18=0xf27fafcf
       59995000	      5998	80000f74	c5543013	sltiu	x0,x8,-939	  x8:0x00000009
       60005000	      5999	80000f78	00448493	addi	x9,x9,4	  x9:0xfffffffe  x9=0x00000002
       60015000	      6000	80000f7c	fe54e6e3	bltu	x9,x5,80000f68	  x9:0x00000002  x5:0x00000004
       60025000	      6001	00000000	00000013	addi	x0,x0,0	  x0:0x00000000
       60035000	      6002	80000f64	00000013	addi	x0,x0,0	  x0:0x00000000
       60045000	      6003	80000f68	f7a258b7	lui	x17,0xf7a25	 x17=0xf7a25000
       60055000	      6004	80000f6c	1b830697	auipc	x13,0x1b830	 x13=0x9b830f68
       60065000	      6005	80000f70	00e5e933	or	x18,x11,x14	 x11:0xf27fafcf x14:0x00000002 x18=0xf27fafcf
       60075000	      6006	80000f74	c5543013	sltiu	x0,x8,-939	  x8:0x00000009
       60085000	      6007	80000f78	00448493	addi	x9,x9,4	  x9:0x00000002  x9=0x00000006
       60095000	      6008	80000f7c	fe54e6e3	bltu	x9,x5,80000f68	  x9:0x00000006  x5:0x00000004
       60105000	      6009	80000f80	01341113	slli	x2,x8,0x13	  x8:0x00000009  x2=0x00480000
       60115000	      6010	80000f84	01d79bb3	sll	x23,x15,x29	 x15:0x80009fc4 x29:0x00000084 x23=0x0009fc40
       60125000	      6011	80000f88	ce222f93	slti	x31,x4,-798	  x4:0x00000003 x31=0x00000000
       60135000	      6012	80000f8c	41065633	sra	x12,x12,x16	 x12:0x453fa001 x16:0x0000d6c6 x12=0x0114fe80
       60145000	      6013	80000f90	00ba0fb3	add	x31,x20,x11	 x20:0x00000009 x11:0xf27fafcf x31=0xf27fafd8
       60155000	      6014	80000f94	f9477ae3	bgeu	x14,x20,80000f28	 x14:0x00000002 x20:0x00000009
       60165000	      6015	80000f98	00000013	addi	x0,x0,0	  x0:0x00000000
       60175000	      6016	80000f9c	00900513	addi	x10,x0,9	  x0:0x00000000 x10=0x00000009
       60185000	      6017	80000fa0	01257033	and	x0,x10,x18	 x10:0x00000009 x18:0xf27fafcf
       60195000	      6018	80000fa4	68217613	andi	x12,x2,1666	  x2:0x00480000 x12=0x00000000
       60205000	      6019	80000fa8	ffc00093	addi	x1,x0,-4	  x0:0x00000000  x1=0xfffffffc
       60215000	      6020	80000fac	0056f9b3	and	x19,x13,x5	 x13:0x9b830f68  x5:0x00000004 x19=0x00000000
       60225000	      6021	80000fb0	015e3633	sltu	x12,x28,x21	 x28:0x00000001 x21:0x80009f20 x12=0x00000001
       60235000	      6022	80000fb4	6b13a993	slti	x19,x7,1713	  x7:0x00000000 x19=0x00000001
       60245000	      6023	80000fb8	018e3cb3	sltu	x25,x28,x24	 x28:0x00000001 x24:0xffffffca x25=0x00000001
       60255000	      6024	80000fbc	01c406b3	add	x13,x8,x28	  x8:0x00000009 x28:0x00000001 x13=0x0000000a
       60265000	      6025	80000fc0	ff750513	addi	x10,x10,-9	 x10:0x00000009 x10=0x00000000
       60275000	      6026	80000fc4	ffc00a13	addi	x20,x0,-4	  x0:0x00000000 x20=0xfffffffc
       60285000	      6027	80000fc8	01b58233	add	x4,x11,x27	 x11:0xf27fafcf x27:0x00000000  x4=0xf27fafcf
       60295000	      6028	80000fcc	00c00593	addi	x11,x0,12	  x0:0x00000000 x11=0x0000000c
       60305000	      6029	80000fd0	40520833	sub	x16,x4,x5	  x4:0xf27fafcf  x5:0x00000004 x16=0xf27fafcb
       60315000	      6030	80000fd4	0143ad33	slt	x26,x7,x20	  x7:0x00000000 x20:0xfffffffc x26=0x00000000
       60325000	      6031	80000fd8	40830bb3	sub	x23,x6,x8	  x6:0x72d14f24  x8:0x00000009 x23=0x72d14f1b
       60335000	      6032	80000fdc	4111d813	srai	x16,x3,0x11	  x3:0x00000000 x16=0x00000000
       60345000	      6033	80000fe0	01a8a893	slti	x17,x17,26	 x17:0xf7a25000 x17=0x00000001
       60355000	      6034	80000fe4	001a0a13	addi	x20,x20,1	 x20:0xfffffffc x20=0xfffffffd
       60365000	      6035	80000fe8	41cd51b3	sra	x3,x26,x28	 x26:0x00000000 x28:0x00000001  x3=0x00000000
       60375000	      6036	80000fec	01037033	and	x0,x6,x16	  x6:0x72d14f24 x16:0x00000000
       60385000	      6037	80000ff0	feba62e3	bltu	x20,x11,80000fd4	 x20:0xfffffffd x11:0x0000000c
       60395000	      6038	80000ff4	01746033	or	x0,x8,x23	  x8:0x00000009 x23:0x72d14f1b
       60405000	      6039	80000ff8	0169e9b3	or	x19,x19,x22	 x19:0x00000001 x22:0x00000000 x19=0x00000001
       60415000	      6040	80000ffc	1e59e437	lui	x8,0x1e59e	  x8=0x1e59e000
       60425000	      6041	80001000	01b94833	xor	x16,x18,x27	 x18:0xf27fafcf x27:0x00000000 x16=0xf27fafcf
       60435000	      6042	80001004	00b8c433	xor	x8,x17,x11	 x17:0x00000001 x11:0x0000000c  x8=0x0000000d
       60445000	      6043	80001008	fa1554e3	bge	x10,x1,80000fb0	 x10:0x00000000  x1:0xfffffffc
       60455000	      6044	00000000	00000013	addi	x0,x0,0	  x0:0x00000000
       60465000	      6045	80000fac	00000013	addi	x0,x0,0	  x0:0x00000000
       60475000	      6046	80000fb0	015e3633	sltu	x12,x28,x21	 x28:0x00000001 x21:0x80009f20 x12=0x00000001
       60485000	      6047	80000fb4	6b13a993	slti	x19,x7,1713	  x7:0x00000000 x19=0x00000001
       60495000	      6048	80000fb8	018e3cb3	sltu	x25,x28,x24	 x28:0x00000001 x24:0xffffffca x25=0x00000001
       60505000	      6049	80000fbc	01c406b3	add	x13,x8,x28	  x8:0x0000000d x28:0x00000001 x13=0x0000000e
       60515000	      6050	80000fc0	ff750513	addi	x10,x10,-9	 x10:0x00000000 x10=0xfffffff7
       60525000	      6051	80000fc4	ffc00a13	addi	x20,x0,-4	  x0:0x00000000 x20=0xfffffffc
       60535000	      6052	80000fc8	01b58233	add	x4,x11,x27	 x11:0x0000000c x27:0x00000000  x4=0x0000000c
       60545000	      6053	80000fcc	00c00593	addi	x11,x0,12	  x0:0x00000000 x11=0x0000000c
       60555000	      6054	80000fd0	40520833	sub	x16,x4,x5	  x4:0x0000000c  x5:0x00000004 x16=0x00000008
       60565000	      6055	80000fd4	0143ad33	slt	x26,x7,x20	  x7:0x00000000 x20:0xfffffffc x26=0x00000000
       60575000	      6056	80000fd8	40830bb3	sub	x23,x6,x8	  x6:0x72d14f24  x8:0x0000000d x23=0x72d14f17
       60585000	      6057	80000fdc	4111d813	srai	x16,x3,0x11	  x3:0x00000000 x16=0x00000000
       60595000	      6058	80000fe0	01a8a893	slti	x17,x17,26	 x17:0x00000001 x17=0x00000001
       60605000	      6059	80000fe4	001a0a13	addi	x20,x20,1	 x20:0xfffffffc x20=0xfffffffd
       60615000	      6060	80000fe8	41cd51b3	sra	x3,x26,x28	 x26:0x00000000 x28:0x00000001  x3=0x00000000
       60625000	      6061	80000fec	01037033	and	x0,x6,x16	  x6:0x72d14f24 x16:0x00000000
       60635000	      6062	80000ff0	feba62e3	bltu	x20,x11,80000fd4	 x20:0xfffffffd x11:0x0000000c
       60645000	      6063	80000ff4	01746033	or	x0,x8,x23	  x8:0x0000000d x23:0x72d14f17
       60655000	      6064	80000ff8	0169e9b3	or	x19,x19,x22	 x19:0x00000001 x22:0x00000000 x19=0x00000001
       60665000	      6065	80000ffc	1e59e437	lui	x8,0x1e59e	  x8=0x1e59e000
       60675000	      6066	80001000	01b94833	xor	x16,x18,x27	 x18:0xf27fafcf x27:0x00000000 x16=0xf27fafcf
       60685000	      6067	80001004	00b8c433	xor	x8,x17,x11	 x17:0x00000001 x11:0x0000000c  x8=0x0000000d
       60695000	      6068	80001008	fa1554e3	bge	x10,x1,80000fb0	 x10:0xfffffff7  x1:0xfffffffc
       60705000	      6069	8000100c	513ecb97	auipc	x23,0x513ec	 x23=0xd13ed008
       60715000	      6070	80001010	00800393	addi	x7,x0,8	  x0:0x00000000  x7=0x00000008
       60725000	      6071	80001014	8a872693	slti	x13,x14,-1880	 x14:0x00000002 x13=0x00000000
       60735000	      6072	80001018	40d38bb3	sub	x23,x7,x13	  x7:0x00000008 x13:0x00000000 x23=0x00000008
       60745000	      6073	8000101c	41da8d33	sub	x26,x21,x29	 x21:0x80009f20 x29:0x00000084 x26=0x80009e9c
       60755000	      6074	80001020	003e9713	slli	x14,x29,0x3	 x29:0x00000084 x14=0x00000420
       60765000	      6075	80001024	5ab34693	xori	x13,x6,1451	  x6:0x72d14f24 x13=0x72d14a8f
       60775000	      6076	80001028	00b00113	addi	x2,x0,11	  x0:0x00000000  x2=0x0000000b
       60785000	      6077	8000102c	01dfd713	srli	x14,x31,0x1d	 x31:0xf27fafd8 x14=0x00000007
       60795000	      6078	80001030	00000013	addi	x0,x0,0	  x0:0x00000000
       60805000	      6079	80001034	01221f13	slli	x30,x4,0x12	  x4:0x0000000c x30=0x00300000
       60815000	      6080	80001038	a9467613	andi	x12,x12,-1388	 x12:0x00000001 x12=0x00000000
       60825000	      6081	8000103c	0133d433	srl	x8,x7,x19	  x7:0x00000008 x19:0x00000001  x8=0x00000004
       60835000	      6082	80001040	00a38393	addi	x7,x7,10	  x7:0x00000008  x7=0x00000012
       60845000	      6083	80001044	dbbb84b7	lui	x9,0xdbbb8	  x9=0xdbbb8000
       60855000	      6084	80001048	00356733	or	x14,x10,x3	 x10:0xfffffff7  x3:0x00000000 x14=0xfffffff7
       60865000	      6085	8000104c	415a0033	sub	x0,x20,x21	 x20:0xfffffffd x21:0x80009f20
       60875000	      6086	80001050	00774c33	xor	x24,x14,x7	 x14:0xfffffff7  x7:0x00000012 x24=0xffffffe5
       60885000	      6087	80001054	016f4033	xor	x0,x30,x22	 x30:0x00300000 x22:0x00000000
       60895000	      6088	80001058	ff2ec037	lui	x0,0xff2ec	
       60905000	      6089	8000105c	fc23cee3	blt	x7,x2,80001038	  x7:0x00000012  x2:0x0000000b
       60915000	      6090	80001060	013498b3	sll	x17,x9,x19	  x9:0xdbbb8000 x19:0x00000001 x17=0xb7770000
       60925000	      6091	80001064	00a00513	addi	x10,x0,10	  x0:0x00000000 x10=0x0000000a
       60935000	      6092	80001068	108c2413	slti	x8,x24,264	 x24:0xffffffe5  x8=0x00000001
       60945000	      6093	8000106c	b7404393	xori	x7,x0,-1164	  x0:0x00000000  x7=0xfffffb74
       60955000	      6094	80001070	00cb0e33	add	x28,x22,x12	 x22:0x00000000 x12:0x00000000 x28=0x00000000
       60965000	      6095	80001074	13889337	lui	x6,0x13889	  x6=0x13889000
       60975000	      6096	80001078	005ed393	srli	x7,x29,0x5	 x29:0x00000084  x7=0x00000004
       60985000	      6097	8000107c	fc06cb93	xori	x23,x13,-64	 x13:0x72d14a8f x23=0x8d2eb54f
       60995000	      6098	80001080	ff600193	addi	x3,x0,-10	  x0:0x00000000  x3=0xfffffff6
       61005000	      6099	80001084	01bcef33	or	x30,x25,x27	 x25:0x00000001 x27:0x00000000 x30=0x00000001
       61015000	      6100	80001088	ff650513	addi	x10,x10,-10	 x10:0x0000000a x10=0x00000000
       61025000	      6101	8000108c	00000113	addi	x2,x0,0	  x0:0x00000000  x2=0x00000000
       61035000	      6102	80001090	01f0e333	or	x6,x1,x31	  x1:0xfffffffc x31:0xf27fafd8  x6=0xfffffffc
       61045000	      6103	80001094	00800e93	addi	x29,x0,8	  x0:0x00000000 x29=0x00000008
       61055000	      6104	80001098	cab63693	sltiu	x13,x12,-853	 x12:0x00000000 x13=0x00000001
       61065000	      6105	8000109c	403b5f93	srai	x31,x22,0x3	 x22:0x00000000 x31=0x00000000
       61075000	      6106	800010a0	0141a4b3	slt	x9,x3,x20	  x3:0xfffffff6 x20:0xfffffffd  x9=0x00000001
       61085000	      6107	800010a4	00000013	addi	x0,x0,0	  x0:0x00000000
       61095000	      6108	800010a8	00410113	addi	x2,x2,4	  x2:0x00000000  x2=0x00000004
       61105000	      6109	800010ac	41ad5293	srai	x5,x26,0x1a	 x26:0x80009e9c  x5=0xffffffe0
       61115000	      6110	800010b0	005a9db3	sll	x27,x21,x5	 x21:0x80009f20  x5:0xffffffe0 x27=0x80009f20
       61125000	      6111	800010b4	ffd166e3	bltu	x2,x29,800010a0	  x2:0x00000004 x29:0x00000008
       61135000	      6112	00000000	00000013	addi	x0,x0,0	  x0:0x00000000
       61145000	      6113	8000109c	00000013	addi	x0,x0,0	  x0:0x00000000
       61155000	      6114	800010a0	0141a4b3	slt	x9,x3,x20	  x3:0xfffffff6 x20:0xfffffffd  x9=0x00000001
       61165000	      6115	800010a4	00000013	addi	x0,x0,0	  x0:0x00000000
       61175000	      6116	800010a8	00410113	addi	x2,x2,4	  x2:0x00000004  x2=0x00000008
       61185000	      6117	800010ac	41ad5293	srai	x5,x26,0x1a	 x26:0x80009e9c  x5=0xffffffe0
       61195000	      6118	800010b0	005a9db3	sll	x27,x21,x5	 x21:0x80009f20  x5:0xffffffe0 x27=0x80009f20
       61205000	      6119	800010b4	ffd166e3	bltu	x2,x29,800010a0	  x2:0x00000008 x29:0x00000008
       61215000	      6120	800010b8	fc3516e3	bne	x10,x3,80001084	 x10:0x00000000  x3:0xfffffff6
       61225000	      6121	00000000	00000013	addi	x0,x0,0	  x0:0x00000000
       61235000	      6122	80001080	00000013	addi	x0,x0,0	  x0:0x00000000
       61245000	      6123	80001084	01bcef33	or	x30,x25,x27	 x25:0x00000001 x27:0x80009f20 x30=0x80009f21
       61255000	      6124	80001088	ff650513	addi	x10,x10,-10	 x10:0x00000000 x10=0xfffffff6
       61265000	      6125	8000108c	00000113	addi	x2,x0,0	  x0:0x00000000  x2=0x00000000
       61275000	      6126	80001090	01f0e333	or	x6,x1,x31	  x1:0xfffffffc x31:0x00000000  x6=0xfffffffc
       61285000	      6127	80001094	00800e93	addi	x29,x0,8	  x0:0x00000000 x29=0x00000008
       61295000	      6128	80001098	cab63693	sltiu	x13,x12,-853	 x12:0x00000000 x13=0x00000001
       61305000	      6129	8000109c	403b5f93	srai	x31,x22,0x3	 x22:0x00000000 x31=0x00000000
       61315000	      6130	800010a0	0141a4b3	slt	x9,x3,x20	  x3:0xfffffff6 x20:0xfffffffd  x9=0x00000001
       61325000	      6131	800010a4	00000013	addi	x0,x0,0	  x0:0x00000000
       61335000	      6132	800010a8	00410113	addi	x2,x2,4	  x2:0x00000000  x2=0x00000004
       61345000	      6133	800010ac	41ad5293	srai	x5,x26,0x1a	 x26:0x80009e9c  x5=0xffffffe0
       61355000	      6134	800010b0	005a9db3	sll	x27,x21,x5	 x21:0x80009f20  x5:0xffffffe0 x27=0x80009f20
       61365000	      6135	800010b4	ffd166e3	bltu	x2,x29,800010a0	  x2:0x00000004 x29:0x00000008
       61375000	      6136	00000000	00000013	addi	x0,x0,0	  x0:0x00000000
       61385000	      6137	8000109c	00000013	addi	x0,x0,0	  x0:0x00000000
       61395000	      6138	800010a0	0141a4b3	slt	x9,x3,x20	  x3:0xfffffff6 x20:0xfffffffd  x9=0x00000001
       61405000	      6139	800010a4	00000013	addi	x0,x0,0	  x0:0x00000000
       61415000	      6140	800010a8	00410113	addi	x2,x2,4	  x2:0x00000004  x2=0x00000008
       61425000	      6141	800010ac	41ad5293	srai	x5,x26,0x1a	 x26:0x80009e9c  x5=0xffffffe0
       61435000	      6142	800010b0	005a9db3	sll	x27,x21,x5	 x21:0x80009f20  x5:0xffffffe0 x27=0x80009f20
       61445000	      6143	800010b4	ffd166e3	bltu	x2,x29,800010a0	  x2:0x00000008 x29:0x00000008
       61455000	      6144	800010b8	fc3516e3	bne	x10,x3,80001084	 x10:0xfffffff6  x3:0xfffffff6
       61465000	      6145	800010bc	003082b3	add	x5,x1,x3	  x1:0xfffffffc  x3:0xfffffff6  x5=0xfffffff2
       61475000	      6146	800010c0	00a00213	addi	x4,x0,10	  x0:0x00000000  x4=0x0000000a
       61485000	      6147	800010c4	4bfa8913	addi	x18,x21,1215	 x21:0x80009f20 x18=0x8000a3df
       61495000	      6148	800010c8	00a00a13	addi	x20,x0,10	  x0:0x00000000 x20=0x0000000a
       61505000	      6149	800010cc	01e3abb3	slt	x23,x7,x30	  x7:0x00000004 x30:0x80009f21 x23=0x00000000
       61515000	      6150	800010d0	407cd3b3	sra	x7,x25,x7	 x25:0x00000001  x7:0x00000004  x7=0x00000000
       61525000	      6151	800010d4	00d54fb3	xor	x31,x10,x13	 x10:0xfffffff6 x13:0x00000001 x31=0xfffffff7
       61535000	      6152	800010d8	686daf13	slti	x30,x27,1670	 x27:0x80009f20 x30=0x00000001
       61545000	      6153	800010dc	41660733	sub	x14,x12,x22	 x12:0x00000000 x22:0x00000000 x14=0x00000000
       61555000	      6154	800010e0	01b97eb3	and	x29,x18,x27	 x18:0x8000a3df x27:0x80009f20 x29=0x80008300
       61565000	      6155	800010e4	ff720213	addi	x4,x4,-9	  x4:0x0000000a  x4=0x00000001
       61575000	      6156	800010e8	459d3d93	sltiu	x27,x26,1113	 x26:0x80009e9c x27=0x00000000
       61585000	      6157	800010ec	00e604b3	add	x9,x12,x14	 x12:0x00000000 x14:0x00000000  x9=0x00000000
       61595000	      6158	800010f0	7cc4e413	ori	x8,x9,1996	  x9:0x00000000  x8=0x000007cc
       61605000	      6159	800010f4	40af5e13	srai	x28,x30,0xa	 x30:0x00000001 x28=0x00000000
       61615000	      6160	800010f8	01961833	sll	x16,x12,x25	 x12:0x00000000 x25:0x00000001 x16=0x00000000
       61625000	      6161	800010fc	0196d433	srl	x8,x13,x25	 x13:0x00000001 x25:0x00000001  x8=0x00000000
       61635000	      6162	80001100	003d9493	slli	x9,x27,0x3	 x27:0x00000000  x9=0x00000000
       61645000	      6163	80001104	3adf1f17	auipc	x30,0x3adf1	 x30=0xbadf2100
       61655000	      6164	80001108	016d4433	xor	x8,x26,x22	 x26:0x80009e9c x22:0x00000000  x8=0x80009e9c
       61665000	      6165	8000110c	00101fb3	sll	x31,x0,x1	  x0:0x00000000  x1:0xfffffffc x31=0x00000000
       61675000	      6166	80001110	0c7db513	sltiu	x10,x27,199	 x27:0x00000000 x10=0x00000001
       61685000	      6167	80001114	40e8d693	srai	x13,x17,0xe	 x17:0xb7770000 x13=0xfffedddc
       61695000	      6168	80001118	00d50e33	add	x28,x10,x13	 x10:0x00000001 x13:0xfffedddc x28=0xfffedddd
       61705000	      6169	8000111c	00f603b3	add	x7,x12,x15	 x12:0x00000000 x15:0x80009fc4  x7=0x80009fc4
       61715000	      6170	80001120	fb427ce3	bgeu	x4,x20,800010d8	  x4:0x00000001 x20:0x0000000a
       61725000	      6171	80001124	006ed6b3	srl	x13,x29,x6	 x29:0x80008300  x6:0xfffffffc x13=0x00000008
       61735000	      6172	80001128	00900293	addi	x5,x0,9	  x0:0x00000000  x5=0x00000009
       61745000	      6173	8000112c	00800813	addi	x16,x0,8	  x0:0x00000000 x16=0x00000008
       61755000	      6174	80001130	00400d33	add	x26,x0,x4	  x0:0x00000000  x4:0x00000001 x26=0x00000001
       61765000	      6175	80001134	2a84c0b7	lui	x1,0x2a84c	  x1=0x2a84c000
       61775000	      6176	80001138	ffa28293	addi	x5,x5,-6	  x5:0x00000009  x5=0x00000003
       61785000	      6177	8000113c	ff02fae3	bgeu	x5,x16,80001130	  x5:0x00000003 x16:0x00000008
       61795000	      6178	80001140	b7474093	xori	x1,x14,-1164	 x14:0x00000000  x1=0xfffffb74
       61805000	      6179	80001144	00700f13	addi	x30,x0,7	  x0:0x00000000 x30=0x00000007
       61815000	      6180	80001148	418c5db3	sra	x27,x24,x24	 x24:0xffffffe5 x24:0xffffffe5 x27=0xffffffff
       61825000	      6181	8000114c	0063f933	and	x18,x7,x6	  x7:0x80009fc4  x6:0xfffffffc x18=0x80009fc4
       61835000	      6182	80001150	01100493	addi	x9,x0,17	  x0:0x00000000  x9=0x00000011
       61845000	      6183	80001154	406c5913	srai	x18,x24,0x6	 x24:0xffffffe5 x18=0xffffffff
       61855000	      6184	80001158	00000013	addi	x0,x0,0	  x0:0x00000000
       61865000	      6185	8000115c	00683db3	sltu	x27,x16,x6	 x16:0x00000008  x6:0xfffffffc x27=0x00000001
       61875000	      6186	80001160	00af0f13	addi	x30,x30,10	 x30:0x00000007 x30=0x00000011
       61885000	      6187	80001164	01d69413	slli	x8,x13,0x1d	 x13:0x00000008  x8=0x00000000
       61895000	      6188	80001168	705ce513	ori	x10,x25,1797	 x25:0x00000001 x10=0x00000705
       61905000	      6189	8000116c	ffd00893	addi	x17,x0,-3	  x0:0x00000000 x17=0xfffffffd
       61915000	      6190	80001170	00d91593	slli	x11,x18,0xd	 x18:0xffffffff x11=0xffffe000
       61925000	      6191	80001174	41f25593	srai	x11,x4,0x1f	  x4:0x00000001 x11=0x00000000
       61935000	      6192	80001178	83a0d817	auipc	x16,0x83a0d	 x16=0x03a0e174
       61945000	      6193	8000117c	3960fe13	andi	x28,x1,918	  x1:0xfffffb74 x28=0x00000314
       61955000	      6194	80001180	00c84833	xor	x16,x16,x12	 x16:0x03a0e174 x12:0x00000000 x16=0x03a0e174
       61965000	      6195	80001184	ff700993	addi	x19,x0,-9	  x0:0x00000000 x19=0xfffffff7
       61975000	      6196	80001188	508c8e93	addi	x29,x25,1288	 x25:0x00000001 x29=0x00000509
       61985000	      6197	8000118c	003edfb3	srl	x31,x29,x3	 x29:0x00000509  x3:0xfffffff6 x31=0x00000000
       61995000	      6198	80001190	07e34c93	xori	x25,x6,126	  x6:0xfffffffc x25=0xffffff82
       62005000	      6199	80001194	ffb88893	addi	x17,x17,-5	 x17:0xfffffffd x17=0xfffffff8
       62015000	      6200	80001198	00a95013	srli	x0,x18,0xa	 x18:0xffffffff
       62025000	      6201	8000119c	00000013	addi	x0,x0,0	  x0:0x00000000
       62035000	      6202	800011a0	ff38d4e3	bge	x17,x19,80001188	 x17:0xfffffff8 x19:0xfffffff7
       62045000	      6203	00000000	00000013	addi	x0,x0,0	  x0:0x00000000
       62055000	      6204	80001184	00000013	addi	x0,x0,0	  x0:0x00000000
       62065000	      6205	80001188	508c8e93	addi	x29,x25,1288	 x25:0xffffff82 x29=0x0000048a
       62075000	      6206	8000118c	003edfb3	srl	x31,x29,x3	 x29:0x0000048a  x3:0xfffffff6 x31=0x00000000
       62085000	      6207	80001190	07e34c93	xori	x25,x6,126	  x6:0xfffffffc x25=0xffffff82
       62095000	      6208	80001194	ffb88893	addi	x17,x17,-5	 x17:0xfffffff8 x17=0xfffffff3
       62105000	      6209	80001198	00a95013	srli	x0,x18,0xa	 x18:0xffffffff
       62115000	      6210	8000119c	00000013	addi	x0,x0,0	  x0:0x00000000
       62125000	      6211	800011a0	ff38d4e3	bge	x17,x19,80001188	 x17:0xfffffff3 x19:0xfffffff7
       62135000	      6212	800011a4	01961e93	slli	x29,x12,0x19	 x12:0x00000000 x29=0x00000000
       62145000	      6213	800011a8	40658333	sub	x6,x11,x6	 x11:0x00000000  x6:0xfffffffc  x6=0x00000004
       62155000	      6214	800011ac	fa9f06e3	beq	x30,x9,80001158	 x30:0x00000011  x9:0x00000011
       62165000	      6215	00000000	00000013	addi	x0,x0,0	  x0:0x00000000
       62175000	      6216	80001154	00000013	addi	x0,x0,0	  x0:0x00000000
       62185000	      6217	80001158	00000013	addi	x0,x0,0	  x0:0x00000000
       62195000	      6218	8000115c	00683db3	sltu	x27,x16,x6	 x16:0x03a0e174  x6:0x00000004 x27=0x00000000
       62205000	      6219	80001160	00af0f13	addi	x30,x30,10	 x30:0x00000011 x30=0x0000001b
       62215000	      6220	80001164	01d69413	slli	x8,x13,0x1d	 x13:0x00000008  x8=0x00000000
       62225000	      6221	80001168	705ce513	ori	x10,x25,1797	 x25:0xffffff82 x10=0xffffff87
       62235000	      6222	8000116c	ffd00893	addi	x17,x0,-3	  x0:0x00000000 x17=0xfffffffd
       62245000	      6223	80001170	00d91593	slli	x11,x18,0xd	 x18:0xffffffff x11=0xffffe000
       62255000	      6224	80001174	41f25593	srai	x11,x4,0x1f	  x4:0x00000001 x11=0x00000000
       62265000	      6225	80001178	83a0d817	auipc	x16,0x83a0d	 x16=0x03a0e174
       62275000	      6226	8000117c	3960fe13	andi	x28,x1,918	  x1:0xfffffb74 x28=0x00000314
       62285000	      6227	80001180	00c84833	xor	x16,x16,x12	 x16:0x03a0e174 x12:0x00000000 x16=0x03a0e174
       62295000	      6228	80001184	ff700993	addi	x19,x0,-9	  x0:0x00000000 x19=0xfffffff7
       62305000	      6229	80001188	508c8e93	addi	x29,x25,1288	 x25:0xffffff82 x29=0x0000048a
       62315000	      6230	8000118c	003edfb3	srl	x31,x29,x3	 x29:0x0000048a  x3:0xfffffff6 x31=0x00000000
       62325000	      6231	80001190	07e34c93	xori	x25,x6,126	  x6:0x00000004 x25=0x0000007a
       62335000	      6232	80001194	ffb88893	addi	x17,x17,-5	 x17:0xfffffffd x17=0xfffffff8
       62345000	      6233	80001198	00a95013	srli	x0,x18,0xa	 x18:0xffffffff
       62355000	      6234	8000119c	00000013	addi	x0,x0,0	  x0:0x00000000
       62365000	      6235	800011a0	ff38d4e3	bge	x17,x19,80001188	 x17:0xfffffff8 x19:0xfffffff7
       62375000	      6236	00000000	00000013	addi	x0,x0,0	  x0:0x00000000
       62385000	      6237	80001184	00000013	addi	x0,x0,0	  x0:0x00000000
       62395000	      6238	80001188	508c8e93	addi	x29,x25,1288	 x25:0x0000007a x29=0x00000582
       62405000	      6239	8000118c	003edfb3	srl	x31,x29,x3	 x29:0x00000582  x3:0xfffffff6 x31=0x00000000
       62415000	      6240	80001190	07e34c93	xori	x25,x6,126	  x6:0x00000004 x25=0x0000007a
       62425000	      6241	80001194	ffb88893	addi	x17,x17,-5	 x17:0xfffffff8 x17=0xfffffff3
       62435000	      6242	80001198	00a95013	srli	x0,x18,0xa	 x18:0xffffffff
       62445000	      6243	8000119c	00000013	addi	x0,x0,0	  x0:0x00000000
       62455000	      6244	800011a0	ff38d4e3	bge	x17,x19,80001188	 x17:0xfffffff3 x19:0xfffffff7
       62465000	      6245	800011a4	01961e93	slli	x29,x12,0x19	 x12:0x00000000 x29=0x00000000
       62475000	      6246	800011a8	40658333	sub	x6,x11,x6	 x11:0x00000000  x6:0x00000004  x6=0xfffffffc
       62485000	      6247	800011ac	fa9f06e3	beq	x30,x9,80001158	 x30:0x0000001b  x9:0x00000011
       62495000	      6248	800011b0	00e0eeb3	or	x29,x1,x14	  x1:0xfffffb74 x14:0x00000000 x29=0xfffffb74
       62505000	      6249	800011b4	00800193	addi	x3,x0,8	  x0:0x00000000  x3=0x00000008
       62515000	      6250	800011b8	012fb0b3	sltu	x1,x31,x18	 x31:0x00000000 x18:0xffffffff  x1=0x00000001
       62525000	      6251	800011bc	9efd3f13	sltiu	x30,x26,-1553	 x26:0x00000001 x30=0x00000001
       62535000	      6252	800011c0	de8e8d93	addi	x27,x29,-536	 x29:0xfffffb74 x27=0xfffff95c
       62545000	      6253	800011c4	00000013	addi	x0,x0,0	  x0:0x00000000
       62555000	      6254	800011c8	7afe3d13	sltiu	x26,x28,1967	 x28:0x00000314 x26=0x00000001
       62565000	      6255	800011cc	00c00c93	addi	x25,x0,12	  x0:0x00000000 x25=0x0000000c
       62575000	      6256	800011d0	27176893	ori	x17,x14,625	 x14:0x00000000 x17=0x00000271
       62585000	      6257	800011d4	40aadd13	srai	x26,x21,0xa	 x21:0x80009f20 x26=0xffe00027
       62595000	      6258	800011d8	4168deb3	sra	x29,x17,x22	 x17:0x00000271 x22:0x00000000 x29=0x00000271
       62605000	      6259	800011dc	689ece13	xori	x28,x29,1673	 x29:0x00000271 x28=0x000004f8
       62615000	      6260	800011e0	26317413	andi	x8,x2,611	  x2:0x00000008  x8=0x00000000
       62625000	      6261	800011e4	d1b12f13	slti	x30,x2,-741	  x2:0x00000008 x30=0x00000000
       62635000	      6262	800011e8	018702b3	add	x5,x14,x24	 x14:0x00000000 x24:0xffffffe5  x5=0xffffffe5
       62645000	      6263	800011ec	01879013	slli	x0,x15,0x18	 x15:0x80009fc4
       62655000	      6264	800011f0	41b2d893	srai	x17,x5,0x1b	  x5:0xffffffe5 x17=0xffffffff
       62665000	      6265	800011f4	00a18193	addi	x3,x3,10	  x3:0x00000008  x3=0x00000012
       62675000	      6266	800011f8	40a7d733	sra	x14,x15,x10	 x15:0x80009fc4 x10:0xffffff87 x14=0xff00013f
       62685000	      6267	800011fc	ff91c4e3	blt	x3,x25,800011e4	  x3:0x00000012 x25:0x0000000c
       62695000	      6268	80001200	12327e93	andi	x29,x4,291	  x4:0x00000001 x29=0x00000001
       62705000	      6269	80001204	ff700093	addi	x1,x0,-9	  x0:0x00000000  x1=0xfffffff7
       62715000	      6270	80001208	00200393	addi	x7,x0,2	  x0:0x00000000  x7=0x00000002
       62725000	      6271	8000120c	df724213	xori	x4,x4,-521	  x4:0x00000001  x4=0xfffffdf6
       62735000	      6272	80001210	0004e933	or	x18,x9,x0	  x9:0x00000011  x0:0x00000000 x18=0x00000011
       62745000	      6273	80001214	00808093	addi	x1,x1,8	  x1:0xfffffff7  x1=0xffffffff
       62755000	      6274	80001218	ff600c13	addi	x24,x0,-10	  x0:0x00000000 x24=0xfffffff6
       62765000	      6275	8000121c	00d00513	addi	x10,x0,13	  x0:0x00000000 x10=0x0000000d
       62775000	      6276	80001220	00ed6eb3	or	x29,x26,x14	 x26:0xffe00027 x14:0xff00013f x29=0xffe0013f
       62785000	      6277	80001224	01164a33	xor	x20,x12,x17	 x12:0x00000000 x17:0xffffffff x20=0xffffffff
       62795000	      6278	80001228	008c0c13	addi	x24,x24,8	 x24:0xfffffff6 x24=0xfffffffe
       62805000	      6279	8000122c	feac4ce3	blt	x24,x10,80001224	 x24:0xfffffffe x10:0x0000000d
       62815000	      6280	00000000	00000013	addi	x0,x0,0	  x0:0x00000000
       62825000	      6281	80001220	00000013	addi	x0,x0,0	  x0:0x00000000
       62835000	      6282	80001224	01164a33	xor	x20,x12,x17	 x12:0x00000000 x17:0xffffffff x20=0xffffffff
       62845000	      6283	80001228	008c0c13	addi	x24,x24,8	 x24:0xfffffffe x24=0x00000006
       62855000	      6284	8000122c	feac4ce3	blt	x24,x10,80001224	 x24:0x00000006 x10:0x0000000d
       62865000	      6285	00000000	00000013	addi	x0,x0,0	  x0:0x00000000
       62875000	      6286	80001220	00000013	addi	x0,x0,0	  x0:0x00000000
       62885000	      6287	80001224	01164a33	xor	x20,x12,x17	 x12:0x00000000 x17:0xffffffff x20=0xffffffff
       62895000	      6288	80001228	008c0c13	addi	x24,x24,8	 x24:0x00000006 x24=0x0000000e
       62905000	      6289	8000122c	feac4ce3	blt	x24,x10,80001224	 x24:0x0000000e x10:0x0000000d
       62915000	      6290	80001230	fc70cee3	blt	x1,x7,8000120c	  x1:0xffffffff  x7:0x00000002
       62925000	      6291	00000000	00000013	addi	x0,x0,0	  x0:0x00000000
       62935000	      6292	80001208	00000013	addi	x0,x0,0	  x0:0x00000000
       62945000	      6293	8000120c	df724213	xori	x4,x4,-521	  x4:0xfffffdf6  x4=0x00000001
       62955000	      6294	80001210	0004e933	or	x18,x9,x0	  x9:0x00000011  x0:0x00000000 x18=0x00000011
       62965000	      6295	80001214	00808093	addi	x1,x1,8	  x1:0xffffffff  x1=0x00000007
       62975000	      6296	80001218	ff600c13	addi	x24,x0,-10	  x0:0x00000000 x24=0xfffffff6
       62985000	      6297	8000121c	00d00513	addi	x10,x0,13	  x0:0x00000000 x10=0x0000000d
       62995000	      6298	80001220	00ed6eb3	or	x29,x26,x14	 x26:0xffe00027 x14:0xff00013f x29=0xffe0013f
       63005000	      6299	80001224	01164a33	xor	x20,x12,x17	 x12:0x00000000 x17:0xffffffff x20=0xffffffff
       63015000	      6300	80001228	008c0c13	addi	x24,x24,8	 x24:0xfffffff6 x24=0xfffffffe
       63025000	      6301	8000122c	feac4ce3	blt	x24,x10,80001224	 x24:0xfffffffe x10:0x0000000d
       63035000	      6302	00000000	00000013	addi	x0,x0,0	  x0:0x00000000
       63045000	      6303	80001220	00000013	addi	x0,x0,0	  x0:0x00000000
       63055000	      6304	80001224	01164a33	xor	x20,x12,x17	 x12:0x00000000 x17:0xffffffff x20=0xffffffff
       63065000	      6305	80001228	008c0c13	addi	x24,x24,8	 x24:0xfffffffe x24=0x00000006
       63075000	      6306	8000122c	feac4ce3	blt	x24,x10,80001224	 x24:0x00000006 x10:0x0000000d
       63085000	      6307	00000000	00000013	addi	x0,x0,0	  x0:0x00000000
       63095000	      6308	80001220	00000013	addi	x0,x0,0	  x0:0x00000000
       63105000	      6309	80001224	01164a33	xor	x20,x12,x17	 x12:0x00000000 x17:0xffffffff x20=0xffffffff
       63115000	      6310	80001228	008c0c13	addi	x24,x24,8	 x24:0x00000006 x24=0x0000000e
       63125000	      6311	8000122c	feac4ce3	blt	x24,x10,80001224	 x24:0x0000000e x10:0x0000000d
       63135000	      6312	80001230	fc70cee3	blt	x1,x7,8000120c	  x1:0x00000007  x7:0x00000002
       63145000	      6313	80001234	0075bbb3	sltu	x23,x11,x7	 x11:0x00000000  x7:0x00000002 x23=0x00000001
       63155000	      6314	80001238	00a00613	addi	x12,x0,10	  x0:0x00000000 x12=0x0000000a
       63165000	      6315	8000123c	401e02b3	sub	x5,x28,x1	 x28:0x000004f8  x1:0x00000007  x5=0x000004f1
       63175000	      6316	80001240	b5114a17	auipc	x20,0xb5114	 x20=0x3511523c
       63185000	      6317	80001244	01300b93	addi	x23,x0,19	  x0:0x00000000 x23=0x00000013
       63195000	      6318	80001248	01198f33	add	x30,x19,x17	 x19:0xfffffff7 x17:0xffffffff x30=0xfffffff6
       63205000	      6319	8000124c	40368133	sub	x2,x13,x3	 x13:0x00000008  x3:0x00000012  x2=0xfffffff6
       63215000	      6320	80001250	0022bdb3	sltu	x27,x5,x2	  x5:0x000004f1  x2:0xfffffff6 x27=0x00000001
       63225000	      6321	80001254	00660613	addi	x12,x12,6	 x12:0x0000000a x12=0x00000010
       63235000	      6322	80001258	ff764ae3	blt	x12,x23,8000124c	 x12:0x00000010 x23:0x00000013
       63245000	      6323	00000000	00000013	addi	x0,x0,0	  x0:0x00000000
       63255000	      6324	80001248	00000013	addi	x0,x0,0	  x0:0x00000000
       63265000	      6325	8000124c	40368133	sub	x2,x13,x3	 x13:0x00000008  x3:0x00000012  x2=0xfffffff6
       63275000	      6326	80001250	0022bdb3	sltu	x27,x5,x2	  x5:0x000004f1  x2:0xfffffff6 x27=0x00000001
       63285000	      6327	80001254	00660613	addi	x12,x12,6	 x12:0x00000010 x12=0x00000016
       63295000	      6328	80001258	ff764ae3	blt	x12,x23,8000124c	 x12:0x00000016 x23:0x00000013
       63305000	      6329	8000125c	11f3ff13	andi	x30,x7,287	  x7:0x00000002 x30=0x00000002
       63315000	      6330	80001260	00700293	addi	x5,x0,7	  x0:0x00000000  x5=0x00000007
       63325000	      6331	80001264	ce914413	xori	x8,x2,-791	  x2:0xfffffff6  x8=0x0000031f
       63335000	      6332	80001268	00400513	addi	x10,x0,4	  x0:0x00000000 x10=0x00000004
       63345000	      6333	8000126c	400b5733	sra	x14,x22,x0	 x22:0x00000000  x0:0x00000000 x14=0x00000000
       63355000	      6334	80001270	b92a3213	sltiu	x4,x20,-1134	 x20:0x3511523c  x4=0x00000001
       63365000	      6335	80001274	ffd28293	addi	x5,x5,-3	  x5:0x00000007  x5=0x00000004
       63375000	      6336	80001278	416be237	lui	x4,0x416be	  x4=0x416be000
       63385000	      6337	8000127c	41ff8a33	sub	x20,x31,x31	 x31:0x00000000 x31:0x00000000 x20=0x00000000
       63395000	      6338	80001280	ff600093	addi	x1,x0,-10	  x0:0x00000000  x1=0xfffffff6
       63405000	      6339	80001284	01a10eb3	add	x29,x2,x26	  x2:0xfffffff6 x26:0xffe00027 x29=0xffe0001d
       63415000	      6340	80001288	6a334d93	xori	x27,x6,1699	  x6:0xfffffffc x27=0xfffff95f
       63425000	      6341	8000128c	00600813	addi	x16,x0,6	  x0:0x00000000 x16=0x00000006
       63435000	      6342	80001290	01119a13	slli	x20,x3,0x11	  x3:0x00000012 x20=0x00240000
       63445000	      6343	80001294	400cd593	srai	x11,x25,0x0	 x25:0x0000000c x11=0x0000000c
       63455000	      6344	80001298	a98a7e93	andi	x29,x20,-1384	 x20:0x00240000 x29=0x00240000
       63465000	      6345	8000129c	00508093	addi	x1,x1,5	  x1:0xfffffff6  x1=0xfffffffb
       63475000	      6346	800012a0	003ad1b3	srl	x3,x21,x3	 x21:0x80009f20  x3:0x00000012  x3=0x00002000
       63485000	      6347	800012a4	ff00eae3	bltu	x1,x16,80001298	  x1:0xfffffffb x16:0x00000006
       63495000	      6348	800012a8	014126b3	slt	x13,x2,x20	  x2:0xfffffff6 x20:0x00240000 x13=0x00000001
       63505000	      6349	800012ac	fca2f2e3	bgeu	x5,x10,80001270	  x5:0x00000004 x10:0x00000004
       63515000	      6350	00000000	00000013	addi	x0,x0,0	  x0:0x00000000
       63525000	      6351	8000126c	00000013	addi	x0,x0,0	  x0:0x00000000
       63535000	      6352	80001270	b92a3213	sltiu	x4,x20,-1134	 x20:0x00240000  x4=0x00000001
       63545000	      6353	80001274	ffd28293	addi	x5,x5,-3	  x5:0x00000004  x5=0x00000001
       63555000	      6354	80001278	416be237	lui	x4,0x416be	  x4=0x416be000
       63565000	      6355	8000127c	41ff8a33	sub	x20,x31,x31	 x31:0x00000000 x31:0x00000000 x20=0x00000000
       63575000	      6356	80001280	ff600093	addi	x1,x0,-10	  x0:0x00000000  x1=0xfffffff6
       63585000	      6357	80001284	01a10eb3	add	x29,x2,x26	  x2:0xfffffff6 x26:0xffe00027 x29=0xffe0001d
       63595000	      6358	80001288	6a334d93	xori	x27,x6,1699	  x6:0xfffffffc x27=0xfffff95f
       63605000	      6359	8000128c	00600813	addi	x16,x0,6	  x0:0x00000000 x16=0x00000006
       63615000	      6360	80001290	01119a13	slli	x20,x3,0x11	  x3:0x00002000 x20=0x40000000
       63625000	      6361	80001294	400cd593	srai	x11,x25,0x0	 x25:0x0000000c x11=0x0000000c
       63635000	      6362	80001298	a98a7e93	andi	x29,x20,-1384	 x20:0x40000000 x29=0x40000000
       63645000	      6363	8000129c	00508093	addi	x1,x1,5	  x1:0xfffffff6  x1=0xfffffffb
       63655000	      6364	800012a0	003ad1b3	srl	x3,x21,x3	 x21:0x80009f20  x3:0x00002000  x3=0x80009f20
       63665000	      6365	800012a4	ff00eae3	bltu	x1,x16,80001298	  x1:0xfffffffb x16:0x00000006
       63675000	      6366	800012a8	014126b3	slt	x13,x2,x20	  x2:0xfffffff6 x20:0x40000000 x13=0x00000001
       63685000	      6367	800012ac	fca2f2e3	bgeu	x5,x10,80001270	  x5:0x00000001 x10:0x00000004
       63695000	      6368	800012b0	00bda333	slt	x6,x27,x11	 x27:0xfffff95f x11:0x0000000c  x6=0x00000001
       63705000	      6369	800012b4	016e2333	slt	x6,x28,x22	 x28:0x000004f8 x22:0x00000000  x6=0x00000000
       63715000	      6370	800012b8	414ddbb3	sra	x23,x27,x20	 x27:0xfffff95f x20:0x40000000 x23=0xfffff95f
       63725000	      6371	800012bc	40380033	sub	x0,x16,x3	 x16:0x00000006  x3:0x80009f20
       63735000	      6372	800012c0	8dc8a813	slti	x16,x17,-1828	 x17:0xffffffff x16=0x00000000
       63745000	      6373	800012c4	06859a63	bne	x11,x8,80001338	 x11:0x0000000c  x8:0x0000031f
       63755000	      6374	00000000	00000013	addi	x0,x0,0	  x0:0x00000000
       63765000	      6375	80001334	00000013	addi	x0,x0,0	  x0:0x00000000
       63775000	      6376	80001338	12a56013	ori	x0,x10,298	 x10:0x00000004
       63785000	      6377	8000133c	41ba8433	sub	x8,x21,x27	 x21:0x80009f20 x27:0xfffff95f  x8=0x8000a5c1
       63795000	      6378	80001340	401ad813	srai	x16,x21,0x1	 x21:0x80009f20 x16=0xc0004f90
       63805000	      6379	80001344	a3558913	addi	x18,x11,-1483	 x11:0x0000000c x18=0xfffffa41
       63815000	      6380	80001348	1a2b3893	sltiu	x17,x22,418	 x22:0x00000000 x17=0x00000001
       63825000	      6381	8000134c	14a6f993	andi	x19,x13,330	 x13:0x00000001 x19=0x00000000
       63835000	      6382	80001350	cfd9ff13	andi	x30,x19,-771	 x19:0x00000000 x30=0x00000000
       63845000	      6383	80001354	a0197493	andi	x9,x18,-1535	 x18:0xfffffa41  x9=0xfffffa01
       63855000	      6384	80001358	02df1663	bne	x30,x13,80001384	 x30:0x00000000 x13:0x00000001
       63865000	      6385	00000000	00000013	addi	x0,x0,0	  x0:0x00000000
       63875000	      6386	80001380	00000013	addi	x0,x0,0	  x0:0x00000000
       63885000	      6387	80001384	00000013	addi	x0,x0,0	  x0:0x00000000
       63895000	      6388	80001388	75782693	slti	x13,x16,1879	 x16:0xc0004f90 x13=0x00000001
       63905000	      6389	8000138c	00757533	and	x10,x10,x7	 x10:0x00000004  x7:0x00000002 x10=0x00000000
       63915000	      6390	80001390	00100f13	addi	x30,x0,1	  x0:0x00000000 x30=0x00000001
       63925000	      6391	80001394	62679197	auipc	x3,0x62679	  x3=0xe267a390
       63935000	      6392	80001398	01384db3	xor	x27,x16,x19	 x16:0xc0004f90 x19:0x00000000 x27=0xc0004f90
       63945000	      6393	8000139c	01100593	addi	x11,x0,17	  x0:0x00000000 x11=0x00000011
       63955000	      6394	800013a0	017a8933	add	x18,x21,x23	 x21:0x80009f20 x23:0xfffff95f x18=0x8000987f
       63965000	      6395	800013a4	009f0f13	addi	x30,x30,9	 x30:0x00000001 x30=0x0000000a
       63975000	      6396	800013a8	1c398a13	addi	x20,x19,451	 x19:0x00000000 x20=0x000001c3
       63985000	      6397	800013ac	41f084b3	sub	x9,x1,x31	  x1:0xfffffffb x31:0x00000000  x9=0xfffffffb
       63995000	      6398	800013b0	010e16b3	sll	x13,x28,x16	 x28:0x000004f8 x16:0xc0004f90 x13=0x04f80000
       64005000	      6399	800013b4	4164d333	sra	x6,x9,x22	  x9:0xfffffffb x22:0x00000000  x6=0xfffffffb
       64015000	      6400	800013b8	40ff5c33	sra	x24,x30,x15	 x30:0x0000000a x15:0x80009fc4 x24=0x00000000
       64025000	      6401	800013bc	011d8db3	add	x27,x27,x17	 x27:0xc0004f90 x17:0x00000001 x27=0xc0004f91
       64035000	      6402	800013c0	febf60e3	bltu	x30,x11,800013a0	 x30:0x0000000a x11:0x00000011
       64045000	      6403	00000000	00000013	addi	x0,x0,0	  x0:0x00000000
       64055000	      6404	8000139c	00000013	addi	x0,x0,0	  x0:0x00000000
       64065000	      6405	800013a0	017a8933	add	x18,x21,x23	 x21:0x80009f20 x23:0xfffff95f x18=0x8000987f
       64075000	      6406	800013a4	009f0f13	addi	x30,x30,9	 x30:0x0000000a x30=0x00000013
       64085000	      6407	800013a8	1c398a13	addi	x20,x19,451	 x19:0x00000000 x20=0x000001c3
       64095000	      6408	800013ac	41f084b3	sub	x9,x1,x31	  x1:0xfffffffb x31:0x00000000  x9=0xfffffffb
       64105000	      6409	800013b0	010e16b3	sll	x13,x28,x16	 x28:0x000004f8 x16:0xc0004f90 x13=0x04f80000
       64115000	      6410	800013b4	4164d333	sra	x6,x9,x22	  x9:0xfffffffb x22:0x00000000  x6=0xfffffffb
       64125000	      6411	800013b8	40ff5c33	sra	x24,x30,x15	 x30:0x00000013 x15:0x80009fc4 x24=0x00000001
       64135000	      6412	800013bc	011d8db3	add	x27,x27,x17	 x27:0xc0004f91 x17:0x00000001 x27=0xc0004f92
       64145000	      6413	800013c0	febf60e3	bltu	x30,x11,800013a0	 x30:0x00000013 x11:0x00000011
       64155000	      6414	800013c4	a65a4293	xori	x5,x20,-1435	 x20:0x000001c3  x5=0xfffffba6
       64165000	      6415	800013c8	dc4e7513	andi	x10,x28,-572	 x28:0x000004f8 x10=0x000004c0
       64175000	      6416	800013cc	008a1f93	slli	x31,x20,0x8	 x20:0x000001c3 x31=0x0001c300
       64185000	      6417	800013d0	01c39033	sll	x0,x7,x28	  x7:0x00000002 x28:0x000004f8
       64195000	      6418	800013d4	01399e33	sll	x28,x19,x19	 x19:0x00000000 x19:0x00000000 x28=0x00000000
       64205000	      6419	800013d8	014c00b3	add	x1,x24,x20	 x24:0x00000001 x20:0x000001c3  x1=0x000001c4
       64215000	      6420	800013dc	00493433	sltu	x8,x18,x4	 x18:0x8000987f  x4:0x416be000  x8=0x00000000
       64225000	      6421	800013e0	3e059a17	auipc	x20,0x3e059	 x20=0xbe05a3dc
       64235000	      6422	800013e4	00e21d13	slli	x26,x4,0xe	  x4:0x416be000 x26=0xf8000000
       64245000	      6423	800013e8	0320fa63	bgeu	x1,x18,8000141c	  x1:0x000001c4 x18:0x8000987f
       64255000	      6424	800013ec	01accdb3	xor	x27,x25,x26	 x25:0x0000000c x26:0xf8000000 x27=0xf800000c
       64265000	      6425	800013f0	01bab633	sltu	x12,x21,x27	 x21:0x80009f20 x27:0xf800000c x12=0x00000001
       64275000	      6426	800013f4	00000013	addi	x0,x0,0	  x0:0x00000000
       64285000	      6427	800013f8	48aaf513	andi	x10,x21,1162	 x21:0x80009f20 x10=0x00000400
       64295000	      6428	800013fc	017a1333	sll	x6,x20,x23	 x20:0xbe05a3dc x23:0xfffff95f  x6=0x00000000
       64305000	      6429	80001400	9bbe6997	auipc	x19,0x9bbe6	 x19=0x1bbe73fc
       64315000	      6430	80001404	018e60b3	or	x1,x28,x24	 x28:0x00000000 x24:0x00000001  x1=0x00000001
       64325000	      6431	80001408	0295d863	bge	x11,x9,80001438	 x11:0x00000011  x9:0xfffffffb
       64335000	      6432	00000000	00000013	addi	x0,x0,0	  x0:0x00000000
       64345000	      6433	80001434	00000013	addi	x0,x0,0	  x0:0x00000000
       64355000	      6434	80001438	01e9e533	or	x10,x19,x30	 x19:0x1bbe73fc x30:0x00000013 x10=0x1bbe73ff
       64365000	      6435	8000143c	406d8033	sub	x0,x27,x6	 x27:0xf800000c  x6:0x00000000
       64375000	      6436	80001440	6a860e93	addi	x29,x12,1704	 x12:0x00000001 x29=0x000006a9
       64385000	      6437	80001444	000628b3	slt	x17,x12,x0	 x12:0x00000001  x0:0x00000000 x17=0x00000000
       64395000	      6438	80001448	0181ca63	blt	x3,x24,8000145c	  x3:0xe267a390 x24:0x00000001
       64405000	      6439	00000000	00000013	addi	x0,x0,0	  x0:0x00000000
       64415000	      6440	80001458	00000013	addi	x0,x0,0	  x0:0x00000000
       64425000	      6441	8000145c	000301b3	add	x3,x6,x0	  x6:0x00000000  x0:0x00000000  x3=0x00000000
       64435000	      6442	80001460	00900933	add	x18,x0,x9	  x0:0x00000000  x9:0xfffffffb x18=0xfffffffb
       64445000	      6443	80001464	66b47513	andi	x10,x8,1643	  x8:0x00000000 x10=0x00000000
       64455000	      6444	80001468	8cc9f393	andi	x7,x19,-1844	 x19:0x1bbe73fc  x7=0x1bbe70cc
       64465000	      6445	8000146c	af03f813	andi	x16,x7,-1296	  x7:0x1bbe70cc x16=0x1bbe70c0
       64475000	      6446	80001470	da4c4113	xori	x2,x24,-604	 x24:0x00000001  x2=0xfffffda5
       64485000	      6447	80001474	01a22933	slt	x18,x4,x26	  x4:0x416be000 x26:0xf8000000 x18=0x00000000
       64495000	      6448	80001478	02b76263	bltu	x14,x11,8000149c	 x14:0x00000000 x11:0x00000011
       64505000	      6449	00000000	00000013	addi	x0,x0,0	  x0:0x00000000
       64515000	      6450	80001498	00000013	addi	x0,x0,0	  x0:0x00000000
       64525000	      6451	8000149c	05909863	bne	x1,x25,800014ec	  x1:0x00000001 x25:0x0000000c
       64535000	      6452	00000000	00000013	addi	x0,x0,0	  x0:0x00000000
       64545000	      6453	800014e8	00000013	addi	x0,x0,0	  x0:0x00000000
       64555000	      6454	800014ec	40afd4b3	sra	x9,x31,x10	 x31:0x0001c300 x10:0x00000000  x9=0x0001c300
       64565000	      6455	800014f0	40f95db3	sra	x27,x18,x15	 x18:0x00000000 x15:0x80009fc4 x27=0x00000000
       64575000	      6456	800014f4	0189de33	srl	x28,x19,x24	 x19:0x1bbe73fc x24:0x00000001 x28=0x0ddf39fe
       64585000	      6457	800014f8	00a31933	sll	x18,x6,x10	  x6:0x00000000 x10:0x00000000 x18=0x00000000
       64595000	      6458	800014fc	012e4e63	blt	x28,x18,80001518	 x28:0x0ddf39fe x18:0x00000000
       64605000	      6459	80001500	042e9863	bne	x29,x2,80001550	 x29:0x000006a9  x2:0xfffffda5
       64615000	      6460	00000000	00000013	addi	x0,x0,0	  x0:0x00000000
       64625000	      6461	8000154c	00000013	addi	x0,x0,0	  x0:0x00000000
       64635000	      6462	80001550	01f23cb3	sltu	x25,x4,x31	  x4:0x416be000 x31:0x0001c300 x25=0x00000000
       64645000	      6463	80001554	ecdda613	slti	x12,x27,-307	 x27:0x00000000 x12=0x00000000
       64655000	      6464	80001558	01846db3	or	x27,x8,x24	  x8:0x00000000 x24:0x00000001 x27=0x00000001
       64665000	      6465	8000155c	0102c033	xor	x0,x5,x16	  x5:0xfffffba6 x16:0x1bbe70c0
       64675000	      6466	80001560	01745c63	bge	x8,x23,80001578	  x8:0x00000000 x23:0xfffff95f
       64685000	      6467	00000000	00000013	addi	x0,x0,0	  x0:0x00000000
       64695000	      6468	80001574	00000013	addi	x0,x0,0	  x0:0x00000000
       64705000	      6469	80001578	00639c63	bne	x7,x6,80001590	  x7:0x1bbe70cc  x6:0x00000000
       64715000	      6470	00000000	00000013	addi	x0,x0,0	  x0:0x00000000
       64725000	      6471	8000158c	00000013	addi	x0,x0,0	  x0:0x00000000
       64735000	      6472	80001590	01c28233	add	x4,x5,x28	  x5:0xfffffba6 x28:0x0ddf39fe  x4=0x0ddf35a4
       64745000	      6473	80001594	023f5e63	bge	x30,x3,800015d0	 x30:0x00000013  x3:0x00000000
       64755000	      6474	00000000	00000013	addi	x0,x0,0	  x0:0x00000000
       64765000	      6475	800015cc	00000013	addi	x0,x0,0	  x0:0x00000000
       64775000	      6476	800015d0	00000013	addi	x0,x0,0	  x0:0x00000000
       64785000	      6477	800015d4	20870613	addi	x12,x14,520	 x14:0x00000000 x12=0x00000208
       64795000	      6478	800015d8	00f79693	slli	x13,x15,0xf	 x15:0x80009fc4 x13=0x4fe20000
       64805000	      6479	800015dc	190cc693	xori	x13,x25,400	 x25:0x00000000 x13=0x00000190
       64815000	      6480	800015e0	d748c217	auipc	x4,0xd748c	  x4=0x5748d5dc
       64825000	      6481	800015e4	009304b3	add	x9,x6,x9	  x6:0x00000000  x9:0x0001c300  x9=0x0001c300
       64835000	      6482	800015e8	00be9713	slli	x14,x29,0xb	 x29:0x000006a9 x14=0x00354800
       64845000	      6483	800015ec	00075c63	bge	x14,x0,80001604	 x14:0x00354800  x0:0x00000000
       64855000	      6484	00000000	00000013	addi	x0,x0,0	  x0:0x00000000
       64865000	      6485	80001600	00000013	addi	x0,x0,0	  x0:0x00000000
       64875000	      6486	80001604	7c654f93	xori	x31,x10,1990	 x10:0x00000000 x31=0x000007c6
       64885000	      6487	80001608	002afeb3	and	x29,x21,x2	 x21:0x80009f20  x2:0xfffffda5 x29=0x80009d20
       64895000	      6488	8000160c	006133b3	sltu	x7,x2,x6	  x2:0xfffffda5  x6:0x00000000  x7=0x00000000
       64905000	      6489	80001610	008af933	and	x18,x21,x8	 x21:0x80009f20  x8:0x00000000 x18=0x00000000
       64915000	      6490	80001614	ffa9b693	sltiu	x13,x19,-6	 x19:0x1bbe73fc x13=0x00000001
       64925000	      6491	80001618	160c2093	slti	x1,x24,352	 x24:0x00000001  x1=0x00000001
       64935000	      6492	8000161c	41addb93	srai	x23,x27,0x1a	 x27:0x00000001 x23=0x00000000
       64945000	      6493	80001620	01040463	beq	x8,x16,80001628	  x8:0x00000000 x16:0x1bbe70c0
       64955000	      6494	80001624	01e25a13	srli	x20,x4,0x1e	  x4:0x5748d5dc x20=0x00000001
       64965000	      6495	80001628	01bfac33	slt	x24,x31,x27	 x31:0x000007c6 x27:0x00000001 x24=0x00000000
       64975000	      6496	8000162c	018aa633	slt	x12,x21,x24	 x21:0x80009f20 x24:0x00000000 x12=0x00000001
       64985000	      6497	80001630	3ef96713	ori	x14,x18,1007	 x18:0x00000000 x14=0x000003ef
       64995000	      6498	80001634	0424d863	bge	x9,x2,80001684	  x9:0x0001c300  x2:0xfffffda5
       65005000	      6499	00000000	00000013	addi	x0,x0,0	  x0:0x00000000
       65015000	      6500	80001680	00000013	addi	x0,x0,0	  x0:0x00000000
       65025000	      6501	80001684	001f03b3	add	x7,x30,x1	 x30:0x00000013  x1:0x00000001  x7=0x00000014
       65035000	      6502	80001688	01c72eb3	slt	x29,x14,x28	 x14:0x000003ef x28:0x0ddf39fe x29=0x00000001
       65045000	      6503	8000168c	26963d93	sltiu	x27,x12,617	 x12:0x00000001 x27=0x00000001
       65055000	      6504	80001690	403b5893	srai	x17,x22,0x3	 x22:0x00000000 x17=0x00000000
       65065000	      6505	80001694	00001d93	slli	x27,x0,0x0	  x0:0x00000000 x27=0x00000000
       65075000	      6506	80001698	94f5f613	andi	x12,x11,-1713	 x11:0x00000011 x12=0x00000001
       65085000	      6507	8000169c	022c6263	bltu	x24,x2,800016c0	 x24:0x00000000  x2:0xfffffda5
       65095000	      6508	00000000	00000013	addi	x0,x0,0	  x0:0x00000000
       65105000	      6509	800016bc	00000013	addi	x0,x0,0	  x0:0x00000000
       65115000	      6510	800016c0	ac377017	auipc	x0,0xac377	
       65125000	      6511	800016c4	7b55cb93	xori	x23,x11,1973	 x11:0x00000011 x23=0x000007a4
       65135000	      6512	800016c8	aadfb893	sltiu	x17,x31,-1363	 x31:0x000007c6 x17=0x00000001
       65145000	      6513	800016cc	03939863	bne	x7,x25,800016fc	  x7:0x00000014 x25:0x00000000
       65155000	      6514	00000000	00000013	addi	x0,x0,0	  x0:0x00000000
       65165000	      6515	800016f8	00000013	addi	x0,x0,0	  x0:0x00000000
       65175000	      6516	800016fc	8abd2813	slti	x16,x26,-1877	 x26:0xf8000000 x16=0x00000001
       65185000	      6517	80001700	016f3233	sltu	x4,x30,x22	 x30:0x00000013 x22:0x00000000  x4=0x00000000
       65195000	      6518	80001704	00e18863	beq	x3,x14,80001714	  x3:0x00000000 x14:0x000003ef
       65205000	      6519	80001708	0154acb3	slt	x25,x9,x21	  x9:0x0001c300 x21:0x80009f20 x25=0x00000000
       65215000	      6520	8000170c	4134d033	sra	x0,x9,x19	  x9:0x0001c300 x19:0x1bbe73fc
       65225000	      6521	80001710	00049333	sll	x6,x9,x0	  x9:0x0001c300  x0:0x00000000  x6=0x0001c300
       65235000	      6522	80001714	857ebd17	auipc	x26,0x857eb	 x26=0x057ec710
       65245000	      6523	80001718	00452833	slt	x16,x10,x4	 x10:0x00000000  x4:0x00000000 x16=0x00000000
       65255000	      6524	8000171c	4052dd33	sra	x26,x5,x5	  x5:0xfffffba6  x5:0xfffffba6 x26=0xffffffee
       65265000	      6525	80001720	00000013	addi	x0,x0,0	  x0:0x00000000
       65275000	      6526	80001724	01a18863	beq	x3,x26,80001734	  x3:0x00000000 x26:0xffffffee
       65285000	      6527	80001728	94cf3593	sltiu	x11,x30,-1716	 x30:0x00000013 x11=0x00000001
       65295000	      6528	8000172c	355ccf93	xori	x31,x25,853	 x25:0x00000000 x31=0x00000355
       65305000	      6529	80001730	f2625a17	auipc	x20,0xf2625	 x20=0x7262672c
       65315000	      6530	80001734	97873337	lui	x6,0x97873	  x6=0x97873000
       65325000	      6531	80001738	009528b3	slt	x17,x10,x9	 x10:0x00000000  x9:0x0001c300 x17=0x00000001
       65335000	      6532	8000173c	0059ca63	blt	x19,x5,80001750	 x19:0x1bbe73fc  x5:0xfffffba6
       65345000	      6533	80001740	001dc8b3	xor	x17,x27,x1	 x27:0x00000000  x1:0x00000001 x17=0x00000001
       65355000	      6534	80001744	414c8733	sub	x14,x25,x20	 x25:0x00000000 x20:0x7262672c x14=0x8d9d98d4
       65365000	      6535	80001748	01182733	slt	x14,x16,x17	 x16:0x00000000 x17:0x00000001 x14=0x00000001
       65375000	      6536	8000174c	016fe613	ori	x12,x31,22	 x31:0x00000355 x12=0x00000357
       65385000	      6537	80001750	00000013	addi	x0,x0,0	  x0:0x00000000
       65395000	      6538	80001754	77ea8393	addi	x7,x21,1918	 x21:0x80009f20  x7=0x8000a69e
       65405000	      6539	80001758	01fc1413	slli	x8,x24,0x1f	 x24:0x00000000  x8=0x00000000
       65415000	      6540	8000175c	0024ffb3	and	x31,x9,x2	  x9:0x0001c300  x2:0xfffffda5 x31=0x0001c100
       65425000	      6541	80001760	00ca7463	bgeu	x20,x12,80001768	 x20:0x7262672c x12:0x00000357
       65435000	      6542	00000000	00000013	addi	x0,x0,0	  x0:0x00000000
       65445000	      6543	80001764	00000013	addi	x0,x0,0	  x0:0x00000000
       65455000	      6544	80001768	03200863	beq	x0,x18,80001798	  x0:0x00000000 x18:0x00000000
       65465000	      6545	00000000	00000013	addi	x0,x0,0	  x0:0x00000000
       65475000	      6546	80001794	00000013	addi	x0,x0,0	  x0:0x00000000
       65485000	      6547	80001798	00000013	addi	x0,x0,0	  x0:0x00000000
       65495000	      6548	8000179c	00a7f4b3	and	x9,x15,x10	 x15:0x80009fc4 x10:0x00000000  x9=0x00000000
       65505000	      6549	800017a0	01aafa33	and	x20,x21,x26	 x21:0x80009f20 x26:0xffffffee x20=0x80009f20
       65515000	      6550	800017a4	fcea8993	addi	x19,x21,-50	 x21:0x80009f20 x19=0x80009eee
       65525000	      6551	800017a8	020f4263	blt	x30,x0,800017cc	 x30:0x00000013  x0:0x00000000
       65535000	      6552	800017ac	01f45d33	srl	x26,x8,x31	  x8:0x00000000 x31:0x0001c100 x26=0x00000000
       65545000	      6553	800017b0	04fa7263	bgeu	x20,x15,800017f4	 x20:0x80009f20 x15:0x80009fc4
       65555000	      6554	800017b4	053a5863	bge	x20,x19,80001804	 x20:0x80009f20 x19:0x80009eee
       65565000	      6555	00000000	00000013	addi	x0,x0,0	  x0:0x00000000
       65575000	      6556	80001800	00000013	addi	x0,x0,0	  x0:0x00000000
       65585000	      6557	80001804	04744063	blt	x8,x7,80001844	  x8:0x00000000  x7:0x8000a69e
       65595000	      6558	80001808	60c13f97	auipc	x31,0x60c13	 x31=0xe0c14804
       65605000	      6559	8000180c	011dec33	or	x24,x27,x17	 x27:0x00000000 x17:0x00000001 x24=0x00000001
       65615000	      6560	80001810	042c4863	blt	x24,x2,80001860	 x24:0x00000001  x2:0xfffffda5
       65625000	      6561	80001814	194e4917	auipc	x18,0x194e4	 x18=0x994e5810
       65635000	      6562	80001818	011b73b3	and	x7,x22,x17	 x22:0x00000000 x17:0x00000001  x7=0x00000000
       65645000	      6563	8000181c	8914e513	ori	x10,x9,-1903	  x9:0x00000000 x10=0xfffff891
       65655000	      6564	80001820	3551b097	auipc	x1,0x3551b	  x1=0xb551c81c
       65665000	      6565	80001824	3d24fe37	lui	x28,0x3d24f	 x28=0x3d24f000
       65675000	      6566	80001828	40280f33	sub	x30,x16,x2	 x16:0x00000000  x2:0xfffffda5 x30=0x0000025b
       65685000	      6567	8000182c	404cdc93	srai	x25,x25,0x4	 x25:0x00000000 x25=0x00000000
       65695000	      6568	80001830	15e08393	addi	x7,x1,350	  x1:0xb551c81c  x7=0xb551c97a
       65705000	      6569	80001834	00cf9613	slli	x12,x31,0xc	 x31:0xe0c14804 x12=0x14804000
       65715000	      6570	80001838	0184e263	bltu	x9,x24,8000183c	  x9:0x00000000 x24:0x00000001
       65725000	      6571	00000000	00000013	addi	x0,x0,0	  x0:0x00000000
       65735000	      6572	80001838	00000013	addi	x0,x0,0	  x0:0x00000000
       65745000	      6573	8000183c	00fb6fb3	or	x31,x22,x15	 x22:0x00000000 x15:0x80009fc4 x31=0x80009fc4
       65755000	      6574	80001840	01f50863	beq	x10,x31,80001850	 x10:0xfffff891 x31:0x80009fc4
       65765000	      6575	80001844	3df94513	xori	x10,x18,991	 x18:0x994e5810 x10=0x994e5bcf
       65775000	      6576	80001848	00da8933	add	x18,x21,x13	 x21:0x80009f20 x13:0x00000001 x18=0x80009f21
       65785000	      6577	8000184c	014d02b3	add	x5,x26,x20	 x26:0x00000000 x20:0x80009f20  x5=0x80009f20
       65795000	      6578	80001850	99177293	andi	x5,x14,-1647	 x14:0x00000001  x5=0x00000001
       65805000	      6579	80001854	00000013	addi	x0,x0,0	  x0:0x00000000
       65815000	      6580	80001858	015ee5b3	or	x11,x29,x21	 x29:0x00000001 x21:0x80009f20 x11=0x80009f21
       65825000	      6581	8000185c	4062d293	srai	x5,x5,0x6	  x5:0x00000001  x5=0x00000000
       65835000	      6582	80001860	02136e63	bltu	x6,x1,8000189c	  x6:0x97873000  x1:0xb551c81c
       65845000	      6583	00000000	00000013	addi	x0,x0,0	  x0:0x00000000
       65855000	      6584	80001898	00000013	addi	x0,x0,0	  x0:0x00000000
       65865000	      6585	8000189c	01106733	or	x14,x0,x17	  x0:0x00000000 x17:0x00000001 x14=0x00000001
       65875000	      6586	800018a0	01572533	slt	x10,x14,x21	 x14:0x00000001 x21:0x80009f20 x10=0x00000000
       65885000	      6587	800018a4	1d747513	andi	x10,x8,471	  x8:0x00000000 x10=0x00000000
       65895000	      6588	800018a8	00e4dd13	srli	x26,x9,0xe	  x9:0x00000000 x26=0x00000000
       65905000	      6589	800018ac	01b3e833	or	x16,x7,x27	  x7:0xb551c97a x27:0x00000000 x16=0xb551c97a
       65915000	      6590	800018b0	40c65b93	srai	x23,x12,0xc	 x12:0x14804000 x23=0x00014804
       65925000	      6591	800018b4	74cf1037	lui	x0,0x74cf1	
       65935000	      6592	800018b8	01a141b3	xor	x3,x2,x26	  x2:0xfffffda5 x26:0x00000000  x3=0xfffffda5
       65945000	      6593	800018bc	212fbc13	sltiu	x24,x31,530	 x31:0x80009fc4 x24=0x00000000
       65955000	      6594	800018c0	00713733	sltu	x14,x2,x7	  x2:0xfffffda5  x7:0xb551c97a x14=0x00000000
       65965000	      6595	800018c4	025f4263	blt	x30,x5,800018e8	 x30:0x0000025b  x5:0x00000000
       65975000	      6596	800018c8	01691593	slli	x11,x18,0x16	 x18:0x80009f21 x11=0xc8400000
       65985000	      6597	800018cc	0f2e21b7	lui	x3,0xf2e2	  x3=0x0f2e2000
       65995000	      6598	800018d0	019d6db3	or	x27,x26,x25	 x26:0x00000000 x25:0x00000000 x27=0x00000000
       66005000	      6599	800018d4	01d6c663	blt	x13,x29,800018e0	 x13:0x00000001 x29:0x00000001
       66015000	      6600	800018d8	01ee23b3	slt	x7,x28,x30	 x28:0x3d24f000 x30:0x0000025b  x7=0x00000000
       66025000	      6601	800018dc	c6a2c113	xori	x2,x5,-918	  x5:0x00000000  x2=0xfffffc6a
       66035000	      6602	800018e0	2a69a293	slti	x5,x19,678	 x19:0x80009eee  x5=0x00000001
       66045000	      6603	800018e4	007568b3	or	x17,x10,x7	 x10:0x00000000  x7:0x00000000 x17=0x00000000
       66055000	      6604	800018e8	c8afe813	ori	x16,x31,-886	 x31:0x80009fc4 x16=0xffffffce
       66065000	      6605	800018ec	0137b8b3	sltu	x17,x15,x19	 x15:0x80009fc4 x19:0x80009eee x17=0x00000000
       66075000	      6606	800018f0	01cf6cb3	or	x25,x30,x28	 x30:0x0000025b x28:0x3d24f000 x25=0x3d24f25b
       66085000	      6607	800018f4	00855c93	srli	x25,x10,0x8	 x10:0x00000000 x25=0x00000000
       66095000	      6608	800018f8	ba57f313	andi	x6,x15,-1115	 x15:0x80009fc4  x6=0x80009b84
       66105000	      6609	800018fc	006c9c93	slli	x25,x25,0x6	 x25:0x00000000 x25=0x00000000
       66115000	      6610	80001900	41b30933	sub	x18,x6,x27	  x6:0x80009b84 x27:0x00000000 x18=0x80009b84
       66125000	      6611	80001904	1121f113	andi	x2,x3,274	  x3:0x0f2e2000  x2=0x00000000
       66135000	      6612	80001908	02450663	beq	x10,x4,80001934	 x10:0x00000000  x4:0x00000000
       66145000	      6613	00000000	00000013	addi	x0,x0,0	  x0:0x00000000
       66155000	      6614	80001930	00000013	addi	x0,x0,0	  x0:0x00000000
       66165000	      6615	80001934	3d507913	andi	x18,x0,981	  x0:0x00000000 x18=0x00000000
       66175000	      6616	80001938	404f0db3	sub	x27,x30,x4	 x30:0x0000025b  x4:0x00000000 x27=0x0000025b
       66185000	      6617	8000193c	000f3fb3	sltu	x31,x30,x0	 x30:0x0000025b  x0:0x00000000 x31=0x00000000
       66195000	      6618	80001940	02baea63	bltu	x21,x11,80001974	 x21:0x80009f20 x11:0xc8400000
       66205000	      6619	00000000	00000013	addi	x0,x0,0	  x0:0x00000000
       66215000	      6620	80001970	00000013	addi	x0,x0,0	  x0:0x00000000
       66225000	      6621	80001974	009b29b3	slt	x19,x22,x9	 x22:0x00000000  x9:0x00000000 x19=0x00000000
       66235000	      6622	80001978	000d7233	and	x4,x26,x0	 x26:0x00000000  x0:0x00000000  x4=0x00000000
       66245000	      6623	8000197c	01ce22b3	slt	x5,x28,x28	 x28:0x3d24f000 x28:0x3d24f000  x5=0x00000000
       66255000	      6624	80001980	51966513	ori	x10,x12,1305	 x12:0x14804000 x10=0x14804519
       66265000	      6625	80001984	01c61d93	slli	x27,x12,0x1c	 x12:0x14804000 x27=0x00000000
       66275000	      6626	80001988	19cdbe13	sltiu	x28,x27,412	 x27:0x00000000 x28=0x00000001
       66285000	      6627	8000198c	04a8e263	bltu	x17,x10,800019d0	 x17:0x00000000 x10:0x14804519
       66295000	      6628	00000000	00000013	addi	x0,x0,0	  x0:0x00000000
       66305000	      6629	800019cc	00000013	addi	x0,x0,0	  x0:0x00000000
       66315000	      6630	800019d0	5f42b893	sltiu	x17,x5,1524	  x5:0x00000000 x17=0x00000001
       66325000	      6631	800019d4	eaaab217	auipc	x4,0xeaaab	  x4=0x6aaac9d0
       66335000	      6632	800019d8	67668f13	addi	x30,x13,1654	 x13:0x00000001 x30=0x00000677
       66345000	      6633	800019dc	00000013	addi	x0,x0,0	  x0:0x00000000
       66355000	      6634	800019e0	335ca013	slti	x0,x25,821	 x25:0x00000000
       66365000	      6635	800019e4	00db2733	slt	x14,x22,x13	 x22:0x00000000 x13:0x00000001 x14=0x00000001
       66375000	      6636	800019e8	e0ab0093	addi	x1,x22,-502	 x22:0x00000000  x1=0xfffffe0a
       66385000	      6637	800019ec	40fb5d33	sra	x26,x22,x15	 x22:0x00000000 x15:0x80009fc4 x26=0x00000000
       66395000	      6638	800019f0	01bf4c63	blt	x30,x27,80001a08	 x30:0x00000677 x27:0x00000000
       66405000	      6639	800019f4	ffc76313	ori	x6,x14,-4	 x14:0x00000001  x6=0xfffffffd
       66415000	      6640	800019f8	01b99293	slli	x5,x19,0x1b	 x19:0x00000000  x5=0x00000000
       66425000	      6641	800019fc	00836133	or	x2,x6,x8	  x6:0xfffffffd  x8:0x00000000  x2=0xfffffffd
       66435000	      6642	80001a00	0012b4b3	sltu	x9,x5,x1	  x5:0x00000000  x1:0xfffffe0a  x9=0x00000001
       66445000	      6643	80001a04	030ff663	bgeu	x31,x16,80001a30	 x31:0x00000000 x16:0xffffffce
       66455000	      6644	80001a08	41475f33	sra	x30,x14,x20	 x14:0x00000001 x20:0x80009f20 x30=0x00000001
       66465000	      6645	80001a0c	00b85e13	srli	x28,x16,0xb	 x16:0xffffffce x28=0x001fffff
       66475000	      6646	80001a10	02dc7263	bgeu	x24,x13,80001a34	 x24:0x00000000 x13:0x00000001
       66485000	      6647	80001a14	03d5ec63	bltu	x11,x29,80001a4c	 x11:0xc8400000 x29:0x00000001
       66495000	      6648	80001a18	02857863	bgeu	x10,x8,80001a48	 x10:0x14804519  x8:0x00000000
       66505000	      6649	00000000	00000013	addi	x0,x0,0	  x0:0x00000000
       66515000	      6650	80001a44	00000013	addi	x0,x0,0	  x0:0x00000000
       66525000	      6651	80001a48	00d359b3	srl	x19,x6,x13	  x6:0xfffffffd x13:0x00000001 x19=0x7ffffffe
       66535000	      6652	80001a4c	655c6193	ori	x3,x24,1621	 x24:0x00000000  x3=0x00000655
       66545000	      6653	80001a50	013d9513	slli	x10,x27,0x13	 x27:0x00000000 x10=0x00000000
       66555000	      6654	80001a54	04c91863	bne	x18,x12,80001aa4	 x18:0x00000000 x12:0x14804000
       66565000	      6655	00000000	00000013	addi	x0,x0,0	  x0:0x00000000
       66575000	      6656	80001aa0	00000013	addi	x0,x0,0	  x0:0x00000000
       66585000	      6657	80001aa4	d7c5f0b7	lui	x1,0xd7c5f	  x1=0xd7c5f000
       66595000	      6658	80001aa8	00f10663	beq	x2,x15,80001ab4	  x2:0xfffffffd x15:0x80009fc4
       66605000	      6659	80001aac	4056d633	sra	x12,x13,x5	 x13:0x00000001  x5:0x00000000 x12=0x00000001
       66615000	      6660	80001ab0	00ad9533	sll	x10,x27,x10	 x27:0x00000000 x10:0x00000000 x10=0x00000000
       66625000	      6661	80001ab4	b2a2cd13	xori	x26,x5,-1238	  x5:0x00000000 x26=0xfffffb2a
       66635000	      6662	80001ab8	a2e59e37	lui	x28,0xa2e59	 x28=0xa2e59000
       66645000	      6663	80001abc	01e6afb3	slt	x31,x13,x30	 x13:0x00000001 x30:0x00000001 x31=0x00000000
       66655000	      6664	80001ac0	00000013	addi	x0,x0,0	  x0:0x00000000
       66665000	      6665	80001ac4	01fb1233	sll	x4,x22,x31	 x22:0x00000000 x31:0x00000000  x4=0x00000000
       66675000	      6666	80001ac8	41c45a13	srai	x20,x8,0x1c	  x8:0x00000000 x20=0x00000000
       66685000	      6667	80001acc	012c78b3	and	x17,x24,x18	 x24:0x00000000 x18:0x00000000 x17=0x00000000
       66695000	      6668	80001ad0	ff02aeb7	lui	x29,0xff02a	 x29=0xff02a000
       66705000	      6669	80001ad4	00000013	addi	x0,x0,0	  x0:0x00000000
       66715000	      6670	80001ad8	01dd1013	slli	x0,x26,0x1d	 x26:0xfffffb2a
       66725000	      6671	80001adc	00f58033	add	x0,x11,x15	 x11:0xc8400000 x15:0x80009fc4
       66735000	      6672	80001ae0	00dd3433	sltu	x8,x26,x13	 x26:0xfffffb2a x13:0x00000001  x8=0x00000000
       66745000	      6673	80001ae4	00076bb3	or	x23,x14,x0	 x14:0x00000001  x0:0x00000000 x23=0x00000001
       66755000	      6674	80001ae8	05286863	bltu	x16,x18,80001b38	 x16:0xffffffce x18:0x00000000
       66765000	      6675	80001aec	01165f93	srli	x31,x12,0x11	 x12:0x00000001 x31=0x00000000
       66775000	      6676	80001af0	01758c63	beq	x11,x23,80001b08	 x11:0xc8400000 x23:0x00000001
       66785000	      6677	80001af4	02741c63	bne	x8,x7,80001b2c	  x8:0x00000000  x7:0x00000000
       66795000	      6678	80001af8	01621c33	sll	x24,x4,x22	  x4:0x00000000 x22:0x00000000 x24=0x00000000
       66805000	      6679	80001afc	00997663	bgeu	x18,x9,80001b08	 x18:0x00000000  x9:0x00000001
       66815000	      6680	80001b00	ef99a213	slti	x4,x19,-263	 x19:0x7ffffffe  x4=0x00000000
       66825000	      6681	80001b04	00801d93	slli	x27,x0,0x8	  x0:0x00000000 x27=0x00000000
       66835000	      6682	80001b08	991b0a13	addi	x20,x22,-1647	 x22:0x00000000 x20=0xfffff991
       66845000	      6683	80001b0c	048ae863	bltu	x21,x8,80001b5c	 x21:0x80009f20  x8:0x00000000
       66855000	      6684	80001b10	00f5b2b3	sltu	x5,x11,x15	 x11:0xc8400000 x15:0x80009fc4  x5=0x00000000
       66865000	      6685	80001b14	f7f8e713	ori	x14,x17,-129	 x17:0x00000000 x14=0xffffff7f
       66875000	      6686	80001b18	00a39e13	slli	x28,x7,0xa	  x7:0x00000000 x28=0x00000000
       66885000	      6687	80001b1c	0239de63	bge	x19,x3,80001b58	 x19:0x7ffffffe  x3:0x00000655
       66895000	      6688	00000000	00000013	addi	x0,x0,0	  x0:0x00000000
       66905000	      6689	80001b54	00000013	addi	x0,x0,0	  x0:0x00000000
       66915000	      6690	80001b58	02331663	bne	x6,x3,80001b84	  x6:0xfffffffd  x3:0x00000655
       66925000	      6691	00000000	00000013	addi	x0,x0,0	  x0:0x00000000
       66935000	      6692	80001b80	00000013	addi	x0,x0,0	  x0:0x00000000
       66945000	      6693	80001b84	00000013	addi	x0,x0,0	  x0:0x00000000
       66955000	      6694	80001b88	01115c63	bge	x2,x17,80001ba0	  x2:0xfffffffd x17:0x00000000
       66965000	      6695	80001b8c	006783b3	add	x7,x15,x6	 x15:0x80009fc4  x6:0xfffffffd  x7=0x80009fc1
       66975000	      6696	80001b90	6eced717	auipc	x14,0x6eced	 x14=0xeeceeb8c
       66985000	      6697	80001b94	00546233	or	x4,x8,x5	  x8:0x00000000  x5:0x00000000  x4=0x00000000
       66995000	      6698	80001b98	418a5c33	sra	x24,x20,x24	 x20:0xfffff991 x24:0x00000000 x24=0xfffff991
       67005000	      6699	80001b9c	01fc9833	sll	x16,x25,x31	 x25:0x00000000 x31:0x00000000 x16=0x00000000
       67015000	      6700	80001ba0	ed938d13	addi	x26,x7,-295	  x7:0x80009fc1 x26=0x80009e9a
       67025000	      6701	80001ba4	03c87a63	bgeu	x16,x28,80001bd8	 x16:0x00000000 x28:0x00000000
       67035000	      6702	00000000	00000013	addi	x0,x0,0	  x0:0x00000000
       67045000	      6703	80001bd4	00000013	addi	x0,x0,0	  x0:0x00000000
       67055000	      6704	80001bd8	01d77263	bgeu	x14,x29,80001bdc	 x14:0xeeceeb8c x29:0xff02a000
       67065000	      6705	80001bdc	943bf413	andi	x8,x23,-1725	 x23:0x00000001  x8=0x00000001
       67075000	      6706	80001be0	f34dc093	xori	x1,x27,-204	 x27:0x00000000  x1=0xffffff34
       67085000	      6707	80001be4	00629b93	slli	x23,x5,0x6	  x5:0x00000000 x23=0x00000000
       67095000	      6708	80001be8	04a05263	bge	x0,x10,80001c2c	  x0:0x00000000 x10:0x00000000
       67105000	      6709	00000000	00000013	addi	x0,x0,0	  x0:0x00000000
       67115000	      6710	80001c28	00000013	addi	x0,x0,0	  x0:0x00000000
       67125000	      6711	80001c2c	01772733	slt	x14,x14,x23	 x14:0xeeceeb8c x23:0x00000000 x14=0x00000001
       67135000	      6712	80001c30	004fdeb3	srl	x29,x31,x4	 x31:0x00000000  x4:0x00000000 x29=0x00000000
       67145000	      6713	80001c34	e87a3093	sltiu	x1,x20,-377	 x20:0xfffff991  x1=0x00000001
       67155000	      6714	80001c38	0115df33	srl	x30,x11,x17	 x11:0xc8400000 x17:0x00000000 x30=0xc8400000
       67165000	      6715	80001c3c	0458fc63	bgeu	x17,x5,80001c94	 x17:0x00000000  x5:0x00000000
       67175000	      6716	00000000	00000013	addi	x0,x0,0	  x0:0x00000000
       67185000	      6717	80001c90	00000013	addi	x0,x0,0	  x0:0x00000000
       67195000	      6718	80001c94	03158663	beq	x11,x17,80001cc0	 x11:0xc8400000 x17:0x00000000
       67205000	      6719	80001c98	8eff4513	xori	x10,x30,-1809	 x30:0xc8400000 x10=0x37bff8ef
       67215000	      6720	80001c9c	00f17a33	and	x20,x2,x15	  x2:0xfffffffd x15:0x80009fc4 x20=0x80009fc4
       67225000	      6721	80001ca0	01d076b3	and	x13,x0,x29	  x0:0x00000000 x29:0x00000000 x13=0x00000000
       67235000	      6722	80001ca4	410a5313	srai	x6,x20,0x10	 x20:0x80009fc4  x6=0xffff8000
       67245000	      6723	80001ca8	0362c263	blt	x5,x22,80001ccc	  x5:0x00000000 x22:0x00000000
       67255000	      6724	80001cac	00276fb3	or	x31,x14,x2	 x14:0x00000001  x2:0xfffffffd x31=0xfffffffd
       67265000	      6725	80001cb0	417a8333	sub	x6,x21,x23	 x21:0x80009f20 x23:0x00000000  x6=0x80009f20
       67275000	      6726	80001cb4	b9eb8c93	addi	x25,x23,-1122	 x23:0x00000000 x25=0xfffffb9e
       67285000	      6727	80001cb8	013184b3	add	x9,x3,x19	  x3:0x00000655 x19:0x7ffffffe  x9=0x80000653
       67295000	      6728	80001cbc	e3724513	xori	x10,x4,-457	  x4:0x00000000 x10=0xfffffe37
       67305000	      6729	80001cc0	00ec9463	bne	x25,x14,80001cc8	 x25:0xfffffb9e x14:0x00000001
       67315000	      6730	00000000	00000013	addi	x0,x0,0	  x0:0x00000000
       67325000	      6731	80001cc4	00000013	addi	x0,x0,0	  x0:0x00000000
       67335000	      6732	80001cc8	00007863	bgeu	x0,x0,80001cd8	  x0:0x00000000  x0:0x00000000
       67345000	      6733	00000000	00000013	addi	x0,x0,0	  x0:0x00000000
       67355000	      6734	80001cd4	00000013	addi	x0,x0,0	  x0:0x00000000
       67365000	      6735	80001cd8	cc25b393	sltiu	x7,x11,-830	 x11:0xc8400000  x7=0x00000001
       67375000	      6736	80001cdc	016ad193	srli	x3,x21,0x16	 x21:0x80009f20  x3=0x00000200
       67385000	      6737	80001ce0	806aba13	sltiu	x20,x21,-2042	 x21:0x80009f20 x20=0x00000001
       67395000	      6738	80001ce4	8f0060b7	lui	x1,0x8f006	  x1=0x8f006000
       67405000	      6739	80001ce8	68ed4f93	xori	x31,x26,1678	 x26:0x80009e9a x31=0x80009814
       67415000	      6740	80001cec	00ae5a13	srli	x20,x28,0xa	 x28:0x00000000 x20=0x00000000
       67425000	      6741	80001cf0	008c8c33	add	x24,x25,x8	 x25:0xfffffb9e  x8:0x00000001 x24=0xfffffb9f
       67435000	      6742	80001cf4	da1cf993	andi	x19,x25,-607	 x25:0xfffffb9e x19=0xfffff980
       67445000	      6743	80001cf8	0433b193	sltiu	x3,x7,67	  x7:0x00000001  x3=0x00000001
       67455000	      6744	80001cfc	002e9bb3	sll	x23,x29,x2	 x29:0x00000000  x2:0xfffffffd x23=0x00000000
       67465000	      6745	80001d00	3fbe3a37	lui	x20,0x3fbe3	 x20=0x3fbe3000
       67475000	      6746	80001d04	00cde833	or	x16,x27,x12	 x27:0x00000000 x12:0x00000001 x16=0x00000001
       67485000	      6747	80001d08	4b376413	ori	x8,x14,1203	 x14:0x00000001  x8=0x000004b3
       67495000	      6748	80001d0c	62340613	addi	x12,x8,1571	  x8:0x000004b3 x12=0x00000ad6
       67505000	      6749	80001d10	01195c63	bge	x18,x17,80001d28	 x18:0x00000000 x17:0x00000000
       67515000	      6750	00000000	00000013	addi	x0,x0,0	  x0:0x00000000
       67525000	      6751	80001d24	00000013	addi	x0,x0,0	  x0:0x00000000
       67535000	      6752	80001d28	0089a5b3	slt	x11,x19,x8	 x19:0xfffff980  x8:0x000004b3 x11=0x00000001
       67545000	      6753	80001d2c	01701713	slli	x14,x0,0x17	  x0:0x00000000 x14=0x00000000
       67555000	      6754	80001d30	4a670513	addi	x10,x14,1190	 x14:0x00000000 x10=0x000004a6
       67565000	      6755	80001d34	002c8733	add	x14,x25,x2	 x25:0xfffffb9e  x2:0xfffffffd x14=0xfffffb9b
       67575000	      6756	80001d38	b5424093	xori	x1,x4,-1196	  x4:0x00000000  x1=0xfffffb54
       67585000	      6757	80001d3c	00118d33	add	x26,x3,x1	  x3:0x00000001  x1:0xfffffb54 x26=0xfffffb55
       67595000	      6758	80001d40	518b25b7	lui	x11,0x518b2	 x11=0x518b2000
       67605000	      6759	80001d44	ca84b297	auipc	x5,0xca84b	  x5=0x4a84cd40
       67615000	      6760	80001d48	01c40db3	add	x27,x8,x28	  x8:0x000004b3 x28:0x00000000 x27=0x000004b3
       67625000	      6761	80001d4c	01d30f33	add	x30,x6,x29	  x6:0x80009f20 x29:0x00000000 x30=0x80009f20
       67635000	      6762	80001d50	00a01d13	slli	x26,x0,0xa	  x0:0x00000000 x26=0x00000000
       67645000	      6763	80001d54	403d8fb3	sub	x31,x27,x3	 x27:0x000004b3  x3:0x00000001 x31=0x000004b2
       67655000	      6764	80001d58	00000013	addi	x0,x0,0	  x0:0x00000000
       67665000	      6765	80001d5c	0003d9b3	srl	x19,x7,x0	  x7:0x00000001  x0:0x00000000 x19=0x00000001
       67675000	      6766	80001d60	2bbb7313	andi	x6,x22,699	 x22:0x00000000  x6=0x00000000
       67685000	      6767	80001d64	40685fb3	sra	x31,x16,x6	 x16:0x00000001  x6:0x00000000 x31=0x00000001
       67695000	      6768	80001d68	037d8863	beq	x27,x23,80001d98	 x27:0x000004b3 x23:0x00000000
       67705000	      6769	80001d6c	2bfae137	lui	x2,0x2bfae	  x2=0x2bfae000
       67715000	      6770	80001d70	69933013	sltiu	x0,x6,1689	  x6:0x00000000
       67725000	      6771	80001d74	bae94db7	lui	x27,0xbae94	 x27=0xbae94000
       67735000	      6772	80001d78	01efe663	bltu	x31,x30,80001d84	 x31:0x00000001 x30:0x80009f20
       67745000	      6773	00000000	00000013	addi	x0,x0,0	  x0:0x00000000
       67755000	      6774	80001d80	00000013	addi	x0,x0,0	  x0:0x00000000
       67765000	      6775	80001d84	00b78833	add	x16,x15,x11	 x15:0x80009fc4 x11:0x518b2000 x16=0xd18bbfc4
       67775000	      6776	80001d88	d1a17713	andi	x14,x2,-742	  x2:0x2bfae000 x14=0x2bfae000
       67785000	      6777	80001d8c	0a4af313	andi	x6,x21,164	 x21:0x80009f20  x6=0x00000020
       67795000	      6778	80001d90	1fb8ff93	andi	x31,x17,507	 x17:0x00000000 x31=0x00000000
       67805000	      6779	80001d94	00f2d613	srli	x12,x5,0xf	  x5:0x4a84cd40 x12=0x00009509
       67815000	      6780	80001d98	027d0663	beq	x26,x7,80001dc4	 x26:0x00000000  x7:0x00000001
       67825000	      6781	80001d9c	00d75463	bge	x14,x13,80001da4	 x14:0x2bfae000 x13:0x00000000
       67835000	      6782	00000000	00000013	addi	x0,x0,0	  x0:0x00000000
       67845000	      6783	80001da0	00000013	addi	x0,x0,0	  x0:0x00000000
       67855000	      6784	80001da4	9a41b293	sltiu	x5,x3,-1628	  x3:0x00000001  x5=0x00000001
       67865000	      6785	80001da8	41c556b3	sra	x13,x10,x28	 x10:0x000004a6 x28:0x00000000 x13=0x000004a6
       67875000	      6786	80001dac	05cbf863	bgeu	x23,x28,80001dfc	 x23:0x00000000 x28:0x00000000
       67885000	      6787	00000000	00000013	addi	x0,x0,0	  x0:0x00000000
       67895000	      6788	80001df8	00000013	addi	x0,x0,0	  x0:0x00000000
       67905000	      6789	80001dfc	9447f537	lui	x10,0x9447f	 x10=0x9447f000
       67915000	      6790	80001e00	400f5713	srai	x14,x30,0x0	 x30:0x80009f20 x14=0x80009f20
       67925000	      6791	80001e04	41dd08b3	sub	x17,x26,x29	 x26:0x00000000 x29:0x00000000 x17=0x00000000
       67935000	      6792	80001e08	013a5493	srli	x9,x20,0x13	 x20:0x3fbe3000  x9=0x000007f7
       67945000	      6793	80001e0c	05b9c863	blt	x19,x27,80001e5c	 x19:0x00000001 x27:0xbae94000
       67955000	      6794	80001e10	5a7b4913	xori	x18,x22,1447	 x22:0x00000000 x18=0x000005a7
       67965000	      6795	80001e14	4236a813	slti	x16,x13,1059	 x13:0x000004a6 x16=0x00000000
       67975000	      6796	80001e18	017ad133	srl	x2,x21,x23	 x21:0x80009f20 x23:0x00000000  x2=0x80009f20
       67985000	      6797	80001e1c	0005acb3	slt	x25,x11,x0	 x11:0x518b2000  x0:0x00000000 x25=0x00000000
       67995000	      6798	80001e20	01344f33	xor	x30,x8,x19	  x8:0x000004b3 x19:0x00000001 x30=0x000004b2
       68005000	      6799	80001e24	04c70863	beq	x14,x12,80001e74	 x14:0x80009f20 x12:0x00009509
       68015000	      6800	80001e28	01de41b3	xor	x3,x28,x29	 x28:0x00000000 x29:0x00000000  x3=0x00000000
       68025000	      6801	80001e2c	7d5fe313	ori	x6,x31,2005	 x31:0x00000000  x6=0x000007d5
       68035000	      6802	80001e30	00fa2bb3	slt	x23,x20,x15	 x20:0x3fbe3000 x15:0x80009fc4 x23=0x00000000
       68045000	      6803	80001e34	03105c63	bge	x0,x17,80001e6c	  x0:0x00000000 x17:0x00000000
       68055000	      6804	00000000	00000013	addi	x0,x0,0	  x0:0x00000000
       68065000	      6805	80001e68	00000013	addi	x0,x0,0	  x0:0x00000000
       68075000	      6806	80001e6c	00d7dc63	bge	x15,x13,80001e84	 x15:0x80009fc4 x13:0x000004a6
       68085000	      6807	80001e70	0535d263	bge	x11,x19,80001eb4	 x11:0x518b2000 x19:0x00000001
       68095000	      6808	00000000	00000013	addi	x0,x0,0	  x0:0x00000000
       68105000	      6809	80001eb0	00000013	addi	x0,x0,0	  x0:0x00000000
       68115000	      6810	80001eb4	00000013	addi	x0,x0,0	  x0:0x00000000
       68125000	      6811	80001eb8	00f95693	srli	x13,x18,0xf	 x18:0x000005a7 x13=0x00000000
       68135000	      6812	80001ebc	41e955b3	sra	x11,x18,x30	 x18:0x000005a7 x30:0x000004b2 x11=0x00000000
       68145000	      6813	80001ec0	01a962b3	or	x5,x18,x26	 x18:0x000005a7 x26:0x00000000  x5=0x000005a7
       68155000	      6814	80001ec4	01f1b133	sltu	x2,x3,x31	  x3:0x00000000 x31:0x00000000  x2=0x00000000
       68165000	      6815	80001ec8	e1ed2e93	slti	x29,x26,-482	 x26:0x00000000 x29=0x00000000
       68175000	      6816	80001ecc	1311fb93	andi	x23,x3,305	  x3:0x00000000 x23=0x00000000
       68185000	      6817	80001ed0	00a788b3	add	x17,x15,x10	 x15:0x80009fc4 x10:0x9447f000 x17=0x14488fc4
       68195000	      6818	80001ed4	04275063	bge	x14,x2,80001f14	 x14:0x80009f20  x2:0x00000000
       68205000	      6819	80001ed8	5b668613	addi	x12,x13,1462	 x13:0x00000000 x12=0x000005b6
       68215000	      6820	80001edc	03591263	bne	x18,x21,80001f00	 x18:0x000005a7 x21:0x80009f20
       68225000	      6821	00000000	00000013	addi	x0,x0,0	  x0:0x00000000
       68235000	      6822	80001efc	00000013	addi	x0,x0,0	  x0:0x00000000
       68245000	      6823	80001f00	01791193	slli	x3,x18,0x17	 x18:0x000005a7  x3=0xd3800000
       68255000	      6824	80001f04	02d06663	bltu	x0,x13,80001f30	  x0:0x00000000 x13:0x00000000
       68265000	      6825	80001f08	00537c63	bgeu	x6,x5,80001f20	  x6:0x000007d5  x5:0x000005a7
       68275000	      6826	00000000	00000013	addi	x0,x0,0	  x0:0x00000000
       68285000	      6827	80001f1c	00000013	addi	x0,x0,0	  x0:0x00000000
       68295000	      6828	80001f20	7bdb3c13	sltiu	x24,x22,1981	 x22:0x00000000 x24=0x00000001
       68305000	      6829	80001f24	03aa6e63	bltu	x20,x26,80001f60	 x20:0x3fbe3000 x26:0x00000000
       68315000	      6830	80001f28	01a7b9b3	sltu	x19,x15,x26	 x15:0x80009fc4 x26:0x00000000 x19=0x00000000
       68325000	      6831	80001f2c	039e5063	bge	x28,x25,80001f4c	 x28:0x00000000 x25:0x00000000
       68335000	      6832	00000000	00000013	addi	x0,x0,0	  x0:0x00000000
       68345000	      6833	80001f48	00000013	addi	x0,x0,0	  x0:0x00000000
       68355000	      6834	80001f4c	40f25f13	srai	x30,x4,0xf	  x4:0x00000000 x30=0x00000000
       68365000	      6835	80001f50	40bf5d13	srai	x26,x30,0xb	 x30:0x00000000 x26=0x00000000
       68375000	      6836	80001f54	0294e863	bltu	x9,x9,80001f84	  x9:0x000007f7  x9:0x000007f7
       68385000	      6837	80001f58	4048dfb3	sra	x31,x17,x4	 x17:0x14488fc4  x4:0x00000000 x31=0x14488fc4
       68395000	      6838	80001f5c	003a60b3	or	x1,x20,x3	 x20:0x3fbe3000  x3:0xd3800000  x1=0xffbe3000
       68405000	      6839	80001f60	00e91613	slli	x12,x18,0xe	 x18:0x000005a7 x12=0x0169c000
       68415000	      6840	80001f64	00e11293	slli	x5,x2,0xe	  x2:0x00000000  x5=0x00000000
       68425000	      6841	80001f68	0103a633	slt	x12,x7,x16	  x7:0x00000001 x16:0x00000000 x12=0x00000000
       68435000	      6842	80001f6c	00011c63	bne	x2,x0,80001f84	  x2:0x00000000  x0:0x00000000
       68445000	      6843	80001f70	01728fb3	add	x31,x5,x23	  x5:0x00000000 x23:0x00000000 x31=0x00000000
       68455000	      6844	80001f74	00f89813	slli	x16,x17,0xf	 x17:0x14488fc4 x16=0x47e20000
       68465000	      6845	80001f78	01840463	beq	x8,x24,80001f80	  x8:0x000004b3 x24:0x00000001
       68475000	      6846	80001f7c	40bf5433	sra	x8,x30,x11	 x30:0x00000000 x11:0x00000000  x8=0x00000000
       68485000	      6847	80001f80	01fe1833	sll	x16,x28,x31	 x28:0x00000000 x31:0x00000000 x16=0x00000000
       68495000	      6848	80001f84	0078c333	xor	x6,x17,x7	 x17:0x14488fc4  x7:0x00000001  x6=0x14488fc5
       68505000	      6849	80001f88	019d1863	bne	x26,x25,80001f98	 x26:0x00000000 x25:0x00000000
       68515000	      6850	80001f8c	00290c33	add	x24,x18,x2	 x18:0x000005a7  x2:0x00000000 x24=0x000005a7
       68525000	      6851	80001f90	40120133	sub	x2,x4,x1	  x4:0x00000000  x1:0xffbe3000  x2=0x0041d000
       68535000	      6852	80001f94	00000013	addi	x0,x0,0	  x0:0x00000000
       68545000	      6853	80001f98	01a9cbb3	xor	x23,x19,x26	 x19:0x00000000 x26:0x00000000 x23=0x00000000
       68555000	      6854	80001f9c	2ff1e993	ori	x19,x3,767	  x3:0xd3800000 x19=0xd38002ff
       68565000	      6855	80001fa0	91580d13	addi	x26,x16,-1771	 x16:0x00000000 x26=0xfffff915
       68575000	      6856	80001fa4	416885b3	sub	x11,x17,x22	 x17:0x14488fc4 x22:0x00000000 x11=0x14488fc4
       68585000	      6857	80001fa8	b25fc693	xori	x13,x31,-1243	 x31:0x00000000 x13=0xfffffb25
       68595000	      6858	80001fac	013f8f33	add	x30,x31,x19	 x31:0x00000000 x19:0xd38002ff x30=0xd38002ff
       68605000	      6859	80001fb0	006794b3	sll	x9,x15,x6	 x15:0x80009fc4  x6:0x14488fc5  x9=0x0013f880
       68615000	      6860	80001fb4	0178d333	srl	x6,x17,x23	 x17:0x14488fc4 x23:0x00000000  x6=0x14488fc4
       68625000	      6861	80001fb8	0283c263	blt	x7,x8,80001fdc	  x7:0x00000001  x8:0x00000000
       68635000	      6862	80001fbc	03a91263	bne	x18,x26,80001fe0	 x18:0x000005a7 x26:0xfffff915
       68645000	      6863	00000000	00000013	addi	x0,x0,0	  x0:0x00000000
       68655000	      6864	80001fdc	00000013	addi	x0,x0,0	  x0:0x00000000
       68665000	      6865	80001fe0	c6516713	ori	x14,x2,-923	  x2:0x0041d000 x14=0xfffffc65
       68675000	      6866	80001fe4	01780a63	beq	x16,x23,80001ff8	 x16:0x00000000 x23:0x00000000
       68685000	      6867	00000000	00000013	addi	x0,x0,0	  x0:0x00000000
       68695000	      6868	80001ff4	00000013	addi	x0,x0,0	  x0:0x00000000
       68705000	      6869	80001ff8	01ca53b3	srl	x7,x20,x28	 x20:0x3fbe3000 x28:0x00000000  x7=0x3fbe3000
       68715000	      6870	80001ffc	23e83693	sltiu	x13,x16,574	 x16:0x00000000 x13=0x00000001
       68725000	      6871	80002000	c8af0813	addi	x16,x30,-886	 x30:0xd38002ff x16=0xd37fff89
       68735000	      6872	80002004	404e01b3	sub	x3,x28,x4	 x28:0x00000000  x4:0x00000000  x3=0x00000000
       68745000	      6873	80002008	cabb7413	andi	x8,x22,-853	 x22:0x00000000  x8=0x00000000
       68755000	      6874	8000200c	41cd0133	sub	x2,x26,x28	 x26:0xfffff915 x28:0x00000000  x2=0xfffff915
       68765000	      6875	80002010	ac072d37	lui	x26,0xac072	 x26=0xac072000
       68775000	      6876	80002014	03840a63	beq	x8,x24,80002048	  x8:0x00000000 x24:0x000005a7
       68785000	      6877	80002018	009fc863	blt	x31,x9,80002028	 x31:0x00000000  x9:0x0013f880
       68795000	      6878	00000000	00000013	addi	x0,x0,0	  x0:0x00000000
       68805000	      6879	80002024	00000013	addi	x0,x0,0	  x0:0x00000000
       68815000	      6880	80002028	010d06b3	add	x13,x26,x16	 x26:0xac072000 x16:0xd37fff89 x13=0x7f871f89
       68825000	      6881	8000202c	056ad263	bge	x21,x22,80002070	 x21:0x80009f20 x22:0x00000000
       68835000	      6882	80002030	00ecd013	srli	x0,x25,0xe	 x25:0x00000000
       68845000	      6883	80002034	00000013	addi	x0,x0,0	  x0:0x00000000
       68855000	      6884	80002038	01201513	slli	x10,x0,0x12	  x0:0x00000000 x10=0x00000000
       68865000	      6885	8000203c	01489c13	slli	x24,x17,0x14	 x17:0x14488fc4 x24=0xfc400000
       68875000	      6886	80002040	016d5663	bge	x26,x22,8000204c	 x26:0xac072000 x22:0x00000000
       68885000	      6887	80002044	044b7863	bgeu	x22,x4,80002094	 x22:0x00000000  x4:0x00000000
       68895000	      6888	00000000	00000013	addi	x0,x0,0	  x0:0x00000000
       68905000	      6889	80002090	00000013	addi	x0,x0,0	  x0:0x00000000
       68915000	      6890	80002094	0ee48f13	addi	x30,x9,238	  x9:0x0013f880 x30=0x0013f96e
       68925000	      6891	80002098	00ebd393	srli	x7,x23,0xe	 x23:0x00000000  x7=0x00000000
       68935000	      6892	8000209c	6fb7e613	ori	x12,x15,1787	 x15:0x80009fc4 x12=0x80009fff
       68945000	      6893	800020a0	0157e933	or	x18,x15,x21	 x15:0x80009fc4 x21:0x80009f20 x18=0x80009fe4
       68955000	      6894	800020a4	055d6063	bltu	x26,x21,800020e4	 x26:0xac072000 x21:0x80009f20
       68965000	      6895	800020a8	f8ef2493	slti	x9,x30,-114	 x30:0x0013f96e  x9=0x00000000
       68975000	      6896	800020ac	40acd0b3	sra	x1,x25,x10	 x25:0x00000000 x10:0x00000000  x1=0x00000000
       68985000	      6897	800020b0	0061fdb3	and	x27,x3,x6	  x3:0x00000000  x6:0x14488fc4 x27=0x00000000
       68995000	      6898	800020b4	012e6eb3	or	x29,x28,x18	 x28:0x00000000 x18:0x80009fe4 x29=0x80009fe4
       69005000	      6899	800020b8	01aac0b3	xor	x1,x21,x26	 x21:0x80009f20 x26:0xac072000  x1=0x2c07bf20
       69015000	      6900	800020bc	01ff9263	bne	x31,x31,800020c0	 x31:0x00000000 x31:0x00000000
       69025000	      6901	800020c0	01b46fb3	or	x31,x8,x27	  x8:0x00000000 x27:0x00000000 x31=0x00000000
       69035000	      6902	800020c4	00000013	addi	x0,x0,0	  x0:0x00000000
       69045000	      6903	800020c8	e755b593	sltiu	x11,x11,-395	 x11:0x14488fc4 x11=0x00000001
       69055000	      6904	800020cc	015a9013	slli	x0,x21,0x15	 x21:0x80009f20
       69065000	      6905	800020d0	01716d33	or	x26,x2,x23	  x2:0xfffff915 x23:0x00000000 x26=0xfffff915
       69075000	      6906	800020d4	042cb093	sltiu	x1,x25,66	 x25:0x00000000  x1=0x00000001
       69085000	      6907	800020d8	00df44b3	xor	x9,x30,x13	 x30:0x0013f96e x13:0x7f871f89  x9=0x7f94e6e7
       69095000	      6908	800020dc	01c56e63	bltu	x10,x28,800020f8	 x10:0x00000000 x28:0x00000000
       69105000	      6909	800020e0	009bd663	bge	x23,x9,800020ec	 x23:0x00000000  x9:0x7f94e6e7
       69115000	      6910	800020e4	00fedc63	bge	x29,x15,800020fc	 x29:0x80009fe4 x15:0x80009fc4
       69125000	      6911	00000000	00000013	addi	x0,x0,0	  x0:0x00000000
       69135000	      6912	800020f8	00000013	addi	x0,x0,0	  x0:0x00000000
       69145000	      6913	800020fc	00745f33	srl	x30,x8,x7	  x8:0x00000000  x7:0x00000000 x30=0x00000000
       69155000	      6914	80002100	017b5fb3	srl	x31,x22,x23	 x22:0x00000000 x23:0x00000000 x31=0x00000000
       69165000	      6915	80002104	05689863	bne	x17,x22,80002154	 x17:0x14488fc4 x22:0x00000000
       69175000	      6916	00000000	00000013	addi	x0,x0,0	  x0:0x00000000
       69185000	      6917	80002150	00000013	addi	x0,x0,0	  x0:0x00000000
       69195000	      6918	80002154	1cb0e713	ori	x14,x1,459	  x1:0x00000001 x14=0x000001cb
       69205000	      6919	80002158	04269263	bne	x13,x2,8000219c	 x13:0x7f871f89  x2:0xfffff915
       69215000	      6920	00000000	00000013	addi	x0,x0,0	  x0:0x00000000
       69225000	      6921	80002198	00000013	addi	x0,x0,0	  x0:0x00000000
       69235000	      6922	8000219c	01a89c13	slli	x24,x17,0x1a	 x17:0x14488fc4 x24=0x10000000
       69245000	      6923	800021a0	01324433	xor	x8,x4,x19	  x4:0x00000000 x19:0xd38002ff  x8=0xd38002ff
       69255000	      6924	800021a4	2ddc1737	lui	x14,0x2ddc1	 x14=0x2ddc1000
       69265000	      6925	800021a8	41a6dd33	sra	x26,x13,x26	 x13:0x7f871f89 x26:0xfffff915 x26=0x000003fc
       69275000	      6926	800021ac	05e6e863	bltu	x13,x30,800021fc	 x13:0x7f871f89 x30:0x00000000
       69285000	      6927	800021b0	40958833	sub	x16,x11,x9	 x11:0x00000001  x9:0x7f94e6e7 x16=0x806b191a
       69295000	      6928	800021b4	6cd23413	sltiu	x8,x4,1741	  x4:0x00000000  x8=0x00000001
       69305000	      6929	800021b8	00128d33	add	x26,x5,x1	  x5:0x00000000  x1:0x00000001 x26=0x00000001
       69315000	      6930	800021bc	027d8063	beq	x27,x7,800021dc	 x27:0x00000000  x7:0x00000000
       69325000	      6931	00000000	00000013	addi	x0,x0,0	  x0:0x00000000
       69335000	      6932	800021d8	00000013	addi	x0,x0,0	  x0:0x00000000
       69345000	      6933	800021dc	01e31333	sll	x6,x6,x30	  x6:0x14488fc4 x30:0x00000000  x6=0x14488fc4
       69355000	      6934	800021e0	a2735437	lui	x8,0xa2735	  x8=0xa2735000
       69365000	      6935	800021e4	ade9cd13	xori	x26,x19,-1314	 x19:0xd38002ff x26=0x2c7ff821
       69375000	      6936	800021e8	00ae9e33	sll	x28,x29,x10	 x29:0x80009fe4 x10:0x00000000 x28=0x80009fe4
       69385000	      6937	800021ec	4055dcb3	sra	x25,x11,x5	 x11:0x00000001  x5:0x00000000 x25=0x00000001
       69395000	      6938	800021f0	41b785b3	sub	x11,x15,x27	 x15:0x80009fc4 x27:0x00000000 x11=0x80009fc4
       69405000	      6939	800021f4	fdc10c37	lui	x24,0xfdc10	 x24=0xfdc10000
       69415000	      6940	800021f8	01dc0cb3	add	x25,x24,x29	 x24:0xfdc10000 x29:0x80009fe4 x25=0x7dc19fe4
       69425000	      6941	800021fc	d43989b7	lui	x19,0xd4398	 x19=0xd4398000
       69435000	      6942	80002200	0227fa63	bgeu	x15,x2,80002234	 x15:0x80009fc4  x2:0xfffff915
       69445000	      6943	80002204	41dd5233	sra	x4,x26,x29	 x26:0x2c7ff821 x29:0x80009fe4  x4=0x02c7ff82
       69455000	      6944	80002208	400ed333	sra	x6,x29,x0	 x29:0x80009fe4  x0:0x00000000  x6=0x80009fe4
       69465000	      6945	8000220c	40855933	sra	x18,x10,x8	 x10:0x00000000  x8:0xa2735000 x18=0x00000000
       69475000	      6946	80002210	00de5db3	srl	x27,x28,x13	 x28:0x80009fe4 x13:0x7f871f89 x27=0x0040004f
       69485000	      6947	80002214	02cbc663	blt	x23,x12,80002240	 x23:0x00000000 x12:0x80009fff
       69495000	      6948	80002218	002109b3	add	x19,x2,x2	  x2:0xfffff915  x2:0xfffff915 x19=0xfffff22a
       69505000	      6949	8000221c	0061ec63	bltu	x3,x6,80002234	  x3:0x00000000  x6:0x80009fe4
       69515000	      6950	00000000	00000013	addi	x0,x0,0	  x0:0x00000000
       69525000	      6951	80002230	00000013	addi	x0,x0,0	  x0:0x00000000
       69535000	      6952	80002234	98cd4693	xori	x13,x26,-1652	 x26:0x2c7ff821 x13=0xd38001ad
       69545000	      6953	80002238	00e76863	bltu	x14,x14,80002248	 x14:0x2ddc1000 x14:0x2ddc1000
       69555000	      6954	8000223c	01f8f5b3	and	x11,x17,x31	 x17:0x14488fc4 x31:0x00000000 x11=0x00000000
       69565000	      6955	80002240	007f3a33	sltu	x20,x30,x7	 x30:0x00000000  x7:0x00000000 x20=0x00000000
       69575000	      6956	80002244	40658433	sub	x8,x11,x6	 x11:0x00000000  x6:0x80009fe4  x8=0x7fff601c
       69585000	      6957	80002248	215fec93	ori	x25,x31,533	 x31:0x00000000 x25=0x00000215
       69595000	      6958	8000224c	41cd54b3	sra	x9,x26,x28	 x26:0x2c7ff821 x28:0x80009fe4  x9=0x02c7ff82
       69605000	      6959	80002250	0067a2b3	slt	x5,x15,x6	 x15:0x80009fc4  x6:0x80009fe4  x5=0x00000001
       69615000	      6960	80002254	41ed53b3	sra	x7,x26,x30	 x26:0x2c7ff821 x30:0x00000000  x7=0x2c7ff821
       69625000	      6961	80002258	028a8263	beq	x21,x8,8000227c	 x21:0x80009f20  x8:0x7fff601c
       69635000	      6962	8000225c	014582b3	add	x5,x11,x20	 x11:0x00000000 x20:0x00000000  x5=0x00000000
       69645000	      6963	80002260	014dc0b3	xor	x1,x27,x20	 x27:0x0040004f x20:0x00000000  x1=0x0040004f
       69655000	      6964	80002264	009ea5b3	slt	x11,x29,x9	 x29:0x80009fe4  x9:0x02c7ff82 x11=0x00000001
       69665000	      6965	80002268	4070d993	srai	x19,x1,0x7	  x1:0x0040004f x19=0x00008000
       69675000	      6966	8000226c	4be74f13	xori	x30,x14,1214	 x14:0x2ddc1000 x30=0x2ddc14be
       69685000	      6967	80002270	00f1b5b3	sltu	x11,x3,x15	  x3:0x00000000 x15:0x80009fc4 x11=0x00000001
       69695000	      6968	80002274	01bf5663	bge	x30,x27,80002280	 x30:0x2ddc14be x27:0x0040004f
       69705000	      6969	00000000	00000013	addi	x0,x0,0	  x0:0x00000000
       69715000	      6970	8000227c	00000013	addi	x0,x0,0	  x0:0x00000000
       69725000	      6971	80002280	1ee06113	ori	x2,x0,494	  x0:0x00000000  x2=0x000001ee
       69735000	      6972	80002284	01c56f33	or	x30,x10,x28	 x10:0x00000000 x28:0x80009fe4 x30=0x80009fe4
       69745000	      6973	80002288	443f4d17	auipc	x26,0x443f4	 x26=0xc43f6284
       69755000	      6974	8000228c	004aab83	lw	x23,4(x21)	 x21:0x80009f20 x23=0x80000a40 PA:0x80009f24
       69765000	      6975	80002290	012525b3	slt	x11,x10,x18	 x10:0x00000000 x18:0x00000000 x11=0x00000000
       69775000	      6976	80002294	00656cb3	or	x25,x10,x6	 x10:0x00000000  x6:0x80009fe4 x25=0x80009fe4
       69785000	      6977	80002298	008a8a93	addi	x21,x21,8	 x21:0x80009f20 x21=0x80009f28
       69795000	      6978	8000229c	00000013	addi	x0,x0,0	  x0:0x00000000
       69805000	      6979	800022a0	1e560497	auipc	x9,0x1e560	  x9=0x9e56229c
       69815000	      6980	800022a4	c12d4093	xori	x1,x26,-1006	 x26:0xc43f6284  x1=0x3bc09e96
       69825000	      6981	800022a8	00354433	xor	x8,x10,x3	 x10:0x00000000  x3:0x00000000  x8=0x00000000
       69835000	      6982	800022ac	001b8b93	addi	x23,x23,1	 x23:0x80000a40 x23=0x80000a41
       69845000	      6983	800022b0	000b8be7	jalr	x23,x23,0	 x23:0x80000a41 x23=0x800022b0
       69855000	      6984	00000000	00000013	addi	x0,x0,0	  x0:0x00000000
       69865000	      6985	80000a40	00000013	addi	x0,x0,0	  x0:0x00000000
       69875000	      6986	80000a44	00400713	addi	x14,x0,4	  x0:0x00000000 x14=0x00000004
       69885000	      6987	80000a48	93d3f693	andi	x13,x7,-1731	  x7:0x2c7ff821 x13=0x2c7ff821
       69895000	      6988	80000a4c	01161213	slli	x4,x12,0x11	 x12:0x80009fff  x4=0x3ffe0000
       69905000	      6989	80000a50	00f7e4b3	or	x9,x15,x15	 x15:0x80009fc4 x15:0x80009fc4  x9=0x80009fc4
       69915000	      6990	80000a54	00400c13	addi	x24,x0,4	  x0:0x00000000 x24=0x00000004
       69925000	      6991	80000a58	4237b513	sltiu	x10,x15,1059	 x15:0x80009fc4 x10=0x00000000
       69935000	      6992	80000a5c	01629fb3	sll	x31,x5,x22	  x5:0x00000000 x22:0x00000000 x31=0x00000000
       69945000	      6993	80000a60	01c32533	slt	x10,x6,x28	  x6:0x80009fe4 x28:0x80009fe4 x10=0x00000000
       69955000	      6994	80000a64	01115893	srli	x17,x2,0x11	  x2:0x000001ee x17=0x00000000
       69965000	      6995	80000a68	ffd70713	addi	x14,x14,-3	 x14:0x00000004 x14=0x00000001
       69975000	      6996	80000a6c	13c36817	auipc	x16,0x13c36	 x16=0x93c36a68
       69985000	      6997	80000a70	3fa78d13	addi	x26,x15,1018	 x15:0x80009fc4 x26=0x8000a3be
       69995000	      6998	80000a74	8945d817	auipc	x16,0x8945d	 x16=0x0945da70
       70005000	      6999	80000a78	fb0a78b7	lui	x17,0xfb0a7	 x17=0xfb0a7000
       70015000	      7000	80000a7c	0e7cb813	sltiu	x16,x25,231	 x25:0x80009fe4 x16=0x00000000
       70025000	      7001	80000a80	005d5fb3	srl	x31,x26,x5	 x26:0x8000a3be  x5:0x00000000 x31=0x8000a3be
       70035000	      7002	80000a84	0dcaa113	slti	x2,x21,220	 x21:0x80009f28  x2=0x00000001
       70045000	      7003	80000a88	fd8778e3	bgeu	x14,x24,80000a58	 x14:0x00000001 x24:0x00000004
       70055000	      7004	80000a8c	017cafb3	slt	x31,x25,x23	 x25:0x80009fe4 x23:0x800022b0 x31=0x00000000
       70065000	      7005	80000a90	00a00613	addi	x12,x0,10	  x0:0x00000000 x12=0x0000000a
       70075000	      7006	80000a94	2e636093	ori	x1,x6,742	  x6:0x80009fe4  x1=0x80009fe6
       70085000	      7007	80000a98	41418533	sub	x10,x3,x20	  x3:0x00000000 x20:0x00000000 x10=0x00000000
       70095000	      7008	80000a9c	00a00c13	addi	x24,x0,10	  x0:0x00000000 x24=0x0000000a
       70105000	      7009	80000aa0	004373b3	and	x7,x6,x4	  x6:0x80009fe4  x4:0x3ffe0000  x7=0x00000000
       70115000	      7010	80000aa4	018121b3	slt	x3,x2,x24	  x2:0x00000001 x24:0x0000000a  x3=0x00000001
       70125000	      7011	80000aa8	ff760613	addi	x12,x12,-9	 x12:0x0000000a x12=0x00000001
       70135000	      7012	80000aac	01174fb3	xor	x31,x14,x17	 x14:0x00000001 x17:0xfb0a7000 x31=0xfb0a7001
       70145000	      7013	80000ab0	0068c5b3	xor	x11,x17,x6	 x17:0xfb0a7000  x6:0x80009fe4 x11=0x7b0aefe4
       70155000	      7014	80000ab4	d1bba597	auipc	x11,0xd1bba	 x11=0x51bbaab0
       70165000	      7015	80000ab8	36288393	addi	x7,x17,866	 x17:0xfb0a7000  x7=0xfb0a7362
       70175000	      7016	80000abc	00000013	addi	x0,x0,0	  x0:0x00000000
       70185000	      7017	80000ac0	ff8670e3	bgeu	x12,x24,80000aa0	 x12:0x00000001 x24:0x0000000a
       70195000	      7018	80000ac4	4fe64393	xori	x7,x12,1278	 x12:0x00000001  x7=0x000004ff
       70205000	      7019	80000ac8	ff700b93	addi	x23,x0,-9	  x0:0x00000000 x23=0xfffffff7
       70215000	      7020	80000acc	82676213	ori	x4,x14,-2010	 x14:0x00000001  x4=0xfffff827
       70225000	      7021	80000ad0	0e06bd13	sltiu	x26,x13,224	 x13:0x2c7ff821 x26=0x00000000
       70235000	      7022	80000ad4	0141dfb3	srl	x31,x3,x20	  x3:0x00000001 x20:0x00000000 x31=0x00000001
       70245000	      7023	80000ad8	01300913	addi	x18,x0,19	  x0:0x00000000 x18=0x00000013
       70255000	      7024	80000adc	413a5cb3	sra	x25,x20,x19	 x20:0x00000000 x19:0x00008000 x25=0x00000000
       70265000	      7025	80000ae0	6c8c6693	ori	x13,x24,1736	 x24:0x0000000a x13=0x000006ca
       70275000	      7026	80000ae4	00c40433	add	x8,x8,x12	  x8:0x00000000 x12:0x00000001  x8=0x00000001
       70285000	      7027	80000ae8	0191c8b3	xor	x17,x3,x25	  x3:0x00000001 x25:0x00000000 x17=0x00000001
       70295000	      7028	80000aec	004b8b93	addi	x23,x23,4	 x23:0xfffffff7 x23=0xfffffffb
       70305000	      7029	80000af0	ff2beae3	bltu	x23,x18,80000ae4	 x23:0xfffffffb x18:0x00000013
       70315000	      7030	80000af4	013458b3	srl	x17,x8,x19	  x8:0x00000001 x19:0x00008000 x17=0x00000001
       70325000	      7031	80000af8	048a5463	bge	x20,x8,80000b40	 x20:0x00000000  x8:0x00000001
       70335000	      7032	80000afc	00a26633	or	x12,x4,x10	  x4:0xfffff827 x10:0x00000000 x12=0xfffff827
       70345000	      7033	80000b00	0135c3b3	xor	x7,x11,x19	 x11:0x51bbaab0 x19:0x00008000  x7=0x51bb2ab0
       70355000	      7034	80000b04	40bc5a33	sra	x20,x24,x11	 x24:0x0000000a x11:0x51bbaab0 x20=0x00000000
       70365000	      7035	80000b08	011ed833	srl	x16,x29,x17	 x29:0x80009fe4 x17:0x00000001 x16=0x40004ff2
       70375000	      7036	80000b0c	e1a50393	addi	x7,x10,-486	 x10:0x00000000  x7=0xfffffe1a
       70385000	      7037	80000b10	0093c833	xor	x16,x7,x9	  x7:0xfffffe1a  x9:0x80009fc4 x16=0x7fff61de
       70395000	      7038	80000b14	40e55613	srai	x12,x10,0xe	 x10:0x00000000 x12=0x00000000
       70405000	      7039	80000b18	ac7c2237	lui	x4,0xac7c2	  x4=0xac7c2000
       70415000	      7040	80000b1c	74c4e893	ori	x17,x9,1868	  x9:0x80009fc4 x17=0x80009fcc
       70425000	      7041	80000b20	4128dc13	srai	x24,x17,0x12	 x17:0x80009fcc x24=0xffffe000
       70435000	      7042	80000b24	e8a47993	andi	x19,x8,-374	  x8:0x00000001 x19=0x00000000
       70445000	      7043	80000b28	002b8cb3	add	x25,x23,x2	 x23:0xfffffffb  x2:0x00000001 x25=0xfffffffc
       70455000	      7044	80000b2c	00000013	addi	x0,x0,0	  x0:0x00000000
       70465000	      7045	80000b30	008ed533	srl	x10,x29,x8	 x29:0x80009fe4  x8:0x00000001 x10=0x40004ff2
       70475000	      7046	80000b34	fbb1f113	andi	x2,x3,-69	  x3:0x00000001  x2=0x00000001
       70485000	      7047	80000b38	01b56133	or	x2,x10,x27	 x10:0x40004ff2 x27:0x0040004f  x2=0x40404fff
       70495000	      7048	80000b3c	35958593	addi	x11,x11,857	 x11:0x51bbaab0 x11=0x51bbae09
       70505000	      7049	80000b40	2ba8c013	xori	x0,x17,698	 x17:0x80009fcc
       70515000	      7050	80000b44	40d106b3	sub	x13,x2,x13	  x2:0x40404fff x13:0x000006ca x13=0x40404935
       70525000	      7051	80000b48	03698493	addi	x9,x19,54	 x19:0x00000000  x9=0x00000036
       70535000	      7052	80000b4c	01afee63	bltu	x31,x26,80000b68	 x31:0x00000001 x26:0x00000000
       70545000	      7053	80000b50	407002b3	sub	x5,x0,x7	  x0:0x00000000  x7:0xfffffe1a  x5=0x000001e6
       70555000	      7054	80000b54	023e1a63	bne	x28,x3,80000b88	 x28:0x80009fe4  x3:0x00000001
       70565000	      7055	00000000	00000013	addi	x0,x0,0	  x0:0x00000000
       70575000	      7056	80000b84	00000013	addi	x0,x0,0	  x0:0x00000000
       70585000	      7057	80000b88	00a885b3	add	x11,x17,x10	 x17:0x80009fcc x10:0x40004ff2 x11=0xc000efbe
       70595000	      7058	80000b8c	000dbd33	sltu	x26,x27,x0	 x27:0x0040004f  x0:0x00000000 x26=0x00000000
       70605000	      7059	80000b90	00167433	and	x8,x12,x1	 x12:0x00000000  x1:0x80009fe6  x8=0x00000000
       70615000	      7060	80000b94	b5ede313	ori	x6,x27,-1186	 x27:0x0040004f  x6=0xfffffb5f
       70625000	      7061	80000b98	00e6a0b3	slt	x1,x13,x14	 x13:0x40404935 x14:0x00000001  x1=0x00000000
       70635000	      7062	80000b9c	008033b3	sltu	x7,x0,x8	  x0:0x00000000  x8:0x00000000  x7=0x00000000
       70645000	      7063	80000ba0	0049fe33	and	x28,x19,x4	 x19:0x00000000  x4:0xac7c2000 x28=0x00000000
       70655000	      7064	80000ba4	de802a13	slti	x20,x0,-536	  x0:0x00000000 x20=0x00000000
       70665000	      7065	80000ba8	014d1a33	sll	x20,x26,x20	 x26:0x00000000 x20:0x00000000 x20=0x00000000
       70675000	      7066	80000bac	00ae9a13	slli	x20,x29,0xa	 x29:0x80009fe4 x20=0x027f9000
       70685000	      7067	80000bb0	d0752993	slti	x19,x10,-761	 x10:0x40004ff2 x19=0x00000000
       70695000	      7068	80000bb4	03e14a63	blt	x2,x30,80000be8	  x2:0x40404fff x30:0x80009fe4
       70705000	      7069	80000bb8	00637c63	bgeu	x6,x6,80000bd0	  x6:0xfffffb5f  x6:0xfffffb5f
       70715000	      7070	00000000	00000013	addi	x0,x0,0	  x0:0x00000000
       70725000	      7071	80000bcc	00000013	addi	x0,x0,0	  x0:0x00000000
       70735000	      7072	80000bd0	05c5f063	bgeu	x11,x28,80000c10	 x11:0xc000efbe x28:0x00000000
       70745000	      7073	00000000	00000013	addi	x0,x0,0	  x0:0x00000000
       70755000	      7074	80000c0c	00000013	addi	x0,x0,0	  x0:0x00000000
       70765000	      7075	80000c10	c4e48813	addi	x16,x9,-946	  x9:0x00000036 x16=0xfffffc84
       70775000	      7076	80000c14	01a0fa63	bgeu	x1,x26,80000c28	  x1:0x00000000 x26:0x00000000
       70785000	      7077	00000000	00000013	addi	x0,x0,0	  x0:0x00000000
       70795000	      7078	80000c24	00000013	addi	x0,x0,0	  x0:0x00000000
       70805000	      7079	80000c28	01e834b3	sltu	x9,x16,x30	 x16:0xfffffc84 x30:0x80009fe4  x9=0x00000000
       70815000	      7080	80000c2c	a0d1e113	ori	x2,x3,-1523	  x3:0x00000001  x2=0xfffffa0d
       70825000	      7081	80000c30	00d19c63	bne	x3,x13,80000c48	  x3:0x00000001 x13:0x40404935
       70835000	      7082	00000000	00000013	addi	x0,x0,0	  x0:0x00000000
       70845000	      7083	80000c44	00000013	addi	x0,x0,0	  x0:0x00000000
       70855000	      7084	80000c48	00fe7e63	bgeu	x28,x15,80000c64	 x28:0x00000000 x15:0x80009fc4
       70865000	      7085	80000c4c	02925263	bge	x4,x9,80000c70	  x4:0xac7c2000  x9:0x00000000
       70875000	      7086	80000c50	007f5bb3	srl	x23,x30,x7	 x30:0x80009fe4  x7:0x00000000 x23=0x80009fe4
       70885000	      7087	80000c54	04c66863	bltu	x12,x12,80000ca4	 x12:0x00000000 x12:0x00000000
       70895000	      7088	80000c58	005ee663	bltu	x29,x5,80000c64	 x29:0x80009fe4  x5:0x000001e6
       70905000	      7089	80000c5c	03097c63	bgeu	x18,x16,80000c94	 x18:0x00000013 x16:0xfffffc84
       70915000	      7090	80000c60	c8378493	addi	x9,x15,-893	 x15:0x80009fc4  x9=0x80009c47
       70925000	      7091	80000c64	fad87293	andi	x5,x16,-83	 x16:0xfffffc84  x5=0xfffffc84
       70935000	      7092	80000c68	02b8cc63	blt	x17,x11,80000ca0	 x17:0x80009fcc x11:0xc000efbe
       70945000	      7093	00000000	00000013	addi	x0,x0,0	  x0:0x00000000
       70955000	      7094	80000c9c	00000013	addi	x0,x0,0	  x0:0x00000000
       70965000	      7095	80000ca0	00000833	add	x16,x0,x0	  x0:0x00000000  x0:0x00000000 x16=0x00000000
       70975000	      7096	80000ca4	00da3eb3	sltu	x29,x20,x13	 x20:0x027f9000 x13:0x40404935 x29=0x00000001
       70985000	      7097	80000ca8	014c5913	srli	x18,x24,0x14	 x24:0xffffe000 x18=0x00000fff
       70995000	      7098	80000cac	01935833	srl	x16,x6,x25	  x6:0xfffffb5f x25:0xfffffffc x16=0x0000000f
       71005000	      7099	80000cb0	62d33313	sltiu	x6,x6,1581	  x6:0xfffffb5f  x6=0x00000000
       71015000	      7100	80000cb4	00ad7e63	bgeu	x26,x10,80000cd0	 x26:0x00000000 x10:0x40004ff2
       71025000	      7101	80000cb8	4103e213	ori	x4,x7,1040	  x7:0x00000000  x4=0x00000410
       71035000	      7102	80000cbc	012f5463	bge	x30,x18,80000cc4	 x30:0x80009fe4 x18:0x00000fff
       71045000	      7103	80000cc0	012db3b3	sltu	x7,x27,x18	 x27:0x0040004f x18:0x00000fff  x7=0x00000000
       71055000	      7104	80000cc4	ea132293	slti	x5,x6,-351	  x6:0x00000000  x5=0x00000000
       71065000	      7105	80000cc8	8e2cf713	andi	x14,x25,-1822	 x25:0xfffffffc x14=0xfffff8e0
       71075000	      7106	80000ccc	41265133	sra	x2,x12,x18	 x12:0x00000000 x18:0x00000fff  x2=0x00000000
       71085000	      7107	80000cd0	027a4663	blt	x20,x7,80000cfc	 x20:0x027f9000  x7:0x00000000
       71095000	      7108	80000cd4	4a3cdfb7	lui	x31,0x4a3cd	 x31=0x4a3cd000
       71105000	      7109	80000cd8	013a1c13	slli	x24,x20,0x13	 x20:0x027f9000 x24=0x80000000
       71115000	      7110	80000cdc	00a23d33	sltu	x26,x4,x10	  x4:0x00000410 x10:0x40004ff2 x26=0x00000001
       71125000	      7111	80000ce0	e7a9c013	xori	x0,x19,-390	 x19:0x00000000
       71135000	      7112	80000ce4	00063133	sltu	x2,x12,x0	 x12:0x00000000  x0:0x00000000  x2=0x00000000
       71145000	      7113	80000ce8	00000013	addi	x0,x0,0	  x0:0x00000000
       71155000	      7114	80000cec	e8edfe97	auipc	x29,0xe8edf	 x29=0x68edfce8
       71165000	      7115	80000cf0	01d75993	srli	x19,x14,0x1d	 x14:0xfffff8e0 x19=0x00000007
       71175000	      7116	80000cf4	015d5493	srli	x9,x26,0x15	 x26:0x00000001  x9=0x00000000
       71185000	      7117	80000cf8	011a3533	sltu	x10,x20,x17	 x20:0x027f9000 x17:0x80009fcc x10=0x00000001
       71195000	      7118	80000cfc	60ad4913	xori	x18,x26,1546	 x26:0x00000001 x18=0x0000060b
       71205000	      7119	80000d00	402406b3	sub	x13,x8,x2	  x8:0x00000000  x2:0x00000000 x13=0x00000000
       71215000	      7120	80000d04	0632e293	ori	x5,x5,99	  x5:0x00000000  x5=0x00000063
       71225000	      7121	80000d08	05311063	bne	x2,x19,80000d48	  x2:0x00000000 x19:0x00000007
       71235000	      7122	00000000	00000013	addi	x0,x0,0	  x0:0x00000000
       71245000	      7123	80000d44	00000013	addi	x0,x0,0	  x0:0x00000000
       71255000	      7124	80000d48	f280c093	xori	x1,x1,-216	  x1:0x00000000  x1=0xffffff28
       71265000	      7125	80000d4c	00e53d33	sltu	x26,x10,x14	 x10:0x00000001 x14:0xfffff8e0 x26=0x00000001
       71275000	      7126	80000d50	003cb8b3	sltu	x17,x25,x3	 x25:0xfffffffc  x3:0x00000001 x17=0x00000000
       71285000	      7127	80000d54	4144d5b3	sra	x11,x9,x20	  x9:0x00000000 x20:0x027f9000 x11=0x00000000
       71295000	      7128	80000d58	004aab83	lw	x23,4(x21)	 x21:0x80009f28 x23=0x80002d98 PA:0x80009f2c
       71305000	      7129	80000d5c	0105b0b3	sltu	x1,x11,x16	 x11:0x00000000 x16:0x0000000f  x1=0x00000001
       71315000	      7130	80000d60	01777933	and	x18,x14,x23	 x14:0xfffff8e0 x23:0x80002d98 x18=0x80002880
       71325000	      7131	80000d64	417f5493	srai	x9,x30,0x17	 x30:0x80009fe4  x9=0xffffff00
       71335000	      7132	80000d68	01ca73b3	and	x7,x20,x28	 x20:0x027f9000 x28:0x00000000  x7=0x00000000
       71345000	      7133	80000d6c	01d9b1b3	sltu	x3,x19,x29	 x19:0x00000007 x29:0x68edfce8  x3=0x00000001
       71355000	      7134	80000d70	024a8a93	addi	x21,x21,36	 x21:0x80009f28 x21=0x80009f4c
       71365000	      7135	80000d74	dc444a13	xori	x20,x8,-572	  x8:0x00000000 x20=0xfffffdc4
       71375000	      7136	80000d78	01e67833	and	x16,x12,x30	 x12:0x00000000 x30:0x80009fe4 x16=0x00000000
       71385000	      7137	80000d7c	000b8d13	addi	x26,x23,0	 x23:0x80002d98 x26=0x80002d98
       71395000	      7138	80000d80	000d0d67	jalr	x26,x26,0	 x26:0x80002d98 x26=0x80000d80
       71405000	      7139	00000000	00000013	addi	x0,x0,0	  x0:0x00000000
       71415000	      7140	80002d98	00000013	addi	x0,x0,0	  x0:0x00000000
       71425000	      7141	80002d9c	011cd133	srl	x2,x25,x17	 x25:0xfffffffc x17:0x00000000  x2=0xfffffffc
       71435000	      7142	80002da0	01a7d593	srli	x11,x15,0x1a	 x15:0x80009fc4 x11=0x00000020
       71445000	      7143	80002da4	0003c0b3	xor	x1,x7,x0	  x7:0x00000000  x0:0x00000000  x1=0x00000000
       71455000	      7144	80002da8	15a53fb7	lui	x31,0x15a53	 x31=0x15a53000
       71465000	      7145	80002dac	018d9333	sll	x6,x27,x24	 x27:0x0040004f x24:0x80000000  x6=0x0040004f
       71475000	      7146	80002db0	ac312293	slti	x5,x2,-1341	  x2:0xfffffffc  x5=0x00000000
       71485000	      7147	80002db4	ffffd417	auipc	x8,0xffffd	  x8=0x7ffffdb0
       71495000	      7148	80002db8	4a840413	addi	x8,x8,1192	  x8:0x7ffffdb0  x8=0x80000258
       71505000	      7149	80002dbc	ca740413	addi	x8,x8,-857	  x8:0x80000258  x8=0x7ffffeff
       71515000	      7150	80002dc0	0d1f6b93	ori	x23,x30,209	 x30:0x80009fe4 x23=0x80009ff5
       71525000	      7151	80002dc4	01226663	bltu	x4,x18,80002dd0	  x4:0x00000410 x18:0x80002880
       71535000	      7152	00000000	00000013	addi	x0,x0,0	  x0:0x00000000
       71545000	      7153	80002dcc	00000013	addi	x0,x0,0	  x0:0x00000000
       71555000	      7154	80002dd0	35a40be7	jalr	x23,x8,858	  x8:0x7ffffeff x23=0x80002dd0
       71565000	      7155	00000000	00000013	addi	x0,x0,0	  x0:0x00000000
       71575000	      7156	80000258	00000013	addi	x0,x0,0	  x0:0x00000000
       71585000	      7157	8000025c	fd0a8a93	addi	x21,x21,-48	 x21:0x80009f4c x21=0x80009f1c
       71595000	      7158	80000260	416b5313	srai	x6,x22,0x16	 x22:0x00000000  x6=0x00000000
       71605000	      7159	80000264	2f8f4093	xori	x1,x30,760	 x30:0x80009fe4  x1=0x80009d1c
       71615000	      7160	80000268	1da77a13	andi	x20,x14,474	 x14:0xfffff8e0 x20=0x000000c0
       71625000	      7161	8000026c	098192b7	lui	x5,0x9819	  x5=0x09819000
       71635000	      7162	80000270	41e65813	srai	x16,x12,0x1e	 x12:0x00000000 x16=0x00000000
       71645000	      7163	80000274	01e09693	slli	x13,x1,0x1e	  x1:0x80009d1c x13=0x00000000
       71655000	      7164	80000278	411753b3	sra	x7,x14,x17	 x14:0xfffff8e0 x17:0x00000000  x7=0xfffff8e0
       71665000	      7165	8000027c	70f9f993	andi	x19,x19,1807	 x19:0x00000007 x19=0x00000007
       71675000	      7166	80000280	017aa223	sw	x23,4(x21)	 x21:0x80009f1c x23:0x80002dd0 PA:0x80009f20
       71685000	      7167	80000284	c6658d13	addi	x26,x11,-922	 x11:0x00000020 x26=0xfffffc86
       71695000	      7168	80000288	00a00913	addi	x18,x0,10	  x0:0x00000000 x18=0x0000000a
       71705000	      7169	8000028c	01721013	slli	x0,x4,0x17	  x4:0x00000410
       71715000	      7170	80000290	01aeba33	sltu	x20,x29,x26	 x29:0x68edfce8 x26:0xfffffc86 x20=0x00000001
       71725000	      7171	80000294	00a00813	addi	x16,x0,10	  x0:0x00000000 x16=0x0000000a
       71735000	      7172	80000298	00a87733	and	x14,x16,x10	 x16:0x0000000a x10:0x00000001 x14=0x00000000
       71745000	      7173	8000029c	ff990913	addi	x18,x18,-7	 x18:0x0000000a x18=0x00000003
       71755000	      7174	800002a0	007c99b3	sll	x19,x25,x7	 x25:0xfffffffc  x7:0xfffff8e0 x19=0xfffffffc
       71765000	      7175	800002a4	ff097ae3	bgeu	x18,x16,80000298	 x18:0x00000003 x16:0x0000000a
       71775000	      7176	800002a8	3c5d8693	addi	x13,x27,965	 x27:0x0040004f x13=0x00400414
       71785000	      7177	800002ac	00800e13	addi	x28,x0,8	  x0:0x00000000 x28=0x00000008
       71795000	      7178	800002b0	4092de93	srai	x29,x5,0x9	  x5:0x09819000 x29=0x0004c0c8
       71805000	      7179	800002b4	ffc00d93	addi	x27,x0,-4	  x0:0x00000000 x27=0xfffffffc
       71815000	      7180	800002b8	0001e533	or	x10,x3,x0	  x3:0x00000001  x0:0x00000000 x10=0x00000001
       71825000	      7181	800002bc	bfd5e093	ori	x1,x11,-1027	 x11:0x00000020  x1=0xfffffbfd
       71835000	      7182	800002c0	00735113	srli	x2,x6,0x7	  x6:0x00000000  x2=0x00000000
       71845000	      7183	800002c4	fffe0e13	addi	x28,x28,-1	 x28:0x00000008 x28=0x00000007
       71855000	      7184	800002c8	00600a13	addi	x20,x0,6	  x0:0x00000000 x20=0x00000006
       71865000	      7185	800002cc	00c7d533	srl	x10,x15,x12	 x15:0x80009fc4 x12:0x00000000 x10=0x80009fc4
       71875000	      7186	800002d0	01100413	addi	x8,x0,17	  x0:0x00000000  x8=0x00000011
       71885000	      7187	800002d4	01357833	and	x16,x10,x19	 x10:0x80009fc4 x19:0xfffffffc x16=0x80009fc4
       71895000	      7188	800002d8	2c143093	sltiu	x1,x8,705	  x8:0x00000011  x1=0x00000001
       71905000	      7189	800002dc	0072d993	srli	x19,x5,0x7	  x5:0x09819000 x19=0x00130320
       71915000	      7190	800002e0	00c16333	or	x6,x2,x12	  x2:0x00000000 x12:0x00000000  x6=0x00000000
       71925000	      7191	800002e4	4267cb93	xori	x23,x15,1062	 x15:0x80009fc4 x23=0x80009be2
       71935000	      7192	800002e8	009a0a13	addi	x20,x20,9	 x20:0x00000006 x20=0x0000000f
       71945000	      7193	800002ec	e176e3b7	lui	x7,0xe176e	  x7=0xe176e000
       71955000	      7194	800002f0	41250233	sub	x4,x10,x18	 x10:0x80009fc4 x18:0x00000003  x4=0x80009fc1
       71965000	      7195	800002f4	5e237693	andi	x13,x6,1506	  x6:0x00000000 x13=0x00000000
       71975000	      7196	800002f8	fe8a60e3	bltu	x20,x8,800002d8	 x20:0x0000000f  x8:0x00000011
       71985000	      7197	00000000	00000013	addi	x0,x0,0	  x0:0x00000000
       71995000	      7198	800002d4	00000013	addi	x0,x0,0	  x0:0x00000000
       72005000	      7199	800002d8	2c143093	sltiu	x1,x8,705	  x8:0x00000011  x1=0x00000001
       72015000	      7200	800002dc	0072d993	srli	x19,x5,0x7	  x5:0x09819000 x19=0x00130320
       72025000	      7201	800002e0	00c16333	or	x6,x2,x12	  x2:0x00000000 x12:0x00000000  x6=0x00000000
       72035000	      7202	800002e4	4267cb93	xori	x23,x15,1062	 x15:0x80009fc4 x23=0x80009be2
       72045000	      7203	800002e8	009a0a13	addi	x20,x20,9	 x20:0x0000000f x20=0x00000018
       72055000	      7204	800002ec	e176e3b7	lui	x7,0xe176e	  x7=0xe176e000
       72065000	      7205	800002f0	41250233	sub	x4,x10,x18	 x10:0x80009fc4 x18:0x00000003  x4=0x80009fc1
       72075000	      7206	800002f4	5e237693	andi	x13,x6,1506	  x6:0x00000000 x13=0x00000000
       72085000	      7207	800002f8	fe8a60e3	bltu	x20,x8,800002d8	 x20:0x00000018  x8:0x00000011
       72095000	      7208	800002fc	0025c3b3	xor	x7,x11,x2	 x11:0x00000020  x2:0x00000000  x7=0x00000020
       72105000	      7209	80000300	400cd733	sra	x14,x25,x0	 x25:0xfffffffc  x0:0x00000000 x14=0xfffffffc
       72115000	      7210	80000304	a1fdc337	lui	x6,0xa1fdc	  x6=0xa1fdc000
       72125000	      7211	80000308	cebb8913	addi	x18,x23,-789	 x23:0x80009be2 x18=0x800098cd
       72135000	      7212	8000030c	fbbe58e3	bge	x28,x27,800002bc	 x28:0x00000007 x27:0xfffffffc
       72145000	      7213	00000000	00000013	addi	x0,x0,0	  x0:0x00000000
       72155000	      7214	800002b8	00000013	addi	x0,x0,0	  x0:0x00000000
       72165000	      7215	800002bc	bfd5e093	ori	x1,x11,-1027	 x11:0x00000020  x1=0xfffffbfd
       72175000	      7216	800002c0	00735113	srli	x2,x6,0x7	  x6:0xa1fdc000  x2=0x0143fb80
       72185000	      7217	800002c4	fffe0e13	addi	x28,x28,-1	 x28:0x00000007 x28=0x00000006
       72195000	      7218	800002c8	00600a13	addi	x20,x0,6	  x0:0x00000000 x20=0x00000006
       72205000	      7219	800002cc	00c7d533	srl	x10,x15,x12	 x15:0x80009fc4 x12:0x00000000 x10=0x80009fc4
       72215000	      7220	800002d0	01100413	addi	x8,x0,17	  x0:0x00000000  x8=0x00000011
       72225000	      7221	800002d4	01357833	and	x16,x10,x19	 x10:0x80009fc4 x19:0x00130320 x16=0x00000300
       72235000	      7222	800002d8	2c143093	sltiu	x1,x8,705	  x8:0x00000011  x1=0x00000001
       72245000	      7223	800002dc	0072d993	srli	x19,x5,0x7	  x5:0x09819000 x19=0x00130320
       72255000	      7224	800002e0	00c16333	or	x6,x2,x12	  x2:0x0143fb80 x12:0x00000000  x6=0x0143fb80
       72265000	      7225	800002e4	4267cb93	xori	x23,x15,1062	 x15:0x80009fc4 x23=0x80009be2
       72275000	      7226	800002e8	009a0a13	addi	x20,x20,9	 x20:0x00000006 x20=0x0000000f
       72285000	      7227	800002ec	e176e3b7	lui	x7,0xe176e	  x7=0xe176e000
       72295000	      7228	800002f0	41250233	sub	x4,x10,x18	 x10:0x80009fc4 x18:0x800098cd  x4=0x000006f7
       72305000	      7229	800002f4	5e237693	andi	x13,x6,1506	  x6:0x0143fb80 x13=0x00000180
       72315000	      7230	800002f8	fe8a60e3	bltu	x20,x8,800002d8	 x20:0x0000000f  x8:0x00000011
       72325000	      7231	00000000	00000013	addi	x0,x0,0	  x0:0x00000000
       72335000	      7232	800002d4	00000013	addi	x0,x0,0	  x0:0x00000000
       72345000	      7233	800002d8	2c143093	sltiu	x1,x8,705	  x8:0x00000011  x1=0x00000001
       72355000	      7234	800002dc	0072d993	srli	x19,x5,0x7	  x5:0x09819000 x19=0x00130320
       72365000	      7235	800002e0	00c16333	or	x6,x2,x12	  x2:0x0143fb80 x12:0x00000000  x6=0x0143fb80
       72375000	      7236	800002e4	4267cb93	xori	x23,x15,1062	 x15:0x80009fc4 x23=0x80009be2
       72385000	      7237	800002e8	009a0a13	addi	x20,x20,9	 x20:0x0000000f x20=0x00000018
       72395000	      7238	800002ec	e176e3b7	lui	x7,0xe176e	  x7=0xe176e000
       72405000	      7239	800002f0	41250233	sub	x4,x10,x18	 x10:0x80009fc4 x18:0x800098cd  x4=0x000006f7
       72415000	      7240	800002f4	5e237693	andi	x13,x6,1506	  x6:0x0143fb80 x13=0x00000180
       72425000	      7241	800002f8	fe8a60e3	bltu	x20,x8,800002d8	 x20:0x00000018  x8:0x00000011
       72435000	      7242	800002fc	0025c3b3	xor	x7,x11,x2	 x11:0x00000020  x2:0x0143fb80  x7=0x0143fba0
       72445000	      7243	80000300	400cd733	sra	x14,x25,x0	 x25:0xfffffffc  x0:0x00000000 x14=0xfffffffc
       72455000	      7244	80000304	a1fdc337	lui	x6,0xa1fdc	  x6=0xa1fdc000
       72465000	      7245	80000308	cebb8913	addi	x18,x23,-789	 x23:0x80009be2 x18=0x800098cd
       72475000	      7246	8000030c	fbbe58e3	bge	x28,x27,800002bc	 x28:0x00000006 x27:0xfffffffc
       72485000	      7247	00000000	00000013	addi	x0,x0,0	  x0:0x00000000
       72495000	      7248	800002b8	00000013	addi	x0,x0,0	  x0:0x00000000
       72505000	      7249	800002bc	bfd5e093	ori	x1,x11,-1027	 x11:0x00000020  x1=0xfffffbfd
       72515000	      7250	800002c0	00735113	srli	x2,x6,0x7	  x6:0xa1fdc000  x2=0x0143fb80
       72525000	      7251	800002c4	fffe0e13	addi	x28,x28,-1	 x28:0x00000006 x28=0x00000005
       72535000	      7252	800002c8	00600a13	addi	x20,x0,6	  x0:0x00000000 x20=0x00000006
       72545000	      7253	800002cc	00c7d533	srl	x10,x15,x12	 x15:0x80009fc4 x12:0x00000000 x10=0x80009fc4
       72555000	      7254	800002d0	01100413	addi	x8,x0,17	  x0:0x00000000  x8=0x00000011
       72565000	      7255	800002d4	01357833	and	x16,x10,x19	 x10:0x80009fc4 x19:0x00130320 x16=0x00000300
       72575000	      7256	800002d8	2c143093	sltiu	x1,x8,705	  x8:0x00000011  x1=0x00000001
       72585000	      7257	800002dc	0072d993	srli	x19,x5,0x7	  x5:0x09819000 x19=0x00130320
       72595000	      7258	800002e0	00c16333	or	x6,x2,x12	  x2:0x0143fb80 x12:0x00000000  x6=0x0143fb80
       72605000	      7259	800002e4	4267cb93	xori	x23,x15,1062	 x15:0x80009fc4 x23=0x80009be2
       72615000	      7260	800002e8	009a0a13	addi	x20,x20,9	 x20:0x00000006 x20=0x0000000f
       72625000	      7261	800002ec	e176e3b7	lui	x7,0xe176e	  x7=0xe176e000
       72635000	      7262	800002f0	41250233	sub	x4,x10,x18	 x10:0x80009fc4 x18:0x800098cd  x4=0x000006f7
       72645000	      7263	800002f4	5e237693	andi	x13,x6,1506	  x6:0x0143fb80 x13=0x00000180
       72655000	      7264	800002f8	fe8a60e3	bltu	x20,x8,800002d8	 x20:0x0000000f  x8:0x00000011
       72665000	      7265	00000000	00000013	addi	x0,x0,0	  x0:0x00000000
       72675000	      7266	800002d4	00000013	addi	x0,x0,0	  x0:0x00000000
       72685000	      7267	800002d8	2c143093	sltiu	x1,x8,705	  x8:0x00000011  x1=0x00000001
       72695000	      7268	800002dc	0072d993	srli	x19,x5,0x7	  x5:0x09819000 x19=0x00130320
       72705000	      7269	800002e0	00c16333	or	x6,x2,x12	  x2:0x0143fb80 x12:0x00000000  x6=0x0143fb80
       72715000	      7270	800002e4	4267cb93	xori	x23,x15,1062	 x15:0x80009fc4 x23=0x80009be2
       72725000	      7271	800002e8	009a0a13	addi	x20,x20,9	 x20:0x0000000f x20=0x00000018
       72735000	      7272	800002ec	e176e3b7	lui	x7,0xe176e	  x7=0xe176e000
       72745000	      7273	800002f0	41250233	sub	x4,x10,x18	 x10:0x80009fc4 x18:0x800098cd  x4=0x000006f7
       72755000	      7274	800002f4	5e237693	andi	x13,x6,1506	  x6:0x0143fb80 x13=0x00000180
       72765000	      7275	800002f8	fe8a60e3	bltu	x20,x8,800002d8	 x20:0x00000018  x8:0x00000011
       72775000	      7276	800002fc	0025c3b3	xor	x7,x11,x2	 x11:0x00000020  x2:0x0143fb80  x7=0x0143fba0
       72785000	      7277	80000300	400cd733	sra	x14,x25,x0	 x25:0xfffffffc  x0:0x00000000 x14=0xfffffffc
       72795000	      7278	80000304	a1fdc337	lui	x6,0xa1fdc	  x6=0xa1fdc000
       72805000	      7279	80000308	cebb8913	addi	x18,x23,-789	 x23:0x80009be2 x18=0x800098cd
       72815000	      7280	8000030c	fbbe58e3	bge	x28,x27,800002bc	 x28:0x00000005 x27:0xfffffffc
       72825000	      7281	00000000	00000013	addi	x0,x0,0	  x0:0x00000000
       72835000	      7282	800002b8	00000013	addi	x0,x0,0	  x0:0x00000000
       72845000	      7283	800002bc	bfd5e093	ori	x1,x11,-1027	 x11:0x00000020  x1=0xfffffbfd
       72855000	      7284	800002c0	00735113	srli	x2,x6,0x7	  x6:0xa1fdc000  x2=0x0143fb80
       72865000	      7285	800002c4	fffe0e13	addi	x28,x28,-1	 x28:0x00000005 x28=0x00000004
       72875000	      7286	800002c8	00600a13	addi	x20,x0,6	  x0:0x00000000 x20=0x00000006
       72885000	      7287	800002cc	00c7d533	srl	x10,x15,x12	 x15:0x80009fc4 x12:0x00000000 x10=0x80009fc4
       72895000	      7288	800002d0	01100413	addi	x8,x0,17	  x0:0x00000000  x8=0x00000011
       72905000	      7289	800002d4	01357833	and	x16,x10,x19	 x10:0x80009fc4 x19:0x00130320 x16=0x00000300
       72915000	      7290	800002d8	2c143093	sltiu	x1,x8,705	  x8:0x00000011  x1=0x00000001
       72925000	      7291	800002dc	0072d993	srli	x19,x5,0x7	  x5:0x09819000 x19=0x00130320
       72935000	      7292	800002e0	00c16333	or	x6,x2,x12	  x2:0x0143fb80 x12:0x00000000  x6=0x0143fb80
       72945000	      7293	800002e4	4267cb93	xori	x23,x15,1062	 x15:0x80009fc4 x23=0x80009be2
       72955000	      7294	800002e8	009a0a13	addi	x20,x20,9	 x20:0x00000006 x20=0x0000000f
       72965000	      7295	800002ec	e176e3b7	lui	x7,0xe176e	  x7=0xe176e000
       72975000	      7296	800002f0	41250233	sub	x4,x10,x18	 x10:0x80009fc4 x18:0x800098cd  x4=0x000006f7
       72985000	      7297	800002f4	5e237693	andi	x13,x6,1506	  x6:0x0143fb80 x13=0x00000180
       72995000	      7298	800002f8	fe8a60e3	bltu	x20,x8,800002d8	 x20:0x0000000f  x8:0x00000011
       73005000	      7299	00000000	00000013	addi	x0,x0,0	  x0:0x00000000
       73015000	      7300	800002d4	00000013	addi	x0,x0,0	  x0:0x00000000
       73025000	      7301	800002d8	2c143093	sltiu	x1,x8,705	  x8:0x00000011  x1=0x00000001
       73035000	      7302	800002dc	0072d993	srli	x19,x5,0x7	  x5:0x09819000 x19=0x00130320
       73045000	      7303	800002e0	00c16333	or	x6,x2,x12	  x2:0x0143fb80 x12:0x00000000  x6=0x0143fb80
       73055000	      7304	800002e4	4267cb93	xori	x23,x15,1062	 x15:0x80009fc4 x23=0x80009be2
       73065000	      7305	800002e8	009a0a13	addi	x20,x20,9	 x20:0x0000000f x20=0x00000018
       73075000	      7306	800002ec	e176e3b7	lui	x7,0xe176e	  x7=0xe176e000
       73085000	      7307	800002f0	41250233	sub	x4,x10,x18	 x10:0x80009fc4 x18:0x800098cd  x4=0x000006f7
       73095000	      7308	800002f4	5e237693	andi	x13,x6,1506	  x6:0x0143fb80 x13=0x00000180
       73105000	      7309	800002f8	fe8a60e3	bltu	x20,x8,800002d8	 x20:0x00000018  x8:0x00000011
       73115000	      7310	800002fc	0025c3b3	xor	x7,x11,x2	 x11:0x00000020  x2:0x0143fb80  x7=0x0143fba0
       73125000	      7311	80000300	400cd733	sra	x14,x25,x0	 x25:0xfffffffc  x0:0x00000000 x14=0xfffffffc
       73135000	      7312	80000304	a1fdc337	lui	x6,0xa1fdc	  x6=0xa1fdc000
       73145000	      7313	80000308	cebb8913	addi	x18,x23,-789	 x23:0x80009be2 x18=0x800098cd
       73155000	      7314	8000030c	fbbe58e3	bge	x28,x27,800002bc	 x28:0x00000004 x27:0xfffffffc
       73165000	      7315	00000000	00000013	addi	x0,x0,0	  x0:0x00000000
       73175000	      7316	800002b8	00000013	addi	x0,x0,0	  x0:0x00000000
       73185000	      7317	800002bc	bfd5e093	ori	x1,x11,-1027	 x11:0x00000020  x1=0xfffffbfd
       73195000	      7318	800002c0	00735113	srli	x2,x6,0x7	  x6:0xa1fdc000  x2=0x0143fb80
       73205000	      7319	800002c4	fffe0e13	addi	x28,x28,-1	 x28:0x00000004 x28=0x00000003
       73215000	      7320	800002c8	00600a13	addi	x20,x0,6	  x0:0x00000000 x20=0x00000006
       73225000	      7321	800002cc	00c7d533	srl	x10,x15,x12	 x15:0x80009fc4 x12:0x00000000 x10=0x80009fc4
       73235000	      7322	800002d0	01100413	addi	x8,x0,17	  x0:0x00000000  x8=0x00000011
       73245000	      7323	800002d4	01357833	and	x16,x10,x19	 x10:0x80009fc4 x19:0x00130320 x16=0x00000300
       73255000	      7324	800002d8	2c143093	sltiu	x1,x8,705	  x8:0x00000011  x1=0x00000001
       73265000	      7325	800002dc	0072d993	srli	x19,x5,0x7	  x5:0x09819000 x19=0x00130320
       73275000	      7326	800002e0	00c16333	or	x6,x2,x12	  x2:0x0143fb80 x12:0x00000000  x6=0x0143fb80
       73285000	      7327	800002e4	4267cb93	xori	x23,x15,1062	 x15:0x80009fc4 x23=0x80009be2
       73295000	      7328	800002e8	009a0a13	addi	x20,x20,9	 x20:0x00000006 x20=0x0000000f
       73305000	      7329	800002ec	e176e3b7	lui	x7,0xe176e	  x7=0xe176e000
       73315000	      7330	800002f0	41250233	sub	x4,x10,x18	 x10:0x80009fc4 x18:0x800098cd  x4=0x000006f7
       73325000	      7331	800002f4	5e237693	andi	x13,x6,1506	  x6:0x0143fb80 x13=0x00000180
       73335000	      7332	800002f8	fe8a60e3	bltu	x20,x8,800002d8	 x20:0x0000000f  x8:0x00000011
       73345000	      7333	00000000	00000013	addi	x0,x0,0	  x0:0x00000000
       73355000	      7334	800002d4	00000013	addi	x0,x0,0	  x0:0x00000000
       73365000	      7335	800002d8	2c143093	sltiu	x1,x8,705	  x8:0x00000011  x1=0x00000001
       73375000	      7336	800002dc	0072d993	srli	x19,x5,0x7	  x5:0x09819000 x19=0x00130320
       73385000	      7337	800002e0	00c16333	or	x6,x2,x12	  x2:0x0143fb80 x12:0x00000000  x6=0x0143fb80
       73395000	      7338	800002e4	4267cb93	xori	x23,x15,1062	 x15:0x80009fc4 x23=0x80009be2
       73405000	      7339	800002e8	009a0a13	addi	x20,x20,9	 x20:0x0000000f x20=0x00000018
       73415000	      7340	800002ec	e176e3b7	lui	x7,0xe176e	  x7=0xe176e000
       73425000	      7341	800002f0	41250233	sub	x4,x10,x18	 x10:0x80009fc4 x18:0x800098cd  x4=0x000006f7
       73435000	      7342	800002f4	5e237693	andi	x13,x6,1506	  x6:0x0143fb80 x13=0x00000180
       73445000	      7343	800002f8	fe8a60e3	bltu	x20,x8,800002d8	 x20:0x00000018  x8:0x00000011
       73455000	      7344	800002fc	0025c3b3	xor	x7,x11,x2	 x11:0x00000020  x2:0x0143fb80  x7=0x0143fba0
       73465000	      7345	80000300	400cd733	sra	x14,x25,x0	 x25:0xfffffffc  x0:0x00000000 x14=0xfffffffc
       73475000	      7346	80000304	a1fdc337	lui	x6,0xa1fdc	  x6=0xa1fdc000
       73485000	      7347	80000308	cebb8913	addi	x18,x23,-789	 x23:0x80009be2 x18=0x800098cd
       73495000	      7348	8000030c	fbbe58e3	bge	x28,x27,800002bc	 x28:0x00000003 x27:0xfffffffc
       73505000	      7349	00000000	00000013	addi	x0,x0,0	  x0:0x00000000
       73515000	      7350	800002b8	00000013	addi	x0,x0,0	  x0:0x00000000
       73525000	      7351	800002bc	bfd5e093	ori	x1,x11,-1027	 x11:0x00000020  x1=0xfffffbfd
       73535000	      7352	800002c0	00735113	srli	x2,x6,0x7	  x6:0xa1fdc000  x2=0x0143fb80
       73545000	      7353	800002c4	fffe0e13	addi	x28,x28,-1	 x28:0x00000003 x28=0x00000002
       73555000	      7354	800002c8	00600a13	addi	x20,x0,6	  x0:0x00000000 x20=0x00000006
       73565000	      7355	800002cc	00c7d533	srl	x10,x15,x12	 x15:0x80009fc4 x12:0x00000000 x10=0x80009fc4
       73575000	      7356	800002d0	01100413	addi	x8,x0,17	  x0:0x00000000  x8=0x00000011
       73585000	      7357	800002d4	01357833	and	x16,x10,x19	 x10:0x80009fc4 x19:0x00130320 x16=0x00000300
       73595000	      7358	800002d8	2c143093	sltiu	x1,x8,705	  x8:0x00000011  x1=0x00000001
       73605000	      7359	800002dc	0072d993	srli	x19,x5,0x7	  x5:0x09819000 x19=0x00130320
       73615000	      7360	800002e0	00c16333	or	x6,x2,x12	  x2:0x0143fb80 x12:0x00000000  x6=0x0143fb80
       73625000	      7361	800002e4	4267cb93	xori	x23,x15,1062	 x15:0x80009fc4 x23=0x80009be2
       73635000	      7362	800002e8	009a0a13	addi	x20,x20,9	 x20:0x00000006 x20=0x0000000f
       73645000	      7363	800002ec	e176e3b7	lui	x7,0xe176e	  x7=0xe176e000
       73655000	      7364	800002f0	41250233	sub	x4,x10,x18	 x10:0x80009fc4 x18:0x800098cd  x4=0x000006f7
       73665000	      7365	800002f4	5e237693	andi	x13,x6,1506	  x6:0x0143fb80 x13=0x00000180
       73675000	      7366	800002f8	fe8a60e3	bltu	x20,x8,800002d8	 x20:0x0000000f  x8:0x00000011
       73685000	      7367	00000000	00000013	addi	x0,x0,0	  x0:0x00000000
       73695000	      7368	800002d4	00000013	addi	x0,x0,0	  x0:0x00000000
       73705000	      7369	800002d8	2c143093	sltiu	x1,x8,705	  x8:0x00000011  x1=0x00000001
       73715000	      7370	800002dc	0072d993	srli	x19,x5,0x7	  x5:0x09819000 x19=0x00130320
       73725000	      7371	800002e0	00c16333	or	x6,x2,x12	  x2:0x0143fb80 x12:0x00000000  x6=0x0143fb80
       73735000	      7372	800002e4	4267cb93	xori	x23,x15,1062	 x15:0x80009fc4 x23=0x80009be2
       73745000	      7373	800002e8	009a0a13	addi	x20,x20,9	 x20:0x0000000f x20=0x00000018
       73755000	      7374	800002ec	e176e3b7	lui	x7,0xe176e	  x7=0xe176e000
       73765000	      7375	800002f0	41250233	sub	x4,x10,x18	 x10:0x80009fc4 x18:0x800098cd  x4=0x000006f7
       73775000	      7376	800002f4	5e237693	andi	x13,x6,1506	  x6:0x0143fb80 x13=0x00000180
       73785000	      7377	800002f8	fe8a60e3	bltu	x20,x8,800002d8	 x20:0x00000018  x8:0x00000011
       73795000	      7378	800002fc	0025c3b3	xor	x7,x11,x2	 x11:0x00000020  x2:0x0143fb80  x7=0x0143fba0
       73805000	      7379	80000300	400cd733	sra	x14,x25,x0	 x25:0xfffffffc  x0:0x00000000 x14=0xfffffffc
       73815000	      7380	80000304	a1fdc337	lui	x6,0xa1fdc	  x6=0xa1fdc000
       73825000	      7381	80000308	cebb8913	addi	x18,x23,-789	 x23:0x80009be2 x18=0x800098cd
       73835000	      7382	8000030c	fbbe58e3	bge	x28,x27,800002bc	 x28:0x00000002 x27:0xfffffffc
       73845000	      7383	00000000	00000013	addi	x0,x0,0	  x0:0x00000000
       73855000	      7384	800002b8	00000013	addi	x0,x0,0	  x0:0x00000000
       73865000	      7385	800002bc	bfd5e093	ori	x1,x11,-1027	 x11:0x00000020  x1=0xfffffbfd
       73875000	      7386	800002c0	00735113	srli	x2,x6,0x7	  x6:0xa1fdc000  x2=0x0143fb80
       73885000	      7387	800002c4	fffe0e13	addi	x28,x28,-1	 x28:0x00000002 x28=0x00000001
       73895000	      7388	800002c8	00600a13	addi	x20,x0,6	  x0:0x00000000 x20=0x00000006
       73905000	      7389	800002cc	00c7d533	srl	x10,x15,x12	 x15:0x80009fc4 x12:0x00000000 x10=0x80009fc4
       73915000	      7390	800002d0	01100413	addi	x8,x0,17	  x0:0x00000000  x8=0x00000011
       73925000	      7391	800002d4	01357833	and	x16,x10,x19	 x10:0x80009fc4 x19:0x00130320 x16=0x00000300
       73935000	      7392	800002d8	2c143093	sltiu	x1,x8,705	  x8:0x00000011  x1=0x00000001
       73945000	      7393	800002dc	0072d993	srli	x19,x5,0x7	  x5:0x09819000 x19=0x00130320
       73955000	      7394	800002e0	00c16333	or	x6,x2,x12	  x2:0x0143fb80 x12:0x00000000  x6=0x0143fb80
       73965000	      7395	800002e4	4267cb93	xori	x23,x15,1062	 x15:0x80009fc4 x23=0x80009be2
       73975000	      7396	800002e8	009a0a13	addi	x20,x20,9	 x20:0x00000006 x20=0x0000000f
       73985000	      7397	800002ec	e176e3b7	lui	x7,0xe176e	  x7=0xe176e000
       73995000	      7398	800002f0	41250233	sub	x4,x10,x18	 x10:0x80009fc4 x18:0x800098cd  x4=0x000006f7
       74005000	      7399	800002f4	5e237693	andi	x13,x6,1506	  x6:0x0143fb80 x13=0x00000180
       74015000	      7400	800002f8	fe8a60e3	bltu	x20,x8,800002d8	 x20:0x0000000f  x8:0x00000011
       74025000	      7401	00000000	00000013	addi	x0,x0,0	  x0:0x00000000
       74035000	      7402	800002d4	00000013	addi	x0,x0,0	  x0:0x00000000
       74045000	      7403	800002d8	2c143093	sltiu	x1,x8,705	  x8:0x00000011  x1=0x00000001
       74055000	      7404	800002dc	0072d993	srli	x19,x5,0x7	  x5:0x09819000 x19=0x00130320
       74065000	      7405	800002e0	00c16333	or	x6,x2,x12	  x2:0x0143fb80 x12:0x00000000  x6=0x0143fb80
       74075000	      7406	800002e4	4267cb93	xori	x23,x15,1062	 x15:0x80009fc4 x23=0x80009be2
       74085000	      7407	800002e8	009a0a13	addi	x20,x20,9	 x20:0x0000000f x20=0x00000018
       74095000	      7408	800002ec	e176e3b7	lui	x7,0xe176e	  x7=0xe176e000
       74105000	      7409	800002f0	41250233	sub	x4,x10,x18	 x10:0x80009fc4 x18:0x800098cd  x4=0x000006f7
       74115000	      7410	800002f4	5e237693	andi	x13,x6,1506	  x6:0x0143fb80 x13=0x00000180
       74125000	      7411	800002f8	fe8a60e3	bltu	x20,x8,800002d8	 x20:0x00000018  x8:0x00000011
       74135000	      7412	800002fc	0025c3b3	xor	x7,x11,x2	 x11:0x00000020  x2:0x0143fb80  x7=0x0143fba0
       74145000	      7413	80000300	400cd733	sra	x14,x25,x0	 x25:0xfffffffc  x0:0x00000000 x14=0xfffffffc
       74155000	      7414	80000304	a1fdc337	lui	x6,0xa1fdc	  x6=0xa1fdc000
       74165000	      7415	80000308	cebb8913	addi	x18,x23,-789	 x23:0x80009be2 x18=0x800098cd
       74175000	      7416	8000030c	fbbe58e3	bge	x28,x27,800002bc	 x28:0x00000001 x27:0xfffffffc
       74185000	      7417	00000000	00000013	addi	x0,x0,0	  x0:0x00000000
       74195000	      7418	800002b8	00000013	addi	x0,x0,0	  x0:0x00000000
       74205000	      7419	800002bc	bfd5e093	ori	x1,x11,-1027	 x11:0x00000020  x1=0xfffffbfd
       74215000	      7420	800002c0	00735113	srli	x2,x6,0x7	  x6:0xa1fdc000  x2=0x0143fb80
       74225000	      7421	800002c4	fffe0e13	addi	x28,x28,-1	 x28:0x00000001 x28=0x00000000
       74235000	      7422	800002c8	00600a13	addi	x20,x0,6	  x0:0x00000000 x20=0x00000006
       74245000	      7423	800002cc	00c7d533	srl	x10,x15,x12	 x15:0x80009fc4 x12:0x00000000 x10=0x80009fc4
       74255000	      7424	800002d0	01100413	addi	x8,x0,17	  x0:0x00000000  x8=0x00000011
       74265000	      7425	800002d4	01357833	and	x16,x10,x19	 x10:0x80009fc4 x19:0x00130320 x16=0x00000300
       74275000	      7426	800002d8	2c143093	sltiu	x1,x8,705	  x8:0x00000011  x1=0x00000001
       74285000	      7427	800002dc	0072d993	srli	x19,x5,0x7	  x5:0x09819000 x19=0x00130320
       74295000	      7428	800002e0	00c16333	or	x6,x2,x12	  x2:0x0143fb80 x12:0x00000000  x6=0x0143fb80
       74305000	      7429	800002e4	4267cb93	xori	x23,x15,1062	 x15:0x80009fc4 x23=0x80009be2
       74315000	      7430	800002e8	009a0a13	addi	x20,x20,9	 x20:0x00000006 x20=0x0000000f
       74325000	      7431	800002ec	e176e3b7	lui	x7,0xe176e	  x7=0xe176e000
       74335000	      7432	800002f0	41250233	sub	x4,x10,x18	 x10:0x80009fc4 x18:0x800098cd  x4=0x000006f7
       74345000	      7433	800002f4	5e237693	andi	x13,x6,1506	  x6:0x0143fb80 x13=0x00000180
       74355000	      7434	800002f8	fe8a60e3	bltu	x20,x8,800002d8	 x20:0x0000000f  x8:0x00000011
       74365000	      7435	00000000	00000013	addi	x0,x0,0	  x0:0x00000000
       74375000	      7436	800002d4	00000013	addi	x0,x0,0	  x0:0x00000000
       74385000	      7437	800002d8	2c143093	sltiu	x1,x8,705	  x8:0x00000011  x1=0x00000001
       74395000	      7438	800002dc	0072d993	srli	x19,x5,0x7	  x5:0x09819000 x19=0x00130320
       74405000	      7439	800002e0	00c16333	or	x6,x2,x12	  x2:0x0143fb80 x12:0x00000000  x6=0x0143fb80
       74415000	      7440	800002e4	4267cb93	xori	x23,x15,1062	 x15:0x80009fc4 x23=0x80009be2
       74425000	      7441	800002e8	009a0a13	addi	x20,x20,9	 x20:0x0000000f x20=0x00000018
       74435000	      7442	800002ec	e176e3b7	lui	x7,0xe176e	  x7=0xe176e000
       74445000	      7443	800002f0	41250233	sub	x4,x10,x18	 x10:0x80009fc4 x18:0x800098cd  x4=0x000006f7
       74455000	      7444	800002f4	5e237693	andi	x13,x6,1506	  x6:0x0143fb80 x13=0x00000180
       74465000	      7445	800002f8	fe8a60e3	bltu	x20,x8,800002d8	 x20:0x00000018  x8:0x00000011
       74475000	      7446	800002fc	0025c3b3	xor	x7,x11,x2	 x11:0x00000020  x2:0x0143fb80  x7=0x0143fba0
       74485000	      7447	80000300	400cd733	sra	x14,x25,x0	 x25:0xfffffffc  x0:0x00000000 x14=0xfffffffc
       74495000	      7448	80000304	a1fdc337	lui	x6,0xa1fdc	  x6=0xa1fdc000
       74505000	      7449	80000308	cebb8913	addi	x18,x23,-789	 x23:0x80009be2 x18=0x800098cd
       74515000	      7450	8000030c	fbbe58e3	bge	x28,x27,800002bc	 x28:0x00000000 x27:0xfffffffc
       74525000	      7451	00000000	00000013	addi	x0,x0,0	  x0:0x00000000
       74535000	      7452	800002b8	00000013	addi	x0,x0,0	  x0:0x00000000
       74545000	      7453	800002bc	bfd5e093	ori	x1,x11,-1027	 x11:0x00000020  x1=0xfffffbfd
       74555000	      7454	800002c0	00735113	srli	x2,x6,0x7	  x6:0xa1fdc000  x2=0x0143fb80
       74565000	      7455	800002c4	fffe0e13	addi	x28,x28,-1	 x28:0x00000000 x28=0xffffffff
       74575000	      7456	800002c8	00600a13	addi	x20,x0,6	  x0:0x00000000 x20=0x00000006
       74585000	      7457	800002cc	00c7d533	srl	x10,x15,x12	 x15:0x80009fc4 x12:0x00000000 x10=0x80009fc4
       74595000	      7458	800002d0	01100413	addi	x8,x0,17	  x0:0x00000000  x8=0x00000011
       74605000	      7459	800002d4	01357833	and	x16,x10,x19	 x10:0x80009fc4 x19:0x00130320 x16=0x00000300
       74615000	      7460	800002d8	2c143093	sltiu	x1,x8,705	  x8:0x00000011  x1=0x00000001
       74625000	      7461	800002dc	0072d993	srli	x19,x5,0x7	  x5:0x09819000 x19=0x00130320
       74635000	      7462	800002e0	00c16333	or	x6,x2,x12	  x2:0x0143fb80 x12:0x00000000  x6=0x0143fb80
       74645000	      7463	800002e4	4267cb93	xori	x23,x15,1062	 x15:0x80009fc4 x23=0x80009be2
       74655000	      7464	800002e8	009a0a13	addi	x20,x20,9	 x20:0x00000006 x20=0x0000000f
       74665000	      7465	800002ec	e176e3b7	lui	x7,0xe176e	  x7=0xe176e000
       74675000	      7466	800002f0	41250233	sub	x4,x10,x18	 x10:0x80009fc4 x18:0x800098cd  x4=0x000006f7
       74685000	      7467	800002f4	5e237693	andi	x13,x6,1506	  x6:0x0143fb80 x13=0x00000180
       74695000	      7468	800002f8	fe8a60e3	bltu	x20,x8,800002d8	 x20:0x0000000f  x8:0x00000011
       74705000	      7469	00000000	00000013	addi	x0,x0,0	  x0:0x00000000
       74715000	      7470	800002d4	00000013	addi	x0,x0,0	  x0:0x00000000
       74725000	      7471	800002d8	2c143093	sltiu	x1,x8,705	  x8:0x00000011  x1=0x00000001
       74735000	      7472	800002dc	0072d993	srli	x19,x5,0x7	  x5:0x09819000 x19=0x00130320
       74745000	      7473	800002e0	00c16333	or	x6,x2,x12	  x2:0x0143fb80 x12:0x00000000  x6=0x0143fb80
       74755000	      7474	800002e4	4267cb93	xori	x23,x15,1062	 x15:0x80009fc4 x23=0x80009be2
       74765000	      7475	800002e8	009a0a13	addi	x20,x20,9	 x20:0x0000000f x20=0x00000018
       74775000	      7476	800002ec	e176e3b7	lui	x7,0xe176e	  x7=0xe176e000
       74785000	      7477	800002f0	41250233	sub	x4,x10,x18	 x10:0x80009fc4 x18:0x800098cd  x4=0x000006f7
       74795000	      7478	800002f4	5e237693	andi	x13,x6,1506	  x6:0x0143fb80 x13=0x00000180
       74805000	      7479	800002f8	fe8a60e3	bltu	x20,x8,800002d8	 x20:0x00000018  x8:0x00000011
       74815000	      7480	800002fc	0025c3b3	xor	x7,x11,x2	 x11:0x00000020  x2:0x0143fb80  x7=0x0143fba0
       74825000	      7481	80000300	400cd733	sra	x14,x25,x0	 x25:0xfffffffc  x0:0x00000000 x14=0xfffffffc
       74835000	      7482	80000304	a1fdc337	lui	x6,0xa1fdc	  x6=0xa1fdc000
       74845000	      7483	80000308	cebb8913	addi	x18,x23,-789	 x23:0x80009be2 x18=0x800098cd
       74855000	      7484	8000030c	fbbe58e3	bge	x28,x27,800002bc	 x28:0xffffffff x27:0xfffffffc
       74865000	      7485	00000000	00000013	addi	x0,x0,0	  x0:0x00000000
       74875000	      7486	800002b8	00000013	addi	x0,x0,0	  x0:0x00000000
       74885000	      7487	800002bc	bfd5e093	ori	x1,x11,-1027	 x11:0x00000020  x1=0xfffffbfd
       74895000	      7488	800002c0	00735113	srli	x2,x6,0x7	  x6:0xa1fdc000  x2=0x0143fb80
       74905000	      7489	800002c4	fffe0e13	addi	x28,x28,-1	 x28:0xffffffff x28=0xfffffffe
       74915000	      7490	800002c8	00600a13	addi	x20,x0,6	  x0:0x00000000 x20=0x00000006
       74925000	      7491	800002cc	00c7d533	srl	x10,x15,x12	 x15:0x80009fc4 x12:0x00000000 x10=0x80009fc4
       74935000	      7492	800002d0	01100413	addi	x8,x0,17	  x0:0x00000000  x8=0x00000011
       74945000	      7493	800002d4	01357833	and	x16,x10,x19	 x10:0x80009fc4 x19:0x00130320 x16=0x00000300
       74955000	      7494	800002d8	2c143093	sltiu	x1,x8,705	  x8:0x00000011  x1=0x00000001
       74965000	      7495	800002dc	0072d993	srli	x19,x5,0x7	  x5:0x09819000 x19=0x00130320
       74975000	      7496	800002e0	00c16333	or	x6,x2,x12	  x2:0x0143fb80 x12:0x00000000  x6=0x0143fb80
       74985000	      7497	800002e4	4267cb93	xori	x23,x15,1062	 x15:0x80009fc4 x23=0x80009be2
       74995000	      7498	800002e8	009a0a13	addi	x20,x20,9	 x20:0x00000006 x20=0x0000000f
       75005000	      7499	800002ec	e176e3b7	lui	x7,0xe176e	  x7=0xe176e000
       75015000	      7500	800002f0	41250233	sub	x4,x10,x18	 x10:0x80009fc4 x18:0x800098cd  x4=0x000006f7
       75025000	      7501	800002f4	5e237693	andi	x13,x6,1506	  x6:0x0143fb80 x13=0x00000180
       75035000	      7502	800002f8	fe8a60e3	bltu	x20,x8,800002d8	 x20:0x0000000f  x8:0x00000011
       75045000	      7503	00000000	00000013	addi	x0,x0,0	  x0:0x00000000
       75055000	      7504	800002d4	00000013	addi	x0,x0,0	  x0:0x00000000
       75065000	      7505	800002d8	2c143093	sltiu	x1,x8,705	  x8:0x00000011  x1=0x00000001
       75075000	      7506	800002dc	0072d993	srli	x19,x5,0x7	  x5:0x09819000 x19=0x00130320
       75085000	      7507	800002e0	00c16333	or	x6,x2,x12	  x2:0x0143fb80 x12:0x00000000  x6=0x0143fb80
       75095000	      7508	800002e4	4267cb93	xori	x23,x15,1062	 x15:0x80009fc4 x23=0x80009be2
       75105000	      7509	800002e8	009a0a13	addi	x20,x20,9	 x20:0x0000000f x20=0x00000018
       75115000	      7510	800002ec	e176e3b7	lui	x7,0xe176e	  x7=0xe176e000
       75125000	      7511	800002f0	41250233	sub	x4,x10,x18	 x10:0x80009fc4 x18:0x800098cd  x4=0x000006f7
       75135000	      7512	800002f4	5e237693	andi	x13,x6,1506	  x6:0x0143fb80 x13=0x00000180
       75145000	      7513	800002f8	fe8a60e3	bltu	x20,x8,800002d8	 x20:0x00000018  x8:0x00000011
       75155000	      7514	800002fc	0025c3b3	xor	x7,x11,x2	 x11:0x00000020  x2:0x0143fb80  x7=0x0143fba0
       75165000	      7515	80000300	400cd733	sra	x14,x25,x0	 x25:0xfffffffc  x0:0x00000000 x14=0xfffffffc
       75175000	      7516	80000304	a1fdc337	lui	x6,0xa1fdc	  x6=0xa1fdc000
       75185000	      7517	80000308	cebb8913	addi	x18,x23,-789	 x23:0x80009be2 x18=0x800098cd
       75195000	      7518	8000030c	fbbe58e3	bge	x28,x27,800002bc	 x28:0xfffffffe x27:0xfffffffc
       75205000	      7519	00000000	00000013	addi	x0,x0,0	  x0:0x00000000
       75215000	      7520	800002b8	00000013	addi	x0,x0,0	  x0:0x00000000
       75225000	      7521	800002bc	bfd5e093	ori	x1,x11,-1027	 x11:0x00000020  x1=0xfffffbfd
       75235000	      7522	800002c0	00735113	srli	x2,x6,0x7	  x6:0xa1fdc000  x2=0x0143fb80
       75245000	      7523	800002c4	fffe0e13	addi	x28,x28,-1	 x28:0xfffffffe x28=0xfffffffd
       75255000	      7524	800002c8	00600a13	addi	x20,x0,6	  x0:0x00000000 x20=0x00000006
       75265000	      7525	800002cc	00c7d533	srl	x10,x15,x12	 x15:0x80009fc4 x12:0x00000000 x10=0x80009fc4
       75275000	      7526	800002d0	01100413	addi	x8,x0,17	  x0:0x00000000  x8=0x00000011
       75285000	      7527	800002d4	01357833	and	x16,x10,x19	 x10:0x80009fc4 x19:0x00130320 x16=0x00000300
       75295000	      7528	800002d8	2c143093	sltiu	x1,x8,705	  x8:0x00000011  x1=0x00000001
       75305000	      7529	800002dc	0072d993	srli	x19,x5,0x7	  x5:0x09819000 x19=0x00130320
       75315000	      7530	800002e0	00c16333	or	x6,x2,x12	  x2:0x0143fb80 x12:0x00000000  x6=0x0143fb80
       75325000	      7531	800002e4	4267cb93	xori	x23,x15,1062	 x15:0x80009fc4 x23=0x80009be2
       75335000	      7532	800002e8	009a0a13	addi	x20,x20,9	 x20:0x00000006 x20=0x0000000f
       75345000	      7533	800002ec	e176e3b7	lui	x7,0xe176e	  x7=0xe176e000
       75355000	      7534	800002f0	41250233	sub	x4,x10,x18	 x10:0x80009fc4 x18:0x800098cd  x4=0x000006f7
       75365000	      7535	800002f4	5e237693	andi	x13,x6,1506	  x6:0x0143fb80 x13=0x00000180
       75375000	      7536	800002f8	fe8a60e3	bltu	x20,x8,800002d8	 x20:0x0000000f  x8:0x00000011
       75385000	      7537	00000000	00000013	addi	x0,x0,0	  x0:0x00000000
       75395000	      7538	800002d4	00000013	addi	x0,x0,0	  x0:0x00000000
       75405000	      7539	800002d8	2c143093	sltiu	x1,x8,705	  x8:0x00000011  x1=0x00000001
       75415000	      7540	800002dc	0072d993	srli	x19,x5,0x7	  x5:0x09819000 x19=0x00130320
       75425000	      7541	800002e0	00c16333	or	x6,x2,x12	  x2:0x0143fb80 x12:0x00000000  x6=0x0143fb80
       75435000	      7542	800002e4	4267cb93	xori	x23,x15,1062	 x15:0x80009fc4 x23=0x80009be2
       75445000	      7543	800002e8	009a0a13	addi	x20,x20,9	 x20:0x0000000f x20=0x00000018
       75455000	      7544	800002ec	e176e3b7	lui	x7,0xe176e	  x7=0xe176e000
       75465000	      7545	800002f0	41250233	sub	x4,x10,x18	 x10:0x80009fc4 x18:0x800098cd  x4=0x000006f7
       75475000	      7546	800002f4	5e237693	andi	x13,x6,1506	  x6:0x0143fb80 x13=0x00000180
       75485000	      7547	800002f8	fe8a60e3	bltu	x20,x8,800002d8	 x20:0x00000018  x8:0x00000011
       75495000	      7548	800002fc	0025c3b3	xor	x7,x11,x2	 x11:0x00000020  x2:0x0143fb80  x7=0x0143fba0
       75505000	      7549	80000300	400cd733	sra	x14,x25,x0	 x25:0xfffffffc  x0:0x00000000 x14=0xfffffffc
       75515000	      7550	80000304	a1fdc337	lui	x6,0xa1fdc	  x6=0xa1fdc000
       75525000	      7551	80000308	cebb8913	addi	x18,x23,-789	 x23:0x80009be2 x18=0x800098cd
       75535000	      7552	8000030c	fbbe58e3	bge	x28,x27,800002bc	 x28:0xfffffffd x27:0xfffffffc
       75545000	      7553	00000000	00000013	addi	x0,x0,0	  x0:0x00000000
       75555000	      7554	800002b8	00000013	addi	x0,x0,0	  x0:0x00000000
       75565000	      7555	800002bc	bfd5e093	ori	x1,x11,-1027	 x11:0x00000020  x1=0xfffffbfd
       75575000	      7556	800002c0	00735113	srli	x2,x6,0x7	  x6:0xa1fdc000  x2=0x0143fb80
       75585000	      7557	800002c4	fffe0e13	addi	x28,x28,-1	 x28:0xfffffffd x28=0xfffffffc
       75595000	      7558	800002c8	00600a13	addi	x20,x0,6	  x0:0x00000000 x20=0x00000006
       75605000	      7559	800002cc	00c7d533	srl	x10,x15,x12	 x15:0x80009fc4 x12:0x00000000 x10=0x80009fc4
       75615000	      7560	800002d0	01100413	addi	x8,x0,17	  x0:0x00000000  x8=0x00000011
       75625000	      7561	800002d4	01357833	and	x16,x10,x19	 x10:0x80009fc4 x19:0x00130320 x16=0x00000300
       75635000	      7562	800002d8	2c143093	sltiu	x1,x8,705	  x8:0x00000011  x1=0x00000001
       75645000	      7563	800002dc	0072d993	srli	x19,x5,0x7	  x5:0x09819000 x19=0x00130320
       75655000	      7564	800002e0	00c16333	or	x6,x2,x12	  x2:0x0143fb80 x12:0x00000000  x6=0x0143fb80
       75665000	      7565	800002e4	4267cb93	xori	x23,x15,1062	 x15:0x80009fc4 x23=0x80009be2
       75675000	      7566	800002e8	009a0a13	addi	x20,x20,9	 x20:0x00000006 x20=0x0000000f
       75685000	      7567	800002ec	e176e3b7	lui	x7,0xe176e	  x7=0xe176e000
       75695000	      7568	800002f0	41250233	sub	x4,x10,x18	 x10:0x80009fc4 x18:0x800098cd  x4=0x000006f7
       75705000	      7569	800002f4	5e237693	andi	x13,x6,1506	  x6:0x0143fb80 x13=0x00000180
       75715000	      7570	800002f8	fe8a60e3	bltu	x20,x8,800002d8	 x20:0x0000000f  x8:0x00000011
       75725000	      7571	00000000	00000013	addi	x0,x0,0	  x0:0x00000000
       75735000	      7572	800002d4	00000013	addi	x0,x0,0	  x0:0x00000000
       75745000	      7573	800002d8	2c143093	sltiu	x1,x8,705	  x8:0x00000011  x1=0x00000001
       75755000	      7574	800002dc	0072d993	srli	x19,x5,0x7	  x5:0x09819000 x19=0x00130320
       75765000	      7575	800002e0	00c16333	or	x6,x2,x12	  x2:0x0143fb80 x12:0x00000000  x6=0x0143fb80
       75775000	      7576	800002e4	4267cb93	xori	x23,x15,1062	 x15:0x80009fc4 x23=0x80009be2
       75785000	      7577	800002e8	009a0a13	addi	x20,x20,9	 x20:0x0000000f x20=0x00000018
       75795000	      7578	800002ec	e176e3b7	lui	x7,0xe176e	  x7=0xe176e000
       75805000	      7579	800002f0	41250233	sub	x4,x10,x18	 x10:0x80009fc4 x18:0x800098cd  x4=0x000006f7
       75815000	      7580	800002f4	5e237693	andi	x13,x6,1506	  x6:0x0143fb80 x13=0x00000180
       75825000	      7581	800002f8	fe8a60e3	bltu	x20,x8,800002d8	 x20:0x00000018  x8:0x00000011
       75835000	      7582	800002fc	0025c3b3	xor	x7,x11,x2	 x11:0x00000020  x2:0x0143fb80  x7=0x0143fba0
       75845000	      7583	80000300	400cd733	sra	x14,x25,x0	 x25:0xfffffffc  x0:0x00000000 x14=0xfffffffc
       75855000	      7584	80000304	a1fdc337	lui	x6,0xa1fdc	  x6=0xa1fdc000
       75865000	      7585	80000308	cebb8913	addi	x18,x23,-789	 x23:0x80009be2 x18=0x800098cd
       75875000	      7586	8000030c	fbbe58e3	bge	x28,x27,800002bc	 x28:0xfffffffc x27:0xfffffffc
       75885000	      7587	00000000	00000013	addi	x0,x0,0	  x0:0x00000000
       75895000	      7588	800002b8	00000013	addi	x0,x0,0	  x0:0x00000000
       75905000	      7589	800002bc	bfd5e093	ori	x1,x11,-1027	 x11:0x00000020  x1=0xfffffbfd
       75915000	      7590	800002c0	00735113	srli	x2,x6,0x7	  x6:0xa1fdc000  x2=0x0143fb80
       75925000	      7591	800002c4	fffe0e13	addi	x28,x28,-1	 x28:0xfffffffc x28=0xfffffffb
       75935000	      7592	800002c8	00600a13	addi	x20,x0,6	  x0:0x00000000 x20=0x00000006
       75945000	      7593	800002cc	00c7d533	srl	x10,x15,x12	 x15:0x80009fc4 x12:0x00000000 x10=0x80009fc4
       75955000	      7594	800002d0	01100413	addi	x8,x0,17	  x0:0x00000000  x8=0x00000011
       75965000	      7595	800002d4	01357833	and	x16,x10,x19	 x10:0x80009fc4 x19:0x00130320 x16=0x00000300
       75975000	      7596	800002d8	2c143093	sltiu	x1,x8,705	  x8:0x00000011  x1=0x00000001
       75985000	      7597	800002dc	0072d993	srli	x19,x5,0x7	  x5:0x09819000 x19=0x00130320
       75995000	      7598	800002e0	00c16333	or	x6,x2,x12	  x2:0x0143fb80 x12:0x00000000  x6=0x0143fb80
       76005000	      7599	800002e4	4267cb93	xori	x23,x15,1062	 x15:0x80009fc4 x23=0x80009be2
       76015000	      7600	800002e8	009a0a13	addi	x20,x20,9	 x20:0x00000006 x20=0x0000000f
       76025000	      7601	800002ec	e176e3b7	lui	x7,0xe176e	  x7=0xe176e000
       76035000	      7602	800002f0	41250233	sub	x4,x10,x18	 x10:0x80009fc4 x18:0x800098cd  x4=0x000006f7
       76045000	      7603	800002f4	5e237693	andi	x13,x6,1506	  x6:0x0143fb80 x13=0x00000180
       76055000	      7604	800002f8	fe8a60e3	bltu	x20,x8,800002d8	 x20:0x0000000f  x8:0x00000011
       76065000	      7605	00000000	00000013	addi	x0,x0,0	  x0:0x00000000
       76075000	      7606	800002d4	00000013	addi	x0,x0,0	  x0:0x00000000
       76085000	      7607	800002d8	2c143093	sltiu	x1,x8,705	  x8:0x00000011  x1=0x00000001
       76095000	      7608	800002dc	0072d993	srli	x19,x5,0x7	  x5:0x09819000 x19=0x00130320
       76105000	      7609	800002e0	00c16333	or	x6,x2,x12	  x2:0x0143fb80 x12:0x00000000  x6=0x0143fb80
       76115000	      7610	800002e4	4267cb93	xori	x23,x15,1062	 x15:0x80009fc4 x23=0x80009be2
       76125000	      7611	800002e8	009a0a13	addi	x20,x20,9	 x20:0x0000000f x20=0x00000018
       76135000	      7612	800002ec	e176e3b7	lui	x7,0xe176e	  x7=0xe176e000
       76145000	      7613	800002f0	41250233	sub	x4,x10,x18	 x10:0x80009fc4 x18:0x800098cd  x4=0x000006f7
       76155000	      7614	800002f4	5e237693	andi	x13,x6,1506	  x6:0x0143fb80 x13=0x00000180
       76165000	      7615	800002f8	fe8a60e3	bltu	x20,x8,800002d8	 x20:0x00000018  x8:0x00000011
       76175000	      7616	800002fc	0025c3b3	xor	x7,x11,x2	 x11:0x00000020  x2:0x0143fb80  x7=0x0143fba0
       76185000	      7617	80000300	400cd733	sra	x14,x25,x0	 x25:0xfffffffc  x0:0x00000000 x14=0xfffffffc
       76195000	      7618	80000304	a1fdc337	lui	x6,0xa1fdc	  x6=0xa1fdc000
       76205000	      7619	80000308	cebb8913	addi	x18,x23,-789	 x23:0x80009be2 x18=0x800098cd
       76215000	      7620	8000030c	fbbe58e3	bge	x28,x27,800002bc	 x28:0xfffffffb x27:0xfffffffc
       76225000	      7621	80000310	5fd6a913	slti	x18,x13,1533	 x13:0x00000180 x18=0x00000001
       76235000	      7622	80000314	00600813	addi	x16,x0,6	  x0:0x00000000 x16=0x00000006
       76245000	      7623	80000318	00500e13	addi	x28,x0,5	  x0:0x00000000 x28=0x00000005
       76255000	      7624	8000031c	41785033	sra	x0,x16,x23	 x16:0x00000006 x23:0x80009be2
       76265000	      7625	80000320	0173acb3	slt	x25,x7,x23	  x7:0x0143fba0 x23:0x80009be2 x25=0x00000000
       76275000	      7626	80000324	ffd80813	addi	x16,x16,-3	 x16:0x00000006 x16=0x00000003
       76285000	      7627	80000328	ff800313	addi	x6,x0,-8	  x0:0x00000000  x6=0xfffffff8
       76295000	      7628	8000032c	00f00993	addi	x19,x0,15	  x0:0x00000000 x19=0x0000000f
       76305000	      7629	80000330	01c6d013	srli	x0,x13,0x1c	 x13:0x00000180
       76315000	      7630	80000334	00000013	addi	x0,x0,0	  x0:0x00000000
       76325000	      7631	80000338	00230313	addi	x6,x6,2	  x6:0xfffffff8  x6=0xfffffffa
       76335000	      7632	8000033c	ff336ce3	bltu	x6,x19,80000334	  x6:0xfffffffa x19:0x0000000f
       76345000	      7633	80000340	ffc870e3	bgeu	x16,x28,80000320	 x16:0x00000003 x28:0x00000005
       76355000	      7634	80000344	01e4b1b3	sltu	x3,x9,x30	  x9:0xffffff00 x30:0x80009fe4  x3=0x00000000
       76365000	      7635	80000348	00500593	addi	x11,x0,5	  x0:0x00000000 x11=0x00000005
       76375000	      7636	8000034c	00c3df93	srli	x31,x7,0xc	  x7:0x0143fba0 x31=0x0000143f
       76385000	      7637	80000350	010b56b3	srl	x13,x22,x16	 x22:0x00000000 x16:0x00000003 x13=0x00000000
       76395000	      7638	80000354	00500893	addi	x17,x0,5	  x0:0x00000000 x17=0x00000005
       76405000	      7639	80000358	fa4db117	auipc	x2,0xfa4db	  x2=0x7a4db354
       76415000	      7640	8000035c	77bd0493	addi	x9,x26,1915	 x26:0xfffffc86  x9=0x00000401
       76425000	      7641	80000360	f4c98293	addi	x5,x19,-180	 x19:0x0000000f  x5=0xffffff5b
       76435000	      7642	80000364	29c10193	addi	x3,x2,668	  x2:0x7a4db354  x3=0x7a4db5f0
       76445000	      7643	80000368	00ab9233	sll	x4,x23,x10	 x23:0x80009be2 x10:0x80009fc4  x4=0x0009be20
       76455000	      7644	8000036c	b83e4e13	xori	x28,x28,-1149	 x28:0x00000005 x28=0xfffffb86
       76465000	      7645	80000370	00b82e33	slt	x28,x16,x11	 x16:0x00000003 x11:0x00000005 x28=0x00000001
       76475000	      7646	80000374	00000013	addi	x0,x0,0	  x0:0x00000000
       76485000	      7647	80000378	b009c413	xori	x8,x19,-1280	 x19:0x0000000f  x8=0xfffffb0f
       76495000	      7648	8000037c	00d8f333	and	x6,x17,x13	 x17:0x00000005 x13:0x00000000  x6=0x00000000
       76505000	      7649	80000380	015ecf33	xor	x30,x29,x21	 x29:0x0004c0c8 x21:0x80009f1c x30=0x80045fd4
       76515000	      7650	80000384	ffc58593	addi	x11,x11,-4	 x11:0x00000005 x11=0x00000001
       76525000	      7651	80000388	c327b513	sltiu	x10,x15,-974	 x15:0x80009fc4 x10=0x00000001
       76535000	      7652	8000038c	01de00b3	add	x1,x28,x29	 x28:0x00000001 x29:0x0004c0c8  x1=0x0004c0c9
       76545000	      7653	80000390	0049d393	srli	x7,x19,0x4	 x19:0x0000000f  x7=0x00000000
       76555000	      7654	80000394	e82ac193	xori	x3,x21,-382	 x21:0x80009f1c  x3=0x7fff619e
       76565000	      7655	80000398	6a1f6e93	ori	x29,x30,1697	 x30:0x80045fd4 x29=0x80045ff5
       76575000	      7656	8000039c	001dd393	srli	x7,x27,0x1	 x27:0xfffffffc  x7=0x7ffffffe
       76585000	      7657	800003a0	fd15f6e3	bgeu	x11,x17,8000036c	 x11:0x00000001 x17:0x00000005
       76595000	      7658	800003a4	012a9193	slli	x3,x21,0x12	 x21:0x80009f1c  x3=0x7c700000
       76605000	      7659	800003a8	00000493	addi	x9,x0,0	  x0:0x00000000  x9=0x00000000
       76615000	      7660	800003ac	01400c13	addi	x24,x0,20	  x0:0x00000000 x24=0x00000014
       76625000	      7661	800003b0	0141b433	sltu	x8,x3,x20	  x3:0x7c700000 x20:0x00000018  x8=0x00000000
       76635000	      7662	800003b4	00248493	addi	x9,x9,2	  x9:0x00000000  x9=0x00000002
       76645000	      7663	800003b8	ba100d93	addi	x27,x0,-1119	  x0:0x00000000 x27=0xfffffba1
       76655000	      7664	800003bc	003c60b3	or	x1,x24,x3	 x24:0x00000014  x3:0x7c700000  x1=0x7c700014
       76665000	      7665	800003c0	ff84c8e3	blt	x9,x24,800003b0	  x9:0x00000002 x24:0x00000014
       76675000	      7666	00000000	00000013	addi	x0,x0,0	  x0:0x00000000
       76685000	      7667	800003ac	00000013	addi	x0,x0,0	  x0:0x00000000
       76695000	      7668	800003b0	0141b433	sltu	x8,x3,x20	  x3:0x7c700000 x20:0x00000018  x8=0x00000000
       76705000	      7669	800003b4	00248493	addi	x9,x9,2	  x9:0x00000002  x9=0x00000004
       76715000	      7670	800003b8	ba100d93	addi	x27,x0,-1119	  x0:0x00000000 x27=0xfffffba1
       76725000	      7671	800003bc	003c60b3	or	x1,x24,x3	 x24:0x00000014  x3:0x7c700000  x1=0x7c700014
       76735000	      7672	800003c0	ff84c8e3	blt	x9,x24,800003b0	  x9:0x00000004 x24:0x00000014
       76745000	      7673	00000000	00000013	addi	x0,x0,0	  x0:0x00000000
       76755000	      7674	800003ac	00000013	addi	x0,x0,0	  x0:0x00000000
       76765000	      7675	800003b0	0141b433	sltu	x8,x3,x20	  x3:0x7c700000 x20:0x00000018  x8=0x00000000
       76775000	      7676	800003b4	00248493	addi	x9,x9,2	  x9:0x00000004  x9=0x00000006
       76785000	      7677	800003b8	ba100d93	addi	x27,x0,-1119	  x0:0x00000000 x27=0xfffffba1
       76795000	      7678	800003bc	003c60b3	or	x1,x24,x3	 x24:0x00000014  x3:0x7c700000  x1=0x7c700014
       76805000	      7679	800003c0	ff84c8e3	blt	x9,x24,800003b0	  x9:0x00000006 x24:0x00000014
       76815000	      7680	00000000	00000013	addi	x0,x0,0	  x0:0x00000000
       76825000	      7681	800003ac	00000013	addi	x0,x0,0	  x0:0x00000000
       76835000	      7682	800003b0	0141b433	sltu	x8,x3,x20	  x3:0x7c700000 x20:0x00000018  x8=0x00000000
       76845000	      7683	800003b4	00248493	addi	x9,x9,2	  x9:0x00000006  x9=0x00000008
       76855000	      7684	800003b8	ba100d93	addi	x27,x0,-1119	  x0:0x00000000 x27=0xfffffba1
       76865000	      7685	800003bc	003c60b3	or	x1,x24,x3	 x24:0x00000014  x3:0x7c700000  x1=0x7c700014
       76875000	      7686	800003c0	ff84c8e3	blt	x9,x24,800003b0	  x9:0x00000008 x24:0x00000014
       76885000	      7687	00000000	00000013	addi	x0,x0,0	  x0:0x00000000
       76895000	      7688	800003ac	00000013	addi	x0,x0,0	  x0:0x00000000
       76905000	      7689	800003b0	0141b433	sltu	x8,x3,x20	  x3:0x7c700000 x20:0x00000018  x8=0x00000000
       76915000	      7690	800003b4	00248493	addi	x9,x9,2	  x9:0x00000008  x9=0x0000000a
       76925000	      7691	800003b8	ba100d93	addi	x27,x0,-1119	  x0:0x00000000 x27=0xfffffba1
       76935000	      7692	800003bc	003c60b3	or	x1,x24,x3	 x24:0x00000014  x3:0x7c700000  x1=0x7c700014
       76945000	      7693	800003c0	ff84c8e3	blt	x9,x24,800003b0	  x9:0x0000000a x24:0x00000014
       76955000	      7694	00000000	00000013	addi	x0,x0,0	  x0:0x00000000
       76965000	      7695	800003ac	00000013	addi	x0,x0,0	  x0:0x00000000
       76975000	      7696	800003b0	0141b433	sltu	x8,x3,x20	  x3:0x7c700000 x20:0x00000018  x8=0x00000000
       76985000	      7697	800003b4	00248493	addi	x9,x9,2	  x9:0x0000000a  x9=0x0000000c
       76995000	      7698	800003b8	ba100d93	addi	x27,x0,-1119	  x0:0x00000000 x27=0xfffffba1
       77005000	      7699	800003bc	003c60b3	or	x1,x24,x3	 x24:0x00000014  x3:0x7c700000  x1=0x7c700014
       77015000	      7700	800003c0	ff84c8e3	blt	x9,x24,800003b0	  x9:0x0000000c x24:0x00000014
       77025000	      7701	00000000	00000013	addi	x0,x0,0	  x0:0x00000000
       77035000	      7702	800003ac	00000013	addi	x0,x0,0	  x0:0x00000000
       77045000	      7703	800003b0	0141b433	sltu	x8,x3,x20	  x3:0x7c700000 x20:0x00000018  x8=0x00000000
       77055000	      7704	800003b4	00248493	addi	x9,x9,2	  x9:0x0000000c  x9=0x0000000e
       77065000	      7705	800003b8	ba100d93	addi	x27,x0,-1119	  x0:0x00000000 x27=0xfffffba1
       77075000	      7706	800003bc	003c60b3	or	x1,x24,x3	 x24:0x00000014  x3:0x7c700000  x1=0x7c700014
       77085000	      7707	800003c0	ff84c8e3	blt	x9,x24,800003b0	  x9:0x0000000e x24:0x00000014
       77095000	      7708	00000000	00000013	addi	x0,x0,0	  x0:0x00000000
       77105000	      7709	800003ac	00000013	addi	x0,x0,0	  x0:0x00000000
       77115000	      7710	800003b0	0141b433	sltu	x8,x3,x20	  x3:0x7c700000 x20:0x00000018  x8=0x00000000
       77125000	      7711	800003b4	00248493	addi	x9,x9,2	  x9:0x0000000e  x9=0x00000010
       77135000	      7712	800003b8	ba100d93	addi	x27,x0,-1119	  x0:0x00000000 x27=0xfffffba1
       77145000	      7713	800003bc	003c60b3	or	x1,x24,x3	 x24:0x00000014  x3:0x7c700000  x1=0x7c700014
       77155000	      7714	800003c0	ff84c8e3	blt	x9,x24,800003b0	  x9:0x00000010 x24:0x00000014
       77165000	      7715	00000000	00000013	addi	x0,x0,0	  x0:0x00000000
       77175000	      7716	800003ac	00000013	addi	x0,x0,0	  x0:0x00000000
       77185000	      7717	800003b0	0141b433	sltu	x8,x3,x20	  x3:0x7c700000 x20:0x00000018  x8=0x00000000
       77195000	      7718	800003b4	00248493	addi	x9,x9,2	  x9:0x00000010  x9=0x00000012
       77205000	      7719	800003b8	ba100d93	addi	x27,x0,-1119	  x0:0x00000000 x27=0xfffffba1
       77215000	      7720	800003bc	003c60b3	or	x1,x24,x3	 x24:0x00000014  x3:0x7c700000  x1=0x7c700014
       77225000	      7721	800003c0	ff84c8e3	blt	x9,x24,800003b0	  x9:0x00000012 x24:0x00000014
       77235000	      7722	00000000	00000013	addi	x0,x0,0	  x0:0x00000000
       77245000	      7723	800003ac	00000013	addi	x0,x0,0	  x0:0x00000000
       77255000	      7724	800003b0	0141b433	sltu	x8,x3,x20	  x3:0x7c700000 x20:0x00000018  x8=0x00000000
       77265000	      7725	800003b4	00248493	addi	x9,x9,2	  x9:0x00000012  x9=0x00000014
       77275000	      7726	800003b8	ba100d93	addi	x27,x0,-1119	  x0:0x00000000 x27=0xfffffba1
       77285000	      7727	800003bc	003c60b3	or	x1,x24,x3	 x24:0x00000014  x3:0x7c700000  x1=0x7c700014
       77295000	      7728	800003c0	ff84c8e3	blt	x9,x24,800003b0	  x9:0x00000014 x24:0x00000014
       77305000	      7729	800003c4	40625733	sra	x14,x4,x6	  x4:0x0009be20  x6:0x00000000 x14=0x0009be20
       77315000	      7730	800003c8	00000313	addi	x6,x0,0	  x0:0x00000000  x6=0x00000000
       77325000	      7731	800003cc	01000913	addi	x18,x0,16	  x0:0x00000000 x18=0x00000010
       77335000	      7732	800003d0	0105c033	xor	x0,x11,x16	 x11:0x00000001 x16:0x00000003
       77345000	      7733	800003d4	00a30313	addi	x6,x6,10	  x6:0x00000000  x6=0x0000000a
       77355000	      7734	800003d8	ff236ce3	bltu	x6,x18,800003d0	  x6:0x0000000a x18:0x00000010
       77365000	      7735	00000000	00000013	addi	x0,x0,0	  x0:0x00000000
       77375000	      7736	800003cc	00000013	addi	x0,x0,0	  x0:0x00000000
       77385000	      7737	800003d0	0105c033	xor	x0,x11,x16	 x11:0x00000001 x16:0x00000003
       77395000	      7738	800003d4	00a30313	addi	x6,x6,10	  x6:0x0000000a  x6=0x00000014
       77405000	      7739	800003d8	ff236ce3	bltu	x6,x18,800003d0	  x6:0x00000014 x18:0x00000010
       77415000	      7740	800003dc	ab770613	addi	x12,x14,-1353	 x14:0x0009be20 x12=0x0009b8d7
       77425000	      7741	800003e0	c15f8513	addi	x10,x31,-1003	 x31:0x0000143f x10=0x00001054
       77435000	      7742	800003e4	41b9d813	srai	x16,x19,0x1b	 x19:0x0000000f x16=0x00000000
       77445000	      7743	800003e8	337a2d13	slti	x26,x20,823	 x20:0x00000018 x26=0x00000001
       77455000	      7744	800003ec	00b9f2b3	and	x5,x19,x11	 x19:0x0000000f x11:0x00000001  x5=0x00000001
       77465000	      7745	800003f0	21fd5197	auipc	x3,0x21fd5	  x3=0xa1fd53ec
       77475000	      7746	800003f4	010582b3	add	x5,x11,x16	 x11:0x00000001 x16:0x00000000  x5=0x00000001
       77485000	      7747	800003f8	65eaef13	ori	x30,x21,1630	 x21:0x80009f1c x30=0x80009f5e
       77495000	      7748	800003fc	003f1213	slli	x4,x30,0x3	 x30:0x80009f5e  x4=0x0004faf0
       77505000	      7749	80000400	007ace33	xor	x28,x21,x7	 x21:0x80009f1c  x7:0x7ffffffe x28=0xffff60e2
       77515000	      7750	80000404	00054cb3	xor	x25,x10,x0	 x10:0x00001054  x0:0x00000000 x25=0x00001054
       77525000	      7751	80000408	01f86a63	bltu	x16,x31,8000041c	 x16:0x00000000 x31:0x0000143f
       77535000	      7752	00000000	00000013	addi	x0,x0,0	  x0:0x00000000
       77545000	      7753	80000418	00000013	addi	x0,x0,0	  x0:0x00000000
       77555000	      7754	8000041c	01201c13	slli	x24,x0,0x12	  x0:0x00000000 x24=0x00000000
       77565000	      7755	80000420	01199c13	slli	x24,x19,0x11	 x19:0x0000000f x24=0x001e0000
       77575000	      7756	80000424	41fb5193	srai	x3,x22,0x1f	 x22:0x00000000  x3=0x00000000
       77585000	      7757	80000428	00000013	addi	x0,x0,0	  x0:0x00000000
       77595000	      7758	8000042c	017dee63	bltu	x27,x23,80000448	 x27:0xfffffba1 x23:0x80009be2
       77605000	      7759	80000430	057ed863	bge	x29,x23,80000480	 x29:0x80045ff5 x23:0x80009be2
       77615000	      7760	00000000	00000013	addi	x0,x0,0	  x0:0x00000000
       77625000	      7761	8000047c	00000013	addi	x0,x0,0	  x0:0x00000000
       77635000	      7762	80000480	04b1f463	bgeu	x3,x11,800004c8	  x3:0x00000000 x11:0x00000001
       77645000	      7763	80000484	04711063	bne	x2,x7,800004c4	  x2:0x7a4db354  x7:0x7ffffffe
       77655000	      7764	00000000	00000013	addi	x0,x0,0	  x0:0x00000000
       77665000	      7765	800004c0	00000013	addi	x0,x0,0	  x0:0x00000000
       77675000	      7766	800004c4	00000013	addi	x0,x0,0	  x0:0x00000000
       77685000	      7767	800004c8	02150863	beq	x10,x1,800004f8	 x10:0x00001054  x1:0x7c700014
       77695000	      7768	800004cc	00c99433	sll	x8,x19,x12	 x19:0x0000000f x12:0x0009b8d7  x8=0x07800000
       77705000	      7769	800004d0	00eda833	slt	x16,x27,x14	 x27:0xfffffba1 x14:0x0009be20 x16=0x00000001
       77715000	      7770	800004d4	02bfd863	bge	x31,x11,80000504	 x31:0x0000143f x11:0x00000001
       77725000	      7771	00000000	00000013	addi	x0,x0,0	  x0:0x00000000
       77735000	      7772	80000500	00000013	addi	x0,x0,0	  x0:0x00000000
       77745000	      7773	80000504	0047fe33	and	x28,x15,x4	 x15:0x80009fc4  x4:0x0004faf0 x28=0x00009ac0
       77755000	      7774	80000508	01e91db3	sll	x27,x18,x30	 x18:0x00000010 x30:0x80009f5e x27=0x00000000
       77765000	      7775	8000050c	03734e63	blt	x6,x23,80000548	  x6:0x00000014 x23:0x80009be2
       77775000	      7776	80000510	04bfd063	bge	x31,x11,80000550	 x31:0x0000143f x11:0x00000001
       77785000	      7777	00000000	00000013	addi	x0,x0,0	  x0:0x00000000
       77795000	      7778	8000054c	00000013	addi	x0,x0,0	  x0:0x00000000
       77805000	      7779	80000550	00159413	slli	x8,x11,0x1	 x11:0x00000001  x8=0x00000002
       77815000	      7780	80000554	03117863	bgeu	x2,x17,80000584	  x2:0x7a4db354 x17:0x00000005
       77825000	      7781	00000000	00000013	addi	x0,x0,0	  x0:0x00000000
       77835000	      7782	80000580	00000013	addi	x0,x0,0	  x0:0x00000000
       77845000	      7783	80000584	019201b3	add	x3,x4,x25	  x4:0x0004faf0 x25:0x00001054  x3=0x00050b44
       77855000	      7784	80000588	89ac0017	auipc	x0,0x89ac0	
       77865000	      7785	8000058c	05e61063	bne	x12,x30,800005cc	 x12:0x0009b8d7 x30:0x80009f5e
       77875000	      7786	00000000	00000013	addi	x0,x0,0	  x0:0x00000000
       77885000	      7787	800005c8	00000013	addi	x0,x0,0	  x0:0x00000000
       77895000	      7788	800005cc	019110b3	sll	x1,x2,x25	  x2:0x7a4db354 x25:0x00001054  x1=0x35400000
       77905000	      7789	800005d0	00011f13	slli	x30,x2,0x0	  x2:0x7a4db354 x30=0x7a4db354
       77915000	      7790	800005d4	3d007437	lui	x8,0x3d007	  x8=0x3d007000
       77925000	      7791	800005d8	d961abb7	lui	x23,0xd961a	 x23=0xd961a000
       77935000	      7792	800005dc	00000013	addi	x0,x0,0	  x0:0x00000000
       77945000	      7793	800005e0	002b6a63	bltu	x22,x2,800005f4	 x22:0x00000000  x2:0x7a4db354
       77955000	      7794	00000000	00000013	addi	x0,x0,0	  x0:0x00000000
       77965000	      7795	800005f0	00000013	addi	x0,x0,0	  x0:0x00000000
       77975000	      7796	800005f4	03309e63	bne	x1,x19,80000630	  x1:0x35400000 x19:0x0000000f
       77985000	      7797	00000000	00000013	addi	x0,x0,0	  x0:0x00000000
       77995000	      7798	8000062c	00000013	addi	x0,x0,0	  x0:0x00000000
       78005000	      7799	80000630	00f5d393	srli	x7,x11,0xf	 x11:0x00000001  x7=0x00000000
       78015000	      7800	80000634	09345063	bge	x8,x19,800006b4	  x8:0x3d007000 x19:0x0000000f
       78025000	      7801	00000000	00000013	addi	x0,x0,0	  x0:0x00000000
       78035000	      7802	800006b0	00000013	addi	x0,x0,0	  x0:0x00000000
       78045000	      7803	800006b4	565f3593	sltiu	x11,x30,1381	 x30:0x7a4db354 x11=0x00000000
       78055000	      7804	800006b8	417602b3	sub	x5,x12,x23	 x12:0x0009b8d7 x23:0xd961a000  x5=0x26a818d7
       78065000	      7805	800006bc	00b73633	sltu	x12,x14,x11	 x14:0x0009be20 x11:0x00000000 x12=0x00000000
       78075000	      7806	800006c0	fede2d13	slti	x26,x28,-19	 x28:0x00009ac0 x26=0x00000000
       78085000	      7807	800006c4	e420e993	ori	x19,x1,-446	  x1:0x35400000 x19=0xfffffe42
       78095000	      7808	800006c8	007d3fb3	sltu	x31,x26,x7	 x26:0x00000000  x7:0x00000000 x31=0x00000000
       78105000	      7809	800006cc	05b05463	bge	x0,x27,80000714	  x0:0x00000000 x27:0x00000000
       78115000	      7810	00000000	00000013	addi	x0,x0,0	  x0:0x00000000
       78125000	      7811	80000710	00000013	addi	x0,x0,0	  x0:0x00000000
       78135000	      7812	80000714	01aa7fb3	and	x31,x20,x26	 x20:0x00000018 x26:0x00000000 x31=0x00000000
       78145000	      7813	80000718	003b6bb3	or	x23,x22,x3	 x22:0x00000000  x3:0x00050b44 x23=0x00050b44
       78155000	      7814	8000071c	49384613	xori	x12,x16,1171	 x16:0x00000001 x12=0x00000492
       78165000	      7815	80000720	05dd6863	bltu	x26,x29,80000770	 x26:0x00000000 x29:0x80045ff5
       78175000	      7816	00000000	00000013	addi	x0,x0,0	  x0:0x00000000
       78185000	      7817	8000076c	00000013	addi	x0,x0,0	  x0:0x00000000
       78195000	      7818	80000770	00f25a63	bge	x4,x15,80000784	  x4:0x0004faf0 x15:0x80009fc4
       78205000	      7819	00000000	00000013	addi	x0,x0,0	  x0:0x00000000
       78215000	      7820	80000780	00000013	addi	x0,x0,0	  x0:0x00000000
       78225000	      7821	80000784	1b684113	xori	x2,x16,438	 x16:0x00000001  x2=0x000001b7
       78235000	      7822	80000788	009f9c33	sll	x24,x31,x9	 x31:0x00000000  x9:0x00000014 x24=0x00000000
       78245000	      7823	8000078c	00000013	addi	x0,x0,0	  x0:0x00000000
       78255000	      7824	80000790	408888b3	sub	x17,x17,x8	 x17:0x00000005  x8:0x3d007000 x17=0xc2ff9005
       78265000	      7825	80000794	00000013	addi	x0,x0,0	  x0:0x00000000
       78275000	      7826	80000798	018239b3	sltu	x19,x4,x24	  x4:0x0004faf0 x24:0x00000000 x19=0x00000000
       78285000	      7827	8000079c	509d3113	sltiu	x2,x26,1289	 x26:0x00000000  x2=0x00000001
       78295000	      7828	800007a0	00000013	addi	x0,x0,0	  x0:0x00000000
       78305000	      7829	800007a4	9d4c3bb7	lui	x23,0x9d4c3	 x23=0x9d4c3000
       78315000	      7830	800007a8	00d85e13	srli	x28,x16,0xd	 x16:0x00000001 x28=0x00000000
       78325000	      7831	800007ac	01cc5693	srli	x13,x24,0x1c	 x24:0x00000000 x13=0x00000000
       78335000	      7832	800007b0	009d8593	addi	x11,x27,9	 x27:0x00000000 x11=0x00000009
       78345000	      7833	800007b4	00000013	addi	x0,x0,0	  x0:0x00000000
       78355000	      7834	800007b8	05f15063	bge	x2,x31,800007f8	  x2:0x00000001 x31:0x00000000
       78365000	      7835	00000000	00000013	addi	x0,x0,0	  x0:0x00000000
       78375000	      7836	800007f4	00000013	addi	x0,x0,0	  x0:0x00000000
       78385000	      7837	800007f8	00e31a33	sll	x20,x6,x14	  x6:0x00000014 x14:0x0009be20 x20=0x00000014
       78395000	      7838	800007fc	030ac863	blt	x21,x16,8000082c	 x21:0x80009f1c x16:0x00000001
       78405000	      7839	00000000	00000013	addi	x0,x0,0	  x0:0x00000000
       78415000	      7840	80000828	00000013	addi	x0,x0,0	  x0:0x00000000
       78425000	      7841	8000082c	418f5833	sra	x16,x30,x24	 x30:0x7a4db354 x24:0x00000000 x16=0x7a4db354
       78435000	      7842	80000830	0039a733	slt	x14,x19,x3	 x19:0x00000000  x3:0x00050b44 x14=0x00000001
       78445000	      7843	80000834	09dc9337	lui	x6,0x9dc9	  x6=0x09dc9000
       78455000	      7844	80000838	05781263	bne	x16,x23,8000087c	 x16:0x7a4db354 x23:0x9d4c3000
       78465000	      7845	00000000	00000013	addi	x0,x0,0	  x0:0x00000000
       78475000	      7846	80000878	00000013	addi	x0,x0,0	  x0:0x00000000
       78485000	      7847	8000087c	7b838b93	addi	x23,x7,1976	  x7:0x00000000 x23=0x000007b8
       78495000	      7848	80000880	047f1063	bne	x30,x7,800008c0	 x30:0x7a4db354  x7:0x00000000
       78505000	      7849	00000000	00000013	addi	x0,x0,0	  x0:0x00000000
       78515000	      7850	800008bc	00000013	addi	x0,x0,0	  x0:0x00000000
       78525000	      7851	800008c0	41bedcb3	sra	x25,x29,x27	 x29:0x80045ff5 x27:0x00000000 x25=0x80045ff5
       78535000	      7852	800008c4	010fed33	or	x26,x31,x16	 x31:0x00000000 x16:0x7a4db354 x26=0x7a4db354
       78545000	      7853	800008c8	64d98837	lui	x16,0x64d98	 x16=0x64d98000
       78555000	      7854	800008cc	027cf263	bgeu	x25,x7,800008f0	 x25:0x80045ff5  x7:0x00000000
       78565000	      7855	00000000	00000013	addi	x0,x0,0	  x0:0x00000000
       78575000	      7856	800008ec	00000013	addi	x0,x0,0	  x0:0x00000000
       78585000	      7857	800008f0	73434113	xori	x2,x6,1844	  x6:0x09dc9000  x2=0x09dc9734
       78595000	      7858	800008f4	6fc7c513	xori	x10,x15,1788	 x15:0x80009fc4 x10=0x80009938
       78605000	      7859	800008f8	01dd9fb3	sll	x31,x27,x29	 x27:0x00000000 x29:0x80045ff5 x31=0x00000000
       78615000	      7860	800008fc	017c75b3	and	x11,x24,x23	 x24:0x00000000 x23:0x000007b8 x11=0x00000000
       78625000	      7861	80000900	00000013	addi	x0,x0,0	  x0:0x00000000
       78635000	      7862	80000904	00b5e633	or	x12,x11,x11	 x11:0x00000000 x11:0x00000000 x12=0x00000000
       78645000	      7863	80000908	fcfac693	xori	x13,x21,-49	 x21:0x80009f1c x13=0x7fff60d3
       78655000	      7864	8000090c	016bc2b3	xor	x5,x23,x22	 x23:0x000007b8 x22:0x00000000  x5=0x000007b8
       78665000	      7865	80000910	01527533	and	x10,x4,x21	  x4:0x0004faf0 x21:0x80009f1c x10=0x00009a10
       78675000	      7866	80000914	04699063	bne	x19,x6,80000954	 x19:0x00000000  x6:0x09dc9000
       78685000	      7867	00000000	00000013	addi	x0,x0,0	  x0:0x00000000
       78695000	      7868	80000950	00000013	addi	x0,x0,0	  x0:0x00000000
       78705000	      7869	80000954	02308463	beq	x1,x3,8000097c	  x1:0x35400000  x3:0x00050b44
       78715000	      7870	80000958	01031513	slli	x10,x6,0x10	  x6:0x09dc9000 x10=0x90000000
       78725000	      7871	8000095c	00d094b3	sll	x9,x1,x13	  x1:0x35400000 x13:0x7fff60d3  x9=0x00000000
       78735000	      7872	80000960	fc9d0593	addi	x11,x26,-55	 x26:0x7a4db354 x11=0x7a4db31d
       78745000	      7873	80000964	00000013	addi	x0,x0,0	  x0:0x00000000
       78755000	      7874	80000968	002cca63	blt	x25,x2,8000097c	 x25:0x80045ff5  x2:0x09dc9734
       78765000	      7875	00000000	00000013	addi	x0,x0,0	  x0:0x00000000
       78775000	      7876	80000978	00000013	addi	x0,x0,0	  x0:0x00000000
       78785000	      7877	8000097c	03931863	bne	x6,x25,800009ac	  x6:0x09dc9000 x25:0x80045ff5
       78795000	      7878	00000000	00000013	addi	x0,x0,0	  x0:0x00000000
       78805000	      7879	800009a8	00000013	addi	x0,x0,0	  x0:0x00000000
       78815000	      7880	800009ac	4074d713	srai	x14,x9,0x7	  x9:0x00000000 x14=0x00000000
       78825000	      7881	800009b0	00008863	beq	x1,x0,800009c0	  x1:0x35400000  x0:0x00000000
       78835000	      7882	800009b4	01d84933	xor	x18,x16,x29	 x16:0x64d98000 x29:0x80045ff5 x18=0xe4dddff5
       78845000	      7883	800009b8	00639993	slli	x19,x7,0x6	  x7:0x00000000 x19=0x00000000
       78855000	      7884	800009bc	010d7a63	bgeu	x26,x16,800009d0	 x26:0x7a4db354 x16:0x64d98000
       78865000	      7885	00000000	00000013	addi	x0,x0,0	  x0:0x00000000
       78875000	      7886	800009cc	00000013	addi	x0,x0,0	  x0:0x00000000
       78885000	      7887	800009d0	ea5de1b7	lui	x3,0xea5de	  x3=0xea5de000
       78895000	      7888	800009d4	004aab83	lw	x23,4(x21)	 x21:0x80009f1c x23=0x80002dd0 PA:0x80009f20
       78905000	      7889	800009d8	009cd1b3	srl	x3,x25,x9	 x25:0x80045ff5  x9:0x00000000  x3=0x80045ff5
       78915000	      7890	800009dc	030a8a93	addi	x21,x21,48	 x21:0x80009f1c x21=0x80009f4c
       78925000	      7891	800009e0	38b6b693	sltiu	x13,x13,907	 x13:0x7fff60d3 x13=0x00000000
       78935000	      7892	800009e4	41acd1b3	sra	x3,x25,x26	 x25:0x80045ff5 x26:0x7a4db354  x3=0xfffff800
       78945000	      7893	800009e8	26c939b7	lui	x19,0x26c93	 x19=0x26c93000
       78955000	      7894	800009ec	40f1d1b3	sra	x3,x3,x15	  x3:0xfffff800 x15:0x80009fc4  x3=0xffffff80
       78965000	      7895	800009f0	000b8213	addi	x4,x23,0	 x23:0x80002dd0  x4=0x80002dd0
       78975000	      7896	800009f4	00020267	jalr	x4,x4,0	  x4:0x80002dd0  x4=0x800009f4
       78985000	      7897	00000000	00000013	addi	x0,x0,0	  x0:0x00000000
       78995000	      7898	80002dd0	00000013	addi	x0,x0,0	  x0:0x00000000
       79005000	      7899	80002dd4	017f7633	and	x12,x30,x23	 x30:0x7a4db354 x23:0x80002dd0 x12=0x00002150
       79015000	      7900	80002dd8	005d0e33	add	x28,x26,x5	 x26:0x7a4db354  x5:0x000007b8 x28=0x7a4dbb0c
       79025000	      7901	80002ddc	03eb5063	bge	x22,x30,80002dfc	 x22:0x00000000 x30:0x7a4db354
       79035000	      7902	80002de0	01bfc233	xor	x4,x31,x27	 x31:0x00000000 x27:0x00000000  x4=0x00000000
       79045000	      7903	80002de4	018e5463	bge	x28,x24,80002dec	 x28:0x7a4dbb0c x24:0x00000000
       79055000	      7904	00000000	00000013	addi	x0,x0,0	  x0:0x00000000
       79065000	      7905	80002de8	00000013	addi	x0,x0,0	  x0:0x00000000
       79075000	      7906	80002dec	0f120093	addi	x1,x4,241	  x4:0x00000000  x1=0x000000f1
       79085000	      7907	80002df0	00000013	addi	x0,x0,0	  x0:0x00000000
       79095000	      7908	80002df4	a1464993	xori	x19,x12,-1516	 x12:0x00002150 x19=0xffffdb44
       79105000	      7909	80002df8	00c28433	add	x8,x5,x12	  x5:0x000007b8 x12:0x00002150  x8=0x00002908
       79115000	      7910	80002dfc	0080d433	srl	x8,x1,x8	  x1:0x000000f1  x8:0x00002908  x8=0x00000000
       79125000	      7911	80002e00	00ebcf33	xor	x30,x23,x14	 x23:0x80002dd0 x14:0x00000000 x30=0x80002dd0
       79135000	      7912	80002e04	eaf96a13	ori	x20,x18,-337	 x18:0xe4dddff5 x20=0xffffffff
       79145000	      7913	80002e08	004aab83	lw	x23,4(x21)	 x21:0x80009f4c x23=0x80000178 PA:0x80009f50
       79155000	      7914	80002e0c	404683b3	sub	x7,x13,x4	 x13:0x00000000  x4:0x00000000  x7=0x00000000
       79165000	      7915	80002e10	40b1a413	slti	x8,x3,1035	  x3:0xffffff80  x8=0x00000001
       79175000	      7916	80002e14	5acd7813	andi	x16,x26,1452	 x26:0x7a4db354 x16=0x00000104
       79185000	      7917	80002e18	15b2b813	sltiu	x16,x5,347	  x5:0x000007b8 x16=0x00000000
       79195000	      7918	80002e1c	038a8a93	addi	x21,x21,56	 x21:0x80009f4c x21=0x80009f84
       79205000	      7919	80002e20	fba12d97	auipc	x27,0xfba12	 x27=0x7ba14e1c
       79215000	      7920	80002e24	0073b433	sltu	x8,x7,x7	  x7:0x00000000  x7:0x00000000  x8=0x00000000
       79225000	      7921	80002e28	001b8293	addi	x5,x23,1	 x23:0x80000178  x5=0x80000179
       79235000	      7922	80002e2c	000282e7	jalr	x5,x5,0	  x5:0x80000179  x5=0x80002e2c
       79245000	      7923	00000000	00000013	addi	x0,x0,0	  x0:0x00000000
       79255000	      7924	80000178	00000013	addi	x0,x0,0	  x0:0x00000000
       79265000	      7925	8000017c	ffa00113	addi	x2,x0,-6	  x0:0x00000000  x2=0xfffffffa
       79275000	      7926	80000180	00000013	addi	x0,x0,0	  x0:0x00000000
       79285000	      7927	80000184	0173fdb3	and	x27,x7,x23	  x7:0x00000000 x23:0x80000178 x27=0x00000000
       79295000	      7928	80000188	c082eb93	ori	x23,x5,-1016	  x5:0x80002e2c x23=0xfffffe2c
       79305000	      7929	8000018c	0018dd33	srl	x26,x17,x1	 x17:0xc2ff9005  x1:0x000000f1 x26=0x0000617f
       79315000	      7930	80000190	83e8fb93	andi	x23,x17,-1986	 x17:0xc2ff9005 x23=0xc2ff9004
       79325000	      7931	80000194	3f9bf593	andi	x11,x23,1017	 x23:0xc2ff9004 x11=0x00000000
       79335000	      7932	80000198	0160f233	and	x4,x1,x22	  x1:0x000000f1 x22:0x00000000  x4=0x00000000
       79345000	      7933	8000019c	40e305b3	sub	x11,x6,x14	  x6:0x09dc9000 x14:0x00000000 x11=0x09dc9000
       79355000	      7934	800001a0	01149733	sll	x14,x9,x17	  x9:0x00000000 x17:0xc2ff9005 x14=0x00000000
       79365000	      7935	800001a4	0091da33	srl	x20,x3,x9	  x3:0xffffff80  x9:0x00000000 x20=0xffffff80
       79375000	      7936	800001a8	00a00f93	addi	x31,x0,10	  x0:0x00000000 x31=0x0000000a
       79385000	      7937	800001ac	000aedb3	or	x27,x21,x0	 x21:0x80009f84  x0:0x00000000 x27=0x80009f84
       79395000	      7938	800001b0	00630e33	add	x28,x6,x6	  x6:0x09dc9000  x6:0x09dc9000 x28=0x13b92000
       79405000	      7939	800001b4	f6a8c713	xori	x14,x17,-150	 x17:0xc2ff9005 x14=0x3d006f6f
       79415000	      7940	800001b8	fc786913	ori	x18,x16,-57	 x16:0x00000000 x18=0xffffffc7
       79425000	      7941	800001bc	00810113	addi	x2,x2,8	  x2:0xfffffffa  x2=0x00000002
       79435000	      7942	800001c0	ad97fd13	andi	x26,x15,-1319	 x15:0x80009fc4 x26=0x80009ac0
       79445000	      7943	800001c4	f4cc16b7	lui	x13,0xf4cc1	 x13=0xf4cc1000
       79455000	      7944	800001c8	009bd413	srli	x8,x23,0x9	 x23:0xc2ff9004  x8=0x00617fc8
       79465000	      7945	800001cc	00100193	addi	x3,x0,1	  x0:0x00000000  x3=0x00000001
       79475000	      7946	800001d0	00b00493	addi	x9,x0,11	  x0:0x00000000  x9=0x0000000b
       79485000	      7947	800001d4	44c7e517	auipc	x10,0x44c7e	 x10=0xc4c7e1d0
       79495000	      7948	800001d8	2f4de713	ori	x14,x27,756	 x27:0x80009f84 x14=0x80009ff4
       79505000	      7949	800001dc	00618193	addi	x3,x3,6	  x3:0x00000001  x3=0x00000007
       79515000	      7950	800001e0	41cdddb3	sra	x27,x27,x28	 x27:0x80009f84 x28:0x13b92000 x27=0x80009f84
       79525000	      7951	800001e4	01295a13	srli	x20,x18,0x12	 x18:0xffffffc7 x20=0x00003fff
       79535000	      7952	800001e8	7f220693	addi	x13,x4,2034	  x4:0x00000000 x13=0x000007f2
       79545000	      7953	800001ec	00c79eb3	sll	x29,x15,x12	 x15:0x80009fc4 x12:0x00002150 x29=0x9fc40000
       79555000	      7954	800001f0	fe91c4e3	blt	x3,x9,800001d8	  x3:0x00000007  x9:0x0000000b
       79565000	      7955	00000000	00000013	addi	x0,x0,0	  x0:0x00000000
       79575000	      7956	800001d4	00000013	addi	x0,x0,0	  x0:0x00000000
       79585000	      7957	800001d8	2f4de713	ori	x14,x27,756	 x27:0x80009f84 x14=0x80009ff4
       79595000	      7958	800001dc	00618193	addi	x3,x3,6	  x3:0x00000007  x3=0x0000000d
       79605000	      7959	800001e0	41cdddb3	sra	x27,x27,x28	 x27:0x80009f84 x28:0x13b92000 x27=0x80009f84
       79615000	      7960	800001e4	01295a13	srli	x20,x18,0x12	 x18:0xffffffc7 x20=0x00003fff
       79625000	      7961	800001e8	7f220693	addi	x13,x4,2034	  x4:0x00000000 x13=0x000007f2
       79635000	      7962	800001ec	00c79eb3	sll	x29,x15,x12	 x15:0x80009fc4 x12:0x00002150 x29=0x9fc40000
       79645000	      7963	800001f0	fe91c4e3	blt	x3,x9,800001d8	  x3:0x0000000d  x9:0x0000000b
       79655000	      7964	800001f4	01915e33	srl	x28,x2,x25	  x2:0x00000002 x25:0x80045ff5 x28=0x00000000
       79665000	      7965	800001f8	00000013	addi	x0,x0,0	  x0:0x00000000
       79675000	      7966	800001fc	fbf10ee3	beq	x2,x31,800001b8	  x2:0x00000002 x31:0x0000000a
       79685000	      7967	80000200	91887713	andi	x14,x16,-1768	 x16:0x00000000 x14=0x00000000
       79695000	      7968	80000204	033c9263	bne	x25,x19,80000228	 x25:0x80045ff5 x19:0xffffdb44
       79705000	      7969	00000000	00000013	addi	x0,x0,0	  x0:0x00000000
       79715000	      7970	80000224	00000013	addi	x0,x0,0	  x0:0x00000000
       79725000	      7971	80000228	4007dfb3	sra	x31,x15,x0	 x15:0x80009fc4  x0:0x00000000 x31=0x80009fc4
       79735000	      7972	8000022c	011b1f13	slli	x30,x22,0x11	 x22:0x00000000 x30=0x00000000
       79745000	      7973	80000230	418f8bb3	sub	x23,x31,x24	 x31:0x80009fc4 x24:0x00000000 x23=0x80009fc4
       79755000	      7974	80000234	01e29193	slli	x3,x5,0x1e	  x5:0x80002e2c  x3=0x00000000
       79765000	      7975	80000238	01d8a833	slt	x16,x17,x29	 x17:0xc2ff9005 x29:0x9fc40000 x16=0x00000000
       79775000	      7976	8000023c	40a98cb3	sub	x25,x19,x10	 x19:0xffffdb44 x10:0xc4c7e1d0 x25=0x3b37f974
       79785000	      7977	80000240	017583b3	add	x7,x11,x23	 x11:0x09dc9000 x23:0x80009fc4  x7=0x89dd2fc4
       79795000	      7978	80000244	40c8d633	sra	x12,x17,x12	 x17:0xc2ff9005 x12:0x00002150 x12=0xffffc2ff
       79805000	      7979	80000248	00000b17	auipc	x22,0x0	 x22=0x80000244
       79815000	      7980	8000024c	00cb0b13	addi	x22,x22,12	 x22:0x80000244 x22=0x80000250
       79825000	      7981	80000250	000b0067	jalr	x0,x22,0	 x22:0x80000250
       79835000	      7982	00000000	00000013	addi	x0,x0,0	  x0:0x00000000
       79845000	      7983	80000250	00000013	addi	x0,x0,0	  x0:0x00000000
       79855000	      7984	80000254	00100193	addi	x3,x0,1	  x0:0x00000000  x3=0x00000001
       79865000	      7985	80000258	00000073	ecall	
       79875000	      7986	8000025c	fd0a8a93	addi	x21,x21,-48	 x21:0x80009f84 x21=0x80009f54
