		Time			Cycle	PC		Insn	Decoded instruction	Register and memory contents
          65000	         5	80000004	00000293	addi	x5,x0,0	  x0:0x00000000  x5=0x00000000
          75000	         6	80000008	00000313	addi	x6,x0,0	  x0:0x00000000  x6=0x00000000
          85000	         7	8000000c	00628263	beq	x5,x6,80000010	  x5:0x00000000  x6:0x00000000
          95000	         8	00000000	00000013	addi	x0,x0,0	  x0:0x00000000
         105000	         9	8000000c	00000013	addi	x0,x0,0	  x0:0x00000000
         115000	        10	80000010	00000f97	auipc	x31,0x0	 x31=0x8000000c
         125000	        11	80000014	00cf8f93	addi	x31,x31,12	 x31:0x8000000c x31=0x80000018
         135000	        12	80000018	000f8067	jalr	x0,x31,0	 x31:0x80000018
         145000	        13	00000000	00000013	addi	x0,x0,0	  x0:0x00000000
         155000	        14	80000018	00000013	addi	x0,x0,0	  x0:0x00000000
         165000	        15	8000001c	400002b7	lui	x5,0x40000	  x5=0x40000000
         175000	        16	80000020	10028293	addi	x5,x5,256	  x5:0x40000000  x5=0x40000100
         185000	        17	80000024	00000013	addi	x0,x0,0	  x0:0x00000000
         195000	        18	80000028	0000aa17	auipc	x20,0xa	 x20=0x8000a024
         205000	        19	8000002c	fa0a0a13	addi	x20,x20,-96	 x20:0x8000a024 x20=0x80009fc4
         215000	        20	80000030	00004297	auipc	x5,0x4	  x5=0x8000402c
         225000	        21	80000034	92428293	addi	x5,x5,-1756	  x5:0x8000402c  x5=0x80003950
         235000	        22	80000038	0012e293	ori	x5,x5,1	  x5:0x80003950  x5=0x80003951
         245000	        23	8000003c	00000013	addi	x0,x0,0	  x0:0x00000000
         255000	        24	80000040	00000297	auipc	x5,0x0	  x5=0x8000003c
         265000	        25	80000044	02028293	addi	x5,x5,32	  x5:0x8000003c  x5=0x8000005c
         275000	        26	80000048	00000013	addi	x0,x0,0	  x0:0x00000000
         285000	        27	8000004c	00000013	addi	x0,x0,0	  x0:0x00000000
         295000	        28	80000050	000022b7	lui	x5,0x2	  x5=0x00002000
         305000	        29	80000054	80028293	addi	x5,x5,-2048	  x5:0x00002000  x5=0x00001800
         315000	        30	80000058	00000013	addi	x0,x0,0	  x0:0x00000000
         325000	        31	8000005c	00000013	addi	x0,x0,0	  x0:0x00000000
         335000	        32	80000060	80000037	lui	x0,0x80000	
         345000	        33	80000064	00000013	addi	x0,x0,0	  x0:0x00000000
         355000	        34	80000068	f04160b7	lui	x1,0xf0416	  x1=0xf0416000
         365000	        35	8000006c	c0208093	addi	x1,x1,-1022	  x1:0xf0416000  x1=0xf0415c02
         375000	        36	80000070	ef39a137	lui	x2,0xef39a	  x2=0xef39a000
         385000	        37	80000074	9cb10113	addi	x2,x2,-1589	  x2:0xef39a000  x2=0xef3999cb
         395000	        38	80000078	00000193	addi	x3,x0,0	  x0:0x00000000  x3=0x00000000
         405000	        39	8000007c	00d00213	addi	x4,x0,13	  x0:0x00000000  x4=0x0000000d
         415000	        40	80000080	dfc502b7	lui	x5,0xdfc50	  x5=0xdfc50000
         425000	        41	80000084	ab828293	addi	x5,x5,-1352	  x5:0xdfc50000  x5=0xdfc4fab8
         435000	        42	80000088	00000313	addi	x6,x0,0	  x0:0x00000000  x6=0x00000000
         445000	        43	8000008c	dce203b7	lui	x7,0xdce20	  x7=0xdce20000
         455000	        44	80000090	2e338393	addi	x7,x7,739	  x7:0xdce20000  x7=0xdce202e3
         465000	        45	80000094	00800413	addi	x8,x0,8	  x0:0x00000000  x8=0x00000008
         475000	        46	80000098	800004b7	lui	x9,0x80000	  x9=0x80000000
         485000	        47	8000009c	00000513	addi	x10,x0,0	  x0:0x00000000 x10=0x00000000
         495000	        48	800000a0	00000593	addi	x11,x0,0	  x0:0x00000000 x11=0x00000000
         505000	        49	800000a4	00600613	addi	x12,x0,6	  x0:0x00000000 x12=0x00000006
         515000	        50	800000a8	00000693	addi	x13,x0,0	  x0:0x00000000 x13=0x00000000
         525000	        51	800000ac	00000713	addi	x14,x0,0	  x0:0x00000000 x14=0x00000000
         535000	        52	800000b0	00000793	addi	x15,x0,0	  x0:0x00000000 x15=0x00000000
         545000	        53	800000b4	f8765837	lui	x16,0xf8765	 x16=0xf8765000
         555000	        54	800000b8	21880813	addi	x16,x16,536	 x16:0xf8765000 x16=0xf8765218
         565000	        55	800000bc	00c00893	addi	x17,x0,12	  x0:0x00000000 x17=0x0000000c
         575000	        56	800000c0	00f00913	addi	x18,x0,15	  x0:0x00000000 x18=0x0000000f
         585000	        57	800000c4	00e00993	addi	x19,x0,14	  x0:0x00000000 x19=0x0000000e
         595000	        58	800000c8	80000ab7	lui	x21,0x80000	 x21=0x80000000
         605000	        59	800000cc	00000b13	addi	x22,x0,0	  x0:0x00000000 x22=0x00000000
         615000	        60	800000d0	3ec4ebb7	lui	x23,0x3ec4e	 x23=0x3ec4e000
         625000	        61	800000d4	418b8b93	addi	x23,x23,1048	 x23:0x3ec4e000 x23=0x3ec4e418
         635000	        62	800000d8	80000c37	lui	x24,0x80000	 x24=0x80000000
         645000	        63	800000dc	00900c93	addi	x25,x0,9	  x0:0x00000000 x25=0x00000009
         655000	        64	800000e0	00c00d13	addi	x26,x0,12	  x0:0x00000000 x26=0x0000000c
         665000	        65	800000e4	a2b43db7	lui	x27,0xa2b43	 x27=0xa2b43000
         675000	        66	800000e8	effd8d93	addi	x27,x27,-257	 x27:0xa2b43000 x27=0xa2b42eff
         685000	        67	800000ec	00000e93	addi	x29,x0,0	  x0:0x00000000 x29=0x00000000
         695000	        68	800000f0	00c00f13	addi	x30,x0,12	  x0:0x00000000 x30=0x0000000c
         705000	        69	800000f4	80000fb7	lui	x31,0x80000	 x31=0x80000000
         715000	        70	800000f8	0000ae17	auipc	x28,0xa	 x28=0x8000a0f4
         725000	        71	800000fc	e90e0e13	addi	x28,x28,-368	 x28:0x8000a0f4 x28=0x80009f84
         735000	        72	80000100	f03a0d13	addi	x26,x20,-253	 x20:0x80009fc4 x26=0x80009ec7
         745000	        73	80000104	01fc9613	slli	x12,x25,0x1f	 x25:0x00000009 x12=0x80000000
         755000	        74	80000108	00001897	auipc	x17,0x1	 x17=0x80001104
         765000	        75	8000010c	82c88893	addi	x17,x17,-2004	 x17:0x80001104 x17=0x80000930
         775000	        76	80000110	01471013	slli	x0,x14,0x14	 x14:0x00000000
         785000	        77	80000114	ee6c2013	slti	x0,x24,-282	 x24:0x80000000
         795000	        78	80000118	30288893	addi	x17,x17,770	 x17:0x80000930 x17=0x80000c32
         805000	        79	8000011c	5940f097	auipc	x1,0x5940f	  x1=0xd940f118
         815000	        80	80000120	cfe88d67	jalr	x26,x17,-770	 x17:0x80000c32 x26=0x80000120
         825000	        81	00000000	00000013	addi	x0,x0,0	  x0:0x00000000
         835000	        82	80000930	00000013	addi	x0,x0,0	  x0:0x00000000
         845000	        83	80000934	ca15b113	sltiu	x2,x11,-863	 x11:0x00000000  x2=0x00000001
         855000	        84	80000938	ff0e0e13	addi	x28,x28,-16	 x28:0x80009f84 x28=0x80009f74
         865000	        85	8000093c	9aa2e313	ori	x6,x5,-1622	  x5:0xdfc4fab8  x6=0xfffffbba
         875000	        86	80000940	01134633	xor	x12,x6,x17	  x6:0xfffffbba x17:0x80000c32 x12=0x7ffff788
         885000	        87	80000944	01ae2223	sw	x26,4(x28)	 x28:0x80009f74 x26:0x80000120 PA:0x80009f78
         895000	        88	80000948	b3aa7393	andi	x7,x20,-1222	 x20:0x80009fc4  x7=0x80009b00
         905000	        89	8000094c	7e03f813	andi	x16,x7,2016	  x7:0x80009b00 x16=0x00000300
         915000	        90	80000950	01b9bbb3	sltu	x23,x19,x27	 x19:0x0000000e x27:0xa2b42eff x23=0x00000001
         925000	        91	80000954	6eab8113	addi	x2,x23,1770	 x23:0x00000001  x2=0x000006eb
         935000	        92	80000958	015981b3	add	x3,x19,x21	 x19:0x0000000e x21:0x80000000  x3=0x8000000e
         945000	        93	8000095c	f463c213	xori	x4,x7,-186	  x7:0x80009b00  x4=0x7fff6446
         955000	        94	80000960	013c4133	xor	x2,x24,x19	 x24:0x80000000 x19:0x0000000e  x2=0x8000000e
         965000	        95	80000964	00801833	sll	x16,x0,x8	  x0:0x00000000  x8:0x00000008 x16=0x00000000
         975000	        96	80000968	01f02033	slt	x0,x0,x31	  x0:0x00000000 x31:0x80000000
         985000	        97	8000096c	51d00d6f	jal	x26,8000096c	 x26=0x8000096c
         995000	        98	00000000	00000013	addi	x0,x0,0	  x0:0x00000000
        1005000	        99	80001684	00000013	addi	x0,x0,0	  x0:0x00000000
        1015000	       100	80001688	01b56463	bltu	x10,x27,80001690	 x10:0x00000000 x27:0xa2b42eff
        1025000	       101	00000000	00000013	addi	x0,x0,0	  x0:0x00000000
        1035000	       102	8000168c	00000013	addi	x0,x0,0	  x0:0x00000000
        1045000	       103	80001690	fcce0e13	addi	x28,x28,-52	 x28:0x80009f74 x28=0x80009f40
        1055000	       104	80001694	010f00b3	add	x1,x30,x16	 x30:0x0000000c x16:0x00000000  x1=0x0000000c
        1065000	       105	80001698	005be8b3	or	x17,x23,x5	 x23:0x00000001  x5:0xdfc4fab8 x17=0xdfc4fab9
        1075000	       106	8000169c	01ae2223	sw	x26,4(x28)	 x28:0x80009f40 x26:0x8000096c PA:0x80009f44
        1085000	       107	800016a0	3d2a6093	ori	x1,x20,978	 x20:0x80009fc4  x1=0x80009fd6
        1095000	       108	800016a4	01d6b1b3	sltu	x3,x13,x29	 x13:0x00000000 x29:0x00000000  x3=0x00000000
        1105000	       109	800016a8	402dd133	sra	x2,x27,x2	 x27:0xa2b42eff  x2:0x8000000e  x2=0xfffe8ad0
        1115000	       110	800016ac	18d6e793	ori	x15,x13,397	 x13:0x00000000 x15=0x0000018d
        1125000	       111	800016b0	e8974693	xori	x13,x14,-375	 x14:0x00000000 x13=0xfffffe89
        1135000	       112	800016b4	dacc2a93	slti	x21,x24,-596	 x24:0x80000000 x21=0x00000001
        1145000	       113	800016b8	bcae0113	addi	x2,x28,-1078	 x28:0x80009f40  x2=0x80009b0a
        1155000	       114	800016bc	00000013	addi	x0,x0,0	  x0:0x00000000
        1165000	       115	800016c0	015ca0b3	slt	x1,x25,x21	 x25:0x00000009 x21:0x00000001  x1=0x00000000
        1175000	       116	800016c4	00000013	addi	x0,x0,0	  x0:0x00000000
        1185000	       117	800016c8	7c100d6f	jal	x26,800016c8	 x26=0x800016c8
        1195000	       118	00000000	00000013	addi	x0,x0,0	  x0:0x00000000
        1205000	       119	80002684	00000013	addi	x0,x0,0	  x0:0x00000000
        1215000	       120	80002688	fe0e0e13	addi	x28,x28,-32	 x28:0x80009f40 x28=0x80009f20
        1225000	       121	8000268c	01ed58b3	srl	x17,x26,x30	 x26:0x800016c8 x30:0x0000000c x17=0x00080001
        1235000	       122	80002690	01ae2223	sw	x26,4(x28)	 x28:0x80009f20 x26:0x800016c8 PA:0x80009f24
        1245000	       123	80002694	407ed733	sra	x14,x29,x7	 x29:0x00000000  x7:0x80009b00 x14=0x00000000
        1255000	       124	80002698	0af82b93	slti	x23,x16,175	 x16:0x00000000 x23=0x00000001
        1265000	       125	8000269c	00800893	addi	x17,x0,8	  x0:0x00000000 x17=0x00000008
        1275000	       126	800026a0	002ad013	srli	x0,x21,0x2	 x21:0x00000001
        1285000	       127	800026a4	00b27c33	and	x24,x4,x11	  x4:0x7fff6446 x11:0x00000000 x24=0x00000000
        1295000	       128	800026a8	01300793	addi	x15,x0,19	  x0:0x00000000 x15=0x00000013
        1305000	       129	800026ac	00000013	addi	x0,x0,0	  x0:0x00000000
        1315000	       130	800026b0	41190eb3	sub	x29,x18,x17	 x18:0x0000000f x17:0x00000008 x29=0x00000007
        1325000	       131	800026b4	00888893	addi	x17,x17,8	 x17:0x00000008 x17=0x00000010
        1335000	       132	800026b8	3e886313	ori	x6,x16,1000	 x16:0x00000000  x6=0x000003e8
        1345000	       133	800026bc	01729733	sll	x14,x5,x23	  x5:0xdfc4fab8 x23:0x00000001 x14=0xbf89f570
        1355000	       134	800026c0	00000293	addi	x5,x0,0	  x0:0x00000000  x5=0x00000000
        1365000	       135	800026c4	005f4633	xor	x12,x30,x5	 x30:0x0000000c  x5:0x00000000 x12=0x0000000c
        1375000	       136	800026c8	40075133	sra	x2,x14,x0	 x14:0xbf89f570  x0:0x00000000  x2=0xbf89f570
        1385000	       137	800026cc	fee00d93	addi	x27,x0,-18	  x0:0x00000000 x27=0xffffffee
        1395000	       138	800026d0	011093b3	sll	x7,x1,x17	  x1:0x00000000 x17:0x00000010  x7=0x00000000
        1405000	       139	800026d4	00000013	addi	x0,x0,0	  x0:0x00000000
        1415000	       140	800026d8	4103dab3	sra	x21,x7,x16	  x7:0x00000000 x16:0x00000000 x21=0x00000000
        1425000	       141	800026dc	009c1513	slli	x10,x24,0x9	 x24:0x00000000 x10=0x00000000
        1435000	       142	800026e0	7b2d6397	auipc	x7,0x7b2d6	  x7=0xfb2d86dc
        1445000	       143	800026e4	413c8c33	sub	x24,x25,x19	 x25:0x00000009 x19:0x0000000e x24=0xfffffffb
        1455000	       144	800026e8	01fd8ab3	add	x21,x27,x31	 x27:0xffffffee x31:0x80000000 x21=0x7fffffee
        1465000	       145	800026ec	0fbfbd13	sltiu	x26,x31,251	 x31:0x80000000 x26=0x00000000
        1475000	       146	800026f0	ff928293	addi	x5,x5,-7	  x5:0x00000000  x5=0xfffffff9
        1485000	       147	800026f4	d93f1017	auipc	x0,0xd93f1	
        1495000	       148	800026f8	fdb2dee3	bge	x5,x27,800026d4	  x5:0xfffffff9 x27:0xffffffee
        1505000	       149	00000000	00000013	addi	x0,x0,0	  x0:0x00000000
        1515000	       150	800026d0	00000013	addi	x0,x0,0	  x0:0x00000000
        1525000	       151	800026d4	00000013	addi	x0,x0,0	  x0:0x00000000
        1535000	       152	800026d8	4103dab3	sra	x21,x7,x16	  x7:0xfb2d86dc x16:0x00000000 x21=0xfb2d86dc
        1545000	       153	800026dc	009c1513	slli	x10,x24,0x9	 x24:0xfffffffb x10=0xfffff600
        1555000	       154	800026e0	7b2d6397	auipc	x7,0x7b2d6	  x7=0xfb2d86dc
        1565000	       155	800026e4	413c8c33	sub	x24,x25,x19	 x25:0x00000009 x19:0x0000000e x24=0xfffffffb
        1575000	       156	800026e8	01fd8ab3	add	x21,x27,x31	 x27:0xffffffee x31:0x80000000 x21=0x7fffffee
        1585000	       157	800026ec	0fbfbd13	sltiu	x26,x31,251	 x31:0x80000000 x26=0x00000000
        1595000	       158	800026f0	ff928293	addi	x5,x5,-7	  x5:0xfffffff9  x5=0xfffffff2
        1605000	       159	800026f4	d93f1017	auipc	x0,0xd93f1	
        1615000	       160	800026f8	fdb2dee3	bge	x5,x27,800026d4	  x5:0xfffffff2 x27:0xffffffee
        1625000	       161	00000000	00000013	addi	x0,x0,0	  x0:0x00000000
        1635000	       162	800026d0	00000013	addi	x0,x0,0	  x0:0x00000000
        1645000	       163	800026d4	00000013	addi	x0,x0,0	  x0:0x00000000
        1655000	       164	800026d8	4103dab3	sra	x21,x7,x16	  x7:0xfb2d86dc x16:0x00000000 x21=0xfb2d86dc
        1665000	       165	800026dc	009c1513	slli	x10,x24,0x9	 x24:0xfffffffb x10=0xfffff600
        1675000	       166	800026e0	7b2d6397	auipc	x7,0x7b2d6	  x7=0xfb2d86dc
        1685000	       167	800026e4	413c8c33	sub	x24,x25,x19	 x25:0x00000009 x19:0x0000000e x24=0xfffffffb
        1695000	       168	800026e8	01fd8ab3	add	x21,x27,x31	 x27:0xffffffee x31:0x80000000 x21=0x7fffffee
        1705000	       169	800026ec	0fbfbd13	sltiu	x26,x31,251	 x31:0x80000000 x26=0x00000000
        1715000	       170	800026f0	ff928293	addi	x5,x5,-7	  x5:0xfffffff2  x5=0xffffffeb
        1725000	       171	800026f4	d93f1017	auipc	x0,0xd93f1	
        1735000	       172	800026f8	fdb2dee3	bge	x5,x27,800026d4	  x5:0xffffffeb x27:0xffffffee
        1745000	       173	800026fc	41a18d33	sub	x26,x3,x26	  x3:0x00000000 x26:0x00000000 x26=0x00000000
        1755000	       174	80002700	3fcafb13	andi	x22,x21,1020	 x21:0x7fffffee x22=0x000003ec
        1765000	       175	80002704	faf8e4e3	bltu	x17,x15,800026ac	 x17:0x00000010 x15:0x00000013
        1775000	       176	00000000	00000013	addi	x0,x0,0	  x0:0x00000000
        1785000	       177	800026a8	00000013	addi	x0,x0,0	  x0:0x00000000
        1795000	       178	800026ac	00000013	addi	x0,x0,0	  x0:0x00000000
        1805000	       179	800026b0	41190eb3	sub	x29,x18,x17	 x18:0x0000000f x17:0x00000010 x29=0xffffffff
        1815000	       180	800026b4	00888893	addi	x17,x17,8	 x17:0x00000010 x17=0x00000018
        1825000	       181	800026b8	3e886313	ori	x6,x16,1000	 x16:0x00000000  x6=0x000003e8
        1835000	       182	800026bc	01729733	sll	x14,x5,x23	  x5:0xffffffeb x23:0x00000001 x14=0xffffffd6
        1845000	       183	800026c0	00000293	addi	x5,x0,0	  x0:0x00000000  x5=0x00000000
        1855000	       184	800026c4	005f4633	xor	x12,x30,x5	 x30:0x0000000c  x5:0x00000000 x12=0x0000000c
        1865000	       185	800026c8	40075133	sra	x2,x14,x0	 x14:0xffffffd6  x0:0x00000000  x2=0xffffffd6
        1875000	       186	800026cc	fee00d93	addi	x27,x0,-18	  x0:0x00000000 x27=0xffffffee
        1885000	       187	800026d0	011093b3	sll	x7,x1,x17	  x1:0x00000000 x17:0x00000018  x7=0x00000000
        1895000	       188	800026d4	00000013	addi	x0,x0,0	  x0:0x00000000
        1905000	       189	800026d8	4103dab3	sra	x21,x7,x16	  x7:0x00000000 x16:0x00000000 x21=0x00000000
        1915000	       190	800026dc	009c1513	slli	x10,x24,0x9	 x24:0xfffffffb x10=0xfffff600
        1925000	       191	800026e0	7b2d6397	auipc	x7,0x7b2d6	  x7=0xfb2d86dc
        1935000	       192	800026e4	413c8c33	sub	x24,x25,x19	 x25:0x00000009 x19:0x0000000e x24=0xfffffffb
        1945000	       193	800026e8	01fd8ab3	add	x21,x27,x31	 x27:0xffffffee x31:0x80000000 x21=0x7fffffee
        1955000	       194	800026ec	0fbfbd13	sltiu	x26,x31,251	 x31:0x80000000 x26=0x00000000
        1965000	       195	800026f0	ff928293	addi	x5,x5,-7	  x5:0x00000000  x5=0xfffffff9
        1975000	       196	800026f4	d93f1017	auipc	x0,0xd93f1	
        1985000	       197	800026f8	fdb2dee3	bge	x5,x27,800026d4	  x5:0xfffffff9 x27:0xffffffee
        1995000	       198	00000000	00000013	addi	x0,x0,0	  x0:0x00000000
        2005000	       199	800026d0	00000013	addi	x0,x0,0	  x0:0x00000000
        2015000	       200	800026d4	00000013	addi	x0,x0,0	  x0:0x00000000
        2025000	       201	800026d8	4103dab3	sra	x21,x7,x16	  x7:0xfb2d86dc x16:0x00000000 x21=0xfb2d86dc
        2035000	       202	800026dc	009c1513	slli	x10,x24,0x9	 x24:0xfffffffb x10=0xfffff600
        2045000	       203	800026e0	7b2d6397	auipc	x7,0x7b2d6	  x7=0xfb2d86dc
        2055000	       204	800026e4	413c8c33	sub	x24,x25,x19	 x25:0x00000009 x19:0x0000000e x24=0xfffffffb
        2065000	       205	800026e8	01fd8ab3	add	x21,x27,x31	 x27:0xffffffee x31:0x80000000 x21=0x7fffffee
        2075000	       206	800026ec	0fbfbd13	sltiu	x26,x31,251	 x31:0x80000000 x26=0x00000000
        2085000	       207	800026f0	ff928293	addi	x5,x5,-7	  x5:0xfffffff9  x5=0xfffffff2
        2095000	       208	800026f4	d93f1017	auipc	x0,0xd93f1	
        2105000	       209	800026f8	fdb2dee3	bge	x5,x27,800026d4	  x5:0xfffffff2 x27:0xffffffee
        2115000	       210	00000000	00000013	addi	x0,x0,0	  x0:0x00000000
        2125000	       211	800026d0	00000013	addi	x0,x0,0	  x0:0x00000000
        2135000	       212	800026d4	00000013	addi	x0,x0,0	  x0:0x00000000
        2145000	       213	800026d8	4103dab3	sra	x21,x7,x16	  x7:0xfb2d86dc x16:0x00000000 x21=0xfb2d86dc
        2155000	       214	800026dc	009c1513	slli	x10,x24,0x9	 x24:0xfffffffb x10=0xfffff600
        2165000	       215	800026e0	7b2d6397	auipc	x7,0x7b2d6	  x7=0xfb2d86dc
        2175000	       216	800026e4	413c8c33	sub	x24,x25,x19	 x25:0x00000009 x19:0x0000000e x24=0xfffffffb
        2185000	       217	800026e8	01fd8ab3	add	x21,x27,x31	 x27:0xffffffee x31:0x80000000 x21=0x7fffffee
        2195000	       218	800026ec	0fbfbd13	sltiu	x26,x31,251	 x31:0x80000000 x26=0x00000000
        2205000	       219	800026f0	ff928293	addi	x5,x5,-7	  x5:0xfffffff2  x5=0xffffffeb
        2215000	       220	800026f4	d93f1017	auipc	x0,0xd93f1	
        2225000	       221	800026f8	fdb2dee3	bge	x5,x27,800026d4	  x5:0xffffffeb x27:0xffffffee
        2235000	       222	800026fc	41a18d33	sub	x26,x3,x26	  x3:0x00000000 x26:0x00000000 x26=0x00000000
        2245000	       223	80002700	3fcafb13	andi	x22,x21,1020	 x21:0x7fffffee x22=0x000003ec
        2255000	       224	80002704	faf8e4e3	bltu	x17,x15,800026ac	 x17:0x00000018 x15:0x00000013
        2265000	       225	80002708	b99c2693	slti	x13,x24,-1127	 x24:0xfffffffb x13=0x00000000
        2275000	       226	8000270c	00700793	addi	x15,x0,7	  x0:0x00000000 x15=0x00000007
        2285000	       227	80002710	ffd00993	addi	x19,x0,-3	  x0:0x00000000 x19=0xfffffffd
        2295000	       228	80002714	7e26e697	auipc	x13,0x7e26e	 x13=0xfe270710
        2305000	       229	80002718	ff678793	addi	x15,x15,-10	 x15:0x00000007 x15=0xfffffffd
        2315000	       230	8000271c	ff379ce3	bne	x15,x19,80002714	 x15:0xfffffffd x19:0xfffffffd
        2325000	       231	80002720	014d4433	xor	x8,x26,x20	 x26:0x00000000 x20:0x80009fc4  x8=0x80009fc4
        2335000	       232	80002724	ff800c93	addi	x25,x0,-8	  x0:0x00000000 x25=0xfffffff8
        2345000	       233	80002728	48f12c13	slti	x24,x2,1167	  x2:0xffffffd6 x24=0x00000001
        2355000	       234	8000272c	00500993	addi	x19,x0,5	  x0:0x00000000 x19=0x00000005
        2365000	       235	80002730	8cb46a97	auipc	x21,0x8cb46	 x21=0x0cb4872c
        2375000	       236	80002734	005c8c93	addi	x25,x25,5	 x25:0xfffffff8 x25=0xfffffffd
        2385000	       237	80002738	ffc00d13	addi	x26,x0,-4	  x0:0x00000000 x26=0xfffffffc
        2395000	       238	8000273c	aca73513	sltiu	x10,x14,-1334	 x14:0xffffffd6 x10=0x00000000
        2405000	       239	80002740	fff00b13	addi	x22,x0,-1	  x0:0x00000000 x22=0xffffffff
        2415000	       240	80002744	5765cc13	xori	x24,x11,1398	 x11:0x00000000 x24=0x00000576
        2425000	       241	80002748	002d0d13	addi	x26,x26,2	 x26:0xfffffffc x26=0xfffffffe
        2435000	       242	8000274c	00615713	srli	x14,x2,0x6	  x2:0xffffffd6 x14=0x03ffffff
        2445000	       243	80002750	ff6d4ae3	blt	x26,x22,80002744	 x26:0xfffffffe x22:0xffffffff
        2455000	       244	00000000	00000013	addi	x0,x0,0	  x0:0x00000000
        2465000	       245	80002740	00000013	addi	x0,x0,0	  x0:0x00000000
        2475000	       246	80002744	5765cc13	xori	x24,x11,1398	 x11:0x00000000 x24=0x00000576
        2485000	       247	80002748	002d0d13	addi	x26,x26,2	 x26:0xfffffffe x26=0x00000000
        2495000	       248	8000274c	00615713	srli	x14,x2,0x6	  x2:0xffffffd6 x14=0x03ffffff
        2505000	       249	80002750	ff6d4ae3	blt	x26,x22,80002744	 x26:0x00000000 x22:0xffffffff
        2515000	       250	80002754	fd3ceee3	bltu	x25,x19,80002730	 x25:0xfffffffd x19:0x00000005
        2525000	       251	80002758	7ada76b7	lui	x13,0x7ada7	 x13=0x7ada7000
        2535000	       252	8000275c	00100c13	addi	x24,x0,1	  x0:0x00000000 x24=0x00000001
        2545000	       253	80002760	403a8033	sub	x0,x21,x3	 x21:0x0cb4872c  x3:0x00000000
        2555000	       254	80002764	9714e213	ori	x4,x9,-1679	  x9:0x80000000  x4=0xfffff971
        2565000	       255	80002768	01300c93	addi	x25,x0,19	  x0:0x00000000 x25=0x00000013
        2575000	       256	8000276c	00fca0b3	slt	x1,x25,x15	 x25:0x00000013 x15:0xfffffffd  x1=0x00000000
        2585000	       257	80002770	7a984813	xori	x16,x16,1961	 x16:0x00000000 x16=0x000007a9
        2595000	       258	80002774	28b16413	ori	x8,x2,651	  x2:0xffffffd6  x8=0xffffffdf
        2605000	       259	80002778	011480b3	add	x1,x9,x17	  x9:0x80000000 x17:0x00000018  x1=0x80000018
        2615000	       260	8000277c	006c0c13	addi	x24,x24,6	 x24:0x00000001 x24=0x00000007
        2625000	       261	80002780	00000013	addi	x0,x0,0	  x0:0x00000000
        2635000	       262	80002784	01a5a833	slt	x16,x11,x26	 x11:0x00000000 x26:0x00000000 x16=0x00000000
        2645000	       263	80002788	ff900d13	addi	x26,x0,-7	  x0:0x00000000 x26=0xfffffff9
        2655000	       264	8000278c	ff300513	addi	x10,x0,-13	  x0:0x00000000 x10=0xfffffff3
        2665000	       265	80002790	00a8b333	sltu	x6,x17,x10	 x17:0x00000018 x10:0xfffffff3  x6=0x00000001
        2675000	       266	80002794	002c07b3	add	x15,x24,x2	 x24:0x00000007  x2:0xffffffd6 x15=0xffffffdd
        2685000	       267	80002798	00000013	addi	x0,x0,0	  x0:0x00000000
        2695000	       268	8000279c	19d70413	addi	x8,x14,413	 x14:0x03ffffff  x8=0x0400019c
        2705000	       269	800027a0	ffed0d13	addi	x26,x26,-2	 x26:0xfffffff9 x26=0xfffffff7
        2715000	       270	800027a4	46459717	auipc	x14,0x46459	 x14=0xc645b7a0
        2725000	       271	800027a8	fead5ae3	bge	x26,x10,8000279c	 x26:0xfffffff7 x10:0xfffffff3
        2735000	       272	00000000	00000013	addi	x0,x0,0	  x0:0x00000000
        2745000	       273	80002798	00000013	addi	x0,x0,0	  x0:0x00000000
        2755000	       274	8000279c	19d70413	addi	x8,x14,413	 x14:0xc645b7a0  x8=0xc645b93d
        2765000	       275	800027a0	ffed0d13	addi	x26,x26,-2	 x26:0xfffffff7 x26=0xfffffff5
        2775000	       276	800027a4	46459717	auipc	x14,0x46459	 x14=0xc645b7a0
        2785000	       277	800027a8	fead5ae3	bge	x26,x10,8000279c	 x26:0xfffffff5 x10:0xfffffff3
        2795000	       278	00000000	00000013	addi	x0,x0,0	  x0:0x00000000
        2805000	       279	80002798	00000013	addi	x0,x0,0	  x0:0x00000000
        2815000	       280	8000279c	19d70413	addi	x8,x14,413	 x14:0xc645b7a0  x8=0xc645b93d
        2825000	       281	800027a0	ffed0d13	addi	x26,x26,-2	 x26:0xfffffff5 x26=0xfffffff3
        2835000	       282	800027a4	46459717	auipc	x14,0x46459	 x14=0xc645b7a0
        2845000	       283	800027a8	fead5ae3	bge	x26,x10,8000279c	 x26:0xfffffff3 x10:0xfffffff3
        2855000	       284	00000000	00000013	addi	x0,x0,0	  x0:0x00000000
        2865000	       285	80002798	00000013	addi	x0,x0,0	  x0:0x00000000
        2875000	       286	8000279c	19d70413	addi	x8,x14,413	 x14:0xc645b7a0  x8=0xc645b93d
        2885000	       287	800027a0	ffed0d13	addi	x26,x26,-2	 x26:0xfffffff3 x26=0xfffffff1
        2895000	       288	800027a4	46459717	auipc	x14,0x46459	 x14=0xc645b7a0
        2905000	       289	800027a8	fead5ae3	bge	x26,x10,8000279c	 x26:0xfffffff1 x10:0xfffffff3
        2915000	       290	800027ac	02870093	addi	x1,x14,40	 x14:0xc645b7a0  x1=0xc645b7c8
        2925000	       291	800027b0	fd9c00e3	beq	x24,x25,80002770	 x24:0x00000007 x25:0x00000013
        2935000	       292	800027b4	70026e93	ori	x29,x4,1792	  x4:0xfffff971 x29=0xffffff71
        2945000	       293	800027b8	00700413	addi	x8,x0,7	  x0:0x00000000  x8=0x00000007
        2955000	       294	800027bc	51c58693	addi	x13,x11,1308	 x11:0x00000000 x13=0x0000051c
        2965000	       295	800027c0	fbd8e013	ori	x0,x17,-67	 x17:0x00000018
        2975000	       296	800027c4	124e8993	addi	x19,x29,292	 x29:0xffffff71 x19=0x00000095
        2985000	       297	800027c8	9286c993	xori	x19,x13,-1752	 x13:0x0000051c x19=0xfffffc34
        2995000	       298	800027cc	00000013	addi	x0,x0,0	  x0:0x00000000
        3005000	       299	800027d0	fec00e93	addi	x29,x0,-20	  x0:0x00000000 x29=0xffffffec
        3015000	       300	800027d4	00dfcc33	xor	x24,x31,x13	 x31:0x80000000 x13:0x0000051c x24=0x8000051c
        3025000	       301	800027d8	01f0e833	or	x16,x1,x31	  x1:0xc645b7c8 x31:0x80000000 x16=0xc645b7c8
        3035000	       302	800027dc	d1e5cf13	xori	x30,x11,-738	 x11:0x00000000 x30=0xfffffd1e
        3045000	       303	800027e0	405b06b3	sub	x13,x22,x5	 x22:0xffffffff  x5:0xffffffeb x13=0x00000014
        3055000	       304	800027e4	ffd40413	addi	x8,x8,-3	  x8:0x00000007  x8=0x00000004
        3065000	       305	800027e8	01c07133	and	x2,x0,x28	  x0:0x00000000 x28:0x80009f20  x2=0x00000000
        3075000	       306	800027ec	b9e8c913	xori	x18,x17,-1122	 x17:0x00000018 x18=0xfffffb86
        3085000	       307	800027f0	b581c313	xori	x6,x3,-1192	  x3:0x00000000  x6=0xfffffb58
        3095000	       308	800027f4	009b3933	sltu	x18,x22,x9	 x22:0xffffffff  x9:0x80000000 x18=0x00000000
        3105000	       309	800027f8	0094ed33	or	x26,x9,x9	  x9:0x80000000  x9:0x80000000 x26=0x80000000
        3115000	       310	800027fc	6745bb93	sltiu	x23,x11,1652	 x11:0x00000000 x23=0x00000001
        3125000	       311	80002800	008cddb3	srl	x27,x25,x8	 x25:0x00000013  x8:0x00000004 x27=0x00000001
        3135000	       312	80002804	01ba3cb3	sltu	x25,x20,x27	 x20:0x80009fc4 x27:0x00000001 x25=0x00000000
        3145000	       313	80002808	fdd406e3	beq	x8,x29,800027d4	  x8:0x00000004 x29:0xffffffec
        3155000	       314	8000280c	003a5b33	srl	x22,x20,x3	 x20:0x80009fc4  x3:0x00000000 x22=0x80009fc4
        3165000	       315	80002810	00a00e93	addi	x29,x0,10	  x0:0x00000000 x29=0x0000000a
        3175000	       316	80002814	01531693	slli	x13,x6,0x15	  x6:0xfffffb58 x13=0x6b000000
        3185000	       317	80002818	0053dc93	srli	x25,x7,0x5	  x7:0xfb2d86dc x25=0x07d96c36
        3195000	       318	8000281c	007805b3	add	x11,x16,x7	 x16:0xc645b7c8  x7:0xfb2d86dc x11=0xc1733ea4
        3205000	       319	80002820	e9cf4b13	xori	x22,x30,-356	 x30:0xfffffd1e x22=0x00000382
        3215000	       320	80002824	ff400c13	addi	x24,x0,-12	  x0:0x00000000 x24=0xfffffff4
        3225000	       321	80002828	4196d113	srai	x2,x13,0x19	 x13:0x6b000000  x2=0x00000035
        3235000	       322	8000282c	671ce193	ori	x3,x25,1649	 x25:0x07d96c36  x3=0x07d96e77
        3245000	       323	80002830	40ad00b3	sub	x1,x26,x10	 x26:0x80000000 x10:0xfffffff3  x1=0x8000000d
        3255000	       324	80002834	41ead833	sra	x16,x21,x30	 x21:0x0cb4872c x30:0xfffffd1e x16=0x00000000
        3265000	       325	80002838	017f98b3	sll	x17,x31,x23	 x31:0x80000000 x23:0x00000001 x17=0x00000000
        3275000	       326	8000283c	ff8e8e93	addi	x29,x29,-8	 x29:0x0000000a x29=0x00000002
        3285000	       327	80002840	ffa00a93	addi	x21,x0,-6	  x0:0x00000000 x21=0xfffffffa
        3295000	       328	80002844	f06f3d13	sltiu	x26,x30,-250	 x30:0xfffffd1e x26=0x00000001
        3305000	       329	80002848	d9c8c313	xori	x6,x17,-612	 x17:0x00000000  x6=0xfffffd9c
        3315000	       330	8000284c	40f55733	sra	x14,x10,x15	 x10:0xfffffff3 x15:0xffffffdd x14=0xffffffff
        3325000	       331	80002850	1f75c093	xori	x1,x11,503	 x11:0xc1733ea4  x1=0xc1733f53
        3335000	       332	80002854	1e5ac993	xori	x19,x21,485	 x21:0xfffffffa x19=0xfffffe1f
        3345000	       333	80002858	00b250b3	srl	x1,x4,x11	  x4:0xfffff971 x11:0xc1733ea4  x1=0x0fffff97
        3355000	       334	8000285c	00000613	addi	x12,x0,0	  x0:0x00000000 x12=0x00000000
        3365000	       335	80002860	4141d233	sra	x4,x3,x20	  x3:0x07d96e77 x20:0x80009fc4  x4=0x007d96e7
        3375000	       336	80002864	4a357813	andi	x16,x10,1187	 x10:0xfffffff3 x16=0x000004a3
        3385000	       337	80002868	70d61c97	auipc	x25,0x70d61	 x25=0xf0d63864
        3395000	       338	8000286c	01ba5693	srli	x13,x20,0x1b	 x20:0x80009fc4 x13=0x00000010
        3405000	       339	80002870	009a8a93	addi	x21,x21,9	 x21:0xfffffffa x21=0x00000003
        3415000	       340	80002874	000823b3	slt	x7,x16,x0	 x16:0x000004a3  x0:0x00000000  x7=0x00000000
        3425000	       341	80002878	fecac8e3	blt	x21,x12,80002868	 x21:0x00000003 x12:0x00000000
        3435000	       342	8000287c	e5df8193	addi	x3,x31,-419	 x31:0x80000000  x3=0x7ffffe5d
        3445000	       343	80002880	00abd693	srli	x13,x23,0xa	 x23:0x00000001 x13=0x00000000
        3455000	       344	80002884	017cd3b3	srl	x7,x25,x23	 x25:0xf0d63864 x23:0x00000001  x7=0x786b1c32
        3465000	       345	80002888	00c788b3	add	x17,x15,x12	 x15:0xffffffdd x12:0x00000000 x17=0xffffffdd
        3475000	       346	8000288c	fb8ed0e3	bge	x29,x24,8000282c	 x29:0x00000002 x24:0xfffffff4
        3485000	       347	00000000	00000013	addi	x0,x0,0	  x0:0x00000000
        3495000	       348	80002828	00000013	addi	x0,x0,0	  x0:0x00000000
        3505000	       349	8000282c	671ce193	ori	x3,x25,1649	 x25:0xf0d63864  x3=0xf0d63e75
        3515000	       350	80002830	40ad00b3	sub	x1,x26,x10	 x26:0x00000001 x10:0xfffffff3  x1=0x0000000e
        3525000	       351	80002834	41ead833	sra	x16,x21,x30	 x21:0x00000003 x30:0xfffffd1e x16=0x00000000
        3535000	       352	80002838	017f98b3	sll	x17,x31,x23	 x31:0x80000000 x23:0x00000001 x17=0x00000000
        3545000	       353	8000283c	ff8e8e93	addi	x29,x29,-8	 x29:0x00000002 x29=0xfffffffa
        3555000	       354	80002840	ffa00a93	addi	x21,x0,-6	  x0:0x00000000 x21=0xfffffffa
        3565000	       355	80002844	f06f3d13	sltiu	x26,x30,-250	 x30:0xfffffd1e x26=0x00000001
        3575000	       356	80002848	d9c8c313	xori	x6,x17,-612	 x17:0x00000000  x6=0xfffffd9c
        3585000	       357	8000284c	40f55733	sra	x14,x10,x15	 x10:0xfffffff3 x15:0xffffffdd x14=0xffffffff
        3595000	       358	80002850	1f75c093	xori	x1,x11,503	 x11:0xc1733ea4  x1=0xc1733f53
        3605000	       359	80002854	1e5ac993	xori	x19,x21,485	 x21:0xfffffffa x19=0xfffffe1f
        3615000	       360	80002858	00b250b3	srl	x1,x4,x11	  x4:0x007d96e7 x11:0xc1733ea4  x1=0x0007d96e
        3625000	       361	8000285c	00000613	addi	x12,x0,0	  x0:0x00000000 x12=0x00000000
        3635000	       362	80002860	4141d233	sra	x4,x3,x20	  x3:0xf0d63e75 x20:0x80009fc4  x4=0xff0d63e7
        3645000	       363	80002864	4a357813	andi	x16,x10,1187	 x10:0xfffffff3 x16=0x000004a3
        3655000	       364	80002868	70d61c97	auipc	x25,0x70d61	 x25=0xf0d63864
        3665000	       365	8000286c	01ba5693	srli	x13,x20,0x1b	 x20:0x80009fc4 x13=0x00000010
        3675000	       366	80002870	009a8a93	addi	x21,x21,9	 x21:0xfffffffa x21=0x00000003
        3685000	       367	80002874	000823b3	slt	x7,x16,x0	 x16:0x000004a3  x0:0x00000000  x7=0x00000000
        3695000	       368	80002878	fecac8e3	blt	x21,x12,80002868	 x21:0x00000003 x12:0x00000000
        3705000	       369	8000287c	e5df8193	addi	x3,x31,-419	 x31:0x80000000  x3=0x7ffffe5d
        3715000	       370	80002880	00abd693	srli	x13,x23,0xa	 x23:0x00000001 x13=0x00000000
        3725000	       371	80002884	017cd3b3	srl	x7,x25,x23	 x25:0xf0d63864 x23:0x00000001  x7=0x786b1c32
        3735000	       372	80002888	00c788b3	add	x17,x15,x12	 x15:0xffffffdd x12:0x00000000 x17=0xffffffdd
        3745000	       373	8000288c	fb8ed0e3	bge	x29,x24,8000282c	 x29:0xfffffffa x24:0xfffffff4
        3755000	       374	00000000	00000013	addi	x0,x0,0	  x0:0x00000000
        3765000	       375	80002828	00000013	addi	x0,x0,0	  x0:0x00000000
        3775000	       376	8000282c	671ce193	ori	x3,x25,1649	 x25:0xf0d63864  x3=0xf0d63e75
        3785000	       377	80002830	40ad00b3	sub	x1,x26,x10	 x26:0x00000001 x10:0xfffffff3  x1=0x0000000e
        3795000	       378	80002834	41ead833	sra	x16,x21,x30	 x21:0x00000003 x30:0xfffffd1e x16=0x00000000
        3805000	       379	80002838	017f98b3	sll	x17,x31,x23	 x31:0x80000000 x23:0x00000001 x17=0x00000000
        3815000	       380	8000283c	ff8e8e93	addi	x29,x29,-8	 x29:0xfffffffa x29=0xfffffff2
        3825000	       381	80002840	ffa00a93	addi	x21,x0,-6	  x0:0x00000000 x21=0xfffffffa
        3835000	       382	80002844	f06f3d13	sltiu	x26,x30,-250	 x30:0xfffffd1e x26=0x00000001
        3845000	       383	80002848	d9c8c313	xori	x6,x17,-612	 x17:0x00000000  x6=0xfffffd9c
        3855000	       384	8000284c	40f55733	sra	x14,x10,x15	 x10:0xfffffff3 x15:0xffffffdd x14=0xffffffff
        3865000	       385	80002850	1f75c093	xori	x1,x11,503	 x11:0xc1733ea4  x1=0xc1733f53
        3875000	       386	80002854	1e5ac993	xori	x19,x21,485	 x21:0xfffffffa x19=0xfffffe1f
        3885000	       387	80002858	00b250b3	srl	x1,x4,x11	  x4:0xff0d63e7 x11:0xc1733ea4  x1=0x0ff0d63e
        3895000	       388	8000285c	00000613	addi	x12,x0,0	  x0:0x00000000 x12=0x00000000
        3905000	       389	80002860	4141d233	sra	x4,x3,x20	  x3:0xf0d63e75 x20:0x80009fc4  x4=0xff0d63e7
        3915000	       390	80002864	4a357813	andi	x16,x10,1187	 x10:0xfffffff3 x16=0x000004a3
        3925000	       391	80002868	70d61c97	auipc	x25,0x70d61	 x25=0xf0d63864
        3935000	       392	8000286c	01ba5693	srli	x13,x20,0x1b	 x20:0x80009fc4 x13=0x00000010
        3945000	       393	80002870	009a8a93	addi	x21,x21,9	 x21:0xfffffffa x21=0x00000003
        3955000	       394	80002874	000823b3	slt	x7,x16,x0	 x16:0x000004a3  x0:0x00000000  x7=0x00000000
        3965000	       395	80002878	fecac8e3	blt	x21,x12,80002868	 x21:0x00000003 x12:0x00000000
        3975000	       396	8000287c	e5df8193	addi	x3,x31,-419	 x31:0x80000000  x3=0x7ffffe5d
        3985000	       397	80002880	00abd693	srli	x13,x23,0xa	 x23:0x00000001 x13=0x00000000
        3995000	       398	80002884	017cd3b3	srl	x7,x25,x23	 x25:0xf0d63864 x23:0x00000001  x7=0x786b1c32
        4005000	       399	80002888	00c788b3	add	x17,x15,x12	 x15:0xffffffdd x12:0x00000000 x17=0xffffffdd
        4015000	       400	8000288c	fb8ed0e3	bge	x29,x24,8000282c	 x29:0xfffffff2 x24:0xfffffff4
        4025000	       401	80002890	01429b33	sll	x22,x5,x20	  x5:0xffffffeb x20:0x80009fc4 x22=0xfffffeb0
        4035000	       402	80002894	00a00493	addi	x9,x0,10	  x0:0x00000000  x9=0x0000000a
        4045000	       403	80002898	00a00113	addi	x2,x0,10	  x0:0x00000000  x2=0x0000000a
        4055000	       404	8000289c	014068b3	or	x17,x0,x20	  x0:0x00000000 x20:0x80009fc4 x17=0x80009fc4
        4065000	       405	800028a0	01c0cc33	xor	x24,x1,x28	  x1:0x0ff0d63e x28:0x80009f20 x24=0x8ff0491e
        4075000	       406	800028a4	01d9e8b3	or	x17,x19,x29	 x19:0xfffffe1f x29:0xfffffff2 x17=0xffffffff
        4085000	       407	800028a8	ff848493	addi	x9,x9,-8	  x9:0x0000000a  x9=0x00000002
        4095000	       408	800028ac	00700d93	addi	x27,x0,7	  x0:0x00000000 x27=0x00000007
        4105000	       409	800028b0	00b00e93	addi	x29,x0,11	  x0:0x00000000 x29=0x0000000b
        4115000	       410	800028b4	00ea88b3	add	x17,x21,x14	 x21:0x00000003 x14:0xffffffff x17=0x00000002
        4125000	       411	800028b8	01abe933	or	x18,x23,x26	 x23:0x00000001 x26:0x00000001 x18=0x00000001
        4135000	       412	800028bc	b4b1a413	slti	x8,x3,-1205	  x3:0x7ffffe5d  x8=0x00000000
        4145000	       413	800028c0	005c3ab3	sltu	x21,x24,x5	 x24:0x8ff0491e  x5:0xffffffeb x21=0x00000001
        4155000	       414	800028c4	004d8d93	addi	x27,x27,4	 x27:0x00000007 x27=0x0000000b
        4165000	       415	800028c8	ffdd96e3	bne	x27,x29,800028b4	 x27:0x0000000b x29:0x0000000b
        4175000	       416	800028cc	40bf0cb3	sub	x25,x30,x11	 x30:0xfffffd1e x11:0xc1733ea4 x25=0x3e8cbe7a
        4185000	       417	800028d0	009a77b3	and	x15,x20,x9	 x20:0x80009fc4  x9:0x00000002 x15=0x00000000
        4195000	       418	800028d4	00236233	or	x4,x6,x2	  x6:0xfffffd9c  x2:0x0000000a  x4=0xfffffd9e
        4205000	       419	800028d8	ec702013	slti	x0,x0,-313	  x0:0x00000000
        4215000	       420	800028dc	fc24f2e3	bgeu	x9,x2,800028a0	  x9:0x00000002  x2:0x0000000a
        4225000	       421	800028e0	01af9c33	sll	x24,x31,x26	 x31:0x80000000 x26:0x00000001 x24=0x00000000
        4235000	       422	800028e4	00a00113	addi	x2,x0,10	  x0:0x00000000  x2=0x0000000a
        4245000	       423	800028e8	01100093	addi	x1,x0,17	  x0:0x00000000  x1=0x00000011
        4255000	       424	800028ec	0075e8b3	or	x17,x11,x7	 x11:0xc1733ea4  x7:0x786b1c32 x17=0xf97b3eb6
        4265000	       425	800028f0	01d85a93	srli	x21,x16,0x1d	 x16:0x000004a3 x21=0x00000000
        4275000	       426	800028f4	00110113	addi	x2,x2,1	  x2:0x0000000a  x2=0x0000000b
        4285000	       427	800028f8	fe111ae3	bne	x2,x1,800028ec	  x2:0x0000000b  x1:0x00000011
        4295000	       428	00000000	00000013	addi	x0,x0,0	  x0:0x00000000
        4305000	       429	800028e8	00000013	addi	x0,x0,0	  x0:0x00000000
        4315000	       430	800028ec	0075e8b3	or	x17,x11,x7	 x11:0xc1733ea4  x7:0x786b1c32 x17=0xf97b3eb6
        4325000	       431	800028f0	01d85a93	srli	x21,x16,0x1d	 x16:0x000004a3 x21=0x00000000
        4335000	       432	800028f4	00110113	addi	x2,x2,1	  x2:0x0000000b  x2=0x0000000c
        4345000	       433	800028f8	fe111ae3	bne	x2,x1,800028ec	  x2:0x0000000c  x1:0x00000011
        4355000	       434	00000000	00000013	addi	x0,x0,0	  x0:0x00000000
        4365000	       435	800028e8	00000013	addi	x0,x0,0	  x0:0x00000000
        4375000	       436	800028ec	0075e8b3	or	x17,x11,x7	 x11:0xc1733ea4  x7:0x786b1c32 x17=0xf97b3eb6
        4385000	       437	800028f0	01d85a93	srli	x21,x16,0x1d	 x16:0x000004a3 x21=0x00000000
        4395000	       438	800028f4	00110113	addi	x2,x2,1	  x2:0x0000000c  x2=0x0000000d
        4405000	       439	800028f8	fe111ae3	bne	x2,x1,800028ec	  x2:0x0000000d  x1:0x00000011
        4415000	       440	00000000	00000013	addi	x0,x0,0	  x0:0x00000000
        4425000	       441	800028e8	00000013	addi	x0,x0,0	  x0:0x00000000
        4435000	       442	800028ec	0075e8b3	or	x17,x11,x7	 x11:0xc1733ea4  x7:0x786b1c32 x17=0xf97b3eb6
        4445000	       443	800028f0	01d85a93	srli	x21,x16,0x1d	 x16:0x000004a3 x21=0x00000000
        4455000	       444	800028f4	00110113	addi	x2,x2,1	  x2:0x0000000d  x2=0x0000000e
        4465000	       445	800028f8	fe111ae3	bne	x2,x1,800028ec	  x2:0x0000000e  x1:0x00000011
        4475000	       446	00000000	00000013	addi	x0,x0,0	  x0:0x00000000
        4485000	       447	800028e8	00000013	addi	x0,x0,0	  x0:0x00000000
        4495000	       448	800028ec	0075e8b3	or	x17,x11,x7	 x11:0xc1733ea4  x7:0x786b1c32 x17=0xf97b3eb6
        4505000	       449	800028f0	01d85a93	srli	x21,x16,0x1d	 x16:0x000004a3 x21=0x00000000
        4515000	       450	800028f4	00110113	addi	x2,x2,1	  x2:0x0000000e  x2=0x0000000f
        4525000	       451	800028f8	fe111ae3	bne	x2,x1,800028ec	  x2:0x0000000f  x1:0x00000011
        4535000	       452	00000000	00000013	addi	x0,x0,0	  x0:0x00000000
        4545000	       453	800028e8	00000013	addi	x0,x0,0	  x0:0x00000000
        4555000	       454	800028ec	0075e8b3	or	x17,x11,x7	 x11:0xc1733ea4  x7:0x786b1c32 x17=0xf97b3eb6
        4565000	       455	800028f0	01d85a93	srli	x21,x16,0x1d	 x16:0x000004a3 x21=0x00000000
        4575000	       456	800028f4	00110113	addi	x2,x2,1	  x2:0x0000000f  x2=0x00000010
        4585000	       457	800028f8	fe111ae3	bne	x2,x1,800028ec	  x2:0x00000010  x1:0x00000011
        4595000	       458	00000000	00000013	addi	x0,x0,0	  x0:0x00000000
        4605000	       459	800028e8	00000013	addi	x0,x0,0	  x0:0x00000000
        4615000	       460	800028ec	0075e8b3	or	x17,x11,x7	 x11:0xc1733ea4  x7:0x786b1c32 x17=0xf97b3eb6
        4625000	       461	800028f0	01d85a93	srli	x21,x16,0x1d	 x16:0x000004a3 x21=0x00000000
        4635000	       462	800028f4	00110113	addi	x2,x2,1	  x2:0x00000010  x2=0x00000011
        4645000	       463	800028f8	fe111ae3	bne	x2,x1,800028ec	  x2:0x00000011  x1:0x00000011
        4655000	       464	800028fc	001fa533	slt	x10,x31,x1	 x31:0x80000000  x1:0x00000011 x10=0x00000001
        4665000	       465	80002900	a0f77913	andi	x18,x14,-1521	 x14:0xffffffff x18=0xfffffa0f
        4675000	       466	80002904	01d1f263	bgeu	x3,x29,80002908	  x3:0x7ffffe5d x29:0x0000000b
        4685000	       467	00000000	00000013	addi	x0,x0,0	  x0:0x00000000
        4695000	       468	80002904	00000013	addi	x0,x0,0	  x0:0x00000000
        4705000	       469	80002908	cbf0bc93	sltiu	x25,x1,-833	  x1:0x00000011 x25=0x00000001
        4715000	       470	8000290c	009c6b33	or	x22,x24,x9	 x24:0x00000000  x9:0x00000002 x22=0x00000002
        4725000	       471	80002910	00ac8663	beq	x25,x10,8000291c	 x25:0x00000001 x10:0x00000001
        4735000	       472	00000000	00000013	addi	x0,x0,0	  x0:0x00000000
        4745000	       473	80002918	00000013	addi	x0,x0,0	  x0:0x00000000
        4755000	       474	8000291c	01589733	sll	x14,x17,x21	 x17:0xf97b3eb6 x21:0x00000000 x14=0xf97b3eb6
        4765000	       475	80002920	00236263	bltu	x6,x2,80002924	  x6:0xfffffd9c  x2:0x00000011
        4775000	       476	80002924	04d08063	beq	x1,x13,80002964	  x1:0x00000011 x13:0x00000000
        4785000	       477	80002928	00377c33	and	x24,x14,x3	 x14:0xf97b3eb6  x3:0x7ffffe5d x24=0x797b3e14
        4795000	       478	8000292c	0488e263	bltu	x17,x8,80002970	 x17:0xf97b3eb6  x8:0x00000000
        4805000	       479	80002930	01d41e93	slli	x29,x8,0x1d	  x8:0x00000000 x29=0x00000000
        4815000	       480	80002934	da736393	ori	x7,x6,-601	  x6:0xfffffd9c  x7=0xfffffdbf
        4825000	       481	80002938	5947b517	auipc	x10,0x5947b	 x10=0xd947d934
        4835000	       482	8000293c	73cc4613	xori	x12,x24,1852	 x24:0x797b3e14 x12=0x797b3928
        4845000	       483	80002940	01ea1c63	bne	x20,x30,80002958	 x20:0x80009fc4 x30:0xfffffd1e
        4855000	       484	00000000	00000013	addi	x0,x0,0	  x0:0x00000000
        4865000	       485	80002954	00000013	addi	x0,x0,0	  x0:0x00000000
        4875000	       486	80002958	c299bb93	sltiu	x23,x19,-983	 x19:0xfffffe1f x23=0x00000000
        4885000	       487	8000295c	0042f463	bgeu	x5,x4,80002964	  x5:0xffffffeb  x4:0xfffffd9e
        4895000	       488	00000000	00000013	addi	x0,x0,0	  x0:0x00000000
        4905000	       489	80002960	00000013	addi	x0,x0,0	  x0:0x00000000
        4915000	       490	80002964	012a4db3	xor	x27,x20,x18	 x20:0x80009fc4 x18:0xfffffa0f x27=0x7fff65cb
        4925000	       491	80002968	c4840093	addi	x1,x8,-952	  x8:0x00000000  x1=0xfffffc48
        4935000	       492	8000296c	70ceaf13	slti	x30,x29,1804	 x29:0x00000000 x30=0x00000001
        4945000	       493	80002970	00000013	addi	x0,x0,0	  x0:0x00000000
        4955000	       494	80002974	69bb3213	sltiu	x4,x22,1691	 x22:0x00000002  x4=0x00000001
        4965000	       495	80002978	40ee01b3	sub	x3,x28,x14	 x28:0x80009f20 x14:0xf97b3eb6  x3=0x8685606a
        4975000	       496	8000297c	04b81863	bne	x16,x11,800029cc	 x16:0x000004a3 x11:0xc1733ea4
        4985000	       497	00000000	00000013	addi	x0,x0,0	  x0:0x00000000
        4995000	       498	800029c8	00000013	addi	x0,x0,0	  x0:0x00000000
        5005000	       499	800029cc	66300917	auipc	x18,0x66300	 x18=0xe63029c8
        5015000	       500	800029d0	231be713	ori	x14,x23,561	 x23:0x00000000 x14=0x00000231
        5025000	       501	800029d4	01dac463	blt	x21,x29,800029dc	 x21:0x00000000 x29:0x00000000
        5035000	       502	800029d8	03db8063	beq	x23,x29,800029f8	 x23:0x00000000 x29:0x00000000
        5045000	       503	00000000	00000013	addi	x0,x0,0	  x0:0x00000000
        5055000	       504	800029f4	00000013	addi	x0,x0,0	  x0:0x00000000
        5065000	       505	800029f8	9f56cb93	xori	x23,x13,-1547	 x13:0x00000000 x23=0xfffff9f5
        5075000	       506	800029fc	3884b013	sltiu	x0,x9,904	  x9:0x00000002
        5085000	       507	80002a00	00a5cdb3	xor	x27,x11,x10	 x11:0xc1733ea4 x10:0xd947d934 x27=0x1834e790
        5095000	       508	80002a04	39203793	sltiu	x15,x0,914	  x0:0x00000000 x15=0x00000001
        5105000	       509	80002a08	0013f663	bgeu	x7,x1,80002a14	  x7:0xfffffdbf  x1:0xfffffc48
        5115000	       510	00000000	00000013	addi	x0,x0,0	  x0:0x00000000
        5125000	       511	80002a10	00000013	addi	x0,x0,0	  x0:0x00000000
        5135000	       512	80002a14	03a66463	bltu	x12,x26,80002a3c	 x12:0x797b3928 x26:0x00000001
        5145000	       513	80002a18	417354b3	sra	x9,x6,x23	  x6:0xfffffd9c x23:0xfffff9f5  x9=0xffffffff
        5155000	       514	80002a1c	01168d33	add	x26,x13,x17	 x13:0x00000000 x17:0xf97b3eb6 x26=0xf97b3eb6
        5165000	       515	80002a20	01e04733	xor	x14,x0,x30	  x0:0x00000000 x30:0x00000001 x14=0x00000001
        5175000	       516	80002a24	01994a63	blt	x18,x25,80002a38	 x18:0xe63029c8 x25:0x00000001
        5185000	       517	00000000	00000013	addi	x0,x0,0	  x0:0x00000000
        5195000	       518	80002a34	00000013	addi	x0,x0,0	  x0:0x00000000
        5205000	       519	80002a38	914f0013	addi	x0,x30,-1772	 x30:0x00000001
        5215000	       520	80002a3c	013551b3	srl	x3,x10,x19	 x10:0xd947d934 x19:0xfffffe1f  x3=0x00000001
        5225000	       521	80002a40	00000013	addi	x0,x0,0	  x0:0x00000000
        5235000	       522	80002a44	02d88663	beq	x17,x13,80002a70	 x17:0xf97b3eb6 x13:0x00000000
        5245000	       523	80002a48	4c2f6513	ori	x10,x30,1218	 x30:0x00000001 x10=0x000004c3
        5255000	       524	80002a4c	005761b3	or	x3,x14,x5	 x14:0x00000001  x5:0xffffffeb  x3=0xffffffeb
        5265000	       525	80002a50	02af1c63	bne	x30,x10,80002a88	 x30:0x00000001 x10:0x000004c3
        5275000	       526	00000000	00000013	addi	x0,x0,0	  x0:0x00000000
        5285000	       527	80002a84	00000013	addi	x0,x0,0	  x0:0x00000000
        5295000	       528	80002a88	01f91d93	slli	x27,x18,0x1f	 x18:0xe63029c8 x27=0x00000000
        5305000	       529	80002a8c	6cb88813	addi	x16,x17,1739	 x17:0xf97b3eb6 x16=0xf97b4581
        5315000	       530	80002a90	d49dbd13	sltiu	x26,x27,-695	 x27:0x00000000 x26=0x00000001
        5325000	       531	80002a94	ff4d2813	slti	x16,x26,-12	 x26:0x00000001 x16=0x00000000
        5335000	       532	80002a98	0f3e6013	ori	x0,x28,243	 x28:0x80009f20
        5345000	       533	80002a9c	5bede013	ori	x0,x27,1470	 x27:0x00000000
        5355000	       534	80002aa0	3f2ffc93	andi	x25,x31,1010	 x31:0x80000000 x25=0x00000000
        5365000	       535	80002aa4	00bd25b3	slt	x11,x26,x11	 x26:0x00000001 x11:0xc1733ea4 x11=0x00000000
        5375000	       536	80002aa8	00878433	add	x8,x15,x8	 x15:0x00000001  x8:0x00000000  x8=0x00000001
        5385000	       537	80002aac	0119a233	slt	x4,x19,x17	 x19:0xfffffe1f x17:0xf97b3eb6  x4=0x00000000
        5395000	       538	80002ab0	00b45413	srli	x8,x8,0xb	  x8:0x00000001  x8=0x00000000
        5405000	       539	80002ab4	000034b3	sltu	x9,x0,x0	  x0:0x00000000  x0:0x00000000  x9=0x00000000
        5415000	       540	80002ab8	0084ec33	or	x24,x9,x8	  x9:0x00000000  x8:0x00000000 x24=0x00000000
        5425000	       541	80002abc	012ddc13	srli	x24,x27,0x12	 x27:0x00000000 x24=0x00000000
        5435000	       542	80002ac0	4109d813	srai	x16,x19,0x10	 x19:0xfffffe1f x16=0xffffffff
        5445000	       543	80002ac4	02a54863	blt	x10,x10,80002af4	 x10:0x000004c3 x10:0x000004c3
        5455000	       544	80002ac8	01037663	bgeu	x6,x16,80002ad4	  x6:0xfffffd9c x16:0xffffffff
        5465000	       545	80002acc	01206cb3	or	x25,x0,x18	  x0:0x00000000 x18:0xe63029c8 x25=0xe63029c8
        5475000	       546	80002ad0	e065f393	andi	x7,x11,-506	 x11:0x00000000  x7=0x00000000
        5485000	       547	80002ad4	01074d33	xor	x26,x14,x16	 x14:0x00000001 x16:0xffffffff x26=0xfffffffe
        5495000	       548	80002ad8	01d3ca63	blt	x7,x29,80002aec	  x7:0x00000000 x29:0x00000000
        5505000	       549	80002adc	00000013	addi	x0,x0,0	  x0:0x00000000
        5515000	       550	80002ae0	014a9663	bne	x21,x20,80002aec	 x21:0x00000000 x20:0x80009fc4
        5525000	       551	00000000	00000013	addi	x0,x0,0	  x0:0x00000000
        5535000	       552	80002ae8	00000013	addi	x0,x0,0	  x0:0x00000000
        5545000	       553	80002aec	00325033	srl	x0,x4,x3	  x4:0x00000000  x3:0xffffffeb
        5555000	       554	80002af0	73a44a93	xori	x21,x8,1850	  x8:0x00000000 x21=0x0000073a
        5565000	       555	80002af4	4d6ac413	xori	x8,x21,1238	 x21:0x0000073a  x8=0x000003ec
        5575000	       556	80002af8	04da1063	bne	x20,x13,80002b38	 x20:0x80009fc4 x13:0x00000000
        5585000	       557	00000000	00000013	addi	x0,x0,0	  x0:0x00000000
        5595000	       558	80002b34	00000013	addi	x0,x0,0	  x0:0x00000000
        5605000	       559	80002b38	00df5a63	bge	x30,x13,80002b4c	 x30:0x00000001 x13:0x00000000
        5615000	       560	00000000	00000013	addi	x0,x0,0	  x0:0x00000000
        5625000	       561	80002b48	00000013	addi	x0,x0,0	  x0:0x00000000
        5635000	       562	80002b4c	00517663	bgeu	x2,x5,80002b58	  x2:0x00000011  x5:0xffffffeb
        5645000	       563	80002b50	0112c233	xor	x4,x5,x17	  x5:0xffffffeb x17:0xf97b3eb6  x4=0x0684c15d
        5655000	       564	80002b54	003eb333	sltu	x6,x29,x3	 x29:0x00000000  x3:0xffffffeb  x6=0x00000001
        5665000	       565	80002b58	0134e133	or	x2,x9,x19	  x9:0x00000000 x19:0xfffffe1f  x2=0xfffffe1f
        5675000	       566	80002b5c	413a8133	sub	x2,x21,x19	 x21:0x0000073a x19:0xfffffe1f  x2=0x0000091b
        5685000	       567	80002b60	012bd593	srli	x11,x23,0x12	 x23:0xfffff9f5 x11=0x00003fff
        5695000	       568	80002b64	00948d33	add	x26,x9,x9	  x9:0x00000000  x9:0x00000000 x26=0x00000000
        5705000	       569	80002b68	01770cb3	add	x25,x14,x23	 x14:0x00000001 x23:0xfffff9f5 x25=0xfffff9f6
        5715000	       570	80002b6c	01266433	or	x8,x12,x18	 x12:0x797b3928 x18:0xe63029c8  x8=0xff7b39e8
        5725000	       571	80002b70	400d8f33	sub	x30,x27,x0	 x27:0x00000000  x0:0x00000000 x30=0x00000000
        5735000	       572	80002b74	0110db93	srli	x23,x1,0x11	  x1:0xfffffc48 x23=0x00007fff
        5745000	       573	80002b78	001ce333	or	x6,x25,x1	 x25:0xfffff9f6  x1:0xfffffc48  x6=0xfffffdfe
        5755000	       574	80002b7c	00b7b4b3	sltu	x9,x15,x11	 x15:0x00000001 x11:0x00003fff  x9=0x00000001
        5765000	       575	80002b80	00ed1463	bne	x26,x14,80002b88	 x26:0x00000000 x14:0x00000001
        5775000	       576	00000000	00000013	addi	x0,x0,0	  x0:0x00000000
        5785000	       577	80002b84	00000013	addi	x0,x0,0	  x0:0x00000000
        5795000	       578	80002b88	418a0c33	sub	x24,x20,x24	 x20:0x80009fc4 x24:0x00000000 x24=0x80009fc4
        5805000	       579	80002b8c	04a29863	bne	x5,x10,80002bdc	  x5:0xffffffeb x10:0x000004c3
        5815000	       580	00000000	00000013	addi	x0,x0,0	  x0:0x00000000
        5825000	       581	80002bd8	00000013	addi	x0,x0,0	  x0:0x00000000
        5835000	       582	80002bdc	01147833	and	x16,x8,x17	  x8:0xff7b39e8 x17:0xf97b3eb6 x16=0xf97b38a0
        5845000	       583	80002be0	03cd9463	bne	x27,x28,80002c08	 x27:0x00000000 x28:0x80009f20
        5855000	       584	00000000	00000013	addi	x0,x0,0	  x0:0x00000000
        5865000	       585	80002c04	00000013	addi	x0,x0,0	  x0:0x00000000
        5875000	       586	80002c08	001ead33	slt	x26,x29,x1	 x29:0x00000000  x1:0xfffffc48 x26=0x00000000
        5885000	       587	80002c0c	03220063	beq	x4,x18,80002c2c	  x4:0x0684c15d x18:0xe63029c8
        5895000	       588	80002c10	00114f33	xor	x30,x2,x1	  x2:0x0000091b  x1:0xfffffc48 x30=0xfffff553
        5905000	       589	80002c14	0a2b6213	ori	x4,x22,162	 x22:0x00000002  x4=0x000000a2
        5915000	       590	80002c18	00e41133	sll	x2,x8,x14	  x8:0xff7b39e8 x14:0x00000001  x2=0xfef673d0
        5925000	       591	80002c1c	431b8393	addi	x7,x23,1073	 x23:0x00007fff  x7=0x00008430
        5935000	       592	80002c20	40468db3	sub	x27,x13,x4	 x13:0x00000000  x4:0x000000a2 x27=0xffffff5e
        5945000	       593	80002c24	00c861b3	or	x3,x16,x12	 x16:0xf97b38a0 x12:0x797b3928  x3=0xf97b39a8
        5955000	       594	80002c28	7700ec17	auipc	x24,0x7700e	 x24=0xf7010c24
        5965000	       595	80002c2c	01765713	srli	x14,x12,0x17	 x12:0x797b3928 x14=0x000000f2
        5975000	       596	80002c30	013d17b3	sll	x15,x26,x19	 x26:0x00000000 x19:0xfffffe1f x15=0x00000000
        5985000	       597	80002c34	db3c4f13	xori	x30,x24,-589	 x24:0xf7010c24 x30=0x08fef197
        5995000	       598	80002c38	405058b3	sra	x17,x0,x5	  x0:0x00000000  x5:0xffffffeb x17=0x00000000
        6005000	       599	80002c3c	41105133	sra	x2,x0,x17	  x0:0x00000000 x17:0x00000000  x2=0x00000000
        6015000	       600	80002c40	012e38b3	sltu	x17,x28,x18	 x28:0x80009f20 x18:0xe63029c8 x17=0x00000001
        6025000	       601	80002c44	9a5d4193	xori	x3,x26,-1627	 x26:0x00000000  x3=0xfffff9a5
        6035000	       602	80002c48	0180ca63	blt	x1,x24,80002c5c	  x1:0xfffffc48 x24:0xf7010c24
        6045000	       603	80002c4c	dc5df117	auipc	x2,0xdc5df	  x2=0x5c5e1c48
        6055000	       604	80002c50	010ebf33	sltu	x30,x29,x16	 x29:0x00000000 x16:0xf97b38a0 x30=0x00000001
        6065000	       605	80002c54	41478c33	sub	x24,x15,x20	 x15:0x00000000 x20:0x80009fc4 x24=0x7fff603c
        6075000	       606	80002c58	4109dbb3	sra	x23,x19,x16	 x19:0xfffffe1f x16:0xf97b38a0 x23=0xfffffe1f
        6085000	       607	80002c5c	00000013	addi	x0,x0,0	  x0:0x00000000
        6095000	       608	80002c60	01985d93	srli	x27,x16,0x19	 x16:0xf97b38a0 x27=0x0000007c
        6105000	       609	80002c64	00000013	addi	x0,x0,0	  x0:0x00000000
        6115000	       610	80002c68	f254a693	slti	x13,x9,-219	  x9:0x00000001 x13=0x00000000
        6125000	       611	80002c6c	00909263	bne	x1,x9,80002c70	  x1:0xfffffc48  x9:0x00000001
        6135000	       612	00000000	00000013	addi	x0,x0,0	  x0:0x00000000
        6145000	       613	80002c6c	00000013	addi	x0,x0,0	  x0:0x00000000
        6155000	       614	80002c70	02bd5e63	bge	x26,x11,80002cac	 x26:0x00000000 x11:0x00003fff
        6165000	       615	80002c74	a29cf513	andi	x10,x25,-1495	 x25:0xfffff9f6 x10=0xfffff820
        6175000	       616	80002c78	0310dc63	bge	x1,x17,80002cb0	  x1:0xfffffc48 x17:0x00000001
        6185000	       617	80002c7c	013421b3	slt	x3,x8,x19	  x8:0xff7b39e8 x19:0xfffffe1f  x3=0x00000001
        6195000	       618	80002c80	00e00463	beq	x0,x14,80002c88	  x0:0x00000000 x14:0x000000f2
        6205000	       619	80002c84	7c920413	addi	x8,x4,1993	  x4:0x000000a2  x8=0x0000086b
        6215000	       620	80002c88	011212b3	sll	x5,x4,x17	  x4:0x000000a2 x17:0x00000001  x5=0x00000144
        6225000	       621	80002c8c	0118fd33	and	x26,x17,x17	 x17:0x00000001 x17:0x00000001 x26=0x00000001
        6235000	       622	80002c90	4101d8b3	sra	x17,x3,x16	  x3:0x00000001 x16:0xf97b38a0 x17=0x00000001
        6245000	       623	80002c94	1836bd93	sltiu	x27,x13,387	 x13:0x00000000 x27=0x00000001
        6255000	       624	80002c98	00ecddb3	srl	x27,x25,x14	 x25:0xfffff9f6 x14:0x000000f2 x27=0x00003fff
        6265000	       625	80002c9c	000cb5b3	sltu	x11,x25,x0	 x25:0xfffff9f6  x0:0x00000000 x11=0x00000000
        6275000	       626	80002ca0	77395817	auipc	x16,0x77395	 x16=0xf7397c9c
        6285000	       627	80002ca4	007f4f33	xor	x30,x30,x7	 x30:0x00000001  x7:0x00008430 x30=0x00008431
        6295000	       628	80002ca8	54e3bd13	sltiu	x26,x7,1358	  x7:0x00008430 x26=0x00000000
        6305000	       629	80002cac	0155d013	srli	x0,x11,0x15	 x11:0x00000000
        6315000	       630	80002cb0	a4a57713	andi	x14,x10,-1462	 x10:0xfffff820 x14=0xfffff800
        6325000	       631	80002cb4	dcad3793	sltiu	x15,x26,-566	 x26:0x00000000 x15=0x00000001
        6335000	       632	80002cb8	2a550693	addi	x13,x10,677	 x10:0xfffff820 x13=0xfffffac5
        6345000	       633	80002cbc	01f51d33	sll	x26,x10,x31	 x10:0xfffff820 x31:0x80000000 x26=0xfffff820
        6355000	       634	80002cc0	019e1513	slli	x10,x28,0x19	 x28:0x80009f20 x10=0x40000000
        6365000	       635	80002cc4	dbb72413	slti	x8,x14,-581	 x14:0xfffff800  x8=0x00000001
        6375000	       636	80002cc8	01de3333	sltu	x6,x28,x29	 x28:0x80009f20 x29:0x00000000  x6=0x00000000
        6385000	       637	80002ccc	9828ab13	slti	x22,x17,-1662	 x17:0x00000001 x22=0x00000000
        6395000	       638	80002cd0	01b74263	blt	x14,x27,80002cd4	 x14:0xfffff800 x27:0x00003fff
        6405000	       639	00000000	00000013	addi	x0,x0,0	  x0:0x00000000
        6415000	       640	80002cd0	00000013	addi	x0,x0,0	  x0:0x00000000
        6425000	       641	80002cd4	6d38c537	lui	x10,0x6d38c	 x10=0x6d38c000
        6435000	       642	80002cd8	b6538293	addi	x5,x7,-1179	  x7:0x00008430  x5=0x00007f95
        6445000	       643	80002cdc	011f8133	add	x2,x31,x17	 x31:0x80000000 x17:0x00000001  x2=0x80000001
        6455000	       644	80002ce0	00431f13	slli	x30,x6,0x4	  x6:0x00000000 x30=0x00000000
        6465000	       645	80002ce4	0031c633	xor	x12,x3,x3	  x3:0x00000001  x3:0x00000001 x12=0x00000000
        6475000	       646	80002ce8	01edf033	and	x0,x27,x30	 x27:0x00003fff x30:0x00000000
        6485000	       647	80002cec	b5730093	addi	x1,x6,-1193	  x6:0x00000000  x1=0xfffffb57
        6495000	       648	80002cf0	41ee8eb3	sub	x29,x29,x30	 x29:0x00000000 x30:0x00000000 x29=0x00000000
        6505000	       649	80002cf4	02935063	bge	x6,x9,80002d14	  x6:0x00000000  x9:0x00000001
        6515000	       650	80002cf8	5129f513	andi	x10,x19,1298	 x19:0xfffffe1f x10=0x00000412
        6525000	       651	80002cfc	021b0a63	beq	x22,x1,80002d30	 x22:0x00000000  x1:0xfffffb57
        6535000	       652	80002d00	0a753c13	sltiu	x24,x10,167	 x10:0x00000412 x24=0x00000000
        6545000	       653	80002d04	c754b513	sltiu	x10,x9,-907	  x9:0x00000001 x10=0x00000001
        6555000	       654	80002d08	009cec33	or	x24,x25,x9	 x25:0xfffff9f6  x9:0x00000001 x24=0xfffff9f7
        6565000	       655	80002d0c	00529663	bne	x5,x5,80002d18	  x5:0x00007f95  x5:0x00007f95
        6575000	       656	80002d10	4aa12613	slti	x12,x2,1194	  x2:0x80000001 x12=0x00000001
        6585000	       657	80002d14	00704333	xor	x6,x0,x7	  x0:0x00000000  x7:0x00008430  x6=0x00008430
        6595000	       658	80002d18	e8117a93	andi	x21,x2,-383	  x2:0x80000001 x21=0x80000001
        6605000	       659	80002d1c	287aee93	ori	x29,x21,647	 x21:0x80000001 x29=0x80000287
        6615000	       660	80002d20	4cc68d13	addi	x26,x13,1228	 x13:0xfffffac5 x26=0xffffff91
        6625000	       661	80002d24	00bda8b3	slt	x17,x27,x11	 x27:0x00003fff x11:0x00000000 x17=0x00000000
        6635000	       662	80002d28	41cad033	sra	x0,x21,x28	 x21:0x80000001 x28:0x80009f20
        6645000	       663	80002d2c	01b15663	bge	x2,x27,80002d38	  x2:0x80000001 x27:0x00003fff
        6655000	       664	80002d30	57322437	lui	x8,0x57322	  x8=0x57322000
        6665000	       665	80002d34	00000013	addi	x0,x0,0	  x0:0x00000000
        6675000	       666	80002d38	00bd6433	or	x8,x26,x11	 x26:0xffffff91 x11:0x00000000  x8=0xffffff91
        6685000	       667	80002d3c	faa7b313	sltiu	x6,x15,-86	 x15:0x00000001  x6=0x00000001
        6695000	       668	80002d40	0183d133	srl	x2,x7,x24	  x7:0x00008430 x24:0xfffff9f7  x2=0x00000000
        6705000	       669	80002d44	00d8ea63	bltu	x17,x13,80002d58	 x17:0x00000000 x13:0xfffffac5
        6715000	       670	00000000	00000013	addi	x0,x0,0	  x0:0x00000000
        6725000	       671	80002d54	00000013	addi	x0,x0,0	  x0:0x00000000
        6735000	       672	80002d58	039d7063	bgeu	x26,x25,80002d78	 x26:0xffffff91 x25:0xfffff9f6
        6745000	       673	00000000	00000013	addi	x0,x0,0	  x0:0x00000000
        6755000	       674	80002d74	00000013	addi	x0,x0,0	  x0:0x00000000
        6765000	       675	80002d78	0107b533	sltu	x10,x15,x16	 x15:0x00000001 x16:0xf7397c9c x10=0x00000001
        6775000	       676	80002d7c	012be3b3	or	x7,x23,x18	 x23:0xfffffe1f x18:0xe63029c8  x7=0xffffffdf
        6785000	       677	80002d80	036f5c63	bge	x30,x22,80002db8	 x30:0x00000000 x22:0x00000000
        6795000	       678	00000000	00000013	addi	x0,x0,0	  x0:0x00000000
        6805000	       679	80002db4	00000013	addi	x0,x0,0	  x0:0x00000000
        6815000	       680	80002db8	00f6bc33	sltu	x24,x13,x15	 x13:0xfffffac5 x15:0x00000001 x24=0x00000000
        6825000	       681	80002dbc	00000013	addi	x0,x0,0	  x0:0x00000000
        6835000	       682	80002dc0	0370da63	bge	x1,x23,80002df4	  x1:0xfffffb57 x23:0xfffffe1f
        6845000	       683	80002dc4	00760c63	beq	x12,x7,80002ddc	 x12:0x00000001  x7:0xffffffdf
        6855000	       684	80002dc8	0050a333	slt	x6,x1,x5	  x1:0xfffffb57  x5:0x00007f95  x6=0x00000001
        6865000	       685	80002dcc	049ad063	bge	x21,x9,80002e0c	 x21:0x80000001  x9:0x00000001
        6875000	       686	80002dd0	404c8733	sub	x14,x25,x4	 x25:0xfffff9f6  x4:0x000000a2 x14=0xfffff954
        6885000	       687	80002dd4	00000013	addi	x0,x0,0	  x0:0x00000000
        6895000	       688	80002dd8	068d0c93	addi	x25,x26,104	 x26:0xffffff91 x25=0xfffffff9
        6905000	       689	80002ddc	41f455b3	sra	x11,x8,x31	  x8:0xffffff91 x31:0x80000000 x11=0xffffff91
        6915000	       690	80002de0	34b0f913	andi	x18,x1,843	  x1:0xfffffb57 x18=0x00000343
        6925000	       691	80002de4	01154663	blt	x10,x17,80002df0	 x10:0x00000001 x17:0x00000000
        6935000	       692	80002de8	1178c013	xori	x0,x17,279	 x17:0x00000000
        6945000	       693	80002dec	df4cff13	andi	x30,x25,-524	 x25:0xfffffff9 x30=0xfffffdf0
        6955000	       694	80002df0	017b5e63	bge	x22,x23,80002e0c	 x22:0x00000000 x23:0xfffffe1f
        6965000	       695	00000000	00000013	addi	x0,x0,0	  x0:0x00000000
        6975000	       696	80002e08	00000013	addi	x0,x0,0	  x0:0x00000000
        6985000	       697	80002e0c	00c89cb3	sll	x25,x17,x12	 x17:0x00000000 x12:0x00000001 x25=0x00000000
        6995000	       698	80002e10	030d5063	bge	x26,x16,80002e30	 x26:0xffffff91 x16:0xf7397c9c
        7005000	       699	00000000	00000013	addi	x0,x0,0	  x0:0x00000000
        7015000	       700	80002e2c	00000013	addi	x0,x0,0	  x0:0x00000000
        7025000	       701	80002e30	000097b3	sll	x15,x1,x0	  x1:0xfffffb57  x0:0x00000000 x15=0xfffffb57
        7035000	       702	80002e34	41d00433	sub	x8,x0,x29	  x0:0x00000000 x29:0x80000287  x8=0x7ffffd79
        7045000	       703	80002e38	014e4c63	blt	x28,x20,80002e50	 x28:0x80009f20 x20:0x80009fc4
        7055000	       704	00000000	00000013	addi	x0,x0,0	  x0:0x00000000
        7065000	       705	80002e4c	00000013	addi	x0,x0,0	  x0:0x00000000
        7075000	       706	80002e50	00000013	addi	x0,x0,0	  x0:0x00000000
        7085000	       707	80002e54	1b5dc613	xori	x12,x27,437	 x27:0x00003fff x12=0x00003e4a
        7095000	       708	80002e58	033c5e63	bge	x24,x19,80002e94	 x24:0x00000000 x19:0xfffffe1f
        7105000	       709	00000000	00000013	addi	x0,x0,0	  x0:0x00000000
        7115000	       710	80002e90	00000013	addi	x0,x0,0	  x0:0x00000000
        7125000	       711	80002e94	009b6533	or	x10,x22,x9	 x22:0x00000000  x9:0x00000001 x10=0x00000001
        7135000	       712	80002e98	05498863	beq	x19,x20,80002ee8	 x19:0xfffffe1f x20:0x80009fc4
        7145000	       713	80002e9c	019de633	or	x12,x27,x25	 x27:0x00003fff x25:0x00000000 x12=0x00003fff
        7155000	       714	80002ea0	01ae3433	sltu	x8,x28,x26	 x28:0x80009f20 x26:0xffffff91  x8=0x00000001
        7165000	       715	80002ea4	008de8b3	or	x17,x27,x8	 x27:0x00003fff  x8:0x00000001 x17=0x00003fff
        7175000	       716	80002ea8	039fe863	bltu	x31,x25,80002ed8	 x31:0x80000000 x25:0x00000000
        7185000	       717	80002eac	00000013	addi	x0,x0,0	  x0:0x00000000
        7195000	       718	80002eb0	40b55313	srai	x6,x10,0xb	 x10:0x00000001  x6=0x00000000
        7205000	       719	80002eb4	00000013	addi	x0,x0,0	  x0:0x00000000
        7215000	       720	80002eb8	00dcca63	blt	x25,x13,80002ecc	 x25:0x00000000 x13:0xfffffac5
        7225000	       721	80002ebc	00000013	addi	x0,x0,0	  x0:0x00000000
        7235000	       722	80002ec0	0034fcb3	and	x25,x9,x3	  x9:0x00000001  x3:0x00000001 x25=0x00000001
        7245000	       723	80002ec4	0136d533	srl	x10,x13,x19	 x13:0xfffffac5 x19:0xfffffe1f x10=0x00000001
        7255000	       724	80002ec8	c8cac793	xori	x15,x21,-884	 x21:0x80000001 x15=0x7ffffc8d
        7265000	       725	80002ecc	01e79463	bne	x15,x30,80002ed4	 x15:0x7ffffc8d x30:0xfffffdf0
        7275000	       726	00000000	00000013	addi	x0,x0,0	  x0:0x00000000
        7285000	       727	80002ed0	00000013	addi	x0,x0,0	  x0:0x00000000
        7295000	       728	80002ed4	0f7aff13	andi	x30,x21,247	 x21:0x80000001 x30=0x00000001
        7305000	       729	80002ed8	4a4c6213	ori	x4,x24,1188	 x24:0x00000000  x4=0x000004a4
        7315000	       730	80002edc	403e8233	sub	x4,x29,x3	 x29:0x80000287  x3:0x00000001  x4=0x80000286
        7325000	       731	80002ee0	0316e863	bltu	x13,x17,80002f10	 x13:0xfffffac5 x17:0x00003fff
        7335000	       732	80002ee4	40495a93	srai	x21,x18,0x4	 x18:0x00000343 x21=0x00000034
        7345000	       733	80002ee8	000ad313	srli	x6,x21,0x0	 x21:0x00000034  x6=0x00000034
        7355000	       734	80002eec	014d04b3	add	x9,x26,x20	 x26:0xffffff91 x20:0x80009fc4  x9=0x80009f55
        7365000	       735	80002ef0	01ce3f33	sltu	x30,x28,x28	 x28:0x80009f20 x28:0x80009f20 x30=0x00000000
        7375000	       736	80002ef4	a142bc93	sltiu	x25,x5,-1516	  x5:0x00007f95 x25=0x00000001
        7385000	       737	80002ef8	e25f7993	andi	x19,x30,-475	 x30:0x00000000 x19=0x00000000
        7395000	       738	80002efc	4a780a93	addi	x21,x16,1191	 x16:0xf7397c9c x21=0xf7398143
        7405000	       739	80002f00	00bf7e63	bgeu	x30,x11,80002f1c	 x30:0x00000000 x11:0xffffff91
        7415000	       740	80002f04	56143613	sltiu	x12,x8,1377	  x8:0x00000001 x12=0x00000001
        7425000	       741	80002f08	045b4863	blt	x22,x5,80002f58	 x22:0x00000000  x5:0x00007f95
        7435000	       742	00000000	00000013	addi	x0,x0,0	  x0:0x00000000
        7445000	       743	80002f54	00000013	addi	x0,x0,0	  x0:0x00000000
        7455000	       744	80002f58	0093b2b3	sltu	x5,x7,x9	  x7:0xffffffdf  x9:0x80009f55  x5=0x00000000
        7465000	       745	80002f5c	009a71b3	and	x3,x20,x9	 x20:0x80009fc4  x9:0x80009f55  x3=0x80009f44
        7475000	       746	80002f60	404755b3	sra	x11,x14,x4	 x14:0xfffff954  x4:0x80000286 x11=0xffffffe5
        7485000	       747	80002f64	00087433	and	x8,x16,x0	 x16:0xf7397c9c  x0:0x00000000  x8=0x00000000
        7495000	       748	80002f68	406b5193	srai	x3,x22,0x6	 x22:0x00000000  x3=0x00000000
        7505000	       749	80002f6c	00000013	addi	x0,x0,0	  x0:0x00000000
        7515000	       750	80002f70	19a47513	andi	x10,x8,410	  x8:0x00000000 x10=0x00000000
        7525000	       751	80002f74	013af333	and	x6,x21,x19	 x21:0xf7398143 x19:0x00000000  x6=0x00000000
        7535000	       752	80002f78	81bce013	ori	x0,x25,-2021	 x25:0x00000001
        7545000	       753	80002f7c	097c9817	auipc	x16,0x97c9	 x16=0x897cbf78
        7555000	       754	80002f80	00334ab3	xor	x21,x6,x3	  x6:0x00000000  x3:0x00000000 x21=0x00000000
        7565000	       755	80002f84	00499693	slli	x13,x19,0x4	 x19:0x00000000 x13=0x00000000
        7575000	       756	80002f88	004eadb3	slt	x27,x29,x4	 x29:0x80000287  x4:0x80000286 x27=0x00000000
        7585000	       757	80002f8c	00000013	addi	x0,x0,0	  x0:0x00000000
        7595000	       758	80002f90	01a26263	bltu	x4,x26,80002f94	  x4:0x80000286 x26:0xffffff91
        7605000	       759	00000000	00000013	addi	x0,x0,0	  x0:0x00000000
        7615000	       760	80002f90	00000013	addi	x0,x0,0	  x0:0x00000000
        7625000	       761	80002f94	001ce463	bltu	x25,x1,80002f9c	 x25:0x00000001  x1:0xfffffb57
        7635000	       762	00000000	00000013	addi	x0,x0,0	  x0:0x00000000
        7645000	       763	80002f98	00000013	addi	x0,x0,0	  x0:0x00000000
        7655000	       764	80002f9c	002277b3	and	x15,x4,x2	  x4:0x80000286  x2:0x00000000 x15=0x00000000
        7665000	       765	80002fa0	93254413	xori	x8,x10,-1742	 x10:0x00000000  x8=0xfffff932
        7675000	       766	80002fa4	e45f0897	auipc	x17,0xe45f0	 x17=0x645f2fa0
        7685000	       767	80002fa8	011c4a63	blt	x24,x17,80002fbc	 x24:0x00000000 x17:0x645f2fa0
        7695000	       768	00000000	00000013	addi	x0,x0,0	  x0:0x00000000
        7705000	       769	80002fb8	00000013	addi	x0,x0,0	  x0:0x00000000
        7715000	       770	80002fbc	1a657837	lui	x16,0x1a657	 x16=0x1a657000
        7725000	       771	80002fc0	41028533	sub	x10,x5,x16	  x5:0x00000000 x16:0x1a657000 x10=0xe59a9000
        7735000	       772	80002fc4	004e2d03	lw	x26,4(x28)	 x28:0x80009f20 x26=0x800016c8 PA:0x80009f24
        7745000	       773	80002fc8	08e30097	auipc	x1,0x8e30	  x1=0x88e32fc4
        7755000	       774	80002fcc	020e0e13	addi	x28,x28,32	 x28:0x80009f20 x28=0x80009f40
        7765000	       775	80002fd0	00641233	sll	x4,x8,x6	  x8:0xfffff932  x6:0x00000000  x4=0xfffff932
        7775000	       776	80002fd4	d4eb4e97	auipc	x29,0xd4eb4	 x29=0x54eb6fd0
        7785000	       777	80002fd8	001d0a93	addi	x21,x26,1	 x26:0x800016c8 x21=0x800016c9
        7795000	       778	80002fdc	000a8ae7	jalr	x21,x21,0	 x21:0x800016c9 x21=0x80002fdc
        7805000	       779	00000000	00000013	addi	x0,x0,0	  x0:0x00000000
        7815000	       780	800016c8	00000013	addi	x0,x0,0	  x0:0x00000000
        7825000	       781	800016cc	ff600e93	addi	x29,x0,-10	  x0:0x00000000 x29=0xfffffff6
        7835000	       782	800016d0	194ddb37	lui	x22,0x194dd	 x22=0x194dd000
        7845000	       783	800016d4	41da5d13	srai	x26,x20,0x1d	 x20:0x80009fc4 x26=0xfffffffc
        7855000	       784	800016d8	00e00a93	addi	x21,x0,14	  x0:0x00000000 x21=0x0000000e
        7865000	       785	800016dc	539e8313	addi	x6,x29,1337	 x29:0xfffffff6  x6=0x0000052f
        7875000	       786	800016e0	167a4337	lui	x6,0x167a4	  x6=0x167a4000
        7885000	       787	800016e4	19410813	addi	x16,x2,404	  x2:0x00000000 x16=0x00000194
        7895000	       788	800016e8	79f259b7	lui	x19,0x79f25	 x19=0x79f25000
        7905000	       789	800016ec	004e8e93	addi	x29,x29,4	 x29:0xfffffff6 x29=0xfffffffa
        7915000	       790	800016f0	019334b3	sltu	x9,x6,x25	  x6:0x167a4000 x25:0x00000001  x9=0x00000000
        7925000	       791	800016f4	00e42b33	slt	x22,x8,x14	  x8:0xfffff932 x14:0xfffff954 x22=0x00000001
        7935000	       792	800016f8	01e45b93	srli	x23,x8,0x1e	  x8:0xfffff932 x23=0x00000003
        7945000	       793	800016fc	00800093	addi	x1,x0,8	  x0:0x00000000  x1=0x00000008
        7955000	       794	80001700	019c4b33	xor	x22,x24,x25	 x24:0x00000000 x25:0x00000001 x22=0x00000001
        7965000	       795	80001704	01c49813	slli	x16,x9,0x1c	  x9:0x00000000 x16=0x00000000
        7975000	       796	80001708	01100913	addi	x18,x0,17	  x0:0x00000000 x18=0x00000011
        7985000	       797	8000170c	00a61433	sll	x8,x12,x10	 x12:0x00000001 x10:0xe59a9000  x8=0x00000001
        7995000	       798	80001710	018e45b3	xor	x11,x28,x24	 x28:0x80009f40 x24:0x00000000 x11=0x80009f40
        8005000	       799	80001714	01a2fc33	and	x24,x5,x26	  x5:0x00000000 x26:0xfffffffc x24=0x00000000
        8015000	       800	80001718	01bf9b33	sll	x22,x31,x27	 x31:0x80000000 x27:0x00000000 x22=0x80000000
        8025000	       801	8000171c	00bc2133	slt	x2,x24,x11	 x24:0x00000000 x11:0x80009f40  x2=0x00000000
        8035000	       802	80001720	01ecc4b3	xor	x9,x25,x30	 x25:0x00000001 x30:0x00000000  x9=0x00000001
        8045000	       803	80001724	00108093	addi	x1,x1,1	  x1:0x00000008  x1=0x00000009
        8055000	       804	80001728	41a75513	srai	x10,x14,0x1a	 x14:0xfffff954 x10=0xffffffff
        8065000	       805	8000172c	40b581b3	sub	x3,x11,x11	 x11:0x80009f40 x11:0x80009f40  x3=0x00000000
        8075000	       806	80001730	111ae413	ori	x8,x21,273	 x21:0x0000000e  x8=0x0000011f
        8085000	       807	80001734	41415793	srai	x15,x2,0x14	  x2:0x00000000 x15=0x00000000
        8095000	       808	80001738	fd20cee3	blt	x1,x18,80001714	  x1:0x00000009 x18:0x00000011
        8105000	       809	00000000	00000013	addi	x0,x0,0	  x0:0x00000000
        8115000	       810	80001710	00000013	addi	x0,x0,0	  x0:0x00000000
        8125000	       811	80001714	01a2fc33	and	x24,x5,x26	  x5:0x00000000 x26:0xfffffffc x24=0x00000000
        8135000	       812	80001718	01bf9b33	sll	x22,x31,x27	 x31:0x80000000 x27:0x00000000 x22=0x80000000
        8145000	       813	8000171c	00bc2133	slt	x2,x24,x11	 x24:0x00000000 x11:0x80009f40  x2=0x00000000
        8155000	       814	80001720	01ecc4b3	xor	x9,x25,x30	 x25:0x00000001 x30:0x00000000  x9=0x00000001
        8165000	       815	80001724	00108093	addi	x1,x1,1	  x1:0x00000009  x1=0x0000000a
        8175000	       816	80001728	41a75513	srai	x10,x14,0x1a	 x14:0xfffff954 x10=0xffffffff
        8185000	       817	8000172c	40b581b3	sub	x3,x11,x11	 x11:0x80009f40 x11:0x80009f40  x3=0x00000000
        8195000	       818	80001730	111ae413	ori	x8,x21,273	 x21:0x0000000e  x8=0x0000011f
        8205000	       819	80001734	41415793	srai	x15,x2,0x14	  x2:0x00000000 x15=0x00000000
        8215000	       820	80001738	fd20cee3	blt	x1,x18,80001714	  x1:0x0000000a x18:0x00000011
        8225000	       821	00000000	00000013	addi	x0,x0,0	  x0:0x00000000
        8235000	       822	80001710	00000013	addi	x0,x0,0	  x0:0x00000000
        8245000	       823	80001714	01a2fc33	and	x24,x5,x26	  x5:0x00000000 x26:0xfffffffc x24=0x00000000
        8255000	       824	80001718	01bf9b33	sll	x22,x31,x27	 x31:0x80000000 x27:0x00000000 x22=0x80000000
        8265000	       825	8000171c	00bc2133	slt	x2,x24,x11	 x24:0x00000000 x11:0x80009f40  x2=0x00000000
        8275000	       826	80001720	01ecc4b3	xor	x9,x25,x30	 x25:0x00000001 x30:0x00000000  x9=0x00000001
        8285000	       827	80001724	00108093	addi	x1,x1,1	  x1:0x0000000a  x1=0x0000000b
        8295000	       828	80001728	41a75513	srai	x10,x14,0x1a	 x14:0xfffff954 x10=0xffffffff
        8305000	       829	8000172c	40b581b3	sub	x3,x11,x11	 x11:0x80009f40 x11:0x80009f40  x3=0x00000000
        8315000	       830	80001730	111ae413	ori	x8,x21,273	 x21:0x0000000e  x8=0x0000011f
        8325000	       831	80001734	41415793	srai	x15,x2,0x14	  x2:0x00000000 x15=0x00000000
        8335000	       832	80001738	fd20cee3	blt	x1,x18,80001714	  x1:0x0000000b x18:0x00000011
        8345000	       833	00000000	00000013	addi	x0,x0,0	  x0:0x00000000
        8355000	       834	80001710	00000013	addi	x0,x0,0	  x0:0x00000000
        8365000	       835	80001714	01a2fc33	and	x24,x5,x26	  x5:0x00000000 x26:0xfffffffc x24=0x00000000
        8375000	       836	80001718	01bf9b33	sll	x22,x31,x27	 x31:0x80000000 x27:0x00000000 x22=0x80000000
        8385000	       837	8000171c	00bc2133	slt	x2,x24,x11	 x24:0x00000000 x11:0x80009f40  x2=0x00000000
        8395000	       838	80001720	01ecc4b3	xor	x9,x25,x30	 x25:0x00000001 x30:0x00000000  x9=0x00000001
        8405000	       839	80001724	00108093	addi	x1,x1,1	  x1:0x0000000b  x1=0x0000000c
        8415000	       840	80001728	41a75513	srai	x10,x14,0x1a	 x14:0xfffff954 x10=0xffffffff
        8425000	       841	8000172c	40b581b3	sub	x3,x11,x11	 x11:0x80009f40 x11:0x80009f40  x3=0x00000000
        8435000	       842	80001730	111ae413	ori	x8,x21,273	 x21:0x0000000e  x8=0x0000011f
        8445000	       843	80001734	41415793	srai	x15,x2,0x14	  x2:0x00000000 x15=0x00000000
        8455000	       844	80001738	fd20cee3	blt	x1,x18,80001714	  x1:0x0000000c x18:0x00000011
        8465000	       845	00000000	00000013	addi	x0,x0,0	  x0:0x00000000
        8475000	       846	80001710	00000013	addi	x0,x0,0	  x0:0x00000000
        8485000	       847	80001714	01a2fc33	and	x24,x5,x26	  x5:0x00000000 x26:0xfffffffc x24=0x00000000
        8495000	       848	80001718	01bf9b33	sll	x22,x31,x27	 x31:0x80000000 x27:0x00000000 x22=0x80000000
        8505000	       849	8000171c	00bc2133	slt	x2,x24,x11	 x24:0x00000000 x11:0x80009f40  x2=0x00000000
        8515000	       850	80001720	01ecc4b3	xor	x9,x25,x30	 x25:0x00000001 x30:0x00000000  x9=0x00000001
        8525000	       851	80001724	00108093	addi	x1,x1,1	  x1:0x0000000c  x1=0x0000000d
        8535000	       852	80001728	41a75513	srai	x10,x14,0x1a	 x14:0xfffff954 x10=0xffffffff
        8545000	       853	8000172c	40b581b3	sub	x3,x11,x11	 x11:0x80009f40 x11:0x80009f40  x3=0x00000000
        8555000	       854	80001730	111ae413	ori	x8,x21,273	 x21:0x0000000e  x8=0x0000011f
        8565000	       855	80001734	41415793	srai	x15,x2,0x14	  x2:0x00000000 x15=0x00000000
        8575000	       856	80001738	fd20cee3	blt	x1,x18,80001714	  x1:0x0000000d x18:0x00000011
        8585000	       857	00000000	00000013	addi	x0,x0,0	  x0:0x00000000
        8595000	       858	80001710	00000013	addi	x0,x0,0	  x0:0x00000000
        8605000	       859	80001714	01a2fc33	and	x24,x5,x26	  x5:0x00000000 x26:0xfffffffc x24=0x00000000
        8615000	       860	80001718	01bf9b33	sll	x22,x31,x27	 x31:0x80000000 x27:0x00000000 x22=0x80000000
        8625000	       861	8000171c	00bc2133	slt	x2,x24,x11	 x24:0x00000000 x11:0x80009f40  x2=0x00000000
        8635000	       862	80001720	01ecc4b3	xor	x9,x25,x30	 x25:0x00000001 x30:0x00000000  x9=0x00000001
        8645000	       863	80001724	00108093	addi	x1,x1,1	  x1:0x0000000d  x1=0x0000000e
        8655000	       864	80001728	41a75513	srai	x10,x14,0x1a	 x14:0xfffff954 x10=0xffffffff
        8665000	       865	8000172c	40b581b3	sub	x3,x11,x11	 x11:0x80009f40 x11:0x80009f40  x3=0x00000000
        8675000	       866	80001730	111ae413	ori	x8,x21,273	 x21:0x0000000e  x8=0x0000011f
        8685000	       867	80001734	41415793	srai	x15,x2,0x14	  x2:0x00000000 x15=0x00000000
        8695000	       868	80001738	fd20cee3	blt	x1,x18,80001714	  x1:0x0000000e x18:0x00000011
        8705000	       869	00000000	00000013	addi	x0,x0,0	  x0:0x00000000
        8715000	       870	80001710	00000013	addi	x0,x0,0	  x0:0x00000000
        8725000	       871	80001714	01a2fc33	and	x24,x5,x26	  x5:0x00000000 x26:0xfffffffc x24=0x00000000
        8735000	       872	80001718	01bf9b33	sll	x22,x31,x27	 x31:0x80000000 x27:0x00000000 x22=0x80000000
        8745000	       873	8000171c	00bc2133	slt	x2,x24,x11	 x24:0x00000000 x11:0x80009f40  x2=0x00000000
        8755000	       874	80001720	01ecc4b3	xor	x9,x25,x30	 x25:0x00000001 x30:0x00000000  x9=0x00000001
        8765000	       875	80001724	00108093	addi	x1,x1,1	  x1:0x0000000e  x1=0x0000000f
        8775000	       876	80001728	41a75513	srai	x10,x14,0x1a	 x14:0xfffff954 x10=0xffffffff
        8785000	       877	8000172c	40b581b3	sub	x3,x11,x11	 x11:0x80009f40 x11:0x80009f40  x3=0x00000000
        8795000	       878	80001730	111ae413	ori	x8,x21,273	 x21:0x0000000e  x8=0x0000011f
        8805000	       879	80001734	41415793	srai	x15,x2,0x14	  x2:0x00000000 x15=0x00000000
        8815000	       880	80001738	fd20cee3	blt	x1,x18,80001714	  x1:0x0000000f x18:0x00000011
        8825000	       881	00000000	00000013	addi	x0,x0,0	  x0:0x00000000
        8835000	       882	80001710	00000013	addi	x0,x0,0	  x0:0x00000000
        8845000	       883	80001714	01a2fc33	and	x24,x5,x26	  x5:0x00000000 x26:0xfffffffc x24=0x00000000
        8855000	       884	80001718	01bf9b33	sll	x22,x31,x27	 x31:0x80000000 x27:0x00000000 x22=0x80000000
        8865000	       885	8000171c	00bc2133	slt	x2,x24,x11	 x24:0x00000000 x11:0x80009f40  x2=0x00000000
        8875000	       886	80001720	01ecc4b3	xor	x9,x25,x30	 x25:0x00000001 x30:0x00000000  x9=0x00000001
        8885000	       887	80001724	00108093	addi	x1,x1,1	  x1:0x0000000f  x1=0x00000010
        8895000	       888	80001728	41a75513	srai	x10,x14,0x1a	 x14:0xfffff954 x10=0xffffffff
        8905000	       889	8000172c	40b581b3	sub	x3,x11,x11	 x11:0x80009f40 x11:0x80009f40  x3=0x00000000
        8915000	       890	80001730	111ae413	ori	x8,x21,273	 x21:0x0000000e  x8=0x0000011f
        8925000	       891	80001734	41415793	srai	x15,x2,0x14	  x2:0x00000000 x15=0x00000000
        8935000	       892	80001738	fd20cee3	blt	x1,x18,80001714	  x1:0x00000010 x18:0x00000011
        8945000	       893	00000000	00000013	addi	x0,x0,0	  x0:0x00000000
        8955000	       894	80001710	00000013	addi	x0,x0,0	  x0:0x00000000
        8965000	       895	80001714	01a2fc33	and	x24,x5,x26	  x5:0x00000000 x26:0xfffffffc x24=0x00000000
        8975000	       896	80001718	01bf9b33	sll	x22,x31,x27	 x31:0x80000000 x27:0x00000000 x22=0x80000000
        8985000	       897	8000171c	00bc2133	slt	x2,x24,x11	 x24:0x00000000 x11:0x80009f40  x2=0x00000000
        8995000	       898	80001720	01ecc4b3	xor	x9,x25,x30	 x25:0x00000001 x30:0x00000000  x9=0x00000001
        9005000	       899	80001724	00108093	addi	x1,x1,1	  x1:0x00000010  x1=0x00000011
        9015000	       900	80001728	41a75513	srai	x10,x14,0x1a	 x14:0xfffff954 x10=0xffffffff
        9025000	       901	8000172c	40b581b3	sub	x3,x11,x11	 x11:0x80009f40 x11:0x80009f40  x3=0x00000000
        9035000	       902	80001730	111ae413	ori	x8,x21,273	 x21:0x0000000e  x8=0x0000011f
        9045000	       903	80001734	41415793	srai	x15,x2,0x14	  x2:0x00000000 x15=0x00000000
        9055000	       904	80001738	fd20cee3	blt	x1,x18,80001714	  x1:0x00000011 x18:0x00000011
        9065000	       905	8000173c	a23ee693	ori	x13,x29,-1501	 x29:0xfffffffa x13=0xfffffffb
        9075000	       906	80001740	4c5bb113	sltiu	x2,x23,1221	 x23:0x00000003  x2=0x00000001
        9085000	       907	80001744	fb5e92e3	bne	x29,x21,800016e8	 x29:0xfffffffa x21:0x0000000e
        9095000	       908	00000000	00000013	addi	x0,x0,0	  x0:0x00000000
        9105000	       909	800016e4	00000013	addi	x0,x0,0	  x0:0x00000000
        9115000	       910	800016e8	79f259b7	lui	x19,0x79f25	 x19=0x79f25000
        9125000	       911	800016ec	004e8e93	addi	x29,x29,4	 x29:0xfffffffa x29=0xfffffffe
        9135000	       912	800016f0	019334b3	sltu	x9,x6,x25	  x6:0x167a4000 x25:0x00000001  x9=0x00000000
        9145000	       913	800016f4	00e42b33	slt	x22,x8,x14	  x8:0x0000011f x14:0xfffff954 x22=0x00000000
        9155000	       914	800016f8	01e45b93	srli	x23,x8,0x1e	  x8:0x0000011f x23=0x00000000
        9165000	       915	800016fc	00800093	addi	x1,x0,8	  x0:0x00000000  x1=0x00000008
        9175000	       916	80001700	019c4b33	xor	x22,x24,x25	 x24:0x00000000 x25:0x00000001 x22=0x00000001
        9185000	       917	80001704	01c49813	slli	x16,x9,0x1c	  x9:0x00000000 x16=0x00000000
        9195000	       918	80001708	01100913	addi	x18,x0,17	  x0:0x00000000 x18=0x00000011
        9205000	       919	8000170c	00a61433	sll	x8,x12,x10	 x12:0x00000001 x10:0xffffffff  x8=0x80000000
        9215000	       920	80001710	018e45b3	xor	x11,x28,x24	 x28:0x80009f40 x24:0x00000000 x11=0x80009f40
        9225000	       921	80001714	01a2fc33	and	x24,x5,x26	  x5:0x00000000 x26:0xfffffffc x24=0x00000000
        9235000	       922	80001718	01bf9b33	sll	x22,x31,x27	 x31:0x80000000 x27:0x00000000 x22=0x80000000
        9245000	       923	8000171c	00bc2133	slt	x2,x24,x11	 x24:0x00000000 x11:0x80009f40  x2=0x00000000
        9255000	       924	80001720	01ecc4b3	xor	x9,x25,x30	 x25:0x00000001 x30:0x00000000  x9=0x00000001
        9265000	       925	80001724	00108093	addi	x1,x1,1	  x1:0x00000008  x1=0x00000009
        9275000	       926	80001728	41a75513	srai	x10,x14,0x1a	 x14:0xfffff954 x10=0xffffffff
        9285000	       927	8000172c	40b581b3	sub	x3,x11,x11	 x11:0x80009f40 x11:0x80009f40  x3=0x00000000
        9295000	       928	80001730	111ae413	ori	x8,x21,273	 x21:0x0000000e  x8=0x0000011f
        9305000	       929	80001734	41415793	srai	x15,x2,0x14	  x2:0x00000000 x15=0x00000000
        9315000	       930	80001738	fd20cee3	blt	x1,x18,80001714	  x1:0x00000009 x18:0x00000011
        9325000	       931	00000000	00000013	addi	x0,x0,0	  x0:0x00000000
        9335000	       932	80001710	00000013	addi	x0,x0,0	  x0:0x00000000
        9345000	       933	80001714	01a2fc33	and	x24,x5,x26	  x5:0x00000000 x26:0xfffffffc x24=0x00000000
        9355000	       934	80001718	01bf9b33	sll	x22,x31,x27	 x31:0x80000000 x27:0x00000000 x22=0x80000000
        9365000	       935	8000171c	00bc2133	slt	x2,x24,x11	 x24:0x00000000 x11:0x80009f40  x2=0x00000000
        9375000	       936	80001720	01ecc4b3	xor	x9,x25,x30	 x25:0x00000001 x30:0x00000000  x9=0x00000001
        9385000	       937	80001724	00108093	addi	x1,x1,1	  x1:0x00000009  x1=0x0000000a
        9395000	       938	80001728	41a75513	srai	x10,x14,0x1a	 x14:0xfffff954 x10=0xffffffff
        9405000	       939	8000172c	40b581b3	sub	x3,x11,x11	 x11:0x80009f40 x11:0x80009f40  x3=0x00000000
        9415000	       940	80001730	111ae413	ori	x8,x21,273	 x21:0x0000000e  x8=0x0000011f
        9425000	       941	80001734	41415793	srai	x15,x2,0x14	  x2:0x00000000 x15=0x00000000
        9435000	       942	80001738	fd20cee3	blt	x1,x18,80001714	  x1:0x0000000a x18:0x00000011
        9445000	       943	00000000	00000013	addi	x0,x0,0	  x0:0x00000000
        9455000	       944	80001710	00000013	addi	x0,x0,0	  x0:0x00000000
        9465000	       945	80001714	01a2fc33	and	x24,x5,x26	  x5:0x00000000 x26:0xfffffffc x24=0x00000000
        9475000	       946	80001718	01bf9b33	sll	x22,x31,x27	 x31:0x80000000 x27:0x00000000 x22=0x80000000
        9485000	       947	8000171c	00bc2133	slt	x2,x24,x11	 x24:0x00000000 x11:0x80009f40  x2=0x00000000
        9495000	       948	80001720	01ecc4b3	xor	x9,x25,x30	 x25:0x00000001 x30:0x00000000  x9=0x00000001
        9505000	       949	80001724	00108093	addi	x1,x1,1	  x1:0x0000000a  x1=0x0000000b
        9515000	       950	80001728	41a75513	srai	x10,x14,0x1a	 x14:0xfffff954 x10=0xffffffff
        9525000	       951	8000172c	40b581b3	sub	x3,x11,x11	 x11:0x80009f40 x11:0x80009f40  x3=0x00000000
        9535000	       952	80001730	111ae413	ori	x8,x21,273	 x21:0x0000000e  x8=0x0000011f
        9545000	       953	80001734	41415793	srai	x15,x2,0x14	  x2:0x00000000 x15=0x00000000
        9555000	       954	80001738	fd20cee3	blt	x1,x18,80001714	  x1:0x0000000b x18:0x00000011
        9565000	       955	00000000	00000013	addi	x0,x0,0	  x0:0x00000000
        9575000	       956	80001710	00000013	addi	x0,x0,0	  x0:0x00000000
        9585000	       957	80001714	01a2fc33	and	x24,x5,x26	  x5:0x00000000 x26:0xfffffffc x24=0x00000000
        9595000	       958	80001718	01bf9b33	sll	x22,x31,x27	 x31:0x80000000 x27:0x00000000 x22=0x80000000
        9605000	       959	8000171c	00bc2133	slt	x2,x24,x11	 x24:0x00000000 x11:0x80009f40  x2=0x00000000
        9615000	       960	80001720	01ecc4b3	xor	x9,x25,x30	 x25:0x00000001 x30:0x00000000  x9=0x00000001
        9625000	       961	80001724	00108093	addi	x1,x1,1	  x1:0x0000000b  x1=0x0000000c
        9635000	       962	80001728	41a75513	srai	x10,x14,0x1a	 x14:0xfffff954 x10=0xffffffff
        9645000	       963	8000172c	40b581b3	sub	x3,x11,x11	 x11:0x80009f40 x11:0x80009f40  x3=0x00000000
        9655000	       964	80001730	111ae413	ori	x8,x21,273	 x21:0x0000000e  x8=0x0000011f
        9665000	       965	80001734	41415793	srai	x15,x2,0x14	  x2:0x00000000 x15=0x00000000
        9675000	       966	80001738	fd20cee3	blt	x1,x18,80001714	  x1:0x0000000c x18:0x00000011
        9685000	       967	00000000	00000013	addi	x0,x0,0	  x0:0x00000000
        9695000	       968	80001710	00000013	addi	x0,x0,0	  x0:0x00000000
        9705000	       969	80001714	01a2fc33	and	x24,x5,x26	  x5:0x00000000 x26:0xfffffffc x24=0x00000000
        9715000	       970	80001718	01bf9b33	sll	x22,x31,x27	 x31:0x80000000 x27:0x00000000 x22=0x80000000
        9725000	       971	8000171c	00bc2133	slt	x2,x24,x11	 x24:0x00000000 x11:0x80009f40  x2=0x00000000
        9735000	       972	80001720	01ecc4b3	xor	x9,x25,x30	 x25:0x00000001 x30:0x00000000  x9=0x00000001
        9745000	       973	80001724	00108093	addi	x1,x1,1	  x1:0x0000000c  x1=0x0000000d
        9755000	       974	80001728	41a75513	srai	x10,x14,0x1a	 x14:0xfffff954 x10=0xffffffff
        9765000	       975	8000172c	40b581b3	sub	x3,x11,x11	 x11:0x80009f40 x11:0x80009f40  x3=0x00000000
        9775000	       976	80001730	111ae413	ori	x8,x21,273	 x21:0x0000000e  x8=0x0000011f
        9785000	       977	80001734	41415793	srai	x15,x2,0x14	  x2:0x00000000 x15=0x00000000
        9795000	       978	80001738	fd20cee3	blt	x1,x18,80001714	  x1:0x0000000d x18:0x00000011
        9805000	       979	00000000	00000013	addi	x0,x0,0	  x0:0x00000000
        9815000	       980	80001710	00000013	addi	x0,x0,0	  x0:0x00000000
        9825000	       981	80001714	01a2fc33	and	x24,x5,x26	  x5:0x00000000 x26:0xfffffffc x24=0x00000000
        9835000	       982	80001718	01bf9b33	sll	x22,x31,x27	 x31:0x80000000 x27:0x00000000 x22=0x80000000
        9845000	       983	8000171c	00bc2133	slt	x2,x24,x11	 x24:0x00000000 x11:0x80009f40  x2=0x00000000
        9855000	       984	80001720	01ecc4b3	xor	x9,x25,x30	 x25:0x00000001 x30:0x00000000  x9=0x00000001
        9865000	       985	80001724	00108093	addi	x1,x1,1	  x1:0x0000000d  x1=0x0000000e
        9875000	       986	80001728	41a75513	srai	x10,x14,0x1a	 x14:0xfffff954 x10=0xffffffff
        9885000	       987	8000172c	40b581b3	sub	x3,x11,x11	 x11:0x80009f40 x11:0x80009f40  x3=0x00000000
        9895000	       988	80001730	111ae413	ori	x8,x21,273	 x21:0x0000000e  x8=0x0000011f
        9905000	       989	80001734	41415793	srai	x15,x2,0x14	  x2:0x00000000 x15=0x00000000
        9915000	       990	80001738	fd20cee3	blt	x1,x18,80001714	  x1:0x0000000e x18:0x00000011
        9925000	       991	00000000	00000013	addi	x0,x0,0	  x0:0x00000000
        9935000	       992	80001710	00000013	addi	x0,x0,0	  x0:0x00000000
        9945000	       993	80001714	01a2fc33	and	x24,x5,x26	  x5:0x00000000 x26:0xfffffffc x24=0x00000000
        9955000	       994	80001718	01bf9b33	sll	x22,x31,x27	 x31:0x80000000 x27:0x00000000 x22=0x80000000
        9965000	       995	8000171c	00bc2133	slt	x2,x24,x11	 x24:0x00000000 x11:0x80009f40  x2=0x00000000
        9975000	       996	80001720	01ecc4b3	xor	x9,x25,x30	 x25:0x00000001 x30:0x00000000  x9=0x00000001
        9985000	       997	80001724	00108093	addi	x1,x1,1	  x1:0x0000000e  x1=0x0000000f
        9995000	       998	80001728	41a75513	srai	x10,x14,0x1a	 x14:0xfffff954 x10=0xffffffff
       10005000	       999	8000172c	40b581b3	sub	x3,x11,x11	 x11:0x80009f40 x11:0x80009f40  x3=0x00000000
       10015000	      1000	80001730	111ae413	ori	x8,x21,273	 x21:0x0000000e  x8=0x0000011f
       10025000	      1001	80001734	41415793	srai	x15,x2,0x14	  x2:0x00000000 x15=0x00000000
       10035000	      1002	80001738	fd20cee3	blt	x1,x18,80001714	  x1:0x0000000f x18:0x00000011
       10045000	      1003	00000000	00000013	addi	x0,x0,0	  x0:0x00000000
       10055000	      1004	80001710	00000013	addi	x0,x0,0	  x0:0x00000000
       10065000	      1005	80001714	01a2fc33	and	x24,x5,x26	  x5:0x00000000 x26:0xfffffffc x24=0x00000000
       10075000	      1006	80001718	01bf9b33	sll	x22,x31,x27	 x31:0x80000000 x27:0x00000000 x22=0x80000000
       10085000	      1007	8000171c	00bc2133	slt	x2,x24,x11	 x24:0x00000000 x11:0x80009f40  x2=0x00000000
       10095000	      1008	80001720	01ecc4b3	xor	x9,x25,x30	 x25:0x00000001 x30:0x00000000  x9=0x00000001
       10105000	      1009	80001724	00108093	addi	x1,x1,1	  x1:0x0000000f  x1=0x00000010
       10115000	      1010	80001728	41a75513	srai	x10,x14,0x1a	 x14:0xfffff954 x10=0xffffffff
       10125000	      1011	8000172c	40b581b3	sub	x3,x11,x11	 x11:0x80009f40 x11:0x80009f40  x3=0x00000000
       10135000	      1012	80001730	111ae413	ori	x8,x21,273	 x21:0x0000000e  x8=0x0000011f
       10145000	      1013	80001734	41415793	srai	x15,x2,0x14	  x2:0x00000000 x15=0x00000000
       10155000	      1014	80001738	fd20cee3	blt	x1,x18,80001714	  x1:0x00000010 x18:0x00000011
       10165000	      1015	00000000	00000013	addi	x0,x0,0	  x0:0x00000000
       10175000	      1016	80001710	00000013	addi	x0,x0,0	  x0:0x00000000
       10185000	      1017	80001714	01a2fc33	and	x24,x5,x26	  x5:0x00000000 x26:0xfffffffc x24=0x00000000
       10195000	      1018	80001718	01bf9b33	sll	x22,x31,x27	 x31:0x80000000 x27:0x00000000 x22=0x80000000
       10205000	      1019	8000171c	00bc2133	slt	x2,x24,x11	 x24:0x00000000 x11:0x80009f40  x2=0x00000000
       10215000	      1020	80001720	01ecc4b3	xor	x9,x25,x30	 x25:0x00000001 x30:0x00000000  x9=0x00000001
       10225000	      1021	80001724	00108093	addi	x1,x1,1	  x1:0x00000010  x1=0x00000011
       10235000	      1022	80001728	41a75513	srai	x10,x14,0x1a	 x14:0xfffff954 x10=0xffffffff
       10245000	      1023	8000172c	40b581b3	sub	x3,x11,x11	 x11:0x80009f40 x11:0x80009f40  x3=0x00000000
       10255000	      1024	80001730	111ae413	ori	x8,x21,273	 x21:0x0000000e  x8=0x0000011f
       10265000	      1025	80001734	41415793	srai	x15,x2,0x14	  x2:0x00000000 x15=0x00000000
       10275000	      1026	80001738	fd20cee3	blt	x1,x18,80001714	  x1:0x00000011 x18:0x00000011
       10285000	      1027	8000173c	a23ee693	ori	x13,x29,-1501	 x29:0xfffffffe x13=0xffffffff
       10295000	      1028	80001740	4c5bb113	sltiu	x2,x23,1221	 x23:0x00000000  x2=0x00000001
       10305000	      1029	80001744	fb5e92e3	bne	x29,x21,800016e8	 x29:0xfffffffe x21:0x0000000e
       10315000	      1030	00000000	00000013	addi	x0,x0,0	  x0:0x00000000
       10325000	      1031	800016e4	00000013	addi	x0,x0,0	  x0:0x00000000
       10335000	      1032	800016e8	79f259b7	lui	x19,0x79f25	 x19=0x79f25000
       10345000	      1033	800016ec	004e8e93	addi	x29,x29,4	 x29:0xfffffffe x29=0x00000002
       10355000	      1034	800016f0	019334b3	sltu	x9,x6,x25	  x6:0x167a4000 x25:0x00000001  x9=0x00000000
       10365000	      1035	800016f4	00e42b33	slt	x22,x8,x14	  x8:0x0000011f x14:0xfffff954 x22=0x00000000
       10375000	      1036	800016f8	01e45b93	srli	x23,x8,0x1e	  x8:0x0000011f x23=0x00000000
       10385000	      1037	800016fc	00800093	addi	x1,x0,8	  x0:0x00000000  x1=0x00000008
       10395000	      1038	80001700	019c4b33	xor	x22,x24,x25	 x24:0x00000000 x25:0x00000001 x22=0x00000001
       10405000	      1039	80001704	01c49813	slli	x16,x9,0x1c	  x9:0x00000000 x16=0x00000000
       10415000	      1040	80001708	01100913	addi	x18,x0,17	  x0:0x00000000 x18=0x00000011
       10425000	      1041	8000170c	00a61433	sll	x8,x12,x10	 x12:0x00000001 x10:0xffffffff  x8=0x80000000
       10435000	      1042	80001710	018e45b3	xor	x11,x28,x24	 x28:0x80009f40 x24:0x00000000 x11=0x80009f40
       10445000	      1043	80001714	01a2fc33	and	x24,x5,x26	  x5:0x00000000 x26:0xfffffffc x24=0x00000000
       10455000	      1044	80001718	01bf9b33	sll	x22,x31,x27	 x31:0x80000000 x27:0x00000000 x22=0x80000000
       10465000	      1045	8000171c	00bc2133	slt	x2,x24,x11	 x24:0x00000000 x11:0x80009f40  x2=0x00000000
       10475000	      1046	80001720	01ecc4b3	xor	x9,x25,x30	 x25:0x00000001 x30:0x00000000  x9=0x00000001
       10485000	      1047	80001724	00108093	addi	x1,x1,1	  x1:0x00000008  x1=0x00000009
       10495000	      1048	80001728	41a75513	srai	x10,x14,0x1a	 x14:0xfffff954 x10=0xffffffff
       10505000	      1049	8000172c	40b581b3	sub	x3,x11,x11	 x11:0x80009f40 x11:0x80009f40  x3=0x00000000
       10515000	      1050	80001730	111ae413	ori	x8,x21,273	 x21:0x0000000e  x8=0x0000011f
       10525000	      1051	80001734	41415793	srai	x15,x2,0x14	  x2:0x00000000 x15=0x00000000
       10535000	      1052	80001738	fd20cee3	blt	x1,x18,80001714	  x1:0x00000009 x18:0x00000011
       10545000	      1053	00000000	00000013	addi	x0,x0,0	  x0:0x00000000
       10555000	      1054	80001710	00000013	addi	x0,x0,0	  x0:0x00000000
       10565000	      1055	80001714	01a2fc33	and	x24,x5,x26	  x5:0x00000000 x26:0xfffffffc x24=0x00000000
       10575000	      1056	80001718	01bf9b33	sll	x22,x31,x27	 x31:0x80000000 x27:0x00000000 x22=0x80000000
       10585000	      1057	8000171c	00bc2133	slt	x2,x24,x11	 x24:0x00000000 x11:0x80009f40  x2=0x00000000
       10595000	      1058	80001720	01ecc4b3	xor	x9,x25,x30	 x25:0x00000001 x30:0x00000000  x9=0x00000001
       10605000	      1059	80001724	00108093	addi	x1,x1,1	  x1:0x00000009  x1=0x0000000a
       10615000	      1060	80001728	41a75513	srai	x10,x14,0x1a	 x14:0xfffff954 x10=0xffffffff
       10625000	      1061	8000172c	40b581b3	sub	x3,x11,x11	 x11:0x80009f40 x11:0x80009f40  x3=0x00000000
       10635000	      1062	80001730	111ae413	ori	x8,x21,273	 x21:0x0000000e  x8=0x0000011f
       10645000	      1063	80001734	41415793	srai	x15,x2,0x14	  x2:0x00000000 x15=0x00000000
       10655000	      1064	80001738	fd20cee3	blt	x1,x18,80001714	  x1:0x0000000a x18:0x00000011
       10665000	      1065	00000000	00000013	addi	x0,x0,0	  x0:0x00000000
       10675000	      1066	80001710	00000013	addi	x0,x0,0	  x0:0x00000000
       10685000	      1067	80001714	01a2fc33	and	x24,x5,x26	  x5:0x00000000 x26:0xfffffffc x24=0x00000000
       10695000	      1068	80001718	01bf9b33	sll	x22,x31,x27	 x31:0x80000000 x27:0x00000000 x22=0x80000000
       10705000	      1069	8000171c	00bc2133	slt	x2,x24,x11	 x24:0x00000000 x11:0x80009f40  x2=0x00000000
       10715000	      1070	80001720	01ecc4b3	xor	x9,x25,x30	 x25:0x00000001 x30:0x00000000  x9=0x00000001
       10725000	      1071	80001724	00108093	addi	x1,x1,1	  x1:0x0000000a  x1=0x0000000b
       10735000	      1072	80001728	41a75513	srai	x10,x14,0x1a	 x14:0xfffff954 x10=0xffffffff
       10745000	      1073	8000172c	40b581b3	sub	x3,x11,x11	 x11:0x80009f40 x11:0x80009f40  x3=0x00000000
       10755000	      1074	80001730	111ae413	ori	x8,x21,273	 x21:0x0000000e  x8=0x0000011f
       10765000	      1075	80001734	41415793	srai	x15,x2,0x14	  x2:0x00000000 x15=0x00000000
       10775000	      1076	80001738	fd20cee3	blt	x1,x18,80001714	  x1:0x0000000b x18:0x00000011
       10785000	      1077	00000000	00000013	addi	x0,x0,0	  x0:0x00000000
       10795000	      1078	80001710	00000013	addi	x0,x0,0	  x0:0x00000000
       10805000	      1079	80001714	01a2fc33	and	x24,x5,x26	  x5:0x00000000 x26:0xfffffffc x24=0x00000000
       10815000	      1080	80001718	01bf9b33	sll	x22,x31,x27	 x31:0x80000000 x27:0x00000000 x22=0x80000000
       10825000	      1081	8000171c	00bc2133	slt	x2,x24,x11	 x24:0x00000000 x11:0x80009f40  x2=0x00000000
       10835000	      1082	80001720	01ecc4b3	xor	x9,x25,x30	 x25:0x00000001 x30:0x00000000  x9=0x00000001
       10845000	      1083	80001724	00108093	addi	x1,x1,1	  x1:0x0000000b  x1=0x0000000c
       10855000	      1084	80001728	41a75513	srai	x10,x14,0x1a	 x14:0xfffff954 x10=0xffffffff
       10865000	      1085	8000172c	40b581b3	sub	x3,x11,x11	 x11:0x80009f40 x11:0x80009f40  x3=0x00000000
       10875000	      1086	80001730	111ae413	ori	x8,x21,273	 x21:0x0000000e  x8=0x0000011f
       10885000	      1087	80001734	41415793	srai	x15,x2,0x14	  x2:0x00000000 x15=0x00000000
       10895000	      1088	80001738	fd20cee3	blt	x1,x18,80001714	  x1:0x0000000c x18:0x00000011
       10905000	      1089	00000000	00000013	addi	x0,x0,0	  x0:0x00000000
       10915000	      1090	80001710	00000013	addi	x0,x0,0	  x0:0x00000000
       10925000	      1091	80001714	01a2fc33	and	x24,x5,x26	  x5:0x00000000 x26:0xfffffffc x24=0x00000000
       10935000	      1092	80001718	01bf9b33	sll	x22,x31,x27	 x31:0x80000000 x27:0x00000000 x22=0x80000000
       10945000	      1093	8000171c	00bc2133	slt	x2,x24,x11	 x24:0x00000000 x11:0x80009f40  x2=0x00000000
       10955000	      1094	80001720	01ecc4b3	xor	x9,x25,x30	 x25:0x00000001 x30:0x00000000  x9=0x00000001
       10965000	      1095	80001724	00108093	addi	x1,x1,1	  x1:0x0000000c  x1=0x0000000d
       10975000	      1096	80001728	41a75513	srai	x10,x14,0x1a	 x14:0xfffff954 x10=0xffffffff
       10985000	      1097	8000172c	40b581b3	sub	x3,x11,x11	 x11:0x80009f40 x11:0x80009f40  x3=0x00000000
       10995000	      1098	80001730	111ae413	ori	x8,x21,273	 x21:0x0000000e  x8=0x0000011f
       11005000	      1099	80001734	41415793	srai	x15,x2,0x14	  x2:0x00000000 x15=0x00000000
       11015000	      1100	80001738	fd20cee3	blt	x1,x18,80001714	  x1:0x0000000d x18:0x00000011
       11025000	      1101	00000000	00000013	addi	x0,x0,0	  x0:0x00000000
       11035000	      1102	80001710	00000013	addi	x0,x0,0	  x0:0x00000000
       11045000	      1103	80001714	01a2fc33	and	x24,x5,x26	  x5:0x00000000 x26:0xfffffffc x24=0x00000000
       11055000	      1104	80001718	01bf9b33	sll	x22,x31,x27	 x31:0x80000000 x27:0x00000000 x22=0x80000000
       11065000	      1105	8000171c	00bc2133	slt	x2,x24,x11	 x24:0x00000000 x11:0x80009f40  x2=0x00000000
       11075000	      1106	80001720	01ecc4b3	xor	x9,x25,x30	 x25:0x00000001 x30:0x00000000  x9=0x00000001
       11085000	      1107	80001724	00108093	addi	x1,x1,1	  x1:0x0000000d  x1=0x0000000e
       11095000	      1108	80001728	41a75513	srai	x10,x14,0x1a	 x14:0xfffff954 x10=0xffffffff
       11105000	      1109	8000172c	40b581b3	sub	x3,x11,x11	 x11:0x80009f40 x11:0x80009f40  x3=0x00000000
       11115000	      1110	80001730	111ae413	ori	x8,x21,273	 x21:0x0000000e  x8=0x0000011f
       11125000	      1111	80001734	41415793	srai	x15,x2,0x14	  x2:0x00000000 x15=0x00000000
       11135000	      1112	80001738	fd20cee3	blt	x1,x18,80001714	  x1:0x0000000e x18:0x00000011
       11145000	      1113	00000000	00000013	addi	x0,x0,0	  x0:0x00000000
       11155000	      1114	80001710	00000013	addi	x0,x0,0	  x0:0x00000000
       11165000	      1115	80001714	01a2fc33	and	x24,x5,x26	  x5:0x00000000 x26:0xfffffffc x24=0x00000000
       11175000	      1116	80001718	01bf9b33	sll	x22,x31,x27	 x31:0x80000000 x27:0x00000000 x22=0x80000000
       11185000	      1117	8000171c	00bc2133	slt	x2,x24,x11	 x24:0x00000000 x11:0x80009f40  x2=0x00000000
       11195000	      1118	80001720	01ecc4b3	xor	x9,x25,x30	 x25:0x00000001 x30:0x00000000  x9=0x00000001
       11205000	      1119	80001724	00108093	addi	x1,x1,1	  x1:0x0000000e  x1=0x0000000f
       11215000	      1120	80001728	41a75513	srai	x10,x14,0x1a	 x14:0xfffff954 x10=0xffffffff
       11225000	      1121	8000172c	40b581b3	sub	x3,x11,x11	 x11:0x80009f40 x11:0x80009f40  x3=0x00000000
       11235000	      1122	80001730	111ae413	ori	x8,x21,273	 x21:0x0000000e  x8=0x0000011f
       11245000	      1123	80001734	41415793	srai	x15,x2,0x14	  x2:0x00000000 x15=0x00000000
       11255000	      1124	80001738	fd20cee3	blt	x1,x18,80001714	  x1:0x0000000f x18:0x00000011
       11265000	      1125	00000000	00000013	addi	x0,x0,0	  x0:0x00000000
       11275000	      1126	80001710	00000013	addi	x0,x0,0	  x0:0x00000000
       11285000	      1127	80001714	01a2fc33	and	x24,x5,x26	  x5:0x00000000 x26:0xfffffffc x24=0x00000000
       11295000	      1128	80001718	01bf9b33	sll	x22,x31,x27	 x31:0x80000000 x27:0x00000000 x22=0x80000000
       11305000	      1129	8000171c	00bc2133	slt	x2,x24,x11	 x24:0x00000000 x11:0x80009f40  x2=0x00000000
       11315000	      1130	80001720	01ecc4b3	xor	x9,x25,x30	 x25:0x00000001 x30:0x00000000  x9=0x00000001
       11325000	      1131	80001724	00108093	addi	x1,x1,1	  x1:0x0000000f  x1=0x00000010
       11335000	      1132	80001728	41a75513	srai	x10,x14,0x1a	 x14:0xfffff954 x10=0xffffffff
       11345000	      1133	8000172c	40b581b3	sub	x3,x11,x11	 x11:0x80009f40 x11:0x80009f40  x3=0x00000000
       11355000	      1134	80001730	111ae413	ori	x8,x21,273	 x21:0x0000000e  x8=0x0000011f
       11365000	      1135	80001734	41415793	srai	x15,x2,0x14	  x2:0x00000000 x15=0x00000000
       11375000	      1136	80001738	fd20cee3	blt	x1,x18,80001714	  x1:0x00000010 x18:0x00000011
       11385000	      1137	00000000	00000013	addi	x0,x0,0	  x0:0x00000000
       11395000	      1138	80001710	00000013	addi	x0,x0,0	  x0:0x00000000
       11405000	      1139	80001714	01a2fc33	and	x24,x5,x26	  x5:0x00000000 x26:0xfffffffc x24=0x00000000
       11415000	      1140	80001718	01bf9b33	sll	x22,x31,x27	 x31:0x80000000 x27:0x00000000 x22=0x80000000
       11425000	      1141	8000171c	00bc2133	slt	x2,x24,x11	 x24:0x00000000 x11:0x80009f40  x2=0x00000000
       11435000	      1142	80001720	01ecc4b3	xor	x9,x25,x30	 x25:0x00000001 x30:0x00000000  x9=0x00000001
       11445000	      1143	80001724	00108093	addi	x1,x1,1	  x1:0x00000010  x1=0x00000011
       11455000	      1144	80001728	41a75513	srai	x10,x14,0x1a	 x14:0xfffff954 x10=0xffffffff
       11465000	      1145	8000172c	40b581b3	sub	x3,x11,x11	 x11:0x80009f40 x11:0x80009f40  x3=0x00000000
       11475000	      1146	80001730	111ae413	ori	x8,x21,273	 x21:0x0000000e  x8=0x0000011f
       11485000	      1147	80001734	41415793	srai	x15,x2,0x14	  x2:0x00000000 x15=0x00000000
       11495000	      1148	80001738	fd20cee3	blt	x1,x18,80001714	  x1:0x00000011 x18:0x00000011
       11505000	      1149	8000173c	a23ee693	ori	x13,x29,-1501	 x29:0x00000002 x13=0xfffffa23
       11515000	      1150	80001740	4c5bb113	sltiu	x2,x23,1221	 x23:0x00000000  x2=0x00000001
       11525000	      1151	80001744	fb5e92e3	bne	x29,x21,800016e8	 x29:0x00000002 x21:0x0000000e
       11535000	      1152	00000000	00000013	addi	x0,x0,0	  x0:0x00000000
       11545000	      1153	800016e4	00000013	addi	x0,x0,0	  x0:0x00000000
       11555000	      1154	800016e8	79f259b7	lui	x19,0x79f25	 x19=0x79f25000
       11565000	      1155	800016ec	004e8e93	addi	x29,x29,4	 x29:0x00000002 x29=0x00000006
       11575000	      1156	800016f0	019334b3	sltu	x9,x6,x25	  x6:0x167a4000 x25:0x00000001  x9=0x00000000
       11585000	      1157	800016f4	00e42b33	slt	x22,x8,x14	  x8:0x0000011f x14:0xfffff954 x22=0x00000000
       11595000	      1158	800016f8	01e45b93	srli	x23,x8,0x1e	  x8:0x0000011f x23=0x00000000
       11605000	      1159	800016fc	00800093	addi	x1,x0,8	  x0:0x00000000  x1=0x00000008
       11615000	      1160	80001700	019c4b33	xor	x22,x24,x25	 x24:0x00000000 x25:0x00000001 x22=0x00000001
       11625000	      1161	80001704	01c49813	slli	x16,x9,0x1c	  x9:0x00000000 x16=0x00000000
       11635000	      1162	80001708	01100913	addi	x18,x0,17	  x0:0x00000000 x18=0x00000011
       11645000	      1163	8000170c	00a61433	sll	x8,x12,x10	 x12:0x00000001 x10:0xffffffff  x8=0x80000000
       11655000	      1164	80001710	018e45b3	xor	x11,x28,x24	 x28:0x80009f40 x24:0x00000000 x11=0x80009f40
       11665000	      1165	80001714	01a2fc33	and	x24,x5,x26	  x5:0x00000000 x26:0xfffffffc x24=0x00000000
       11675000	      1166	80001718	01bf9b33	sll	x22,x31,x27	 x31:0x80000000 x27:0x00000000 x22=0x80000000
       11685000	      1167	8000171c	00bc2133	slt	x2,x24,x11	 x24:0x00000000 x11:0x80009f40  x2=0x00000000
       11695000	      1168	80001720	01ecc4b3	xor	x9,x25,x30	 x25:0x00000001 x30:0x00000000  x9=0x00000001
       11705000	      1169	80001724	00108093	addi	x1,x1,1	  x1:0x00000008  x1=0x00000009
       11715000	      1170	80001728	41a75513	srai	x10,x14,0x1a	 x14:0xfffff954 x10=0xffffffff
       11725000	      1171	8000172c	40b581b3	sub	x3,x11,x11	 x11:0x80009f40 x11:0x80009f40  x3=0x00000000
       11735000	      1172	80001730	111ae413	ori	x8,x21,273	 x21:0x0000000e  x8=0x0000011f
       11745000	      1173	80001734	41415793	srai	x15,x2,0x14	  x2:0x00000000 x15=0x00000000
       11755000	      1174	80001738	fd20cee3	blt	x1,x18,80001714	  x1:0x00000009 x18:0x00000011
       11765000	      1175	00000000	00000013	addi	x0,x0,0	  x0:0x00000000
       11775000	      1176	80001710	00000013	addi	x0,x0,0	  x0:0x00000000
       11785000	      1177	80001714	01a2fc33	and	x24,x5,x26	  x5:0x00000000 x26:0xfffffffc x24=0x00000000
       11795000	      1178	80001718	01bf9b33	sll	x22,x31,x27	 x31:0x80000000 x27:0x00000000 x22=0x80000000
       11805000	      1179	8000171c	00bc2133	slt	x2,x24,x11	 x24:0x00000000 x11:0x80009f40  x2=0x00000000
       11815000	      1180	80001720	01ecc4b3	xor	x9,x25,x30	 x25:0x00000001 x30:0x00000000  x9=0x00000001
       11825000	      1181	80001724	00108093	addi	x1,x1,1	  x1:0x00000009  x1=0x0000000a
       11835000	      1182	80001728	41a75513	srai	x10,x14,0x1a	 x14:0xfffff954 x10=0xffffffff
       11845000	      1183	8000172c	40b581b3	sub	x3,x11,x11	 x11:0x80009f40 x11:0x80009f40  x3=0x00000000
       11855000	      1184	80001730	111ae413	ori	x8,x21,273	 x21:0x0000000e  x8=0x0000011f
       11865000	      1185	80001734	41415793	srai	x15,x2,0x14	  x2:0x00000000 x15=0x00000000
       11875000	      1186	80001738	fd20cee3	blt	x1,x18,80001714	  x1:0x0000000a x18:0x00000011
       11885000	      1187	00000000	00000013	addi	x0,x0,0	  x0:0x00000000
       11895000	      1188	80001710	00000013	addi	x0,x0,0	  x0:0x00000000
       11905000	      1189	80001714	01a2fc33	and	x24,x5,x26	  x5:0x00000000 x26:0xfffffffc x24=0x00000000
       11915000	      1190	80001718	01bf9b33	sll	x22,x31,x27	 x31:0x80000000 x27:0x00000000 x22=0x80000000
       11925000	      1191	8000171c	00bc2133	slt	x2,x24,x11	 x24:0x00000000 x11:0x80009f40  x2=0x00000000
       11935000	      1192	80001720	01ecc4b3	xor	x9,x25,x30	 x25:0x00000001 x30:0x00000000  x9=0x00000001
       11945000	      1193	80001724	00108093	addi	x1,x1,1	  x1:0x0000000a  x1=0x0000000b
       11955000	      1194	80001728	41a75513	srai	x10,x14,0x1a	 x14:0xfffff954 x10=0xffffffff
       11965000	      1195	8000172c	40b581b3	sub	x3,x11,x11	 x11:0x80009f40 x11:0x80009f40  x3=0x00000000
       11975000	      1196	80001730	111ae413	ori	x8,x21,273	 x21:0x0000000e  x8=0x0000011f
       11985000	      1197	80001734	41415793	srai	x15,x2,0x14	  x2:0x00000000 x15=0x00000000
       11995000	      1198	80001738	fd20cee3	blt	x1,x18,80001714	  x1:0x0000000b x18:0x00000011
       12005000	      1199	00000000	00000013	addi	x0,x0,0	  x0:0x00000000
       12015000	      1200	80001710	00000013	addi	x0,x0,0	  x0:0x00000000
       12025000	      1201	80001714	01a2fc33	and	x24,x5,x26	  x5:0x00000000 x26:0xfffffffc x24=0x00000000
       12035000	      1202	80001718	01bf9b33	sll	x22,x31,x27	 x31:0x80000000 x27:0x00000000 x22=0x80000000
       12045000	      1203	8000171c	00bc2133	slt	x2,x24,x11	 x24:0x00000000 x11:0x80009f40  x2=0x00000000
       12055000	      1204	80001720	01ecc4b3	xor	x9,x25,x30	 x25:0x00000001 x30:0x00000000  x9=0x00000001
       12065000	      1205	80001724	00108093	addi	x1,x1,1	  x1:0x0000000b  x1=0x0000000c
       12075000	      1206	80001728	41a75513	srai	x10,x14,0x1a	 x14:0xfffff954 x10=0xffffffff
       12085000	      1207	8000172c	40b581b3	sub	x3,x11,x11	 x11:0x80009f40 x11:0x80009f40  x3=0x00000000
       12095000	      1208	80001730	111ae413	ori	x8,x21,273	 x21:0x0000000e  x8=0x0000011f
       12105000	      1209	80001734	41415793	srai	x15,x2,0x14	  x2:0x00000000 x15=0x00000000
       12115000	      1210	80001738	fd20cee3	blt	x1,x18,80001714	  x1:0x0000000c x18:0x00000011
       12125000	      1211	00000000	00000013	addi	x0,x0,0	  x0:0x00000000
       12135000	      1212	80001710	00000013	addi	x0,x0,0	  x0:0x00000000
       12145000	      1213	80001714	01a2fc33	and	x24,x5,x26	  x5:0x00000000 x26:0xfffffffc x24=0x00000000
       12155000	      1214	80001718	01bf9b33	sll	x22,x31,x27	 x31:0x80000000 x27:0x00000000 x22=0x80000000
       12165000	      1215	8000171c	00bc2133	slt	x2,x24,x11	 x24:0x00000000 x11:0x80009f40  x2=0x00000000
       12175000	      1216	80001720	01ecc4b3	xor	x9,x25,x30	 x25:0x00000001 x30:0x00000000  x9=0x00000001
       12185000	      1217	80001724	00108093	addi	x1,x1,1	  x1:0x0000000c  x1=0x0000000d
       12195000	      1218	80001728	41a75513	srai	x10,x14,0x1a	 x14:0xfffff954 x10=0xffffffff
       12205000	      1219	8000172c	40b581b3	sub	x3,x11,x11	 x11:0x80009f40 x11:0x80009f40  x3=0x00000000
       12215000	      1220	80001730	111ae413	ori	x8,x21,273	 x21:0x0000000e  x8=0x0000011f
       12225000	      1221	80001734	41415793	srai	x15,x2,0x14	  x2:0x00000000 x15=0x00000000
       12235000	      1222	80001738	fd20cee3	blt	x1,x18,80001714	  x1:0x0000000d x18:0x00000011
       12245000	      1223	00000000	00000013	addi	x0,x0,0	  x0:0x00000000
       12255000	      1224	80001710	00000013	addi	x0,x0,0	  x0:0x00000000
       12265000	      1225	80001714	01a2fc33	and	x24,x5,x26	  x5:0x00000000 x26:0xfffffffc x24=0x00000000
       12275000	      1226	80001718	01bf9b33	sll	x22,x31,x27	 x31:0x80000000 x27:0x00000000 x22=0x80000000
       12285000	      1227	8000171c	00bc2133	slt	x2,x24,x11	 x24:0x00000000 x11:0x80009f40  x2=0x00000000
       12295000	      1228	80001720	01ecc4b3	xor	x9,x25,x30	 x25:0x00000001 x30:0x00000000  x9=0x00000001
       12305000	      1229	80001724	00108093	addi	x1,x1,1	  x1:0x0000000d  x1=0x0000000e
       12315000	      1230	80001728	41a75513	srai	x10,x14,0x1a	 x14:0xfffff954 x10=0xffffffff
       12325000	      1231	8000172c	40b581b3	sub	x3,x11,x11	 x11:0x80009f40 x11:0x80009f40  x3=0x00000000
       12335000	      1232	80001730	111ae413	ori	x8,x21,273	 x21:0x0000000e  x8=0x0000011f
       12345000	      1233	80001734	41415793	srai	x15,x2,0x14	  x2:0x00000000 x15=0x00000000
       12355000	      1234	80001738	fd20cee3	blt	x1,x18,80001714	  x1:0x0000000e x18:0x00000011
       12365000	      1235	00000000	00000013	addi	x0,x0,0	  x0:0x00000000
       12375000	      1236	80001710	00000013	addi	x0,x0,0	  x0:0x00000000
       12385000	      1237	80001714	01a2fc33	and	x24,x5,x26	  x5:0x00000000 x26:0xfffffffc x24=0x00000000
       12395000	      1238	80001718	01bf9b33	sll	x22,x31,x27	 x31:0x80000000 x27:0x00000000 x22=0x80000000
       12405000	      1239	8000171c	00bc2133	slt	x2,x24,x11	 x24:0x00000000 x11:0x80009f40  x2=0x00000000
       12415000	      1240	80001720	01ecc4b3	xor	x9,x25,x30	 x25:0x00000001 x30:0x00000000  x9=0x00000001
       12425000	      1241	80001724	00108093	addi	x1,x1,1	  x1:0x0000000e  x1=0x0000000f
       12435000	      1242	80001728	41a75513	srai	x10,x14,0x1a	 x14:0xfffff954 x10=0xffffffff
       12445000	      1243	8000172c	40b581b3	sub	x3,x11,x11	 x11:0x80009f40 x11:0x80009f40  x3=0x00000000
       12455000	      1244	80001730	111ae413	ori	x8,x21,273	 x21:0x0000000e  x8=0x0000011f
       12465000	      1245	80001734	41415793	srai	x15,x2,0x14	  x2:0x00000000 x15=0x00000000
       12475000	      1246	80001738	fd20cee3	blt	x1,x18,80001714	  x1:0x0000000f x18:0x00000011
       12485000	      1247	00000000	00000013	addi	x0,x0,0	  x0:0x00000000
       12495000	      1248	80001710	00000013	addi	x0,x0,0	  x0:0x00000000
       12505000	      1249	80001714	01a2fc33	and	x24,x5,x26	  x5:0x00000000 x26:0xfffffffc x24=0x00000000
       12515000	      1250	80001718	01bf9b33	sll	x22,x31,x27	 x31:0x80000000 x27:0x00000000 x22=0x80000000
       12525000	      1251	8000171c	00bc2133	slt	x2,x24,x11	 x24:0x00000000 x11:0x80009f40  x2=0x00000000
       12535000	      1252	80001720	01ecc4b3	xor	x9,x25,x30	 x25:0x00000001 x30:0x00000000  x9=0x00000001
       12545000	      1253	80001724	00108093	addi	x1,x1,1	  x1:0x0000000f  x1=0x00000010
       12555000	      1254	80001728	41a75513	srai	x10,x14,0x1a	 x14:0xfffff954 x10=0xffffffff
       12565000	      1255	8000172c	40b581b3	sub	x3,x11,x11	 x11:0x80009f40 x11:0x80009f40  x3=0x00000000
       12575000	      1256	80001730	111ae413	ori	x8,x21,273	 x21:0x0000000e  x8=0x0000011f
       12585000	      1257	80001734	41415793	srai	x15,x2,0x14	  x2:0x00000000 x15=0x00000000
       12595000	      1258	80001738	fd20cee3	blt	x1,x18,80001714	  x1:0x00000010 x18:0x00000011
       12605000	      1259	00000000	00000013	addi	x0,x0,0	  x0:0x00000000
       12615000	      1260	80001710	00000013	addi	x0,x0,0	  x0:0x00000000
       12625000	      1261	80001714	01a2fc33	and	x24,x5,x26	  x5:0x00000000 x26:0xfffffffc x24=0x00000000
       12635000	      1262	80001718	01bf9b33	sll	x22,x31,x27	 x31:0x80000000 x27:0x00000000 x22=0x80000000
       12645000	      1263	8000171c	00bc2133	slt	x2,x24,x11	 x24:0x00000000 x11:0x80009f40  x2=0x00000000
       12655000	      1264	80001720	01ecc4b3	xor	x9,x25,x30	 x25:0x00000001 x30:0x00000000  x9=0x00000001
       12665000	      1265	80001724	00108093	addi	x1,x1,1	  x1:0x00000010  x1=0x00000011
       12675000	      1266	80001728	41a75513	srai	x10,x14,0x1a	 x14:0xfffff954 x10=0xffffffff
       12685000	      1267	8000172c	40b581b3	sub	x3,x11,x11	 x11:0x80009f40 x11:0x80009f40  x3=0x00000000
       12695000	      1268	80001730	111ae413	ori	x8,x21,273	 x21:0x0000000e  x8=0x0000011f
       12705000	      1269	80001734	41415793	srai	x15,x2,0x14	  x2:0x00000000 x15=0x00000000
       12715000	      1270	80001738	fd20cee3	blt	x1,x18,80001714	  x1:0x00000011 x18:0x00000011
       12725000	      1271	8000173c	a23ee693	ori	x13,x29,-1501	 x29:0x00000006 x13=0xfffffa27
       12735000	      1272	80001740	4c5bb113	sltiu	x2,x23,1221	 x23:0x00000000  x2=0x00000001
       12745000	      1273	80001744	fb5e92e3	bne	x29,x21,800016e8	 x29:0x00000006 x21:0x0000000e
       12755000	      1274	00000000	00000013	addi	x0,x0,0	  x0:0x00000000
       12765000	      1275	800016e4	00000013	addi	x0,x0,0	  x0:0x00000000
       12775000	      1276	800016e8	79f259b7	lui	x19,0x79f25	 x19=0x79f25000
       12785000	      1277	800016ec	004e8e93	addi	x29,x29,4	 x29:0x00000006 x29=0x0000000a
       12795000	      1278	800016f0	019334b3	sltu	x9,x6,x25	  x6:0x167a4000 x25:0x00000001  x9=0x00000000
       12805000	      1279	800016f4	00e42b33	slt	x22,x8,x14	  x8:0x0000011f x14:0xfffff954 x22=0x00000000
       12815000	      1280	800016f8	01e45b93	srli	x23,x8,0x1e	  x8:0x0000011f x23=0x00000000
       12825000	      1281	800016fc	00800093	addi	x1,x0,8	  x0:0x00000000  x1=0x00000008
       12835000	      1282	80001700	019c4b33	xor	x22,x24,x25	 x24:0x00000000 x25:0x00000001 x22=0x00000001
       12845000	      1283	80001704	01c49813	slli	x16,x9,0x1c	  x9:0x00000000 x16=0x00000000
       12855000	      1284	80001708	01100913	addi	x18,x0,17	  x0:0x00000000 x18=0x00000011
       12865000	      1285	8000170c	00a61433	sll	x8,x12,x10	 x12:0x00000001 x10:0xffffffff  x8=0x80000000
       12875000	      1286	80001710	018e45b3	xor	x11,x28,x24	 x28:0x80009f40 x24:0x00000000 x11=0x80009f40
       12885000	      1287	80001714	01a2fc33	and	x24,x5,x26	  x5:0x00000000 x26:0xfffffffc x24=0x00000000
       12895000	      1288	80001718	01bf9b33	sll	x22,x31,x27	 x31:0x80000000 x27:0x00000000 x22=0x80000000
       12905000	      1289	8000171c	00bc2133	slt	x2,x24,x11	 x24:0x00000000 x11:0x80009f40  x2=0x00000000
       12915000	      1290	80001720	01ecc4b3	xor	x9,x25,x30	 x25:0x00000001 x30:0x00000000  x9=0x00000001
       12925000	      1291	80001724	00108093	addi	x1,x1,1	  x1:0x00000008  x1=0x00000009
       12935000	      1292	80001728	41a75513	srai	x10,x14,0x1a	 x14:0xfffff954 x10=0xffffffff
       12945000	      1293	8000172c	40b581b3	sub	x3,x11,x11	 x11:0x80009f40 x11:0x80009f40  x3=0x00000000
       12955000	      1294	80001730	111ae413	ori	x8,x21,273	 x21:0x0000000e  x8=0x0000011f
       12965000	      1295	80001734	41415793	srai	x15,x2,0x14	  x2:0x00000000 x15=0x00000000
       12975000	      1296	80001738	fd20cee3	blt	x1,x18,80001714	  x1:0x00000009 x18:0x00000011
       12985000	      1297	00000000	00000013	addi	x0,x0,0	  x0:0x00000000
       12995000	      1298	80001710	00000013	addi	x0,x0,0	  x0:0x00000000
       13005000	      1299	80001714	01a2fc33	and	x24,x5,x26	  x5:0x00000000 x26:0xfffffffc x24=0x00000000
       13015000	      1300	80001718	01bf9b33	sll	x22,x31,x27	 x31:0x80000000 x27:0x00000000 x22=0x80000000
       13025000	      1301	8000171c	00bc2133	slt	x2,x24,x11	 x24:0x00000000 x11:0x80009f40  x2=0x00000000
       13035000	      1302	80001720	01ecc4b3	xor	x9,x25,x30	 x25:0x00000001 x30:0x00000000  x9=0x00000001
       13045000	      1303	80001724	00108093	addi	x1,x1,1	  x1:0x00000009  x1=0x0000000a
       13055000	      1304	80001728	41a75513	srai	x10,x14,0x1a	 x14:0xfffff954 x10=0xffffffff
       13065000	      1305	8000172c	40b581b3	sub	x3,x11,x11	 x11:0x80009f40 x11:0x80009f40  x3=0x00000000
       13075000	      1306	80001730	111ae413	ori	x8,x21,273	 x21:0x0000000e  x8=0x0000011f
       13085000	      1307	80001734	41415793	srai	x15,x2,0x14	  x2:0x00000000 x15=0x00000000
       13095000	      1308	80001738	fd20cee3	blt	x1,x18,80001714	  x1:0x0000000a x18:0x00000011
       13105000	      1309	00000000	00000013	addi	x0,x0,0	  x0:0x00000000
       13115000	      1310	80001710	00000013	addi	x0,x0,0	  x0:0x00000000
       13125000	      1311	80001714	01a2fc33	and	x24,x5,x26	  x5:0x00000000 x26:0xfffffffc x24=0x00000000
       13135000	      1312	80001718	01bf9b33	sll	x22,x31,x27	 x31:0x80000000 x27:0x00000000 x22=0x80000000
       13145000	      1313	8000171c	00bc2133	slt	x2,x24,x11	 x24:0x00000000 x11:0x80009f40  x2=0x00000000
       13155000	      1314	80001720	01ecc4b3	xor	x9,x25,x30	 x25:0x00000001 x30:0x00000000  x9=0x00000001
       13165000	      1315	80001724	00108093	addi	x1,x1,1	  x1:0x0000000a  x1=0x0000000b
       13175000	      1316	80001728	41a75513	srai	x10,x14,0x1a	 x14:0xfffff954 x10=0xffffffff
       13185000	      1317	8000172c	40b581b3	sub	x3,x11,x11	 x11:0x80009f40 x11:0x80009f40  x3=0x00000000
       13195000	      1318	80001730	111ae413	ori	x8,x21,273	 x21:0x0000000e  x8=0x0000011f
       13205000	      1319	80001734	41415793	srai	x15,x2,0x14	  x2:0x00000000 x15=0x00000000
       13215000	      1320	80001738	fd20cee3	blt	x1,x18,80001714	  x1:0x0000000b x18:0x00000011
       13225000	      1321	00000000	00000013	addi	x0,x0,0	  x0:0x00000000
       13235000	      1322	80001710	00000013	addi	x0,x0,0	  x0:0x00000000
       13245000	      1323	80001714	01a2fc33	and	x24,x5,x26	  x5:0x00000000 x26:0xfffffffc x24=0x00000000
       13255000	      1324	80001718	01bf9b33	sll	x22,x31,x27	 x31:0x80000000 x27:0x00000000 x22=0x80000000
       13265000	      1325	8000171c	00bc2133	slt	x2,x24,x11	 x24:0x00000000 x11:0x80009f40  x2=0x00000000
       13275000	      1326	80001720	01ecc4b3	xor	x9,x25,x30	 x25:0x00000001 x30:0x00000000  x9=0x00000001
       13285000	      1327	80001724	00108093	addi	x1,x1,1	  x1:0x0000000b  x1=0x0000000c
       13295000	      1328	80001728	41a75513	srai	x10,x14,0x1a	 x14:0xfffff954 x10=0xffffffff
       13305000	      1329	8000172c	40b581b3	sub	x3,x11,x11	 x11:0x80009f40 x11:0x80009f40  x3=0x00000000
       13315000	      1330	80001730	111ae413	ori	x8,x21,273	 x21:0x0000000e  x8=0x0000011f
       13325000	      1331	80001734	41415793	srai	x15,x2,0x14	  x2:0x00000000 x15=0x00000000
       13335000	      1332	80001738	fd20cee3	blt	x1,x18,80001714	  x1:0x0000000c x18:0x00000011
       13345000	      1333	00000000	00000013	addi	x0,x0,0	  x0:0x00000000
       13355000	      1334	80001710	00000013	addi	x0,x0,0	  x0:0x00000000
       13365000	      1335	80001714	01a2fc33	and	x24,x5,x26	  x5:0x00000000 x26:0xfffffffc x24=0x00000000
       13375000	      1336	80001718	01bf9b33	sll	x22,x31,x27	 x31:0x80000000 x27:0x00000000 x22=0x80000000
       13385000	      1337	8000171c	00bc2133	slt	x2,x24,x11	 x24:0x00000000 x11:0x80009f40  x2=0x00000000
       13395000	      1338	80001720	01ecc4b3	xor	x9,x25,x30	 x25:0x00000001 x30:0x00000000  x9=0x00000001
       13405000	      1339	80001724	00108093	addi	x1,x1,1	  x1:0x0000000c  x1=0x0000000d
       13415000	      1340	80001728	41a75513	srai	x10,x14,0x1a	 x14:0xfffff954 x10=0xffffffff
       13425000	      1341	8000172c	40b581b3	sub	x3,x11,x11	 x11:0x80009f40 x11:0x80009f40  x3=0x00000000
       13435000	      1342	80001730	111ae413	ori	x8,x21,273	 x21:0x0000000e  x8=0x0000011f
       13445000	      1343	80001734	41415793	srai	x15,x2,0x14	  x2:0x00000000 x15=0x00000000
       13455000	      1344	80001738	fd20cee3	blt	x1,x18,80001714	  x1:0x0000000d x18:0x00000011
       13465000	      1345	00000000	00000013	addi	x0,x0,0	  x0:0x00000000
       13475000	      1346	80001710	00000013	addi	x0,x0,0	  x0:0x00000000
       13485000	      1347	80001714	01a2fc33	and	x24,x5,x26	  x5:0x00000000 x26:0xfffffffc x24=0x00000000
       13495000	      1348	80001718	01bf9b33	sll	x22,x31,x27	 x31:0x80000000 x27:0x00000000 x22=0x80000000
       13505000	      1349	8000171c	00bc2133	slt	x2,x24,x11	 x24:0x00000000 x11:0x80009f40  x2=0x00000000
       13515000	      1350	80001720	01ecc4b3	xor	x9,x25,x30	 x25:0x00000001 x30:0x00000000  x9=0x00000001
       13525000	      1351	80001724	00108093	addi	x1,x1,1	  x1:0x0000000d  x1=0x0000000e
       13535000	      1352	80001728	41a75513	srai	x10,x14,0x1a	 x14:0xfffff954 x10=0xffffffff
       13545000	      1353	8000172c	40b581b3	sub	x3,x11,x11	 x11:0x80009f40 x11:0x80009f40  x3=0x00000000
       13555000	      1354	80001730	111ae413	ori	x8,x21,273	 x21:0x0000000e  x8=0x0000011f
       13565000	      1355	80001734	41415793	srai	x15,x2,0x14	  x2:0x00000000 x15=0x00000000
       13575000	      1356	80001738	fd20cee3	blt	x1,x18,80001714	  x1:0x0000000e x18:0x00000011
       13585000	      1357	00000000	00000013	addi	x0,x0,0	  x0:0x00000000
       13595000	      1358	80001710	00000013	addi	x0,x0,0	  x0:0x00000000
       13605000	      1359	80001714	01a2fc33	and	x24,x5,x26	  x5:0x00000000 x26:0xfffffffc x24=0x00000000
       13615000	      1360	80001718	01bf9b33	sll	x22,x31,x27	 x31:0x80000000 x27:0x00000000 x22=0x80000000
       13625000	      1361	8000171c	00bc2133	slt	x2,x24,x11	 x24:0x00000000 x11:0x80009f40  x2=0x00000000
       13635000	      1362	80001720	01ecc4b3	xor	x9,x25,x30	 x25:0x00000001 x30:0x00000000  x9=0x00000001
       13645000	      1363	80001724	00108093	addi	x1,x1,1	  x1:0x0000000e  x1=0x0000000f
       13655000	      1364	80001728	41a75513	srai	x10,x14,0x1a	 x14:0xfffff954 x10=0xffffffff
       13665000	      1365	8000172c	40b581b3	sub	x3,x11,x11	 x11:0x80009f40 x11:0x80009f40  x3=0x00000000
       13675000	      1366	80001730	111ae413	ori	x8,x21,273	 x21:0x0000000e  x8=0x0000011f
       13685000	      1367	80001734	41415793	srai	x15,x2,0x14	  x2:0x00000000 x15=0x00000000
       13695000	      1368	80001738	fd20cee3	blt	x1,x18,80001714	  x1:0x0000000f x18:0x00000011
       13705000	      1369	00000000	00000013	addi	x0,x0,0	  x0:0x00000000
       13715000	      1370	80001710	00000013	addi	x0,x0,0	  x0:0x00000000
       13725000	      1371	80001714	01a2fc33	and	x24,x5,x26	  x5:0x00000000 x26:0xfffffffc x24=0x00000000
       13735000	      1372	80001718	01bf9b33	sll	x22,x31,x27	 x31:0x80000000 x27:0x00000000 x22=0x80000000
       13745000	      1373	8000171c	00bc2133	slt	x2,x24,x11	 x24:0x00000000 x11:0x80009f40  x2=0x00000000
       13755000	      1374	80001720	01ecc4b3	xor	x9,x25,x30	 x25:0x00000001 x30:0x00000000  x9=0x00000001
       13765000	      1375	80001724	00108093	addi	x1,x1,1	  x1:0x0000000f  x1=0x00000010
       13775000	      1376	80001728	41a75513	srai	x10,x14,0x1a	 x14:0xfffff954 x10=0xffffffff
       13785000	      1377	8000172c	40b581b3	sub	x3,x11,x11	 x11:0x80009f40 x11:0x80009f40  x3=0x00000000
       13795000	      1378	80001730	111ae413	ori	x8,x21,273	 x21:0x0000000e  x8=0x0000011f
       13805000	      1379	80001734	41415793	srai	x15,x2,0x14	  x2:0x00000000 x15=0x00000000
       13815000	      1380	80001738	fd20cee3	blt	x1,x18,80001714	  x1:0x00000010 x18:0x00000011
       13825000	      1381	00000000	00000013	addi	x0,x0,0	  x0:0x00000000
       13835000	      1382	80001710	00000013	addi	x0,x0,0	  x0:0x00000000
       13845000	      1383	80001714	01a2fc33	and	x24,x5,x26	  x5:0x00000000 x26:0xfffffffc x24=0x00000000
       13855000	      1384	80001718	01bf9b33	sll	x22,x31,x27	 x31:0x80000000 x27:0x00000000 x22=0x80000000
       13865000	      1385	8000171c	00bc2133	slt	x2,x24,x11	 x24:0x00000000 x11:0x80009f40  x2=0x00000000
       13875000	      1386	80001720	01ecc4b3	xor	x9,x25,x30	 x25:0x00000001 x30:0x00000000  x9=0x00000001
       13885000	      1387	80001724	00108093	addi	x1,x1,1	  x1:0x00000010  x1=0x00000011
       13895000	      1388	80001728	41a75513	srai	x10,x14,0x1a	 x14:0xfffff954 x10=0xffffffff
       13905000	      1389	8000172c	40b581b3	sub	x3,x11,x11	 x11:0x80009f40 x11:0x80009f40  x3=0x00000000
       13915000	      1390	80001730	111ae413	ori	x8,x21,273	 x21:0x0000000e  x8=0x0000011f
       13925000	      1391	80001734	41415793	srai	x15,x2,0x14	  x2:0x00000000 x15=0x00000000
       13935000	      1392	80001738	fd20cee3	blt	x1,x18,80001714	  x1:0x00000011 x18:0x00000011
       13945000	      1393	8000173c	a23ee693	ori	x13,x29,-1501	 x29:0x0000000a x13=0xfffffa2b
       13955000	      1394	80001740	4c5bb113	sltiu	x2,x23,1221	 x23:0x00000000  x2=0x00000001
       13965000	      1395	80001744	fb5e92e3	bne	x29,x21,800016e8	 x29:0x0000000a x21:0x0000000e
       13975000	      1396	00000000	00000013	addi	x0,x0,0	  x0:0x00000000
       13985000	      1397	800016e4	00000013	addi	x0,x0,0	  x0:0x00000000
       13995000	      1398	800016e8	79f259b7	lui	x19,0x79f25	 x19=0x79f25000
       14005000	      1399	800016ec	004e8e93	addi	x29,x29,4	 x29:0x0000000a x29=0x0000000e
       14015000	      1400	800016f0	019334b3	sltu	x9,x6,x25	  x6:0x167a4000 x25:0x00000001  x9=0x00000000
       14025000	      1401	800016f4	00e42b33	slt	x22,x8,x14	  x8:0x0000011f x14:0xfffff954 x22=0x00000000
       14035000	      1402	800016f8	01e45b93	srli	x23,x8,0x1e	  x8:0x0000011f x23=0x00000000
       14045000	      1403	800016fc	00800093	addi	x1,x0,8	  x0:0x00000000  x1=0x00000008
       14055000	      1404	80001700	019c4b33	xor	x22,x24,x25	 x24:0x00000000 x25:0x00000001 x22=0x00000001
       14065000	      1405	80001704	01c49813	slli	x16,x9,0x1c	  x9:0x00000000 x16=0x00000000
       14075000	      1406	80001708	01100913	addi	x18,x0,17	  x0:0x00000000 x18=0x00000011
       14085000	      1407	8000170c	00a61433	sll	x8,x12,x10	 x12:0x00000001 x10:0xffffffff  x8=0x80000000
       14095000	      1408	80001710	018e45b3	xor	x11,x28,x24	 x28:0x80009f40 x24:0x00000000 x11=0x80009f40
       14105000	      1409	80001714	01a2fc33	and	x24,x5,x26	  x5:0x00000000 x26:0xfffffffc x24=0x00000000
       14115000	      1410	80001718	01bf9b33	sll	x22,x31,x27	 x31:0x80000000 x27:0x00000000 x22=0x80000000
       14125000	      1411	8000171c	00bc2133	slt	x2,x24,x11	 x24:0x00000000 x11:0x80009f40  x2=0x00000000
       14135000	      1412	80001720	01ecc4b3	xor	x9,x25,x30	 x25:0x00000001 x30:0x00000000  x9=0x00000001
       14145000	      1413	80001724	00108093	addi	x1,x1,1	  x1:0x00000008  x1=0x00000009
       14155000	      1414	80001728	41a75513	srai	x10,x14,0x1a	 x14:0xfffff954 x10=0xffffffff
       14165000	      1415	8000172c	40b581b3	sub	x3,x11,x11	 x11:0x80009f40 x11:0x80009f40  x3=0x00000000
       14175000	      1416	80001730	111ae413	ori	x8,x21,273	 x21:0x0000000e  x8=0x0000011f
       14185000	      1417	80001734	41415793	srai	x15,x2,0x14	  x2:0x00000000 x15=0x00000000
       14195000	      1418	80001738	fd20cee3	blt	x1,x18,80001714	  x1:0x00000009 x18:0x00000011
       14205000	      1419	00000000	00000013	addi	x0,x0,0	  x0:0x00000000
       14215000	      1420	80001710	00000013	addi	x0,x0,0	  x0:0x00000000
       14225000	      1421	80001714	01a2fc33	and	x24,x5,x26	  x5:0x00000000 x26:0xfffffffc x24=0x00000000
       14235000	      1422	80001718	01bf9b33	sll	x22,x31,x27	 x31:0x80000000 x27:0x00000000 x22=0x80000000
       14245000	      1423	8000171c	00bc2133	slt	x2,x24,x11	 x24:0x00000000 x11:0x80009f40  x2=0x00000000
       14255000	      1424	80001720	01ecc4b3	xor	x9,x25,x30	 x25:0x00000001 x30:0x00000000  x9=0x00000001
       14265000	      1425	80001724	00108093	addi	x1,x1,1	  x1:0x00000009  x1=0x0000000a
       14275000	      1426	80001728	41a75513	srai	x10,x14,0x1a	 x14:0xfffff954 x10=0xffffffff
       14285000	      1427	8000172c	40b581b3	sub	x3,x11,x11	 x11:0x80009f40 x11:0x80009f40  x3=0x00000000
       14295000	      1428	80001730	111ae413	ori	x8,x21,273	 x21:0x0000000e  x8=0x0000011f
       14305000	      1429	80001734	41415793	srai	x15,x2,0x14	  x2:0x00000000 x15=0x00000000
       14315000	      1430	80001738	fd20cee3	blt	x1,x18,80001714	  x1:0x0000000a x18:0x00000011
       14325000	      1431	00000000	00000013	addi	x0,x0,0	  x0:0x00000000
       14335000	      1432	80001710	00000013	addi	x0,x0,0	  x0:0x00000000
       14345000	      1433	80001714	01a2fc33	and	x24,x5,x26	  x5:0x00000000 x26:0xfffffffc x24=0x00000000
       14355000	      1434	80001718	01bf9b33	sll	x22,x31,x27	 x31:0x80000000 x27:0x00000000 x22=0x80000000
       14365000	      1435	8000171c	00bc2133	slt	x2,x24,x11	 x24:0x00000000 x11:0x80009f40  x2=0x00000000
       14375000	      1436	80001720	01ecc4b3	xor	x9,x25,x30	 x25:0x00000001 x30:0x00000000  x9=0x00000001
       14385000	      1437	80001724	00108093	addi	x1,x1,1	  x1:0x0000000a  x1=0x0000000b
       14395000	      1438	80001728	41a75513	srai	x10,x14,0x1a	 x14:0xfffff954 x10=0xffffffff
       14405000	      1439	8000172c	40b581b3	sub	x3,x11,x11	 x11:0x80009f40 x11:0x80009f40  x3=0x00000000
       14415000	      1440	80001730	111ae413	ori	x8,x21,273	 x21:0x0000000e  x8=0x0000011f
       14425000	      1441	80001734	41415793	srai	x15,x2,0x14	  x2:0x00000000 x15=0x00000000
       14435000	      1442	80001738	fd20cee3	blt	x1,x18,80001714	  x1:0x0000000b x18:0x00000011
       14445000	      1443	00000000	00000013	addi	x0,x0,0	  x0:0x00000000
       14455000	      1444	80001710	00000013	addi	x0,x0,0	  x0:0x00000000
       14465000	      1445	80001714	01a2fc33	and	x24,x5,x26	  x5:0x00000000 x26:0xfffffffc x24=0x00000000
       14475000	      1446	80001718	01bf9b33	sll	x22,x31,x27	 x31:0x80000000 x27:0x00000000 x22=0x80000000
       14485000	      1447	8000171c	00bc2133	slt	x2,x24,x11	 x24:0x00000000 x11:0x80009f40  x2=0x00000000
       14495000	      1448	80001720	01ecc4b3	xor	x9,x25,x30	 x25:0x00000001 x30:0x00000000  x9=0x00000001
       14505000	      1449	80001724	00108093	addi	x1,x1,1	  x1:0x0000000b  x1=0x0000000c
       14515000	      1450	80001728	41a75513	srai	x10,x14,0x1a	 x14:0xfffff954 x10=0xffffffff
       14525000	      1451	8000172c	40b581b3	sub	x3,x11,x11	 x11:0x80009f40 x11:0x80009f40  x3=0x00000000
       14535000	      1452	80001730	111ae413	ori	x8,x21,273	 x21:0x0000000e  x8=0x0000011f
       14545000	      1453	80001734	41415793	srai	x15,x2,0x14	  x2:0x00000000 x15=0x00000000
       14555000	      1454	80001738	fd20cee3	blt	x1,x18,80001714	  x1:0x0000000c x18:0x00000011
       14565000	      1455	00000000	00000013	addi	x0,x0,0	  x0:0x00000000
       14575000	      1456	80001710	00000013	addi	x0,x0,0	  x0:0x00000000
       14585000	      1457	80001714	01a2fc33	and	x24,x5,x26	  x5:0x00000000 x26:0xfffffffc x24=0x00000000
       14595000	      1458	80001718	01bf9b33	sll	x22,x31,x27	 x31:0x80000000 x27:0x00000000 x22=0x80000000
       14605000	      1459	8000171c	00bc2133	slt	x2,x24,x11	 x24:0x00000000 x11:0x80009f40  x2=0x00000000
       14615000	      1460	80001720	01ecc4b3	xor	x9,x25,x30	 x25:0x00000001 x30:0x00000000  x9=0x00000001
       14625000	      1461	80001724	00108093	addi	x1,x1,1	  x1:0x0000000c  x1=0x0000000d
       14635000	      1462	80001728	41a75513	srai	x10,x14,0x1a	 x14:0xfffff954 x10=0xffffffff
       14645000	      1463	8000172c	40b581b3	sub	x3,x11,x11	 x11:0x80009f40 x11:0x80009f40  x3=0x00000000
       14655000	      1464	80001730	111ae413	ori	x8,x21,273	 x21:0x0000000e  x8=0x0000011f
       14665000	      1465	80001734	41415793	srai	x15,x2,0x14	  x2:0x00000000 x15=0x00000000
       14675000	      1466	80001738	fd20cee3	blt	x1,x18,80001714	  x1:0x0000000d x18:0x00000011
       14685000	      1467	00000000	00000013	addi	x0,x0,0	  x0:0x00000000
       14695000	      1468	80001710	00000013	addi	x0,x0,0	  x0:0x00000000
       14705000	      1469	80001714	01a2fc33	and	x24,x5,x26	  x5:0x00000000 x26:0xfffffffc x24=0x00000000
       14715000	      1470	80001718	01bf9b33	sll	x22,x31,x27	 x31:0x80000000 x27:0x00000000 x22=0x80000000
       14725000	      1471	8000171c	00bc2133	slt	x2,x24,x11	 x24:0x00000000 x11:0x80009f40  x2=0x00000000
       14735000	      1472	80001720	01ecc4b3	xor	x9,x25,x30	 x25:0x00000001 x30:0x00000000  x9=0x00000001
       14745000	      1473	80001724	00108093	addi	x1,x1,1	  x1:0x0000000d  x1=0x0000000e
       14755000	      1474	80001728	41a75513	srai	x10,x14,0x1a	 x14:0xfffff954 x10=0xffffffff
       14765000	      1475	8000172c	40b581b3	sub	x3,x11,x11	 x11:0x80009f40 x11:0x80009f40  x3=0x00000000
       14775000	      1476	80001730	111ae413	ori	x8,x21,273	 x21:0x0000000e  x8=0x0000011f
       14785000	      1477	80001734	41415793	srai	x15,x2,0x14	  x2:0x00000000 x15=0x00000000
       14795000	      1478	80001738	fd20cee3	blt	x1,x18,80001714	  x1:0x0000000e x18:0x00000011
       14805000	      1479	00000000	00000013	addi	x0,x0,0	  x0:0x00000000
       14815000	      1480	80001710	00000013	addi	x0,x0,0	  x0:0x00000000
       14825000	      1481	80001714	01a2fc33	and	x24,x5,x26	  x5:0x00000000 x26:0xfffffffc x24=0x00000000
       14835000	      1482	80001718	01bf9b33	sll	x22,x31,x27	 x31:0x80000000 x27:0x00000000 x22=0x80000000
       14845000	      1483	8000171c	00bc2133	slt	x2,x24,x11	 x24:0x00000000 x11:0x80009f40  x2=0x00000000
       14855000	      1484	80001720	01ecc4b3	xor	x9,x25,x30	 x25:0x00000001 x30:0x00000000  x9=0x00000001
       14865000	      1485	80001724	00108093	addi	x1,x1,1	  x1:0x0000000e  x1=0x0000000f
       14875000	      1486	80001728	41a75513	srai	x10,x14,0x1a	 x14:0xfffff954 x10=0xffffffff
       14885000	      1487	8000172c	40b581b3	sub	x3,x11,x11	 x11:0x80009f40 x11:0x80009f40  x3=0x00000000
       14895000	      1488	80001730	111ae413	ori	x8,x21,273	 x21:0x0000000e  x8=0x0000011f
       14905000	      1489	80001734	41415793	srai	x15,x2,0x14	  x2:0x00000000 x15=0x00000000
       14915000	      1490	80001738	fd20cee3	blt	x1,x18,80001714	  x1:0x0000000f x18:0x00000011
       14925000	      1491	00000000	00000013	addi	x0,x0,0	  x0:0x00000000
       14935000	      1492	80001710	00000013	addi	x0,x0,0	  x0:0x00000000
       14945000	      1493	80001714	01a2fc33	and	x24,x5,x26	  x5:0x00000000 x26:0xfffffffc x24=0x00000000
       14955000	      1494	80001718	01bf9b33	sll	x22,x31,x27	 x31:0x80000000 x27:0x00000000 x22=0x80000000
       14965000	      1495	8000171c	00bc2133	slt	x2,x24,x11	 x24:0x00000000 x11:0x80009f40  x2=0x00000000
       14975000	      1496	80001720	01ecc4b3	xor	x9,x25,x30	 x25:0x00000001 x30:0x00000000  x9=0x00000001
       14985000	      1497	80001724	00108093	addi	x1,x1,1	  x1:0x0000000f  x1=0x00000010
       14995000	      1498	80001728	41a75513	srai	x10,x14,0x1a	 x14:0xfffff954 x10=0xffffffff
       15005000	      1499	8000172c	40b581b3	sub	x3,x11,x11	 x11:0x80009f40 x11:0x80009f40  x3=0x00000000
       15015000	      1500	80001730	111ae413	ori	x8,x21,273	 x21:0x0000000e  x8=0x0000011f
       15025000	      1501	80001734	41415793	srai	x15,x2,0x14	  x2:0x00000000 x15=0x00000000
       15035000	      1502	80001738	fd20cee3	blt	x1,x18,80001714	  x1:0x00000010 x18:0x00000011
       15045000	      1503	00000000	00000013	addi	x0,x0,0	  x0:0x00000000
       15055000	      1504	80001710	00000013	addi	x0,x0,0	  x0:0x00000000
       15065000	      1505	80001714	01a2fc33	and	x24,x5,x26	  x5:0x00000000 x26:0xfffffffc x24=0x00000000
       15075000	      1506	80001718	01bf9b33	sll	x22,x31,x27	 x31:0x80000000 x27:0x00000000 x22=0x80000000
       15085000	      1507	8000171c	00bc2133	slt	x2,x24,x11	 x24:0x00000000 x11:0x80009f40  x2=0x00000000
       15095000	      1508	80001720	01ecc4b3	xor	x9,x25,x30	 x25:0x00000001 x30:0x00000000  x9=0x00000001
       15105000	      1509	80001724	00108093	addi	x1,x1,1	  x1:0x00000010  x1=0x00000011
       15115000	      1510	80001728	41a75513	srai	x10,x14,0x1a	 x14:0xfffff954 x10=0xffffffff
       15125000	      1511	8000172c	40b581b3	sub	x3,x11,x11	 x11:0x80009f40 x11:0x80009f40  x3=0x00000000
       15135000	      1512	80001730	111ae413	ori	x8,x21,273	 x21:0x0000000e  x8=0x0000011f
       15145000	      1513	80001734	41415793	srai	x15,x2,0x14	  x2:0x00000000 x15=0x00000000
       15155000	      1514	80001738	fd20cee3	blt	x1,x18,80001714	  x1:0x00000011 x18:0x00000011
       15165000	      1515	8000173c	a23ee693	ori	x13,x29,-1501	 x29:0x0000000e x13=0xfffffa2f
       15175000	      1516	80001740	4c5bb113	sltiu	x2,x23,1221	 x23:0x00000000  x2=0x00000001
       15185000	      1517	80001744	fb5e92e3	bne	x29,x21,800016e8	 x29:0x0000000e x21:0x0000000e
       15195000	      1518	80001748	41c0ddb3	sra	x27,x1,x28	  x1:0x00000011 x28:0x80009f40 x27=0x00000011
       15205000	      1519	8000174c	00500593	addi	x11,x0,5	  x0:0x00000000 x11=0x00000005
       15215000	      1520	80001750	1f199b97	auipc	x23,0x1f199	 x23=0x9f19a74c
       15225000	      1521	80001754	41885c13	srai	x24,x16,0x18	 x16:0x00000000 x24=0x00000000
       15235000	      1522	80001758	7a6aeb93	ori	x23,x21,1958	 x21:0x0000000e x23=0x000007ae
       15245000	      1523	8000175c	0031a7b3	slt	x15,x3,x3	  x3:0x00000000  x3:0x00000000 x15=0x00000000
       15255000	      1524	80001760	00000013	addi	x0,x0,0	  x0:0x00000000
       15265000	      1525	80001764	01400193	addi	x3,x0,20	  x0:0x00000000  x3=0x00000014
       15275000	      1526	80001768	3fb0ad93	slti	x27,x1,1019	  x1:0x00000011 x27=0x00000001
       15285000	      1527	8000176c	00526b33	or	x22,x4,x5	  x4:0xfffff932  x5:0x00000000 x22=0xfffff932
       15295000	      1528	80001770	00358593	addi	x11,x11,3	 x11:0x00000005 x11=0x00000008
       15305000	      1529	80001774	45672013	slti	x0,x14,1110	 x14:0xfffff954
       15315000	      1530	80001778	f4944493	xori	x9,x8,-183	  x8:0x0000011f  x9=0xfffffe56
       15325000	      1531	8000177c	6bd36b13	ori	x22,x6,1725	  x6:0x167a4000 x22=0x167a46bd
       15335000	      1532	80001780	00c593b3	sll	x7,x11,x12	 x11:0x00000008 x12:0x00000001  x7=0x00000010
       15345000	      1533	80001784	928b4e93	xori	x29,x22,-1752	 x22:0x167a46bd x29=0xe985bf95
       15355000	      1534	80001788	00010db3	add	x27,x2,x0	  x2:0x00000001  x0:0x00000000 x27=0x00000001
       15365000	      1535	8000178c	ff800513	addi	x10,x0,-8	  x0:0x00000000 x10=0xfffffff8
       15375000	      1536	80001790	00300213	addi	x4,x0,3	  x0:0x00000000  x4=0x00000003
       15385000	      1537	80001794	01cbc333	xor	x6,x23,x28	 x23:0x000007ae x28:0x80009f40  x6=0x800098ee
       15395000	      1538	80001798	b9920717	auipc	x14,0xb9920	 x14=0x39921794
       15405000	      1539	8000179c	00dc9693	slli	x13,x25,0xd	 x25:0x00000001 x13=0x00002000
       15415000	      1540	800017a0	00150513	addi	x10,x10,1	 x10:0xfffffff8 x10=0xfffffff9
       15425000	      1541	800017a4	20edcd17	auipc	x26,0x20edc	 x26=0xa0edd7a0
       15435000	      1542	800017a8	fe4548e3	blt	x10,x4,80001798	 x10:0xfffffff9  x4:0x00000003
       15445000	      1543	00000000	00000013	addi	x0,x0,0	  x0:0x00000000
       15455000	      1544	80001794	00000013	addi	x0,x0,0	  x0:0x00000000
       15465000	      1545	80001798	b9920717	auipc	x14,0xb9920	 x14=0x39921794
       15475000	      1546	8000179c	00dc9693	slli	x13,x25,0xd	 x25:0x00000001 x13=0x00002000
       15485000	      1547	800017a0	00150513	addi	x10,x10,1	 x10:0xfffffff9 x10=0xfffffffa
       15495000	      1548	800017a4	20edcd17	auipc	x26,0x20edc	 x26=0xa0edd7a0
       15505000	      1549	800017a8	fe4548e3	blt	x10,x4,80001798	 x10:0xfffffffa  x4:0x00000003
       15515000	      1550	00000000	00000013	addi	x0,x0,0	  x0:0x00000000
       15525000	      1551	80001794	00000013	addi	x0,x0,0	  x0:0x00000000
       15535000	      1552	80001798	b9920717	auipc	x14,0xb9920	 x14=0x39921794
       15545000	      1553	8000179c	00dc9693	slli	x13,x25,0xd	 x25:0x00000001 x13=0x00002000
       15555000	      1554	800017a0	00150513	addi	x10,x10,1	 x10:0xfffffffa x10=0xfffffffb
       15565000	      1555	800017a4	20edcd17	auipc	x26,0x20edc	 x26=0xa0edd7a0
       15575000	      1556	800017a8	fe4548e3	blt	x10,x4,80001798	 x10:0xfffffffb  x4:0x00000003
       15585000	      1557	00000000	00000013	addi	x0,x0,0	  x0:0x00000000
       15595000	      1558	80001794	00000013	addi	x0,x0,0	  x0:0x00000000
       15605000	      1559	80001798	b9920717	auipc	x14,0xb9920	 x14=0x39921794
       15615000	      1560	8000179c	00dc9693	slli	x13,x25,0xd	 x25:0x00000001 x13=0x00002000
       15625000	      1561	800017a0	00150513	addi	x10,x10,1	 x10:0xfffffffb x10=0xfffffffc
       15635000	      1562	800017a4	20edcd17	auipc	x26,0x20edc	 x26=0xa0edd7a0
       15645000	      1563	800017a8	fe4548e3	blt	x10,x4,80001798	 x10:0xfffffffc  x4:0x00000003
       15655000	      1564	00000000	00000013	addi	x0,x0,0	  x0:0x00000000
       15665000	      1565	80001794	00000013	addi	x0,x0,0	  x0:0x00000000
       15675000	      1566	80001798	b9920717	auipc	x14,0xb9920	 x14=0x39921794
       15685000	      1567	8000179c	00dc9693	slli	x13,x25,0xd	 x25:0x00000001 x13=0x00002000
       15695000	      1568	800017a0	00150513	addi	x10,x10,1	 x10:0xfffffffc x10=0xfffffffd
       15705000	      1569	800017a4	20edcd17	auipc	x26,0x20edc	 x26=0xa0edd7a0
       15715000	      1570	800017a8	fe4548e3	blt	x10,x4,80001798	 x10:0xfffffffd  x4:0x00000003
       15725000	      1571	00000000	00000013	addi	x0,x0,0	  x0:0x00000000
       15735000	      1572	80001794	00000013	addi	x0,x0,0	  x0:0x00000000
       15745000	      1573	80001798	b9920717	auipc	x14,0xb9920	 x14=0x39921794
       15755000	      1574	8000179c	00dc9693	slli	x13,x25,0xd	 x25:0x00000001 x13=0x00002000
       15765000	      1575	800017a0	00150513	addi	x10,x10,1	 x10:0xfffffffd x10=0xfffffffe
       15775000	      1576	800017a4	20edcd17	auipc	x26,0x20edc	 x26=0xa0edd7a0
       15785000	      1577	800017a8	fe4548e3	blt	x10,x4,80001798	 x10:0xfffffffe  x4:0x00000003
       15795000	      1578	00000000	00000013	addi	x0,x0,0	  x0:0x00000000
       15805000	      1579	80001794	00000013	addi	x0,x0,0	  x0:0x00000000
       15815000	      1580	80001798	b9920717	auipc	x14,0xb9920	 x14=0x39921794
       15825000	      1581	8000179c	00dc9693	slli	x13,x25,0xd	 x25:0x00000001 x13=0x00002000
       15835000	      1582	800017a0	00150513	addi	x10,x10,1	 x10:0xfffffffe x10=0xffffffff
       15845000	      1583	800017a4	20edcd17	auipc	x26,0x20edc	 x26=0xa0edd7a0
       15855000	      1584	800017a8	fe4548e3	blt	x10,x4,80001798	 x10:0xffffffff  x4:0x00000003
       15865000	      1585	00000000	00000013	addi	x0,x0,0	  x0:0x00000000
       15875000	      1586	80001794	00000013	addi	x0,x0,0	  x0:0x00000000
       15885000	      1587	80001798	b9920717	auipc	x14,0xb9920	 x14=0x39921794
       15895000	      1588	8000179c	00dc9693	slli	x13,x25,0xd	 x25:0x00000001 x13=0x00002000
       15905000	      1589	800017a0	00150513	addi	x10,x10,1	 x10:0xffffffff x10=0x00000000
       15915000	      1590	800017a4	20edcd17	auipc	x26,0x20edc	 x26=0xa0edd7a0
       15925000	      1591	800017a8	fe4548e3	blt	x10,x4,80001798	 x10:0x00000000  x4:0x00000003
       15935000	      1592	00000000	00000013	addi	x0,x0,0	  x0:0x00000000
       15945000	      1593	80001794	00000013	addi	x0,x0,0	  x0:0x00000000
       15955000	      1594	80001798	b9920717	auipc	x14,0xb9920	 x14=0x39921794
       15965000	      1595	8000179c	00dc9693	slli	x13,x25,0xd	 x25:0x00000001 x13=0x00002000
       15975000	      1596	800017a0	00150513	addi	x10,x10,1	 x10:0x00000000 x10=0x00000001
       15985000	      1597	800017a4	20edcd17	auipc	x26,0x20edc	 x26=0xa0edd7a0
       15995000	      1598	800017a8	fe4548e3	blt	x10,x4,80001798	 x10:0x00000001  x4:0x00000003
       16005000	      1599	00000000	00000013	addi	x0,x0,0	  x0:0x00000000
       16015000	      1600	80001794	00000013	addi	x0,x0,0	  x0:0x00000000
       16025000	      1601	80001798	b9920717	auipc	x14,0xb9920	 x14=0x39921794
       16035000	      1602	8000179c	00dc9693	slli	x13,x25,0xd	 x25:0x00000001 x13=0x00002000
       16045000	      1603	800017a0	00150513	addi	x10,x10,1	 x10:0x00000001 x10=0x00000002
       16055000	      1604	800017a4	20edcd17	auipc	x26,0x20edc	 x26=0xa0edd7a0
       16065000	      1605	800017a8	fe4548e3	blt	x10,x4,80001798	 x10:0x00000002  x4:0x00000003
       16075000	      1606	00000000	00000013	addi	x0,x0,0	  x0:0x00000000
       16085000	      1607	80001794	00000013	addi	x0,x0,0	  x0:0x00000000
       16095000	      1608	80001798	b9920717	auipc	x14,0xb9920	 x14=0x39921794
       16105000	      1609	8000179c	00dc9693	slli	x13,x25,0xd	 x25:0x00000001 x13=0x00002000
       16115000	      1610	800017a0	00150513	addi	x10,x10,1	 x10:0x00000002 x10=0x00000003
       16125000	      1611	800017a4	20edcd17	auipc	x26,0x20edc	 x26=0xa0edd7a0
       16135000	      1612	800017a8	fe4548e3	blt	x10,x4,80001798	 x10:0x00000003  x4:0x00000003
       16145000	      1613	800017ac	487a3413	sltiu	x8,x20,1159	 x20:0x80009fc4  x8=0x00000000
       16155000	      1614	800017b0	d24dc893	xori	x17,x27,-732	 x27:0x00000001 x17=0xfffffd25
       16165000	      1615	800017b4	58934813	xori	x16,x6,1417	  x6:0x800098ee x16=0x80009d67
       16175000	      1616	800017b8	e92a6013	ori	x0,x20,-366	 x20:0x80009fc4
       16185000	      1617	800017bc	408507b3	sub	x15,x10,x8	 x10:0x00000003  x8:0x00000000 x15=0x00000003
       16195000	      1618	800017c0	fa3594e3	bne	x11,x3,80001768	 x11:0x00000008  x3:0x00000014
       16205000	      1619	00000000	00000013	addi	x0,x0,0	  x0:0x00000000
       16215000	      1620	80001764	00000013	addi	x0,x0,0	  x0:0x00000000
       16225000	      1621	80001768	3fb0ad93	slti	x27,x1,1019	  x1:0x00000011 x27=0x00000001
       16235000	      1622	8000176c	00526b33	or	x22,x4,x5	  x4:0x00000003  x5:0x00000000 x22=0x00000003
       16245000	      1623	80001770	00358593	addi	x11,x11,3	 x11:0x00000008 x11=0x0000000b
       16255000	      1624	80001774	45672013	slti	x0,x14,1110	 x14:0x39921794
       16265000	      1625	80001778	f4944493	xori	x9,x8,-183	  x8:0x00000000  x9=0xffffff49
       16275000	      1626	8000177c	6bd36b13	ori	x22,x6,1725	  x6:0x800098ee x22=0x80009eff
       16285000	      1627	80001780	00c593b3	sll	x7,x11,x12	 x11:0x0000000b x12:0x00000001  x7=0x00000016
       16295000	      1628	80001784	928b4e93	xori	x29,x22,-1752	 x22:0x80009eff x29=0x7fff67d7
       16305000	      1629	80001788	00010db3	add	x27,x2,x0	  x2:0x00000001  x0:0x00000000 x27=0x00000001
       16315000	      1630	8000178c	ff800513	addi	x10,x0,-8	  x0:0x00000000 x10=0xfffffff8
       16325000	      1631	80001790	00300213	addi	x4,x0,3	  x0:0x00000000  x4=0x00000003
       16335000	      1632	80001794	01cbc333	xor	x6,x23,x28	 x23:0x000007ae x28:0x80009f40  x6=0x800098ee
       16345000	      1633	80001798	b9920717	auipc	x14,0xb9920	 x14=0x39921794
       16355000	      1634	8000179c	00dc9693	slli	x13,x25,0xd	 x25:0x00000001 x13=0x00002000
       16365000	      1635	800017a0	00150513	addi	x10,x10,1	 x10:0xfffffff8 x10=0xfffffff9
       16375000	      1636	800017a4	20edcd17	auipc	x26,0x20edc	 x26=0xa0edd7a0
       16385000	      1637	800017a8	fe4548e3	blt	x10,x4,80001798	 x10:0xfffffff9  x4:0x00000003
       16395000	      1638	00000000	00000013	addi	x0,x0,0	  x0:0x00000000
       16405000	      1639	80001794	00000013	addi	x0,x0,0	  x0:0x00000000
       16415000	      1640	80001798	b9920717	auipc	x14,0xb9920	 x14=0x39921794
       16425000	      1641	8000179c	00dc9693	slli	x13,x25,0xd	 x25:0x00000001 x13=0x00002000
       16435000	      1642	800017a0	00150513	addi	x10,x10,1	 x10:0xfffffff9 x10=0xfffffffa
       16445000	      1643	800017a4	20edcd17	auipc	x26,0x20edc	 x26=0xa0edd7a0
       16455000	      1644	800017a8	fe4548e3	blt	x10,x4,80001798	 x10:0xfffffffa  x4:0x00000003
       16465000	      1645	00000000	00000013	addi	x0,x0,0	  x0:0x00000000
       16475000	      1646	80001794	00000013	addi	x0,x0,0	  x0:0x00000000
       16485000	      1647	80001798	b9920717	auipc	x14,0xb9920	 x14=0x39921794
       16495000	      1648	8000179c	00dc9693	slli	x13,x25,0xd	 x25:0x00000001 x13=0x00002000
       16505000	      1649	800017a0	00150513	addi	x10,x10,1	 x10:0xfffffffa x10=0xfffffffb
       16515000	      1650	800017a4	20edcd17	auipc	x26,0x20edc	 x26=0xa0edd7a0
       16525000	      1651	800017a8	fe4548e3	blt	x10,x4,80001798	 x10:0xfffffffb  x4:0x00000003
       16535000	      1652	00000000	00000013	addi	x0,x0,0	  x0:0x00000000
       16545000	      1653	80001794	00000013	addi	x0,x0,0	  x0:0x00000000
       16555000	      1654	80001798	b9920717	auipc	x14,0xb9920	 x14=0x39921794
       16565000	      1655	8000179c	00dc9693	slli	x13,x25,0xd	 x25:0x00000001 x13=0x00002000
       16575000	      1656	800017a0	00150513	addi	x10,x10,1	 x10:0xfffffffb x10=0xfffffffc
       16585000	      1657	800017a4	20edcd17	auipc	x26,0x20edc	 x26=0xa0edd7a0
       16595000	      1658	800017a8	fe4548e3	blt	x10,x4,80001798	 x10:0xfffffffc  x4:0x00000003
       16605000	      1659	00000000	00000013	addi	x0,x0,0	  x0:0x00000000
       16615000	      1660	80001794	00000013	addi	x0,x0,0	  x0:0x00000000
       16625000	      1661	80001798	b9920717	auipc	x14,0xb9920	 x14=0x39921794
       16635000	      1662	8000179c	00dc9693	slli	x13,x25,0xd	 x25:0x00000001 x13=0x00002000
       16645000	      1663	800017a0	00150513	addi	x10,x10,1	 x10:0xfffffffc x10=0xfffffffd
       16655000	      1664	800017a4	20edcd17	auipc	x26,0x20edc	 x26=0xa0edd7a0
       16665000	      1665	800017a8	fe4548e3	blt	x10,x4,80001798	 x10:0xfffffffd  x4:0x00000003
       16675000	      1666	00000000	00000013	addi	x0,x0,0	  x0:0x00000000
       16685000	      1667	80001794	00000013	addi	x0,x0,0	  x0:0x00000000
       16695000	      1668	80001798	b9920717	auipc	x14,0xb9920	 x14=0x39921794
       16705000	      1669	8000179c	00dc9693	slli	x13,x25,0xd	 x25:0x00000001 x13=0x00002000
       16715000	      1670	800017a0	00150513	addi	x10,x10,1	 x10:0xfffffffd x10=0xfffffffe
       16725000	      1671	800017a4	20edcd17	auipc	x26,0x20edc	 x26=0xa0edd7a0
       16735000	      1672	800017a8	fe4548e3	blt	x10,x4,80001798	 x10:0xfffffffe  x4:0x00000003
       16745000	      1673	00000000	00000013	addi	x0,x0,0	  x0:0x00000000
       16755000	      1674	80001794	00000013	addi	x0,x0,0	  x0:0x00000000
       16765000	      1675	80001798	b9920717	auipc	x14,0xb9920	 x14=0x39921794
       16775000	      1676	8000179c	00dc9693	slli	x13,x25,0xd	 x25:0x00000001 x13=0x00002000
       16785000	      1677	800017a0	00150513	addi	x10,x10,1	 x10:0xfffffffe x10=0xffffffff
       16795000	      1678	800017a4	20edcd17	auipc	x26,0x20edc	 x26=0xa0edd7a0
       16805000	      1679	800017a8	fe4548e3	blt	x10,x4,80001798	 x10:0xffffffff  x4:0x00000003
       16815000	      1680	00000000	00000013	addi	x0,x0,0	  x0:0x00000000
       16825000	      1681	80001794	00000013	addi	x0,x0,0	  x0:0x00000000
       16835000	      1682	80001798	b9920717	auipc	x14,0xb9920	 x14=0x39921794
       16845000	      1683	8000179c	00dc9693	slli	x13,x25,0xd	 x25:0x00000001 x13=0x00002000
       16855000	      1684	800017a0	00150513	addi	x10,x10,1	 x10:0xffffffff x10=0x00000000
       16865000	      1685	800017a4	20edcd17	auipc	x26,0x20edc	 x26=0xa0edd7a0
       16875000	      1686	800017a8	fe4548e3	blt	x10,x4,80001798	 x10:0x00000000  x4:0x00000003
       16885000	      1687	00000000	00000013	addi	x0,x0,0	  x0:0x00000000
       16895000	      1688	80001794	00000013	addi	x0,x0,0	  x0:0x00000000
       16905000	      1689	80001798	b9920717	auipc	x14,0xb9920	 x14=0x39921794
       16915000	      1690	8000179c	00dc9693	slli	x13,x25,0xd	 x25:0x00000001 x13=0x00002000
       16925000	      1691	800017a0	00150513	addi	x10,x10,1	 x10:0x00000000 x10=0x00000001
       16935000	      1692	800017a4	20edcd17	auipc	x26,0x20edc	 x26=0xa0edd7a0
       16945000	      1693	800017a8	fe4548e3	blt	x10,x4,80001798	 x10:0x00000001  x4:0x00000003
       16955000	      1694	00000000	00000013	addi	x0,x0,0	  x0:0x00000000
       16965000	      1695	80001794	00000013	addi	x0,x0,0	  x0:0x00000000
       16975000	      1696	80001798	b9920717	auipc	x14,0xb9920	 x14=0x39921794
       16985000	      1697	8000179c	00dc9693	slli	x13,x25,0xd	 x25:0x00000001 x13=0x00002000
       16995000	      1698	800017a0	00150513	addi	x10,x10,1	 x10:0x00000001 x10=0x00000002
       17005000	      1699	800017a4	20edcd17	auipc	x26,0x20edc	 x26=0xa0edd7a0
       17015000	      1700	800017a8	fe4548e3	blt	x10,x4,80001798	 x10:0x00000002  x4:0x00000003
       17025000	      1701	00000000	00000013	addi	x0,x0,0	  x0:0x00000000
       17035000	      1702	80001794	00000013	addi	x0,x0,0	  x0:0x00000000
       17045000	      1703	80001798	b9920717	auipc	x14,0xb9920	 x14=0x39921794
       17055000	      1704	8000179c	00dc9693	slli	x13,x25,0xd	 x25:0x00000001 x13=0x00002000
       17065000	      1705	800017a0	00150513	addi	x10,x10,1	 x10:0x00000002 x10=0x00000003
       17075000	      1706	800017a4	20edcd17	auipc	x26,0x20edc	 x26=0xa0edd7a0
       17085000	      1707	800017a8	fe4548e3	blt	x10,x4,80001798	 x10:0x00000003  x4:0x00000003
       17095000	      1708	800017ac	487a3413	sltiu	x8,x20,1159	 x20:0x80009fc4  x8=0x00000000
       17105000	      1709	800017b0	d24dc893	xori	x17,x27,-732	 x27:0x00000001 x17=0xfffffd25
       17115000	      1710	800017b4	58934813	xori	x16,x6,1417	  x6:0x800098ee x16=0x80009d67
       17125000	      1711	800017b8	e92a6013	ori	x0,x20,-366	 x20:0x80009fc4
       17135000	      1712	800017bc	408507b3	sub	x15,x10,x8	 x10:0x00000003  x8:0x00000000 x15=0x00000003
       17145000	      1713	800017c0	fa3594e3	bne	x11,x3,80001768	 x11:0x0000000b  x3:0x00000014
       17155000	      1714	00000000	00000013	addi	x0,x0,0	  x0:0x00000000
       17165000	      1715	80001764	00000013	addi	x0,x0,0	  x0:0x00000000
       17175000	      1716	80001768	3fb0ad93	slti	x27,x1,1019	  x1:0x00000011 x27=0x00000001
       17185000	      1717	8000176c	00526b33	or	x22,x4,x5	  x4:0x00000003  x5:0x00000000 x22=0x00000003
       17195000	      1718	80001770	00358593	addi	x11,x11,3	 x11:0x0000000b x11=0x0000000e
       17205000	      1719	80001774	45672013	slti	x0,x14,1110	 x14:0x39921794
       17215000	      1720	80001778	f4944493	xori	x9,x8,-183	  x8:0x00000000  x9=0xffffff49
       17225000	      1721	8000177c	6bd36b13	ori	x22,x6,1725	  x6:0x800098ee x22=0x80009eff
       17235000	      1722	80001780	00c593b3	sll	x7,x11,x12	 x11:0x0000000e x12:0x00000001  x7=0x0000001c
       17245000	      1723	80001784	928b4e93	xori	x29,x22,-1752	 x22:0x80009eff x29=0x7fff67d7
       17255000	      1724	80001788	00010db3	add	x27,x2,x0	  x2:0x00000001  x0:0x00000000 x27=0x00000001
       17265000	      1725	8000178c	ff800513	addi	x10,x0,-8	  x0:0x00000000 x10=0xfffffff8
       17275000	      1726	80001790	00300213	addi	x4,x0,3	  x0:0x00000000  x4=0x00000003
       17285000	      1727	80001794	01cbc333	xor	x6,x23,x28	 x23:0x000007ae x28:0x80009f40  x6=0x800098ee
       17295000	      1728	80001798	b9920717	auipc	x14,0xb9920	 x14=0x39921794
       17305000	      1729	8000179c	00dc9693	slli	x13,x25,0xd	 x25:0x00000001 x13=0x00002000
       17315000	      1730	800017a0	00150513	addi	x10,x10,1	 x10:0xfffffff8 x10=0xfffffff9
       17325000	      1731	800017a4	20edcd17	auipc	x26,0x20edc	 x26=0xa0edd7a0
       17335000	      1732	800017a8	fe4548e3	blt	x10,x4,80001798	 x10:0xfffffff9  x4:0x00000003
       17345000	      1733	00000000	00000013	addi	x0,x0,0	  x0:0x00000000
       17355000	      1734	80001794	00000013	addi	x0,x0,0	  x0:0x00000000
       17365000	      1735	80001798	b9920717	auipc	x14,0xb9920	 x14=0x39921794
       17375000	      1736	8000179c	00dc9693	slli	x13,x25,0xd	 x25:0x00000001 x13=0x00002000
       17385000	      1737	800017a0	00150513	addi	x10,x10,1	 x10:0xfffffff9 x10=0xfffffffa
       17395000	      1738	800017a4	20edcd17	auipc	x26,0x20edc	 x26=0xa0edd7a0
       17405000	      1739	800017a8	fe4548e3	blt	x10,x4,80001798	 x10:0xfffffffa  x4:0x00000003
       17415000	      1740	00000000	00000013	addi	x0,x0,0	  x0:0x00000000
       17425000	      1741	80001794	00000013	addi	x0,x0,0	  x0:0x00000000
       17435000	      1742	80001798	b9920717	auipc	x14,0xb9920	 x14=0x39921794
       17445000	      1743	8000179c	00dc9693	slli	x13,x25,0xd	 x25:0x00000001 x13=0x00002000
       17455000	      1744	800017a0	00150513	addi	x10,x10,1	 x10:0xfffffffa x10=0xfffffffb
       17465000	      1745	800017a4	20edcd17	auipc	x26,0x20edc	 x26=0xa0edd7a0
       17475000	      1746	800017a8	fe4548e3	blt	x10,x4,80001798	 x10:0xfffffffb  x4:0x00000003
       17485000	      1747	00000000	00000013	addi	x0,x0,0	  x0:0x00000000
       17495000	      1748	80001794	00000013	addi	x0,x0,0	  x0:0x00000000
       17505000	      1749	80001798	b9920717	auipc	x14,0xb9920	 x14=0x39921794
       17515000	      1750	8000179c	00dc9693	slli	x13,x25,0xd	 x25:0x00000001 x13=0x00002000
       17525000	      1751	800017a0	00150513	addi	x10,x10,1	 x10:0xfffffffb x10=0xfffffffc
       17535000	      1752	800017a4	20edcd17	auipc	x26,0x20edc	 x26=0xa0edd7a0
       17545000	      1753	800017a8	fe4548e3	blt	x10,x4,80001798	 x10:0xfffffffc  x4:0x00000003
       17555000	      1754	00000000	00000013	addi	x0,x0,0	  x0:0x00000000
       17565000	      1755	80001794	00000013	addi	x0,x0,0	  x0:0x00000000
       17575000	      1756	80001798	b9920717	auipc	x14,0xb9920	 x14=0x39921794
       17585000	      1757	8000179c	00dc9693	slli	x13,x25,0xd	 x25:0x00000001 x13=0x00002000
       17595000	      1758	800017a0	00150513	addi	x10,x10,1	 x10:0xfffffffc x10=0xfffffffd
       17605000	      1759	800017a4	20edcd17	auipc	x26,0x20edc	 x26=0xa0edd7a0
       17615000	      1760	800017a8	fe4548e3	blt	x10,x4,80001798	 x10:0xfffffffd  x4:0x00000003
       17625000	      1761	00000000	00000013	addi	x0,x0,0	  x0:0x00000000
       17635000	      1762	80001794	00000013	addi	x0,x0,0	  x0:0x00000000
       17645000	      1763	80001798	b9920717	auipc	x14,0xb9920	 x14=0x39921794
       17655000	      1764	8000179c	00dc9693	slli	x13,x25,0xd	 x25:0x00000001 x13=0x00002000
       17665000	      1765	800017a0	00150513	addi	x10,x10,1	 x10:0xfffffffd x10=0xfffffffe
       17675000	      1766	800017a4	20edcd17	auipc	x26,0x20edc	 x26=0xa0edd7a0
       17685000	      1767	800017a8	fe4548e3	blt	x10,x4,80001798	 x10:0xfffffffe  x4:0x00000003
       17695000	      1768	00000000	00000013	addi	x0,x0,0	  x0:0x00000000
       17705000	      1769	80001794	00000013	addi	x0,x0,0	  x0:0x00000000
       17715000	      1770	80001798	b9920717	auipc	x14,0xb9920	 x14=0x39921794
       17725000	      1771	8000179c	00dc9693	slli	x13,x25,0xd	 x25:0x00000001 x13=0x00002000
       17735000	      1772	800017a0	00150513	addi	x10,x10,1	 x10:0xfffffffe x10=0xffffffff
       17745000	      1773	800017a4	20edcd17	auipc	x26,0x20edc	 x26=0xa0edd7a0
       17755000	      1774	800017a8	fe4548e3	blt	x10,x4,80001798	 x10:0xffffffff  x4:0x00000003
       17765000	      1775	00000000	00000013	addi	x0,x0,0	  x0:0x00000000
       17775000	      1776	80001794	00000013	addi	x0,x0,0	  x0:0x00000000
       17785000	      1777	80001798	b9920717	auipc	x14,0xb9920	 x14=0x39921794
       17795000	      1778	8000179c	00dc9693	slli	x13,x25,0xd	 x25:0x00000001 x13=0x00002000
       17805000	      1779	800017a0	00150513	addi	x10,x10,1	 x10:0xffffffff x10=0x00000000
       17815000	      1780	800017a4	20edcd17	auipc	x26,0x20edc	 x26=0xa0edd7a0
       17825000	      1781	800017a8	fe4548e3	blt	x10,x4,80001798	 x10:0x00000000  x4:0x00000003
       17835000	      1782	00000000	00000013	addi	x0,x0,0	  x0:0x00000000
       17845000	      1783	80001794	00000013	addi	x0,x0,0	  x0:0x00000000
       17855000	      1784	80001798	b9920717	auipc	x14,0xb9920	 x14=0x39921794
       17865000	      1785	8000179c	00dc9693	slli	x13,x25,0xd	 x25:0x00000001 x13=0x00002000
       17875000	      1786	800017a0	00150513	addi	x10,x10,1	 x10:0x00000000 x10=0x00000001
       17885000	      1787	800017a4	20edcd17	auipc	x26,0x20edc	 x26=0xa0edd7a0
       17895000	      1788	800017a8	fe4548e3	blt	x10,x4,80001798	 x10:0x00000001  x4:0x00000003
       17905000	      1789	00000000	00000013	addi	x0,x0,0	  x0:0x00000000
       17915000	      1790	80001794	00000013	addi	x0,x0,0	  x0:0x00000000
       17925000	      1791	80001798	b9920717	auipc	x14,0xb9920	 x14=0x39921794
       17935000	      1792	8000179c	00dc9693	slli	x13,x25,0xd	 x25:0x00000001 x13=0x00002000
       17945000	      1793	800017a0	00150513	addi	x10,x10,1	 x10:0x00000001 x10=0x00000002
       17955000	      1794	800017a4	20edcd17	auipc	x26,0x20edc	 x26=0xa0edd7a0
       17965000	      1795	800017a8	fe4548e3	blt	x10,x4,80001798	 x10:0x00000002  x4:0x00000003
       17975000	      1796	00000000	00000013	addi	x0,x0,0	  x0:0x00000000
       17985000	      1797	80001794	00000013	addi	x0,x0,0	  x0:0x00000000
       17995000	      1798	80001798	b9920717	auipc	x14,0xb9920	 x14=0x39921794
       18005000	      1799	8000179c	00dc9693	slli	x13,x25,0xd	 x25:0x00000001 x13=0x00002000
       18015000	      1800	800017a0	00150513	addi	x10,x10,1	 x10:0x00000002 x10=0x00000003
       18025000	      1801	800017a4	20edcd17	auipc	x26,0x20edc	 x26=0xa0edd7a0
       18035000	      1802	800017a8	fe4548e3	blt	x10,x4,80001798	 x10:0x00000003  x4:0x00000003
       18045000	      1803	800017ac	487a3413	sltiu	x8,x20,1159	 x20:0x80009fc4  x8=0x00000000
       18055000	      1804	800017b0	d24dc893	xori	x17,x27,-732	 x27:0x00000001 x17=0xfffffd25
       18065000	      1805	800017b4	58934813	xori	x16,x6,1417	  x6:0x800098ee x16=0x80009d67
       18075000	      1806	800017b8	e92a6013	ori	x0,x20,-366	 x20:0x80009fc4
       18085000	      1807	800017bc	408507b3	sub	x15,x10,x8	 x10:0x00000003  x8:0x00000000 x15=0x00000003
       18095000	      1808	800017c0	fa3594e3	bne	x11,x3,80001768	 x11:0x0000000e  x3:0x00000014
       18105000	      1809	00000000	00000013	addi	x0,x0,0	  x0:0x00000000
       18115000	      1810	80001764	00000013	addi	x0,x0,0	  x0:0x00000000
       18125000	      1811	80001768	3fb0ad93	slti	x27,x1,1019	  x1:0x00000011 x27=0x00000001
       18135000	      1812	8000176c	00526b33	or	x22,x4,x5	  x4:0x00000003  x5:0x00000000 x22=0x00000003
       18145000	      1813	80001770	00358593	addi	x11,x11,3	 x11:0x0000000e x11=0x00000011
       18155000	      1814	80001774	45672013	slti	x0,x14,1110	 x14:0x39921794
       18165000	      1815	80001778	f4944493	xori	x9,x8,-183	  x8:0x00000000  x9=0xffffff49
       18175000	      1816	8000177c	6bd36b13	ori	x22,x6,1725	  x6:0x800098ee x22=0x80009eff
       18185000	      1817	80001780	00c593b3	sll	x7,x11,x12	 x11:0x00000011 x12:0x00000001  x7=0x00000022
       18195000	      1818	80001784	928b4e93	xori	x29,x22,-1752	 x22:0x80009eff x29=0x7fff67d7
       18205000	      1819	80001788	00010db3	add	x27,x2,x0	  x2:0x00000001  x0:0x00000000 x27=0x00000001
       18215000	      1820	8000178c	ff800513	addi	x10,x0,-8	  x0:0x00000000 x10=0xfffffff8
       18225000	      1821	80001790	00300213	addi	x4,x0,3	  x0:0x00000000  x4=0x00000003
       18235000	      1822	80001794	01cbc333	xor	x6,x23,x28	 x23:0x000007ae x28:0x80009f40  x6=0x800098ee
       18245000	      1823	80001798	b9920717	auipc	x14,0xb9920	 x14=0x39921794
       18255000	      1824	8000179c	00dc9693	slli	x13,x25,0xd	 x25:0x00000001 x13=0x00002000
       18265000	      1825	800017a0	00150513	addi	x10,x10,1	 x10:0xfffffff8 x10=0xfffffff9
       18275000	      1826	800017a4	20edcd17	auipc	x26,0x20edc	 x26=0xa0edd7a0
       18285000	      1827	800017a8	fe4548e3	blt	x10,x4,80001798	 x10:0xfffffff9  x4:0x00000003
       18295000	      1828	00000000	00000013	addi	x0,x0,0	  x0:0x00000000
       18305000	      1829	80001794	00000013	addi	x0,x0,0	  x0:0x00000000
       18315000	      1830	80001798	b9920717	auipc	x14,0xb9920	 x14=0x39921794
       18325000	      1831	8000179c	00dc9693	slli	x13,x25,0xd	 x25:0x00000001 x13=0x00002000
       18335000	      1832	800017a0	00150513	addi	x10,x10,1	 x10:0xfffffff9 x10=0xfffffffa
       18345000	      1833	800017a4	20edcd17	auipc	x26,0x20edc	 x26=0xa0edd7a0
       18355000	      1834	800017a8	fe4548e3	blt	x10,x4,80001798	 x10:0xfffffffa  x4:0x00000003
       18365000	      1835	00000000	00000013	addi	x0,x0,0	  x0:0x00000000
       18375000	      1836	80001794	00000013	addi	x0,x0,0	  x0:0x00000000
       18385000	      1837	80001798	b9920717	auipc	x14,0xb9920	 x14=0x39921794
       18395000	      1838	8000179c	00dc9693	slli	x13,x25,0xd	 x25:0x00000001 x13=0x00002000
       18405000	      1839	800017a0	00150513	addi	x10,x10,1	 x10:0xfffffffa x10=0xfffffffb
       18415000	      1840	800017a4	20edcd17	auipc	x26,0x20edc	 x26=0xa0edd7a0
       18425000	      1841	800017a8	fe4548e3	blt	x10,x4,80001798	 x10:0xfffffffb  x4:0x00000003
       18435000	      1842	00000000	00000013	addi	x0,x0,0	  x0:0x00000000
       18445000	      1843	80001794	00000013	addi	x0,x0,0	  x0:0x00000000
       18455000	      1844	80001798	b9920717	auipc	x14,0xb9920	 x14=0x39921794
       18465000	      1845	8000179c	00dc9693	slli	x13,x25,0xd	 x25:0x00000001 x13=0x00002000
       18475000	      1846	800017a0	00150513	addi	x10,x10,1	 x10:0xfffffffb x10=0xfffffffc
       18485000	      1847	800017a4	20edcd17	auipc	x26,0x20edc	 x26=0xa0edd7a0
       18495000	      1848	800017a8	fe4548e3	blt	x10,x4,80001798	 x10:0xfffffffc  x4:0x00000003
       18505000	      1849	00000000	00000013	addi	x0,x0,0	  x0:0x00000000
       18515000	      1850	80001794	00000013	addi	x0,x0,0	  x0:0x00000000
       18525000	      1851	80001798	b9920717	auipc	x14,0xb9920	 x14=0x39921794
       18535000	      1852	8000179c	00dc9693	slli	x13,x25,0xd	 x25:0x00000001 x13=0x00002000
       18545000	      1853	800017a0	00150513	addi	x10,x10,1	 x10:0xfffffffc x10=0xfffffffd
       18555000	      1854	800017a4	20edcd17	auipc	x26,0x20edc	 x26=0xa0edd7a0
       18565000	      1855	800017a8	fe4548e3	blt	x10,x4,80001798	 x10:0xfffffffd  x4:0x00000003
       18575000	      1856	00000000	00000013	addi	x0,x0,0	  x0:0x00000000
       18585000	      1857	80001794	00000013	addi	x0,x0,0	  x0:0x00000000
       18595000	      1858	80001798	b9920717	auipc	x14,0xb9920	 x14=0x39921794
       18605000	      1859	8000179c	00dc9693	slli	x13,x25,0xd	 x25:0x00000001 x13=0x00002000
       18615000	      1860	800017a0	00150513	addi	x10,x10,1	 x10:0xfffffffd x10=0xfffffffe
       18625000	      1861	800017a4	20edcd17	auipc	x26,0x20edc	 x26=0xa0edd7a0
       18635000	      1862	800017a8	fe4548e3	blt	x10,x4,80001798	 x10:0xfffffffe  x4:0x00000003
       18645000	      1863	00000000	00000013	addi	x0,x0,0	  x0:0x00000000
       18655000	      1864	80001794	00000013	addi	x0,x0,0	  x0:0x00000000
       18665000	      1865	80001798	b9920717	auipc	x14,0xb9920	 x14=0x39921794
       18675000	      1866	8000179c	00dc9693	slli	x13,x25,0xd	 x25:0x00000001 x13=0x00002000
       18685000	      1867	800017a0	00150513	addi	x10,x10,1	 x10:0xfffffffe x10=0xffffffff
       18695000	      1868	800017a4	20edcd17	auipc	x26,0x20edc	 x26=0xa0edd7a0
       18705000	      1869	800017a8	fe4548e3	blt	x10,x4,80001798	 x10:0xffffffff  x4:0x00000003
       18715000	      1870	00000000	00000013	addi	x0,x0,0	  x0:0x00000000
       18725000	      1871	80001794	00000013	addi	x0,x0,0	  x0:0x00000000
       18735000	      1872	80001798	b9920717	auipc	x14,0xb9920	 x14=0x39921794
       18745000	      1873	8000179c	00dc9693	slli	x13,x25,0xd	 x25:0x00000001 x13=0x00002000
       18755000	      1874	800017a0	00150513	addi	x10,x10,1	 x10:0xffffffff x10=0x00000000
       18765000	      1875	800017a4	20edcd17	auipc	x26,0x20edc	 x26=0xa0edd7a0
       18775000	      1876	800017a8	fe4548e3	blt	x10,x4,80001798	 x10:0x00000000  x4:0x00000003
       18785000	      1877	00000000	00000013	addi	x0,x0,0	  x0:0x00000000
       18795000	      1878	80001794	00000013	addi	x0,x0,0	  x0:0x00000000
       18805000	      1879	80001798	b9920717	auipc	x14,0xb9920	 x14=0x39921794
       18815000	      1880	8000179c	00dc9693	slli	x13,x25,0xd	 x25:0x00000001 x13=0x00002000
       18825000	      1881	800017a0	00150513	addi	x10,x10,1	 x10:0x00000000 x10=0x00000001
       18835000	      1882	800017a4	20edcd17	auipc	x26,0x20edc	 x26=0xa0edd7a0
       18845000	      1883	800017a8	fe4548e3	blt	x10,x4,80001798	 x10:0x00000001  x4:0x00000003
       18855000	      1884	00000000	00000013	addi	x0,x0,0	  x0:0x00000000
       18865000	      1885	80001794	00000013	addi	x0,x0,0	  x0:0x00000000
       18875000	      1886	80001798	b9920717	auipc	x14,0xb9920	 x14=0x39921794
       18885000	      1887	8000179c	00dc9693	slli	x13,x25,0xd	 x25:0x00000001 x13=0x00002000
       18895000	      1888	800017a0	00150513	addi	x10,x10,1	 x10:0x00000001 x10=0x00000002
       18905000	      1889	800017a4	20edcd17	auipc	x26,0x20edc	 x26=0xa0edd7a0
       18915000	      1890	800017a8	fe4548e3	blt	x10,x4,80001798	 x10:0x00000002  x4:0x00000003
       18925000	      1891	00000000	00000013	addi	x0,x0,0	  x0:0x00000000
       18935000	      1892	80001794	00000013	addi	x0,x0,0	  x0:0x00000000
       18945000	      1893	80001798	b9920717	auipc	x14,0xb9920	 x14=0x39921794
       18955000	      1894	8000179c	00dc9693	slli	x13,x25,0xd	 x25:0x00000001 x13=0x00002000
       18965000	      1895	800017a0	00150513	addi	x10,x10,1	 x10:0x00000002 x10=0x00000003
       18975000	      1896	800017a4	20edcd17	auipc	x26,0x20edc	 x26=0xa0edd7a0
       18985000	      1897	800017a8	fe4548e3	blt	x10,x4,80001798	 x10:0x00000003  x4:0x00000003
       18995000	      1898	800017ac	487a3413	sltiu	x8,x20,1159	 x20:0x80009fc4  x8=0x00000000
       19005000	      1899	800017b0	d24dc893	xori	x17,x27,-732	 x27:0x00000001 x17=0xfffffd25
       19015000	      1900	800017b4	58934813	xori	x16,x6,1417	  x6:0x800098ee x16=0x80009d67
       19025000	      1901	800017b8	e92a6013	ori	x0,x20,-366	 x20:0x80009fc4
       19035000	      1902	800017bc	408507b3	sub	x15,x10,x8	 x10:0x00000003  x8:0x00000000 x15=0x00000003
       19045000	      1903	800017c0	fa3594e3	bne	x11,x3,80001768	 x11:0x00000011  x3:0x00000014
       19055000	      1904	00000000	00000013	addi	x0,x0,0	  x0:0x00000000
       19065000	      1905	80001764	00000013	addi	x0,x0,0	  x0:0x00000000
       19075000	      1906	80001768	3fb0ad93	slti	x27,x1,1019	  x1:0x00000011 x27=0x00000001
       19085000	      1907	8000176c	00526b33	or	x22,x4,x5	  x4:0x00000003  x5:0x00000000 x22=0x00000003
       19095000	      1908	80001770	00358593	addi	x11,x11,3	 x11:0x00000011 x11=0x00000014
       19105000	      1909	80001774	45672013	slti	x0,x14,1110	 x14:0x39921794
       19115000	      1910	80001778	f4944493	xori	x9,x8,-183	  x8:0x00000000  x9=0xffffff49
       19125000	      1911	8000177c	6bd36b13	ori	x22,x6,1725	  x6:0x800098ee x22=0x80009eff
       19135000	      1912	80001780	00c593b3	sll	x7,x11,x12	 x11:0x00000014 x12:0x00000001  x7=0x00000028
       19145000	      1913	80001784	928b4e93	xori	x29,x22,-1752	 x22:0x80009eff x29=0x7fff67d7
       19155000	      1914	80001788	00010db3	add	x27,x2,x0	  x2:0x00000001  x0:0x00000000 x27=0x00000001
       19165000	      1915	8000178c	ff800513	addi	x10,x0,-8	  x0:0x00000000 x10=0xfffffff8
       19175000	      1916	80001790	00300213	addi	x4,x0,3	  x0:0x00000000  x4=0x00000003
       19185000	      1917	80001794	01cbc333	xor	x6,x23,x28	 x23:0x000007ae x28:0x80009f40  x6=0x800098ee
       19195000	      1918	80001798	b9920717	auipc	x14,0xb9920	 x14=0x39921794
       19205000	      1919	8000179c	00dc9693	slli	x13,x25,0xd	 x25:0x00000001 x13=0x00002000
       19215000	      1920	800017a0	00150513	addi	x10,x10,1	 x10:0xfffffff8 x10=0xfffffff9
       19225000	      1921	800017a4	20edcd17	auipc	x26,0x20edc	 x26=0xa0edd7a0
       19235000	      1922	800017a8	fe4548e3	blt	x10,x4,80001798	 x10:0xfffffff9  x4:0x00000003
       19245000	      1923	00000000	00000013	addi	x0,x0,0	  x0:0x00000000
       19255000	      1924	80001794	00000013	addi	x0,x0,0	  x0:0x00000000
       19265000	      1925	80001798	b9920717	auipc	x14,0xb9920	 x14=0x39921794
       19275000	      1926	8000179c	00dc9693	slli	x13,x25,0xd	 x25:0x00000001 x13=0x00002000
       19285000	      1927	800017a0	00150513	addi	x10,x10,1	 x10:0xfffffff9 x10=0xfffffffa
       19295000	      1928	800017a4	20edcd17	auipc	x26,0x20edc	 x26=0xa0edd7a0
       19305000	      1929	800017a8	fe4548e3	blt	x10,x4,80001798	 x10:0xfffffffa  x4:0x00000003
       19315000	      1930	00000000	00000013	addi	x0,x0,0	  x0:0x00000000
       19325000	      1931	80001794	00000013	addi	x0,x0,0	  x0:0x00000000
       19335000	      1932	80001798	b9920717	auipc	x14,0xb9920	 x14=0x39921794
       19345000	      1933	8000179c	00dc9693	slli	x13,x25,0xd	 x25:0x00000001 x13=0x00002000
       19355000	      1934	800017a0	00150513	addi	x10,x10,1	 x10:0xfffffffa x10=0xfffffffb
       19365000	      1935	800017a4	20edcd17	auipc	x26,0x20edc	 x26=0xa0edd7a0
       19375000	      1936	800017a8	fe4548e3	blt	x10,x4,80001798	 x10:0xfffffffb  x4:0x00000003
       19385000	      1937	00000000	00000013	addi	x0,x0,0	  x0:0x00000000
       19395000	      1938	80001794	00000013	addi	x0,x0,0	  x0:0x00000000
       19405000	      1939	80001798	b9920717	auipc	x14,0xb9920	 x14=0x39921794
       19415000	      1940	8000179c	00dc9693	slli	x13,x25,0xd	 x25:0x00000001 x13=0x00002000
       19425000	      1941	800017a0	00150513	addi	x10,x10,1	 x10:0xfffffffb x10=0xfffffffc
       19435000	      1942	800017a4	20edcd17	auipc	x26,0x20edc	 x26=0xa0edd7a0
       19445000	      1943	800017a8	fe4548e3	blt	x10,x4,80001798	 x10:0xfffffffc  x4:0x00000003
       19455000	      1944	00000000	00000013	addi	x0,x0,0	  x0:0x00000000
       19465000	      1945	80001794	00000013	addi	x0,x0,0	  x0:0x00000000
       19475000	      1946	80001798	b9920717	auipc	x14,0xb9920	 x14=0x39921794
       19485000	      1947	8000179c	00dc9693	slli	x13,x25,0xd	 x25:0x00000001 x13=0x00002000
       19495000	      1948	800017a0	00150513	addi	x10,x10,1	 x10:0xfffffffc x10=0xfffffffd
       19505000	      1949	800017a4	20edcd17	auipc	x26,0x20edc	 x26=0xa0edd7a0
       19515000	      1950	800017a8	fe4548e3	blt	x10,x4,80001798	 x10:0xfffffffd  x4:0x00000003
       19525000	      1951	00000000	00000013	addi	x0,x0,0	  x0:0x00000000
       19535000	      1952	80001794	00000013	addi	x0,x0,0	  x0:0x00000000
       19545000	      1953	80001798	b9920717	auipc	x14,0xb9920	 x14=0x39921794
       19555000	      1954	8000179c	00dc9693	slli	x13,x25,0xd	 x25:0x00000001 x13=0x00002000
       19565000	      1955	800017a0	00150513	addi	x10,x10,1	 x10:0xfffffffd x10=0xfffffffe
       19575000	      1956	800017a4	20edcd17	auipc	x26,0x20edc	 x26=0xa0edd7a0
       19585000	      1957	800017a8	fe4548e3	blt	x10,x4,80001798	 x10:0xfffffffe  x4:0x00000003
       19595000	      1958	00000000	00000013	addi	x0,x0,0	  x0:0x00000000
       19605000	      1959	80001794	00000013	addi	x0,x0,0	  x0:0x00000000
       19615000	      1960	80001798	b9920717	auipc	x14,0xb9920	 x14=0x39921794
       19625000	      1961	8000179c	00dc9693	slli	x13,x25,0xd	 x25:0x00000001 x13=0x00002000
       19635000	      1962	800017a0	00150513	addi	x10,x10,1	 x10:0xfffffffe x10=0xffffffff
       19645000	      1963	800017a4	20edcd17	auipc	x26,0x20edc	 x26=0xa0edd7a0
       19655000	      1964	800017a8	fe4548e3	blt	x10,x4,80001798	 x10:0xffffffff  x4:0x00000003
       19665000	      1965	00000000	00000013	addi	x0,x0,0	  x0:0x00000000
       19675000	      1966	80001794	00000013	addi	x0,x0,0	  x0:0x00000000
       19685000	      1967	80001798	b9920717	auipc	x14,0xb9920	 x14=0x39921794
       19695000	      1968	8000179c	00dc9693	slli	x13,x25,0xd	 x25:0x00000001 x13=0x00002000
       19705000	      1969	800017a0	00150513	addi	x10,x10,1	 x10:0xffffffff x10=0x00000000
       19715000	      1970	800017a4	20edcd17	auipc	x26,0x20edc	 x26=0xa0edd7a0
       19725000	      1971	800017a8	fe4548e3	blt	x10,x4,80001798	 x10:0x00000000  x4:0x00000003
       19735000	      1972	00000000	00000013	addi	x0,x0,0	  x0:0x00000000
       19745000	      1973	80001794	00000013	addi	x0,x0,0	  x0:0x00000000
       19755000	      1974	80001798	b9920717	auipc	x14,0xb9920	 x14=0x39921794
       19765000	      1975	8000179c	00dc9693	slli	x13,x25,0xd	 x25:0x00000001 x13=0x00002000
       19775000	      1976	800017a0	00150513	addi	x10,x10,1	 x10:0x00000000 x10=0x00000001
       19785000	      1977	800017a4	20edcd17	auipc	x26,0x20edc	 x26=0xa0edd7a0
       19795000	      1978	800017a8	fe4548e3	blt	x10,x4,80001798	 x10:0x00000001  x4:0x00000003
       19805000	      1979	00000000	00000013	addi	x0,x0,0	  x0:0x00000000
       19815000	      1980	80001794	00000013	addi	x0,x0,0	  x0:0x00000000
       19825000	      1981	80001798	b9920717	auipc	x14,0xb9920	 x14=0x39921794
       19835000	      1982	8000179c	00dc9693	slli	x13,x25,0xd	 x25:0x00000001 x13=0x00002000
       19845000	      1983	800017a0	00150513	addi	x10,x10,1	 x10:0x00000001 x10=0x00000002
       19855000	      1984	800017a4	20edcd17	auipc	x26,0x20edc	 x26=0xa0edd7a0
       19865000	      1985	800017a8	fe4548e3	blt	x10,x4,80001798	 x10:0x00000002  x4:0x00000003
       19875000	      1986	00000000	00000013	addi	x0,x0,0	  x0:0x00000000
       19885000	      1987	80001794	00000013	addi	x0,x0,0	  x0:0x00000000
       19895000	      1988	80001798	b9920717	auipc	x14,0xb9920	 x14=0x39921794
       19905000	      1989	8000179c	00dc9693	slli	x13,x25,0xd	 x25:0x00000001 x13=0x00002000
       19915000	      1990	800017a0	00150513	addi	x10,x10,1	 x10:0x00000002 x10=0x00000003
       19925000	      1991	800017a4	20edcd17	auipc	x26,0x20edc	 x26=0xa0edd7a0
       19935000	      1992	800017a8	fe4548e3	blt	x10,x4,80001798	 x10:0x00000003  x4:0x00000003
       19945000	      1993	800017ac	487a3413	sltiu	x8,x20,1159	 x20:0x80009fc4  x8=0x00000000
       19955000	      1994	800017b0	d24dc893	xori	x17,x27,-732	 x27:0x00000001 x17=0xfffffd25
       19965000	      1995	800017b4	58934813	xori	x16,x6,1417	  x6:0x800098ee x16=0x80009d67
       19975000	      1996	800017b8	e92a6013	ori	x0,x20,-366	 x20:0x80009fc4
       19985000	      1997	800017bc	408507b3	sub	x15,x10,x8	 x10:0x00000003  x8:0x00000000 x15=0x00000003
       19995000	      1998	800017c0	fa3594e3	bne	x11,x3,80001768	 x11:0x00000014  x3:0x00000014
       20005000	      1999	800017c4	012b36b3	sltu	x13,x22,x18	 x22:0x80009eff x18:0x00000011 x13=0x00000000
       20015000	      2000	800017c8	00400093	addi	x1,x0,4	  x0:0x00000000  x1=0x00000004
       20025000	      2001	800017cc	009366b3	or	x13,x6,x9	  x6:0x800098ee  x9:0xffffff49 x13=0xffffffef
       20035000	      2002	800017d0	40f40933	sub	x18,x8,x15	  x8:0x00000000 x15:0x00000003 x18=0xfffffffd
       20045000	      2003	800017d4	ff600193	addi	x3,x0,-10	  x0:0x00000000  x3=0xfffffff6
       20055000	      2004	800017d8	0012f833	and	x16,x5,x1	  x5:0x00000000  x1:0x00000004 x16=0x00000000
       20065000	      2005	800017dc	012a39b3	sltu	x19,x20,x18	 x20:0x80009fc4 x18:0xfffffffd x19=0x00000001
       20075000	      2006	800017e0	84d1fd13	andi	x26,x3,-1971	  x3:0xfffffff6 x26=0xfffff844
       20085000	      2007	800017e4	ffe08093	addi	x1,x1,-2	  x1:0x00000004  x1=0x00000002
       20095000	      2008	800017e8	c2f52c13	slti	x24,x10,-977	 x10:0x00000003 x24=0x00000000
       20105000	      2009	800017ec	ffa00413	addi	x8,x0,-6	  x0:0x00000000  x8=0xfffffffa
       20115000	      2010	800017f0	01067633	and	x12,x12,x16	 x12:0x00000001 x16:0x00000000 x12=0x00000000
       20125000	      2011	800017f4	ff100213	addi	x4,x0,-15	  x0:0x00000000  x4=0xfffffff1
       20135000	      2012	800017f8	00000013	addi	x0,x0,0	  x0:0x00000000
       20145000	      2013	800017fc	005eb933	sltu	x18,x29,x5	 x29:0x7fff67d7  x5:0x00000000 x18=0x00000000
       20155000	      2014	80001800	84b64397	auipc	x7,0x84b64	  x7=0x04b657fc
       20165000	      2015	80001804	00000013	addi	x0,x0,0	  x0:0x00000000
       20175000	      2016	80001808	402a5d13	srai	x26,x20,0x2	 x20:0x80009fc4 x26=0xe00027f1
       20185000	      2017	8000180c	ff740413	addi	x8,x8,-9	  x8:0xfffffffa  x8=0xfffffff1
       20195000	      2018	80001810	17416593	ori	x11,x2,372	  x2:0x00000001 x11=0x00000175
       20205000	      2019	80001814	fe4418e3	bne	x8,x4,80001804	  x8:0xfffffff1  x4:0xfffffff1
       20215000	      2020	80001818	00000013	addi	x0,x0,0	  x0:0x00000000
       20225000	      2021	8000181c	fa30dee3	bge	x1,x3,800017d8	  x1:0x00000002  x3:0xfffffff6
       20235000	      2022	00000000	00000013	addi	x0,x0,0	  x0:0x00000000
       20245000	      2023	800017d4	00000013	addi	x0,x0,0	  x0:0x00000000
       20255000	      2024	800017d8	0012f833	and	x16,x5,x1	  x5:0x00000000  x1:0x00000002 x16=0x00000000
       20265000	      2025	800017dc	012a39b3	sltu	x19,x20,x18	 x20:0x80009fc4 x18:0x00000000 x19=0x00000000
       20275000	      2026	800017e0	84d1fd13	andi	x26,x3,-1971	  x3:0xfffffff6 x26=0xfffff844
       20285000	      2027	800017e4	ffe08093	addi	x1,x1,-2	  x1:0x00000002  x1=0x00000000
       20295000	      2028	800017e8	c2f52c13	slti	x24,x10,-977	 x10:0x00000003 x24=0x00000000
       20305000	      2029	800017ec	ffa00413	addi	x8,x0,-6	  x0:0x00000000  x8=0xfffffffa
       20315000	      2030	800017f0	01067633	and	x12,x12,x16	 x12:0x00000000 x16:0x00000000 x12=0x00000000
       20325000	      2031	800017f4	ff100213	addi	x4,x0,-15	  x0:0x00000000  x4=0xfffffff1
       20335000	      2032	800017f8	00000013	addi	x0,x0,0	  x0:0x00000000
       20345000	      2033	800017fc	005eb933	sltu	x18,x29,x5	 x29:0x7fff67d7  x5:0x00000000 x18=0x00000000
       20355000	      2034	80001800	84b64397	auipc	x7,0x84b64	  x7=0x04b657fc
       20365000	      2035	80001804	00000013	addi	x0,x0,0	  x0:0x00000000
       20375000	      2036	80001808	402a5d13	srai	x26,x20,0x2	 x20:0x80009fc4 x26=0xe00027f1
       20385000	      2037	8000180c	ff740413	addi	x8,x8,-9	  x8:0xfffffffa  x8=0xfffffff1
       20395000	      2038	80001810	17416593	ori	x11,x2,372	  x2:0x00000001 x11=0x00000175
       20405000	      2039	80001814	fe4418e3	bne	x8,x4,80001804	  x8:0xfffffff1  x4:0xfffffff1
       20415000	      2040	80001818	00000013	addi	x0,x0,0	  x0:0x00000000
       20425000	      2041	8000181c	fa30dee3	bge	x1,x3,800017d8	  x1:0x00000000  x3:0xfffffff6
       20435000	      2042	00000000	00000013	addi	x0,x0,0	  x0:0x00000000
       20445000	      2043	800017d4	00000013	addi	x0,x0,0	  x0:0x00000000
       20455000	      2044	800017d8	0012f833	and	x16,x5,x1	  x5:0x00000000  x1:0x00000000 x16=0x00000000
       20465000	      2045	800017dc	012a39b3	sltu	x19,x20,x18	 x20:0x80009fc4 x18:0x00000000 x19=0x00000000
       20475000	      2046	800017e0	84d1fd13	andi	x26,x3,-1971	  x3:0xfffffff6 x26=0xfffff844
       20485000	      2047	800017e4	ffe08093	addi	x1,x1,-2	  x1:0x00000000  x1=0xfffffffe
       20495000	      2048	800017e8	c2f52c13	slti	x24,x10,-977	 x10:0x00000003 x24=0x00000000
       20505000	      2049	800017ec	ffa00413	addi	x8,x0,-6	  x0:0x00000000  x8=0xfffffffa
       20515000	      2050	800017f0	01067633	and	x12,x12,x16	 x12:0x00000000 x16:0x00000000 x12=0x00000000
       20525000	      2051	800017f4	ff100213	addi	x4,x0,-15	  x0:0x00000000  x4=0xfffffff1
       20535000	      2052	800017f8	00000013	addi	x0,x0,0	  x0:0x00000000
       20545000	      2053	800017fc	005eb933	sltu	x18,x29,x5	 x29:0x7fff67d7  x5:0x00000000 x18=0x00000000
       20555000	      2054	80001800	84b64397	auipc	x7,0x84b64	  x7=0x04b657fc
       20565000	      2055	80001804	00000013	addi	x0,x0,0	  x0:0x00000000
       20575000	      2056	80001808	402a5d13	srai	x26,x20,0x2	 x20:0x80009fc4 x26=0xe00027f1
       20585000	      2057	8000180c	ff740413	addi	x8,x8,-9	  x8:0xfffffffa  x8=0xfffffff1
       20595000	      2058	80001810	17416593	ori	x11,x2,372	  x2:0x00000001 x11=0x00000175
       20605000	      2059	80001814	fe4418e3	bne	x8,x4,80001804	  x8:0xfffffff1  x4:0xfffffff1
       20615000	      2060	80001818	00000013	addi	x0,x0,0	  x0:0x00000000
       20625000	      2061	8000181c	fa30dee3	bge	x1,x3,800017d8	  x1:0xfffffffe  x3:0xfffffff6
       20635000	      2062	00000000	00000013	addi	x0,x0,0	  x0:0x00000000
       20645000	      2063	800017d4	00000013	addi	x0,x0,0	  x0:0x00000000
       20655000	      2064	800017d8	0012f833	and	x16,x5,x1	  x5:0x00000000  x1:0xfffffffe x16=0x00000000
       20665000	      2065	800017dc	012a39b3	sltu	x19,x20,x18	 x20:0x80009fc4 x18:0x00000000 x19=0x00000000
       20675000	      2066	800017e0	84d1fd13	andi	x26,x3,-1971	  x3:0xfffffff6 x26=0xfffff844
       20685000	      2067	800017e4	ffe08093	addi	x1,x1,-2	  x1:0xfffffffe  x1=0xfffffffc
       20695000	      2068	800017e8	c2f52c13	slti	x24,x10,-977	 x10:0x00000003 x24=0x00000000
       20705000	      2069	800017ec	ffa00413	addi	x8,x0,-6	  x0:0x00000000  x8=0xfffffffa
       20715000	      2070	800017f0	01067633	and	x12,x12,x16	 x12:0x00000000 x16:0x00000000 x12=0x00000000
       20725000	      2071	800017f4	ff100213	addi	x4,x0,-15	  x0:0x00000000  x4=0xfffffff1
       20735000	      2072	800017f8	00000013	addi	x0,x0,0	  x0:0x00000000
       20745000	      2073	800017fc	005eb933	sltu	x18,x29,x5	 x29:0x7fff67d7  x5:0x00000000 x18=0x00000000
       20755000	      2074	80001800	84b64397	auipc	x7,0x84b64	  x7=0x04b657fc
       20765000	      2075	80001804	00000013	addi	x0,x0,0	  x0:0x00000000
       20775000	      2076	80001808	402a5d13	srai	x26,x20,0x2	 x20:0x80009fc4 x26=0xe00027f1
       20785000	      2077	8000180c	ff740413	addi	x8,x8,-9	  x8:0xfffffffa  x8=0xfffffff1
       20795000	      2078	80001810	17416593	ori	x11,x2,372	  x2:0x00000001 x11=0x00000175
       20805000	      2079	80001814	fe4418e3	bne	x8,x4,80001804	  x8:0xfffffff1  x4:0xfffffff1
       20815000	      2080	80001818	00000013	addi	x0,x0,0	  x0:0x00000000
       20825000	      2081	8000181c	fa30dee3	bge	x1,x3,800017d8	  x1:0xfffffffc  x3:0xfffffff6
       20835000	      2082	00000000	00000013	addi	x0,x0,0	  x0:0x00000000
       20845000	      2083	800017d4	00000013	addi	x0,x0,0	  x0:0x00000000
       20855000	      2084	800017d8	0012f833	and	x16,x5,x1	  x5:0x00000000  x1:0xfffffffc x16=0x00000000
       20865000	      2085	800017dc	012a39b3	sltu	x19,x20,x18	 x20:0x80009fc4 x18:0x00000000 x19=0x00000000
       20875000	      2086	800017e0	84d1fd13	andi	x26,x3,-1971	  x3:0xfffffff6 x26=0xfffff844
       20885000	      2087	800017e4	ffe08093	addi	x1,x1,-2	  x1:0xfffffffc  x1=0xfffffffa
       20895000	      2088	800017e8	c2f52c13	slti	x24,x10,-977	 x10:0x00000003 x24=0x00000000
       20905000	      2089	800017ec	ffa00413	addi	x8,x0,-6	  x0:0x00000000  x8=0xfffffffa
       20915000	      2090	800017f0	01067633	and	x12,x12,x16	 x12:0x00000000 x16:0x00000000 x12=0x00000000
       20925000	      2091	800017f4	ff100213	addi	x4,x0,-15	  x0:0x00000000  x4=0xfffffff1
       20935000	      2092	800017f8	00000013	addi	x0,x0,0	  x0:0x00000000
       20945000	      2093	800017fc	005eb933	sltu	x18,x29,x5	 x29:0x7fff67d7  x5:0x00000000 x18=0x00000000
       20955000	      2094	80001800	84b64397	auipc	x7,0x84b64	  x7=0x04b657fc
       20965000	      2095	80001804	00000013	addi	x0,x0,0	  x0:0x00000000
       20975000	      2096	80001808	402a5d13	srai	x26,x20,0x2	 x20:0x80009fc4 x26=0xe00027f1
       20985000	      2097	8000180c	ff740413	addi	x8,x8,-9	  x8:0xfffffffa  x8=0xfffffff1
       20995000	      2098	80001810	17416593	ori	x11,x2,372	  x2:0x00000001 x11=0x00000175
       21005000	      2099	80001814	fe4418e3	bne	x8,x4,80001804	  x8:0xfffffff1  x4:0xfffffff1
       21015000	      2100	80001818	00000013	addi	x0,x0,0	  x0:0x00000000
       21025000	      2101	8000181c	fa30dee3	bge	x1,x3,800017d8	  x1:0xfffffffa  x3:0xfffffff6
       21035000	      2102	00000000	00000013	addi	x0,x0,0	  x0:0x00000000
       21045000	      2103	800017d4	00000013	addi	x0,x0,0	  x0:0x00000000
       21055000	      2104	800017d8	0012f833	and	x16,x5,x1	  x5:0x00000000  x1:0xfffffffa x16=0x00000000
       21065000	      2105	800017dc	012a39b3	sltu	x19,x20,x18	 x20:0x80009fc4 x18:0x00000000 x19=0x00000000
       21075000	      2106	800017e0	84d1fd13	andi	x26,x3,-1971	  x3:0xfffffff6 x26=0xfffff844
       21085000	      2107	800017e4	ffe08093	addi	x1,x1,-2	  x1:0xfffffffa  x1=0xfffffff8
       21095000	      2108	800017e8	c2f52c13	slti	x24,x10,-977	 x10:0x00000003 x24=0x00000000
       21105000	      2109	800017ec	ffa00413	addi	x8,x0,-6	  x0:0x00000000  x8=0xfffffffa
       21115000	      2110	800017f0	01067633	and	x12,x12,x16	 x12:0x00000000 x16:0x00000000 x12=0x00000000
       21125000	      2111	800017f4	ff100213	addi	x4,x0,-15	  x0:0x00000000  x4=0xfffffff1
       21135000	      2112	800017f8	00000013	addi	x0,x0,0	  x0:0x00000000
       21145000	      2113	800017fc	005eb933	sltu	x18,x29,x5	 x29:0x7fff67d7  x5:0x00000000 x18=0x00000000
       21155000	      2114	80001800	84b64397	auipc	x7,0x84b64	  x7=0x04b657fc
       21165000	      2115	80001804	00000013	addi	x0,x0,0	  x0:0x00000000
       21175000	      2116	80001808	402a5d13	srai	x26,x20,0x2	 x20:0x80009fc4 x26=0xe00027f1
       21185000	      2117	8000180c	ff740413	addi	x8,x8,-9	  x8:0xfffffffa  x8=0xfffffff1
       21195000	      2118	80001810	17416593	ori	x11,x2,372	  x2:0x00000001 x11=0x00000175
       21205000	      2119	80001814	fe4418e3	bne	x8,x4,80001804	  x8:0xfffffff1  x4:0xfffffff1
       21215000	      2120	80001818	00000013	addi	x0,x0,0	  x0:0x00000000
       21225000	      2121	8000181c	fa30dee3	bge	x1,x3,800017d8	  x1:0xfffffff8  x3:0xfffffff6
       21235000	      2122	00000000	00000013	addi	x0,x0,0	  x0:0x00000000
       21245000	      2123	800017d4	00000013	addi	x0,x0,0	  x0:0x00000000
       21255000	      2124	800017d8	0012f833	and	x16,x5,x1	  x5:0x00000000  x1:0xfffffff8 x16=0x00000000
       21265000	      2125	800017dc	012a39b3	sltu	x19,x20,x18	 x20:0x80009fc4 x18:0x00000000 x19=0x00000000
       21275000	      2126	800017e0	84d1fd13	andi	x26,x3,-1971	  x3:0xfffffff6 x26=0xfffff844
       21285000	      2127	800017e4	ffe08093	addi	x1,x1,-2	  x1:0xfffffff8  x1=0xfffffff6
       21295000	      2128	800017e8	c2f52c13	slti	x24,x10,-977	 x10:0x00000003 x24=0x00000000
       21305000	      2129	800017ec	ffa00413	addi	x8,x0,-6	  x0:0x00000000  x8=0xfffffffa
       21315000	      2130	800017f0	01067633	and	x12,x12,x16	 x12:0x00000000 x16:0x00000000 x12=0x00000000
       21325000	      2131	800017f4	ff100213	addi	x4,x0,-15	  x0:0x00000000  x4=0xfffffff1
       21335000	      2132	800017f8	00000013	addi	x0,x0,0	  x0:0x00000000
       21345000	      2133	800017fc	005eb933	sltu	x18,x29,x5	 x29:0x7fff67d7  x5:0x00000000 x18=0x00000000
       21355000	      2134	80001800	84b64397	auipc	x7,0x84b64	  x7=0x04b657fc
       21365000	      2135	80001804	00000013	addi	x0,x0,0	  x0:0x00000000
       21375000	      2136	80001808	402a5d13	srai	x26,x20,0x2	 x20:0x80009fc4 x26=0xe00027f1
       21385000	      2137	8000180c	ff740413	addi	x8,x8,-9	  x8:0xfffffffa  x8=0xfffffff1
       21395000	      2138	80001810	17416593	ori	x11,x2,372	  x2:0x00000001 x11=0x00000175
       21405000	      2139	80001814	fe4418e3	bne	x8,x4,80001804	  x8:0xfffffff1  x4:0xfffffff1
       21415000	      2140	80001818	00000013	addi	x0,x0,0	  x0:0x00000000
       21425000	      2141	8000181c	fa30dee3	bge	x1,x3,800017d8	  x1:0xfffffff6  x3:0xfffffff6
       21435000	      2142	00000000	00000013	addi	x0,x0,0	  x0:0x00000000
       21445000	      2143	800017d4	00000013	addi	x0,x0,0	  x0:0x00000000
       21455000	      2144	800017d8	0012f833	and	x16,x5,x1	  x5:0x00000000  x1:0xfffffff6 x16=0x00000000
       21465000	      2145	800017dc	012a39b3	sltu	x19,x20,x18	 x20:0x80009fc4 x18:0x00000000 x19=0x00000000
       21475000	      2146	800017e0	84d1fd13	andi	x26,x3,-1971	  x3:0xfffffff6 x26=0xfffff844
       21485000	      2147	800017e4	ffe08093	addi	x1,x1,-2	  x1:0xfffffff6  x1=0xfffffff4
       21495000	      2148	800017e8	c2f52c13	slti	x24,x10,-977	 x10:0x00000003 x24=0x00000000
       21505000	      2149	800017ec	ffa00413	addi	x8,x0,-6	  x0:0x00000000  x8=0xfffffffa
       21515000	      2150	800017f0	01067633	and	x12,x12,x16	 x12:0x00000000 x16:0x00000000 x12=0x00000000
       21525000	      2151	800017f4	ff100213	addi	x4,x0,-15	  x0:0x00000000  x4=0xfffffff1
       21535000	      2152	800017f8	00000013	addi	x0,x0,0	  x0:0x00000000
       21545000	      2153	800017fc	005eb933	sltu	x18,x29,x5	 x29:0x7fff67d7  x5:0x00000000 x18=0x00000000
       21555000	      2154	80001800	84b64397	auipc	x7,0x84b64	  x7=0x04b657fc
       21565000	      2155	80001804	00000013	addi	x0,x0,0	  x0:0x00000000
       21575000	      2156	80001808	402a5d13	srai	x26,x20,0x2	 x20:0x80009fc4 x26=0xe00027f1
       21585000	      2157	8000180c	ff740413	addi	x8,x8,-9	  x8:0xfffffffa  x8=0xfffffff1
       21595000	      2158	80001810	17416593	ori	x11,x2,372	  x2:0x00000001 x11=0x00000175
       21605000	      2159	80001814	fe4418e3	bne	x8,x4,80001804	  x8:0xfffffff1  x4:0xfffffff1
       21615000	      2160	80001818	00000013	addi	x0,x0,0	  x0:0x00000000
       21625000	      2161	8000181c	fa30dee3	bge	x1,x3,800017d8	  x1:0xfffffff4  x3:0xfffffff6
       21635000	      2162	80001820	01fc8633	add	x12,x25,x31	 x25:0x00000001 x31:0x80000000 x12=0x80000001
       21645000	      2163	80001824	ff700c13	addi	x24,x0,-9	  x0:0x00000000 x24=0xfffffff7
       21655000	      2164	80001828	41e2d1b3	sra	x3,x5,x30	  x5:0x00000000 x30:0x00000000  x3=0x00000000
       21665000	      2165	8000182c	40dd5813	srai	x16,x26,0xd	 x26:0xe00027f1 x16=0xffff0001
       21675000	      2166	80001830	019afdb3	and	x27,x21,x25	 x21:0x0000000e x25:0x00000001 x27=0x00000000
       21685000	      2167	80001834	009c5013	srli	x0,x24,0x9	 x24:0xfffffff7
       21695000	      2168	80001838	a30da713	slti	x14,x27,-1488	 x27:0x00000000 x14=0x00000000
       21705000	      2169	8000183c	0803a013	slti	x0,x7,128	  x7:0x04b657fc
       21715000	      2170	80001840	4133d613	srai	x12,x7,0x13	  x7:0x04b657fc x12=0x00000096
       21725000	      2171	80001844	00000013	addi	x0,x0,0	  x0:0x00000000
       21735000	      2172	80001848	01a798b3	sll	x17,x15,x26	 x15:0x00000003 x26:0xe00027f1 x17=0x00060000
       21745000	      2173	8000184c	01812933	slt	x18,x2,x24	  x2:0x00000001 x24:0xfffffff7 x18=0x00000000
       21755000	      2174	80001850	00b00f13	addi	x30,x0,11	  x0:0x00000000 x30=0x0000000b
       21765000	      2175	80001854	01218bb3	add	x23,x3,x18	  x3:0x00000000 x18:0x00000000 x23=0x00000000
       21775000	      2176	80001858	4066d993	srai	x19,x13,0x6	 x13:0xffffffef x19=0xffffffff
       21785000	      2177	8000185c	01bca133	slt	x2,x25,x27	 x25:0x00000001 x27:0x00000000  x2=0x00000000
       21795000	      2178	80001860	01d9ab33	slt	x22,x19,x29	 x19:0xffffffff x29:0x7fff67d7 x22=0x00000001
       21805000	      2179	80001864	41b4ddb3	sra	x27,x9,x27	  x9:0xffffff49 x27:0x00000000 x27=0xffffff49
       21815000	      2180	80001868	0075b8b3	sltu	x17,x11,x7	 x11:0x00000175  x7:0x04b657fc x17=0x00000001
       21825000	      2181	8000186c	00a55b33	srl	x22,x10,x10	 x10:0x00000003 x10:0x00000003 x22=0x00000000
       21835000	      2182	80001870	0027eb33	or	x22,x15,x2	 x15:0x00000003  x2:0x00000000 x22=0x00000003
       21845000	      2183	80001874	01bf30b3	sltu	x1,x30,x27	 x30:0x0000000b x27:0xffffff49  x1=0x00000001
       21855000	      2184	80001878	00ac0c13	addi	x24,x24,10	 x24:0xfffffff7 x24=0x00000001
       21865000	      2185	8000187c	41375033	sra	x0,x14,x19	 x14:0x00000000 x19:0xffffffff
       21875000	      2186	80001880	017608b3	add	x17,x12,x23	 x12:0x00000096 x23:0x00000000 x17=0x00000096
       21885000	      2187	80001884	fdec6ce3	bltu	x24,x30,8000185c	 x24:0x00000001 x30:0x0000000b
       21895000	      2188	00000000	00000013	addi	x0,x0,0	  x0:0x00000000
       21905000	      2189	80001858	00000013	addi	x0,x0,0	  x0:0x00000000
       21915000	      2190	8000185c	01bca133	slt	x2,x25,x27	 x25:0x00000001 x27:0xffffff49  x2=0x00000000
       21925000	      2191	80001860	01d9ab33	slt	x22,x19,x29	 x19:0xffffffff x29:0x7fff67d7 x22=0x00000001
       21935000	      2192	80001864	41b4ddb3	sra	x27,x9,x27	  x9:0xffffff49 x27:0xffffff49 x27=0xffffffff
       21945000	      2193	80001868	0075b8b3	sltu	x17,x11,x7	 x11:0x00000175  x7:0x04b657fc x17=0x00000001
       21955000	      2194	8000186c	00a55b33	srl	x22,x10,x10	 x10:0x00000003 x10:0x00000003 x22=0x00000000
       21965000	      2195	80001870	0027eb33	or	x22,x15,x2	 x15:0x00000003  x2:0x00000000 x22=0x00000003
       21975000	      2196	80001874	01bf30b3	sltu	x1,x30,x27	 x30:0x0000000b x27:0xffffffff  x1=0x00000001
       21985000	      2197	80001878	00ac0c13	addi	x24,x24,10	 x24:0x00000001 x24=0x0000000b
       21995000	      2198	8000187c	41375033	sra	x0,x14,x19	 x14:0x00000000 x19:0xffffffff
       22005000	      2199	80001880	017608b3	add	x17,x12,x23	 x12:0x00000096 x23:0x00000000 x17=0x00000096
       22015000	      2200	80001884	fdec6ce3	bltu	x24,x30,8000185c	 x24:0x0000000b x30:0x0000000b
       22025000	      2201	80001888	40125c93	srai	x25,x4,0x1	  x4:0xfffffff1 x25=0xfffffff8
       22035000	      2202	8000188c	00300c93	addi	x25,x0,3	  x0:0x00000000 x25=0x00000003
       22045000	      2203	80001890	00e00b13	addi	x22,x0,14	  x0:0x00000000 x22=0x0000000e
       22055000	      2204	80001894	00776f33	or	x30,x14,x7	 x14:0x00000000  x7:0x04b657fc x30=0x04b657fc
       22065000	      2205	80001898	002c8c93	addi	x25,x25,2	 x25:0x00000003 x25=0x00000005
       22075000	      2206	8000189c	00a00313	addi	x6,x0,10	  x0:0x00000000  x6=0x0000000a
       22085000	      2207	800018a0	00a00913	addi	x18,x0,10	  x0:0x00000000 x18=0x0000000a
       22095000	      2208	800018a4	b029ad93	slti	x27,x19,-1278	 x19:0xffffffff x27=0x00000000
       22105000	      2209	800018a8	b1d3e713	ori	x14,x7,-1251	  x7:0x04b657fc x14=0xfffffffd
       22115000	      2210	800018ac	ff730313	addi	x6,x6,-9	  x6:0x0000000a  x6=0x00000001
       22125000	      2211	800018b0	ff237ae3	bgeu	x6,x18,800018a4	  x6:0x00000001 x18:0x0000000a
       22135000	      2212	800018b4	ff6cc0e3	blt	x25,x22,80001894	 x25:0x00000005 x22:0x0000000e
       22145000	      2213	00000000	00000013	addi	x0,x0,0	  x0:0x00000000
       22155000	      2214	80001890	00000013	addi	x0,x0,0	  x0:0x00000000
       22165000	      2215	80001894	00776f33	or	x30,x14,x7	 x14:0xfffffffd  x7:0x04b657fc x30=0xfffffffd
       22175000	      2216	80001898	002c8c93	addi	x25,x25,2	 x25:0x00000005 x25=0x00000007
       22185000	      2217	8000189c	00a00313	addi	x6,x0,10	  x0:0x00000000  x6=0x0000000a
       22195000	      2218	800018a0	00a00913	addi	x18,x0,10	  x0:0x00000000 x18=0x0000000a
       22205000	      2219	800018a4	b029ad93	slti	x27,x19,-1278	 x19:0xffffffff x27=0x00000000
       22215000	      2220	800018a8	b1d3e713	ori	x14,x7,-1251	  x7:0x04b657fc x14=0xfffffffd
       22225000	      2221	800018ac	ff730313	addi	x6,x6,-9	  x6:0x0000000a  x6=0x00000001
       22235000	      2222	800018b0	ff237ae3	bgeu	x6,x18,800018a4	  x6:0x00000001 x18:0x0000000a
       22245000	      2223	800018b4	ff6cc0e3	blt	x25,x22,80001894	 x25:0x00000007 x22:0x0000000e
       22255000	      2224	00000000	00000013	addi	x0,x0,0	  x0:0x00000000
       22265000	      2225	80001890	00000013	addi	x0,x0,0	  x0:0x00000000
       22275000	      2226	80001894	00776f33	or	x30,x14,x7	 x14:0xfffffffd  x7:0x04b657fc x30=0xfffffffd
       22285000	      2227	80001898	002c8c93	addi	x25,x25,2	 x25:0x00000007 x25=0x00000009
       22295000	      2228	8000189c	00a00313	addi	x6,x0,10	  x0:0x00000000  x6=0x0000000a
       22305000	      2229	800018a0	00a00913	addi	x18,x0,10	  x0:0x00000000 x18=0x0000000a
       22315000	      2230	800018a4	b029ad93	slti	x27,x19,-1278	 x19:0xffffffff x27=0x00000000
       22325000	      2231	800018a8	b1d3e713	ori	x14,x7,-1251	  x7:0x04b657fc x14=0xfffffffd
       22335000	      2232	800018ac	ff730313	addi	x6,x6,-9	  x6:0x0000000a  x6=0x00000001
       22345000	      2233	800018b0	ff237ae3	bgeu	x6,x18,800018a4	  x6:0x00000001 x18:0x0000000a
       22355000	      2234	800018b4	ff6cc0e3	blt	x25,x22,80001894	 x25:0x00000009 x22:0x0000000e
       22365000	      2235	00000000	00000013	addi	x0,x0,0	  x0:0x00000000
       22375000	      2236	80001890	00000013	addi	x0,x0,0	  x0:0x00000000
       22385000	      2237	80001894	00776f33	or	x30,x14,x7	 x14:0xfffffffd  x7:0x04b657fc x30=0xfffffffd
       22395000	      2238	80001898	002c8c93	addi	x25,x25,2	 x25:0x00000009 x25=0x0000000b
       22405000	      2239	8000189c	00a00313	addi	x6,x0,10	  x0:0x00000000  x6=0x0000000a
       22415000	      2240	800018a0	00a00913	addi	x18,x0,10	  x0:0x00000000 x18=0x0000000a
       22425000	      2241	800018a4	b029ad93	slti	x27,x19,-1278	 x19:0xffffffff x27=0x00000000
       22435000	      2242	800018a8	b1d3e713	ori	x14,x7,-1251	  x7:0x04b657fc x14=0xfffffffd
       22445000	      2243	800018ac	ff730313	addi	x6,x6,-9	  x6:0x0000000a  x6=0x00000001
       22455000	      2244	800018b0	ff237ae3	bgeu	x6,x18,800018a4	  x6:0x00000001 x18:0x0000000a
       22465000	      2245	800018b4	ff6cc0e3	blt	x25,x22,80001894	 x25:0x0000000b x22:0x0000000e
       22475000	      2246	00000000	00000013	addi	x0,x0,0	  x0:0x00000000
       22485000	      2247	80001890	00000013	addi	x0,x0,0	  x0:0x00000000
       22495000	      2248	80001894	00776f33	or	x30,x14,x7	 x14:0xfffffffd  x7:0x04b657fc x30=0xfffffffd
       22505000	      2249	80001898	002c8c93	addi	x25,x25,2	 x25:0x0000000b x25=0x0000000d
       22515000	      2250	8000189c	00a00313	addi	x6,x0,10	  x0:0x00000000  x6=0x0000000a
       22525000	      2251	800018a0	00a00913	addi	x18,x0,10	  x0:0x00000000 x18=0x0000000a
       22535000	      2252	800018a4	b029ad93	slti	x27,x19,-1278	 x19:0xffffffff x27=0x00000000
       22545000	      2253	800018a8	b1d3e713	ori	x14,x7,-1251	  x7:0x04b657fc x14=0xfffffffd
       22555000	      2254	800018ac	ff730313	addi	x6,x6,-9	  x6:0x0000000a  x6=0x00000001
       22565000	      2255	800018b0	ff237ae3	bgeu	x6,x18,800018a4	  x6:0x00000001 x18:0x0000000a
       22575000	      2256	800018b4	ff6cc0e3	blt	x25,x22,80001894	 x25:0x0000000d x22:0x0000000e
       22585000	      2257	00000000	00000013	addi	x0,x0,0	  x0:0x00000000
       22595000	      2258	80001890	00000013	addi	x0,x0,0	  x0:0x00000000
       22605000	      2259	80001894	00776f33	or	x30,x14,x7	 x14:0xfffffffd  x7:0x04b657fc x30=0xfffffffd
       22615000	      2260	80001898	002c8c93	addi	x25,x25,2	 x25:0x0000000d x25=0x0000000f
       22625000	      2261	8000189c	00a00313	addi	x6,x0,10	  x0:0x00000000  x6=0x0000000a
       22635000	      2262	800018a0	00a00913	addi	x18,x0,10	  x0:0x00000000 x18=0x0000000a
       22645000	      2263	800018a4	b029ad93	slti	x27,x19,-1278	 x19:0xffffffff x27=0x00000000
       22655000	      2264	800018a8	b1d3e713	ori	x14,x7,-1251	  x7:0x04b657fc x14=0xfffffffd
       22665000	      2265	800018ac	ff730313	addi	x6,x6,-9	  x6:0x0000000a  x6=0x00000001
       22675000	      2266	800018b0	ff237ae3	bgeu	x6,x18,800018a4	  x6:0x00000001 x18:0x0000000a
       22685000	      2267	800018b4	ff6cc0e3	blt	x25,x22,80001894	 x25:0x0000000f x22:0x0000000e
       22695000	      2268	800018b8	40bd8f33	sub	x30,x27,x11	 x27:0x00000000 x11:0x00000175 x30=0xfffffe8b
       22705000	      2269	800018bc	fff00b93	addi	x23,x0,-1	  x0:0x00000000 x23=0xffffffff
       22715000	      2270	800018c0	41528233	sub	x4,x5,x21	  x5:0x00000000 x21:0x0000000e  x4=0xfffffff2
       22725000	      2271	800018c4	ff100493	addi	x9,x0,-15	  x0:0x00000000  x9=0xfffffff1
       22735000	      2272	800018c8	00000013	addi	x0,x0,0	  x0:0x00000000
       22745000	      2273	800018cc	e7cf4293	xori	x5,x30,-388	 x30:0xfffffe8b  x5=0x000000f7
       22755000	      2274	800018d0	40950cb3	sub	x25,x10,x9	 x10:0x00000003  x9:0xfffffff1 x25=0x00000012
       22765000	      2275	800018d4	ffeb8b93	addi	x23,x23,-2	 x23:0xffffffff x23=0xfffffffd
       22775000	      2276	800018d8	d06161b7	lui	x3,0xd0616	  x3=0xd0616000
       22785000	      2277	800018dc	ffa00113	addi	x2,x0,-6	  x0:0x00000000  x2=0xfffffffa
       22795000	      2278	800018e0	dc6bb713	sltiu	x14,x23,-570	 x23:0xfffffffd x14=0x00000000
       22805000	      2279	800018e4	503dba93	sltiu	x21,x27,1283	 x27:0x00000000 x21=0x00000001
       22815000	      2280	800018e8	d42d4937	lui	x18,0xd42d4	 x18=0xd42d4000
       22825000	      2281	800018ec	016b5513	srli	x10,x22,0x16	 x22:0x0000000e x10=0x00000000
       22835000	      2282	800018f0	ff700413	addi	x8,x0,-9	  x0:0x00000000  x8=0xfffffff7
       22845000	      2283	800018f4	01d49693	slli	x13,x9,0x1d	  x9:0xfffffff1 x13=0x20000000
       22855000	      2284	800018f8	056f9197	auipc	x3,0x56f9	  x3=0x856fa8f4
       22865000	      2285	800018fc	00c177b3	and	x15,x2,x12	  x2:0xfffffffa x12:0x00000096 x15=0x00000092
       22875000	      2286	80001900	ffc10113	addi	x2,x2,-4	  x2:0xfffffffa  x2=0xfffffff6
       22885000	      2287	80001904	01804b33	xor	x22,x0,x24	  x0:0x00000000 x24:0x0000000b x22=0x0000000b
       22895000	      2288	80001908	fe815ae3	bge	x2,x8,800018fc	  x2:0xfffffff6  x8:0xfffffff7
       22905000	      2289	8000190c	00fe33b3	sltu	x7,x28,x15	 x28:0x80009f40 x15:0x00000092  x7=0x00000000
       22915000	      2290	80001910	00244833	xor	x16,x8,x2	  x8:0xfffffff7  x2:0xfffffff6 x16=0x00000001
       22925000	      2291	80001914	c271f193	andi	x3,x3,-985	  x3:0x856fa8f4  x3=0x856fa824
       22935000	      2292	80001918	4139d093	srai	x1,x19,0x13	 x19:0xffffffff  x1=0xffffffff
       22945000	      2293	8000191c	fa9bd8e3	bge	x23,x9,800018cc	 x23:0xfffffffd  x9:0xfffffff1
       22955000	      2294	00000000	00000013	addi	x0,x0,0	  x0:0x00000000
       22965000	      2295	800018c8	00000013	addi	x0,x0,0	  x0:0x00000000
       22975000	      2296	800018cc	e7cf4293	xori	x5,x30,-388	 x30:0xfffffe8b  x5=0x000000f7
       22985000	      2297	800018d0	40950cb3	sub	x25,x10,x9	 x10:0x00000000  x9:0xfffffff1 x25=0x0000000f
       22995000	      2298	800018d4	ffeb8b93	addi	x23,x23,-2	 x23:0xfffffffd x23=0xfffffffb
       23005000	      2299	800018d8	d06161b7	lui	x3,0xd0616	  x3=0xd0616000
       23015000	      2300	800018dc	ffa00113	addi	x2,x0,-6	  x0:0x00000000  x2=0xfffffffa
       23025000	      2301	800018e0	dc6bb713	sltiu	x14,x23,-570	 x23:0xfffffffb x14=0x00000000
       23035000	      2302	800018e4	503dba93	sltiu	x21,x27,1283	 x27:0x00000000 x21=0x00000001
       23045000	      2303	800018e8	d42d4937	lui	x18,0xd42d4	 x18=0xd42d4000
       23055000	      2304	800018ec	016b5513	srli	x10,x22,0x16	 x22:0x0000000b x10=0x00000000
       23065000	      2305	800018f0	ff700413	addi	x8,x0,-9	  x0:0x00000000  x8=0xfffffff7
       23075000	      2306	800018f4	01d49693	slli	x13,x9,0x1d	  x9:0xfffffff1 x13=0x20000000
       23085000	      2307	800018f8	056f9197	auipc	x3,0x56f9	  x3=0x856fa8f4
       23095000	      2308	800018fc	00c177b3	and	x15,x2,x12	  x2:0xfffffffa x12:0x00000096 x15=0x00000092
       23105000	      2309	80001900	ffc10113	addi	x2,x2,-4	  x2:0xfffffffa  x2=0xfffffff6
       23115000	      2310	80001904	01804b33	xor	x22,x0,x24	  x0:0x00000000 x24:0x0000000b x22=0x0000000b
       23125000	      2311	80001908	fe815ae3	bge	x2,x8,800018fc	  x2:0xfffffff6  x8:0xfffffff7
       23135000	      2312	8000190c	00fe33b3	sltu	x7,x28,x15	 x28:0x80009f40 x15:0x00000092  x7=0x00000000
       23145000	      2313	80001910	00244833	xor	x16,x8,x2	  x8:0xfffffff7  x2:0xfffffff6 x16=0x00000001
       23155000	      2314	80001914	c271f193	andi	x3,x3,-985	  x3:0x856fa8f4  x3=0x856fa824
       23165000	      2315	80001918	4139d093	srai	x1,x19,0x13	 x19:0xffffffff  x1=0xffffffff
       23175000	      2316	8000191c	fa9bd8e3	bge	x23,x9,800018cc	 x23:0xfffffffb  x9:0xfffffff1
       23185000	      2317	00000000	00000013	addi	x0,x0,0	  x0:0x00000000
       23195000	      2318	800018c8	00000013	addi	x0,x0,0	  x0:0x00000000
       23205000	      2319	800018cc	e7cf4293	xori	x5,x30,-388	 x30:0xfffffe8b  x5=0x000000f7
       23215000	      2320	800018d0	40950cb3	sub	x25,x10,x9	 x10:0x00000000  x9:0xfffffff1 x25=0x0000000f
       23225000	      2321	800018d4	ffeb8b93	addi	x23,x23,-2	 x23:0xfffffffb x23=0xfffffff9
       23235000	      2322	800018d8	d06161b7	lui	x3,0xd0616	  x3=0xd0616000
       23245000	      2323	800018dc	ffa00113	addi	x2,x0,-6	  x0:0x00000000  x2=0xfffffffa
       23255000	      2324	800018e0	dc6bb713	sltiu	x14,x23,-570	 x23:0xfffffff9 x14=0x00000000
       23265000	      2325	800018e4	503dba93	sltiu	x21,x27,1283	 x27:0x00000000 x21=0x00000001
       23275000	      2326	800018e8	d42d4937	lui	x18,0xd42d4	 x18=0xd42d4000
       23285000	      2327	800018ec	016b5513	srli	x10,x22,0x16	 x22:0x0000000b x10=0x00000000
       23295000	      2328	800018f0	ff700413	addi	x8,x0,-9	  x0:0x00000000  x8=0xfffffff7
       23305000	      2329	800018f4	01d49693	slli	x13,x9,0x1d	  x9:0xfffffff1 x13=0x20000000
       23315000	      2330	800018f8	056f9197	auipc	x3,0x56f9	  x3=0x856fa8f4
       23325000	      2331	800018fc	00c177b3	and	x15,x2,x12	  x2:0xfffffffa x12:0x00000096 x15=0x00000092
       23335000	      2332	80001900	ffc10113	addi	x2,x2,-4	  x2:0xfffffffa  x2=0xfffffff6
       23345000	      2333	80001904	01804b33	xor	x22,x0,x24	  x0:0x00000000 x24:0x0000000b x22=0x0000000b
       23355000	      2334	80001908	fe815ae3	bge	x2,x8,800018fc	  x2:0xfffffff6  x8:0xfffffff7
       23365000	      2335	8000190c	00fe33b3	sltu	x7,x28,x15	 x28:0x80009f40 x15:0x00000092  x7=0x00000000
       23375000	      2336	80001910	00244833	xor	x16,x8,x2	  x8:0xfffffff7  x2:0xfffffff6 x16=0x00000001
       23385000	      2337	80001914	c271f193	andi	x3,x3,-985	  x3:0x856fa8f4  x3=0x856fa824
       23395000	      2338	80001918	4139d093	srai	x1,x19,0x13	 x19:0xffffffff  x1=0xffffffff
       23405000	      2339	8000191c	fa9bd8e3	bge	x23,x9,800018cc	 x23:0xfffffff9  x9:0xfffffff1
       23415000	      2340	00000000	00000013	addi	x0,x0,0	  x0:0x00000000
       23425000	      2341	800018c8	00000013	addi	x0,x0,0	  x0:0x00000000
       23435000	      2342	800018cc	e7cf4293	xori	x5,x30,-388	 x30:0xfffffe8b  x5=0x000000f7
       23445000	      2343	800018d0	40950cb3	sub	x25,x10,x9	 x10:0x00000000  x9:0xfffffff1 x25=0x0000000f
       23455000	      2344	800018d4	ffeb8b93	addi	x23,x23,-2	 x23:0xfffffff9 x23=0xfffffff7
       23465000	      2345	800018d8	d06161b7	lui	x3,0xd0616	  x3=0xd0616000
       23475000	      2346	800018dc	ffa00113	addi	x2,x0,-6	  x0:0x00000000  x2=0xfffffffa
       23485000	      2347	800018e0	dc6bb713	sltiu	x14,x23,-570	 x23:0xfffffff7 x14=0x00000000
       23495000	      2348	800018e4	503dba93	sltiu	x21,x27,1283	 x27:0x00000000 x21=0x00000001
       23505000	      2349	800018e8	d42d4937	lui	x18,0xd42d4	 x18=0xd42d4000
       23515000	      2350	800018ec	016b5513	srli	x10,x22,0x16	 x22:0x0000000b x10=0x00000000
       23525000	      2351	800018f0	ff700413	addi	x8,x0,-9	  x0:0x00000000  x8=0xfffffff7
       23535000	      2352	800018f4	01d49693	slli	x13,x9,0x1d	  x9:0xfffffff1 x13=0x20000000
       23545000	      2353	800018f8	056f9197	auipc	x3,0x56f9	  x3=0x856fa8f4
       23555000	      2354	800018fc	00c177b3	and	x15,x2,x12	  x2:0xfffffffa x12:0x00000096 x15=0x00000092
       23565000	      2355	80001900	ffc10113	addi	x2,x2,-4	  x2:0xfffffffa  x2=0xfffffff6
       23575000	      2356	80001904	01804b33	xor	x22,x0,x24	  x0:0x00000000 x24:0x0000000b x22=0x0000000b
       23585000	      2357	80001908	fe815ae3	bge	x2,x8,800018fc	  x2:0xfffffff6  x8:0xfffffff7
       23595000	      2358	8000190c	00fe33b3	sltu	x7,x28,x15	 x28:0x80009f40 x15:0x00000092  x7=0x00000000
       23605000	      2359	80001910	00244833	xor	x16,x8,x2	  x8:0xfffffff7  x2:0xfffffff6 x16=0x00000001
       23615000	      2360	80001914	c271f193	andi	x3,x3,-985	  x3:0x856fa8f4  x3=0x856fa824
       23625000	      2361	80001918	4139d093	srai	x1,x19,0x13	 x19:0xffffffff  x1=0xffffffff
       23635000	      2362	8000191c	fa9bd8e3	bge	x23,x9,800018cc	 x23:0xfffffff7  x9:0xfffffff1
       23645000	      2363	00000000	00000013	addi	x0,x0,0	  x0:0x00000000
       23655000	      2364	800018c8	00000013	addi	x0,x0,0	  x0:0x00000000
       23665000	      2365	800018cc	e7cf4293	xori	x5,x30,-388	 x30:0xfffffe8b  x5=0x000000f7
       23675000	      2366	800018d0	40950cb3	sub	x25,x10,x9	 x10:0x00000000  x9:0xfffffff1 x25=0x0000000f
       23685000	      2367	800018d4	ffeb8b93	addi	x23,x23,-2	 x23:0xfffffff7 x23=0xfffffff5
       23695000	      2368	800018d8	d06161b7	lui	x3,0xd0616	  x3=0xd0616000
       23705000	      2369	800018dc	ffa00113	addi	x2,x0,-6	  x0:0x00000000  x2=0xfffffffa
       23715000	      2370	800018e0	dc6bb713	sltiu	x14,x23,-570	 x23:0xfffffff5 x14=0x00000000
       23725000	      2371	800018e4	503dba93	sltiu	x21,x27,1283	 x27:0x00000000 x21=0x00000001
       23735000	      2372	800018e8	d42d4937	lui	x18,0xd42d4	 x18=0xd42d4000
       23745000	      2373	800018ec	016b5513	srli	x10,x22,0x16	 x22:0x0000000b x10=0x00000000
       23755000	      2374	800018f0	ff700413	addi	x8,x0,-9	  x0:0x00000000  x8=0xfffffff7
       23765000	      2375	800018f4	01d49693	slli	x13,x9,0x1d	  x9:0xfffffff1 x13=0x20000000
       23775000	      2376	800018f8	056f9197	auipc	x3,0x56f9	  x3=0x856fa8f4
       23785000	      2377	800018fc	00c177b3	and	x15,x2,x12	  x2:0xfffffffa x12:0x00000096 x15=0x00000092
       23795000	      2378	80001900	ffc10113	addi	x2,x2,-4	  x2:0xfffffffa  x2=0xfffffff6
       23805000	      2379	80001904	01804b33	xor	x22,x0,x24	  x0:0x00000000 x24:0x0000000b x22=0x0000000b
       23815000	      2380	80001908	fe815ae3	bge	x2,x8,800018fc	  x2:0xfffffff6  x8:0xfffffff7
       23825000	      2381	8000190c	00fe33b3	sltu	x7,x28,x15	 x28:0x80009f40 x15:0x00000092  x7=0x00000000
       23835000	      2382	80001910	00244833	xor	x16,x8,x2	  x8:0xfffffff7  x2:0xfffffff6 x16=0x00000001
       23845000	      2383	80001914	c271f193	andi	x3,x3,-985	  x3:0x856fa8f4  x3=0x856fa824
       23855000	      2384	80001918	4139d093	srai	x1,x19,0x13	 x19:0xffffffff  x1=0xffffffff
       23865000	      2385	8000191c	fa9bd8e3	bge	x23,x9,800018cc	 x23:0xfffffff5  x9:0xfffffff1
       23875000	      2386	00000000	00000013	addi	x0,x0,0	  x0:0x00000000
       23885000	      2387	800018c8	00000013	addi	x0,x0,0	  x0:0x00000000
       23895000	      2388	800018cc	e7cf4293	xori	x5,x30,-388	 x30:0xfffffe8b  x5=0x000000f7
       23905000	      2389	800018d0	40950cb3	sub	x25,x10,x9	 x10:0x00000000  x9:0xfffffff1 x25=0x0000000f
       23915000	      2390	800018d4	ffeb8b93	addi	x23,x23,-2	 x23:0xfffffff5 x23=0xfffffff3
       23925000	      2391	800018d8	d06161b7	lui	x3,0xd0616	  x3=0xd0616000
       23935000	      2392	800018dc	ffa00113	addi	x2,x0,-6	  x0:0x00000000  x2=0xfffffffa
       23945000	      2393	800018e0	dc6bb713	sltiu	x14,x23,-570	 x23:0xfffffff3 x14=0x00000000
       23955000	      2394	800018e4	503dba93	sltiu	x21,x27,1283	 x27:0x00000000 x21=0x00000001
       23965000	      2395	800018e8	d42d4937	lui	x18,0xd42d4	 x18=0xd42d4000
       23975000	      2396	800018ec	016b5513	srli	x10,x22,0x16	 x22:0x0000000b x10=0x00000000
       23985000	      2397	800018f0	ff700413	addi	x8,x0,-9	  x0:0x00000000  x8=0xfffffff7
       23995000	      2398	800018f4	01d49693	slli	x13,x9,0x1d	  x9:0xfffffff1 x13=0x20000000
       24005000	      2399	800018f8	056f9197	auipc	x3,0x56f9	  x3=0x856fa8f4
       24015000	      2400	800018fc	00c177b3	and	x15,x2,x12	  x2:0xfffffffa x12:0x00000096 x15=0x00000092
       24025000	      2401	80001900	ffc10113	addi	x2,x2,-4	  x2:0xfffffffa  x2=0xfffffff6
       24035000	      2402	80001904	01804b33	xor	x22,x0,x24	  x0:0x00000000 x24:0x0000000b x22=0x0000000b
       24045000	      2403	80001908	fe815ae3	bge	x2,x8,800018fc	  x2:0xfffffff6  x8:0xfffffff7
       24055000	      2404	8000190c	00fe33b3	sltu	x7,x28,x15	 x28:0x80009f40 x15:0x00000092  x7=0x00000000
       24065000	      2405	80001910	00244833	xor	x16,x8,x2	  x8:0xfffffff7  x2:0xfffffff6 x16=0x00000001
       24075000	      2406	80001914	c271f193	andi	x3,x3,-985	  x3:0x856fa8f4  x3=0x856fa824
       24085000	      2407	80001918	4139d093	srai	x1,x19,0x13	 x19:0xffffffff  x1=0xffffffff
       24095000	      2408	8000191c	fa9bd8e3	bge	x23,x9,800018cc	 x23:0xfffffff3  x9:0xfffffff1
       24105000	      2409	00000000	00000013	addi	x0,x0,0	  x0:0x00000000
       24115000	      2410	800018c8	00000013	addi	x0,x0,0	  x0:0x00000000
       24125000	      2411	800018cc	e7cf4293	xori	x5,x30,-388	 x30:0xfffffe8b  x5=0x000000f7
       24135000	      2412	800018d0	40950cb3	sub	x25,x10,x9	 x10:0x00000000  x9:0xfffffff1 x25=0x0000000f
       24145000	      2413	800018d4	ffeb8b93	addi	x23,x23,-2	 x23:0xfffffff3 x23=0xfffffff1
       24155000	      2414	800018d8	d06161b7	lui	x3,0xd0616	  x3=0xd0616000
       24165000	      2415	800018dc	ffa00113	addi	x2,x0,-6	  x0:0x00000000  x2=0xfffffffa
       24175000	      2416	800018e0	dc6bb713	sltiu	x14,x23,-570	 x23:0xfffffff1 x14=0x00000000
       24185000	      2417	800018e4	503dba93	sltiu	x21,x27,1283	 x27:0x00000000 x21=0x00000001
       24195000	      2418	800018e8	d42d4937	lui	x18,0xd42d4	 x18=0xd42d4000
       24205000	      2419	800018ec	016b5513	srli	x10,x22,0x16	 x22:0x0000000b x10=0x00000000
       24215000	      2420	800018f0	ff700413	addi	x8,x0,-9	  x0:0x00000000  x8=0xfffffff7
       24225000	      2421	800018f4	01d49693	slli	x13,x9,0x1d	  x9:0xfffffff1 x13=0x20000000
       24235000	      2422	800018f8	056f9197	auipc	x3,0x56f9	  x3=0x856fa8f4
       24245000	      2423	800018fc	00c177b3	and	x15,x2,x12	  x2:0xfffffffa x12:0x00000096 x15=0x00000092
       24255000	      2424	80001900	ffc10113	addi	x2,x2,-4	  x2:0xfffffffa  x2=0xfffffff6
       24265000	      2425	80001904	01804b33	xor	x22,x0,x24	  x0:0x00000000 x24:0x0000000b x22=0x0000000b
       24275000	      2426	80001908	fe815ae3	bge	x2,x8,800018fc	  x2:0xfffffff6  x8:0xfffffff7
       24285000	      2427	8000190c	00fe33b3	sltu	x7,x28,x15	 x28:0x80009f40 x15:0x00000092  x7=0x00000000
       24295000	      2428	80001910	00244833	xor	x16,x8,x2	  x8:0xfffffff7  x2:0xfffffff6 x16=0x00000001
       24305000	      2429	80001914	c271f193	andi	x3,x3,-985	  x3:0x856fa8f4  x3=0x856fa824
       24315000	      2430	80001918	4139d093	srai	x1,x19,0x13	 x19:0xffffffff  x1=0xffffffff
       24325000	      2431	8000191c	fa9bd8e3	bge	x23,x9,800018cc	 x23:0xfffffff1  x9:0xfffffff1
       24335000	      2432	00000000	00000013	addi	x0,x0,0	  x0:0x00000000
       24345000	      2433	800018c8	00000013	addi	x0,x0,0	  x0:0x00000000
       24355000	      2434	800018cc	e7cf4293	xori	x5,x30,-388	 x30:0xfffffe8b  x5=0x000000f7
       24365000	      2435	800018d0	40950cb3	sub	x25,x10,x9	 x10:0x00000000  x9:0xfffffff1 x25=0x0000000f
       24375000	      2436	800018d4	ffeb8b93	addi	x23,x23,-2	 x23:0xfffffff1 x23=0xffffffef
       24385000	      2437	800018d8	d06161b7	lui	x3,0xd0616	  x3=0xd0616000
       24395000	      2438	800018dc	ffa00113	addi	x2,x0,-6	  x0:0x00000000  x2=0xfffffffa
       24405000	      2439	800018e0	dc6bb713	sltiu	x14,x23,-570	 x23:0xffffffef x14=0x00000000
       24415000	      2440	800018e4	503dba93	sltiu	x21,x27,1283	 x27:0x00000000 x21=0x00000001
       24425000	      2441	800018e8	d42d4937	lui	x18,0xd42d4	 x18=0xd42d4000
       24435000	      2442	800018ec	016b5513	srli	x10,x22,0x16	 x22:0x0000000b x10=0x00000000
       24445000	      2443	800018f0	ff700413	addi	x8,x0,-9	  x0:0x00000000  x8=0xfffffff7
       24455000	      2444	800018f4	01d49693	slli	x13,x9,0x1d	  x9:0xfffffff1 x13=0x20000000
       24465000	      2445	800018f8	056f9197	auipc	x3,0x56f9	  x3=0x856fa8f4
       24475000	      2446	800018fc	00c177b3	and	x15,x2,x12	  x2:0xfffffffa x12:0x00000096 x15=0x00000092
       24485000	      2447	80001900	ffc10113	addi	x2,x2,-4	  x2:0xfffffffa  x2=0xfffffff6
       24495000	      2448	80001904	01804b33	xor	x22,x0,x24	  x0:0x00000000 x24:0x0000000b x22=0x0000000b
       24505000	      2449	80001908	fe815ae3	bge	x2,x8,800018fc	  x2:0xfffffff6  x8:0xfffffff7
       24515000	      2450	8000190c	00fe33b3	sltu	x7,x28,x15	 x28:0x80009f40 x15:0x00000092  x7=0x00000000
       24525000	      2451	80001910	00244833	xor	x16,x8,x2	  x8:0xfffffff7  x2:0xfffffff6 x16=0x00000001
       24535000	      2452	80001914	c271f193	andi	x3,x3,-985	  x3:0x856fa8f4  x3=0x856fa824
       24545000	      2453	80001918	4139d093	srai	x1,x19,0x13	 x19:0xffffffff  x1=0xffffffff
       24555000	      2454	8000191c	fa9bd8e3	bge	x23,x9,800018cc	 x23:0xffffffef  x9:0xfffffff1
       24565000	      2455	80001920	0132d2b3	srl	x5,x5,x19	  x5:0x000000f7 x19:0xffffffff  x5=0x00000000
       24575000	      2456	80001924	00400693	addi	x13,x0,4	  x0:0x00000000 x13=0x00000004
       24585000	      2457	80001928	00000013	addi	x0,x0,0	  x0:0x00000000
       24595000	      2458	8000192c	99118413	addi	x8,x3,-1647	  x3:0x856fa824  x8=0x856fa1b5
       24605000	      2459	80001930	fef00f13	addi	x30,x0,-17	  x0:0x00000000 x30=0xffffffef
       24615000	      2460	80001934	00c6a9b3	slt	x19,x13,x12	 x13:0x00000004 x12:0x00000096 x19=0x00000001
       24625000	      2461	80001938	00f8c733	xor	x14,x17,x15	 x17:0x00000096 x15:0x00000092 x14=0x00000004
       24635000	      2462	8000193c	1d67a913	slti	x18,x15,470	 x15:0x00000092 x18=0x00000001
       24645000	      2463	80001940	ffc68693	addi	x13,x13,-4	 x13:0x00000004 x13=0x00000000
       24655000	      2464	80001944	4078d0b3	sra	x1,x17,x7	 x17:0x00000096  x7:0x00000000  x1=0x00000096
       24665000	      2465	80001948	016fddb3	srl	x27,x31,x22	 x31:0x80000000 x22:0x0000000b x27=0x00100000
       24675000	      2466	8000194c	93d18893	addi	x17,x3,-1731	  x3:0x856fa824 x17=0x856fa161
       24685000	      2467	80001950	ffe6d4e3	bge	x13,x30,80001938	 x13:0x00000000 x30:0xffffffef
       24695000	      2468	00000000	00000013	addi	x0,x0,0	  x0:0x00000000
       24705000	      2469	80001934	00000013	addi	x0,x0,0	  x0:0x00000000
       24715000	      2470	80001938	00f8c733	xor	x14,x17,x15	 x17:0x856fa161 x15:0x00000092 x14=0x856fa1f3
       24725000	      2471	8000193c	1d67a913	slti	x18,x15,470	 x15:0x00000092 x18=0x00000001
       24735000	      2472	80001940	ffc68693	addi	x13,x13,-4	 x13:0x00000000 x13=0xfffffffc
       24745000	      2473	80001944	4078d0b3	sra	x1,x17,x7	 x17:0x856fa161  x7:0x00000000  x1=0x856fa161
       24755000	      2474	80001948	016fddb3	srl	x27,x31,x22	 x31:0x80000000 x22:0x0000000b x27=0x00100000
       24765000	      2475	8000194c	93d18893	addi	x17,x3,-1731	  x3:0x856fa824 x17=0x856fa161
       24775000	      2476	80001950	ffe6d4e3	bge	x13,x30,80001938	 x13:0xfffffffc x30:0xffffffef
       24785000	      2477	00000000	00000013	addi	x0,x0,0	  x0:0x00000000
       24795000	      2478	80001934	00000013	addi	x0,x0,0	  x0:0x00000000
       24805000	      2479	80001938	00f8c733	xor	x14,x17,x15	 x17:0x856fa161 x15:0x00000092 x14=0x856fa1f3
       24815000	      2480	8000193c	1d67a913	slti	x18,x15,470	 x15:0x00000092 x18=0x00000001
       24825000	      2481	80001940	ffc68693	addi	x13,x13,-4	 x13:0xfffffffc x13=0xfffffff8
       24835000	      2482	80001944	4078d0b3	sra	x1,x17,x7	 x17:0x856fa161  x7:0x00000000  x1=0x856fa161
       24845000	      2483	80001948	016fddb3	srl	x27,x31,x22	 x31:0x80000000 x22:0x0000000b x27=0x00100000
       24855000	      2484	8000194c	93d18893	addi	x17,x3,-1731	  x3:0x856fa824 x17=0x856fa161
       24865000	      2485	80001950	ffe6d4e3	bge	x13,x30,80001938	 x13:0xfffffff8 x30:0xffffffef
       24875000	      2486	00000000	00000013	addi	x0,x0,0	  x0:0x00000000
       24885000	      2487	80001934	00000013	addi	x0,x0,0	  x0:0x00000000
       24895000	      2488	80001938	00f8c733	xor	x14,x17,x15	 x17:0x856fa161 x15:0x00000092 x14=0x856fa1f3
       24905000	      2489	8000193c	1d67a913	slti	x18,x15,470	 x15:0x00000092 x18=0x00000001
       24915000	      2490	80001940	ffc68693	addi	x13,x13,-4	 x13:0xfffffff8 x13=0xfffffff4
       24925000	      2491	80001944	4078d0b3	sra	x1,x17,x7	 x17:0x856fa161  x7:0x00000000  x1=0x856fa161
       24935000	      2492	80001948	016fddb3	srl	x27,x31,x22	 x31:0x80000000 x22:0x0000000b x27=0x00100000
       24945000	      2493	8000194c	93d18893	addi	x17,x3,-1731	  x3:0x856fa824 x17=0x856fa161
       24955000	      2494	80001950	ffe6d4e3	bge	x13,x30,80001938	 x13:0xfffffff4 x30:0xffffffef
       24965000	      2495	00000000	00000013	addi	x0,x0,0	  x0:0x00000000
       24975000	      2496	80001934	00000013	addi	x0,x0,0	  x0:0x00000000
       24985000	      2497	80001938	00f8c733	xor	x14,x17,x15	 x17:0x856fa161 x15:0x00000092 x14=0x856fa1f3
       24995000	      2498	8000193c	1d67a913	slti	x18,x15,470	 x15:0x00000092 x18=0x00000001
       25005000	      2499	80001940	ffc68693	addi	x13,x13,-4	 x13:0xfffffff4 x13=0xfffffff0
       25015000	      2500	80001944	4078d0b3	sra	x1,x17,x7	 x17:0x856fa161  x7:0x00000000  x1=0x856fa161
       25025000	      2501	80001948	016fddb3	srl	x27,x31,x22	 x31:0x80000000 x22:0x0000000b x27=0x00100000
       25035000	      2502	8000194c	93d18893	addi	x17,x3,-1731	  x3:0x856fa824 x17=0x856fa161
       25045000	      2503	80001950	ffe6d4e3	bge	x13,x30,80001938	 x13:0xfffffff0 x30:0xffffffef
       25055000	      2504	00000000	00000013	addi	x0,x0,0	  x0:0x00000000
       25065000	      2505	80001934	00000013	addi	x0,x0,0	  x0:0x00000000
       25075000	      2506	80001938	00f8c733	xor	x14,x17,x15	 x17:0x856fa161 x15:0x00000092 x14=0x856fa1f3
       25085000	      2507	8000193c	1d67a913	slti	x18,x15,470	 x15:0x00000092 x18=0x00000001
       25095000	      2508	80001940	ffc68693	addi	x13,x13,-4	 x13:0xfffffff0 x13=0xffffffec
       25105000	      2509	80001944	4078d0b3	sra	x1,x17,x7	 x17:0x856fa161  x7:0x00000000  x1=0x856fa161
       25115000	      2510	80001948	016fddb3	srl	x27,x31,x22	 x31:0x80000000 x22:0x0000000b x27=0x00100000
       25125000	      2511	8000194c	93d18893	addi	x17,x3,-1731	  x3:0x856fa824 x17=0x856fa161
       25135000	      2512	80001950	ffe6d4e3	bge	x13,x30,80001938	 x13:0xffffffec x30:0xffffffef
       25145000	      2513	80001954	0058dc13	srli	x24,x17,0x5	 x17:0x856fa161 x24=0x042b7d0b
       25155000	      2514	80001958	00600e93	addi	x29,x0,6	  x0:0x00000000 x29=0x00000006
       25165000	      2515	8000195c	fff00813	addi	x16,x0,-1	  x0:0x00000000 x16=0xffffffff
       25175000	      2516	80001960	4108dd33	sra	x26,x17,x16	 x17:0x856fa161 x16:0xffffffff x26=0xffffffff
       25185000	      2517	80001964	75542113	slti	x2,x8,1877	  x8:0x856fa1b5  x2=0x00000001
       25195000	      2518	80001968	001292b3	sll	x5,x5,x1	  x5:0x00000000  x1:0x856fa161  x5=0x00000000
       25205000	      2519	8000196c	ff9e8e93	addi	x29,x29,-7	 x29:0x00000006 x29=0xffffffff
       25215000	      2520	80001970	00a00c13	addi	x24,x0,10	  x0:0x00000000 x24=0x0000000a
       25225000	      2521	80001974	00e00893	addi	x17,x0,14	  x0:0x00000000 x17=0x0000000e
       25235000	      2522	80001978	62d56313	ori	x6,x10,1581	 x10:0x00000000  x6=0x0000062d
       25245000	      2523	8000197c	01e927b3	slt	x15,x18,x30	 x18:0x00000001 x30:0xffffffef x15=0x00000000
       25255000	      2524	80001980	03a73193	sltiu	x3,x14,58	 x14:0x856fa1f3  x3=0x00000000
       25265000	      2525	80001984	00ac0c13	addi	x24,x24,10	 x24:0x0000000a x24=0x00000014
       25275000	      2526	80001988	ce068213	addi	x4,x13,-800	 x13:0xffffffec  x4=0xfffffccc
       25285000	      2527	8000198c	ff1c48e3	blt	x24,x17,8000197c	 x24:0x00000014 x17:0x0000000e
       25295000	      2528	80001990	41395693	srai	x13,x18,0x13	 x18:0x00000001 x13=0x00000000
       25305000	      2529	80001994	1aa13413	sltiu	x8,x2,426	  x2:0x00000001  x8=0x00000001
       25315000	      2530	80001998	fd0ed6e3	bge	x29,x16,80001964	 x29:0xffffffff x16:0xffffffff
       25325000	      2531	00000000	00000013	addi	x0,x0,0	  x0:0x00000000
       25335000	      2532	80001960	00000013	addi	x0,x0,0	  x0:0x00000000
       25345000	      2533	80001964	75542113	slti	x2,x8,1877	  x8:0x00000001  x2=0x00000001
       25355000	      2534	80001968	001292b3	sll	x5,x5,x1	  x5:0x00000000  x1:0x856fa161  x5=0x00000000
       25365000	      2535	8000196c	ff9e8e93	addi	x29,x29,-7	 x29:0xffffffff x29=0xfffffff8
       25375000	      2536	80001970	00a00c13	addi	x24,x0,10	  x0:0x00000000 x24=0x0000000a
       25385000	      2537	80001974	00e00893	addi	x17,x0,14	  x0:0x00000000 x17=0x0000000e
       25395000	      2538	80001978	62d56313	ori	x6,x10,1581	 x10:0x00000000  x6=0x0000062d
       25405000	      2539	8000197c	01e927b3	slt	x15,x18,x30	 x18:0x00000001 x30:0xffffffef x15=0x00000000
       25415000	      2540	80001980	03a73193	sltiu	x3,x14,58	 x14:0x856fa1f3  x3=0x00000000
       25425000	      2541	80001984	00ac0c13	addi	x24,x24,10	 x24:0x0000000a x24=0x00000014
       25435000	      2542	80001988	ce068213	addi	x4,x13,-800	 x13:0x00000000  x4=0xfffffce0
       25445000	      2543	8000198c	ff1c48e3	blt	x24,x17,8000197c	 x24:0x00000014 x17:0x0000000e
       25455000	      2544	80001990	41395693	srai	x13,x18,0x13	 x18:0x00000001 x13=0x00000000
       25465000	      2545	80001994	1aa13413	sltiu	x8,x2,426	  x2:0x00000001  x8=0x00000001
       25475000	      2546	80001998	fd0ed6e3	bge	x29,x16,80001964	 x29:0xfffffff8 x16:0xffffffff
       25485000	      2547	8000199c	00338633	add	x12,x7,x3	  x7:0x00000000  x3:0x00000000 x12=0x00000000
       25495000	      2548	800019a0	00000693	addi	x13,x0,0	  x0:0x00000000 x13=0x00000000
       25505000	      2549	800019a4	41e4dd93	srai	x27,x9,0x1e	  x9:0xfffffff1 x27=0xffffffff
       25515000	      2550	800019a8	00d3d3b3	srl	x7,x7,x13	  x7:0x00000000 x13:0x00000000  x7=0x00000000
       25525000	      2551	800019ac	00100c13	addi	x24,x0,1	  x0:0x00000000 x24=0x00000001
       25535000	      2552	800019b0	41f85793	srai	x15,x16,0x1f	 x16:0xffffffff x15=0xffffffff
       25545000	      2553	800019b4	53978313	addi	x6,x15,1337	 x15:0xffffffff  x6=0x00000538
       25555000	      2554	800019b8	00f57ab3	and	x21,x10,x15	 x10:0x00000000 x15:0xffffffff x21=0x00000000
       25565000	      2555	800019bc	00a68693	addi	x13,x13,10	 x13:0x00000000 x13=0x0000000a
       25575000	      2556	800019c0	00200093	addi	x1,x0,2	  x0:0x00000000  x1=0x00000002
       25585000	      2557	800019c4	741ebe93	sltiu	x29,x29,1857	 x29:0xfffffff8 x29=0x00000000
       25595000	      2558	800019c8	ffc00c93	addi	x25,x0,-4	  x0:0x00000000 x25=0xfffffffc
       25605000	      2559	800019cc	3ffb8f37	lui	x30,0x3ffb8	 x30=0x3ffb8000
       25615000	      2560	800019d0	c9612793	slti	x15,x2,-874	  x2:0x00000001 x15=0x00000000
       25625000	      2561	800019d4	ffa08093	addi	x1,x1,-6	  x1:0x00000002  x1=0xfffffffc
       25635000	      2562	800019d8	003f5613	srli	x12,x30,0x3	 x30:0x3ffb8000 x12=0x07ff7000
       25645000	      2563	800019dc	ff9098e3	bne	x1,x25,800019cc	  x1:0xfffffffc x25:0xfffffffc
       25655000	      2564	800019e0	407ed233	sra	x4,x29,x7	 x29:0x00000000  x7:0x00000000  x4=0x00000000
       25665000	      2565	800019e4	76b6af13	slti	x30,x13,1899	 x13:0x0000000a x30=0x00000001
       25675000	      2566	800019e8	fd86e6e3	bltu	x13,x24,800019b4	 x13:0x0000000a x24:0x00000001
       25685000	      2567	800019ec	011b0b33	add	x22,x22,x17	 x22:0x0000000b x17:0x0000000e x22=0x00000019
       25695000	      2568	800019f0	018dc4b3	xor	x9,x27,x24	 x27:0xffffffff x24:0x00000001  x9=0xfffffffe
       25705000	      2569	800019f4	009b7593	andi	x11,x22,9	 x22:0x00000019 x11=0x00000009
       25715000	      2570	800019f8	4b9cc497	auipc	x9,0x4b9cc	  x9=0xcb9cd9f4
       25725000	      2571	800019fc	fe2b1897	auipc	x17,0xfe2b1	 x17=0x7e2b29f8
       25735000	      2572	80001a00	608d2793	slti	x15,x26,1544	 x26:0xffffffff x15=0x00000001
       25745000	      2573	80001a04	7f318117	auipc	x2,0x7f318	  x2=0xff319a00
       25755000	      2574	80001a08	40d1d1b3	sra	x3,x3,x13	  x3:0x00000000 x13:0x0000000a  x3=0x00000000
       25765000	      2575	80001a0c	00a05463	bge	x0,x10,80001a14	  x0:0x00000000 x10:0x00000000
       25775000	      2576	00000000	00000013	addi	x0,x0,0	  x0:0x00000000
       25785000	      2577	80001a10	00000013	addi	x0,x0,0	  x0:0x00000000
       25795000	      2578	80001a14	c8d5b313	sltiu	x6,x11,-883	 x11:0x00000009  x6=0x00000001
       25805000	      2579	80001a18	00000013	addi	x0,x0,0	  x0:0x00000000
       25815000	      2580	80001a1c	05688863	beq	x17,x22,80001a6c	 x17:0x7e2b29f8 x22:0x00000019
       25825000	      2581	80001a20	a461be93	sltiu	x29,x3,-1466	  x3:0x00000000 x29=0x00000001
       25835000	      2582	80001a24	019fe4b3	or	x9,x31,x25	 x31:0x80000000 x25:0xfffffffc  x9=0xfffffffc
       25845000	      2583	80001a28	01f18033	add	x0,x3,x31	  x3:0x00000000 x31:0x80000000
       25855000	      2584	80001a2c	014d5b33	srl	x22,x26,x20	 x26:0xffffffff x20:0x80009fc4 x22=0x0fffffff
       25865000	      2585	80001a30	05d7d863	bge	x15,x29,80001a80	 x15:0x00000001 x29:0x00000001
       25875000	      2586	00000000	00000013	addi	x0,x0,0	  x0:0x00000000
       25885000	      2587	80001a7c	00000013	addi	x0,x0,0	  x0:0x00000000
       25895000	      2588	80001a80	017518b3	sll	x17,x10,x23	 x10:0x00000000 x23:0xffffffef x17=0x00000000
       25905000	      2589	80001a84	42c6e993	ori	x19,x13,1068	 x13:0x0000000a x19=0x0000042e
       25915000	      2590	80001a88	0281fa63	bgeu	x3,x8,80001abc	  x3:0x00000000  x8:0x00000001
       25925000	      2591	80001a8c	007f1793	slli	x15,x30,0x7	 x30:0x00000001 x15=0x00000080
       25935000	      2592	80001a90	01d98c63	beq	x19,x29,80001aa8	 x19:0x0000042e x29:0x00000001
       25945000	      2593	80001a94	41dc88b3	sub	x17,x25,x29	 x25:0xfffffffc x29:0x00000001 x17=0xfffffffb
       25955000	      2594	80001a98	00000013	addi	x0,x0,0	  x0:0x00000000
       25965000	      2595	80001a9c	01cccab3	xor	x21,x25,x28	 x25:0xfffffffc x28:0x80009f40 x21=0x7fff60bc
       25975000	      2596	80001aa0	038e7263	bgeu	x28,x24,80001ac4	 x28:0x80009f40 x24:0x00000001
       25985000	      2597	00000000	00000013	addi	x0,x0,0	  x0:0x00000000
       25995000	      2598	80001ac0	00000013	addi	x0,x0,0	  x0:0x00000000
       26005000	      2599	80001ac4	035c5463	bge	x24,x21,80001aec	 x24:0x00000001 x21:0x7fff60bc
       26015000	      2600	80001ac8	02d87463	bgeu	x16,x13,80001af0	 x16:0xffffffff x13:0x0000000a
       26025000	      2601	00000000	00000013	addi	x0,x0,0	  x0:0x00000000
       26035000	      2602	80001aec	00000013	addi	x0,x0,0	  x0:0x00000000
       26045000	      2603	80001af0	00000013	addi	x0,x0,0	  x0:0x00000000
       26055000	      2604	80001af4	b1873913	sltiu	x18,x14,-1256	 x14:0x856fa1f3 x18=0x00000001
       26065000	      2605	80001af8	0108df33	srl	x30,x17,x16	 x17:0xfffffffb x16:0xffffffff x30=0x00000001
       26075000	      2606	80001afc	e868e737	lui	x14,0xe868e	 x14=0xe868e000
       26085000	      2607	80001b00	40240f33	sub	x30,x8,x2	  x8:0x00000001  x2:0xff319a00 x30=0x00ce6601
       26095000	      2608	80001b04	03896a63	bltu	x18,x24,80001b38	 x18:0x00000001 x24:0x00000001
       26105000	      2609	80001b08	024bd063	bge	x23,x4,80001b28	 x23:0xffffffef  x4:0x00000000
       26115000	      2610	80001b0c	004d7b33	and	x22,x26,x4	 x26:0xffffffff  x4:0x00000000 x22=0x00000000
       26125000	      2611	80001b10	035cd663	bge	x25,x21,80001b3c	 x25:0xfffffffc x21:0x7fff60bc
       26135000	      2612	80001b14	08038463	beq	x7,x0,80001b9c	  x7:0x00000000  x0:0x00000000
       26145000	      2613	00000000	00000013	addi	x0,x0,0	  x0:0x00000000
       26155000	      2614	80001b98	00000013	addi	x0,x0,0	  x0:0x00000000
       26165000	      2615	80001b9c	e48f0293	addi	x5,x30,-440	 x30:0x00ce6601  x5=0x00ce6449
       26175000	      2616	80001ba0	038ecc63	blt	x29,x24,80001bd8	 x29:0x00000001 x24:0x00000001
       26185000	      2617	80001ba4	005e6e63	bltu	x28,x5,80001bc0	 x28:0x80009f40  x5:0x00ce6449
       26195000	      2618	80001ba8	05529263	bne	x5,x21,80001bec	  x5:0x00ce6449 x21:0x7fff60bc
       26205000	      2619	00000000	00000013	addi	x0,x0,0	  x0:0x00000000
       26215000	      2620	80001be8	00000013	addi	x0,x0,0	  x0:0x00000000
       26225000	      2621	80001bec	0041dc63	bge	x3,x4,80001c04	  x3:0x00000000  x4:0x00000000
       26235000	      2622	00000000	00000013	addi	x0,x0,0	  x0:0x00000000
       26245000	      2623	80001c00	00000013	addi	x0,x0,0	  x0:0x00000000
       26255000	      2624	80001c04	01c7a8b3	slt	x17,x15,x28	 x15:0x00000080 x28:0x80009f40 x17=0x00000000
       26265000	      2625	80001c08	16ff4613	xori	x12,x30,367	 x30:0x00ce6601 x12=0x00ce676e
       26275000	      2626	80001c0c	7efd0d13	addi	x26,x26,2031	 x26:0xffffffff x26=0x000007ee
       26285000	      2627	80001c10	039b9c63	bne	x23,x25,80001c48	 x23:0xffffffef x25:0xfffffffc
       26295000	      2628	00000000	00000013	addi	x0,x0,0	  x0:0x00000000
       26305000	      2629	80001c44	00000013	addi	x0,x0,0	  x0:0x00000000
       26315000	      2630	80001c48	41b38ab3	sub	x21,x7,x27	  x7:0x00000000 x27:0xffffffff x21=0x00000001
       26325000	      2631	80001c4c	01417463	bgeu	x2,x20,80001c54	  x2:0xff319a00 x20:0x80009fc4
       26335000	      2632	00000000	00000013	addi	x0,x0,0	  x0:0x00000000
       26345000	      2633	80001c50	00000013	addi	x0,x0,0	  x0:0x00000000
       26355000	      2634	80001c54	0249da63	bge	x19,x4,80001c88	 x19:0x0000042e  x4:0x00000000
       26365000	      2635	00000000	00000013	addi	x0,x0,0	  x0:0x00000000
       26375000	      2636	80001c84	00000013	addi	x0,x0,0	  x0:0x00000000
       26385000	      2637	80001c88	46e4cd97	auipc	x27,0x46e4c	 x27=0xc6e4dc84
       26395000	      2638	80001c8c	05ded863	bge	x29,x29,80001cdc	 x29:0x00000001 x29:0x00000001
       26405000	      2639	00000000	00000013	addi	x0,x0,0	  x0:0x00000000
       26415000	      2640	80001cd8	00000013	addi	x0,x0,0	  x0:0x00000000
       26425000	      2641	80001cdc	f497c413	xori	x8,x15,-183	 x15:0x00000080  x8=0xffffffc9
       26435000	      2642	80001ce0	67a96bb7	lui	x23,0x67a96	 x23=0x67a96000
       26445000	      2643	80001ce4	924fa293	slti	x5,x31,-1756	 x31:0x80000000  x5=0x00000001
       26455000	      2644	80001ce8	01f20c33	add	x24,x4,x31	  x4:0x00000000 x31:0x80000000 x24=0x80000000
       26465000	      2645	80001cec	0074b433	sltu	x8,x9,x7	  x9:0xfffffffc  x7:0x00000000  x8=0x00000000
       26475000	      2646	80001cf0	01abecb3	or	x25,x23,x26	 x23:0x67a96000 x26:0x000007ee x25=0x67a967ee
       26485000	      2647	80001cf4	0015ac33	slt	x24,x11,x1	 x11:0x00000009  x1:0xfffffffc x24=0x00000000
       26495000	      2648	80001cf8	00d4d813	srli	x16,x9,0xd	  x9:0xfffffffc x16=0x0007ffff
       26505000	      2649	80001cfc	004270b3	and	x1,x4,x4	  x4:0x00000000  x4:0x00000000  x1=0x00000000
       26515000	      2650	80001d00	00f95ab3	srl	x21,x18,x15	 x18:0x00000001 x15:0x00000080 x21=0x00000001
       26525000	      2651	80001d04	bc630813	addi	x16,x6,-1082	  x6:0x00000001 x16=0xfffffbc7
       26535000	      2652	80001d08	a56c6e93	ori	x29,x24,-1450	 x24:0x00000000 x29=0xfffffa56
       26545000	      2653	80001d0c	00000013	addi	x0,x0,0	  x0:0x00000000
       26555000	      2654	80001d10	b37a9bb7	lui	x23,0xb37a9	 x23=0xb37a9000
       26565000	      2655	80001d14	01f3ab33	slt	x22,x7,x31	  x7:0x00000000 x31:0x80000000 x22=0x00000000
       26575000	      2656	80001d18	005d1333	sll	x6,x26,x5	 x26:0x000007ee  x5:0x00000001  x6=0x00000fdc
       26585000	      2657	80001d1c	01f45f13	srli	x30,x8,0x1f	  x8:0x00000000 x30=0x00000000
       26595000	      2658	80001d20	b1de0c13	addi	x24,x28,-1251	 x28:0x80009f40 x24=0x80009a5d
       26605000	      2659	80001d24	03aa8063	beq	x21,x26,80001d44	 x21:0x00000001 x26:0x000007ee
       26615000	      2660	80001d28	5362ff13	andi	x30,x5,1334	  x5:0x00000001 x30=0x00000000
       26625000	      2661	80001d2c	00000013	addi	x0,x0,0	  x0:0x00000000
       26635000	      2662	80001d30	9e178393	addi	x7,x15,-1567	 x15:0x00000080  x7=0xfffffa61
       26645000	      2663	80001d34	014cf833	and	x16,x25,x20	 x25:0x67a967ee x20:0x80009fc4 x16=0x000007c4
       26655000	      2664	80001d38	41dfd013	srai	x0,x31,0x1d	 x31:0x80000000
       26665000	      2665	80001d3c	01079313	slli	x6,x15,0x10	 x15:0x00000080  x6=0x00800000
       26675000	      2666	80001d40	4005d3b3	sra	x7,x11,x0	 x11:0x00000009  x0:0x00000000  x7=0x00000009
       26685000	      2667	80001d44	1aba4813	xori	x16,x20,427	 x20:0x80009fc4 x16=0x80009e6f
       26695000	      2668	80001d48	c292ad93	slti	x27,x5,-983	  x5:0x00000001 x27=0x00000000
       26705000	      2669	80001d4c	00000013	addi	x0,x0,0	  x0:0x00000000
       26715000	      2670	80001d50	dacd1697	auipc	x13,0xdacd1	 x13=0x5acd2d4c
       26725000	      2671	80001d54	41988c33	sub	x24,x17,x25	 x17:0x00000000 x25:0x67a967ee x24=0x98569812
       26735000	      2672	80001d58	01331c63	bne	x6,x19,80001d70	  x6:0x00800000 x19:0x0000042e
       26745000	      2673	00000000	00000013	addi	x0,x0,0	  x0:0x00000000
       26755000	      2674	80001d6c	00000013	addi	x0,x0,0	  x0:0x00000000
       26765000	      2675	80001d70	00000013	addi	x0,x0,0	  x0:0x00000000
       26775000	      2676	80001d74	d90fe913	ori	x18,x31,-624	 x31:0x80000000 x18=0xfffffd90
       26785000	      2677	80001d78	0190a8b3	slt	x17,x1,x25	  x1:0x00000000 x25:0x67a967ee x17=0x00000001
       26795000	      2678	80001d7c	098eb313	sltiu	x6,x29,152	 x29:0xfffffa56  x6=0x00000000
       26805000	      2679	80001d80	28300d13	addi	x26,x0,643	  x0:0x00000000 x26=0x00000283
       26815000	      2680	80001d84	00368133	add	x2,x13,x3	 x13:0x5acd2d4c  x3:0x00000000  x2=0x5acd2d4c
       26825000	      2681	80001d88	410c84b3	sub	x9,x25,x16	 x25:0x67a967ee x16:0x80009e6f  x9=0xe7a8c97f
       26835000	      2682	80001d8c	f1308293	addi	x5,x1,-237	  x1:0x00000000  x5=0xffffff13
       26845000	      2683	80001d90	003d8933	add	x18,x27,x3	 x27:0x00000000  x3:0x00000000 x18=0x00000000
       26855000	      2684	80001d94	40048d33	sub	x26,x9,x0	  x9:0xe7a8c97f  x0:0x00000000 x26=0xe7a8c97f
       26865000	      2685	80001d98	00e783b3	add	x7,x15,x14	 x15:0x00000080 x14:0xe868e000  x7=0xe868e080
       26875000	      2686	80001d9c	01acccb3	xor	x25,x25,x26	 x25:0x67a967ee x26:0xe7a8c97f x25=0x8001ae91
       26885000	      2687	80001da0	013e11b3	sll	x3,x28,x19	 x28:0x80009f40 x19:0x0000042e  x3=0x27d00000
       26895000	      2688	80001da4	00f74c63	blt	x14,x15,80001dbc	 x14:0xe868e000 x15:0x00000080
       26905000	      2689	00000000	00000013	addi	x0,x0,0	  x0:0x00000000
       26915000	      2690	80001db8	00000013	addi	x0,x0,0	  x0:0x00000000
       26925000	      2691	80001dbc	02b40863	beq	x8,x11,80001dec	  x8:0x00000000 x11:0x00000009
       26935000	      2692	80001dc0	9d75b413	sltiu	x8,x11,-1577	 x11:0x00000009  x8=0x00000001
       26945000	      2693	80001dc4	01d4f5b3	and	x11,x9,x29	  x9:0xe7a8c97f x29:0xfffffa56 x11=0xe7a8c856
       26955000	      2694	80001dc8	69388513	addi	x10,x17,1683	 x17:0x00000001 x10=0x00000694
       26965000	      2695	80001dcc	00bc8c63	beq	x25,x11,80001de4	 x25:0x8001ae91 x11:0xe7a8c856
       26975000	      2696	80001dd0	afef0213	addi	x4,x30,-1282	 x30:0x00000000  x4=0xfffffafe
       26985000	      2697	80001dd4	01074663	blt	x14,x16,80001de0	 x14:0xe868e000 x16:0x80009e6f
       26995000	      2698	80001dd8	40958933	sub	x18,x11,x9	 x11:0xe7a8c856  x9:0xe7a8c97f x18=0xfffffed7
       27005000	      2699	80001ddc	419adb93	srai	x23,x21,0x19	 x21:0x00000001 x23=0x00000000
       27015000	      2700	80001de0	90352093	slti	x1,x10,-1789	 x10:0x00000694  x1=0x00000000
       27025000	      2701	80001de4	04fb6263	bltu	x22,x15,80001e28	 x22:0x00000000 x15:0x00000080
       27035000	      2702	00000000	00000013	addi	x0,x0,0	  x0:0x00000000
       27045000	      2703	80001e24	00000013	addi	x0,x0,0	  x0:0x00000000
       27055000	      2704	80001e28	f0cbeb13	ori	x22,x23,-244	 x23:0x00000000 x22=0xffffff0c
       27065000	      2705	80001e2c	0239cc63	blt	x19,x3,80001e64	 x19:0x0000042e  x3:0x27d00000
       27075000	      2706	00000000	00000013	addi	x0,x0,0	  x0:0x00000000
       27085000	      2707	80001e60	00000013	addi	x0,x0,0	  x0:0x00000000
       27095000	      2708	80001e64	04888863	beq	x17,x8,80001eb4	 x17:0x00000001  x8:0x00000001
       27105000	      2709	00000000	00000013	addi	x0,x0,0	  x0:0x00000000
       27115000	      2710	80001eb0	00000013	addi	x0,x0,0	  x0:0x00000000
       27125000	      2711	80001eb4	00721eb3	sll	x29,x4,x7	  x4:0xfffffafe  x7:0xe868e080 x29=0xfffffafe
       27135000	      2712	80001eb8	00fd72b3	and	x5,x26,x15	 x26:0xe7a8c97f x15:0x00000080  x5=0x00000000
       27145000	      2713	80001ebc	10cbf537	lui	x10,0x10cbf	 x10=0x10cbf000
       27155000	      2714	80001ec0	4160d313	srai	x6,x1,0x16	  x1:0x00000000  x6=0x00000000
       27165000	      2715	80001ec4	40848433	sub	x8,x9,x8	  x9:0xe7a8c97f  x8:0x00000001  x8=0xe7a8c97e
       27175000	      2716	80001ec8	011686b3	add	x13,x13,x17	 x13:0x5acd2d4c x17:0x00000001 x13=0x5acd2d4d
       27185000	      2717	80001ecc	4b6c0213	addi	x4,x24,1206	 x24:0x98569812  x4=0x98569cc8
       27195000	      2718	80001ed0	03c0f863	bgeu	x1,x28,80001f00	  x1:0x00000000 x28:0x80009f40
       27205000	      2719	80001ed4	05d40263	beq	x8,x29,80001f18	  x8:0xe7a8c97e x29:0xfffffafe
       27215000	      2720	80001ed8	a5ee7737	lui	x14,0xa5ee7	 x14=0xa5ee7000
       27225000	      2721	80001edc	01ba0833	add	x16,x20,x27	 x20:0x80009fc4 x27:0x00000000 x16=0x80009fc4
       27235000	      2722	80001ee0	bc1e6813	ori	x16,x28,-1087	 x28:0x80009f40 x16=0xffffffc1
       27245000	      2723	80001ee4	41ff8833	sub	x16,x31,x31	 x31:0x80000000 x31:0x80000000 x16=0x00000000
       27255000	      2724	80001ee8	009978b3	and	x17,x18,x9	 x18:0xfffffed7  x9:0xe7a8c97f x17=0xe7a8c857
       27265000	      2725	80001eec	019a8833	add	x16,x21,x25	 x21:0x00000001 x25:0x8001ae91 x16=0x8001ae92
       27275000	      2726	80001ef0	0538d263	bge	x17,x19,80001f34	 x17:0xe7a8c857 x19:0x0000042e
       27285000	      2727	80001ef4	1372ec17	auipc	x24,0x1372e	 x24=0x9372fef0
       27295000	      2728	80001ef8	41128233	sub	x4,x5,x17	  x5:0x00000000 x17:0xe7a8c857  x4=0x185737a9
       27305000	      2729	80001efc	02f9e863	bltu	x19,x15,80001f2c	 x19:0x0000042e x15:0x00000080
       27315000	      2730	80001f00	5ca57437	lui	x8,0x5ca57	  x8=0x5ca57000
       27325000	      2731	80001f04	a1790c13	addi	x24,x18,-1513	 x18:0xfffffed7 x24=0xfffff8ee
       27335000	      2732	80001f08	41d7de93	srai	x29,x15,0x1d	 x15:0x00000080 x29=0x00000000
       27345000	      2733	80001f0c	02bb4663	blt	x22,x11,80001f38	 x22:0xffffff0c x11:0xe7a8c856
       27355000	      2734	80001f10	00421813	slli	x16,x4,0x4	  x4:0x185737a9 x16=0x85737a90
       27365000	      2735	80001f14	40ef5d93	srai	x27,x30,0xe	 x30:0x00000000 x27=0x00000000
       27375000	      2736	80001f18	e3c7cd93	xori	x27,x15,-452	 x15:0x00000080 x27=0xfffffebc
       27385000	      2737	80001f1c	00e3d793	srli	x15,x7,0xe	  x7:0xe868e080 x15=0x0003a1a3
       27395000	      2738	80001f20	b8747213	andi	x4,x8,-1145	  x8:0x5ca57000  x4=0x5ca57000
       27405000	      2739	80001f24	01a3d413	srli	x8,x7,0x1a	  x7:0xe868e080  x8=0x0000003a
       27415000	      2740	80001f28	01712833	slt	x16,x2,x23	  x2:0x5acd2d4c x23:0x00000000 x16=0x00000000
       27425000	      2741	80001f2c	016fc333	xor	x6,x31,x22	 x31:0x80000000 x22:0xffffff0c  x6=0x7fffff0c
       27435000	      2742	80001f30	02400463	beq	x0,x4,80001f58	  x0:0x00000000  x4:0x5ca57000
       27445000	      2743	80001f34	01629393	slli	x7,x5,0x16	  x5:0x00000000  x7=0x00000000
       27455000	      2744	80001f38	00012b33	slt	x22,x2,x0	  x2:0x5acd2d4c  x0:0x00000000 x22=0x00000000
       27465000	      2745	80001f3c	00c314b3	sll	x9,x6,x12	  x6:0x7fffff0c x12:0x00ce676e  x9=0xffc30000
       27475000	      2746	80001f40	00000013	addi	x0,x0,0	  x0:0x00000000
       27485000	      2747	80001f44	022ffc63	bgeu	x31,x2,80001f7c	 x31:0x80000000  x2:0x5acd2d4c
       27495000	      2748	00000000	00000013	addi	x0,x0,0	  x0:0x00000000
       27505000	      2749	80001f78	00000013	addi	x0,x0,0	  x0:0x00000000
       27515000	      2750	80001f7c	0ed7a0b7	lui	x1,0xed7a	  x1=0x0ed7a000
       27525000	      2751	80001f80	8c4bc893	xori	x17,x23,-1852	 x23:0x00000000 x17=0xfffff8c4
       27535000	      2752	80001f84	01c35293	srli	x5,x6,0x1c	  x6:0x7fffff0c  x5=0x00000007
       27545000	      2753	80001f88	5442f613	andi	x12,x5,1348	  x5:0x00000007 x12=0x00000004
       27555000	      2754	80001f8c	00c1a7b3	slt	x15,x3,x12	  x3:0x27d00000 x12:0x00000004 x15=0x00000000
       27565000	      2755	80001f90	0157dbb3	srl	x23,x15,x21	 x15:0x00000000 x21:0x00000001 x23=0x00000000
       27575000	      2756	80001f94	01bc1d13	slli	x26,x24,0x1b	 x24:0xfffff8ee x26=0x70000000
       27585000	      2757	80001f98	008f1e93	slli	x29,x30,0x8	 x30:0x00000000 x29=0x00000000
       27595000	      2758	80001f9c	048cc863	blt	x25,x8,80001fec	 x25:0x8001ae91  x8:0x0000003a
       27605000	      2759	00000000	00000013	addi	x0,x0,0	  x0:0x00000000
       27615000	      2760	80001fe8	00000013	addi	x0,x0,0	  x0:0x00000000
       27625000	      2761	80001fec	16b8fd93	andi	x27,x17,363	 x17:0xfffff8c4 x27=0x00000040
       27635000	      2762	80001ff0	40c40233	sub	x4,x8,x12	  x8:0x0000003a x12:0x00000004  x4=0x00000036
       27645000	      2763	80001ff4	7c22cd93	xori	x27,x5,1986	  x5:0x00000007 x27=0x000007c5
       27655000	      2764	80001ff8	0076ec63	bltu	x13,x7,80002010	 x13:0x5acd2d4d  x7:0x00000000
       27665000	      2765	80001ffc	600a8593	addi	x11,x21,1536	 x21:0x00000001 x11=0x00000601
       27675000	      2766	80002000	01140f33	add	x30,x8,x17	  x8:0x0000003a x17:0xfffff8c4 x30=0xfffff8fe
       27685000	      2767	80002004	00000013	addi	x0,x0,0	  x0:0x00000000
       27695000	      2768	80002008	951b7e93	andi	x29,x22,-1711	 x22:0x00000000 x29=0x00000000
       27705000	      2769	8000200c	00000013	addi	x0,x0,0	  x0:0x00000000
       27715000	      2770	80002010	0017ec63	bltu	x15,x1,80002028	 x15:0x00000000  x1:0x0ed7a000
       27725000	      2771	00000000	00000013	addi	x0,x0,0	  x0:0x00000000
       27735000	      2772	80002024	00000013	addi	x0,x0,0	  x0:0x00000000
       27745000	      2773	80002028	eda80293	addi	x5,x16,-294	 x16:0x00000000  x5=0xfffffeda
       27755000	      2774	8000202c	40b507b3	sub	x15,x10,x11	 x10:0x10cbf000 x11:0x00000601 x15=0x10cbe9ff
       27765000	      2775	80002030	02d10063	beq	x2,x13,80002050	  x2:0x5acd2d4c x13:0x5acd2d4d
       27775000	      2776	80002034	00539513	slli	x10,x7,0x5	  x7:0x00000000 x10=0x00000000
       27785000	      2777	80002038	05500863	beq	x0,x21,80002088	  x0:0x00000000 x21:0x00000001
       27795000	      2778	8000203c	00940cb3	add	x25,x8,x9	  x8:0x0000003a  x9:0xffc30000 x25=0xffc3003a
       27805000	      2779	80002040	0083f4b3	and	x9,x7,x8	  x7:0x00000000  x8:0x0000003a  x9=0x00000000
       27815000	      2780	80002044	92c17913	andi	x18,x2,-1748	  x2:0x5acd2d4c x18=0x5acd290c
       27825000	      2781	80002048	2ae68213	addi	x4,x13,686	 x13:0x5acd2d4d  x4=0x5acd2ffb
       27835000	      2782	8000204c	010cf5b3	and	x11,x25,x16	 x25:0xffc3003a x16:0x00000000 x11=0x00000000
       27845000	      2783	80002050	01af13b3	sll	x7,x30,x26	 x30:0xfffff8fe x26:0x70000000  x7=0xfffff8fe
       27855000	      2784	80002054	00d7c933	xor	x18,x15,x13	 x15:0x10cbe9ff x13:0x5acd2d4d x18=0x4a06c4b2
       27865000	      2785	80002058	e81bbc13	sltiu	x24,x23,-383	 x23:0x00000000 x24=0x00000001
       27875000	      2786	8000205c	0035db93	srli	x23,x11,0x3	 x11:0x00000000 x23=0x00000000
       27885000	      2787	80002060	006ecc63	blt	x29,x6,80002078	 x29:0x00000000  x6:0x7fffff0c
       27895000	      2788	00000000	00000013	addi	x0,x0,0	  x0:0x00000000
       27905000	      2789	80002074	00000013	addi	x0,x0,0	  x0:0x00000000
       27915000	      2790	80002078	41d9d513	srai	x10,x19,0x1d	 x19:0x0000042e x10=0x00000000
       27925000	      2791	8000207c	405bd1b3	sra	x3,x23,x5	 x23:0x00000000  x5:0xfffffeda  x3=0x00000000
       27935000	      2792	80002080	017f6d33	or	x26,x30,x23	 x30:0xfffff8fe x23:0x00000000 x26=0xfffff8fe
       27945000	      2793	80002084	413dddb3	sra	x27,x27,x19	 x27:0x000007c5 x19:0x0000042e x27=0x00000000
       27955000	      2794	80002088	00000013	addi	x0,x0,0	  x0:0x00000000
       27965000	      2795	8000208c	00285213	srli	x4,x16,0x2	 x16:0x00000000  x4=0x00000000
       27975000	      2796	80002090	033d1a63	bne	x26,x19,800020c4	 x26:0xfffff8fe x19:0x0000042e
       27985000	      2797	00000000	00000013	addi	x0,x0,0	  x0:0x00000000
       27995000	      2798	800020c0	00000013	addi	x0,x0,0	  x0:0x00000000
       28005000	      2799	800020c4	49361237	lui	x4,0x49361	  x4=0x49361000
       28015000	      2800	800020c8	2fe6b513	sltiu	x10,x13,766	 x13:0x5acd2d4d x10=0x00000000
       28025000	      2801	800020cc	01b5fd33	and	x26,x11,x27	 x11:0x00000000 x27:0x00000000 x26=0x00000000
       28035000	      2802	800020d0	00f567b3	or	x15,x10,x15	 x10:0x00000000 x15:0x10cbe9ff x15=0x10cbe9ff
       28045000	      2803	800020d4	4051d033	sra	x0,x3,x5	  x3:0x00000000  x5:0xfffffeda
       28055000	      2804	800020d8	044d7c63	bgeu	x26,x4,80002130	 x26:0x00000000  x4:0x49361000
       28065000	      2805	800020dc	018c5d33	srl	x26,x24,x24	 x24:0x00000001 x24:0x00000001 x26=0x00000000
       28075000	      2806	800020e0	412b6397	auipc	x7,0x412b6	  x7=0xc12b80dc
       28085000	      2807	800020e4	8af45017	auipc	x0,0x8af45	
       28095000	      2808	800020e8	41918633	sub	x12,x3,x25	  x3:0x00000000 x25:0xffc3003a x12=0x003cffc6
       28105000	      2809	800020ec	009b0663	beq	x22,x9,800020f8	 x22:0x00000000  x9:0x00000000
       28115000	      2810	00000000	00000013	addi	x0,x0,0	  x0:0x00000000
       28125000	      2811	800020f4	00000013	addi	x0,x0,0	  x0:0x00000000
       28135000	      2812	800020f8	41c40bb3	sub	x23,x8,x28	  x8:0x0000003a x28:0x80009f40 x23=0x7fff60fa
       28145000	      2813	800020fc	4771e593	ori	x11,x3,1143	  x3:0x00000000 x11=0x00000477
       28155000	      2814	80002100	00f25cb3	srl	x25,x4,x15	  x4:0x49361000 x15:0x10cbe9ff x25=0x00000000
       28165000	      2815	80002104	00000013	addi	x0,x0,0	  x0:0x00000000
       28175000	      2816	80002108	410f8ab3	sub	x21,x31,x16	 x31:0x80000000 x16:0x00000000 x21=0x80000000
       28185000	      2817	8000210c	927b0013	addi	x0,x22,-1753	 x22:0x00000000
       28195000	      2818	80002110	fdc8a113	slti	x2,x17,-36	 x17:0xfffff8c4  x2=0x00000001
       28205000	      2819	80002114	001a33b3	sltu	x7,x20,x1	 x20:0x80009fc4  x1:0x0ed7a000  x7=0x00000000
       28215000	      2820	80002118	1eb1a013	slti	x0,x3,491	  x3:0x00000000
       28225000	      2821	8000211c	00b72433	slt	x8,x14,x11	 x14:0xa5ee7000 x11:0x00000477  x8=0x00000001
       28235000	      2822	80002120	01f32033	slt	x0,x6,x31	  x6:0x7fffff0c x31:0x80000000
       28245000	      2823	80002124	cbaaca93	xori	x21,x21,-838	 x21:0x80000000 x21=0x7ffffcba
       28255000	      2824	80002128	006602b3	add	x5,x12,x6	 x12:0x003cffc6  x6:0x7fffff0c  x5=0x803cfed2
       28265000	      2825	8000212c	8b8fed6f	jal	x26,8000212c	 x26=0x8000212c
       28275000	      2826	00000000	00000013	addi	x0,x0,0	  x0:0x00000000
       28285000	      2827	800001e0	00000013	addi	x0,x0,0	  x0:0x00000000
       28295000	      2828	800001e4	00c1d493	srli	x9,x3,0xc	  x3:0x00000000  x9=0x00000000
       28305000	      2829	800001e8	ff4e0e13	addi	x28,x28,-12	 x28:0x80009f40 x28=0x80009f34
       28315000	      2830	800001ec	01527333	and	x6,x4,x21	  x4:0x49361000 x21:0x7ffffcba  x6=0x49361000
       28325000	      2831	800001f0	01ae2223	sw	x26,4(x28)	 x28:0x80009f34 x26:0x8000212c PA:0x80009f38
       28335000	      2832	800001f4	00cb78b3	and	x17,x22,x12	 x22:0x00000000 x12:0x003cffc6 x17=0x00000000
       28345000	      2833	800001f8	001db633	sltu	x12,x27,x1	 x27:0x00000000  x1:0x0ed7a000 x12=0x00000001
       28355000	      2834	800001fc	0047d833	srl	x16,x15,x4	 x15:0x10cbe9ff  x4:0x49361000 x16=0x10cbe9ff
       28365000	      2835	80000200	000d4f33	xor	x30,x26,x0	 x26:0x8000212c  x0:0x00000000 x30=0x8000212c
       28375000	      2836	80000204	195a1c37	lui	x24,0x195a1	 x24=0x195a1000
       28385000	      2837	80000208	00cadc63	bge	x21,x12,80000220	 x21:0x7ffffcba x12:0x00000001
       28395000	      2838	00000000	00000013	addi	x0,x0,0	  x0:0x00000000
       28405000	      2839	8000021c	00000013	addi	x0,x0,0	  x0:0x00000000
       28415000	      2840	80000220	46000d6f	jal	x26,80000220	 x26=0x80000220
       28425000	      2841	00000000	00000013	addi	x0,x0,0	  x0:0x00000000
       28435000	      2842	8000067c	00000013	addi	x0,x0,0	  x0:0x00000000
       28445000	      2843	80000680	010d4ab3	xor	x21,x26,x16	 x26:0x80000220 x16:0x10cbe9ff x21=0x90cbebdf
       28455000	      2844	80000684	011c1bb3	sll	x23,x24,x17	 x24:0x195a1000 x17:0x00000000 x23=0x195a1000
       28465000	      2845	80000688	01ed4463	blt	x26,x30,80000690	 x26:0x80000220 x30:0x8000212c
       28475000	      2846	00000000	00000013	addi	x0,x0,0	  x0:0x00000000
       28485000	      2847	8000068c	00000013	addi	x0,x0,0	  x0:0x00000000
       28495000	      2848	80000690	fdce0e13	addi	x28,x28,-36	 x28:0x80009f34 x28=0x80009f10
       28505000	      2849	80000694	01ae2223	sw	x26,4(x28)	 x28:0x80009f10 x26:0x80000220 PA:0x80009f14
       28515000	      2850	80000698	00f63833	sltu	x16,x12,x15	 x12:0x00000001 x15:0x10cbe9ff x16=0x00000001
       28525000	      2851	8000069c	00200613	addi	x12,x0,2	  x0:0x00000000 x12=0x00000002
       28535000	      2852	800006a0	63224397	auipc	x7,0x63224	  x7=0xe322469c
       28545000	      2853	800006a4	c6c94a93	xori	x21,x18,-916	 x18:0x4a06c4b2 x21=0xb5f938de
       28555000	      2854	800006a8	ff000b13	addi	x22,x0,-16	  x0:0x00000000 x22=0xfffffff0
       28565000	      2855	800006ac	49525ab7	lui	x21,0x49525	 x21=0x49525000
       28575000	      2856	800006b0	404b8833	sub	x16,x23,x4	 x23:0x195a1000  x4:0x49361000 x16=0xd0240000
       28585000	      2857	800006b4	419e89b3	sub	x19,x29,x25	 x29:0x00000000 x25:0x00000000 x19=0x00000000
       28595000	      2858	800006b8	a75eb537	lui	x10,0xa75eb	 x10=0xa75eb000
       28605000	      2859	800006bc	f870cd13	xori	x26,x1,-121	  x1:0x0ed7a000 x26=0xf1285f87
       28615000	      2860	800006c0	00be66b3	or	x13,x28,x11	 x28:0x80009f10 x11:0x00000477 x13=0x80009f77
       28625000	      2861	800006c4	0171cd33	xor	x26,x3,x23	  x3:0x00000000 x23:0x195a1000 x26=0x195a1000
       28635000	      2862	800006c8	c2fbf2b7	lui	x5,0xc2fbf	  x5=0xc2fbf000
       28645000	      2863	800006cc	3ba60193	addi	x3,x12,954	 x12:0x00000002  x3=0x000003bc
       28655000	      2864	800006d0	01832533	slt	x10,x6,x24	  x6:0x49361000 x24:0x195a1000 x10=0x00000000
       28665000	      2865	800006d4	0170deb3	srl	x29,x1,x23	  x1:0x0ed7a000 x23:0x195a1000 x29=0x0ed7a000
       28675000	      2866	800006d8	7715e313	ori	x6,x11,1905	 x11:0x00000477  x6=0x00000777
       28685000	      2867	800006dc	ff760613	addi	x12,x12,-9	 x12:0x00000002 x12=0xfffffff9
       28695000	      2868	800006e0	4fbf3893	sltiu	x17,x30,1275	 x30:0x8000212c x17=0x00000000
       28705000	      2869	800006e4	ad140193	addi	x3,x8,-1327	  x8:0x00000001  x3=0xfffffad2
       28715000	      2870	800006e8	01e2af33	slt	x30,x5,x30	  x5:0xc2fbf000 x30:0x8000212c x30=0x00000000
       28725000	      2871	800006ec	0569ec93	ori	x25,x19,86	 x19:0x00000000 x25=0x00000056
       28735000	      2872	800006f0	000b9e93	slli	x29,x23,0x0	 x23:0x195a1000 x29=0x195a1000
       28745000	      2873	800006f4	2a836013	ori	x0,x6,680	  x6:0x00000777
       28755000	      2874	800006f8	017e9a93	slli	x21,x29,0x17	 x29:0x195a1000 x21=0x00000000
       28765000	      2875	800006fc	01794bb3	xor	x23,x18,x23	 x18:0x4a06c4b2 x23:0x195a1000 x23=0x535cd4b2
       28775000	      2876	80000700	406f5513	srai	x10,x30,0x6	 x30:0x00000000 x10=0x00000000
       28785000	      2877	80000704	0182e4b3	or	x9,x5,x24	  x5:0xc2fbf000 x24:0x195a1000  x9=0xdbfbf000
       28795000	      2878	80000708	fb6618e3	bne	x12,x22,800006b8	 x12:0xfffffff9 x22:0xfffffff0
       28805000	      2879	00000000	00000013	addi	x0,x0,0	  x0:0x00000000
       28815000	      2880	800006b4	00000013	addi	x0,x0,0	  x0:0x00000000
       28825000	      2881	800006b8	a75eb537	lui	x10,0xa75eb	 x10=0xa75eb000
       28835000	      2882	800006bc	f870cd13	xori	x26,x1,-121	  x1:0x0ed7a000 x26=0xf1285f87
       28845000	      2883	800006c0	00be66b3	or	x13,x28,x11	 x28:0x80009f10 x11:0x00000477 x13=0x80009f77
       28855000	      2884	800006c4	0171cd33	xor	x26,x3,x23	  x3:0xfffffad2 x23:0x535cd4b2 x26=0xaca32e60
       28865000	      2885	800006c8	c2fbf2b7	lui	x5,0xc2fbf	  x5=0xc2fbf000
       28875000	      2886	800006cc	3ba60193	addi	x3,x12,954	 x12:0xfffffff9  x3=0x000003b3
       28885000	      2887	800006d0	01832533	slt	x10,x6,x24	  x6:0x00000777 x24:0x195a1000 x10=0x00000001
       28895000	      2888	800006d4	0170deb3	srl	x29,x1,x23	  x1:0x0ed7a000 x23:0x535cd4b2 x29=0x000003b5
       28905000	      2889	800006d8	7715e313	ori	x6,x11,1905	 x11:0x00000477  x6=0x00000777
       28915000	      2890	800006dc	ff760613	addi	x12,x12,-9	 x12:0xfffffff9 x12=0xfffffff0
       28925000	      2891	800006e0	4fbf3893	sltiu	x17,x30,1275	 x30:0x00000000 x17=0x00000001
       28935000	      2892	800006e4	ad140193	addi	x3,x8,-1327	  x8:0x00000001  x3=0xfffffad2
       28945000	      2893	800006e8	01e2af33	slt	x30,x5,x30	  x5:0xc2fbf000 x30:0x00000000 x30=0x00000001
       28955000	      2894	800006ec	0569ec93	ori	x25,x19,86	 x19:0x00000000 x25=0x00000056
       28965000	      2895	800006f0	000b9e93	slli	x29,x23,0x0	 x23:0x535cd4b2 x29=0x535cd4b2
       28975000	      2896	800006f4	2a836013	ori	x0,x6,680	  x6:0x00000777
       28985000	      2897	800006f8	017e9a93	slli	x21,x29,0x17	 x29:0x535cd4b2 x21=0x59000000
       28995000	      2898	800006fc	01794bb3	xor	x23,x18,x23	 x18:0x4a06c4b2 x23:0x535cd4b2 x23=0x195a1000
       29005000	      2899	80000700	406f5513	srai	x10,x30,0x6	 x30:0x00000001 x10=0x00000000
       29015000	      2900	80000704	0182e4b3	or	x9,x5,x24	  x5:0xc2fbf000 x24:0x195a1000  x9=0xdbfbf000
       29025000	      2901	80000708	fb6618e3	bne	x12,x22,800006b8	 x12:0xfffffff0 x22:0xfffffff0
       29035000	      2902	8000070c	016fe733	or	x14,x31,x22	 x31:0x80000000 x22:0xfffffff0 x14=0xfffffff0
       29045000	      2903	80000710	00800d13	addi	x26,x0,8	  x0:0x00000000 x26=0x00000008
       29055000	      2904	80000714	0f28c693	xori	x13,x17,242	 x17:0x00000001 x13=0x000000f3
       29065000	      2905	80000718	a62064b7	lui	x9,0xa6206	  x9=0xa6206000
       29075000	      2906	8000071c	01faaf33	slt	x30,x21,x31	 x21:0x59000000 x31:0x80000000 x30=0x00000000
       29085000	      2907	80000720	00a15b13	srli	x22,x2,0xa	  x2:0x00000001 x22=0x00000000
       29095000	      2908	80000724	00000013	addi	x0,x0,0	  x0:0x00000000
       29105000	      2909	80000728	0478af13	slti	x30,x17,71	 x17:0x00000001 x30=0x00000001
       29115000	      2910	8000072c	00df30b3	sltu	x1,x30,x13	 x30:0x00000001 x13:0x000000f3  x1=0x00000001
       29125000	      2911	80000730	ff400593	addi	x11,x0,-12	  x0:0x00000000 x11=0xfffffff4
       29135000	      2912	80000734	01b6d8b3	srl	x17,x13,x27	 x13:0x000000f3 x27:0x00000000 x17=0x000000f3
       29145000	      2913	80000738	bfa16813	ori	x16,x2,-1030	  x2:0x00000001 x16=0xfffffbfb
       29155000	      2914	8000073c	54b90537	lui	x10,0x54b90	 x10=0x54b90000
       29165000	      2915	80000740	41bf0c33	sub	x24,x30,x27	 x30:0x00000001 x27:0x00000000 x24=0x00000001
       29175000	      2916	80000744	34271db7	lui	x27,0x34271	 x27=0x34271000
       29185000	      2917	80000748	01d94c33	xor	x24,x18,x29	 x18:0x4a06c4b2 x29:0x535cd4b2 x24=0x195a1000
       29195000	      2918	8000074c	011207b3	add	x15,x4,x17	  x4:0x49361000 x17:0x000000f3 x15=0x493610f3
       29205000	      2919	80000750	cd572313	slti	x6,x14,-811	 x14:0xfffffff0  x6=0x00000000
       29215000	      2920	80000754	0142d193	srli	x3,x5,0x14	  x5:0xc2fbf000  x3=0x00000c2f
       29225000	      2921	80000758	ffcd0d13	addi	x26,x26,-4	 x26:0x00000008 x26=0x00000004
       29235000	      2922	8000075c	00275f13	srli	x30,x14,0x2	 x14:0xfffffff0 x30=0x3ffffffc
       29245000	      2923	80000760	0039b7b3	sltu	x15,x19,x3	 x19:0x00000000  x3:0x00000c2f x15=0x00000001
       29255000	      2924	80000764	00000013	addi	x0,x0,0	  x0:0x00000000
       29265000	      2925	80000768	fcbd5ee3	bge	x26,x11,80000744	 x26:0x00000004 x11:0xfffffff4
       29275000	      2926	00000000	00000013	addi	x0,x0,0	  x0:0x00000000
       29285000	      2927	80000740	00000013	addi	x0,x0,0	  x0:0x00000000
       29295000	      2928	80000744	34271db7	lui	x27,0x34271	 x27=0x34271000
       29305000	      2929	80000748	01d94c33	xor	x24,x18,x29	 x18:0x4a06c4b2 x29:0x535cd4b2 x24=0x195a1000
       29315000	      2930	8000074c	011207b3	add	x15,x4,x17	  x4:0x49361000 x17:0x000000f3 x15=0x493610f3
       29325000	      2931	80000750	cd572313	slti	x6,x14,-811	 x14:0xfffffff0  x6=0x00000000
       29335000	      2932	80000754	0142d193	srli	x3,x5,0x14	  x5:0xc2fbf000  x3=0x00000c2f
       29345000	      2933	80000758	ffcd0d13	addi	x26,x26,-4	 x26:0x00000004 x26=0x00000000
       29355000	      2934	8000075c	00275f13	srli	x30,x14,0x2	 x14:0xfffffff0 x30=0x3ffffffc
       29365000	      2935	80000760	0039b7b3	sltu	x15,x19,x3	 x19:0x00000000  x3:0x00000c2f x15=0x00000001
       29375000	      2936	80000764	00000013	addi	x0,x0,0	  x0:0x00000000
       29385000	      2937	80000768	fcbd5ee3	bge	x26,x11,80000744	 x26:0x00000000 x11:0xfffffff4
       29395000	      2938	00000000	00000013	addi	x0,x0,0	  x0:0x00000000
       29405000	      2939	80000740	00000013	addi	x0,x0,0	  x0:0x00000000
       29415000	      2940	80000744	34271db7	lui	x27,0x34271	 x27=0x34271000
       29425000	      2941	80000748	01d94c33	xor	x24,x18,x29	 x18:0x4a06c4b2 x29:0x535cd4b2 x24=0x195a1000
       29435000	      2942	8000074c	011207b3	add	x15,x4,x17	  x4:0x49361000 x17:0x000000f3 x15=0x493610f3
       29445000	      2943	80000750	cd572313	slti	x6,x14,-811	 x14:0xfffffff0  x6=0x00000000
       29455000	      2944	80000754	0142d193	srli	x3,x5,0x14	  x5:0xc2fbf000  x3=0x00000c2f
       29465000	      2945	80000758	ffcd0d13	addi	x26,x26,-4	 x26:0x00000000 x26=0xfffffffc
       29475000	      2946	8000075c	00275f13	srli	x30,x14,0x2	 x14:0xfffffff0 x30=0x3ffffffc
       29485000	      2947	80000760	0039b7b3	sltu	x15,x19,x3	 x19:0x00000000  x3:0x00000c2f x15=0x00000001
       29495000	      2948	80000764	00000013	addi	x0,x0,0	  x0:0x00000000
       29505000	      2949	80000768	fcbd5ee3	bge	x26,x11,80000744	 x26:0xfffffffc x11:0xfffffff4
       29515000	      2950	00000000	00000013	addi	x0,x0,0	  x0:0x00000000
       29525000	      2951	80000740	00000013	addi	x0,x0,0	  x0:0x00000000
       29535000	      2952	80000744	34271db7	lui	x27,0x34271	 x27=0x34271000
       29545000	      2953	80000748	01d94c33	xor	x24,x18,x29	 x18:0x4a06c4b2 x29:0x535cd4b2 x24=0x195a1000
       29555000	      2954	8000074c	011207b3	add	x15,x4,x17	  x4:0x49361000 x17:0x000000f3 x15=0x493610f3
       29565000	      2955	80000750	cd572313	slti	x6,x14,-811	 x14:0xfffffff0  x6=0x00000000
       29575000	      2956	80000754	0142d193	srli	x3,x5,0x14	  x5:0xc2fbf000  x3=0x00000c2f
       29585000	      2957	80000758	ffcd0d13	addi	x26,x26,-4	 x26:0xfffffffc x26=0xfffffff8
       29595000	      2958	8000075c	00275f13	srli	x30,x14,0x2	 x14:0xfffffff0 x30=0x3ffffffc
       29605000	      2959	80000760	0039b7b3	sltu	x15,x19,x3	 x19:0x00000000  x3:0x00000c2f x15=0x00000001
       29615000	      2960	80000764	00000013	addi	x0,x0,0	  x0:0x00000000
       29625000	      2961	80000768	fcbd5ee3	bge	x26,x11,80000744	 x26:0xfffffff8 x11:0xfffffff4
       29635000	      2962	00000000	00000013	addi	x0,x0,0	  x0:0x00000000
       29645000	      2963	80000740	00000013	addi	x0,x0,0	  x0:0x00000000
       29655000	      2964	80000744	34271db7	lui	x27,0x34271	 x27=0x34271000
       29665000	      2965	80000748	01d94c33	xor	x24,x18,x29	 x18:0x4a06c4b2 x29:0x535cd4b2 x24=0x195a1000
       29675000	      2966	8000074c	011207b3	add	x15,x4,x17	  x4:0x49361000 x17:0x000000f3 x15=0x493610f3
       29685000	      2967	80000750	cd572313	slti	x6,x14,-811	 x14:0xfffffff0  x6=0x00000000
       29695000	      2968	80000754	0142d193	srli	x3,x5,0x14	  x5:0xc2fbf000  x3=0x00000c2f
       29705000	      2969	80000758	ffcd0d13	addi	x26,x26,-4	 x26:0xfffffff8 x26=0xfffffff4
       29715000	      2970	8000075c	00275f13	srli	x30,x14,0x2	 x14:0xfffffff0 x30=0x3ffffffc
       29725000	      2971	80000760	0039b7b3	sltu	x15,x19,x3	 x19:0x00000000  x3:0x00000c2f x15=0x00000001
       29735000	      2972	80000764	00000013	addi	x0,x0,0	  x0:0x00000000
       29745000	      2973	80000768	fcbd5ee3	bge	x26,x11,80000744	 x26:0xfffffff4 x11:0xfffffff4
       29755000	      2974	00000000	00000013	addi	x0,x0,0	  x0:0x00000000
       29765000	      2975	80000740	00000013	addi	x0,x0,0	  x0:0x00000000
       29775000	      2976	80000744	34271db7	lui	x27,0x34271	 x27=0x34271000
       29785000	      2977	80000748	01d94c33	xor	x24,x18,x29	 x18:0x4a06c4b2 x29:0x535cd4b2 x24=0x195a1000
       29795000	      2978	8000074c	011207b3	add	x15,x4,x17	  x4:0x49361000 x17:0x000000f3 x15=0x493610f3
       29805000	      2979	80000750	cd572313	slti	x6,x14,-811	 x14:0xfffffff0  x6=0x00000000
       29815000	      2980	80000754	0142d193	srli	x3,x5,0x14	  x5:0xc2fbf000  x3=0x00000c2f
       29825000	      2981	80000758	ffcd0d13	addi	x26,x26,-4	 x26:0xfffffff4 x26=0xfffffff0
       29835000	      2982	8000075c	00275f13	srli	x30,x14,0x2	 x14:0xfffffff0 x30=0x3ffffffc
       29845000	      2983	80000760	0039b7b3	sltu	x15,x19,x3	 x19:0x00000000  x3:0x00000c2f x15=0x00000001
       29855000	      2984	80000764	00000013	addi	x0,x0,0	  x0:0x00000000
       29865000	      2985	80000768	fcbd5ee3	bge	x26,x11,80000744	 x26:0xfffffff0 x11:0xfffffff4
       29875000	      2986	8000076c	41888433	sub	x8,x17,x24	 x17:0x000000f3 x24:0x195a1000  x8=0xe6a5f0f3
       29885000	      2987	80000770	605b6197	auipc	x3,0x605b6	  x3=0xe05b676c
       29895000	      2988	80000774	01924463	blt	x4,x25,8000077c	  x4:0x49361000 x25:0x00000056
       29905000	      2989	80000778	001d9693	slli	x13,x27,0x1	 x27:0x34271000 x13=0x684e2000
       29915000	      2990	8000077c	00f2c663	blt	x5,x15,80000788	  x5:0xc2fbf000 x15:0x00000001
       29925000	      2991	00000000	00000013	addi	x0,x0,0	  x0:0x00000000
       29935000	      2992	80000784	00000013	addi	x0,x0,0	  x0:0x00000000
       29945000	      2993	80000788	89aa6413	ori	x8,x20,-1894	 x20:0x80009fc4  x8=0xffffffde
       29955000	      2994	8000078c	032f6463	bltu	x30,x18,800007b4	 x30:0x3ffffffc x18:0x4a06c4b2
       29965000	      2995	00000000	00000013	addi	x0,x0,0	  x0:0x00000000
       29975000	      2996	800007b0	00000013	addi	x0,x0,0	  x0:0x00000000
       29985000	      2997	800007b4	00b051b3	srl	x3,x0,x11	  x0:0x00000000 x11:0xfffffff4  x3=0x00000000
       29995000	      2998	800007b8	0138f8b3	and	x17,x17,x19	 x17:0x000000f3 x19:0x00000000 x17=0x00000000
       30005000	      2999	800007bc	001623b3	slt	x7,x12,x1	 x12:0xfffffff0  x1:0x00000001  x7=0x00000001
       30015000	      3000	800007c0	00ff9213	slli	x4,x31,0xf	 x31:0x80000000  x4=0x00000000
       30025000	      3001	800007c4	e45a2113	slti	x2,x20,-443	 x20:0x80009fc4  x2=0x00000001
       30035000	      3002	800007c8	637a2d37	lui	x26,0x637a2	 x26=0x637a2000
       30045000	      3003	800007cc	00b2ca63	blt	x5,x11,800007e0	  x5:0xc2fbf000 x11:0xfffffff4
       30055000	      3004	00000000	00000013	addi	x0,x0,0	  x0:0x00000000
       30065000	      3005	800007dc	00000013	addi	x0,x0,0	  x0:0x00000000
       30075000	      3006	800007e0	00151b13	slli	x22,x10,0x1	 x10:0x54b90000 x22=0xa9720000
       30085000	      3007	800007e4	00598133	add	x2,x19,x5	 x19:0x00000000  x5:0xc2fbf000  x2=0xc2fbf000
       30095000	      3008	800007e8	00abc863	blt	x23,x10,800007f8	 x23:0x195a1000 x10:0x54b90000
       30105000	      3009	00000000	00000013	addi	x0,x0,0	  x0:0x00000000
       30115000	      3010	800007f4	00000013	addi	x0,x0,0	  x0:0x00000000
       30125000	      3011	800007f8	0005b4b3	sltu	x9,x11,x0	 x11:0xfffffff4  x0:0x00000000  x9=0x00000000
       30135000	      3012	800007fc	41ffd533	sra	x10,x31,x31	 x31:0x80000000 x31:0x80000000 x10=0x80000000
       30145000	      3013	80000800	00ce0c63	beq	x28,x12,80000818	 x28:0x80009f10 x12:0xfffffff0
       30155000	      3014	80000804	041b7063	bgeu	x22,x1,80000844	 x22:0xa9720000  x1:0x00000001
       30165000	      3015	00000000	00000013	addi	x0,x0,0	  x0:0x00000000
       30175000	      3016	80000840	00000013	addi	x0,x0,0	  x0:0x00000000
       30185000	      3017	80000844	00d65cb3	srl	x25,x12,x13	 x12:0xfffffff0 x13:0x684e2000 x25=0xfffffff0
       30195000	      3018	80000848	2ef7a213	slti	x4,x15,751	 x15:0x00000001  x4=0x00000001
       30205000	      3019	8000084c	01e6f633	and	x12,x13,x30	 x13:0x684e2000 x30:0x3ffffffc x12=0x284e2000
       30215000	      3020	80000850	415e5393	srai	x7,x28,0x15	 x28:0x80009f10  x7=0xfffffc00
       30225000	      3021	80000854	2b5cc813	xori	x16,x25,693	 x25:0xfffffff0 x16=0xfffffd45
       30235000	      3022	80000858	0079d263	bge	x19,x7,8000085c	 x19:0x00000000  x7:0xfffffc00
       30245000	      3023	00000000	00000013	addi	x0,x0,0	  x0:0x00000000
       30255000	      3024	80000858	00000013	addi	x0,x0,0	  x0:0x00000000
       30265000	      3025	8000085c	01b204b3	add	x9,x4,x27	  x4:0x00000001 x27:0x34271000  x9=0x34271001
       30275000	      3026	80000860	04922413	slti	x8,x4,73	  x4:0x00000001  x8=0x00000001
       30285000	      3027	80000864	00101693	slli	x13,x0,0x1	  x0:0x00000000 x13=0x00000000
       30295000	      3028	80000868	6459d297	auipc	x5,0x6459d	  x5=0xe459d864
       30305000	      3029	8000086c	00000013	addi	x0,x0,0	  x0:0x00000000
       30315000	      3030	80000870	429fa913	slti	x18,x31,1065	 x31:0x80000000 x18=0x00000001
       30325000	      3031	80000874	01847263	bgeu	x8,x24,80000878	  x8:0x00000001 x24:0x195a1000
       30335000	      3032	80000878	01611e93	slli	x29,x2,0x16	  x2:0xc2fbf000 x29=0x00000000
       30345000	      3033	8000087c	00000013	addi	x0,x0,0	  x0:0x00000000
       30355000	      3034	80000880	01d50033	add	x0,x10,x29	 x10:0x80000000 x29:0x00000000
       30365000	      3035	80000884	01ef6db3	or	x27,x30,x30	 x30:0x3ffffffc x30:0x3ffffffc x27=0x3ffffffc
       30375000	      3036	80000888	0022e433	or	x8,x5,x2	  x5:0xe459d864  x2:0xc2fbf000  x8=0xe6fbf864
       30385000	      3037	8000088c	025f8a63	beq	x31,x5,800008c0	 x31:0x80000000  x5:0xe459d864
       30395000	      3038	80000890	01af40b3	xor	x1,x30,x26	 x30:0x3ffffffc x26:0x637a2000  x1=0x5c85dffc
       30405000	      3039	80000894	002ecdb3	xor	x27,x29,x2	 x29:0x00000000  x2:0xc2fbf000 x27=0xc2fbf000
       30415000	      3040	80000898	7e6a7b13	andi	x22,x20,2022	 x20:0x80009fc4 x22=0x000007c4
       30425000	      3041	8000089c	66dabd13	sltiu	x26,x21,1645	 x21:0x59000000 x26=0x00000000
       30435000	      3042	800008a0	01e69533	sll	x10,x13,x30	 x13:0x00000000 x30:0x3ffffffc x10=0x00000000
       30445000	      3043	800008a4	038ef463	bgeu	x29,x24,800008cc	 x29:0x00000000 x24:0x195a1000
       30455000	      3044	800008a8	0083d333	srl	x6,x7,x8	  x7:0xfffffc00  x8:0xe6fbf864  x6=0x0fffffc0
       30465000	      3045	800008ac	01067c33	and	x24,x12,x16	 x12:0x284e2000 x16:0xfffffd45 x24=0x284e2000
       30475000	      3046	800008b0	01d50ab3	add	x21,x10,x29	 x10:0x00000000 x29:0x00000000 x21=0x00000000
       30485000	      3047	800008b4	c8342e93	slti	x29,x8,-893	  x8:0xe6fbf864 x29=0x00000001
       30495000	      3048	800008b8	02ac8863	beq	x25,x10,800008e8	 x25:0xfffffff0 x10:0x00000000
       30505000	      3049	800008bc	8da2b613	sltiu	x12,x5,-1830	  x5:0xe459d864 x12=0x00000001
       30515000	      3050	800008c0	706f6513	ori	x10,x30,1798	 x30:0x3ffffffc x10=0x3ffffffe
       30525000	      3051	800008c4	01315a93	srli	x21,x2,0x13	  x2:0xc2fbf000 x21=0x0000185f
       30535000	      3052	800008c8	03a1fa63	bgeu	x3,x26,800008fc	  x3:0x00000000 x26:0x00000000
       30545000	      3053	00000000	00000013	addi	x0,x0,0	  x0:0x00000000
       30555000	      3054	800008f8	00000013	addi	x0,x0,0	  x0:0x00000000
       30565000	      3055	800008fc	014ea033	slt	x0,x29,x20	 x29:0x00000001 x20:0x80009fc4
       30575000	      3056	80000900	405edb13	srai	x22,x29,0x5	 x29:0x00000001 x22=0x00000000
       30585000	      3057	80000904	30e101b7	lui	x3,0x30e10	  x3=0x30e10000
       30595000	      3058	80000908	00c91033	sll	x0,x18,x12	 x18:0x00000001 x12:0x00000001
       30605000	      3059	8000090c	008021b3	slt	x3,x0,x8	  x0:0x00000000  x8:0xe6fbf864  x3=0x00000000
       30615000	      3060	80000910	01ca35b3	sltu	x11,x20,x28	 x20:0x80009fc4 x28:0x80009f10 x11=0x00000000
       30625000	      3061	80000914	f25d2813	slti	x16,x26,-219	 x26:0x00000000 x16=0x00000000
       30635000	      3062	80000918	004e2d03	lw	x26,4(x28)	 x28:0x80009f10 x26=0x80000220 PA:0x80009f14
       30645000	      3063	8000091c	40978ab3	sub	x21,x15,x9	 x15:0x00000001  x9:0x34271001 x21=0xcbd8f000
       30655000	      3064	80000920	024e0e13	addi	x28,x28,36	 x28:0x80009f10 x28=0x80009f34
       30665000	      3065	80000924	01865513	srli	x10,x12,0x18	 x12:0x00000001 x10=0x00000000
       30675000	      3066	80000928	00000013	addi	x0,x0,0	  x0:0x00000000
       30685000	      3067	8000092c	001d0193	addi	x3,x26,1	 x26:0x80000220  x3=0x80000221
       30695000	      3068	80000930	000181e7	jalr	x3,x3,0	  x3:0x80000221  x3=0x80000930
       30705000	      3069	00000000	00000013	addi	x0,x0,0	  x0:0x00000000
       30715000	      3070	80000220	00000013	addi	x0,x0,0	  x0:0x00000000
       30725000	      3071	80000224	41e754b3	sra	x9,x14,x30	 x14:0xfffffff0 x30:0x3ffffffc  x9=0xffffffff
       30735000	      3072	80000228	00000797	auipc	x15,0x0	 x15=0x80000224
       30745000	      3073	8000022c	45878793	addi	x15,x15,1112	 x15:0x80000224 x15=0x8000067c
       30755000	      3074	80000230	00621613	slli	x12,x4,0x6	  x4:0x00000001 x12=0x00000040
       30765000	      3075	80000234	00b5d8b3	srl	x17,x11,x11	 x11:0x00000000 x11:0x00000000 x17=0x00000000
       30775000	      3076	80000238	3ea78793	addi	x15,x15,1002	 x15:0x8000067c x15=0x80000a66
       30785000	      3077	8000023c	902cfb37	lui	x22,0x902cf	 x22=0x902cf000
       30795000	      3078	80000240	01fed713	srli	x14,x29,0x1f	 x29:0x00000001 x14=0x00000000
       30805000	      3079	80000244	c1678d67	jalr	x26,x15,-1002	 x15:0x80000a66 x26=0x80000244
       30815000	      3080	00000000	00000013	addi	x0,x0,0	  x0:0x00000000
       30825000	      3081	8000067c	00000013	addi	x0,x0,0	  x0:0x00000000
       30835000	      3082	80000680	010d4ab3	xor	x21,x26,x16	 x26:0x80000244 x16:0x00000000 x21=0x80000244
       30845000	      3083	80000684	011c1bb3	sll	x23,x24,x17	 x24:0x284e2000 x17:0x00000000 x23=0x284e2000
       30855000	      3084	80000688	01ed4463	blt	x26,x30,80000690	 x26:0x80000244 x30:0x3ffffffc
       30865000	      3085	00000000	00000013	addi	x0,x0,0	  x0:0x00000000
       30875000	      3086	8000068c	00000013	addi	x0,x0,0	  x0:0x00000000
       30885000	      3087	80000690	fdce0e13	addi	x28,x28,-36	 x28:0x80009f34 x28=0x80009f10
       30895000	      3088	80000694	01ae2223	sw	x26,4(x28)	 x28:0x80009f10 x26:0x80000244 PA:0x80009f14
       30905000	      3089	80000698	00f63833	sltu	x16,x12,x15	 x12:0x00000040 x15:0x80000a66 x16=0x00000001
       30915000	      3090	8000069c	00200613	addi	x12,x0,2	  x0:0x00000000 x12=0x00000002
       30925000	      3091	800006a0	63224397	auipc	x7,0x63224	  x7=0xe322469c
       30935000	      3092	800006a4	c6c94a93	xori	x21,x18,-916	 x18:0x00000001 x21=0xfffffc6d
       30945000	      3093	800006a8	ff000b13	addi	x22,x0,-16	  x0:0x00000000 x22=0xfffffff0
       30955000	      3094	800006ac	49525ab7	lui	x21,0x49525	 x21=0x49525000
       30965000	      3095	800006b0	404b8833	sub	x16,x23,x4	 x23:0x284e2000  x4:0x00000001 x16=0x284e1fff
       30975000	      3096	800006b4	419e89b3	sub	x19,x29,x25	 x29:0x00000001 x25:0xfffffff0 x19=0x00000011
       30985000	      3097	800006b8	a75eb537	lui	x10,0xa75eb	 x10=0xa75eb000
       30995000	      3098	800006bc	f870cd13	xori	x26,x1,-121	  x1:0x5c85dffc x26=0xa37a207b
       31005000	      3099	800006c0	00be66b3	or	x13,x28,x11	 x28:0x80009f10 x11:0x00000000 x13=0x80009f10
       31015000	      3100	800006c4	0171cd33	xor	x26,x3,x23	  x3:0x80000930 x23:0x284e2000 x26=0xa84e2930
       31025000	      3101	800006c8	c2fbf2b7	lui	x5,0xc2fbf	  x5=0xc2fbf000
       31035000	      3102	800006cc	3ba60193	addi	x3,x12,954	 x12:0x00000002  x3=0x000003bc
       31045000	      3103	800006d0	01832533	slt	x10,x6,x24	  x6:0x0fffffc0 x24:0x284e2000 x10=0x00000001
       31055000	      3104	800006d4	0170deb3	srl	x29,x1,x23	  x1:0x5c85dffc x23:0x284e2000 x29=0x5c85dffc
       31065000	      3105	800006d8	7715e313	ori	x6,x11,1905	 x11:0x00000000  x6=0x00000771
       31075000	      3106	800006dc	ff760613	addi	x12,x12,-9	 x12:0x00000002 x12=0xfffffff9
       31085000	      3107	800006e0	4fbf3893	sltiu	x17,x30,1275	 x30:0x3ffffffc x17=0x00000000
       31095000	      3108	800006e4	ad140193	addi	x3,x8,-1327	  x8:0xe6fbf864  x3=0xe6fbf335
       31105000	      3109	800006e8	01e2af33	slt	x30,x5,x30	  x5:0xc2fbf000 x30:0x3ffffffc x30=0x00000001
       31115000	      3110	800006ec	0569ec93	ori	x25,x19,86	 x19:0x00000011 x25=0x00000057
       31125000	      3111	800006f0	000b9e93	slli	x29,x23,0x0	 x23:0x284e2000 x29=0x284e2000
       31135000	      3112	800006f4	2a836013	ori	x0,x6,680	  x6:0x00000771
       31145000	      3113	800006f8	017e9a93	slli	x21,x29,0x17	 x29:0x284e2000 x21=0x00000000
       31155000	      3114	800006fc	01794bb3	xor	x23,x18,x23	 x18:0x00000001 x23:0x284e2000 x23=0x284e2001
       31165000	      3115	80000700	406f5513	srai	x10,x30,0x6	 x30:0x00000001 x10=0x00000000
       31175000	      3116	80000704	0182e4b3	or	x9,x5,x24	  x5:0xc2fbf000 x24:0x284e2000  x9=0xeafff000
       31185000	      3117	80000708	fb6618e3	bne	x12,x22,800006b8	 x12:0xfffffff9 x22:0xfffffff0
       31195000	      3118	00000000	00000013	addi	x0,x0,0	  x0:0x00000000
       31205000	      3119	800006b4	00000013	addi	x0,x0,0	  x0:0x00000000
       31215000	      3120	800006b8	a75eb537	lui	x10,0xa75eb	 x10=0xa75eb000
       31225000	      3121	800006bc	f870cd13	xori	x26,x1,-121	  x1:0x5c85dffc x26=0xa37a207b
       31235000	      3122	800006c0	00be66b3	or	x13,x28,x11	 x28:0x80009f10 x11:0x00000000 x13=0x80009f10
       31245000	      3123	800006c4	0171cd33	xor	x26,x3,x23	  x3:0xe6fbf335 x23:0x284e2001 x26=0xceb5d334
       31255000	      3124	800006c8	c2fbf2b7	lui	x5,0xc2fbf	  x5=0xc2fbf000
       31265000	      3125	800006cc	3ba60193	addi	x3,x12,954	 x12:0xfffffff9  x3=0x000003b3
       31275000	      3126	800006d0	01832533	slt	x10,x6,x24	  x6:0x00000771 x24:0x284e2000 x10=0x00000001
       31285000	      3127	800006d4	0170deb3	srl	x29,x1,x23	  x1:0x5c85dffc x23:0x284e2001 x29=0x2e42effe
       31295000	      3128	800006d8	7715e313	ori	x6,x11,1905	 x11:0x00000000  x6=0x00000771
       31305000	      3129	800006dc	ff760613	addi	x12,x12,-9	 x12:0xfffffff9 x12=0xfffffff0
       31315000	      3130	800006e0	4fbf3893	sltiu	x17,x30,1275	 x30:0x00000001 x17=0x00000001
       31325000	      3131	800006e4	ad140193	addi	x3,x8,-1327	  x8:0xe6fbf864  x3=0xe6fbf335
       31335000	      3132	800006e8	01e2af33	slt	x30,x5,x30	  x5:0xc2fbf000 x30:0x00000001 x30=0x00000001
       31345000	      3133	800006ec	0569ec93	ori	x25,x19,86	 x19:0x00000011 x25=0x00000057
       31355000	      3134	800006f0	000b9e93	slli	x29,x23,0x0	 x23:0x284e2001 x29=0x284e2001
       31365000	      3135	800006f4	2a836013	ori	x0,x6,680	  x6:0x00000771
       31375000	      3136	800006f8	017e9a93	slli	x21,x29,0x17	 x29:0x284e2001 x21=0x00800000
       31385000	      3137	800006fc	01794bb3	xor	x23,x18,x23	 x18:0x00000001 x23:0x284e2001 x23=0x284e2000
       31395000	      3138	80000700	406f5513	srai	x10,x30,0x6	 x30:0x00000001 x10=0x00000000
       31405000	      3139	80000704	0182e4b3	or	x9,x5,x24	  x5:0xc2fbf000 x24:0x284e2000  x9=0xeafff000
       31415000	      3140	80000708	fb6618e3	bne	x12,x22,800006b8	 x12:0xfffffff0 x22:0xfffffff0
       31425000	      3141	8000070c	016fe733	or	x14,x31,x22	 x31:0x80000000 x22:0xfffffff0 x14=0xfffffff0
       31435000	      3142	80000710	00800d13	addi	x26,x0,8	  x0:0x00000000 x26=0x00000008
       31445000	      3143	80000714	0f28c693	xori	x13,x17,242	 x17:0x00000001 x13=0x000000f3
       31455000	      3144	80000718	a62064b7	lui	x9,0xa6206	  x9=0xa6206000
       31465000	      3145	8000071c	01faaf33	slt	x30,x21,x31	 x21:0x00800000 x31:0x80000000 x30=0x00000000
       31475000	      3146	80000720	00a15b13	srli	x22,x2,0xa	  x2:0xc2fbf000 x22=0x0030befc
       31485000	      3147	80000724	00000013	addi	x0,x0,0	  x0:0x00000000
       31495000	      3148	80000728	0478af13	slti	x30,x17,71	 x17:0x00000001 x30=0x00000001
       31505000	      3149	8000072c	00df30b3	sltu	x1,x30,x13	 x30:0x00000001 x13:0x000000f3  x1=0x00000001
       31515000	      3150	80000730	ff400593	addi	x11,x0,-12	  x0:0x00000000 x11=0xfffffff4
       31525000	      3151	80000734	01b6d8b3	srl	x17,x13,x27	 x13:0x000000f3 x27:0xc2fbf000 x17=0x000000f3
       31535000	      3152	80000738	bfa16813	ori	x16,x2,-1030	  x2:0xc2fbf000 x16=0xfffffbfa
       31545000	      3153	8000073c	54b90537	lui	x10,0x54b90	 x10=0x54b90000
       31555000	      3154	80000740	41bf0c33	sub	x24,x30,x27	 x30:0x00000001 x27:0xc2fbf000 x24=0x3d041001
       31565000	      3155	80000744	34271db7	lui	x27,0x34271	 x27=0x34271000
       31575000	      3156	80000748	01d94c33	xor	x24,x18,x29	 x18:0x00000001 x29:0x284e2001 x24=0x284e2000
       31585000	      3157	8000074c	011207b3	add	x15,x4,x17	  x4:0x00000001 x17:0x000000f3 x15=0x000000f4
       31595000	      3158	80000750	cd572313	slti	x6,x14,-811	 x14:0xfffffff0  x6=0x00000000
       31605000	      3159	80000754	0142d193	srli	x3,x5,0x14	  x5:0xc2fbf000  x3=0x00000c2f
       31615000	      3160	80000758	ffcd0d13	addi	x26,x26,-4	 x26:0x00000008 x26=0x00000004
       31625000	      3161	8000075c	00275f13	srli	x30,x14,0x2	 x14:0xfffffff0 x30=0x3ffffffc
       31635000	      3162	80000760	0039b7b3	sltu	x15,x19,x3	 x19:0x00000011  x3:0x00000c2f x15=0x00000001
       31645000	      3163	80000764	00000013	addi	x0,x0,0	  x0:0x00000000
       31655000	      3164	80000768	fcbd5ee3	bge	x26,x11,80000744	 x26:0x00000004 x11:0xfffffff4
       31665000	      3165	00000000	00000013	addi	x0,x0,0	  x0:0x00000000
       31675000	      3166	80000740	00000013	addi	x0,x0,0	  x0:0x00000000
       31685000	      3167	80000744	34271db7	lui	x27,0x34271	 x27=0x34271000
       31695000	      3168	80000748	01d94c33	xor	x24,x18,x29	 x18:0x00000001 x29:0x284e2001 x24=0x284e2000
       31705000	      3169	8000074c	011207b3	add	x15,x4,x17	  x4:0x00000001 x17:0x000000f3 x15=0x000000f4
       31715000	      3170	80000750	cd572313	slti	x6,x14,-811	 x14:0xfffffff0  x6=0x00000000
       31725000	      3171	80000754	0142d193	srli	x3,x5,0x14	  x5:0xc2fbf000  x3=0x00000c2f
       31735000	      3172	80000758	ffcd0d13	addi	x26,x26,-4	 x26:0x00000004 x26=0x00000000
       31745000	      3173	8000075c	00275f13	srli	x30,x14,0x2	 x14:0xfffffff0 x30=0x3ffffffc
       31755000	      3174	80000760	0039b7b3	sltu	x15,x19,x3	 x19:0x00000011  x3:0x00000c2f x15=0x00000001
       31765000	      3175	80000764	00000013	addi	x0,x0,0	  x0:0x00000000
       31775000	      3176	80000768	fcbd5ee3	bge	x26,x11,80000744	 x26:0x00000000 x11:0xfffffff4
       31785000	      3177	00000000	00000013	addi	x0,x0,0	  x0:0x00000000
       31795000	      3178	80000740	00000013	addi	x0,x0,0	  x0:0x00000000
       31805000	      3179	80000744	34271db7	lui	x27,0x34271	 x27=0x34271000
       31815000	      3180	80000748	01d94c33	xor	x24,x18,x29	 x18:0x00000001 x29:0x284e2001 x24=0x284e2000
       31825000	      3181	8000074c	011207b3	add	x15,x4,x17	  x4:0x00000001 x17:0x000000f3 x15=0x000000f4
       31835000	      3182	80000750	cd572313	slti	x6,x14,-811	 x14:0xfffffff0  x6=0x00000000
       31845000	      3183	80000754	0142d193	srli	x3,x5,0x14	  x5:0xc2fbf000  x3=0x00000c2f
       31855000	      3184	80000758	ffcd0d13	addi	x26,x26,-4	 x26:0x00000000 x26=0xfffffffc
       31865000	      3185	8000075c	00275f13	srli	x30,x14,0x2	 x14:0xfffffff0 x30=0x3ffffffc
       31875000	      3186	80000760	0039b7b3	sltu	x15,x19,x3	 x19:0x00000011  x3:0x00000c2f x15=0x00000001
       31885000	      3187	80000764	00000013	addi	x0,x0,0	  x0:0x00000000
       31895000	      3188	80000768	fcbd5ee3	bge	x26,x11,80000744	 x26:0xfffffffc x11:0xfffffff4
       31905000	      3189	00000000	00000013	addi	x0,x0,0	  x0:0x00000000
       31915000	      3190	80000740	00000013	addi	x0,x0,0	  x0:0x00000000
       31925000	      3191	80000744	34271db7	lui	x27,0x34271	 x27=0x34271000
       31935000	      3192	80000748	01d94c33	xor	x24,x18,x29	 x18:0x00000001 x29:0x284e2001 x24=0x284e2000
       31945000	      3193	8000074c	011207b3	add	x15,x4,x17	  x4:0x00000001 x17:0x000000f3 x15=0x000000f4
       31955000	      3194	80000750	cd572313	slti	x6,x14,-811	 x14:0xfffffff0  x6=0x00000000
       31965000	      3195	80000754	0142d193	srli	x3,x5,0x14	  x5:0xc2fbf000  x3=0x00000c2f
       31975000	      3196	80000758	ffcd0d13	addi	x26,x26,-4	 x26:0xfffffffc x26=0xfffffff8
       31985000	      3197	8000075c	00275f13	srli	x30,x14,0x2	 x14:0xfffffff0 x30=0x3ffffffc
       31995000	      3198	80000760	0039b7b3	sltu	x15,x19,x3	 x19:0x00000011  x3:0x00000c2f x15=0x00000001
       32005000	      3199	80000764	00000013	addi	x0,x0,0	  x0:0x00000000
       32015000	      3200	80000768	fcbd5ee3	bge	x26,x11,80000744	 x26:0xfffffff8 x11:0xfffffff4
       32025000	      3201	00000000	00000013	addi	x0,x0,0	  x0:0x00000000
       32035000	      3202	80000740	00000013	addi	x0,x0,0	  x0:0x00000000
       32045000	      3203	80000744	34271db7	lui	x27,0x34271	 x27=0x34271000
       32055000	      3204	80000748	01d94c33	xor	x24,x18,x29	 x18:0x00000001 x29:0x284e2001 x24=0x284e2000
       32065000	      3205	8000074c	011207b3	add	x15,x4,x17	  x4:0x00000001 x17:0x000000f3 x15=0x000000f4
       32075000	      3206	80000750	cd572313	slti	x6,x14,-811	 x14:0xfffffff0  x6=0x00000000
       32085000	      3207	80000754	0142d193	srli	x3,x5,0x14	  x5:0xc2fbf000  x3=0x00000c2f
       32095000	      3208	80000758	ffcd0d13	addi	x26,x26,-4	 x26:0xfffffff8 x26=0xfffffff4
       32105000	      3209	8000075c	00275f13	srli	x30,x14,0x2	 x14:0xfffffff0 x30=0x3ffffffc
       32115000	      3210	80000760	0039b7b3	sltu	x15,x19,x3	 x19:0x00000011  x3:0x00000c2f x15=0x00000001
       32125000	      3211	80000764	00000013	addi	x0,x0,0	  x0:0x00000000
       32135000	      3212	80000768	fcbd5ee3	bge	x26,x11,80000744	 x26:0xfffffff4 x11:0xfffffff4
       32145000	      3213	00000000	00000013	addi	x0,x0,0	  x0:0x00000000
       32155000	      3214	80000740	00000013	addi	x0,x0,0	  x0:0x00000000
       32165000	      3215	80000744	34271db7	lui	x27,0x34271	 x27=0x34271000
       32175000	      3216	80000748	01d94c33	xor	x24,x18,x29	 x18:0x00000001 x29:0x284e2001 x24=0x284e2000
       32185000	      3217	8000074c	011207b3	add	x15,x4,x17	  x4:0x00000001 x17:0x000000f3 x15=0x000000f4
       32195000	      3218	80000750	cd572313	slti	x6,x14,-811	 x14:0xfffffff0  x6=0x00000000
       32205000	      3219	80000754	0142d193	srli	x3,x5,0x14	  x5:0xc2fbf000  x3=0x00000c2f
       32215000	      3220	80000758	ffcd0d13	addi	x26,x26,-4	 x26:0xfffffff4 x26=0xfffffff0
       32225000	      3221	8000075c	00275f13	srli	x30,x14,0x2	 x14:0xfffffff0 x30=0x3ffffffc
       32235000	      3222	80000760	0039b7b3	sltu	x15,x19,x3	 x19:0x00000011  x3:0x00000c2f x15=0x00000001
       32245000	      3223	80000764	00000013	addi	x0,x0,0	  x0:0x00000000
       32255000	      3224	80000768	fcbd5ee3	bge	x26,x11,80000744	 x26:0xfffffff0 x11:0xfffffff4
       32265000	      3225	8000076c	41888433	sub	x8,x17,x24	 x17:0x000000f3 x24:0x284e2000  x8=0xd7b1e0f3
       32275000	      3226	80000770	605b6197	auipc	x3,0x605b6	  x3=0xe05b676c
       32285000	      3227	80000774	01924463	blt	x4,x25,8000077c	  x4:0x00000001 x25:0x00000057
       32295000	      3228	00000000	00000013	addi	x0,x0,0	  x0:0x00000000
       32305000	      3229	80000778	00000013	addi	x0,x0,0	  x0:0x00000000
       32315000	      3230	8000077c	00f2c663	blt	x5,x15,80000788	  x5:0xc2fbf000 x15:0x00000001
       32325000	      3231	00000000	00000013	addi	x0,x0,0	  x0:0x00000000
       32335000	      3232	80000784	00000013	addi	x0,x0,0	  x0:0x00000000
       32345000	      3233	80000788	89aa6413	ori	x8,x20,-1894	 x20:0x80009fc4  x8=0xffffffde
       32355000	      3234	8000078c	032f6463	bltu	x30,x18,800007b4	 x30:0x3ffffffc x18:0x00000001
       32365000	      3235	80000790	016bc933	xor	x18,x23,x22	 x23:0x284e2000 x22:0x0030befc x18=0x287e9efc
       32375000	      3236	80000794	10cfe393	ori	x7,x31,268	 x31:0x80000000  x7=0x8000010c
       32385000	      3237	80000798	41a2d9b3	sra	x19,x5,x26	  x5:0xc2fbf000 x26:0xfffffff0 x19=0xffffc2fb
       32395000	      3238	8000079c	40468f33	sub	x30,x13,x4	 x13:0x000000f3  x4:0x00000001 x30=0x000000f2
       32405000	      3239	800007a0	001b1793	slli	x15,x22,0x1	 x22:0x0030befc x15=0x00617df8
       32415000	      3240	800007a4	000aca63	blt	x21,x0,800007b8	 x21:0x00800000  x0:0x00000000
       32425000	      3241	800007a8	00d39393	slli	x7,x7,0xd	  x7:0x8000010c  x7=0x00218000
       32435000	      3242	800007ac	014e70b3	and	x1,x28,x20	 x28:0x80009f10 x20:0x80009fc4  x1=0x80009f00
       32445000	      3243	800007b0	00b36db3	or	x27,x6,x11	  x6:0x00000000 x11:0xfffffff4 x27=0xfffffff4
       32455000	      3244	800007b4	00b051b3	srl	x3,x0,x11	  x0:0x00000000 x11:0xfffffff4  x3=0x00000000
       32465000	      3245	800007b8	0138f8b3	and	x17,x17,x19	 x17:0x000000f3 x19:0xffffc2fb x17=0x000000f3
       32475000	      3246	800007bc	001623b3	slt	x7,x12,x1	 x12:0xfffffff0  x1:0x80009f00  x7=0x00000000
       32485000	      3247	800007c0	00ff9213	slli	x4,x31,0xf	 x31:0x80000000  x4=0x00000000
       32495000	      3248	800007c4	e45a2113	slti	x2,x20,-443	 x20:0x80009fc4  x2=0x00000001
       32505000	      3249	800007c8	637a2d37	lui	x26,0x637a2	 x26=0x637a2000
       32515000	      3250	800007cc	00b2ca63	blt	x5,x11,800007e0	  x5:0xc2fbf000 x11:0xfffffff4
       32525000	      3251	00000000	00000013	addi	x0,x0,0	  x0:0x00000000
       32535000	      3252	800007dc	00000013	addi	x0,x0,0	  x0:0x00000000
       32545000	      3253	800007e0	00151b13	slli	x22,x10,0x1	 x10:0x54b90000 x22=0xa9720000
       32555000	      3254	800007e4	00598133	add	x2,x19,x5	 x19:0xffffc2fb  x5:0xc2fbf000  x2=0xc2fbb2fb
       32565000	      3255	800007e8	00abc863	blt	x23,x10,800007f8	 x23:0x284e2000 x10:0x54b90000
       32575000	      3256	00000000	00000013	addi	x0,x0,0	  x0:0x00000000
       32585000	      3257	800007f4	00000013	addi	x0,x0,0	  x0:0x00000000
       32595000	      3258	800007f8	0005b4b3	sltu	x9,x11,x0	 x11:0xfffffff4  x0:0x00000000  x9=0x00000000
       32605000	      3259	800007fc	41ffd533	sra	x10,x31,x31	 x31:0x80000000 x31:0x80000000 x10=0x80000000
       32615000	      3260	80000800	00ce0c63	beq	x28,x12,80000818	 x28:0x80009f10 x12:0xfffffff0
       32625000	      3261	80000804	041b7063	bgeu	x22,x1,80000844	 x22:0xa9720000  x1:0x80009f00
       32635000	      3262	00000000	00000013	addi	x0,x0,0	  x0:0x00000000
       32645000	      3263	80000840	00000013	addi	x0,x0,0	  x0:0x00000000
       32655000	      3264	80000844	00d65cb3	srl	x25,x12,x13	 x12:0xfffffff0 x13:0x000000f3 x25=0x00001fff
       32665000	      3265	80000848	2ef7a213	slti	x4,x15,751	 x15:0x00617df8  x4=0x00000000
       32675000	      3266	8000084c	01e6f633	and	x12,x13,x30	 x13:0x000000f3 x30:0x000000f2 x12=0x000000f2
       32685000	      3267	80000850	415e5393	srai	x7,x28,0x15	 x28:0x80009f10  x7=0xfffffc00
       32695000	      3268	80000854	2b5cc813	xori	x16,x25,693	 x25:0x00001fff x16=0x00001d4a
       32705000	      3269	80000858	0079d263	bge	x19,x7,8000085c	 x19:0xffffc2fb  x7:0xfffffc00
       32715000	      3270	8000085c	01b204b3	add	x9,x4,x27	  x4:0x00000000 x27:0xfffffff4  x9=0xfffffff4
       32725000	      3271	80000860	04922413	slti	x8,x4,73	  x4:0x00000000  x8=0x00000001
       32735000	      3272	80000864	00101693	slli	x13,x0,0x1	  x0:0x00000000 x13=0x00000000
       32745000	      3273	80000868	6459d297	auipc	x5,0x6459d	  x5=0xe459d864
       32755000	      3274	8000086c	00000013	addi	x0,x0,0	  x0:0x00000000
       32765000	      3275	80000870	429fa913	slti	x18,x31,1065	 x31:0x80000000 x18=0x00000001
       32775000	      3276	80000874	01847263	bgeu	x8,x24,80000878	  x8:0x00000001 x24:0x284e2000
       32785000	      3277	80000878	01611e93	slli	x29,x2,0x16	  x2:0xc2fbb2fb x29=0xbec00000
       32795000	      3278	8000087c	00000013	addi	x0,x0,0	  x0:0x00000000
       32805000	      3279	80000880	01d50033	add	x0,x10,x29	 x10:0x80000000 x29:0xbec00000
       32815000	      3280	80000884	01ef6db3	or	x27,x30,x30	 x30:0x000000f2 x30:0x000000f2 x27=0x000000f2
       32825000	      3281	80000888	0022e433	or	x8,x5,x2	  x5:0xe459d864  x2:0xc2fbb2fb  x8=0xe6fbfaff
       32835000	      3282	8000088c	025f8a63	beq	x31,x5,800008c0	 x31:0x80000000  x5:0xe459d864
       32845000	      3283	80000890	01af40b3	xor	x1,x30,x26	 x30:0x000000f2 x26:0x637a2000  x1=0x637a20f2
       32855000	      3284	80000894	002ecdb3	xor	x27,x29,x2	 x29:0xbec00000  x2:0xc2fbb2fb x27=0x7c3bb2fb
       32865000	      3285	80000898	7e6a7b13	andi	x22,x20,2022	 x20:0x80009fc4 x22=0x000007c4
       32875000	      3286	8000089c	66dabd13	sltiu	x26,x21,1645	 x21:0x00800000 x26=0x00000000
       32885000	      3287	800008a0	01e69533	sll	x10,x13,x30	 x13:0x00000000 x30:0x000000f2 x10=0x00000000
       32895000	      3288	800008a4	038ef463	bgeu	x29,x24,800008cc	 x29:0xbec00000 x24:0x284e2000
       32905000	      3289	00000000	00000013	addi	x0,x0,0	  x0:0x00000000
       32915000	      3290	800008c8	00000013	addi	x0,x0,0	  x0:0x00000000
       32925000	      3291	800008cc	01f5b3b3	sltu	x7,x11,x31	 x11:0xfffffff4 x31:0x80000000  x7=0x00000000
       32935000	      3292	800008d0	01f64c63	blt	x12,x31,800008e8	 x12:0x000000f2 x31:0x80000000
       32945000	      3293	800008d4	00d36863	bltu	x6,x13,800008e4	  x6:0x00000000 x13:0x00000000
       32955000	      3294	800008d8	6a954193	xori	x3,x10,1705	 x10:0x00000000  x3=0x000006a9
       32965000	      3295	800008dc	76d6b313	sltiu	x6,x13,1901	 x13:0x00000000  x6=0x00000001
       32975000	      3296	800008e0	00000013	addi	x0,x0,0	  x0:0x00000000
       32985000	      3297	800008e4	00a9d2b3	srl	x5,x19,x10	 x19:0xffffc2fb x10:0x00000000  x5=0xffffc2fb
       32995000	      3298	800008e8	208d3e93	sltiu	x29,x26,520	 x26:0x00000000 x29=0x00000001
       33005000	      3299	800008ec	414409b3	sub	x19,x8,x20	  x8:0xe6fbfaff x20:0x80009fc4 x19=0x66fb5b3b
       33015000	      3300	800008f0	8a658993	addi	x19,x11,-1882	 x11:0xfffffff4 x19=0xfffff89a
       33025000	      3301	800008f4	00551d13	slli	x26,x10,0x5	 x10:0x00000000 x26=0x00000000
       33035000	      3302	800008f8	6a328693	addi	x13,x5,1699	  x5:0xffffc2fb x13=0xffffc99e
       33045000	      3303	800008fc	014ea033	slt	x0,x29,x20	 x29:0x00000001 x20:0x80009fc4
       33055000	      3304	80000900	405edb13	srai	x22,x29,0x5	 x29:0x00000001 x22=0x00000000
       33065000	      3305	80000904	30e101b7	lui	x3,0x30e10	  x3=0x30e10000
       33075000	      3306	80000908	00c91033	sll	x0,x18,x12	 x18:0x00000001 x12:0x000000f2
       33085000	      3307	8000090c	008021b3	slt	x3,x0,x8	  x0:0x00000000  x8:0xe6fbfaff  x3=0x00000000
       33095000	      3308	80000910	01ca35b3	sltu	x11,x20,x28	 x20:0x80009fc4 x28:0x80009f10 x11=0x00000000
       33105000	      3309	80000914	f25d2813	slti	x16,x26,-219	 x26:0x00000000 x16=0x00000000
       33115000	      3310	80000918	004e2d03	lw	x26,4(x28)	 x28:0x80009f10 x26=0x80000244 PA:0x80009f14
       33125000	      3311	8000091c	40978ab3	sub	x21,x15,x9	 x15:0x00617df8  x9:0xfffffff4 x21=0x00617e04
       33135000	      3312	80000920	024e0e13	addi	x28,x28,36	 x28:0x80009f10 x28=0x80009f34
       33145000	      3313	80000924	01865513	srli	x10,x12,0x18	 x12:0x000000f2 x10=0x00000000
       33155000	      3314	80000928	00000013	addi	x0,x0,0	  x0:0x00000000
       33165000	      3315	8000092c	001d0193	addi	x3,x26,1	 x26:0x80000244  x3=0x80000245
       33175000	      3316	80000930	000181e7	jalr	x3,x3,0	  x3:0x80000245  x3=0x80000930
       33185000	      3317	00000000	00000013	addi	x0,x0,0	  x0:0x00000000
       33195000	      3318	80000244	00000013	addi	x0,x0,0	  x0:0x00000000
       33205000	      3319	80000248	ff700493	addi	x9,x0,-9	  x0:0x00000000  x9=0xfffffff7
       33215000	      3320	8000024c	e39aab93	slti	x23,x21,-455	 x21:0x00617e04 x23=0x00000000
       33225000	      3321	80000250	404550b3	sra	x1,x10,x4	 x10:0x00000000  x4:0x00000000  x1=0x00000000
       33235000	      3322	80000254	41a75c93	srai	x25,x14,0x1a	 x14:0xfffffff0 x25=0xffffffff
       33245000	      3323	80000258	fef00513	addi	x10,x0,-17	  x0:0x00000000 x10=0xffffffef
       33255000	      3324	8000025c	01a7bab3	sltu	x21,x15,x26	 x15:0x00617df8 x26:0x80000244 x21=0x00000001
       33265000	      3325	80000260	0107d3b3	srl	x7,x15,x16	 x15:0x00617df8 x16:0x00000000  x7=0x00617df8
       33275000	      3326	80000264	002c7f33	and	x30,x24,x2	 x24:0x284e2000  x2:0xc2fbb2fb x30=0x004a2000
       33285000	      3327	80000268	401c5d93	srai	x27,x24,0x1	 x24:0x284e2000 x27=0x14271000
       33295000	      3328	8000026c	008829b3	slt	x19,x16,x8	 x16:0x00000000  x8:0xe6fbfaff x19=0x00000000
       33305000	      3329	80000270	4e91f193	andi	x3,x3,1257	  x3:0x80000930  x3=0x00000020
       33315000	      3330	80000274	41a30db3	sub	x27,x6,x26	  x6:0x00000001 x26:0x80000244 x27=0x7ffffdbd
       33325000	      3331	80000278	00000013	addi	x0,x0,0	  x0:0x00000000
       33335000	      3332	8000027c	00bebc33	sltu	x24,x29,x11	 x29:0x00000001 x11:0x00000000 x24=0x00000000
       33345000	      3333	80000280	417b5833	sra	x16,x22,x23	 x22:0x00000000 x23:0x00000000 x16=0x00000000
       33355000	      3334	80000284	40bfdb13	srai	x22,x31,0xb	 x31:0x80000000 x22=0xfff00000
       33365000	      3335	80000288	0103b333	sltu	x6,x7,x16	  x7:0x00617df8 x16:0x00000000  x6=0x00000000
       33375000	      3336	8000028c	01c6d3b3	srl	x7,x13,x28	 x13:0xffffc99e x28:0x80009f34  x7=0x00000fff
       33385000	      3337	80000290	01773833	sltu	x16,x14,x23	 x14:0xfffffff0 x23:0x00000000 x16=0x00000000
       33395000	      3338	80000294	cb476113	ori	x2,x14,-844	 x14:0xfffffff0  x2=0xfffffff4
       33405000	      3339	80000298	30c62d13	slti	x26,x12,780	 x12:0x000000f2 x26=0x00000001
       33415000	      3340	8000029c	c6136f13	ori	x30,x6,-927	  x6:0x00000000 x30=0xfffffc61
       33425000	      3341	800002a0	ff848493	addi	x9,x9,-8	  x9:0xfffffff7  x9=0xffffffef
       33435000	      3342	800002a4	00c1bbb3	sltu	x23,x3,x12	  x3:0x00000020 x12:0x000000f2 x23=0x00000001
       33445000	      3343	800002a8	fea490e3	bne	x9,x10,80000288	  x9:0xffffffef x10:0xffffffef
       33455000	      3344	800002ac	00d74633	xor	x12,x14,x13	 x14:0xfffffff0 x13:0xffffc99e x12=0x0000366e
       33465000	      3345	800002b0	ffb00d93	addi	x27,x0,-5	  x0:0x00000000 x27=0xfffffffb
       33475000	      3346	800002b4	be7e2a93	slti	x21,x28,-1049	 x28:0x80009f34 x21=0x00000001
       33485000	      3347	800002b8	018ef7b3	and	x15,x29,x24	 x29:0x00000001 x24:0x00000000 x15=0x00000000
       33495000	      3348	800002bc	04232493	slti	x9,x6,66	  x6:0x00000000  x9=0x00000001
       33505000	      3349	800002c0	410f5813	srai	x16,x30,0x10	 x30:0xfffffc61 x16=0xffffffff
       33515000	      3350	800002c4	ebed5697	auipc	x13,0xebed5	 x13=0x6bed52c0
       33525000	      3351	800002c8	0101db33	srl	x22,x3,x16	  x3:0x00000020 x16:0xffffffff x22=0x00000000
       33535000	      3352	800002cc	01b7d193	srli	x3,x15,0x1b	 x15:0x00000000  x3=0x00000000
       33545000	      3353	800002d0	00035ab3	srl	x21,x6,x0	  x6:0x00000000  x0:0x00000000 x21=0x00000000
       33555000	      3354	800002d4	00dc9233	sll	x4,x25,x13	 x25:0xffffffff x13:0x6bed52c0  x4=0xffffffff
       33565000	      3355	800002d8	40350333	sub	x6,x10,x3	 x10:0xffffffef  x3:0x00000000  x6=0xffffffef
       33575000	      3356	800002dc	e807ac93	slti	x25,x15,-384	 x15:0x00000000 x25=0x00000000
       33585000	      3357	800002e0	40638c33	sub	x24,x7,x6	  x7:0x00000fff  x6:0xffffffef x24=0x00001010
       33595000	      3358	800002e4	001150b3	srl	x1,x2,x1	  x2:0xfffffff4  x1:0x00000000  x1=0xfffffff4
       33605000	      3359	800002e8	00700893	addi	x17,x0,7	  x0:0x00000000 x17=0x00000007
       33615000	      3360	800002ec	739b4c93	xori	x25,x22,1849	 x22:0x00000000 x25=0x00000739
       33625000	      3361	800002f0	4f008913	addi	x18,x1,1264	  x1:0xfffffff4 x18=0x000004e4
       33635000	      3362	800002f4	0116d033	srl	x0,x13,x17	 x13:0x6bed52c0 x17:0x00000007
       33645000	      3363	800002f8	015686b3	add	x13,x13,x21	 x13:0x6bed52c0 x21:0x00000000 x13=0x6bed52c0
       33655000	      3364	800002fc	0126e833	or	x16,x13,x18	 x13:0x6bed52c0 x18:0x000004e4 x16=0x6bed56e4
       33665000	      3365	80000300	001451b3	srl	x3,x8,x1	  x8:0xe6fbfaff  x1:0xfffffff4  x3=0x00000e6f
       33675000	      3366	80000304	00de7bb3	and	x23,x28,x13	 x28:0x80009f34 x13:0x6bed52c0 x23=0x00001200
       33685000	      3367	80000308	00a45913	srli	x18,x8,0xa	  x8:0xe6fbfaff x18=0x0039befe
       33695000	      3368	8000030c	673eaf13	slti	x30,x29,1651	 x29:0x00000001 x30=0x00000001
       33705000	      3369	80000310	004d8d93	addi	x27,x27,4	 x27:0xfffffffb x27=0xffffffff
       33715000	      3370	80000314	fd1d8ee3	beq	x27,x17,800002f0	 x27:0xffffffff x17:0x00000007
       33725000	      3371	80000318	0060b3b3	sltu	x7,x1,x6	  x1:0xfffffff4  x6:0xffffffef  x7=0x00000000
       33735000	      3372	8000031c	ff700613	addi	x12,x0,-9	  x0:0x00000000 x12=0xfffffff7
       33745000	      3373	80000320	ffa00813	addi	x16,x0,-6	  x0:0x00000000 x16=0xfffffffa
       33755000	      3374	80000324	00255593	srli	x11,x10,0x2	 x10:0xffffffef x11=0x3ffffffb
       33765000	      3375	80000328	0024a5b3	slt	x11,x9,x2	  x9:0x00000001  x2:0xfffffff4 x11=0x00000000
       33775000	      3376	8000032c	812c0493	addi	x9,x24,-2030	 x24:0x00001010  x9=0x00000822
       33785000	      3377	80000330	401fd2b3	sra	x5,x31,x1	 x31:0x80000000  x1:0xfffffff4  x5=0xfffff800
       33795000	      3378	80000334	5951bc13	sltiu	x24,x3,1429	  x3:0x00000e6f x24=0x00000000
       33805000	      3379	80000338	00160613	addi	x12,x12,1	 x12:0xfffffff7 x12=0xfffffff8
       33815000	      3380	8000033c	40b35bb3	sra	x23,x6,x11	  x6:0xffffffef x11:0x00000000 x23=0xffffffef
       33825000	      3381	80000340	00000013	addi	x0,x0,0	  x0:0x00000000
       33835000	      3382	80000344	ae2a6693	ori	x13,x20,-1310	 x20:0x80009fc4 x13=0xffffffe6
       33845000	      3383	80000348	000ee933	or	x18,x29,x0	 x29:0x00000001  x0:0x00000000 x18=0x00000001
       33855000	      3384	8000034c	00000013	addi	x0,x0,0	  x0:0x00000000
       33865000	      3385	80000350	ffc00d13	addi	x26,x0,-4	  x0:0x00000000 x26=0xfffffffc
       33875000	      3386	80000354	c5b8f893	andi	x17,x17,-933	 x17:0x00000007 x17=0x00000003
       33885000	      3387	80000358	fff00993	addi	x19,x0,-1	  x0:0x00000000 x19=0xffffffff
       33895000	      3388	8000035c	1ba60893	addi	x17,x12,442	 x12:0xfffffff8 x17=0x000001b2
       33905000	      3389	80000360	7565a093	slti	x1,x11,1878	 x11:0x00000000  x1=0x00000001
       33915000	      3390	80000364	00ad0d13	addi	x26,x26,10	 x26:0xfffffffc x26=0x00000006
       33925000	      3391	80000368	0061fcb3	and	x25,x3,x6	  x3:0x00000e6f  x6:0xffffffef x25=0x00000e6f
       33935000	      3392	8000036c	ff3d4ae3	blt	x26,x19,80000360	 x26:0x00000006 x19:0xffffffff
       33945000	      3393	80000370	0113d513	srli	x10,x7,0x11	  x7:0x00000000 x10=0x00000000
       33955000	      3394	80000374	41d100b3	sub	x1,x2,x29	  x2:0xfffffff4 x29:0x00000001  x1=0xfffffff3
       33965000	      3395	80000378	fb0648e3	blt	x12,x16,80000328	 x12:0xfffffff8 x16:0xfffffffa
       33975000	      3396	00000000	00000013	addi	x0,x0,0	  x0:0x00000000
       33985000	      3397	80000324	00000013	addi	x0,x0,0	  x0:0x00000000
       33995000	      3398	80000328	0024a5b3	slt	x11,x9,x2	  x9:0x00000822  x2:0xfffffff4 x11=0x00000000
       34005000	      3399	8000032c	812c0493	addi	x9,x24,-2030	 x24:0x00000000  x9=0xfffff812
       34015000	      3400	80000330	401fd2b3	sra	x5,x31,x1	 x31:0x80000000  x1:0xfffffff3  x5=0xfffff000
       34025000	      3401	80000334	5951bc13	sltiu	x24,x3,1429	  x3:0x00000e6f x24=0x00000000
       34035000	      3402	80000338	00160613	addi	x12,x12,1	 x12:0xfffffff8 x12=0xfffffff9
       34045000	      3403	8000033c	40b35bb3	sra	x23,x6,x11	  x6:0xffffffef x11:0x00000000 x23=0xffffffef
       34055000	      3404	80000340	00000013	addi	x0,x0,0	  x0:0x00000000
       34065000	      3405	80000344	ae2a6693	ori	x13,x20,-1310	 x20:0x80009fc4 x13=0xffffffe6
       34075000	      3406	80000348	000ee933	or	x18,x29,x0	 x29:0x00000001  x0:0x00000000 x18=0x00000001
       34085000	      3407	8000034c	00000013	addi	x0,x0,0	  x0:0x00000000
       34095000	      3408	80000350	ffc00d13	addi	x26,x0,-4	  x0:0x00000000 x26=0xfffffffc
       34105000	      3409	80000354	c5b8f893	andi	x17,x17,-933	 x17:0x000001b2 x17=0x00000012
       34115000	      3410	80000358	fff00993	addi	x19,x0,-1	  x0:0x00000000 x19=0xffffffff
       34125000	      3411	8000035c	1ba60893	addi	x17,x12,442	 x12:0xfffffff9 x17=0x000001b3
       34135000	      3412	80000360	7565a093	slti	x1,x11,1878	 x11:0x00000000  x1=0x00000001
       34145000	      3413	80000364	00ad0d13	addi	x26,x26,10	 x26:0xfffffffc x26=0x00000006
       34155000	      3414	80000368	0061fcb3	and	x25,x3,x6	  x3:0x00000e6f  x6:0xffffffef x25=0x00000e6f
       34165000	      3415	8000036c	ff3d4ae3	blt	x26,x19,80000360	 x26:0x00000006 x19:0xffffffff
       34175000	      3416	80000370	0113d513	srli	x10,x7,0x11	  x7:0x00000000 x10=0x00000000
       34185000	      3417	80000374	41d100b3	sub	x1,x2,x29	  x2:0xfffffff4 x29:0x00000001  x1=0xfffffff3
       34195000	      3418	80000378	fb0648e3	blt	x12,x16,80000328	 x12:0xfffffff9 x16:0xfffffffa
       34205000	      3419	00000000	00000013	addi	x0,x0,0	  x0:0x00000000
       34215000	      3420	80000324	00000013	addi	x0,x0,0	  x0:0x00000000
       34225000	      3421	80000328	0024a5b3	slt	x11,x9,x2	  x9:0xfffff812  x2:0xfffffff4 x11=0x00000001
       34235000	      3422	8000032c	812c0493	addi	x9,x24,-2030	 x24:0x00000000  x9=0xfffff812
       34245000	      3423	80000330	401fd2b3	sra	x5,x31,x1	 x31:0x80000000  x1:0xfffffff3  x5=0xfffff000
       34255000	      3424	80000334	5951bc13	sltiu	x24,x3,1429	  x3:0x00000e6f x24=0x00000000
       34265000	      3425	80000338	00160613	addi	x12,x12,1	 x12:0xfffffff9 x12=0xfffffffa
       34275000	      3426	8000033c	40b35bb3	sra	x23,x6,x11	  x6:0xffffffef x11:0x00000001 x23=0xfffffff7
       34285000	      3427	80000340	00000013	addi	x0,x0,0	  x0:0x00000000
       34295000	      3428	80000344	ae2a6693	ori	x13,x20,-1310	 x20:0x80009fc4 x13=0xffffffe6
       34305000	      3429	80000348	000ee933	or	x18,x29,x0	 x29:0x00000001  x0:0x00000000 x18=0x00000001
       34315000	      3430	8000034c	00000013	addi	x0,x0,0	  x0:0x00000000
       34325000	      3431	80000350	ffc00d13	addi	x26,x0,-4	  x0:0x00000000 x26=0xfffffffc
       34335000	      3432	80000354	c5b8f893	andi	x17,x17,-933	 x17:0x000001b3 x17=0x00000013
       34345000	      3433	80000358	fff00993	addi	x19,x0,-1	  x0:0x00000000 x19=0xffffffff
       34355000	      3434	8000035c	1ba60893	addi	x17,x12,442	 x12:0xfffffffa x17=0x000001b4
       34365000	      3435	80000360	7565a093	slti	x1,x11,1878	 x11:0x00000001  x1=0x00000001
       34375000	      3436	80000364	00ad0d13	addi	x26,x26,10	 x26:0xfffffffc x26=0x00000006
       34385000	      3437	80000368	0061fcb3	and	x25,x3,x6	  x3:0x00000e6f  x6:0xffffffef x25=0x00000e6f
       34395000	      3438	8000036c	ff3d4ae3	blt	x26,x19,80000360	 x26:0x00000006 x19:0xffffffff
       34405000	      3439	80000370	0113d513	srli	x10,x7,0x11	  x7:0x00000000 x10=0x00000000
       34415000	      3440	80000374	41d100b3	sub	x1,x2,x29	  x2:0xfffffff4 x29:0x00000001  x1=0xfffffff3
       34425000	      3441	80000378	fb0648e3	blt	x12,x16,80000328	 x12:0xfffffffa x16:0xfffffffa
       34435000	      3442	8000037c	002bdc93	srli	x25,x23,0x2	 x23:0xfffffff7 x25=0x3ffffffd
       34445000	      3443	80000380	011b9e93	slli	x29,x23,0x11	 x23:0xfffffff7 x29=0xffee0000
       34455000	      3444	80000384	04f9c863	blt	x19,x15,800003d4	 x19:0xffffffff x15:0x00000000
       34465000	      3445	00000000	00000013	addi	x0,x0,0	  x0:0x00000000
       34475000	      3446	800003d0	00000013	addi	x0,x0,0	  x0:0x00000000
       34485000	      3447	800003d4	41b254b3	sra	x9,x4,x27	  x4:0xffffffff x27:0xffffffff  x9=0xffffffff
       34495000	      3448	800003d8	00bc5293	srli	x5,x24,0xb	 x24:0x00000000  x5=0x00000000
       34505000	      3449	800003dc	0118a833	slt	x16,x17,x17	 x17:0x000001b4 x17:0x000001b4 x16=0x00000000
       34515000	      3450	800003e0	00205663	bge	x0,x2,800003ec	  x0:0x00000000  x2:0xfffffff4
       34525000	      3451	00000000	00000013	addi	x0,x0,0	  x0:0x00000000
       34535000	      3452	800003e8	00000013	addi	x0,x0,0	  x0:0x00000000
       34545000	      3453	800003ec	00000013	addi	x0,x0,0	  x0:0x00000000
       34555000	      3454	800003f0	5775ad13	slti	x26,x11,1399	 x11:0x00000001 x26=0x00000001
       34565000	      3455	800003f4	0042a933	slt	x18,x5,x4	  x5:0x00000000  x4:0xffffffff x18=0x00000000
       34575000	      3456	800003f8	097d3c13	sltiu	x24,x26,151	 x26:0x00000001 x24=0x00000001
       34585000	      3457	800003fc	40a7d033	sra	x0,x15,x10	 x15:0x00000000 x10:0x00000000
       34595000	      3458	80000400	2547fc13	andi	x24,x15,596	 x15:0x00000000 x24=0x00000000
       34605000	      3459	80000404	405bd113	srai	x2,x23,0x5	 x23:0xfffffff7  x2=0xffffffff
       34615000	      3460	80000408	00c41133	sll	x2,x8,x12	  x8:0xe6fbfaff x12:0xfffffffa  x2=0xfc000000
       34625000	      3461	8000040c	00000013	addi	x0,x0,0	  x0:0x00000000
       34635000	      3462	80000410	008828b3	slt	x17,x16,x8	 x16:0x00000000  x8:0xe6fbfaff x17=0x00000000
       34645000	      3463	80000414	02004e63	blt	x0,x0,80000450	  x0:0x00000000  x0:0x00000000
       34655000	      3464	80000418	0d413917	auipc	x18,0xd413	 x18=0x8d413414
       34665000	      3465	8000041c	01b18c63	beq	x3,x27,80000434	  x3:0x00000e6f x27:0xffffffff
       34675000	      3466	80000420	012bc933	xor	x18,x23,x18	 x23:0xfffffff7 x18:0x8d413414 x18=0x72becbe3
       34685000	      3467	80000424	0173c263	blt	x7,x23,80000428	  x7:0x00000000 x23:0xfffffff7
       34695000	      3468	80000428	1d36a913	slti	x18,x13,467	 x13:0xffffffe6 x18=0x00000001
       34705000	      3469	8000042c	efb47193	andi	x3,x8,-261	  x8:0xe6fbfaff  x3=0xe6fbfafb
       34715000	      3470	80000430	00068db3	add	x27,x13,x0	 x13:0xffffffe6  x0:0x00000000 x27=0xffffffe6
       34725000	      3471	80000434	eef2cb13	xori	x22,x5,-273	  x5:0x00000000 x22=0xfffffeef
       34735000	      3472	80000438	003f47b3	xor	x15,x30,x3	 x30:0x00000001  x3:0xe6fbfafb x15=0xe6fbfafa
       34745000	      3473	8000043c	42cfeb13	ori	x22,x31,1068	 x31:0x80000000 x22=0x8000042c
       34755000	      3474	80000440	00000013	addi	x0,x0,0	  x0:0x00000000
       34765000	      3475	80000444	01835a63	bge	x6,x24,80000458	  x6:0xffffffef x24:0x00000000
       34775000	      3476	80000448	4007d7b3	sra	x15,x15,x0	 x15:0xe6fbfafa  x0:0x00000000 x15=0xe6fbfafa
       34785000	      3477	8000044c	417e84b3	sub	x9,x29,x23	 x29:0xffee0000 x23:0xfffffff7  x9=0xffee0009
       34795000	      3478	80000450	4054d013	srai	x0,x9,0x5	  x9:0xffee0009
       34805000	      3479	80000454	73ab5737	lui	x14,0x73ab5	 x14=0x73ab5000
       34815000	      3480	80000458	023a5a63	bge	x20,x3,8000048c	 x20:0x80009fc4  x3:0xe6fbfafb
       34825000	      3481	8000045c	0058d613	srli	x12,x17,0x5	 x17:0x00000000 x12=0x00000000
       34835000	      3482	80000460	b35f3713	sltiu	x14,x30,-1227	 x30:0x00000001 x14=0x00000001
       34845000	      3483	80000464	00ea05b3	add	x11,x20,x14	 x20:0x80009fc4 x14:0x00000001 x11=0x80009fc5
       34855000	      3484	80000468	01efcd33	xor	x26,x31,x30	 x31:0x80000000 x30:0x00000001 x26=0x80000001
       34865000	      3485	8000046c	0078b533	sltu	x10,x17,x7	 x17:0x00000000  x7:0x00000000 x10=0x00000000
       34875000	      3486	80000470	5a6ce0b7	lui	x1,0x5a6ce	  x1=0x5a6ce000
       34885000	      3487	80000474	01a38e63	beq	x7,x26,80000490	  x7:0x00000000 x26:0x80000001
       34895000	      3488	80000478	01f05113	srli	x2,x0,0x1f	  x0:0x00000000  x2=0x00000000
       34905000	      3489	8000047c	009b7263	bgeu	x22,x9,80000480	 x22:0x8000042c  x9:0xffee0009
       34915000	      3490	80000480	00852433	slt	x8,x10,x8	 x10:0x00000000  x8:0xe6fbfaff  x8=0x00000000
       34925000	      3491	80000484	00364a63	blt	x12,x3,80000498	 x12:0x00000000  x3:0xe6fbfafb
       34935000	      3492	80000488	a71e0b93	addi	x23,x28,-1423	 x28:0x80009f34 x23=0x800099a5
       34945000	      3493	8000048c	00000013	addi	x0,x0,0	  x0:0x00000000
       34955000	      3494	80000490	01869033	sll	x0,x13,x24	 x13:0xffffffe6 x24:0x00000000
       34965000	      3495	80000494	d0c3c513	xori	x10,x7,-756	  x7:0x00000000 x10=0xfffffd0c
       34975000	      3496	80000498	02736263	bltu	x6,x7,800004bc	  x6:0xffffffef  x7:0x00000000
       34985000	      3497	8000049c	00fc1eb3	sll	x29,x24,x15	 x24:0x00000000 x15:0xe6fbfafa x29=0x00000000
       34995000	      3498	800004a0	09e87c93	andi	x25,x16,158	 x16:0x00000000 x25=0x00000000
       35005000	      3499	800004a4	3b186993	ori	x19,x16,945	 x16:0x00000000 x19=0x000003b1
       35015000	      3500	800004a8	015f8463	beq	x31,x21,800004b0	 x31:0x80000000 x21:0x00000000
       35025000	      3501	800004ac	03a38463	beq	x7,x26,800004d4	  x7:0x00000000 x26:0x80000001
       35035000	      3502	800004b0	fce85d37	lui	x26,0xfce85	 x26=0xfce85000
       35045000	      3503	800004b4	40625c13	srai	x24,x4,0x6	  x4:0xffffffff x24=0xffffffff
       35055000	      3504	800004b8	00000013	addi	x0,x0,0	  x0:0x00000000
       35065000	      3505	800004bc	017dee63	bltu	x27,x23,800004d8	 x27:0xffffffe6 x23:0x800099a5
       35075000	      3506	800004c0	0440d663	bge	x1,x4,8000050c	  x1:0x5a6ce000  x4:0xffffffff
       35085000	      3507	00000000	00000013	addi	x0,x0,0	  x0:0x00000000
       35095000	      3508	80000508	00000013	addi	x0,x0,0	  x0:0x00000000
       35105000	      3509	8000050c	6c48de97	auipc	x29,0x6c48d	 x29=0xec48d508
       35115000	      3510	80000510	41685d93	srai	x27,x16,0x16	 x16:0x00000000 x27=0x00000000
       35125000	      3511	80000514	e540a837	lui	x16,0xe540a	 x16=0xe540a000
       35135000	      3512	80000518	01759863	bne	x11,x23,80000528	 x11:0x80009fc5 x23:0x800099a5
       35145000	      3513	00000000	00000013	addi	x0,x0,0	  x0:0x00000000
       35155000	      3514	80000524	00000013	addi	x0,x0,0	  x0:0x00000000
       35165000	      3515	80000528	9048f193	andi	x3,x17,-1788	 x17:0x00000000  x3=0x00000000
       35175000	      3516	8000052c	00b9d113	srli	x2,x19,0xb	 x19:0x000003b1  x2=0x00000000
       35185000	      3517	80000530	00e716b3	sll	x13,x14,x14	 x14:0x00000001 x14:0x00000001 x13=0x00000002
       35195000	      3518	80000534	01450c33	add	x24,x10,x20	 x10:0xfffffd0c x20:0x80009fc4 x24=0x80009cd0
       35205000	      3519	80000538	3bca8213	addi	x4,x21,956	 x21:0x00000000  x4=0x000003bc
       35215000	      3520	8000053c	01486a63	bltu	x16,x20,80000550	 x16:0xe540a000 x20:0x80009fc4
       35225000	      3521	80000540	02847263	bgeu	x8,x8,80000564	  x8:0x00000000  x8:0x00000000
       35235000	      3522	00000000	00000013	addi	x0,x0,0	  x0:0x00000000
       35245000	      3523	80000560	00000013	addi	x0,x0,0	  x0:0x00000000
       35255000	      3524	80000564	7296e397	auipc	x7,0x7296e	  x7=0xf296e560
       35265000	      3525	80000568	01c66f33	or	x30,x12,x28	 x12:0x00000000 x28:0x80009f34 x30=0x80009f34
       35275000	      3526	8000056c	01c4cdb3	xor	x27,x9,x28	  x9:0xffee0009 x28:0x80009f34 x27=0x7fee9f3d
       35285000	      3527	80000570	234b2d97	auipc	x27,0x234b2	 x27=0xa34b256c
       35295000	      3528	80000574	019d2533	slt	x10,x26,x25	 x26:0xfce85000 x25:0x00000000 x10=0x00000001
       35305000	      3529	80000578	01ec5593	srli	x11,x24,0x1e	 x24:0x80009cd0 x11=0x00000002
       35315000	      3530	8000057c	857bfb93	andi	x23,x23,-1961	 x23:0x800099a5 x23=0x80009805
       35325000	      3531	80000580	01b20eb3	add	x29,x4,x27	  x4:0x000003bc x27:0xa34b256c x29=0xa34b2928
       35335000	      3532	80000584	00a08133	add	x2,x1,x10	  x1:0x5a6ce000 x10:0x00000001  x2=0x5a6ce001
       35345000	      3533	80000588	013f4e63	blt	x30,x19,800005a4	 x30:0x80009f34 x19:0x000003b1
       35355000	      3534	00000000	00000013	addi	x0,x0,0	  x0:0x00000000
       35365000	      3535	800005a0	00000013	addi	x0,x0,0	  x0:0x00000000
       35375000	      3536	800005a4	01771633	sll	x12,x14,x23	 x14:0x00000001 x23:0x80009805 x12=0x00000020
       35385000	      3537	800005a8	41b88133	sub	x2,x17,x27	 x17:0x00000000 x27:0xa34b256c  x2=0x5cb4da94
       35395000	      3538	800005ac	cfa36a93	ori	x21,x6,-774	  x6:0xffffffef x21=0xffffffff
       35405000	      3539	800005b0	000dd333	srl	x6,x27,x0	 x27:0xa34b256c  x0:0x00000000  x6=0xa34b256c
       35415000	      3540	800005b4	e8314b93	xori	x23,x2,-381	  x2:0x5cb4da94 x23=0xa34b2417
       35425000	      3541	800005b8	40415513	srai	x10,x2,0x4	  x2:0x5cb4da94 x10=0x05cb4da9
       35435000	      3542	800005bc	b42815b7	lui	x11,0xb4281	 x11=0xb4281000
       35445000	      3543	800005c0	008df433	and	x8,x27,x8	 x27:0xa34b256c  x8:0x00000000  x8=0x00000000
       35455000	      3544	800005c4	01a1b7b3	sltu	x15,x3,x26	  x3:0x00000000 x26:0xfce85000 x15=0x00000001
       35465000	      3545	800005c8	419e8db3	sub	x27,x29,x25	 x29:0xa34b2928 x25:0x00000000 x27=0xa34b2928
       35475000	      3546	800005cc	01624c63	blt	x4,x22,800005e4	  x4:0x000003bc x22:0x8000042c
       35485000	      3547	800005d0	01798e63	beq	x19,x23,800005ec	 x19:0x000003b1 x23:0xa34b2417
       35495000	      3548	800005d4	00fad033	srl	x0,x21,x15	 x21:0xffffffff x15:0x00000001
       35505000	      3549	800005d8	01946833	or	x16,x8,x25	  x8:0x00000000 x25:0x00000000 x16=0x00000000
       35515000	      3550	800005dc	a49b0493	addi	x9,x22,-1463	 x22:0x8000042c  x9=0x7ffffe75
       35525000	      3551	800005e0	01161d33	sll	x26,x12,x17	 x12:0x00000020 x17:0x00000000 x26=0x00000020
       35535000	      3552	800005e4	0074beb3	sltu	x29,x9,x7	  x9:0x7ffffe75  x7:0xf296e560 x29=0x00000001
       35545000	      3553	800005e8	010b00b3	add	x1,x22,x16	 x22:0x8000042c x16:0x00000000  x1=0x8000042c
       35555000	      3554	800005ec	40c7dc13	srai	x24,x15,0xc	 x15:0x00000001 x24=0x00000000
       35565000	      3555	800005f0	0017b8b3	sltu	x17,x15,x1	 x15:0x00000001  x1:0x8000042c x17=0x00000001
       35575000	      3556	800005f4	017cd293	srli	x5,x25,0x17	 x25:0x00000000  x5=0x00000000
       35585000	      3557	800005f8	017a9813	slli	x16,x21,0x17	 x21:0xffffffff x16=0xff800000
       35595000	      3558	800005fc	01d775b3	and	x11,x14,x29	 x14:0x00000001 x29:0x00000001 x11=0x00000001
       35605000	      3559	80000600	01e26a63	bltu	x4,x30,80000614	  x4:0x000003bc x30:0x80009f34
       35615000	      3560	00000000	00000013	addi	x0,x0,0	  x0:0x00000000
       35625000	      3561	80000610	00000013	addi	x0,x0,0	  x0:0x00000000
       35635000	      3562	80000614	02b95063	bge	x18,x11,80000634	 x18:0x00000001 x11:0x00000001
       35645000	      3563	00000000	00000013	addi	x0,x0,0	  x0:0x00000000
       35655000	      3564	80000630	00000013	addi	x0,x0,0	  x0:0x00000000
       35665000	      3565	80000634	00cafa63	bgeu	x21,x12,80000648	 x21:0xffffffff x12:0x00000020
       35675000	      3566	00000000	00000013	addi	x0,x0,0	  x0:0x00000000
       35685000	      3567	80000644	00000013	addi	x0,x0,0	  x0:0x00000000
       35695000	      3568	80000648	3840af13	slti	x30,x1,900	  x1:0x8000042c x30=0x00000001
       35705000	      3569	8000064c	4151dc33	sra	x24,x3,x21	  x3:0x00000000 x21:0xffffffff x24=0x00000000
       35715000	      3570	80000650	db50f393	andi	x7,x1,-587	  x1:0x8000042c  x7=0x80000424
       35725000	      3571	80000654	019d0cb3	add	x25,x26,x25	 x26:0x00000020 x25:0x00000000 x25=0x00000020
       35735000	      3572	80000658	60f57193	andi	x3,x10,1551	 x10:0x05cb4da9  x3=0x00000409
       35745000	      3573	8000065c	011e8f33	add	x30,x29,x17	 x29:0x00000001 x17:0x00000001 x30=0x00000002
       35755000	      3574	80000660	00a42333	slt	x6,x8,x10	  x8:0x00000000 x10:0x05cb4da9  x6=0x00000001
       35765000	      3575	80000664	00000013	addi	x0,x0,0	  x0:0x00000000
       35775000	      3576	80000668	004e2d03	lw	x26,4(x28)	 x28:0x80009f34 x26=0x8000212c PA:0x80009f38
       35785000	      3577	8000066c	e9fc4213	xori	x4,x24,-353	 x24:0x00000000  x4=0xfffffe9f
       35795000	      3578	80000670	00ce0e13	addi	x28,x28,12	 x28:0x80009f34 x28=0x80009f40
       35805000	      3579	80000674	1eec2313	slti	x6,x24,494	 x24:0x00000000  x6=0x00000001
       35815000	      3580	80000678	001d0913	addi	x18,x26,1	 x26:0x8000212c x18=0x8000212d
       35825000	      3581	8000067c	00090967	jalr	x18,x18,0	 x18:0x8000212d x18=0x8000067c
       35835000	      3582	00000000	00000013	addi	x0,x0,0	  x0:0x00000000
       35845000	      3583	8000212c	00000013	addi	x0,x0,0	  x0:0x00000000
       35855000	      3584	80002130	01d9f9b3	and	x19,x19,x29	 x19:0x000003b1 x29:0x00000001 x19=0x00000001
       35865000	      3585	80002134	043a8863	beq	x21,x3,80002184	 x21:0xffffffff  x3:0x00000409
       35875000	      3586	80002138	a1316813	ori	x16,x2,-1517	  x2:0x5cb4da94 x16=0xfffffa97
       35885000	      3587	8000213c	fb9f2c13	slti	x24,x30,-71	 x30:0x00000002 x24=0x00000000
       35895000	      3588	80002140	23348ab7	lui	x21,0x23348	 x21=0x23348000
       35905000	      3589	80002144	05fe5263	bge	x28,x31,80002188	 x28:0x80009f40 x31:0x80000000
       35915000	      3590	00000000	00000013	addi	x0,x0,0	  x0:0x00000000
       35925000	      3591	80002184	00000013	addi	x0,x0,0	  x0:0x00000000
       35935000	      3592	80002188	5fd8c237	lui	x4,0x5fd8c	  x4=0x5fd8c000
       35945000	      3593	8000218c	01ecc3b3	xor	x7,x25,x30	 x25:0x00000020 x30:0x00000002  x7=0x00000022
       35955000	      3594	80002190	00724ab3	xor	x21,x4,x7	  x4:0x5fd8c000  x7:0x00000022 x21=0x5fd8c022
       35965000	      3595	80002194	00700d13	addi	x26,x0,7	  x0:0x00000000 x26=0x00000007
       35975000	      3596	80002198	40bb0133	sub	x2,x22,x11	 x22:0x8000042c x11:0x00000001  x2=0x8000042b
       35985000	      3597	8000219c	00900d93	addi	x27,x0,9	  x0:0x00000000 x27=0x00000009
       35995000	      3598	800021a0	30bcc1b7	lui	x3,0x30bcc	  x3=0x30bcc000
       36005000	      3599	800021a4	01f3db93	srli	x23,x7,0x1f	  x7:0x00000022 x23=0x00000000
       36015000	      3600	800021a8	7aebb693	sltiu	x13,x23,1966	 x23:0x00000000 x13=0x00000001
       36025000	      3601	800021ac	00a71b93	slli	x23,x14,0xa	 x14:0x00000001 x23=0x00000400
       36035000	      3602	800021b0	a2dec293	xori	x5,x29,-1491	 x29:0x00000001  x5=0xfffffa2c
       36045000	      3603	800021b4	002d0d13	addi	x26,x26,2	 x26:0x00000007 x26=0x00000009
       36055000	      3604	800021b8	00700c93	addi	x25,x0,7	  x0:0x00000000 x25=0x00000007
       36065000	      3605	800021bc	40fa53b3	sra	x7,x20,x15	 x20:0x80009fc4 x15:0x00000001  x7=0xc0004fe2
       36075000	      3606	800021c0	01300e93	addi	x29,x0,19	  x0:0x00000000 x29=0x00000013
       36085000	      3607	800021c4	0171d713	srli	x14,x3,0x17	  x3:0x30bcc000 x14=0x00000061
       36095000	      3608	800021c8	000915b3	sll	x11,x18,x0	 x18:0x8000067c  x0:0x00000000 x11=0x8000067c
       36105000	      3609	800021cc	41bbd7b3	sra	x15,x23,x27	 x23:0x00000400 x27:0x00000009 x15=0x00000002
       36115000	      3610	800021d0	a3dab913	sltiu	x18,x21,-1475	 x21:0x5fd8c022 x18=0x00000001
       36125000	      3611	800021d4	54d18713	addi	x14,x3,1357	  x3:0x30bcc000 x14=0x30bcc54d
       36135000	      3612	800021d8	009e9633	sll	x12,x29,x9	 x29:0x00000013  x9:0x7ffffe75 x12=0x02600000
       36145000	      3613	800021dc	004c8c93	addi	x25,x25,4	 x25:0x00000007 x25=0x0000000b
       36155000	      3614	800021e0	0090d013	srli	x0,x1,0x9	  x1:0x8000042c
       36165000	      3615	800021e4	ffdce6e3	bltu	x25,x29,800021d0	 x25:0x0000000b x29:0x00000013
       36175000	      3616	00000000	00000013	addi	x0,x0,0	  x0:0x00000000
       36185000	      3617	800021cc	00000013	addi	x0,x0,0	  x0:0x00000000
       36195000	      3618	800021d0	a3dab913	sltiu	x18,x21,-1475	 x21:0x5fd8c022 x18=0x00000001
       36205000	      3619	800021d4	54d18713	addi	x14,x3,1357	  x3:0x30bcc000 x14=0x30bcc54d
       36215000	      3620	800021d8	009e9633	sll	x12,x29,x9	 x29:0x00000013  x9:0x7ffffe75 x12=0x02600000
       36225000	      3621	800021dc	004c8c93	addi	x25,x25,4	 x25:0x0000000b x25=0x0000000f
       36235000	      3622	800021e0	0090d013	srli	x0,x1,0x9	  x1:0x8000042c
       36245000	      3623	800021e4	ffdce6e3	bltu	x25,x29,800021d0	 x25:0x0000000f x29:0x00000013
       36255000	      3624	00000000	00000013	addi	x0,x0,0	  x0:0x00000000
       36265000	      3625	800021cc	00000013	addi	x0,x0,0	  x0:0x00000000
       36275000	      3626	800021d0	a3dab913	sltiu	x18,x21,-1475	 x21:0x5fd8c022 x18=0x00000001
       36285000	      3627	800021d4	54d18713	addi	x14,x3,1357	  x3:0x30bcc000 x14=0x30bcc54d
       36295000	      3628	800021d8	009e9633	sll	x12,x29,x9	 x29:0x00000013  x9:0x7ffffe75 x12=0x02600000
       36305000	      3629	800021dc	004c8c93	addi	x25,x25,4	 x25:0x0000000f x25=0x00000013
       36315000	      3630	800021e0	0090d013	srli	x0,x1,0x9	  x1:0x8000042c
       36325000	      3631	800021e4	ffdce6e3	bltu	x25,x29,800021d0	 x25:0x00000013 x29:0x00000013
       36335000	      3632	800021e8	fdbd10e3	bne	x26,x27,800021a8	 x26:0x00000009 x27:0x00000009
       36345000	      3633	800021ec	01e184b3	add	x9,x3,x30	  x3:0x30bcc000 x30:0x00000002  x9=0x30bcc002
       36355000	      3634	800021f0	01180c63	beq	x16,x17,80002208	 x16:0xfffffa97 x17:0x00000001
       36365000	      3635	800021f4	01352733	slt	x14,x10,x19	 x10:0x05cb4da9 x19:0x00000001 x14=0x00000000
       36375000	      3636	800021f8	40e807b3	sub	x15,x16,x14	 x16:0xfffffa97 x14:0x00000000 x15=0xfffffa97
       36385000	      3637	800021fc	00f81c63	bne	x16,x15,80002214	 x16:0xfffffa97 x15:0xfffffa97
       36395000	      3638	80002200	00e1c2b3	xor	x5,x3,x14	  x3:0x30bcc000 x14:0x00000000  x5=0x30bcc000
       36405000	      3639	80002204	5cff2493	slti	x9,x30,1487	 x30:0x00000002  x9=0x00000001
       36415000	      3640	80002208	c2831d37	lui	x26,0xc2831	 x26=0xc2831000
       36425000	      3641	8000220c	39ad3513	sltiu	x10,x26,922	 x26:0xc2831000 x10=0x00000000
       36435000	      3642	80002210	01edf9b3	and	x19,x27,x30	 x27:0x00000009 x30:0x00000002 x19=0x00000000
       36445000	      3643	80002214	01b71693	slli	x13,x14,0x1b	 x14:0x00000000 x13=0x00000000
       36455000	      3644	80002218	1d527997	auipc	x19,0x1d527	 x19=0x9d529214
       36465000	      3645	8000221c	af93b913	sltiu	x18,x7,-1287	  x7:0xc0004fe2 x18=0x00000001
       36475000	      3646	80002220	01ad1513	slli	x10,x26,0x1a	 x26:0xc2831000 x10=0x00000000
       36485000	      3647	80002224	c52666b7	lui	x13,0xc5266	 x13=0xc5266000
       36495000	      3648	80002228	218b8193	addi	x3,x23,536	 x23:0x00000400  x3=0x00000618
       36505000	      3649	8000222c	018f1033	sll	x0,x30,x24	 x30:0x00000002 x24:0x00000000
       36515000	      3650	80002230	01aa1133	sll	x2,x20,x26	 x20:0x80009fc4 x26:0xc2831000  x2=0x80009fc4
       36525000	      3651	80002234	00f7ff33	and	x30,x15,x15	 x15:0xfffffa97 x15:0xfffffa97 x30=0xfffffa97
       36535000	      3652	80002238	4169d1b3	sra	x3,x19,x22	 x19:0x9d529214 x22:0x8000042c  x3=0xfff9d529
       36545000	      3653	8000223c	4006d433	sra	x8,x13,x0	 x13:0xc5266000  x0:0x00000000  x8=0xc5266000
       36555000	      3654	80002240	707e0313	addi	x6,x28,1799	 x28:0x80009f40  x6=0x8000a647
       36565000	      3655	80002244	08915863	bge	x2,x9,800022d4	  x2:0x80009fc4  x9:0x00000001
       36575000	      3656	80002248	94f8e193	ori	x3,x17,-1713	 x17:0x00000001  x3=0xfffff94f
       36585000	      3657	8000224c	a3f3f393	andi	x7,x7,-1473	  x7:0xc0004fe2  x7=0xc0004a22
       36595000	      3658	80002250	cb446813	ori	x16,x8,-844	  x8:0xc5266000 x16=0xfffffcb4
       36605000	      3659	80002254	01e72db3	slt	x27,x14,x30	 x14:0x00000000 x30:0xfffffa97 x27=0x00000000
       36615000	      3660	80002258	409a5013	srai	x0,x20,0x9	 x20:0x80009fc4
       36625000	      3661	8000225c	ffd00613	addi	x12,x0,-3	  x0:0x00000000 x12=0xfffffffd
       36635000	      3662	80002260	01054033	xor	x0,x10,x16	 x10:0x00000000 x16:0xfffffcb4
       36645000	      3663	80002264	00800b93	addi	x23,x0,8	  x0:0x00000000 x23=0x00000008
       36655000	      3664	80002268	00f38233	add	x4,x7,x15	  x7:0xc0004a22 x15:0xfffffa97  x4=0xc00044b9
       36665000	      3665	8000226c	fb788b13	addi	x22,x17,-73	 x17:0x00000001 x22=0xffffffb8
       36675000	      3666	80002270	01a35b33	srl	x22,x6,x26	  x6:0x8000a647 x26:0xc2831000 x22=0x8000a647
       36685000	      3667	80002274	0138a433	slt	x8,x17,x19	 x17:0x00000001 x19:0x9d529214  x8=0x00000000
       36695000	      3668	80002278	1979f813	andi	x16,x19,407	 x19:0x9d529214 x16=0x00000014
       36705000	      3669	8000227c	0021e1b3	or	x3,x3,x2	  x3:0xfffff94f  x2:0x80009fc4  x3=0xffffffcf
       36715000	      3670	80002280	00a60613	addi	x12,x12,10	 x12:0xfffffffd x12=0x00000007
       36725000	      3671	80002284	00900093	addi	x1,x0,9	  x0:0x00000000  x1=0x00000009
       36735000	      3672	80002288	0116e333	or	x6,x13,x17	 x13:0xc5266000 x17:0x00000001  x6=0xc5266001
       36745000	      3673	8000228c	00600693	addi	x13,x0,6	  x0:0x00000000 x13=0x00000006
       36755000	      3674	80002290	00000013	addi	x0,x0,0	  x0:0x00000000
       36765000	      3675	80002294	37506493	ori	x9,x0,885	  x0:0x00000000  x9=0x00000375
       36775000	      3676	80002298	5ae26313	ori	x6,x4,1454	  x4:0xc00044b9  x6=0xc00045bf
       36785000	      3677	8000229c	ffc08093	addi	x1,x1,-4	  x1:0x00000009  x1=0x00000005
       36795000	      3678	800022a0	b1428137	lui	x2,0xb1428	  x2=0xb1428000
       36805000	      3679	800022a4	fed0f8e3	bgeu	x1,x13,80002294	  x1:0x00000005 x13:0x00000006
       36815000	      3680	800022a8	00f69793	slli	x15,x13,0xf	 x13:0x00000006 x15=0x00030000
       36825000	      3681	800022ac	fd7646e3	blt	x12,x23,80002278	 x12:0x00000007 x23:0x00000008
       36835000	      3682	00000000	00000013	addi	x0,x0,0	  x0:0x00000000
       36845000	      3683	80002274	00000013	addi	x0,x0,0	  x0:0x00000000
       36855000	      3684	80002278	1979f813	andi	x16,x19,407	 x19:0x9d529214 x16=0x00000014
       36865000	      3685	8000227c	0021e1b3	or	x3,x3,x2	  x3:0xffffffcf  x2:0xb1428000  x3=0xffffffcf
       36875000	      3686	80002280	00a60613	addi	x12,x12,10	 x12:0x00000007 x12=0x00000011
       36885000	      3687	80002284	00900093	addi	x1,x0,9	  x0:0x00000000  x1=0x00000009
       36895000	      3688	80002288	0116e333	or	x6,x13,x17	 x13:0x00000006 x17:0x00000001  x6=0x00000007
       36905000	      3689	8000228c	00600693	addi	x13,x0,6	  x0:0x00000000 x13=0x00000006
       36915000	      3690	80002290	00000013	addi	x0,x0,0	  x0:0x00000000
       36925000	      3691	80002294	37506493	ori	x9,x0,885	  x0:0x00000000  x9=0x00000375
       36935000	      3692	80002298	5ae26313	ori	x6,x4,1454	  x4:0xc00044b9  x6=0xc00045bf
       36945000	      3693	8000229c	ffc08093	addi	x1,x1,-4	  x1:0x00000009  x1=0x00000005
       36955000	      3694	800022a0	b1428137	lui	x2,0xb1428	  x2=0xb1428000
       36965000	      3695	800022a4	fed0f8e3	bgeu	x1,x13,80002294	  x1:0x00000005 x13:0x00000006
       36975000	      3696	800022a8	00f69793	slli	x15,x13,0xf	 x13:0x00000006 x15=0x00030000
       36985000	      3697	800022ac	fd7646e3	blt	x12,x23,80002278	 x12:0x00000011 x23:0x00000008
       36995000	      3698	800022b0	01aeb9b3	sltu	x19,x29,x26	 x29:0x00000013 x26:0xc2831000 x19=0x00000001
       37005000	      3699	800022b4	01f94db3	xor	x27,x18,x31	 x18:0x00000001 x31:0x80000000 x27=0x80000001
       37015000	      3700	800022b8	54856493	ori	x9,x10,1352	 x10:0x00000000  x9=0x00000548
       37025000	      3701	800022bc	07294c63	blt	x18,x18,80002334	 x18:0x00000001 x18:0x00000001
       37035000	      3702	800022c0	40095993	srai	x19,x18,0x0	 x18:0x00000001 x19=0x00000001
       37045000	      3703	800022c4	001e9393	slli	x7,x29,0x1	 x29:0x00000013  x7=0x00000026
       37055000	      3704	800022c8	403ad413	srai	x8,x21,0x3	 x21:0x5fd8c022  x8=0x0bfb1804
       37065000	      3705	800022cc	00e0a533	slt	x10,x1,x14	  x1:0x00000005 x14:0x00000000 x10=0x00000000
       37075000	      3706	800022d0	4082d993	srai	x19,x5,0x8	  x5:0x30bcc000 x19=0x0030bcc0
       37085000	      3707	800022d4	ab4fe693	ori	x13,x31,-1356	 x31:0x80000000 x13=0xfffffab4
       37095000	      3708	800022d8	01fa77b3	and	x15,x20,x31	 x20:0x80009fc4 x31:0x80000000 x15=0x80000000
       37105000	      3709	800022dc	08987063	bgeu	x16,x9,8000235c	 x16:0x00000014  x9:0x00000548
       37115000	      3710	800022e0	00bfb1b3	sltu	x3,x31,x11	 x31:0x80000000 x11:0x8000067c  x3=0x00000001
       37125000	      3711	800022e4	ffd00b93	addi	x23,x0,-3	  x0:0x00000000 x23=0xfffffffd
       37135000	      3712	800022e8	00bb1113	slli	x2,x22,0xb	 x22:0x8000a647  x2=0x05323800
       37145000	      3713	800022ec	00861493	slli	x9,x12,0x8	 x12:0x00000011  x9=0x00001100
       37155000	      3714	800022f0	00700f13	addi	x30,x0,7	  x0:0x00000000 x30=0x00000007
       37165000	      3715	800022f4	3fd04797	auipc	x15,0x3fd04	 x15=0xbfd062f0
       37175000	      3716	800022f8	016ff1b3	and	x3,x31,x22	 x31:0x80000000 x22:0x8000a647  x3=0x80000000
       37185000	      3717	800022fc	01d8f3b3	and	x7,x17,x29	 x17:0x00000001 x29:0x00000013  x7=0x00000001
       37195000	      3718	80002300	005b8b93	addi	x23,x23,5	 x23:0xfffffffd x23=0x00000002
       37205000	      3719	80002304	ffe00293	addi	x5,x0,-2	  x0:0x00000000  x5=0xfffffffe
       37215000	      3720	80002308	fec00a93	addi	x21,x0,-20	  x0:0x00000000 x21=0xffffffec
       37225000	      3721	8000230c	8c847037	lui	x0,0x8c847	
       37235000	      3722	80002310	ffa28293	addi	x5,x5,-6	  x5:0xfffffffe  x5=0xfffffff8
       37245000	      3723	80002314	00c2c5b3	xor	x11,x5,x12	  x5:0xfffffff8 x12:0x00000011 x11=0xffffffe9
       37255000	      3724	80002318	00ee56b3	srl	x13,x28,x14	 x28:0x80009f40 x14:0x00000000 x13=0x80009f40
       37265000	      3725	8000231c	ff5298e3	bne	x5,x21,8000230c	  x5:0xfffffff8 x21:0xffffffec
       37275000	      3726	00000000	00000013	addi	x0,x0,0	  x0:0x00000000
       37285000	      3727	80002308	00000013	addi	x0,x0,0	  x0:0x00000000
       37295000	      3728	8000230c	8c847037	lui	x0,0x8c847	
       37305000	      3729	80002310	ffa28293	addi	x5,x5,-6	  x5:0xfffffff8  x5=0xfffffff2
       37315000	      3730	80002314	00c2c5b3	xor	x11,x5,x12	  x5:0xfffffff2 x12:0x00000011 x11=0xffffffe3
       37325000	      3731	80002318	00ee56b3	srl	x13,x28,x14	 x28:0x80009f40 x14:0x00000000 x13=0x80009f40
       37335000	      3732	8000231c	ff5298e3	bne	x5,x21,8000230c	  x5:0xfffffff2 x21:0xffffffec
       37345000	      3733	00000000	00000013	addi	x0,x0,0	  x0:0x00000000
       37355000	      3734	80002308	00000013	addi	x0,x0,0	  x0:0x00000000
       37365000	      3735	8000230c	8c847037	lui	x0,0x8c847	
       37375000	      3736	80002310	ffa28293	addi	x5,x5,-6	  x5:0xfffffff2  x5=0xffffffec
       37385000	      3737	80002314	00c2c5b3	xor	x11,x5,x12	  x5:0xffffffec x12:0x00000011 x11=0xfffffffd
       37395000	      3738	80002318	00ee56b3	srl	x13,x28,x14	 x28:0x80009f40 x14:0x00000000 x13=0x80009f40
       37405000	      3739	8000231c	ff5298e3	bne	x5,x21,8000230c	  x5:0xffffffec x21:0xffffffec
       37415000	      3740	80002320	416e5613	srai	x12,x28,0x16	 x28:0x80009f40 x12=0xfffffe00
       37425000	      3741	80002324	fdeb8ae3	beq	x23,x30,800022f8	 x23:0x00000002 x30:0x00000007
       37435000	      3742	80002328	412f5eb3	sra	x29,x30,x18	 x30:0x00000007 x18:0x00000001 x29=0x00000003
       37445000	      3743	8000232c	01746c63	bltu	x8,x23,80002344	  x8:0x0bfb1804 x23:0x00000002
       37455000	      3744	80002330	83a43093	sltiu	x1,x8,-1990	  x8:0x0bfb1804  x1=0x00000001
       37465000	      3745	80002334	03a49463	bne	x9,x26,8000235c	  x9:0x00001100 x26:0xc2831000
       37475000	      3746	00000000	00000013	addi	x0,x0,0	  x0:0x00000000
       37485000	      3747	80002358	00000013	addi	x0,x0,0	  x0:0x00000000
       37495000	      3748	8000235c	01d69733	sll	x14,x13,x29	 x13:0x80009f40 x29:0x00000003 x14=0x0004fa00
       37505000	      3749	80002360	006e5733	srl	x14,x28,x6	 x28:0x80009f40  x6:0xc00045bf x14=0x00000001
       37515000	      3750	80002364	d486a393	slti	x7,x13,-696	 x13:0x80009f40  x7=0x00000001
       37525000	      3751	80002368	e271e893	ori	x17,x3,-473	  x3:0x80000000 x17=0xfffffe27
       37535000	      3752	8000236c	00c9c663	blt	x19,x12,80002378	 x19:0x0030bcc0 x12:0xfffffe00
       37545000	      3753	80002370	03e4f063	bgeu	x9,x30,80002390	  x9:0x00001100 x30:0x00000007
       37555000	      3754	00000000	00000013	addi	x0,x0,0	  x0:0x00000000
       37565000	      3755	8000238c	00000013	addi	x0,x0,0	  x0:0x00000000
       37575000	      3756	80002390	01074b33	xor	x22,x14,x16	 x14:0x00000001 x16:0x00000014 x22=0x00000015
       37585000	      3757	80002394	419385b3	sub	x11,x7,x25	  x7:0x00000001 x25:0x00000013 x11=0xffffffee
       37595000	      3758	80002398	03869a63	bne	x13,x24,800023cc	 x13:0x80009f40 x24:0x00000000
       37605000	      3759	00000000	00000013	addi	x0,x0,0	  x0:0x00000000
       37615000	      3760	800023c8	00000013	addi	x0,x0,0	  x0:0x00000000
       37625000	      3761	800023cc	00000013	addi	x0,x0,0	  x0:0x00000000
       37635000	      3762	800023d0	40f15193	srai	x3,x2,0xf	  x2:0x05323800  x3=0x00000a64
       37645000	      3763	800023d4	417c8c33	sub	x24,x25,x23	 x25:0x00000013 x23:0x00000002 x24=0x00000011
       37655000	      3764	800023d8	00000013	addi	x0,x0,0	  x0:0x00000000
       37665000	      3765	800023dc	0e9d0c93	addi	x25,x26,233	 x26:0xc2831000 x25=0xc28310e9
       37675000	      3766	800023e0	41abd613	srai	x12,x23,0x1a	 x23:0x00000002 x12=0x00000000
       37685000	      3767	800023e4	e4aa2513	slti	x10,x20,-438	 x20:0x80009fc4 x10=0x00000001
       37695000	      3768	800023e8	04939863	bne	x7,x9,80002438	  x7:0x00000001  x9:0x00001100
       37705000	      3769	00000000	00000013	addi	x0,x0,0	  x0:0x00000000
       37715000	      3770	80002434	00000013	addi	x0,x0,0	  x0:0x00000000
       37725000	      3771	80002438	006d4463	blt	x26,x6,80002440	 x26:0xc2831000  x6:0xc00045bf
       37735000	      3772	8000243c	f477eb93	ori	x23,x15,-185	 x15:0xbfd062f0 x23=0xfffffff7
       37745000	      3773	80002440	941fcf13	xori	x30,x31,-1727	 x31:0x80000000 x30=0x7ffff941
       37755000	      3774	80002444	be210693	addi	x13,x2,-1054	  x2:0x05323800 x13=0x053233e2
       37765000	      3775	80002448	02327663	bgeu	x4,x3,80002474	  x4:0xc00044b9  x3:0x00000a64
       37775000	      3776	00000000	00000013	addi	x0,x0,0	  x0:0x00000000
       37785000	      3777	80002470	00000013	addi	x0,x0,0	  x0:0x00000000
       37795000	      3778	80002474	00000013	addi	x0,x0,0	  x0:0x00000000
       37805000	      3779	80002478	0205dc63	bge	x11,x0,800024b0	 x11:0xffffffee  x0:0x00000000
       37815000	      3780	8000247c	02f27863	bgeu	x4,x15,800024ac	  x4:0xc00044b9 x15:0xbfd062f0
       37825000	      3781	00000000	00000013	addi	x0,x0,0	  x0:0x00000000
       37835000	      3782	800024a8	00000013	addi	x0,x0,0	  x0:0x00000000
       37845000	      3783	800024ac	01ced7b3	srl	x15,x29,x28	 x29:0x00000003 x28:0x80009f40 x15=0x00000003
       37855000	      3784	800024b0	017e5833	srl	x16,x28,x23	 x28:0x80009f40 x23:0xfffffff7 x16=0x00000100
       37865000	      3785	800024b4	0311ec63	bltu	x3,x17,800024ec	  x3:0x00000a64 x17:0xfffffe27
       37875000	      3786	00000000	00000013	addi	x0,x0,0	  x0:0x00000000
       37885000	      3787	800024e8	00000013	addi	x0,x0,0	  x0:0x00000000
       37895000	      3788	800024ec	031d5263	bge	x26,x17,80002510	 x26:0xc2831000 x17:0xfffffe27
       37905000	      3789	800024f0	01eb9393	slli	x7,x23,0x1e	 x23:0xfffffff7  x7=0xc0000000
       37915000	      3790	800024f4	40415013	srai	x0,x2,0x4	  x2:0x05323800
       37925000	      3791	800024f8	8ad3f113	andi	x2,x7,-1875	  x7:0xc0000000  x2=0xc0000000
       37935000	      3792	800024fc	4093dc93	srai	x25,x7,0x9	  x7:0xc0000000 x25=0xffe00000
       37945000	      3793	80002500	03d5f863	bgeu	x11,x29,80002530	 x11:0xffffffee x29:0x00000003
       37955000	      3794	00000000	00000013	addi	x0,x0,0	  x0:0x00000000
       37965000	      3795	8000252c	00000013	addi	x0,x0,0	  x0:0x00000000
       37975000	      3796	80002530	41065a93	srai	x21,x12,0x10	 x12:0x00000000 x21=0x00000000
       37985000	      3797	80002534	00ecf333	and	x6,x25,x14	 x25:0xffe00000 x14:0x00000001  x6=0x00000000
       37995000	      3798	80002538	0ec8fe93	andi	x29,x17,236	 x17:0xfffffe27 x29=0x00000024
       38005000	      3799	8000253c	042f6263	bltu	x30,x2,80002580	 x30:0x7ffff941  x2:0xc0000000
       38015000	      3800	00000000	00000013	addi	x0,x0,0	  x0:0x00000000
       38025000	      3801	8000257c	00000013	addi	x0,x0,0	  x0:0x00000000
       38035000	      3802	80002580	5fefa813	slti	x16,x31,1534	 x31:0x80000000 x16=0x00000001
       38045000	      3803	80002584	014a44b3	xor	x9,x20,x20	 x20:0x80009fc4 x20:0x80009fc4  x9=0x00000000
       38055000	      3804	80002588	0280d463	bge	x1,x8,800025b0	  x1:0x00000001  x8:0x0bfb1804
       38065000	      3805	8000258c	005750b3	srl	x1,x14,x5	 x14:0x00000001  x5:0xffffffec  x1=0x00000000
       38075000	      3806	80002590	b5770717	auipc	x14,0xb5770	 x14=0x3577258c
       38085000	      3807	80002594	00091593	slli	x11,x18,0x0	 x18:0x00000001 x11=0x00000001
       38095000	      3808	80002598	009b8d33	add	x26,x23,x9	 x23:0xfffffff7  x9:0x00000000 x26=0xfffffff7
       38105000	      3809	8000259c	2105b213	sltiu	x4,x11,528	 x11:0x00000001  x4=0x00000001
       38115000	      3810	800025a0	72bd3d13	sltiu	x26,x26,1835	 x26:0xfffffff7 x26=0x00000000
       38125000	      3811	800025a4	01c77333	and	x6,x14,x28	 x14:0x3577258c x28:0x80009f40  x6=0x00000500
       38135000	      3812	800025a8	e656ab13	slti	x22,x13,-411	 x13:0x053233e2 x22=0x00000000
       38145000	      3813	800025ac	38ea8693	addi	x13,x21,910	 x21:0x00000000 x13=0x0000038e
       38155000	      3814	800025b0	d7488993	addi	x19,x17,-652	 x17:0xfffffe27 x19=0xfffffb9b
       38165000	      3815	800025b4	00118c63	beq	x3,x1,800025cc	  x3:0x00000a64  x1:0x00000000
       38175000	      3816	800025b8	204c3e93	sltiu	x29,x24,516	 x24:0x00000011 x29=0x00000001
       38185000	      3817	800025bc	01ef1ab3	sll	x21,x30,x30	 x30:0x7ffff941 x30:0x7ffff941 x21=0xfffff282
       38195000	      3818	800025c0	e4df6b13	ori	x22,x30,-435	 x30:0x7ffff941 x22=0xffffff4d
       38205000	      3819	800025c4	005319b3	sll	x19,x6,x5	  x6:0x00000500  x5:0xffffffec x19=0x00500000
       38215000	      3820	800025c8	00000013	addi	x0,x0,0	  x0:0x00000000
       38225000	      3821	800025cc	6ed8c413	xori	x8,x17,1773	 x17:0xfffffe27  x8=0xfffff8ca
       38235000	      3822	800025d0	2d940a93	addi	x21,x8,729	  x8:0xfffff8ca x21=0xfffffba3
       38245000	      3823	800025d4	00226433	or	x8,x4,x2	  x4:0x00000001  x2:0xc0000000  x8=0xc0000001
       38255000	      3824	800025d8	40f70233	sub	x4,x14,x15	 x14:0x3577258c x15:0x00000003  x4=0x35772589
       38265000	      3825	800025dc	93d02313	slti	x6,x0,-1731	  x0:0x00000000  x6=0x00000000
       38275000	      3826	800025e0	00000013	addi	x0,x0,0	  x0:0x00000000
       38285000	      3827	800025e4	031f9063	bne	x31,x17,80002604	 x31:0x80000000 x17:0xfffffe27
       38295000	      3828	00000000	00000013	addi	x0,x0,0	  x0:0x00000000
       38305000	      3829	80002600	00000013	addi	x0,x0,0	  x0:0x00000000
       38315000	      3830	80002604	01f89d93	slli	x27,x17,0x1f	 x17:0xfffffe27 x27=0x80000000
       38325000	      3831	80002608	400ddab3	sra	x21,x27,x0	 x27:0x80000000  x0:0x00000000 x21=0x80000000
       38335000	      3832	8000260c	0224f063	bgeu	x9,x2,8000262c	  x9:0x00000000  x2:0xc0000000
       38345000	      3833	80002610	f533da97	auipc	x21,0xf533d	 x21=0x7533f60c
       38355000	      3834	80002614	05170063	beq	x14,x17,80002654	 x14:0x3577258c x17:0xfffffe27
       38365000	      3835	80002618	0f66e793	ori	x15,x13,246	 x13:0x0000038e x15=0x000003fe
       38375000	      3836	8000261c	00344633	xor	x12,x8,x3	  x8:0xc0000001  x3:0x00000a64 x12=0xc0000a65
       38385000	      3837	80002620	41f78333	sub	x6,x15,x31	 x15:0x000003fe x31:0x80000000  x6=0x800003fe
       38395000	      3838	80002624	00388c63	beq	x17,x3,8000263c	 x17:0xfffffe27  x3:0x00000a64
       38405000	      3839	80002628	0798e693	ori	x13,x17,121	 x17:0xfffffe27 x13=0xfffffe7f
       38415000	      3840	8000262c	e9657e93	andi	x29,x10,-362	 x10:0x00000001 x29=0x00000000
       38425000	      3841	80002630	004bb3b3	sltu	x7,x23,x4	 x23:0xfffffff7  x4:0x35772589  x7=0x00000000
       38435000	      3842	80002634	00c044b3	xor	x9,x0,x12	  x0:0x00000000 x12:0xc0000a65  x9=0xc0000a65
       38445000	      3843	80002638	002d29b3	slt	x19,x26,x2	 x26:0x00000000  x2:0xc0000000 x19=0x00000000
       38455000	      3844	8000263c	01929c63	bne	x5,x25,80002654	  x5:0xffffffec x25:0xffe00000
       38465000	      3845	00000000	00000013	addi	x0,x0,0	  x0:0x00000000
       38475000	      3846	80002650	00000013	addi	x0,x0,0	  x0:0x00000000
       38485000	      3847	80002654	5e386313	ori	x6,x16,1507	 x16:0x00000001  x6=0x000005e3
       38495000	      3848	80002658	01783b33	sltu	x22,x16,x23	 x16:0x00000001 x23:0xfffffff7 x22=0x00000001
       38505000	      3849	8000265c	004e2d03	lw	x26,4(x28)	 x28:0x80009f40 x26=0x8000096c PA:0x80009f44
       38515000	      3850	80002660	40165993	srai	x19,x12,0x1	 x12:0xc0000a65 x19=0xe0000532
       38525000	      3851	80002664	e66e6913	ori	x18,x28,-410	 x28:0x80009f40 x18=0xffffff66
       38535000	      3852	80002668	00e83eb3	sltu	x29,x16,x14	 x16:0x00000001 x14:0x3577258c x29=0x00000001
       38545000	      3853	8000266c	ad5ec313	xori	x6,x29,-1323	 x29:0x00000001  x6=0xfffffad4
       38555000	      3854	80002670	034e0e13	addi	x28,x28,52	 x28:0x80009f40 x28=0x80009f74
       38565000	      3855	80002674	00614933	xor	x18,x2,x6	  x2:0xc0000000  x6:0xfffffad4 x18=0x3ffffad4
       38575000	      3856	80002678	0c82a193	slti	x3,x5,200	  x5:0xffffffec  x3=0x00000001
       38585000	      3857	8000267c	01355533	srl	x10,x10,x19	 x10:0x00000001 x19:0xe0000532 x10=0x00000000
       38595000	      3858	80002680	001d0713	addi	x14,x26,1	 x26:0x8000096c x14=0x8000096d
       38605000	      3859	80002684	00070767	jalr	x14,x14,0	 x14:0x8000096d x14=0x80002684
       38615000	      3860	00000000	00000013	addi	x0,x0,0	  x0:0x00000000
       38625000	      3861	8000096c	00000013	addi	x0,x0,0	  x0:0x00000000
       38635000	      3862	80000970	ffa00493	addi	x9,x0,-6	  x0:0x00000000  x9=0xfffffffa
       38645000	      3863	80000974	c8ef3893	sltiu	x17,x30,-882	 x30:0x7ffff941 x17=0x00000001
       38655000	      3864	80000978	01966eb3	or	x29,x12,x25	 x12:0xc0000a65 x25:0xffe00000 x29=0xffe00a65
       38665000	      3865	8000097c	42276113	ori	x2,x14,1058	 x14:0x80002684  x2=0x800026a6
       38675000	      3866	80000980	0124d833	srl	x16,x9,x18	  x9:0xfffffffa x18:0x3ffffad4 x16=0x00000fff
       38685000	      3867	80000984	00800b13	addi	x22,x0,8	  x0:0x00000000 x22=0x00000008
       38695000	      3868	80000988	12894f13	xori	x30,x18,296	 x18:0x3ffffad4 x30=0x3ffffbfc
       38705000	      3869	8000098c	00348493	addi	x9,x9,3	  x9:0xfffffffa  x9=0xfffffffd
       38715000	      3870	80000990	00000013	addi	x0,x0,0	  x0:0x00000000
       38725000	      3871	80000994	00000693	addi	x13,x0,0	  x0:0x00000000 x13=0x00000000
       38735000	      3872	80000998	419ed3b3	sra	x7,x29,x25	 x29:0xffe00a65 x25:0xffe00000  x7=0xffe00a65
       38745000	      3873	8000099c	bed4c513	xori	x10,x9,-1043	  x9:0xfffffffd x10=0x00000410
       38755000	      3874	800009a0	01200293	addi	x5,x0,18	  x0:0x00000000  x5=0x00000012
       38765000	      3875	800009a4	014900b3	add	x1,x18,x20	 x18:0x3ffffad4 x20:0x80009fc4  x1=0xc0009a98
       38775000	      3876	800009a8	006c3bb3	sltu	x23,x24,x6	 x24:0x00000011  x6:0xfffffad4 x23=0x00000001
       38785000	      3877	800009ac	cfb3f813	andi	x16,x7,-773	  x7:0xffe00a65 x16=0xffe00861
       38795000	      3878	800009b0	c403c013	xori	x0,x7,-960	  x7:0xffe00a65
       38805000	      3879	800009b4	40bc09b3	sub	x19,x24,x11	 x24:0x00000011 x11:0x00000001 x19=0x00000010
       38815000	      3880	800009b8	01cc1333	sll	x6,x24,x28	 x24:0x00000011 x28:0x80009f74  x6=0x01100000
       38825000	      3881	800009bc	01a8ad33	slt	x26,x17,x26	 x17:0x00000001 x26:0x8000096c x26=0x00000000
       38835000	      3882	800009c0	00768693	addi	x13,x13,7	 x13:0x00000000 x13=0x00000007
       38845000	      3883	800009c4	01e02633	slt	x12,x0,x30	  x0:0x00000000 x30:0x3ffffbfc x12=0x00000001
       38855000	      3884	800009c8	3e5f8393	addi	x7,x31,997	 x31:0x80000000  x7=0x800003e5
       38865000	      3885	800009cc	fc56cee3	blt	x13,x5,800009a8	 x13:0x00000007  x5:0x00000012
       38875000	      3886	00000000	00000013	addi	x0,x0,0	  x0:0x00000000
       38885000	      3887	800009a4	00000013	addi	x0,x0,0	  x0:0x00000000
       38895000	      3888	800009a8	006c3bb3	sltu	x23,x24,x6	 x24:0x00000011  x6:0x01100000 x23=0x00000001
       38905000	      3889	800009ac	cfb3f813	andi	x16,x7,-773	  x7:0x800003e5 x16=0x800000e1
       38915000	      3890	800009b0	c403c013	xori	x0,x7,-960	  x7:0x800003e5
       38925000	      3891	800009b4	40bc09b3	sub	x19,x24,x11	 x24:0x00000011 x11:0x00000001 x19=0x00000010
       38935000	      3892	800009b8	01cc1333	sll	x6,x24,x28	 x24:0x00000011 x28:0x80009f74  x6=0x01100000
       38945000	      3893	800009bc	01a8ad33	slt	x26,x17,x26	 x17:0x00000001 x26:0x00000000 x26=0x00000000
       38955000	      3894	800009c0	00768693	addi	x13,x13,7	 x13:0x00000007 x13=0x0000000e
       38965000	      3895	800009c4	01e02633	slt	x12,x0,x30	  x0:0x00000000 x30:0x3ffffbfc x12=0x00000001
       38975000	      3896	800009c8	3e5f8393	addi	x7,x31,997	 x31:0x80000000  x7=0x800003e5
       38985000	      3897	800009cc	fc56cee3	blt	x13,x5,800009a8	 x13:0x0000000e  x5:0x00000012
       38995000	      3898	00000000	00000013	addi	x0,x0,0	  x0:0x00000000
       39005000	      3899	800009a4	00000013	addi	x0,x0,0	  x0:0x00000000
       39015000	      3900	800009a8	006c3bb3	sltu	x23,x24,x6	 x24:0x00000011  x6:0x01100000 x23=0x00000001
       39025000	      3901	800009ac	cfb3f813	andi	x16,x7,-773	  x7:0x800003e5 x16=0x800000e1
       39035000	      3902	800009b0	c403c013	xori	x0,x7,-960	  x7:0x800003e5
       39045000	      3903	800009b4	40bc09b3	sub	x19,x24,x11	 x24:0x00000011 x11:0x00000001 x19=0x00000010
       39055000	      3904	800009b8	01cc1333	sll	x6,x24,x28	 x24:0x00000011 x28:0x80009f74  x6=0x01100000
       39065000	      3905	800009bc	01a8ad33	slt	x26,x17,x26	 x17:0x00000001 x26:0x00000000 x26=0x00000000
       39075000	      3906	800009c0	00768693	addi	x13,x13,7	 x13:0x0000000e x13=0x00000015
       39085000	      3907	800009c4	01e02633	slt	x12,x0,x30	  x0:0x00000000 x30:0x3ffffbfc x12=0x00000001
       39095000	      3908	800009c8	3e5f8393	addi	x7,x31,997	 x31:0x80000000  x7=0x800003e5
       39105000	      3909	800009cc	fc56cee3	blt	x13,x5,800009a8	 x13:0x00000015  x5:0x00000012
       39115000	      3910	800009d0	b217f113	andi	x2,x15,-1247	 x15:0x000003fe  x2=0x00000320
       39125000	      3911	800009d4	acb34113	xori	x2,x6,-1333	  x6:0x01100000  x2=0xfeeffacb
       39135000	      3912	800009d8	fb64e8e3	bltu	x9,x22,80000988	  x9:0xfffffffd x22:0x00000008
       39145000	      3913	800009dc	96000a93	addi	x21,x0,-1696	  x0:0x00000000 x21=0xfffff960
       39155000	      3914	800009e0	00800793	addi	x15,x0,8	  x0:0x00000000 x15=0x00000008
       39165000	      3915	800009e4	006430b3	sltu	x1,x8,x6	  x8:0xc0000001  x6:0x01100000  x1=0x00000000
       39175000	      3916	800009e8	00000013	addi	x0,x0,0	  x0:0x00000000
       39185000	      3917	800009ec	40630033	sub	x0,x6,x6	  x6:0x01100000  x6:0x01100000
       39195000	      3918	800009f0	0e558493	addi	x9,x11,229	 x11:0x00000001  x9=0x000000e6
       39205000	      3919	800009f4	00000013	addi	x0,x0,0	  x0:0x00000000
       39215000	      3920	800009f8	01c25db3	srl	x27,x4,x28	  x4:0x35772589 x28:0x80009f74 x27=0x00000357
       39225000	      3921	800009fc	009c6cb3	or	x25,x24,x9	 x24:0x00000011  x9:0x000000e6 x25=0x000000f7
       39235000	      3922	80000a00	d4b5cf13	xori	x30,x11,-693	 x11:0x00000001 x30=0xfffffd4a
       39245000	      3923	80000a04	0083abb3	slt	x23,x7,x8	  x7:0x800003e5  x8:0xc0000001 x23=0x00000001
       39255000	      3924	80000a08	01100993	addi	x19,x0,17	  x0:0x00000000 x19=0x00000011
       39265000	      3925	80000a0c	0db7c337	lui	x6,0xdb7c	  x6=0x0db7c000
       39275000	      3926	80000a10	7b056c13	ori	x24,x10,1968	 x10:0x00000410 x24=0x000007b0
       39285000	      3927	80000a14	00000013	addi	x0,x0,0	  x0:0x00000000
       39295000	      3928	80000a18	00978793	addi	x15,x15,9	 x15:0x00000008 x15=0x00000011
       39305000	      3929	80000a1c	50eae313	ori	x6,x21,1294	 x21:0xfffff960  x6=0xfffffd6e
       39315000	      3930	80000a20	019e1413	slli	x8,x28,0x19	 x28:0x80009f74  x8=0xe8000000
       39325000	      3931	80000a24	01ce1593	slli	x11,x28,0x1c	 x28:0x80009f74 x11=0x40000000
       39335000	      3932	80000a28	ff3784e3	beq	x15,x19,80000a10	 x15:0x00000011 x19:0x00000011
       39345000	      3933	00000000	00000013	addi	x0,x0,0	  x0:0x00000000
       39355000	      3934	80000a0c	00000013	addi	x0,x0,0	  x0:0x00000000
       39365000	      3935	80000a10	7b056c13	ori	x24,x10,1968	 x10:0x00000410 x24=0x000007b0
       39375000	      3936	80000a14	00000013	addi	x0,x0,0	  x0:0x00000000
       39385000	      3937	80000a18	00978793	addi	x15,x15,9	 x15:0x00000011 x15=0x0000001a
       39395000	      3938	80000a1c	50eae313	ori	x6,x21,1294	 x21:0xfffff960  x6=0xfffffd6e
       39405000	      3939	80000a20	019e1413	slli	x8,x28,0x19	 x28:0x80009f74  x8=0xe8000000
       39415000	      3940	80000a24	01ce1593	slli	x11,x28,0x1c	 x28:0x80009f74 x11=0x40000000
       39425000	      3941	80000a28	ff3784e3	beq	x15,x19,80000a10	 x15:0x0000001a x19:0x00000011
       39435000	      3942	80000a2c	419e5613	srai	x12,x28,0x19	 x28:0x80009f74 x12=0xffffffc0
       39445000	      3943	80000a30	00200793	addi	x15,x0,2	  x0:0x00000000 x15=0x00000002
       39455000	      3944	80000a34	48c3dcb7	lui	x25,0x48c3d	 x25=0x48c3d000
       39465000	      3945	80000a38	ef6adc97	auipc	x25,0xef6ad	 x25=0x6f6ada34
       39475000	      3946	80000a3c	ffe00693	addi	x13,x0,-2	  x0:0x00000000 x13=0xfffffffe
       39485000	      3947	80000a40	01f86733	or	x14,x16,x31	 x16:0x800000e1 x31:0x80000000 x14=0x800000e1
       39495000	      3948	80000a44	deda0493	addi	x9,x20,-531	 x20:0x80009fc4  x9=0x80009db1
       39505000	      3949	80000a48	01cc5593	srli	x11,x24,0x1c	 x24:0x000007b0 x11=0x00000000
       39515000	      3950	80000a4c	41c9d8b3	sra	x17,x19,x28	 x19:0x00000011 x28:0x80009f74 x17=0x00000000
       39525000	      3951	80000a50	0114e433	or	x8,x9,x17	  x9:0x80009db1 x17:0x00000000  x8=0x80009db1
       39535000	      3952	80000a54	409c5c13	srai	x24,x24,0x9	 x24:0x000007b0 x24=0x00000003
       39545000	      3953	80000a58	e99acd93	xori	x27,x21,-359	 x21:0xfffff960 x27=0x000007f9
       39555000	      3954	80000a5c	ffc78793	addi	x15,x15,-4	 x15:0x00000002 x15=0xfffffffe
       39565000	      3955	80000a60	ffd00b93	addi	x23,x0,-3	  x0:0x00000000 x23=0xfffffffd
       39575000	      3956	80000a64	f2414893	xori	x17,x2,-220	  x2:0xfeeffacb x17=0x011005ef
       39585000	      3957	80000a68	00700d13	addi	x26,x0,7	  x0:0x00000000 x26=0x00000007
       39595000	      3958	80000a6c	0196cf33	xor	x30,x13,x25	 x13:0xfffffffe x25:0x6f6ada34 x30=0x909525ca
       39605000	      3959	80000a70	8263e613	ori	x12,x7,-2010	  x7:0x800003e5 x12=0xfffffbe7
       39615000	      3960	80000a74	002b8b93	addi	x23,x23,2	 x23:0xfffffffd x23=0xffffffff
       39625000	      3961	80000a78	1849aa93	slti	x21,x19,388	 x19:0x00000011 x21=0x00000001
       39635000	      3962	80000a7c	ffabe8e3	bltu	x23,x26,80000a6c	 x23:0xffffffff x26:0x00000007
       39645000	      3963	80000a80	00543ab3	sltu	x21,x8,x5	  x8:0x80009db1  x5:0x00000012 x21=0x00000000
       39655000	      3964	80000a84	10ffe613	ori	x12,x31,271	 x31:0x80000000 x12=0x8000010f
       39665000	      3965	80000a88	00b86b33	or	x22,x16,x11	 x16:0x800000e1 x11:0x00000000 x22=0x800000e1
       39675000	      3966	80000a8c	00ff9033	sll	x0,x31,x15	 x31:0x80000000 x15:0xfffffffe
       39685000	      3967	80000a90	fad788e3	beq	x15,x13,80000a40	 x15:0xfffffffe x13:0xfffffffe
       39695000	      3968	00000000	00000013	addi	x0,x0,0	  x0:0x00000000
       39705000	      3969	80000a3c	00000013	addi	x0,x0,0	  x0:0x00000000
       39715000	      3970	80000a40	01f86733	or	x14,x16,x31	 x16:0x800000e1 x31:0x80000000 x14=0x800000e1
       39725000	      3971	80000a44	deda0493	addi	x9,x20,-531	 x20:0x80009fc4  x9=0x80009db1
       39735000	      3972	80000a48	01cc5593	srli	x11,x24,0x1c	 x24:0x00000003 x11=0x00000000
       39745000	      3973	80000a4c	41c9d8b3	sra	x17,x19,x28	 x19:0x00000011 x28:0x80009f74 x17=0x00000000
       39755000	      3974	80000a50	0114e433	or	x8,x9,x17	  x9:0x80009db1 x17:0x00000000  x8=0x80009db1
       39765000	      3975	80000a54	409c5c13	srai	x24,x24,0x9	 x24:0x00000003 x24=0x00000000
       39775000	      3976	80000a58	e99acd93	xori	x27,x21,-359	 x21:0x00000000 x27=0xfffffe99
       39785000	      3977	80000a5c	ffc78793	addi	x15,x15,-4	 x15:0xfffffffe x15=0xfffffffa
       39795000	      3978	80000a60	ffd00b93	addi	x23,x0,-3	  x0:0x00000000 x23=0xfffffffd
       39805000	      3979	80000a64	f2414893	xori	x17,x2,-220	  x2:0xfeeffacb x17=0x011005ef
       39815000	      3980	80000a68	00700d13	addi	x26,x0,7	  x0:0x00000000 x26=0x00000007
       39825000	      3981	80000a6c	0196cf33	xor	x30,x13,x25	 x13:0xfffffffe x25:0x6f6ada34 x30=0x909525ca
       39835000	      3982	80000a70	8263e613	ori	x12,x7,-2010	  x7:0x800003e5 x12=0xfffffbe7
       39845000	      3983	80000a74	002b8b93	addi	x23,x23,2	 x23:0xfffffffd x23=0xffffffff
       39855000	      3984	80000a78	1849aa93	slti	x21,x19,388	 x19:0x00000011 x21=0x00000001
       39865000	      3985	80000a7c	ffabe8e3	bltu	x23,x26,80000a6c	 x23:0xffffffff x26:0x00000007
       39875000	      3986	80000a80	00543ab3	sltu	x21,x8,x5	  x8:0x80009db1  x5:0x00000012 x21=0x00000000
       39885000	      3987	80000a84	10ffe613	ori	x12,x31,271	 x31:0x80000000 x12=0x8000010f
       39895000	      3988	80000a88	00b86b33	or	x22,x16,x11	 x16:0x800000e1 x11:0x00000000 x22=0x800000e1
       39905000	      3989	80000a8c	00ff9033	sll	x0,x31,x15	 x31:0x80000000 x15:0xfffffffa
       39915000	      3990	80000a90	fad788e3	beq	x15,x13,80000a40	 x15:0xfffffffa x13:0xfffffffe
       39925000	      3991	80000a94	00c221b3	slt	x3,x4,x12	  x4:0x35772589 x12:0x8000010f  x3=0x00000000
       39935000	      3992	80000a98	00100c93	addi	x25,x0,1	  x0:0x00000000 x25=0x00000001
       39945000	      3993	80000a9c	00600993	addi	x19,x0,6	  x0:0x00000000 x19=0x00000006
       39955000	      3994	80000aa0	00fd24b3	slt	x9,x26,x15	 x26:0x00000007 x15:0xfffffffa  x9=0x00000000
       39965000	      3995	80000aa4	005c8c93	addi	x25,x25,5	 x25:0x00000001 x25=0x00000006
       39975000	      3996	80000aa8	b2e6bf13	sltiu	x30,x13,-1234	 x13:0xfffffffe x30=0x00000000
       39985000	      3997	80000aac	00600e93	addi	x29,x0,6	  x0:0x00000000 x29=0x00000006
       39995000	      3998	80000ab0	01100293	addi	x5,x0,17	  x0:0x00000000  x5=0x00000011
       40005000	      3999	80000ab4	01bfe533	or	x10,x31,x27	 x31:0x80000000 x27:0xfffffe99 x10=0xfffffe99
       40015000	      4000	80000ab8	008e8e93	addi	x29,x29,8	 x29:0x00000006 x29=0x0000000e
       40025000	      4001	80000abc	fe5ecce3	blt	x29,x5,80000ab4	 x29:0x0000000e  x5:0x00000011
       40035000	      4002	00000000	00000013	addi	x0,x0,0	  x0:0x00000000
       40045000	      4003	80000ab0	00000013	addi	x0,x0,0	  x0:0x00000000
       40055000	      4004	80000ab4	01bfe533	or	x10,x31,x27	 x31:0x80000000 x27:0xfffffe99 x10=0xfffffe99
       40065000	      4005	80000ab8	008e8e93	addi	x29,x29,8	 x29:0x0000000e x29=0x00000016
       40075000	      4006	80000abc	fe5ecce3	blt	x29,x5,80000ab4	 x29:0x00000016  x5:0x00000011
       40085000	      4007	80000ac0	013de333	or	x6,x27,x19	 x27:0xfffffe99 x19:0x00000006  x6=0xfffffe9f
       40095000	      4008	80000ac4	fd3c9ee3	bne	x25,x19,80000aa0	 x25:0x00000006 x19:0x00000006
       40105000	      4009	80000ac8	937e2813	slti	x16,x28,-1737	 x28:0x80009f74 x16=0x00000001
       40115000	      4010	80000acc	00900313	addi	x6,x0,9	  x0:0x00000000  x6=0x00000009
       40125000	      4011	80000ad0	001327b3	slt	x15,x6,x1	  x6:0x00000009  x1:0x00000000 x15=0x00000000
       40135000	      4012	80000ad4	c3dc15b7	lui	x11,0xc3dc1	 x11=0xc3dc1000
       40145000	      4013	80000ad8	41225133	sra	x2,x4,x18	  x4:0x35772589 x18:0x3ffffad4  x2=0x00000357
       40155000	      4014	80000adc	2e9c4f13	xori	x30,x24,745	 x24:0x00000000 x30=0x000002e9
       40165000	      4015	80000ae0	012384b3	add	x9,x7,x18	  x7:0x800003e5 x18:0x3ffffad4  x9=0xbffffeb9
       40175000	      4016	80000ae4	f0b86193	ori	x3,x16,-245	 x16:0x00000001  x3=0xffffff0b
       40185000	      4017	80000ae8	00700d93	addi	x27,x0,7	  x0:0x00000000 x27=0x00000007
       40195000	      4018	80000aec	40165133	sra	x2,x12,x1	 x12:0x8000010f  x1:0x00000000  x2=0x8000010f
       40205000	      4019	80000af0	00000013	addi	x0,x0,0	  x0:0x00000000
       40215000	      4020	80000af4	322f8013	addi	x0,x31,802	 x31:0x80000000
       40225000	      4021	80000af8	01691b93	slli	x23,x18,0x16	 x18:0x3ffffad4 x23=0xb5000000
       40235000	      4022	80000afc	c23cc193	xori	x3,x25,-989	 x25:0x00000006  x3=0xfffffc25
       40245000	      4023	80000b00	3ceb3393	sltiu	x7,x22,974	 x22:0x800000e1  x7=0x00000000
       40255000	      4024	80000b04	ffd30313	addi	x6,x6,-3	  x6:0x00000009  x6=0x00000006
       40265000	      4025	80000b08	e25e3c93	sltiu	x25,x28,-475	 x28:0x80009f74 x25=0x00000001
       40275000	      4026	80000b0c	ff800713	addi	x14,x0,-8	  x0:0x00000000 x14=0xfffffff8
       40285000	      4027	80000b10	496ca593	slti	x11,x25,1174	 x25:0x00000001 x11=0x00000001
       40295000	      4028	80000b14	00900693	addi	x13,x0,9	  x0:0x00000000 x13=0x00000009
       40305000	      4029	80000b18	59e88b93	addi	x23,x17,1438	 x17:0x011005ef x23=0x01100b8d
       40315000	      4030	80000b1c	01276233	or	x4,x14,x18	 x14:0xfffffff8 x18:0x3ffffad4  x4=0xfffffffc
       40325000	      4031	80000b20	3cbd2a93	slti	x21,x26,971	 x26:0x00000007 x21=0x00000001
       40335000	      4032	80000b24	00000013	addi	x0,x0,0	  x0:0x00000000
       40345000	      4033	80000b28	00170713	addi	x14,x14,1	 x14:0xfffffff8 x14=0xfffffff9
       40355000	      4034	80000b2c	4a2a7d13	andi	x26,x20,1186	 x20:0x80009fc4 x26=0x00000480
       40365000	      4035	80000b30	fed706e3	beq	x14,x13,80000b1c	 x14:0xfffffff9 x13:0x00000009
       40375000	      4036	80000b34	3fbef213	andi	x4,x29,1019	 x29:0x00000016  x4=0x00000012
       40385000	      4037	80000b38	6ecd8b37	lui	x22,0x6ecd8	 x22=0x6ecd8000
       40395000	      4038	80000b3c	fbb37ce3	bgeu	x6,x27,80000af4	  x6:0x00000006 x27:0x00000007
       40405000	      4039	80000b40	013d9f33	sll	x30,x27,x19	 x27:0x00000007 x19:0x00000006 x30=0x000001c0
       40415000	      4040	80000b44	ffd00713	addi	x14,x0,-3	  x0:0x00000000 x14=0xfffffffd
       40425000	      4041	80000b48	002051b3	srl	x3,x0,x2	  x0:0x00000000  x2:0x8000010f  x3=0x00000000
       40435000	      4042	80000b4c	22901637	lui	x12,0x22901	 x12=0x22901000
       40445000	      4043	80000b50	00a00f13	addi	x30,x0,10	  x0:0x00000000 x30=0x0000000a
       40455000	      4044	80000b54	00398db3	add	x27,x19,x3	 x19:0x00000006  x3:0x00000000 x27=0x00000006
       40465000	      4045	80000b58	412ed1b3	sra	x3,x29,x18	 x29:0x00000016 x18:0x3ffffad4  x3=0x00000000
       40475000	      4046	80000b5c	40985813	srai	x16,x16,0x9	 x16:0x00000001 x16=0x00000000
       40485000	      4047	80000b60	5f7c4d13	xori	x26,x24,1527	 x24:0x00000000 x26=0x000005f7
       40495000	      4048	80000b64	01356633	or	x12,x10,x19	 x10:0xfffffe99 x19:0x00000006 x12=0xfffffe9f
       40505000	      4049	80000b68	008d3db3	sltu	x27,x26,x8	 x26:0x000005f7  x8:0x80009db1 x27=0x00000001
       40515000	      4050	80000b6c	4101d6b3	sra	x13,x3,x16	  x3:0x00000000 x16:0x00000000 x13=0x00000000
       40525000	      4051	80000b70	ba376993	ori	x19,x14,-1117	 x14:0xfffffffd x19=0xffffffff
       40535000	      4052	80000b74	1a4797b7	lui	x15,0x1a479	 x15=0x1a479000
       40545000	      4053	80000b78	00870713	addi	x14,x14,8	 x14:0xfffffffd x14=0x00000005
       40555000	      4054	80000b7c	ffa00093	addi	x1,x0,-6	  x0:0x00000000  x1=0xfffffffa
       40565000	      4055	80000b80	8deba513	slti	x10,x23,-1826	 x23:0x01100b8d x10=0x00000000
       40575000	      4056	80000b84	007864b3	or	x9,x16,x7	 x16:0x00000000  x7:0x00000000  x9=0x00000000
       40585000	      4057	80000b88	01e35e93	srli	x29,x6,0x1e	  x6:0x00000006 x29=0x00000000
       40595000	      4058	80000b8c	00300893	addi	x17,x0,3	  x0:0x00000000 x17=0x00000003
       40605000	      4059	80000b90	018feab3	or	x21,x31,x24	 x31:0x80000000 x24:0x00000000 x21=0x80000000
       40615000	      4060	80000b94	1b574d13	xori	x26,x14,437	 x14:0x00000005 x26=0x000001b0
       40625000	      4061	80000b98	8e455a97	auipc	x21,0x8e455	 x21=0x0e455b94
       40635000	      4062	80000b9c	00908093	addi	x1,x1,9	  x1:0xfffffffa  x1=0x00000003
       40645000	      4063	80000ba0	00523db3	sltu	x27,x4,x5	  x4:0x00000012  x5:0x00000011 x27=0x00000000
       40655000	      4064	80000ba4	ff1098e3	bne	x1,x17,80000b94	  x1:0x00000003 x17:0x00000003
       40665000	      4065	80000ba8	00000013	addi	x0,x0,0	  x0:0x00000000
       40675000	      4066	80000bac	d41d6293	ori	x5,x26,-703	 x26:0x000001b0  x5=0xfffffdf1
       40685000	      4067	80000bb0	a5323993	sltiu	x19,x4,-1453	  x4:0x00000012 x19=0x00000001
       40695000	      4068	80000bb4	5d4ac693	xori	x13,x21,1492	 x21:0x0e455b94 x13=0x0e455e40
       40705000	      4069	80000bb8	011bf433	and	x8,x23,x17	 x23:0x01100b8d x17:0x00000003  x8=0x00000001
       40715000	      4070	80000bbc	2ecb0d93	addi	x27,x22,748	 x22:0x6ecd8000 x27=0x6ecd82ec
       40725000	      4071	80000bc0	2ebe2313	slti	x6,x28,747	 x28:0x80009f74  x6=0x00000001
       40735000	      4072	80000bc4	01c29333	sll	x6,x5,x28	  x5:0xfffffdf1 x28:0x80009f74  x6=0xdf100000
       40745000	      4073	80000bc8	f9e76ce3	bltu	x14,x30,80000b60	 x14:0x00000005 x30:0x0000000a
       40755000	      4074	00000000	00000013	addi	x0,x0,0	  x0:0x00000000
       40765000	      4075	80000b5c	00000013	addi	x0,x0,0	  x0:0x00000000
       40775000	      4076	80000b60	5f7c4d13	xori	x26,x24,1527	 x24:0x00000000 x26=0x000005f7
       40785000	      4077	80000b64	01356633	or	x12,x10,x19	 x10:0x00000000 x19:0x00000001 x12=0x00000001
       40795000	      4078	80000b68	008d3db3	sltu	x27,x26,x8	 x26:0x000005f7  x8:0x00000001 x27=0x00000000
       40805000	      4079	80000b6c	4101d6b3	sra	x13,x3,x16	  x3:0x00000000 x16:0x00000000 x13=0x00000000
       40815000	      4080	80000b70	ba376993	ori	x19,x14,-1117	 x14:0x00000005 x19=0xfffffba7
       40825000	      4081	80000b74	1a4797b7	lui	x15,0x1a479	 x15=0x1a479000
       40835000	      4082	80000b78	00870713	addi	x14,x14,8	 x14:0x00000005 x14=0x0000000d
       40845000	      4083	80000b7c	ffa00093	addi	x1,x0,-6	  x0:0x00000000  x1=0xfffffffa
       40855000	      4084	80000b80	8deba513	slti	x10,x23,-1826	 x23:0x01100b8d x10=0x00000000
       40865000	      4085	80000b84	007864b3	or	x9,x16,x7	 x16:0x00000000  x7:0x00000000  x9=0x00000000
       40875000	      4086	80000b88	01e35e93	srli	x29,x6,0x1e	  x6:0xdf100000 x29=0x00000003
       40885000	      4087	80000b8c	00300893	addi	x17,x0,3	  x0:0x00000000 x17=0x00000003
       40895000	      4088	80000b90	018feab3	or	x21,x31,x24	 x31:0x80000000 x24:0x00000000 x21=0x80000000
       40905000	      4089	80000b94	1b574d13	xori	x26,x14,437	 x14:0x0000000d x26=0x000001b8
       40915000	      4090	80000b98	8e455a97	auipc	x21,0x8e455	 x21=0x0e455b94
       40925000	      4091	80000b9c	00908093	addi	x1,x1,9	  x1:0xfffffffa  x1=0x00000003
       40935000	      4092	80000ba0	00523db3	sltu	x27,x4,x5	  x4:0x00000012  x5:0xfffffdf1 x27=0x00000001
       40945000	      4093	80000ba4	ff1098e3	bne	x1,x17,80000b94	  x1:0x00000003 x17:0x00000003
       40955000	      4094	80000ba8	00000013	addi	x0,x0,0	  x0:0x00000000
       40965000	      4095	80000bac	d41d6293	ori	x5,x26,-703	 x26:0x000001b8  x5=0xfffffdf9
       40975000	      4096	80000bb0	a5323993	sltiu	x19,x4,-1453	  x4:0x00000012 x19=0x00000001
       40985000	      4097	80000bb4	5d4ac693	xori	x13,x21,1492	 x21:0x0e455b94 x13=0x0e455e40
       40995000	      4098	80000bb8	011bf433	and	x8,x23,x17	 x23:0x01100b8d x17:0x00000003  x8=0x00000001
       41005000	      4099	80000bbc	2ecb0d93	addi	x27,x22,748	 x22:0x6ecd8000 x27=0x6ecd82ec
       41015000	      4100	80000bc0	2ebe2313	slti	x6,x28,747	 x28:0x80009f74  x6=0x00000001
       41025000	      4101	80000bc4	01c29333	sll	x6,x5,x28	  x5:0xfffffdf9 x28:0x80009f74  x6=0xdf900000
       41035000	      4102	80000bc8	f9e76ce3	bltu	x14,x30,80000b60	 x14:0x0000000d x30:0x0000000a
       41045000	      4103	80000bcc	41a007b3	sub	x15,x0,x26	  x0:0x00000000 x26:0x000001b8 x15=0xfffffe48
       41055000	      4104	80000bd0	00400893	addi	x17,x0,4	  x0:0x00000000 x17=0x00000004
       41065000	      4105	80000bd4	01e590b3	sll	x1,x11,x30	 x11:0x00000001 x30:0x0000000a  x1=0x00000400
       41075000	      4106	80000bd8	4138d693	srai	x13,x17,0x13	 x17:0x00000004 x13=0x00000000
       41085000	      4107	80000bdc	00900d93	addi	x27,x0,9	  x0:0x00000000 x27=0x00000009
       41095000	      4108	80000be0	0057c933	xor	x18,x15,x5	 x15:0xfffffe48  x5:0xfffffdf9 x18=0x000003b1
       41105000	      4109	80000be4	22ea4213	xori	x4,x20,558	 x20:0x80009fc4  x4=0x80009dea
       41115000	      4110	80000be8	00588893	addi	x17,x17,5	 x17:0x00000004 x17=0x00000009
       41125000	      4111	80000bec	e14eb713	sltiu	x14,x29,-492	 x29:0x00000003 x14=0x00000001
       41135000	      4112	80000bf0	40df0833	sub	x16,x30,x13	 x30:0x0000000a x13:0x00000000 x16=0x0000000a
       41145000	      4113	80000bf4	ffb888e3	beq	x17,x27,80000be4	 x17:0x00000009 x27:0x00000009
       41155000	      4114	00000000	00000013	addi	x0,x0,0	  x0:0x00000000
       41165000	      4115	80000be0	00000013	addi	x0,x0,0	  x0:0x00000000
       41175000	      4116	80000be4	22ea4213	xori	x4,x20,558	 x20:0x80009fc4  x4=0x80009dea
       41185000	      4117	80000be8	00588893	addi	x17,x17,5	 x17:0x00000009 x17=0x0000000e
       41195000	      4118	80000bec	e14eb713	sltiu	x14,x29,-492	 x29:0x00000003 x14=0x00000001
       41205000	      4119	80000bf0	40df0833	sub	x16,x30,x13	 x30:0x0000000a x13:0x00000000 x16=0x0000000a
       41215000	      4120	80000bf4	ffb888e3	beq	x17,x27,80000be4	 x17:0x0000000e x27:0x00000009
       41225000	      4121	80000bf8	00000013	addi	x0,x0,0	  x0:0x00000000
       41235000	      4122	80000bfc	ffb00713	addi	x14,x0,-5	  x0:0x00000000 x14=0xfffffffb
       41245000	      4123	80000c00	40188333	sub	x6,x17,x1	 x17:0x0000000e  x1:0x00000400  x6=0xfffffc0e
       41255000	      4124	80000c04	075c3813	sltiu	x16,x24,117	 x24:0x00000000 x16=0x00000001
       41265000	      4125	80000c08	ff800913	addi	x18,x0,-8	  x0:0x00000000 x18=0xfffffff8
       41275000	      4126	80000c0c	01ce61b3	or	x3,x28,x28	 x28:0x80009f74 x28:0x80009f74  x3=0x80009f74
       41285000	      4127	80000c10	40468cb3	sub	x25,x13,x4	 x13:0x00000000  x4:0x80009dea x25=0x7fff6216
       41295000	      4128	80000c14	ffc70713	addi	x14,x14,-4	 x14:0xfffffffb x14=0xfffffff7
       41305000	      4129	80000c18	0013b1b3	sltu	x3,x7,x1	  x7:0x00000000  x1:0x00000400  x3=0x00000001
       41315000	      4130	80000c1c	013b0ab3	add	x21,x22,x19	 x22:0x6ecd8000 x19:0x00000001 x21=0x6ecd8001
       41325000	      4131	80000c20	00200413	addi	x8,x0,2	  x0:0x00000000  x8=0x00000002
       41335000	      4132	80000c24	00bc9533	sll	x10,x25,x11	 x25:0x7fff6216 x11:0x00000001 x10=0xfffec42c
       41345000	      4133	80000c28	00c00d93	addi	x27,x0,12	  x0:0x00000000 x27=0x0000000c
       41355000	      4134	80000c2c	00f26033	or	x0,x4,x15	  x4:0x80009dea x15:0xfffffe48
       41365000	      4135	80000c30	00000013	addi	x0,x0,0	  x0:0x00000000
       41375000	      4136	80000c34	00a1f6b3	and	x13,x3,x10	  x3:0x00000001 x10:0xfffec42c x13=0x00000000
       41385000	      4137	80000c38	019a44b3	xor	x9,x20,x25	 x20:0x80009fc4 x25:0x7fff6216  x9=0xfffffdd2
       41395000	      4138	80000c3c	413183b3	sub	x7,x3,x19	  x3:0x00000001 x19:0x00000001  x7=0x00000000
       41405000	      4139	80000c40	00ff5d13	srli	x26,x30,0xf	 x30:0x0000000a x26=0x00000000
       41415000	      4140	80000c44	0182a233	slt	x4,x5,x24	  x5:0xfffffdf9 x24:0x00000000  x4=0x00000001
       41425000	      4141	80000c48	00440413	addi	x8,x8,4	  x8:0x00000002  x8=0x00000006
       41435000	      4142	80000c4c	92c56993	ori	x19,x10,-1748	 x10:0xfffec42c x19=0xfffffd2c
       41445000	      4143	80000c50	ffb444e3	blt	x8,x27,80000c38	  x8:0x00000006 x27:0x0000000c
       41455000	      4144	00000000	00000013	addi	x0,x0,0	  x0:0x00000000
       41465000	      4145	80000c34	00000013	addi	x0,x0,0	  x0:0x00000000
       41475000	      4146	80000c38	019a44b3	xor	x9,x20,x25	 x20:0x80009fc4 x25:0x7fff6216  x9=0xfffffdd2
       41485000	      4147	80000c3c	413183b3	sub	x7,x3,x19	  x3:0x00000001 x19:0xfffffd2c  x7=0x000002d5
       41495000	      4148	80000c40	00ff5d13	srli	x26,x30,0xf	 x30:0x0000000a x26=0x00000000
       41505000	      4149	80000c44	0182a233	slt	x4,x5,x24	  x5:0xfffffdf9 x24:0x00000000  x4=0x00000001
       41515000	      4150	80000c48	00440413	addi	x8,x8,4	  x8:0x00000006  x8=0x0000000a
       41525000	      4151	80000c4c	92c56993	ori	x19,x10,-1748	 x10:0xfffec42c x19=0xfffffd2c
       41535000	      4152	80000c50	ffb444e3	blt	x8,x27,80000c38	  x8:0x0000000a x27:0x0000000c
       41545000	      4153	00000000	00000013	addi	x0,x0,0	  x0:0x00000000
       41555000	      4154	80000c34	00000013	addi	x0,x0,0	  x0:0x00000000
       41565000	      4155	80000c38	019a44b3	xor	x9,x20,x25	 x20:0x80009fc4 x25:0x7fff6216  x9=0xfffffdd2
       41575000	      4156	80000c3c	413183b3	sub	x7,x3,x19	  x3:0x00000001 x19:0xfffffd2c  x7=0x000002d5
       41585000	      4157	80000c40	00ff5d13	srli	x26,x30,0xf	 x30:0x0000000a x26=0x00000000
       41595000	      4158	80000c44	0182a233	slt	x4,x5,x24	  x5:0xfffffdf9 x24:0x00000000  x4=0x00000001
       41605000	      4159	80000c48	00440413	addi	x8,x8,4	  x8:0x0000000a  x8=0x0000000e
       41615000	      4160	80000c4c	92c56993	ori	x19,x10,-1748	 x10:0xfffec42c x19=0xfffffd2c
       41625000	      4161	80000c50	ffb444e3	blt	x8,x27,80000c38	  x8:0x0000000e x27:0x0000000c
       41635000	      4162	80000c54	00a14333	xor	x6,x2,x10	  x2:0x8000010f x10:0xfffec42c  x6=0x7ffec523
       41645000	      4163	80000c58	fb275ae3	bge	x14,x18,80000c0c	 x14:0xfffffff7 x18:0xfffffff8
       41655000	      4164	80000c5c	36c13297	auipc	x5,0x36c13	  x5=0xb6c13c58
       41665000	      4165	80000c60	00000b13	addi	x22,x0,0	  x0:0x00000000 x22=0x00000000
       41675000	      4166	80000c64	01251013	slli	x0,x10,0x12	 x10:0xfffec42c
       41685000	      4167	80000c68	39803d37	lui	x26,0x39803	 x26=0x39803000
       41695000	      4168	80000c6c	40a8d713	srai	x14,x17,0xa	 x17:0x0000000e x14=0x00000000
       41705000	      4169	80000c70	af118e93	addi	x29,x3,-1295	  x3:0x00000001 x29=0xfffffaf2
       41715000	      4170	80000c74	00100313	addi	x6,x0,1	  x0:0x00000000  x6=0x00000001
       41725000	      4171	80000c78	00bed413	srli	x8,x29,0xb	 x29:0xfffffaf2  x8=0x001fffff
       41735000	      4172	80000c7c	019999b3	sll	x19,x19,x25	 x19:0xfffffd2c x25:0x7fff6216 x19=0x4b000000
       41745000	      4173	80000c80	4e593437	lui	x8,0x4e593	  x8=0x4e593000
       41755000	      4174	80000c84	009b0b13	addi	x22,x22,9	 x22:0x00000000 x22=0x00000009
       41765000	      4175	80000c88	a0a03693	sltiu	x13,x0,-1526	  x0:0x00000000 x13=0x00000001
       41775000	      4176	80000c8c	ffb00b93	addi	x23,x0,-5	  x0:0x00000000 x23=0xfffffffb
       41785000	      4177	80000c90	fee00093	addi	x1,x0,-18	  x0:0x00000000  x1=0xffffffee
       41795000	      4178	80000c94	00b7feb3	and	x29,x15,x11	 x15:0xfffffe48 x11:0x00000001 x29=0x00000000
       41805000	      4179	80000c98	012aa4b3	slt	x9,x21,x18	 x21:0x6ecd8001 x18:0xfffffff8  x9=0x00000000
       41815000	      4180	80000c9c	ff7b8b93	addi	x23,x23,-9	 x23:0xfffffffb x23=0xfffffff2
       41825000	      4181	80000ca0	41362393	slti	x7,x12,1043	 x12:0x00000001  x7=0x00000001
       41835000	      4182	80000ca4	fe1bdae3	bge	x23,x1,80000c98	 x23:0xfffffff2  x1:0xffffffee
       41845000	      4183	00000000	00000013	addi	x0,x0,0	  x0:0x00000000
       41855000	      4184	80000c94	00000013	addi	x0,x0,0	  x0:0x00000000
       41865000	      4185	80000c98	012aa4b3	slt	x9,x21,x18	 x21:0x6ecd8001 x18:0xfffffff8  x9=0x00000000
       41875000	      4186	80000c9c	ff7b8b93	addi	x23,x23,-9	 x23:0xfffffff2 x23=0xffffffe9
       41885000	      4187	80000ca0	41362393	slti	x7,x12,1043	 x12:0x00000001  x7=0x00000001
       41895000	      4188	80000ca4	fe1bdae3	bge	x23,x1,80000c98	 x23:0xffffffe9  x1:0xffffffee
       41905000	      4189	80000ca8	016cd193	srli	x3,x25,0x16	 x25:0x7fff6216  x3=0x000001ff
       41915000	      4190	80000cac	a8782a93	slti	x21,x16,-1401	 x16:0x00000001 x21=0x00000000
       41925000	      4191	80000cb0	b7783393	sltiu	x7,x16,-1161	 x16:0x00000001  x7=0x00000001
       41935000	      4192	80000cb4	fc6b46e3	blt	x22,x6,80000c80	 x22:0x00000009  x6:0x00000001
       41945000	      4193	80000cb8	00000013	addi	x0,x0,0	  x0:0x00000000
       41955000	      4194	80000cbc	ffb00413	addi	x8,x0,-5	  x0:0x00000000  x8=0xfffffffb
       41965000	      4195	80000cc0	00d00713	addi	x14,x0,13	  x0:0x00000000 x14=0x0000000d
       41975000	      4196	80000cc4	00000013	addi	x0,x0,0	  x0:0x00000000
       41985000	      4197	80000cc8	b540ab93	slti	x23,x1,-1196	  x1:0xffffffee x23=0x00000000
       41995000	      4198	80000ccc	00966bb3	or	x23,x12,x9	 x12:0x00000001  x9:0x00000000 x23=0x00000001
       42005000	      4199	80000cd0	00540413	addi	x8,x8,5	  x8:0xfffffffb  x8=0x00000000
       42015000	      4200	80000cd4	017b3133	sltu	x2,x22,x23	 x22:0x00000009 x23:0x00000001  x2=0x00000000
       42025000	      4201	80000cd8	01b21913	slli	x18,x4,0x1b	  x4:0x00000001 x18=0x08000000
       42035000	      4202	80000cdc	1b1e7613	andi	x12,x28,433	 x28:0x80009f74 x12=0x00000130
       42045000	      4203	80000ce0	fee464e3	bltu	x8,x14,80000cc8	  x8:0x00000000 x14:0x0000000d
       42055000	      4204	00000000	00000013	addi	x0,x0,0	  x0:0x00000000
       42065000	      4205	80000cc4	00000013	addi	x0,x0,0	  x0:0x00000000
       42075000	      4206	80000cc8	b540ab93	slti	x23,x1,-1196	  x1:0xffffffee x23=0x00000000
       42085000	      4207	80000ccc	00966bb3	or	x23,x12,x9	 x12:0x00000130  x9:0x00000000 x23=0x00000130
       42095000	      4208	80000cd0	00540413	addi	x8,x8,5	  x8:0x00000000  x8=0x00000005
       42105000	      4209	80000cd4	017b3133	sltu	x2,x22,x23	 x22:0x00000009 x23:0x00000130  x2=0x00000001
       42115000	      4210	80000cd8	01b21913	slli	x18,x4,0x1b	  x4:0x00000001 x18=0x08000000
       42125000	      4211	80000cdc	1b1e7613	andi	x12,x28,433	 x28:0x80009f74 x12=0x00000130
       42135000	      4212	80000ce0	fee464e3	bltu	x8,x14,80000cc8	  x8:0x00000005 x14:0x0000000d
       42145000	      4213	00000000	00000013	addi	x0,x0,0	  x0:0x00000000
       42155000	      4214	80000cc4	00000013	addi	x0,x0,0	  x0:0x00000000
       42165000	      4215	80000cc8	b540ab93	slti	x23,x1,-1196	  x1:0xffffffee x23=0x00000000
       42175000	      4216	80000ccc	00966bb3	or	x23,x12,x9	 x12:0x00000130  x9:0x00000000 x23=0x00000130
       42185000	      4217	80000cd0	00540413	addi	x8,x8,5	  x8:0x00000005  x8=0x0000000a
       42195000	      4218	80000cd4	017b3133	sltu	x2,x22,x23	 x22:0x00000009 x23:0x00000130  x2=0x00000001
       42205000	      4219	80000cd8	01b21913	slli	x18,x4,0x1b	  x4:0x00000001 x18=0x08000000
       42215000	      4220	80000cdc	1b1e7613	andi	x12,x28,433	 x28:0x80009f74 x12=0x00000130
       42225000	      4221	80000ce0	fee464e3	bltu	x8,x14,80000cc8	  x8:0x0000000a x14:0x0000000d
       42235000	      4222	00000000	00000013	addi	x0,x0,0	  x0:0x00000000
       42245000	      4223	80000cc4	00000013	addi	x0,x0,0	  x0:0x00000000
       42255000	      4224	80000cc8	b540ab93	slti	x23,x1,-1196	  x1:0xffffffee x23=0x00000000
       42265000	      4225	80000ccc	00966bb3	or	x23,x12,x9	 x12:0x00000130  x9:0x00000000 x23=0x00000130
       42275000	      4226	80000cd0	00540413	addi	x8,x8,5	  x8:0x0000000a  x8=0x0000000f
       42285000	      4227	80000cd4	017b3133	sltu	x2,x22,x23	 x22:0x00000009 x23:0x00000130  x2=0x00000001
       42295000	      4228	80000cd8	01b21913	slli	x18,x4,0x1b	  x4:0x00000001 x18=0x08000000
       42305000	      4229	80000cdc	1b1e7613	andi	x12,x28,433	 x28:0x80009f74 x12=0x00000130
       42315000	      4230	80000ce0	fee464e3	bltu	x8,x14,80000cc8	  x8:0x0000000f x14:0x0000000d
       42325000	      4231	80000ce4	6691eb13	ori	x22,x3,1641	  x3:0x000001ff x22=0x000007ff
       42335000	      4232	80000ce8	ffd00813	addi	x16,x0,-3	  x0:0x00000000 x16=0xfffffffd
       42345000	      4233	80000cec	005a1c13	slli	x24,x20,0x5	 x20:0x80009fc4 x24=0x0013f880
       42355000	      4234	80000cf0	ffc00693	addi	x13,x0,-4	  x0:0x00000000 x13=0xfffffffc
       42365000	      4235	80000cf4	d29c7e97	auipc	x29,0xd29c7	 x29=0x529c7cf0
       42375000	      4236	80000cf8	ffd80813	addi	x16,x16,-3	 x16:0xfffffffd x16=0xfffffffa
       42385000	      4237	80000cfc	014da5b3	slt	x11,x27,x20	 x27:0x0000000c x20:0x80009fc4 x11=0x00000000
       42395000	      4238	80000d00	b93b4613	xori	x12,x22,-1133	 x22:0x000007ff x12=0xfffffc6c
       42405000	      4239	80000d04	fed858e3	bge	x16,x13,80000cf4	 x16:0xfffffffa x13:0xfffffffc
       42415000	      4240	80000d08	f1e86293	ori	x5,x16,-226	 x16:0xfffffffa  x5=0xfffffffe
       42425000	      4241	80000d0c	027a8663	beq	x21,x7,80000d38	 x21:0x00000000  x7:0x00000001
       42435000	      4242	80000d10	86a7ca93	xori	x21,x15,-1942	 x15:0xfffffe48 x21=0x00000622
       42445000	      4243	80000d14	01f6b0b3	sltu	x1,x13,x31	 x13:0xfffffffc x31:0x80000000  x1=0x00000000
       42455000	      4244	80000d18	023a6263	bltu	x20,x3,80000d3c	 x20:0x80009fc4  x3:0x000001ff
       42465000	      4245	80000d1c	005bdab3	srl	x21,x23,x5	 x23:0x00000130  x5:0xfffffffe x21=0x00000000
       42475000	      4246	80000d20	407a0933	sub	x18,x20,x7	 x20:0x80009fc4  x7:0x00000001 x18=0x80009fc3
       42485000	      4247	80000d24	00abd293	srli	x5,x23,0xa	 x23:0x00000130  x5=0x00000000
       42495000	      4248	80000d28	00000013	addi	x0,x0,0	  x0:0x00000000
       42505000	      4249	80000d2c	a4b8f893	andi	x17,x17,-1461	 x17:0x0000000e x17=0x0000000a
       42515000	      4250	80000d30	01fee033	or	x0,x29,x31	 x29:0x529c7cf0 x31:0x80000000
       42525000	      4251	80000d34	05675463	bge	x14,x22,80000d7c	 x14:0x0000000d x22:0x000007ff
       42535000	      4252	80000d38	a6a43593	sltiu	x11,x8,-1430	  x8:0x0000000f x11=0x00000001
       42545000	      4253	80000d3c	40135cb3	sra	x25,x6,x1	  x6:0x00000001  x1:0x00000000 x25=0x00000001
       42555000	      4254	80000d40	89f92713	slti	x14,x18,-1889	 x18:0x80009fc3 x14=0x00000001
       42565000	      4255	80000d44	002c9cb3	sll	x25,x25,x2	 x25:0x00000001  x2:0x00000001 x25=0x00000002
       42575000	      4256	80000d48	03a26063	bltu	x4,x26,80000d68	  x4:0x00000001 x26:0x39803000
       42585000	      4257	00000000	00000013	addi	x0,x0,0	  x0:0x00000000
       42595000	      4258	80000d64	00000013	addi	x0,x0,0	  x0:0x00000000
       42605000	      4259	80000d68	02fe8463	beq	x29,x15,80000d90	 x29:0x529c7cf0 x15:0xfffffe48
       42615000	      4260	80000d6c	60e75c37	lui	x24,0x60e75	 x24=0x60e75000
       42625000	      4261	80000d70	03386463	bltu	x16,x19,80000d98	 x16:0xfffffffa x19:0x4b000000
       42635000	      4262	80000d74	795b2113	slti	x2,x22,1941	 x22:0x000007ff  x2=0x00000000
       42645000	      4263	80000d78	7c5fa493	slti	x9,x31,1989	 x31:0x80000000  x9=0x00000001
       42655000	      4264	80000d7c	64c7f813	andi	x16,x15,1612	 x15:0xfffffe48 x16=0x00000648
       42665000	      4265	80000d80	016c7c63	bgeu	x24,x22,80000d98	 x24:0x60e75000 x22:0x000007ff
       42675000	      4266	00000000	00000013	addi	x0,x0,0	  x0:0x00000000
       42685000	      4267	80000d94	00000013	addi	x0,x0,0	  x0:0x00000000
       42695000	      4268	80000d98	01098bb3	add	x23,x19,x16	 x19:0x4b000000 x16:0x00000648 x23=0x4b000648
       42705000	      4269	80000d9c	01db7863	bgeu	x22,x29,80000dac	 x22:0x000007ff x29:0x529c7cf0
       42715000	      4270	80000da0	411853b3	sra	x7,x16,x17	 x16:0x00000648 x17:0x0000000a  x7=0x00000001
       42725000	      4271	80000da4	99700f13	addi	x30,x0,-1641	  x0:0x00000000 x30=0xfffff997
       42735000	      4272	80000da8	00b8f033	and	x0,x17,x11	 x17:0x0000000a x11:0x00000001
       42745000	      4273	80000dac	4c9ff813	andi	x16,x31,1225	 x31:0x80000000 x16=0x00000000
       42755000	      4274	80000db0	011b46b3	xor	x13,x22,x17	 x22:0x000007ff x17:0x0000000a x13=0x000007f5
       42765000	      4275	80000db4	01308cb3	add	x25,x1,x19	  x1:0x00000000 x19:0x4b000000 x25=0x4b000000
       42775000	      4276	80000db8	00407c63	bgeu	x0,x4,80000dd0	  x0:0x00000000  x4:0x00000001
       42785000	      4277	80000dbc	00f21663	bne	x4,x15,80000dc8	  x4:0x00000001 x15:0xfffffe48
       42795000	      4278	00000000	00000013	addi	x0,x0,0	  x0:0x00000000
       42805000	      4279	80000dc4	00000013	addi	x0,x0,0	  x0:0x00000000
       42815000	      4280	80000dc8	04eb1263	bne	x22,x14,80000e0c	 x22:0x000007ff x14:0x00000001
       42825000	      4281	00000000	00000013	addi	x0,x0,0	  x0:0x00000000
       42835000	      4282	80000e08	00000013	addi	x0,x0,0	  x0:0x00000000
       42845000	      4283	80000e0c	015c9663	bne	x25,x21,80000e18	 x25:0x4b000000 x21:0x00000000
       42855000	      4284	00000000	00000013	addi	x0,x0,0	  x0:0x00000000
       42865000	      4285	80000e14	00000013	addi	x0,x0,0	  x0:0x00000000
       42875000	      4286	80000e18	01d45263	bge	x8,x29,80000e1c	  x8:0x0000000f x29:0x529c7cf0
       42885000	      4287	80000e1c	01f05e63	bge	x0,x31,80000e38	  x0:0x00000000 x31:0x80000000
       42895000	      4288	00000000	00000013	addi	x0,x0,0	  x0:0x00000000
       42905000	      4289	80000e34	00000013	addi	x0,x0,0	  x0:0x00000000
       42915000	      4290	80000e38	01fa61b3	or	x3,x20,x31	 x20:0x80009fc4 x31:0x80000000  x3=0x80009fc4
       42925000	      4291	80000e3c	00467533	and	x10,x12,x4	 x12:0xfffffc6c  x4:0x00000001 x10=0x00000000
       42935000	      4292	80000e40	6db2ee97	auipc	x29,0x6db2e	 x29=0xedb2ee3c
       42945000	      4293	80000e44	01b91193	slli	x3,x18,0x1b	 x18:0x80009fc3  x3=0x18000000
       42955000	      4294	80000e48	01739463	bne	x7,x23,80000e50	  x7:0x00000001 x23:0x4b000648
       42965000	      4295	00000000	00000013	addi	x0,x0,0	  x0:0x00000000
       42975000	      4296	80000e4c	00000013	addi	x0,x0,0	  x0:0x00000000
       42985000	      4297	80000e50	9ed2e093	ori	x1,x5,-1555	  x5:0x00000000  x1=0xfffff9ed
       42995000	      4298	80000e54	8e58f393	andi	x7,x17,-1819	 x17:0x0000000a  x7=0x00000000
       43005000	      4299	80000e58	058d9063	bne	x27,x24,80000e98	 x27:0x0000000c x24:0x60e75000
       43015000	      4300	00000000	00000013	addi	x0,x0,0	  x0:0x00000000
       43025000	      4301	80000e94	00000013	addi	x0,x0,0	  x0:0x00000000
       43035000	      4302	80000e98	51faa313	slti	x6,x21,1311	 x21:0x00000000  x6=0x00000001
       43045000	      4303	80000e9c	1dff0d13	addi	x26,x30,479	 x30:0xfffff997 x26=0xfffffb76
       43055000	      4304	80000ea0	01501593	slli	x11,x0,0x15	  x0:0x00000000 x11=0x00000000
       43065000	      4305	80000ea4	00830533	add	x10,x6,x8	  x6:0x00000001  x8:0x0000000f x10=0x00000010
       43075000	      4306	80000ea8	40f9deb3	sra	x29,x19,x15	 x19:0x4b000000 x15:0xfffffe48 x29=0x004b0000
       43085000	      4307	80000eac	41e68db3	sub	x27,x13,x30	 x13:0x000007f5 x30:0xfffff997 x27=0x00000e5e
       43095000	      4308	80000eb0	b1a1cb93	xori	x23,x3,-1254	  x3:0x18000000 x23=0xe7fffb1a
       43105000	      4309	80000eb4	00b71713	slli	x14,x14,0xb	 x14:0x00000001 x14=0x00000800
       43115000	      4310	80000eb8	004bb033	sltu	x0,x23,x4	 x23:0xe7fffb1a  x4:0x00000001
       43125000	      4311	80000ebc	0c8b0493	addi	x9,x22,200	 x22:0x000007ff  x9=0x000008c7
       43135000	      4312	80000ec0	ca7fdbb7	lui	x23,0xca7fd	 x23=0xca7fd000
       43145000	      4313	80000ec4	bcc88913	addi	x18,x17,-1076	 x17:0x0000000a x18=0xfffffbd6
       43155000	      4314	80000ec8	014e8833	add	x16,x29,x20	 x29:0x004b0000 x20:0x80009fc4 x16=0x804b9fc4
       43165000	      4315	80000ecc	7b6c1c17	auipc	x24,0x7b6c1	 x24=0xfb6c1ec8
       43175000	      4316	80000ed0	0102c233	xor	x4,x5,x16	  x5:0x00000000 x16:0x804b9fc4  x4=0x804b9fc4
       43185000	      4317	80000ed4	00d41e93	slli	x29,x8,0xd	  x8:0x0000000f x29=0x0001e000
       43195000	      4318	80000ed8	41bfd593	srai	x11,x31,0x1b	 x31:0x80000000 x11=0xfffffff0
       43205000	      4319	80000edc	00ce9db3	sll	x27,x29,x12	 x29:0x0001e000 x12:0xfffffc6c x27=0x1e000000
       43215000	      4320	80000ee0	057bd263	bge	x23,x23,80000f24	 x23:0xca7fd000 x23:0xca7fd000
       43225000	      4321	00000000	00000013	addi	x0,x0,0	  x0:0x00000000
       43235000	      4322	80000f20	00000013	addi	x0,x0,0	  x0:0x00000000
       43245000	      4323	80000f24	01929cb3	sll	x25,x5,x25	  x5:0x00000000 x25:0x4b000000 x25=0x00000000
       43255000	      4324	80000f28	0229c663	blt	x19,x2,80000f54	 x19:0x4b000000  x2:0x00000000
       43265000	      4325	80000f2c	007fd493	srli	x9,x31,0x7	 x31:0x80000000  x9=0x01000000
       43275000	      4326	80000f30	af5c3413	sltiu	x8,x24,-1291	 x24:0xfb6c1ec8  x8=0x00000001
       43285000	      4327	80000f34	145a4813	xori	x16,x20,325	 x20:0x80009fc4 x16=0x80009e81
       43295000	      4328	80000f38	00000013	addi	x0,x0,0	  x0:0x00000000
       43305000	      4329	80000f3c	bc14d017	auipc	x0,0xbc14d	
       43315000	      4330	80000f40	c19ce793	ori	x15,x25,-999	 x25:0x00000000 x15=0xfffffc19
       43325000	      4331	80000f44	07160063	beq	x12,x17,80000fa4	 x12:0xfffffc6c x17:0x0000000a
       43335000	      4332	80000f48	2800f093	andi	x1,x1,640	  x1:0xfffff9ed  x1=0x00000080
       43345000	      4333	80000f4c	7181c593	xori	x11,x3,1816	  x3:0x18000000 x11=0x18000718
       43355000	      4334	80000f50	c71cfb13	andi	x22,x25,-911	 x25:0x00000000 x22=0x00000000
       43365000	      4335	80000f54	01dbe5b3	or	x11,x23,x29	 x23:0xca7fd000 x29:0x0001e000 x11=0xca7ff000
       43375000	      4336	80000f58	003feeb3	or	x29,x31,x3	 x31:0x80000000  x3:0x18000000 x29=0x98000000
       43385000	      4337	80000f5c	077b4663	blt	x22,x23,80000fc8	 x22:0x00000000 x23:0xca7fd000
       43395000	      4338	80000f60	05f5f663	bgeu	x11,x31,80000fac	 x11:0xca7ff000 x31:0x80000000
       43405000	      4339	00000000	00000013	addi	x0,x0,0	  x0:0x00000000
       43415000	      4340	80000fa8	00000013	addi	x0,x0,0	  x0:0x00000000
       43425000	      4341	80000fac	41b9d3b3	sra	x7,x19,x27	 x19:0x4b000000 x27:0x1e000000  x7=0x4b000000
       43435000	      4342	80000fb0	01268663	beq	x13,x18,80000fbc	 x13:0x000007f5 x18:0xfffffbd6
       43445000	      4343	80000fb4	01bd1513	slli	x10,x26,0x1b	 x26:0xfffffb76 x10=0xb0000000
       43455000	      4344	80000fb8	01db9eb3	sll	x29,x23,x29	 x23:0xca7fd000 x29:0x98000000 x29=0xca7fd000
       43465000	      4345	80000fbc	02b01263	bne	x0,x11,80000fe0	  x0:0x00000000 x11:0xca7ff000
       43475000	      4346	00000000	00000013	addi	x0,x0,0	  x0:0x00000000
       43485000	      4347	80000fdc	00000013	addi	x0,x0,0	  x0:0x00000000
       43495000	      4348	80000fe0	00000013	addi	x0,x0,0	  x0:0x00000000
       43505000	      4349	80000fe4	00000013	addi	x0,x0,0	  x0:0x00000000
       43515000	      4350	80000fe8	fe86f213	andi	x4,x13,-24	 x13:0x000007f5  x4=0x000007e0
       43525000	      4351	80000fec	0155dcb3	srl	x25,x11,x21	 x11:0xca7ff000 x21:0x00000000 x25=0xca7ff000
       43535000	      4352	80000ff0	0003f6b3	and	x13,x7,x0	  x7:0x4b000000  x0:0x00000000 x13=0x00000000
       43545000	      4353	80000ff4	a378f593	andi	x11,x17,-1481	 x17:0x0000000a x11=0x00000002
       43555000	      4354	80000ff8	00365513	srli	x10,x12,0x3	 x12:0xfffffc6c x10=0x1fffff8d
       43565000	      4355	80000ffc	813e7e93	andi	x29,x28,-2029	 x28:0x80009f74 x29=0x80009810
       43575000	      4356	80001000	00a85d13	srli	x26,x16,0xa	 x16:0x80009e81 x26=0x00200027
       43585000	      4357	80001004	0397c463	blt	x15,x25,8000102c	 x15:0xfffffc19 x25:0xca7ff000
       43595000	      4358	80001008	03275263	bge	x14,x18,8000102c	 x14:0x00000800 x18:0xfffffbd6
       43605000	      4359	00000000	00000013	addi	x0,x0,0	  x0:0x00000000
       43615000	      4360	80001028	00000013	addi	x0,x0,0	  x0:0x00000000
       43625000	      4361	8000102c	0364dc63	bge	x9,x22,80001064	  x9:0x01000000 x22:0x00000000
       43635000	      4362	00000000	00000013	addi	x0,x0,0	  x0:0x00000000
       43645000	      4363	80001060	00000013	addi	x0,x0,0	  x0:0x00000000
       43655000	      4364	80001064	00a39693	slli	x13,x7,0xa	  x7:0x4b000000 x13=0x00000000
       43665000	      4365	80001068	05850063	beq	x10,x24,800010a8	 x10:0x1fffff8d x24:0xfb6c1ec8
       43675000	      4366	8000106c	008805b3	add	x11,x16,x8	 x16:0x80009e81  x8:0x00000001 x11=0x80009e82
       43685000	      4367	80001070	412cda93	srai	x21,x25,0x12	 x25:0xca7ff000 x21=0xfffff29f
       43695000	      4368	80001074	002610b3	sll	x1,x12,x2	 x12:0xfffffc6c  x2:0x00000000  x1=0xfffffc6c
       43705000	      4369	80001078	b5c33e93	sltiu	x29,x6,-1188	  x6:0x00000001 x29=0x00000001
       43715000	      4370	8000107c	00c69e63	bne	x13,x12,80001098	 x13:0x00000000 x12:0xfffffc6c
       43725000	      4371	00000000	00000013	addi	x0,x0,0	  x0:0x00000000
       43735000	      4372	80001094	00000013	addi	x0,x0,0	  x0:0x00000000
       43745000	      4373	80001098	e26f7c93	andi	x25,x30,-474	 x30:0xfffff997 x25=0xfffff806
       43755000	      4374	8000109c	40575db3	sra	x27,x14,x5	 x14:0x00000800  x5:0x00000000 x27=0x00000800
       43765000	      4375	800010a0	4fc5f413	andi	x8,x11,1276	 x11:0x80009e82  x8=0x00000480
       43775000	      4376	800010a4	418b5bb3	sra	x23,x22,x24	 x22:0x00000000 x24:0xfb6c1ec8 x23=0x00000000
       43785000	      4377	800010a8	01c1f663	bgeu	x3,x28,800010b4	  x3:0x18000000 x28:0x80009f74
       43795000	      4378	800010ac	01c07463	bgeu	x0,x28,800010b4	  x0:0x00000000 x28:0x80009f74
       43805000	      4379	800010b0	00000013	addi	x0,x0,0	  x0:0x00000000
       43815000	      4380	800010b4	85c97993	andi	x19,x18,-1956	 x18:0xfffffbd6 x19=0xfffff854
       43825000	      4381	800010b8	81dba017	auipc	x0,0x81dba	
       43835000	      4382	800010bc	00000013	addi	x0,x0,0	  x0:0x00000000
       43845000	      4383	800010c0	02d21063	bne	x4,x13,800010e0	  x4:0x000007e0 x13:0x00000000
       43855000	      4384	00000000	00000013	addi	x0,x0,0	  x0:0x00000000
       43865000	      4385	800010dc	00000013	addi	x0,x0,0	  x0:0x00000000
       43875000	      4386	800010e0	05cc0693	addi	x13,x24,92	 x24:0xfb6c1ec8 x13=0xfb6c1f24
       43885000	      4387	800010e4	8927e093	ori	x1,x15,-1902	 x15:0xfffffc19  x1=0xfffffc9b
       43895000	      4388	800010e8	40710b33	sub	x22,x2,x7	  x2:0x00000000  x7:0x4b000000 x22=0xb5000000
       43905000	      4389	800010ec	00d0e863	bltu	x1,x13,800010fc	  x1:0xfffffc9b x13:0xfb6c1f24
       43915000	      4390	800010f0	2d222b93	slti	x23,x4,722	  x4:0x000007e0 x23=0x00000000
       43925000	      4391	800010f4	b083e793	ori	x15,x7,-1272	  x7:0x4b000000 x15=0xfffffb08
       43935000	      4392	800010f8	f5800c13	addi	x24,x0,-168	  x0:0x00000000 x24=0xffffff58
       43945000	      4393	800010fc	01dcbab3	sltu	x21,x25,x29	 x25:0xfffff806 x29:0x00000001 x21=0x00000000
       43955000	      4394	80001100	00e492b3	sll	x5,x9,x14	  x9:0x01000000 x14:0x00000800  x5=0x01000000
       43965000	      4395	80001104	28904a93	xori	x21,x0,649	  x0:0x00000000 x21=0x00000289
       43975000	      4396	80001108	eb48c313	xori	x6,x17,-332	 x17:0x0000000a  x6=0xfffffebe
       43985000	      4397	8000110c	010ef1b3	and	x3,x29,x16	 x29:0x00000001 x16:0x80009e81  x3=0x00000001
       43995000	      4398	80001110	405d85b3	sub	x11,x27,x5	 x27:0x00000800  x5:0x01000000 x11=0xff000800
       44005000	      4399	80001114	01e4d2b3	srl	x5,x9,x30	  x9:0x01000000 x30:0xfffff997  x5=0x00000002
       44015000	      4400	80001118	00ec5693	srli	x13,x24,0xe	 x24:0xffffff58 x13=0x0003ffff
       44025000	      4401	8000111c	0fe92837	lui	x16,0xfe92	 x16=0x0fe92000
       44035000	      4402	80001120	01f3d9b3	srl	x19,x7,x31	  x7:0x4b000000 x31:0x80000000 x19=0x4b000000
       44045000	      4403	80001124	00000013	addi	x0,x0,0	  x0:0x00000000
       44055000	      4404	80001128	069ef2b7	lui	x5,0x69ef	  x5=0x069ef000
       44065000	      4405	8000112c	78454b13	xori	x22,x10,1924	 x10:0x1fffff8d x22=0x1ffff809
       44075000	      4406	80001130	01590f33	add	x30,x18,x21	 x18:0xfffffbd6 x21:0x00000289 x30=0xfffffe5f
       44085000	      4407	80001134	00c957b3	srl	x15,x18,x12	 x18:0xfffffbd6 x12:0xfffffc6c x15=0x000fffff
       44095000	      4408	80001138	1d747b13	andi	x22,x8,471	  x8:0x00000480 x22=0x00000080
       44105000	      4409	8000113c	0137ed33	or	x26,x15,x19	 x15:0x000fffff x19:0x4b000000 x26=0x4b0fffff
       44115000	      4410	80001140	3327c813	xori	x16,x15,818	 x15:0x000fffff x16=0x000ffccd
       44125000	      4411	80001144	445dfa93	andi	x21,x27,1093	 x27:0x00000800 x21=0x00000000
       44135000	      4412	80001148	013dfe63	bgeu	x27,x19,80001164	 x27:0x00000800 x19:0x4b000000
       44145000	      4413	8000114c	79bbbf37	lui	x30,0x79bbb	 x30=0x79bbb000
       44155000	      4414	80001150	01b0b2b3	sltu	x5,x1,x27	  x1:0xfffffc9b x27:0x00000800  x5=0x00000000
       44165000	      4415	80001154	f32c7493	andi	x9,x24,-206	 x24:0xffffff58  x9=0xffffff10
       44175000	      4416	80001158	002a4bb3	xor	x23,x20,x2	 x20:0x80009fc4  x2:0x00000000 x23=0x80009fc4
       44185000	      4417	8000115c	4034d393	srai	x7,x9,0x3	  x9:0xffffff10  x7=0xffffffe2
       44195000	      4418	80001160	01e999b3	sll	x19,x19,x30	 x19:0x4b000000 x30:0x79bbb000 x19=0x4b000000
       44205000	      4419	80001164	04e75463	bge	x14,x14,800011ac	 x14:0x00000800 x14:0x00000800
       44215000	      4420	00000000	00000013	addi	x0,x0,0	  x0:0x00000000
       44225000	      4421	800011a8	00000013	addi	x0,x0,0	  x0:0x00000000
       44235000	      4422	800011ac	a3227693	andi	x13,x4,-1486	  x4:0x000007e0 x13=0x00000220
       44245000	      4423	800011b0	0e688c13	addi	x24,x17,230	 x17:0x0000000a x24=0x000000f0
       44255000	      4424	800011b4	039a7663	bgeu	x20,x25,800011e0	 x20:0x80009fc4 x25:0xfffff806
       44265000	      4425	800011b8	41bbd3b3	sra	x7,x23,x27	 x23:0x80009fc4 x27:0x00000800  x7=0x80009fc4
       44275000	      4426	800011bc	00641633	sll	x12,x8,x6	  x8:0x00000480  x6:0xfffffebe x12=0x00000000
       44285000	      4427	800011c0	f55f6593	ori	x11,x30,-171	 x30:0x79bbb000 x11=0xffffff55
       44295000	      4428	800011c4	00b25663	bge	x4,x11,800011d0	  x4:0x000007e0 x11:0xffffff55
       44305000	      4429	00000000	00000013	addi	x0,x0,0	  x0:0x00000000
       44315000	      4430	800011cc	00000013	addi	x0,x0,0	  x0:0x00000000
       44325000	      4431	800011d0	079a8513	addi	x10,x21,121	 x21:0x00000000 x10=0x00000079
       44335000	      4432	800011d4	d9297813	andi	x16,x18,-622	 x18:0xfffffbd6 x16=0xfffff992
       44345000	      4433	800011d8	41795b33	sra	x22,x18,x23	 x18:0xfffffbd6 x23:0x80009fc4 x22=0xffffffbd
       44355000	      4434	800011dc	7cd41017	auipc	x0,0x7cd41	
       44365000	      4435	800011e0	0197d1b3	srl	x3,x15,x25	 x15:0x000fffff x25:0xfffff806  x3=0x00003fff
       44375000	      4436	800011e4	02d28263	beq	x5,x13,80001208	  x5:0x00000000 x13:0x00000220
       44385000	      4437	800011e8	00000013	addi	x0,x0,0	  x0:0x00000000
       44395000	      4438	800011ec	a3bdcb13	xori	x22,x27,-1477	 x27:0x00000800 x22=0xfffff23b
       44405000	      4439	800011f0	00d353b3	srl	x7,x6,x13	  x6:0xfffffebe x13:0x00000220  x7=0xfffffebe
       44415000	      4440	800011f4	9a3a9337	lui	x6,0x9a3a9	  x6=0x9a3a9000
       44425000	      4441	800011f8	00624463	blt	x4,x6,80001200	  x4:0x000007e0  x6:0x9a3a9000
       44435000	      4442	800011fc	3b25b793	sltiu	x15,x11,946	 x11:0xffffff55 x15=0x00000000
       44445000	      4443	80001200	01c514b3	sll	x9,x10,x28	 x10:0x00000079 x28:0x80009f74  x9=0x07900000
       44455000	      4444	80001204	54ccac93	slti	x25,x25,1356	 x25:0xfffff806 x25=0x00000001
       44465000	      4445	80001208	018d5e93	srli	x29,x26,0x18	 x26:0x4b0fffff x29=0x0000004b
       44475000	      4446	8000120c	931e4713	xori	x14,x28,-1743	 x28:0x80009f74 x14=0x7fff6645
       44485000	      4447	80001210	e9abc393	xori	x7,x23,-358	 x23:0x80009fc4  x7=0x7fff615e
       44495000	      4448	80001214	016fc463	blt	x31,x22,8000121c	 x31:0x80000000 x22:0xfffff23b
       44505000	      4449	00000000	00000013	addi	x0,x0,0	  x0:0x00000000
       44515000	      4450	80001218	00000013	addi	x0,x0,0	  x0:0x00000000
       44525000	      4451	8000121c	0047a2b3	slt	x5,x15,x4	 x15:0x00000000  x4:0x000007e0  x5=0x00000001
       44535000	      4452	80001220	41eb5433	sra	x8,x22,x30	 x22:0xfffff23b x30:0x79bbb000  x8=0xfffff23b
       44545000	      4453	80001224	01f19813	slli	x16,x3,0x1f	  x3:0x00003fff x16=0x80000000
       44555000	      4454	80001228	d2118893	addi	x17,x3,-735	  x3:0x00003fff x17=0x00003d20
       44565000	      4455	8000122c	c93b3017	auipc	x0,0xc93b3	
       44575000	      4456	80001230	02789e63	bne	x17,x7,8000126c	 x17:0x00003d20  x7:0x7fff615e
       44585000	      4457	00000000	00000013	addi	x0,x0,0	  x0:0x00000000
       44595000	      4458	80001268	00000013	addi	x0,x0,0	  x0:0x00000000
       44605000	      4459	8000126c	01bd3cb3	sltu	x25,x26,x27	 x26:0x4b0fffff x27:0x00000800 x25=0x00000000
       44615000	      4460	80001270	93c6a013	slti	x0,x13,-1732	 x13:0x00000220
       44625000	      4461	80001274	002f9893	slli	x17,x31,0x2	 x31:0x80000000 x17=0x00000000
       44635000	      4462	80001278	5a767313	andi	x6,x12,1447	 x12:0x00000000  x6=0x00000000
       44645000	      4463	8000127c	00d0f863	bgeu	x1,x13,8000128c	  x1:0xfffffc9b x13:0x00000220
       44655000	      4464	00000000	00000013	addi	x0,x0,0	  x0:0x00000000
       44665000	      4465	80001288	00000013	addi	x0,x0,0	  x0:0x00000000
       44675000	      4466	8000128c	41e25ab3	sra	x21,x4,x30	  x4:0x000007e0 x30:0x79bbb000 x21=0x000007e0
       44685000	      4467	80001290	006fee63	bltu	x31,x6,800012ac	 x31:0x80000000  x6:0x00000000
       44695000	      4468	80001294	41f95c93	srai	x25,x18,0x1f	 x18:0xfffffbd6 x25=0xffffffff
       44705000	      4469	80001298	00d22633	slt	x12,x4,x13	  x4:0x000007e0 x13:0x00000220 x12=0x00000000
       44715000	      4470	8000129c	017940b3	xor	x1,x18,x23	 x18:0xfffffbd6 x23:0x80009fc4  x1=0x7fff6412
       44725000	      4471	800012a0	88bb7293	andi	x5,x22,-1909	 x22:0xfffff23b  x5=0xfffff00b
       44735000	      4472	800012a4	aefb3f13	sltiu	x30,x22,-1297	 x22:0xfffff23b x30=0x00000001
       44745000	      4473	800012a8	00215293	srli	x5,x2,0x2	  x2:0x00000000  x5=0x00000000
       44755000	      4474	800012ac	3f6a7913	andi	x18,x20,1014	 x20:0x80009fc4 x18=0x000003c4
       44765000	      4475	800012b0	015f6eb3	or	x29,x30,x21	 x30:0x00000001 x21:0x000007e0 x29=0x000007e1
       44775000	      4476	800012b4	00014033	xor	x0,x2,x0	  x2:0x00000000  x0:0x00000000
       44785000	      4477	800012b8	01fc61b3	or	x3,x24,x31	 x24:0x000000f0 x31:0x80000000  x3=0x800000f0
       44795000	      4478	800012bc	09f30c13	addi	x24,x6,159	  x6:0x00000000 x24=0x0000009f
       44805000	      4479	800012c0	e78c8313	addi	x6,x25,-392	 x25:0xffffffff  x6=0xfffffe77
       44815000	      4480	800012c4	01b01e63	bne	x0,x27,800012e0	  x0:0x00000000 x27:0x00000800
       44825000	      4481	00000000	00000013	addi	x0,x0,0	  x0:0x00000000
       44835000	      4482	800012dc	00000013	addi	x0,x0,0	  x0:0x00000000
       44845000	      4483	800012e0	0294cc63	blt	x9,x9,80001318	  x9:0x07900000  x9:0x07900000
       44855000	      4484	800012e4	037f5063	bge	x30,x23,80001304	 x30:0x00000001 x23:0x80009fc4
       44865000	      4485	00000000	00000013	addi	x0,x0,0	  x0:0x00000000
       44875000	      4486	80001300	00000013	addi	x0,x0,0	  x0:0x00000000
       44885000	      4487	80001304	00ee0eb3	add	x29,x28,x14	 x28:0x80009f74 x14:0x7fff6645 x29=0x000005b9
       44895000	      4488	80001308	2f43e437	lui	x8,0x2f43e	  x8=0x2f43e000
       44905000	      4489	8000130c	011b9b93	slli	x23,x23,0x11	 x23:0x80009fc4 x23=0x3f880000
       44915000	      4490	80001310	01a10863	beq	x2,x26,80001320	  x2:0x00000000 x26:0x4b0fffff
       44925000	      4491	80001314	4716cb13	xori	x22,x13,1137	 x13:0x00000220 x22=0x00000651
       44935000	      4492	80001318	41aed493	srai	x9,x29,0x1a	 x29:0x000005b9  x9=0x00000000
       44945000	      4493	8000131c	c66e2b13	slti	x22,x28,-922	 x28:0x80009f74 x22=0x00000001
       44955000	      4494	80001320	017cc2b3	xor	x5,x25,x23	 x25:0xffffffff x23:0x3f880000  x5=0xc077ffff
       44965000	      4495	80001324	4df32613	slti	x12,x6,1247	  x6:0xfffffe77 x12=0x00000001
       44975000	      4496	80001328	059f0893	addi	x17,x30,89	 x30:0x00000001 x17=0x0000005a
       44985000	      4497	8000132c	010f7663	bgeu	x30,x16,80001338	 x30:0x00000001 x16:0x80000000
       44995000	      4498	80001330	0076c3b3	xor	x7,x13,x7	 x13:0x00000220  x7:0x7fff615e  x7=0x7fff637e
       45005000	      4499	80001334	01b471b3	and	x3,x8,x27	  x8:0x2f43e000 x27:0x00000800  x3=0x00000000
       45015000	      4500	80001338	019f8b33	add	x22,x31,x25	 x31:0x80000000 x25:0xffffffff x22=0x7fffffff
       45025000	      4501	8000133c	01a67133	and	x2,x12,x26	 x12:0x00000001 x26:0x4b0fffff  x2=0x00000001
       45035000	      4502	80001340	00a38533	add	x10,x7,x10	  x7:0x7fff637e x10:0x00000079 x10=0x7fff63f7
       45045000	      4503	80001344	7044bc93	sltiu	x25,x9,1796	  x9:0x00000000 x25=0x00000001
       45055000	      4504	80001348	d9f2fd13	andi	x26,x5,-609	  x5:0xc077ffff x26=0xc077fd9f
       45065000	      4505	8000134c	01dd5f13	srli	x30,x26,0x1d	 x26:0xc077fd9f x30=0x00000006
       45075000	      4506	80001350	015de5b3	or	x11,x27,x21	 x27:0x00000800 x21:0x000007e0 x11=0x00000fe0
       45085000	      4507	80001354	e82ae093	ori	x1,x21,-382	 x21:0x000007e0  x1=0xffffffe2
       45095000	      4508	80001358	40030033	sub	x0,x6,x0	  x6:0xfffffe77  x0:0x00000000
       45105000	      4509	8000135c	01925313	srli	x6,x4,0x19	  x4:0x000007e0  x6=0x00000000
       45115000	      4510	80001360	0179ecb3	or	x25,x19,x23	 x19:0x4b000000 x23:0x3f880000 x25=0x7f880000
       45125000	      4511	80001364	03e0f663	bgeu	x1,x30,80001390	  x1:0xffffffe2 x30:0x00000006
       45135000	      4512	00000000	00000013	addi	x0,x0,0	  x0:0x00000000
       45145000	      4513	8000138c	00000013	addi	x0,x0,0	  x0:0x00000000
       45155000	      4514	80001390	e70ea617	auipc	x12,0xe70ea	 x12=0x670eb38c
       45165000	      4515	80001394	014bcb33	xor	x22,x23,x20	 x23:0x3f880000 x20:0x80009fc4 x22=0xbf889fc4
       45175000	      4516	80001398	406c5133	sra	x2,x24,x6	 x24:0x0000009f  x6:0x00000000  x2=0x0000009f
       45185000	      4517	8000139c	015971b3	and	x3,x18,x21	 x18:0x000003c4 x21:0x000007e0  x3=0x000003c0
       45195000	      4518	800013a0	20e12213	slti	x4,x2,526	  x2:0x0000009f  x4=0x00000001
       45205000	      4519	800013a4	01171863	bne	x14,x17,800013b4	 x14:0x7fff6645 x17:0x0000005a
       45215000	      4520	00000000	00000013	addi	x0,x0,0	  x0:0x00000000
       45225000	      4521	800013b0	00000013	addi	x0,x0,0	  x0:0x00000000
       45235000	      4522	800013b4	03d97663	bgeu	x18,x29,800013e0	 x18:0x000003c4 x29:0x000005b9
       45245000	      4523	800013b8	0021c433	xor	x8,x3,x2	  x3:0x000003c0  x2:0x0000009f  x8=0x0000035f
       45255000	      4524	800013bc	7788c993	xori	x19,x17,1912	 x17:0x0000005a x19=0x00000722
       45265000	      4525	800013c0	40e25b33	sra	x22,x4,x14	  x4:0x00000001 x14:0x7fff6645 x22=0x00000000
       45275000	      4526	800013c4	01900433	add	x8,x0,x25	  x0:0x00000000 x25:0x7f880000  x8=0x7f880000
       45285000	      4527	800013c8	01ac46b3	xor	x13,x24,x26	 x24:0x0000009f x26:0xc077fd9f x13=0xc077fd00
       45295000	      4528	800013cc	01129313	slli	x6,x5,0x11	  x5:0xc077ffff  x6=0xfffe0000
       45305000	      4529	800013d0	012e6c63	bltu	x28,x18,800013e8	 x28:0x80009f74 x18:0x000003c4
       45315000	      4530	800013d4	41e303b3	sub	x7,x6,x30	  x6:0xfffe0000 x30:0x00000006  x7=0xfffdfffa
       45325000	      4531	800013d8	00000013	addi	x0,x0,0	  x0:0x00000000
       45335000	      4532	800013dc	01fff433	and	x8,x31,x31	 x31:0x80000000 x31:0x80000000  x8=0x80000000
       45345000	      4533	800013e0	8754c237	lui	x4,0x8754c	  x4=0x8754c000
       45355000	      4534	800013e4	41dedd93	srai	x27,x29,0x1d	 x29:0x000005b9 x27=0x00000000
       45365000	      4535	800013e8	012c8263	beq	x25,x18,800013ec	 x25:0x7f880000 x18:0x000003c4
       45375000	      4536	800013ec	44b6c413	xori	x8,x13,1099	 x13:0xc077fd00  x8=0xc077f94b
       45385000	      4537	800013f0	4172d733	sra	x14,x5,x23	  x5:0xc077ffff x23:0x3f880000 x14=0xc077ffff
       45395000	      4538	800013f4	00674b33	xor	x22,x14,x6	 x14:0xc077ffff  x6:0xfffe0000 x22=0x3f89ffff
       45405000	      4539	800013f8	24547013	andi	x0,x8,581	  x8:0xc077f94b
       45415000	      4540	800013fc	a3f74413	xori	x8,x14,-1473	 x14:0xc077ffff  x8=0x3f8805c0
       45425000	      4541	80001400	77f36913	ori	x18,x6,1919	  x6:0xfffe0000 x18=0xfffe077f
       45435000	      4542	80001404	00000013	addi	x0,x0,0	  x0:0x00000000
       45445000	      4543	80001408	0567e063	bltu	x15,x22,80001448	 x15:0x00000000 x22:0x3f89ffff
       45455000	      4544	00000000	00000013	addi	x0,x0,0	  x0:0x00000000
       45465000	      4545	80001444	00000013	addi	x0,x0,0	  x0:0x00000000
       45475000	      4546	80001448	a0b28d13	addi	x26,x5,-1525	  x5:0xc077ffff x26=0xc077fa0a
       45485000	      4547	8000144c	00da9893	slli	x17,x21,0xd	 x21:0x000007e0 x17=0x00fc0000
       45495000	      4548	80001450	0b953093	sltiu	x1,x10,185	 x10:0x7fff63f7  x1=0x00000000
       45505000	      4549	80001454	0126a733	slt	x14,x13,x18	 x13:0xc077fd00 x18:0xfffe077f x14=0x00000001
       45515000	      4550	80001458	0b0f8517	auipc	x10,0xb0f8	 x10=0x8b0f9454
       45525000	      4551	8000145c	02439263	bne	x7,x4,80001480	  x7:0xfffdfffa  x4:0x8754c000
       45535000	      4552	00000000	00000013	addi	x0,x0,0	  x0:0x00000000
       45545000	      4553	8000147c	00000013	addi	x0,x0,0	  x0:0x00000000
       45555000	      4554	80001480	001da8b3	slt	x17,x27,x1	 x27:0x00000000  x1:0x00000000 x17=0x00000000
       45565000	      4555	80001484	b8bdcd13	xori	x26,x27,-1141	 x27:0x00000000 x26=0xfffffb8b
       45575000	      4556	80001488	00ce70b3	and	x1,x28,x12	 x28:0x80009f74 x12:0x670eb38c  x1=0x00009304
       45585000	      4557	8000148c	7ba4b493	sltiu	x9,x9,1978	  x9:0x00000000  x9=0x00000001
       45595000	      4558	80001490	963d6893	ori	x17,x26,-1693	 x26:0xfffffb8b x17=0xfffffbeb
       45605000	      4559	80001494	007224b3	slt	x9,x4,x7	  x4:0x8754c000  x7:0xfffdfffa  x9=0x00000001
       45615000	      4560	80001498	00815393	srli	x7,x2,0x8	  x2:0x0000009f  x7=0x00000000
       45625000	      4561	8000149c	00000013	addi	x0,x0,0	  x0:0x00000000
       45635000	      4562	800014a0	00985813	srli	x16,x16,0x9	 x16:0x80000000 x16=0x00400000
       45645000	      4563	800014a4	00cfb7b3	sltu	x15,x31,x12	 x31:0x80000000 x12:0x670eb38c x15=0x00000000
       45655000	      4564	800014a8	41dedbb3	sra	x23,x29,x29	 x29:0x000005b9 x29:0x000005b9 x23=0x00000000
       45665000	      4565	800014ac	41c05813	srai	x16,x0,0x1c	  x0:0x00000000 x16=0x00000000
       45675000	      4566	800014b0	01368663	beq	x13,x19,800014bc	 x13:0xc077fd00 x19:0x00000722
       45685000	      4567	800014b4	006c6c33	or	x24,x24,x6	 x24:0x0000009f  x6:0xfffe0000 x24=0xfffe009f
       45695000	      4568	800014b8	04c69663	bne	x13,x12,80001504	 x13:0xc077fd00 x12:0x670eb38c
       45705000	      4569	00000000	00000013	addi	x0,x0,0	  x0:0x00000000
       45715000	      4570	80001500	00000013	addi	x0,x0,0	  x0:0x00000000
       45725000	      4571	80001504	be35e813	ori	x16,x11,-1053	 x11:0x00000fe0 x16=0xffffffe3
       45735000	      4572	80001508	01465133	srl	x2,x12,x20	 x12:0x670eb38c x20:0x80009fc4  x2=0x0670eb38
       45745000	      4573	8000150c	4009dd13	srai	x26,x19,0x0	 x19:0x00000722 x26=0x00000722
       45755000	      4574	80001510	0507c263	blt	x15,x16,80001554	 x15:0x00000000 x16:0xffffffe3
       45765000	      4575	80001514	00b6bab3	sltu	x21,x13,x11	 x13:0xc077fd00 x11:0x00000fe0 x21=0x00000000
       45775000	      4576	80001518	91d4a513	slti	x10,x9,-1763	  x9:0x00000001 x10=0x00000000
       45785000	      4577	8000151c	01b26863	bltu	x4,x27,8000152c	  x4:0x8754c000 x27:0x00000000
       45795000	      4578	80001520	02937663	bgeu	x6,x9,8000154c	  x6:0xfffe0000  x9:0x00000001
       45805000	      4579	00000000	00000013	addi	x0,x0,0	  x0:0x00000000
       45815000	      4580	80001548	00000013	addi	x0,x0,0	  x0:0x00000000
       45825000	      4581	8000154c	00068eb3	add	x29,x13,x0	 x13:0xc077fd00  x0:0x00000000 x29=0xc077fd00
       45835000	      4582	80001550	40e386b3	sub	x13,x7,x14	  x7:0x00000000 x14:0x00000001 x13=0xffffffff
       45845000	      4583	80001554	00d4cc63	blt	x9,x13,8000156c	  x9:0x00000001 x13:0xffffffff
       45855000	      4584	80001558	41195613	srai	x12,x18,0x11	 x18:0xfffe077f x12=0xffffffff
       45865000	      4585	8000155c	012ab933	sltu	x18,x21,x18	 x21:0x00000000 x18:0xfffe077f x18=0x00000001
       45875000	      4586	80001560	41285413	srai	x8,x16,0x12	 x16:0xffffffe3  x8=0xffffffff
       45885000	      4587	80001564	00527cb3	and	x25,x4,x5	  x4:0x8754c000  x5:0xc077ffff x25=0x8054c000
       45895000	      4588	80001568	00514bb3	xor	x23,x2,x5	  x2:0x0670eb38  x5:0xc077ffff x23=0xc60714c7
       45905000	      4589	8000156c	031c4463	blt	x24,x17,80001594	 x24:0xfffe009f x17:0xfffffbeb
       45915000	      4590	00000000	00000013	addi	x0,x0,0	  x0:0x00000000
       45925000	      4591	80001590	00000013	addi	x0,x0,0	  x0:0x00000000
       45935000	      4592	80001594	41d751b3	sra	x3,x14,x29	 x14:0x00000001 x29:0xc077fd00  x3=0x00000001
       45945000	      4593	80001598	01afd913	srli	x18,x31,0x1a	 x31:0x80000000 x18=0x00000020
       45955000	      4594	8000159c	01e6b2b3	sltu	x5,x13,x30	 x13:0xffffffff x30:0x00000006  x5=0x00000000
       45965000	      4595	800015a0	00851e63	bne	x10,x8,800015bc	 x10:0x00000000  x8:0xffffffff
       45975000	      4596	00000000	00000013	addi	x0,x0,0	  x0:0x00000000
       45985000	      4597	800015b8	00000013	addi	x0,x0,0	  x0:0x00000000
       45995000	      4598	800015bc	012dc533	xor	x10,x27,x18	 x27:0x00000000 x18:0x00000020 x10=0x00000020
       46005000	      4599	800015c0	012cc663	blt	x25,x18,800015cc	 x25:0x8054c000 x18:0x00000020
       46015000	      4600	00000000	00000013	addi	x0,x0,0	  x0:0x00000000
       46025000	      4601	800015c8	00000013	addi	x0,x0,0	  x0:0x00000000
       46035000	      4602	800015cc	00000013	addi	x0,x0,0	  x0:0x00000000
       46045000	      4603	800015d0	02c66663	bltu	x12,x12,800015fc	 x12:0xffffffff x12:0xffffffff
       46055000	      4604	800015d4	fa4a1b37	lui	x22,0xfa4a1	 x22=0xfa4a1000
       46065000	      4605	800015d8	4104db33	sra	x22,x9,x16	  x9:0x00000001 x16:0xffffffe3 x22=0x00000000
       46075000	      4606	800015dc	01d0dc93	srli	x25,x1,0x1d	  x1:0x00009304 x25=0x00000000
       46085000	      4607	800015e0	03886663	bltu	x16,x24,8000160c	 x16:0xffffffe3 x24:0xfffe009f
       46095000	      4608	800015e4	f0dc2613	slti	x12,x24,-243	 x24:0xfffe009f x12=0x00000001
       46105000	      4609	800015e8	8bfe6713	ori	x14,x28,-1857	 x28:0x80009f74 x14=0xffffffff
       46115000	      4610	800015ec	410c8db3	sub	x27,x25,x16	 x25:0x00000000 x16:0xffffffe3 x27=0x0000001d
       46125000	      4611	800015f0	007bfe63	bgeu	x23,x7,8000160c	 x23:0xc60714c7  x7:0x00000000
       46135000	      4612	00000000	00000013	addi	x0,x0,0	  x0:0x00000000
       46145000	      4613	80001608	00000013	addi	x0,x0,0	  x0:0x00000000
       46155000	      4614	8000160c	016b6ab3	or	x21,x22,x22	 x22:0x00000000 x22:0x00000000 x21=0x00000000
       46165000	      4615	80001610	019e0333	add	x6,x28,x25	 x28:0x80009f74 x25:0x00000000  x6=0x80009f74
       46175000	      4616	80001614	8fd64793	xori	x15,x12,-1795	 x12:0x00000001 x15=0xfffff8fc
       46185000	      4617	80001618	00d24d33	xor	x26,x4,x13	  x4:0x8754c000 x13:0xffffffff x26=0x78ab3fff
       46195000	      4618	8000161c	00eff7b3	and	x15,x31,x14	 x31:0x80000000 x14:0xffffffff x15=0x80000000
       46205000	      4619	80001620	03646663	bltu	x8,x22,8000164c	  x8:0xffffffff x22:0x00000000
       46215000	      4620	80001624	46ba4593	xori	x11,x20,1131	 x20:0x80009fc4 x11=0x80009baf
       46225000	      4621	80001628	1b736493	ori	x9,x6,439	  x6:0x80009f74  x9=0x80009ff7
       46235000	      4622	8000162c	97f78193	addi	x3,x15,-1665	 x15:0x80000000  x3=0x7ffff97f
       46245000	      4623	80001630	01127c33	and	x24,x4,x17	  x4:0x8754c000 x17:0xfffffbeb x24=0x8754c000
       46255000	      4624	80001634	01945c63	bge	x8,x25,8000164c	  x8:0xffffffff x25:0x00000000
       46265000	      4625	80001638	017eb733	sltu	x14,x29,x23	 x29:0xc077fd00 x23:0xc60714c7 x14=0x00000001
       46275000	      4626	8000163c	006c1863	bne	x24,x6,8000164c	 x24:0x8754c000  x6:0x80009f74
       46285000	      4627	00000000	00000013	addi	x0,x0,0	  x0:0x00000000
       46295000	      4628	80001648	00000013	addi	x0,x0,0	  x0:0x00000000
       46305000	      4629	8000164c	9efcf513	andi	x10,x25,-1553	 x25:0x00000000 x10=0x00000000
       46315000	      4630	80001650	00363db3	sltu	x27,x12,x3	 x12:0x00000001  x3:0x7ffff97f x27=0x00000001
       46325000	      4631	80001654	40640633	sub	x12,x8,x6	  x8:0xffffffff  x6:0x80009f74 x12=0x7fff608b
       46335000	      4632	80001658	004e2d03	lw	x26,4(x28)	 x28:0x80009f74 x26=0x80000120 PA:0x80009f78
       46345000	      4633	8000165c	01f2be97	auipc	x29,0x1f2b	 x29=0x81f2c658
       46355000	      4634	80001660	00a538b3	sltu	x17,x10,x10	 x10:0x00000000 x10:0x00000000 x17=0x00000000
       46365000	      4635	80001664	01180633	add	x12,x16,x17	 x16:0xffffffe3 x17:0x00000000 x12=0xffffffe3
       46375000	      4636	80001668	010e0e13	addi	x28,x28,16	 x28:0x80009f74 x28=0x80009f84
       46385000	      4637	8000166c	0018f2b3	and	x5,x17,x1	 x17:0x00000000  x1:0x00009304  x5=0x00000000
       46395000	      4638	80001670	39449137	lui	x2,0x39449	  x2=0x39449000
       46405000	      4639	80001674	418f5833	sra	x16,x30,x24	 x30:0x00000006 x24:0x8754c000 x16=0x00000006
       46415000	      4640	80001678	00000013	addi	x0,x0,0	  x0:0x00000000
       46425000	      4641	8000167c	0180a733	slt	x14,x1,x24	  x1:0x00009304 x24:0x8754c000 x14=0x00000000
       46435000	      4642	80001680	001d0613	addi	x12,x26,1	 x26:0x80000120 x12=0x80000121
       46445000	      4643	80001684	00060667	jalr	x12,x12,0	 x12:0x80000121 x12=0x80001684
       46455000	      4644	00000000	00000013	addi	x0,x0,0	  x0:0x00000000
       46465000	      4645	80000120	00000013	addi	x0,x0,0	  x0:0x00000000
       46475000	      4646	80000124	00001417	auipc	x8,0x1	  x8=0x80001120
       46485000	      4647	80000128	81040413	addi	x8,x8,-2032	  x8:0x80001120  x8=0x80000930
       46495000	      4648	8000012c	41115933	sra	x18,x2,x17	  x2:0x39449000 x17:0x00000000 x18=0x39449000
       46505000	      4649	80000130	0c05f293	andi	x5,x11,192	 x11:0x80009baf  x5=0x00000080
       46515000	      4650	80000134	0133c5b3	xor	x11,x7,x19	  x7:0x00000000 x19:0x00000722 x11=0x00000722
       46525000	      4651	80000138	e2140413	addi	x8,x8,-479	  x8:0x80000930  x8=0x80000751
       46535000	      4652	8000013c	d26a4313	xori	x6,x20,-730	 x20:0x80009fc4  x6=0x7fff62e2
       46545000	      4653	80000140	01edac33	slt	x24,x27,x30	 x27:0x00000001 x30:0x00000006 x24=0x00000001
       46555000	      4654	80000144	00b2e3b3	or	x7,x5,x11	  x5:0x00000080 x11:0x00000722  x7=0x000007a2
       46565000	      4655	80000148	85bf0093	addi	x1,x30,-1957	 x30:0x00000006  x1=0xfffff861
       46575000	      4656	8000014c	1df40d67	jalr	x26,x8,479	  x8:0x80000751 x26=0x8000014c
       46585000	      4657	00000000	00000013	addi	x0,x0,0	  x0:0x00000000
       46595000	      4658	80000930	00000013	addi	x0,x0,0	  x0:0x00000000
       46605000	      4659	80000934	ca15b113	sltiu	x2,x11,-863	 x11:0x00000722  x2=0x00000001
       46615000	      4660	80000938	ff0e0e13	addi	x28,x28,-16	 x28:0x80009f84 x28=0x80009f74
       46625000	      4661	8000093c	9aa2e313	ori	x6,x5,-1622	  x5:0x00000080  x6=0xfffff9aa
       46635000	      4662	80000940	01134633	xor	x12,x6,x17	  x6:0xfffff9aa x17:0x00000000 x12=0xfffff9aa
       46645000	      4663	80000944	01ae2223	sw	x26,4(x28)	 x28:0x80009f74 x26:0x8000014c PA:0x80009f78
       46655000	      4664	80000948	b3aa7393	andi	x7,x20,-1222	 x20:0x80009fc4  x7=0x80009b00
       46665000	      4665	8000094c	7e03f813	andi	x16,x7,2016	  x7:0x80009b00 x16=0x00000300
       46675000	      4666	80000950	01b9bbb3	sltu	x23,x19,x27	 x19:0x00000722 x27:0x00000001 x23=0x00000000
       46685000	      4667	80000954	6eab8113	addi	x2,x23,1770	 x23:0x00000000  x2=0x000006ea
       46695000	      4668	80000958	015981b3	add	x3,x19,x21	 x19:0x00000722 x21:0x00000000  x3=0x00000722
       46705000	      4669	8000095c	f463c213	xori	x4,x7,-186	  x7:0x80009b00  x4=0x7fff6446
       46715000	      4670	80000960	013c4133	xor	x2,x24,x19	 x24:0x00000001 x19:0x00000722  x2=0x00000723
       46725000	      4671	80000964	00801833	sll	x16,x0,x8	  x0:0x00000000  x8:0x80000751 x16=0x00000000
       46735000	      4672	80000968	01f02033	slt	x0,x0,x31	  x0:0x00000000 x31:0x80000000
       46745000	      4673	8000096c	51d00d6f	jal	x26,8000096c	 x26=0x8000096c
       46755000	      4674	00000000	00000013	addi	x0,x0,0	  x0:0x00000000
       46765000	      4675	80001684	00000013	addi	x0,x0,0	  x0:0x00000000
       46775000	      4676	80001688	01b56463	bltu	x10,x27,80001690	 x10:0x00000000 x27:0x00000001
       46785000	      4677	00000000	00000013	addi	x0,x0,0	  x0:0x00000000
       46795000	      4678	8000168c	00000013	addi	x0,x0,0	  x0:0x00000000
       46805000	      4679	80001690	fcce0e13	addi	x28,x28,-52	 x28:0x80009f74 x28=0x80009f40
       46815000	      4680	80001694	010f00b3	add	x1,x30,x16	 x30:0x00000006 x16:0x00000000  x1=0x00000006
       46825000	      4681	80001698	005be8b3	or	x17,x23,x5	 x23:0x00000000  x5:0x00000080 x17=0x00000080
       46835000	      4682	8000169c	01ae2223	sw	x26,4(x28)	 x28:0x80009f40 x26:0x8000096c PA:0x80009f44
       46845000	      4683	800016a0	3d2a6093	ori	x1,x20,978	 x20:0x80009fc4  x1=0x80009fd6
       46855000	      4684	800016a4	01d6b1b3	sltu	x3,x13,x29	 x13:0xffffffff x29:0x81f2c658  x3=0x00000000
       46865000	      4685	800016a8	402dd133	sra	x2,x27,x2	 x27:0x00000001  x2:0x00000723  x2=0x00000000
       46875000	      4686	800016ac	18d6e793	ori	x15,x13,397	 x13:0xffffffff x15=0xffffffff
       46885000	      4687	800016b0	e8974693	xori	x13,x14,-375	 x14:0x00000000 x13=0xfffffe89
       46895000	      4688	800016b4	dacc2a93	slti	x21,x24,-596	 x24:0x00000001 x21=0x00000000
       46905000	      4689	800016b8	bcae0113	addi	x2,x28,-1078	 x28:0x80009f40  x2=0x80009b0a
       46915000	      4690	800016bc	00000013	addi	x0,x0,0	  x0:0x00000000
       46925000	      4691	800016c0	015ca0b3	slt	x1,x25,x21	 x25:0x00000000 x21:0x00000000  x1=0x00000000
       46935000	      4692	800016c4	00000013	addi	x0,x0,0	  x0:0x00000000
       46945000	      4693	800016c8	7c100d6f	jal	x26,800016c8	 x26=0x800016c8
       46955000	      4694	00000000	00000013	addi	x0,x0,0	  x0:0x00000000
       46965000	      4695	80002684	00000013	addi	x0,x0,0	  x0:0x00000000
       46975000	      4696	80002688	fe0e0e13	addi	x28,x28,-32	 x28:0x80009f40 x28=0x80009f20
       46985000	      4697	8000268c	01ed58b3	srl	x17,x26,x30	 x26:0x800016c8 x30:0x00000006 x17=0x0200005b
       46995000	      4698	80002690	01ae2223	sw	x26,4(x28)	 x28:0x80009f20 x26:0x800016c8 PA:0x80009f24
       47005000	      4699	80002694	407ed733	sra	x14,x29,x7	 x29:0x81f2c658  x7:0x80009b00 x14=0x81f2c658
       47015000	      4700	80002698	0af82b93	slti	x23,x16,175	 x16:0x00000000 x23=0x00000001
       47025000	      4701	8000269c	00800893	addi	x17,x0,8	  x0:0x00000000 x17=0x00000008
       47035000	      4702	800026a0	002ad013	srli	x0,x21,0x2	 x21:0x00000000
       47045000	      4703	800026a4	00b27c33	and	x24,x4,x11	  x4:0x7fff6446 x11:0x00000722 x24=0x00000402
       47055000	      4704	800026a8	01300793	addi	x15,x0,19	  x0:0x00000000 x15=0x00000013
       47065000	      4705	800026ac	00000013	addi	x0,x0,0	  x0:0x00000000
       47075000	      4706	800026b0	41190eb3	sub	x29,x18,x17	 x18:0x39449000 x17:0x00000008 x29=0x39448ff8
       47085000	      4707	800026b4	00888893	addi	x17,x17,8	 x17:0x00000008 x17=0x00000010
       47095000	      4708	800026b8	3e886313	ori	x6,x16,1000	 x16:0x00000000  x6=0x000003e8
       47105000	      4709	800026bc	01729733	sll	x14,x5,x23	  x5:0x00000080 x23:0x00000001 x14=0x00000100
       47115000	      4710	800026c0	00000293	addi	x5,x0,0	  x0:0x00000000  x5=0x00000000
       47125000	      4711	800026c4	005f4633	xor	x12,x30,x5	 x30:0x00000006  x5:0x00000000 x12=0x00000006
       47135000	      4712	800026c8	40075133	sra	x2,x14,x0	 x14:0x00000100  x0:0x00000000  x2=0x00000100
       47145000	      4713	800026cc	fee00d93	addi	x27,x0,-18	  x0:0x00000000 x27=0xffffffee
       47155000	      4714	800026d0	011093b3	sll	x7,x1,x17	  x1:0x00000000 x17:0x00000010  x7=0x00000000
       47165000	      4715	800026d4	00000013	addi	x0,x0,0	  x0:0x00000000
       47175000	      4716	800026d8	4103dab3	sra	x21,x7,x16	  x7:0x00000000 x16:0x00000000 x21=0x00000000
       47185000	      4717	800026dc	009c1513	slli	x10,x24,0x9	 x24:0x00000402 x10=0x00080400
       47195000	      4718	800026e0	7b2d6397	auipc	x7,0x7b2d6	  x7=0xfb2d86dc
       47205000	      4719	800026e4	413c8c33	sub	x24,x25,x19	 x25:0x00000000 x19:0x00000722 x24=0xfffff8de
       47215000	      4720	800026e8	01fd8ab3	add	x21,x27,x31	 x27:0xffffffee x31:0x80000000 x21=0x7fffffee
       47225000	      4721	800026ec	0fbfbd13	sltiu	x26,x31,251	 x31:0x80000000 x26=0x00000000
       47235000	      4722	800026f0	ff928293	addi	x5,x5,-7	  x5:0x00000000  x5=0xfffffff9
       47245000	      4723	800026f4	d93f1017	auipc	x0,0xd93f1	
       47255000	      4724	800026f8	fdb2dee3	bge	x5,x27,800026d4	  x5:0xfffffff9 x27:0xffffffee
       47265000	      4725	00000000	00000013	addi	x0,x0,0	  x0:0x00000000
       47275000	      4726	800026d0	00000013	addi	x0,x0,0	  x0:0x00000000
       47285000	      4727	800026d4	00000013	addi	x0,x0,0	  x0:0x00000000
       47295000	      4728	800026d8	4103dab3	sra	x21,x7,x16	  x7:0xfb2d86dc x16:0x00000000 x21=0xfb2d86dc
       47305000	      4729	800026dc	009c1513	slli	x10,x24,0x9	 x24:0xfffff8de x10=0xfff1bc00
       47315000	      4730	800026e0	7b2d6397	auipc	x7,0x7b2d6	  x7=0xfb2d86dc
       47325000	      4731	800026e4	413c8c33	sub	x24,x25,x19	 x25:0x00000000 x19:0x00000722 x24=0xfffff8de
       47335000	      4732	800026e8	01fd8ab3	add	x21,x27,x31	 x27:0xffffffee x31:0x80000000 x21=0x7fffffee
       47345000	      4733	800026ec	0fbfbd13	sltiu	x26,x31,251	 x31:0x80000000 x26=0x00000000
       47355000	      4734	800026f0	ff928293	addi	x5,x5,-7	  x5:0xfffffff9  x5=0xfffffff2
       47365000	      4735	800026f4	d93f1017	auipc	x0,0xd93f1	
       47375000	      4736	800026f8	fdb2dee3	bge	x5,x27,800026d4	  x5:0xfffffff2 x27:0xffffffee
       47385000	      4737	00000000	00000013	addi	x0,x0,0	  x0:0x00000000
       47395000	      4738	800026d0	00000013	addi	x0,x0,0	  x0:0x00000000
       47405000	      4739	800026d4	00000013	addi	x0,x0,0	  x0:0x00000000
       47415000	      4740	800026d8	4103dab3	sra	x21,x7,x16	  x7:0xfb2d86dc x16:0x00000000 x21=0xfb2d86dc
       47425000	      4741	800026dc	009c1513	slli	x10,x24,0x9	 x24:0xfffff8de x10=0xfff1bc00
       47435000	      4742	800026e0	7b2d6397	auipc	x7,0x7b2d6	  x7=0xfb2d86dc
       47445000	      4743	800026e4	413c8c33	sub	x24,x25,x19	 x25:0x00000000 x19:0x00000722 x24=0xfffff8de
       47455000	      4744	800026e8	01fd8ab3	add	x21,x27,x31	 x27:0xffffffee x31:0x80000000 x21=0x7fffffee
       47465000	      4745	800026ec	0fbfbd13	sltiu	x26,x31,251	 x31:0x80000000 x26=0x00000000
       47475000	      4746	800026f0	ff928293	addi	x5,x5,-7	  x5:0xfffffff2  x5=0xffffffeb
       47485000	      4747	800026f4	d93f1017	auipc	x0,0xd93f1	
       47495000	      4748	800026f8	fdb2dee3	bge	x5,x27,800026d4	  x5:0xffffffeb x27:0xffffffee
       47505000	      4749	800026fc	41a18d33	sub	x26,x3,x26	  x3:0x00000000 x26:0x00000000 x26=0x00000000
       47515000	      4750	80002700	3fcafb13	andi	x22,x21,1020	 x21:0x7fffffee x22=0x000003ec
       47525000	      4751	80002704	faf8e4e3	bltu	x17,x15,800026ac	 x17:0x00000010 x15:0x00000013
       47535000	      4752	00000000	00000013	addi	x0,x0,0	  x0:0x00000000
       47545000	      4753	800026a8	00000013	addi	x0,x0,0	  x0:0x00000000
       47555000	      4754	800026ac	00000013	addi	x0,x0,0	  x0:0x00000000
       47565000	      4755	800026b0	41190eb3	sub	x29,x18,x17	 x18:0x39449000 x17:0x00000010 x29=0x39448ff0
       47575000	      4756	800026b4	00888893	addi	x17,x17,8	 x17:0x00000010 x17=0x00000018
       47585000	      4757	800026b8	3e886313	ori	x6,x16,1000	 x16:0x00000000  x6=0x000003e8
       47595000	      4758	800026bc	01729733	sll	x14,x5,x23	  x5:0xffffffeb x23:0x00000001 x14=0xffffffd6
       47605000	      4759	800026c0	00000293	addi	x5,x0,0	  x0:0x00000000  x5=0x00000000
       47615000	      4760	800026c4	005f4633	xor	x12,x30,x5	 x30:0x00000006  x5:0x00000000 x12=0x00000006
       47625000	      4761	800026c8	40075133	sra	x2,x14,x0	 x14:0xffffffd6  x0:0x00000000  x2=0xffffffd6
       47635000	      4762	800026cc	fee00d93	addi	x27,x0,-18	  x0:0x00000000 x27=0xffffffee
       47645000	      4763	800026d0	011093b3	sll	x7,x1,x17	  x1:0x00000000 x17:0x00000018  x7=0x00000000
       47655000	      4764	800026d4	00000013	addi	x0,x0,0	  x0:0x00000000
       47665000	      4765	800026d8	4103dab3	sra	x21,x7,x16	  x7:0x00000000 x16:0x00000000 x21=0x00000000
       47675000	      4766	800026dc	009c1513	slli	x10,x24,0x9	 x24:0xfffff8de x10=0xfff1bc00
       47685000	      4767	800026e0	7b2d6397	auipc	x7,0x7b2d6	  x7=0xfb2d86dc
       47695000	      4768	800026e4	413c8c33	sub	x24,x25,x19	 x25:0x00000000 x19:0x00000722 x24=0xfffff8de
       47705000	      4769	800026e8	01fd8ab3	add	x21,x27,x31	 x27:0xffffffee x31:0x80000000 x21=0x7fffffee
       47715000	      4770	800026ec	0fbfbd13	sltiu	x26,x31,251	 x31:0x80000000 x26=0x00000000
       47725000	      4771	800026f0	ff928293	addi	x5,x5,-7	  x5:0x00000000  x5=0xfffffff9
       47735000	      4772	800026f4	d93f1017	auipc	x0,0xd93f1	
       47745000	      4773	800026f8	fdb2dee3	bge	x5,x27,800026d4	  x5:0xfffffff9 x27:0xffffffee
       47755000	      4774	00000000	00000013	addi	x0,x0,0	  x0:0x00000000
       47765000	      4775	800026d0	00000013	addi	x0,x0,0	  x0:0x00000000
       47775000	      4776	800026d4	00000013	addi	x0,x0,0	  x0:0x00000000
       47785000	      4777	800026d8	4103dab3	sra	x21,x7,x16	  x7:0xfb2d86dc x16:0x00000000 x21=0xfb2d86dc
       47795000	      4778	800026dc	009c1513	slli	x10,x24,0x9	 x24:0xfffff8de x10=0xfff1bc00
       47805000	      4779	800026e0	7b2d6397	auipc	x7,0x7b2d6	  x7=0xfb2d86dc
       47815000	      4780	800026e4	413c8c33	sub	x24,x25,x19	 x25:0x00000000 x19:0x00000722 x24=0xfffff8de
       47825000	      4781	800026e8	01fd8ab3	add	x21,x27,x31	 x27:0xffffffee x31:0x80000000 x21=0x7fffffee
       47835000	      4782	800026ec	0fbfbd13	sltiu	x26,x31,251	 x31:0x80000000 x26=0x00000000
       47845000	      4783	800026f0	ff928293	addi	x5,x5,-7	  x5:0xfffffff9  x5=0xfffffff2
       47855000	      4784	800026f4	d93f1017	auipc	x0,0xd93f1	
       47865000	      4785	800026f8	fdb2dee3	bge	x5,x27,800026d4	  x5:0xfffffff2 x27:0xffffffee
       47875000	      4786	00000000	00000013	addi	x0,x0,0	  x0:0x00000000
       47885000	      4787	800026d0	00000013	addi	x0,x0,0	  x0:0x00000000
       47895000	      4788	800026d4	00000013	addi	x0,x0,0	  x0:0x00000000
       47905000	      4789	800026d8	4103dab3	sra	x21,x7,x16	  x7:0xfb2d86dc x16:0x00000000 x21=0xfb2d86dc
       47915000	      4790	800026dc	009c1513	slli	x10,x24,0x9	 x24:0xfffff8de x10=0xfff1bc00
       47925000	      4791	800026e0	7b2d6397	auipc	x7,0x7b2d6	  x7=0xfb2d86dc
       47935000	      4792	800026e4	413c8c33	sub	x24,x25,x19	 x25:0x00000000 x19:0x00000722 x24=0xfffff8de
       47945000	      4793	800026e8	01fd8ab3	add	x21,x27,x31	 x27:0xffffffee x31:0x80000000 x21=0x7fffffee
       47955000	      4794	800026ec	0fbfbd13	sltiu	x26,x31,251	 x31:0x80000000 x26=0x00000000
       47965000	      4795	800026f0	ff928293	addi	x5,x5,-7	  x5:0xfffffff2  x5=0xffffffeb
       47975000	      4796	800026f4	d93f1017	auipc	x0,0xd93f1	
       47985000	      4797	800026f8	fdb2dee3	bge	x5,x27,800026d4	  x5:0xffffffeb x27:0xffffffee
       47995000	      4798	800026fc	41a18d33	sub	x26,x3,x26	  x3:0x00000000 x26:0x00000000 x26=0x00000000
       48005000	      4799	80002700	3fcafb13	andi	x22,x21,1020	 x21:0x7fffffee x22=0x000003ec
       48015000	      4800	80002704	faf8e4e3	bltu	x17,x15,800026ac	 x17:0x00000018 x15:0x00000013
       48025000	      4801	80002708	b99c2693	slti	x13,x24,-1127	 x24:0xfffff8de x13=0x00000001
       48035000	      4802	8000270c	00700793	addi	x15,x0,7	  x0:0x00000000 x15=0x00000007
       48045000	      4803	80002710	ffd00993	addi	x19,x0,-3	  x0:0x00000000 x19=0xfffffffd
       48055000	      4804	80002714	7e26e697	auipc	x13,0x7e26e	 x13=0xfe270710
       48065000	      4805	80002718	ff678793	addi	x15,x15,-10	 x15:0x00000007 x15=0xfffffffd
       48075000	      4806	8000271c	ff379ce3	bne	x15,x19,80002714	 x15:0xfffffffd x19:0xfffffffd
       48085000	      4807	80002720	014d4433	xor	x8,x26,x20	 x26:0x00000000 x20:0x80009fc4  x8=0x80009fc4
       48095000	      4808	80002724	ff800c93	addi	x25,x0,-8	  x0:0x00000000 x25=0xfffffff8
       48105000	      4809	80002728	48f12c13	slti	x24,x2,1167	  x2:0xffffffd6 x24=0x00000001
       48115000	      4810	8000272c	00500993	addi	x19,x0,5	  x0:0x00000000 x19=0x00000005
       48125000	      4811	80002730	8cb46a97	auipc	x21,0x8cb46	 x21=0x0cb4872c
       48135000	      4812	80002734	005c8c93	addi	x25,x25,5	 x25:0xfffffff8 x25=0xfffffffd
       48145000	      4813	80002738	ffc00d13	addi	x26,x0,-4	  x0:0x00000000 x26=0xfffffffc
       48155000	      4814	8000273c	aca73513	sltiu	x10,x14,-1334	 x14:0xffffffd6 x10=0x00000000
       48165000	      4815	80002740	fff00b13	addi	x22,x0,-1	  x0:0x00000000 x22=0xffffffff
       48175000	      4816	80002744	5765cc13	xori	x24,x11,1398	 x11:0x00000722 x24=0x00000254
       48185000	      4817	80002748	002d0d13	addi	x26,x26,2	 x26:0xfffffffc x26=0xfffffffe
       48195000	      4818	8000274c	00615713	srli	x14,x2,0x6	  x2:0xffffffd6 x14=0x03ffffff
       48205000	      4819	80002750	ff6d4ae3	blt	x26,x22,80002744	 x26:0xfffffffe x22:0xffffffff
       48215000	      4820	00000000	00000013	addi	x0,x0,0	  x0:0x00000000
       48225000	      4821	80002740	00000013	addi	x0,x0,0	  x0:0x00000000
       48235000	      4822	80002744	5765cc13	xori	x24,x11,1398	 x11:0x00000722 x24=0x00000254
       48245000	      4823	80002748	002d0d13	addi	x26,x26,2	 x26:0xfffffffe x26=0x00000000
       48255000	      4824	8000274c	00615713	srli	x14,x2,0x6	  x2:0xffffffd6 x14=0x03ffffff
       48265000	      4825	80002750	ff6d4ae3	blt	x26,x22,80002744	 x26:0x00000000 x22:0xffffffff
       48275000	      4826	80002754	fd3ceee3	bltu	x25,x19,80002730	 x25:0xfffffffd x19:0x00000005
       48285000	      4827	80002758	7ada76b7	lui	x13,0x7ada7	 x13=0x7ada7000
       48295000	      4828	8000275c	00100c13	addi	x24,x0,1	  x0:0x00000000 x24=0x00000001
       48305000	      4829	80002760	403a8033	sub	x0,x21,x3	 x21:0x0cb4872c  x3:0x00000000
       48315000	      4830	80002764	9714e213	ori	x4,x9,-1679	  x9:0x80009ff7  x4=0xfffffff7
       48325000	      4831	80002768	01300c93	addi	x25,x0,19	  x0:0x00000000 x25=0x00000013
       48335000	      4832	8000276c	00fca0b3	slt	x1,x25,x15	 x25:0x00000013 x15:0xfffffffd  x1=0x00000000
       48345000	      4833	80002770	7a984813	xori	x16,x16,1961	 x16:0x00000000 x16=0x000007a9
       48355000	      4834	80002774	28b16413	ori	x8,x2,651	  x2:0xffffffd6  x8=0xffffffdf
       48365000	      4835	80002778	011480b3	add	x1,x9,x17	  x9:0x80009ff7 x17:0x00000018  x1=0x8000a00f
       48375000	      4836	8000277c	006c0c13	addi	x24,x24,6	 x24:0x00000001 x24=0x00000007
       48385000	      4837	80002780	00000013	addi	x0,x0,0	  x0:0x00000000
       48395000	      4838	80002784	01a5a833	slt	x16,x11,x26	 x11:0x00000722 x26:0x00000000 x16=0x00000000
       48405000	      4839	80002788	ff900d13	addi	x26,x0,-7	  x0:0x00000000 x26=0xfffffff9
       48415000	      4840	8000278c	ff300513	addi	x10,x0,-13	  x0:0x00000000 x10=0xfffffff3
       48425000	      4841	80002790	00a8b333	sltu	x6,x17,x10	 x17:0x00000018 x10:0xfffffff3  x6=0x00000001
       48435000	      4842	80002794	002c07b3	add	x15,x24,x2	 x24:0x00000007  x2:0xffffffd6 x15=0xffffffdd
       48445000	      4843	80002798	00000013	addi	x0,x0,0	  x0:0x00000000
       48455000	      4844	8000279c	19d70413	addi	x8,x14,413	 x14:0x03ffffff  x8=0x0400019c
       48465000	      4845	800027a0	ffed0d13	addi	x26,x26,-2	 x26:0xfffffff9 x26=0xfffffff7
       48475000	      4846	800027a4	46459717	auipc	x14,0x46459	 x14=0xc645b7a0
       48485000	      4847	800027a8	fead5ae3	bge	x26,x10,8000279c	 x26:0xfffffff7 x10:0xfffffff3
       48495000	      4848	00000000	00000013	addi	x0,x0,0	  x0:0x00000000
       48505000	      4849	80002798	00000013	addi	x0,x0,0	  x0:0x00000000
       48515000	      4850	8000279c	19d70413	addi	x8,x14,413	 x14:0xc645b7a0  x8=0xc645b93d
       48525000	      4851	800027a0	ffed0d13	addi	x26,x26,-2	 x26:0xfffffff7 x26=0xfffffff5
       48535000	      4852	800027a4	46459717	auipc	x14,0x46459	 x14=0xc645b7a0
       48545000	      4853	800027a8	fead5ae3	bge	x26,x10,8000279c	 x26:0xfffffff5 x10:0xfffffff3
       48555000	      4854	00000000	00000013	addi	x0,x0,0	  x0:0x00000000
       48565000	      4855	80002798	00000013	addi	x0,x0,0	  x0:0x00000000
       48575000	      4856	8000279c	19d70413	addi	x8,x14,413	 x14:0xc645b7a0  x8=0xc645b93d
       48585000	      4857	800027a0	ffed0d13	addi	x26,x26,-2	 x26:0xfffffff5 x26=0xfffffff3
       48595000	      4858	800027a4	46459717	auipc	x14,0x46459	 x14=0xc645b7a0
       48605000	      4859	800027a8	fead5ae3	bge	x26,x10,8000279c	 x26:0xfffffff3 x10:0xfffffff3
       48615000	      4860	00000000	00000013	addi	x0,x0,0	  x0:0x00000000
       48625000	      4861	80002798	00000013	addi	x0,x0,0	  x0:0x00000000
       48635000	      4862	8000279c	19d70413	addi	x8,x14,413	 x14:0xc645b7a0  x8=0xc645b93d
       48645000	      4863	800027a0	ffed0d13	addi	x26,x26,-2	 x26:0xfffffff3 x26=0xfffffff1
       48655000	      4864	800027a4	46459717	auipc	x14,0x46459	 x14=0xc645b7a0
       48665000	      4865	800027a8	fead5ae3	bge	x26,x10,8000279c	 x26:0xfffffff1 x10:0xfffffff3
       48675000	      4866	800027ac	02870093	addi	x1,x14,40	 x14:0xc645b7a0  x1=0xc645b7c8
       48685000	      4867	800027b0	fd9c00e3	beq	x24,x25,80002770	 x24:0x00000007 x25:0x00000013
       48695000	      4868	800027b4	70026e93	ori	x29,x4,1792	  x4:0xfffffff7 x29=0xfffffff7
       48705000	      4869	800027b8	00700413	addi	x8,x0,7	  x0:0x00000000  x8=0x00000007
       48715000	      4870	800027bc	51c58693	addi	x13,x11,1308	 x11:0x00000722 x13=0x00000c3e
       48725000	      4871	800027c0	fbd8e013	ori	x0,x17,-67	 x17:0x00000018
       48735000	      4872	800027c4	124e8993	addi	x19,x29,292	 x29:0xfffffff7 x19=0x0000011b
       48745000	      4873	800027c8	9286c993	xori	x19,x13,-1752	 x13:0x00000c3e x19=0xfffff516
       48755000	      4874	800027cc	00000013	addi	x0,x0,0	  x0:0x00000000
       48765000	      4875	800027d0	fec00e93	addi	x29,x0,-20	  x0:0x00000000 x29=0xffffffec
       48775000	      4876	800027d4	00dfcc33	xor	x24,x31,x13	 x31:0x80000000 x13:0x00000c3e x24=0x80000c3e
       48785000	      4877	800027d8	01f0e833	or	x16,x1,x31	  x1:0xc645b7c8 x31:0x80000000 x16=0xc645b7c8
       48795000	      4878	800027dc	d1e5cf13	xori	x30,x11,-738	 x11:0x00000722 x30=0xfffffa3c
       48805000	      4879	800027e0	405b06b3	sub	x13,x22,x5	 x22:0xffffffff  x5:0xffffffeb x13=0x00000014
       48815000	      4880	800027e4	ffd40413	addi	x8,x8,-3	  x8:0x00000007  x8=0x00000004
       48825000	      4881	800027e8	01c07133	and	x2,x0,x28	  x0:0x00000000 x28:0x80009f20  x2=0x00000000
       48835000	      4882	800027ec	b9e8c913	xori	x18,x17,-1122	 x17:0x00000018 x18=0xfffffb86
       48845000	      4883	800027f0	b581c313	xori	x6,x3,-1192	  x3:0x00000000  x6=0xfffffb58
       48855000	      4884	800027f4	009b3933	sltu	x18,x22,x9	 x22:0xffffffff  x9:0x80009ff7 x18=0x00000000
       48865000	      4885	800027f8	0094ed33	or	x26,x9,x9	  x9:0x80009ff7  x9:0x80009ff7 x26=0x80009ff7
       48875000	      4886	800027fc	6745bb93	sltiu	x23,x11,1652	 x11:0x00000722 x23=0x00000000
       48885000	      4887	80002800	008cddb3	srl	x27,x25,x8	 x25:0x00000013  x8:0x00000004 x27=0x00000001
       48895000	      4888	80002804	01ba3cb3	sltu	x25,x20,x27	 x20:0x80009fc4 x27:0x00000001 x25=0x00000000
       48905000	      4889	80002808	fdd406e3	beq	x8,x29,800027d4	  x8:0x00000004 x29:0xffffffec
       48915000	      4890	8000280c	003a5b33	srl	x22,x20,x3	 x20:0x80009fc4  x3:0x00000000 x22=0x80009fc4
       48925000	      4891	80002810	00a00e93	addi	x29,x0,10	  x0:0x00000000 x29=0x0000000a
       48935000	      4892	80002814	01531693	slli	x13,x6,0x15	  x6:0xfffffb58 x13=0x6b000000
       48945000	      4893	80002818	0053dc93	srli	x25,x7,0x5	  x7:0xfb2d86dc x25=0x07d96c36
       48955000	      4894	8000281c	007805b3	add	x11,x16,x7	 x16:0xc645b7c8  x7:0xfb2d86dc x11=0xc1733ea4
       48965000	      4895	80002820	e9cf4b13	xori	x22,x30,-356	 x30:0xfffffa3c x22=0x000004a0
       48975000	      4896	80002824	ff400c13	addi	x24,x0,-12	  x0:0x00000000 x24=0xfffffff4
       48985000	      4897	80002828	4196d113	srai	x2,x13,0x19	 x13:0x6b000000  x2=0x00000035
       48995000	      4898	8000282c	671ce193	ori	x3,x25,1649	 x25:0x07d96c36  x3=0x07d96e77
       49005000	      4899	80002830	40ad00b3	sub	x1,x26,x10	 x26:0x80009ff7 x10:0xfffffff3  x1=0x8000a004
       49015000	      4900	80002834	41ead833	sra	x16,x21,x30	 x21:0x0cb4872c x30:0xfffffa3c x16=0x00000000
       49025000	      4901	80002838	017f98b3	sll	x17,x31,x23	 x31:0x80000000 x23:0x00000000 x17=0x80000000
       49035000	      4902	8000283c	ff8e8e93	addi	x29,x29,-8	 x29:0x0000000a x29=0x00000002
       49045000	      4903	80002840	ffa00a93	addi	x21,x0,-6	  x0:0x00000000 x21=0xfffffffa
       49055000	      4904	80002844	f06f3d13	sltiu	x26,x30,-250	 x30:0xfffffa3c x26=0x00000001
       49065000	      4905	80002848	d9c8c313	xori	x6,x17,-612	 x17:0x80000000  x6=0x7ffffd9c
       49075000	      4906	8000284c	40f55733	sra	x14,x10,x15	 x10:0xfffffff3 x15:0xffffffdd x14=0xffffffff
       49085000	      4907	80002850	1f75c093	xori	x1,x11,503	 x11:0xc1733ea4  x1=0xc1733f53
       49095000	      4908	80002854	1e5ac993	xori	x19,x21,485	 x21:0xfffffffa x19=0xfffffe1f
       49105000	      4909	80002858	00b250b3	srl	x1,x4,x11	  x4:0xfffffff7 x11:0xc1733ea4  x1=0x0fffffff
       49115000	      4910	8000285c	00000613	addi	x12,x0,0	  x0:0x00000000 x12=0x00000000
       49125000	      4911	80002860	4141d233	sra	x4,x3,x20	  x3:0x07d96e77 x20:0x80009fc4  x4=0x007d96e7
       49135000	      4912	80002864	4a357813	andi	x16,x10,1187	 x10:0xfffffff3 x16=0x000004a3
       49145000	      4913	80002868	70d61c97	auipc	x25,0x70d61	 x25=0xf0d63864
       49155000	      4914	8000286c	01ba5693	srli	x13,x20,0x1b	 x20:0x80009fc4 x13=0x00000010
       49165000	      4915	80002870	009a8a93	addi	x21,x21,9	 x21:0xfffffffa x21=0x00000003
       49175000	      4916	80002874	000823b3	slt	x7,x16,x0	 x16:0x000004a3  x0:0x00000000  x7=0x00000000
       49185000	      4917	80002878	fecac8e3	blt	x21,x12,80002868	 x21:0x00000003 x12:0x00000000
       49195000	      4918	8000287c	e5df8193	addi	x3,x31,-419	 x31:0x80000000  x3=0x7ffffe5d
       49205000	      4919	80002880	00abd693	srli	x13,x23,0xa	 x23:0x00000000 x13=0x00000000
       49215000	      4920	80002884	017cd3b3	srl	x7,x25,x23	 x25:0xf0d63864 x23:0x00000000  x7=0xf0d63864
       49225000	      4921	80002888	00c788b3	add	x17,x15,x12	 x15:0xffffffdd x12:0x00000000 x17=0xffffffdd
       49235000	      4922	8000288c	fb8ed0e3	bge	x29,x24,8000282c	 x29:0x00000002 x24:0xfffffff4
       49245000	      4923	00000000	00000013	addi	x0,x0,0	  x0:0x00000000
       49255000	      4924	80002828	00000013	addi	x0,x0,0	  x0:0x00000000
       49265000	      4925	8000282c	671ce193	ori	x3,x25,1649	 x25:0xf0d63864  x3=0xf0d63e75
       49275000	      4926	80002830	40ad00b3	sub	x1,x26,x10	 x26:0x00000001 x10:0xfffffff3  x1=0x0000000e
       49285000	      4927	80002834	41ead833	sra	x16,x21,x30	 x21:0x00000003 x30:0xfffffa3c x16=0x00000000
       49295000	      4928	80002838	017f98b3	sll	x17,x31,x23	 x31:0x80000000 x23:0x00000000 x17=0x80000000
       49305000	      4929	8000283c	ff8e8e93	addi	x29,x29,-8	 x29:0x00000002 x29=0xfffffffa
       49315000	      4930	80002840	ffa00a93	addi	x21,x0,-6	  x0:0x00000000 x21=0xfffffffa
       49325000	      4931	80002844	f06f3d13	sltiu	x26,x30,-250	 x30:0xfffffa3c x26=0x00000001
       49335000	      4932	80002848	d9c8c313	xori	x6,x17,-612	 x17:0x80000000  x6=0x7ffffd9c
       49345000	      4933	8000284c	40f55733	sra	x14,x10,x15	 x10:0xfffffff3 x15:0xffffffdd x14=0xffffffff
       49355000	      4934	80002850	1f75c093	xori	x1,x11,503	 x11:0xc1733ea4  x1=0xc1733f53
       49365000	      4935	80002854	1e5ac993	xori	x19,x21,485	 x21:0xfffffffa x19=0xfffffe1f
       49375000	      4936	80002858	00b250b3	srl	x1,x4,x11	  x4:0x007d96e7 x11:0xc1733ea4  x1=0x0007d96e
       49385000	      4937	8000285c	00000613	addi	x12,x0,0	  x0:0x00000000 x12=0x00000000
       49395000	      4938	80002860	4141d233	sra	x4,x3,x20	  x3:0xf0d63e75 x20:0x80009fc4  x4=0xff0d63e7
       49405000	      4939	80002864	4a357813	andi	x16,x10,1187	 x10:0xfffffff3 x16=0x000004a3
       49415000	      4940	80002868	70d61c97	auipc	x25,0x70d61	 x25=0xf0d63864
       49425000	      4941	8000286c	01ba5693	srli	x13,x20,0x1b	 x20:0x80009fc4 x13=0x00000010
       49435000	      4942	80002870	009a8a93	addi	x21,x21,9	 x21:0xfffffffa x21=0x00000003
       49445000	      4943	80002874	000823b3	slt	x7,x16,x0	 x16:0x000004a3  x0:0x00000000  x7=0x00000000
       49455000	      4944	80002878	fecac8e3	blt	x21,x12,80002868	 x21:0x00000003 x12:0x00000000
       49465000	      4945	8000287c	e5df8193	addi	x3,x31,-419	 x31:0x80000000  x3=0x7ffffe5d
       49475000	      4946	80002880	00abd693	srli	x13,x23,0xa	 x23:0x00000000 x13=0x00000000
       49485000	      4947	80002884	017cd3b3	srl	x7,x25,x23	 x25:0xf0d63864 x23:0x00000000  x7=0xf0d63864
       49495000	      4948	80002888	00c788b3	add	x17,x15,x12	 x15:0xffffffdd x12:0x00000000 x17=0xffffffdd
       49505000	      4949	8000288c	fb8ed0e3	bge	x29,x24,8000282c	 x29:0xfffffffa x24:0xfffffff4
       49515000	      4950	00000000	00000013	addi	x0,x0,0	  x0:0x00000000
       49525000	      4951	80002828	00000013	addi	x0,x0,0	  x0:0x00000000
       49535000	      4952	8000282c	671ce193	ori	x3,x25,1649	 x25:0xf0d63864  x3=0xf0d63e75
       49545000	      4953	80002830	40ad00b3	sub	x1,x26,x10	 x26:0x00000001 x10:0xfffffff3  x1=0x0000000e
       49555000	      4954	80002834	41ead833	sra	x16,x21,x30	 x21:0x00000003 x30:0xfffffa3c x16=0x00000000
       49565000	      4955	80002838	017f98b3	sll	x17,x31,x23	 x31:0x80000000 x23:0x00000000 x17=0x80000000
       49575000	      4956	8000283c	ff8e8e93	addi	x29,x29,-8	 x29:0xfffffffa x29=0xfffffff2
       49585000	      4957	80002840	ffa00a93	addi	x21,x0,-6	  x0:0x00000000 x21=0xfffffffa
       49595000	      4958	80002844	f06f3d13	sltiu	x26,x30,-250	 x30:0xfffffa3c x26=0x00000001
       49605000	      4959	80002848	d9c8c313	xori	x6,x17,-612	 x17:0x80000000  x6=0x7ffffd9c
       49615000	      4960	8000284c	40f55733	sra	x14,x10,x15	 x10:0xfffffff3 x15:0xffffffdd x14=0xffffffff
       49625000	      4961	80002850	1f75c093	xori	x1,x11,503	 x11:0xc1733ea4  x1=0xc1733f53
       49635000	      4962	80002854	1e5ac993	xori	x19,x21,485	 x21:0xfffffffa x19=0xfffffe1f
       49645000	      4963	80002858	00b250b3	srl	x1,x4,x11	  x4:0xff0d63e7 x11:0xc1733ea4  x1=0x0ff0d63e
       49655000	      4964	8000285c	00000613	addi	x12,x0,0	  x0:0x00000000 x12=0x00000000
       49665000	      4965	80002860	4141d233	sra	x4,x3,x20	  x3:0xf0d63e75 x20:0x80009fc4  x4=0xff0d63e7
       49675000	      4966	80002864	4a357813	andi	x16,x10,1187	 x10:0xfffffff3 x16=0x000004a3
       49685000	      4967	80002868	70d61c97	auipc	x25,0x70d61	 x25=0xf0d63864
       49695000	      4968	8000286c	01ba5693	srli	x13,x20,0x1b	 x20:0x80009fc4 x13=0x00000010
       49705000	      4969	80002870	009a8a93	addi	x21,x21,9	 x21:0xfffffffa x21=0x00000003
       49715000	      4970	80002874	000823b3	slt	x7,x16,x0	 x16:0x000004a3  x0:0x00000000  x7=0x00000000
       49725000	      4971	80002878	fecac8e3	blt	x21,x12,80002868	 x21:0x00000003 x12:0x00000000
       49735000	      4972	8000287c	e5df8193	addi	x3,x31,-419	 x31:0x80000000  x3=0x7ffffe5d
       49745000	      4973	80002880	00abd693	srli	x13,x23,0xa	 x23:0x00000000 x13=0x00000000
       49755000	      4974	80002884	017cd3b3	srl	x7,x25,x23	 x25:0xf0d63864 x23:0x00000000  x7=0xf0d63864
       49765000	      4975	80002888	00c788b3	add	x17,x15,x12	 x15:0xffffffdd x12:0x00000000 x17=0xffffffdd
       49775000	      4976	8000288c	fb8ed0e3	bge	x29,x24,8000282c	 x29:0xfffffff2 x24:0xfffffff4
       49785000	      4977	80002890	01429b33	sll	x22,x5,x20	  x5:0xffffffeb x20:0x80009fc4 x22=0xfffffeb0
       49795000	      4978	80002894	00a00493	addi	x9,x0,10	  x0:0x00000000  x9=0x0000000a
       49805000	      4979	80002898	00a00113	addi	x2,x0,10	  x0:0x00000000  x2=0x0000000a
       49815000	      4980	8000289c	014068b3	or	x17,x0,x20	  x0:0x00000000 x20:0x80009fc4 x17=0x80009fc4
       49825000	      4981	800028a0	01c0cc33	xor	x24,x1,x28	  x1:0x0ff0d63e x28:0x80009f20 x24=0x8ff0491e
       49835000	      4982	800028a4	01d9e8b3	or	x17,x19,x29	 x19:0xfffffe1f x29:0xfffffff2 x17=0xffffffff
       49845000	      4983	800028a8	ff848493	addi	x9,x9,-8	  x9:0x0000000a  x9=0x00000002
       49855000	      4984	800028ac	00700d93	addi	x27,x0,7	  x0:0x00000000 x27=0x00000007
       49865000	      4985	800028b0	00b00e93	addi	x29,x0,11	  x0:0x00000000 x29=0x0000000b
       49875000	      4986	800028b4	00ea88b3	add	x17,x21,x14	 x21:0x00000003 x14:0xffffffff x17=0x00000002
       49885000	      4987	800028b8	01abe933	or	x18,x23,x26	 x23:0x00000000 x26:0x00000001 x18=0x00000001
       49895000	      4988	800028bc	b4b1a413	slti	x8,x3,-1205	  x3:0x7ffffe5d  x8=0x00000000
       49905000	      4989	800028c0	005c3ab3	sltu	x21,x24,x5	 x24:0x8ff0491e  x5:0xffffffeb x21=0x00000001
       49915000	      4990	800028c4	004d8d93	addi	x27,x27,4	 x27:0x00000007 x27=0x0000000b
       49925000	      4991	800028c8	ffdd96e3	bne	x27,x29,800028b4	 x27:0x0000000b x29:0x0000000b
       49935000	      4992	800028cc	40bf0cb3	sub	x25,x30,x11	 x30:0xfffffa3c x11:0xc1733ea4 x25=0x3e8cbb98
       49945000	      4993	800028d0	009a77b3	and	x15,x20,x9	 x20:0x80009fc4  x9:0x00000002 x15=0x00000000
       49955000	      4994	800028d4	00236233	or	x4,x6,x2	  x6:0x7ffffd9c  x2:0x0000000a  x4=0x7ffffd9e
       49965000	      4995	800028d8	ec702013	slti	x0,x0,-313	  x0:0x00000000
       49975000	      4996	800028dc	fc24f2e3	bgeu	x9,x2,800028a0	  x9:0x00000002  x2:0x0000000a
       49985000	      4997	800028e0	01af9c33	sll	x24,x31,x26	 x31:0x80000000 x26:0x00000001 x24=0x00000000
       49995000	      4998	800028e4	00a00113	addi	x2,x0,10	  x0:0x00000000  x2=0x0000000a
       50005000	      4999	800028e8	01100093	addi	x1,x0,17	  x0:0x00000000  x1=0x00000011
       50015000	      5000	800028ec	0075e8b3	or	x17,x11,x7	 x11:0xc1733ea4  x7:0xf0d63864 x17=0xf1f73ee4
       50025000	      5001	800028f0	01d85a93	srli	x21,x16,0x1d	 x16:0x000004a3 x21=0x00000000
       50035000	      5002	800028f4	00110113	addi	x2,x2,1	  x2:0x0000000a  x2=0x0000000b
       50045000	      5003	800028f8	fe111ae3	bne	x2,x1,800028ec	  x2:0x0000000b  x1:0x00000011
       50055000	      5004	00000000	00000013	addi	x0,x0,0	  x0:0x00000000
       50065000	      5005	800028e8	00000013	addi	x0,x0,0	  x0:0x00000000
       50075000	      5006	800028ec	0075e8b3	or	x17,x11,x7	 x11:0xc1733ea4  x7:0xf0d63864 x17=0xf1f73ee4
       50085000	      5007	800028f0	01d85a93	srli	x21,x16,0x1d	 x16:0x000004a3 x21=0x00000000
       50095000	      5008	800028f4	00110113	addi	x2,x2,1	  x2:0x0000000b  x2=0x0000000c
       50105000	      5009	800028f8	fe111ae3	bne	x2,x1,800028ec	  x2:0x0000000c  x1:0x00000011
       50115000	      5010	00000000	00000013	addi	x0,x0,0	  x0:0x00000000
       50125000	      5011	800028e8	00000013	addi	x0,x0,0	  x0:0x00000000
       50135000	      5012	800028ec	0075e8b3	or	x17,x11,x7	 x11:0xc1733ea4  x7:0xf0d63864 x17=0xf1f73ee4
       50145000	      5013	800028f0	01d85a93	srli	x21,x16,0x1d	 x16:0x000004a3 x21=0x00000000
       50155000	      5014	800028f4	00110113	addi	x2,x2,1	  x2:0x0000000c  x2=0x0000000d
       50165000	      5015	800028f8	fe111ae3	bne	x2,x1,800028ec	  x2:0x0000000d  x1:0x00000011
       50175000	      5016	00000000	00000013	addi	x0,x0,0	  x0:0x00000000
       50185000	      5017	800028e8	00000013	addi	x0,x0,0	  x0:0x00000000
       50195000	      5018	800028ec	0075e8b3	or	x17,x11,x7	 x11:0xc1733ea4  x7:0xf0d63864 x17=0xf1f73ee4
       50205000	      5019	800028f0	01d85a93	srli	x21,x16,0x1d	 x16:0x000004a3 x21=0x00000000
       50215000	      5020	800028f4	00110113	addi	x2,x2,1	  x2:0x0000000d  x2=0x0000000e
       50225000	      5021	800028f8	fe111ae3	bne	x2,x1,800028ec	  x2:0x0000000e  x1:0x00000011
       50235000	      5022	00000000	00000013	addi	x0,x0,0	  x0:0x00000000
       50245000	      5023	800028e8	00000013	addi	x0,x0,0	  x0:0x00000000
       50255000	      5024	800028ec	0075e8b3	or	x17,x11,x7	 x11:0xc1733ea4  x7:0xf0d63864 x17=0xf1f73ee4
       50265000	      5025	800028f0	01d85a93	srli	x21,x16,0x1d	 x16:0x000004a3 x21=0x00000000
       50275000	      5026	800028f4	00110113	addi	x2,x2,1	  x2:0x0000000e  x2=0x0000000f
       50285000	      5027	800028f8	fe111ae3	bne	x2,x1,800028ec	  x2:0x0000000f  x1:0x00000011
       50295000	      5028	00000000	00000013	addi	x0,x0,0	  x0:0x00000000
       50305000	      5029	800028e8	00000013	addi	x0,x0,0	  x0:0x00000000
       50315000	      5030	800028ec	0075e8b3	or	x17,x11,x7	 x11:0xc1733ea4  x7:0xf0d63864 x17=0xf1f73ee4
       50325000	      5031	800028f0	01d85a93	srli	x21,x16,0x1d	 x16:0x000004a3 x21=0x00000000
       50335000	      5032	800028f4	00110113	addi	x2,x2,1	  x2:0x0000000f  x2=0x00000010
       50345000	      5033	800028f8	fe111ae3	bne	x2,x1,800028ec	  x2:0x00000010  x1:0x00000011
       50355000	      5034	00000000	00000013	addi	x0,x0,0	  x0:0x00000000
       50365000	      5035	800028e8	00000013	addi	x0,x0,0	  x0:0x00000000
       50375000	      5036	800028ec	0075e8b3	or	x17,x11,x7	 x11:0xc1733ea4  x7:0xf0d63864 x17=0xf1f73ee4
       50385000	      5037	800028f0	01d85a93	srli	x21,x16,0x1d	 x16:0x000004a3 x21=0x00000000
       50395000	      5038	800028f4	00110113	addi	x2,x2,1	  x2:0x00000010  x2=0x00000011
       50405000	      5039	800028f8	fe111ae3	bne	x2,x1,800028ec	  x2:0x00000011  x1:0x00000011
       50415000	      5040	800028fc	001fa533	slt	x10,x31,x1	 x31:0x80000000  x1:0x00000011 x10=0x00000001
       50425000	      5041	80002900	a0f77913	andi	x18,x14,-1521	 x14:0xffffffff x18=0xfffffa0f
       50435000	      5042	80002904	01d1f263	bgeu	x3,x29,80002908	  x3:0x7ffffe5d x29:0x0000000b
       50445000	      5043	00000000	00000013	addi	x0,x0,0	  x0:0x00000000
       50455000	      5044	80002904	00000013	addi	x0,x0,0	  x0:0x00000000
       50465000	      5045	80002908	cbf0bc93	sltiu	x25,x1,-833	  x1:0x00000011 x25=0x00000001
       50475000	      5046	8000290c	009c6b33	or	x22,x24,x9	 x24:0x00000000  x9:0x00000002 x22=0x00000002
       50485000	      5047	80002910	00ac8663	beq	x25,x10,8000291c	 x25:0x00000001 x10:0x00000001
       50495000	      5048	00000000	00000013	addi	x0,x0,0	  x0:0x00000000
       50505000	      5049	80002918	00000013	addi	x0,x0,0	  x0:0x00000000
       50515000	      5050	8000291c	01589733	sll	x14,x17,x21	 x17:0xf1f73ee4 x21:0x00000000 x14=0xf1f73ee4
       50525000	      5051	80002920	00236263	bltu	x6,x2,80002924	  x6:0x7ffffd9c  x2:0x00000011
       50535000	      5052	80002924	04d08063	beq	x1,x13,80002964	  x1:0x00000011 x13:0x00000000
       50545000	      5053	80002928	00377c33	and	x24,x14,x3	 x14:0xf1f73ee4  x3:0x7ffffe5d x24=0x71f73e44
       50555000	      5054	8000292c	0488e263	bltu	x17,x8,80002970	 x17:0xf1f73ee4  x8:0x00000000
       50565000	      5055	80002930	01d41e93	slli	x29,x8,0x1d	  x8:0x00000000 x29=0x00000000
       50575000	      5056	80002934	da736393	ori	x7,x6,-601	  x6:0x7ffffd9c  x7=0xfffffdbf
       50585000	      5057	80002938	5947b517	auipc	x10,0x5947b	 x10=0xd947d934
       50595000	      5058	8000293c	73cc4613	xori	x12,x24,1852	 x24:0x71f73e44 x12=0x71f73978
       50605000	      5059	80002940	01ea1c63	bne	x20,x30,80002958	 x20:0x80009fc4 x30:0xfffffa3c
       50615000	      5060	00000000	00000013	addi	x0,x0,0	  x0:0x00000000
       50625000	      5061	80002954	00000013	addi	x0,x0,0	  x0:0x00000000
       50635000	      5062	80002958	c299bb93	sltiu	x23,x19,-983	 x19:0xfffffe1f x23=0x00000000
       50645000	      5063	8000295c	0042f463	bgeu	x5,x4,80002964	  x5:0xffffffeb  x4:0x7ffffd9e
       50655000	      5064	00000000	00000013	addi	x0,x0,0	  x0:0x00000000
       50665000	      5065	80002960	00000013	addi	x0,x0,0	  x0:0x00000000
       50675000	      5066	80002964	012a4db3	xor	x27,x20,x18	 x20:0x80009fc4 x18:0xfffffa0f x27=0x7fff65cb
       50685000	      5067	80002968	c4840093	addi	x1,x8,-952	  x8:0x00000000  x1=0xfffffc48
       50695000	      5068	8000296c	70ceaf13	slti	x30,x29,1804	 x29:0x00000000 x30=0x00000001
       50705000	      5069	80002970	00000013	addi	x0,x0,0	  x0:0x00000000
       50715000	      5070	80002974	69bb3213	sltiu	x4,x22,1691	 x22:0x00000002  x4=0x00000001
       50725000	      5071	80002978	40ee01b3	sub	x3,x28,x14	 x28:0x80009f20 x14:0xf1f73ee4  x3=0x8e09603c
       50735000	      5072	8000297c	04b81863	bne	x16,x11,800029cc	 x16:0x000004a3 x11:0xc1733ea4
       50745000	      5073	00000000	00000013	addi	x0,x0,0	  x0:0x00000000
       50755000	      5074	800029c8	00000013	addi	x0,x0,0	  x0:0x00000000
       50765000	      5075	800029cc	66300917	auipc	x18,0x66300	 x18=0xe63029c8
       50775000	      5076	800029d0	231be713	ori	x14,x23,561	 x23:0x00000000 x14=0x00000231
       50785000	      5077	800029d4	01dac463	blt	x21,x29,800029dc	 x21:0x00000000 x29:0x00000000
       50795000	      5078	800029d8	03db8063	beq	x23,x29,800029f8	 x23:0x00000000 x29:0x00000000
       50805000	      5079	00000000	00000013	addi	x0,x0,0	  x0:0x00000000
       50815000	      5080	800029f4	00000013	addi	x0,x0,0	  x0:0x00000000
       50825000	      5081	800029f8	9f56cb93	xori	x23,x13,-1547	 x13:0x00000000 x23=0xfffff9f5
       50835000	      5082	800029fc	3884b013	sltiu	x0,x9,904	  x9:0x00000002
       50845000	      5083	80002a00	00a5cdb3	xor	x27,x11,x10	 x11:0xc1733ea4 x10:0xd947d934 x27=0x1834e790
       50855000	      5084	80002a04	39203793	sltiu	x15,x0,914	  x0:0x00000000 x15=0x00000001
       50865000	      5085	80002a08	0013f663	bgeu	x7,x1,80002a14	  x7:0xfffffdbf  x1:0xfffffc48
       50875000	      5086	00000000	00000013	addi	x0,x0,0	  x0:0x00000000
       50885000	      5087	80002a10	00000013	addi	x0,x0,0	  x0:0x00000000
       50895000	      5088	80002a14	03a66463	bltu	x12,x26,80002a3c	 x12:0x71f73978 x26:0x00000001
       50905000	      5089	80002a18	417354b3	sra	x9,x6,x23	  x6:0x7ffffd9c x23:0xfffff9f5  x9=0x000003ff
       50915000	      5090	80002a1c	01168d33	add	x26,x13,x17	 x13:0x00000000 x17:0xf1f73ee4 x26=0xf1f73ee4
       50925000	      5091	80002a20	01e04733	xor	x14,x0,x30	  x0:0x00000000 x30:0x00000001 x14=0x00000001
       50935000	      5092	80002a24	01994a63	blt	x18,x25,80002a38	 x18:0xe63029c8 x25:0x00000001
       50945000	      5093	00000000	00000013	addi	x0,x0,0	  x0:0x00000000
       50955000	      5094	80002a34	00000013	addi	x0,x0,0	  x0:0x00000000
       50965000	      5095	80002a38	914f0013	addi	x0,x30,-1772	 x30:0x00000001
       50975000	      5096	80002a3c	013551b3	srl	x3,x10,x19	 x10:0xd947d934 x19:0xfffffe1f  x3=0x00000001
       50985000	      5097	80002a40	00000013	addi	x0,x0,0	  x0:0x00000000
       50995000	      5098	80002a44	02d88663	beq	x17,x13,80002a70	 x17:0xf1f73ee4 x13:0x00000000
       51005000	      5099	80002a48	4c2f6513	ori	x10,x30,1218	 x30:0x00000001 x10=0x000004c3
       51015000	      5100	80002a4c	005761b3	or	x3,x14,x5	 x14:0x00000001  x5:0xffffffeb  x3=0xffffffeb
       51025000	      5101	80002a50	02af1c63	bne	x30,x10,80002a88	 x30:0x00000001 x10:0x000004c3
       51035000	      5102	00000000	00000013	addi	x0,x0,0	  x0:0x00000000
       51045000	      5103	80002a84	00000013	addi	x0,x0,0	  x0:0x00000000
       51055000	      5104	80002a88	01f91d93	slli	x27,x18,0x1f	 x18:0xe63029c8 x27=0x00000000
       51065000	      5105	80002a8c	6cb88813	addi	x16,x17,1739	 x17:0xf1f73ee4 x16=0xf1f745af
       51075000	      5106	80002a90	d49dbd13	sltiu	x26,x27,-695	 x27:0x00000000 x26=0x00000001
       51085000	      5107	80002a94	ff4d2813	slti	x16,x26,-12	 x26:0x00000001 x16=0x00000000
       51095000	      5108	80002a98	0f3e6013	ori	x0,x28,243	 x28:0x80009f20
       51105000	      5109	80002a9c	5bede013	ori	x0,x27,1470	 x27:0x00000000
       51115000	      5110	80002aa0	3f2ffc93	andi	x25,x31,1010	 x31:0x80000000 x25=0x00000000
       51125000	      5111	80002aa4	00bd25b3	slt	x11,x26,x11	 x26:0x00000001 x11:0xc1733ea4 x11=0x00000000
       51135000	      5112	80002aa8	00878433	add	x8,x15,x8	 x15:0x00000001  x8:0x00000000  x8=0x00000001
       51145000	      5113	80002aac	0119a233	slt	x4,x19,x17	 x19:0xfffffe1f x17:0xf1f73ee4  x4=0x00000000
       51155000	      5114	80002ab0	00b45413	srli	x8,x8,0xb	  x8:0x00000001  x8=0x00000000
       51165000	      5115	80002ab4	000034b3	sltu	x9,x0,x0	  x0:0x00000000  x0:0x00000000  x9=0x00000000
       51175000	      5116	80002ab8	0084ec33	or	x24,x9,x8	  x9:0x00000000  x8:0x00000000 x24=0x00000000
       51185000	      5117	80002abc	012ddc13	srli	x24,x27,0x12	 x27:0x00000000 x24=0x00000000
       51195000	      5118	80002ac0	4109d813	srai	x16,x19,0x10	 x19:0xfffffe1f x16=0xffffffff
       51205000	      5119	80002ac4	02a54863	blt	x10,x10,80002af4	 x10:0x000004c3 x10:0x000004c3
       51215000	      5120	80002ac8	01037663	bgeu	x6,x16,80002ad4	  x6:0x7ffffd9c x16:0xffffffff
       51225000	      5121	80002acc	01206cb3	or	x25,x0,x18	  x0:0x00000000 x18:0xe63029c8 x25=0xe63029c8
       51235000	      5122	80002ad0	e065f393	andi	x7,x11,-506	 x11:0x00000000  x7=0x00000000
       51245000	      5123	80002ad4	01074d33	xor	x26,x14,x16	 x14:0x00000001 x16:0xffffffff x26=0xfffffffe
       51255000	      5124	80002ad8	01d3ca63	blt	x7,x29,80002aec	  x7:0x00000000 x29:0x00000000
       51265000	      5125	80002adc	00000013	addi	x0,x0,0	  x0:0x00000000
       51275000	      5126	80002ae0	014a9663	bne	x21,x20,80002aec	 x21:0x00000000 x20:0x80009fc4
       51285000	      5127	00000000	00000013	addi	x0,x0,0	  x0:0x00000000
       51295000	      5128	80002ae8	00000013	addi	x0,x0,0	  x0:0x00000000
       51305000	      5129	80002aec	00325033	srl	x0,x4,x3	  x4:0x00000000  x3:0xffffffeb
       51315000	      5130	80002af0	73a44a93	xori	x21,x8,1850	  x8:0x00000000 x21=0x0000073a
       51325000	      5131	80002af4	4d6ac413	xori	x8,x21,1238	 x21:0x0000073a  x8=0x000003ec
       51335000	      5132	80002af8	04da1063	bne	x20,x13,80002b38	 x20:0x80009fc4 x13:0x00000000
       51345000	      5133	00000000	00000013	addi	x0,x0,0	  x0:0x00000000
       51355000	      5134	80002b34	00000013	addi	x0,x0,0	  x0:0x00000000
       51365000	      5135	80002b38	00df5a63	bge	x30,x13,80002b4c	 x30:0x00000001 x13:0x00000000
       51375000	      5136	00000000	00000013	addi	x0,x0,0	  x0:0x00000000
       51385000	      5137	80002b48	00000013	addi	x0,x0,0	  x0:0x00000000
       51395000	      5138	80002b4c	00517663	bgeu	x2,x5,80002b58	  x2:0x00000011  x5:0xffffffeb
       51405000	      5139	80002b50	0112c233	xor	x4,x5,x17	  x5:0xffffffeb x17:0xf1f73ee4  x4=0x0e08c10f
       51415000	      5140	80002b54	003eb333	sltu	x6,x29,x3	 x29:0x00000000  x3:0xffffffeb  x6=0x00000001
       51425000	      5141	80002b58	0134e133	or	x2,x9,x19	  x9:0x00000000 x19:0xfffffe1f  x2=0xfffffe1f
       51435000	      5142	80002b5c	413a8133	sub	x2,x21,x19	 x21:0x0000073a x19:0xfffffe1f  x2=0x0000091b
       51445000	      5143	80002b60	012bd593	srli	x11,x23,0x12	 x23:0xfffff9f5 x11=0x00003fff
       51455000	      5144	80002b64	00948d33	add	x26,x9,x9	  x9:0x00000000  x9:0x00000000 x26=0x00000000
       51465000	      5145	80002b68	01770cb3	add	x25,x14,x23	 x14:0x00000001 x23:0xfffff9f5 x25=0xfffff9f6
       51475000	      5146	80002b6c	01266433	or	x8,x12,x18	 x12:0x71f73978 x18:0xe63029c8  x8=0xf7f739f8
       51485000	      5147	80002b70	400d8f33	sub	x30,x27,x0	 x27:0x00000000  x0:0x00000000 x30=0x00000000
       51495000	      5148	80002b74	0110db93	srli	x23,x1,0x11	  x1:0xfffffc48 x23=0x00007fff
       51505000	      5149	80002b78	001ce333	or	x6,x25,x1	 x25:0xfffff9f6  x1:0xfffffc48  x6=0xfffffdfe
       51515000	      5150	80002b7c	00b7b4b3	sltu	x9,x15,x11	 x15:0x00000001 x11:0x00003fff  x9=0x00000001
       51525000	      5151	80002b80	00ed1463	bne	x26,x14,80002b88	 x26:0x00000000 x14:0x00000001
       51535000	      5152	00000000	00000013	addi	x0,x0,0	  x0:0x00000000
       51545000	      5153	80002b84	00000013	addi	x0,x0,0	  x0:0x00000000
       51555000	      5154	80002b88	418a0c33	sub	x24,x20,x24	 x20:0x80009fc4 x24:0x00000000 x24=0x80009fc4
       51565000	      5155	80002b8c	04a29863	bne	x5,x10,80002bdc	  x5:0xffffffeb x10:0x000004c3
       51575000	      5156	00000000	00000013	addi	x0,x0,0	  x0:0x00000000
       51585000	      5157	80002bd8	00000013	addi	x0,x0,0	  x0:0x00000000
       51595000	      5158	80002bdc	01147833	and	x16,x8,x17	  x8:0xf7f739f8 x17:0xf1f73ee4 x16=0xf1f738e0
       51605000	      5159	80002be0	03cd9463	bne	x27,x28,80002c08	 x27:0x00000000 x28:0x80009f20
       51615000	      5160	00000000	00000013	addi	x0,x0,0	  x0:0x00000000
       51625000	      5161	80002c04	00000013	addi	x0,x0,0	  x0:0x00000000
       51635000	      5162	80002c08	001ead33	slt	x26,x29,x1	 x29:0x00000000  x1:0xfffffc48 x26=0x00000000
       51645000	      5163	80002c0c	03220063	beq	x4,x18,80002c2c	  x4:0x0e08c10f x18:0xe63029c8
       51655000	      5164	80002c10	00114f33	xor	x30,x2,x1	  x2:0x0000091b  x1:0xfffffc48 x30=0xfffff553
       51665000	      5165	80002c14	0a2b6213	ori	x4,x22,162	 x22:0x00000002  x4=0x000000a2
       51675000	      5166	80002c18	00e41133	sll	x2,x8,x14	  x8:0xf7f739f8 x14:0x00000001  x2=0xefee73f0
       51685000	      5167	80002c1c	431b8393	addi	x7,x23,1073	 x23:0x00007fff  x7=0x00008430
       51695000	      5168	80002c20	40468db3	sub	x27,x13,x4	 x13:0x00000000  x4:0x000000a2 x27=0xffffff5e
       51705000	      5169	80002c24	00c861b3	or	x3,x16,x12	 x16:0xf1f738e0 x12:0x71f73978  x3=0xf1f739f8
       51715000	      5170	80002c28	7700ec17	auipc	x24,0x7700e	 x24=0xf7010c24
       51725000	      5171	80002c2c	01765713	srli	x14,x12,0x17	 x12:0x71f73978 x14=0x000000e3
       51735000	      5172	80002c30	013d17b3	sll	x15,x26,x19	 x26:0x00000000 x19:0xfffffe1f x15=0x00000000
       51745000	      5173	80002c34	db3c4f13	xori	x30,x24,-589	 x24:0xf7010c24 x30=0x08fef197
       51755000	      5174	80002c38	405058b3	sra	x17,x0,x5	  x0:0x00000000  x5:0xffffffeb x17=0x00000000
       51765000	      5175	80002c3c	41105133	sra	x2,x0,x17	  x0:0x00000000 x17:0x00000000  x2=0x00000000
       51775000	      5176	80002c40	012e38b3	sltu	x17,x28,x18	 x28:0x80009f20 x18:0xe63029c8 x17=0x00000001
       51785000	      5177	80002c44	9a5d4193	xori	x3,x26,-1627	 x26:0x00000000  x3=0xfffff9a5
       51795000	      5178	80002c48	0180ca63	blt	x1,x24,80002c5c	  x1:0xfffffc48 x24:0xf7010c24
       51805000	      5179	80002c4c	dc5df117	auipc	x2,0xdc5df	  x2=0x5c5e1c48
       51815000	      5180	80002c50	010ebf33	sltu	x30,x29,x16	 x29:0x00000000 x16:0xf1f738e0 x30=0x00000001
       51825000	      5181	80002c54	41478c33	sub	x24,x15,x20	 x15:0x00000000 x20:0x80009fc4 x24=0x7fff603c
       51835000	      5182	80002c58	4109dbb3	sra	x23,x19,x16	 x19:0xfffffe1f x16:0xf1f738e0 x23=0xfffffe1f
       51845000	      5183	80002c5c	00000013	addi	x0,x0,0	  x0:0x00000000
       51855000	      5184	80002c60	01985d93	srli	x27,x16,0x19	 x16:0xf1f738e0 x27=0x00000078
       51865000	      5185	80002c64	00000013	addi	x0,x0,0	  x0:0x00000000
       51875000	      5186	80002c68	f254a693	slti	x13,x9,-219	  x9:0x00000001 x13=0x00000000
       51885000	      5187	80002c6c	00909263	bne	x1,x9,80002c70	  x1:0xfffffc48  x9:0x00000001
       51895000	      5188	00000000	00000013	addi	x0,x0,0	  x0:0x00000000
       51905000	      5189	80002c6c	00000013	addi	x0,x0,0	  x0:0x00000000
       51915000	      5190	80002c70	02bd5e63	bge	x26,x11,80002cac	 x26:0x00000000 x11:0x00003fff
       51925000	      5191	80002c74	a29cf513	andi	x10,x25,-1495	 x25:0xfffff9f6 x10=0xfffff820
       51935000	      5192	80002c78	0310dc63	bge	x1,x17,80002cb0	  x1:0xfffffc48 x17:0x00000001
       51945000	      5193	80002c7c	013421b3	slt	x3,x8,x19	  x8:0xf7f739f8 x19:0xfffffe1f  x3=0x00000001
       51955000	      5194	80002c80	00e00463	beq	x0,x14,80002c88	  x0:0x00000000 x14:0x000000e3
       51965000	      5195	80002c84	7c920413	addi	x8,x4,1993	  x4:0x000000a2  x8=0x0000086b
       51975000	      5196	80002c88	011212b3	sll	x5,x4,x17	  x4:0x000000a2 x17:0x00000001  x5=0x00000144
       51985000	      5197	80002c8c	0118fd33	and	x26,x17,x17	 x17:0x00000001 x17:0x00000001 x26=0x00000001
       51995000	      5198	80002c90	4101d8b3	sra	x17,x3,x16	  x3:0x00000001 x16:0xf1f738e0 x17=0x00000001
       52005000	      5199	80002c94	1836bd93	sltiu	x27,x13,387	 x13:0x00000000 x27=0x00000001
       52015000	      5200	80002c98	00ecddb3	srl	x27,x25,x14	 x25:0xfffff9f6 x14:0x000000e3 x27=0x1fffff3e
       52025000	      5201	80002c9c	000cb5b3	sltu	x11,x25,x0	 x25:0xfffff9f6  x0:0x00000000 x11=0x00000000
       52035000	      5202	80002ca0	77395817	auipc	x16,0x77395	 x16=0xf7397c9c
       52045000	      5203	80002ca4	007f4f33	xor	x30,x30,x7	 x30:0x00000001  x7:0x00008430 x30=0x00008431
       52055000	      5204	80002ca8	54e3bd13	sltiu	x26,x7,1358	  x7:0x00008430 x26=0x00000000
       52065000	      5205	80002cac	0155d013	srli	x0,x11,0x15	 x11:0x00000000
       52075000	      5206	80002cb0	a4a57713	andi	x14,x10,-1462	 x10:0xfffff820 x14=0xfffff800
       52085000	      5207	80002cb4	dcad3793	sltiu	x15,x26,-566	 x26:0x00000000 x15=0x00000001
       52095000	      5208	80002cb8	2a550693	addi	x13,x10,677	 x10:0xfffff820 x13=0xfffffac5
       52105000	      5209	80002cbc	01f51d33	sll	x26,x10,x31	 x10:0xfffff820 x31:0x80000000 x26=0xfffff820
       52115000	      5210	80002cc0	019e1513	slli	x10,x28,0x19	 x28:0x80009f20 x10=0x40000000
       52125000	      5211	80002cc4	dbb72413	slti	x8,x14,-581	 x14:0xfffff800  x8=0x00000001
       52135000	      5212	80002cc8	01de3333	sltu	x6,x28,x29	 x28:0x80009f20 x29:0x00000000  x6=0x00000000
       52145000	      5213	80002ccc	9828ab13	slti	x22,x17,-1662	 x17:0x00000001 x22=0x00000000
       52155000	      5214	80002cd0	01b74263	blt	x14,x27,80002cd4	 x14:0xfffff800 x27:0x1fffff3e
       52165000	      5215	00000000	00000013	addi	x0,x0,0	  x0:0x00000000
       52175000	      5216	80002cd0	00000013	addi	x0,x0,0	  x0:0x00000000
       52185000	      5217	80002cd4	6d38c537	lui	x10,0x6d38c	 x10=0x6d38c000
       52195000	      5218	80002cd8	b6538293	addi	x5,x7,-1179	  x7:0x00008430  x5=0x00007f95
       52205000	      5219	80002cdc	011f8133	add	x2,x31,x17	 x31:0x80000000 x17:0x00000001  x2=0x80000001
       52215000	      5220	80002ce0	00431f13	slli	x30,x6,0x4	  x6:0x00000000 x30=0x00000000
       52225000	      5221	80002ce4	0031c633	xor	x12,x3,x3	  x3:0x00000001  x3:0x00000001 x12=0x00000000
       52235000	      5222	80002ce8	01edf033	and	x0,x27,x30	 x27:0x1fffff3e x30:0x00000000
       52245000	      5223	80002cec	b5730093	addi	x1,x6,-1193	  x6:0x00000000  x1=0xfffffb57
       52255000	      5224	80002cf0	41ee8eb3	sub	x29,x29,x30	 x29:0x00000000 x30:0x00000000 x29=0x00000000
       52265000	      5225	80002cf4	02935063	bge	x6,x9,80002d14	  x6:0x00000000  x9:0x00000001
       52275000	      5226	80002cf8	5129f513	andi	x10,x19,1298	 x19:0xfffffe1f x10=0x00000412
       52285000	      5227	80002cfc	021b0a63	beq	x22,x1,80002d30	 x22:0x00000000  x1:0xfffffb57
       52295000	      5228	80002d00	0a753c13	sltiu	x24,x10,167	 x10:0x00000412 x24=0x00000000
       52305000	      5229	80002d04	c754b513	sltiu	x10,x9,-907	  x9:0x00000001 x10=0x00000001
       52315000	      5230	80002d08	009cec33	or	x24,x25,x9	 x25:0xfffff9f6  x9:0x00000001 x24=0xfffff9f7
       52325000	      5231	80002d0c	00529663	bne	x5,x5,80002d18	  x5:0x00007f95  x5:0x00007f95
       52335000	      5232	80002d10	4aa12613	slti	x12,x2,1194	  x2:0x80000001 x12=0x00000001
       52345000	      5233	80002d14	00704333	xor	x6,x0,x7	  x0:0x00000000  x7:0x00008430  x6=0x00008430
       52355000	      5234	80002d18	e8117a93	andi	x21,x2,-383	  x2:0x80000001 x21=0x80000001
       52365000	      5235	80002d1c	287aee93	ori	x29,x21,647	 x21:0x80000001 x29=0x80000287
       52375000	      5236	80002d20	4cc68d13	addi	x26,x13,1228	 x13:0xfffffac5 x26=0xffffff91
       52385000	      5237	80002d24	00bda8b3	slt	x17,x27,x11	 x27:0x1fffff3e x11:0x00000000 x17=0x00000000
       52395000	      5238	80002d28	41cad033	sra	x0,x21,x28	 x21:0x80000001 x28:0x80009f20
       52405000	      5239	80002d2c	01b15663	bge	x2,x27,80002d38	  x2:0x80000001 x27:0x1fffff3e
       52415000	      5240	80002d30	57322437	lui	x8,0x57322	  x8=0x57322000
       52425000	      5241	80002d34	00000013	addi	x0,x0,0	  x0:0x00000000
       52435000	      5242	80002d38	00bd6433	or	x8,x26,x11	 x26:0xffffff91 x11:0x00000000  x8=0xffffff91
       52445000	      5243	80002d3c	faa7b313	sltiu	x6,x15,-86	 x15:0x00000001  x6=0x00000001
       52455000	      5244	80002d40	0183d133	srl	x2,x7,x24	  x7:0x00008430 x24:0xfffff9f7  x2=0x00000000
       52465000	      5245	80002d44	00d8ea63	bltu	x17,x13,80002d58	 x17:0x00000000 x13:0xfffffac5
       52475000	      5246	00000000	00000013	addi	x0,x0,0	  x0:0x00000000
       52485000	      5247	80002d54	00000013	addi	x0,x0,0	  x0:0x00000000
       52495000	      5248	80002d58	039d7063	bgeu	x26,x25,80002d78	 x26:0xffffff91 x25:0xfffff9f6
       52505000	      5249	00000000	00000013	addi	x0,x0,0	  x0:0x00000000
       52515000	      5250	80002d74	00000013	addi	x0,x0,0	  x0:0x00000000
       52525000	      5251	80002d78	0107b533	sltu	x10,x15,x16	 x15:0x00000001 x16:0xf7397c9c x10=0x00000001
       52535000	      5252	80002d7c	012be3b3	or	x7,x23,x18	 x23:0xfffffe1f x18:0xe63029c8  x7=0xffffffdf
       52545000	      5253	80002d80	036f5c63	bge	x30,x22,80002db8	 x30:0x00000000 x22:0x00000000
       52555000	      5254	00000000	00000013	addi	x0,x0,0	  x0:0x00000000
       52565000	      5255	80002db4	00000013	addi	x0,x0,0	  x0:0x00000000
       52575000	      5256	80002db8	00f6bc33	sltu	x24,x13,x15	 x13:0xfffffac5 x15:0x00000001 x24=0x00000000
       52585000	      5257	80002dbc	00000013	addi	x0,x0,0	  x0:0x00000000
       52595000	      5258	80002dc0	0370da63	bge	x1,x23,80002df4	  x1:0xfffffb57 x23:0xfffffe1f
       52605000	      5259	80002dc4	00760c63	beq	x12,x7,80002ddc	 x12:0x00000001  x7:0xffffffdf
       52615000	      5260	80002dc8	0050a333	slt	x6,x1,x5	  x1:0xfffffb57  x5:0x00007f95  x6=0x00000001
       52625000	      5261	80002dcc	049ad063	bge	x21,x9,80002e0c	 x21:0x80000001  x9:0x00000001
       52635000	      5262	80002dd0	404c8733	sub	x14,x25,x4	 x25:0xfffff9f6  x4:0x000000a2 x14=0xfffff954
       52645000	      5263	80002dd4	00000013	addi	x0,x0,0	  x0:0x00000000
       52655000	      5264	80002dd8	068d0c93	addi	x25,x26,104	 x26:0xffffff91 x25=0xfffffff9
       52665000	      5265	80002ddc	41f455b3	sra	x11,x8,x31	  x8:0xffffff91 x31:0x80000000 x11=0xffffff91
       52675000	      5266	80002de0	34b0f913	andi	x18,x1,843	  x1:0xfffffb57 x18=0x00000343
       52685000	      5267	80002de4	01154663	blt	x10,x17,80002df0	 x10:0x00000001 x17:0x00000000
       52695000	      5268	80002de8	1178c013	xori	x0,x17,279	 x17:0x00000000
       52705000	      5269	80002dec	df4cff13	andi	x30,x25,-524	 x25:0xfffffff9 x30=0xfffffdf0
       52715000	      5270	80002df0	017b5e63	bge	x22,x23,80002e0c	 x22:0x00000000 x23:0xfffffe1f
       52725000	      5271	00000000	00000013	addi	x0,x0,0	  x0:0x00000000
       52735000	      5272	80002e08	00000013	addi	x0,x0,0	  x0:0x00000000
       52745000	      5273	80002e0c	00c89cb3	sll	x25,x17,x12	 x17:0x00000000 x12:0x00000001 x25=0x00000000
       52755000	      5274	80002e10	030d5063	bge	x26,x16,80002e30	 x26:0xffffff91 x16:0xf7397c9c
       52765000	      5275	00000000	00000013	addi	x0,x0,0	  x0:0x00000000
       52775000	      5276	80002e2c	00000013	addi	x0,x0,0	  x0:0x00000000
       52785000	      5277	80002e30	000097b3	sll	x15,x1,x0	  x1:0xfffffb57  x0:0x00000000 x15=0xfffffb57
       52795000	      5278	80002e34	41d00433	sub	x8,x0,x29	  x0:0x00000000 x29:0x80000287  x8=0x7ffffd79
       52805000	      5279	80002e38	014e4c63	blt	x28,x20,80002e50	 x28:0x80009f20 x20:0x80009fc4
       52815000	      5280	00000000	00000013	addi	x0,x0,0	  x0:0x00000000
       52825000	      5281	80002e4c	00000013	addi	x0,x0,0	  x0:0x00000000
       52835000	      5282	80002e50	00000013	addi	x0,x0,0	  x0:0x00000000
       52845000	      5283	80002e54	1b5dc613	xori	x12,x27,437	 x27:0x1fffff3e x12=0x1ffffe8b
       52855000	      5284	80002e58	033c5e63	bge	x24,x19,80002e94	 x24:0x00000000 x19:0xfffffe1f
       52865000	      5285	00000000	00000013	addi	x0,x0,0	  x0:0x00000000
       52875000	      5286	80002e90	00000013	addi	x0,x0,0	  x0:0x00000000
       52885000	      5287	80002e94	009b6533	or	x10,x22,x9	 x22:0x00000000  x9:0x00000001 x10=0x00000001
       52895000	      5288	80002e98	05498863	beq	x19,x20,80002ee8	 x19:0xfffffe1f x20:0x80009fc4
       52905000	      5289	80002e9c	019de633	or	x12,x27,x25	 x27:0x1fffff3e x25:0x00000000 x12=0x1fffff3e
       52915000	      5290	80002ea0	01ae3433	sltu	x8,x28,x26	 x28:0x80009f20 x26:0xffffff91  x8=0x00000001
       52925000	      5291	80002ea4	008de8b3	or	x17,x27,x8	 x27:0x1fffff3e  x8:0x00000001 x17=0x1fffff3f
       52935000	      5292	80002ea8	039fe863	bltu	x31,x25,80002ed8	 x31:0x80000000 x25:0x00000000
       52945000	      5293	80002eac	00000013	addi	x0,x0,0	  x0:0x00000000
       52955000	      5294	80002eb0	40b55313	srai	x6,x10,0xb	 x10:0x00000001  x6=0x00000000
       52965000	      5295	80002eb4	00000013	addi	x0,x0,0	  x0:0x00000000
       52975000	      5296	80002eb8	00dcca63	blt	x25,x13,80002ecc	 x25:0x00000000 x13:0xfffffac5
       52985000	      5297	80002ebc	00000013	addi	x0,x0,0	  x0:0x00000000
       52995000	      5298	80002ec0	0034fcb3	and	x25,x9,x3	  x9:0x00000001  x3:0x00000001 x25=0x00000001
       53005000	      5299	80002ec4	0136d533	srl	x10,x13,x19	 x13:0xfffffac5 x19:0xfffffe1f x10=0x00000001
       53015000	      5300	80002ec8	c8cac793	xori	x15,x21,-884	 x21:0x80000001 x15=0x7ffffc8d
       53025000	      5301	80002ecc	01e79463	bne	x15,x30,80002ed4	 x15:0x7ffffc8d x30:0xfffffdf0
       53035000	      5302	00000000	00000013	addi	x0,x0,0	  x0:0x00000000
       53045000	      5303	80002ed0	00000013	addi	x0,x0,0	  x0:0x00000000
       53055000	      5304	80002ed4	0f7aff13	andi	x30,x21,247	 x21:0x80000001 x30=0x00000001
       53065000	      5305	80002ed8	4a4c6213	ori	x4,x24,1188	 x24:0x00000000  x4=0x000004a4
       53075000	      5306	80002edc	403e8233	sub	x4,x29,x3	 x29:0x80000287  x3:0x00000001  x4=0x80000286
       53085000	      5307	80002ee0	0316e863	bltu	x13,x17,80002f10	 x13:0xfffffac5 x17:0x1fffff3f
       53095000	      5308	80002ee4	40495a93	srai	x21,x18,0x4	 x18:0x00000343 x21=0x00000034
       53105000	      5309	80002ee8	000ad313	srli	x6,x21,0x0	 x21:0x00000034  x6=0x00000034
       53115000	      5310	80002eec	014d04b3	add	x9,x26,x20	 x26:0xffffff91 x20:0x80009fc4  x9=0x80009f55
       53125000	      5311	80002ef0	01ce3f33	sltu	x30,x28,x28	 x28:0x80009f20 x28:0x80009f20 x30=0x00000000
       53135000	      5312	80002ef4	a142bc93	sltiu	x25,x5,-1516	  x5:0x00007f95 x25=0x00000001
       53145000	      5313	80002ef8	e25f7993	andi	x19,x30,-475	 x30:0x00000000 x19=0x00000000
       53155000	      5314	80002efc	4a780a93	addi	x21,x16,1191	 x16:0xf7397c9c x21=0xf7398143
       53165000	      5315	80002f00	00bf7e63	bgeu	x30,x11,80002f1c	 x30:0x00000000 x11:0xffffff91
       53175000	      5316	80002f04	56143613	sltiu	x12,x8,1377	  x8:0x00000001 x12=0x00000001
       53185000	      5317	80002f08	045b4863	blt	x22,x5,80002f58	 x22:0x00000000  x5:0x00007f95
       53195000	      5318	00000000	00000013	addi	x0,x0,0	  x0:0x00000000
       53205000	      5319	80002f54	00000013	addi	x0,x0,0	  x0:0x00000000
       53215000	      5320	80002f58	0093b2b3	sltu	x5,x7,x9	  x7:0xffffffdf  x9:0x80009f55  x5=0x00000000
       53225000	      5321	80002f5c	009a71b3	and	x3,x20,x9	 x20:0x80009fc4  x9:0x80009f55  x3=0x80009f44
       53235000	      5322	80002f60	404755b3	sra	x11,x14,x4	 x14:0xfffff954  x4:0x80000286 x11=0xffffffe5
       53245000	      5323	80002f64	00087433	and	x8,x16,x0	 x16:0xf7397c9c  x0:0x00000000  x8=0x00000000
       53255000	      5324	80002f68	406b5193	srai	x3,x22,0x6	 x22:0x00000000  x3=0x00000000
       53265000	      5325	80002f6c	00000013	addi	x0,x0,0	  x0:0x00000000
       53275000	      5326	80002f70	19a47513	andi	x10,x8,410	  x8:0x00000000 x10=0x00000000
       53285000	      5327	80002f74	013af333	and	x6,x21,x19	 x21:0xf7398143 x19:0x00000000  x6=0x00000000
       53295000	      5328	80002f78	81bce013	ori	x0,x25,-2021	 x25:0x00000001
       53305000	      5329	80002f7c	097c9817	auipc	x16,0x97c9	 x16=0x897cbf78
       53315000	      5330	80002f80	00334ab3	xor	x21,x6,x3	  x6:0x00000000  x3:0x00000000 x21=0x00000000
       53325000	      5331	80002f84	00499693	slli	x13,x19,0x4	 x19:0x00000000 x13=0x00000000
       53335000	      5332	80002f88	004eadb3	slt	x27,x29,x4	 x29:0x80000287  x4:0x80000286 x27=0x00000000
       53345000	      5333	80002f8c	00000013	addi	x0,x0,0	  x0:0x00000000
       53355000	      5334	80002f90	01a26263	bltu	x4,x26,80002f94	  x4:0x80000286 x26:0xffffff91
       53365000	      5335	00000000	00000013	addi	x0,x0,0	  x0:0x00000000
       53375000	      5336	80002f90	00000013	addi	x0,x0,0	  x0:0x00000000
       53385000	      5337	80002f94	001ce463	bltu	x25,x1,80002f9c	 x25:0x00000001  x1:0xfffffb57
       53395000	      5338	00000000	00000013	addi	x0,x0,0	  x0:0x00000000
       53405000	      5339	80002f98	00000013	addi	x0,x0,0	  x0:0x00000000
       53415000	      5340	80002f9c	002277b3	and	x15,x4,x2	  x4:0x80000286  x2:0x00000000 x15=0x00000000
       53425000	      5341	80002fa0	93254413	xori	x8,x10,-1742	 x10:0x00000000  x8=0xfffff932
       53435000	      5342	80002fa4	e45f0897	auipc	x17,0xe45f0	 x17=0x645f2fa0
       53445000	      5343	80002fa8	011c4a63	blt	x24,x17,80002fbc	 x24:0x00000000 x17:0x645f2fa0
       53455000	      5344	00000000	00000013	addi	x0,x0,0	  x0:0x00000000
       53465000	      5345	80002fb8	00000013	addi	x0,x0,0	  x0:0x00000000
       53475000	      5346	80002fbc	1a657837	lui	x16,0x1a657	 x16=0x1a657000
       53485000	      5347	80002fc0	41028533	sub	x10,x5,x16	  x5:0x00000000 x16:0x1a657000 x10=0xe59a9000
       53495000	      5348	80002fc4	004e2d03	lw	x26,4(x28)	 x28:0x80009f20 x26=0x800016c8 PA:0x80009f24
       53505000	      5349	80002fc8	08e30097	auipc	x1,0x8e30	  x1=0x88e32fc4
       53515000	      5350	80002fcc	020e0e13	addi	x28,x28,32	 x28:0x80009f20 x28=0x80009f40
       53525000	      5351	80002fd0	00641233	sll	x4,x8,x6	  x8:0xfffff932  x6:0x00000000  x4=0xfffff932
       53535000	      5352	80002fd4	d4eb4e97	auipc	x29,0xd4eb4	 x29=0x54eb6fd0
       53545000	      5353	80002fd8	001d0a93	addi	x21,x26,1	 x26:0x800016c8 x21=0x800016c9
       53555000	      5354	80002fdc	000a8ae7	jalr	x21,x21,0	 x21:0x800016c9 x21=0x80002fdc
       53565000	      5355	00000000	00000013	addi	x0,x0,0	  x0:0x00000000
       53575000	      5356	800016c8	00000013	addi	x0,x0,0	  x0:0x00000000
       53585000	      5357	800016cc	ff600e93	addi	x29,x0,-10	  x0:0x00000000 x29=0xfffffff6
       53595000	      5358	800016d0	194ddb37	lui	x22,0x194dd	 x22=0x194dd000
       53605000	      5359	800016d4	41da5d13	srai	x26,x20,0x1d	 x20:0x80009fc4 x26=0xfffffffc
       53615000	      5360	800016d8	00e00a93	addi	x21,x0,14	  x0:0x00000000 x21=0x0000000e
       53625000	      5361	800016dc	539e8313	addi	x6,x29,1337	 x29:0xfffffff6  x6=0x0000052f
       53635000	      5362	800016e0	167a4337	lui	x6,0x167a4	  x6=0x167a4000
       53645000	      5363	800016e4	19410813	addi	x16,x2,404	  x2:0x00000000 x16=0x00000194
       53655000	      5364	800016e8	79f259b7	lui	x19,0x79f25	 x19=0x79f25000
       53665000	      5365	800016ec	004e8e93	addi	x29,x29,4	 x29:0xfffffff6 x29=0xfffffffa
       53675000	      5366	800016f0	019334b3	sltu	x9,x6,x25	  x6:0x167a4000 x25:0x00000001  x9=0x00000000
       53685000	      5367	800016f4	00e42b33	slt	x22,x8,x14	  x8:0xfffff932 x14:0xfffff954 x22=0x00000001
       53695000	      5368	800016f8	01e45b93	srli	x23,x8,0x1e	  x8:0xfffff932 x23=0x00000003
       53705000	      5369	800016fc	00800093	addi	x1,x0,8	  x0:0x00000000  x1=0x00000008
       53715000	      5370	80001700	019c4b33	xor	x22,x24,x25	 x24:0x00000000 x25:0x00000001 x22=0x00000001
       53725000	      5371	80001704	01c49813	slli	x16,x9,0x1c	  x9:0x00000000 x16=0x00000000
       53735000	      5372	80001708	01100913	addi	x18,x0,17	  x0:0x00000000 x18=0x00000011
       53745000	      5373	8000170c	00a61433	sll	x8,x12,x10	 x12:0x00000001 x10:0xe59a9000  x8=0x00000001
       53755000	      5374	80001710	018e45b3	xor	x11,x28,x24	 x28:0x80009f40 x24:0x00000000 x11=0x80009f40
       53765000	      5375	80001714	01a2fc33	and	x24,x5,x26	  x5:0x00000000 x26:0xfffffffc x24=0x00000000
       53775000	      5376	80001718	01bf9b33	sll	x22,x31,x27	 x31:0x80000000 x27:0x00000000 x22=0x80000000
       53785000	      5377	8000171c	00bc2133	slt	x2,x24,x11	 x24:0x00000000 x11:0x80009f40  x2=0x00000000
       53795000	      5378	80001720	01ecc4b3	xor	x9,x25,x30	 x25:0x00000001 x30:0x00000000  x9=0x00000001
       53805000	      5379	80001724	00108093	addi	x1,x1,1	  x1:0x00000008  x1=0x00000009
       53815000	      5380	80001728	41a75513	srai	x10,x14,0x1a	 x14:0xfffff954 x10=0xffffffff
       53825000	      5381	8000172c	40b581b3	sub	x3,x11,x11	 x11:0x80009f40 x11:0x80009f40  x3=0x00000000
       53835000	      5382	80001730	111ae413	ori	x8,x21,273	 x21:0x0000000e  x8=0x0000011f
       53845000	      5383	80001734	41415793	srai	x15,x2,0x14	  x2:0x00000000 x15=0x00000000
       53855000	      5384	80001738	fd20cee3	blt	x1,x18,80001714	  x1:0x00000009 x18:0x00000011
       53865000	      5385	00000000	00000013	addi	x0,x0,0	  x0:0x00000000
       53875000	      5386	80001710	00000013	addi	x0,x0,0	  x0:0x00000000
       53885000	      5387	80001714	01a2fc33	and	x24,x5,x26	  x5:0x00000000 x26:0xfffffffc x24=0x00000000
       53895000	      5388	80001718	01bf9b33	sll	x22,x31,x27	 x31:0x80000000 x27:0x00000000 x22=0x80000000
       53905000	      5389	8000171c	00bc2133	slt	x2,x24,x11	 x24:0x00000000 x11:0x80009f40  x2=0x00000000
       53915000	      5390	80001720	01ecc4b3	xor	x9,x25,x30	 x25:0x00000001 x30:0x00000000  x9=0x00000001
       53925000	      5391	80001724	00108093	addi	x1,x1,1	  x1:0x00000009  x1=0x0000000a
       53935000	      5392	80001728	41a75513	srai	x10,x14,0x1a	 x14:0xfffff954 x10=0xffffffff
       53945000	      5393	8000172c	40b581b3	sub	x3,x11,x11	 x11:0x80009f40 x11:0x80009f40  x3=0x00000000
       53955000	      5394	80001730	111ae413	ori	x8,x21,273	 x21:0x0000000e  x8=0x0000011f
       53965000	      5395	80001734	41415793	srai	x15,x2,0x14	  x2:0x00000000 x15=0x00000000
       53975000	      5396	80001738	fd20cee3	blt	x1,x18,80001714	  x1:0x0000000a x18:0x00000011
       53985000	      5397	00000000	00000013	addi	x0,x0,0	  x0:0x00000000
       53995000	      5398	80001710	00000013	addi	x0,x0,0	  x0:0x00000000
       54005000	      5399	80001714	01a2fc33	and	x24,x5,x26	  x5:0x00000000 x26:0xfffffffc x24=0x00000000
       54015000	      5400	80001718	01bf9b33	sll	x22,x31,x27	 x31:0x80000000 x27:0x00000000 x22=0x80000000
       54025000	      5401	8000171c	00bc2133	slt	x2,x24,x11	 x24:0x00000000 x11:0x80009f40  x2=0x00000000
       54035000	      5402	80001720	01ecc4b3	xor	x9,x25,x30	 x25:0x00000001 x30:0x00000000  x9=0x00000001
       54045000	      5403	80001724	00108093	addi	x1,x1,1	  x1:0x0000000a  x1=0x0000000b
       54055000	      5404	80001728	41a75513	srai	x10,x14,0x1a	 x14:0xfffff954 x10=0xffffffff
       54065000	      5405	8000172c	40b581b3	sub	x3,x11,x11	 x11:0x80009f40 x11:0x80009f40  x3=0x00000000
       54075000	      5406	80001730	111ae413	ori	x8,x21,273	 x21:0x0000000e  x8=0x0000011f
       54085000	      5407	80001734	41415793	srai	x15,x2,0x14	  x2:0x00000000 x15=0x00000000
       54095000	      5408	80001738	fd20cee3	blt	x1,x18,80001714	  x1:0x0000000b x18:0x00000011
       54105000	      5409	00000000	00000013	addi	x0,x0,0	  x0:0x00000000
       54115000	      5410	80001710	00000013	addi	x0,x0,0	  x0:0x00000000
       54125000	      5411	80001714	01a2fc33	and	x24,x5,x26	  x5:0x00000000 x26:0xfffffffc x24=0x00000000
       54135000	      5412	80001718	01bf9b33	sll	x22,x31,x27	 x31:0x80000000 x27:0x00000000 x22=0x80000000
       54145000	      5413	8000171c	00bc2133	slt	x2,x24,x11	 x24:0x00000000 x11:0x80009f40  x2=0x00000000
       54155000	      5414	80001720	01ecc4b3	xor	x9,x25,x30	 x25:0x00000001 x30:0x00000000  x9=0x00000001
       54165000	      5415	80001724	00108093	addi	x1,x1,1	  x1:0x0000000b  x1=0x0000000c
       54175000	      5416	80001728	41a75513	srai	x10,x14,0x1a	 x14:0xfffff954 x10=0xffffffff
       54185000	      5417	8000172c	40b581b3	sub	x3,x11,x11	 x11:0x80009f40 x11:0x80009f40  x3=0x00000000
       54195000	      5418	80001730	111ae413	ori	x8,x21,273	 x21:0x0000000e  x8=0x0000011f
       54205000	      5419	80001734	41415793	srai	x15,x2,0x14	  x2:0x00000000 x15=0x00000000
       54215000	      5420	80001738	fd20cee3	blt	x1,x18,80001714	  x1:0x0000000c x18:0x00000011
       54225000	      5421	00000000	00000013	addi	x0,x0,0	  x0:0x00000000
       54235000	      5422	80001710	00000013	addi	x0,x0,0	  x0:0x00000000
       54245000	      5423	80001714	01a2fc33	and	x24,x5,x26	  x5:0x00000000 x26:0xfffffffc x24=0x00000000
       54255000	      5424	80001718	01bf9b33	sll	x22,x31,x27	 x31:0x80000000 x27:0x00000000 x22=0x80000000
       54265000	      5425	8000171c	00bc2133	slt	x2,x24,x11	 x24:0x00000000 x11:0x80009f40  x2=0x00000000
       54275000	      5426	80001720	01ecc4b3	xor	x9,x25,x30	 x25:0x00000001 x30:0x00000000  x9=0x00000001
       54285000	      5427	80001724	00108093	addi	x1,x1,1	  x1:0x0000000c  x1=0x0000000d
       54295000	      5428	80001728	41a75513	srai	x10,x14,0x1a	 x14:0xfffff954 x10=0xffffffff
       54305000	      5429	8000172c	40b581b3	sub	x3,x11,x11	 x11:0x80009f40 x11:0x80009f40  x3=0x00000000
       54315000	      5430	80001730	111ae413	ori	x8,x21,273	 x21:0x0000000e  x8=0x0000011f
       54325000	      5431	80001734	41415793	srai	x15,x2,0x14	  x2:0x00000000 x15=0x00000000
       54335000	      5432	80001738	fd20cee3	blt	x1,x18,80001714	  x1:0x0000000d x18:0x00000011
       54345000	      5433	00000000	00000013	addi	x0,x0,0	  x0:0x00000000
       54355000	      5434	80001710	00000013	addi	x0,x0,0	  x0:0x00000000
       54365000	      5435	80001714	01a2fc33	and	x24,x5,x26	  x5:0x00000000 x26:0xfffffffc x24=0x00000000
       54375000	      5436	80001718	01bf9b33	sll	x22,x31,x27	 x31:0x80000000 x27:0x00000000 x22=0x80000000
       54385000	      5437	8000171c	00bc2133	slt	x2,x24,x11	 x24:0x00000000 x11:0x80009f40  x2=0x00000000
       54395000	      5438	80001720	01ecc4b3	xor	x9,x25,x30	 x25:0x00000001 x30:0x00000000  x9=0x00000001
       54405000	      5439	80001724	00108093	addi	x1,x1,1	  x1:0x0000000d  x1=0x0000000e
       54415000	      5440	80001728	41a75513	srai	x10,x14,0x1a	 x14:0xfffff954 x10=0xffffffff
       54425000	      5441	8000172c	40b581b3	sub	x3,x11,x11	 x11:0x80009f40 x11:0x80009f40  x3=0x00000000
       54435000	      5442	80001730	111ae413	ori	x8,x21,273	 x21:0x0000000e  x8=0x0000011f
       54445000	      5443	80001734	41415793	srai	x15,x2,0x14	  x2:0x00000000 x15=0x00000000
       54455000	      5444	80001738	fd20cee3	blt	x1,x18,80001714	  x1:0x0000000e x18:0x00000011
       54465000	      5445	00000000	00000013	addi	x0,x0,0	  x0:0x00000000
       54475000	      5446	80001710	00000013	addi	x0,x0,0	  x0:0x00000000
       54485000	      5447	80001714	01a2fc33	and	x24,x5,x26	  x5:0x00000000 x26:0xfffffffc x24=0x00000000
       54495000	      5448	80001718	01bf9b33	sll	x22,x31,x27	 x31:0x80000000 x27:0x00000000 x22=0x80000000
       54505000	      5449	8000171c	00bc2133	slt	x2,x24,x11	 x24:0x00000000 x11:0x80009f40  x2=0x00000000
       54515000	      5450	80001720	01ecc4b3	xor	x9,x25,x30	 x25:0x00000001 x30:0x00000000  x9=0x00000001
       54525000	      5451	80001724	00108093	addi	x1,x1,1	  x1:0x0000000e  x1=0x0000000f
       54535000	      5452	80001728	41a75513	srai	x10,x14,0x1a	 x14:0xfffff954 x10=0xffffffff
       54545000	      5453	8000172c	40b581b3	sub	x3,x11,x11	 x11:0x80009f40 x11:0x80009f40  x3=0x00000000
       54555000	      5454	80001730	111ae413	ori	x8,x21,273	 x21:0x0000000e  x8=0x0000011f
       54565000	      5455	80001734	41415793	srai	x15,x2,0x14	  x2:0x00000000 x15=0x00000000
       54575000	      5456	80001738	fd20cee3	blt	x1,x18,80001714	  x1:0x0000000f x18:0x00000011
       54585000	      5457	00000000	00000013	addi	x0,x0,0	  x0:0x00000000
       54595000	      5458	80001710	00000013	addi	x0,x0,0	  x0:0x00000000
       54605000	      5459	80001714	01a2fc33	and	x24,x5,x26	  x5:0x00000000 x26:0xfffffffc x24=0x00000000
       54615000	      5460	80001718	01bf9b33	sll	x22,x31,x27	 x31:0x80000000 x27:0x00000000 x22=0x80000000
       54625000	      5461	8000171c	00bc2133	slt	x2,x24,x11	 x24:0x00000000 x11:0x80009f40  x2=0x00000000
       54635000	      5462	80001720	01ecc4b3	xor	x9,x25,x30	 x25:0x00000001 x30:0x00000000  x9=0x00000001
       54645000	      5463	80001724	00108093	addi	x1,x1,1	  x1:0x0000000f  x1=0x00000010
       54655000	      5464	80001728	41a75513	srai	x10,x14,0x1a	 x14:0xfffff954 x10=0xffffffff
       54665000	      5465	8000172c	40b581b3	sub	x3,x11,x11	 x11:0x80009f40 x11:0x80009f40  x3=0x00000000
       54675000	      5466	80001730	111ae413	ori	x8,x21,273	 x21:0x0000000e  x8=0x0000011f
       54685000	      5467	80001734	41415793	srai	x15,x2,0x14	  x2:0x00000000 x15=0x00000000
       54695000	      5468	80001738	fd20cee3	blt	x1,x18,80001714	  x1:0x00000010 x18:0x00000011
       54705000	      5469	00000000	00000013	addi	x0,x0,0	  x0:0x00000000
       54715000	      5470	80001710	00000013	addi	x0,x0,0	  x0:0x00000000
       54725000	      5471	80001714	01a2fc33	and	x24,x5,x26	  x5:0x00000000 x26:0xfffffffc x24=0x00000000
       54735000	      5472	80001718	01bf9b33	sll	x22,x31,x27	 x31:0x80000000 x27:0x00000000 x22=0x80000000
       54745000	      5473	8000171c	00bc2133	slt	x2,x24,x11	 x24:0x00000000 x11:0x80009f40  x2=0x00000000
       54755000	      5474	80001720	01ecc4b3	xor	x9,x25,x30	 x25:0x00000001 x30:0x00000000  x9=0x00000001
       54765000	      5475	80001724	00108093	addi	x1,x1,1	  x1:0x00000010  x1=0x00000011
       54775000	      5476	80001728	41a75513	srai	x10,x14,0x1a	 x14:0xfffff954 x10=0xffffffff
       54785000	      5477	8000172c	40b581b3	sub	x3,x11,x11	 x11:0x80009f40 x11:0x80009f40  x3=0x00000000
       54795000	      5478	80001730	111ae413	ori	x8,x21,273	 x21:0x0000000e  x8=0x0000011f
       54805000	      5479	80001734	41415793	srai	x15,x2,0x14	  x2:0x00000000 x15=0x00000000
       54815000	      5480	80001738	fd20cee3	blt	x1,x18,80001714	  x1:0x00000011 x18:0x00000011
       54825000	      5481	8000173c	a23ee693	ori	x13,x29,-1501	 x29:0xfffffffa x13=0xfffffffb
       54835000	      5482	80001740	4c5bb113	sltiu	x2,x23,1221	 x23:0x00000003  x2=0x00000001
       54845000	      5483	80001744	fb5e92e3	bne	x29,x21,800016e8	 x29:0xfffffffa x21:0x0000000e
       54855000	      5484	00000000	00000013	addi	x0,x0,0	  x0:0x00000000
       54865000	      5485	800016e4	00000013	addi	x0,x0,0	  x0:0x00000000
       54875000	      5486	800016e8	79f259b7	lui	x19,0x79f25	 x19=0x79f25000
       54885000	      5487	800016ec	004e8e93	addi	x29,x29,4	 x29:0xfffffffa x29=0xfffffffe
       54895000	      5488	800016f0	019334b3	sltu	x9,x6,x25	  x6:0x167a4000 x25:0x00000001  x9=0x00000000
       54905000	      5489	800016f4	00e42b33	slt	x22,x8,x14	  x8:0x0000011f x14:0xfffff954 x22=0x00000000
       54915000	      5490	800016f8	01e45b93	srli	x23,x8,0x1e	  x8:0x0000011f x23=0x00000000
       54925000	      5491	800016fc	00800093	addi	x1,x0,8	  x0:0x00000000  x1=0x00000008
       54935000	      5492	80001700	019c4b33	xor	x22,x24,x25	 x24:0x00000000 x25:0x00000001 x22=0x00000001
       54945000	      5493	80001704	01c49813	slli	x16,x9,0x1c	  x9:0x00000000 x16=0x00000000
       54955000	      5494	80001708	01100913	addi	x18,x0,17	  x0:0x00000000 x18=0x00000011
       54965000	      5495	8000170c	00a61433	sll	x8,x12,x10	 x12:0x00000001 x10:0xffffffff  x8=0x80000000
       54975000	      5496	80001710	018e45b3	xor	x11,x28,x24	 x28:0x80009f40 x24:0x00000000 x11=0x80009f40
       54985000	      5497	80001714	01a2fc33	and	x24,x5,x26	  x5:0x00000000 x26:0xfffffffc x24=0x00000000
       54995000	      5498	80001718	01bf9b33	sll	x22,x31,x27	 x31:0x80000000 x27:0x00000000 x22=0x80000000
       55005000	      5499	8000171c	00bc2133	slt	x2,x24,x11	 x24:0x00000000 x11:0x80009f40  x2=0x00000000
       55015000	      5500	80001720	01ecc4b3	xor	x9,x25,x30	 x25:0x00000001 x30:0x00000000  x9=0x00000001
       55025000	      5501	80001724	00108093	addi	x1,x1,1	  x1:0x00000008  x1=0x00000009
       55035000	      5502	80001728	41a75513	srai	x10,x14,0x1a	 x14:0xfffff954 x10=0xffffffff
       55045000	      5503	8000172c	40b581b3	sub	x3,x11,x11	 x11:0x80009f40 x11:0x80009f40  x3=0x00000000
       55055000	      5504	80001730	111ae413	ori	x8,x21,273	 x21:0x0000000e  x8=0x0000011f
       55065000	      5505	80001734	41415793	srai	x15,x2,0x14	  x2:0x00000000 x15=0x00000000
       55075000	      5506	80001738	fd20cee3	blt	x1,x18,80001714	  x1:0x00000009 x18:0x00000011
       55085000	      5507	00000000	00000013	addi	x0,x0,0	  x0:0x00000000
       55095000	      5508	80001710	00000013	addi	x0,x0,0	  x0:0x00000000
       55105000	      5509	80001714	01a2fc33	and	x24,x5,x26	  x5:0x00000000 x26:0xfffffffc x24=0x00000000
       55115000	      5510	80001718	01bf9b33	sll	x22,x31,x27	 x31:0x80000000 x27:0x00000000 x22=0x80000000
       55125000	      5511	8000171c	00bc2133	slt	x2,x24,x11	 x24:0x00000000 x11:0x80009f40  x2=0x00000000
       55135000	      5512	80001720	01ecc4b3	xor	x9,x25,x30	 x25:0x00000001 x30:0x00000000  x9=0x00000001
       55145000	      5513	80001724	00108093	addi	x1,x1,1	  x1:0x00000009  x1=0x0000000a
       55155000	      5514	80001728	41a75513	srai	x10,x14,0x1a	 x14:0xfffff954 x10=0xffffffff
       55165000	      5515	8000172c	40b581b3	sub	x3,x11,x11	 x11:0x80009f40 x11:0x80009f40  x3=0x00000000
       55175000	      5516	80001730	111ae413	ori	x8,x21,273	 x21:0x0000000e  x8=0x0000011f
       55185000	      5517	80001734	41415793	srai	x15,x2,0x14	  x2:0x00000000 x15=0x00000000
       55195000	      5518	80001738	fd20cee3	blt	x1,x18,80001714	  x1:0x0000000a x18:0x00000011
       55205000	      5519	00000000	00000013	addi	x0,x0,0	  x0:0x00000000
       55215000	      5520	80001710	00000013	addi	x0,x0,0	  x0:0x00000000
       55225000	      5521	80001714	01a2fc33	and	x24,x5,x26	  x5:0x00000000 x26:0xfffffffc x24=0x00000000
       55235000	      5522	80001718	01bf9b33	sll	x22,x31,x27	 x31:0x80000000 x27:0x00000000 x22=0x80000000
       55245000	      5523	8000171c	00bc2133	slt	x2,x24,x11	 x24:0x00000000 x11:0x80009f40  x2=0x00000000
       55255000	      5524	80001720	01ecc4b3	xor	x9,x25,x30	 x25:0x00000001 x30:0x00000000  x9=0x00000001
       55265000	      5525	80001724	00108093	addi	x1,x1,1	  x1:0x0000000a  x1=0x0000000b
       55275000	      5526	80001728	41a75513	srai	x10,x14,0x1a	 x14:0xfffff954 x10=0xffffffff
       55285000	      5527	8000172c	40b581b3	sub	x3,x11,x11	 x11:0x80009f40 x11:0x80009f40  x3=0x00000000
       55295000	      5528	80001730	111ae413	ori	x8,x21,273	 x21:0x0000000e  x8=0x0000011f
       55305000	      5529	80001734	41415793	srai	x15,x2,0x14	  x2:0x00000000 x15=0x00000000
       55315000	      5530	80001738	fd20cee3	blt	x1,x18,80001714	  x1:0x0000000b x18:0x00000011
       55325000	      5531	00000000	00000013	addi	x0,x0,0	  x0:0x00000000
       55335000	      5532	80001710	00000013	addi	x0,x0,0	  x0:0x00000000
       55345000	      5533	80001714	01a2fc33	and	x24,x5,x26	  x5:0x00000000 x26:0xfffffffc x24=0x00000000
       55355000	      5534	80001718	01bf9b33	sll	x22,x31,x27	 x31:0x80000000 x27:0x00000000 x22=0x80000000
       55365000	      5535	8000171c	00bc2133	slt	x2,x24,x11	 x24:0x00000000 x11:0x80009f40  x2=0x00000000
       55375000	      5536	80001720	01ecc4b3	xor	x9,x25,x30	 x25:0x00000001 x30:0x00000000  x9=0x00000001
       55385000	      5537	80001724	00108093	addi	x1,x1,1	  x1:0x0000000b  x1=0x0000000c
       55395000	      5538	80001728	41a75513	srai	x10,x14,0x1a	 x14:0xfffff954 x10=0xffffffff
       55405000	      5539	8000172c	40b581b3	sub	x3,x11,x11	 x11:0x80009f40 x11:0x80009f40  x3=0x00000000
       55415000	      5540	80001730	111ae413	ori	x8,x21,273	 x21:0x0000000e  x8=0x0000011f
       55425000	      5541	80001734	41415793	srai	x15,x2,0x14	  x2:0x00000000 x15=0x00000000
       55435000	      5542	80001738	fd20cee3	blt	x1,x18,80001714	  x1:0x0000000c x18:0x00000011
       55445000	      5543	00000000	00000013	addi	x0,x0,0	  x0:0x00000000
       55455000	      5544	80001710	00000013	addi	x0,x0,0	  x0:0x00000000
       55465000	      5545	80001714	01a2fc33	and	x24,x5,x26	  x5:0x00000000 x26:0xfffffffc x24=0x00000000
       55475000	      5546	80001718	01bf9b33	sll	x22,x31,x27	 x31:0x80000000 x27:0x00000000 x22=0x80000000
       55485000	      5547	8000171c	00bc2133	slt	x2,x24,x11	 x24:0x00000000 x11:0x80009f40  x2=0x00000000
       55495000	      5548	80001720	01ecc4b3	xor	x9,x25,x30	 x25:0x00000001 x30:0x00000000  x9=0x00000001
       55505000	      5549	80001724	00108093	addi	x1,x1,1	  x1:0x0000000c  x1=0x0000000d
       55515000	      5550	80001728	41a75513	srai	x10,x14,0x1a	 x14:0xfffff954 x10=0xffffffff
       55525000	      5551	8000172c	40b581b3	sub	x3,x11,x11	 x11:0x80009f40 x11:0x80009f40  x3=0x00000000
       55535000	      5552	80001730	111ae413	ori	x8,x21,273	 x21:0x0000000e  x8=0x0000011f
       55545000	      5553	80001734	41415793	srai	x15,x2,0x14	  x2:0x00000000 x15=0x00000000
       55555000	      5554	80001738	fd20cee3	blt	x1,x18,80001714	  x1:0x0000000d x18:0x00000011
       55565000	      5555	00000000	00000013	addi	x0,x0,0	  x0:0x00000000
       55575000	      5556	80001710	00000013	addi	x0,x0,0	  x0:0x00000000
       55585000	      5557	80001714	01a2fc33	and	x24,x5,x26	  x5:0x00000000 x26:0xfffffffc x24=0x00000000
       55595000	      5558	80001718	01bf9b33	sll	x22,x31,x27	 x31:0x80000000 x27:0x00000000 x22=0x80000000
       55605000	      5559	8000171c	00bc2133	slt	x2,x24,x11	 x24:0x00000000 x11:0x80009f40  x2=0x00000000
       55615000	      5560	80001720	01ecc4b3	xor	x9,x25,x30	 x25:0x00000001 x30:0x00000000  x9=0x00000001
       55625000	      5561	80001724	00108093	addi	x1,x1,1	  x1:0x0000000d  x1=0x0000000e
       55635000	      5562	80001728	41a75513	srai	x10,x14,0x1a	 x14:0xfffff954 x10=0xffffffff
       55645000	      5563	8000172c	40b581b3	sub	x3,x11,x11	 x11:0x80009f40 x11:0x80009f40  x3=0x00000000
       55655000	      5564	80001730	111ae413	ori	x8,x21,273	 x21:0x0000000e  x8=0x0000011f
       55665000	      5565	80001734	41415793	srai	x15,x2,0x14	  x2:0x00000000 x15=0x00000000
       55675000	      5566	80001738	fd20cee3	blt	x1,x18,80001714	  x1:0x0000000e x18:0x00000011
       55685000	      5567	00000000	00000013	addi	x0,x0,0	  x0:0x00000000
       55695000	      5568	80001710	00000013	addi	x0,x0,0	  x0:0x00000000
       55705000	      5569	80001714	01a2fc33	and	x24,x5,x26	  x5:0x00000000 x26:0xfffffffc x24=0x00000000
       55715000	      5570	80001718	01bf9b33	sll	x22,x31,x27	 x31:0x80000000 x27:0x00000000 x22=0x80000000
       55725000	      5571	8000171c	00bc2133	slt	x2,x24,x11	 x24:0x00000000 x11:0x80009f40  x2=0x00000000
       55735000	      5572	80001720	01ecc4b3	xor	x9,x25,x30	 x25:0x00000001 x30:0x00000000  x9=0x00000001
       55745000	      5573	80001724	00108093	addi	x1,x1,1	  x1:0x0000000e  x1=0x0000000f
       55755000	      5574	80001728	41a75513	srai	x10,x14,0x1a	 x14:0xfffff954 x10=0xffffffff
       55765000	      5575	8000172c	40b581b3	sub	x3,x11,x11	 x11:0x80009f40 x11:0x80009f40  x3=0x00000000
       55775000	      5576	80001730	111ae413	ori	x8,x21,273	 x21:0x0000000e  x8=0x0000011f
       55785000	      5577	80001734	41415793	srai	x15,x2,0x14	  x2:0x00000000 x15=0x00000000
       55795000	      5578	80001738	fd20cee3	blt	x1,x18,80001714	  x1:0x0000000f x18:0x00000011
       55805000	      5579	00000000	00000013	addi	x0,x0,0	  x0:0x00000000
       55815000	      5580	80001710	00000013	addi	x0,x0,0	  x0:0x00000000
       55825000	      5581	80001714	01a2fc33	and	x24,x5,x26	  x5:0x00000000 x26:0xfffffffc x24=0x00000000
       55835000	      5582	80001718	01bf9b33	sll	x22,x31,x27	 x31:0x80000000 x27:0x00000000 x22=0x80000000
       55845000	      5583	8000171c	00bc2133	slt	x2,x24,x11	 x24:0x00000000 x11:0x80009f40  x2=0x00000000
       55855000	      5584	80001720	01ecc4b3	xor	x9,x25,x30	 x25:0x00000001 x30:0x00000000  x9=0x00000001
       55865000	      5585	80001724	00108093	addi	x1,x1,1	  x1:0x0000000f  x1=0x00000010
       55875000	      5586	80001728	41a75513	srai	x10,x14,0x1a	 x14:0xfffff954 x10=0xffffffff
       55885000	      5587	8000172c	40b581b3	sub	x3,x11,x11	 x11:0x80009f40 x11:0x80009f40  x3=0x00000000
       55895000	      5588	80001730	111ae413	ori	x8,x21,273	 x21:0x0000000e  x8=0x0000011f
       55905000	      5589	80001734	41415793	srai	x15,x2,0x14	  x2:0x00000000 x15=0x00000000
       55915000	      5590	80001738	fd20cee3	blt	x1,x18,80001714	  x1:0x00000010 x18:0x00000011
       55925000	      5591	00000000	00000013	addi	x0,x0,0	  x0:0x00000000
       55935000	      5592	80001710	00000013	addi	x0,x0,0	  x0:0x00000000
       55945000	      5593	80001714	01a2fc33	and	x24,x5,x26	  x5:0x00000000 x26:0xfffffffc x24=0x00000000
       55955000	      5594	80001718	01bf9b33	sll	x22,x31,x27	 x31:0x80000000 x27:0x00000000 x22=0x80000000
       55965000	      5595	8000171c	00bc2133	slt	x2,x24,x11	 x24:0x00000000 x11:0x80009f40  x2=0x00000000
       55975000	      5596	80001720	01ecc4b3	xor	x9,x25,x30	 x25:0x00000001 x30:0x00000000  x9=0x00000001
       55985000	      5597	80001724	00108093	addi	x1,x1,1	  x1:0x00000010  x1=0x00000011
       55995000	      5598	80001728	41a75513	srai	x10,x14,0x1a	 x14:0xfffff954 x10=0xffffffff
       56005000	      5599	8000172c	40b581b3	sub	x3,x11,x11	 x11:0x80009f40 x11:0x80009f40  x3=0x00000000
       56015000	      5600	80001730	111ae413	ori	x8,x21,273	 x21:0x0000000e  x8=0x0000011f
       56025000	      5601	80001734	41415793	srai	x15,x2,0x14	  x2:0x00000000 x15=0x00000000
       56035000	      5602	80001738	fd20cee3	blt	x1,x18,80001714	  x1:0x00000011 x18:0x00000011
       56045000	      5603	8000173c	a23ee693	ori	x13,x29,-1501	 x29:0xfffffffe x13=0xffffffff
       56055000	      5604	80001740	4c5bb113	sltiu	x2,x23,1221	 x23:0x00000000  x2=0x00000001
       56065000	      5605	80001744	fb5e92e3	bne	x29,x21,800016e8	 x29:0xfffffffe x21:0x0000000e
       56075000	      5606	00000000	00000013	addi	x0,x0,0	  x0:0x00000000
       56085000	      5607	800016e4	00000013	addi	x0,x0,0	  x0:0x00000000
       56095000	      5608	800016e8	79f259b7	lui	x19,0x79f25	 x19=0x79f25000
       56105000	      5609	800016ec	004e8e93	addi	x29,x29,4	 x29:0xfffffffe x29=0x00000002
       56115000	      5610	800016f0	019334b3	sltu	x9,x6,x25	  x6:0x167a4000 x25:0x00000001  x9=0x00000000
       56125000	      5611	800016f4	00e42b33	slt	x22,x8,x14	  x8:0x0000011f x14:0xfffff954 x22=0x00000000
       56135000	      5612	800016f8	01e45b93	srli	x23,x8,0x1e	  x8:0x0000011f x23=0x00000000
       56145000	      5613	800016fc	00800093	addi	x1,x0,8	  x0:0x00000000  x1=0x00000008
       56155000	      5614	80001700	019c4b33	xor	x22,x24,x25	 x24:0x00000000 x25:0x00000001 x22=0x00000001
       56165000	      5615	80001704	01c49813	slli	x16,x9,0x1c	  x9:0x00000000 x16=0x00000000
       56175000	      5616	80001708	01100913	addi	x18,x0,17	  x0:0x00000000 x18=0x00000011
       56185000	      5617	8000170c	00a61433	sll	x8,x12,x10	 x12:0x00000001 x10:0xffffffff  x8=0x80000000
       56195000	      5618	80001710	018e45b3	xor	x11,x28,x24	 x28:0x80009f40 x24:0x00000000 x11=0x80009f40
       56205000	      5619	80001714	01a2fc33	and	x24,x5,x26	  x5:0x00000000 x26:0xfffffffc x24=0x00000000
       56215000	      5620	80001718	01bf9b33	sll	x22,x31,x27	 x31:0x80000000 x27:0x00000000 x22=0x80000000
       56225000	      5621	8000171c	00bc2133	slt	x2,x24,x11	 x24:0x00000000 x11:0x80009f40  x2=0x00000000
       56235000	      5622	80001720	01ecc4b3	xor	x9,x25,x30	 x25:0x00000001 x30:0x00000000  x9=0x00000001
       56245000	      5623	80001724	00108093	addi	x1,x1,1	  x1:0x00000008  x1=0x00000009
       56255000	      5624	80001728	41a75513	srai	x10,x14,0x1a	 x14:0xfffff954 x10=0xffffffff
       56265000	      5625	8000172c	40b581b3	sub	x3,x11,x11	 x11:0x80009f40 x11:0x80009f40  x3=0x00000000
       56275000	      5626	80001730	111ae413	ori	x8,x21,273	 x21:0x0000000e  x8=0x0000011f
       56285000	      5627	80001734	41415793	srai	x15,x2,0x14	  x2:0x00000000 x15=0x00000000
       56295000	      5628	80001738	fd20cee3	blt	x1,x18,80001714	  x1:0x00000009 x18:0x00000011
       56305000	      5629	00000000	00000013	addi	x0,x0,0	  x0:0x00000000
       56315000	      5630	80001710	00000013	addi	x0,x0,0	  x0:0x00000000
       56325000	      5631	80001714	01a2fc33	and	x24,x5,x26	  x5:0x00000000 x26:0xfffffffc x24=0x00000000
       56335000	      5632	80001718	01bf9b33	sll	x22,x31,x27	 x31:0x80000000 x27:0x00000000 x22=0x80000000
       56345000	      5633	8000171c	00bc2133	slt	x2,x24,x11	 x24:0x00000000 x11:0x80009f40  x2=0x00000000
       56355000	      5634	80001720	01ecc4b3	xor	x9,x25,x30	 x25:0x00000001 x30:0x00000000  x9=0x00000001
       56365000	      5635	80001724	00108093	addi	x1,x1,1	  x1:0x00000009  x1=0x0000000a
       56375000	      5636	80001728	41a75513	srai	x10,x14,0x1a	 x14:0xfffff954 x10=0xffffffff
       56385000	      5637	8000172c	40b581b3	sub	x3,x11,x11	 x11:0x80009f40 x11:0x80009f40  x3=0x00000000
       56395000	      5638	80001730	111ae413	ori	x8,x21,273	 x21:0x0000000e  x8=0x0000011f
       56405000	      5639	80001734	41415793	srai	x15,x2,0x14	  x2:0x00000000 x15=0x00000000
       56415000	      5640	80001738	fd20cee3	blt	x1,x18,80001714	  x1:0x0000000a x18:0x00000011
       56425000	      5641	00000000	00000013	addi	x0,x0,0	  x0:0x00000000
       56435000	      5642	80001710	00000013	addi	x0,x0,0	  x0:0x00000000
       56445000	      5643	80001714	01a2fc33	and	x24,x5,x26	  x5:0x00000000 x26:0xfffffffc x24=0x00000000
       56455000	      5644	80001718	01bf9b33	sll	x22,x31,x27	 x31:0x80000000 x27:0x00000000 x22=0x80000000
       56465000	      5645	8000171c	00bc2133	slt	x2,x24,x11	 x24:0x00000000 x11:0x80009f40  x2=0x00000000
       56475000	      5646	80001720	01ecc4b3	xor	x9,x25,x30	 x25:0x00000001 x30:0x00000000  x9=0x00000001
       56485000	      5647	80001724	00108093	addi	x1,x1,1	  x1:0x0000000a  x1=0x0000000b
       56495000	      5648	80001728	41a75513	srai	x10,x14,0x1a	 x14:0xfffff954 x10=0xffffffff
       56505000	      5649	8000172c	40b581b3	sub	x3,x11,x11	 x11:0x80009f40 x11:0x80009f40  x3=0x00000000
       56515000	      5650	80001730	111ae413	ori	x8,x21,273	 x21:0x0000000e  x8=0x0000011f
       56525000	      5651	80001734	41415793	srai	x15,x2,0x14	  x2:0x00000000 x15=0x00000000
       56535000	      5652	80001738	fd20cee3	blt	x1,x18,80001714	  x1:0x0000000b x18:0x00000011
       56545000	      5653	00000000	00000013	addi	x0,x0,0	  x0:0x00000000
       56555000	      5654	80001710	00000013	addi	x0,x0,0	  x0:0x00000000
       56565000	      5655	80001714	01a2fc33	and	x24,x5,x26	  x5:0x00000000 x26:0xfffffffc x24=0x00000000
       56575000	      5656	80001718	01bf9b33	sll	x22,x31,x27	 x31:0x80000000 x27:0x00000000 x22=0x80000000
       56585000	      5657	8000171c	00bc2133	slt	x2,x24,x11	 x24:0x00000000 x11:0x80009f40  x2=0x00000000
       56595000	      5658	80001720	01ecc4b3	xor	x9,x25,x30	 x25:0x00000001 x30:0x00000000  x9=0x00000001
       56605000	      5659	80001724	00108093	addi	x1,x1,1	  x1:0x0000000b  x1=0x0000000c
       56615000	      5660	80001728	41a75513	srai	x10,x14,0x1a	 x14:0xfffff954 x10=0xffffffff
       56625000	      5661	8000172c	40b581b3	sub	x3,x11,x11	 x11:0x80009f40 x11:0x80009f40  x3=0x00000000
       56635000	      5662	80001730	111ae413	ori	x8,x21,273	 x21:0x0000000e  x8=0x0000011f
       56645000	      5663	80001734	41415793	srai	x15,x2,0x14	  x2:0x00000000 x15=0x00000000
       56655000	      5664	80001738	fd20cee3	blt	x1,x18,80001714	  x1:0x0000000c x18:0x00000011
       56665000	      5665	00000000	00000013	addi	x0,x0,0	  x0:0x00000000
       56675000	      5666	80001710	00000013	addi	x0,x0,0	  x0:0x00000000
       56685000	      5667	80001714	01a2fc33	and	x24,x5,x26	  x5:0x00000000 x26:0xfffffffc x24=0x00000000
       56695000	      5668	80001718	01bf9b33	sll	x22,x31,x27	 x31:0x80000000 x27:0x00000000 x22=0x80000000
       56705000	      5669	8000171c	00bc2133	slt	x2,x24,x11	 x24:0x00000000 x11:0x80009f40  x2=0x00000000
       56715000	      5670	80001720	01ecc4b3	xor	x9,x25,x30	 x25:0x00000001 x30:0x00000000  x9=0x00000001
       56725000	      5671	80001724	00108093	addi	x1,x1,1	  x1:0x0000000c  x1=0x0000000d
       56735000	      5672	80001728	41a75513	srai	x10,x14,0x1a	 x14:0xfffff954 x10=0xffffffff
       56745000	      5673	8000172c	40b581b3	sub	x3,x11,x11	 x11:0x80009f40 x11:0x80009f40  x3=0x00000000
       56755000	      5674	80001730	111ae413	ori	x8,x21,273	 x21:0x0000000e  x8=0x0000011f
       56765000	      5675	80001734	41415793	srai	x15,x2,0x14	  x2:0x00000000 x15=0x00000000
       56775000	      5676	80001738	fd20cee3	blt	x1,x18,80001714	  x1:0x0000000d x18:0x00000011
       56785000	      5677	00000000	00000013	addi	x0,x0,0	  x0:0x00000000
       56795000	      5678	80001710	00000013	addi	x0,x0,0	  x0:0x00000000
       56805000	      5679	80001714	01a2fc33	and	x24,x5,x26	  x5:0x00000000 x26:0xfffffffc x24=0x00000000
       56815000	      5680	80001718	01bf9b33	sll	x22,x31,x27	 x31:0x80000000 x27:0x00000000 x22=0x80000000
       56825000	      5681	8000171c	00bc2133	slt	x2,x24,x11	 x24:0x00000000 x11:0x80009f40  x2=0x00000000
       56835000	      5682	80001720	01ecc4b3	xor	x9,x25,x30	 x25:0x00000001 x30:0x00000000  x9=0x00000001
       56845000	      5683	80001724	00108093	addi	x1,x1,1	  x1:0x0000000d  x1=0x0000000e
       56855000	      5684	80001728	41a75513	srai	x10,x14,0x1a	 x14:0xfffff954 x10=0xffffffff
       56865000	      5685	8000172c	40b581b3	sub	x3,x11,x11	 x11:0x80009f40 x11:0x80009f40  x3=0x00000000
       56875000	      5686	80001730	111ae413	ori	x8,x21,273	 x21:0x0000000e  x8=0x0000011f
       56885000	      5687	80001734	41415793	srai	x15,x2,0x14	  x2:0x00000000 x15=0x00000000
       56895000	      5688	80001738	fd20cee3	blt	x1,x18,80001714	  x1:0x0000000e x18:0x00000011
       56905000	      5689	00000000	00000013	addi	x0,x0,0	  x0:0x00000000
       56915000	      5690	80001710	00000013	addi	x0,x0,0	  x0:0x00000000
       56925000	      5691	80001714	01a2fc33	and	x24,x5,x26	  x5:0x00000000 x26:0xfffffffc x24=0x00000000
       56935000	      5692	80001718	01bf9b33	sll	x22,x31,x27	 x31:0x80000000 x27:0x00000000 x22=0x80000000
       56945000	      5693	8000171c	00bc2133	slt	x2,x24,x11	 x24:0x00000000 x11:0x80009f40  x2=0x00000000
       56955000	      5694	80001720	01ecc4b3	xor	x9,x25,x30	 x25:0x00000001 x30:0x00000000  x9=0x00000001
       56965000	      5695	80001724	00108093	addi	x1,x1,1	  x1:0x0000000e  x1=0x0000000f
       56975000	      5696	80001728	41a75513	srai	x10,x14,0x1a	 x14:0xfffff954 x10=0xffffffff
       56985000	      5697	8000172c	40b581b3	sub	x3,x11,x11	 x11:0x80009f40 x11:0x80009f40  x3=0x00000000
       56995000	      5698	80001730	111ae413	ori	x8,x21,273	 x21:0x0000000e  x8=0x0000011f
       57005000	      5699	80001734	41415793	srai	x15,x2,0x14	  x2:0x00000000 x15=0x00000000
       57015000	      5700	80001738	fd20cee3	blt	x1,x18,80001714	  x1:0x0000000f x18:0x00000011
       57025000	      5701	00000000	00000013	addi	x0,x0,0	  x0:0x00000000
       57035000	      5702	80001710	00000013	addi	x0,x0,0	  x0:0x00000000
       57045000	      5703	80001714	01a2fc33	and	x24,x5,x26	  x5:0x00000000 x26:0xfffffffc x24=0x00000000
       57055000	      5704	80001718	01bf9b33	sll	x22,x31,x27	 x31:0x80000000 x27:0x00000000 x22=0x80000000
       57065000	      5705	8000171c	00bc2133	slt	x2,x24,x11	 x24:0x00000000 x11:0x80009f40  x2=0x00000000
       57075000	      5706	80001720	01ecc4b3	xor	x9,x25,x30	 x25:0x00000001 x30:0x00000000  x9=0x00000001
       57085000	      5707	80001724	00108093	addi	x1,x1,1	  x1:0x0000000f  x1=0x00000010
       57095000	      5708	80001728	41a75513	srai	x10,x14,0x1a	 x14:0xfffff954 x10=0xffffffff
       57105000	      5709	8000172c	40b581b3	sub	x3,x11,x11	 x11:0x80009f40 x11:0x80009f40  x3=0x00000000
       57115000	      5710	80001730	111ae413	ori	x8,x21,273	 x21:0x0000000e  x8=0x0000011f
       57125000	      5711	80001734	41415793	srai	x15,x2,0x14	  x2:0x00000000 x15=0x00000000
       57135000	      5712	80001738	fd20cee3	blt	x1,x18,80001714	  x1:0x00000010 x18:0x00000011
       57145000	      5713	00000000	00000013	addi	x0,x0,0	  x0:0x00000000
       57155000	      5714	80001710	00000013	addi	x0,x0,0	  x0:0x00000000
       57165000	      5715	80001714	01a2fc33	and	x24,x5,x26	  x5:0x00000000 x26:0xfffffffc x24=0x00000000
       57175000	      5716	80001718	01bf9b33	sll	x22,x31,x27	 x31:0x80000000 x27:0x00000000 x22=0x80000000
       57185000	      5717	8000171c	00bc2133	slt	x2,x24,x11	 x24:0x00000000 x11:0x80009f40  x2=0x00000000
       57195000	      5718	80001720	01ecc4b3	xor	x9,x25,x30	 x25:0x00000001 x30:0x00000000  x9=0x00000001
       57205000	      5719	80001724	00108093	addi	x1,x1,1	  x1:0x00000010  x1=0x00000011
       57215000	      5720	80001728	41a75513	srai	x10,x14,0x1a	 x14:0xfffff954 x10=0xffffffff
       57225000	      5721	8000172c	40b581b3	sub	x3,x11,x11	 x11:0x80009f40 x11:0x80009f40  x3=0x00000000
       57235000	      5722	80001730	111ae413	ori	x8,x21,273	 x21:0x0000000e  x8=0x0000011f
       57245000	      5723	80001734	41415793	srai	x15,x2,0x14	  x2:0x00000000 x15=0x00000000
       57255000	      5724	80001738	fd20cee3	blt	x1,x18,80001714	  x1:0x00000011 x18:0x00000011
       57265000	      5725	8000173c	a23ee693	ori	x13,x29,-1501	 x29:0x00000002 x13=0xfffffa23
       57275000	      5726	80001740	4c5bb113	sltiu	x2,x23,1221	 x23:0x00000000  x2=0x00000001
       57285000	      5727	80001744	fb5e92e3	bne	x29,x21,800016e8	 x29:0x00000002 x21:0x0000000e
       57295000	      5728	00000000	00000013	addi	x0,x0,0	  x0:0x00000000
       57305000	      5729	800016e4	00000013	addi	x0,x0,0	  x0:0x00000000
       57315000	      5730	800016e8	79f259b7	lui	x19,0x79f25	 x19=0x79f25000
       57325000	      5731	800016ec	004e8e93	addi	x29,x29,4	 x29:0x00000002 x29=0x00000006
       57335000	      5732	800016f0	019334b3	sltu	x9,x6,x25	  x6:0x167a4000 x25:0x00000001  x9=0x00000000
       57345000	      5733	800016f4	00e42b33	slt	x22,x8,x14	  x8:0x0000011f x14:0xfffff954 x22=0x00000000
       57355000	      5734	800016f8	01e45b93	srli	x23,x8,0x1e	  x8:0x0000011f x23=0x00000000
       57365000	      5735	800016fc	00800093	addi	x1,x0,8	  x0:0x00000000  x1=0x00000008
       57375000	      5736	80001700	019c4b33	xor	x22,x24,x25	 x24:0x00000000 x25:0x00000001 x22=0x00000001
       57385000	      5737	80001704	01c49813	slli	x16,x9,0x1c	  x9:0x00000000 x16=0x00000000
       57395000	      5738	80001708	01100913	addi	x18,x0,17	  x0:0x00000000 x18=0x00000011
       57405000	      5739	8000170c	00a61433	sll	x8,x12,x10	 x12:0x00000001 x10:0xffffffff  x8=0x80000000
       57415000	      5740	80001710	018e45b3	xor	x11,x28,x24	 x28:0x80009f40 x24:0x00000000 x11=0x80009f40
       57425000	      5741	80001714	01a2fc33	and	x24,x5,x26	  x5:0x00000000 x26:0xfffffffc x24=0x00000000
       57435000	      5742	80001718	01bf9b33	sll	x22,x31,x27	 x31:0x80000000 x27:0x00000000 x22=0x80000000
       57445000	      5743	8000171c	00bc2133	slt	x2,x24,x11	 x24:0x00000000 x11:0x80009f40  x2=0x00000000
       57455000	      5744	80001720	01ecc4b3	xor	x9,x25,x30	 x25:0x00000001 x30:0x00000000  x9=0x00000001
       57465000	      5745	80001724	00108093	addi	x1,x1,1	  x1:0x00000008  x1=0x00000009
       57475000	      5746	80001728	41a75513	srai	x10,x14,0x1a	 x14:0xfffff954 x10=0xffffffff
       57485000	      5747	8000172c	40b581b3	sub	x3,x11,x11	 x11:0x80009f40 x11:0x80009f40  x3=0x00000000
       57495000	      5748	80001730	111ae413	ori	x8,x21,273	 x21:0x0000000e  x8=0x0000011f
       57505000	      5749	80001734	41415793	srai	x15,x2,0x14	  x2:0x00000000 x15=0x00000000
       57515000	      5750	80001738	fd20cee3	blt	x1,x18,80001714	  x1:0x00000009 x18:0x00000011
       57525000	      5751	00000000	00000013	addi	x0,x0,0	  x0:0x00000000
       57535000	      5752	80001710	00000013	addi	x0,x0,0	  x0:0x00000000
       57545000	      5753	80001714	01a2fc33	and	x24,x5,x26	  x5:0x00000000 x26:0xfffffffc x24=0x00000000
       57555000	      5754	80001718	01bf9b33	sll	x22,x31,x27	 x31:0x80000000 x27:0x00000000 x22=0x80000000
       57565000	      5755	8000171c	00bc2133	slt	x2,x24,x11	 x24:0x00000000 x11:0x80009f40  x2=0x00000000
       57575000	      5756	80001720	01ecc4b3	xor	x9,x25,x30	 x25:0x00000001 x30:0x00000000  x9=0x00000001
       57585000	      5757	80001724	00108093	addi	x1,x1,1	  x1:0x00000009  x1=0x0000000a
       57595000	      5758	80001728	41a75513	srai	x10,x14,0x1a	 x14:0xfffff954 x10=0xffffffff
       57605000	      5759	8000172c	40b581b3	sub	x3,x11,x11	 x11:0x80009f40 x11:0x80009f40  x3=0x00000000
       57615000	      5760	80001730	111ae413	ori	x8,x21,273	 x21:0x0000000e  x8=0x0000011f
       57625000	      5761	80001734	41415793	srai	x15,x2,0x14	  x2:0x00000000 x15=0x00000000
       57635000	      5762	80001738	fd20cee3	blt	x1,x18,80001714	  x1:0x0000000a x18:0x00000011
       57645000	      5763	00000000	00000013	addi	x0,x0,0	  x0:0x00000000
       57655000	      5764	80001710	00000013	addi	x0,x0,0	  x0:0x00000000
       57665000	      5765	80001714	01a2fc33	and	x24,x5,x26	  x5:0x00000000 x26:0xfffffffc x24=0x00000000
       57675000	      5766	80001718	01bf9b33	sll	x22,x31,x27	 x31:0x80000000 x27:0x00000000 x22=0x80000000
       57685000	      5767	8000171c	00bc2133	slt	x2,x24,x11	 x24:0x00000000 x11:0x80009f40  x2=0x00000000
       57695000	      5768	80001720	01ecc4b3	xor	x9,x25,x30	 x25:0x00000001 x30:0x00000000  x9=0x00000001
       57705000	      5769	80001724	00108093	addi	x1,x1,1	  x1:0x0000000a  x1=0x0000000b
       57715000	      5770	80001728	41a75513	srai	x10,x14,0x1a	 x14:0xfffff954 x10=0xffffffff
       57725000	      5771	8000172c	40b581b3	sub	x3,x11,x11	 x11:0x80009f40 x11:0x80009f40  x3=0x00000000
       57735000	      5772	80001730	111ae413	ori	x8,x21,273	 x21:0x0000000e  x8=0x0000011f
       57745000	      5773	80001734	41415793	srai	x15,x2,0x14	  x2:0x00000000 x15=0x00000000
       57755000	      5774	80001738	fd20cee3	blt	x1,x18,80001714	  x1:0x0000000b x18:0x00000011
       57765000	      5775	00000000	00000013	addi	x0,x0,0	  x0:0x00000000
       57775000	      5776	80001710	00000013	addi	x0,x0,0	  x0:0x00000000
       57785000	      5777	80001714	01a2fc33	and	x24,x5,x26	  x5:0x00000000 x26:0xfffffffc x24=0x00000000
       57795000	      5778	80001718	01bf9b33	sll	x22,x31,x27	 x31:0x80000000 x27:0x00000000 x22=0x80000000
       57805000	      5779	8000171c	00bc2133	slt	x2,x24,x11	 x24:0x00000000 x11:0x80009f40  x2=0x00000000
       57815000	      5780	80001720	01ecc4b3	xor	x9,x25,x30	 x25:0x00000001 x30:0x00000000  x9=0x00000001
       57825000	      5781	80001724	00108093	addi	x1,x1,1	  x1:0x0000000b  x1=0x0000000c
       57835000	      5782	80001728	41a75513	srai	x10,x14,0x1a	 x14:0xfffff954 x10=0xffffffff
       57845000	      5783	8000172c	40b581b3	sub	x3,x11,x11	 x11:0x80009f40 x11:0x80009f40  x3=0x00000000
       57855000	      5784	80001730	111ae413	ori	x8,x21,273	 x21:0x0000000e  x8=0x0000011f
       57865000	      5785	80001734	41415793	srai	x15,x2,0x14	  x2:0x00000000 x15=0x00000000
       57875000	      5786	80001738	fd20cee3	blt	x1,x18,80001714	  x1:0x0000000c x18:0x00000011
       57885000	      5787	00000000	00000013	addi	x0,x0,0	  x0:0x00000000
       57895000	      5788	80001710	00000013	addi	x0,x0,0	  x0:0x00000000
       57905000	      5789	80001714	01a2fc33	and	x24,x5,x26	  x5:0x00000000 x26:0xfffffffc x24=0x00000000
       57915000	      5790	80001718	01bf9b33	sll	x22,x31,x27	 x31:0x80000000 x27:0x00000000 x22=0x80000000
       57925000	      5791	8000171c	00bc2133	slt	x2,x24,x11	 x24:0x00000000 x11:0x80009f40  x2=0x00000000
       57935000	      5792	80001720	01ecc4b3	xor	x9,x25,x30	 x25:0x00000001 x30:0x00000000  x9=0x00000001
       57945000	      5793	80001724	00108093	addi	x1,x1,1	  x1:0x0000000c  x1=0x0000000d
       57955000	      5794	80001728	41a75513	srai	x10,x14,0x1a	 x14:0xfffff954 x10=0xffffffff
       57965000	      5795	8000172c	40b581b3	sub	x3,x11,x11	 x11:0x80009f40 x11:0x80009f40  x3=0x00000000
       57975000	      5796	80001730	111ae413	ori	x8,x21,273	 x21:0x0000000e  x8=0x0000011f
       57985000	      5797	80001734	41415793	srai	x15,x2,0x14	  x2:0x00000000 x15=0x00000000
       57995000	      5798	80001738	fd20cee3	blt	x1,x18,80001714	  x1:0x0000000d x18:0x00000011
       58005000	      5799	00000000	00000013	addi	x0,x0,0	  x0:0x00000000
       58015000	      5800	80001710	00000013	addi	x0,x0,0	  x0:0x00000000
       58025000	      5801	80001714	01a2fc33	and	x24,x5,x26	  x5:0x00000000 x26:0xfffffffc x24=0x00000000
       58035000	      5802	80001718	01bf9b33	sll	x22,x31,x27	 x31:0x80000000 x27:0x00000000 x22=0x80000000
       58045000	      5803	8000171c	00bc2133	slt	x2,x24,x11	 x24:0x00000000 x11:0x80009f40  x2=0x00000000
       58055000	      5804	80001720	01ecc4b3	xor	x9,x25,x30	 x25:0x00000001 x30:0x00000000  x9=0x00000001
       58065000	      5805	80001724	00108093	addi	x1,x1,1	  x1:0x0000000d  x1=0x0000000e
       58075000	      5806	80001728	41a75513	srai	x10,x14,0x1a	 x14:0xfffff954 x10=0xffffffff
       58085000	      5807	8000172c	40b581b3	sub	x3,x11,x11	 x11:0x80009f40 x11:0x80009f40  x3=0x00000000
       58095000	      5808	80001730	111ae413	ori	x8,x21,273	 x21:0x0000000e  x8=0x0000011f
       58105000	      5809	80001734	41415793	srai	x15,x2,0x14	  x2:0x00000000 x15=0x00000000
       58115000	      5810	80001738	fd20cee3	blt	x1,x18,80001714	  x1:0x0000000e x18:0x00000011
       58125000	      5811	00000000	00000013	addi	x0,x0,0	  x0:0x00000000
       58135000	      5812	80001710	00000013	addi	x0,x0,0	  x0:0x00000000
       58145000	      5813	80001714	01a2fc33	and	x24,x5,x26	  x5:0x00000000 x26:0xfffffffc x24=0x00000000
       58155000	      5814	80001718	01bf9b33	sll	x22,x31,x27	 x31:0x80000000 x27:0x00000000 x22=0x80000000
       58165000	      5815	8000171c	00bc2133	slt	x2,x24,x11	 x24:0x00000000 x11:0x80009f40  x2=0x00000000
       58175000	      5816	80001720	01ecc4b3	xor	x9,x25,x30	 x25:0x00000001 x30:0x00000000  x9=0x00000001
       58185000	      5817	80001724	00108093	addi	x1,x1,1	  x1:0x0000000e  x1=0x0000000f
       58195000	      5818	80001728	41a75513	srai	x10,x14,0x1a	 x14:0xfffff954 x10=0xffffffff
       58205000	      5819	8000172c	40b581b3	sub	x3,x11,x11	 x11:0x80009f40 x11:0x80009f40  x3=0x00000000
       58215000	      5820	80001730	111ae413	ori	x8,x21,273	 x21:0x0000000e  x8=0x0000011f
       58225000	      5821	80001734	41415793	srai	x15,x2,0x14	  x2:0x00000000 x15=0x00000000
       58235000	      5822	80001738	fd20cee3	blt	x1,x18,80001714	  x1:0x0000000f x18:0x00000011
       58245000	      5823	00000000	00000013	addi	x0,x0,0	  x0:0x00000000
       58255000	      5824	80001710	00000013	addi	x0,x0,0	  x0:0x00000000
       58265000	      5825	80001714	01a2fc33	and	x24,x5,x26	  x5:0x00000000 x26:0xfffffffc x24=0x00000000
       58275000	      5826	80001718	01bf9b33	sll	x22,x31,x27	 x31:0x80000000 x27:0x00000000 x22=0x80000000
       58285000	      5827	8000171c	00bc2133	slt	x2,x24,x11	 x24:0x00000000 x11:0x80009f40  x2=0x00000000
       58295000	      5828	80001720	01ecc4b3	xor	x9,x25,x30	 x25:0x00000001 x30:0x00000000  x9=0x00000001
       58305000	      5829	80001724	00108093	addi	x1,x1,1	  x1:0x0000000f  x1=0x00000010
       58315000	      5830	80001728	41a75513	srai	x10,x14,0x1a	 x14:0xfffff954 x10=0xffffffff
       58325000	      5831	8000172c	40b581b3	sub	x3,x11,x11	 x11:0x80009f40 x11:0x80009f40  x3=0x00000000
       58335000	      5832	80001730	111ae413	ori	x8,x21,273	 x21:0x0000000e  x8=0x0000011f
       58345000	      5833	80001734	41415793	srai	x15,x2,0x14	  x2:0x00000000 x15=0x00000000
       58355000	      5834	80001738	fd20cee3	blt	x1,x18,80001714	  x1:0x00000010 x18:0x00000011
       58365000	      5835	00000000	00000013	addi	x0,x0,0	  x0:0x00000000
       58375000	      5836	80001710	00000013	addi	x0,x0,0	  x0:0x00000000
       58385000	      5837	80001714	01a2fc33	and	x24,x5,x26	  x5:0x00000000 x26:0xfffffffc x24=0x00000000
       58395000	      5838	80001718	01bf9b33	sll	x22,x31,x27	 x31:0x80000000 x27:0x00000000 x22=0x80000000
       58405000	      5839	8000171c	00bc2133	slt	x2,x24,x11	 x24:0x00000000 x11:0x80009f40  x2=0x00000000
       58415000	      5840	80001720	01ecc4b3	xor	x9,x25,x30	 x25:0x00000001 x30:0x00000000  x9=0x00000001
       58425000	      5841	80001724	00108093	addi	x1,x1,1	  x1:0x00000010  x1=0x00000011
       58435000	      5842	80001728	41a75513	srai	x10,x14,0x1a	 x14:0xfffff954 x10=0xffffffff
       58445000	      5843	8000172c	40b581b3	sub	x3,x11,x11	 x11:0x80009f40 x11:0x80009f40  x3=0x00000000
       58455000	      5844	80001730	111ae413	ori	x8,x21,273	 x21:0x0000000e  x8=0x0000011f
       58465000	      5845	80001734	41415793	srai	x15,x2,0x14	  x2:0x00000000 x15=0x00000000
       58475000	      5846	80001738	fd20cee3	blt	x1,x18,80001714	  x1:0x00000011 x18:0x00000011
       58485000	      5847	8000173c	a23ee693	ori	x13,x29,-1501	 x29:0x00000006 x13=0xfffffa27
       58495000	      5848	80001740	4c5bb113	sltiu	x2,x23,1221	 x23:0x00000000  x2=0x00000001
       58505000	      5849	80001744	fb5e92e3	bne	x29,x21,800016e8	 x29:0x00000006 x21:0x0000000e
       58515000	      5850	00000000	00000013	addi	x0,x0,0	  x0:0x00000000
       58525000	      5851	800016e4	00000013	addi	x0,x0,0	  x0:0x00000000
       58535000	      5852	800016e8	79f259b7	lui	x19,0x79f25	 x19=0x79f25000
       58545000	      5853	800016ec	004e8e93	addi	x29,x29,4	 x29:0x00000006 x29=0x0000000a
       58555000	      5854	800016f0	019334b3	sltu	x9,x6,x25	  x6:0x167a4000 x25:0x00000001  x9=0x00000000
       58565000	      5855	800016f4	00e42b33	slt	x22,x8,x14	  x8:0x0000011f x14:0xfffff954 x22=0x00000000
       58575000	      5856	800016f8	01e45b93	srli	x23,x8,0x1e	  x8:0x0000011f x23=0x00000000
       58585000	      5857	800016fc	00800093	addi	x1,x0,8	  x0:0x00000000  x1=0x00000008
       58595000	      5858	80001700	019c4b33	xor	x22,x24,x25	 x24:0x00000000 x25:0x00000001 x22=0x00000001
       58605000	      5859	80001704	01c49813	slli	x16,x9,0x1c	  x9:0x00000000 x16=0x00000000
       58615000	      5860	80001708	01100913	addi	x18,x0,17	  x0:0x00000000 x18=0x00000011
       58625000	      5861	8000170c	00a61433	sll	x8,x12,x10	 x12:0x00000001 x10:0xffffffff  x8=0x80000000
       58635000	      5862	80001710	018e45b3	xor	x11,x28,x24	 x28:0x80009f40 x24:0x00000000 x11=0x80009f40
       58645000	      5863	80001714	01a2fc33	and	x24,x5,x26	  x5:0x00000000 x26:0xfffffffc x24=0x00000000
       58655000	      5864	80001718	01bf9b33	sll	x22,x31,x27	 x31:0x80000000 x27:0x00000000 x22=0x80000000
       58665000	      5865	8000171c	00bc2133	slt	x2,x24,x11	 x24:0x00000000 x11:0x80009f40  x2=0x00000000
       58675000	      5866	80001720	01ecc4b3	xor	x9,x25,x30	 x25:0x00000001 x30:0x00000000  x9=0x00000001
       58685000	      5867	80001724	00108093	addi	x1,x1,1	  x1:0x00000008  x1=0x00000009
       58695000	      5868	80001728	41a75513	srai	x10,x14,0x1a	 x14:0xfffff954 x10=0xffffffff
       58705000	      5869	8000172c	40b581b3	sub	x3,x11,x11	 x11:0x80009f40 x11:0x80009f40  x3=0x00000000
       58715000	      5870	80001730	111ae413	ori	x8,x21,273	 x21:0x0000000e  x8=0x0000011f
       58725000	      5871	80001734	41415793	srai	x15,x2,0x14	  x2:0x00000000 x15=0x00000000
       58735000	      5872	80001738	fd20cee3	blt	x1,x18,80001714	  x1:0x00000009 x18:0x00000011
       58745000	      5873	00000000	00000013	addi	x0,x0,0	  x0:0x00000000
       58755000	      5874	80001710	00000013	addi	x0,x0,0	  x0:0x00000000
       58765000	      5875	80001714	01a2fc33	and	x24,x5,x26	  x5:0x00000000 x26:0xfffffffc x24=0x00000000
       58775000	      5876	80001718	01bf9b33	sll	x22,x31,x27	 x31:0x80000000 x27:0x00000000 x22=0x80000000
       58785000	      5877	8000171c	00bc2133	slt	x2,x24,x11	 x24:0x00000000 x11:0x80009f40  x2=0x00000000
       58795000	      5878	80001720	01ecc4b3	xor	x9,x25,x30	 x25:0x00000001 x30:0x00000000  x9=0x00000001
       58805000	      5879	80001724	00108093	addi	x1,x1,1	  x1:0x00000009  x1=0x0000000a
       58815000	      5880	80001728	41a75513	srai	x10,x14,0x1a	 x14:0xfffff954 x10=0xffffffff
       58825000	      5881	8000172c	40b581b3	sub	x3,x11,x11	 x11:0x80009f40 x11:0x80009f40  x3=0x00000000
       58835000	      5882	80001730	111ae413	ori	x8,x21,273	 x21:0x0000000e  x8=0x0000011f
       58845000	      5883	80001734	41415793	srai	x15,x2,0x14	  x2:0x00000000 x15=0x00000000
       58855000	      5884	80001738	fd20cee3	blt	x1,x18,80001714	  x1:0x0000000a x18:0x00000011
       58865000	      5885	00000000	00000013	addi	x0,x0,0	  x0:0x00000000
       58875000	      5886	80001710	00000013	addi	x0,x0,0	  x0:0x00000000
       58885000	      5887	80001714	01a2fc33	and	x24,x5,x26	  x5:0x00000000 x26:0xfffffffc x24=0x00000000
       58895000	      5888	80001718	01bf9b33	sll	x22,x31,x27	 x31:0x80000000 x27:0x00000000 x22=0x80000000
       58905000	      5889	8000171c	00bc2133	slt	x2,x24,x11	 x24:0x00000000 x11:0x80009f40  x2=0x00000000
       58915000	      5890	80001720	01ecc4b3	xor	x9,x25,x30	 x25:0x00000001 x30:0x00000000  x9=0x00000001
       58925000	      5891	80001724	00108093	addi	x1,x1,1	  x1:0x0000000a  x1=0x0000000b
       58935000	      5892	80001728	41a75513	srai	x10,x14,0x1a	 x14:0xfffff954 x10=0xffffffff
       58945000	      5893	8000172c	40b581b3	sub	x3,x11,x11	 x11:0x80009f40 x11:0x80009f40  x3=0x00000000
       58955000	      5894	80001730	111ae413	ori	x8,x21,273	 x21:0x0000000e  x8=0x0000011f
       58965000	      5895	80001734	41415793	srai	x15,x2,0x14	  x2:0x00000000 x15=0x00000000
       58975000	      5896	80001738	fd20cee3	blt	x1,x18,80001714	  x1:0x0000000b x18:0x00000011
       58985000	      5897	00000000	00000013	addi	x0,x0,0	  x0:0x00000000
       58995000	      5898	80001710	00000013	addi	x0,x0,0	  x0:0x00000000
       59005000	      5899	80001714	01a2fc33	and	x24,x5,x26	  x5:0x00000000 x26:0xfffffffc x24=0x00000000
       59015000	      5900	80001718	01bf9b33	sll	x22,x31,x27	 x31:0x80000000 x27:0x00000000 x22=0x80000000
       59025000	      5901	8000171c	00bc2133	slt	x2,x24,x11	 x24:0x00000000 x11:0x80009f40  x2=0x00000000
       59035000	      5902	80001720	01ecc4b3	xor	x9,x25,x30	 x25:0x00000001 x30:0x00000000  x9=0x00000001
       59045000	      5903	80001724	00108093	addi	x1,x1,1	  x1:0x0000000b  x1=0x0000000c
       59055000	      5904	80001728	41a75513	srai	x10,x14,0x1a	 x14:0xfffff954 x10=0xffffffff
       59065000	      5905	8000172c	40b581b3	sub	x3,x11,x11	 x11:0x80009f40 x11:0x80009f40  x3=0x00000000
       59075000	      5906	80001730	111ae413	ori	x8,x21,273	 x21:0x0000000e  x8=0x0000011f
       59085000	      5907	80001734	41415793	srai	x15,x2,0x14	  x2:0x00000000 x15=0x00000000
       59095000	      5908	80001738	fd20cee3	blt	x1,x18,80001714	  x1:0x0000000c x18:0x00000011
       59105000	      5909	00000000	00000013	addi	x0,x0,0	  x0:0x00000000
       59115000	      5910	80001710	00000013	addi	x0,x0,0	  x0:0x00000000
       59125000	      5911	80001714	01a2fc33	and	x24,x5,x26	  x5:0x00000000 x26:0xfffffffc x24=0x00000000
       59135000	      5912	80001718	01bf9b33	sll	x22,x31,x27	 x31:0x80000000 x27:0x00000000 x22=0x80000000
       59145000	      5913	8000171c	00bc2133	slt	x2,x24,x11	 x24:0x00000000 x11:0x80009f40  x2=0x00000000
       59155000	      5914	80001720	01ecc4b3	xor	x9,x25,x30	 x25:0x00000001 x30:0x00000000  x9=0x00000001
       59165000	      5915	80001724	00108093	addi	x1,x1,1	  x1:0x0000000c  x1=0x0000000d
       59175000	      5916	80001728	41a75513	srai	x10,x14,0x1a	 x14:0xfffff954 x10=0xffffffff
       59185000	      5917	8000172c	40b581b3	sub	x3,x11,x11	 x11:0x80009f40 x11:0x80009f40  x3=0x00000000
       59195000	      5918	80001730	111ae413	ori	x8,x21,273	 x21:0x0000000e  x8=0x0000011f
       59205000	      5919	80001734	41415793	srai	x15,x2,0x14	  x2:0x00000000 x15=0x00000000
       59215000	      5920	80001738	fd20cee3	blt	x1,x18,80001714	  x1:0x0000000d x18:0x00000011
       59225000	      5921	00000000	00000013	addi	x0,x0,0	  x0:0x00000000
       59235000	      5922	80001710	00000013	addi	x0,x0,0	  x0:0x00000000
       59245000	      5923	80001714	01a2fc33	and	x24,x5,x26	  x5:0x00000000 x26:0xfffffffc x24=0x00000000
       59255000	      5924	80001718	01bf9b33	sll	x22,x31,x27	 x31:0x80000000 x27:0x00000000 x22=0x80000000
       59265000	      5925	8000171c	00bc2133	slt	x2,x24,x11	 x24:0x00000000 x11:0x80009f40  x2=0x00000000
       59275000	      5926	80001720	01ecc4b3	xor	x9,x25,x30	 x25:0x00000001 x30:0x00000000  x9=0x00000001
       59285000	      5927	80001724	00108093	addi	x1,x1,1	  x1:0x0000000d  x1=0x0000000e
       59295000	      5928	80001728	41a75513	srai	x10,x14,0x1a	 x14:0xfffff954 x10=0xffffffff
       59305000	      5929	8000172c	40b581b3	sub	x3,x11,x11	 x11:0x80009f40 x11:0x80009f40  x3=0x00000000
       59315000	      5930	80001730	111ae413	ori	x8,x21,273	 x21:0x0000000e  x8=0x0000011f
       59325000	      5931	80001734	41415793	srai	x15,x2,0x14	  x2:0x00000000 x15=0x00000000
       59335000	      5932	80001738	fd20cee3	blt	x1,x18,80001714	  x1:0x0000000e x18:0x00000011
       59345000	      5933	00000000	00000013	addi	x0,x0,0	  x0:0x00000000
       59355000	      5934	80001710	00000013	addi	x0,x0,0	  x0:0x00000000
       59365000	      5935	80001714	01a2fc33	and	x24,x5,x26	  x5:0x00000000 x26:0xfffffffc x24=0x00000000
       59375000	      5936	80001718	01bf9b33	sll	x22,x31,x27	 x31:0x80000000 x27:0x00000000 x22=0x80000000
       59385000	      5937	8000171c	00bc2133	slt	x2,x24,x11	 x24:0x00000000 x11:0x80009f40  x2=0x00000000
       59395000	      5938	80001720	01ecc4b3	xor	x9,x25,x30	 x25:0x00000001 x30:0x00000000  x9=0x00000001
       59405000	      5939	80001724	00108093	addi	x1,x1,1	  x1:0x0000000e  x1=0x0000000f
       59415000	      5940	80001728	41a75513	srai	x10,x14,0x1a	 x14:0xfffff954 x10=0xffffffff
       59425000	      5941	8000172c	40b581b3	sub	x3,x11,x11	 x11:0x80009f40 x11:0x80009f40  x3=0x00000000
       59435000	      5942	80001730	111ae413	ori	x8,x21,273	 x21:0x0000000e  x8=0x0000011f
       59445000	      5943	80001734	41415793	srai	x15,x2,0x14	  x2:0x00000000 x15=0x00000000
       59455000	      5944	80001738	fd20cee3	blt	x1,x18,80001714	  x1:0x0000000f x18:0x00000011
       59465000	      5945	00000000	00000013	addi	x0,x0,0	  x0:0x00000000
       59475000	      5946	80001710	00000013	addi	x0,x0,0	  x0:0x00000000
       59485000	      5947	80001714	01a2fc33	and	x24,x5,x26	  x5:0x00000000 x26:0xfffffffc x24=0x00000000
       59495000	      5948	80001718	01bf9b33	sll	x22,x31,x27	 x31:0x80000000 x27:0x00000000 x22=0x80000000
       59505000	      5949	8000171c	00bc2133	slt	x2,x24,x11	 x24:0x00000000 x11:0x80009f40  x2=0x00000000
       59515000	      5950	80001720	01ecc4b3	xor	x9,x25,x30	 x25:0x00000001 x30:0x00000000  x9=0x00000001
       59525000	      5951	80001724	00108093	addi	x1,x1,1	  x1:0x0000000f  x1=0x00000010
       59535000	      5952	80001728	41a75513	srai	x10,x14,0x1a	 x14:0xfffff954 x10=0xffffffff
       59545000	      5953	8000172c	40b581b3	sub	x3,x11,x11	 x11:0x80009f40 x11:0x80009f40  x3=0x00000000
       59555000	      5954	80001730	111ae413	ori	x8,x21,273	 x21:0x0000000e  x8=0x0000011f
       59565000	      5955	80001734	41415793	srai	x15,x2,0x14	  x2:0x00000000 x15=0x00000000
       59575000	      5956	80001738	fd20cee3	blt	x1,x18,80001714	  x1:0x00000010 x18:0x00000011
       59585000	      5957	00000000	00000013	addi	x0,x0,0	  x0:0x00000000
       59595000	      5958	80001710	00000013	addi	x0,x0,0	  x0:0x00000000
       59605000	      5959	80001714	01a2fc33	and	x24,x5,x26	  x5:0x00000000 x26:0xfffffffc x24=0x00000000
       59615000	      5960	80001718	01bf9b33	sll	x22,x31,x27	 x31:0x80000000 x27:0x00000000 x22=0x80000000
       59625000	      5961	8000171c	00bc2133	slt	x2,x24,x11	 x24:0x00000000 x11:0x80009f40  x2=0x00000000
       59635000	      5962	80001720	01ecc4b3	xor	x9,x25,x30	 x25:0x00000001 x30:0x00000000  x9=0x00000001
       59645000	      5963	80001724	00108093	addi	x1,x1,1	  x1:0x00000010  x1=0x00000011
       59655000	      5964	80001728	41a75513	srai	x10,x14,0x1a	 x14:0xfffff954 x10=0xffffffff
       59665000	      5965	8000172c	40b581b3	sub	x3,x11,x11	 x11:0x80009f40 x11:0x80009f40  x3=0x00000000
       59675000	      5966	80001730	111ae413	ori	x8,x21,273	 x21:0x0000000e  x8=0x0000011f
       59685000	      5967	80001734	41415793	srai	x15,x2,0x14	  x2:0x00000000 x15=0x00000000
       59695000	      5968	80001738	fd20cee3	blt	x1,x18,80001714	  x1:0x00000011 x18:0x00000011
       59705000	      5969	8000173c	a23ee693	ori	x13,x29,-1501	 x29:0x0000000a x13=0xfffffa2b
       59715000	      5970	80001740	4c5bb113	sltiu	x2,x23,1221	 x23:0x00000000  x2=0x00000001
       59725000	      5971	80001744	fb5e92e3	bne	x29,x21,800016e8	 x29:0x0000000a x21:0x0000000e
       59735000	      5972	00000000	00000013	addi	x0,x0,0	  x0:0x00000000
       59745000	      5973	800016e4	00000013	addi	x0,x0,0	  x0:0x00000000
       59755000	      5974	800016e8	79f259b7	lui	x19,0x79f25	 x19=0x79f25000
       59765000	      5975	800016ec	004e8e93	addi	x29,x29,4	 x29:0x0000000a x29=0x0000000e
       59775000	      5976	800016f0	019334b3	sltu	x9,x6,x25	  x6:0x167a4000 x25:0x00000001  x9=0x00000000
       59785000	      5977	800016f4	00e42b33	slt	x22,x8,x14	  x8:0x0000011f x14:0xfffff954 x22=0x00000000
       59795000	      5978	800016f8	01e45b93	srli	x23,x8,0x1e	  x8:0x0000011f x23=0x00000000
       59805000	      5979	800016fc	00800093	addi	x1,x0,8	  x0:0x00000000  x1=0x00000008
       59815000	      5980	80001700	019c4b33	xor	x22,x24,x25	 x24:0x00000000 x25:0x00000001 x22=0x00000001
       59825000	      5981	80001704	01c49813	slli	x16,x9,0x1c	  x9:0x00000000 x16=0x00000000
       59835000	      5982	80001708	01100913	addi	x18,x0,17	  x0:0x00000000 x18=0x00000011
       59845000	      5983	8000170c	00a61433	sll	x8,x12,x10	 x12:0x00000001 x10:0xffffffff  x8=0x80000000
       59855000	      5984	80001710	018e45b3	xor	x11,x28,x24	 x28:0x80009f40 x24:0x00000000 x11=0x80009f40
       59865000	      5985	80001714	01a2fc33	and	x24,x5,x26	  x5:0x00000000 x26:0xfffffffc x24=0x00000000
       59875000	      5986	80001718	01bf9b33	sll	x22,x31,x27	 x31:0x80000000 x27:0x00000000 x22=0x80000000
       59885000	      5987	8000171c	00bc2133	slt	x2,x24,x11	 x24:0x00000000 x11:0x80009f40  x2=0x00000000
       59895000	      5988	80001720	01ecc4b3	xor	x9,x25,x30	 x25:0x00000001 x30:0x00000000  x9=0x00000001
       59905000	      5989	80001724	00108093	addi	x1,x1,1	  x1:0x00000008  x1=0x00000009
       59915000	      5990	80001728	41a75513	srai	x10,x14,0x1a	 x14:0xfffff954 x10=0xffffffff
       59925000	      5991	8000172c	40b581b3	sub	x3,x11,x11	 x11:0x80009f40 x11:0x80009f40  x3=0x00000000
       59935000	      5992	80001730	111ae413	ori	x8,x21,273	 x21:0x0000000e  x8=0x0000011f
       59945000	      5993	80001734	41415793	srai	x15,x2,0x14	  x2:0x00000000 x15=0x00000000
       59955000	      5994	80001738	fd20cee3	blt	x1,x18,80001714	  x1:0x00000009 x18:0x00000011
       59965000	      5995	00000000	00000013	addi	x0,x0,0	  x0:0x00000000
       59975000	      5996	80001710	00000013	addi	x0,x0,0	  x0:0x00000000
       59985000	      5997	80001714	01a2fc33	and	x24,x5,x26	  x5:0x00000000 x26:0xfffffffc x24=0x00000000
       59995000	      5998	80001718	01bf9b33	sll	x22,x31,x27	 x31:0x80000000 x27:0x00000000 x22=0x80000000
       60005000	      5999	8000171c	00bc2133	slt	x2,x24,x11	 x24:0x00000000 x11:0x80009f40  x2=0x00000000
       60015000	      6000	80001720	01ecc4b3	xor	x9,x25,x30	 x25:0x00000001 x30:0x00000000  x9=0x00000001
       60025000	      6001	80001724	00108093	addi	x1,x1,1	  x1:0x00000009  x1=0x0000000a
       60035000	      6002	80001728	41a75513	srai	x10,x14,0x1a	 x14:0xfffff954 x10=0xffffffff
       60045000	      6003	8000172c	40b581b3	sub	x3,x11,x11	 x11:0x80009f40 x11:0x80009f40  x3=0x00000000
       60055000	      6004	80001730	111ae413	ori	x8,x21,273	 x21:0x0000000e  x8=0x0000011f
       60065000	      6005	80001734	41415793	srai	x15,x2,0x14	  x2:0x00000000 x15=0x00000000
       60075000	      6006	80001738	fd20cee3	blt	x1,x18,80001714	  x1:0x0000000a x18:0x00000011
       60085000	      6007	00000000	00000013	addi	x0,x0,0	  x0:0x00000000
       60095000	      6008	80001710	00000013	addi	x0,x0,0	  x0:0x00000000
       60105000	      6009	80001714	01a2fc33	and	x24,x5,x26	  x5:0x00000000 x26:0xfffffffc x24=0x00000000
       60115000	      6010	80001718	01bf9b33	sll	x22,x31,x27	 x31:0x80000000 x27:0x00000000 x22=0x80000000
       60125000	      6011	8000171c	00bc2133	slt	x2,x24,x11	 x24:0x00000000 x11:0x80009f40  x2=0x00000000
       60135000	      6012	80001720	01ecc4b3	xor	x9,x25,x30	 x25:0x00000001 x30:0x00000000  x9=0x00000001
       60145000	      6013	80001724	00108093	addi	x1,x1,1	  x1:0x0000000a  x1=0x0000000b
       60155000	      6014	80001728	41a75513	srai	x10,x14,0x1a	 x14:0xfffff954 x10=0xffffffff
       60165000	      6015	8000172c	40b581b3	sub	x3,x11,x11	 x11:0x80009f40 x11:0x80009f40  x3=0x00000000
       60175000	      6016	80001730	111ae413	ori	x8,x21,273	 x21:0x0000000e  x8=0x0000011f
       60185000	      6017	80001734	41415793	srai	x15,x2,0x14	  x2:0x00000000 x15=0x00000000
       60195000	      6018	80001738	fd20cee3	blt	x1,x18,80001714	  x1:0x0000000b x18:0x00000011
       60205000	      6019	00000000	00000013	addi	x0,x0,0	  x0:0x00000000
       60215000	      6020	80001710	00000013	addi	x0,x0,0	  x0:0x00000000
       60225000	      6021	80001714	01a2fc33	and	x24,x5,x26	  x5:0x00000000 x26:0xfffffffc x24=0x00000000
       60235000	      6022	80001718	01bf9b33	sll	x22,x31,x27	 x31:0x80000000 x27:0x00000000 x22=0x80000000
       60245000	      6023	8000171c	00bc2133	slt	x2,x24,x11	 x24:0x00000000 x11:0x80009f40  x2=0x00000000
       60255000	      6024	80001720	01ecc4b3	xor	x9,x25,x30	 x25:0x00000001 x30:0x00000000  x9=0x00000001
       60265000	      6025	80001724	00108093	addi	x1,x1,1	  x1:0x0000000b  x1=0x0000000c
       60275000	      6026	80001728	41a75513	srai	x10,x14,0x1a	 x14:0xfffff954 x10=0xffffffff
       60285000	      6027	8000172c	40b581b3	sub	x3,x11,x11	 x11:0x80009f40 x11:0x80009f40  x3=0x00000000
       60295000	      6028	80001730	111ae413	ori	x8,x21,273	 x21:0x0000000e  x8=0x0000011f
       60305000	      6029	80001734	41415793	srai	x15,x2,0x14	  x2:0x00000000 x15=0x00000000
       60315000	      6030	80001738	fd20cee3	blt	x1,x18,80001714	  x1:0x0000000c x18:0x00000011
       60325000	      6031	00000000	00000013	addi	x0,x0,0	  x0:0x00000000
       60335000	      6032	80001710	00000013	addi	x0,x0,0	  x0:0x00000000
       60345000	      6033	80001714	01a2fc33	and	x24,x5,x26	  x5:0x00000000 x26:0xfffffffc x24=0x00000000
       60355000	      6034	80001718	01bf9b33	sll	x22,x31,x27	 x31:0x80000000 x27:0x00000000 x22=0x80000000
       60365000	      6035	8000171c	00bc2133	slt	x2,x24,x11	 x24:0x00000000 x11:0x80009f40  x2=0x00000000
       60375000	      6036	80001720	01ecc4b3	xor	x9,x25,x30	 x25:0x00000001 x30:0x00000000  x9=0x00000001
       60385000	      6037	80001724	00108093	addi	x1,x1,1	  x1:0x0000000c  x1=0x0000000d
       60395000	      6038	80001728	41a75513	srai	x10,x14,0x1a	 x14:0xfffff954 x10=0xffffffff
       60405000	      6039	8000172c	40b581b3	sub	x3,x11,x11	 x11:0x80009f40 x11:0x80009f40  x3=0x00000000
       60415000	      6040	80001730	111ae413	ori	x8,x21,273	 x21:0x0000000e  x8=0x0000011f
       60425000	      6041	80001734	41415793	srai	x15,x2,0x14	  x2:0x00000000 x15=0x00000000
       60435000	      6042	80001738	fd20cee3	blt	x1,x18,80001714	  x1:0x0000000d x18:0x00000011
       60445000	      6043	00000000	00000013	addi	x0,x0,0	  x0:0x00000000
       60455000	      6044	80001710	00000013	addi	x0,x0,0	  x0:0x00000000
       60465000	      6045	80001714	01a2fc33	and	x24,x5,x26	  x5:0x00000000 x26:0xfffffffc x24=0x00000000
       60475000	      6046	80001718	01bf9b33	sll	x22,x31,x27	 x31:0x80000000 x27:0x00000000 x22=0x80000000
       60485000	      6047	8000171c	00bc2133	slt	x2,x24,x11	 x24:0x00000000 x11:0x80009f40  x2=0x00000000
       60495000	      6048	80001720	01ecc4b3	xor	x9,x25,x30	 x25:0x00000001 x30:0x00000000  x9=0x00000001
       60505000	      6049	80001724	00108093	addi	x1,x1,1	  x1:0x0000000d  x1=0x0000000e
       60515000	      6050	80001728	41a75513	srai	x10,x14,0x1a	 x14:0xfffff954 x10=0xffffffff
       60525000	      6051	8000172c	40b581b3	sub	x3,x11,x11	 x11:0x80009f40 x11:0x80009f40  x3=0x00000000
       60535000	      6052	80001730	111ae413	ori	x8,x21,273	 x21:0x0000000e  x8=0x0000011f
       60545000	      6053	80001734	41415793	srai	x15,x2,0x14	  x2:0x00000000 x15=0x00000000
       60555000	      6054	80001738	fd20cee3	blt	x1,x18,80001714	  x1:0x0000000e x18:0x00000011
       60565000	      6055	00000000	00000013	addi	x0,x0,0	  x0:0x00000000
       60575000	      6056	80001710	00000013	addi	x0,x0,0	  x0:0x00000000
       60585000	      6057	80001714	01a2fc33	and	x24,x5,x26	  x5:0x00000000 x26:0xfffffffc x24=0x00000000
       60595000	      6058	80001718	01bf9b33	sll	x22,x31,x27	 x31:0x80000000 x27:0x00000000 x22=0x80000000
       60605000	      6059	8000171c	00bc2133	slt	x2,x24,x11	 x24:0x00000000 x11:0x80009f40  x2=0x00000000
       60615000	      6060	80001720	01ecc4b3	xor	x9,x25,x30	 x25:0x00000001 x30:0x00000000  x9=0x00000001
       60625000	      6061	80001724	00108093	addi	x1,x1,1	  x1:0x0000000e  x1=0x0000000f
       60635000	      6062	80001728	41a75513	srai	x10,x14,0x1a	 x14:0xfffff954 x10=0xffffffff
       60645000	      6063	8000172c	40b581b3	sub	x3,x11,x11	 x11:0x80009f40 x11:0x80009f40  x3=0x00000000
       60655000	      6064	80001730	111ae413	ori	x8,x21,273	 x21:0x0000000e  x8=0x0000011f
       60665000	      6065	80001734	41415793	srai	x15,x2,0x14	  x2:0x00000000 x15=0x00000000
       60675000	      6066	80001738	fd20cee3	blt	x1,x18,80001714	  x1:0x0000000f x18:0x00000011
       60685000	      6067	00000000	00000013	addi	x0,x0,0	  x0:0x00000000
       60695000	      6068	80001710	00000013	addi	x0,x0,0	  x0:0x00000000
       60705000	      6069	80001714	01a2fc33	and	x24,x5,x26	  x5:0x00000000 x26:0xfffffffc x24=0x00000000
       60715000	      6070	80001718	01bf9b33	sll	x22,x31,x27	 x31:0x80000000 x27:0x00000000 x22=0x80000000
       60725000	      6071	8000171c	00bc2133	slt	x2,x24,x11	 x24:0x00000000 x11:0x80009f40  x2=0x00000000
       60735000	      6072	80001720	01ecc4b3	xor	x9,x25,x30	 x25:0x00000001 x30:0x00000000  x9=0x00000001
       60745000	      6073	80001724	00108093	addi	x1,x1,1	  x1:0x0000000f  x1=0x00000010
       60755000	      6074	80001728	41a75513	srai	x10,x14,0x1a	 x14:0xfffff954 x10=0xffffffff
       60765000	      6075	8000172c	40b581b3	sub	x3,x11,x11	 x11:0x80009f40 x11:0x80009f40  x3=0x00000000
       60775000	      6076	80001730	111ae413	ori	x8,x21,273	 x21:0x0000000e  x8=0x0000011f
       60785000	      6077	80001734	41415793	srai	x15,x2,0x14	  x2:0x00000000 x15=0x00000000
       60795000	      6078	80001738	fd20cee3	blt	x1,x18,80001714	  x1:0x00000010 x18:0x00000011
       60805000	      6079	00000000	00000013	addi	x0,x0,0	  x0:0x00000000
       60815000	      6080	80001710	00000013	addi	x0,x0,0	  x0:0x00000000
       60825000	      6081	80001714	01a2fc33	and	x24,x5,x26	  x5:0x00000000 x26:0xfffffffc x24=0x00000000
       60835000	      6082	80001718	01bf9b33	sll	x22,x31,x27	 x31:0x80000000 x27:0x00000000 x22=0x80000000
       60845000	      6083	8000171c	00bc2133	slt	x2,x24,x11	 x24:0x00000000 x11:0x80009f40  x2=0x00000000
       60855000	      6084	80001720	01ecc4b3	xor	x9,x25,x30	 x25:0x00000001 x30:0x00000000  x9=0x00000001
       60865000	      6085	80001724	00108093	addi	x1,x1,1	  x1:0x00000010  x1=0x00000011
       60875000	      6086	80001728	41a75513	srai	x10,x14,0x1a	 x14:0xfffff954 x10=0xffffffff
       60885000	      6087	8000172c	40b581b3	sub	x3,x11,x11	 x11:0x80009f40 x11:0x80009f40  x3=0x00000000
       60895000	      6088	80001730	111ae413	ori	x8,x21,273	 x21:0x0000000e  x8=0x0000011f
       60905000	      6089	80001734	41415793	srai	x15,x2,0x14	  x2:0x00000000 x15=0x00000000
       60915000	      6090	80001738	fd20cee3	blt	x1,x18,80001714	  x1:0x00000011 x18:0x00000011
       60925000	      6091	8000173c	a23ee693	ori	x13,x29,-1501	 x29:0x0000000e x13=0xfffffa2f
       60935000	      6092	80001740	4c5bb113	sltiu	x2,x23,1221	 x23:0x00000000  x2=0x00000001
       60945000	      6093	80001744	fb5e92e3	bne	x29,x21,800016e8	 x29:0x0000000e x21:0x0000000e
       60955000	      6094	80001748	41c0ddb3	sra	x27,x1,x28	  x1:0x00000011 x28:0x80009f40 x27=0x00000011
       60965000	      6095	8000174c	00500593	addi	x11,x0,5	  x0:0x00000000 x11=0x00000005
       60975000	      6096	80001750	1f199b97	auipc	x23,0x1f199	 x23=0x9f19a74c
       60985000	      6097	80001754	41885c13	srai	x24,x16,0x18	 x16:0x00000000 x24=0x00000000
       60995000	      6098	80001758	7a6aeb93	ori	x23,x21,1958	 x21:0x0000000e x23=0x000007ae
       61005000	      6099	8000175c	0031a7b3	slt	x15,x3,x3	  x3:0x00000000  x3:0x00000000 x15=0x00000000
       61015000	      6100	80001760	00000013	addi	x0,x0,0	  x0:0x00000000
       61025000	      6101	80001764	01400193	addi	x3,x0,20	  x0:0x00000000  x3=0x00000014
       61035000	      6102	80001768	3fb0ad93	slti	x27,x1,1019	  x1:0x00000011 x27=0x00000001
       61045000	      6103	8000176c	00526b33	or	x22,x4,x5	  x4:0xfffff932  x5:0x00000000 x22=0xfffff932
       61055000	      6104	80001770	00358593	addi	x11,x11,3	 x11:0x00000005 x11=0x00000008
       61065000	      6105	80001774	45672013	slti	x0,x14,1110	 x14:0xfffff954
       61075000	      6106	80001778	f4944493	xori	x9,x8,-183	  x8:0x0000011f  x9=0xfffffe56
       61085000	      6107	8000177c	6bd36b13	ori	x22,x6,1725	  x6:0x167a4000 x22=0x167a46bd
       61095000	      6108	80001780	00c593b3	sll	x7,x11,x12	 x11:0x00000008 x12:0x00000001  x7=0x00000010
       61105000	      6109	80001784	928b4e93	xori	x29,x22,-1752	 x22:0x167a46bd x29=0xe985bf95
       61115000	      6110	80001788	00010db3	add	x27,x2,x0	  x2:0x00000001  x0:0x00000000 x27=0x00000001
       61125000	      6111	8000178c	ff800513	addi	x10,x0,-8	  x0:0x00000000 x10=0xfffffff8
       61135000	      6112	80001790	00300213	addi	x4,x0,3	  x0:0x00000000  x4=0x00000003
       61145000	      6113	80001794	01cbc333	xor	x6,x23,x28	 x23:0x000007ae x28:0x80009f40  x6=0x800098ee
       61155000	      6114	80001798	b9920717	auipc	x14,0xb9920	 x14=0x39921794
       61165000	      6115	8000179c	00dc9693	slli	x13,x25,0xd	 x25:0x00000001 x13=0x00002000
       61175000	      6116	800017a0	00150513	addi	x10,x10,1	 x10:0xfffffff8 x10=0xfffffff9
       61185000	      6117	800017a4	20edcd17	auipc	x26,0x20edc	 x26=0xa0edd7a0
       61195000	      6118	800017a8	fe4548e3	blt	x10,x4,80001798	 x10:0xfffffff9  x4:0x00000003
       61205000	      6119	00000000	00000013	addi	x0,x0,0	  x0:0x00000000
       61215000	      6120	80001794	00000013	addi	x0,x0,0	  x0:0x00000000
       61225000	      6121	80001798	b9920717	auipc	x14,0xb9920	 x14=0x39921794
       61235000	      6122	8000179c	00dc9693	slli	x13,x25,0xd	 x25:0x00000001 x13=0x00002000
       61245000	      6123	800017a0	00150513	addi	x10,x10,1	 x10:0xfffffff9 x10=0xfffffffa
       61255000	      6124	800017a4	20edcd17	auipc	x26,0x20edc	 x26=0xa0edd7a0
       61265000	      6125	800017a8	fe4548e3	blt	x10,x4,80001798	 x10:0xfffffffa  x4:0x00000003
       61275000	      6126	00000000	00000013	addi	x0,x0,0	  x0:0x00000000
       61285000	      6127	80001794	00000013	addi	x0,x0,0	  x0:0x00000000
       61295000	      6128	80001798	b9920717	auipc	x14,0xb9920	 x14=0x39921794
       61305000	      6129	8000179c	00dc9693	slli	x13,x25,0xd	 x25:0x00000001 x13=0x00002000
       61315000	      6130	800017a0	00150513	addi	x10,x10,1	 x10:0xfffffffa x10=0xfffffffb
       61325000	      6131	800017a4	20edcd17	auipc	x26,0x20edc	 x26=0xa0edd7a0
       61335000	      6132	800017a8	fe4548e3	blt	x10,x4,80001798	 x10:0xfffffffb  x4:0x00000003
       61345000	      6133	00000000	00000013	addi	x0,x0,0	  x0:0x00000000
       61355000	      6134	80001794	00000013	addi	x0,x0,0	  x0:0x00000000
       61365000	      6135	80001798	b9920717	auipc	x14,0xb9920	 x14=0x39921794
       61375000	      6136	8000179c	00dc9693	slli	x13,x25,0xd	 x25:0x00000001 x13=0x00002000
       61385000	      6137	800017a0	00150513	addi	x10,x10,1	 x10:0xfffffffb x10=0xfffffffc
       61395000	      6138	800017a4	20edcd17	auipc	x26,0x20edc	 x26=0xa0edd7a0
       61405000	      6139	800017a8	fe4548e3	blt	x10,x4,80001798	 x10:0xfffffffc  x4:0x00000003
       61415000	      6140	00000000	00000013	addi	x0,x0,0	  x0:0x00000000
       61425000	      6141	80001794	00000013	addi	x0,x0,0	  x0:0x00000000
       61435000	      6142	80001798	b9920717	auipc	x14,0xb9920	 x14=0x39921794
       61445000	      6143	8000179c	00dc9693	slli	x13,x25,0xd	 x25:0x00000001 x13=0x00002000
       61455000	      6144	800017a0	00150513	addi	x10,x10,1	 x10:0xfffffffc x10=0xfffffffd
       61465000	      6145	800017a4	20edcd17	auipc	x26,0x20edc	 x26=0xa0edd7a0
       61475000	      6146	800017a8	fe4548e3	blt	x10,x4,80001798	 x10:0xfffffffd  x4:0x00000003
       61485000	      6147	00000000	00000013	addi	x0,x0,0	  x0:0x00000000
       61495000	      6148	80001794	00000013	addi	x0,x0,0	  x0:0x00000000
       61505000	      6149	80001798	b9920717	auipc	x14,0xb9920	 x14=0x39921794
       61515000	      6150	8000179c	00dc9693	slli	x13,x25,0xd	 x25:0x00000001 x13=0x00002000
       61525000	      6151	800017a0	00150513	addi	x10,x10,1	 x10:0xfffffffd x10=0xfffffffe
       61535000	      6152	800017a4	20edcd17	auipc	x26,0x20edc	 x26=0xa0edd7a0
       61545000	      6153	800017a8	fe4548e3	blt	x10,x4,80001798	 x10:0xfffffffe  x4:0x00000003
       61555000	      6154	00000000	00000013	addi	x0,x0,0	  x0:0x00000000
       61565000	      6155	80001794	00000013	addi	x0,x0,0	  x0:0x00000000
       61575000	      6156	80001798	b9920717	auipc	x14,0xb9920	 x14=0x39921794
       61585000	      6157	8000179c	00dc9693	slli	x13,x25,0xd	 x25:0x00000001 x13=0x00002000
       61595000	      6158	800017a0	00150513	addi	x10,x10,1	 x10:0xfffffffe x10=0xffffffff
       61605000	      6159	800017a4	20edcd17	auipc	x26,0x20edc	 x26=0xa0edd7a0
       61615000	      6160	800017a8	fe4548e3	blt	x10,x4,80001798	 x10:0xffffffff  x4:0x00000003
       61625000	      6161	00000000	00000013	addi	x0,x0,0	  x0:0x00000000
       61635000	      6162	80001794	00000013	addi	x0,x0,0	  x0:0x00000000
       61645000	      6163	80001798	b9920717	auipc	x14,0xb9920	 x14=0x39921794
       61655000	      6164	8000179c	00dc9693	slli	x13,x25,0xd	 x25:0x00000001 x13=0x00002000
       61665000	      6165	800017a0	00150513	addi	x10,x10,1	 x10:0xffffffff x10=0x00000000
       61675000	      6166	800017a4	20edcd17	auipc	x26,0x20edc	 x26=0xa0edd7a0
       61685000	      6167	800017a8	fe4548e3	blt	x10,x4,80001798	 x10:0x00000000  x4:0x00000003
       61695000	      6168	00000000	00000013	addi	x0,x0,0	  x0:0x00000000
       61705000	      6169	80001794	00000013	addi	x0,x0,0	  x0:0x00000000
       61715000	      6170	80001798	b9920717	auipc	x14,0xb9920	 x14=0x39921794
       61725000	      6171	8000179c	00dc9693	slli	x13,x25,0xd	 x25:0x00000001 x13=0x00002000
       61735000	      6172	800017a0	00150513	addi	x10,x10,1	 x10:0x00000000 x10=0x00000001
       61745000	      6173	800017a4	20edcd17	auipc	x26,0x20edc	 x26=0xa0edd7a0
       61755000	      6174	800017a8	fe4548e3	blt	x10,x4,80001798	 x10:0x00000001  x4:0x00000003
       61765000	      6175	00000000	00000013	addi	x0,x0,0	  x0:0x00000000
       61775000	      6176	80001794	00000013	addi	x0,x0,0	  x0:0x00000000
       61785000	      6177	80001798	b9920717	auipc	x14,0xb9920	 x14=0x39921794
       61795000	      6178	8000179c	00dc9693	slli	x13,x25,0xd	 x25:0x00000001 x13=0x00002000
       61805000	      6179	800017a0	00150513	addi	x10,x10,1	 x10:0x00000001 x10=0x00000002
       61815000	      6180	800017a4	20edcd17	auipc	x26,0x20edc	 x26=0xa0edd7a0
       61825000	      6181	800017a8	fe4548e3	blt	x10,x4,80001798	 x10:0x00000002  x4:0x00000003
       61835000	      6182	00000000	00000013	addi	x0,x0,0	  x0:0x00000000
       61845000	      6183	80001794	00000013	addi	x0,x0,0	  x0:0x00000000
       61855000	      6184	80001798	b9920717	auipc	x14,0xb9920	 x14=0x39921794
       61865000	      6185	8000179c	00dc9693	slli	x13,x25,0xd	 x25:0x00000001 x13=0x00002000
       61875000	      6186	800017a0	00150513	addi	x10,x10,1	 x10:0x00000002 x10=0x00000003
       61885000	      6187	800017a4	20edcd17	auipc	x26,0x20edc	 x26=0xa0edd7a0
       61895000	      6188	800017a8	fe4548e3	blt	x10,x4,80001798	 x10:0x00000003  x4:0x00000003
       61905000	      6189	800017ac	487a3413	sltiu	x8,x20,1159	 x20:0x80009fc4  x8=0x00000000
       61915000	      6190	800017b0	d24dc893	xori	x17,x27,-732	 x27:0x00000001 x17=0xfffffd25
       61925000	      6191	800017b4	58934813	xori	x16,x6,1417	  x6:0x800098ee x16=0x80009d67
       61935000	      6192	800017b8	e92a6013	ori	x0,x20,-366	 x20:0x80009fc4
       61945000	      6193	800017bc	408507b3	sub	x15,x10,x8	 x10:0x00000003  x8:0x00000000 x15=0x00000003
       61955000	      6194	800017c0	fa3594e3	bne	x11,x3,80001768	 x11:0x00000008  x3:0x00000014
       61965000	      6195	00000000	00000013	addi	x0,x0,0	  x0:0x00000000
       61975000	      6196	80001764	00000013	addi	x0,x0,0	  x0:0x00000000
       61985000	      6197	80001768	3fb0ad93	slti	x27,x1,1019	  x1:0x00000011 x27=0x00000001
       61995000	      6198	8000176c	00526b33	or	x22,x4,x5	  x4:0x00000003  x5:0x00000000 x22=0x00000003
       62005000	      6199	80001770	00358593	addi	x11,x11,3	 x11:0x00000008 x11=0x0000000b
       62015000	      6200	80001774	45672013	slti	x0,x14,1110	 x14:0x39921794
       62025000	      6201	80001778	f4944493	xori	x9,x8,-183	  x8:0x00000000  x9=0xffffff49
       62035000	      6202	8000177c	6bd36b13	ori	x22,x6,1725	  x6:0x800098ee x22=0x80009eff
       62045000	      6203	80001780	00c593b3	sll	x7,x11,x12	 x11:0x0000000b x12:0x00000001  x7=0x00000016
       62055000	      6204	80001784	928b4e93	xori	x29,x22,-1752	 x22:0x80009eff x29=0x7fff67d7
       62065000	      6205	80001788	00010db3	add	x27,x2,x0	  x2:0x00000001  x0:0x00000000 x27=0x00000001
       62075000	      6206	8000178c	ff800513	addi	x10,x0,-8	  x0:0x00000000 x10=0xfffffff8
       62085000	      6207	80001790	00300213	addi	x4,x0,3	  x0:0x00000000  x4=0x00000003
       62095000	      6208	80001794	01cbc333	xor	x6,x23,x28	 x23:0x000007ae x28:0x80009f40  x6=0x800098ee
       62105000	      6209	80001798	b9920717	auipc	x14,0xb9920	 x14=0x39921794
       62115000	      6210	8000179c	00dc9693	slli	x13,x25,0xd	 x25:0x00000001 x13=0x00002000
       62125000	      6211	800017a0	00150513	addi	x10,x10,1	 x10:0xfffffff8 x10=0xfffffff9
       62135000	      6212	800017a4	20edcd17	auipc	x26,0x20edc	 x26=0xa0edd7a0
       62145000	      6213	800017a8	fe4548e3	blt	x10,x4,80001798	 x10:0xfffffff9  x4:0x00000003
       62155000	      6214	00000000	00000013	addi	x0,x0,0	  x0:0x00000000
       62165000	      6215	80001794	00000013	addi	x0,x0,0	  x0:0x00000000
       62175000	      6216	80001798	b9920717	auipc	x14,0xb9920	 x14=0x39921794
       62185000	      6217	8000179c	00dc9693	slli	x13,x25,0xd	 x25:0x00000001 x13=0x00002000
       62195000	      6218	800017a0	00150513	addi	x10,x10,1	 x10:0xfffffff9 x10=0xfffffffa
       62205000	      6219	800017a4	20edcd17	auipc	x26,0x20edc	 x26=0xa0edd7a0
       62215000	      6220	800017a8	fe4548e3	blt	x10,x4,80001798	 x10:0xfffffffa  x4:0x00000003
       62225000	      6221	00000000	00000013	addi	x0,x0,0	  x0:0x00000000
       62235000	      6222	80001794	00000013	addi	x0,x0,0	  x0:0x00000000
       62245000	      6223	80001798	b9920717	auipc	x14,0xb9920	 x14=0x39921794
       62255000	      6224	8000179c	00dc9693	slli	x13,x25,0xd	 x25:0x00000001 x13=0x00002000
       62265000	      6225	800017a0	00150513	addi	x10,x10,1	 x10:0xfffffffa x10=0xfffffffb
       62275000	      6226	800017a4	20edcd17	auipc	x26,0x20edc	 x26=0xa0edd7a0
       62285000	      6227	800017a8	fe4548e3	blt	x10,x4,80001798	 x10:0xfffffffb  x4:0x00000003
       62295000	      6228	00000000	00000013	addi	x0,x0,0	  x0:0x00000000
       62305000	      6229	80001794	00000013	addi	x0,x0,0	  x0:0x00000000
       62315000	      6230	80001798	b9920717	auipc	x14,0xb9920	 x14=0x39921794
       62325000	      6231	8000179c	00dc9693	slli	x13,x25,0xd	 x25:0x00000001 x13=0x00002000
       62335000	      6232	800017a0	00150513	addi	x10,x10,1	 x10:0xfffffffb x10=0xfffffffc
       62345000	      6233	800017a4	20edcd17	auipc	x26,0x20edc	 x26=0xa0edd7a0
       62355000	      6234	800017a8	fe4548e3	blt	x10,x4,80001798	 x10:0xfffffffc  x4:0x00000003
       62365000	      6235	00000000	00000013	addi	x0,x0,0	  x0:0x00000000
       62375000	      6236	80001794	00000013	addi	x0,x0,0	  x0:0x00000000
       62385000	      6237	80001798	b9920717	auipc	x14,0xb9920	 x14=0x39921794
       62395000	      6238	8000179c	00dc9693	slli	x13,x25,0xd	 x25:0x00000001 x13=0x00002000
       62405000	      6239	800017a0	00150513	addi	x10,x10,1	 x10:0xfffffffc x10=0xfffffffd
       62415000	      6240	800017a4	20edcd17	auipc	x26,0x20edc	 x26=0xa0edd7a0
       62425000	      6241	800017a8	fe4548e3	blt	x10,x4,80001798	 x10:0xfffffffd  x4:0x00000003
       62435000	      6242	00000000	00000013	addi	x0,x0,0	  x0:0x00000000
       62445000	      6243	80001794	00000013	addi	x0,x0,0	  x0:0x00000000
       62455000	      6244	80001798	b9920717	auipc	x14,0xb9920	 x14=0x39921794
       62465000	      6245	8000179c	00dc9693	slli	x13,x25,0xd	 x25:0x00000001 x13=0x00002000
       62475000	      6246	800017a0	00150513	addi	x10,x10,1	 x10:0xfffffffd x10=0xfffffffe
       62485000	      6247	800017a4	20edcd17	auipc	x26,0x20edc	 x26=0xa0edd7a0
       62495000	      6248	800017a8	fe4548e3	blt	x10,x4,80001798	 x10:0xfffffffe  x4:0x00000003
       62505000	      6249	00000000	00000013	addi	x0,x0,0	  x0:0x00000000
       62515000	      6250	80001794	00000013	addi	x0,x0,0	  x0:0x00000000
       62525000	      6251	80001798	b9920717	auipc	x14,0xb9920	 x14=0x39921794
       62535000	      6252	8000179c	00dc9693	slli	x13,x25,0xd	 x25:0x00000001 x13=0x00002000
       62545000	      6253	800017a0	00150513	addi	x10,x10,1	 x10:0xfffffffe x10=0xffffffff
       62555000	      6254	800017a4	20edcd17	auipc	x26,0x20edc	 x26=0xa0edd7a0
       62565000	      6255	800017a8	fe4548e3	blt	x10,x4,80001798	 x10:0xffffffff  x4:0x00000003
       62575000	      6256	00000000	00000013	addi	x0,x0,0	  x0:0x00000000
       62585000	      6257	80001794	00000013	addi	x0,x0,0	  x0:0x00000000
       62595000	      6258	80001798	b9920717	auipc	x14,0xb9920	 x14=0x39921794
       62605000	      6259	8000179c	00dc9693	slli	x13,x25,0xd	 x25:0x00000001 x13=0x00002000
       62615000	      6260	800017a0	00150513	addi	x10,x10,1	 x10:0xffffffff x10=0x00000000
       62625000	      6261	800017a4	20edcd17	auipc	x26,0x20edc	 x26=0xa0edd7a0
       62635000	      6262	800017a8	fe4548e3	blt	x10,x4,80001798	 x10:0x00000000  x4:0x00000003
       62645000	      6263	00000000	00000013	addi	x0,x0,0	  x0:0x00000000
       62655000	      6264	80001794	00000013	addi	x0,x0,0	  x0:0x00000000
       62665000	      6265	80001798	b9920717	auipc	x14,0xb9920	 x14=0x39921794
       62675000	      6266	8000179c	00dc9693	slli	x13,x25,0xd	 x25:0x00000001 x13=0x00002000
       62685000	      6267	800017a0	00150513	addi	x10,x10,1	 x10:0x00000000 x10=0x00000001
       62695000	      6268	800017a4	20edcd17	auipc	x26,0x20edc	 x26=0xa0edd7a0
       62705000	      6269	800017a8	fe4548e3	blt	x10,x4,80001798	 x10:0x00000001  x4:0x00000003
       62715000	      6270	00000000	00000013	addi	x0,x0,0	  x0:0x00000000
       62725000	      6271	80001794	00000013	addi	x0,x0,0	  x0:0x00000000
       62735000	      6272	80001798	b9920717	auipc	x14,0xb9920	 x14=0x39921794
       62745000	      6273	8000179c	00dc9693	slli	x13,x25,0xd	 x25:0x00000001 x13=0x00002000
       62755000	      6274	800017a0	00150513	addi	x10,x10,1	 x10:0x00000001 x10=0x00000002
       62765000	      6275	800017a4	20edcd17	auipc	x26,0x20edc	 x26=0xa0edd7a0
       62775000	      6276	800017a8	fe4548e3	blt	x10,x4,80001798	 x10:0x00000002  x4:0x00000003
       62785000	      6277	00000000	00000013	addi	x0,x0,0	  x0:0x00000000
       62795000	      6278	80001794	00000013	addi	x0,x0,0	  x0:0x00000000
       62805000	      6279	80001798	b9920717	auipc	x14,0xb9920	 x14=0x39921794
       62815000	      6280	8000179c	00dc9693	slli	x13,x25,0xd	 x25:0x00000001 x13=0x00002000
       62825000	      6281	800017a0	00150513	addi	x10,x10,1	 x10:0x00000002 x10=0x00000003
       62835000	      6282	800017a4	20edcd17	auipc	x26,0x20edc	 x26=0xa0edd7a0
       62845000	      6283	800017a8	fe4548e3	blt	x10,x4,80001798	 x10:0x00000003  x4:0x00000003
       62855000	      6284	800017ac	487a3413	sltiu	x8,x20,1159	 x20:0x80009fc4  x8=0x00000000
       62865000	      6285	800017b0	d24dc893	xori	x17,x27,-732	 x27:0x00000001 x17=0xfffffd25
       62875000	      6286	800017b4	58934813	xori	x16,x6,1417	  x6:0x800098ee x16=0x80009d67
       62885000	      6287	800017b8	e92a6013	ori	x0,x20,-366	 x20:0x80009fc4
       62895000	      6288	800017bc	408507b3	sub	x15,x10,x8	 x10:0x00000003  x8:0x00000000 x15=0x00000003
       62905000	      6289	800017c0	fa3594e3	bne	x11,x3,80001768	 x11:0x0000000b  x3:0x00000014
       62915000	      6290	00000000	00000013	addi	x0,x0,0	  x0:0x00000000
       62925000	      6291	80001764	00000013	addi	x0,x0,0	  x0:0x00000000
       62935000	      6292	80001768	3fb0ad93	slti	x27,x1,1019	  x1:0x00000011 x27=0x00000001
       62945000	      6293	8000176c	00526b33	or	x22,x4,x5	  x4:0x00000003  x5:0x00000000 x22=0x00000003
       62955000	      6294	80001770	00358593	addi	x11,x11,3	 x11:0x0000000b x11=0x0000000e
       62965000	      6295	80001774	45672013	slti	x0,x14,1110	 x14:0x39921794
       62975000	      6296	80001778	f4944493	xori	x9,x8,-183	  x8:0x00000000  x9=0xffffff49
       62985000	      6297	8000177c	6bd36b13	ori	x22,x6,1725	  x6:0x800098ee x22=0x80009eff
       62995000	      6298	80001780	00c593b3	sll	x7,x11,x12	 x11:0x0000000e x12:0x00000001  x7=0x0000001c
       63005000	      6299	80001784	928b4e93	xori	x29,x22,-1752	 x22:0x80009eff x29=0x7fff67d7
       63015000	      6300	80001788	00010db3	add	x27,x2,x0	  x2:0x00000001  x0:0x00000000 x27=0x00000001
       63025000	      6301	8000178c	ff800513	addi	x10,x0,-8	  x0:0x00000000 x10=0xfffffff8
       63035000	      6302	80001790	00300213	addi	x4,x0,3	  x0:0x00000000  x4=0x00000003
       63045000	      6303	80001794	01cbc333	xor	x6,x23,x28	 x23:0x000007ae x28:0x80009f40  x6=0x800098ee
       63055000	      6304	80001798	b9920717	auipc	x14,0xb9920	 x14=0x39921794
       63065000	      6305	8000179c	00dc9693	slli	x13,x25,0xd	 x25:0x00000001 x13=0x00002000
       63075000	      6306	800017a0	00150513	addi	x10,x10,1	 x10:0xfffffff8 x10=0xfffffff9
       63085000	      6307	800017a4	20edcd17	auipc	x26,0x20edc	 x26=0xa0edd7a0
       63095000	      6308	800017a8	fe4548e3	blt	x10,x4,80001798	 x10:0xfffffff9  x4:0x00000003
       63105000	      6309	00000000	00000013	addi	x0,x0,0	  x0:0x00000000
       63115000	      6310	80001794	00000013	addi	x0,x0,0	  x0:0x00000000
       63125000	      6311	80001798	b9920717	auipc	x14,0xb9920	 x14=0x39921794
       63135000	      6312	8000179c	00dc9693	slli	x13,x25,0xd	 x25:0x00000001 x13=0x00002000
       63145000	      6313	800017a0	00150513	addi	x10,x10,1	 x10:0xfffffff9 x10=0xfffffffa
       63155000	      6314	800017a4	20edcd17	auipc	x26,0x20edc	 x26=0xa0edd7a0
       63165000	      6315	800017a8	fe4548e3	blt	x10,x4,80001798	 x10:0xfffffffa  x4:0x00000003
       63175000	      6316	00000000	00000013	addi	x0,x0,0	  x0:0x00000000
       63185000	      6317	80001794	00000013	addi	x0,x0,0	  x0:0x00000000
       63195000	      6318	80001798	b9920717	auipc	x14,0xb9920	 x14=0x39921794
       63205000	      6319	8000179c	00dc9693	slli	x13,x25,0xd	 x25:0x00000001 x13=0x00002000
       63215000	      6320	800017a0	00150513	addi	x10,x10,1	 x10:0xfffffffa x10=0xfffffffb
       63225000	      6321	800017a4	20edcd17	auipc	x26,0x20edc	 x26=0xa0edd7a0
       63235000	      6322	800017a8	fe4548e3	blt	x10,x4,80001798	 x10:0xfffffffb  x4:0x00000003
       63245000	      6323	00000000	00000013	addi	x0,x0,0	  x0:0x00000000
       63255000	      6324	80001794	00000013	addi	x0,x0,0	  x0:0x00000000
       63265000	      6325	80001798	b9920717	auipc	x14,0xb9920	 x14=0x39921794
       63275000	      6326	8000179c	00dc9693	slli	x13,x25,0xd	 x25:0x00000001 x13=0x00002000
       63285000	      6327	800017a0	00150513	addi	x10,x10,1	 x10:0xfffffffb x10=0xfffffffc
       63295000	      6328	800017a4	20edcd17	auipc	x26,0x20edc	 x26=0xa0edd7a0
       63305000	      6329	800017a8	fe4548e3	blt	x10,x4,80001798	 x10:0xfffffffc  x4:0x00000003
       63315000	      6330	00000000	00000013	addi	x0,x0,0	  x0:0x00000000
       63325000	      6331	80001794	00000013	addi	x0,x0,0	  x0:0x00000000
       63335000	      6332	80001798	b9920717	auipc	x14,0xb9920	 x14=0x39921794
       63345000	      6333	8000179c	00dc9693	slli	x13,x25,0xd	 x25:0x00000001 x13=0x00002000
       63355000	      6334	800017a0	00150513	addi	x10,x10,1	 x10:0xfffffffc x10=0xfffffffd
       63365000	      6335	800017a4	20edcd17	auipc	x26,0x20edc	 x26=0xa0edd7a0
       63375000	      6336	800017a8	fe4548e3	blt	x10,x4,80001798	 x10:0xfffffffd  x4:0x00000003
       63385000	      6337	00000000	00000013	addi	x0,x0,0	  x0:0x00000000
       63395000	      6338	80001794	00000013	addi	x0,x0,0	  x0:0x00000000
       63405000	      6339	80001798	b9920717	auipc	x14,0xb9920	 x14=0x39921794
       63415000	      6340	8000179c	00dc9693	slli	x13,x25,0xd	 x25:0x00000001 x13=0x00002000
       63425000	      6341	800017a0	00150513	addi	x10,x10,1	 x10:0xfffffffd x10=0xfffffffe
       63435000	      6342	800017a4	20edcd17	auipc	x26,0x20edc	 x26=0xa0edd7a0
       63445000	      6343	800017a8	fe4548e3	blt	x10,x4,80001798	 x10:0xfffffffe  x4:0x00000003
       63455000	      6344	00000000	00000013	addi	x0,x0,0	  x0:0x00000000
       63465000	      6345	80001794	00000013	addi	x0,x0,0	  x0:0x00000000
       63475000	      6346	80001798	b9920717	auipc	x14,0xb9920	 x14=0x39921794
       63485000	      6347	8000179c	00dc9693	slli	x13,x25,0xd	 x25:0x00000001 x13=0x00002000
       63495000	      6348	800017a0	00150513	addi	x10,x10,1	 x10:0xfffffffe x10=0xffffffff
       63505000	      6349	800017a4	20edcd17	auipc	x26,0x20edc	 x26=0xa0edd7a0
       63515000	      6350	800017a8	fe4548e3	blt	x10,x4,80001798	 x10:0xffffffff  x4:0x00000003
       63525000	      6351	00000000	00000013	addi	x0,x0,0	  x0:0x00000000
       63535000	      6352	80001794	00000013	addi	x0,x0,0	  x0:0x00000000
       63545000	      6353	80001798	b9920717	auipc	x14,0xb9920	 x14=0x39921794
       63555000	      6354	8000179c	00dc9693	slli	x13,x25,0xd	 x25:0x00000001 x13=0x00002000
       63565000	      6355	800017a0	00150513	addi	x10,x10,1	 x10:0xffffffff x10=0x00000000
       63575000	      6356	800017a4	20edcd17	auipc	x26,0x20edc	 x26=0xa0edd7a0
       63585000	      6357	800017a8	fe4548e3	blt	x10,x4,80001798	 x10:0x00000000  x4:0x00000003
       63595000	      6358	00000000	00000013	addi	x0,x0,0	  x0:0x00000000
       63605000	      6359	80001794	00000013	addi	x0,x0,0	  x0:0x00000000
       63615000	      6360	80001798	b9920717	auipc	x14,0xb9920	 x14=0x39921794
       63625000	      6361	8000179c	00dc9693	slli	x13,x25,0xd	 x25:0x00000001 x13=0x00002000
       63635000	      6362	800017a0	00150513	addi	x10,x10,1	 x10:0x00000000 x10=0x00000001
       63645000	      6363	800017a4	20edcd17	auipc	x26,0x20edc	 x26=0xa0edd7a0
       63655000	      6364	800017a8	fe4548e3	blt	x10,x4,80001798	 x10:0x00000001  x4:0x00000003
       63665000	      6365	00000000	00000013	addi	x0,x0,0	  x0:0x00000000
       63675000	      6366	80001794	00000013	addi	x0,x0,0	  x0:0x00000000
       63685000	      6367	80001798	b9920717	auipc	x14,0xb9920	 x14=0x39921794
       63695000	      6368	8000179c	00dc9693	slli	x13,x25,0xd	 x25:0x00000001 x13=0x00002000
       63705000	      6369	800017a0	00150513	addi	x10,x10,1	 x10:0x00000001 x10=0x00000002
       63715000	      6370	800017a4	20edcd17	auipc	x26,0x20edc	 x26=0xa0edd7a0
       63725000	      6371	800017a8	fe4548e3	blt	x10,x4,80001798	 x10:0x00000002  x4:0x00000003
       63735000	      6372	00000000	00000013	addi	x0,x0,0	  x0:0x00000000
       63745000	      6373	80001794	00000013	addi	x0,x0,0	  x0:0x00000000
       63755000	      6374	80001798	b9920717	auipc	x14,0xb9920	 x14=0x39921794
       63765000	      6375	8000179c	00dc9693	slli	x13,x25,0xd	 x25:0x00000001 x13=0x00002000
       63775000	      6376	800017a0	00150513	addi	x10,x10,1	 x10:0x00000002 x10=0x00000003
       63785000	      6377	800017a4	20edcd17	auipc	x26,0x20edc	 x26=0xa0edd7a0
       63795000	      6378	800017a8	fe4548e3	blt	x10,x4,80001798	 x10:0x00000003  x4:0x00000003
       63805000	      6379	800017ac	487a3413	sltiu	x8,x20,1159	 x20:0x80009fc4  x8=0x00000000
       63815000	      6380	800017b0	d24dc893	xori	x17,x27,-732	 x27:0x00000001 x17=0xfffffd25
       63825000	      6381	800017b4	58934813	xori	x16,x6,1417	  x6:0x800098ee x16=0x80009d67
       63835000	      6382	800017b8	e92a6013	ori	x0,x20,-366	 x20:0x80009fc4
       63845000	      6383	800017bc	408507b3	sub	x15,x10,x8	 x10:0x00000003  x8:0x00000000 x15=0x00000003
       63855000	      6384	800017c0	fa3594e3	bne	x11,x3,80001768	 x11:0x0000000e  x3:0x00000014
       63865000	      6385	00000000	00000013	addi	x0,x0,0	  x0:0x00000000
       63875000	      6386	80001764	00000013	addi	x0,x0,0	  x0:0x00000000
       63885000	      6387	80001768	3fb0ad93	slti	x27,x1,1019	  x1:0x00000011 x27=0x00000001
       63895000	      6388	8000176c	00526b33	or	x22,x4,x5	  x4:0x00000003  x5:0x00000000 x22=0x00000003
       63905000	      6389	80001770	00358593	addi	x11,x11,3	 x11:0x0000000e x11=0x00000011
       63915000	      6390	80001774	45672013	slti	x0,x14,1110	 x14:0x39921794
       63925000	      6391	80001778	f4944493	xori	x9,x8,-183	  x8:0x00000000  x9=0xffffff49
       63935000	      6392	8000177c	6bd36b13	ori	x22,x6,1725	  x6:0x800098ee x22=0x80009eff
       63945000	      6393	80001780	00c593b3	sll	x7,x11,x12	 x11:0x00000011 x12:0x00000001  x7=0x00000022
       63955000	      6394	80001784	928b4e93	xori	x29,x22,-1752	 x22:0x80009eff x29=0x7fff67d7
       63965000	      6395	80001788	00010db3	add	x27,x2,x0	  x2:0x00000001  x0:0x00000000 x27=0x00000001
       63975000	      6396	8000178c	ff800513	addi	x10,x0,-8	  x0:0x00000000 x10=0xfffffff8
       63985000	      6397	80001790	00300213	addi	x4,x0,3	  x0:0x00000000  x4=0x00000003
       63995000	      6398	80001794	01cbc333	xor	x6,x23,x28	 x23:0x000007ae x28:0x80009f40  x6=0x800098ee
       64005000	      6399	80001798	b9920717	auipc	x14,0xb9920	 x14=0x39921794
       64015000	      6400	8000179c	00dc9693	slli	x13,x25,0xd	 x25:0x00000001 x13=0x00002000
       64025000	      6401	800017a0	00150513	addi	x10,x10,1	 x10:0xfffffff8 x10=0xfffffff9
       64035000	      6402	800017a4	20edcd17	auipc	x26,0x20edc	 x26=0xa0edd7a0
       64045000	      6403	800017a8	fe4548e3	blt	x10,x4,80001798	 x10:0xfffffff9  x4:0x00000003
       64055000	      6404	00000000	00000013	addi	x0,x0,0	  x0:0x00000000
       64065000	      6405	80001794	00000013	addi	x0,x0,0	  x0:0x00000000
       64075000	      6406	80001798	b9920717	auipc	x14,0xb9920	 x14=0x39921794
       64085000	      6407	8000179c	00dc9693	slli	x13,x25,0xd	 x25:0x00000001 x13=0x00002000
       64095000	      6408	800017a0	00150513	addi	x10,x10,1	 x10:0xfffffff9 x10=0xfffffffa
       64105000	      6409	800017a4	20edcd17	auipc	x26,0x20edc	 x26=0xa0edd7a0
       64115000	      6410	800017a8	fe4548e3	blt	x10,x4,80001798	 x10:0xfffffffa  x4:0x00000003
       64125000	      6411	00000000	00000013	addi	x0,x0,0	  x0:0x00000000
       64135000	      6412	80001794	00000013	addi	x0,x0,0	  x0:0x00000000
       64145000	      6413	80001798	b9920717	auipc	x14,0xb9920	 x14=0x39921794
       64155000	      6414	8000179c	00dc9693	slli	x13,x25,0xd	 x25:0x00000001 x13=0x00002000
       64165000	      6415	800017a0	00150513	addi	x10,x10,1	 x10:0xfffffffa x10=0xfffffffb
       64175000	      6416	800017a4	20edcd17	auipc	x26,0x20edc	 x26=0xa0edd7a0
       64185000	      6417	800017a8	fe4548e3	blt	x10,x4,80001798	 x10:0xfffffffb  x4:0x00000003
       64195000	      6418	00000000	00000013	addi	x0,x0,0	  x0:0x00000000
       64205000	      6419	80001794	00000013	addi	x0,x0,0	  x0:0x00000000
       64215000	      6420	80001798	b9920717	auipc	x14,0xb9920	 x14=0x39921794
       64225000	      6421	8000179c	00dc9693	slli	x13,x25,0xd	 x25:0x00000001 x13=0x00002000
       64235000	      6422	800017a0	00150513	addi	x10,x10,1	 x10:0xfffffffb x10=0xfffffffc
       64245000	      6423	800017a4	20edcd17	auipc	x26,0x20edc	 x26=0xa0edd7a0
       64255000	      6424	800017a8	fe4548e3	blt	x10,x4,80001798	 x10:0xfffffffc  x4:0x00000003
       64265000	      6425	00000000	00000013	addi	x0,x0,0	  x0:0x00000000
       64275000	      6426	80001794	00000013	addi	x0,x0,0	  x0:0x00000000
       64285000	      6427	80001798	b9920717	auipc	x14,0xb9920	 x14=0x39921794
       64295000	      6428	8000179c	00dc9693	slli	x13,x25,0xd	 x25:0x00000001 x13=0x00002000
       64305000	      6429	800017a0	00150513	addi	x10,x10,1	 x10:0xfffffffc x10=0xfffffffd
       64315000	      6430	800017a4	20edcd17	auipc	x26,0x20edc	 x26=0xa0edd7a0
       64325000	      6431	800017a8	fe4548e3	blt	x10,x4,80001798	 x10:0xfffffffd  x4:0x00000003
       64335000	      6432	00000000	00000013	addi	x0,x0,0	  x0:0x00000000
       64345000	      6433	80001794	00000013	addi	x0,x0,0	  x0:0x00000000
       64355000	      6434	80001798	b9920717	auipc	x14,0xb9920	 x14=0x39921794
       64365000	      6435	8000179c	00dc9693	slli	x13,x25,0xd	 x25:0x00000001 x13=0x00002000
       64375000	      6436	800017a0	00150513	addi	x10,x10,1	 x10:0xfffffffd x10=0xfffffffe
       64385000	      6437	800017a4	20edcd17	auipc	x26,0x20edc	 x26=0xa0edd7a0
       64395000	      6438	800017a8	fe4548e3	blt	x10,x4,80001798	 x10:0xfffffffe  x4:0x00000003
       64405000	      6439	00000000	00000013	addi	x0,x0,0	  x0:0x00000000
       64415000	      6440	80001794	00000013	addi	x0,x0,0	  x0:0x00000000
       64425000	      6441	80001798	b9920717	auipc	x14,0xb9920	 x14=0x39921794
       64435000	      6442	8000179c	00dc9693	slli	x13,x25,0xd	 x25:0x00000001 x13=0x00002000
       64445000	      6443	800017a0	00150513	addi	x10,x10,1	 x10:0xfffffffe x10=0xffffffff
       64455000	      6444	800017a4	20edcd17	auipc	x26,0x20edc	 x26=0xa0edd7a0
       64465000	      6445	800017a8	fe4548e3	blt	x10,x4,80001798	 x10:0xffffffff  x4:0x00000003
       64475000	      6446	00000000	00000013	addi	x0,x0,0	  x0:0x00000000
       64485000	      6447	80001794	00000013	addi	x0,x0,0	  x0:0x00000000
       64495000	      6448	80001798	b9920717	auipc	x14,0xb9920	 x14=0x39921794
       64505000	      6449	8000179c	00dc9693	slli	x13,x25,0xd	 x25:0x00000001 x13=0x00002000
       64515000	      6450	800017a0	00150513	addi	x10,x10,1	 x10:0xffffffff x10=0x00000000
       64525000	      6451	800017a4	20edcd17	auipc	x26,0x20edc	 x26=0xa0edd7a0
       64535000	      6452	800017a8	fe4548e3	blt	x10,x4,80001798	 x10:0x00000000  x4:0x00000003
       64545000	      6453	00000000	00000013	addi	x0,x0,0	  x0:0x00000000
       64555000	      6454	80001794	00000013	addi	x0,x0,0	  x0:0x00000000
       64565000	      6455	80001798	b9920717	auipc	x14,0xb9920	 x14=0x39921794
       64575000	      6456	8000179c	00dc9693	slli	x13,x25,0xd	 x25:0x00000001 x13=0x00002000
       64585000	      6457	800017a0	00150513	addi	x10,x10,1	 x10:0x00000000 x10=0x00000001
       64595000	      6458	800017a4	20edcd17	auipc	x26,0x20edc	 x26=0xa0edd7a0
       64605000	      6459	800017a8	fe4548e3	blt	x10,x4,80001798	 x10:0x00000001  x4:0x00000003
       64615000	      6460	00000000	00000013	addi	x0,x0,0	  x0:0x00000000
       64625000	      6461	80001794	00000013	addi	x0,x0,0	  x0:0x00000000
       64635000	      6462	80001798	b9920717	auipc	x14,0xb9920	 x14=0x39921794
       64645000	      6463	8000179c	00dc9693	slli	x13,x25,0xd	 x25:0x00000001 x13=0x00002000
       64655000	      6464	800017a0	00150513	addi	x10,x10,1	 x10:0x00000001 x10=0x00000002
       64665000	      6465	800017a4	20edcd17	auipc	x26,0x20edc	 x26=0xa0edd7a0
       64675000	      6466	800017a8	fe4548e3	blt	x10,x4,80001798	 x10:0x00000002  x4:0x00000003
       64685000	      6467	00000000	00000013	addi	x0,x0,0	  x0:0x00000000
       64695000	      6468	80001794	00000013	addi	x0,x0,0	  x0:0x00000000
       64705000	      6469	80001798	b9920717	auipc	x14,0xb9920	 x14=0x39921794
       64715000	      6470	8000179c	00dc9693	slli	x13,x25,0xd	 x25:0x00000001 x13=0x00002000
       64725000	      6471	800017a0	00150513	addi	x10,x10,1	 x10:0x00000002 x10=0x00000003
       64735000	      6472	800017a4	20edcd17	auipc	x26,0x20edc	 x26=0xa0edd7a0
       64745000	      6473	800017a8	fe4548e3	blt	x10,x4,80001798	 x10:0x00000003  x4:0x00000003
       64755000	      6474	800017ac	487a3413	sltiu	x8,x20,1159	 x20:0x80009fc4  x8=0x00000000
       64765000	      6475	800017b0	d24dc893	xori	x17,x27,-732	 x27:0x00000001 x17=0xfffffd25
       64775000	      6476	800017b4	58934813	xori	x16,x6,1417	  x6:0x800098ee x16=0x80009d67
       64785000	      6477	800017b8	e92a6013	ori	x0,x20,-366	 x20:0x80009fc4
       64795000	      6478	800017bc	408507b3	sub	x15,x10,x8	 x10:0x00000003  x8:0x00000000 x15=0x00000003
       64805000	      6479	800017c0	fa3594e3	bne	x11,x3,80001768	 x11:0x00000011  x3:0x00000014
       64815000	      6480	00000000	00000013	addi	x0,x0,0	  x0:0x00000000
       64825000	      6481	80001764	00000013	addi	x0,x0,0	  x0:0x00000000
       64835000	      6482	80001768	3fb0ad93	slti	x27,x1,1019	  x1:0x00000011 x27=0x00000001
       64845000	      6483	8000176c	00526b33	or	x22,x4,x5	  x4:0x00000003  x5:0x00000000 x22=0x00000003
       64855000	      6484	80001770	00358593	addi	x11,x11,3	 x11:0x00000011 x11=0x00000014
       64865000	      6485	80001774	45672013	slti	x0,x14,1110	 x14:0x39921794
       64875000	      6486	80001778	f4944493	xori	x9,x8,-183	  x8:0x00000000  x9=0xffffff49
       64885000	      6487	8000177c	6bd36b13	ori	x22,x6,1725	  x6:0x800098ee x22=0x80009eff
       64895000	      6488	80001780	00c593b3	sll	x7,x11,x12	 x11:0x00000014 x12:0x00000001  x7=0x00000028
       64905000	      6489	80001784	928b4e93	xori	x29,x22,-1752	 x22:0x80009eff x29=0x7fff67d7
       64915000	      6490	80001788	00010db3	add	x27,x2,x0	  x2:0x00000001  x0:0x00000000 x27=0x00000001
       64925000	      6491	8000178c	ff800513	addi	x10,x0,-8	  x0:0x00000000 x10=0xfffffff8
       64935000	      6492	80001790	00300213	addi	x4,x0,3	  x0:0x00000000  x4=0x00000003
       64945000	      6493	80001794	01cbc333	xor	x6,x23,x28	 x23:0x000007ae x28:0x80009f40  x6=0x800098ee
       64955000	      6494	80001798	b9920717	auipc	x14,0xb9920	 x14=0x39921794
       64965000	      6495	8000179c	00dc9693	slli	x13,x25,0xd	 x25:0x00000001 x13=0x00002000
       64975000	      6496	800017a0	00150513	addi	x10,x10,1	 x10:0xfffffff8 x10=0xfffffff9
       64985000	      6497	800017a4	20edcd17	auipc	x26,0x20edc	 x26=0xa0edd7a0
       64995000	      6498	800017a8	fe4548e3	blt	x10,x4,80001798	 x10:0xfffffff9  x4:0x00000003
       65005000	      6499	00000000	00000013	addi	x0,x0,0	  x0:0x00000000
       65015000	      6500	80001794	00000013	addi	x0,x0,0	  x0:0x00000000
       65025000	      6501	80001798	b9920717	auipc	x14,0xb9920	 x14=0x39921794
       65035000	      6502	8000179c	00dc9693	slli	x13,x25,0xd	 x25:0x00000001 x13=0x00002000
       65045000	      6503	800017a0	00150513	addi	x10,x10,1	 x10:0xfffffff9 x10=0xfffffffa
       65055000	      6504	800017a4	20edcd17	auipc	x26,0x20edc	 x26=0xa0edd7a0
       65065000	      6505	800017a8	fe4548e3	blt	x10,x4,80001798	 x10:0xfffffffa  x4:0x00000003
       65075000	      6506	00000000	00000013	addi	x0,x0,0	  x0:0x00000000
       65085000	      6507	80001794	00000013	addi	x0,x0,0	  x0:0x00000000
       65095000	      6508	80001798	b9920717	auipc	x14,0xb9920	 x14=0x39921794
       65105000	      6509	8000179c	00dc9693	slli	x13,x25,0xd	 x25:0x00000001 x13=0x00002000
       65115000	      6510	800017a0	00150513	addi	x10,x10,1	 x10:0xfffffffa x10=0xfffffffb
       65125000	      6511	800017a4	20edcd17	auipc	x26,0x20edc	 x26=0xa0edd7a0
       65135000	      6512	800017a8	fe4548e3	blt	x10,x4,80001798	 x10:0xfffffffb  x4:0x00000003
       65145000	      6513	00000000	00000013	addi	x0,x0,0	  x0:0x00000000
       65155000	      6514	80001794	00000013	addi	x0,x0,0	  x0:0x00000000
       65165000	      6515	80001798	b9920717	auipc	x14,0xb9920	 x14=0x39921794
       65175000	      6516	8000179c	00dc9693	slli	x13,x25,0xd	 x25:0x00000001 x13=0x00002000
       65185000	      6517	800017a0	00150513	addi	x10,x10,1	 x10:0xfffffffb x10=0xfffffffc
       65195000	      6518	800017a4	20edcd17	auipc	x26,0x20edc	 x26=0xa0edd7a0
       65205000	      6519	800017a8	fe4548e3	blt	x10,x4,80001798	 x10:0xfffffffc  x4:0x00000003
       65215000	      6520	00000000	00000013	addi	x0,x0,0	  x0:0x00000000
       65225000	      6521	80001794	00000013	addi	x0,x0,0	  x0:0x00000000
       65235000	      6522	80001798	b9920717	auipc	x14,0xb9920	 x14=0x39921794
       65245000	      6523	8000179c	00dc9693	slli	x13,x25,0xd	 x25:0x00000001 x13=0x00002000
       65255000	      6524	800017a0	00150513	addi	x10,x10,1	 x10:0xfffffffc x10=0xfffffffd
       65265000	      6525	800017a4	20edcd17	auipc	x26,0x20edc	 x26=0xa0edd7a0
       65275000	      6526	800017a8	fe4548e3	blt	x10,x4,80001798	 x10:0xfffffffd  x4:0x00000003
       65285000	      6527	00000000	00000013	addi	x0,x0,0	  x0:0x00000000
       65295000	      6528	80001794	00000013	addi	x0,x0,0	  x0:0x00000000
       65305000	      6529	80001798	b9920717	auipc	x14,0xb9920	 x14=0x39921794
       65315000	      6530	8000179c	00dc9693	slli	x13,x25,0xd	 x25:0x00000001 x13=0x00002000
       65325000	      6531	800017a0	00150513	addi	x10,x10,1	 x10:0xfffffffd x10=0xfffffffe
       65335000	      6532	800017a4	20edcd17	auipc	x26,0x20edc	 x26=0xa0edd7a0
       65345000	      6533	800017a8	fe4548e3	blt	x10,x4,80001798	 x10:0xfffffffe  x4:0x00000003
       65355000	      6534	00000000	00000013	addi	x0,x0,0	  x0:0x00000000
       65365000	      6535	80001794	00000013	addi	x0,x0,0	  x0:0x00000000
       65375000	      6536	80001798	b9920717	auipc	x14,0xb9920	 x14=0x39921794
       65385000	      6537	8000179c	00dc9693	slli	x13,x25,0xd	 x25:0x00000001 x13=0x00002000
       65395000	      6538	800017a0	00150513	addi	x10,x10,1	 x10:0xfffffffe x10=0xffffffff
       65405000	      6539	800017a4	20edcd17	auipc	x26,0x20edc	 x26=0xa0edd7a0
       65415000	      6540	800017a8	fe4548e3	blt	x10,x4,80001798	 x10:0xffffffff  x4:0x00000003
       65425000	      6541	00000000	00000013	addi	x0,x0,0	  x0:0x00000000
       65435000	      6542	80001794	00000013	addi	x0,x0,0	  x0:0x00000000
       65445000	      6543	80001798	b9920717	auipc	x14,0xb9920	 x14=0x39921794
       65455000	      6544	8000179c	00dc9693	slli	x13,x25,0xd	 x25:0x00000001 x13=0x00002000
       65465000	      6545	800017a0	00150513	addi	x10,x10,1	 x10:0xffffffff x10=0x00000000
       65475000	      6546	800017a4	20edcd17	auipc	x26,0x20edc	 x26=0xa0edd7a0
       65485000	      6547	800017a8	fe4548e3	blt	x10,x4,80001798	 x10:0x00000000  x4:0x00000003
       65495000	      6548	00000000	00000013	addi	x0,x0,0	  x0:0x00000000
       65505000	      6549	80001794	00000013	addi	x0,x0,0	  x0:0x00000000
       65515000	      6550	80001798	b9920717	auipc	x14,0xb9920	 x14=0x39921794
       65525000	      6551	8000179c	00dc9693	slli	x13,x25,0xd	 x25:0x00000001 x13=0x00002000
       65535000	      6552	800017a0	00150513	addi	x10,x10,1	 x10:0x00000000 x10=0x00000001
       65545000	      6553	800017a4	20edcd17	auipc	x26,0x20edc	 x26=0xa0edd7a0
       65555000	      6554	800017a8	fe4548e3	blt	x10,x4,80001798	 x10:0x00000001  x4:0x00000003
       65565000	      6555	00000000	00000013	addi	x0,x0,0	  x0:0x00000000
       65575000	      6556	80001794	00000013	addi	x0,x0,0	  x0:0x00000000
       65585000	      6557	80001798	b9920717	auipc	x14,0xb9920	 x14=0x39921794
       65595000	      6558	8000179c	00dc9693	slli	x13,x25,0xd	 x25:0x00000001 x13=0x00002000
       65605000	      6559	800017a0	00150513	addi	x10,x10,1	 x10:0x00000001 x10=0x00000002
       65615000	      6560	800017a4	20edcd17	auipc	x26,0x20edc	 x26=0xa0edd7a0
       65625000	      6561	800017a8	fe4548e3	blt	x10,x4,80001798	 x10:0x00000002  x4:0x00000003
       65635000	      6562	00000000	00000013	addi	x0,x0,0	  x0:0x00000000
       65645000	      6563	80001794	00000013	addi	x0,x0,0	  x0:0x00000000
       65655000	      6564	80001798	b9920717	auipc	x14,0xb9920	 x14=0x39921794
       65665000	      6565	8000179c	00dc9693	slli	x13,x25,0xd	 x25:0x00000001 x13=0x00002000
       65675000	      6566	800017a0	00150513	addi	x10,x10,1	 x10:0x00000002 x10=0x00000003
       65685000	      6567	800017a4	20edcd17	auipc	x26,0x20edc	 x26=0xa0edd7a0
       65695000	      6568	800017a8	fe4548e3	blt	x10,x4,80001798	 x10:0x00000003  x4:0x00000003
       65705000	      6569	800017ac	487a3413	sltiu	x8,x20,1159	 x20:0x80009fc4  x8=0x00000000
       65715000	      6570	800017b0	d24dc893	xori	x17,x27,-732	 x27:0x00000001 x17=0xfffffd25
       65725000	      6571	800017b4	58934813	xori	x16,x6,1417	  x6:0x800098ee x16=0x80009d67
       65735000	      6572	800017b8	e92a6013	ori	x0,x20,-366	 x20:0x80009fc4
       65745000	      6573	800017bc	408507b3	sub	x15,x10,x8	 x10:0x00000003  x8:0x00000000 x15=0x00000003
       65755000	      6574	800017c0	fa3594e3	bne	x11,x3,80001768	 x11:0x00000014  x3:0x00000014
       65765000	      6575	800017c4	012b36b3	sltu	x13,x22,x18	 x22:0x80009eff x18:0x00000011 x13=0x00000000
       65775000	      6576	800017c8	00400093	addi	x1,x0,4	  x0:0x00000000  x1=0x00000004
       65785000	      6577	800017cc	009366b3	or	x13,x6,x9	  x6:0x800098ee  x9:0xffffff49 x13=0xffffffef
       65795000	      6578	800017d0	40f40933	sub	x18,x8,x15	  x8:0x00000000 x15:0x00000003 x18=0xfffffffd
       65805000	      6579	800017d4	ff600193	addi	x3,x0,-10	  x0:0x00000000  x3=0xfffffff6
       65815000	      6580	800017d8	0012f833	and	x16,x5,x1	  x5:0x00000000  x1:0x00000004 x16=0x00000000
       65825000	      6581	800017dc	012a39b3	sltu	x19,x20,x18	 x20:0x80009fc4 x18:0xfffffffd x19=0x00000001
       65835000	      6582	800017e0	84d1fd13	andi	x26,x3,-1971	  x3:0xfffffff6 x26=0xfffff844
       65845000	      6583	800017e4	ffe08093	addi	x1,x1,-2	  x1:0x00000004  x1=0x00000002
       65855000	      6584	800017e8	c2f52c13	slti	x24,x10,-977	 x10:0x00000003 x24=0x00000000
       65865000	      6585	800017ec	ffa00413	addi	x8,x0,-6	  x0:0x00000000  x8=0xfffffffa
       65875000	      6586	800017f0	01067633	and	x12,x12,x16	 x12:0x00000001 x16:0x00000000 x12=0x00000000
       65885000	      6587	800017f4	ff100213	addi	x4,x0,-15	  x0:0x00000000  x4=0xfffffff1
       65895000	      6588	800017f8	00000013	addi	x0,x0,0	  x0:0x00000000
       65905000	      6589	800017fc	005eb933	sltu	x18,x29,x5	 x29:0x7fff67d7  x5:0x00000000 x18=0x00000000
       65915000	      6590	80001800	84b64397	auipc	x7,0x84b64	  x7=0x04b657fc
       65925000	      6591	80001804	00000013	addi	x0,x0,0	  x0:0x00000000
       65935000	      6592	80001808	402a5d13	srai	x26,x20,0x2	 x20:0x80009fc4 x26=0xe00027f1
       65945000	      6593	8000180c	ff740413	addi	x8,x8,-9	  x8:0xfffffffa  x8=0xfffffff1
       65955000	      6594	80001810	17416593	ori	x11,x2,372	  x2:0x00000001 x11=0x00000175
       65965000	      6595	80001814	fe4418e3	bne	x8,x4,80001804	  x8:0xfffffff1  x4:0xfffffff1
       65975000	      6596	80001818	00000013	addi	x0,x0,0	  x0:0x00000000
       65985000	      6597	8000181c	fa30dee3	bge	x1,x3,800017d8	  x1:0x00000002  x3:0xfffffff6
       65995000	      6598	00000000	00000013	addi	x0,x0,0	  x0:0x00000000
       66005000	      6599	800017d4	00000013	addi	x0,x0,0	  x0:0x00000000
       66015000	      6600	800017d8	0012f833	and	x16,x5,x1	  x5:0x00000000  x1:0x00000002 x16=0x00000000
       66025000	      6601	800017dc	012a39b3	sltu	x19,x20,x18	 x20:0x80009fc4 x18:0x00000000 x19=0x00000000
       66035000	      6602	800017e0	84d1fd13	andi	x26,x3,-1971	  x3:0xfffffff6 x26=0xfffff844
       66045000	      6603	800017e4	ffe08093	addi	x1,x1,-2	  x1:0x00000002  x1=0x00000000
       66055000	      6604	800017e8	c2f52c13	slti	x24,x10,-977	 x10:0x00000003 x24=0x00000000
       66065000	      6605	800017ec	ffa00413	addi	x8,x0,-6	  x0:0x00000000  x8=0xfffffffa
       66075000	      6606	800017f0	01067633	and	x12,x12,x16	 x12:0x00000000 x16:0x00000000 x12=0x00000000
       66085000	      6607	800017f4	ff100213	addi	x4,x0,-15	  x0:0x00000000  x4=0xfffffff1
       66095000	      6608	800017f8	00000013	addi	x0,x0,0	  x0:0x00000000
       66105000	      6609	800017fc	005eb933	sltu	x18,x29,x5	 x29:0x7fff67d7  x5:0x00000000 x18=0x00000000
       66115000	      6610	80001800	84b64397	auipc	x7,0x84b64	  x7=0x04b657fc
       66125000	      6611	80001804	00000013	addi	x0,x0,0	  x0:0x00000000
       66135000	      6612	80001808	402a5d13	srai	x26,x20,0x2	 x20:0x80009fc4 x26=0xe00027f1
       66145000	      6613	8000180c	ff740413	addi	x8,x8,-9	  x8:0xfffffffa  x8=0xfffffff1
       66155000	      6614	80001810	17416593	ori	x11,x2,372	  x2:0x00000001 x11=0x00000175
       66165000	      6615	80001814	fe4418e3	bne	x8,x4,80001804	  x8:0xfffffff1  x4:0xfffffff1
       66175000	      6616	80001818	00000013	addi	x0,x0,0	  x0:0x00000000
       66185000	      6617	8000181c	fa30dee3	bge	x1,x3,800017d8	  x1:0x00000000  x3:0xfffffff6
       66195000	      6618	00000000	00000013	addi	x0,x0,0	  x0:0x00000000
       66205000	      6619	800017d4	00000013	addi	x0,x0,0	  x0:0x00000000
       66215000	      6620	800017d8	0012f833	and	x16,x5,x1	  x5:0x00000000  x1:0x00000000 x16=0x00000000
       66225000	      6621	800017dc	012a39b3	sltu	x19,x20,x18	 x20:0x80009fc4 x18:0x00000000 x19=0x00000000
       66235000	      6622	800017e0	84d1fd13	andi	x26,x3,-1971	  x3:0xfffffff6 x26=0xfffff844
       66245000	      6623	800017e4	ffe08093	addi	x1,x1,-2	  x1:0x00000000  x1=0xfffffffe
       66255000	      6624	800017e8	c2f52c13	slti	x24,x10,-977	 x10:0x00000003 x24=0x00000000
       66265000	      6625	800017ec	ffa00413	addi	x8,x0,-6	  x0:0x00000000  x8=0xfffffffa
       66275000	      6626	800017f0	01067633	and	x12,x12,x16	 x12:0x00000000 x16:0x00000000 x12=0x00000000
       66285000	      6627	800017f4	ff100213	addi	x4,x0,-15	  x0:0x00000000  x4=0xfffffff1
       66295000	      6628	800017f8	00000013	addi	x0,x0,0	  x0:0x00000000
       66305000	      6629	800017fc	005eb933	sltu	x18,x29,x5	 x29:0x7fff67d7  x5:0x00000000 x18=0x00000000
       66315000	      6630	80001800	84b64397	auipc	x7,0x84b64	  x7=0x04b657fc
       66325000	      6631	80001804	00000013	addi	x0,x0,0	  x0:0x00000000
       66335000	      6632	80001808	402a5d13	srai	x26,x20,0x2	 x20:0x80009fc4 x26=0xe00027f1
       66345000	      6633	8000180c	ff740413	addi	x8,x8,-9	  x8:0xfffffffa  x8=0xfffffff1
       66355000	      6634	80001810	17416593	ori	x11,x2,372	  x2:0x00000001 x11=0x00000175
       66365000	      6635	80001814	fe4418e3	bne	x8,x4,80001804	  x8:0xfffffff1  x4:0xfffffff1
       66375000	      6636	80001818	00000013	addi	x0,x0,0	  x0:0x00000000
       66385000	      6637	8000181c	fa30dee3	bge	x1,x3,800017d8	  x1:0xfffffffe  x3:0xfffffff6
       66395000	      6638	00000000	00000013	addi	x0,x0,0	  x0:0x00000000
       66405000	      6639	800017d4	00000013	addi	x0,x0,0	  x0:0x00000000
       66415000	      6640	800017d8	0012f833	and	x16,x5,x1	  x5:0x00000000  x1:0xfffffffe x16=0x00000000
       66425000	      6641	800017dc	012a39b3	sltu	x19,x20,x18	 x20:0x80009fc4 x18:0x00000000 x19=0x00000000
       66435000	      6642	800017e0	84d1fd13	andi	x26,x3,-1971	  x3:0xfffffff6 x26=0xfffff844
       66445000	      6643	800017e4	ffe08093	addi	x1,x1,-2	  x1:0xfffffffe  x1=0xfffffffc
       66455000	      6644	800017e8	c2f52c13	slti	x24,x10,-977	 x10:0x00000003 x24=0x00000000
       66465000	      6645	800017ec	ffa00413	addi	x8,x0,-6	  x0:0x00000000  x8=0xfffffffa
       66475000	      6646	800017f0	01067633	and	x12,x12,x16	 x12:0x00000000 x16:0x00000000 x12=0x00000000
       66485000	      6647	800017f4	ff100213	addi	x4,x0,-15	  x0:0x00000000  x4=0xfffffff1
       66495000	      6648	800017f8	00000013	addi	x0,x0,0	  x0:0x00000000
       66505000	      6649	800017fc	005eb933	sltu	x18,x29,x5	 x29:0x7fff67d7  x5:0x00000000 x18=0x00000000
       66515000	      6650	80001800	84b64397	auipc	x7,0x84b64	  x7=0x04b657fc
       66525000	      6651	80001804	00000013	addi	x0,x0,0	  x0:0x00000000
       66535000	      6652	80001808	402a5d13	srai	x26,x20,0x2	 x20:0x80009fc4 x26=0xe00027f1
       66545000	      6653	8000180c	ff740413	addi	x8,x8,-9	  x8:0xfffffffa  x8=0xfffffff1
       66555000	      6654	80001810	17416593	ori	x11,x2,372	  x2:0x00000001 x11=0x00000175
       66565000	      6655	80001814	fe4418e3	bne	x8,x4,80001804	  x8:0xfffffff1  x4:0xfffffff1
       66575000	      6656	80001818	00000013	addi	x0,x0,0	  x0:0x00000000
       66585000	      6657	8000181c	fa30dee3	bge	x1,x3,800017d8	  x1:0xfffffffc  x3:0xfffffff6
       66595000	      6658	00000000	00000013	addi	x0,x0,0	  x0:0x00000000
       66605000	      6659	800017d4	00000013	addi	x0,x0,0	  x0:0x00000000
       66615000	      6660	800017d8	0012f833	and	x16,x5,x1	  x5:0x00000000  x1:0xfffffffc x16=0x00000000
       66625000	      6661	800017dc	012a39b3	sltu	x19,x20,x18	 x20:0x80009fc4 x18:0x00000000 x19=0x00000000
       66635000	      6662	800017e0	84d1fd13	andi	x26,x3,-1971	  x3:0xfffffff6 x26=0xfffff844
       66645000	      6663	800017e4	ffe08093	addi	x1,x1,-2	  x1:0xfffffffc  x1=0xfffffffa
       66655000	      6664	800017e8	c2f52c13	slti	x24,x10,-977	 x10:0x00000003 x24=0x00000000
       66665000	      6665	800017ec	ffa00413	addi	x8,x0,-6	  x0:0x00000000  x8=0xfffffffa
       66675000	      6666	800017f0	01067633	and	x12,x12,x16	 x12:0x00000000 x16:0x00000000 x12=0x00000000
       66685000	      6667	800017f4	ff100213	addi	x4,x0,-15	  x0:0x00000000  x4=0xfffffff1
       66695000	      6668	800017f8	00000013	addi	x0,x0,0	  x0:0x00000000
       66705000	      6669	800017fc	005eb933	sltu	x18,x29,x5	 x29:0x7fff67d7  x5:0x00000000 x18=0x00000000
       66715000	      6670	80001800	84b64397	auipc	x7,0x84b64	  x7=0x04b657fc
       66725000	      6671	80001804	00000013	addi	x0,x0,0	  x0:0x00000000
       66735000	      6672	80001808	402a5d13	srai	x26,x20,0x2	 x20:0x80009fc4 x26=0xe00027f1
       66745000	      6673	8000180c	ff740413	addi	x8,x8,-9	  x8:0xfffffffa  x8=0xfffffff1
       66755000	      6674	80001810	17416593	ori	x11,x2,372	  x2:0x00000001 x11=0x00000175
       66765000	      6675	80001814	fe4418e3	bne	x8,x4,80001804	  x8:0xfffffff1  x4:0xfffffff1
       66775000	      6676	80001818	00000013	addi	x0,x0,0	  x0:0x00000000
       66785000	      6677	8000181c	fa30dee3	bge	x1,x3,800017d8	  x1:0xfffffffa  x3:0xfffffff6
       66795000	      6678	00000000	00000013	addi	x0,x0,0	  x0:0x00000000
       66805000	      6679	800017d4	00000013	addi	x0,x0,0	  x0:0x00000000
       66815000	      6680	800017d8	0012f833	and	x16,x5,x1	  x5:0x00000000  x1:0xfffffffa x16=0x00000000
       66825000	      6681	800017dc	012a39b3	sltu	x19,x20,x18	 x20:0x80009fc4 x18:0x00000000 x19=0x00000000
       66835000	      6682	800017e0	84d1fd13	andi	x26,x3,-1971	  x3:0xfffffff6 x26=0xfffff844
       66845000	      6683	800017e4	ffe08093	addi	x1,x1,-2	  x1:0xfffffffa  x1=0xfffffff8
       66855000	      6684	800017e8	c2f52c13	slti	x24,x10,-977	 x10:0x00000003 x24=0x00000000
       66865000	      6685	800017ec	ffa00413	addi	x8,x0,-6	  x0:0x00000000  x8=0xfffffffa
       66875000	      6686	800017f0	01067633	and	x12,x12,x16	 x12:0x00000000 x16:0x00000000 x12=0x00000000
       66885000	      6687	800017f4	ff100213	addi	x4,x0,-15	  x0:0x00000000  x4=0xfffffff1
       66895000	      6688	800017f8	00000013	addi	x0,x0,0	  x0:0x00000000
       66905000	      6689	800017fc	005eb933	sltu	x18,x29,x5	 x29:0x7fff67d7  x5:0x00000000 x18=0x00000000
       66915000	      6690	80001800	84b64397	auipc	x7,0x84b64	  x7=0x04b657fc
       66925000	      6691	80001804	00000013	addi	x0,x0,0	  x0:0x00000000
       66935000	      6692	80001808	402a5d13	srai	x26,x20,0x2	 x20:0x80009fc4 x26=0xe00027f1
       66945000	      6693	8000180c	ff740413	addi	x8,x8,-9	  x8:0xfffffffa  x8=0xfffffff1
       66955000	      6694	80001810	17416593	ori	x11,x2,372	  x2:0x00000001 x11=0x00000175
       66965000	      6695	80001814	fe4418e3	bne	x8,x4,80001804	  x8:0xfffffff1  x4:0xfffffff1
       66975000	      6696	80001818	00000013	addi	x0,x0,0	  x0:0x00000000
       66985000	      6697	8000181c	fa30dee3	bge	x1,x3,800017d8	  x1:0xfffffff8  x3:0xfffffff6
       66995000	      6698	00000000	00000013	addi	x0,x0,0	  x0:0x00000000
       67005000	      6699	800017d4	00000013	addi	x0,x0,0	  x0:0x00000000
       67015000	      6700	800017d8	0012f833	and	x16,x5,x1	  x5:0x00000000  x1:0xfffffff8 x16=0x00000000
       67025000	      6701	800017dc	012a39b3	sltu	x19,x20,x18	 x20:0x80009fc4 x18:0x00000000 x19=0x00000000
       67035000	      6702	800017e0	84d1fd13	andi	x26,x3,-1971	  x3:0xfffffff6 x26=0xfffff844
       67045000	      6703	800017e4	ffe08093	addi	x1,x1,-2	  x1:0xfffffff8  x1=0xfffffff6
       67055000	      6704	800017e8	c2f52c13	slti	x24,x10,-977	 x10:0x00000003 x24=0x00000000
       67065000	      6705	800017ec	ffa00413	addi	x8,x0,-6	  x0:0x00000000  x8=0xfffffffa
       67075000	      6706	800017f0	01067633	and	x12,x12,x16	 x12:0x00000000 x16:0x00000000 x12=0x00000000
       67085000	      6707	800017f4	ff100213	addi	x4,x0,-15	  x0:0x00000000  x4=0xfffffff1
       67095000	      6708	800017f8	00000013	addi	x0,x0,0	  x0:0x00000000
       67105000	      6709	800017fc	005eb933	sltu	x18,x29,x5	 x29:0x7fff67d7  x5:0x00000000 x18=0x00000000
       67115000	      6710	80001800	84b64397	auipc	x7,0x84b64	  x7=0x04b657fc
       67125000	      6711	80001804	00000013	addi	x0,x0,0	  x0:0x00000000
       67135000	      6712	80001808	402a5d13	srai	x26,x20,0x2	 x20:0x80009fc4 x26=0xe00027f1
       67145000	      6713	8000180c	ff740413	addi	x8,x8,-9	  x8:0xfffffffa  x8=0xfffffff1
       67155000	      6714	80001810	17416593	ori	x11,x2,372	  x2:0x00000001 x11=0x00000175
       67165000	      6715	80001814	fe4418e3	bne	x8,x4,80001804	  x8:0xfffffff1  x4:0xfffffff1
       67175000	      6716	80001818	00000013	addi	x0,x0,0	  x0:0x00000000
       67185000	      6717	8000181c	fa30dee3	bge	x1,x3,800017d8	  x1:0xfffffff6  x3:0xfffffff6
       67195000	      6718	00000000	00000013	addi	x0,x0,0	  x0:0x00000000
       67205000	      6719	800017d4	00000013	addi	x0,x0,0	  x0:0x00000000
       67215000	      6720	800017d8	0012f833	and	x16,x5,x1	  x5:0x00000000  x1:0xfffffff6 x16=0x00000000
       67225000	      6721	800017dc	012a39b3	sltu	x19,x20,x18	 x20:0x80009fc4 x18:0x00000000 x19=0x00000000
       67235000	      6722	800017e0	84d1fd13	andi	x26,x3,-1971	  x3:0xfffffff6 x26=0xfffff844
       67245000	      6723	800017e4	ffe08093	addi	x1,x1,-2	  x1:0xfffffff6  x1=0xfffffff4
       67255000	      6724	800017e8	c2f52c13	slti	x24,x10,-977	 x10:0x00000003 x24=0x00000000
       67265000	      6725	800017ec	ffa00413	addi	x8,x0,-6	  x0:0x00000000  x8=0xfffffffa
       67275000	      6726	800017f0	01067633	and	x12,x12,x16	 x12:0x00000000 x16:0x00000000 x12=0x00000000
       67285000	      6727	800017f4	ff100213	addi	x4,x0,-15	  x0:0x00000000  x4=0xfffffff1
       67295000	      6728	800017f8	00000013	addi	x0,x0,0	  x0:0x00000000
       67305000	      6729	800017fc	005eb933	sltu	x18,x29,x5	 x29:0x7fff67d7  x5:0x00000000 x18=0x00000000
       67315000	      6730	80001800	84b64397	auipc	x7,0x84b64	  x7=0x04b657fc
       67325000	      6731	80001804	00000013	addi	x0,x0,0	  x0:0x00000000
       67335000	      6732	80001808	402a5d13	srai	x26,x20,0x2	 x20:0x80009fc4 x26=0xe00027f1
       67345000	      6733	8000180c	ff740413	addi	x8,x8,-9	  x8:0xfffffffa  x8=0xfffffff1
       67355000	      6734	80001810	17416593	ori	x11,x2,372	  x2:0x00000001 x11=0x00000175
       67365000	      6735	80001814	fe4418e3	bne	x8,x4,80001804	  x8:0xfffffff1  x4:0xfffffff1
       67375000	      6736	80001818	00000013	addi	x0,x0,0	  x0:0x00000000
       67385000	      6737	8000181c	fa30dee3	bge	x1,x3,800017d8	  x1:0xfffffff4  x3:0xfffffff6
       67395000	      6738	80001820	01fc8633	add	x12,x25,x31	 x25:0x00000001 x31:0x80000000 x12=0x80000001
       67405000	      6739	80001824	ff700c13	addi	x24,x0,-9	  x0:0x00000000 x24=0xfffffff7
       67415000	      6740	80001828	41e2d1b3	sra	x3,x5,x30	  x5:0x00000000 x30:0x00000000  x3=0x00000000
       67425000	      6741	8000182c	40dd5813	srai	x16,x26,0xd	 x26:0xe00027f1 x16=0xffff0001
       67435000	      6742	80001830	019afdb3	and	x27,x21,x25	 x21:0x0000000e x25:0x00000001 x27=0x00000000
       67445000	      6743	80001834	009c5013	srli	x0,x24,0x9	 x24:0xfffffff7
       67455000	      6744	80001838	a30da713	slti	x14,x27,-1488	 x27:0x00000000 x14=0x00000000
       67465000	      6745	8000183c	0803a013	slti	x0,x7,128	  x7:0x04b657fc
       67475000	      6746	80001840	4133d613	srai	x12,x7,0x13	  x7:0x04b657fc x12=0x00000096
       67485000	      6747	80001844	00000013	addi	x0,x0,0	  x0:0x00000000
       67495000	      6748	80001848	01a798b3	sll	x17,x15,x26	 x15:0x00000003 x26:0xe00027f1 x17=0x00060000
       67505000	      6749	8000184c	01812933	slt	x18,x2,x24	  x2:0x00000001 x24:0xfffffff7 x18=0x00000000
       67515000	      6750	80001850	00b00f13	addi	x30,x0,11	  x0:0x00000000 x30=0x0000000b
       67525000	      6751	80001854	01218bb3	add	x23,x3,x18	  x3:0x00000000 x18:0x00000000 x23=0x00000000
       67535000	      6752	80001858	4066d993	srai	x19,x13,0x6	 x13:0xffffffef x19=0xffffffff
       67545000	      6753	8000185c	01bca133	slt	x2,x25,x27	 x25:0x00000001 x27:0x00000000  x2=0x00000000
       67555000	      6754	80001860	01d9ab33	slt	x22,x19,x29	 x19:0xffffffff x29:0x7fff67d7 x22=0x00000001
       67565000	      6755	80001864	41b4ddb3	sra	x27,x9,x27	  x9:0xffffff49 x27:0x00000000 x27=0xffffff49
       67575000	      6756	80001868	0075b8b3	sltu	x17,x11,x7	 x11:0x00000175  x7:0x04b657fc x17=0x00000001
       67585000	      6757	8000186c	00a55b33	srl	x22,x10,x10	 x10:0x00000003 x10:0x00000003 x22=0x00000000
       67595000	      6758	80001870	0027eb33	or	x22,x15,x2	 x15:0x00000003  x2:0x00000000 x22=0x00000003
       67605000	      6759	80001874	01bf30b3	sltu	x1,x30,x27	 x30:0x0000000b x27:0xffffff49  x1=0x00000001
       67615000	      6760	80001878	00ac0c13	addi	x24,x24,10	 x24:0xfffffff7 x24=0x00000001
       67625000	      6761	8000187c	41375033	sra	x0,x14,x19	 x14:0x00000000 x19:0xffffffff
       67635000	      6762	80001880	017608b3	add	x17,x12,x23	 x12:0x00000096 x23:0x00000000 x17=0x00000096
       67645000	      6763	80001884	fdec6ce3	bltu	x24,x30,8000185c	 x24:0x00000001 x30:0x0000000b
       67655000	      6764	00000000	00000013	addi	x0,x0,0	  x0:0x00000000
       67665000	      6765	80001858	00000013	addi	x0,x0,0	  x0:0x00000000
       67675000	      6766	8000185c	01bca133	slt	x2,x25,x27	 x25:0x00000001 x27:0xffffff49  x2=0x00000000
       67685000	      6767	80001860	01d9ab33	slt	x22,x19,x29	 x19:0xffffffff x29:0x7fff67d7 x22=0x00000001
       67695000	      6768	80001864	41b4ddb3	sra	x27,x9,x27	  x9:0xffffff49 x27:0xffffff49 x27=0xffffffff
       67705000	      6769	80001868	0075b8b3	sltu	x17,x11,x7	 x11:0x00000175  x7:0x04b657fc x17=0x00000001
       67715000	      6770	8000186c	00a55b33	srl	x22,x10,x10	 x10:0x00000003 x10:0x00000003 x22=0x00000000
       67725000	      6771	80001870	0027eb33	or	x22,x15,x2	 x15:0x00000003  x2:0x00000000 x22=0x00000003
       67735000	      6772	80001874	01bf30b3	sltu	x1,x30,x27	 x30:0x0000000b x27:0xffffffff  x1=0x00000001
       67745000	      6773	80001878	00ac0c13	addi	x24,x24,10	 x24:0x00000001 x24=0x0000000b
       67755000	      6774	8000187c	41375033	sra	x0,x14,x19	 x14:0x00000000 x19:0xffffffff
       67765000	      6775	80001880	017608b3	add	x17,x12,x23	 x12:0x00000096 x23:0x00000000 x17=0x00000096
       67775000	      6776	80001884	fdec6ce3	bltu	x24,x30,8000185c	 x24:0x0000000b x30:0x0000000b
       67785000	      6777	80001888	40125c93	srai	x25,x4,0x1	  x4:0xfffffff1 x25=0xfffffff8
       67795000	      6778	8000188c	00300c93	addi	x25,x0,3	  x0:0x00000000 x25=0x00000003
       67805000	      6779	80001890	00e00b13	addi	x22,x0,14	  x0:0x00000000 x22=0x0000000e
       67815000	      6780	80001894	00776f33	or	x30,x14,x7	 x14:0x00000000  x7:0x04b657fc x30=0x04b657fc
       67825000	      6781	80001898	002c8c93	addi	x25,x25,2	 x25:0x00000003 x25=0x00000005
       67835000	      6782	8000189c	00a00313	addi	x6,x0,10	  x0:0x00000000  x6=0x0000000a
       67845000	      6783	800018a0	00a00913	addi	x18,x0,10	  x0:0x00000000 x18=0x0000000a
       67855000	      6784	800018a4	b029ad93	slti	x27,x19,-1278	 x19:0xffffffff x27=0x00000000
       67865000	      6785	800018a8	b1d3e713	ori	x14,x7,-1251	  x7:0x04b657fc x14=0xfffffffd
       67875000	      6786	800018ac	ff730313	addi	x6,x6,-9	  x6:0x0000000a  x6=0x00000001
       67885000	      6787	800018b0	ff237ae3	bgeu	x6,x18,800018a4	  x6:0x00000001 x18:0x0000000a
       67895000	      6788	800018b4	ff6cc0e3	blt	x25,x22,80001894	 x25:0x00000005 x22:0x0000000e
       67905000	      6789	00000000	00000013	addi	x0,x0,0	  x0:0x00000000
       67915000	      6790	80001890	00000013	addi	x0,x0,0	  x0:0x00000000
       67925000	      6791	80001894	00776f33	or	x30,x14,x7	 x14:0xfffffffd  x7:0x04b657fc x30=0xfffffffd
       67935000	      6792	80001898	002c8c93	addi	x25,x25,2	 x25:0x00000005 x25=0x00000007
       67945000	      6793	8000189c	00a00313	addi	x6,x0,10	  x0:0x00000000  x6=0x0000000a
       67955000	      6794	800018a0	00a00913	addi	x18,x0,10	  x0:0x00000000 x18=0x0000000a
       67965000	      6795	800018a4	b029ad93	slti	x27,x19,-1278	 x19:0xffffffff x27=0x00000000
       67975000	      6796	800018a8	b1d3e713	ori	x14,x7,-1251	  x7:0x04b657fc x14=0xfffffffd
       67985000	      6797	800018ac	ff730313	addi	x6,x6,-9	  x6:0x0000000a  x6=0x00000001
       67995000	      6798	800018b0	ff237ae3	bgeu	x6,x18,800018a4	  x6:0x00000001 x18:0x0000000a
       68005000	      6799	800018b4	ff6cc0e3	blt	x25,x22,80001894	 x25:0x00000007 x22:0x0000000e
       68015000	      6800	00000000	00000013	addi	x0,x0,0	  x0:0x00000000
       68025000	      6801	80001890	00000013	addi	x0,x0,0	  x0:0x00000000
       68035000	      6802	80001894	00776f33	or	x30,x14,x7	 x14:0xfffffffd  x7:0x04b657fc x30=0xfffffffd
       68045000	      6803	80001898	002c8c93	addi	x25,x25,2	 x25:0x00000007 x25=0x00000009
       68055000	      6804	8000189c	00a00313	addi	x6,x0,10	  x0:0x00000000  x6=0x0000000a
       68065000	      6805	800018a0	00a00913	addi	x18,x0,10	  x0:0x00000000 x18=0x0000000a
       68075000	      6806	800018a4	b029ad93	slti	x27,x19,-1278	 x19:0xffffffff x27=0x00000000
       68085000	      6807	800018a8	b1d3e713	ori	x14,x7,-1251	  x7:0x04b657fc x14=0xfffffffd
       68095000	      6808	800018ac	ff730313	addi	x6,x6,-9	  x6:0x0000000a  x6=0x00000001
       68105000	      6809	800018b0	ff237ae3	bgeu	x6,x18,800018a4	  x6:0x00000001 x18:0x0000000a
       68115000	      6810	800018b4	ff6cc0e3	blt	x25,x22,80001894	 x25:0x00000009 x22:0x0000000e
       68125000	      6811	00000000	00000013	addi	x0,x0,0	  x0:0x00000000
       68135000	      6812	80001890	00000013	addi	x0,x0,0	  x0:0x00000000
       68145000	      6813	80001894	00776f33	or	x30,x14,x7	 x14:0xfffffffd  x7:0x04b657fc x30=0xfffffffd
       68155000	      6814	80001898	002c8c93	addi	x25,x25,2	 x25:0x00000009 x25=0x0000000b
       68165000	      6815	8000189c	00a00313	addi	x6,x0,10	  x0:0x00000000  x6=0x0000000a
       68175000	      6816	800018a0	00a00913	addi	x18,x0,10	  x0:0x00000000 x18=0x0000000a
       68185000	      6817	800018a4	b029ad93	slti	x27,x19,-1278	 x19:0xffffffff x27=0x00000000
       68195000	      6818	800018a8	b1d3e713	ori	x14,x7,-1251	  x7:0x04b657fc x14=0xfffffffd
       68205000	      6819	800018ac	ff730313	addi	x6,x6,-9	  x6:0x0000000a  x6=0x00000001
       68215000	      6820	800018b0	ff237ae3	bgeu	x6,x18,800018a4	  x6:0x00000001 x18:0x0000000a
       68225000	      6821	800018b4	ff6cc0e3	blt	x25,x22,80001894	 x25:0x0000000b x22:0x0000000e
       68235000	      6822	00000000	00000013	addi	x0,x0,0	  x0:0x00000000
       68245000	      6823	80001890	00000013	addi	x0,x0,0	  x0:0x00000000
       68255000	      6824	80001894	00776f33	or	x30,x14,x7	 x14:0xfffffffd  x7:0x04b657fc x30=0xfffffffd
       68265000	      6825	80001898	002c8c93	addi	x25,x25,2	 x25:0x0000000b x25=0x0000000d
       68275000	      6826	8000189c	00a00313	addi	x6,x0,10	  x0:0x00000000  x6=0x0000000a
       68285000	      6827	800018a0	00a00913	addi	x18,x0,10	  x0:0x00000000 x18=0x0000000a
       68295000	      6828	800018a4	b029ad93	slti	x27,x19,-1278	 x19:0xffffffff x27=0x00000000
       68305000	      6829	800018a8	b1d3e713	ori	x14,x7,-1251	  x7:0x04b657fc x14=0xfffffffd
       68315000	      6830	800018ac	ff730313	addi	x6,x6,-9	  x6:0x0000000a  x6=0x00000001
       68325000	      6831	800018b0	ff237ae3	bgeu	x6,x18,800018a4	  x6:0x00000001 x18:0x0000000a
       68335000	      6832	800018b4	ff6cc0e3	blt	x25,x22,80001894	 x25:0x0000000d x22:0x0000000e
       68345000	      6833	00000000	00000013	addi	x0,x0,0	  x0:0x00000000
       68355000	      6834	80001890	00000013	addi	x0,x0,0	  x0:0x00000000
       68365000	      6835	80001894	00776f33	or	x30,x14,x7	 x14:0xfffffffd  x7:0x04b657fc x30=0xfffffffd
       68375000	      6836	80001898	002c8c93	addi	x25,x25,2	 x25:0x0000000d x25=0x0000000f
       68385000	      6837	8000189c	00a00313	addi	x6,x0,10	  x0:0x00000000  x6=0x0000000a
       68395000	      6838	800018a0	00a00913	addi	x18,x0,10	  x0:0x00000000 x18=0x0000000a
       68405000	      6839	800018a4	b029ad93	slti	x27,x19,-1278	 x19:0xffffffff x27=0x00000000
       68415000	      6840	800018a8	b1d3e713	ori	x14,x7,-1251	  x7:0x04b657fc x14=0xfffffffd
       68425000	      6841	800018ac	ff730313	addi	x6,x6,-9	  x6:0x0000000a  x6=0x00000001
       68435000	      6842	800018b0	ff237ae3	bgeu	x6,x18,800018a4	  x6:0x00000001 x18:0x0000000a
       68445000	      6843	800018b4	ff6cc0e3	blt	x25,x22,80001894	 x25:0x0000000f x22:0x0000000e
       68455000	      6844	800018b8	40bd8f33	sub	x30,x27,x11	 x27:0x00000000 x11:0x00000175 x30=0xfffffe8b
       68465000	      6845	800018bc	fff00b93	addi	x23,x0,-1	  x0:0x00000000 x23=0xffffffff
       68475000	      6846	800018c0	41528233	sub	x4,x5,x21	  x5:0x00000000 x21:0x0000000e  x4=0xfffffff2
       68485000	      6847	800018c4	ff100493	addi	x9,x0,-15	  x0:0x00000000  x9=0xfffffff1
       68495000	      6848	800018c8	00000013	addi	x0,x0,0	  x0:0x00000000
       68505000	      6849	800018cc	e7cf4293	xori	x5,x30,-388	 x30:0xfffffe8b  x5=0x000000f7
       68515000	      6850	800018d0	40950cb3	sub	x25,x10,x9	 x10:0x00000003  x9:0xfffffff1 x25=0x00000012
       68525000	      6851	800018d4	ffeb8b93	addi	x23,x23,-2	 x23:0xffffffff x23=0xfffffffd
       68535000	      6852	800018d8	d06161b7	lui	x3,0xd0616	  x3=0xd0616000
       68545000	      6853	800018dc	ffa00113	addi	x2,x0,-6	  x0:0x00000000  x2=0xfffffffa
       68555000	      6854	800018e0	dc6bb713	sltiu	x14,x23,-570	 x23:0xfffffffd x14=0x00000000
       68565000	      6855	800018e4	503dba93	sltiu	x21,x27,1283	 x27:0x00000000 x21=0x00000001
       68575000	      6856	800018e8	d42d4937	lui	x18,0xd42d4	 x18=0xd42d4000
       68585000	      6857	800018ec	016b5513	srli	x10,x22,0x16	 x22:0x0000000e x10=0x00000000
       68595000	      6858	800018f0	ff700413	addi	x8,x0,-9	  x0:0x00000000  x8=0xfffffff7
       68605000	      6859	800018f4	01d49693	slli	x13,x9,0x1d	  x9:0xfffffff1 x13=0x20000000
       68615000	      6860	800018f8	056f9197	auipc	x3,0x56f9	  x3=0x856fa8f4
       68625000	      6861	800018fc	00c177b3	and	x15,x2,x12	  x2:0xfffffffa x12:0x00000096 x15=0x00000092
       68635000	      6862	80001900	ffc10113	addi	x2,x2,-4	  x2:0xfffffffa  x2=0xfffffff6
       68645000	      6863	80001904	01804b33	xor	x22,x0,x24	  x0:0x00000000 x24:0x0000000b x22=0x0000000b
       68655000	      6864	80001908	fe815ae3	bge	x2,x8,800018fc	  x2:0xfffffff6  x8:0xfffffff7
       68665000	      6865	8000190c	00fe33b3	sltu	x7,x28,x15	 x28:0x80009f40 x15:0x00000092  x7=0x00000000
       68675000	      6866	80001910	00244833	xor	x16,x8,x2	  x8:0xfffffff7  x2:0xfffffff6 x16=0x00000001
       68685000	      6867	80001914	c271f193	andi	x3,x3,-985	  x3:0x856fa8f4  x3=0x856fa824
       68695000	      6868	80001918	4139d093	srai	x1,x19,0x13	 x19:0xffffffff  x1=0xffffffff
       68705000	      6869	8000191c	fa9bd8e3	bge	x23,x9,800018cc	 x23:0xfffffffd  x9:0xfffffff1
       68715000	      6870	00000000	00000013	addi	x0,x0,0	  x0:0x00000000
       68725000	      6871	800018c8	00000013	addi	x0,x0,0	  x0:0x00000000
       68735000	      6872	800018cc	e7cf4293	xori	x5,x30,-388	 x30:0xfffffe8b  x5=0x000000f7
       68745000	      6873	800018d0	40950cb3	sub	x25,x10,x9	 x10:0x00000000  x9:0xfffffff1 x25=0x0000000f
       68755000	      6874	800018d4	ffeb8b93	addi	x23,x23,-2	 x23:0xfffffffd x23=0xfffffffb
       68765000	      6875	800018d8	d06161b7	lui	x3,0xd0616	  x3=0xd0616000
       68775000	      6876	800018dc	ffa00113	addi	x2,x0,-6	  x0:0x00000000  x2=0xfffffffa
       68785000	      6877	800018e0	dc6bb713	sltiu	x14,x23,-570	 x23:0xfffffffb x14=0x00000000
       68795000	      6878	800018e4	503dba93	sltiu	x21,x27,1283	 x27:0x00000000 x21=0x00000001
       68805000	      6879	800018e8	d42d4937	lui	x18,0xd42d4	 x18=0xd42d4000
       68815000	      6880	800018ec	016b5513	srli	x10,x22,0x16	 x22:0x0000000b x10=0x00000000
       68825000	      6881	800018f0	ff700413	addi	x8,x0,-9	  x0:0x00000000  x8=0xfffffff7
       68835000	      6882	800018f4	01d49693	slli	x13,x9,0x1d	  x9:0xfffffff1 x13=0x20000000
       68845000	      6883	800018f8	056f9197	auipc	x3,0x56f9	  x3=0x856fa8f4
       68855000	      6884	800018fc	00c177b3	and	x15,x2,x12	  x2:0xfffffffa x12:0x00000096 x15=0x00000092
       68865000	      6885	80001900	ffc10113	addi	x2,x2,-4	  x2:0xfffffffa  x2=0xfffffff6
       68875000	      6886	80001904	01804b33	xor	x22,x0,x24	  x0:0x00000000 x24:0x0000000b x22=0x0000000b
       68885000	      6887	80001908	fe815ae3	bge	x2,x8,800018fc	  x2:0xfffffff6  x8:0xfffffff7
       68895000	      6888	8000190c	00fe33b3	sltu	x7,x28,x15	 x28:0x80009f40 x15:0x00000092  x7=0x00000000
       68905000	      6889	80001910	00244833	xor	x16,x8,x2	  x8:0xfffffff7  x2:0xfffffff6 x16=0x00000001
       68915000	      6890	80001914	c271f193	andi	x3,x3,-985	  x3:0x856fa8f4  x3=0x856fa824
       68925000	      6891	80001918	4139d093	srai	x1,x19,0x13	 x19:0xffffffff  x1=0xffffffff
       68935000	      6892	8000191c	fa9bd8e3	bge	x23,x9,800018cc	 x23:0xfffffffb  x9:0xfffffff1
       68945000	      6893	00000000	00000013	addi	x0,x0,0	  x0:0x00000000
       68955000	      6894	800018c8	00000013	addi	x0,x0,0	  x0:0x00000000
       68965000	      6895	800018cc	e7cf4293	xori	x5,x30,-388	 x30:0xfffffe8b  x5=0x000000f7
       68975000	      6896	800018d0	40950cb3	sub	x25,x10,x9	 x10:0x00000000  x9:0xfffffff1 x25=0x0000000f
       68985000	      6897	800018d4	ffeb8b93	addi	x23,x23,-2	 x23:0xfffffffb x23=0xfffffff9
       68995000	      6898	800018d8	d06161b7	lui	x3,0xd0616	  x3=0xd0616000
       69005000	      6899	800018dc	ffa00113	addi	x2,x0,-6	  x0:0x00000000  x2=0xfffffffa
       69015000	      6900	800018e0	dc6bb713	sltiu	x14,x23,-570	 x23:0xfffffff9 x14=0x00000000
       69025000	      6901	800018e4	503dba93	sltiu	x21,x27,1283	 x27:0x00000000 x21=0x00000001
       69035000	      6902	800018e8	d42d4937	lui	x18,0xd42d4	 x18=0xd42d4000
       69045000	      6903	800018ec	016b5513	srli	x10,x22,0x16	 x22:0x0000000b x10=0x00000000
       69055000	      6904	800018f0	ff700413	addi	x8,x0,-9	  x0:0x00000000  x8=0xfffffff7
       69065000	      6905	800018f4	01d49693	slli	x13,x9,0x1d	  x9:0xfffffff1 x13=0x20000000
       69075000	      6906	800018f8	056f9197	auipc	x3,0x56f9	  x3=0x856fa8f4
       69085000	      6907	800018fc	00c177b3	and	x15,x2,x12	  x2:0xfffffffa x12:0x00000096 x15=0x00000092
       69095000	      6908	80001900	ffc10113	addi	x2,x2,-4	  x2:0xfffffffa  x2=0xfffffff6
       69105000	      6909	80001904	01804b33	xor	x22,x0,x24	  x0:0x00000000 x24:0x0000000b x22=0x0000000b
       69115000	      6910	80001908	fe815ae3	bge	x2,x8,800018fc	  x2:0xfffffff6  x8:0xfffffff7
       69125000	      6911	8000190c	00fe33b3	sltu	x7,x28,x15	 x28:0x80009f40 x15:0x00000092  x7=0x00000000
       69135000	      6912	80001910	00244833	xor	x16,x8,x2	  x8:0xfffffff7  x2:0xfffffff6 x16=0x00000001
       69145000	      6913	80001914	c271f193	andi	x3,x3,-985	  x3:0x856fa8f4  x3=0x856fa824
       69155000	      6914	80001918	4139d093	srai	x1,x19,0x13	 x19:0xffffffff  x1=0xffffffff
       69165000	      6915	8000191c	fa9bd8e3	bge	x23,x9,800018cc	 x23:0xfffffff9  x9:0xfffffff1
       69175000	      6916	00000000	00000013	addi	x0,x0,0	  x0:0x00000000
       69185000	      6917	800018c8	00000013	addi	x0,x0,0	  x0:0x00000000
       69195000	      6918	800018cc	e7cf4293	xori	x5,x30,-388	 x30:0xfffffe8b  x5=0x000000f7
       69205000	      6919	800018d0	40950cb3	sub	x25,x10,x9	 x10:0x00000000  x9:0xfffffff1 x25=0x0000000f
       69215000	      6920	800018d4	ffeb8b93	addi	x23,x23,-2	 x23:0xfffffff9 x23=0xfffffff7
       69225000	      6921	800018d8	d06161b7	lui	x3,0xd0616	  x3=0xd0616000
       69235000	      6922	800018dc	ffa00113	addi	x2,x0,-6	  x0:0x00000000  x2=0xfffffffa
       69245000	      6923	800018e0	dc6bb713	sltiu	x14,x23,-570	 x23:0xfffffff7 x14=0x00000000
       69255000	      6924	800018e4	503dba93	sltiu	x21,x27,1283	 x27:0x00000000 x21=0x00000001
       69265000	      6925	800018e8	d42d4937	lui	x18,0xd42d4	 x18=0xd42d4000
       69275000	      6926	800018ec	016b5513	srli	x10,x22,0x16	 x22:0x0000000b x10=0x00000000
       69285000	      6927	800018f0	ff700413	addi	x8,x0,-9	  x0:0x00000000  x8=0xfffffff7
       69295000	      6928	800018f4	01d49693	slli	x13,x9,0x1d	  x9:0xfffffff1 x13=0x20000000
       69305000	      6929	800018f8	056f9197	auipc	x3,0x56f9	  x3=0x856fa8f4
       69315000	      6930	800018fc	00c177b3	and	x15,x2,x12	  x2:0xfffffffa x12:0x00000096 x15=0x00000092
       69325000	      6931	80001900	ffc10113	addi	x2,x2,-4	  x2:0xfffffffa  x2=0xfffffff6
       69335000	      6932	80001904	01804b33	xor	x22,x0,x24	  x0:0x00000000 x24:0x0000000b x22=0x0000000b
       69345000	      6933	80001908	fe815ae3	bge	x2,x8,800018fc	  x2:0xfffffff6  x8:0xfffffff7
       69355000	      6934	8000190c	00fe33b3	sltu	x7,x28,x15	 x28:0x80009f40 x15:0x00000092  x7=0x00000000
       69365000	      6935	80001910	00244833	xor	x16,x8,x2	  x8:0xfffffff7  x2:0xfffffff6 x16=0x00000001
       69375000	      6936	80001914	c271f193	andi	x3,x3,-985	  x3:0x856fa8f4  x3=0x856fa824
       69385000	      6937	80001918	4139d093	srai	x1,x19,0x13	 x19:0xffffffff  x1=0xffffffff
       69395000	      6938	8000191c	fa9bd8e3	bge	x23,x9,800018cc	 x23:0xfffffff7  x9:0xfffffff1
       69405000	      6939	00000000	00000013	addi	x0,x0,0	  x0:0x00000000
       69415000	      6940	800018c8	00000013	addi	x0,x0,0	  x0:0x00000000
       69425000	      6941	800018cc	e7cf4293	xori	x5,x30,-388	 x30:0xfffffe8b  x5=0x000000f7
       69435000	      6942	800018d0	40950cb3	sub	x25,x10,x9	 x10:0x00000000  x9:0xfffffff1 x25=0x0000000f
       69445000	      6943	800018d4	ffeb8b93	addi	x23,x23,-2	 x23:0xfffffff7 x23=0xfffffff5
       69455000	      6944	800018d8	d06161b7	lui	x3,0xd0616	  x3=0xd0616000
       69465000	      6945	800018dc	ffa00113	addi	x2,x0,-6	  x0:0x00000000  x2=0xfffffffa
       69475000	      6946	800018e0	dc6bb713	sltiu	x14,x23,-570	 x23:0xfffffff5 x14=0x00000000
       69485000	      6947	800018e4	503dba93	sltiu	x21,x27,1283	 x27:0x00000000 x21=0x00000001
       69495000	      6948	800018e8	d42d4937	lui	x18,0xd42d4	 x18=0xd42d4000
       69505000	      6949	800018ec	016b5513	srli	x10,x22,0x16	 x22:0x0000000b x10=0x00000000
       69515000	      6950	800018f0	ff700413	addi	x8,x0,-9	  x0:0x00000000  x8=0xfffffff7
       69525000	      6951	800018f4	01d49693	slli	x13,x9,0x1d	  x9:0xfffffff1 x13=0x20000000
       69535000	      6952	800018f8	056f9197	auipc	x3,0x56f9	  x3=0x856fa8f4
       69545000	      6953	800018fc	00c177b3	and	x15,x2,x12	  x2:0xfffffffa x12:0x00000096 x15=0x00000092
       69555000	      6954	80001900	ffc10113	addi	x2,x2,-4	  x2:0xfffffffa  x2=0xfffffff6
       69565000	      6955	80001904	01804b33	xor	x22,x0,x24	  x0:0x00000000 x24:0x0000000b x22=0x0000000b
       69575000	      6956	80001908	fe815ae3	bge	x2,x8,800018fc	  x2:0xfffffff6  x8:0xfffffff7
       69585000	      6957	8000190c	00fe33b3	sltu	x7,x28,x15	 x28:0x80009f40 x15:0x00000092  x7=0x00000000
       69595000	      6958	80001910	00244833	xor	x16,x8,x2	  x8:0xfffffff7  x2:0xfffffff6 x16=0x00000001
       69605000	      6959	80001914	c271f193	andi	x3,x3,-985	  x3:0x856fa8f4  x3=0x856fa824
       69615000	      6960	80001918	4139d093	srai	x1,x19,0x13	 x19:0xffffffff  x1=0xffffffff
       69625000	      6961	8000191c	fa9bd8e3	bge	x23,x9,800018cc	 x23:0xfffffff5  x9:0xfffffff1
       69635000	      6962	00000000	00000013	addi	x0,x0,0	  x0:0x00000000
       69645000	      6963	800018c8	00000013	addi	x0,x0,0	  x0:0x00000000
       69655000	      6964	800018cc	e7cf4293	xori	x5,x30,-388	 x30:0xfffffe8b  x5=0x000000f7
       69665000	      6965	800018d0	40950cb3	sub	x25,x10,x9	 x10:0x00000000  x9:0xfffffff1 x25=0x0000000f
       69675000	      6966	800018d4	ffeb8b93	addi	x23,x23,-2	 x23:0xfffffff5 x23=0xfffffff3
       69685000	      6967	800018d8	d06161b7	lui	x3,0xd0616	  x3=0xd0616000
       69695000	      6968	800018dc	ffa00113	addi	x2,x0,-6	  x0:0x00000000  x2=0xfffffffa
       69705000	      6969	800018e0	dc6bb713	sltiu	x14,x23,-570	 x23:0xfffffff3 x14=0x00000000
       69715000	      6970	800018e4	503dba93	sltiu	x21,x27,1283	 x27:0x00000000 x21=0x00000001
       69725000	      6971	800018e8	d42d4937	lui	x18,0xd42d4	 x18=0xd42d4000
       69735000	      6972	800018ec	016b5513	srli	x10,x22,0x16	 x22:0x0000000b x10=0x00000000
       69745000	      6973	800018f0	ff700413	addi	x8,x0,-9	  x0:0x00000000  x8=0xfffffff7
       69755000	      6974	800018f4	01d49693	slli	x13,x9,0x1d	  x9:0xfffffff1 x13=0x20000000
       69765000	      6975	800018f8	056f9197	auipc	x3,0x56f9	  x3=0x856fa8f4
       69775000	      6976	800018fc	00c177b3	and	x15,x2,x12	  x2:0xfffffffa x12:0x00000096 x15=0x00000092
       69785000	      6977	80001900	ffc10113	addi	x2,x2,-4	  x2:0xfffffffa  x2=0xfffffff6
       69795000	      6978	80001904	01804b33	xor	x22,x0,x24	  x0:0x00000000 x24:0x0000000b x22=0x0000000b
       69805000	      6979	80001908	fe815ae3	bge	x2,x8,800018fc	  x2:0xfffffff6  x8:0xfffffff7
       69815000	      6980	8000190c	00fe33b3	sltu	x7,x28,x15	 x28:0x80009f40 x15:0x00000092  x7=0x00000000
       69825000	      6981	80001910	00244833	xor	x16,x8,x2	  x8:0xfffffff7  x2:0xfffffff6 x16=0x00000001
       69835000	      6982	80001914	c271f193	andi	x3,x3,-985	  x3:0x856fa8f4  x3=0x856fa824
       69845000	      6983	80001918	4139d093	srai	x1,x19,0x13	 x19:0xffffffff  x1=0xffffffff
       69855000	      6984	8000191c	fa9bd8e3	bge	x23,x9,800018cc	 x23:0xfffffff3  x9:0xfffffff1
       69865000	      6985	00000000	00000013	addi	x0,x0,0	  x0:0x00000000
       69875000	      6986	800018c8	00000013	addi	x0,x0,0	  x0:0x00000000
       69885000	      6987	800018cc	e7cf4293	xori	x5,x30,-388	 x30:0xfffffe8b  x5=0x000000f7
       69895000	      6988	800018d0	40950cb3	sub	x25,x10,x9	 x10:0x00000000  x9:0xfffffff1 x25=0x0000000f
       69905000	      6989	800018d4	ffeb8b93	addi	x23,x23,-2	 x23:0xfffffff3 x23=0xfffffff1
       69915000	      6990	800018d8	d06161b7	lui	x3,0xd0616	  x3=0xd0616000
       69925000	      6991	800018dc	ffa00113	addi	x2,x0,-6	  x0:0x00000000  x2=0xfffffffa
       69935000	      6992	800018e0	dc6bb713	sltiu	x14,x23,-570	 x23:0xfffffff1 x14=0x00000000
       69945000	      6993	800018e4	503dba93	sltiu	x21,x27,1283	 x27:0x00000000 x21=0x00000001
       69955000	      6994	800018e8	d42d4937	lui	x18,0xd42d4	 x18=0xd42d4000
       69965000	      6995	800018ec	016b5513	srli	x10,x22,0x16	 x22:0x0000000b x10=0x00000000
       69975000	      6996	800018f0	ff700413	addi	x8,x0,-9	  x0:0x00000000  x8=0xfffffff7
       69985000	      6997	800018f4	01d49693	slli	x13,x9,0x1d	  x9:0xfffffff1 x13=0x20000000
       69995000	      6998	800018f8	056f9197	auipc	x3,0x56f9	  x3=0x856fa8f4
       70005000	      6999	800018fc	00c177b3	and	x15,x2,x12	  x2:0xfffffffa x12:0x00000096 x15=0x00000092
       70015000	      7000	80001900	ffc10113	addi	x2,x2,-4	  x2:0xfffffffa  x2=0xfffffff6
       70025000	      7001	80001904	01804b33	xor	x22,x0,x24	  x0:0x00000000 x24:0x0000000b x22=0x0000000b
       70035000	      7002	80001908	fe815ae3	bge	x2,x8,800018fc	  x2:0xfffffff6  x8:0xfffffff7
       70045000	      7003	8000190c	00fe33b3	sltu	x7,x28,x15	 x28:0x80009f40 x15:0x00000092  x7=0x00000000
       70055000	      7004	80001910	00244833	xor	x16,x8,x2	  x8:0xfffffff7  x2:0xfffffff6 x16=0x00000001
       70065000	      7005	80001914	c271f193	andi	x3,x3,-985	  x3:0x856fa8f4  x3=0x856fa824
       70075000	      7006	80001918	4139d093	srai	x1,x19,0x13	 x19:0xffffffff  x1=0xffffffff
       70085000	      7007	8000191c	fa9bd8e3	bge	x23,x9,800018cc	 x23:0xfffffff1  x9:0xfffffff1
       70095000	      7008	00000000	00000013	addi	x0,x0,0	  x0:0x00000000
       70105000	      7009	800018c8	00000013	addi	x0,x0,0	  x0:0x00000000
       70115000	      7010	800018cc	e7cf4293	xori	x5,x30,-388	 x30:0xfffffe8b  x5=0x000000f7
       70125000	      7011	800018d0	40950cb3	sub	x25,x10,x9	 x10:0x00000000  x9:0xfffffff1 x25=0x0000000f
       70135000	      7012	800018d4	ffeb8b93	addi	x23,x23,-2	 x23:0xfffffff1 x23=0xffffffef
       70145000	      7013	800018d8	d06161b7	lui	x3,0xd0616	  x3=0xd0616000
       70155000	      7014	800018dc	ffa00113	addi	x2,x0,-6	  x0:0x00000000  x2=0xfffffffa
       70165000	      7015	800018e0	dc6bb713	sltiu	x14,x23,-570	 x23:0xffffffef x14=0x00000000
       70175000	      7016	800018e4	503dba93	sltiu	x21,x27,1283	 x27:0x00000000 x21=0x00000001
       70185000	      7017	800018e8	d42d4937	lui	x18,0xd42d4	 x18=0xd42d4000
       70195000	      7018	800018ec	016b5513	srli	x10,x22,0x16	 x22:0x0000000b x10=0x00000000
       70205000	      7019	800018f0	ff700413	addi	x8,x0,-9	  x0:0x00000000  x8=0xfffffff7
       70215000	      7020	800018f4	01d49693	slli	x13,x9,0x1d	  x9:0xfffffff1 x13=0x20000000
       70225000	      7021	800018f8	056f9197	auipc	x3,0x56f9	  x3=0x856fa8f4
       70235000	      7022	800018fc	00c177b3	and	x15,x2,x12	  x2:0xfffffffa x12:0x00000096 x15=0x00000092
       70245000	      7023	80001900	ffc10113	addi	x2,x2,-4	  x2:0xfffffffa  x2=0xfffffff6
       70255000	      7024	80001904	01804b33	xor	x22,x0,x24	  x0:0x00000000 x24:0x0000000b x22=0x0000000b
       70265000	      7025	80001908	fe815ae3	bge	x2,x8,800018fc	  x2:0xfffffff6  x8:0xfffffff7
       70275000	      7026	8000190c	00fe33b3	sltu	x7,x28,x15	 x28:0x80009f40 x15:0x00000092  x7=0x00000000
       70285000	      7027	80001910	00244833	xor	x16,x8,x2	  x8:0xfffffff7  x2:0xfffffff6 x16=0x00000001
       70295000	      7028	80001914	c271f193	andi	x3,x3,-985	  x3:0x856fa8f4  x3=0x856fa824
       70305000	      7029	80001918	4139d093	srai	x1,x19,0x13	 x19:0xffffffff  x1=0xffffffff
       70315000	      7030	8000191c	fa9bd8e3	bge	x23,x9,800018cc	 x23:0xffffffef  x9:0xfffffff1
       70325000	      7031	80001920	0132d2b3	srl	x5,x5,x19	  x5:0x000000f7 x19:0xffffffff  x5=0x00000000
       70335000	      7032	80001924	00400693	addi	x13,x0,4	  x0:0x00000000 x13=0x00000004
       70345000	      7033	80001928	00000013	addi	x0,x0,0	  x0:0x00000000
       70355000	      7034	8000192c	99118413	addi	x8,x3,-1647	  x3:0x856fa824  x8=0x856fa1b5
       70365000	      7035	80001930	fef00f13	addi	x30,x0,-17	  x0:0x00000000 x30=0xffffffef
       70375000	      7036	80001934	00c6a9b3	slt	x19,x13,x12	 x13:0x00000004 x12:0x00000096 x19=0x00000001
       70385000	      7037	80001938	00f8c733	xor	x14,x17,x15	 x17:0x00000096 x15:0x00000092 x14=0x00000004
       70395000	      7038	8000193c	1d67a913	slti	x18,x15,470	 x15:0x00000092 x18=0x00000001
       70405000	      7039	80001940	ffc68693	addi	x13,x13,-4	 x13:0x00000004 x13=0x00000000
       70415000	      7040	80001944	4078d0b3	sra	x1,x17,x7	 x17:0x00000096  x7:0x00000000  x1=0x00000096
       70425000	      7041	80001948	016fddb3	srl	x27,x31,x22	 x31:0x80000000 x22:0x0000000b x27=0x00100000
       70435000	      7042	8000194c	93d18893	addi	x17,x3,-1731	  x3:0x856fa824 x17=0x856fa161
       70445000	      7043	80001950	ffe6d4e3	bge	x13,x30,80001938	 x13:0x00000000 x30:0xffffffef
       70455000	      7044	00000000	00000013	addi	x0,x0,0	  x0:0x00000000
       70465000	      7045	80001934	00000013	addi	x0,x0,0	  x0:0x00000000
       70475000	      7046	80001938	00f8c733	xor	x14,x17,x15	 x17:0x856fa161 x15:0x00000092 x14=0x856fa1f3
       70485000	      7047	8000193c	1d67a913	slti	x18,x15,470	 x15:0x00000092 x18=0x00000001
       70495000	      7048	80001940	ffc68693	addi	x13,x13,-4	 x13:0x00000000 x13=0xfffffffc
       70505000	      7049	80001944	4078d0b3	sra	x1,x17,x7	 x17:0x856fa161  x7:0x00000000  x1=0x856fa161
       70515000	      7050	80001948	016fddb3	srl	x27,x31,x22	 x31:0x80000000 x22:0x0000000b x27=0x00100000
       70525000	      7051	8000194c	93d18893	addi	x17,x3,-1731	  x3:0x856fa824 x17=0x856fa161
       70535000	      7052	80001950	ffe6d4e3	bge	x13,x30,80001938	 x13:0xfffffffc x30:0xffffffef
       70545000	      7053	00000000	00000013	addi	x0,x0,0	  x0:0x00000000
       70555000	      7054	80001934	00000013	addi	x0,x0,0	  x0:0x00000000
       70565000	      7055	80001938	00f8c733	xor	x14,x17,x15	 x17:0x856fa161 x15:0x00000092 x14=0x856fa1f3
       70575000	      7056	8000193c	1d67a913	slti	x18,x15,470	 x15:0x00000092 x18=0x00000001
       70585000	      7057	80001940	ffc68693	addi	x13,x13,-4	 x13:0xfffffffc x13=0xfffffff8
       70595000	      7058	80001944	4078d0b3	sra	x1,x17,x7	 x17:0x856fa161  x7:0x00000000  x1=0x856fa161
       70605000	      7059	80001948	016fddb3	srl	x27,x31,x22	 x31:0x80000000 x22:0x0000000b x27=0x00100000
       70615000	      7060	8000194c	93d18893	addi	x17,x3,-1731	  x3:0x856fa824 x17=0x856fa161
       70625000	      7061	80001950	ffe6d4e3	bge	x13,x30,80001938	 x13:0xfffffff8 x30:0xffffffef
       70635000	      7062	00000000	00000013	addi	x0,x0,0	  x0:0x00000000
       70645000	      7063	80001934	00000013	addi	x0,x0,0	  x0:0x00000000
       70655000	      7064	80001938	00f8c733	xor	x14,x17,x15	 x17:0x856fa161 x15:0x00000092 x14=0x856fa1f3
       70665000	      7065	8000193c	1d67a913	slti	x18,x15,470	 x15:0x00000092 x18=0x00000001
       70675000	      7066	80001940	ffc68693	addi	x13,x13,-4	 x13:0xfffffff8 x13=0xfffffff4
       70685000	      7067	80001944	4078d0b3	sra	x1,x17,x7	 x17:0x856fa161  x7:0x00000000  x1=0x856fa161
       70695000	      7068	80001948	016fddb3	srl	x27,x31,x22	 x31:0x80000000 x22:0x0000000b x27=0x00100000
       70705000	      7069	8000194c	93d18893	addi	x17,x3,-1731	  x3:0x856fa824 x17=0x856fa161
       70715000	      7070	80001950	ffe6d4e3	bge	x13,x30,80001938	 x13:0xfffffff4 x30:0xffffffef
       70725000	      7071	00000000	00000013	addi	x0,x0,0	  x0:0x00000000
       70735000	      7072	80001934	00000013	addi	x0,x0,0	  x0:0x00000000
       70745000	      7073	80001938	00f8c733	xor	x14,x17,x15	 x17:0x856fa161 x15:0x00000092 x14=0x856fa1f3
       70755000	      7074	8000193c	1d67a913	slti	x18,x15,470	 x15:0x00000092 x18=0x00000001
       70765000	      7075	80001940	ffc68693	addi	x13,x13,-4	 x13:0xfffffff4 x13=0xfffffff0
       70775000	      7076	80001944	4078d0b3	sra	x1,x17,x7	 x17:0x856fa161  x7:0x00000000  x1=0x856fa161
       70785000	      7077	80001948	016fddb3	srl	x27,x31,x22	 x31:0x80000000 x22:0x0000000b x27=0x00100000
       70795000	      7078	8000194c	93d18893	addi	x17,x3,-1731	  x3:0x856fa824 x17=0x856fa161
       70805000	      7079	80001950	ffe6d4e3	bge	x13,x30,80001938	 x13:0xfffffff0 x30:0xffffffef
       70815000	      7080	00000000	00000013	addi	x0,x0,0	  x0:0x00000000
       70825000	      7081	80001934	00000013	addi	x0,x0,0	  x0:0x00000000
       70835000	      7082	80001938	00f8c733	xor	x14,x17,x15	 x17:0x856fa161 x15:0x00000092 x14=0x856fa1f3
       70845000	      7083	8000193c	1d67a913	slti	x18,x15,470	 x15:0x00000092 x18=0x00000001
       70855000	      7084	80001940	ffc68693	addi	x13,x13,-4	 x13:0xfffffff0 x13=0xffffffec
       70865000	      7085	80001944	4078d0b3	sra	x1,x17,x7	 x17:0x856fa161  x7:0x00000000  x1=0x856fa161
       70875000	      7086	80001948	016fddb3	srl	x27,x31,x22	 x31:0x80000000 x22:0x0000000b x27=0x00100000
       70885000	      7087	8000194c	93d18893	addi	x17,x3,-1731	  x3:0x856fa824 x17=0x856fa161
       70895000	      7088	80001950	ffe6d4e3	bge	x13,x30,80001938	 x13:0xffffffec x30:0xffffffef
       70905000	      7089	80001954	0058dc13	srli	x24,x17,0x5	 x17:0x856fa161 x24=0x042b7d0b
       70915000	      7090	80001958	00600e93	addi	x29,x0,6	  x0:0x00000000 x29=0x00000006
       70925000	      7091	8000195c	fff00813	addi	x16,x0,-1	  x0:0x00000000 x16=0xffffffff
       70935000	      7092	80001960	4108dd33	sra	x26,x17,x16	 x17:0x856fa161 x16:0xffffffff x26=0xffffffff
       70945000	      7093	80001964	75542113	slti	x2,x8,1877	  x8:0x856fa1b5  x2=0x00000001
       70955000	      7094	80001968	001292b3	sll	x5,x5,x1	  x5:0x00000000  x1:0x856fa161  x5=0x00000000
       70965000	      7095	8000196c	ff9e8e93	addi	x29,x29,-7	 x29:0x00000006 x29=0xffffffff
       70975000	      7096	80001970	00a00c13	addi	x24,x0,10	  x0:0x00000000 x24=0x0000000a
       70985000	      7097	80001974	00e00893	addi	x17,x0,14	  x0:0x00000000 x17=0x0000000e
       70995000	      7098	80001978	62d56313	ori	x6,x10,1581	 x10:0x00000000  x6=0x0000062d
       71005000	      7099	8000197c	01e927b3	slt	x15,x18,x30	 x18:0x00000001 x30:0xffffffef x15=0x00000000
       71015000	      7100	80001980	03a73193	sltiu	x3,x14,58	 x14:0x856fa1f3  x3=0x00000000
       71025000	      7101	80001984	00ac0c13	addi	x24,x24,10	 x24:0x0000000a x24=0x00000014
       71035000	      7102	80001988	ce068213	addi	x4,x13,-800	 x13:0xffffffec  x4=0xfffffccc
       71045000	      7103	8000198c	ff1c48e3	blt	x24,x17,8000197c	 x24:0x00000014 x17:0x0000000e
       71055000	      7104	80001990	41395693	srai	x13,x18,0x13	 x18:0x00000001 x13=0x00000000
       71065000	      7105	80001994	1aa13413	sltiu	x8,x2,426	  x2:0x00000001  x8=0x00000001
       71075000	      7106	80001998	fd0ed6e3	bge	x29,x16,80001964	 x29:0xffffffff x16:0xffffffff
       71085000	      7107	00000000	00000013	addi	x0,x0,0	  x0:0x00000000
       71095000	      7108	80001960	00000013	addi	x0,x0,0	  x0:0x00000000
       71105000	      7109	80001964	75542113	slti	x2,x8,1877	  x8:0x00000001  x2=0x00000001
       71115000	      7110	80001968	001292b3	sll	x5,x5,x1	  x5:0x00000000  x1:0x856fa161  x5=0x00000000
       71125000	      7111	8000196c	ff9e8e93	addi	x29,x29,-7	 x29:0xffffffff x29=0xfffffff8
       71135000	      7112	80001970	00a00c13	addi	x24,x0,10	  x0:0x00000000 x24=0x0000000a
       71145000	      7113	80001974	00e00893	addi	x17,x0,14	  x0:0x00000000 x17=0x0000000e
       71155000	      7114	80001978	62d56313	ori	x6,x10,1581	 x10:0x00000000  x6=0x0000062d
       71165000	      7115	8000197c	01e927b3	slt	x15,x18,x30	 x18:0x00000001 x30:0xffffffef x15=0x00000000
       71175000	      7116	80001980	03a73193	sltiu	x3,x14,58	 x14:0x856fa1f3  x3=0x00000000
       71185000	      7117	80001984	00ac0c13	addi	x24,x24,10	 x24:0x0000000a x24=0x00000014
       71195000	      7118	80001988	ce068213	addi	x4,x13,-800	 x13:0x00000000  x4=0xfffffce0
       71205000	      7119	8000198c	ff1c48e3	blt	x24,x17,8000197c	 x24:0x00000014 x17:0x0000000e
       71215000	      7120	80001990	41395693	srai	x13,x18,0x13	 x18:0x00000001 x13=0x00000000
       71225000	      7121	80001994	1aa13413	sltiu	x8,x2,426	  x2:0x00000001  x8=0x00000001
       71235000	      7122	80001998	fd0ed6e3	bge	x29,x16,80001964	 x29:0xfffffff8 x16:0xffffffff
       71245000	      7123	8000199c	00338633	add	x12,x7,x3	  x7:0x00000000  x3:0x00000000 x12=0x00000000
       71255000	      7124	800019a0	00000693	addi	x13,x0,0	  x0:0x00000000 x13=0x00000000
       71265000	      7125	800019a4	41e4dd93	srai	x27,x9,0x1e	  x9:0xfffffff1 x27=0xffffffff
       71275000	      7126	800019a8	00d3d3b3	srl	x7,x7,x13	  x7:0x00000000 x13:0x00000000  x7=0x00000000
       71285000	      7127	800019ac	00100c13	addi	x24,x0,1	  x0:0x00000000 x24=0x00000001
       71295000	      7128	800019b0	41f85793	srai	x15,x16,0x1f	 x16:0xffffffff x15=0xffffffff
       71305000	      7129	800019b4	53978313	addi	x6,x15,1337	 x15:0xffffffff  x6=0x00000538
       71315000	      7130	800019b8	00f57ab3	and	x21,x10,x15	 x10:0x00000000 x15:0xffffffff x21=0x00000000
       71325000	      7131	800019bc	00a68693	addi	x13,x13,10	 x13:0x00000000 x13=0x0000000a
       71335000	      7132	800019c0	00200093	addi	x1,x0,2	  x0:0x00000000  x1=0x00000002
       71345000	      7133	800019c4	741ebe93	sltiu	x29,x29,1857	 x29:0xfffffff8 x29=0x00000000
       71355000	      7134	800019c8	ffc00c93	addi	x25,x0,-4	  x0:0x00000000 x25=0xfffffffc
       71365000	      7135	800019cc	3ffb8f37	lui	x30,0x3ffb8	 x30=0x3ffb8000
       71375000	      7136	800019d0	c9612793	slti	x15,x2,-874	  x2:0x00000001 x15=0x00000000
       71385000	      7137	800019d4	ffa08093	addi	x1,x1,-6	  x1:0x00000002  x1=0xfffffffc
       71395000	      7138	800019d8	003f5613	srli	x12,x30,0x3	 x30:0x3ffb8000 x12=0x07ff7000
       71405000	      7139	800019dc	ff9098e3	bne	x1,x25,800019cc	  x1:0xfffffffc x25:0xfffffffc
       71415000	      7140	800019e0	407ed233	sra	x4,x29,x7	 x29:0x00000000  x7:0x00000000  x4=0x00000000
       71425000	      7141	800019e4	76b6af13	slti	x30,x13,1899	 x13:0x0000000a x30=0x00000001
       71435000	      7142	800019e8	fd86e6e3	bltu	x13,x24,800019b4	 x13:0x0000000a x24:0x00000001
       71445000	      7143	800019ec	011b0b33	add	x22,x22,x17	 x22:0x0000000b x17:0x0000000e x22=0x00000019
       71455000	      7144	800019f0	018dc4b3	xor	x9,x27,x24	 x27:0xffffffff x24:0x00000001  x9=0xfffffffe
       71465000	      7145	800019f4	009b7593	andi	x11,x22,9	 x22:0x00000019 x11=0x00000009
       71475000	      7146	800019f8	4b9cc497	auipc	x9,0x4b9cc	  x9=0xcb9cd9f4
       71485000	      7147	800019fc	fe2b1897	auipc	x17,0xfe2b1	 x17=0x7e2b29f8
       71495000	      7148	80001a00	608d2793	slti	x15,x26,1544	 x26:0xffffffff x15=0x00000001
       71505000	      7149	80001a04	7f318117	auipc	x2,0x7f318	  x2=0xff319a00
       71515000	      7150	80001a08	40d1d1b3	sra	x3,x3,x13	  x3:0x00000000 x13:0x0000000a  x3=0x00000000
       71525000	      7151	80001a0c	00a05463	bge	x0,x10,80001a14	  x0:0x00000000 x10:0x00000000
       71535000	      7152	00000000	00000013	addi	x0,x0,0	  x0:0x00000000
       71545000	      7153	80001a10	00000013	addi	x0,x0,0	  x0:0x00000000
       71555000	      7154	80001a14	c8d5b313	sltiu	x6,x11,-883	 x11:0x00000009  x6=0x00000001
       71565000	      7155	80001a18	00000013	addi	x0,x0,0	  x0:0x00000000
       71575000	      7156	80001a1c	05688863	beq	x17,x22,80001a6c	 x17:0x7e2b29f8 x22:0x00000019
       71585000	      7157	80001a20	a461be93	sltiu	x29,x3,-1466	  x3:0x00000000 x29=0x00000001
       71595000	      7158	80001a24	019fe4b3	or	x9,x31,x25	 x31:0x80000000 x25:0xfffffffc  x9=0xfffffffc
       71605000	      7159	80001a28	01f18033	add	x0,x3,x31	  x3:0x00000000 x31:0x80000000
       71615000	      7160	80001a2c	014d5b33	srl	x22,x26,x20	 x26:0xffffffff x20:0x80009fc4 x22=0x0fffffff
       71625000	      7161	80001a30	05d7d863	bge	x15,x29,80001a80	 x15:0x00000001 x29:0x00000001
       71635000	      7162	00000000	00000013	addi	x0,x0,0	  x0:0x00000000
       71645000	      7163	80001a7c	00000013	addi	x0,x0,0	  x0:0x00000000
       71655000	      7164	80001a80	017518b3	sll	x17,x10,x23	 x10:0x00000000 x23:0xffffffef x17=0x00000000
       71665000	      7165	80001a84	42c6e993	ori	x19,x13,1068	 x13:0x0000000a x19=0x0000042e
       71675000	      7166	80001a88	0281fa63	bgeu	x3,x8,80001abc	  x3:0x00000000  x8:0x00000001
       71685000	      7167	80001a8c	007f1793	slli	x15,x30,0x7	 x30:0x00000001 x15=0x00000080
       71695000	      7168	80001a90	01d98c63	beq	x19,x29,80001aa8	 x19:0x0000042e x29:0x00000001
       71705000	      7169	80001a94	41dc88b3	sub	x17,x25,x29	 x25:0xfffffffc x29:0x00000001 x17=0xfffffffb
       71715000	      7170	80001a98	00000013	addi	x0,x0,0	  x0:0x00000000
       71725000	      7171	80001a9c	01cccab3	xor	x21,x25,x28	 x25:0xfffffffc x28:0x80009f40 x21=0x7fff60bc
       71735000	      7172	80001aa0	038e7263	bgeu	x28,x24,80001ac4	 x28:0x80009f40 x24:0x00000001
       71745000	      7173	00000000	00000013	addi	x0,x0,0	  x0:0x00000000
       71755000	      7174	80001ac0	00000013	addi	x0,x0,0	  x0:0x00000000
       71765000	      7175	80001ac4	035c5463	bge	x24,x21,80001aec	 x24:0x00000001 x21:0x7fff60bc
       71775000	      7176	80001ac8	02d87463	bgeu	x16,x13,80001af0	 x16:0xffffffff x13:0x0000000a
       71785000	      7177	00000000	00000013	addi	x0,x0,0	  x0:0x00000000
       71795000	      7178	80001aec	00000013	addi	x0,x0,0	  x0:0x00000000
       71805000	      7179	80001af0	00000013	addi	x0,x0,0	  x0:0x00000000
       71815000	      7180	80001af4	b1873913	sltiu	x18,x14,-1256	 x14:0x856fa1f3 x18=0x00000001
       71825000	      7181	80001af8	0108df33	srl	x30,x17,x16	 x17:0xfffffffb x16:0xffffffff x30=0x00000001
       71835000	      7182	80001afc	e868e737	lui	x14,0xe868e	 x14=0xe868e000
       71845000	      7183	80001b00	40240f33	sub	x30,x8,x2	  x8:0x00000001  x2:0xff319a00 x30=0x00ce6601
       71855000	      7184	80001b04	03896a63	bltu	x18,x24,80001b38	 x18:0x00000001 x24:0x00000001
       71865000	      7185	80001b08	024bd063	bge	x23,x4,80001b28	 x23:0xffffffef  x4:0x00000000
       71875000	      7186	80001b0c	004d7b33	and	x22,x26,x4	 x26:0xffffffff  x4:0x00000000 x22=0x00000000
       71885000	      7187	80001b10	035cd663	bge	x25,x21,80001b3c	 x25:0xfffffffc x21:0x7fff60bc
       71895000	      7188	80001b14	08038463	beq	x7,x0,80001b9c	  x7:0x00000000  x0:0x00000000
       71905000	      7189	00000000	00000013	addi	x0,x0,0	  x0:0x00000000
       71915000	      7190	80001b98	00000013	addi	x0,x0,0	  x0:0x00000000
       71925000	      7191	80001b9c	e48f0293	addi	x5,x30,-440	 x30:0x00ce6601  x5=0x00ce6449
       71935000	      7192	80001ba0	038ecc63	blt	x29,x24,80001bd8	 x29:0x00000001 x24:0x00000001
       71945000	      7193	80001ba4	005e6e63	bltu	x28,x5,80001bc0	 x28:0x80009f40  x5:0x00ce6449
       71955000	      7194	80001ba8	05529263	bne	x5,x21,80001bec	  x5:0x00ce6449 x21:0x7fff60bc
       71965000	      7195	00000000	00000013	addi	x0,x0,0	  x0:0x00000000
       71975000	      7196	80001be8	00000013	addi	x0,x0,0	  x0:0x00000000
       71985000	      7197	80001bec	0041dc63	bge	x3,x4,80001c04	  x3:0x00000000  x4:0x00000000
       71995000	      7198	00000000	00000013	addi	x0,x0,0	  x0:0x00000000
       72005000	      7199	80001c00	00000013	addi	x0,x0,0	  x0:0x00000000
       72015000	      7200	80001c04	01c7a8b3	slt	x17,x15,x28	 x15:0x00000080 x28:0x80009f40 x17=0x00000000
       72025000	      7201	80001c08	16ff4613	xori	x12,x30,367	 x30:0x00ce6601 x12=0x00ce676e
       72035000	      7202	80001c0c	7efd0d13	addi	x26,x26,2031	 x26:0xffffffff x26=0x000007ee
       72045000	      7203	80001c10	039b9c63	bne	x23,x25,80001c48	 x23:0xffffffef x25:0xfffffffc
       72055000	      7204	00000000	00000013	addi	x0,x0,0	  x0:0x00000000
       72065000	      7205	80001c44	00000013	addi	x0,x0,0	  x0:0x00000000
       72075000	      7206	80001c48	41b38ab3	sub	x21,x7,x27	  x7:0x00000000 x27:0xffffffff x21=0x00000001
       72085000	      7207	80001c4c	01417463	bgeu	x2,x20,80001c54	  x2:0xff319a00 x20:0x80009fc4
       72095000	      7208	00000000	00000013	addi	x0,x0,0	  x0:0x00000000
       72105000	      7209	80001c50	00000013	addi	x0,x0,0	  x0:0x00000000
       72115000	      7210	80001c54	0249da63	bge	x19,x4,80001c88	 x19:0x0000042e  x4:0x00000000
       72125000	      7211	00000000	00000013	addi	x0,x0,0	  x0:0x00000000
       72135000	      7212	80001c84	00000013	addi	x0,x0,0	  x0:0x00000000
       72145000	      7213	80001c88	46e4cd97	auipc	x27,0x46e4c	 x27=0xc6e4dc84
       72155000	      7214	80001c8c	05ded863	bge	x29,x29,80001cdc	 x29:0x00000001 x29:0x00000001
       72165000	      7215	00000000	00000013	addi	x0,x0,0	  x0:0x00000000
       72175000	      7216	80001cd8	00000013	addi	x0,x0,0	  x0:0x00000000
       72185000	      7217	80001cdc	f497c413	xori	x8,x15,-183	 x15:0x00000080  x8=0xffffffc9
       72195000	      7218	80001ce0	67a96bb7	lui	x23,0x67a96	 x23=0x67a96000
       72205000	      7219	80001ce4	924fa293	slti	x5,x31,-1756	 x31:0x80000000  x5=0x00000001
       72215000	      7220	80001ce8	01f20c33	add	x24,x4,x31	  x4:0x00000000 x31:0x80000000 x24=0x80000000
       72225000	      7221	80001cec	0074b433	sltu	x8,x9,x7	  x9:0xfffffffc  x7:0x00000000  x8=0x00000000
       72235000	      7222	80001cf0	01abecb3	or	x25,x23,x26	 x23:0x67a96000 x26:0x000007ee x25=0x67a967ee
       72245000	      7223	80001cf4	0015ac33	slt	x24,x11,x1	 x11:0x00000009  x1:0xfffffffc x24=0x00000000
       72255000	      7224	80001cf8	00d4d813	srli	x16,x9,0xd	  x9:0xfffffffc x16=0x0007ffff
       72265000	      7225	80001cfc	004270b3	and	x1,x4,x4	  x4:0x00000000  x4:0x00000000  x1=0x00000000
       72275000	      7226	80001d00	00f95ab3	srl	x21,x18,x15	 x18:0x00000001 x15:0x00000080 x21=0x00000001
       72285000	      7227	80001d04	bc630813	addi	x16,x6,-1082	  x6:0x00000001 x16=0xfffffbc7
       72295000	      7228	80001d08	a56c6e93	ori	x29,x24,-1450	 x24:0x00000000 x29=0xfffffa56
       72305000	      7229	80001d0c	00000013	addi	x0,x0,0	  x0:0x00000000
       72315000	      7230	80001d10	b37a9bb7	lui	x23,0xb37a9	 x23=0xb37a9000
       72325000	      7231	80001d14	01f3ab33	slt	x22,x7,x31	  x7:0x00000000 x31:0x80000000 x22=0x00000000
       72335000	      7232	80001d18	005d1333	sll	x6,x26,x5	 x26:0x000007ee  x5:0x00000001  x6=0x00000fdc
       72345000	      7233	80001d1c	01f45f13	srli	x30,x8,0x1f	  x8:0x00000000 x30=0x00000000
       72355000	      7234	80001d20	b1de0c13	addi	x24,x28,-1251	 x28:0x80009f40 x24=0x80009a5d
       72365000	      7235	80001d24	03aa8063	beq	x21,x26,80001d44	 x21:0x00000001 x26:0x000007ee
       72375000	      7236	80001d28	5362ff13	andi	x30,x5,1334	  x5:0x00000001 x30=0x00000000
       72385000	      7237	80001d2c	00000013	addi	x0,x0,0	  x0:0x00000000
       72395000	      7238	80001d30	9e178393	addi	x7,x15,-1567	 x15:0x00000080  x7=0xfffffa61
       72405000	      7239	80001d34	014cf833	and	x16,x25,x20	 x25:0x67a967ee x20:0x80009fc4 x16=0x000007c4
       72415000	      7240	80001d38	41dfd013	srai	x0,x31,0x1d	 x31:0x80000000
       72425000	      7241	80001d3c	01079313	slli	x6,x15,0x10	 x15:0x00000080  x6=0x00800000
       72435000	      7242	80001d40	4005d3b3	sra	x7,x11,x0	 x11:0x00000009  x0:0x00000000  x7=0x00000009
       72445000	      7243	80001d44	1aba4813	xori	x16,x20,427	 x20:0x80009fc4 x16=0x80009e6f
       72455000	      7244	80001d48	c292ad93	slti	x27,x5,-983	  x5:0x00000001 x27=0x00000000
       72465000	      7245	80001d4c	00000013	addi	x0,x0,0	  x0:0x00000000
       72475000	      7246	80001d50	dacd1697	auipc	x13,0xdacd1	 x13=0x5acd2d4c
       72485000	      7247	80001d54	41988c33	sub	x24,x17,x25	 x17:0x00000000 x25:0x67a967ee x24=0x98569812
       72495000	      7248	80001d58	01331c63	bne	x6,x19,80001d70	  x6:0x00800000 x19:0x0000042e
       72505000	      7249	00000000	00000013	addi	x0,x0,0	  x0:0x00000000
       72515000	      7250	80001d6c	00000013	addi	x0,x0,0	  x0:0x00000000
       72525000	      7251	80001d70	00000013	addi	x0,x0,0	  x0:0x00000000
       72535000	      7252	80001d74	d90fe913	ori	x18,x31,-624	 x31:0x80000000 x18=0xfffffd90
       72545000	      7253	80001d78	0190a8b3	slt	x17,x1,x25	  x1:0x00000000 x25:0x67a967ee x17=0x00000001
       72555000	      7254	80001d7c	098eb313	sltiu	x6,x29,152	 x29:0xfffffa56  x6=0x00000000
       72565000	      7255	80001d80	28300d13	addi	x26,x0,643	  x0:0x00000000 x26=0x00000283
       72575000	      7256	80001d84	00368133	add	x2,x13,x3	 x13:0x5acd2d4c  x3:0x00000000  x2=0x5acd2d4c
       72585000	      7257	80001d88	410c84b3	sub	x9,x25,x16	 x25:0x67a967ee x16:0x80009e6f  x9=0xe7a8c97f
       72595000	      7258	80001d8c	f1308293	addi	x5,x1,-237	  x1:0x00000000  x5=0xffffff13
       72605000	      7259	80001d90	003d8933	add	x18,x27,x3	 x27:0x00000000  x3:0x00000000 x18=0x00000000
       72615000	      7260	80001d94	40048d33	sub	x26,x9,x0	  x9:0xe7a8c97f  x0:0x00000000 x26=0xe7a8c97f
       72625000	      7261	80001d98	00e783b3	add	x7,x15,x14	 x15:0x00000080 x14:0xe868e000  x7=0xe868e080
       72635000	      7262	80001d9c	01acccb3	xor	x25,x25,x26	 x25:0x67a967ee x26:0xe7a8c97f x25=0x8001ae91
       72645000	      7263	80001da0	013e11b3	sll	x3,x28,x19	 x28:0x80009f40 x19:0x0000042e  x3=0x27d00000
       72655000	      7264	80001da4	00f74c63	blt	x14,x15,80001dbc	 x14:0xe868e000 x15:0x00000080
       72665000	      7265	00000000	00000013	addi	x0,x0,0	  x0:0x00000000
       72675000	      7266	80001db8	00000013	addi	x0,x0,0	  x0:0x00000000
       72685000	      7267	80001dbc	02b40863	beq	x8,x11,80001dec	  x8:0x00000000 x11:0x00000009
       72695000	      7268	80001dc0	9d75b413	sltiu	x8,x11,-1577	 x11:0x00000009  x8=0x00000001
       72705000	      7269	80001dc4	01d4f5b3	and	x11,x9,x29	  x9:0xe7a8c97f x29:0xfffffa56 x11=0xe7a8c856
       72715000	      7270	80001dc8	69388513	addi	x10,x17,1683	 x17:0x00000001 x10=0x00000694
       72725000	      7271	80001dcc	00bc8c63	beq	x25,x11,80001de4	 x25:0x8001ae91 x11:0xe7a8c856
       72735000	      7272	80001dd0	afef0213	addi	x4,x30,-1282	 x30:0x00000000  x4=0xfffffafe
       72745000	      7273	80001dd4	01074663	blt	x14,x16,80001de0	 x14:0xe868e000 x16:0x80009e6f
       72755000	      7274	80001dd8	40958933	sub	x18,x11,x9	 x11:0xe7a8c856  x9:0xe7a8c97f x18=0xfffffed7
       72765000	      7275	80001ddc	419adb93	srai	x23,x21,0x19	 x21:0x00000001 x23=0x00000000
       72775000	      7276	80001de0	90352093	slti	x1,x10,-1789	 x10:0x00000694  x1=0x00000000
       72785000	      7277	80001de4	04fb6263	bltu	x22,x15,80001e28	 x22:0x00000000 x15:0x00000080
       72795000	      7278	00000000	00000013	addi	x0,x0,0	  x0:0x00000000
       72805000	      7279	80001e24	00000013	addi	x0,x0,0	  x0:0x00000000
       72815000	      7280	80001e28	f0cbeb13	ori	x22,x23,-244	 x23:0x00000000 x22=0xffffff0c
       72825000	      7281	80001e2c	0239cc63	blt	x19,x3,80001e64	 x19:0x0000042e  x3:0x27d00000
       72835000	      7282	00000000	00000013	addi	x0,x0,0	  x0:0x00000000
       72845000	      7283	80001e60	00000013	addi	x0,x0,0	  x0:0x00000000
       72855000	      7284	80001e64	04888863	beq	x17,x8,80001eb4	 x17:0x00000001  x8:0x00000001
       72865000	      7285	00000000	00000013	addi	x0,x0,0	  x0:0x00000000
       72875000	      7286	80001eb0	00000013	addi	x0,x0,0	  x0:0x00000000
       72885000	      7287	80001eb4	00721eb3	sll	x29,x4,x7	  x4:0xfffffafe  x7:0xe868e080 x29=0xfffffafe
       72895000	      7288	80001eb8	00fd72b3	and	x5,x26,x15	 x26:0xe7a8c97f x15:0x00000080  x5=0x00000000
       72905000	      7289	80001ebc	10cbf537	lui	x10,0x10cbf	 x10=0x10cbf000
       72915000	      7290	80001ec0	4160d313	srai	x6,x1,0x16	  x1:0x00000000  x6=0x00000000
       72925000	      7291	80001ec4	40848433	sub	x8,x9,x8	  x9:0xe7a8c97f  x8:0x00000001  x8=0xe7a8c97e
       72935000	      7292	80001ec8	011686b3	add	x13,x13,x17	 x13:0x5acd2d4c x17:0x00000001 x13=0x5acd2d4d
       72945000	      7293	80001ecc	4b6c0213	addi	x4,x24,1206	 x24:0x98569812  x4=0x98569cc8
       72955000	      7294	80001ed0	03c0f863	bgeu	x1,x28,80001f00	  x1:0x00000000 x28:0x80009f40
       72965000	      7295	80001ed4	05d40263	beq	x8,x29,80001f18	  x8:0xe7a8c97e x29:0xfffffafe
       72975000	      7296	80001ed8	a5ee7737	lui	x14,0xa5ee7	 x14=0xa5ee7000
       72985000	      7297	80001edc	01ba0833	add	x16,x20,x27	 x20:0x80009fc4 x27:0x00000000 x16=0x80009fc4
       72995000	      7298	80001ee0	bc1e6813	ori	x16,x28,-1087	 x28:0x80009f40 x16=0xffffffc1
       73005000	      7299	80001ee4	41ff8833	sub	x16,x31,x31	 x31:0x80000000 x31:0x80000000 x16=0x00000000
       73015000	      7300	80001ee8	009978b3	and	x17,x18,x9	 x18:0xfffffed7  x9:0xe7a8c97f x17=0xe7a8c857
       73025000	      7301	80001eec	019a8833	add	x16,x21,x25	 x21:0x00000001 x25:0x8001ae91 x16=0x8001ae92
       73035000	      7302	80001ef0	0538d263	bge	x17,x19,80001f34	 x17:0xe7a8c857 x19:0x0000042e
       73045000	      7303	80001ef4	1372ec17	auipc	x24,0x1372e	 x24=0x9372fef0
       73055000	      7304	80001ef8	41128233	sub	x4,x5,x17	  x5:0x00000000 x17:0xe7a8c857  x4=0x185737a9
       73065000	      7305	80001efc	02f9e863	bltu	x19,x15,80001f2c	 x19:0x0000042e x15:0x00000080
       73075000	      7306	80001f00	5ca57437	lui	x8,0x5ca57	  x8=0x5ca57000
       73085000	      7307	80001f04	a1790c13	addi	x24,x18,-1513	 x18:0xfffffed7 x24=0xfffff8ee
       73095000	      7308	80001f08	41d7de93	srai	x29,x15,0x1d	 x15:0x00000080 x29=0x00000000
       73105000	      7309	80001f0c	02bb4663	blt	x22,x11,80001f38	 x22:0xffffff0c x11:0xe7a8c856
       73115000	      7310	80001f10	00421813	slli	x16,x4,0x4	  x4:0x185737a9 x16=0x85737a90
       73125000	      7311	80001f14	40ef5d93	srai	x27,x30,0xe	 x30:0x00000000 x27=0x00000000
       73135000	      7312	80001f18	e3c7cd93	xori	x27,x15,-452	 x15:0x00000080 x27=0xfffffebc
       73145000	      7313	80001f1c	00e3d793	srli	x15,x7,0xe	  x7:0xe868e080 x15=0x0003a1a3
       73155000	      7314	80001f20	b8747213	andi	x4,x8,-1145	  x8:0x5ca57000  x4=0x5ca57000
       73165000	      7315	80001f24	01a3d413	srli	x8,x7,0x1a	  x7:0xe868e080  x8=0x0000003a
       73175000	      7316	80001f28	01712833	slt	x16,x2,x23	  x2:0x5acd2d4c x23:0x00000000 x16=0x00000000
       73185000	      7317	80001f2c	016fc333	xor	x6,x31,x22	 x31:0x80000000 x22:0xffffff0c  x6=0x7fffff0c
       73195000	      7318	80001f30	02400463	beq	x0,x4,80001f58	  x0:0x00000000  x4:0x5ca57000
       73205000	      7319	80001f34	01629393	slli	x7,x5,0x16	  x5:0x00000000  x7=0x00000000
       73215000	      7320	80001f38	00012b33	slt	x22,x2,x0	  x2:0x5acd2d4c  x0:0x00000000 x22=0x00000000
       73225000	      7321	80001f3c	00c314b3	sll	x9,x6,x12	  x6:0x7fffff0c x12:0x00ce676e  x9=0xffc30000
       73235000	      7322	80001f40	00000013	addi	x0,x0,0	  x0:0x00000000
       73245000	      7323	80001f44	022ffc63	bgeu	x31,x2,80001f7c	 x31:0x80000000  x2:0x5acd2d4c
       73255000	      7324	00000000	00000013	addi	x0,x0,0	  x0:0x00000000
       73265000	      7325	80001f78	00000013	addi	x0,x0,0	  x0:0x00000000
       73275000	      7326	80001f7c	0ed7a0b7	lui	x1,0xed7a	  x1=0x0ed7a000
       73285000	      7327	80001f80	8c4bc893	xori	x17,x23,-1852	 x23:0x00000000 x17=0xfffff8c4
       73295000	      7328	80001f84	01c35293	srli	x5,x6,0x1c	  x6:0x7fffff0c  x5=0x00000007
       73305000	      7329	80001f88	5442f613	andi	x12,x5,1348	  x5:0x00000007 x12=0x00000004
       73315000	      7330	80001f8c	00c1a7b3	slt	x15,x3,x12	  x3:0x27d00000 x12:0x00000004 x15=0x00000000
       73325000	      7331	80001f90	0157dbb3	srl	x23,x15,x21	 x15:0x00000000 x21:0x00000001 x23=0x00000000
       73335000	      7332	80001f94	01bc1d13	slli	x26,x24,0x1b	 x24:0xfffff8ee x26=0x70000000
       73345000	      7333	80001f98	008f1e93	slli	x29,x30,0x8	 x30:0x00000000 x29=0x00000000
       73355000	      7334	80001f9c	048cc863	blt	x25,x8,80001fec	 x25:0x8001ae91  x8:0x0000003a
       73365000	      7335	00000000	00000013	addi	x0,x0,0	  x0:0x00000000
       73375000	      7336	80001fe8	00000013	addi	x0,x0,0	  x0:0x00000000
       73385000	      7337	80001fec	16b8fd93	andi	x27,x17,363	 x17:0xfffff8c4 x27=0x00000040
       73395000	      7338	80001ff0	40c40233	sub	x4,x8,x12	  x8:0x0000003a x12:0x00000004  x4=0x00000036
       73405000	      7339	80001ff4	7c22cd93	xori	x27,x5,1986	  x5:0x00000007 x27=0x000007c5
       73415000	      7340	80001ff8	0076ec63	bltu	x13,x7,80002010	 x13:0x5acd2d4d  x7:0x00000000
       73425000	      7341	80001ffc	600a8593	addi	x11,x21,1536	 x21:0x00000001 x11=0x00000601
       73435000	      7342	80002000	01140f33	add	x30,x8,x17	  x8:0x0000003a x17:0xfffff8c4 x30=0xfffff8fe
       73445000	      7343	80002004	00000013	addi	x0,x0,0	  x0:0x00000000
       73455000	      7344	80002008	951b7e93	andi	x29,x22,-1711	 x22:0x00000000 x29=0x00000000
       73465000	      7345	8000200c	00000013	addi	x0,x0,0	  x0:0x00000000
       73475000	      7346	80002010	0017ec63	bltu	x15,x1,80002028	 x15:0x00000000  x1:0x0ed7a000
       73485000	      7347	00000000	00000013	addi	x0,x0,0	  x0:0x00000000
       73495000	      7348	80002024	00000013	addi	x0,x0,0	  x0:0x00000000
       73505000	      7349	80002028	eda80293	addi	x5,x16,-294	 x16:0x00000000  x5=0xfffffeda
       73515000	      7350	8000202c	40b507b3	sub	x15,x10,x11	 x10:0x10cbf000 x11:0x00000601 x15=0x10cbe9ff
       73525000	      7351	80002030	02d10063	beq	x2,x13,80002050	  x2:0x5acd2d4c x13:0x5acd2d4d
       73535000	      7352	80002034	00539513	slli	x10,x7,0x5	  x7:0x00000000 x10=0x00000000
       73545000	      7353	80002038	05500863	beq	x0,x21,80002088	  x0:0x00000000 x21:0x00000001
       73555000	      7354	8000203c	00940cb3	add	x25,x8,x9	  x8:0x0000003a  x9:0xffc30000 x25=0xffc3003a
       73565000	      7355	80002040	0083f4b3	and	x9,x7,x8	  x7:0x00000000  x8:0x0000003a  x9=0x00000000
       73575000	      7356	80002044	92c17913	andi	x18,x2,-1748	  x2:0x5acd2d4c x18=0x5acd290c
       73585000	      7357	80002048	2ae68213	addi	x4,x13,686	 x13:0x5acd2d4d  x4=0x5acd2ffb
       73595000	      7358	8000204c	010cf5b3	and	x11,x25,x16	 x25:0xffc3003a x16:0x00000000 x11=0x00000000
       73605000	      7359	80002050	01af13b3	sll	x7,x30,x26	 x30:0xfffff8fe x26:0x70000000  x7=0xfffff8fe
       73615000	      7360	80002054	00d7c933	xor	x18,x15,x13	 x15:0x10cbe9ff x13:0x5acd2d4d x18=0x4a06c4b2
       73625000	      7361	80002058	e81bbc13	sltiu	x24,x23,-383	 x23:0x00000000 x24=0x00000001
       73635000	      7362	8000205c	0035db93	srli	x23,x11,0x3	 x11:0x00000000 x23=0x00000000
       73645000	      7363	80002060	006ecc63	blt	x29,x6,80002078	 x29:0x00000000  x6:0x7fffff0c
       73655000	      7364	00000000	00000013	addi	x0,x0,0	  x0:0x00000000
       73665000	      7365	80002074	00000013	addi	x0,x0,0	  x0:0x00000000
       73675000	      7366	80002078	41d9d513	srai	x10,x19,0x1d	 x19:0x0000042e x10=0x00000000
       73685000	      7367	8000207c	405bd1b3	sra	x3,x23,x5	 x23:0x00000000  x5:0xfffffeda  x3=0x00000000
       73695000	      7368	80002080	017f6d33	or	x26,x30,x23	 x30:0xfffff8fe x23:0x00000000 x26=0xfffff8fe
       73705000	      7369	80002084	413dddb3	sra	x27,x27,x19	 x27:0x000007c5 x19:0x0000042e x27=0x00000000
       73715000	      7370	80002088	00000013	addi	x0,x0,0	  x0:0x00000000
       73725000	      7371	8000208c	00285213	srli	x4,x16,0x2	 x16:0x00000000  x4=0x00000000
       73735000	      7372	80002090	033d1a63	bne	x26,x19,800020c4	 x26:0xfffff8fe x19:0x0000042e
       73745000	      7373	00000000	00000013	addi	x0,x0,0	  x0:0x00000000
       73755000	      7374	800020c0	00000013	addi	x0,x0,0	  x0:0x00000000
       73765000	      7375	800020c4	49361237	lui	x4,0x49361	  x4=0x49361000
       73775000	      7376	800020c8	2fe6b513	sltiu	x10,x13,766	 x13:0x5acd2d4d x10=0x00000000
       73785000	      7377	800020cc	01b5fd33	and	x26,x11,x27	 x11:0x00000000 x27:0x00000000 x26=0x00000000
       73795000	      7378	800020d0	00f567b3	or	x15,x10,x15	 x10:0x00000000 x15:0x10cbe9ff x15=0x10cbe9ff
       73805000	      7379	800020d4	4051d033	sra	x0,x3,x5	  x3:0x00000000  x5:0xfffffeda
       73815000	      7380	800020d8	044d7c63	bgeu	x26,x4,80002130	 x26:0x00000000  x4:0x49361000
       73825000	      7381	800020dc	018c5d33	srl	x26,x24,x24	 x24:0x00000001 x24:0x00000001 x26=0x00000000
       73835000	      7382	800020e0	412b6397	auipc	x7,0x412b6	  x7=0xc12b80dc
       73845000	      7383	800020e4	8af45017	auipc	x0,0x8af45	
       73855000	      7384	800020e8	41918633	sub	x12,x3,x25	  x3:0x00000000 x25:0xffc3003a x12=0x003cffc6
       73865000	      7385	800020ec	009b0663	beq	x22,x9,800020f8	 x22:0x00000000  x9:0x00000000
       73875000	      7386	00000000	00000013	addi	x0,x0,0	  x0:0x00000000
       73885000	      7387	800020f4	00000013	addi	x0,x0,0	  x0:0x00000000
       73895000	      7388	800020f8	41c40bb3	sub	x23,x8,x28	  x8:0x0000003a x28:0x80009f40 x23=0x7fff60fa
       73905000	      7389	800020fc	4771e593	ori	x11,x3,1143	  x3:0x00000000 x11=0x00000477
       73915000	      7390	80002100	00f25cb3	srl	x25,x4,x15	  x4:0x49361000 x15:0x10cbe9ff x25=0x00000000
       73925000	      7391	80002104	00000013	addi	x0,x0,0	  x0:0x00000000
       73935000	      7392	80002108	410f8ab3	sub	x21,x31,x16	 x31:0x80000000 x16:0x00000000 x21=0x80000000
       73945000	      7393	8000210c	927b0013	addi	x0,x22,-1753	 x22:0x00000000
       73955000	      7394	80002110	fdc8a113	slti	x2,x17,-36	 x17:0xfffff8c4  x2=0x00000001
       73965000	      7395	80002114	001a33b3	sltu	x7,x20,x1	 x20:0x80009fc4  x1:0x0ed7a000  x7=0x00000000
       73975000	      7396	80002118	1eb1a013	slti	x0,x3,491	  x3:0x00000000
       73985000	      7397	8000211c	00b72433	slt	x8,x14,x11	 x14:0xa5ee7000 x11:0x00000477  x8=0x00000001
       73995000	      7398	80002120	01f32033	slt	x0,x6,x31	  x6:0x7fffff0c x31:0x80000000
       74005000	      7399	80002124	cbaaca93	xori	x21,x21,-838	 x21:0x80000000 x21=0x7ffffcba
       74015000	      7400	80002128	006602b3	add	x5,x12,x6	 x12:0x003cffc6  x6:0x7fffff0c  x5=0x803cfed2
       74025000	      7401	8000212c	8b8fed6f	jal	x26,8000212c	 x26=0x8000212c
       74035000	      7402	00000000	00000013	addi	x0,x0,0	  x0:0x00000000
       74045000	      7403	800001e0	00000013	addi	x0,x0,0	  x0:0x00000000
       74055000	      7404	800001e4	00c1d493	srli	x9,x3,0xc	  x3:0x00000000  x9=0x00000000
       74065000	      7405	800001e8	ff4e0e13	addi	x28,x28,-12	 x28:0x80009f40 x28=0x80009f34
       74075000	      7406	800001ec	01527333	and	x6,x4,x21	  x4:0x49361000 x21:0x7ffffcba  x6=0x49361000
       74085000	      7407	800001f0	01ae2223	sw	x26,4(x28)	 x28:0x80009f34 x26:0x8000212c PA:0x80009f38
       74095000	      7408	800001f4	00cb78b3	and	x17,x22,x12	 x22:0x00000000 x12:0x003cffc6 x17=0x00000000
       74105000	      7409	800001f8	001db633	sltu	x12,x27,x1	 x27:0x00000000  x1:0x0ed7a000 x12=0x00000001
       74115000	      7410	800001fc	0047d833	srl	x16,x15,x4	 x15:0x10cbe9ff  x4:0x49361000 x16=0x10cbe9ff
       74125000	      7411	80000200	000d4f33	xor	x30,x26,x0	 x26:0x8000212c  x0:0x00000000 x30=0x8000212c
       74135000	      7412	80000204	195a1c37	lui	x24,0x195a1	 x24=0x195a1000
       74145000	      7413	80000208	00cadc63	bge	x21,x12,80000220	 x21:0x7ffffcba x12:0x00000001
       74155000	      7414	00000000	00000013	addi	x0,x0,0	  x0:0x00000000
       74165000	      7415	8000021c	00000013	addi	x0,x0,0	  x0:0x00000000
       74175000	      7416	80000220	46000d6f	jal	x26,80000220	 x26=0x80000220
       74185000	      7417	00000000	00000013	addi	x0,x0,0	  x0:0x00000000
       74195000	      7418	8000067c	00000013	addi	x0,x0,0	  x0:0x00000000
       74205000	      7419	80000680	010d4ab3	xor	x21,x26,x16	 x26:0x80000220 x16:0x10cbe9ff x21=0x90cbebdf
       74215000	      7420	80000684	011c1bb3	sll	x23,x24,x17	 x24:0x195a1000 x17:0x00000000 x23=0x195a1000
       74225000	      7421	80000688	01ed4463	blt	x26,x30,80000690	 x26:0x80000220 x30:0x8000212c
       74235000	      7422	00000000	00000013	addi	x0,x0,0	  x0:0x00000000
       74245000	      7423	8000068c	00000013	addi	x0,x0,0	  x0:0x00000000
       74255000	      7424	80000690	fdce0e13	addi	x28,x28,-36	 x28:0x80009f34 x28=0x80009f10
       74265000	      7425	80000694	01ae2223	sw	x26,4(x28)	 x28:0x80009f10 x26:0x80000220 PA:0x80009f14
       74275000	      7426	80000698	00f63833	sltu	x16,x12,x15	 x12:0x00000001 x15:0x10cbe9ff x16=0x00000001
       74285000	      7427	8000069c	00200613	addi	x12,x0,2	  x0:0x00000000 x12=0x00000002
       74295000	      7428	800006a0	63224397	auipc	x7,0x63224	  x7=0xe322469c
       74305000	      7429	800006a4	c6c94a93	xori	x21,x18,-916	 x18:0x4a06c4b2 x21=0xb5f938de
       74315000	      7430	800006a8	ff000b13	addi	x22,x0,-16	  x0:0x00000000 x22=0xfffffff0
       74325000	      7431	800006ac	49525ab7	lui	x21,0x49525	 x21=0x49525000
       74335000	      7432	800006b0	404b8833	sub	x16,x23,x4	 x23:0x195a1000  x4:0x49361000 x16=0xd0240000
       74345000	      7433	800006b4	419e89b3	sub	x19,x29,x25	 x29:0x00000000 x25:0x00000000 x19=0x00000000
       74355000	      7434	800006b8	a75eb537	lui	x10,0xa75eb	 x10=0xa75eb000
       74365000	      7435	800006bc	f870cd13	xori	x26,x1,-121	  x1:0x0ed7a000 x26=0xf1285f87
       74375000	      7436	800006c0	00be66b3	or	x13,x28,x11	 x28:0x80009f10 x11:0x00000477 x13=0x80009f77
       74385000	      7437	800006c4	0171cd33	xor	x26,x3,x23	  x3:0x00000000 x23:0x195a1000 x26=0x195a1000
       74395000	      7438	800006c8	c2fbf2b7	lui	x5,0xc2fbf	  x5=0xc2fbf000
       74405000	      7439	800006cc	3ba60193	addi	x3,x12,954	 x12:0x00000002  x3=0x000003bc
       74415000	      7440	800006d0	01832533	slt	x10,x6,x24	  x6:0x49361000 x24:0x195a1000 x10=0x00000000
       74425000	      7441	800006d4	0170deb3	srl	x29,x1,x23	  x1:0x0ed7a000 x23:0x195a1000 x29=0x0ed7a000
       74435000	      7442	800006d8	7715e313	ori	x6,x11,1905	 x11:0x00000477  x6=0x00000777
       74445000	      7443	800006dc	ff760613	addi	x12,x12,-9	 x12:0x00000002 x12=0xfffffff9
       74455000	      7444	800006e0	4fbf3893	sltiu	x17,x30,1275	 x30:0x8000212c x17=0x00000000
       74465000	      7445	800006e4	ad140193	addi	x3,x8,-1327	  x8:0x00000001  x3=0xfffffad2
       74475000	      7446	800006e8	01e2af33	slt	x30,x5,x30	  x5:0xc2fbf000 x30:0x8000212c x30=0x00000000
       74485000	      7447	800006ec	0569ec93	ori	x25,x19,86	 x19:0x00000000 x25=0x00000056
       74495000	      7448	800006f0	000b9e93	slli	x29,x23,0x0	 x23:0x195a1000 x29=0x195a1000
       74505000	      7449	800006f4	2a836013	ori	x0,x6,680	  x6:0x00000777
       74515000	      7450	800006f8	017e9a93	slli	x21,x29,0x17	 x29:0x195a1000 x21=0x00000000
       74525000	      7451	800006fc	01794bb3	xor	x23,x18,x23	 x18:0x4a06c4b2 x23:0x195a1000 x23=0x535cd4b2
       74535000	      7452	80000700	406f5513	srai	x10,x30,0x6	 x30:0x00000000 x10=0x00000000
       74545000	      7453	80000704	0182e4b3	or	x9,x5,x24	  x5:0xc2fbf000 x24:0x195a1000  x9=0xdbfbf000
       74555000	      7454	80000708	fb6618e3	bne	x12,x22,800006b8	 x12:0xfffffff9 x22:0xfffffff0
       74565000	      7455	00000000	00000013	addi	x0,x0,0	  x0:0x00000000
       74575000	      7456	800006b4	00000013	addi	x0,x0,0	  x0:0x00000000
       74585000	      7457	800006b8	a75eb537	lui	x10,0xa75eb	 x10=0xa75eb000
       74595000	      7458	800006bc	f870cd13	xori	x26,x1,-121	  x1:0x0ed7a000 x26=0xf1285f87
       74605000	      7459	800006c0	00be66b3	or	x13,x28,x11	 x28:0x80009f10 x11:0x00000477 x13=0x80009f77
       74615000	      7460	800006c4	0171cd33	xor	x26,x3,x23	  x3:0xfffffad2 x23:0x535cd4b2 x26=0xaca32e60
       74625000	      7461	800006c8	c2fbf2b7	lui	x5,0xc2fbf	  x5=0xc2fbf000
       74635000	      7462	800006cc	3ba60193	addi	x3,x12,954	 x12:0xfffffff9  x3=0x000003b3
       74645000	      7463	800006d0	01832533	slt	x10,x6,x24	  x6:0x00000777 x24:0x195a1000 x10=0x00000001
       74655000	      7464	800006d4	0170deb3	srl	x29,x1,x23	  x1:0x0ed7a000 x23:0x535cd4b2 x29=0x000003b5
       74665000	      7465	800006d8	7715e313	ori	x6,x11,1905	 x11:0x00000477  x6=0x00000777
       74675000	      7466	800006dc	ff760613	addi	x12,x12,-9	 x12:0xfffffff9 x12=0xfffffff0
       74685000	      7467	800006e0	4fbf3893	sltiu	x17,x30,1275	 x30:0x00000000 x17=0x00000001
       74695000	      7468	800006e4	ad140193	addi	x3,x8,-1327	  x8:0x00000001  x3=0xfffffad2
       74705000	      7469	800006e8	01e2af33	slt	x30,x5,x30	  x5:0xc2fbf000 x30:0x00000000 x30=0x00000001
       74715000	      7470	800006ec	0569ec93	ori	x25,x19,86	 x19:0x00000000 x25=0x00000056
       74725000	      7471	800006f0	000b9e93	slli	x29,x23,0x0	 x23:0x535cd4b2 x29=0x535cd4b2
       74735000	      7472	800006f4	2a836013	ori	x0,x6,680	  x6:0x00000777
       74745000	      7473	800006f8	017e9a93	slli	x21,x29,0x17	 x29:0x535cd4b2 x21=0x59000000
       74755000	      7474	800006fc	01794bb3	xor	x23,x18,x23	 x18:0x4a06c4b2 x23:0x535cd4b2 x23=0x195a1000
       74765000	      7475	80000700	406f5513	srai	x10,x30,0x6	 x30:0x00000001 x10=0x00000000
       74775000	      7476	80000704	0182e4b3	or	x9,x5,x24	  x5:0xc2fbf000 x24:0x195a1000  x9=0xdbfbf000
       74785000	      7477	80000708	fb6618e3	bne	x12,x22,800006b8	 x12:0xfffffff0 x22:0xfffffff0
       74795000	      7478	8000070c	016fe733	or	x14,x31,x22	 x31:0x80000000 x22:0xfffffff0 x14=0xfffffff0
       74805000	      7479	80000710	00800d13	addi	x26,x0,8	  x0:0x00000000 x26=0x00000008
       74815000	      7480	80000714	0f28c693	xori	x13,x17,242	 x17:0x00000001 x13=0x000000f3
       74825000	      7481	80000718	a62064b7	lui	x9,0xa6206	  x9=0xa6206000
       74835000	      7482	8000071c	01faaf33	slt	x30,x21,x31	 x21:0x59000000 x31:0x80000000 x30=0x00000000
       74845000	      7483	80000720	00a15b13	srli	x22,x2,0xa	  x2:0x00000001 x22=0x00000000
       74855000	      7484	80000724	00000013	addi	x0,x0,0	  x0:0x00000000
       74865000	      7485	80000728	0478af13	slti	x30,x17,71	 x17:0x00000001 x30=0x00000001
       74875000	      7486	8000072c	00df30b3	sltu	x1,x30,x13	 x30:0x00000001 x13:0x000000f3  x1=0x00000001
       74885000	      7487	80000730	ff400593	addi	x11,x0,-12	  x0:0x00000000 x11=0xfffffff4
       74895000	      7488	80000734	01b6d8b3	srl	x17,x13,x27	 x13:0x000000f3 x27:0x00000000 x17=0x000000f3
       74905000	      7489	80000738	bfa16813	ori	x16,x2,-1030	  x2:0x00000001 x16=0xfffffbfb
       74915000	      7490	8000073c	54b90537	lui	x10,0x54b90	 x10=0x54b90000
       74925000	      7491	80000740	41bf0c33	sub	x24,x30,x27	 x30:0x00000001 x27:0x00000000 x24=0x00000001
       74935000	      7492	80000744	34271db7	lui	x27,0x34271	 x27=0x34271000
       74945000	      7493	80000748	01d94c33	xor	x24,x18,x29	 x18:0x4a06c4b2 x29:0x535cd4b2 x24=0x195a1000
       74955000	      7494	8000074c	011207b3	add	x15,x4,x17	  x4:0x49361000 x17:0x000000f3 x15=0x493610f3
       74965000	      7495	80000750	cd572313	slti	x6,x14,-811	 x14:0xfffffff0  x6=0x00000000
       74975000	      7496	80000754	0142d193	srli	x3,x5,0x14	  x5:0xc2fbf000  x3=0x00000c2f
       74985000	      7497	80000758	ffcd0d13	addi	x26,x26,-4	 x26:0x00000008 x26=0x00000004
       74995000	      7498	8000075c	00275f13	srli	x30,x14,0x2	 x14:0xfffffff0 x30=0x3ffffffc
       75005000	      7499	80000760	0039b7b3	sltu	x15,x19,x3	 x19:0x00000000  x3:0x00000c2f x15=0x00000001
       75015000	      7500	80000764	00000013	addi	x0,x0,0	  x0:0x00000000
       75025000	      7501	80000768	fcbd5ee3	bge	x26,x11,80000744	 x26:0x00000004 x11:0xfffffff4
       75035000	      7502	00000000	00000013	addi	x0,x0,0	  x0:0x00000000
       75045000	      7503	80000740	00000013	addi	x0,x0,0	  x0:0x00000000
       75055000	      7504	80000744	34271db7	lui	x27,0x34271	 x27=0x34271000
       75065000	      7505	80000748	01d94c33	xor	x24,x18,x29	 x18:0x4a06c4b2 x29:0x535cd4b2 x24=0x195a1000
       75075000	      7506	8000074c	011207b3	add	x15,x4,x17	  x4:0x49361000 x17:0x000000f3 x15=0x493610f3
       75085000	      7507	80000750	cd572313	slti	x6,x14,-811	 x14:0xfffffff0  x6=0x00000000
       75095000	      7508	80000754	0142d193	srli	x3,x5,0x14	  x5:0xc2fbf000  x3=0x00000c2f
       75105000	      7509	80000758	ffcd0d13	addi	x26,x26,-4	 x26:0x00000004 x26=0x00000000
       75115000	      7510	8000075c	00275f13	srli	x30,x14,0x2	 x14:0xfffffff0 x30=0x3ffffffc
       75125000	      7511	80000760	0039b7b3	sltu	x15,x19,x3	 x19:0x00000000  x3:0x00000c2f x15=0x00000001
       75135000	      7512	80000764	00000013	addi	x0,x0,0	  x0:0x00000000
       75145000	      7513	80000768	fcbd5ee3	bge	x26,x11,80000744	 x26:0x00000000 x11:0xfffffff4
       75155000	      7514	00000000	00000013	addi	x0,x0,0	  x0:0x00000000
       75165000	      7515	80000740	00000013	addi	x0,x0,0	  x0:0x00000000
       75175000	      7516	80000744	34271db7	lui	x27,0x34271	 x27=0x34271000
       75185000	      7517	80000748	01d94c33	xor	x24,x18,x29	 x18:0x4a06c4b2 x29:0x535cd4b2 x24=0x195a1000
       75195000	      7518	8000074c	011207b3	add	x15,x4,x17	  x4:0x49361000 x17:0x000000f3 x15=0x493610f3
       75205000	      7519	80000750	cd572313	slti	x6,x14,-811	 x14:0xfffffff0  x6=0x00000000
       75215000	      7520	80000754	0142d193	srli	x3,x5,0x14	  x5:0xc2fbf000  x3=0x00000c2f
       75225000	      7521	80000758	ffcd0d13	addi	x26,x26,-4	 x26:0x00000000 x26=0xfffffffc
       75235000	      7522	8000075c	00275f13	srli	x30,x14,0x2	 x14:0xfffffff0 x30=0x3ffffffc
       75245000	      7523	80000760	0039b7b3	sltu	x15,x19,x3	 x19:0x00000000  x3:0x00000c2f x15=0x00000001
       75255000	      7524	80000764	00000013	addi	x0,x0,0	  x0:0x00000000
       75265000	      7525	80000768	fcbd5ee3	bge	x26,x11,80000744	 x26:0xfffffffc x11:0xfffffff4
       75275000	      7526	00000000	00000013	addi	x0,x0,0	  x0:0x00000000
       75285000	      7527	80000740	00000013	addi	x0,x0,0	  x0:0x00000000
       75295000	      7528	80000744	34271db7	lui	x27,0x34271	 x27=0x34271000
       75305000	      7529	80000748	01d94c33	xor	x24,x18,x29	 x18:0x4a06c4b2 x29:0x535cd4b2 x24=0x195a1000
       75315000	      7530	8000074c	011207b3	add	x15,x4,x17	  x4:0x49361000 x17:0x000000f3 x15=0x493610f3
       75325000	      7531	80000750	cd572313	slti	x6,x14,-811	 x14:0xfffffff0  x6=0x00000000
       75335000	      7532	80000754	0142d193	srli	x3,x5,0x14	  x5:0xc2fbf000  x3=0x00000c2f
       75345000	      7533	80000758	ffcd0d13	addi	x26,x26,-4	 x26:0xfffffffc x26=0xfffffff8
       75355000	      7534	8000075c	00275f13	srli	x30,x14,0x2	 x14:0xfffffff0 x30=0x3ffffffc
       75365000	      7535	80000760	0039b7b3	sltu	x15,x19,x3	 x19:0x00000000  x3:0x00000c2f x15=0x00000001
       75375000	      7536	80000764	00000013	addi	x0,x0,0	  x0:0x00000000
       75385000	      7537	80000768	fcbd5ee3	bge	x26,x11,80000744	 x26:0xfffffff8 x11:0xfffffff4
       75395000	      7538	00000000	00000013	addi	x0,x0,0	  x0:0x00000000
       75405000	      7539	80000740	00000013	addi	x0,x0,0	  x0:0x00000000
       75415000	      7540	80000744	34271db7	lui	x27,0x34271	 x27=0x34271000
       75425000	      7541	80000748	01d94c33	xor	x24,x18,x29	 x18:0x4a06c4b2 x29:0x535cd4b2 x24=0x195a1000
       75435000	      7542	8000074c	011207b3	add	x15,x4,x17	  x4:0x49361000 x17:0x000000f3 x15=0x493610f3
       75445000	      7543	80000750	cd572313	slti	x6,x14,-811	 x14:0xfffffff0  x6=0x00000000
       75455000	      7544	80000754	0142d193	srli	x3,x5,0x14	  x5:0xc2fbf000  x3=0x00000c2f
       75465000	      7545	80000758	ffcd0d13	addi	x26,x26,-4	 x26:0xfffffff8 x26=0xfffffff4
       75475000	      7546	8000075c	00275f13	srli	x30,x14,0x2	 x14:0xfffffff0 x30=0x3ffffffc
       75485000	      7547	80000760	0039b7b3	sltu	x15,x19,x3	 x19:0x00000000  x3:0x00000c2f x15=0x00000001
       75495000	      7548	80000764	00000013	addi	x0,x0,0	  x0:0x00000000
       75505000	      7549	80000768	fcbd5ee3	bge	x26,x11,80000744	 x26:0xfffffff4 x11:0xfffffff4
       75515000	      7550	00000000	00000013	addi	x0,x0,0	  x0:0x00000000
       75525000	      7551	80000740	00000013	addi	x0,x0,0	  x0:0x00000000
       75535000	      7552	80000744	34271db7	lui	x27,0x34271	 x27=0x34271000
       75545000	      7553	80000748	01d94c33	xor	x24,x18,x29	 x18:0x4a06c4b2 x29:0x535cd4b2 x24=0x195a1000
       75555000	      7554	8000074c	011207b3	add	x15,x4,x17	  x4:0x49361000 x17:0x000000f3 x15=0x493610f3
       75565000	      7555	80000750	cd572313	slti	x6,x14,-811	 x14:0xfffffff0  x6=0x00000000
       75575000	      7556	80000754	0142d193	srli	x3,x5,0x14	  x5:0xc2fbf000  x3=0x00000c2f
       75585000	      7557	80000758	ffcd0d13	addi	x26,x26,-4	 x26:0xfffffff4 x26=0xfffffff0
       75595000	      7558	8000075c	00275f13	srli	x30,x14,0x2	 x14:0xfffffff0 x30=0x3ffffffc
       75605000	      7559	80000760	0039b7b3	sltu	x15,x19,x3	 x19:0x00000000  x3:0x00000c2f x15=0x00000001
       75615000	      7560	80000764	00000013	addi	x0,x0,0	  x0:0x00000000
       75625000	      7561	80000768	fcbd5ee3	bge	x26,x11,80000744	 x26:0xfffffff0 x11:0xfffffff4
       75635000	      7562	8000076c	41888433	sub	x8,x17,x24	 x17:0x000000f3 x24:0x195a1000  x8=0xe6a5f0f3
       75645000	      7563	80000770	605b6197	auipc	x3,0x605b6	  x3=0xe05b676c
       75655000	      7564	80000774	01924463	blt	x4,x25,8000077c	  x4:0x49361000 x25:0x00000056
       75665000	      7565	80000778	001d9693	slli	x13,x27,0x1	 x27:0x34271000 x13=0x684e2000
       75675000	      7566	8000077c	00f2c663	blt	x5,x15,80000788	  x5:0xc2fbf000 x15:0x00000001
       75685000	      7567	00000000	00000013	addi	x0,x0,0	  x0:0x00000000
       75695000	      7568	80000784	00000013	addi	x0,x0,0	  x0:0x00000000
       75705000	      7569	80000788	89aa6413	ori	x8,x20,-1894	 x20:0x80009fc4  x8=0xffffffde
       75715000	      7570	8000078c	032f6463	bltu	x30,x18,800007b4	 x30:0x3ffffffc x18:0x4a06c4b2
       75725000	      7571	00000000	00000013	addi	x0,x0,0	  x0:0x00000000
       75735000	      7572	800007b0	00000013	addi	x0,x0,0	  x0:0x00000000
       75745000	      7573	800007b4	00b051b3	srl	x3,x0,x11	  x0:0x00000000 x11:0xfffffff4  x3=0x00000000
       75755000	      7574	800007b8	0138f8b3	and	x17,x17,x19	 x17:0x000000f3 x19:0x00000000 x17=0x00000000
       75765000	      7575	800007bc	001623b3	slt	x7,x12,x1	 x12:0xfffffff0  x1:0x00000001  x7=0x00000001
       75775000	      7576	800007c0	00ff9213	slli	x4,x31,0xf	 x31:0x80000000  x4=0x00000000
       75785000	      7577	800007c4	e45a2113	slti	x2,x20,-443	 x20:0x80009fc4  x2=0x00000001
       75795000	      7578	800007c8	637a2d37	lui	x26,0x637a2	 x26=0x637a2000
       75805000	      7579	800007cc	00b2ca63	blt	x5,x11,800007e0	  x5:0xc2fbf000 x11:0xfffffff4
       75815000	      7580	00000000	00000013	addi	x0,x0,0	  x0:0x00000000
       75825000	      7581	800007dc	00000013	addi	x0,x0,0	  x0:0x00000000
       75835000	      7582	800007e0	00151b13	slli	x22,x10,0x1	 x10:0x54b90000 x22=0xa9720000
       75845000	      7583	800007e4	00598133	add	x2,x19,x5	 x19:0x00000000  x5:0xc2fbf000  x2=0xc2fbf000
       75855000	      7584	800007e8	00abc863	blt	x23,x10,800007f8	 x23:0x195a1000 x10:0x54b90000
       75865000	      7585	00000000	00000013	addi	x0,x0,0	  x0:0x00000000
       75875000	      7586	800007f4	00000013	addi	x0,x0,0	  x0:0x00000000
       75885000	      7587	800007f8	0005b4b3	sltu	x9,x11,x0	 x11:0xfffffff4  x0:0x00000000  x9=0x00000000
       75895000	      7588	800007fc	41ffd533	sra	x10,x31,x31	 x31:0x80000000 x31:0x80000000 x10=0x80000000
       75905000	      7589	80000800	00ce0c63	beq	x28,x12,80000818	 x28:0x80009f10 x12:0xfffffff0
       75915000	      7590	80000804	041b7063	bgeu	x22,x1,80000844	 x22:0xa9720000  x1:0x00000001
       75925000	      7591	00000000	00000013	addi	x0,x0,0	  x0:0x00000000
       75935000	      7592	80000840	00000013	addi	x0,x0,0	  x0:0x00000000
       75945000	      7593	80000844	00d65cb3	srl	x25,x12,x13	 x12:0xfffffff0 x13:0x684e2000 x25=0xfffffff0
       75955000	      7594	80000848	2ef7a213	slti	x4,x15,751	 x15:0x00000001  x4=0x00000001
       75965000	      7595	8000084c	01e6f633	and	x12,x13,x30	 x13:0x684e2000 x30:0x3ffffffc x12=0x284e2000
       75975000	      7596	80000850	415e5393	srai	x7,x28,0x15	 x28:0x80009f10  x7=0xfffffc00
       75985000	      7597	80000854	2b5cc813	xori	x16,x25,693	 x25:0xfffffff0 x16=0xfffffd45
       75995000	      7598	80000858	0079d263	bge	x19,x7,8000085c	 x19:0x00000000  x7:0xfffffc00
       76005000	      7599	00000000	00000013	addi	x0,x0,0	  x0:0x00000000
       76015000	      7600	80000858	00000013	addi	x0,x0,0	  x0:0x00000000
       76025000	      7601	8000085c	01b204b3	add	x9,x4,x27	  x4:0x00000001 x27:0x34271000  x9=0x34271001
       76035000	      7602	80000860	04922413	slti	x8,x4,73	  x4:0x00000001  x8=0x00000001
       76045000	      7603	80000864	00101693	slli	x13,x0,0x1	  x0:0x00000000 x13=0x00000000
       76055000	      7604	80000868	6459d297	auipc	x5,0x6459d	  x5=0xe459d864
       76065000	      7605	8000086c	00000013	addi	x0,x0,0	  x0:0x00000000
       76075000	      7606	80000870	429fa913	slti	x18,x31,1065	 x31:0x80000000 x18=0x00000001
       76085000	      7607	80000874	01847263	bgeu	x8,x24,80000878	  x8:0x00000001 x24:0x195a1000
       76095000	      7608	80000878	01611e93	slli	x29,x2,0x16	  x2:0xc2fbf000 x29=0x00000000
       76105000	      7609	8000087c	00000013	addi	x0,x0,0	  x0:0x00000000
       76115000	      7610	80000880	01d50033	add	x0,x10,x29	 x10:0x80000000 x29:0x00000000
       76125000	      7611	80000884	01ef6db3	or	x27,x30,x30	 x30:0x3ffffffc x30:0x3ffffffc x27=0x3ffffffc
       76135000	      7612	80000888	0022e433	or	x8,x5,x2	  x5:0xe459d864  x2:0xc2fbf000  x8=0xe6fbf864
       76145000	      7613	8000088c	025f8a63	beq	x31,x5,800008c0	 x31:0x80000000  x5:0xe459d864
       76155000	      7614	80000890	01af40b3	xor	x1,x30,x26	 x30:0x3ffffffc x26:0x637a2000  x1=0x5c85dffc
       76165000	      7615	80000894	002ecdb3	xor	x27,x29,x2	 x29:0x00000000  x2:0xc2fbf000 x27=0xc2fbf000
       76175000	      7616	80000898	7e6a7b13	andi	x22,x20,2022	 x20:0x80009fc4 x22=0x000007c4
       76185000	      7617	8000089c	66dabd13	sltiu	x26,x21,1645	 x21:0x59000000 x26=0x00000000
       76195000	      7618	800008a0	01e69533	sll	x10,x13,x30	 x13:0x00000000 x30:0x3ffffffc x10=0x00000000
       76205000	      7619	800008a4	038ef463	bgeu	x29,x24,800008cc	 x29:0x00000000 x24:0x195a1000
       76215000	      7620	800008a8	0083d333	srl	x6,x7,x8	  x7:0xfffffc00  x8:0xe6fbf864  x6=0x0fffffc0
       76225000	      7621	800008ac	01067c33	and	x24,x12,x16	 x12:0x284e2000 x16:0xfffffd45 x24=0x284e2000
       76235000	      7622	800008b0	01d50ab3	add	x21,x10,x29	 x10:0x00000000 x29:0x00000000 x21=0x00000000
       76245000	      7623	800008b4	c8342e93	slti	x29,x8,-893	  x8:0xe6fbf864 x29=0x00000001
       76255000	      7624	800008b8	02ac8863	beq	x25,x10,800008e8	 x25:0xfffffff0 x10:0x00000000
       76265000	      7625	800008bc	8da2b613	sltiu	x12,x5,-1830	  x5:0xe459d864 x12=0x00000001
       76275000	      7626	800008c0	706f6513	ori	x10,x30,1798	 x30:0x3ffffffc x10=0x3ffffffe
       76285000	      7627	800008c4	01315a93	srli	x21,x2,0x13	  x2:0xc2fbf000 x21=0x0000185f
       76295000	      7628	800008c8	03a1fa63	bgeu	x3,x26,800008fc	  x3:0x00000000 x26:0x00000000
       76305000	      7629	00000000	00000013	addi	x0,x0,0	  x0:0x00000000
       76315000	      7630	800008f8	00000013	addi	x0,x0,0	  x0:0x00000000
       76325000	      7631	800008fc	014ea033	slt	x0,x29,x20	 x29:0x00000001 x20:0x80009fc4
       76335000	      7632	80000900	405edb13	srai	x22,x29,0x5	 x29:0x00000001 x22=0x00000000
       76345000	      7633	80000904	30e101b7	lui	x3,0x30e10	  x3=0x30e10000
       76355000	      7634	80000908	00c91033	sll	x0,x18,x12	 x18:0x00000001 x12:0x00000001
       76365000	      7635	8000090c	008021b3	slt	x3,x0,x8	  x0:0x00000000  x8:0xe6fbf864  x3=0x00000000
       76375000	      7636	80000910	01ca35b3	sltu	x11,x20,x28	 x20:0x80009fc4 x28:0x80009f10 x11=0x00000000
       76385000	      7637	80000914	f25d2813	slti	x16,x26,-219	 x26:0x00000000 x16=0x00000000
       76395000	      7638	80000918	004e2d03	lw	x26,4(x28)	 x28:0x80009f10 x26=0x80000220 PA:0x80009f14
       76405000	      7639	8000091c	40978ab3	sub	x21,x15,x9	 x15:0x00000001  x9:0x34271001 x21=0xcbd8f000
       76415000	      7640	80000920	024e0e13	addi	x28,x28,36	 x28:0x80009f10 x28=0x80009f34
       76425000	      7641	80000924	01865513	srli	x10,x12,0x18	 x12:0x00000001 x10=0x00000000
       76435000	      7642	80000928	00000013	addi	x0,x0,0	  x0:0x00000000
       76445000	      7643	8000092c	001d0193	addi	x3,x26,1	 x26:0x80000220  x3=0x80000221
       76455000	      7644	80000930	000181e7	jalr	x3,x3,0	  x3:0x80000221  x3=0x80000930
       76465000	      7645	00000000	00000013	addi	x0,x0,0	  x0:0x00000000
       76475000	      7646	80000220	00000013	addi	x0,x0,0	  x0:0x00000000
       76485000	      7647	80000224	41e754b3	sra	x9,x14,x30	 x14:0xfffffff0 x30:0x3ffffffc  x9=0xffffffff
       76495000	      7648	80000228	00000797	auipc	x15,0x0	 x15=0x80000224
       76505000	      7649	8000022c	45878793	addi	x15,x15,1112	 x15:0x80000224 x15=0x8000067c
       76515000	      7650	80000230	00621613	slli	x12,x4,0x6	  x4:0x00000001 x12=0x00000040
       76525000	      7651	80000234	00b5d8b3	srl	x17,x11,x11	 x11:0x00000000 x11:0x00000000 x17=0x00000000
       76535000	      7652	80000238	3ea78793	addi	x15,x15,1002	 x15:0x8000067c x15=0x80000a66
       76545000	      7653	8000023c	902cfb37	lui	x22,0x902cf	 x22=0x902cf000
       76555000	      7654	80000240	01fed713	srli	x14,x29,0x1f	 x29:0x00000001 x14=0x00000000
       76565000	      7655	80000244	c1678d67	jalr	x26,x15,-1002	 x15:0x80000a66 x26=0x80000244
       76575000	      7656	00000000	00000013	addi	x0,x0,0	  x0:0x00000000
       76585000	      7657	8000067c	00000013	addi	x0,x0,0	  x0:0x00000000
       76595000	      7658	80000680	010d4ab3	xor	x21,x26,x16	 x26:0x80000244 x16:0x00000000 x21=0x80000244
       76605000	      7659	80000684	011c1bb3	sll	x23,x24,x17	 x24:0x284e2000 x17:0x00000000 x23=0x284e2000
       76615000	      7660	80000688	01ed4463	blt	x26,x30,80000690	 x26:0x80000244 x30:0x3ffffffc
       76625000	      7661	00000000	00000013	addi	x0,x0,0	  x0:0x00000000
       76635000	      7662	8000068c	00000013	addi	x0,x0,0	  x0:0x00000000
       76645000	      7663	80000690	fdce0e13	addi	x28,x28,-36	 x28:0x80009f34 x28=0x80009f10
       76655000	      7664	80000694	01ae2223	sw	x26,4(x28)	 x28:0x80009f10 x26:0x80000244 PA:0x80009f14
       76665000	      7665	80000698	00f63833	sltu	x16,x12,x15	 x12:0x00000040 x15:0x80000a66 x16=0x00000001
       76675000	      7666	8000069c	00200613	addi	x12,x0,2	  x0:0x00000000 x12=0x00000002
       76685000	      7667	800006a0	63224397	auipc	x7,0x63224	  x7=0xe322469c
       76695000	      7668	800006a4	c6c94a93	xori	x21,x18,-916	 x18:0x00000001 x21=0xfffffc6d
       76705000	      7669	800006a8	ff000b13	addi	x22,x0,-16	  x0:0x00000000 x22=0xfffffff0
       76715000	      7670	800006ac	49525ab7	lui	x21,0x49525	 x21=0x49525000
       76725000	      7671	800006b0	404b8833	sub	x16,x23,x4	 x23:0x284e2000  x4:0x00000001 x16=0x284e1fff
       76735000	      7672	800006b4	419e89b3	sub	x19,x29,x25	 x29:0x00000001 x25:0xfffffff0 x19=0x00000011
       76745000	      7673	800006b8	a75eb537	lui	x10,0xa75eb	 x10=0xa75eb000
       76755000	      7674	800006bc	f870cd13	xori	x26,x1,-121	  x1:0x5c85dffc x26=0xa37a207b
       76765000	      7675	800006c0	00be66b3	or	x13,x28,x11	 x28:0x80009f10 x11:0x00000000 x13=0x80009f10
       76775000	      7676	800006c4	0171cd33	xor	x26,x3,x23	  x3:0x80000930 x23:0x284e2000 x26=0xa84e2930
       76785000	      7677	800006c8	c2fbf2b7	lui	x5,0xc2fbf	  x5=0xc2fbf000
       76795000	      7678	800006cc	3ba60193	addi	x3,x12,954	 x12:0x00000002  x3=0x000003bc
       76805000	      7679	800006d0	01832533	slt	x10,x6,x24	  x6:0x0fffffc0 x24:0x284e2000 x10=0x00000001
       76815000	      7680	800006d4	0170deb3	srl	x29,x1,x23	  x1:0x5c85dffc x23:0x284e2000 x29=0x5c85dffc
       76825000	      7681	800006d8	7715e313	ori	x6,x11,1905	 x11:0x00000000  x6=0x00000771
       76835000	      7682	800006dc	ff760613	addi	x12,x12,-9	 x12:0x00000002 x12=0xfffffff9
       76845000	      7683	800006e0	4fbf3893	sltiu	x17,x30,1275	 x30:0x3ffffffc x17=0x00000000
       76855000	      7684	800006e4	ad140193	addi	x3,x8,-1327	  x8:0xe6fbf864  x3=0xe6fbf335
       76865000	      7685	800006e8	01e2af33	slt	x30,x5,x30	  x5:0xc2fbf000 x30:0x3ffffffc x30=0x00000001
       76875000	      7686	800006ec	0569ec93	ori	x25,x19,86	 x19:0x00000011 x25=0x00000057
       76885000	      7687	800006f0	000b9e93	slli	x29,x23,0x0	 x23:0x284e2000 x29=0x284e2000
       76895000	      7688	800006f4	2a836013	ori	x0,x6,680	  x6:0x00000771
       76905000	      7689	800006f8	017e9a93	slli	x21,x29,0x17	 x29:0x284e2000 x21=0x00000000
       76915000	      7690	800006fc	01794bb3	xor	x23,x18,x23	 x18:0x00000001 x23:0x284e2000 x23=0x284e2001
       76925000	      7691	80000700	406f5513	srai	x10,x30,0x6	 x30:0x00000001 x10=0x00000000
       76935000	      7692	80000704	0182e4b3	or	x9,x5,x24	  x5:0xc2fbf000 x24:0x284e2000  x9=0xeafff000
       76945000	      7693	80000708	fb6618e3	bne	x12,x22,800006b8	 x12:0xfffffff9 x22:0xfffffff0
       76955000	      7694	00000000	00000013	addi	x0,x0,0	  x0:0x00000000
       76965000	      7695	800006b4	00000013	addi	x0,x0,0	  x0:0x00000000
       76975000	      7696	800006b8	a75eb537	lui	x10,0xa75eb	 x10=0xa75eb000
       76985000	      7697	800006bc	f870cd13	xori	x26,x1,-121	  x1:0x5c85dffc x26=0xa37a207b
       76995000	      7698	800006c0	00be66b3	or	x13,x28,x11	 x28:0x80009f10 x11:0x00000000 x13=0x80009f10
       77005000	      7699	800006c4	0171cd33	xor	x26,x3,x23	  x3:0xe6fbf335 x23:0x284e2001 x26=0xceb5d334
       77015000	      7700	800006c8	c2fbf2b7	lui	x5,0xc2fbf	  x5=0xc2fbf000
       77025000	      7701	800006cc	3ba60193	addi	x3,x12,954	 x12:0xfffffff9  x3=0x000003b3
       77035000	      7702	800006d0	01832533	slt	x10,x6,x24	  x6:0x00000771 x24:0x284e2000 x10=0x00000001
       77045000	      7703	800006d4	0170deb3	srl	x29,x1,x23	  x1:0x5c85dffc x23:0x284e2001 x29=0x2e42effe
       77055000	      7704	800006d8	7715e313	ori	x6,x11,1905	 x11:0x00000000  x6=0x00000771
       77065000	      7705	800006dc	ff760613	addi	x12,x12,-9	 x12:0xfffffff9 x12=0xfffffff0
       77075000	      7706	800006e0	4fbf3893	sltiu	x17,x30,1275	 x30:0x00000001 x17=0x00000001
       77085000	      7707	800006e4	ad140193	addi	x3,x8,-1327	  x8:0xe6fbf864  x3=0xe6fbf335
       77095000	      7708	800006e8	01e2af33	slt	x30,x5,x30	  x5:0xc2fbf000 x30:0x00000001 x30=0x00000001
       77105000	      7709	800006ec	0569ec93	ori	x25,x19,86	 x19:0x00000011 x25=0x00000057
       77115000	      7710	800006f0	000b9e93	slli	x29,x23,0x0	 x23:0x284e2001 x29=0x284e2001
       77125000	      7711	800006f4	2a836013	ori	x0,x6,680	  x6:0x00000771
       77135000	      7712	800006f8	017e9a93	slli	x21,x29,0x17	 x29:0x284e2001 x21=0x00800000
       77145000	      7713	800006fc	01794bb3	xor	x23,x18,x23	 x18:0x00000001 x23:0x284e2001 x23=0x284e2000
       77155000	      7714	80000700	406f5513	srai	x10,x30,0x6	 x30:0x00000001 x10=0x00000000
       77165000	      7715	80000704	0182e4b3	or	x9,x5,x24	  x5:0xc2fbf000 x24:0x284e2000  x9=0xeafff000
       77175000	      7716	80000708	fb6618e3	bne	x12,x22,800006b8	 x12:0xfffffff0 x22:0xfffffff0
       77185000	      7717	8000070c	016fe733	or	x14,x31,x22	 x31:0x80000000 x22:0xfffffff0 x14=0xfffffff0
       77195000	      7718	80000710	00800d13	addi	x26,x0,8	  x0:0x00000000 x26=0x00000008
       77205000	      7719	80000714	0f28c693	xori	x13,x17,242	 x17:0x00000001 x13=0x000000f3
       77215000	      7720	80000718	a62064b7	lui	x9,0xa6206	  x9=0xa6206000
       77225000	      7721	8000071c	01faaf33	slt	x30,x21,x31	 x21:0x00800000 x31:0x80000000 x30=0x00000000
       77235000	      7722	80000720	00a15b13	srli	x22,x2,0xa	  x2:0xc2fbf000 x22=0x0030befc
       77245000	      7723	80000724	00000013	addi	x0,x0,0	  x0:0x00000000
       77255000	      7724	80000728	0478af13	slti	x30,x17,71	 x17:0x00000001 x30=0x00000001
       77265000	      7725	8000072c	00df30b3	sltu	x1,x30,x13	 x30:0x00000001 x13:0x000000f3  x1=0x00000001
       77275000	      7726	80000730	ff400593	addi	x11,x0,-12	  x0:0x00000000 x11=0xfffffff4
       77285000	      7727	80000734	01b6d8b3	srl	x17,x13,x27	 x13:0x000000f3 x27:0xc2fbf000 x17=0x000000f3
       77295000	      7728	80000738	bfa16813	ori	x16,x2,-1030	  x2:0xc2fbf000 x16=0xfffffbfa
       77305000	      7729	8000073c	54b90537	lui	x10,0x54b90	 x10=0x54b90000
       77315000	      7730	80000740	41bf0c33	sub	x24,x30,x27	 x30:0x00000001 x27:0xc2fbf000 x24=0x3d041001
       77325000	      7731	80000744	34271db7	lui	x27,0x34271	 x27=0x34271000
       77335000	      7732	80000748	01d94c33	xor	x24,x18,x29	 x18:0x00000001 x29:0x284e2001 x24=0x284e2000
       77345000	      7733	8000074c	011207b3	add	x15,x4,x17	  x4:0x00000001 x17:0x000000f3 x15=0x000000f4
       77355000	      7734	80000750	cd572313	slti	x6,x14,-811	 x14:0xfffffff0  x6=0x00000000
       77365000	      7735	80000754	0142d193	srli	x3,x5,0x14	  x5:0xc2fbf000  x3=0x00000c2f
       77375000	      7736	80000758	ffcd0d13	addi	x26,x26,-4	 x26:0x00000008 x26=0x00000004
       77385000	      7737	8000075c	00275f13	srli	x30,x14,0x2	 x14:0xfffffff0 x30=0x3ffffffc
       77395000	      7738	80000760	0039b7b3	sltu	x15,x19,x3	 x19:0x00000011  x3:0x00000c2f x15=0x00000001
       77405000	      7739	80000764	00000013	addi	x0,x0,0	  x0:0x00000000
       77415000	      7740	80000768	fcbd5ee3	bge	x26,x11,80000744	 x26:0x00000004 x11:0xfffffff4
       77425000	      7741	00000000	00000013	addi	x0,x0,0	  x0:0x00000000
       77435000	      7742	80000740	00000013	addi	x0,x0,0	  x0:0x00000000
       77445000	      7743	80000744	34271db7	lui	x27,0x34271	 x27=0x34271000
       77455000	      7744	80000748	01d94c33	xor	x24,x18,x29	 x18:0x00000001 x29:0x284e2001 x24=0x284e2000
       77465000	      7745	8000074c	011207b3	add	x15,x4,x17	  x4:0x00000001 x17:0x000000f3 x15=0x000000f4
       77475000	      7746	80000750	cd572313	slti	x6,x14,-811	 x14:0xfffffff0  x6=0x00000000
       77485000	      7747	80000754	0142d193	srli	x3,x5,0x14	  x5:0xc2fbf000  x3=0x00000c2f
       77495000	      7748	80000758	ffcd0d13	addi	x26,x26,-4	 x26:0x00000004 x26=0x00000000
       77505000	      7749	8000075c	00275f13	srli	x30,x14,0x2	 x14:0xfffffff0 x30=0x3ffffffc
       77515000	      7750	80000760	0039b7b3	sltu	x15,x19,x3	 x19:0x00000011  x3:0x00000c2f x15=0x00000001
       77525000	      7751	80000764	00000013	addi	x0,x0,0	  x0:0x00000000
       77535000	      7752	80000768	fcbd5ee3	bge	x26,x11,80000744	 x26:0x00000000 x11:0xfffffff4
       77545000	      7753	00000000	00000013	addi	x0,x0,0	  x0:0x00000000
       77555000	      7754	80000740	00000013	addi	x0,x0,0	  x0:0x00000000
       77565000	      7755	80000744	34271db7	lui	x27,0x34271	 x27=0x34271000
       77575000	      7756	80000748	01d94c33	xor	x24,x18,x29	 x18:0x00000001 x29:0x284e2001 x24=0x284e2000
       77585000	      7757	8000074c	011207b3	add	x15,x4,x17	  x4:0x00000001 x17:0x000000f3 x15=0x000000f4
       77595000	      7758	80000750	cd572313	slti	x6,x14,-811	 x14:0xfffffff0  x6=0x00000000
       77605000	      7759	80000754	0142d193	srli	x3,x5,0x14	  x5:0xc2fbf000  x3=0x00000c2f
       77615000	      7760	80000758	ffcd0d13	addi	x26,x26,-4	 x26:0x00000000 x26=0xfffffffc
       77625000	      7761	8000075c	00275f13	srli	x30,x14,0x2	 x14:0xfffffff0 x30=0x3ffffffc
       77635000	      7762	80000760	0039b7b3	sltu	x15,x19,x3	 x19:0x00000011  x3:0x00000c2f x15=0x00000001
       77645000	      7763	80000764	00000013	addi	x0,x0,0	  x0:0x00000000
       77655000	      7764	80000768	fcbd5ee3	bge	x26,x11,80000744	 x26:0xfffffffc x11:0xfffffff4
       77665000	      7765	00000000	00000013	addi	x0,x0,0	  x0:0x00000000
       77675000	      7766	80000740	00000013	addi	x0,x0,0	  x0:0x00000000
       77685000	      7767	80000744	34271db7	lui	x27,0x34271	 x27=0x34271000
       77695000	      7768	80000748	01d94c33	xor	x24,x18,x29	 x18:0x00000001 x29:0x284e2001 x24=0x284e2000
       77705000	      7769	8000074c	011207b3	add	x15,x4,x17	  x4:0x00000001 x17:0x000000f3 x15=0x000000f4
       77715000	      7770	80000750	cd572313	slti	x6,x14,-811	 x14:0xfffffff0  x6=0x00000000
       77725000	      7771	80000754	0142d193	srli	x3,x5,0x14	  x5:0xc2fbf000  x3=0x00000c2f
       77735000	      7772	80000758	ffcd0d13	addi	x26,x26,-4	 x26:0xfffffffc x26=0xfffffff8
       77745000	      7773	8000075c	00275f13	srli	x30,x14,0x2	 x14:0xfffffff0 x30=0x3ffffffc
       77755000	      7774	80000760	0039b7b3	sltu	x15,x19,x3	 x19:0x00000011  x3:0x00000c2f x15=0x00000001
       77765000	      7775	80000764	00000013	addi	x0,x0,0	  x0:0x00000000
       77775000	      7776	80000768	fcbd5ee3	bge	x26,x11,80000744	 x26:0xfffffff8 x11:0xfffffff4
       77785000	      7777	00000000	00000013	addi	x0,x0,0	  x0:0x00000000
       77795000	      7778	80000740	00000013	addi	x0,x0,0	  x0:0x00000000
       77805000	      7779	80000744	34271db7	lui	x27,0x34271	 x27=0x34271000
       77815000	      7780	80000748	01d94c33	xor	x24,x18,x29	 x18:0x00000001 x29:0x284e2001 x24=0x284e2000
       77825000	      7781	8000074c	011207b3	add	x15,x4,x17	  x4:0x00000001 x17:0x000000f3 x15=0x000000f4
       77835000	      7782	80000750	cd572313	slti	x6,x14,-811	 x14:0xfffffff0  x6=0x00000000
       77845000	      7783	80000754	0142d193	srli	x3,x5,0x14	  x5:0xc2fbf000  x3=0x00000c2f
       77855000	      7784	80000758	ffcd0d13	addi	x26,x26,-4	 x26:0xfffffff8 x26=0xfffffff4
       77865000	      7785	8000075c	00275f13	srli	x30,x14,0x2	 x14:0xfffffff0 x30=0x3ffffffc
       77875000	      7786	80000760	0039b7b3	sltu	x15,x19,x3	 x19:0x00000011  x3:0x00000c2f x15=0x00000001
       77885000	      7787	80000764	00000013	addi	x0,x0,0	  x0:0x00000000
       77895000	      7788	80000768	fcbd5ee3	bge	x26,x11,80000744	 x26:0xfffffff4 x11:0xfffffff4
       77905000	      7789	00000000	00000013	addi	x0,x0,0	  x0:0x00000000
       77915000	      7790	80000740	00000013	addi	x0,x0,0	  x0:0x00000000
       77925000	      7791	80000744	34271db7	lui	x27,0x34271	 x27=0x34271000
       77935000	      7792	80000748	01d94c33	xor	x24,x18,x29	 x18:0x00000001 x29:0x284e2001 x24=0x284e2000
       77945000	      7793	8000074c	011207b3	add	x15,x4,x17	  x4:0x00000001 x17:0x000000f3 x15=0x000000f4
       77955000	      7794	80000750	cd572313	slti	x6,x14,-811	 x14:0xfffffff0  x6=0x00000000
       77965000	      7795	80000754	0142d193	srli	x3,x5,0x14	  x5:0xc2fbf000  x3=0x00000c2f
       77975000	      7796	80000758	ffcd0d13	addi	x26,x26,-4	 x26:0xfffffff4 x26=0xfffffff0
       77985000	      7797	8000075c	00275f13	srli	x30,x14,0x2	 x14:0xfffffff0 x30=0x3ffffffc
       77995000	      7798	80000760	0039b7b3	sltu	x15,x19,x3	 x19:0x00000011  x3:0x00000c2f x15=0x00000001
       78005000	      7799	80000764	00000013	addi	x0,x0,0	  x0:0x00000000
       78015000	      7800	80000768	fcbd5ee3	bge	x26,x11,80000744	 x26:0xfffffff0 x11:0xfffffff4
       78025000	      7801	8000076c	41888433	sub	x8,x17,x24	 x17:0x000000f3 x24:0x284e2000  x8=0xd7b1e0f3
       78035000	      7802	80000770	605b6197	auipc	x3,0x605b6	  x3=0xe05b676c
       78045000	      7803	80000774	01924463	blt	x4,x25,8000077c	  x4:0x00000001 x25:0x00000057
       78055000	      7804	00000000	00000013	addi	x0,x0,0	  x0:0x00000000
       78065000	      7805	80000778	00000013	addi	x0,x0,0	  x0:0x00000000
       78075000	      7806	8000077c	00f2c663	blt	x5,x15,80000788	  x5:0xc2fbf000 x15:0x00000001
       78085000	      7807	00000000	00000013	addi	x0,x0,0	  x0:0x00000000
       78095000	      7808	80000784	00000013	addi	x0,x0,0	  x0:0x00000000
       78105000	      7809	80000788	89aa6413	ori	x8,x20,-1894	 x20:0x80009fc4  x8=0xffffffde
       78115000	      7810	8000078c	032f6463	bltu	x30,x18,800007b4	 x30:0x3ffffffc x18:0x00000001
       78125000	      7811	80000790	016bc933	xor	x18,x23,x22	 x23:0x284e2000 x22:0x0030befc x18=0x287e9efc
       78135000	      7812	80000794	10cfe393	ori	x7,x31,268	 x31:0x80000000  x7=0x8000010c
       78145000	      7813	80000798	41a2d9b3	sra	x19,x5,x26	  x5:0xc2fbf000 x26:0xfffffff0 x19=0xffffc2fb
       78155000	      7814	8000079c	40468f33	sub	x30,x13,x4	 x13:0x000000f3  x4:0x00000001 x30=0x000000f2
       78165000	      7815	800007a0	001b1793	slli	x15,x22,0x1	 x22:0x0030befc x15=0x00617df8
       78175000	      7816	800007a4	000aca63	blt	x21,x0,800007b8	 x21:0x00800000  x0:0x00000000
       78185000	      7817	800007a8	00d39393	slli	x7,x7,0xd	  x7:0x8000010c  x7=0x00218000
       78195000	      7818	800007ac	014e70b3	and	x1,x28,x20	 x28:0x80009f10 x20:0x80009fc4  x1=0x80009f00
       78205000	      7819	800007b0	00b36db3	or	x27,x6,x11	  x6:0x00000000 x11:0xfffffff4 x27=0xfffffff4
       78215000	      7820	800007b4	00b051b3	srl	x3,x0,x11	  x0:0x00000000 x11:0xfffffff4  x3=0x00000000
       78225000	      7821	800007b8	0138f8b3	and	x17,x17,x19	 x17:0x000000f3 x19:0xffffc2fb x17=0x000000f3
       78235000	      7822	800007bc	001623b3	slt	x7,x12,x1	 x12:0xfffffff0  x1:0x80009f00  x7=0x00000000
       78245000	      7823	800007c0	00ff9213	slli	x4,x31,0xf	 x31:0x80000000  x4=0x00000000
       78255000	      7824	800007c4	e45a2113	slti	x2,x20,-443	 x20:0x80009fc4  x2=0x00000001
       78265000	      7825	800007c8	637a2d37	lui	x26,0x637a2	 x26=0x637a2000
       78275000	      7826	800007cc	00b2ca63	blt	x5,x11,800007e0	  x5:0xc2fbf000 x11:0xfffffff4
       78285000	      7827	00000000	00000013	addi	x0,x0,0	  x0:0x00000000
       78295000	      7828	800007dc	00000013	addi	x0,x0,0	  x0:0x00000000
       78305000	      7829	800007e0	00151b13	slli	x22,x10,0x1	 x10:0x54b90000 x22=0xa9720000
       78315000	      7830	800007e4	00598133	add	x2,x19,x5	 x19:0xffffc2fb  x5:0xc2fbf000  x2=0xc2fbb2fb
       78325000	      7831	800007e8	00abc863	blt	x23,x10,800007f8	 x23:0x284e2000 x10:0x54b90000
       78335000	      7832	00000000	00000013	addi	x0,x0,0	  x0:0x00000000
       78345000	      7833	800007f4	00000013	addi	x0,x0,0	  x0:0x00000000
       78355000	      7834	800007f8	0005b4b3	sltu	x9,x11,x0	 x11:0xfffffff4  x0:0x00000000  x9=0x00000000
       78365000	      7835	800007fc	41ffd533	sra	x10,x31,x31	 x31:0x80000000 x31:0x80000000 x10=0x80000000
       78375000	      7836	80000800	00ce0c63	beq	x28,x12,80000818	 x28:0x80009f10 x12:0xfffffff0
       78385000	      7837	80000804	041b7063	bgeu	x22,x1,80000844	 x22:0xa9720000  x1:0x80009f00
       78395000	      7838	00000000	00000013	addi	x0,x0,0	  x0:0x00000000
       78405000	      7839	80000840	00000013	addi	x0,x0,0	  x0:0x00000000
       78415000	      7840	80000844	00d65cb3	srl	x25,x12,x13	 x12:0xfffffff0 x13:0x000000f3 x25=0x00001fff
       78425000	      7841	80000848	2ef7a213	slti	x4,x15,751	 x15:0x00617df8  x4=0x00000000
       78435000	      7842	8000084c	01e6f633	and	x12,x13,x30	 x13:0x000000f3 x30:0x000000f2 x12=0x000000f2
       78445000	      7843	80000850	415e5393	srai	x7,x28,0x15	 x28:0x80009f10  x7=0xfffffc00
       78455000	      7844	80000854	2b5cc813	xori	x16,x25,693	 x25:0x00001fff x16=0x00001d4a
       78465000	      7845	80000858	0079d263	bge	x19,x7,8000085c	 x19:0xffffc2fb  x7:0xfffffc00
       78475000	      7846	8000085c	01b204b3	add	x9,x4,x27	  x4:0x00000000 x27:0xfffffff4  x9=0xfffffff4
       78485000	      7847	80000860	04922413	slti	x8,x4,73	  x4:0x00000000  x8=0x00000001
       78495000	      7848	80000864	00101693	slli	x13,x0,0x1	  x0:0x00000000 x13=0x00000000
       78505000	      7849	80000868	6459d297	auipc	x5,0x6459d	  x5=0xe459d864
       78515000	      7850	8000086c	00000013	addi	x0,x0,0	  x0:0x00000000
       78525000	      7851	80000870	429fa913	slti	x18,x31,1065	 x31:0x80000000 x18=0x00000001
       78535000	      7852	80000874	01847263	bgeu	x8,x24,80000878	  x8:0x00000001 x24:0x284e2000
       78545000	      7853	80000878	01611e93	slli	x29,x2,0x16	  x2:0xc2fbb2fb x29=0xbec00000
       78555000	      7854	8000087c	00000013	addi	x0,x0,0	  x0:0x00000000
       78565000	      7855	80000880	01d50033	add	x0,x10,x29	 x10:0x80000000 x29:0xbec00000
       78575000	      7856	80000884	01ef6db3	or	x27,x30,x30	 x30:0x000000f2 x30:0x000000f2 x27=0x000000f2
       78585000	      7857	80000888	0022e433	or	x8,x5,x2	  x5:0xe459d864  x2:0xc2fbb2fb  x8=0xe6fbfaff
       78595000	      7858	8000088c	025f8a63	beq	x31,x5,800008c0	 x31:0x80000000  x5:0xe459d864
       78605000	      7859	80000890	01af40b3	xor	x1,x30,x26	 x30:0x000000f2 x26:0x637a2000  x1=0x637a20f2
       78615000	      7860	80000894	002ecdb3	xor	x27,x29,x2	 x29:0xbec00000  x2:0xc2fbb2fb x27=0x7c3bb2fb
       78625000	      7861	80000898	7e6a7b13	andi	x22,x20,2022	 x20:0x80009fc4 x22=0x000007c4
       78635000	      7862	8000089c	66dabd13	sltiu	x26,x21,1645	 x21:0x00800000 x26=0x00000000
       78645000	      7863	800008a0	01e69533	sll	x10,x13,x30	 x13:0x00000000 x30:0x000000f2 x10=0x00000000
       78655000	      7864	800008a4	038ef463	bgeu	x29,x24,800008cc	 x29:0xbec00000 x24:0x284e2000
       78665000	      7865	00000000	00000013	addi	x0,x0,0	  x0:0x00000000
       78675000	      7866	800008c8	00000013	addi	x0,x0,0	  x0:0x00000000
       78685000	      7867	800008cc	01f5b3b3	sltu	x7,x11,x31	 x11:0xfffffff4 x31:0x80000000  x7=0x00000000
       78695000	      7868	800008d0	01f64c63	blt	x12,x31,800008e8	 x12:0x000000f2 x31:0x80000000
       78705000	      7869	800008d4	00d36863	bltu	x6,x13,800008e4	  x6:0x00000000 x13:0x00000000
       78715000	      7870	800008d8	6a954193	xori	x3,x10,1705	 x10:0x00000000  x3=0x000006a9
       78725000	      7871	800008dc	76d6b313	sltiu	x6,x13,1901	 x13:0x00000000  x6=0x00000001
       78735000	      7872	800008e0	00000013	addi	x0,x0,0	  x0:0x00000000
       78745000	      7873	800008e4	00a9d2b3	srl	x5,x19,x10	 x19:0xffffc2fb x10:0x00000000  x5=0xffffc2fb
       78755000	      7874	800008e8	208d3e93	sltiu	x29,x26,520	 x26:0x00000000 x29=0x00000001
       78765000	      7875	800008ec	414409b3	sub	x19,x8,x20	  x8:0xe6fbfaff x20:0x80009fc4 x19=0x66fb5b3b
       78775000	      7876	800008f0	8a658993	addi	x19,x11,-1882	 x11:0xfffffff4 x19=0xfffff89a
       78785000	      7877	800008f4	00551d13	slli	x26,x10,0x5	 x10:0x00000000 x26=0x00000000
       78795000	      7878	800008f8	6a328693	addi	x13,x5,1699	  x5:0xffffc2fb x13=0xffffc99e
       78805000	      7879	800008fc	014ea033	slt	x0,x29,x20	 x29:0x00000001 x20:0x80009fc4
       78815000	      7880	80000900	405edb13	srai	x22,x29,0x5	 x29:0x00000001 x22=0x00000000
       78825000	      7881	80000904	30e101b7	lui	x3,0x30e10	  x3=0x30e10000
       78835000	      7882	80000908	00c91033	sll	x0,x18,x12	 x18:0x00000001 x12:0x000000f2
       78845000	      7883	8000090c	008021b3	slt	x3,x0,x8	  x0:0x00000000  x8:0xe6fbfaff  x3=0x00000000
       78855000	      7884	80000910	01ca35b3	sltu	x11,x20,x28	 x20:0x80009fc4 x28:0x80009f10 x11=0x00000000
       78865000	      7885	80000914	f25d2813	slti	x16,x26,-219	 x26:0x00000000 x16=0x00000000
       78875000	      7886	80000918	004e2d03	lw	x26,4(x28)	 x28:0x80009f10 x26=0x80000244 PA:0x80009f14
       78885000	      7887	8000091c	40978ab3	sub	x21,x15,x9	 x15:0x00617df8  x9:0xfffffff4 x21=0x00617e04
       78895000	      7888	80000920	024e0e13	addi	x28,x28,36	 x28:0x80009f10 x28=0x80009f34
       78905000	      7889	80000924	01865513	srli	x10,x12,0x18	 x12:0x000000f2 x10=0x00000000
       78915000	      7890	80000928	00000013	addi	x0,x0,0	  x0:0x00000000
       78925000	      7891	8000092c	001d0193	addi	x3,x26,1	 x26:0x80000244  x3=0x80000245
       78935000	      7892	80000930	000181e7	jalr	x3,x3,0	  x3:0x80000245  x3=0x80000930
       78945000	      7893	00000000	00000013	addi	x0,x0,0	  x0:0x00000000
       78955000	      7894	80000244	00000013	addi	x0,x0,0	  x0:0x00000000
       78965000	      7895	80000248	ff700493	addi	x9,x0,-9	  x0:0x00000000  x9=0xfffffff7
       78975000	      7896	8000024c	e39aab93	slti	x23,x21,-455	 x21:0x00617e04 x23=0x00000000
       78985000	      7897	80000250	404550b3	sra	x1,x10,x4	 x10:0x00000000  x4:0x00000000  x1=0x00000000
       78995000	      7898	80000254	41a75c93	srai	x25,x14,0x1a	 x14:0xfffffff0 x25=0xffffffff
       79005000	      7899	80000258	fef00513	addi	x10,x0,-17	  x0:0x00000000 x10=0xffffffef
       79015000	      7900	8000025c	01a7bab3	sltu	x21,x15,x26	 x15:0x00617df8 x26:0x80000244 x21=0x00000001
       79025000	      7901	80000260	0107d3b3	srl	x7,x15,x16	 x15:0x00617df8 x16:0x00000000  x7=0x00617df8
       79035000	      7902	80000264	002c7f33	and	x30,x24,x2	 x24:0x284e2000  x2:0xc2fbb2fb x30=0x004a2000
       79045000	      7903	80000268	401c5d93	srai	x27,x24,0x1	 x24:0x284e2000 x27=0x14271000
       79055000	      7904	8000026c	008829b3	slt	x19,x16,x8	 x16:0x00000000  x8:0xe6fbfaff x19=0x00000000
       79065000	      7905	80000270	4e91f193	andi	x3,x3,1257	  x3:0x80000930  x3=0x00000020
       79075000	      7906	80000274	41a30db3	sub	x27,x6,x26	  x6:0x00000001 x26:0x80000244 x27=0x7ffffdbd
       79085000	      7907	80000278	00000013	addi	x0,x0,0	  x0:0x00000000
       79095000	      7908	8000027c	00bebc33	sltu	x24,x29,x11	 x29:0x00000001 x11:0x00000000 x24=0x00000000
       79105000	      7909	80000280	417b5833	sra	x16,x22,x23	 x22:0x00000000 x23:0x00000000 x16=0x00000000
       79115000	      7910	80000284	40bfdb13	srai	x22,x31,0xb	 x31:0x80000000 x22=0xfff00000
       79125000	      7911	80000288	0103b333	sltu	x6,x7,x16	  x7:0x00617df8 x16:0x00000000  x6=0x00000000
       79135000	      7912	8000028c	01c6d3b3	srl	x7,x13,x28	 x13:0xffffc99e x28:0x80009f34  x7=0x00000fff
       79145000	      7913	80000290	01773833	sltu	x16,x14,x23	 x14:0xfffffff0 x23:0x00000000 x16=0x00000000
       79155000	      7914	80000294	cb476113	ori	x2,x14,-844	 x14:0xfffffff0  x2=0xfffffff4
       79165000	      7915	80000298	30c62d13	slti	x26,x12,780	 x12:0x000000f2 x26=0x00000001
       79175000	      7916	8000029c	c6136f13	ori	x30,x6,-927	  x6:0x00000000 x30=0xfffffc61
       79185000	      7917	800002a0	ff848493	addi	x9,x9,-8	  x9:0xfffffff7  x9=0xffffffef
       79195000	      7918	800002a4	00c1bbb3	sltu	x23,x3,x12	  x3:0x00000020 x12:0x000000f2 x23=0x00000001
       79205000	      7919	800002a8	fea490e3	bne	x9,x10,80000288	  x9:0xffffffef x10:0xffffffef
       79215000	      7920	800002ac	00d74633	xor	x12,x14,x13	 x14:0xfffffff0 x13:0xffffc99e x12=0x0000366e
       79225000	      7921	800002b0	ffb00d93	addi	x27,x0,-5	  x0:0x00000000 x27=0xfffffffb
       79235000	      7922	800002b4	be7e2a93	slti	x21,x28,-1049	 x28:0x80009f34 x21=0x00000001
       79245000	      7923	800002b8	018ef7b3	and	x15,x29,x24	 x29:0x00000001 x24:0x00000000 x15=0x00000000
       79255000	      7924	800002bc	04232493	slti	x9,x6,66	  x6:0x00000000  x9=0x00000001
       79265000	      7925	800002c0	410f5813	srai	x16,x30,0x10	 x30:0xfffffc61 x16=0xffffffff
       79275000	      7926	800002c4	ebed5697	auipc	x13,0xebed5	 x13=0x6bed52c0
       79285000	      7927	800002c8	0101db33	srl	x22,x3,x16	  x3:0x00000020 x16:0xffffffff x22=0x00000000
       79295000	      7928	800002cc	01b7d193	srli	x3,x15,0x1b	 x15:0x00000000  x3=0x00000000
       79305000	      7929	800002d0	00035ab3	srl	x21,x6,x0	  x6:0x00000000  x0:0x00000000 x21=0x00000000
       79315000	      7930	800002d4	00dc9233	sll	x4,x25,x13	 x25:0xffffffff x13:0x6bed52c0  x4=0xffffffff
       79325000	      7931	800002d8	40350333	sub	x6,x10,x3	 x10:0xffffffef  x3:0x00000000  x6=0xffffffef
       79335000	      7932	800002dc	e807ac93	slti	x25,x15,-384	 x15:0x00000000 x25=0x00000000
       79345000	      7933	800002e0	40638c33	sub	x24,x7,x6	  x7:0x00000fff  x6:0xffffffef x24=0x00001010
       79355000	      7934	800002e4	001150b3	srl	x1,x2,x1	  x2:0xfffffff4  x1:0x00000000  x1=0xfffffff4
       79365000	      7935	800002e8	00700893	addi	x17,x0,7	  x0:0x00000000 x17=0x00000007
       79375000	      7936	800002ec	739b4c93	xori	x25,x22,1849	 x22:0x00000000 x25=0x00000739
       79385000	      7937	800002f0	4f008913	addi	x18,x1,1264	  x1:0xfffffff4 x18=0x000004e4
       79395000	      7938	800002f4	0116d033	srl	x0,x13,x17	 x13:0x6bed52c0 x17:0x00000007
       79405000	      7939	800002f8	015686b3	add	x13,x13,x21	 x13:0x6bed52c0 x21:0x00000000 x13=0x6bed52c0
       79415000	      7940	800002fc	0126e833	or	x16,x13,x18	 x13:0x6bed52c0 x18:0x000004e4 x16=0x6bed56e4
       79425000	      7941	80000300	001451b3	srl	x3,x8,x1	  x8:0xe6fbfaff  x1:0xfffffff4  x3=0x00000e6f
       79435000	      7942	80000304	00de7bb3	and	x23,x28,x13	 x28:0x80009f34 x13:0x6bed52c0 x23=0x00001200
       79445000	      7943	80000308	00a45913	srli	x18,x8,0xa	  x8:0xe6fbfaff x18=0x0039befe
       79455000	      7944	8000030c	673eaf13	slti	x30,x29,1651	 x29:0x00000001 x30=0x00000001
       79465000	      7945	80000310	004d8d93	addi	x27,x27,4	 x27:0xfffffffb x27=0xffffffff
       79475000	      7946	80000314	fd1d8ee3	beq	x27,x17,800002f0	 x27:0xffffffff x17:0x00000007
       79485000	      7947	80000318	0060b3b3	sltu	x7,x1,x6	  x1:0xfffffff4  x6:0xffffffef  x7=0x00000000
       79495000	      7948	8000031c	ff700613	addi	x12,x0,-9	  x0:0x00000000 x12=0xfffffff7
       79505000	      7949	80000320	ffa00813	addi	x16,x0,-6	  x0:0x00000000 x16=0xfffffffa
       79515000	      7950	80000324	00255593	srli	x11,x10,0x2	 x10:0xffffffef x11=0x3ffffffb
       79525000	      7951	80000328	0024a5b3	slt	x11,x9,x2	  x9:0x00000001  x2:0xfffffff4 x11=0x00000000
       79535000	      7952	8000032c	812c0493	addi	x9,x24,-2030	 x24:0x00001010  x9=0x00000822
       79545000	      7953	80000330	401fd2b3	sra	x5,x31,x1	 x31:0x80000000  x1:0xfffffff4  x5=0xfffff800
       79555000	      7954	80000334	5951bc13	sltiu	x24,x3,1429	  x3:0x00000e6f x24=0x00000000
       79565000	      7955	80000338	00160613	addi	x12,x12,1	 x12:0xfffffff7 x12=0xfffffff8
       79575000	      7956	8000033c	40b35bb3	sra	x23,x6,x11	  x6:0xffffffef x11:0x00000000 x23=0xffffffef
       79585000	      7957	80000340	00000013	addi	x0,x0,0	  x0:0x00000000
       79595000	      7958	80000344	ae2a6693	ori	x13,x20,-1310	 x20:0x80009fc4 x13=0xffffffe6
       79605000	      7959	80000348	000ee933	or	x18,x29,x0	 x29:0x00000001  x0:0x00000000 x18=0x00000001
       79615000	      7960	8000034c	00000013	addi	x0,x0,0	  x0:0x00000000
       79625000	      7961	80000350	ffc00d13	addi	x26,x0,-4	  x0:0x00000000 x26=0xfffffffc
       79635000	      7962	80000354	c5b8f893	andi	x17,x17,-933	 x17:0x00000007 x17=0x00000003
       79645000	      7963	80000358	fff00993	addi	x19,x0,-1	  x0:0x00000000 x19=0xffffffff
       79655000	      7964	8000035c	1ba60893	addi	x17,x12,442	 x12:0xfffffff8 x17=0x000001b2
       79665000	      7965	80000360	7565a093	slti	x1,x11,1878	 x11:0x00000000  x1=0x00000001
       79675000	      7966	80000364	00ad0d13	addi	x26,x26,10	 x26:0xfffffffc x26=0x00000006
       79685000	      7967	80000368	0061fcb3	and	x25,x3,x6	  x3:0x00000e6f  x6:0xffffffef x25=0x00000e6f
       79695000	      7968	8000036c	ff3d4ae3	blt	x26,x19,80000360	 x26:0x00000006 x19:0xffffffff
       79705000	      7969	80000370	0113d513	srli	x10,x7,0x11	  x7:0x00000000 x10=0x00000000
       79715000	      7970	80000374	41d100b3	sub	x1,x2,x29	  x2:0xfffffff4 x29:0x00000001  x1=0xfffffff3
       79725000	      7971	80000378	fb0648e3	blt	x12,x16,80000328	 x12:0xfffffff8 x16:0xfffffffa
       79735000	      7972	00000000	00000013	addi	x0,x0,0	  x0:0x00000000
       79745000	      7973	80000324	00000013	addi	x0,x0,0	  x0:0x00000000
       79755000	      7974	80000328	0024a5b3	slt	x11,x9,x2	  x9:0x00000822  x2:0xfffffff4 x11=0x00000000
       79765000	      7975	8000032c	812c0493	addi	x9,x24,-2030	 x24:0x00000000  x9=0xfffff812
       79775000	      7976	80000330	401fd2b3	sra	x5,x31,x1	 x31:0x80000000  x1:0xfffffff3  x5=0xfffff000
       79785000	      7977	80000334	5951bc13	sltiu	x24,x3,1429	  x3:0x00000e6f x24=0x00000000
       79795000	      7978	80000338	00160613	addi	x12,x12,1	 x12:0xfffffff8 x12=0xfffffff9
       79805000	      7979	8000033c	40b35bb3	sra	x23,x6,x11	  x6:0xffffffef x11:0x00000000 x23=0xffffffef
       79815000	      7980	80000340	00000013	addi	x0,x0,0	  x0:0x00000000
       79825000	      7981	80000344	ae2a6693	ori	x13,x20,-1310	 x20:0x80009fc4 x13=0xffffffe6
       79835000	      7982	80000348	000ee933	or	x18,x29,x0	 x29:0x00000001  x0:0x00000000 x18=0x00000001
       79845000	      7983	8000034c	00000013	addi	x0,x0,0	  x0:0x00000000
       79855000	      7984	80000350	ffc00d13	addi	x26,x0,-4	  x0:0x00000000 x26=0xfffffffc
       79865000	      7985	80000354	c5b8f893	andi	x17,x17,-933	 x17:0x000001b2 x17=0x00000012
       79875000	      7986	80000358	fff00993	addi	x19,x0,-1	  x0:0x00000000 x19=0xffffffff
       79885000	      7987	8000035c	1ba60893	addi	x17,x12,442	 x12:0xfffffff9 x17=0x000001b3
       79895000	      7988	80000360	7565a093	slti	x1,x11,1878	 x11:0x00000000  x1=0x00000001
       79905000	      7989	80000364	00ad0d13	addi	x26,x26,10	 x26:0xfffffffc x26=0x00000006
       79915000	      7990	80000368	0061fcb3	and	x25,x3,x6	  x3:0x00000e6f  x6:0xffffffef x25=0x00000e6f
       79925000	      7991	8000036c	ff3d4ae3	blt	x26,x19,80000360	 x26:0x00000006 x19:0xffffffff
       79935000	      7992	80000370	0113d513	srli	x10,x7,0x11	  x7:0x00000000 x10=0x00000000
       79945000	      7993	80000374	41d100b3	sub	x1,x2,x29	  x2:0xfffffff4 x29:0x00000001  x1=0xfffffff3
       79955000	      7994	80000378	fb0648e3	blt	x12,x16,80000328	 x12:0xfffffff9 x16:0xfffffffa
       79965000	      7995	00000000	00000013	addi	x0,x0,0	  x0:0x00000000
       79975000	      7996	80000324	00000013	addi	x0,x0,0	  x0:0x00000000
       79985000	      7997	80000328	0024a5b3	slt	x11,x9,x2	  x9:0xfffff812  x2:0xfffffff4 x11=0x00000001
       79995000	      7998	8000032c	812c0493	addi	x9,x24,-2030	 x24:0x00000000  x9=0xfffff812
       80005000	      7999	80000330	401fd2b3	sra	x5,x31,x1	 x31:0x80000000  x1:0xfffffff3  x5=0xfffff000
       80015000	      8000	80000334	5951bc13	sltiu	x24,x3,1429	  x3:0x00000e6f x24=0x00000000
       80025000	      8001	80000338	00160613	addi	x12,x12,1	 x12:0xfffffff9 x12=0xfffffffa
       80035000	      8002	8000033c	40b35bb3	sra	x23,x6,x11	  x6:0xffffffef x11:0x00000001 x23=0xfffffff7
       80045000	      8003	80000340	00000013	addi	x0,x0,0	  x0:0x00000000
       80055000	      8004	80000344	ae2a6693	ori	x13,x20,-1310	 x20:0x80009fc4 x13=0xffffffe6
       80065000	      8005	80000348	000ee933	or	x18,x29,x0	 x29:0x00000001  x0:0x00000000 x18=0x00000001
       80075000	      8006	8000034c	00000013	addi	x0,x0,0	  x0:0x00000000
       80085000	      8007	80000350	ffc00d13	addi	x26,x0,-4	  x0:0x00000000 x26=0xfffffffc
       80095000	      8008	80000354	c5b8f893	andi	x17,x17,-933	 x17:0x000001b3 x17=0x00000013
       80105000	      8009	80000358	fff00993	addi	x19,x0,-1	  x0:0x00000000 x19=0xffffffff
       80115000	      8010	8000035c	1ba60893	addi	x17,x12,442	 x12:0xfffffffa x17=0x000001b4
       80125000	      8011	80000360	7565a093	slti	x1,x11,1878	 x11:0x00000001  x1=0x00000001
       80135000	      8012	80000364	00ad0d13	addi	x26,x26,10	 x26:0xfffffffc x26=0x00000006
       80145000	      8013	80000368	0061fcb3	and	x25,x3,x6	  x3:0x00000e6f  x6:0xffffffef x25=0x00000e6f
       80155000	      8014	8000036c	ff3d4ae3	blt	x26,x19,80000360	 x26:0x00000006 x19:0xffffffff
       80165000	      8015	80000370	0113d513	srli	x10,x7,0x11	  x7:0x00000000 x10=0x00000000
       80175000	      8016	80000374	41d100b3	sub	x1,x2,x29	  x2:0xfffffff4 x29:0x00000001  x1=0xfffffff3
       80185000	      8017	80000378	fb0648e3	blt	x12,x16,80000328	 x12:0xfffffffa x16:0xfffffffa
       80195000	      8018	8000037c	002bdc93	srli	x25,x23,0x2	 x23:0xfffffff7 x25=0x3ffffffd
       80205000	      8019	80000380	011b9e93	slli	x29,x23,0x11	 x23:0xfffffff7 x29=0xffee0000
       80215000	      8020	80000384	04f9c863	blt	x19,x15,800003d4	 x19:0xffffffff x15:0x00000000
       80225000	      8021	00000000	00000013	addi	x0,x0,0	  x0:0x00000000
       80235000	      8022	800003d0	00000013	addi	x0,x0,0	  x0:0x00000000
       80245000	      8023	800003d4	41b254b3	sra	x9,x4,x27	  x4:0xffffffff x27:0xffffffff  x9=0xffffffff
       80255000	      8024	800003d8	00bc5293	srli	x5,x24,0xb	 x24:0x00000000  x5=0x00000000
       80265000	      8025	800003dc	0118a833	slt	x16,x17,x17	 x17:0x000001b4 x17:0x000001b4 x16=0x00000000
       80275000	      8026	800003e0	00205663	bge	x0,x2,800003ec	  x0:0x00000000  x2:0xfffffff4
       80285000	      8027	00000000	00000013	addi	x0,x0,0	  x0:0x00000000
       80295000	      8028	800003e8	00000013	addi	x0,x0,0	  x0:0x00000000
       80305000	      8029	800003ec	00000013	addi	x0,x0,0	  x0:0x00000000
       80315000	      8030	800003f0	5775ad13	slti	x26,x11,1399	 x11:0x00000001 x26=0x00000001
       80325000	      8031	800003f4	0042a933	slt	x18,x5,x4	  x5:0x00000000  x4:0xffffffff x18=0x00000000
       80335000	      8032	800003f8	097d3c13	sltiu	x24,x26,151	 x26:0x00000001 x24=0x00000001
       80345000	      8033	800003fc	40a7d033	sra	x0,x15,x10	 x15:0x00000000 x10:0x00000000
       80355000	      8034	80000400	2547fc13	andi	x24,x15,596	 x15:0x00000000 x24=0x00000000
       80365000	      8035	80000404	405bd113	srai	x2,x23,0x5	 x23:0xfffffff7  x2=0xffffffff
       80375000	      8036	80000408	00c41133	sll	x2,x8,x12	  x8:0xe6fbfaff x12:0xfffffffa  x2=0xfc000000
       80385000	      8037	8000040c	00000013	addi	x0,x0,0	  x0:0x00000000
       80395000	      8038	80000410	008828b3	slt	x17,x16,x8	 x16:0x00000000  x8:0xe6fbfaff x17=0x00000000
       80405000	      8039	80000414	02004e63	blt	x0,x0,80000450	  x0:0x00000000  x0:0x00000000
       80415000	      8040	80000418	0d413917	auipc	x18,0xd413	 x18=0x8d413414
       80425000	      8041	8000041c	01b18c63	beq	x3,x27,80000434	  x3:0x00000e6f x27:0xffffffff
       80435000	      8042	80000420	012bc933	xor	x18,x23,x18	 x23:0xfffffff7 x18:0x8d413414 x18=0x72becbe3
       80445000	      8043	80000424	0173c263	blt	x7,x23,80000428	  x7:0x00000000 x23:0xfffffff7
       80455000	      8044	80000428	1d36a913	slti	x18,x13,467	 x13:0xffffffe6 x18=0x00000001
       80465000	      8045	8000042c	efb47193	andi	x3,x8,-261	  x8:0xe6fbfaff  x3=0xe6fbfafb
       80475000	      8046	80000430	00068db3	add	x27,x13,x0	 x13:0xffffffe6  x0:0x00000000 x27=0xffffffe6
       80485000	      8047	80000434	eef2cb13	xori	x22,x5,-273	  x5:0x00000000 x22=0xfffffeef
       80495000	      8048	80000438	003f47b3	xor	x15,x30,x3	 x30:0x00000001  x3:0xe6fbfafb x15=0xe6fbfafa
       80505000	      8049	8000043c	42cfeb13	ori	x22,x31,1068	 x31:0x80000000 x22=0x8000042c
       80515000	      8050	80000440	00000013	addi	x0,x0,0	  x0:0x00000000
       80525000	      8051	80000444	01835a63	bge	x6,x24,80000458	  x6:0xffffffef x24:0x00000000
       80535000	      8052	80000448	4007d7b3	sra	x15,x15,x0	 x15:0xe6fbfafa  x0:0x00000000 x15=0xe6fbfafa
       80545000	      8053	8000044c	417e84b3	sub	x9,x29,x23	 x29:0xffee0000 x23:0xfffffff7  x9=0xffee0009
       80555000	      8054	80000450	4054d013	srai	x0,x9,0x5	  x9:0xffee0009
       80565000	      8055	80000454	73ab5737	lui	x14,0x73ab5	 x14=0x73ab5000
       80575000	      8056	80000458	023a5a63	bge	x20,x3,8000048c	 x20:0x80009fc4  x3:0xe6fbfafb
       80585000	      8057	8000045c	0058d613	srli	x12,x17,0x5	 x17:0x00000000 x12=0x00000000
       80595000	      8058	80000460	b35f3713	sltiu	x14,x30,-1227	 x30:0x00000001 x14=0x00000001
       80605000	      8059	80000464	00ea05b3	add	x11,x20,x14	 x20:0x80009fc4 x14:0x00000001 x11=0x80009fc5
       80615000	      8060	80000468	01efcd33	xor	x26,x31,x30	 x31:0x80000000 x30:0x00000001 x26=0x80000001
       80625000	      8061	8000046c	0078b533	sltu	x10,x17,x7	 x17:0x00000000  x7:0x00000000 x10=0x00000000
       80635000	      8062	80000470	5a6ce0b7	lui	x1,0x5a6ce	  x1=0x5a6ce000
       80645000	      8063	80000474	01a38e63	beq	x7,x26,80000490	  x7:0x00000000 x26:0x80000001
       80655000	      8064	80000478	01f05113	srli	x2,x0,0x1f	  x0:0x00000000  x2=0x00000000
       80665000	      8065	8000047c	009b7263	bgeu	x22,x9,80000480	 x22:0x8000042c  x9:0xffee0009
       80675000	      8066	80000480	00852433	slt	x8,x10,x8	 x10:0x00000000  x8:0xe6fbfaff  x8=0x00000000
       80685000	      8067	80000484	00364a63	blt	x12,x3,80000498	 x12:0x00000000  x3:0xe6fbfafb
       80695000	      8068	80000488	a71e0b93	addi	x23,x28,-1423	 x28:0x80009f34 x23=0x800099a5
       80705000	      8069	8000048c	00000013	addi	x0,x0,0	  x0:0x00000000
       80715000	      8070	80000490	01869033	sll	x0,x13,x24	 x13:0xffffffe6 x24:0x00000000
       80725000	      8071	80000494	d0c3c513	xori	x10,x7,-756	  x7:0x00000000 x10=0xfffffd0c
       80735000	      8072	80000498	02736263	bltu	x6,x7,800004bc	  x6:0xffffffef  x7:0x00000000
       80745000	      8073	8000049c	00fc1eb3	sll	x29,x24,x15	 x24:0x00000000 x15:0xe6fbfafa x29=0x00000000
       80755000	      8074	800004a0	09e87c93	andi	x25,x16,158	 x16:0x00000000 x25=0x00000000
       80765000	      8075	800004a4	3b186993	ori	x19,x16,945	 x16:0x00000000 x19=0x000003b1
       80775000	      8076	800004a8	015f8463	beq	x31,x21,800004b0	 x31:0x80000000 x21:0x00000000
       80785000	      8077	800004ac	03a38463	beq	x7,x26,800004d4	  x7:0x00000000 x26:0x80000001
       80795000	      8078	800004b0	fce85d37	lui	x26,0xfce85	 x26=0xfce85000
       80805000	      8079	800004b4	40625c13	srai	x24,x4,0x6	  x4:0xffffffff x24=0xffffffff
       80815000	      8080	800004b8	00000013	addi	x0,x0,0	  x0:0x00000000
       80825000	      8081	800004bc	017dee63	bltu	x27,x23,800004d8	 x27:0xffffffe6 x23:0x800099a5
       80835000	      8082	800004c0	0440d663	bge	x1,x4,8000050c	  x1:0x5a6ce000  x4:0xffffffff
       80845000	      8083	00000000	00000013	addi	x0,x0,0	  x0:0x00000000
       80855000	      8084	80000508	00000013	addi	x0,x0,0	  x0:0x00000000
       80865000	      8085	8000050c	6c48de97	auipc	x29,0x6c48d	 x29=0xec48d508
       80875000	      8086	80000510	41685d93	srai	x27,x16,0x16	 x16:0x00000000 x27=0x00000000
       80885000	      8087	80000514	e540a837	lui	x16,0xe540a	 x16=0xe540a000
       80895000	      8088	80000518	01759863	bne	x11,x23,80000528	 x11:0x80009fc5 x23:0x800099a5
       80905000	      8089	00000000	00000013	addi	x0,x0,0	  x0:0x00000000
       80915000	      8090	80000524	00000013	addi	x0,x0,0	  x0:0x00000000
       80925000	      8091	80000528	9048f193	andi	x3,x17,-1788	 x17:0x00000000  x3=0x00000000
       80935000	      8092	8000052c	00b9d113	srli	x2,x19,0xb	 x19:0x000003b1  x2=0x00000000
       80945000	      8093	80000530	00e716b3	sll	x13,x14,x14	 x14:0x00000001 x14:0x00000001 x13=0x00000002
       80955000	      8094	80000534	01450c33	add	x24,x10,x20	 x10:0xfffffd0c x20:0x80009fc4 x24=0x80009cd0
       80965000	      8095	80000538	3bca8213	addi	x4,x21,956	 x21:0x00000000  x4=0x000003bc
       80975000	      8096	8000053c	01486a63	bltu	x16,x20,80000550	 x16:0xe540a000 x20:0x80009fc4
       80985000	      8097	80000540	02847263	bgeu	x8,x8,80000564	  x8:0x00000000  x8:0x00000000
       80995000	      8098	00000000	00000013	addi	x0,x0,0	  x0:0x00000000
       81005000	      8099	80000560	00000013	addi	x0,x0,0	  x0:0x00000000
       81015000	      8100	80000564	7296e397	auipc	x7,0x7296e	  x7=0xf296e560
       81025000	      8101	80000568	01c66f33	or	x30,x12,x28	 x12:0x00000000 x28:0x80009f34 x30=0x80009f34
       81035000	      8102	8000056c	01c4cdb3	xor	x27,x9,x28	  x9:0xffee0009 x28:0x80009f34 x27=0x7fee9f3d
       81045000	      8103	80000570	234b2d97	auipc	x27,0x234b2	 x27=0xa34b256c
       81055000	      8104	80000574	019d2533	slt	x10,x26,x25	 x26:0xfce85000 x25:0x00000000 x10=0x00000001
       81065000	      8105	80000578	01ec5593	srli	x11,x24,0x1e	 x24:0x80009cd0 x11=0x00000002
       81075000	      8106	8000057c	857bfb93	andi	x23,x23,-1961	 x23:0x800099a5 x23=0x80009805
       81085000	      8107	80000580	01b20eb3	add	x29,x4,x27	  x4:0x000003bc x27:0xa34b256c x29=0xa34b2928
       81095000	      8108	80000584	00a08133	add	x2,x1,x10	  x1:0x5a6ce000 x10:0x00000001  x2=0x5a6ce001
       81105000	      8109	80000588	013f4e63	blt	x30,x19,800005a4	 x30:0x80009f34 x19:0x000003b1
       81115000	      8110	00000000	00000013	addi	x0,x0,0	  x0:0x00000000
       81125000	      8111	800005a0	00000013	addi	x0,x0,0	  x0:0x00000000
       81135000	      8112	800005a4	01771633	sll	x12,x14,x23	 x14:0x00000001 x23:0x80009805 x12=0x00000020
       81145000	      8113	800005a8	41b88133	sub	x2,x17,x27	 x17:0x00000000 x27:0xa34b256c  x2=0x5cb4da94
       81155000	      8114	800005ac	cfa36a93	ori	x21,x6,-774	  x6:0xffffffef x21=0xffffffff
       81165000	      8115	800005b0	000dd333	srl	x6,x27,x0	 x27:0xa34b256c  x0:0x00000000  x6=0xa34b256c
       81175000	      8116	800005b4	e8314b93	xori	x23,x2,-381	  x2:0x5cb4da94 x23=0xa34b2417
       81185000	      8117	800005b8	40415513	srai	x10,x2,0x4	  x2:0x5cb4da94 x10=0x05cb4da9
       81195000	      8118	800005bc	b42815b7	lui	x11,0xb4281	 x11=0xb4281000
       81205000	      8119	800005c0	008df433	and	x8,x27,x8	 x27:0xa34b256c  x8:0x00000000  x8=0x00000000
       81215000	      8120	800005c4	01a1b7b3	sltu	x15,x3,x26	  x3:0x00000000 x26:0xfce85000 x15=0x00000001
       81225000	      8121	800005c8	419e8db3	sub	x27,x29,x25	 x29:0xa34b2928 x25:0x00000000 x27=0xa34b2928
       81235000	      8122	800005cc	01624c63	blt	x4,x22,800005e4	  x4:0x000003bc x22:0x8000042c
       81245000	      8123	800005d0	01798e63	beq	x19,x23,800005ec	 x19:0x000003b1 x23:0xa34b2417
       81255000	      8124	800005d4	00fad033	srl	x0,x21,x15	 x21:0xffffffff x15:0x00000001
       81265000	      8125	800005d8	01946833	or	x16,x8,x25	  x8:0x00000000 x25:0x00000000 x16=0x00000000
       81275000	      8126	800005dc	a49b0493	addi	x9,x22,-1463	 x22:0x8000042c  x9=0x7ffffe75
       81285000	      8127	800005e0	01161d33	sll	x26,x12,x17	 x12:0x00000020 x17:0x00000000 x26=0x00000020
       81295000	      8128	800005e4	0074beb3	sltu	x29,x9,x7	  x9:0x7ffffe75  x7:0xf296e560 x29=0x00000001
       81305000	      8129	800005e8	010b00b3	add	x1,x22,x16	 x22:0x8000042c x16:0x00000000  x1=0x8000042c
       81315000	      8130	800005ec	40c7dc13	srai	x24,x15,0xc	 x15:0x00000001 x24=0x00000000
       81325000	      8131	800005f0	0017b8b3	sltu	x17,x15,x1	 x15:0x00000001  x1:0x8000042c x17=0x00000001
       81335000	      8132	800005f4	017cd293	srli	x5,x25,0x17	 x25:0x00000000  x5=0x00000000
       81345000	      8133	800005f8	017a9813	slli	x16,x21,0x17	 x21:0xffffffff x16=0xff800000
       81355000	      8134	800005fc	01d775b3	and	x11,x14,x29	 x14:0x00000001 x29:0x00000001 x11=0x00000001
       81365000	      8135	80000600	01e26a63	bltu	x4,x30,80000614	  x4:0x000003bc x30:0x80009f34
       81375000	      8136	00000000	00000013	addi	x0,x0,0	  x0:0x00000000
       81385000	      8137	80000610	00000013	addi	x0,x0,0	  x0:0x00000000
       81395000	      8138	80000614	02b95063	bge	x18,x11,80000634	 x18:0x00000001 x11:0x00000001
       81405000	      8139	00000000	00000013	addi	x0,x0,0	  x0:0x00000000
       81415000	      8140	80000630	00000013	addi	x0,x0,0	  x0:0x00000000
       81425000	      8141	80000634	00cafa63	bgeu	x21,x12,80000648	 x21:0xffffffff x12:0x00000020
       81435000	      8142	00000000	00000013	addi	x0,x0,0	  x0:0x00000000
       81445000	      8143	80000644	00000013	addi	x0,x0,0	  x0:0x00000000
       81455000	      8144	80000648	3840af13	slti	x30,x1,900	  x1:0x8000042c x30=0x00000001
       81465000	      8145	8000064c	4151dc33	sra	x24,x3,x21	  x3:0x00000000 x21:0xffffffff x24=0x00000000
       81475000	      8146	80000650	db50f393	andi	x7,x1,-587	  x1:0x8000042c  x7=0x80000424
       81485000	      8147	80000654	019d0cb3	add	x25,x26,x25	 x26:0x00000020 x25:0x00000000 x25=0x00000020
       81495000	      8148	80000658	60f57193	andi	x3,x10,1551	 x10:0x05cb4da9  x3=0x00000409
       81505000	      8149	8000065c	011e8f33	add	x30,x29,x17	 x29:0x00000001 x17:0x00000001 x30=0x00000002
       81515000	      8150	80000660	00a42333	slt	x6,x8,x10	  x8:0x00000000 x10:0x05cb4da9  x6=0x00000001
       81525000	      8151	80000664	00000013	addi	x0,x0,0	  x0:0x00000000
       81535000	      8152	80000668	004e2d03	lw	x26,4(x28)	 x28:0x80009f34 x26=0x8000212c PA:0x80009f38
       81545000	      8153	8000066c	e9fc4213	xori	x4,x24,-353	 x24:0x00000000  x4=0xfffffe9f
       81555000	      8154	80000670	00ce0e13	addi	x28,x28,12	 x28:0x80009f34 x28=0x80009f40
       81565000	      8155	80000674	1eec2313	slti	x6,x24,494	 x24:0x00000000  x6=0x00000001
       81575000	      8156	80000678	001d0913	addi	x18,x26,1	 x26:0x8000212c x18=0x8000212d
       81585000	      8157	8000067c	00090967	jalr	x18,x18,0	 x18:0x8000212d x18=0x8000067c
       81595000	      8158	00000000	00000013	addi	x0,x0,0	  x0:0x00000000
       81605000	      8159	8000212c	00000013	addi	x0,x0,0	  x0:0x00000000
       81615000	      8160	80002130	01d9f9b3	and	x19,x19,x29	 x19:0x000003b1 x29:0x00000001 x19=0x00000001
       81625000	      8161	80002134	043a8863	beq	x21,x3,80002184	 x21:0xffffffff  x3:0x00000409
       81635000	      8162	80002138	a1316813	ori	x16,x2,-1517	  x2:0x5cb4da94 x16=0xfffffa97
       81645000	      8163	8000213c	fb9f2c13	slti	x24,x30,-71	 x30:0x00000002 x24=0x00000000
       81655000	      8164	80002140	23348ab7	lui	x21,0x23348	 x21=0x23348000
       81665000	      8165	80002144	05fe5263	bge	x28,x31,80002188	 x28:0x80009f40 x31:0x80000000
       81675000	      8166	00000000	00000013	addi	x0,x0,0	  x0:0x00000000
       81685000	      8167	80002184	00000013	addi	x0,x0,0	  x0:0x00000000
       81695000	      8168	80002188	5fd8c237	lui	x4,0x5fd8c	  x4=0x5fd8c000
       81705000	      8169	8000218c	01ecc3b3	xor	x7,x25,x30	 x25:0x00000020 x30:0x00000002  x7=0x00000022
       81715000	      8170	80002190	00724ab3	xor	x21,x4,x7	  x4:0x5fd8c000  x7:0x00000022 x21=0x5fd8c022
       81725000	      8171	80002194	00700d13	addi	x26,x0,7	  x0:0x00000000 x26=0x00000007
       81735000	      8172	80002198	40bb0133	sub	x2,x22,x11	 x22:0x8000042c x11:0x00000001  x2=0x8000042b
       81745000	      8173	8000219c	00900d93	addi	x27,x0,9	  x0:0x00000000 x27=0x00000009
       81755000	      8174	800021a0	30bcc1b7	lui	x3,0x30bcc	  x3=0x30bcc000
       81765000	      8175	800021a4	01f3db93	srli	x23,x7,0x1f	  x7:0x00000022 x23=0x00000000
       81775000	      8176	800021a8	7aebb693	sltiu	x13,x23,1966	 x23:0x00000000 x13=0x00000001
       81785000	      8177	800021ac	00a71b93	slli	x23,x14,0xa	 x14:0x00000001 x23=0x00000400
       81795000	      8178	800021b0	a2dec293	xori	x5,x29,-1491	 x29:0x00000001  x5=0xfffffa2c
       81805000	      8179	800021b4	002d0d13	addi	x26,x26,2	 x26:0x00000007 x26=0x00000009
       81815000	      8180	800021b8	00700c93	addi	x25,x0,7	  x0:0x00000000 x25=0x00000007
       81825000	      8181	800021bc	40fa53b3	sra	x7,x20,x15	 x20:0x80009fc4 x15:0x00000001  x7=0xc0004fe2
       81835000	      8182	800021c0	01300e93	addi	x29,x0,19	  x0:0x00000000 x29=0x00000013
       81845000	      8183	800021c4	0171d713	srli	x14,x3,0x17	  x3:0x30bcc000 x14=0x00000061
       81855000	      8184	800021c8	000915b3	sll	x11,x18,x0	 x18:0x8000067c  x0:0x00000000 x11=0x8000067c
       81865000	      8185	800021cc	41bbd7b3	sra	x15,x23,x27	 x23:0x00000400 x27:0x00000009 x15=0x00000002
       81875000	      8186	800021d0	a3dab913	sltiu	x18,x21,-1475	 x21:0x5fd8c022 x18=0x00000001
       81885000	      8187	800021d4	54d18713	addi	x14,x3,1357	  x3:0x30bcc000 x14=0x30bcc54d
       81895000	      8188	800021d8	009e9633	sll	x12,x29,x9	 x29:0x00000013  x9:0x7ffffe75 x12=0x02600000
       81905000	      8189	800021dc	004c8c93	addi	x25,x25,4	 x25:0x00000007 x25=0x0000000b
       81915000	      8190	800021e0	0090d013	srli	x0,x1,0x9	  x1:0x8000042c
       81925000	      8191	800021e4	ffdce6e3	bltu	x25,x29,800021d0	 x25:0x0000000b x29:0x00000013
       81935000	      8192	00000000	00000013	addi	x0,x0,0	  x0:0x00000000
       81945000	      8193	800021cc	00000013	addi	x0,x0,0	  x0:0x00000000
       81955000	      8194	800021d0	a3dab913	sltiu	x18,x21,-1475	 x21:0x5fd8c022 x18=0x00000001
       81965000	      8195	800021d4	54d18713	addi	x14,x3,1357	  x3:0x30bcc000 x14=0x30bcc54d
       81975000	      8196	800021d8	009e9633	sll	x12,x29,x9	 x29:0x00000013  x9:0x7ffffe75 x12=0x02600000
       81985000	      8197	800021dc	004c8c93	addi	x25,x25,4	 x25:0x0000000b x25=0x0000000f
       81995000	      8198	800021e0	0090d013	srli	x0,x1,0x9	  x1:0x8000042c
       82005000	      8199	800021e4	ffdce6e3	bltu	x25,x29,800021d0	 x25:0x0000000f x29:0x00000013
       82015000	      8200	00000000	00000013	addi	x0,x0,0	  x0:0x00000000
       82025000	      8201	800021cc	00000013	addi	x0,x0,0	  x0:0x00000000
       82035000	      8202	800021d0	a3dab913	sltiu	x18,x21,-1475	 x21:0x5fd8c022 x18=0x00000001
       82045000	      8203	800021d4	54d18713	addi	x14,x3,1357	  x3:0x30bcc000 x14=0x30bcc54d
       82055000	      8204	800021d8	009e9633	sll	x12,x29,x9	 x29:0x00000013  x9:0x7ffffe75 x12=0x02600000
       82065000	      8205	800021dc	004c8c93	addi	x25,x25,4	 x25:0x0000000f x25=0x00000013
       82075000	      8206	800021e0	0090d013	srli	x0,x1,0x9	  x1:0x8000042c
       82085000	      8207	800021e4	ffdce6e3	bltu	x25,x29,800021d0	 x25:0x00000013 x29:0x00000013
       82095000	      8208	800021e8	fdbd10e3	bne	x26,x27,800021a8	 x26:0x00000009 x27:0x00000009
       82105000	      8209	800021ec	01e184b3	add	x9,x3,x30	  x3:0x30bcc000 x30:0x00000002  x9=0x30bcc002
       82115000	      8210	800021f0	01180c63	beq	x16,x17,80002208	 x16:0xfffffa97 x17:0x00000001
       82125000	      8211	800021f4	01352733	slt	x14,x10,x19	 x10:0x05cb4da9 x19:0x00000001 x14=0x00000000
       82135000	      8212	800021f8	40e807b3	sub	x15,x16,x14	 x16:0xfffffa97 x14:0x00000000 x15=0xfffffa97
       82145000	      8213	800021fc	00f81c63	bne	x16,x15,80002214	 x16:0xfffffa97 x15:0xfffffa97
       82155000	      8214	80002200	00e1c2b3	xor	x5,x3,x14	  x3:0x30bcc000 x14:0x00000000  x5=0x30bcc000
       82165000	      8215	80002204	5cff2493	slti	x9,x30,1487	 x30:0x00000002  x9=0x00000001
       82175000	      8216	80002208	c2831d37	lui	x26,0xc2831	 x26=0xc2831000
       82185000	      8217	8000220c	39ad3513	sltiu	x10,x26,922	 x26:0xc2831000 x10=0x00000000
       82195000	      8218	80002210	01edf9b3	and	x19,x27,x30	 x27:0x00000009 x30:0x00000002 x19=0x00000000
       82205000	      8219	80002214	01b71693	slli	x13,x14,0x1b	 x14:0x00000000 x13=0x00000000
       82215000	      8220	80002218	1d527997	auipc	x19,0x1d527	 x19=0x9d529214
       82225000	      8221	8000221c	af93b913	sltiu	x18,x7,-1287	  x7:0xc0004fe2 x18=0x00000001
       82235000	      8222	80002220	01ad1513	slli	x10,x26,0x1a	 x26:0xc2831000 x10=0x00000000
       82245000	      8223	80002224	c52666b7	lui	x13,0xc5266	 x13=0xc5266000
       82255000	      8224	80002228	218b8193	addi	x3,x23,536	 x23:0x00000400  x3=0x00000618
       82265000	      8225	8000222c	018f1033	sll	x0,x30,x24	 x30:0x00000002 x24:0x00000000
       82275000	      8226	80002230	01aa1133	sll	x2,x20,x26	 x20:0x80009fc4 x26:0xc2831000  x2=0x80009fc4
       82285000	      8227	80002234	00f7ff33	and	x30,x15,x15	 x15:0xfffffa97 x15:0xfffffa97 x30=0xfffffa97
       82295000	      8228	80002238	4169d1b3	sra	x3,x19,x22	 x19:0x9d529214 x22:0x8000042c  x3=0xfff9d529
       82305000	      8229	8000223c	4006d433	sra	x8,x13,x0	 x13:0xc5266000  x0:0x00000000  x8=0xc5266000
       82315000	      8230	80002240	707e0313	addi	x6,x28,1799	 x28:0x80009f40  x6=0x8000a647
       82325000	      8231	80002244	08915863	bge	x2,x9,800022d4	  x2:0x80009fc4  x9:0x00000001
       82335000	      8232	80002248	94f8e193	ori	x3,x17,-1713	 x17:0x00000001  x3=0xfffff94f
       82345000	      8233	8000224c	a3f3f393	andi	x7,x7,-1473	  x7:0xc0004fe2  x7=0xc0004a22
       82355000	      8234	80002250	cb446813	ori	x16,x8,-844	  x8:0xc5266000 x16=0xfffffcb4
       82365000	      8235	80002254	01e72db3	slt	x27,x14,x30	 x14:0x00000000 x30:0xfffffa97 x27=0x00000000
       82375000	      8236	80002258	409a5013	srai	x0,x20,0x9	 x20:0x80009fc4
       82385000	      8237	8000225c	ffd00613	addi	x12,x0,-3	  x0:0x00000000 x12=0xfffffffd
       82395000	      8238	80002260	01054033	xor	x0,x10,x16	 x10:0x00000000 x16:0xfffffcb4
       82405000	      8239	80002264	00800b93	addi	x23,x0,8	  x0:0x00000000 x23=0x00000008
       82415000	      8240	80002268	00f38233	add	x4,x7,x15	  x7:0xc0004a22 x15:0xfffffa97  x4=0xc00044b9
       82425000	      8241	8000226c	fb788b13	addi	x22,x17,-73	 x17:0x00000001 x22=0xffffffb8
       82435000	      8242	80002270	01a35b33	srl	x22,x6,x26	  x6:0x8000a647 x26:0xc2831000 x22=0x8000a647
       82445000	      8243	80002274	0138a433	slt	x8,x17,x19	 x17:0x00000001 x19:0x9d529214  x8=0x00000000
       82455000	      8244	80002278	1979f813	andi	x16,x19,407	 x19:0x9d529214 x16=0x00000014
       82465000	      8245	8000227c	0021e1b3	or	x3,x3,x2	  x3:0xfffff94f  x2:0x80009fc4  x3=0xffffffcf
       82475000	      8246	80002280	00a60613	addi	x12,x12,10	 x12:0xfffffffd x12=0x00000007
       82485000	      8247	80002284	00900093	addi	x1,x0,9	  x0:0x00000000  x1=0x00000009
       82495000	      8248	80002288	0116e333	or	x6,x13,x17	 x13:0xc5266000 x17:0x00000001  x6=0xc5266001
       82505000	      8249	8000228c	00600693	addi	x13,x0,6	  x0:0x00000000 x13=0x00000006
       82515000	      8250	80002290	00000013	addi	x0,x0,0	  x0:0x00000000
       82525000	      8251	80002294	37506493	ori	x9,x0,885	  x0:0x00000000  x9=0x00000375
       82535000	      8252	80002298	5ae26313	ori	x6,x4,1454	  x4:0xc00044b9  x6=0xc00045bf
       82545000	      8253	8000229c	ffc08093	addi	x1,x1,-4	  x1:0x00000009  x1=0x00000005
       82555000	      8254	800022a0	b1428137	lui	x2,0xb1428	  x2=0xb1428000
       82565000	      8255	800022a4	fed0f8e3	bgeu	x1,x13,80002294	  x1:0x00000005 x13:0x00000006
       82575000	      8256	800022a8	00f69793	slli	x15,x13,0xf	 x13:0x00000006 x15=0x00030000
       82585000	      8257	800022ac	fd7646e3	blt	x12,x23,80002278	 x12:0x00000007 x23:0x00000008
       82595000	      8258	00000000	00000013	addi	x0,x0,0	  x0:0x00000000
       82605000	      8259	80002274	00000013	addi	x0,x0,0	  x0:0x00000000
       82615000	      8260	80002278	1979f813	andi	x16,x19,407	 x19:0x9d529214 x16=0x00000014
       82625000	      8261	8000227c	0021e1b3	or	x3,x3,x2	  x3:0xffffffcf  x2:0xb1428000  x3=0xffffffcf
       82635000	      8262	80002280	00a60613	addi	x12,x12,10	 x12:0x00000007 x12=0x00000011
       82645000	      8263	80002284	00900093	addi	x1,x0,9	  x0:0x00000000  x1=0x00000009
       82655000	      8264	80002288	0116e333	or	x6,x13,x17	 x13:0x00000006 x17:0x00000001  x6=0x00000007
       82665000	      8265	8000228c	00600693	addi	x13,x0,6	  x0:0x00000000 x13=0x00000006
       82675000	      8266	80002290	00000013	addi	x0,x0,0	  x0:0x00000000
       82685000	      8267	80002294	37506493	ori	x9,x0,885	  x0:0x00000000  x9=0x00000375
       82695000	      8268	80002298	5ae26313	ori	x6,x4,1454	  x4:0xc00044b9  x6=0xc00045bf
       82705000	      8269	8000229c	ffc08093	addi	x1,x1,-4	  x1:0x00000009  x1=0x00000005
       82715000	      8270	800022a0	b1428137	lui	x2,0xb1428	  x2=0xb1428000
       82725000	      8271	800022a4	fed0f8e3	bgeu	x1,x13,80002294	  x1:0x00000005 x13:0x00000006
       82735000	      8272	800022a8	00f69793	slli	x15,x13,0xf	 x13:0x00000006 x15=0x00030000
       82745000	      8273	800022ac	fd7646e3	blt	x12,x23,80002278	 x12:0x00000011 x23:0x00000008
       82755000	      8274	800022b0	01aeb9b3	sltu	x19,x29,x26	 x29:0x00000013 x26:0xc2831000 x19=0x00000001
       82765000	      8275	800022b4	01f94db3	xor	x27,x18,x31	 x18:0x00000001 x31:0x80000000 x27=0x80000001
       82775000	      8276	800022b8	54856493	ori	x9,x10,1352	 x10:0x00000000  x9=0x00000548
       82785000	      8277	800022bc	07294c63	blt	x18,x18,80002334	 x18:0x00000001 x18:0x00000001
       82795000	      8278	800022c0	40095993	srai	x19,x18,0x0	 x18:0x00000001 x19=0x00000001
       82805000	      8279	800022c4	001e9393	slli	x7,x29,0x1	 x29:0x00000013  x7=0x00000026
       82815000	      8280	800022c8	403ad413	srai	x8,x21,0x3	 x21:0x5fd8c022  x8=0x0bfb1804
       82825000	      8281	800022cc	00e0a533	slt	x10,x1,x14	  x1:0x00000005 x14:0x00000000 x10=0x00000000
       82835000	      8282	800022d0	4082d993	srai	x19,x5,0x8	  x5:0x30bcc000 x19=0x0030bcc0
       82845000	      8283	800022d4	ab4fe693	ori	x13,x31,-1356	 x31:0x80000000 x13=0xfffffab4
       82855000	      8284	800022d8	01fa77b3	and	x15,x20,x31	 x20:0x80009fc4 x31:0x80000000 x15=0x80000000
       82865000	      8285	800022dc	08987063	bgeu	x16,x9,8000235c	 x16:0x00000014  x9:0x00000548
       82875000	      8286	800022e0	00bfb1b3	sltu	x3,x31,x11	 x31:0x80000000 x11:0x8000067c  x3=0x00000001
       82885000	      8287	800022e4	ffd00b93	addi	x23,x0,-3	  x0:0x00000000 x23=0xfffffffd
       82895000	      8288	800022e8	00bb1113	slli	x2,x22,0xb	 x22:0x8000a647  x2=0x05323800
       82905000	      8289	800022ec	00861493	slli	x9,x12,0x8	 x12:0x00000011  x9=0x00001100
       82915000	      8290	800022f0	00700f13	addi	x30,x0,7	  x0:0x00000000 x30=0x00000007
       82925000	      8291	800022f4	3fd04797	auipc	x15,0x3fd04	 x15=0xbfd062f0
       82935000	      8292	800022f8	016ff1b3	and	x3,x31,x22	 x31:0x80000000 x22:0x8000a647  x3=0x80000000
       82945000	      8293	800022fc	01d8f3b3	and	x7,x17,x29	 x17:0x00000001 x29:0x00000013  x7=0x00000001
       82955000	      8294	80002300	005b8b93	addi	x23,x23,5	 x23:0xfffffffd x23=0x00000002
       82965000	      8295	80002304	ffe00293	addi	x5,x0,-2	  x0:0x00000000  x5=0xfffffffe
       82975000	      8296	80002308	fec00a93	addi	x21,x0,-20	  x0:0x00000000 x21=0xffffffec
       82985000	      8297	8000230c	8c847037	lui	x0,0x8c847	
       82995000	      8298	80002310	ffa28293	addi	x5,x5,-6	  x5:0xfffffffe  x5=0xfffffff8
       83005000	      8299	80002314	00c2c5b3	xor	x11,x5,x12	  x5:0xfffffff8 x12:0x00000011 x11=0xffffffe9
       83015000	      8300	80002318	00ee56b3	srl	x13,x28,x14	 x28:0x80009f40 x14:0x00000000 x13=0x80009f40
       83025000	      8301	8000231c	ff5298e3	bne	x5,x21,8000230c	  x5:0xfffffff8 x21:0xffffffec
       83035000	      8302	00000000	00000013	addi	x0,x0,0	  x0:0x00000000
       83045000	      8303	80002308	00000013	addi	x0,x0,0	  x0:0x00000000
       83055000	      8304	8000230c	8c847037	lui	x0,0x8c847	
       83065000	      8305	80002310	ffa28293	addi	x5,x5,-6	  x5:0xfffffff8  x5=0xfffffff2
       83075000	      8306	80002314	00c2c5b3	xor	x11,x5,x12	  x5:0xfffffff2 x12:0x00000011 x11=0xffffffe3
       83085000	      8307	80002318	00ee56b3	srl	x13,x28,x14	 x28:0x80009f40 x14:0x00000000 x13=0x80009f40
       83095000	      8308	8000231c	ff5298e3	bne	x5,x21,8000230c	  x5:0xfffffff2 x21:0xffffffec
       83105000	      8309	00000000	00000013	addi	x0,x0,0	  x0:0x00000000
       83115000	      8310	80002308	00000013	addi	x0,x0,0	  x0:0x00000000
       83125000	      8311	8000230c	8c847037	lui	x0,0x8c847	
       83135000	      8312	80002310	ffa28293	addi	x5,x5,-6	  x5:0xfffffff2  x5=0xffffffec
       83145000	      8313	80002314	00c2c5b3	xor	x11,x5,x12	  x5:0xffffffec x12:0x00000011 x11=0xfffffffd
       83155000	      8314	80002318	00ee56b3	srl	x13,x28,x14	 x28:0x80009f40 x14:0x00000000 x13=0x80009f40
       83165000	      8315	8000231c	ff5298e3	bne	x5,x21,8000230c	  x5:0xffffffec x21:0xffffffec
       83175000	      8316	80002320	416e5613	srai	x12,x28,0x16	 x28:0x80009f40 x12=0xfffffe00
       83185000	      8317	80002324	fdeb8ae3	beq	x23,x30,800022f8	 x23:0x00000002 x30:0x00000007
       83195000	      8318	80002328	412f5eb3	sra	x29,x30,x18	 x30:0x00000007 x18:0x00000001 x29=0x00000003
       83205000	      8319	8000232c	01746c63	bltu	x8,x23,80002344	  x8:0x0bfb1804 x23:0x00000002
       83215000	      8320	80002330	83a43093	sltiu	x1,x8,-1990	  x8:0x0bfb1804  x1=0x00000001
       83225000	      8321	80002334	03a49463	bne	x9,x26,8000235c	  x9:0x00001100 x26:0xc2831000
       83235000	      8322	00000000	00000013	addi	x0,x0,0	  x0:0x00000000
       83245000	      8323	80002358	00000013	addi	x0,x0,0	  x0:0x00000000
       83255000	      8324	8000235c	01d69733	sll	x14,x13,x29	 x13:0x80009f40 x29:0x00000003 x14=0x0004fa00
       83265000	      8325	80002360	006e5733	srl	x14,x28,x6	 x28:0x80009f40  x6:0xc00045bf x14=0x00000001
       83275000	      8326	80002364	d486a393	slti	x7,x13,-696	 x13:0x80009f40  x7=0x00000001
       83285000	      8327	80002368	e271e893	ori	x17,x3,-473	  x3:0x80000000 x17=0xfffffe27
       83295000	      8328	8000236c	00c9c663	blt	x19,x12,80002378	 x19:0x0030bcc0 x12:0xfffffe00
       83305000	      8329	80002370	03e4f063	bgeu	x9,x30,80002390	  x9:0x00001100 x30:0x00000007
       83315000	      8330	00000000	00000013	addi	x0,x0,0	  x0:0x00000000
       83325000	      8331	8000238c	00000013	addi	x0,x0,0	  x0:0x00000000
       83335000	      8332	80002390	01074b33	xor	x22,x14,x16	 x14:0x00000001 x16:0x00000014 x22=0x00000015
       83345000	      8333	80002394	419385b3	sub	x11,x7,x25	  x7:0x00000001 x25:0x00000013 x11=0xffffffee
       83355000	      8334	80002398	03869a63	bne	x13,x24,800023cc	 x13:0x80009f40 x24:0x00000000
       83365000	      8335	00000000	00000013	addi	x0,x0,0	  x0:0x00000000
       83375000	      8336	800023c8	00000013	addi	x0,x0,0	  x0:0x00000000
       83385000	      8337	800023cc	00000013	addi	x0,x0,0	  x0:0x00000000
       83395000	      8338	800023d0	40f15193	srai	x3,x2,0xf	  x2:0x05323800  x3=0x00000a64
       83405000	      8339	800023d4	417c8c33	sub	x24,x25,x23	 x25:0x00000013 x23:0x00000002 x24=0x00000011
       83415000	      8340	800023d8	00000013	addi	x0,x0,0	  x0:0x00000000
       83425000	      8341	800023dc	0e9d0c93	addi	x25,x26,233	 x26:0xc2831000 x25=0xc28310e9
       83435000	      8342	800023e0	41abd613	srai	x12,x23,0x1a	 x23:0x00000002 x12=0x00000000
       83445000	      8343	800023e4	e4aa2513	slti	x10,x20,-438	 x20:0x80009fc4 x10=0x00000001
       83455000	      8344	800023e8	04939863	bne	x7,x9,80002438	  x7:0x00000001  x9:0x00001100
       83465000	      8345	00000000	00000013	addi	x0,x0,0	  x0:0x00000000
       83475000	      8346	80002434	00000013	addi	x0,x0,0	  x0:0x00000000
       83485000	      8347	80002438	006d4463	blt	x26,x6,80002440	 x26:0xc2831000  x6:0xc00045bf
       83495000	      8348	8000243c	f477eb93	ori	x23,x15,-185	 x15:0xbfd062f0 x23=0xfffffff7
       83505000	      8349	80002440	941fcf13	xori	x30,x31,-1727	 x31:0x80000000 x30=0x7ffff941
       83515000	      8350	80002444	be210693	addi	x13,x2,-1054	  x2:0x05323800 x13=0x053233e2
       83525000	      8351	80002448	02327663	bgeu	x4,x3,80002474	  x4:0xc00044b9  x3:0x00000a64
       83535000	      8352	00000000	00000013	addi	x0,x0,0	  x0:0x00000000
       83545000	      8353	80002470	00000013	addi	x0,x0,0	  x0:0x00000000
       83555000	      8354	80002474	00000013	addi	x0,x0,0	  x0:0x00000000
       83565000	      8355	80002478	0205dc63	bge	x11,x0,800024b0	 x11:0xffffffee  x0:0x00000000
       83575000	      8356	8000247c	02f27863	bgeu	x4,x15,800024ac	  x4:0xc00044b9 x15:0xbfd062f0
       83585000	      8357	00000000	00000013	addi	x0,x0,0	  x0:0x00000000
       83595000	      8358	800024a8	00000013	addi	x0,x0,0	  x0:0x00000000
       83605000	      8359	800024ac	01ced7b3	srl	x15,x29,x28	 x29:0x00000003 x28:0x80009f40 x15=0x00000003
       83615000	      8360	800024b0	017e5833	srl	x16,x28,x23	 x28:0x80009f40 x23:0xfffffff7 x16=0x00000100
       83625000	      8361	800024b4	0311ec63	bltu	x3,x17,800024ec	  x3:0x00000a64 x17:0xfffffe27
       83635000	      8362	00000000	00000013	addi	x0,x0,0	  x0:0x00000000
       83645000	      8363	800024e8	00000013	addi	x0,x0,0	  x0:0x00000000
       83655000	      8364	800024ec	031d5263	bge	x26,x17,80002510	 x26:0xc2831000 x17:0xfffffe27
       83665000	      8365	800024f0	01eb9393	slli	x7,x23,0x1e	 x23:0xfffffff7  x7=0xc0000000
       83675000	      8366	800024f4	40415013	srai	x0,x2,0x4	  x2:0x05323800
       83685000	      8367	800024f8	8ad3f113	andi	x2,x7,-1875	  x7:0xc0000000  x2=0xc0000000
       83695000	      8368	800024fc	4093dc93	srai	x25,x7,0x9	  x7:0xc0000000 x25=0xffe00000
       83705000	      8369	80002500	03d5f863	bgeu	x11,x29,80002530	 x11:0xffffffee x29:0x00000003
       83715000	      8370	00000000	00000013	addi	x0,x0,0	  x0:0x00000000
       83725000	      8371	8000252c	00000013	addi	x0,x0,0	  x0:0x00000000
       83735000	      8372	80002530	41065a93	srai	x21,x12,0x10	 x12:0x00000000 x21=0x00000000
       83745000	      8373	80002534	00ecf333	and	x6,x25,x14	 x25:0xffe00000 x14:0x00000001  x6=0x00000000
       83755000	      8374	80002538	0ec8fe93	andi	x29,x17,236	 x17:0xfffffe27 x29=0x00000024
       83765000	      8375	8000253c	042f6263	bltu	x30,x2,80002580	 x30:0x7ffff941  x2:0xc0000000
       83775000	      8376	00000000	00000013	addi	x0,x0,0	  x0:0x00000000
       83785000	      8377	8000257c	00000013	addi	x0,x0,0	  x0:0x00000000
       83795000	      8378	80002580	5fefa813	slti	x16,x31,1534	 x31:0x80000000 x16=0x00000001
       83805000	      8379	80002584	014a44b3	xor	x9,x20,x20	 x20:0x80009fc4 x20:0x80009fc4  x9=0x00000000
       83815000	      8380	80002588	0280d463	bge	x1,x8,800025b0	  x1:0x00000001  x8:0x0bfb1804
       83825000	      8381	8000258c	005750b3	srl	x1,x14,x5	 x14:0x00000001  x5:0xffffffec  x1=0x00000000
       83835000	      8382	80002590	b5770717	auipc	x14,0xb5770	 x14=0x3577258c
       83845000	      8383	80002594	00091593	slli	x11,x18,0x0	 x18:0x00000001 x11=0x00000001
       83855000	      8384	80002598	009b8d33	add	x26,x23,x9	 x23:0xfffffff7  x9:0x00000000 x26=0xfffffff7
       83865000	      8385	8000259c	2105b213	sltiu	x4,x11,528	 x11:0x00000001  x4=0x00000001
       83875000	      8386	800025a0	72bd3d13	sltiu	x26,x26,1835	 x26:0xfffffff7 x26=0x00000000
       83885000	      8387	800025a4	01c77333	and	x6,x14,x28	 x14:0x3577258c x28:0x80009f40  x6=0x00000500
       83895000	      8388	800025a8	e656ab13	slti	x22,x13,-411	 x13:0x053233e2 x22=0x00000000
       83905000	      8389	800025ac	38ea8693	addi	x13,x21,910	 x21:0x00000000 x13=0x0000038e
       83915000	      8390	800025b0	d7488993	addi	x19,x17,-652	 x17:0xfffffe27 x19=0xfffffb9b
       83925000	      8391	800025b4	00118c63	beq	x3,x1,800025cc	  x3:0x00000a64  x1:0x00000000
       83935000	      8392	800025b8	204c3e93	sltiu	x29,x24,516	 x24:0x00000011 x29=0x00000001
       83945000	      8393	800025bc	01ef1ab3	sll	x21,x30,x30	 x30:0x7ffff941 x30:0x7ffff941 x21=0xfffff282
       83955000	      8394	800025c0	e4df6b13	ori	x22,x30,-435	 x30:0x7ffff941 x22=0xffffff4d
       83965000	      8395	800025c4	005319b3	sll	x19,x6,x5	  x6:0x00000500  x5:0xffffffec x19=0x00500000
       83975000	      8396	800025c8	00000013	addi	x0,x0,0	  x0:0x00000000
       83985000	      8397	800025cc	6ed8c413	xori	x8,x17,1773	 x17:0xfffffe27  x8=0xfffff8ca
       83995000	      8398	800025d0	2d940a93	addi	x21,x8,729	  x8:0xfffff8ca x21=0xfffffba3
       84005000	      8399	800025d4	00226433	or	x8,x4,x2	  x4:0x00000001  x2:0xc0000000  x8=0xc0000001
       84015000	      8400	800025d8	40f70233	sub	x4,x14,x15	 x14:0x3577258c x15:0x00000003  x4=0x35772589
       84025000	      8401	800025dc	93d02313	slti	x6,x0,-1731	  x0:0x00000000  x6=0x00000000
       84035000	      8402	800025e0	00000013	addi	x0,x0,0	  x0:0x00000000
       84045000	      8403	800025e4	031f9063	bne	x31,x17,80002604	 x31:0x80000000 x17:0xfffffe27
       84055000	      8404	00000000	00000013	addi	x0,x0,0	  x0:0x00000000
       84065000	      8405	80002600	00000013	addi	x0,x0,0	  x0:0x00000000
       84075000	      8406	80002604	01f89d93	slli	x27,x17,0x1f	 x17:0xfffffe27 x27=0x80000000
       84085000	      8407	80002608	400ddab3	sra	x21,x27,x0	 x27:0x80000000  x0:0x00000000 x21=0x80000000
       84095000	      8408	8000260c	0224f063	bgeu	x9,x2,8000262c	  x9:0x00000000  x2:0xc0000000
       84105000	      8409	80002610	f533da97	auipc	x21,0xf533d	 x21=0x7533f60c
       84115000	      8410	80002614	05170063	beq	x14,x17,80002654	 x14:0x3577258c x17:0xfffffe27
       84125000	      8411	80002618	0f66e793	ori	x15,x13,246	 x13:0x0000038e x15=0x000003fe
       84135000	      8412	8000261c	00344633	xor	x12,x8,x3	  x8:0xc0000001  x3:0x00000a64 x12=0xc0000a65
       84145000	      8413	80002620	41f78333	sub	x6,x15,x31	 x15:0x000003fe x31:0x80000000  x6=0x800003fe
       84155000	      8414	80002624	00388c63	beq	x17,x3,8000263c	 x17:0xfffffe27  x3:0x00000a64
       84165000	      8415	80002628	0798e693	ori	x13,x17,121	 x17:0xfffffe27 x13=0xfffffe7f
       84175000	      8416	8000262c	e9657e93	andi	x29,x10,-362	 x10:0x00000001 x29=0x00000000
       84185000	      8417	80002630	004bb3b3	sltu	x7,x23,x4	 x23:0xfffffff7  x4:0x35772589  x7=0x00000000
       84195000	      8418	80002634	00c044b3	xor	x9,x0,x12	  x0:0x00000000 x12:0xc0000a65  x9=0xc0000a65
       84205000	      8419	80002638	002d29b3	slt	x19,x26,x2	 x26:0x00000000  x2:0xc0000000 x19=0x00000000
       84215000	      8420	8000263c	01929c63	bne	x5,x25,80002654	  x5:0xffffffec x25:0xffe00000
       84225000	      8421	00000000	00000013	addi	x0,x0,0	  x0:0x00000000
       84235000	      8422	80002650	00000013	addi	x0,x0,0	  x0:0x00000000
       84245000	      8423	80002654	5e386313	ori	x6,x16,1507	 x16:0x00000001  x6=0x000005e3
       84255000	      8424	80002658	01783b33	sltu	x22,x16,x23	 x16:0x00000001 x23:0xfffffff7 x22=0x00000001
       84265000	      8425	8000265c	004e2d03	lw	x26,4(x28)	 x28:0x80009f40 x26=0x8000096c PA:0x80009f44
       84275000	      8426	80002660	40165993	srai	x19,x12,0x1	 x12:0xc0000a65 x19=0xe0000532
       84285000	      8427	80002664	e66e6913	ori	x18,x28,-410	 x28:0x80009f40 x18=0xffffff66
       84295000	      8428	80002668	00e83eb3	sltu	x29,x16,x14	 x16:0x00000001 x14:0x3577258c x29=0x00000001
       84305000	      8429	8000266c	ad5ec313	xori	x6,x29,-1323	 x29:0x00000001  x6=0xfffffad4
       84315000	      8430	80002670	034e0e13	addi	x28,x28,52	 x28:0x80009f40 x28=0x80009f74
       84325000	      8431	80002674	00614933	xor	x18,x2,x6	  x2:0xc0000000  x6:0xfffffad4 x18=0x3ffffad4
       84335000	      8432	80002678	0c82a193	slti	x3,x5,200	  x5:0xffffffec  x3=0x00000001
       84345000	      8433	8000267c	01355533	srl	x10,x10,x19	 x10:0x00000001 x19:0xe0000532 x10=0x00000000
       84355000	      8434	80002680	001d0713	addi	x14,x26,1	 x26:0x8000096c x14=0x8000096d
       84365000	      8435	80002684	00070767	jalr	x14,x14,0	 x14:0x8000096d x14=0x80002684
       84375000	      8436	00000000	00000013	addi	x0,x0,0	  x0:0x00000000
       84385000	      8437	8000096c	00000013	addi	x0,x0,0	  x0:0x00000000
       84395000	      8438	80000970	ffa00493	addi	x9,x0,-6	  x0:0x00000000  x9=0xfffffffa
       84405000	      8439	80000974	c8ef3893	sltiu	x17,x30,-882	 x30:0x7ffff941 x17=0x00000001
       84415000	      8440	80000978	01966eb3	or	x29,x12,x25	 x12:0xc0000a65 x25:0xffe00000 x29=0xffe00a65
       84425000	      8441	8000097c	42276113	ori	x2,x14,1058	 x14:0x80002684  x2=0x800026a6
       84435000	      8442	80000980	0124d833	srl	x16,x9,x18	  x9:0xfffffffa x18:0x3ffffad4 x16=0x00000fff
       84445000	      8443	80000984	00800b13	addi	x22,x0,8	  x0:0x00000000 x22=0x00000008
       84455000	      8444	80000988	12894f13	xori	x30,x18,296	 x18:0x3ffffad4 x30=0x3ffffbfc
       84465000	      8445	8000098c	00348493	addi	x9,x9,3	  x9:0xfffffffa  x9=0xfffffffd
       84475000	      8446	80000990	00000013	addi	x0,x0,0	  x0:0x00000000
       84485000	      8447	80000994	00000693	addi	x13,x0,0	  x0:0x00000000 x13=0x00000000
       84495000	      8448	80000998	419ed3b3	sra	x7,x29,x25	 x29:0xffe00a65 x25:0xffe00000  x7=0xffe00a65
       84505000	      8449	8000099c	bed4c513	xori	x10,x9,-1043	  x9:0xfffffffd x10=0x00000410
       84515000	      8450	800009a0	01200293	addi	x5,x0,18	  x0:0x00000000  x5=0x00000012
       84525000	      8451	800009a4	014900b3	add	x1,x18,x20	 x18:0x3ffffad4 x20:0x80009fc4  x1=0xc0009a98
       84535000	      8452	800009a8	006c3bb3	sltu	x23,x24,x6	 x24:0x00000011  x6:0xfffffad4 x23=0x00000001
       84545000	      8453	800009ac	cfb3f813	andi	x16,x7,-773	  x7:0xffe00a65 x16=0xffe00861
       84555000	      8454	800009b0	c403c013	xori	x0,x7,-960	  x7:0xffe00a65
       84565000	      8455	800009b4	40bc09b3	sub	x19,x24,x11	 x24:0x00000011 x11:0x00000001 x19=0x00000010
       84575000	      8456	800009b8	01cc1333	sll	x6,x24,x28	 x24:0x00000011 x28:0x80009f74  x6=0x01100000
       84585000	      8457	800009bc	01a8ad33	slt	x26,x17,x26	 x17:0x00000001 x26:0x8000096c x26=0x00000000
       84595000	      8458	800009c0	00768693	addi	x13,x13,7	 x13:0x00000000 x13=0x00000007
       84605000	      8459	800009c4	01e02633	slt	x12,x0,x30	  x0:0x00000000 x30:0x3ffffbfc x12=0x00000001
       84615000	      8460	800009c8	3e5f8393	addi	x7,x31,997	 x31:0x80000000  x7=0x800003e5
       84625000	      8461	800009cc	fc56cee3	blt	x13,x5,800009a8	 x13:0x00000007  x5:0x00000012
       84635000	      8462	00000000	00000013	addi	x0,x0,0	  x0:0x00000000
       84645000	      8463	800009a4	00000013	addi	x0,x0,0	  x0:0x00000000
       84655000	      8464	800009a8	006c3bb3	sltu	x23,x24,x6	 x24:0x00000011  x6:0x01100000 x23=0x00000001
       84665000	      8465	800009ac	cfb3f813	andi	x16,x7,-773	  x7:0x800003e5 x16=0x800000e1
       84675000	      8466	800009b0	c403c013	xori	x0,x7,-960	  x7:0x800003e5
       84685000	      8467	800009b4	40bc09b3	sub	x19,x24,x11	 x24:0x00000011 x11:0x00000001 x19=0x00000010
       84695000	      8468	800009b8	01cc1333	sll	x6,x24,x28	 x24:0x00000011 x28:0x80009f74  x6=0x01100000
       84705000	      8469	800009bc	01a8ad33	slt	x26,x17,x26	 x17:0x00000001 x26:0x00000000 x26=0x00000000
       84715000	      8470	800009c0	00768693	addi	x13,x13,7	 x13:0x00000007 x13=0x0000000e
       84725000	      8471	800009c4	01e02633	slt	x12,x0,x30	  x0:0x00000000 x30:0x3ffffbfc x12=0x00000001
       84735000	      8472	800009c8	3e5f8393	addi	x7,x31,997	 x31:0x80000000  x7=0x800003e5
       84745000	      8473	800009cc	fc56cee3	blt	x13,x5,800009a8	 x13:0x0000000e  x5:0x00000012
       84755000	      8474	00000000	00000013	addi	x0,x0,0	  x0:0x00000000
       84765000	      8475	800009a4	00000013	addi	x0,x0,0	  x0:0x00000000
       84775000	      8476	800009a8	006c3bb3	sltu	x23,x24,x6	 x24:0x00000011  x6:0x01100000 x23=0x00000001
       84785000	      8477	800009ac	cfb3f813	andi	x16,x7,-773	  x7:0x800003e5 x16=0x800000e1
       84795000	      8478	800009b0	c403c013	xori	x0,x7,-960	  x7:0x800003e5
       84805000	      8479	800009b4	40bc09b3	sub	x19,x24,x11	 x24:0x00000011 x11:0x00000001 x19=0x00000010
       84815000	      8480	800009b8	01cc1333	sll	x6,x24,x28	 x24:0x00000011 x28:0x80009f74  x6=0x01100000
       84825000	      8481	800009bc	01a8ad33	slt	x26,x17,x26	 x17:0x00000001 x26:0x00000000 x26=0x00000000
       84835000	      8482	800009c0	00768693	addi	x13,x13,7	 x13:0x0000000e x13=0x00000015
       84845000	      8483	800009c4	01e02633	slt	x12,x0,x30	  x0:0x00000000 x30:0x3ffffbfc x12=0x00000001
       84855000	      8484	800009c8	3e5f8393	addi	x7,x31,997	 x31:0x80000000  x7=0x800003e5
       84865000	      8485	800009cc	fc56cee3	blt	x13,x5,800009a8	 x13:0x00000015  x5:0x00000012
       84875000	      8486	800009d0	b217f113	andi	x2,x15,-1247	 x15:0x000003fe  x2=0x00000320
       84885000	      8487	800009d4	acb34113	xori	x2,x6,-1333	  x6:0x01100000  x2=0xfeeffacb
       84895000	      8488	800009d8	fb64e8e3	bltu	x9,x22,80000988	  x9:0xfffffffd x22:0x00000008
       84905000	      8489	800009dc	96000a93	addi	x21,x0,-1696	  x0:0x00000000 x21=0xfffff960
       84915000	      8490	800009e0	00800793	addi	x15,x0,8	  x0:0x00000000 x15=0x00000008
       84925000	      8491	800009e4	006430b3	sltu	x1,x8,x6	  x8:0xc0000001  x6:0x01100000  x1=0x00000000
       84935000	      8492	800009e8	00000013	addi	x0,x0,0	  x0:0x00000000
       84945000	      8493	800009ec	40630033	sub	x0,x6,x6	  x6:0x01100000  x6:0x01100000
       84955000	      8494	800009f0	0e558493	addi	x9,x11,229	 x11:0x00000001  x9=0x000000e6
       84965000	      8495	800009f4	00000013	addi	x0,x0,0	  x0:0x00000000
       84975000	      8496	800009f8	01c25db3	srl	x27,x4,x28	  x4:0x35772589 x28:0x80009f74 x27=0x00000357
       84985000	      8497	800009fc	009c6cb3	or	x25,x24,x9	 x24:0x00000011  x9:0x000000e6 x25=0x000000f7
       84995000	      8498	80000a00	d4b5cf13	xori	x30,x11,-693	 x11:0x00000001 x30=0xfffffd4a
       85005000	      8499	80000a04	0083abb3	slt	x23,x7,x8	  x7:0x800003e5  x8:0xc0000001 x23=0x00000001
       85015000	      8500	80000a08	01100993	addi	x19,x0,17	  x0:0x00000000 x19=0x00000011
       85025000	      8501	80000a0c	0db7c337	lui	x6,0xdb7c	  x6=0x0db7c000
       85035000	      8502	80000a10	7b056c13	ori	x24,x10,1968	 x10:0x00000410 x24=0x000007b0
       85045000	      8503	80000a14	00000013	addi	x0,x0,0	  x0:0x00000000
       85055000	      8504	80000a18	00978793	addi	x15,x15,9	 x15:0x00000008 x15=0x00000011
       85065000	      8505	80000a1c	50eae313	ori	x6,x21,1294	 x21:0xfffff960  x6=0xfffffd6e
       85075000	      8506	80000a20	019e1413	slli	x8,x28,0x19	 x28:0x80009f74  x8=0xe8000000
       85085000	      8507	80000a24	01ce1593	slli	x11,x28,0x1c	 x28:0x80009f74 x11=0x40000000
       85095000	      8508	80000a28	ff3784e3	beq	x15,x19,80000a10	 x15:0x00000011 x19:0x00000011
       85105000	      8509	00000000	00000013	addi	x0,x0,0	  x0:0x00000000
       85115000	      8510	80000a0c	00000013	addi	x0,x0,0	  x0:0x00000000
       85125000	      8511	80000a10	7b056c13	ori	x24,x10,1968	 x10:0x00000410 x24=0x000007b0
       85135000	      8512	80000a14	00000013	addi	x0,x0,0	  x0:0x00000000
       85145000	      8513	80000a18	00978793	addi	x15,x15,9	 x15:0x00000011 x15=0x0000001a
       85155000	      8514	80000a1c	50eae313	ori	x6,x21,1294	 x21:0xfffff960  x6=0xfffffd6e
       85165000	      8515	80000a20	019e1413	slli	x8,x28,0x19	 x28:0x80009f74  x8=0xe8000000
       85175000	      8516	80000a24	01ce1593	slli	x11,x28,0x1c	 x28:0x80009f74 x11=0x40000000
       85185000	      8517	80000a28	ff3784e3	beq	x15,x19,80000a10	 x15:0x0000001a x19:0x00000011
       85195000	      8518	80000a2c	419e5613	srai	x12,x28,0x19	 x28:0x80009f74 x12=0xffffffc0
       85205000	      8519	80000a30	00200793	addi	x15,x0,2	  x0:0x00000000 x15=0x00000002
       85215000	      8520	80000a34	48c3dcb7	lui	x25,0x48c3d	 x25=0x48c3d000
       85225000	      8521	80000a38	ef6adc97	auipc	x25,0xef6ad	 x25=0x6f6ada34
       85235000	      8522	80000a3c	ffe00693	addi	x13,x0,-2	  x0:0x00000000 x13=0xfffffffe
       85245000	      8523	80000a40	01f86733	or	x14,x16,x31	 x16:0x800000e1 x31:0x80000000 x14=0x800000e1
       85255000	      8524	80000a44	deda0493	addi	x9,x20,-531	 x20:0x80009fc4  x9=0x80009db1
       85265000	      8525	80000a48	01cc5593	srli	x11,x24,0x1c	 x24:0x000007b0 x11=0x00000000
       85275000	      8526	80000a4c	41c9d8b3	sra	x17,x19,x28	 x19:0x00000011 x28:0x80009f74 x17=0x00000000
       85285000	      8527	80000a50	0114e433	or	x8,x9,x17	  x9:0x80009db1 x17:0x00000000  x8=0x80009db1
       85295000	      8528	80000a54	409c5c13	srai	x24,x24,0x9	 x24:0x000007b0 x24=0x00000003
       85305000	      8529	80000a58	e99acd93	xori	x27,x21,-359	 x21:0xfffff960 x27=0x000007f9
       85315000	      8530	80000a5c	ffc78793	addi	x15,x15,-4	 x15:0x00000002 x15=0xfffffffe
       85325000	      8531	80000a60	ffd00b93	addi	x23,x0,-3	  x0:0x00000000 x23=0xfffffffd
       85335000	      8532	80000a64	f2414893	xori	x17,x2,-220	  x2:0xfeeffacb x17=0x011005ef
       85345000	      8533	80000a68	00700d13	addi	x26,x0,7	  x0:0x00000000 x26=0x00000007
       85355000	      8534	80000a6c	0196cf33	xor	x30,x13,x25	 x13:0xfffffffe x25:0x6f6ada34 x30=0x909525ca
       85365000	      8535	80000a70	8263e613	ori	x12,x7,-2010	  x7:0x800003e5 x12=0xfffffbe7
       85375000	      8536	80000a74	002b8b93	addi	x23,x23,2	 x23:0xfffffffd x23=0xffffffff
       85385000	      8537	80000a78	1849aa93	slti	x21,x19,388	 x19:0x00000011 x21=0x00000001
       85395000	      8538	80000a7c	ffabe8e3	bltu	x23,x26,80000a6c	 x23:0xffffffff x26:0x00000007
       85405000	      8539	80000a80	00543ab3	sltu	x21,x8,x5	  x8:0x80009db1  x5:0x00000012 x21=0x00000000
       85415000	      8540	80000a84	10ffe613	ori	x12,x31,271	 x31:0x80000000 x12=0x8000010f
       85425000	      8541	80000a88	00b86b33	or	x22,x16,x11	 x16:0x800000e1 x11:0x00000000 x22=0x800000e1
       85435000	      8542	80000a8c	00ff9033	sll	x0,x31,x15	 x31:0x80000000 x15:0xfffffffe
       85445000	      8543	80000a90	fad788e3	beq	x15,x13,80000a40	 x15:0xfffffffe x13:0xfffffffe
       85455000	      8544	00000000	00000013	addi	x0,x0,0	  x0:0x00000000
       85465000	      8545	80000a3c	00000013	addi	x0,x0,0	  x0:0x00000000
       85475000	      8546	80000a40	01f86733	or	x14,x16,x31	 x16:0x800000e1 x31:0x80000000 x14=0x800000e1
       85485000	      8547	80000a44	deda0493	addi	x9,x20,-531	 x20:0x80009fc4  x9=0x80009db1
       85495000	      8548	80000a48	01cc5593	srli	x11,x24,0x1c	 x24:0x00000003 x11=0x00000000
       85505000	      8549	80000a4c	41c9d8b3	sra	x17,x19,x28	 x19:0x00000011 x28:0x80009f74 x17=0x00000000
       85515000	      8550	80000a50	0114e433	or	x8,x9,x17	  x9:0x80009db1 x17:0x00000000  x8=0x80009db1
       85525000	      8551	80000a54	409c5c13	srai	x24,x24,0x9	 x24:0x00000003 x24=0x00000000
       85535000	      8552	80000a58	e99acd93	xori	x27,x21,-359	 x21:0x00000000 x27=0xfffffe99
       85545000	      8553	80000a5c	ffc78793	addi	x15,x15,-4	 x15:0xfffffffe x15=0xfffffffa
       85555000	      8554	80000a60	ffd00b93	addi	x23,x0,-3	  x0:0x00000000 x23=0xfffffffd
       85565000	      8555	80000a64	f2414893	xori	x17,x2,-220	  x2:0xfeeffacb x17=0x011005ef
       85575000	      8556	80000a68	00700d13	addi	x26,x0,7	  x0:0x00000000 x26=0x00000007
       85585000	      8557	80000a6c	0196cf33	xor	x30,x13,x25	 x13:0xfffffffe x25:0x6f6ada34 x30=0x909525ca
       85595000	      8558	80000a70	8263e613	ori	x12,x7,-2010	  x7:0x800003e5 x12=0xfffffbe7
       85605000	      8559	80000a74	002b8b93	addi	x23,x23,2	 x23:0xfffffffd x23=0xffffffff
       85615000	      8560	80000a78	1849aa93	slti	x21,x19,388	 x19:0x00000011 x21=0x00000001
       85625000	      8561	80000a7c	ffabe8e3	bltu	x23,x26,80000a6c	 x23:0xffffffff x26:0x00000007
       85635000	      8562	80000a80	00543ab3	sltu	x21,x8,x5	  x8:0x80009db1  x5:0x00000012 x21=0x00000000
       85645000	      8563	80000a84	10ffe613	ori	x12,x31,271	 x31:0x80000000 x12=0x8000010f
       85655000	      8564	80000a88	00b86b33	or	x22,x16,x11	 x16:0x800000e1 x11:0x00000000 x22=0x800000e1
       85665000	      8565	80000a8c	00ff9033	sll	x0,x31,x15	 x31:0x80000000 x15:0xfffffffa
       85675000	      8566	80000a90	fad788e3	beq	x15,x13,80000a40	 x15:0xfffffffa x13:0xfffffffe
       85685000	      8567	80000a94	00c221b3	slt	x3,x4,x12	  x4:0x35772589 x12:0x8000010f  x3=0x00000000
       85695000	      8568	80000a98	00100c93	addi	x25,x0,1	  x0:0x00000000 x25=0x00000001
       85705000	      8569	80000a9c	00600993	addi	x19,x0,6	  x0:0x00000000 x19=0x00000006
       85715000	      8570	80000aa0	00fd24b3	slt	x9,x26,x15	 x26:0x00000007 x15:0xfffffffa  x9=0x00000000
       85725000	      8571	80000aa4	005c8c93	addi	x25,x25,5	 x25:0x00000001 x25=0x00000006
       85735000	      8572	80000aa8	b2e6bf13	sltiu	x30,x13,-1234	 x13:0xfffffffe x30=0x00000000
       85745000	      8573	80000aac	00600e93	addi	x29,x0,6	  x0:0x00000000 x29=0x00000006
       85755000	      8574	80000ab0	01100293	addi	x5,x0,17	  x0:0x00000000  x5=0x00000011
       85765000	      8575	80000ab4	01bfe533	or	x10,x31,x27	 x31:0x80000000 x27:0xfffffe99 x10=0xfffffe99
       85775000	      8576	80000ab8	008e8e93	addi	x29,x29,8	 x29:0x00000006 x29=0x0000000e
       85785000	      8577	80000abc	fe5ecce3	blt	x29,x5,80000ab4	 x29:0x0000000e  x5:0x00000011
       85795000	      8578	00000000	00000013	addi	x0,x0,0	  x0:0x00000000
       85805000	      8579	80000ab0	00000013	addi	x0,x0,0	  x0:0x00000000
       85815000	      8580	80000ab4	01bfe533	or	x10,x31,x27	 x31:0x80000000 x27:0xfffffe99 x10=0xfffffe99
       85825000	      8581	80000ab8	008e8e93	addi	x29,x29,8	 x29:0x0000000e x29=0x00000016
       85835000	      8582	80000abc	fe5ecce3	blt	x29,x5,80000ab4	 x29:0x00000016  x5:0x00000011
       85845000	      8583	80000ac0	013de333	or	x6,x27,x19	 x27:0xfffffe99 x19:0x00000006  x6=0xfffffe9f
       85855000	      8584	80000ac4	fd3c9ee3	bne	x25,x19,80000aa0	 x25:0x00000006 x19:0x00000006
       85865000	      8585	80000ac8	937e2813	slti	x16,x28,-1737	 x28:0x80009f74 x16=0x00000001
       85875000	      8586	80000acc	00900313	addi	x6,x0,9	  x0:0x00000000  x6=0x00000009
       85885000	      8587	80000ad0	001327b3	slt	x15,x6,x1	  x6:0x00000009  x1:0x00000000 x15=0x00000000
       85895000	      8588	80000ad4	c3dc15b7	lui	x11,0xc3dc1	 x11=0xc3dc1000
       85905000	      8589	80000ad8	41225133	sra	x2,x4,x18	  x4:0x35772589 x18:0x3ffffad4  x2=0x00000357
       85915000	      8590	80000adc	2e9c4f13	xori	x30,x24,745	 x24:0x00000000 x30=0x000002e9
       85925000	      8591	80000ae0	012384b3	add	x9,x7,x18	  x7:0x800003e5 x18:0x3ffffad4  x9=0xbffffeb9
       85935000	      8592	80000ae4	f0b86193	ori	x3,x16,-245	 x16:0x00000001  x3=0xffffff0b
       85945000	      8593	80000ae8	00700d93	addi	x27,x0,7	  x0:0x00000000 x27=0x00000007
       85955000	      8594	80000aec	40165133	sra	x2,x12,x1	 x12:0x8000010f  x1:0x00000000  x2=0x8000010f
       85965000	      8595	80000af0	00000013	addi	x0,x0,0	  x0:0x00000000
       85975000	      8596	80000af4	322f8013	addi	x0,x31,802	 x31:0x80000000
       85985000	      8597	80000af8	01691b93	slli	x23,x18,0x16	 x18:0x3ffffad4 x23=0xb5000000
       85995000	      8598	80000afc	c23cc193	xori	x3,x25,-989	 x25:0x00000006  x3=0xfffffc25
       86005000	      8599	80000b00	3ceb3393	sltiu	x7,x22,974	 x22:0x800000e1  x7=0x00000000
       86015000	      8600	80000b04	ffd30313	addi	x6,x6,-3	  x6:0x00000009  x6=0x00000006
       86025000	      8601	80000b08	e25e3c93	sltiu	x25,x28,-475	 x28:0x80009f74 x25=0x00000001
       86035000	      8602	80000b0c	ff800713	addi	x14,x0,-8	  x0:0x00000000 x14=0xfffffff8
       86045000	      8603	80000b10	496ca593	slti	x11,x25,1174	 x25:0x00000001 x11=0x00000001
       86055000	      8604	80000b14	00900693	addi	x13,x0,9	  x0:0x00000000 x13=0x00000009
       86065000	      8605	80000b18	59e88b93	addi	x23,x17,1438	 x17:0x011005ef x23=0x01100b8d
       86075000	      8606	80000b1c	01276233	or	x4,x14,x18	 x14:0xfffffff8 x18:0x3ffffad4  x4=0xfffffffc
       86085000	      8607	80000b20	3cbd2a93	slti	x21,x26,971	 x26:0x00000007 x21=0x00000001
       86095000	      8608	80000b24	00000013	addi	x0,x0,0	  x0:0x00000000
       86105000	      8609	80000b28	00170713	addi	x14,x14,1	 x14:0xfffffff8 x14=0xfffffff9
       86115000	      8610	80000b2c	4a2a7d13	andi	x26,x20,1186	 x20:0x80009fc4 x26=0x00000480
       86125000	      8611	80000b30	fed706e3	beq	x14,x13,80000b1c	 x14:0xfffffff9 x13:0x00000009
       86135000	      8612	80000b34	3fbef213	andi	x4,x29,1019	 x29:0x00000016  x4=0x00000012
       86145000	      8613	80000b38	6ecd8b37	lui	x22,0x6ecd8	 x22=0x6ecd8000
       86155000	      8614	80000b3c	fbb37ce3	bgeu	x6,x27,80000af4	  x6:0x00000006 x27:0x00000007
       86165000	      8615	80000b40	013d9f33	sll	x30,x27,x19	 x27:0x00000007 x19:0x00000006 x30=0x000001c0
       86175000	      8616	80000b44	ffd00713	addi	x14,x0,-3	  x0:0x00000000 x14=0xfffffffd
       86185000	      8617	80000b48	002051b3	srl	x3,x0,x2	  x0:0x00000000  x2:0x8000010f  x3=0x00000000
       86195000	      8618	80000b4c	22901637	lui	x12,0x22901	 x12=0x22901000
       86205000	      8619	80000b50	00a00f13	addi	x30,x0,10	  x0:0x00000000 x30=0x0000000a
       86215000	      8620	80000b54	00398db3	add	x27,x19,x3	 x19:0x00000006  x3:0x00000000 x27=0x00000006
       86225000	      8621	80000b58	412ed1b3	sra	x3,x29,x18	 x29:0x00000016 x18:0x3ffffad4  x3=0x00000000
       86235000	      8622	80000b5c	40985813	srai	x16,x16,0x9	 x16:0x00000001 x16=0x00000000
       86245000	      8623	80000b60	5f7c4d13	xori	x26,x24,1527	 x24:0x00000000 x26=0x000005f7
       86255000	      8624	80000b64	01356633	or	x12,x10,x19	 x10:0xfffffe99 x19:0x00000006 x12=0xfffffe9f
       86265000	      8625	80000b68	008d3db3	sltu	x27,x26,x8	 x26:0x000005f7  x8:0x80009db1 x27=0x00000001
       86275000	      8626	80000b6c	4101d6b3	sra	x13,x3,x16	  x3:0x00000000 x16:0x00000000 x13=0x00000000
       86285000	      8627	80000b70	ba376993	ori	x19,x14,-1117	 x14:0xfffffffd x19=0xffffffff
       86295000	      8628	80000b74	1a4797b7	lui	x15,0x1a479	 x15=0x1a479000
       86305000	      8629	80000b78	00870713	addi	x14,x14,8	 x14:0xfffffffd x14=0x00000005
       86315000	      8630	80000b7c	ffa00093	addi	x1,x0,-6	  x0:0x00000000  x1=0xfffffffa
       86325000	      8631	80000b80	8deba513	slti	x10,x23,-1826	 x23:0x01100b8d x10=0x00000000
       86335000	      8632	80000b84	007864b3	or	x9,x16,x7	 x16:0x00000000  x7:0x00000000  x9=0x00000000
       86345000	      8633	80000b88	01e35e93	srli	x29,x6,0x1e	  x6:0x00000006 x29=0x00000000
       86355000	      8634	80000b8c	00300893	addi	x17,x0,3	  x0:0x00000000 x17=0x00000003
       86365000	      8635	80000b90	018feab3	or	x21,x31,x24	 x31:0x80000000 x24:0x00000000 x21=0x80000000
       86375000	      8636	80000b94	1b574d13	xori	x26,x14,437	 x14:0x00000005 x26=0x000001b0
       86385000	      8637	80000b98	8e455a97	auipc	x21,0x8e455	 x21=0x0e455b94
       86395000	      8638	80000b9c	00908093	addi	x1,x1,9	  x1:0xfffffffa  x1=0x00000003
       86405000	      8639	80000ba0	00523db3	sltu	x27,x4,x5	  x4:0x00000012  x5:0x00000011 x27=0x00000000
       86415000	      8640	80000ba4	ff1098e3	bne	x1,x17,80000b94	  x1:0x00000003 x17:0x00000003
       86425000	      8641	80000ba8	00000013	addi	x0,x0,0	  x0:0x00000000
       86435000	      8642	80000bac	d41d6293	ori	x5,x26,-703	 x26:0x000001b0  x5=0xfffffdf1
       86445000	      8643	80000bb0	a5323993	sltiu	x19,x4,-1453	  x4:0x00000012 x19=0x00000001
       86455000	      8644	80000bb4	5d4ac693	xori	x13,x21,1492	 x21:0x0e455b94 x13=0x0e455e40
       86465000	      8645	80000bb8	011bf433	and	x8,x23,x17	 x23:0x01100b8d x17:0x00000003  x8=0x00000001
       86475000	      8646	80000bbc	2ecb0d93	addi	x27,x22,748	 x22:0x6ecd8000 x27=0x6ecd82ec
       86485000	      8647	80000bc0	2ebe2313	slti	x6,x28,747	 x28:0x80009f74  x6=0x00000001
       86495000	      8648	80000bc4	01c29333	sll	x6,x5,x28	  x5:0xfffffdf1 x28:0x80009f74  x6=0xdf100000
       86505000	      8649	80000bc8	f9e76ce3	bltu	x14,x30,80000b60	 x14:0x00000005 x30:0x0000000a
       86515000	      8650	00000000	00000013	addi	x0,x0,0	  x0:0x00000000
       86525000	      8651	80000b5c	00000013	addi	x0,x0,0	  x0:0x00000000
       86535000	      8652	80000b60	5f7c4d13	xori	x26,x24,1527	 x24:0x00000000 x26=0x000005f7
       86545000	      8653	80000b64	01356633	or	x12,x10,x19	 x10:0x00000000 x19:0x00000001 x12=0x00000001
       86555000	      8654	80000b68	008d3db3	sltu	x27,x26,x8	 x26:0x000005f7  x8:0x00000001 x27=0x00000000
       86565000	      8655	80000b6c	4101d6b3	sra	x13,x3,x16	  x3:0x00000000 x16:0x00000000 x13=0x00000000
       86575000	      8656	80000b70	ba376993	ori	x19,x14,-1117	 x14:0x00000005 x19=0xfffffba7
       86585000	      8657	80000b74	1a4797b7	lui	x15,0x1a479	 x15=0x1a479000
       86595000	      8658	80000b78	00870713	addi	x14,x14,8	 x14:0x00000005 x14=0x0000000d
       86605000	      8659	80000b7c	ffa00093	addi	x1,x0,-6	  x0:0x00000000  x1=0xfffffffa
       86615000	      8660	80000b80	8deba513	slti	x10,x23,-1826	 x23:0x01100b8d x10=0x00000000
       86625000	      8661	80000b84	007864b3	or	x9,x16,x7	 x16:0x00000000  x7:0x00000000  x9=0x00000000
       86635000	      8662	80000b88	01e35e93	srli	x29,x6,0x1e	  x6:0xdf100000 x29=0x00000003
       86645000	      8663	80000b8c	00300893	addi	x17,x0,3	  x0:0x00000000 x17=0x00000003
       86655000	      8664	80000b90	018feab3	or	x21,x31,x24	 x31:0x80000000 x24:0x00000000 x21=0x80000000
       86665000	      8665	80000b94	1b574d13	xori	x26,x14,437	 x14:0x0000000d x26=0x000001b8
       86675000	      8666	80000b98	8e455a97	auipc	x21,0x8e455	 x21=0x0e455b94
       86685000	      8667	80000b9c	00908093	addi	x1,x1,9	  x1:0xfffffffa  x1=0x00000003
       86695000	      8668	80000ba0	00523db3	sltu	x27,x4,x5	  x4:0x00000012  x5:0xfffffdf1 x27=0x00000001
       86705000	      8669	80000ba4	ff1098e3	bne	x1,x17,80000b94	  x1:0x00000003 x17:0x00000003
       86715000	      8670	80000ba8	00000013	addi	x0,x0,0	  x0:0x00000000
       86725000	      8671	80000bac	d41d6293	ori	x5,x26,-703	 x26:0x000001b8  x5=0xfffffdf9
       86735000	      8672	80000bb0	a5323993	sltiu	x19,x4,-1453	  x4:0x00000012 x19=0x00000001
       86745000	      8673	80000bb4	5d4ac693	xori	x13,x21,1492	 x21:0x0e455b94 x13=0x0e455e40
       86755000	      8674	80000bb8	011bf433	and	x8,x23,x17	 x23:0x01100b8d x17:0x00000003  x8=0x00000001
       86765000	      8675	80000bbc	2ecb0d93	addi	x27,x22,748	 x22:0x6ecd8000 x27=0x6ecd82ec
       86775000	      8676	80000bc0	2ebe2313	slti	x6,x28,747	 x28:0x80009f74  x6=0x00000001
       86785000	      8677	80000bc4	01c29333	sll	x6,x5,x28	  x5:0xfffffdf9 x28:0x80009f74  x6=0xdf900000
       86795000	      8678	80000bc8	f9e76ce3	bltu	x14,x30,80000b60	 x14:0x0000000d x30:0x0000000a
       86805000	      8679	80000bcc	41a007b3	sub	x15,x0,x26	  x0:0x00000000 x26:0x000001b8 x15=0xfffffe48
       86815000	      8680	80000bd0	00400893	addi	x17,x0,4	  x0:0x00000000 x17=0x00000004
       86825000	      8681	80000bd4	01e590b3	sll	x1,x11,x30	 x11:0x00000001 x30:0x0000000a  x1=0x00000400
       86835000	      8682	80000bd8	4138d693	srai	x13,x17,0x13	 x17:0x00000004 x13=0x00000000
       86845000	      8683	80000bdc	00900d93	addi	x27,x0,9	  x0:0x00000000 x27=0x00000009
       86855000	      8684	80000be0	0057c933	xor	x18,x15,x5	 x15:0xfffffe48  x5:0xfffffdf9 x18=0x000003b1
       86865000	      8685	80000be4	22ea4213	xori	x4,x20,558	 x20:0x80009fc4  x4=0x80009dea
       86875000	      8686	80000be8	00588893	addi	x17,x17,5	 x17:0x00000004 x17=0x00000009
       86885000	      8687	80000bec	e14eb713	sltiu	x14,x29,-492	 x29:0x00000003 x14=0x00000001
       86895000	      8688	80000bf0	40df0833	sub	x16,x30,x13	 x30:0x0000000a x13:0x00000000 x16=0x0000000a
       86905000	      8689	80000bf4	ffb888e3	beq	x17,x27,80000be4	 x17:0x00000009 x27:0x00000009
       86915000	      8690	00000000	00000013	addi	x0,x0,0	  x0:0x00000000
       86925000	      8691	80000be0	00000013	addi	x0,x0,0	  x0:0x00000000
       86935000	      8692	80000be4	22ea4213	xori	x4,x20,558	 x20:0x80009fc4  x4=0x80009dea
       86945000	      8693	80000be8	00588893	addi	x17,x17,5	 x17:0x00000009 x17=0x0000000e
       86955000	      8694	80000bec	e14eb713	sltiu	x14,x29,-492	 x29:0x00000003 x14=0x00000001
       86965000	      8695	80000bf0	40df0833	sub	x16,x30,x13	 x30:0x0000000a x13:0x00000000 x16=0x0000000a
       86975000	      8696	80000bf4	ffb888e3	beq	x17,x27,80000be4	 x17:0x0000000e x27:0x00000009
       86985000	      8697	80000bf8	00000013	addi	x0,x0,0	  x0:0x00000000
       86995000	      8698	80000bfc	ffb00713	addi	x14,x0,-5	  x0:0x00000000 x14=0xfffffffb
       87005000	      8699	80000c00	40188333	sub	x6,x17,x1	 x17:0x0000000e  x1:0x00000400  x6=0xfffffc0e
       87015000	      8700	80000c04	075c3813	sltiu	x16,x24,117	 x24:0x00000000 x16=0x00000001
       87025000	      8701	80000c08	ff800913	addi	x18,x0,-8	  x0:0x00000000 x18=0xfffffff8
       87035000	      8702	80000c0c	01ce61b3	or	x3,x28,x28	 x28:0x80009f74 x28:0x80009f74  x3=0x80009f74
       87045000	      8703	80000c10	40468cb3	sub	x25,x13,x4	 x13:0x00000000  x4:0x80009dea x25=0x7fff6216
       87055000	      8704	80000c14	ffc70713	addi	x14,x14,-4	 x14:0xfffffffb x14=0xfffffff7
       87065000	      8705	80000c18	0013b1b3	sltu	x3,x7,x1	  x7:0x00000000  x1:0x00000400  x3=0x00000001
       87075000	      8706	80000c1c	013b0ab3	add	x21,x22,x19	 x22:0x6ecd8000 x19:0x00000001 x21=0x6ecd8001
       87085000	      8707	80000c20	00200413	addi	x8,x0,2	  x0:0x00000000  x8=0x00000002
       87095000	      8708	80000c24	00bc9533	sll	x10,x25,x11	 x25:0x7fff6216 x11:0x00000001 x10=0xfffec42c
       87105000	      8709	80000c28	00c00d93	addi	x27,x0,12	  x0:0x00000000 x27=0x0000000c
       87115000	      8710	80000c2c	00f26033	or	x0,x4,x15	  x4:0x80009dea x15:0xfffffe48
       87125000	      8711	80000c30	00000013	addi	x0,x0,0	  x0:0x00000000
       87135000	      8712	80000c34	00a1f6b3	and	x13,x3,x10	  x3:0x00000001 x10:0xfffec42c x13=0x00000000
       87145000	      8713	80000c38	019a44b3	xor	x9,x20,x25	 x20:0x80009fc4 x25:0x7fff6216  x9=0xfffffdd2
       87155000	      8714	80000c3c	413183b3	sub	x7,x3,x19	  x3:0x00000001 x19:0x00000001  x7=0x00000000
       87165000	      8715	80000c40	00ff5d13	srli	x26,x30,0xf	 x30:0x0000000a x26=0x00000000
       87175000	      8716	80000c44	0182a233	slt	x4,x5,x24	  x5:0xfffffdf9 x24:0x00000000  x4=0x00000001
       87185000	      8717	80000c48	00440413	addi	x8,x8,4	  x8:0x00000002  x8=0x00000006
       87195000	      8718	80000c4c	92c56993	ori	x19,x10,-1748	 x10:0xfffec42c x19=0xfffffd2c
       87205000	      8719	80000c50	ffb444e3	blt	x8,x27,80000c38	  x8:0x00000006 x27:0x0000000c
       87215000	      8720	00000000	00000013	addi	x0,x0,0	  x0:0x00000000
       87225000	      8721	80000c34	00000013	addi	x0,x0,0	  x0:0x00000000
       87235000	      8722	80000c38	019a44b3	xor	x9,x20,x25	 x20:0x80009fc4 x25:0x7fff6216  x9=0xfffffdd2
       87245000	      8723	80000c3c	413183b3	sub	x7,x3,x19	  x3:0x00000001 x19:0xfffffd2c  x7=0x000002d5
       87255000	      8724	80000c40	00ff5d13	srli	x26,x30,0xf	 x30:0x0000000a x26=0x00000000
       87265000	      8725	80000c44	0182a233	slt	x4,x5,x24	  x5:0xfffffdf9 x24:0x00000000  x4=0x00000001
       87275000	      8726	80000c48	00440413	addi	x8,x8,4	  x8:0x00000006  x8=0x0000000a
       87285000	      8727	80000c4c	92c56993	ori	x19,x10,-1748	 x10:0xfffec42c x19=0xfffffd2c
       87295000	      8728	80000c50	ffb444e3	blt	x8,x27,80000c38	  x8:0x0000000a x27:0x0000000c
       87305000	      8729	00000000	00000013	addi	x0,x0,0	  x0:0x00000000
       87315000	      8730	80000c34	00000013	addi	x0,x0,0	  x0:0x00000000
       87325000	      8731	80000c38	019a44b3	xor	x9,x20,x25	 x20:0x80009fc4 x25:0x7fff6216  x9=0xfffffdd2
       87335000	      8732	80000c3c	413183b3	sub	x7,x3,x19	  x3:0x00000001 x19:0xfffffd2c  x7=0x000002d5
       87345000	      8733	80000c40	00ff5d13	srli	x26,x30,0xf	 x30:0x0000000a x26=0x00000000
       87355000	      8734	80000c44	0182a233	slt	x4,x5,x24	  x5:0xfffffdf9 x24:0x00000000  x4=0x00000001
       87365000	      8735	80000c48	00440413	addi	x8,x8,4	  x8:0x0000000a  x8=0x0000000e
       87375000	      8736	80000c4c	92c56993	ori	x19,x10,-1748	 x10:0xfffec42c x19=0xfffffd2c
       87385000	      8737	80000c50	ffb444e3	blt	x8,x27,80000c38	  x8:0x0000000e x27:0x0000000c
       87395000	      8738	80000c54	00a14333	xor	x6,x2,x10	  x2:0x8000010f x10:0xfffec42c  x6=0x7ffec523
       87405000	      8739	80000c58	fb275ae3	bge	x14,x18,80000c0c	 x14:0xfffffff7 x18:0xfffffff8
       87415000	      8740	80000c5c	36c13297	auipc	x5,0x36c13	  x5=0xb6c13c58
       87425000	      8741	80000c60	00000b13	addi	x22,x0,0	  x0:0x00000000 x22=0x00000000
       87435000	      8742	80000c64	01251013	slli	x0,x10,0x12	 x10:0xfffec42c
       87445000	      8743	80000c68	39803d37	lui	x26,0x39803	 x26=0x39803000
       87455000	      8744	80000c6c	40a8d713	srai	x14,x17,0xa	 x17:0x0000000e x14=0x00000000
       87465000	      8745	80000c70	af118e93	addi	x29,x3,-1295	  x3:0x00000001 x29=0xfffffaf2
       87475000	      8746	80000c74	00100313	addi	x6,x0,1	  x0:0x00000000  x6=0x00000001
       87485000	      8747	80000c78	00bed413	srli	x8,x29,0xb	 x29:0xfffffaf2  x8=0x001fffff
       87495000	      8748	80000c7c	019999b3	sll	x19,x19,x25	 x19:0xfffffd2c x25:0x7fff6216 x19=0x4b000000
       87505000	      8749	80000c80	4e593437	lui	x8,0x4e593	  x8=0x4e593000
       87515000	      8750	80000c84	009b0b13	addi	x22,x22,9	 x22:0x00000000 x22=0x00000009
       87525000	      8751	80000c88	a0a03693	sltiu	x13,x0,-1526	  x0:0x00000000 x13=0x00000001
       87535000	      8752	80000c8c	ffb00b93	addi	x23,x0,-5	  x0:0x00000000 x23=0xfffffffb
       87545000	      8753	80000c90	fee00093	addi	x1,x0,-18	  x0:0x00000000  x1=0xffffffee
       87555000	      8754	80000c94	00b7feb3	and	x29,x15,x11	 x15:0xfffffe48 x11:0x00000001 x29=0x00000000
       87565000	      8755	80000c98	012aa4b3	slt	x9,x21,x18	 x21:0x6ecd8001 x18:0xfffffff8  x9=0x00000000
       87575000	      8756	80000c9c	ff7b8b93	addi	x23,x23,-9	 x23:0xfffffffb x23=0xfffffff2
       87585000	      8757	80000ca0	41362393	slti	x7,x12,1043	 x12:0x00000001  x7=0x00000001
       87595000	      8758	80000ca4	fe1bdae3	bge	x23,x1,80000c98	 x23:0xfffffff2  x1:0xffffffee
       87605000	      8759	00000000	00000013	addi	x0,x0,0	  x0:0x00000000
       87615000	      8760	80000c94	00000013	addi	x0,x0,0	  x0:0x00000000
       87625000	      8761	80000c98	012aa4b3	slt	x9,x21,x18	 x21:0x6ecd8001 x18:0xfffffff8  x9=0x00000000
       87635000	      8762	80000c9c	ff7b8b93	addi	x23,x23,-9	 x23:0xfffffff2 x23=0xffffffe9
       87645000	      8763	80000ca0	41362393	slti	x7,x12,1043	 x12:0x00000001  x7=0x00000001
       87655000	      8764	80000ca4	fe1bdae3	bge	x23,x1,80000c98	 x23:0xffffffe9  x1:0xffffffee
       87665000	      8765	80000ca8	016cd193	srli	x3,x25,0x16	 x25:0x7fff6216  x3=0x000001ff
       87675000	      8766	80000cac	a8782a93	slti	x21,x16,-1401	 x16:0x00000001 x21=0x00000000
       87685000	      8767	80000cb0	b7783393	sltiu	x7,x16,-1161	 x16:0x00000001  x7=0x00000001
       87695000	      8768	80000cb4	fc6b46e3	blt	x22,x6,80000c80	 x22:0x00000009  x6:0x00000001
       87705000	      8769	80000cb8	00000013	addi	x0,x0,0	  x0:0x00000000
       87715000	      8770	80000cbc	ffb00413	addi	x8,x0,-5	  x0:0x00000000  x8=0xfffffffb
       87725000	      8771	80000cc0	00d00713	addi	x14,x0,13	  x0:0x00000000 x14=0x0000000d
       87735000	      8772	80000cc4	00000013	addi	x0,x0,0	  x0:0x00000000
       87745000	      8773	80000cc8	b540ab93	slti	x23,x1,-1196	  x1:0xffffffee x23=0x00000000
       87755000	      8774	80000ccc	00966bb3	or	x23,x12,x9	 x12:0x00000001  x9:0x00000000 x23=0x00000001
       87765000	      8775	80000cd0	00540413	addi	x8,x8,5	  x8:0xfffffffb  x8=0x00000000
       87775000	      8776	80000cd4	017b3133	sltu	x2,x22,x23	 x22:0x00000009 x23:0x00000001  x2=0x00000000
       87785000	      8777	80000cd8	01b21913	slli	x18,x4,0x1b	  x4:0x00000001 x18=0x08000000
       87795000	      8778	80000cdc	1b1e7613	andi	x12,x28,433	 x28:0x80009f74 x12=0x00000130
       87805000	      8779	80000ce0	fee464e3	bltu	x8,x14,80000cc8	  x8:0x00000000 x14:0x0000000d
       87815000	      8780	00000000	00000013	addi	x0,x0,0	  x0:0x00000000
       87825000	      8781	80000cc4	00000013	addi	x0,x0,0	  x0:0x00000000
       87835000	      8782	80000cc8	b540ab93	slti	x23,x1,-1196	  x1:0xffffffee x23=0x00000000
       87845000	      8783	80000ccc	00966bb3	or	x23,x12,x9	 x12:0x00000130  x9:0x00000000 x23=0x00000130
       87855000	      8784	80000cd0	00540413	addi	x8,x8,5	  x8:0x00000000  x8=0x00000005
       87865000	      8785	80000cd4	017b3133	sltu	x2,x22,x23	 x22:0x00000009 x23:0x00000130  x2=0x00000001
       87875000	      8786	80000cd8	01b21913	slli	x18,x4,0x1b	  x4:0x00000001 x18=0x08000000
       87885000	      8787	80000cdc	1b1e7613	andi	x12,x28,433	 x28:0x80009f74 x12=0x00000130
       87895000	      8788	80000ce0	fee464e3	bltu	x8,x14,80000cc8	  x8:0x00000005 x14:0x0000000d
       87905000	      8789	00000000	00000013	addi	x0,x0,0	  x0:0x00000000
       87915000	      8790	80000cc4	00000013	addi	x0,x0,0	  x0:0x00000000
       87925000	      8791	80000cc8	b540ab93	slti	x23,x1,-1196	  x1:0xffffffee x23=0x00000000
       87935000	      8792	80000ccc	00966bb3	or	x23,x12,x9	 x12:0x00000130  x9:0x00000000 x23=0x00000130
       87945000	      8793	80000cd0	00540413	addi	x8,x8,5	  x8:0x00000005  x8=0x0000000a
       87955000	      8794	80000cd4	017b3133	sltu	x2,x22,x23	 x22:0x00000009 x23:0x00000130  x2=0x00000001
       87965000	      8795	80000cd8	01b21913	slli	x18,x4,0x1b	  x4:0x00000001 x18=0x08000000
       87975000	      8796	80000cdc	1b1e7613	andi	x12,x28,433	 x28:0x80009f74 x12=0x00000130
       87985000	      8797	80000ce0	fee464e3	bltu	x8,x14,80000cc8	  x8:0x0000000a x14:0x0000000d
       87995000	      8798	00000000	00000013	addi	x0,x0,0	  x0:0x00000000
       88005000	      8799	80000cc4	00000013	addi	x0,x0,0	  x0:0x00000000
       88015000	      8800	80000cc8	b540ab93	slti	x23,x1,-1196	  x1:0xffffffee x23=0x00000000
       88025000	      8801	80000ccc	00966bb3	or	x23,x12,x9	 x12:0x00000130  x9:0x00000000 x23=0x00000130
       88035000	      8802	80000cd0	00540413	addi	x8,x8,5	  x8:0x0000000a  x8=0x0000000f
       88045000	      8803	80000cd4	017b3133	sltu	x2,x22,x23	 x22:0x00000009 x23:0x00000130  x2=0x00000001
       88055000	      8804	80000cd8	01b21913	slli	x18,x4,0x1b	  x4:0x00000001 x18=0x08000000
       88065000	      8805	80000cdc	1b1e7613	andi	x12,x28,433	 x28:0x80009f74 x12=0x00000130
       88075000	      8806	80000ce0	fee464e3	bltu	x8,x14,80000cc8	  x8:0x0000000f x14:0x0000000d
       88085000	      8807	80000ce4	6691eb13	ori	x22,x3,1641	  x3:0x000001ff x22=0x000007ff
       88095000	      8808	80000ce8	ffd00813	addi	x16,x0,-3	  x0:0x00000000 x16=0xfffffffd
       88105000	      8809	80000cec	005a1c13	slli	x24,x20,0x5	 x20:0x80009fc4 x24=0x0013f880
       88115000	      8810	80000cf0	ffc00693	addi	x13,x0,-4	  x0:0x00000000 x13=0xfffffffc
       88125000	      8811	80000cf4	d29c7e97	auipc	x29,0xd29c7	 x29=0x529c7cf0
       88135000	      8812	80000cf8	ffd80813	addi	x16,x16,-3	 x16:0xfffffffd x16=0xfffffffa
       88145000	      8813	80000cfc	014da5b3	slt	x11,x27,x20	 x27:0x0000000c x20:0x80009fc4 x11=0x00000000
       88155000	      8814	80000d00	b93b4613	xori	x12,x22,-1133	 x22:0x000007ff x12=0xfffffc6c
       88165000	      8815	80000d04	fed858e3	bge	x16,x13,80000cf4	 x16:0xfffffffa x13:0xfffffffc
       88175000	      8816	80000d08	f1e86293	ori	x5,x16,-226	 x16:0xfffffffa  x5=0xfffffffe
       88185000	      8817	80000d0c	027a8663	beq	x21,x7,80000d38	 x21:0x00000000  x7:0x00000001
       88195000	      8818	80000d10	86a7ca93	xori	x21,x15,-1942	 x15:0xfffffe48 x21=0x00000622
       88205000	      8819	80000d14	01f6b0b3	sltu	x1,x13,x31	 x13:0xfffffffc x31:0x80000000  x1=0x00000000
       88215000	      8820	80000d18	023a6263	bltu	x20,x3,80000d3c	 x20:0x80009fc4  x3:0x000001ff
       88225000	      8821	80000d1c	005bdab3	srl	x21,x23,x5	 x23:0x00000130  x5:0xfffffffe x21=0x00000000
       88235000	      8822	80000d20	407a0933	sub	x18,x20,x7	 x20:0x80009fc4  x7:0x00000001 x18=0x80009fc3
       88245000	      8823	80000d24	00abd293	srli	x5,x23,0xa	 x23:0x00000130  x5=0x00000000
       88255000	      8824	80000d28	00000013	addi	x0,x0,0	  x0:0x00000000
       88265000	      8825	80000d2c	a4b8f893	andi	x17,x17,-1461	 x17:0x0000000e x17=0x0000000a
       88275000	      8826	80000d30	01fee033	or	x0,x29,x31	 x29:0x529c7cf0 x31:0x80000000
       88285000	      8827	80000d34	05675463	bge	x14,x22,80000d7c	 x14:0x0000000d x22:0x000007ff
       88295000	      8828	80000d38	a6a43593	sltiu	x11,x8,-1430	  x8:0x0000000f x11=0x00000001
       88305000	      8829	80000d3c	40135cb3	sra	x25,x6,x1	  x6:0x00000001  x1:0x00000000 x25=0x00000001
       88315000	      8830	80000d40	89f92713	slti	x14,x18,-1889	 x18:0x80009fc3 x14=0x00000001
       88325000	      8831	80000d44	002c9cb3	sll	x25,x25,x2	 x25:0x00000001  x2:0x00000001 x25=0x00000002
       88335000	      8832	80000d48	03a26063	bltu	x4,x26,80000d68	  x4:0x00000001 x26:0x39803000
       88345000	      8833	00000000	00000013	addi	x0,x0,0	  x0:0x00000000
       88355000	      8834	80000d64	00000013	addi	x0,x0,0	  x0:0x00000000
       88365000	      8835	80000d68	02fe8463	beq	x29,x15,80000d90	 x29:0x529c7cf0 x15:0xfffffe48
       88375000	      8836	80000d6c	60e75c37	lui	x24,0x60e75	 x24=0x60e75000
       88385000	      8837	80000d70	03386463	bltu	x16,x19,80000d98	 x16:0xfffffffa x19:0x4b000000
       88395000	      8838	80000d74	795b2113	slti	x2,x22,1941	 x22:0x000007ff  x2=0x00000000
       88405000	      8839	80000d78	7c5fa493	slti	x9,x31,1989	 x31:0x80000000  x9=0x00000001
       88415000	      8840	80000d7c	64c7f813	andi	x16,x15,1612	 x15:0xfffffe48 x16=0x00000648
       88425000	      8841	80000d80	016c7c63	bgeu	x24,x22,80000d98	 x24:0x60e75000 x22:0x000007ff
       88435000	      8842	00000000	00000013	addi	x0,x0,0	  x0:0x00000000
       88445000	      8843	80000d94	00000013	addi	x0,x0,0	  x0:0x00000000
       88455000	      8844	80000d98	01098bb3	add	x23,x19,x16	 x19:0x4b000000 x16:0x00000648 x23=0x4b000648
       88465000	      8845	80000d9c	01db7863	bgeu	x22,x29,80000dac	 x22:0x000007ff x29:0x529c7cf0
       88475000	      8846	80000da0	411853b3	sra	x7,x16,x17	 x16:0x00000648 x17:0x0000000a  x7=0x00000001
       88485000	      8847	80000da4	99700f13	addi	x30,x0,-1641	  x0:0x00000000 x30=0xfffff997
       88495000	      8848	80000da8	00b8f033	and	x0,x17,x11	 x17:0x0000000a x11:0x00000001
       88505000	      8849	80000dac	4c9ff813	andi	x16,x31,1225	 x31:0x80000000 x16=0x00000000
       88515000	      8850	80000db0	011b46b3	xor	x13,x22,x17	 x22:0x000007ff x17:0x0000000a x13=0x000007f5
       88525000	      8851	80000db4	01308cb3	add	x25,x1,x19	  x1:0x00000000 x19:0x4b000000 x25=0x4b000000
       88535000	      8852	80000db8	00407c63	bgeu	x0,x4,80000dd0	  x0:0x00000000  x4:0x00000001
       88545000	      8853	80000dbc	00f21663	bne	x4,x15,80000dc8	  x4:0x00000001 x15:0xfffffe48
       88555000	      8854	00000000	00000013	addi	x0,x0,0	  x0:0x00000000
       88565000	      8855	80000dc4	00000013	addi	x0,x0,0	  x0:0x00000000
       88575000	      8856	80000dc8	04eb1263	bne	x22,x14,80000e0c	 x22:0x000007ff x14:0x00000001
       88585000	      8857	00000000	00000013	addi	x0,x0,0	  x0:0x00000000
       88595000	      8858	80000e08	00000013	addi	x0,x0,0	  x0:0x00000000
       88605000	      8859	80000e0c	015c9663	bne	x25,x21,80000e18	 x25:0x4b000000 x21:0x00000000
       88615000	      8860	00000000	00000013	addi	x0,x0,0	  x0:0x00000000
       88625000	      8861	80000e14	00000013	addi	x0,x0,0	  x0:0x00000000
       88635000	      8862	80000e18	01d45263	bge	x8,x29,80000e1c	  x8:0x0000000f x29:0x529c7cf0
       88645000	      8863	80000e1c	01f05e63	bge	x0,x31,80000e38	  x0:0x00000000 x31:0x80000000
       88655000	      8864	00000000	00000013	addi	x0,x0,0	  x0:0x00000000
       88665000	      8865	80000e34	00000013	addi	x0,x0,0	  x0:0x00000000
       88675000	      8866	80000e38	01fa61b3	or	x3,x20,x31	 x20:0x80009fc4 x31:0x80000000  x3=0x80009fc4
       88685000	      8867	80000e3c	00467533	and	x10,x12,x4	 x12:0xfffffc6c  x4:0x00000001 x10=0x00000000
       88695000	      8868	80000e40	6db2ee97	auipc	x29,0x6db2e	 x29=0xedb2ee3c
       88705000	      8869	80000e44	01b91193	slli	x3,x18,0x1b	 x18:0x80009fc3  x3=0x18000000
       88715000	      8870	80000e48	01739463	bne	x7,x23,80000e50	  x7:0x00000001 x23:0x4b000648
       88725000	      8871	00000000	00000013	addi	x0,x0,0	  x0:0x00000000
       88735000	      8872	80000e4c	00000013	addi	x0,x0,0	  x0:0x00000000
       88745000	      8873	80000e50	9ed2e093	ori	x1,x5,-1555	  x5:0x00000000  x1=0xfffff9ed
       88755000	      8874	80000e54	8e58f393	andi	x7,x17,-1819	 x17:0x0000000a  x7=0x00000000
       88765000	      8875	80000e58	058d9063	bne	x27,x24,80000e98	 x27:0x0000000c x24:0x60e75000
       88775000	      8876	00000000	00000013	addi	x0,x0,0	  x0:0x00000000
       88785000	      8877	80000e94	00000013	addi	x0,x0,0	  x0:0x00000000
       88795000	      8878	80000e98	51faa313	slti	x6,x21,1311	 x21:0x00000000  x6=0x00000001
       88805000	      8879	80000e9c	1dff0d13	addi	x26,x30,479	 x30:0xfffff997 x26=0xfffffb76
       88815000	      8880	80000ea0	01501593	slli	x11,x0,0x15	  x0:0x00000000 x11=0x00000000
       88825000	      8881	80000ea4	00830533	add	x10,x6,x8	  x6:0x00000001  x8:0x0000000f x10=0x00000010
       88835000	      8882	80000ea8	40f9deb3	sra	x29,x19,x15	 x19:0x4b000000 x15:0xfffffe48 x29=0x004b0000
       88845000	      8883	80000eac	41e68db3	sub	x27,x13,x30	 x13:0x000007f5 x30:0xfffff997 x27=0x00000e5e
       88855000	      8884	80000eb0	b1a1cb93	xori	x23,x3,-1254	  x3:0x18000000 x23=0xe7fffb1a
       88865000	      8885	80000eb4	00b71713	slli	x14,x14,0xb	 x14:0x00000001 x14=0x00000800
       88875000	      8886	80000eb8	004bb033	sltu	x0,x23,x4	 x23:0xe7fffb1a  x4:0x00000001
       88885000	      8887	80000ebc	0c8b0493	addi	x9,x22,200	 x22:0x000007ff  x9=0x000008c7
       88895000	      8888	80000ec0	ca7fdbb7	lui	x23,0xca7fd	 x23=0xca7fd000
       88905000	      8889	80000ec4	bcc88913	addi	x18,x17,-1076	 x17:0x0000000a x18=0xfffffbd6
       88915000	      8890	80000ec8	014e8833	add	x16,x29,x20	 x29:0x004b0000 x20:0x80009fc4 x16=0x804b9fc4
       88925000	      8891	80000ecc	7b6c1c17	auipc	x24,0x7b6c1	 x24=0xfb6c1ec8
       88935000	      8892	80000ed0	0102c233	xor	x4,x5,x16	  x5:0x00000000 x16:0x804b9fc4  x4=0x804b9fc4
       88945000	      8893	80000ed4	00d41e93	slli	x29,x8,0xd	  x8:0x0000000f x29=0x0001e000
       88955000	      8894	80000ed8	41bfd593	srai	x11,x31,0x1b	 x31:0x80000000 x11=0xfffffff0
       88965000	      8895	80000edc	00ce9db3	sll	x27,x29,x12	 x29:0x0001e000 x12:0xfffffc6c x27=0x1e000000
       88975000	      8896	80000ee0	057bd263	bge	x23,x23,80000f24	 x23:0xca7fd000 x23:0xca7fd000
       88985000	      8897	00000000	00000013	addi	x0,x0,0	  x0:0x00000000
       88995000	      8898	80000f20	00000013	addi	x0,x0,0	  x0:0x00000000
       89005000	      8899	80000f24	01929cb3	sll	x25,x5,x25	  x5:0x00000000 x25:0x4b000000 x25=0x00000000
       89015000	      8900	80000f28	0229c663	blt	x19,x2,80000f54	 x19:0x4b000000  x2:0x00000000
       89025000	      8901	80000f2c	007fd493	srli	x9,x31,0x7	 x31:0x80000000  x9=0x01000000
       89035000	      8902	80000f30	af5c3413	sltiu	x8,x24,-1291	 x24:0xfb6c1ec8  x8=0x00000001
       89045000	      8903	80000f34	145a4813	xori	x16,x20,325	 x20:0x80009fc4 x16=0x80009e81
       89055000	      8904	80000f38	00000013	addi	x0,x0,0	  x0:0x00000000
       89065000	      8905	80000f3c	bc14d017	auipc	x0,0xbc14d	
       89075000	      8906	80000f40	c19ce793	ori	x15,x25,-999	 x25:0x00000000 x15=0xfffffc19
       89085000	      8907	80000f44	07160063	beq	x12,x17,80000fa4	 x12:0xfffffc6c x17:0x0000000a
       89095000	      8908	80000f48	2800f093	andi	x1,x1,640	  x1:0xfffff9ed  x1=0x00000080
       89105000	      8909	80000f4c	7181c593	xori	x11,x3,1816	  x3:0x18000000 x11=0x18000718
       89115000	      8910	80000f50	c71cfb13	andi	x22,x25,-911	 x25:0x00000000 x22=0x00000000
       89125000	      8911	80000f54	01dbe5b3	or	x11,x23,x29	 x23:0xca7fd000 x29:0x0001e000 x11=0xca7ff000
       89135000	      8912	80000f58	003feeb3	or	x29,x31,x3	 x31:0x80000000  x3:0x18000000 x29=0x98000000
       89145000	      8913	80000f5c	077b4663	blt	x22,x23,80000fc8	 x22:0x00000000 x23:0xca7fd000
       89155000	      8914	80000f60	05f5f663	bgeu	x11,x31,80000fac	 x11:0xca7ff000 x31:0x80000000
       89165000	      8915	00000000	00000013	addi	x0,x0,0	  x0:0x00000000
       89175000	      8916	80000fa8	00000013	addi	x0,x0,0	  x0:0x00000000
       89185000	      8917	80000fac	41b9d3b3	sra	x7,x19,x27	 x19:0x4b000000 x27:0x1e000000  x7=0x4b000000
       89195000	      8918	80000fb0	01268663	beq	x13,x18,80000fbc	 x13:0x000007f5 x18:0xfffffbd6
       89205000	      8919	80000fb4	01bd1513	slli	x10,x26,0x1b	 x26:0xfffffb76 x10=0xb0000000
       89215000	      8920	80000fb8	01db9eb3	sll	x29,x23,x29	 x23:0xca7fd000 x29:0x98000000 x29=0xca7fd000
       89225000	      8921	80000fbc	02b01263	bne	x0,x11,80000fe0	  x0:0x00000000 x11:0xca7ff000
       89235000	      8922	00000000	00000013	addi	x0,x0,0	  x0:0x00000000
       89245000	      8923	80000fdc	00000013	addi	x0,x0,0	  x0:0x00000000
       89255000	      8924	80000fe0	00000013	addi	x0,x0,0	  x0:0x00000000
       89265000	      8925	80000fe4	00000013	addi	x0,x0,0	  x0:0x00000000
       89275000	      8926	80000fe8	fe86f213	andi	x4,x13,-24	 x13:0x000007f5  x4=0x000007e0
       89285000	      8927	80000fec	0155dcb3	srl	x25,x11,x21	 x11:0xca7ff000 x21:0x00000000 x25=0xca7ff000
       89295000	      8928	80000ff0	0003f6b3	and	x13,x7,x0	  x7:0x4b000000  x0:0x00000000 x13=0x00000000
       89305000	      8929	80000ff4	a378f593	andi	x11,x17,-1481	 x17:0x0000000a x11=0x00000002
       89315000	      8930	80000ff8	00365513	srli	x10,x12,0x3	 x12:0xfffffc6c x10=0x1fffff8d
       89325000	      8931	80000ffc	813e7e93	andi	x29,x28,-2029	 x28:0x80009f74 x29=0x80009810
       89335000	      8932	80001000	00a85d13	srli	x26,x16,0xa	 x16:0x80009e81 x26=0x00200027
       89345000	      8933	80001004	0397c463	blt	x15,x25,8000102c	 x15:0xfffffc19 x25:0xca7ff000
       89355000	      8934	80001008	03275263	bge	x14,x18,8000102c	 x14:0x00000800 x18:0xfffffbd6
       89365000	      8935	00000000	00000013	addi	x0,x0,0	  x0:0x00000000
       89375000	      8936	80001028	00000013	addi	x0,x0,0	  x0:0x00000000
       89385000	      8937	8000102c	0364dc63	bge	x9,x22,80001064	  x9:0x01000000 x22:0x00000000
       89395000	      8938	00000000	00000013	addi	x0,x0,0	  x0:0x00000000
       89405000	      8939	80001060	00000013	addi	x0,x0,0	  x0:0x00000000
       89415000	      8940	80001064	00a39693	slli	x13,x7,0xa	  x7:0x4b000000 x13=0x00000000
       89425000	      8941	80001068	05850063	beq	x10,x24,800010a8	 x10:0x1fffff8d x24:0xfb6c1ec8
       89435000	      8942	8000106c	008805b3	add	x11,x16,x8	 x16:0x80009e81  x8:0x00000001 x11=0x80009e82
       89445000	      8943	80001070	412cda93	srai	x21,x25,0x12	 x25:0xca7ff000 x21=0xfffff29f
       89455000	      8944	80001074	002610b3	sll	x1,x12,x2	 x12:0xfffffc6c  x2:0x00000000  x1=0xfffffc6c
       89465000	      8945	80001078	b5c33e93	sltiu	x29,x6,-1188	  x6:0x00000001 x29=0x00000001
       89475000	      8946	8000107c	00c69e63	bne	x13,x12,80001098	 x13:0x00000000 x12:0xfffffc6c
       89485000	      8947	00000000	00000013	addi	x0,x0,0	  x0:0x00000000
       89495000	      8948	80001094	00000013	addi	x0,x0,0	  x0:0x00000000
       89505000	      8949	80001098	e26f7c93	andi	x25,x30,-474	 x30:0xfffff997 x25=0xfffff806
       89515000	      8950	8000109c	40575db3	sra	x27,x14,x5	 x14:0x00000800  x5:0x00000000 x27=0x00000800
       89525000	      8951	800010a0	4fc5f413	andi	x8,x11,1276	 x11:0x80009e82  x8=0x00000480
       89535000	      8952	800010a4	418b5bb3	sra	x23,x22,x24	 x22:0x00000000 x24:0xfb6c1ec8 x23=0x00000000
       89545000	      8953	800010a8	01c1f663	bgeu	x3,x28,800010b4	  x3:0x18000000 x28:0x80009f74
       89555000	      8954	800010ac	01c07463	bgeu	x0,x28,800010b4	  x0:0x00000000 x28:0x80009f74
       89565000	      8955	800010b0	00000013	addi	x0,x0,0	  x0:0x00000000
       89575000	      8956	800010b4	85c97993	andi	x19,x18,-1956	 x18:0xfffffbd6 x19=0xfffff854
       89585000	      8957	800010b8	81dba017	auipc	x0,0x81dba	
       89595000	      8958	800010bc	00000013	addi	x0,x0,0	  x0:0x00000000
       89605000	      8959	800010c0	02d21063	bne	x4,x13,800010e0	  x4:0x000007e0 x13:0x00000000
       89615000	      8960	00000000	00000013	addi	x0,x0,0	  x0:0x00000000
       89625000	      8961	800010dc	00000013	addi	x0,x0,0	  x0:0x00000000
       89635000	      8962	800010e0	05cc0693	addi	x13,x24,92	 x24:0xfb6c1ec8 x13=0xfb6c1f24
       89645000	      8963	800010e4	8927e093	ori	x1,x15,-1902	 x15:0xfffffc19  x1=0xfffffc9b
       89655000	      8964	800010e8	40710b33	sub	x22,x2,x7	  x2:0x00000000  x7:0x4b000000 x22=0xb5000000
       89665000	      8965	800010ec	00d0e863	bltu	x1,x13,800010fc	  x1:0xfffffc9b x13:0xfb6c1f24
       89675000	      8966	800010f0	2d222b93	slti	x23,x4,722	  x4:0x000007e0 x23=0x00000000
       89685000	      8967	800010f4	b083e793	ori	x15,x7,-1272	  x7:0x4b000000 x15=0xfffffb08
       89695000	      8968	800010f8	f5800c13	addi	x24,x0,-168	  x0:0x00000000 x24=0xffffff58
       89705000	      8969	800010fc	01dcbab3	sltu	x21,x25,x29	 x25:0xfffff806 x29:0x00000001 x21=0x00000000
       89715000	      8970	80001100	00e492b3	sll	x5,x9,x14	  x9:0x01000000 x14:0x00000800  x5=0x01000000
       89725000	      8971	80001104	28904a93	xori	x21,x0,649	  x0:0x00000000 x21=0x00000289
       89735000	      8972	80001108	eb48c313	xori	x6,x17,-332	 x17:0x0000000a  x6=0xfffffebe
       89745000	      8973	8000110c	010ef1b3	and	x3,x29,x16	 x29:0x00000001 x16:0x80009e81  x3=0x00000001
       89755000	      8974	80001110	405d85b3	sub	x11,x27,x5	 x27:0x00000800  x5:0x01000000 x11=0xff000800
       89765000	      8975	80001114	01e4d2b3	srl	x5,x9,x30	  x9:0x01000000 x30:0xfffff997  x5=0x00000002
       89775000	      8976	80001118	00ec5693	srli	x13,x24,0xe	 x24:0xffffff58 x13=0x0003ffff
       89785000	      8977	8000111c	0fe92837	lui	x16,0xfe92	 x16=0x0fe92000
       89795000	      8978	80001120	01f3d9b3	srl	x19,x7,x31	  x7:0x4b000000 x31:0x80000000 x19=0x4b000000
       89805000	      8979	80001124	00000013	addi	x0,x0,0	  x0:0x00000000
       89815000	      8980	80001128	069ef2b7	lui	x5,0x69ef	  x5=0x069ef000
       89825000	      8981	8000112c	78454b13	xori	x22,x10,1924	 x10:0x1fffff8d x22=0x1ffff809
       89835000	      8982	80001130	01590f33	add	x30,x18,x21	 x18:0xfffffbd6 x21:0x00000289 x30=0xfffffe5f
       89845000	      8983	80001134	00c957b3	srl	x15,x18,x12	 x18:0xfffffbd6 x12:0xfffffc6c x15=0x000fffff
       89855000	      8984	80001138	1d747b13	andi	x22,x8,471	  x8:0x00000480 x22=0x00000080
       89865000	      8985	8000113c	0137ed33	or	x26,x15,x19	 x15:0x000fffff x19:0x4b000000 x26=0x4b0fffff
       89875000	      8986	80001140	3327c813	xori	x16,x15,818	 x15:0x000fffff x16=0x000ffccd
       89885000	      8987	80001144	445dfa93	andi	x21,x27,1093	 x27:0x00000800 x21=0x00000000
       89895000	      8988	80001148	013dfe63	bgeu	x27,x19,80001164	 x27:0x00000800 x19:0x4b000000
       89905000	      8989	8000114c	79bbbf37	lui	x30,0x79bbb	 x30=0x79bbb000
       89915000	      8990	80001150	01b0b2b3	sltu	x5,x1,x27	  x1:0xfffffc9b x27:0x00000800  x5=0x00000000
       89925000	      8991	80001154	f32c7493	andi	x9,x24,-206	 x24:0xffffff58  x9=0xffffff10
       89935000	      8992	80001158	002a4bb3	xor	x23,x20,x2	 x20:0x80009fc4  x2:0x00000000 x23=0x80009fc4
       89945000	      8993	8000115c	4034d393	srai	x7,x9,0x3	  x9:0xffffff10  x7=0xffffffe2
       89955000	      8994	80001160	01e999b3	sll	x19,x19,x30	 x19:0x4b000000 x30:0x79bbb000 x19=0x4b000000
       89965000	      8995	80001164	04e75463	bge	x14,x14,800011ac	 x14:0x00000800 x14:0x00000800
       89975000	      8996	00000000	00000013	addi	x0,x0,0	  x0:0x00000000
       89985000	      8997	800011a8	00000013	addi	x0,x0,0	  x0:0x00000000
       89995000	      8998	800011ac	a3227693	andi	x13,x4,-1486	  x4:0x000007e0 x13=0x00000220
       90005000	      8999	800011b0	0e688c13	addi	x24,x17,230	 x17:0x0000000a x24=0x000000f0
       90015000	      9000	800011b4	039a7663	bgeu	x20,x25,800011e0	 x20:0x80009fc4 x25:0xfffff806
       90025000	      9001	800011b8	41bbd3b3	sra	x7,x23,x27	 x23:0x80009fc4 x27:0x00000800  x7=0x80009fc4
       90035000	      9002	800011bc	00641633	sll	x12,x8,x6	  x8:0x00000480  x6:0xfffffebe x12=0x00000000
       90045000	      9003	800011c0	f55f6593	ori	x11,x30,-171	 x30:0x79bbb000 x11=0xffffff55
       90055000	      9004	800011c4	00b25663	bge	x4,x11,800011d0	  x4:0x000007e0 x11:0xffffff55
       90065000	      9005	00000000	00000013	addi	x0,x0,0	  x0:0x00000000
       90075000	      9006	800011cc	00000013	addi	x0,x0,0	  x0:0x00000000
       90085000	      9007	800011d0	079a8513	addi	x10,x21,121	 x21:0x00000000 x10=0x00000079
       90095000	      9008	800011d4	d9297813	andi	x16,x18,-622	 x18:0xfffffbd6 x16=0xfffff992
       90105000	      9009	800011d8	41795b33	sra	x22,x18,x23	 x18:0xfffffbd6 x23:0x80009fc4 x22=0xffffffbd
       90115000	      9010	800011dc	7cd41017	auipc	x0,0x7cd41	
       90125000	      9011	800011e0	0197d1b3	srl	x3,x15,x25	 x15:0x000fffff x25:0xfffff806  x3=0x00003fff
       90135000	      9012	800011e4	02d28263	beq	x5,x13,80001208	  x5:0x00000000 x13:0x00000220
       90145000	      9013	800011e8	00000013	addi	x0,x0,0	  x0:0x00000000
       90155000	      9014	800011ec	a3bdcb13	xori	x22,x27,-1477	 x27:0x00000800 x22=0xfffff23b
       90165000	      9015	800011f0	00d353b3	srl	x7,x6,x13	  x6:0xfffffebe x13:0x00000220  x7=0xfffffebe
       90175000	      9016	800011f4	9a3a9337	lui	x6,0x9a3a9	  x6=0x9a3a9000
       90185000	      9017	800011f8	00624463	blt	x4,x6,80001200	  x4:0x000007e0  x6:0x9a3a9000
       90195000	      9018	800011fc	3b25b793	sltiu	x15,x11,946	 x11:0xffffff55 x15=0x00000000
       90205000	      9019	80001200	01c514b3	sll	x9,x10,x28	 x10:0x00000079 x28:0x80009f74  x9=0x07900000
       90215000	      9020	80001204	54ccac93	slti	x25,x25,1356	 x25:0xfffff806 x25=0x00000001
       90225000	      9021	80001208	018d5e93	srli	x29,x26,0x18	 x26:0x4b0fffff x29=0x0000004b
       90235000	      9022	8000120c	931e4713	xori	x14,x28,-1743	 x28:0x80009f74 x14=0x7fff6645
       90245000	      9023	80001210	e9abc393	xori	x7,x23,-358	 x23:0x80009fc4  x7=0x7fff615e
       90255000	      9024	80001214	016fc463	blt	x31,x22,8000121c	 x31:0x80000000 x22:0xfffff23b
       90265000	      9025	00000000	00000013	addi	x0,x0,0	  x0:0x00000000
       90275000	      9026	80001218	00000013	addi	x0,x0,0	  x0:0x00000000
       90285000	      9027	8000121c	0047a2b3	slt	x5,x15,x4	 x15:0x00000000  x4:0x000007e0  x5=0x00000001
       90295000	      9028	80001220	41eb5433	sra	x8,x22,x30	 x22:0xfffff23b x30:0x79bbb000  x8=0xfffff23b
       90305000	      9029	80001224	01f19813	slli	x16,x3,0x1f	  x3:0x00003fff x16=0x80000000
       90315000	      9030	80001228	d2118893	addi	x17,x3,-735	  x3:0x00003fff x17=0x00003d20
       90325000	      9031	8000122c	c93b3017	auipc	x0,0xc93b3	
       90335000	      9032	80001230	02789e63	bne	x17,x7,8000126c	 x17:0x00003d20  x7:0x7fff615e
       90345000	      9033	00000000	00000013	addi	x0,x0,0	  x0:0x00000000
       90355000	      9034	80001268	00000013	addi	x0,x0,0	  x0:0x00000000
       90365000	      9035	8000126c	01bd3cb3	sltu	x25,x26,x27	 x26:0x4b0fffff x27:0x00000800 x25=0x00000000
       90375000	      9036	80001270	93c6a013	slti	x0,x13,-1732	 x13:0x00000220
       90385000	      9037	80001274	002f9893	slli	x17,x31,0x2	 x31:0x80000000 x17=0x00000000
       90395000	      9038	80001278	5a767313	andi	x6,x12,1447	 x12:0x00000000  x6=0x00000000
       90405000	      9039	8000127c	00d0f863	bgeu	x1,x13,8000128c	  x1:0xfffffc9b x13:0x00000220
       90415000	      9040	00000000	00000013	addi	x0,x0,0	  x0:0x00000000
       90425000	      9041	80001288	00000013	addi	x0,x0,0	  x0:0x00000000
       90435000	      9042	8000128c	41e25ab3	sra	x21,x4,x30	  x4:0x000007e0 x30:0x79bbb000 x21=0x000007e0
       90445000	      9043	80001290	006fee63	bltu	x31,x6,800012ac	 x31:0x80000000  x6:0x00000000
       90455000	      9044	80001294	41f95c93	srai	x25,x18,0x1f	 x18:0xfffffbd6 x25=0xffffffff
       90465000	      9045	80001298	00d22633	slt	x12,x4,x13	  x4:0x000007e0 x13:0x00000220 x12=0x00000000
       90475000	      9046	8000129c	017940b3	xor	x1,x18,x23	 x18:0xfffffbd6 x23:0x80009fc4  x1=0x7fff6412
       90485000	      9047	800012a0	88bb7293	andi	x5,x22,-1909	 x22:0xfffff23b  x5=0xfffff00b
       90495000	      9048	800012a4	aefb3f13	sltiu	x30,x22,-1297	 x22:0xfffff23b x30=0x00000001
       90505000	      9049	800012a8	00215293	srli	x5,x2,0x2	  x2:0x00000000  x5=0x00000000
       90515000	      9050	800012ac	3f6a7913	andi	x18,x20,1014	 x20:0x80009fc4 x18=0x000003c4
       90525000	      9051	800012b0	015f6eb3	or	x29,x30,x21	 x30:0x00000001 x21:0x000007e0 x29=0x000007e1
       90535000	      9052	800012b4	00014033	xor	x0,x2,x0	  x2:0x00000000  x0:0x00000000
       90545000	      9053	800012b8	01fc61b3	or	x3,x24,x31	 x24:0x000000f0 x31:0x80000000  x3=0x800000f0
       90555000	      9054	800012bc	09f30c13	addi	x24,x6,159	  x6:0x00000000 x24=0x0000009f
       90565000	      9055	800012c0	e78c8313	addi	x6,x25,-392	 x25:0xffffffff  x6=0xfffffe77
       90575000	      9056	800012c4	01b01e63	bne	x0,x27,800012e0	  x0:0x00000000 x27:0x00000800
       90585000	      9057	00000000	00000013	addi	x0,x0,0	  x0:0x00000000
       90595000	      9058	800012dc	00000013	addi	x0,x0,0	  x0:0x00000000
       90605000	      9059	800012e0	0294cc63	blt	x9,x9,80001318	  x9:0x07900000  x9:0x07900000
       90615000	      9060	800012e4	037f5063	bge	x30,x23,80001304	 x30:0x00000001 x23:0x80009fc4
       90625000	      9061	00000000	00000013	addi	x0,x0,0	  x0:0x00000000
       90635000	      9062	80001300	00000013	addi	x0,x0,0	  x0:0x00000000
       90645000	      9063	80001304	00ee0eb3	add	x29,x28,x14	 x28:0x80009f74 x14:0x7fff6645 x29=0x000005b9
       90655000	      9064	80001308	2f43e437	lui	x8,0x2f43e	  x8=0x2f43e000
       90665000	      9065	8000130c	011b9b93	slli	x23,x23,0x11	 x23:0x80009fc4 x23=0x3f880000
       90675000	      9066	80001310	01a10863	beq	x2,x26,80001320	  x2:0x00000000 x26:0x4b0fffff
       90685000	      9067	80001314	4716cb13	xori	x22,x13,1137	 x13:0x00000220 x22=0x00000651
       90695000	      9068	80001318	41aed493	srai	x9,x29,0x1a	 x29:0x000005b9  x9=0x00000000
       90705000	      9069	8000131c	c66e2b13	slti	x22,x28,-922	 x28:0x80009f74 x22=0x00000001
       90715000	      9070	80001320	017cc2b3	xor	x5,x25,x23	 x25:0xffffffff x23:0x3f880000  x5=0xc077ffff
       90725000	      9071	80001324	4df32613	slti	x12,x6,1247	  x6:0xfffffe77 x12=0x00000001
       90735000	      9072	80001328	059f0893	addi	x17,x30,89	 x30:0x00000001 x17=0x0000005a
       90745000	      9073	8000132c	010f7663	bgeu	x30,x16,80001338	 x30:0x00000001 x16:0x80000000
       90755000	      9074	80001330	0076c3b3	xor	x7,x13,x7	 x13:0x00000220  x7:0x7fff615e  x7=0x7fff637e
       90765000	      9075	80001334	01b471b3	and	x3,x8,x27	  x8:0x2f43e000 x27:0x00000800  x3=0x00000000
       90775000	      9076	80001338	019f8b33	add	x22,x31,x25	 x31:0x80000000 x25:0xffffffff x22=0x7fffffff
       90785000	      9077	8000133c	01a67133	and	x2,x12,x26	 x12:0x00000001 x26:0x4b0fffff  x2=0x00000001
       90795000	      9078	80001340	00a38533	add	x10,x7,x10	  x7:0x7fff637e x10:0x00000079 x10=0x7fff63f7
       90805000	      9079	80001344	7044bc93	sltiu	x25,x9,1796	  x9:0x00000000 x25=0x00000001
       90815000	      9080	80001348	d9f2fd13	andi	x26,x5,-609	  x5:0xc077ffff x26=0xc077fd9f
       90825000	      9081	8000134c	01dd5f13	srli	x30,x26,0x1d	 x26:0xc077fd9f x30=0x00000006
       90835000	      9082	80001350	015de5b3	or	x11,x27,x21	 x27:0x00000800 x21:0x000007e0 x11=0x00000fe0
       90845000	      9083	80001354	e82ae093	ori	x1,x21,-382	 x21:0x000007e0  x1=0xffffffe2
       90855000	      9084	80001358	40030033	sub	x0,x6,x0	  x6:0xfffffe77  x0:0x00000000
       90865000	      9085	8000135c	01925313	srli	x6,x4,0x19	  x4:0x000007e0  x6=0x00000000
       90875000	      9086	80001360	0179ecb3	or	x25,x19,x23	 x19:0x4b000000 x23:0x3f880000 x25=0x7f880000
       90885000	      9087	80001364	03e0f663	bgeu	x1,x30,80001390	  x1:0xffffffe2 x30:0x00000006
       90895000	      9088	00000000	00000013	addi	x0,x0,0	  x0:0x00000000
       90905000	      9089	8000138c	00000013	addi	x0,x0,0	  x0:0x00000000
       90915000	      9090	80001390	e70ea617	auipc	x12,0xe70ea	 x12=0x670eb38c
       90925000	      9091	80001394	014bcb33	xor	x22,x23,x20	 x23:0x3f880000 x20:0x80009fc4 x22=0xbf889fc4
       90935000	      9092	80001398	406c5133	sra	x2,x24,x6	 x24:0x0000009f  x6:0x00000000  x2=0x0000009f
       90945000	      9093	8000139c	015971b3	and	x3,x18,x21	 x18:0x000003c4 x21:0x000007e0  x3=0x000003c0
       90955000	      9094	800013a0	20e12213	slti	x4,x2,526	  x2:0x0000009f  x4=0x00000001
       90965000	      9095	800013a4	01171863	bne	x14,x17,800013b4	 x14:0x7fff6645 x17:0x0000005a
       90975000	      9096	00000000	00000013	addi	x0,x0,0	  x0:0x00000000
       90985000	      9097	800013b0	00000013	addi	x0,x0,0	  x0:0x00000000
       90995000	      9098	800013b4	03d97663	bgeu	x18,x29,800013e0	 x18:0x000003c4 x29:0x000005b9
       91005000	      9099	800013b8	0021c433	xor	x8,x3,x2	  x3:0x000003c0  x2:0x0000009f  x8=0x0000035f
       91015000	      9100	800013bc	7788c993	xori	x19,x17,1912	 x17:0x0000005a x19=0x00000722
       91025000	      9101	800013c0	40e25b33	sra	x22,x4,x14	  x4:0x00000001 x14:0x7fff6645 x22=0x00000000
       91035000	      9102	800013c4	01900433	add	x8,x0,x25	  x0:0x00000000 x25:0x7f880000  x8=0x7f880000
       91045000	      9103	800013c8	01ac46b3	xor	x13,x24,x26	 x24:0x0000009f x26:0xc077fd9f x13=0xc077fd00
       91055000	      9104	800013cc	01129313	slli	x6,x5,0x11	  x5:0xc077ffff  x6=0xfffe0000
       91065000	      9105	800013d0	012e6c63	bltu	x28,x18,800013e8	 x28:0x80009f74 x18:0x000003c4
       91075000	      9106	800013d4	41e303b3	sub	x7,x6,x30	  x6:0xfffe0000 x30:0x00000006  x7=0xfffdfffa
       91085000	      9107	800013d8	00000013	addi	x0,x0,0	  x0:0x00000000
       91095000	      9108	800013dc	01fff433	and	x8,x31,x31	 x31:0x80000000 x31:0x80000000  x8=0x80000000
       91105000	      9109	800013e0	8754c237	lui	x4,0x8754c	  x4=0x8754c000
       91115000	      9110	800013e4	41dedd93	srai	x27,x29,0x1d	 x29:0x000005b9 x27=0x00000000
       91125000	      9111	800013e8	012c8263	beq	x25,x18,800013ec	 x25:0x7f880000 x18:0x000003c4
       91135000	      9112	800013ec	44b6c413	xori	x8,x13,1099	 x13:0xc077fd00  x8=0xc077f94b
       91145000	      9113	800013f0	4172d733	sra	x14,x5,x23	  x5:0xc077ffff x23:0x3f880000 x14=0xc077ffff
       91155000	      9114	800013f4	00674b33	xor	x22,x14,x6	 x14:0xc077ffff  x6:0xfffe0000 x22=0x3f89ffff
       91165000	      9115	800013f8	24547013	andi	x0,x8,581	  x8:0xc077f94b
       91175000	      9116	800013fc	a3f74413	xori	x8,x14,-1473	 x14:0xc077ffff  x8=0x3f8805c0
       91185000	      9117	80001400	77f36913	ori	x18,x6,1919	  x6:0xfffe0000 x18=0xfffe077f
       91195000	      9118	80001404	00000013	addi	x0,x0,0	  x0:0x00000000
       91205000	      9119	80001408	0567e063	bltu	x15,x22,80001448	 x15:0x00000000 x22:0x3f89ffff
       91215000	      9120	00000000	00000013	addi	x0,x0,0	  x0:0x00000000
       91225000	      9121	80001444	00000013	addi	x0,x0,0	  x0:0x00000000
       91235000	      9122	80001448	a0b28d13	addi	x26,x5,-1525	  x5:0xc077ffff x26=0xc077fa0a
       91245000	      9123	8000144c	00da9893	slli	x17,x21,0xd	 x21:0x000007e0 x17=0x00fc0000
       91255000	      9124	80001450	0b953093	sltiu	x1,x10,185	 x10:0x7fff63f7  x1=0x00000000
       91265000	      9125	80001454	0126a733	slt	x14,x13,x18	 x13:0xc077fd00 x18:0xfffe077f x14=0x00000001
       91275000	      9126	80001458	0b0f8517	auipc	x10,0xb0f8	 x10=0x8b0f9454
       91285000	      9127	8000145c	02439263	bne	x7,x4,80001480	  x7:0xfffdfffa  x4:0x8754c000
       91295000	      9128	00000000	00000013	addi	x0,x0,0	  x0:0x00000000
       91305000	      9129	8000147c	00000013	addi	x0,x0,0	  x0:0x00000000
       91315000	      9130	80001480	001da8b3	slt	x17,x27,x1	 x27:0x00000000  x1:0x00000000 x17=0x00000000
       91325000	      9131	80001484	b8bdcd13	xori	x26,x27,-1141	 x27:0x00000000 x26=0xfffffb8b
       91335000	      9132	80001488	00ce70b3	and	x1,x28,x12	 x28:0x80009f74 x12:0x670eb38c  x1=0x00009304
       91345000	      9133	8000148c	7ba4b493	sltiu	x9,x9,1978	  x9:0x00000000  x9=0x00000001
       91355000	      9134	80001490	963d6893	ori	x17,x26,-1693	 x26:0xfffffb8b x17=0xfffffbeb
       91365000	      9135	80001494	007224b3	slt	x9,x4,x7	  x4:0x8754c000  x7:0xfffdfffa  x9=0x00000001
       91375000	      9136	80001498	00815393	srli	x7,x2,0x8	  x2:0x0000009f  x7=0x00000000
       91385000	      9137	8000149c	00000013	addi	x0,x0,0	  x0:0x00000000
       91395000	      9138	800014a0	00985813	srli	x16,x16,0x9	 x16:0x80000000 x16=0x00400000
       91405000	      9139	800014a4	00cfb7b3	sltu	x15,x31,x12	 x31:0x80000000 x12:0x670eb38c x15=0x00000000
       91415000	      9140	800014a8	41dedbb3	sra	x23,x29,x29	 x29:0x000005b9 x29:0x000005b9 x23=0x00000000
       91425000	      9141	800014ac	41c05813	srai	x16,x0,0x1c	  x0:0x00000000 x16=0x00000000
       91435000	      9142	800014b0	01368663	beq	x13,x19,800014bc	 x13:0xc077fd00 x19:0x00000722
       91445000	      9143	800014b4	006c6c33	or	x24,x24,x6	 x24:0x0000009f  x6:0xfffe0000 x24=0xfffe009f
       91455000	      9144	800014b8	04c69663	bne	x13,x12,80001504	 x13:0xc077fd00 x12:0x670eb38c
       91465000	      9145	00000000	00000013	addi	x0,x0,0	  x0:0x00000000
       91475000	      9146	80001500	00000013	addi	x0,x0,0	  x0:0x00000000
       91485000	      9147	80001504	be35e813	ori	x16,x11,-1053	 x11:0x00000fe0 x16=0xffffffe3
       91495000	      9148	80001508	01465133	srl	x2,x12,x20	 x12:0x670eb38c x20:0x80009fc4  x2=0x0670eb38
       91505000	      9149	8000150c	4009dd13	srai	x26,x19,0x0	 x19:0x00000722 x26=0x00000722
       91515000	      9150	80001510	0507c263	blt	x15,x16,80001554	 x15:0x00000000 x16:0xffffffe3
       91525000	      9151	80001514	00b6bab3	sltu	x21,x13,x11	 x13:0xc077fd00 x11:0x00000fe0 x21=0x00000000
       91535000	      9152	80001518	91d4a513	slti	x10,x9,-1763	  x9:0x00000001 x10=0x00000000
       91545000	      9153	8000151c	01b26863	bltu	x4,x27,8000152c	  x4:0x8754c000 x27:0x00000000
       91555000	      9154	80001520	02937663	bgeu	x6,x9,8000154c	  x6:0xfffe0000  x9:0x00000001
       91565000	      9155	00000000	00000013	addi	x0,x0,0	  x0:0x00000000
       91575000	      9156	80001548	00000013	addi	x0,x0,0	  x0:0x00000000
       91585000	      9157	8000154c	00068eb3	add	x29,x13,x0	 x13:0xc077fd00  x0:0x00000000 x29=0xc077fd00
       91595000	      9158	80001550	40e386b3	sub	x13,x7,x14	  x7:0x00000000 x14:0x00000001 x13=0xffffffff
       91605000	      9159	80001554	00d4cc63	blt	x9,x13,8000156c	  x9:0x00000001 x13:0xffffffff
       91615000	      9160	80001558	41195613	srai	x12,x18,0x11	 x18:0xfffe077f x12=0xffffffff
       91625000	      9161	8000155c	012ab933	sltu	x18,x21,x18	 x21:0x00000000 x18:0xfffe077f x18=0x00000001
       91635000	      9162	80001560	41285413	srai	x8,x16,0x12	 x16:0xffffffe3  x8=0xffffffff
       91645000	      9163	80001564	00527cb3	and	x25,x4,x5	  x4:0x8754c000  x5:0xc077ffff x25=0x8054c000
       91655000	      9164	80001568	00514bb3	xor	x23,x2,x5	  x2:0x0670eb38  x5:0xc077ffff x23=0xc60714c7
       91665000	      9165	8000156c	031c4463	blt	x24,x17,80001594	 x24:0xfffe009f x17:0xfffffbeb
       91675000	      9166	00000000	00000013	addi	x0,x0,0	  x0:0x00000000
       91685000	      9167	80001590	00000013	addi	x0,x0,0	  x0:0x00000000
       91695000	      9168	80001594	41d751b3	sra	x3,x14,x29	 x14:0x00000001 x29:0xc077fd00  x3=0x00000001
       91705000	      9169	80001598	01afd913	srli	x18,x31,0x1a	 x31:0x80000000 x18=0x00000020
       91715000	      9170	8000159c	01e6b2b3	sltu	x5,x13,x30	 x13:0xffffffff x30:0x00000006  x5=0x00000000
       91725000	      9171	800015a0	00851e63	bne	x10,x8,800015bc	 x10:0x00000000  x8:0xffffffff
       91735000	      9172	00000000	00000013	addi	x0,x0,0	  x0:0x00000000
       91745000	      9173	800015b8	00000013	addi	x0,x0,0	  x0:0x00000000
       91755000	      9174	800015bc	012dc533	xor	x10,x27,x18	 x27:0x00000000 x18:0x00000020 x10=0x00000020
       91765000	      9175	800015c0	012cc663	blt	x25,x18,800015cc	 x25:0x8054c000 x18:0x00000020
       91775000	      9176	00000000	00000013	addi	x0,x0,0	  x0:0x00000000
       91785000	      9177	800015c8	00000013	addi	x0,x0,0	  x0:0x00000000
       91795000	      9178	800015cc	00000013	addi	x0,x0,0	  x0:0x00000000
       91805000	      9179	800015d0	02c66663	bltu	x12,x12,800015fc	 x12:0xffffffff x12:0xffffffff
       91815000	      9180	800015d4	fa4a1b37	lui	x22,0xfa4a1	 x22=0xfa4a1000
       91825000	      9181	800015d8	4104db33	sra	x22,x9,x16	  x9:0x00000001 x16:0xffffffe3 x22=0x00000000
       91835000	      9182	800015dc	01d0dc93	srli	x25,x1,0x1d	  x1:0x00009304 x25=0x00000000
       91845000	      9183	800015e0	03886663	bltu	x16,x24,8000160c	 x16:0xffffffe3 x24:0xfffe009f
       91855000	      9184	800015e4	f0dc2613	slti	x12,x24,-243	 x24:0xfffe009f x12=0x00000001
       91865000	      9185	800015e8	8bfe6713	ori	x14,x28,-1857	 x28:0x80009f74 x14=0xffffffff
       91875000	      9186	800015ec	410c8db3	sub	x27,x25,x16	 x25:0x00000000 x16:0xffffffe3 x27=0x0000001d
       91885000	      9187	800015f0	007bfe63	bgeu	x23,x7,8000160c	 x23:0xc60714c7  x7:0x00000000
       91895000	      9188	00000000	00000013	addi	x0,x0,0	  x0:0x00000000
       91905000	      9189	80001608	00000013	addi	x0,x0,0	  x0:0x00000000
       91915000	      9190	8000160c	016b6ab3	or	x21,x22,x22	 x22:0x00000000 x22:0x00000000 x21=0x00000000
       91925000	      9191	80001610	019e0333	add	x6,x28,x25	 x28:0x80009f74 x25:0x00000000  x6=0x80009f74
       91935000	      9192	80001614	8fd64793	xori	x15,x12,-1795	 x12:0x00000001 x15=0xfffff8fc
       91945000	      9193	80001618	00d24d33	xor	x26,x4,x13	  x4:0x8754c000 x13:0xffffffff x26=0x78ab3fff
       91955000	      9194	8000161c	00eff7b3	and	x15,x31,x14	 x31:0x80000000 x14:0xffffffff x15=0x80000000
       91965000	      9195	80001620	03646663	bltu	x8,x22,8000164c	  x8:0xffffffff x22:0x00000000
       91975000	      9196	80001624	46ba4593	xori	x11,x20,1131	 x20:0x80009fc4 x11=0x80009baf
       91985000	      9197	80001628	1b736493	ori	x9,x6,439	  x6:0x80009f74  x9=0x80009ff7
       91995000	      9198	8000162c	97f78193	addi	x3,x15,-1665	 x15:0x80000000  x3=0x7ffff97f
       92005000	      9199	80001630	01127c33	and	x24,x4,x17	  x4:0x8754c000 x17:0xfffffbeb x24=0x8754c000
       92015000	      9200	80001634	01945c63	bge	x8,x25,8000164c	  x8:0xffffffff x25:0x00000000
       92025000	      9201	80001638	017eb733	sltu	x14,x29,x23	 x29:0xc077fd00 x23:0xc60714c7 x14=0x00000001
       92035000	      9202	8000163c	006c1863	bne	x24,x6,8000164c	 x24:0x8754c000  x6:0x80009f74
       92045000	      9203	00000000	00000013	addi	x0,x0,0	  x0:0x00000000
       92055000	      9204	80001648	00000013	addi	x0,x0,0	  x0:0x00000000
       92065000	      9205	8000164c	9efcf513	andi	x10,x25,-1553	 x25:0x00000000 x10=0x00000000
       92075000	      9206	80001650	00363db3	sltu	x27,x12,x3	 x12:0x00000001  x3:0x7ffff97f x27=0x00000001
       92085000	      9207	80001654	40640633	sub	x12,x8,x6	  x8:0xffffffff  x6:0x80009f74 x12=0x7fff608b
       92095000	      9208	80001658	004e2d03	lw	x26,4(x28)	 x28:0x80009f74 x26=0x8000014c PA:0x80009f78
       92105000	      9209	8000165c	01f2be97	auipc	x29,0x1f2b	 x29=0x81f2c658
       92115000	      9210	80001660	00a538b3	sltu	x17,x10,x10	 x10:0x00000000 x10:0x00000000 x17=0x00000000
       92125000	      9211	80001664	01180633	add	x12,x16,x17	 x16:0xffffffe3 x17:0x00000000 x12=0xffffffe3
       92135000	      9212	80001668	010e0e13	addi	x28,x28,16	 x28:0x80009f74 x28=0x80009f84
       92145000	      9213	8000166c	0018f2b3	and	x5,x17,x1	 x17:0x00000000  x1:0x00009304  x5=0x00000000
       92155000	      9214	80001670	39449137	lui	x2,0x39449	  x2=0x39449000
       92165000	      9215	80001674	418f5833	sra	x16,x30,x24	 x30:0x00000006 x24:0x8754c000 x16=0x00000006
       92175000	      9216	80001678	00000013	addi	x0,x0,0	  x0:0x00000000
       92185000	      9217	8000167c	0180a733	slt	x14,x1,x24	  x1:0x00009304 x24:0x8754c000 x14=0x00000000
       92195000	      9218	80001680	001d0613	addi	x12,x26,1	 x26:0x8000014c x12=0x8000014d
       92205000	      9219	80001684	00060667	jalr	x12,x12,0	 x12:0x8000014d x12=0x80001684
       92215000	      9220	00000000	00000013	addi	x0,x0,0	  x0:0x00000000
       92225000	      9221	8000014c	00000013	addi	x0,x0,0	  x0:0x00000000
       92235000	      9222	80000150	00500513	addi	x10,x0,5	  x0:0x00000000 x10=0x00000005
       92245000	      9223	80000154	0034ed33	or	x26,x9,x3	  x9:0x80009ff7  x3:0x7ffff97f x26=0xffffffff
       92255000	      9224	80000158	00000993	addi	x19,x0,0	  x0:0x00000000 x19=0x00000000
       92265000	      9225	8000015c	018e4cb3	xor	x25,x28,x24	 x28:0x80009f84 x24:0x8754c000 x25=0x07545f84
       92275000	      9226	80000160	3657cc13	xori	x24,x15,869	 x15:0x80000000 x24=0x80000365
       92285000	      9227	80000164	7a443c13	sltiu	x24,x8,1956	  x8:0xffffffff x24=0x00000000
       92295000	      9228	80000168	00000013	addi	x0,x0,0	  x0:0x00000000
       92305000	      9229	8000016c	00eea633	slt	x12,x29,x14	 x29:0x81f2c658 x14:0x00000000 x12=0x00000001
       92315000	      9230	80000170	008af333	and	x6,x21,x8	 x21:0x00000000  x8:0xffffffff  x6=0x00000000
       92325000	      9231	80000174	017da5b3	slt	x11,x27,x23	 x27:0x00000001 x23:0xc60714c7 x11=0x00000000
       92335000	      9232	80000178	41275d93	srai	x27,x14,0x12	 x14:0x00000000 x27=0x00000000
       92345000	      9233	8000017c	0070e433	or	x8,x1,x7	  x1:0x00009304  x7:0x00000000  x8=0x00009304
       92355000	      9234	80000180	fff50513	addi	x10,x10,-1	 x10:0x00000005 x10=0x00000004
       92365000	      9235	80000184	41fb8b33	sub	x22,x23,x31	 x23:0xc60714c7 x31:0x80000000 x22=0x460714c7
       92375000	      9236	80000188	00000013	addi	x0,x0,0	  x0:0x00000000
       92385000	      9237	8000018c	14fc4237	lui	x4,0x14fc4	  x4=0x14fc4000
       92395000	      9238	80000190	d4247c13	andi	x24,x8,-702	  x8:0x00009304 x24=0x00009100
       92405000	      9239	80000194	fd3558e3	bge	x10,x19,80000164	 x10:0x00000004 x19:0x00000000
       92415000	      9240	00000000	00000013	addi	x0,x0,0	  x0:0x00000000
       92425000	      9241	80000160	00000013	addi	x0,x0,0	  x0:0x00000000
       92435000	      9242	80000164	7a443c13	sltiu	x24,x8,1956	  x8:0x00009304 x24=0x00000000
       92445000	      9243	80000168	00000013	addi	x0,x0,0	  x0:0x00000000
       92455000	      9244	8000016c	00eea633	slt	x12,x29,x14	 x29:0x81f2c658 x14:0x00000000 x12=0x00000001
       92465000	      9245	80000170	008af333	and	x6,x21,x8	 x21:0x00000000  x8:0x00009304  x6=0x00000000
       92475000	      9246	80000174	017da5b3	slt	x11,x27,x23	 x27:0x00000000 x23:0xc60714c7 x11=0x00000000
       92485000	      9247	80000178	41275d93	srai	x27,x14,0x12	 x14:0x00000000 x27=0x00000000
       92495000	      9248	8000017c	0070e433	or	x8,x1,x7	  x1:0x00009304  x7:0x00000000  x8=0x00009304
       92505000	      9249	80000180	fff50513	addi	x10,x10,-1	 x10:0x00000004 x10=0x00000003
       92515000	      9250	80000184	41fb8b33	sub	x22,x23,x31	 x23:0xc60714c7 x31:0x80000000 x22=0x460714c7
       92525000	      9251	80000188	00000013	addi	x0,x0,0	  x0:0x00000000
       92535000	      9252	8000018c	14fc4237	lui	x4,0x14fc4	  x4=0x14fc4000
       92545000	      9253	80000190	d4247c13	andi	x24,x8,-702	  x8:0x00009304 x24=0x00009100
       92555000	      9254	80000194	fd3558e3	bge	x10,x19,80000164	 x10:0x00000003 x19:0x00000000
       92565000	      9255	00000000	00000013	addi	x0,x0,0	  x0:0x00000000
       92575000	      9256	80000160	00000013	addi	x0,x0,0	  x0:0x00000000
       92585000	      9257	80000164	7a443c13	sltiu	x24,x8,1956	  x8:0x00009304 x24=0x00000000
       92595000	      9258	80000168	00000013	addi	x0,x0,0	  x0:0x00000000
       92605000	      9259	8000016c	00eea633	slt	x12,x29,x14	 x29:0x81f2c658 x14:0x00000000 x12=0x00000001
       92615000	      9260	80000170	008af333	and	x6,x21,x8	 x21:0x00000000  x8:0x00009304  x6=0x00000000
       92625000	      9261	80000174	017da5b3	slt	x11,x27,x23	 x27:0x00000000 x23:0xc60714c7 x11=0x00000000
       92635000	      9262	80000178	41275d93	srai	x27,x14,0x12	 x14:0x00000000 x27=0x00000000
       92645000	      9263	8000017c	0070e433	or	x8,x1,x7	  x1:0x00009304  x7:0x00000000  x8=0x00009304
       92655000	      9264	80000180	fff50513	addi	x10,x10,-1	 x10:0x00000003 x10=0x00000002
       92665000	      9265	80000184	41fb8b33	sub	x22,x23,x31	 x23:0xc60714c7 x31:0x80000000 x22=0x460714c7
       92675000	      9266	80000188	00000013	addi	x0,x0,0	  x0:0x00000000
       92685000	      9267	8000018c	14fc4237	lui	x4,0x14fc4	  x4=0x14fc4000
       92695000	      9268	80000190	d4247c13	andi	x24,x8,-702	  x8:0x00009304 x24=0x00009100
       92705000	      9269	80000194	fd3558e3	bge	x10,x19,80000164	 x10:0x00000002 x19:0x00000000
       92715000	      9270	00000000	00000013	addi	x0,x0,0	  x0:0x00000000
       92725000	      9271	80000160	00000013	addi	x0,x0,0	  x0:0x00000000
       92735000	      9272	80000164	7a443c13	sltiu	x24,x8,1956	  x8:0x00009304 x24=0x00000000
       92745000	      9273	80000168	00000013	addi	x0,x0,0	  x0:0x00000000
       92755000	      9274	8000016c	00eea633	slt	x12,x29,x14	 x29:0x81f2c658 x14:0x00000000 x12=0x00000001
       92765000	      9275	80000170	008af333	and	x6,x21,x8	 x21:0x00000000  x8:0x00009304  x6=0x00000000
       92775000	      9276	80000174	017da5b3	slt	x11,x27,x23	 x27:0x00000000 x23:0xc60714c7 x11=0x00000000
       92785000	      9277	80000178	41275d93	srai	x27,x14,0x12	 x14:0x00000000 x27=0x00000000
       92795000	      9278	8000017c	0070e433	or	x8,x1,x7	  x1:0x00009304  x7:0x00000000  x8=0x00009304
       92805000	      9279	80000180	fff50513	addi	x10,x10,-1	 x10:0x00000002 x10=0x00000001
       92815000	      9280	80000184	41fb8b33	sub	x22,x23,x31	 x23:0xc60714c7 x31:0x80000000 x22=0x460714c7
       92825000	      9281	80000188	00000013	addi	x0,x0,0	  x0:0x00000000
       92835000	      9282	8000018c	14fc4237	lui	x4,0x14fc4	  x4=0x14fc4000
       92845000	      9283	80000190	d4247c13	andi	x24,x8,-702	  x8:0x00009304 x24=0x00009100
       92855000	      9284	80000194	fd3558e3	bge	x10,x19,80000164	 x10:0x00000001 x19:0x00000000
       92865000	      9285	00000000	00000013	addi	x0,x0,0	  x0:0x00000000
       92875000	      9286	80000160	00000013	addi	x0,x0,0	  x0:0x00000000
       92885000	      9287	80000164	7a443c13	sltiu	x24,x8,1956	  x8:0x00009304 x24=0x00000000
       92895000	      9288	80000168	00000013	addi	x0,x0,0	  x0:0x00000000
       92905000	      9289	8000016c	00eea633	slt	x12,x29,x14	 x29:0x81f2c658 x14:0x00000000 x12=0x00000001
       92915000	      9290	80000170	008af333	and	x6,x21,x8	 x21:0x00000000  x8:0x00009304  x6=0x00000000
       92925000	      9291	80000174	017da5b3	slt	x11,x27,x23	 x27:0x00000000 x23:0xc60714c7 x11=0x00000000
       92935000	      9292	80000178	41275d93	srai	x27,x14,0x12	 x14:0x00000000 x27=0x00000000
       92945000	      9293	8000017c	0070e433	or	x8,x1,x7	  x1:0x00009304  x7:0x00000000  x8=0x00009304
       92955000	      9294	80000180	fff50513	addi	x10,x10,-1	 x10:0x00000001 x10=0x00000000
       92965000	      9295	80000184	41fb8b33	sub	x22,x23,x31	 x23:0xc60714c7 x31:0x80000000 x22=0x460714c7
       92975000	      9296	80000188	00000013	addi	x0,x0,0	  x0:0x00000000
       92985000	      9297	8000018c	14fc4237	lui	x4,0x14fc4	  x4=0x14fc4000
       92995000	      9298	80000190	d4247c13	andi	x24,x8,-702	  x8:0x00009304 x24=0x00009100
       93005000	      9299	80000194	fd3558e3	bge	x10,x19,80000164	 x10:0x00000000 x19:0x00000000
       93015000	      9300	00000000	00000013	addi	x0,x0,0	  x0:0x00000000
       93025000	      9301	80000160	00000013	addi	x0,x0,0	  x0:0x00000000
       93035000	      9302	80000164	7a443c13	sltiu	x24,x8,1956	  x8:0x00009304 x24=0x00000000
       93045000	      9303	80000168	00000013	addi	x0,x0,0	  x0:0x00000000
       93055000	      9304	8000016c	00eea633	slt	x12,x29,x14	 x29:0x81f2c658 x14:0x00000000 x12=0x00000001
       93065000	      9305	80000170	008af333	and	x6,x21,x8	 x21:0x00000000  x8:0x00009304  x6=0x00000000
       93075000	      9306	80000174	017da5b3	slt	x11,x27,x23	 x27:0x00000000 x23:0xc60714c7 x11=0x00000000
       93085000	      9307	80000178	41275d93	srai	x27,x14,0x12	 x14:0x00000000 x27=0x00000000
       93095000	      9308	8000017c	0070e433	or	x8,x1,x7	  x1:0x00009304  x7:0x00000000  x8=0x00009304
       93105000	      9309	80000180	fff50513	addi	x10,x10,-1	 x10:0x00000000 x10=0xffffffff
       93115000	      9310	80000184	41fb8b33	sub	x22,x23,x31	 x23:0xc60714c7 x31:0x80000000 x22=0x460714c7
       93125000	      9311	80000188	00000013	addi	x0,x0,0	  x0:0x00000000
       93135000	      9312	8000018c	14fc4237	lui	x4,0x14fc4	  x4=0x14fc4000
       93145000	      9313	80000190	d4247c13	andi	x24,x8,-702	  x8:0x00009304 x24=0x00009100
       93155000	      9314	80000194	fd3558e3	bge	x10,x19,80000164	 x10:0xffffffff x19:0x00000000
       93165000	      9315	80000198	ae06be93	sltiu	x29,x13,-1312	 x13:0xffffffff x29=0x00000000
       93175000	      9316	8000019c	408e0133	sub	x2,x28,x8	 x28:0x80009f84  x8:0x00009304  x2=0x80000c80
       93185000	      9317	800001a0	033ed663	bge	x29,x19,800001cc	 x29:0x00000000 x19:0x00000000
       93195000	      9318	00000000	00000013	addi	x0,x0,0	  x0:0x00000000
       93205000	      9319	800001c8	00000013	addi	x0,x0,0	  x0:0x00000000
       93215000	      9320	800001cc	00000013	addi	x0,x0,0	  x0:0x00000000
       93225000	      9321	800001d0	00000f97	auipc	x31,0x0	 x31=0x800001cc
       93235000	      9322	800001d4	00cf8f93	addi	x31,x31,12	 x31:0x800001cc x31=0x800001d8
       93245000	      9323	800001d8	000f8067	jalr	x0,x31,0	 x31:0x800001d8
       93255000	      9324	00000000	00000013	addi	x0,x0,0	  x0:0x00000000
       93265000	      9325	800001d8	00000013	addi	x0,x0,0	  x0:0x00000000
       93275000	      9326	800001dc	00100193	addi	x3,x0,1	  x0:0x00000000  x3=0x00000001
       93285000	      9327	800001e0	00000073	ecall	
       93295000	      9328	800001e4	00c1d493	srli	x9,x3,0xc	  x3:0x00000001  x9=0x00000000
