		Time			Cycle	PC		Insn	Decoded instruction	Register and memory contents
          65000	         5	80000004	00000293	addi	x5,x0,0	  x0:0x00000000  x5=0x00000000
          75000	         6	80000008	00000313	addi	x6,x0,0	  x0:0x00000000  x6=0x00000000
          85000	         7	8000000c	00628263	beq	x5,x6,80000010	  x5:0x00000000  x6:0x00000000
          95000	         8	00000000	00000013	addi	x0,x0,0	  x0:0x00000000
         105000	         9	8000000c	00000013	addi	x0,x0,0	  x0:0x00000000
         115000	        10	80000010	00000497	auipc	x9,0x0	  x9=0x8000000c
         125000	        11	80000014	00c48493	addi	x9,x9,12	  x9:0x8000000c  x9=0x80000018
         135000	        12	80000018	00048067	jalr	x0,x9,0	  x9:0x80000018
         145000	        13	00000000	00000013	addi	x0,x0,0	  x0:0x00000000
         155000	        14	80000018	00000013	addi	x0,x0,0	  x0:0x00000000
         165000	        15	8000001c	40000a37	lui	x20,0x40000	 x20=0x40000000
         175000	        16	80000020	100a0a13	addi	x20,x20,256	 x20:0x40000000 x20=0x40000100
         185000	        17	80000024	00000013	addi	x0,x0,0	  x0:0x00000000
         195000	        18	80000028	0000a217	auipc	x4,0xa	  x4=0x8000a024
         205000	        19	8000002c	fa020213	addi	x4,x4,-96	  x4:0x8000a024  x4=0x80009fc4
         215000	        20	80000030	00003a17	auipc	x20,0x3	 x20=0x8000302c
         225000	        21	80000034	df4a0a13	addi	x20,x20,-524	 x20:0x8000302c x20=0x80002e20
         235000	        22	80000038	000a6a13	ori	x20,x20,0	 x20:0x80002e20 x20=0x80002e20
         245000	        23	8000003c	00000013	addi	x0,x0,0	  x0:0x00000000
         255000	        24	80000040	00000a17	auipc	x20,0x0	 x20=0x8000003c
         265000	        25	80000044	020a0a13	addi	x20,x20,32	 x20:0x8000003c x20=0x8000005c
         275000	        26	80000048	00000013	addi	x0,x0,0	  x0:0x00000000
         285000	        27	8000004c	00000013	addi	x0,x0,0	  x0:0x00000000
         295000	        28	80000050	00002a37	lui	x20,0x2	 x20=0x00002000
         305000	        29	80000054	800a0a13	addi	x20,x20,-2048	 x20:0x00002000 x20=0x00001800
         315000	        30	80000058	00000013	addi	x0,x0,0	  x0:0x00000000
         325000	        31	8000005c	00000013	addi	x0,x0,0	  x0:0x00000000
         335000	        32	80000060	00000013	addi	x0,x0,0	  x0:0x00000000
         345000	        33	80000064	00000093	addi	x1,x0,0	  x0:0x00000000  x1=0x00000000
         355000	        34	80000068	00700113	addi	x2,x0,7	  x0:0x00000000  x2=0x00000007
         365000	        35	8000006c	00300193	addi	x3,x0,3	  x0:0x00000000  x3=0x00000003
         375000	        36	80000070	00000293	addi	x5,x0,0	  x0:0x00000000  x5=0x00000000
         385000	        37	80000074	80000337	lui	x6,0x80000	  x6=0x80000000
         395000	        38	80000078	00000393	addi	x7,x0,0	  x0:0x00000000  x7=0x00000000
         405000	        39	8000007c	00b00413	addi	x8,x0,11	  x0:0x00000000  x8=0x0000000b
         415000	        40	80000080	00100493	addi	x9,x0,1	  x0:0x00000000  x9=0x00000001
         425000	        41	80000084	9d237537	lui	x10,0x9d237	 x10=0x9d237000
         435000	        42	80000088	a8250513	addi	x10,x10,-1406	 x10:0x9d237000 x10=0x9d236a82
         445000	        43	8000008c	fd7465b7	lui	x11,0xfd746	 x11=0xfd746000
         455000	        44	80000090	41658593	addi	x11,x11,1046	 x11:0xfd746000 x11=0xfd746416
         465000	        45	80000094	fc8ab637	lui	x12,0xfc8ab	 x12=0xfc8ab000
         475000	        46	80000098	cd760613	addi	x12,x12,-809	 x12:0xfc8ab000 x12=0xfc8aacd7
         485000	        47	8000009c	800006b7	lui	x13,0x80000	 x13=0x80000000
         495000	        48	800000a0	00200713	addi	x14,x0,2	  x0:0x00000000 x14=0x00000002
         505000	        49	800000a4	f8cee7b7	lui	x15,0xf8cee	 x15=0xf8cee000
         515000	        50	800000a8	37c78793	addi	x15,x15,892	 x15:0xf8cee000 x15=0xf8cee37c
         525000	        51	800000ac	80000837	lui	x16,0x80000	 x16=0x80000000
         535000	        52	800000b0	00400893	addi	x17,x0,4	  x0:0x00000000 x17=0x00000004
         545000	        53	800000b4	1653e937	lui	x18,0x1653e	 x18=0x1653e000
         555000	        54	800000b8	29990913	addi	x18,x18,665	 x18:0x1653e000 x18=0x1653e299
         565000	        55	800000bc	800009b7	lui	x19,0x80000	 x19=0x80000000
         575000	        56	800000c0	59376a37	lui	x20,0x59376	 x20=0x59376000
         585000	        57	800000c4	ecca0a13	addi	x20,x20,-308	 x20:0x59376000 x20=0x59375ecc
         595000	        58	800000c8	80000ab7	lui	x21,0x80000	 x21=0x80000000
         605000	        59	800000cc	00a00b13	addi	x22,x0,10	  x0:0x00000000 x22=0x0000000a
         615000	        60	800000d0	6939bbb7	lui	x23,0x6939b	 x23=0x6939b000
         625000	        61	800000d4	c7eb8b93	addi	x23,x23,-898	 x23:0x6939b000 x23=0x6939ac7e
         635000	        62	800000d8	80000c37	lui	x24,0x80000	 x24=0x80000000
         645000	        63	800000dc	00400c93	addi	x25,x0,4	  x0:0x00000000 x25=0x00000004
         655000	        64	800000e0	00000d13	addi	x26,x0,0	  x0:0x00000000 x26=0x00000000
         665000	        65	800000e4	80000db7	lui	x27,0x80000	 x27=0x80000000
         675000	        66	800000e8	00b00e13	addi	x28,x0,11	  x0:0x00000000 x28=0x0000000b
         685000	        67	800000ec	80000f37	lui	x30,0x80000	 x30=0x80000000
         695000	        68	800000f0	00e00f93	addi	x31,x0,14	  x0:0x00000000 x31=0x0000000e
         705000	        69	800000f4	0000ae97	auipc	x29,0xa	 x29=0x8000a0f0
         715000	        70	800000f8	e94e8e93	addi	x29,x29,-364	 x29:0x8000a0f0 x29=0x80009f84
         725000	        71	800000fc	ff700313	addi	x6,x0,-9	  x0:0x00000000  x6=0xfffffff7
         735000	        72	80000100	00293e33	sltu	x28,x18,x2	 x18:0x1653e299  x2:0x00000007 x28=0x00000000
         745000	        73	80000104	05597817	auipc	x16,0x5597	 x16=0x85597100
         755000	        74	80000108	00500393	addi	x7,x0,5	  x0:0x00000000  x7=0x00000005
         765000	        75	8000010c	ad8d3017	auipc	x0,0xad8d3	
         775000	        76	80000110	00830313	addi	x6,x6,8	  x6:0xfffffff7  x6=0xffffffff
         785000	        77	80000114	fe736ce3	bltu	x6,x7,8000010c	  x6:0xffffffff  x7:0x00000005
         795000	        78	80000118	0176d433	srl	x8,x13,x23	 x13:0x80000000 x23:0x6939ac7e  x8=0x00000002
         805000	        79	8000011c	00121a63	bne	x4,x1,80000130	  x4:0x80009fc4  x1:0x00000000
         815000	        80	00000000	00000013	addi	x0,x0,0	  x0:0x00000000
         825000	        81	8000012c	00000013	addi	x0,x0,0	  x0:0x00000000
         835000	        82	80000130	00411613	slli	x12,x2,0x4	  x2:0x00000007 x12=0x00000070
         845000	        83	80000134	01979293	slli	x5,x15,0x19	 x15:0xf8cee37c  x5=0xf8000000
         855000	        84	80000138	09669597	auipc	x11,0x9669	 x11=0x89669134
         865000	        85	8000013c	fa889f17	auipc	x30,0xfa889	 x30=0x7a889138
         875000	        86	80000140	025ae263	bltu	x21,x5,80000164	 x21:0x80000000  x5:0xf8000000
         885000	        87	00000000	00000013	addi	x0,x0,0	  x0:0x00000000
         895000	        88	80000160	00000013	addi	x0,x0,0	  x0:0x00000000
         905000	        89	80000164	05be1863	bne	x28,x27,800001b4	 x28:0x00000000 x27:0x80000000
         915000	        90	00000000	00000013	addi	x0,x0,0	  x0:0x00000000
         925000	        91	800001b0	00000013	addi	x0,x0,0	  x0:0x00000000
         935000	        92	800001b4	017f1c93	slli	x25,x30,0x17	 x30:0x7a889138 x25=0x9c000000
         945000	        93	800001b8	010d0ab3	add	x21,x26,x16	 x26:0x00000000 x16:0x85597100 x21=0x85597100
         955000	        94	800001bc	0019bb33	sltu	x22,x19,x1	 x19:0x80000000  x1:0x00000000 x22=0x00000000
         965000	        95	800001c0	05c3e663	bltu	x7,x28,8000020c	  x7:0x00000005 x28:0x00000000
         975000	        96	800001c4	40f25bb3	sra	x23,x4,x15	  x4:0x80009fc4 x15:0xf8cee37c x23=0xfffffff8
         985000	        97	800001c8	017f5cb3	srl	x25,x30,x23	 x30:0x7a889138 x23:0xfffffff8 x25=0x0000007a
         995000	        98	800001cc	005ad893	srli	x17,x21,0x5	 x21:0x85597100 x17=0x042acb88
        1005000	        99	800001d0	41710333	sub	x6,x2,x23	  x2:0x00000007 x23:0xfffffff8  x6=0x0000000f
        1015000	       100	800001d4	00000013	addi	x0,x0,0	  x0:0x00000000
        1025000	       101	800001d8	41768b33	sub	x22,x13,x23	 x13:0x80000000 x23:0xfffffff8 x22=0x80000008
        1035000	       102	800001dc	001cb333	sltu	x6,x25,x1	 x25:0x0000007a  x1:0x00000000  x6=0x00000000
        1045000	       103	800001e0	00069193	slli	x3,x13,0x0	 x13:0x80000000  x3=0x80000000
        1055000	       104	800001e4	01685593	srli	x11,x16,0x16	 x16:0x85597100 x11=0x00000215
        1065000	       105	800001e8	41c687b3	sub	x15,x13,x28	 x13:0x80000000 x28:0x00000000 x15=0x80000000
        1075000	       106	800001ec	008ce933	or	x18,x25,x8	 x25:0x0000007a  x8:0x00000002 x18=0x0000007a
        1085000	       107	800001f0	0929a713	slti	x14,x19,146	 x19:0x80000000 x14=0x00000001
        1095000	       108	800001f4	02d97463	bgeu	x18,x13,8000021c	 x18:0x0000007a x13:0x80000000
        1105000	       109	800001f8	01ae8cb3	add	x25,x29,x26	 x29:0x80009f84 x26:0x00000000 x25=0x80009f84
        1115000	       110	800001fc	13d30293	addi	x5,x6,317	  x6:0x00000000  x5=0x0000013d
        1125000	       111	80000200	c24b0f13	addi	x30,x22,-988	 x22:0x80000008 x30=0x7ffffc2c
        1135000	       112	80000204	35c68137	lui	x2,0x35c68	  x2=0x35c68000
        1145000	       113	80000208	00000013	addi	x0,x0,0	  x0:0x00000000
        1155000	       114	8000020c	4f867913	andi	x18,x12,1272	 x12:0x00000070 x18=0x00000070
        1165000	       115	80000210	0337fe63	bgeu	x15,x19,8000024c	 x15:0x80000000 x19:0x80000000
        1175000	       116	00000000	00000013	addi	x0,x0,0	  x0:0x00000000
        1185000	       117	80000248	00000013	addi	x0,x0,0	  x0:0x00000000
        1195000	       118	8000024c	002848b3	xor	x17,x16,x2	 x16:0x85597100  x2:0x35c68000 x17=0xb09ff100
        1205000	       119	80000250	3f940d13	addi	x26,x8,1017	  x8:0x00000002 x26=0x000003fb
        1215000	       120	80000254	0064a833	slt	x16,x9,x6	  x9:0x00000001  x6:0x00000000 x16=0x00000000
        1225000	       121	80000258	001adbb3	srl	x23,x21,x1	 x21:0x85597100  x1:0x00000000 x23=0x85597100
        1235000	       122	8000025c	16124113	xori	x2,x4,353	  x4:0x80009fc4  x2=0x80009ea5
        1245000	       123	80000260	00000c97	auipc	x25,0x0	 x25=0x8000025c
        1255000	       124	80000264	058c8c93	addi	x25,x25,88	 x25:0x8000025c x25=0x800002b4
        1265000	       125	80000268	6124ad13	slti	x26,x9,1554	  x9:0x00000001 x26=0x00000001
        1275000	       126	8000026c	d4ec8c93	addi	x25,x25,-690	 x25:0x800002b4 x25=0x80000002
        1285000	       127	80000270	00000013	addi	x0,x0,0	  x0:0x00000000
        1295000	       128	80000274	013f15b3	sll	x11,x30,x19	 x30:0x7ffffc2c x19:0x80000000 x11=0x7ffffc2c
        1305000	       129	80000278	40b95413	srai	x8,x18,0xb	 x18:0x00000070  x8=0x00000000
        1315000	       130	8000027c	0150d3b3	srl	x7,x1,x21	  x1:0x00000000 x21:0x85597100  x7=0x00000000
        1325000	       131	80000280	01071663	bne	x14,x16,8000028c	 x14:0x00000001 x16:0x00000000
        1335000	       132	00000000	00000013	addi	x0,x0,0	  x0:0x00000000
        1345000	       133	80000288	00000013	addi	x0,x0,0	  x0:0x00000000
        1355000	       134	8000028c	2b2c80e7	jalr	x1,x25,690	 x25:0x80000002  x1=0x8000028c
        1365000	       135	00000000	00000013	addi	x0,x0,0	  x0:0x00000000
        1375000	       136	800002b4	00000013	addi	x0,x0,0	  x0:0x00000000
        1385000	       137	800002b8	ff4e8e93	addi	x29,x29,-12	 x29:0x80009f84 x29=0x80009f78
        1395000	       138	800002bc	ea928c13	addi	x24,x5,-343	  x5:0x0000013d x24=0xffffffe6
        1405000	       139	800002c0	00821f93	slli	x31,x4,0x8	  x4:0x80009fc4 x31=0x009fc400
        1415000	       140	800002c4	009091b3	sll	x3,x1,x9	  x1:0x8000028c  x9:0x00000001  x3=0x00000518
        1425000	       141	800002c8	6f78f313	andi	x6,x17,1783	 x17:0xb09ff100  x6=0x00000000
        1435000	       142	800002cc	60580717	auipc	x14,0x60580	 x14=0xe05802c8
        1445000	       143	800002d0	001ea223	sw	x1,4(x29)	 x29:0x80009f78  x1:0x8000028c PA:0x80009f7c
        1455000	       144	800002d4	00bb5b93	srli	x23,x22,0xb	 x22:0x80000008 x23=0x00100000
        1465000	       145	800002d8	62a4b113	sltiu	x2,x9,1578	  x9:0x00000001  x2=0x00000001
        1475000	       146	800002dc	1b636413	ori	x8,x6,438	  x6:0x00000000  x8=0x000001b6
        1485000	       147	800002e0	00957ab3	and	x21,x10,x9	 x10:0x9d236a82  x9:0x00000001 x21=0x00000000
        1495000	       148	800002e4	01838663	beq	x7,x24,800002f0	  x7:0x00000000 x24:0xffffffe6
        1505000	       149	800002e8	01db5733	srl	x14,x22,x29	 x22:0x80000008 x29:0x80009f78 x14=0x00000080
        1515000	       150	800002ec	40402a13	slti	x20,x0,1028	  x0:0x00000000 x20=0x00000001
        1525000	       151	800002f0	62c000ef	jal	x1,800002f0	  x1=0x800002f0
        1535000	       152	00000000	00000013	addi	x0,x0,0	  x0:0x00000000
        1545000	       153	80000918	00000013	addi	x0,x0,0	  x0:0x00000000
        1555000	       154	8000091c	6d588517	auipc	x10,0x6d588	 x10=0xed588918
        1565000	       155	80000920	41110db3	sub	x27,x2,x17	  x2:0x00000001 x17:0xb09ff100 x27=0x4f600f01
        1575000	       156	80000924	01571513	slli	x10,x14,0x15	 x14:0x00000080 x10=0x10000000
        1585000	       157	80000928	0c512813	slti	x16,x2,197	  x2:0x00000001 x16=0x00000001
        1595000	       158	8000092c	01f29463	bne	x5,x31,80000934	  x5:0x0000013d x31:0x009fc400
        1605000	       159	00000000	00000013	addi	x0,x0,0	  x0:0x00000000
        1615000	       160	80000930	00000013	addi	x0,x0,0	  x0:0x00000000
        1625000	       161	80000934	ff4e8e93	addi	x29,x29,-12	 x29:0x80009f78 x29=0x80009f6c
        1635000	       162	80000938	001ea223	sw	x1,4(x29)	 x29:0x80009f6c  x1:0x800002f0 PA:0x80009f70
        1645000	       163	8000093c	1ea76d13	ori	x26,x14,490	 x14:0x00000080 x26=0x000001ea
        1655000	       164	80000940	41e6d413	srai	x8,x13,0x1e	 x13:0x80000000  x8=0xfffffffe
        1665000	       165	80000944	40c30c33	sub	x24,x6,x12	  x6:0x00000000 x12:0x00000070 x24=0xffffff90
        1675000	       166	80000948	eabf7d13	andi	x26,x30,-341	 x30:0x7ffffc2c x26=0x7ffffc28
        1685000	       167	8000094c	5ba62193	slti	x3,x12,1466	 x12:0x00000070  x3=0x00000001
        1695000	       168	80000950	624baf93	slti	x31,x23,1572	 x23:0x00100000 x31=0x00000000
        1705000	       169	80000954	01df57b3	srl	x15,x30,x29	 x30:0x7ffffc2c x29:0x80009f6c x15=0x0007ffff
        1715000	       170	80000958	01e55c93	srli	x25,x10,0x1e	 x10:0x10000000 x25=0x00000000
        1725000	       171	8000095c	0b1000ef	jal	x1,8000095c	  x1=0x8000095c
        1735000	       172	00000000	00000013	addi	x0,x0,0	  x0:0x00000000
        1745000	       173	80001208	00000013	addi	x0,x0,0	  x0:0x00000000
        1755000	       174	8000120c	01309a63	bne	x1,x19,80001220	  x1:0x8000095c x19:0x80000000
        1765000	       175	00000000	00000013	addi	x0,x0,0	  x0:0x00000000
        1775000	       176	8000121c	00000013	addi	x0,x0,0	  x0:0x00000000
        1785000	       177	80001220	fdce8e93	addi	x29,x29,-36	 x29:0x80009f6c x29=0x80009f48
        1795000	       178	80001224	001ea223	sw	x1,4(x29)	 x29:0x80009f48  x1:0x8000095c PA:0x80009f4c
        1805000	       179	80001228	00000013	addi	x0,x0,0	  x0:0x00000000
        1815000	       180	8000122c	00500413	addi	x8,x0,5	  x0:0x00000000  x8=0x00000005
        1825000	       181	80001230	983b0b13	addi	x22,x22,-1661	 x22:0x80000008 x22=0x7ffff98b
        1835000	       182	80001234	01300c13	addi	x24,x0,19	  x0:0x00000000 x24=0x00000013
        1845000	       183	80001238	1c2b0893	addi	x17,x22,450	 x22:0x7ffff98b x17=0x7ffffb4d
        1855000	       184	8000123c	00b47133	and	x2,x8,x11	  x8:0x00000005 x11:0x7ffffc2c  x2=0x00000004
        1865000	       185	80001240	5000fdb7	lui	x27,0x5000f	 x27=0x5000f000
        1875000	       186	80001244	00740413	addi	x8,x8,7	  x8:0x00000005  x8=0x0000000c
        1885000	       187	80001248	00800193	addi	x3,x0,8	  x0:0x00000000  x3=0x00000008
        1895000	       188	8000124c	018b8f33	add	x30,x23,x24	 x23:0x00100000 x24:0x00000013 x30=0x00100013
        1905000	       189	80001250	01100993	addi	x19,x0,17	  x0:0x00000000 x19=0x00000011
        1915000	       190	80001254	190ef893	andi	x17,x29,400	 x29:0x80009f48 x17=0x00000100
        1925000	       191	80001258	01108f13	addi	x30,x1,17	  x1:0x8000095c x30=0x8000096d
        1935000	       192	8000125c	00518193	addi	x3,x3,5	  x3:0x00000008  x3=0x0000000d
        1945000	       193	80001260	01bbacb3	slt	x25,x23,x27	 x23:0x00100000 x27:0x5000f000 x25=0x00000001
        1955000	       194	80001264	42a26313	ori	x6,x4,1066	  x4:0x80009fc4  x6=0x80009fee
        1965000	       195	80001268	ff31e8e3	bltu	x3,x19,80001258	  x3:0x0000000d x19:0x00000011
        1975000	       196	00000000	00000013	addi	x0,x0,0	  x0:0x00000000
        1985000	       197	80001254	00000013	addi	x0,x0,0	  x0:0x00000000
        1995000	       198	80001258	01108f13	addi	x30,x1,17	  x1:0x8000095c x30=0x8000096d
        2005000	       199	8000125c	00518193	addi	x3,x3,5	  x3:0x0000000d  x3=0x00000012
        2015000	       200	80001260	01bbacb3	slt	x25,x23,x27	 x23:0x00100000 x27:0x5000f000 x25=0x00000001
        2025000	       201	80001264	42a26313	ori	x6,x4,1066	  x4:0x80009fc4  x6=0x80009fee
        2035000	       202	80001268	ff31e8e3	bltu	x3,x19,80001258	  x3:0x00000012 x19:0x00000011
        2045000	       203	8000126c	102aa513	slti	x10,x21,258	 x21:0x00000000 x10=0x00000001
        2055000	       204	80001270	40085893	srai	x17,x16,0x0	 x16:0x00000001 x17=0x00000001
        2065000	       205	80001274	0009bb33	sltu	x22,x19,x0	 x19:0x00000011  x0:0x00000000 x22=0x00000000
        2075000	       206	80001278	fd8402e3	beq	x8,x24,8000123c	  x8:0x0000000c x24:0x00000013
        2085000	       207	8000127c	40e705b3	sub	x11,x14,x14	 x14:0x00000080 x14:0x00000080 x11=0x00000000
        2095000	       208	80001280	00500993	addi	x19,x0,5	  x0:0x00000000 x19=0x00000005
        2105000	       209	80001284	00ae08b3	add	x17,x28,x10	 x28:0x00000000 x10:0x00000001 x17=0x00000001
        2115000	       210	80001288	b335b793	sltiu	x15,x11,-1229	 x11:0x00000000 x15=0x00000001
        2125000	       211	8000128c	00b54bb3	xor	x23,x10,x11	 x10:0x00000001 x11:0x00000000 x23=0x00000001
        2135000	       212	80001290	01173d33	sltu	x26,x14,x17	 x14:0x00000080 x17:0x00000001 x26=0x00000000
        2145000	       213	80001294	00700593	addi	x11,x0,7	  x0:0x00000000 x11=0x00000007
        2155000	       214	80001298	7bbfb193	sltiu	x3,x31,1979	 x31:0x00000000  x3=0x00000001
        2165000	       215	8000129c	41e1d7b3	sra	x15,x3,x30	  x3:0x00000001 x30:0x8000096d x15=0x00000000
        2175000	       216	800012a0	015fc733	xor	x14,x31,x21	 x31:0x00000000 x21:0x00000000 x14=0x00000000
        2185000	       217	800012a4	00000013	addi	x0,x0,0	  x0:0x00000000
        2195000	       218	800012a8	00598993	addi	x19,x19,5	 x19:0x00000005 x19=0x0000000a
        2205000	       219	800012ac	196d2d93	slti	x27,x26,406	 x26:0x00000000 x27=0x00000001
        2215000	       220	800012b0	01c3f633	and	x12,x7,x28	  x7:0x00000000 x28:0x00000000 x12=0x00000000
        2225000	       221	800012b4	c2589937	lui	x18,0xc2589	 x18=0xc2589000
        2235000	       222	800012b8	7d0c7d13	andi	x26,x24,2000	 x24:0x00000013 x26=0x00000010
        2245000	       223	800012bc	00e0c033	xor	x0,x1,x14	  x1:0x8000095c x14:0x00000000
        2255000	       224	800012c0	03347813	andi	x16,x8,51	  x8:0x0000000c x16=0x00000000
        2265000	       225	800012c4	fcb9eee3	bltu	x19,x11,800012a0	 x19:0x0000000a x11:0x00000007
        2275000	       226	800012c8	40fd5013	srai	x0,x26,0xf	 x26:0x00000010
        2285000	       227	800012cc	fff00a13	addi	x20,x0,-1	  x0:0x00000000 x20=0xffffffff
        2295000	       228	800012d0	3141c897	auipc	x17,0x3141c	 x17=0xb141d2cc
        2305000	       229	800012d4	c344ec13	ori	x24,x9,-972	  x9:0x00000001 x24=0xfffffc35
        2315000	       230	800012d8	0122c293	xori	x5,x5,18	  x5:0x0000013d  x5=0x0000012f
        2325000	       231	800012dc	397c4793	xori	x15,x24,919	 x24:0xfffffc35 x15=0xffffffa2
        2335000	       232	800012e0	00100613	addi	x12,x0,1	  x0:0x00000000 x12=0x00000001
        2345000	       233	800012e4	413c5fb3	sra	x31,x24,x19	 x24:0xfffffc35 x19:0x0000000a x31=0xffffffff
        2355000	       234	800012e8	0142f033	and	x0,x5,x20	  x5:0x0000012f x20:0xffffffff
        2365000	       235	800012ec	93822b93	slti	x23,x4,-1736	  x4:0x80009fc4 x23=0x00000001
        2375000	       236	800012f0	00000013	addi	x0,x0,0	  x0:0x00000000
        2385000	       237	800012f4	745ec713	xori	x14,x29,1861	 x29:0x80009f48 x14=0x8000980d
        2395000	       238	800012f8	fa43e513	ori	x10,x7,-92	  x7:0x00000000 x10=0xffffffa4
        2405000	       239	800012fc	0be74a93	xori	x21,x14,190	 x14:0x8000980d x21=0x800098b3
        2415000	       240	80001300	2724c193	xori	x3,x9,626	  x9:0x00000001  x3=0x00000273
        2425000	       241	80001304	418f6d37	lui	x26,0x418f6	 x26=0x418f6000
        2435000	       242	80001308	40c75f13	srai	x30,x14,0xc	 x14:0x8000980d x30=0xfff80009
        2445000	       243	8000130c	17110113	addi	x2,x2,369	  x2:0x00000004  x2=0x00000175
        2455000	       244	80001310	a9b57b93	andi	x23,x10,-1381	 x10:0xffffffa4 x23=0xfffffa80
        2465000	       245	80001314	005a0a13	addi	x20,x20,5	 x20:0xffffffff x20=0x00000004
        2475000	       246	80001318	00000013	addi	x0,x0,0	  x0:0x00000000
        2485000	       247	8000131c	407e0d33	sub	x26,x28,x7	 x28:0x00000000  x7:0x00000000 x26=0x00000000
        2495000	       248	80001320	40560ab3	sub	x21,x12,x5	 x12:0x00000001  x5:0x0000012f x21=0xfffffed2
        2505000	       249	80001324	016ea3b3	slt	x7,x29,x22	 x29:0x80009f48 x22:0x00000000  x7=0x00000001
        2515000	       250	80001328	fcca64e3	bltu	x20,x12,800012f0	 x20:0x00000004 x12:0x00000001
        2525000	       251	8000132c	00fede33	srl	x28,x29,x15	 x29:0x80009f48 x15:0xffffffa2 x28=0x200027d2
        2535000	       252	80001330	ff900a93	addi	x21,x0,-7	  x0:0x00000000 x21=0xfffffff9
        2545000	       253	80001334	33936017	auipc	x0,0x33936	
        2555000	       254	80001338	00e139b3	sltu	x19,x2,x14	  x2:0x00000175 x14:0x8000980d x19=0x00000001
        2565000	       255	8000133c	00bc6a33	or	x20,x24,x11	 x24:0xfffffc35 x11:0x00000007 x20=0xfffffc37
        2575000	       256	80001340	ff700c93	addi	x25,x0,-9	  x0:0x00000000 x25=0xfffffff7
        2585000	       257	80001344	40820bb3	sub	x23,x4,x8	  x4:0x80009fc4  x8:0x0000000c x23=0x80009fb8
        2595000	       258	80001348	0075cdb3	xor	x27,x11,x7	 x11:0x00000007  x7:0x00000001 x27=0x00000006
        2605000	       259	8000134c	ffea8a93	addi	x21,x21,-2	 x21:0xfffffff9 x21=0xfffffff7
        2615000	       260	80001350	ff9a8ae3	beq	x21,x25,80001344	 x21:0xfffffff7 x25:0xfffffff7
        2625000	       261	00000000	00000013	addi	x0,x0,0	  x0:0x00000000
        2635000	       262	80001340	00000013	addi	x0,x0,0	  x0:0x00000000
        2645000	       263	80001344	40820bb3	sub	x23,x4,x8	  x4:0x80009fc4  x8:0x0000000c x23=0x80009fb8
        2655000	       264	80001348	0075cdb3	xor	x27,x11,x7	 x11:0x00000007  x7:0x00000001 x27=0x00000006
        2665000	       265	8000134c	ffea8a93	addi	x21,x21,-2	 x21:0xfffffff7 x21=0xfffffff5
        2675000	       266	80001350	ff9a8ae3	beq	x21,x25,80001344	 x21:0xfffffff5 x25:0xfffffff7
        2685000	       267	80001354	f67b3013	sltiu	x0,x22,-153	 x22:0x00000000
        2695000	       268	80001358	00200f93	addi	x31,x0,2	  x0:0x00000000 x31=0x00000002
        2705000	       269	8000135c	0166db93	srli	x23,x13,0x16	 x13:0x80000000 x23=0x00000200
        2715000	       270	80001360	64a1b613	sltiu	x12,x3,1610	  x3:0x00000273 x12=0x00000001
        2725000	       271	80001364	007a73b3	and	x7,x20,x7	 x20:0xfffffc37  x7:0x00000001  x7=0x00000001
        2735000	       272	80001368	00b34333	xor	x6,x6,x11	  x6:0x80009fee x11:0x00000007  x6=0x80009fe9
        2745000	       273	8000136c	00d59413	slli	x8,x11,0xd	 x11:0x00000007  x8=0x0000e000
        2755000	       274	80001370	00ce6b33	or	x22,x28,x12	 x28:0x200027d2 x12:0x00000001 x22=0x200027d3
        2765000	       275	80001374	015a5793	srli	x15,x20,0x15	 x20:0xfffffc37 x15=0x000007ff
        2775000	       276	80001378	00200893	addi	x17,x0,2	  x0:0x00000000 x17=0x00000002
        2785000	       277	8000137c	fc26ad17	auipc	x26,0xfc26a	 x26=0x7c26b378
        2795000	       278	80001380	0171d593	srli	x11,x3,0x17	  x3:0x00000273 x11=0x00000000
        2805000	       279	80001384	000d89b3	add	x19,x27,x0	 x27:0x00000006  x0:0x00000000 x19=0x00000006
        2815000	       280	80001388	412ed293	srai	x5,x29,0x12	 x29:0x80009f48  x5=0xffffe000
        2825000	       281	8000138c	d4026513	ori	x10,x4,-704	  x4:0x80009fc4 x10=0xffffffc4
        2835000	       282	80001390	fa9a7c37	lui	x24,0xfa9a7	 x24=0xfa9a7000
        2845000	       283	80001394	00000013	addi	x0,x0,0	  x0:0x00000000
        2855000	       284	80001398	28365537	lui	x10,0x28365	 x10=0x28365000
        2865000	       285	8000139c	ffff8f93	addi	x31,x31,-1	 x31:0x00000002 x31=0x00000001
        2875000	       286	800013a0	01064d33	xor	x26,x12,x16	 x12:0x00000001 x16:0x00000000 x26=0x00000001
        2885000	       287	800013a4	fd1ffce3	bgeu	x31,x17,8000137c	 x31:0x00000001 x17:0x00000002
        2895000	       288	800013a8	d3f00637	lui	x12,0xd3f00	 x12=0xd3f00000
        2905000	       289	800013ac	6df846b7	lui	x13,0x6df84	 x13=0x6df84000
        2915000	       290	800013b0	007decb3	or	x25,x27,x7	 x27:0x00000006  x7:0x00000001 x25=0x00000007
        2925000	       291	800013b4	01a05193	srli	x3,x0,0x1a	  x0:0x00000000  x3=0x00000000
        2935000	       292	800013b8	01447d33	and	x26,x8,x20	  x8:0x0000e000 x20:0xfffffc37 x26=0x0000e000
        2945000	       293	800013bc	002af2b3	and	x5,x21,x2	 x21:0xfffffff5  x2:0x00000175  x5=0x00000175
        2955000	       294	800013c0	00a6d733	srl	x14,x13,x10	 x13:0x6df84000 x10:0x28365000 x14=0x6df84000
        2965000	       295	800013c4	41155733	sra	x14,x10,x17	 x10:0x28365000 x17:0x00000002 x14=0x0a0d9400
        2975000	       296	800013c8	09a89c97	auipc	x25,0x9a89	 x25=0x89a8a3c4
        2985000	       297	800013cc	8a75eb93	ori	x23,x11,-1881	 x11:0x00000000 x23=0xfffff8a7
        2995000	       298	800013d0	055ce113	ori	x2,x25,85	 x25:0x89a8a3c4  x2=0x89a8a3d5
        3005000	       299	800013d4	00398933	add	x18,x19,x3	 x19:0x00000006  x3:0x00000000 x18=0x00000006
        3015000	       300	800013d8	006aa733	slt	x14,x21,x6	 x21:0xfffffff5  x6:0x80009fe9 x14=0x00000000
        3025000	       301	800013dc	01ba53b3	srl	x7,x20,x27	 x20:0xfffffc37 x27:0x00000006  x7=0x03fffff0
        3035000	       302	800013e0	00185c13	srli	x24,x16,0x1	 x16:0x00000000 x24=0x00000000
        3045000	       303	800013e4	40c15133	sra	x2,x2,x12	  x2:0x89a8a3d5 x12:0xd3f00000  x2=0x89a8a3d5
        3055000	       304	800013e8	007d5013	srli	x0,x26,0x7	 x26:0x0000e000
        3065000	       305	800013ec	00000013	addi	x0,x0,0	  x0:0x00000000
        3075000	       306	800013f0	002d56b3	srl	x13,x26,x2	 x26:0x0000e000  x2:0x89a8a3d5 x13=0x00000000
        3085000	       307	800013f4	00df5833	srl	x16,x30,x13	 x30:0xfff80009 x13:0x00000000 x16=0xfff80009
        3095000	       308	800013f8	016e8e33	add	x28,x29,x22	 x29:0x80009f48 x22:0x200027d3 x28=0xa000c71b
        3105000	       309	800013fc	01b14ab3	xor	x21,x2,x27	  x2:0x89a8a3d5 x27:0x00000006 x21=0x89a8a3d3
        3115000	       310	80001400	98f3c0b7	lui	x1,0x98f3c	  x1=0x98f3c000
        3125000	       311	80001404	402c51b3	sra	x3,x24,x2	 x24:0x00000000  x2:0x89a8a3d5  x3=0x00000000
        3135000	       312	80001408	000e5793	srli	x15,x28,0x0	 x28:0xa000c71b x15=0xa000c71b
        3145000	       313	8000140c	00d1c5b3	xor	x11,x3,x13	  x3:0x00000000 x13:0x00000000 x11=0x00000000
        3155000	       314	80001410	0494f463	bgeu	x9,x9,80001458	  x9:0x00000001  x9:0x00000001
        3165000	       315	00000000	00000013	addi	x0,x0,0	  x0:0x00000000
        3175000	       316	80001454	00000013	addi	x0,x0,0	  x0:0x00000000
        3185000	       317	80001458	03ae4863	blt	x28,x26,80001488	 x28:0xa000c71b x26:0x0000e000
        3195000	       318	00000000	00000013	addi	x0,x0,0	  x0:0x00000000
        3205000	       319	80001484	00000013	addi	x0,x0,0	  x0:0x00000000
        3215000	       320	80001488	02a91063	bne	x18,x10,800014a8	 x18:0x00000006 x10:0x28365000
        3225000	       321	00000000	00000013	addi	x0,x0,0	  x0:0x00000000
        3235000	       322	800014a4	00000013	addi	x0,x0,0	  x0:0x00000000
        3245000	       323	800014a8	41680033	sub	x0,x16,x22	 x16:0xfff80009 x22:0x200027d3
        3255000	       324	800014ac	753a0913	addi	x18,x20,1875	 x20:0xfffffc37 x18=0x0000038a
        3265000	       325	800014b0	4f6f2393	slti	x7,x30,1270	 x30:0xfff80009  x7=0x00000001
        3275000	       326	800014b4	017e7833	and	x16,x28,x23	 x28:0xa000c71b x23:0xfffff8a7 x16=0xa000c003
        3285000	       327	800014b8	41e88033	sub	x0,x17,x30	 x17:0x00000002 x30:0xfff80009
        3295000	       328	800014bc	d35ee413	ori	x8,x29,-715	 x29:0x80009f48  x8=0xffffff7d
        3305000	       329	800014c0	5382a317	auipc	x6,0x5382a	  x6=0xd382b4bc
        3315000	       330	800014c4	65d32a93	slti	x21,x6,1629	  x6:0xd382b4bc x21=0x00000001
        3325000	       331	800014c8	012a9863	bne	x21,x18,800014d8	 x21:0x00000001 x18:0x0000038a
        3335000	       332	00000000	00000013	addi	x0,x0,0	  x0:0x00000000
        3345000	       333	800014d4	00000013	addi	x0,x0,0	  x0:0x00000000
        3355000	       334	800014d8	cd36ca13	xori	x20,x13,-813	 x13:0x00000000 x20=0xfffffcd3
        3365000	       335	800014dc	049f9263	bne	x31,x9,80001520	 x31:0x00000001  x9:0x00000001
        3375000	       336	800014e0	00bb9663	bne	x23,x11,800014ec	 x23:0xfffff8a7 x11:0x00000000
        3385000	       337	00000000	00000013	addi	x0,x0,0	  x0:0x00000000
        3395000	       338	800014e8	00000013	addi	x0,x0,0	  x0:0x00000000
        3405000	       339	800014ec	0539d063	bge	x19,x19,8000152c	 x19:0x00000006 x19:0x00000006
        3415000	       340	00000000	00000013	addi	x0,x0,0	  x0:0x00000000
        3425000	       341	80001528	00000013	addi	x0,x0,0	  x0:0x00000000
        3435000	       342	8000152c	1189b937	lui	x18,0x1189b	 x18=0x1189b000
        3445000	       343	80001530	001fc263	blt	x31,x1,80001534	 x31:0x00000001  x1:0x98f3c000
        3455000	       344	80001534	41c050b3	sra	x1,x0,x28	  x0:0x00000000 x28:0xa000c71b  x1=0x00000000
        3465000	       345	80001538	e3542093	slti	x1,x8,-459	  x8:0xffffff7d  x1=0x00000000
        3475000	       346	8000153c	00c43933	sltu	x18,x8,x12	  x8:0xffffff7d x12:0xd3f00000 x18=0x00000000
        3485000	       347	80001540	04fed063	bge	x29,x15,80001580	 x29:0x80009f48 x15:0xa000c71b
        3495000	       348	80001544	406f5113	srai	x2,x30,0x6	 x30:0xfff80009  x2=0xffffe000
        3505000	       349	80001548	00570fb3	add	x31,x14,x5	 x14:0x00000000  x5:0x00000175 x31=0x00000175
        3515000	       350	8000154c	e29a4ab7	lui	x21,0xe29a4	 x21=0xe29a4000
        3525000	       351	80001550	945e3a93	sltiu	x21,x28,-1723	 x28:0xa000c71b x21=0x00000001
        3535000	       352	80001554	69c63613	sltiu	x12,x12,1692	 x12:0xd3f00000 x12=0x00000000
        3545000	       353	80001558	014871b3	and	x3,x16,x20	 x16:0xa000c003 x20:0xfffffcd3  x3=0xa000c003
        3555000	       354	8000155c	000325b3	slt	x11,x6,x0	  x6:0xd382b4bc  x0:0x00000000 x11=0x00000001
        3565000	       355	80001560	41f2df93	srai	x31,x5,0x1f	  x5:0x00000175 x31=0x00000000
        3575000	       356	80001564	007f9313	slli	x6,x31,0x7	 x31:0x00000000  x6=0x00000000
        3585000	       357	80001568	ae29e937	lui	x18,0xae29e	 x18=0xae29e000
        3595000	       358	8000156c	00ca1813	slli	x16,x20,0xc	 x20:0xfffffcd3 x16=0xffcd3000
        3605000	       359	80001570	01a8fc33	and	x24,x17,x26	 x17:0x00000002 x26:0x0000e000 x24=0x00000000
        3615000	       360	80001574	41ad81b3	sub	x3,x27,x26	 x27:0x00000006 x26:0x0000e000  x3=0xffff2006
        3625000	       361	80001578	03c40463	beq	x8,x28,800015a0	  x8:0xffffff7d x28:0xa000c71b
        3635000	       362	8000157c	810acd13	xori	x26,x21,-2032	 x21:0x00000001 x26=0xfffff811
        3645000	       363	80001580	02ae1463	bne	x28,x10,800015a8	 x28:0xa000c71b x10:0x28365000
        3655000	       364	00000000	00000013	addi	x0,x0,0	  x0:0x00000000
        3665000	       365	800015a4	00000013	addi	x0,x0,0	  x0:0x00000000
        3675000	       366	800015a8	00826ab3	or	x21,x4,x8	  x4:0x80009fc4  x8:0xffffff7d x21=0xfffffffd
        3685000	       367	800015ac	01f593b3	sll	x7,x11,x31	 x11:0x00000001 x31:0x00000000  x7=0x00000001
        3695000	       368	800015b0	def7f413	andi	x8,x15,-529	 x15:0xa000c71b  x8=0xa000c50b
        3705000	       369	800015b4	01f69c63	bne	x13,x31,800015cc	 x13:0x00000000 x31:0x00000000
        3715000	       370	800015b8	005aea63	bltu	x21,x5,800015cc	 x21:0xfffffffd  x5:0x00000175
        3725000	       371	800015bc	7bc48fb7	lui	x31,0x7bc48	 x31=0x7bc48000
        3735000	       372	800015c0	01a75513	srli	x10,x14,0x1a	 x14:0x00000000 x10=0x00000000
        3745000	       373	800015c4	0143d263	bge	x7,x20,800015c8	  x7:0x00000001 x20:0xfffffcd3
        3755000	       374	00000000	00000013	addi	x0,x0,0	  x0:0x00000000
        3765000	       375	800015c4	00000013	addi	x0,x0,0	  x0:0x00000000
        3775000	       376	800015c8	00c3e7b3	or	x15,x7,x12	  x7:0x00000001 x12:0x00000000 x15=0x00000001
        3785000	       377	800015cc	408551b3	sra	x3,x10,x8	 x10:0x00000000  x8:0xa000c50b  x3=0x00000000
        3795000	       378	800015d0	1ce22913	slti	x18,x4,462	  x4:0x80009fc4 x18=0x00000001
        3805000	       379	800015d4	16296393	ori	x7,x18,354	 x18:0x00000001  x7=0x00000163
        3815000	       380	800015d8	d33dabb7	lui	x23,0xd33da	 x23=0xd33da000
        3825000	       381	800015dc	05e68063	beq	x13,x30,8000161c	 x13:0x00000000 x30:0xfff80009
        3835000	       382	800015e0	11243997	auipc	x19,0x11243	 x19=0x912445dc
        3845000	       383	800015e4	00796db3	or	x27,x18,x7	 x18:0x00000001  x7:0x00000163 x27=0x00000163
        3855000	       384	800015e8	01335b13	srli	x22,x6,0x13	  x6:0x00000000 x22=0x00000000
        3865000	       385	800015ec	015bdb13	srli	x22,x23,0x15	 x23:0xd33da000 x22=0x00000699
        3875000	       386	800015f0	bfc70d13	addi	x26,x14,-1028	 x14:0x00000000 x26=0xfffffbfc
        3885000	       387	800015f4	41eed9b3	sra	x19,x29,x30	 x29:0x80009f48 x30:0xfff80009 x19=0xffc0004f
        3895000	       388	800015f8	406f5a93	srai	x21,x30,0x6	 x30:0xfff80009 x21=0xffffe000
        3905000	       389	800015fc	c402d0b7	lui	x1,0xc402d	  x1=0xc402d000
        3915000	       390	80001600	40aed633	sra	x12,x29,x10	 x29:0x80009f48 x10:0x00000000 x12=0x80009f48
        3925000	       391	80001604	00346463	bltu	x8,x3,8000160c	  x8:0xa000c50b  x3:0x00000000
        3935000	       392	80001608	0120c633	xor	x12,x1,x18	  x1:0xc402d000 x18:0x00000001 x12=0xc402d001
        3945000	       393	8000160c	01f80933	add	x18,x16,x31	 x16:0xffcd3000 x31:0x7bc48000 x18=0x7b91b000
        3955000	       394	80001610	00257cb3	and	x25,x10,x2	 x10:0x00000000  x2:0xffffe000 x25=0x00000000
        3965000	       395	80001614	00035863	bge	x6,x0,80001624	  x6:0x00000000  x0:0x00000000
        3975000	       396	00000000	00000013	addi	x0,x0,0	  x0:0x00000000
        3985000	       397	80001620	00000013	addi	x0,x0,0	  x0:0x00000000
        3995000	       398	80001624	9babfd93	andi	x27,x23,-1606	 x23:0xd33da000 x27=0xd33da000
        4005000	       399	80001628	00982133	slt	x2,x16,x9	 x16:0xffcd3000  x9:0x00000001  x2=0x00000001
        4015000	       400	8000162c	0161c133	xor	x2,x3,x22	  x3:0x00000000 x22:0x00000699  x2=0x00000699
        4025000	       401	80001630	9bc34613	xori	x12,x6,-1604	  x6:0x00000000 x12=0xfffff9bc
        4035000	       402	80001634	a0f3c313	xori	x6,x7,-1521	  x7:0x00000163  x6=0xfffffb6c
        4045000	       403	80001638	00c99513	slli	x10,x19,0xc	 x19:0xffc0004f x10=0x0004f000
        4055000	       404	8000163c	b3e8b593	sltiu	x11,x17,-1218	 x17:0x00000002 x11=0x00000001
        4065000	       405	80001640	0033fc63	bgeu	x7,x3,80001658	  x7:0x00000163  x3:0x00000000
        4075000	       406	00000000	00000013	addi	x0,x0,0	  x0:0x00000000
        4085000	       407	80001654	00000013	addi	x0,x0,0	  x0:0x00000000
        4095000	       408	80001658	00e268b3	or	x17,x4,x14	  x4:0x80009fc4 x14:0x00000000 x17=0x80009fc4
        4105000	       409	8000165c	0051dc93	srli	x25,x3,0x5	  x3:0x00000000 x25=0x00000000
        4115000	       410	80001660	01b428b3	slt	x17,x8,x27	  x8:0xa000c50b x27:0xd33da000 x17=0x00000001
        4125000	       411	80001664	00d57533	and	x10,x10,x13	 x10:0x0004f000 x13:0x00000000 x10=0x00000000
        4135000	       412	80001668	01404263	blt	x0,x20,8000166c	  x0:0x00000000 x20:0xfffffcd3
        4145000	       413	8000166c	017ee7b3	or	x15,x29,x23	 x29:0x80009f48 x23:0xd33da000 x15=0xd33dbf48
        4155000	       414	80001670	00c9f5b3	and	x11,x19,x12	 x19:0xffc0004f x12:0xfffff9bc x11=0xffc0000c
        4165000	       415	80001674	015b5993	srli	x19,x22,0x15	 x22:0x00000699 x19=0x00000000
        4175000	       416	80001678	9e793f93	sltiu	x31,x18,-1561	 x18:0x7b91b000 x31=0x00000001
        4185000	       417	8000167c	d574f713	andi	x14,x9,-681	  x9:0x00000001 x14=0x00000001
        4195000	       418	80001680	ed701137	lui	x2,0xed701	  x2=0xed701000
        4205000	       419	80001684	00735e33	srl	x28,x6,x7	  x6:0xfffffb6c  x7:0x00000163 x28=0x1fffff6d
        4215000	       420	80001688	00726263	bltu	x4,x7,8000168c	  x4:0x80009fc4  x7:0x00000163
        4225000	       421	8000168c	0ae27863	bgeu	x4,x14,8000173c	  x4:0x80009fc4 x14:0x00000001
        4235000	       422	00000000	00000013	addi	x0,x0,0	  x0:0x00000000
        4245000	       423	80001738	00000013	addi	x0,x0,0	  x0:0x00000000
        4255000	       424	8000173c	596aaf17	auipc	x30,0x596aa	 x30=0xd96ab738
        4265000	       425	80001740	017b67b3	or	x15,x22,x23	 x22:0x00000699 x23:0xd33da000 x15=0xd33da699
        4275000	       426	80001744	a920ee13	ori	x28,x1,-1390	  x1:0xc402d000 x28=0xfffffa92
        4285000	       427	80001748	e4242913	slti	x18,x8,-446	  x8:0xa000c50b x18=0x00000001
        4295000	       428	8000174c	00000013	addi	x0,x0,0	  x0:0x00000000
        4305000	       429	80001750	0472e063	bltu	x5,x7,80001790	  x5:0x00000175  x7:0x00000163
        4315000	       430	80001754	023d4863	blt	x26,x3,80001784	 x26:0xfffffbfc  x3:0x00000000
        4325000	       431	00000000	00000013	addi	x0,x0,0	  x0:0x00000000
        4335000	       432	80001780	00000013	addi	x0,x0,0	  x0:0x00000000
        4345000	       433	80001784	bb068013	addi	x0,x13,-1104	 x13:0x00000000
        4355000	       434	80001788	c99d7f17	auipc	x30,0xc99d7	 x30=0x499d8784
        4365000	       435	8000178c	019e7b33	and	x22,x28,x25	 x28:0xfffffa92 x25:0x00000000 x22=0x00000000
        4375000	       436	80001790	5af615b7	lui	x11,0x5af61	 x11=0x5af61000
        4385000	       437	80001794	8fda2f13	slti	x30,x20,-1795	 x20:0xfffffcd3 x30=0x00000000
        4395000	       438	80001798	77666a37	lui	x20,0x77666	 x20=0x77666000
        4405000	       439	8000179c	0135ec63	bltu	x11,x19,800017b4	 x11:0x5af61000 x19:0x00000000
        4415000	       440	800017a0	e4959c37	lui	x24,0xe4959	 x24=0xe4959000
        4425000	       441	800017a4	00fe5c63	bge	x28,x15,800017bc	 x28:0xfffffa92 x15:0xd33da699
        4435000	       442	00000000	00000013	addi	x0,x0,0	  x0:0x00000000
        4445000	       443	800017b8	00000013	addi	x0,x0,0	  x0:0x00000000
        4455000	       444	800017bc	01224333	xor	x6,x4,x18	  x4:0x80009fc4 x18:0x00000001  x6=0x80009fc5
        4465000	       445	800017c0	048c6063	bltu	x24,x8,80001800	 x24:0xe4959000  x8:0xa000c50b
        4475000	       446	800017c4	00000013	addi	x0,x0,0	  x0:0x00000000
        4485000	       447	800017c8	00bc8663	beq	x25,x11,800017d4	 x25:0x00000000 x11:0x5af61000
        4495000	       448	800017cc	01dfec33	or	x24,x31,x29	 x31:0x00000001 x29:0x80009f48 x24=0x80009f49
        4505000	       449	800017d0	40b0d0b3	sra	x1,x1,x11	  x1:0xc402d000 x11:0x5af61000  x1=0xc402d000
        4515000	       450	800017d4	01419863	bne	x3,x20,800017e4	  x3:0x00000000 x20:0x77666000
        4525000	       451	00000000	00000013	addi	x0,x0,0	  x0:0x00000000
        4535000	       452	800017e0	00000013	addi	x0,x0,0	  x0:0x00000000
        4545000	       453	800017e4	e1c94613	xori	x12,x18,-484	 x18:0x00000001 x12=0xfffffe1d
        4555000	       454	800017e8	01069933	sll	x18,x13,x16	 x13:0x00000000 x16:0xffcd3000 x18=0x00000000
        4565000	       455	800017ec	56957f97	auipc	x31,0x56957	 x31=0xd69587e8
        4575000	       456	800017f0	01a12a33	slt	x20,x2,x26	  x2:0xed701000 x26:0xfffffbfc x20=0x00000001
        4585000	       457	800017f4	002f1193	slli	x3,x30,0x2	 x30:0x00000000  x3=0x00000000
        4595000	       458	800017f8	00709fb3	sll	x31,x1,x7	  x1:0xc402d000  x7:0x00000163 x31=0x20168000
        4605000	       459	800017fc	00e18263	beq	x3,x14,80001800	  x3:0x00000000 x14:0x00000001
        4615000	       460	80001800	00140d33	add	x26,x8,x1	  x8:0xa000c50b  x1:0xc402d000 x26=0x6403950b
        4625000	       461	80001804	04c08063	beq	x1,x12,80001844	  x1:0xc402d000 x12:0xfffffe1d
        4635000	       462	80001808	56368393	addi	x7,x13,1379	 x13:0x00000000  x7=0x00000563
        4645000	       463	8000180c	a206f013	andi	x0,x13,-1504	 x13:0x00000000
        4655000	       464	80001810	00000013	addi	x0,x0,0	  x0:0x00000000
        4665000	       465	80001814	fb68e093	ori	x1,x17,-74	 x17:0x00000001  x1=0xffffffb7
        4675000	       466	80001818	4053d9b3	sra	x19,x7,x5	  x7:0x00000563  x5:0x00000175 x19=0x00000000
        4685000	       467	8000181c	93143b13	sltiu	x22,x8,-1743	  x8:0xa000c50b x22=0x00000001
        4695000	       468	80001820	af89f737	lui	x14,0xaf89f	 x14=0xaf89f000
        4705000	       469	80001824	01dd1113	slli	x2,x26,0x1d	 x26:0x6403950b  x2=0x60000000
        4715000	       470	80001828	02501e63	bne	x0,x5,80001864	  x0:0x00000000  x5:0x00000175
        4725000	       471	00000000	00000013	addi	x0,x0,0	  x0:0x00000000
        4735000	       472	80001860	00000013	addi	x0,x0,0	  x0:0x00000000
        4745000	       473	80001864	40c25033	sra	x0,x4,x12	  x4:0x80009fc4 x12:0xfffffe1d
        4755000	       474	80001868	00841c93	slli	x25,x8,0x8	  x8:0xa000c50b x25=0x00c50b00
        4765000	       475	8000186c	01817433	and	x8,x2,x24	  x2:0x60000000 x24:0x80009f49  x8=0x00000000
        4775000	       476	80001870	00169ab3	sll	x21,x13,x1	 x13:0x00000000  x1:0xffffffb7 x21=0x00000000
        4785000	       477	80001874	41cf0033	sub	x0,x30,x28	 x30:0x00000000 x28:0xfffffa92
        4795000	       478	80001878	c91c7993	andi	x19,x24,-879	 x24:0x80009f49 x19=0x80009c01
        4805000	       479	8000187c	00ab2bb3	slt	x23,x22,x10	 x22:0x00000001 x10:0x00000000 x23=0x00000000
        4815000	       480	80001880	054a1063	bne	x20,x20,800018c0	 x20:0x00000001 x20:0x00000001
        4825000	       481	80001884	489d2593	slti	x11,x26,1161	 x26:0x6403950b x11=0x00000000
        4835000	       482	80001888	4044dab3	sra	x21,x9,x4	  x9:0x00000001  x4:0x80009fc4 x21=0x00000000
        4845000	       483	8000188c	010b05b3	add	x11,x22,x16	 x22:0x00000001 x16:0xffcd3000 x11=0xffcd3001
        4855000	       484	80001890	016c5613	srli	x12,x24,0x16	 x24:0x80009f49 x12=0x00000200
        4865000	       485	80001894	0161c1b3	xor	x3,x3,x22	  x3:0x00000000 x22:0x00000001  x3=0x00000001
        4875000	       486	80001898	00000013	addi	x0,x0,0	  x0:0x00000000
        4885000	       487	8000189c	01fd9993	slli	x19,x27,0x1f	 x27:0xd33da000 x19=0x00000000
        4895000	       488	800018a0	01aaebb3	or	x23,x21,x26	 x21:0x00000000 x26:0x6403950b x23=0x6403950b
        4905000	       489	800018a4	003ed8b3	srl	x17,x29,x3	 x29:0x80009f48  x3:0x00000001 x17=0x40004fa4
        4915000	       490	800018a8	406bdbb3	sra	x23,x23,x6	 x23:0x6403950b  x6:0x80009fc5 x23=0x03201ca8
        4925000	       491	800018ac	415bd693	srai	x13,x23,0x15	 x23:0x03201ca8 x13=0x00000019
        4935000	       492	800018b0	013649b3	xor	x19,x12,x19	 x12:0x00000200 x19:0x00000000 x19=0x00000200
        4945000	       493	800018b4	015a5463	bge	x20,x21,800018bc	 x20:0x00000001 x21:0x00000000
        4955000	       494	00000000	00000013	addi	x0,x0,0	  x0:0x00000000
        4965000	       495	800018b8	00000013	addi	x0,x0,0	  x0:0x00000000
        4975000	       496	800018bc	017d63b3	or	x7,x26,x23	 x26:0x6403950b x23:0x03201ca8  x7=0x67239dab
        4985000	       497	800018c0	01835c13	srli	x24,x6,0x18	  x6:0x80009fc5 x24=0x00000080
        4995000	       498	800018c4	40bb5393	srai	x7,x22,0xb	 x22:0x00000001  x7=0x00000000
        5005000	       499	800018c8	058ad263	bge	x21,x24,8000190c	 x21:0x00000000 x24:0x00000080
        5015000	       500	800018cc	010cf0b3	and	x1,x25,x16	 x25:0x00c50b00 x16:0xffcd3000  x1=0x00c50000
        5025000	       501	800018d0	418cdd13	srai	x26,x25,0x18	 x25:0x00c50b00 x26=0x00000000
        5035000	       502	800018d4	03891863	bne	x18,x24,80001904	 x18:0x00000000 x24:0x00000080
        5045000	       503	00000000	00000013	addi	x0,x0,0	  x0:0x00000000
        5055000	       504	80001900	00000013	addi	x0,x0,0	  x0:0x00000000
        5065000	       505	80001904	007cc133	xor	x2,x25,x7	 x25:0x00c50b00  x7:0x00000000  x2=0x00c50b00
        5075000	       506	80001908	011efab3	and	x21,x29,x17	 x29:0x80009f48 x17:0x40004fa4 x21=0x00000f00
        5085000	       507	8000190c	015f36b3	sltu	x13,x30,x21	 x30:0x00000000 x21:0x00000f00 x13=0x00000001
        5095000	       508	80001910	014bd0b3	srl	x1,x23,x20	 x23:0x03201ca8 x20:0x00000001  x1=0x01900e54
        5105000	       509	80001914	400e8b33	sub	x22,x29,x0	 x29:0x80009f48  x0:0x00000000 x22=0x80009f48
        5115000	       510	80001918	015179b3	and	x19,x2,x21	  x2:0x00c50b00 x21:0x00000f00 x19=0x00000b00
        5125000	       511	8000191c	015160b3	or	x1,x2,x21	  x2:0x00c50b00 x21:0x00000f00  x1=0x00c50f00
        5135000	       512	80001920	310ca593	slti	x11,x25,784	 x25:0x00c50b00 x11=0x00000000
        5145000	       513	80001924	00776263	bltu	x14,x7,80001928	 x14:0xaf89f000  x7:0x00000000
        5155000	       514	80001928	be4e8b13	addi	x22,x29,-1052	 x29:0x80009f48 x22=0x80009b2c
        5165000	       515	8000192c	00d25e33	srl	x28,x4,x13	  x4:0x80009fc4 x13:0x00000001 x28=0x40004fe2
        5175000	       516	80001930	0086a7b3	slt	x15,x13,x8	 x13:0x00000001  x8:0x00000000 x15=0x00000000
        5185000	       517	80001934	01a1d693	srli	x13,x3,0x1a	  x3:0x00000001 x13=0x00000000
        5195000	       518	80001938	006d1463	bne	x26,x6,80001940	 x26:0x00000000  x6:0x80009fc5
        5205000	       519	00000000	00000013	addi	x0,x0,0	  x0:0x00000000
        5215000	       520	8000193c	00000013	addi	x0,x0,0	  x0:0x00000000
        5225000	       521	80001940	02774663	blt	x14,x7,8000196c	 x14:0xaf89f000  x7:0x00000000
        5235000	       522	00000000	00000013	addi	x0,x0,0	  x0:0x00000000
        5245000	       523	80001968	00000013	addi	x0,x0,0	  x0:0x00000000
        5255000	       524	8000196c	00ca5393	srli	x7,x20,0xc	 x20:0x00000001  x7=0x00000000
        5265000	       525	80001970	004ea083	lw	x1,4(x29)	 x29:0x80009f48  x1=0x8000095c PA:0x80009f4c
        5275000	       526	80001974	01012933	slt	x18,x2,x16	  x2:0x00c50b00 x16:0xffcd3000 x18=0x00000000
        5285000	       527	80001978	01b4e133	or	x2,x9,x27	  x9:0x00000001 x27:0xd33da000  x2=0xd33da001
        5295000	       528	8000197c	024e8e93	addi	x29,x29,36	 x29:0x80009f48 x29=0x80009f6c
        5305000	       529	80001980	004de533	or	x10,x27,x4	 x27:0xd33da000  x4:0x80009fc4 x10=0xd33dbfc4
        5315000	       530	80001984	3ce94393	xori	x7,x18,974	 x18:0x00000000  x7=0x000003ce
        5325000	       531	80001988	00108c13	addi	x24,x1,1	  x1:0x8000095c x24=0x8000095d
        5335000	       532	8000198c	000c0c67	jalr	x24,x24,0	 x24:0x8000095d x24=0x8000198c
        5345000	       533	00000000	00000013	addi	x0,x0,0	  x0:0x00000000
        5355000	       534	8000095c	00000013	addi	x0,x0,0	  x0:0x00000000
        5365000	       535	80000960	000643b3	xor	x7,x12,x0	 x12:0x00000200  x0:0x00000000  x7=0x00000200
        5375000	       536	80000964	00fc5533	srl	x10,x24,x15	 x24:0x8000198c x15:0x00000000 x10=0x8000198c
        5385000	       537	80000968	e8d46317	auipc	x6,0xe8d46	  x6=0x68d46964
        5395000	       538	8000096c	00001797	auipc	x15,0x1	 x15=0x80001968
        5405000	       539	80000970	02478793	addi	x15,x15,36	 x15:0x80001968 x15=0x8000198c
        5415000	       540	80000974	32558813	addi	x16,x11,805	 x11:0x00000000 x16=0x00000325
        5425000	       541	80000978	27578a93	addi	x21,x15,629	 x15:0x8000198c x21=0x80001c01
        5435000	       542	8000097c	cd878793	addi	x15,x15,-808	 x15:0x8000198c x15=0x80001664
        5445000	       543	80000980	41cfd3b3	sra	x7,x31,x28	 x31:0x20168000 x28:0x40004fe2  x7=0x0805a000
        5455000	       544	80000984	cd613a93	sltiu	x21,x2,-810	  x2:0xd33da001 x21=0x00000001
        5465000	       545	80000988	00269993	slli	x19,x13,0x2	 x13:0x00000000 x19=0x00000000
        5475000	       546	8000098c	59c7ecb7	lui	x25,0x59c7e	 x25=0x59c7e000
        5485000	       547	80000990	0033c463	blt	x7,x3,80000998	  x7:0x0805a000  x3:0x00000001
        5495000	       548	80000994	7ca46613	ori	x12,x8,1994	  x8:0x00000000 x12=0x000007ca
        5505000	       549	80000998	329780e7	jalr	x1,x15,809	 x15:0x80001664  x1=0x80000998
        5515000	       550	00000000	00000013	addi	x0,x0,0	  x0:0x00000000
        5525000	       551	8000198c	00000013	addi	x0,x0,0	  x0:0x00000000
        5535000	       552	80001990	00297663	bgeu	x18,x2,8000199c	 x18:0x00000000  x2:0xd33da001
        5545000	       553	80001994	003efcb3	and	x25,x29,x3	 x29:0x80009f6c  x3:0x00000001 x25=0x00000000
        5555000	       554	80001998	63db3a93	sltiu	x21,x22,1597	 x22:0x80009b2c x21=0x00000000
        5565000	       555	8000199c	ff4e8e93	addi	x29,x29,-12	 x29:0x80009f6c x29=0x80009f60
        5575000	       556	800019a0	00000013	addi	x0,x0,0	  x0:0x00000000
        5585000	       557	800019a4	6bb24a93	xori	x21,x4,1723	  x4:0x80009fc4 x21=0x8000997f
        5595000	       558	800019a8	001ea223	sw	x1,4(x29)	 x29:0x80009f60  x1:0x80000998 PA:0x80009f64
        5605000	       559	800019ac	862f8717	auipc	x14,0x862f8	 x14=0x062f99a8
        5615000	       560	800019b0	06991737	lui	x14,0x6991	 x14=0x06991000
        5625000	       561	800019b4	0075e6b3	or	x13,x11,x7	 x11:0x00000000  x7:0x0805a000 x13=0x0805a000
        5635000	       562	800019b8	011e4e33	xor	x28,x28,x17	 x28:0x40004fe2 x17:0x40004fa4 x28=0x00000046
        5645000	       563	800019bc	ffe00593	addi	x11,x0,-2	  x0:0x00000000 x11=0xfffffffe
        5655000	       564	800019c0	c3526f93	ori	x31,x4,-971	  x4:0x80009fc4 x31=0xfffffff5
        5665000	       565	800019c4	19e88193	addi	x3,x17,414	 x17:0x40004fa4  x3=0x40005142
        5675000	       566	800019c8	b99a4c97	auipc	x25,0xb99a4	 x25=0x399a59c4
        5685000	       567	800019cc	f4b78537	lui	x10,0xf4b78	 x10=0xf4b78000
        5695000	       568	800019d0	01300093	addi	x1,x0,19	  x0:0x00000000  x1=0x00000013
        5705000	       569	800019d4	00000013	addi	x0,x0,0	  x0:0x00000000
        5715000	       570	800019d8	0148bcb3	sltu	x25,x17,x20	 x17:0x40004fa4 x20:0x00000001 x25=0x00000000
        5725000	       571	800019dc	afc3b993	sltiu	x19,x7,-1284	  x7:0x0805a000 x19=0x00000001
        5735000	       572	800019e0	230e0293	addi	x5,x28,560	 x28:0x00000046  x5=0x00000276
        5745000	       573	800019e4	414207b3	sub	x15,x4,x20	  x4:0x80009fc4 x20:0x00000001 x15=0x80009fc3
        5755000	       574	800019e8	01114833	xor	x16,x2,x17	  x2:0xd33da001 x17:0x40004fa4 x16=0x933defa5
        5765000	       575	800019ec	41b15b13	srai	x22,x2,0x1b	  x2:0xd33da001 x22=0xfffffffa
        5775000	       576	800019f0	01ad6b33	or	x22,x26,x26	 x26:0x00000000 x26:0x00000000 x22=0x00000000
        5785000	       577	800019f4	3e897a13	andi	x20,x18,1000	 x18:0x00000000 x20=0x00000000
        5795000	       578	800019f8	01ae4133	xor	x2,x28,x26	 x28:0x00000046 x26:0x00000000  x2=0x00000046
        5805000	       579	800019fc	d6cbcc13	xori	x24,x23,-660	 x23:0x03201ca8 x24=0xfcdfe1c4
        5815000	       580	80001a00	00758593	addi	x11,x11,7	 x11:0xfffffffe x11=0x00000005
        5825000	       581	80001a04	00000013	addi	x0,x0,0	  x0:0x00000000
        5835000	       582	80001a08	fe15c6e3	blt	x11,x1,800019f4	 x11:0x00000005  x1:0x00000013
        5845000	       583	00000000	00000013	addi	x0,x0,0	  x0:0x00000000
        5855000	       584	800019f0	00000013	addi	x0,x0,0	  x0:0x00000000
        5865000	       585	800019f4	3e897a13	andi	x20,x18,1000	 x18:0x00000000 x20=0x00000000
        5875000	       586	800019f8	01ae4133	xor	x2,x28,x26	 x28:0x00000046 x26:0x00000000  x2=0x00000046
        5885000	       587	800019fc	d6cbcc13	xori	x24,x23,-660	 x23:0x03201ca8 x24=0xfcdfe1c4
        5895000	       588	80001a00	00758593	addi	x11,x11,7	 x11:0x00000005 x11=0x0000000c
        5905000	       589	80001a04	00000013	addi	x0,x0,0	  x0:0x00000000
        5915000	       590	80001a08	fe15c6e3	blt	x11,x1,800019f4	 x11:0x0000000c  x1:0x00000013
        5925000	       591	00000000	00000013	addi	x0,x0,0	  x0:0x00000000
        5935000	       592	800019f0	00000013	addi	x0,x0,0	  x0:0x00000000
        5945000	       593	800019f4	3e897a13	andi	x20,x18,1000	 x18:0x00000000 x20=0x00000000
        5955000	       594	800019f8	01ae4133	xor	x2,x28,x26	 x28:0x00000046 x26:0x00000000  x2=0x00000046
        5965000	       595	800019fc	d6cbcc13	xori	x24,x23,-660	 x23:0x03201ca8 x24=0xfcdfe1c4
        5975000	       596	80001a00	00758593	addi	x11,x11,7	 x11:0x0000000c x11=0x00000013
        5985000	       597	80001a04	00000013	addi	x0,x0,0	  x0:0x00000000
        5995000	       598	80001a08	fe15c6e3	blt	x11,x1,800019f4	 x11:0x00000013  x1:0x00000013
        6005000	       599	80001a0c	0c04b913	sltiu	x18,x9,192	  x9:0x00000001 x18=0x00000001
        6015000	       600	80001a10	fff00b13	addi	x22,x0,-1	  x0:0x00000000 x22=0xffffffff
        6025000	       601	80001a14	c860df37	lui	x30,0xc860d	 x30=0xc860d000
        6035000	       602	80001a18	01cd7a33	and	x20,x26,x28	 x26:0x00000000 x28:0x00000046 x20=0x00000000
        6045000	       603	80001a1c	2d754893	xori	x17,x10,727	 x10:0xf4b78000 x17=0xf4b782d7
        6055000	       604	80001a20	01368333	add	x6,x13,x19	 x13:0x0805a000 x19:0x00000001  x6=0x0805a001
        6065000	       605	80001a24	ff900813	addi	x16,x0,-7	  x0:0x00000000 x16=0xfffffff9
        6075000	       606	80001a28	00e028b3	slt	x17,x0,x14	  x0:0x00000000 x14:0x06991000 x17=0x00000001
        6085000	       607	80001a2c	00000013	addi	x0,x0,0	  x0:0x00000000
        6095000	       608	80001a30	00780433	add	x8,x16,x7	 x16:0xfffffff9  x7:0x0805a000  x8=0x08059ff9
        6105000	       609	80001a34	8d650793	addi	x15,x10,-1834	 x10:0xf4b78000 x15=0xf4b778d6
        6115000	       610	80001a38	0132a8b3	slt	x17,x5,x19	  x5:0x00000276 x19:0x00000001 x17=0x00000000
        6125000	       611	80001a3c	01a97ab3	and	x21,x18,x26	 x18:0x00000001 x26:0x00000000 x21=0x00000000
        6135000	       612	80001a40	ff7b0b13	addi	x22,x22,-9	 x22:0xffffffff x22=0xfffffff6
        6145000	       613	80001a44	00a00e13	addi	x28,x0,10	  x0:0x00000000 x28=0x0000000a
        6155000	       614	80001a48	00f2b9b3	sltu	x19,x5,x15	  x5:0x00000276 x15:0xf4b778d6 x19=0x00000001
        6165000	       615	80001a4c	00600693	addi	x13,x0,6	  x0:0x00000000 x13=0x00000006
        6175000	       616	80001a50	d581a413	slti	x8,x3,-680	  x3:0x40005142  x8=0x00000000
        6185000	       617	80001a54	01984fb3	xor	x31,x16,x25	 x16:0xfffffff9 x25:0x00000000 x31=0xfffffff9
        6195000	       618	80001a58	01c7bdb3	sltu	x27,x15,x28	 x15:0xf4b778d6 x28:0x0000000a x27=0x00000000
        6205000	       619	80001a5c	ffbe0e13	addi	x28,x28,-5	 x28:0x0000000a x28=0x00000005
        6215000	       620	80001a60	01d85cb3	srl	x25,x16,x29	 x16:0xfffffff9 x29:0x80009f60 x25=0xfffffff9
        6225000	       621	80001a64	61ef0a37	lui	x20,0x61ef0	 x20=0x61ef0000
        6235000	       622	80001a68	019625b3	slt	x11,x12,x25	 x12:0x000007ca x25:0xfffffff9 x11=0x00000000
        6245000	       623	80001a6c	001f0133	add	x2,x30,x1	 x30:0xc860d000  x1:0x00000013  x2=0xc860d013
        6255000	       624	80001a70	fede70e3	bgeu	x28,x13,80001a50	 x28:0x00000005 x13:0x00000006
        6265000	       625	80001a74	000c0d33	add	x26,x24,x0	 x24:0xfcdfe1c4  x0:0x00000000 x26=0xfcdfe1c4
        6275000	       626	80001a78	05c7fd13	andi	x26,x15,92	 x15:0xf4b778d6 x26=0x00000054
        6285000	       627	80001a7c	fd0b50e3	bge	x22,x16,80001a3c	 x22:0xfffffff6 x16:0xfffffff9
        6295000	       628	80001a80	9e662997	auipc	x19,0x9e662	 x19=0x1e663a7c
        6305000	       629	80001a84	00600393	addi	x7,x0,6	  x0:0x00000000  x7=0x00000006
        6315000	       630	80001a88	01000d13	addi	x26,x0,16	  x0:0x00000000 x26=0x00000010
        6325000	       631	80001a8c	13252c93	slti	x25,x10,306	 x10:0xf4b78000 x25=0x00000001
        6335000	       632	80001a90	af61f893	andi	x17,x3,-1290	  x3:0x40005142 x17=0x40005042
        6345000	       633	80001a94	012a9f13	slli	x30,x21,0x12	 x21:0x00000000 x30=0x00000000
        6355000	       634	80001a98	009dc0b3	xor	x1,x27,x9	 x27:0x00000000  x9:0x00000001  x1=0x00000001
        6365000	       635	80001a9c	a4858993	addi	x19,x11,-1464	 x11:0x00000000 x19=0xfffffa48
        6375000	       636	80001aa0	0043bdb3	sltu	x27,x7,x4	  x7:0x00000006  x4:0x80009fc4 x27=0x00000001
        6385000	       637	80001aa4	410bd5b3	sra	x11,x23,x16	 x23:0x03201ca8 x16:0xfffffff9 x11=0x00000001
        6395000	       638	80001aa8	eec78c13	addi	x24,x15,-276	 x15:0xf4b778d6 x24=0xf4b777c2
        6405000	       639	80001aac	00838393	addi	x7,x7,8	  x7:0x00000006  x7=0x0000000e
        6415000	       640	80001ab0	007d0833	add	x16,x26,x7	 x26:0x00000010  x7:0x0000000e x16=0x0000001e
        6425000	       641	80001ab4	4175d713	srai	x14,x11,0x17	 x11:0x00000001 x14=0x00000000
        6435000	       642	80001ab8	afbcca13	xori	x20,x25,-1285	 x25:0x00000001 x20=0xfffffafa
        6445000	       643	80001abc	00b319b3	sll	x19,x6,x11	  x6:0x0805a001 x11:0x00000001 x19=0x100b4002
        6455000	       644	80001ac0	00000013	addi	x0,x0,0	  x0:0x00000000
        6465000	       645	80001ac4	fff00613	addi	x12,x0,-1	  x0:0x00000000 x12=0xffffffff
        6475000	       646	80001ac8	01000413	addi	x8,x0,16	  x0:0x00000000  x8=0x00000010
        6485000	       647	80001acc	01dc1f13	slli	x30,x24,0x1d	 x24:0xf4b777c2 x30=0x40000000
        6495000	       648	80001ad0	71c7eb13	ori	x22,x15,1820	 x15:0xf4b778d6 x22=0xf4b77fde
        6505000	       649	80001ad4	01c90e33	add	x28,x18,x28	 x18:0x00000001 x28:0x00000005 x28=0x00000006
        6515000	       650	80001ad8	40fa3813	sltiu	x16,x20,1039	 x20:0xfffffafa x16=0x00000000
        6525000	       651	80001adc	00000013	addi	x0,x0,0	  x0:0x00000000
        6535000	       652	80001ae0	00360613	addi	x12,x12,3	 x12:0xffffffff x12=0x00000002
        6545000	       653	80001ae4	403bd333	sra	x6,x23,x3	 x23:0x03201ca8  x3:0x40005142  x6=0x00c8072a
        6555000	       654	80001ae8	fe866ae3	bltu	x12,x8,80001adc	 x12:0x00000002  x8:0x00000010
        6565000	       655	00000000	00000013	addi	x0,x0,0	  x0:0x00000000
        6575000	       656	80001ad8	00000013	addi	x0,x0,0	  x0:0x00000000
        6585000	       657	80001adc	00000013	addi	x0,x0,0	  x0:0x00000000
        6595000	       658	80001ae0	00360613	addi	x12,x12,3	 x12:0x00000002 x12=0x00000005
        6605000	       659	80001ae4	403bd333	sra	x6,x23,x3	 x23:0x03201ca8  x3:0x40005142  x6=0x00c8072a
        6615000	       660	80001ae8	fe866ae3	bltu	x12,x8,80001adc	 x12:0x00000005  x8:0x00000010
        6625000	       661	00000000	00000013	addi	x0,x0,0	  x0:0x00000000
        6635000	       662	80001ad8	00000013	addi	x0,x0,0	  x0:0x00000000
        6645000	       663	80001adc	00000013	addi	x0,x0,0	  x0:0x00000000
        6655000	       664	80001ae0	00360613	addi	x12,x12,3	 x12:0x00000005 x12=0x00000008
        6665000	       665	80001ae4	403bd333	sra	x6,x23,x3	 x23:0x03201ca8  x3:0x40005142  x6=0x00c8072a
        6675000	       666	80001ae8	fe866ae3	bltu	x12,x8,80001adc	 x12:0x00000008  x8:0x00000010
        6685000	       667	00000000	00000013	addi	x0,x0,0	  x0:0x00000000
        6695000	       668	80001ad8	00000013	addi	x0,x0,0	  x0:0x00000000
        6705000	       669	80001adc	00000013	addi	x0,x0,0	  x0:0x00000000
        6715000	       670	80001ae0	00360613	addi	x12,x12,3	 x12:0x00000008 x12=0x0000000b
        6725000	       671	80001ae4	403bd333	sra	x6,x23,x3	 x23:0x03201ca8  x3:0x40005142  x6=0x00c8072a
        6735000	       672	80001ae8	fe866ae3	bltu	x12,x8,80001adc	 x12:0x0000000b  x8:0x00000010
        6745000	       673	00000000	00000013	addi	x0,x0,0	  x0:0x00000000
        6755000	       674	80001ad8	00000013	addi	x0,x0,0	  x0:0x00000000
        6765000	       675	80001adc	00000013	addi	x0,x0,0	  x0:0x00000000
        6775000	       676	80001ae0	00360613	addi	x12,x12,3	 x12:0x0000000b x12=0x0000000e
        6785000	       677	80001ae4	403bd333	sra	x6,x23,x3	 x23:0x03201ca8  x3:0x40005142  x6=0x00c8072a
        6795000	       678	80001ae8	fe866ae3	bltu	x12,x8,80001adc	 x12:0x0000000e  x8:0x00000010
        6805000	       679	00000000	00000013	addi	x0,x0,0	  x0:0x00000000
        6815000	       680	80001ad8	00000013	addi	x0,x0,0	  x0:0x00000000
        6825000	       681	80001adc	00000013	addi	x0,x0,0	  x0:0x00000000
        6835000	       682	80001ae0	00360613	addi	x12,x12,3	 x12:0x0000000e x12=0x00000011
        6845000	       683	80001ae4	403bd333	sra	x6,x23,x3	 x23:0x03201ca8  x3:0x40005142  x6=0x00c8072a
        6855000	       684	80001ae8	fe866ae3	bltu	x12,x8,80001adc	 x12:0x00000011  x8:0x00000010
        6865000	       685	80001aec	01925f93	srli	x31,x4,0x19	  x4:0x80009fc4 x31=0x00000040
        6875000	       686	80001af0	405eda13	srai	x20,x29,0x5	 x29:0x80009f60 x20=0xfc0004fb
        6885000	       687	80001af4	0119ffb3	and	x31,x19,x17	 x19:0x100b4002 x17:0x40005042 x31=0x00004002
        6895000	       688	80001af8	dc2ef593	andi	x11,x29,-574	 x29:0x80009f60 x11=0x80009d40
        6905000	       689	80001afc	f9a3cae3	blt	x7,x26,80001a90	  x7:0x0000000e x26:0x00000010
        6915000	       690	00000000	00000013	addi	x0,x0,0	  x0:0x00000000
        6925000	       691	80001a8c	00000013	addi	x0,x0,0	  x0:0x00000000
        6935000	       692	80001a90	af61f893	andi	x17,x3,-1290	  x3:0x40005142 x17=0x40005042
        6945000	       693	80001a94	012a9f13	slli	x30,x21,0x12	 x21:0x00000000 x30=0x00000000
        6955000	       694	80001a98	009dc0b3	xor	x1,x27,x9	 x27:0x00000001  x9:0x00000001  x1=0x00000000
        6965000	       695	80001a9c	a4858993	addi	x19,x11,-1464	 x11:0x80009d40 x19=0x80009788
        6975000	       696	80001aa0	0043bdb3	sltu	x27,x7,x4	  x7:0x0000000e  x4:0x80009fc4 x27=0x00000001
        6985000	       697	80001aa4	410bd5b3	sra	x11,x23,x16	 x23:0x03201ca8 x16:0x00000000 x11=0x03201ca8
        6995000	       698	80001aa8	eec78c13	addi	x24,x15,-276	 x15:0xf4b778d6 x24=0xf4b777c2
        7005000	       699	80001aac	00838393	addi	x7,x7,8	  x7:0x0000000e  x7=0x00000016
        7015000	       700	80001ab0	007d0833	add	x16,x26,x7	 x26:0x00000010  x7:0x00000016 x16=0x00000026
        7025000	       701	80001ab4	4175d713	srai	x14,x11,0x17	 x11:0x03201ca8 x14=0x00000006
        7035000	       702	80001ab8	afbcca13	xori	x20,x25,-1285	 x25:0x00000001 x20=0xfffffafa
        7045000	       703	80001abc	00b319b3	sll	x19,x6,x11	  x6:0x00c8072a x11:0x03201ca8 x19=0xc8072a00
        7055000	       704	80001ac0	00000013	addi	x0,x0,0	  x0:0x00000000
        7065000	       705	80001ac4	fff00613	addi	x12,x0,-1	  x0:0x00000000 x12=0xffffffff
        7075000	       706	80001ac8	01000413	addi	x8,x0,16	  x0:0x00000000  x8=0x00000010
        7085000	       707	80001acc	01dc1f13	slli	x30,x24,0x1d	 x24:0xf4b777c2 x30=0x40000000
        7095000	       708	80001ad0	71c7eb13	ori	x22,x15,1820	 x15:0xf4b778d6 x22=0xf4b77fde
        7105000	       709	80001ad4	01c90e33	add	x28,x18,x28	 x18:0x00000001 x28:0x00000006 x28=0x00000007
        7115000	       710	80001ad8	40fa3813	sltiu	x16,x20,1039	 x20:0xfffffafa x16=0x00000000
        7125000	       711	80001adc	00000013	addi	x0,x0,0	  x0:0x00000000
        7135000	       712	80001ae0	00360613	addi	x12,x12,3	 x12:0xffffffff x12=0x00000002
        7145000	       713	80001ae4	403bd333	sra	x6,x23,x3	 x23:0x03201ca8  x3:0x40005142  x6=0x00c8072a
        7155000	       714	80001ae8	fe866ae3	bltu	x12,x8,80001adc	 x12:0x00000002  x8:0x00000010
        7165000	       715	00000000	00000013	addi	x0,x0,0	  x0:0x00000000
        7175000	       716	80001ad8	00000013	addi	x0,x0,0	  x0:0x00000000
        7185000	       717	80001adc	00000013	addi	x0,x0,0	  x0:0x00000000
        7195000	       718	80001ae0	00360613	addi	x12,x12,3	 x12:0x00000002 x12=0x00000005
        7205000	       719	80001ae4	403bd333	sra	x6,x23,x3	 x23:0x03201ca8  x3:0x40005142  x6=0x00c8072a
        7215000	       720	80001ae8	fe866ae3	bltu	x12,x8,80001adc	 x12:0x00000005  x8:0x00000010
        7225000	       721	00000000	00000013	addi	x0,x0,0	  x0:0x00000000
        7235000	       722	80001ad8	00000013	addi	x0,x0,0	  x0:0x00000000
        7245000	       723	80001adc	00000013	addi	x0,x0,0	  x0:0x00000000
        7255000	       724	80001ae0	00360613	addi	x12,x12,3	 x12:0x00000005 x12=0x00000008
        7265000	       725	80001ae4	403bd333	sra	x6,x23,x3	 x23:0x03201ca8  x3:0x40005142  x6=0x00c8072a
        7275000	       726	80001ae8	fe866ae3	bltu	x12,x8,80001adc	 x12:0x00000008  x8:0x00000010
        7285000	       727	00000000	00000013	addi	x0,x0,0	  x0:0x00000000
        7295000	       728	80001ad8	00000013	addi	x0,x0,0	  x0:0x00000000
        7305000	       729	80001adc	00000013	addi	x0,x0,0	  x0:0x00000000
        7315000	       730	80001ae0	00360613	addi	x12,x12,3	 x12:0x00000008 x12=0x0000000b
        7325000	       731	80001ae4	403bd333	sra	x6,x23,x3	 x23:0x03201ca8  x3:0x40005142  x6=0x00c8072a
        7335000	       732	80001ae8	fe866ae3	bltu	x12,x8,80001adc	 x12:0x0000000b  x8:0x00000010
        7345000	       733	00000000	00000013	addi	x0,x0,0	  x0:0x00000000
        7355000	       734	80001ad8	00000013	addi	x0,x0,0	  x0:0x00000000
        7365000	       735	80001adc	00000013	addi	x0,x0,0	  x0:0x00000000
        7375000	       736	80001ae0	00360613	addi	x12,x12,3	 x12:0x0000000b x12=0x0000000e
        7385000	       737	80001ae4	403bd333	sra	x6,x23,x3	 x23:0x03201ca8  x3:0x40005142  x6=0x00c8072a
        7395000	       738	80001ae8	fe866ae3	bltu	x12,x8,80001adc	 x12:0x0000000e  x8:0x00000010
        7405000	       739	00000000	00000013	addi	x0,x0,0	  x0:0x00000000
        7415000	       740	80001ad8	00000013	addi	x0,x0,0	  x0:0x00000000
        7425000	       741	80001adc	00000013	addi	x0,x0,0	  x0:0x00000000
        7435000	       742	80001ae0	00360613	addi	x12,x12,3	 x12:0x0000000e x12=0x00000011
        7445000	       743	80001ae4	403bd333	sra	x6,x23,x3	 x23:0x03201ca8  x3:0x40005142  x6=0x00c8072a
        7455000	       744	80001ae8	fe866ae3	bltu	x12,x8,80001adc	 x12:0x00000011  x8:0x00000010
        7465000	       745	80001aec	01925f93	srli	x31,x4,0x19	  x4:0x80009fc4 x31=0x00000040
        7475000	       746	80001af0	405eda13	srai	x20,x29,0x5	 x29:0x80009f60 x20=0xfc0004fb
        7485000	       747	80001af4	0119ffb3	and	x31,x19,x17	 x19:0xc8072a00 x17:0x40005042 x31=0x40000000
        7495000	       748	80001af8	dc2ef593	andi	x11,x29,-574	 x29:0x80009f60 x11=0x80009d40
        7505000	       749	80001afc	f9a3cae3	blt	x7,x26,80001a90	  x7:0x00000016 x26:0x00000010
        7515000	       750	80001b00	01295e13	srli	x28,x18,0x12	 x18:0x00000001 x28=0x00000000
        7525000	       751	80001b04	ff600b93	addi	x23,x0,-10	  x0:0x00000000 x23=0xfffffff6
        7535000	       752	80001b08	01608433	add	x8,x1,x22	  x1:0x00000000 x22:0xf4b77fde  x8=0xf4b77fde
        7545000	       753	80001b0c	89036097	auipc	x1,0x89036	  x1=0x09037b08
        7555000	       754	80001b10	012dc433	xor	x8,x27,x18	 x27:0x00000001 x18:0x00000001  x8=0x00000000
        7565000	       755	80001b14	14423793	sltiu	x15,x4,324	  x4:0x80009fc4 x15=0x00000000
        7575000	       756	80001b18	fed00113	addi	x2,x0,-19	  x0:0x00000000  x2=0xffffffed
        7585000	       757	80001b1c	05da6393	ori	x7,x20,93	 x20:0xfc0004fb  x7=0xfc0004ff
        7595000	       758	80001b20	019cbd33	sltu	x26,x25,x25	 x25:0x00000001 x25:0x00000001 x26=0x00000000
        7605000	       759	80001b24	016c6033	or	x0,x24,x22	 x24:0xf4b777c2 x22:0xf4b77fde
        7615000	       760	80001b28	be14ba93	sltiu	x21,x9,-1055	  x9:0x00000001 x21=0x00000001
        7625000	       761	80001b2c	40c15093	srai	x1,x2,0xc	  x2:0xffffffed  x1=0xffffffff
        7635000	       762	80001b30	0007dc33	srl	x24,x15,x0	 x15:0x00000000  x0:0x00000000 x24=0x00000000
        7645000	       763	80001b34	006b9433	sll	x8,x23,x6	 x23:0xfffffff6  x6:0x00c8072a  x8=0xffffd800
        7655000	       764	80001b38	c9c0c413	xori	x8,x1,-868	  x1:0xffffffff  x8=0x00000363
        7665000	       765	80001b3c	01398833	add	x16,x19,x19	 x19:0xc8072a00 x19:0xc8072a00 x16=0x900e5400
        7675000	       766	80001b40	075309b7	lui	x19,0x7530	 x19=0x07530000
        7685000	       767	80001b44	005d5033	srl	x0,x26,x5	 x26:0x00000000  x5:0x00000276
        7695000	       768	80001b48	ffdb8b93	addi	x23,x23,-3	 x23:0xfffffff6 x23=0xfffffff3
        7705000	       769	80001b4c	a161a893	slti	x17,x3,-1514	  x3:0x40005142 x17=0x00000000
        7715000	       770	80001b50	01f73733	sltu	x14,x14,x31	 x14:0x00000006 x31:0x40000000 x14=0x00000001
        7725000	       771	80001b54	40a95533	sra	x10,x18,x10	 x18:0x00000001 x10:0xf4b78000 x10=0x00000001
        7735000	       772	80001b58	0138f733	and	x14,x17,x19	 x17:0x00000000 x19:0x07530000 x14=0x00000000
        7745000	       773	80001b5c	93b13a13	sltiu	x20,x2,-1733	  x2:0xffffffed x20=0x00000000
        7755000	       774	80001b60	01cadc33	srl	x24,x21,x28	 x21:0x00000001 x28:0x00000000 x24=0x00000001
        7765000	       775	80001b64	01b8cb33	xor	x22,x17,x27	 x17:0x00000000 x27:0x00000001 x22=0x00000001
        7775000	       776	80001b68	fc2bdae3	bge	x23,x2,80001b3c	 x23:0xfffffff3  x2:0xffffffed
        7785000	       777	00000000	00000013	addi	x0,x0,0	  x0:0x00000000
        7795000	       778	80001b38	00000013	addi	x0,x0,0	  x0:0x00000000
        7805000	       779	80001b3c	01398833	add	x16,x19,x19	 x19:0x07530000 x19:0x07530000 x16=0x0ea60000
        7815000	       780	80001b40	075309b7	lui	x19,0x7530	 x19=0x07530000
        7825000	       781	80001b44	005d5033	srl	x0,x26,x5	 x26:0x00000000  x5:0x00000276
        7835000	       782	80001b48	ffdb8b93	addi	x23,x23,-3	 x23:0xfffffff3 x23=0xfffffff0
        7845000	       783	80001b4c	a161a893	slti	x17,x3,-1514	  x3:0x40005142 x17=0x00000000
        7855000	       784	80001b50	01f73733	sltu	x14,x14,x31	 x14:0x00000000 x31:0x40000000 x14=0x00000001
        7865000	       785	80001b54	40a95533	sra	x10,x18,x10	 x18:0x00000001 x10:0x00000001 x10=0x00000000
        7875000	       786	80001b58	0138f733	and	x14,x17,x19	 x17:0x00000000 x19:0x07530000 x14=0x00000000
        7885000	       787	80001b5c	93b13a13	sltiu	x20,x2,-1733	  x2:0xffffffed x20=0x00000000
        7895000	       788	80001b60	01cadc33	srl	x24,x21,x28	 x21:0x00000001 x28:0x00000000 x24=0x00000001
        7905000	       789	80001b64	01b8cb33	xor	x22,x17,x27	 x17:0x00000000 x27:0x00000001 x22=0x00000001
        7915000	       790	80001b68	fc2bdae3	bge	x23,x2,80001b3c	 x23:0xfffffff0  x2:0xffffffed
        7925000	       791	00000000	00000013	addi	x0,x0,0	  x0:0x00000000
        7935000	       792	80001b38	00000013	addi	x0,x0,0	  x0:0x00000000
        7945000	       793	80001b3c	01398833	add	x16,x19,x19	 x19:0x07530000 x19:0x07530000 x16=0x0ea60000
        7955000	       794	80001b40	075309b7	lui	x19,0x7530	 x19=0x07530000
        7965000	       795	80001b44	005d5033	srl	x0,x26,x5	 x26:0x00000000  x5:0x00000276
        7975000	       796	80001b48	ffdb8b93	addi	x23,x23,-3	 x23:0xfffffff0 x23=0xffffffed
        7985000	       797	80001b4c	a161a893	slti	x17,x3,-1514	  x3:0x40005142 x17=0x00000000
        7995000	       798	80001b50	01f73733	sltu	x14,x14,x31	 x14:0x00000000 x31:0x40000000 x14=0x00000001
        8005000	       799	80001b54	40a95533	sra	x10,x18,x10	 x18:0x00000001 x10:0x00000000 x10=0x00000001
        8015000	       800	80001b58	0138f733	and	x14,x17,x19	 x17:0x00000000 x19:0x07530000 x14=0x00000000
        8025000	       801	80001b5c	93b13a13	sltiu	x20,x2,-1733	  x2:0xffffffed x20=0x00000000
        8035000	       802	80001b60	01cadc33	srl	x24,x21,x28	 x21:0x00000001 x28:0x00000000 x24=0x00000001
        8045000	       803	80001b64	01b8cb33	xor	x22,x17,x27	 x17:0x00000000 x27:0x00000001 x22=0x00000001
        8055000	       804	80001b68	fc2bdae3	bge	x23,x2,80001b3c	 x23:0xffffffed  x2:0xffffffed
        8065000	       805	00000000	00000013	addi	x0,x0,0	  x0:0x00000000
        8075000	       806	80001b38	00000013	addi	x0,x0,0	  x0:0x00000000
        8085000	       807	80001b3c	01398833	add	x16,x19,x19	 x19:0x07530000 x19:0x07530000 x16=0x0ea60000
        8095000	       808	80001b40	075309b7	lui	x19,0x7530	 x19=0x07530000
        8105000	       809	80001b44	005d5033	srl	x0,x26,x5	 x26:0x00000000  x5:0x00000276
        8115000	       810	80001b48	ffdb8b93	addi	x23,x23,-3	 x23:0xffffffed x23=0xffffffea
        8125000	       811	80001b4c	a161a893	slti	x17,x3,-1514	  x3:0x40005142 x17=0x00000000
        8135000	       812	80001b50	01f73733	sltu	x14,x14,x31	 x14:0x00000000 x31:0x40000000 x14=0x00000001
        8145000	       813	80001b54	40a95533	sra	x10,x18,x10	 x18:0x00000001 x10:0x00000001 x10=0x00000000
        8155000	       814	80001b58	0138f733	and	x14,x17,x19	 x17:0x00000000 x19:0x07530000 x14=0x00000000
        8165000	       815	80001b5c	93b13a13	sltiu	x20,x2,-1733	  x2:0xffffffed x20=0x00000000
        8175000	       816	80001b60	01cadc33	srl	x24,x21,x28	 x21:0x00000001 x28:0x00000000 x24=0x00000001
        8185000	       817	80001b64	01b8cb33	xor	x22,x17,x27	 x17:0x00000000 x27:0x00000001 x22=0x00000001
        8195000	       818	80001b68	fc2bdae3	bge	x23,x2,80001b3c	 x23:0xffffffea  x2:0xffffffed
        8205000	       819	80001b6c	018ed993	srli	x19,x29,0x18	 x29:0x80009f60 x19=0x00000080
        8215000	       820	80001b70	00900813	addi	x16,x0,9	  x0:0x00000000 x16=0x00000009
        8225000	       821	80001b74	00045313	srli	x6,x8,0x0	  x8:0x00000363  x6=0x00000363
        8235000	       822	80001b78	01200b93	addi	x23,x0,18	  x0:0x00000000 x23=0x00000012
        8245000	       823	80001b7c	01eb1013	slli	x0,x22,0x1e	 x22:0x00000001
        8255000	       824	80001b80	551ecc97	auipc	x25,0x551ec	 x25=0xd51edb7c
        8265000	       825	80001b84	00380813	addi	x16,x16,3	 x16:0x00000009 x16=0x0000000c
        8275000	       826	80001b88	00a00713	addi	x14,x0,10	  x0:0x00000000 x14=0x0000000a
        8285000	       827	80001b8c	07ad3793	sltiu	x15,x26,122	 x26:0x00000000 x15=0x00000001
        8295000	       828	80001b90	00600a13	addi	x20,x0,6	  x0:0x00000000 x20=0x00000006
        8305000	       829	80001b94	00000013	addi	x0,x0,0	  x0:0x00000000
        8315000	       830	80001b98	2bd2f193	andi	x3,x5,701	  x5:0x00000276  x3=0x00000234
        8325000	       831	80001b9c	051d8293	addi	x5,x27,81	 x27:0x00000001  x5=0x00000052
        8335000	       832	80001ba0	fff70713	addi	x14,x14,-1	 x14:0x0000000a x14=0x00000009
        8345000	       833	80001ba4	01102633	slt	x12,x0,x17	  x0:0x00000000 x17:0x00000000 x12=0x00000000
        8355000	       834	80001ba8	ff4776e3	bgeu	x14,x20,80001b94	 x14:0x00000009 x20:0x00000006
        8365000	       835	00000000	00000013	addi	x0,x0,0	  x0:0x00000000
        8375000	       836	80001b90	00000013	addi	x0,x0,0	  x0:0x00000000
        8385000	       837	80001b94	00000013	addi	x0,x0,0	  x0:0x00000000
        8395000	       838	80001b98	2bd2f193	andi	x3,x5,701	  x5:0x00000052  x3=0x00000010
        8405000	       839	80001b9c	051d8293	addi	x5,x27,81	 x27:0x00000001  x5=0x00000052
        8415000	       840	80001ba0	fff70713	addi	x14,x14,-1	 x14:0x00000009 x14=0x00000008
        8425000	       841	80001ba4	01102633	slt	x12,x0,x17	  x0:0x00000000 x17:0x00000000 x12=0x00000000
        8435000	       842	80001ba8	ff4776e3	bgeu	x14,x20,80001b94	 x14:0x00000008 x20:0x00000006
        8445000	       843	00000000	00000013	addi	x0,x0,0	  x0:0x00000000
        8455000	       844	80001b90	00000013	addi	x0,x0,0	  x0:0x00000000
        8465000	       845	80001b94	00000013	addi	x0,x0,0	  x0:0x00000000
        8475000	       846	80001b98	2bd2f193	andi	x3,x5,701	  x5:0x00000052  x3=0x00000010
        8485000	       847	80001b9c	051d8293	addi	x5,x27,81	 x27:0x00000001  x5=0x00000052
        8495000	       848	80001ba0	fff70713	addi	x14,x14,-1	 x14:0x00000008 x14=0x00000007
        8505000	       849	80001ba4	01102633	slt	x12,x0,x17	  x0:0x00000000 x17:0x00000000 x12=0x00000000
        8515000	       850	80001ba8	ff4776e3	bgeu	x14,x20,80001b94	 x14:0x00000007 x20:0x00000006
        8525000	       851	00000000	00000013	addi	x0,x0,0	  x0:0x00000000
        8535000	       852	80001b90	00000013	addi	x0,x0,0	  x0:0x00000000
        8545000	       853	80001b94	00000013	addi	x0,x0,0	  x0:0x00000000
        8555000	       854	80001b98	2bd2f193	andi	x3,x5,701	  x5:0x00000052  x3=0x00000010
        8565000	       855	80001b9c	051d8293	addi	x5,x27,81	 x27:0x00000001  x5=0x00000052
        8575000	       856	80001ba0	fff70713	addi	x14,x14,-1	 x14:0x00000007 x14=0x00000006
        8585000	       857	80001ba4	01102633	slt	x12,x0,x17	  x0:0x00000000 x17:0x00000000 x12=0x00000000
        8595000	       858	80001ba8	ff4776e3	bgeu	x14,x20,80001b94	 x14:0x00000006 x20:0x00000006
        8605000	       859	00000000	00000013	addi	x0,x0,0	  x0:0x00000000
        8615000	       860	80001b90	00000013	addi	x0,x0,0	  x0:0x00000000
        8625000	       861	80001b94	00000013	addi	x0,x0,0	  x0:0x00000000
        8635000	       862	80001b98	2bd2f193	andi	x3,x5,701	  x5:0x00000052  x3=0x00000010
        8645000	       863	80001b9c	051d8293	addi	x5,x27,81	 x27:0x00000001  x5=0x00000052
        8655000	       864	80001ba0	fff70713	addi	x14,x14,-1	 x14:0x00000006 x14=0x00000005
        8665000	       865	80001ba4	01102633	slt	x12,x0,x17	  x0:0x00000000 x17:0x00000000 x12=0x00000000
        8675000	       866	80001ba8	ff4776e3	bgeu	x14,x20,80001b94	 x14:0x00000005 x20:0x00000006
        8685000	       867	80001bac	403303b3	sub	x7,x6,x3	  x6:0x00000363  x3:0x00000010  x7=0x00000353
        8695000	       868	80001bb0	00644c33	xor	x24,x8,x6	  x8:0x00000363  x6:0x00000363 x24=0x00000000
        8705000	       869	80001bb4	f6d08c13	addi	x24,x1,-147	  x1:0xffffffff x24=0xffffff6c
        8715000	       870	80001bb8	6c4f4913	xori	x18,x30,1732	 x30:0x40000000 x18=0x400006c4
        8725000	       871	80001bbc	fd7842e3	blt	x16,x23,80001b80	 x16:0x0000000c x23:0x00000012
        8735000	       872	00000000	00000013	addi	x0,x0,0	  x0:0x00000000
        8745000	       873	80001b7c	00000013	addi	x0,x0,0	  x0:0x00000000
        8755000	       874	80001b80	551ecc97	auipc	x25,0x551ec	 x25=0xd51edb7c
        8765000	       875	80001b84	00380813	addi	x16,x16,3	 x16:0x0000000c x16=0x0000000f
        8775000	       876	80001b88	00a00713	addi	x14,x0,10	  x0:0x00000000 x14=0x0000000a
        8785000	       877	80001b8c	07ad3793	sltiu	x15,x26,122	 x26:0x00000000 x15=0x00000001
        8795000	       878	80001b90	00600a13	addi	x20,x0,6	  x0:0x00000000 x20=0x00000006
        8805000	       879	80001b94	00000013	addi	x0,x0,0	  x0:0x00000000
        8815000	       880	80001b98	2bd2f193	andi	x3,x5,701	  x5:0x00000052  x3=0x00000010
        8825000	       881	80001b9c	051d8293	addi	x5,x27,81	 x27:0x00000001  x5=0x00000052
        8835000	       882	80001ba0	fff70713	addi	x14,x14,-1	 x14:0x0000000a x14=0x00000009
        8845000	       883	80001ba4	01102633	slt	x12,x0,x17	  x0:0x00000000 x17:0x00000000 x12=0x00000000
        8855000	       884	80001ba8	ff4776e3	bgeu	x14,x20,80001b94	 x14:0x00000009 x20:0x00000006
        8865000	       885	00000000	00000013	addi	x0,x0,0	  x0:0x00000000
        8875000	       886	80001b90	00000013	addi	x0,x0,0	  x0:0x00000000
        8885000	       887	80001b94	00000013	addi	x0,x0,0	  x0:0x00000000
        8895000	       888	80001b98	2bd2f193	andi	x3,x5,701	  x5:0x00000052  x3=0x00000010
        8905000	       889	80001b9c	051d8293	addi	x5,x27,81	 x27:0x00000001  x5=0x00000052
        8915000	       890	80001ba0	fff70713	addi	x14,x14,-1	 x14:0x00000009 x14=0x00000008
        8925000	       891	80001ba4	01102633	slt	x12,x0,x17	  x0:0x00000000 x17:0x00000000 x12=0x00000000
        8935000	       892	80001ba8	ff4776e3	bgeu	x14,x20,80001b94	 x14:0x00000008 x20:0x00000006
        8945000	       893	00000000	00000013	addi	x0,x0,0	  x0:0x00000000
        8955000	       894	80001b90	00000013	addi	x0,x0,0	  x0:0x00000000
        8965000	       895	80001b94	00000013	addi	x0,x0,0	  x0:0x00000000
        8975000	       896	80001b98	2bd2f193	andi	x3,x5,701	  x5:0x00000052  x3=0x00000010
        8985000	       897	80001b9c	051d8293	addi	x5,x27,81	 x27:0x00000001  x5=0x00000052
        8995000	       898	80001ba0	fff70713	addi	x14,x14,-1	 x14:0x00000008 x14=0x00000007
        9005000	       899	80001ba4	01102633	slt	x12,x0,x17	  x0:0x00000000 x17:0x00000000 x12=0x00000000
        9015000	       900	80001ba8	ff4776e3	bgeu	x14,x20,80001b94	 x14:0x00000007 x20:0x00000006
        9025000	       901	00000000	00000013	addi	x0,x0,0	  x0:0x00000000
        9035000	       902	80001b90	00000013	addi	x0,x0,0	  x0:0x00000000
        9045000	       903	80001b94	00000013	addi	x0,x0,0	  x0:0x00000000
        9055000	       904	80001b98	2bd2f193	andi	x3,x5,701	  x5:0x00000052  x3=0x00000010
        9065000	       905	80001b9c	051d8293	addi	x5,x27,81	 x27:0x00000001  x5=0x00000052
        9075000	       906	80001ba0	fff70713	addi	x14,x14,-1	 x14:0x00000007 x14=0x00000006
        9085000	       907	80001ba4	01102633	slt	x12,x0,x17	  x0:0x00000000 x17:0x00000000 x12=0x00000000
        9095000	       908	80001ba8	ff4776e3	bgeu	x14,x20,80001b94	 x14:0x00000006 x20:0x00000006
        9105000	       909	00000000	00000013	addi	x0,x0,0	  x0:0x00000000
        9115000	       910	80001b90	00000013	addi	x0,x0,0	  x0:0x00000000
        9125000	       911	80001b94	00000013	addi	x0,x0,0	  x0:0x00000000
        9135000	       912	80001b98	2bd2f193	andi	x3,x5,701	  x5:0x00000052  x3=0x00000010
        9145000	       913	80001b9c	051d8293	addi	x5,x27,81	 x27:0x00000001  x5=0x00000052
        9155000	       914	80001ba0	fff70713	addi	x14,x14,-1	 x14:0x00000006 x14=0x00000005
        9165000	       915	80001ba4	01102633	slt	x12,x0,x17	  x0:0x00000000 x17:0x00000000 x12=0x00000000
        9175000	       916	80001ba8	ff4776e3	bgeu	x14,x20,80001b94	 x14:0x00000005 x20:0x00000006
        9185000	       917	80001bac	403303b3	sub	x7,x6,x3	  x6:0x00000363  x3:0x00000010  x7=0x00000353
        9195000	       918	80001bb0	00644c33	xor	x24,x8,x6	  x8:0x00000363  x6:0x00000363 x24=0x00000000
        9205000	       919	80001bb4	f6d08c13	addi	x24,x1,-147	  x1:0xffffffff x24=0xffffff6c
        9215000	       920	80001bb8	6c4f4913	xori	x18,x30,1732	 x30:0x40000000 x18=0x400006c4
        9225000	       921	80001bbc	fd7842e3	blt	x16,x23,80001b80	 x16:0x0000000f x23:0x00000012
        9235000	       922	00000000	00000013	addi	x0,x0,0	  x0:0x00000000
        9245000	       923	80001b7c	00000013	addi	x0,x0,0	  x0:0x00000000
        9255000	       924	80001b80	551ecc97	auipc	x25,0x551ec	 x25=0xd51edb7c
        9265000	       925	80001b84	00380813	addi	x16,x16,3	 x16:0x0000000f x16=0x00000012
        9275000	       926	80001b88	00a00713	addi	x14,x0,10	  x0:0x00000000 x14=0x0000000a
        9285000	       927	80001b8c	07ad3793	sltiu	x15,x26,122	 x26:0x00000000 x15=0x00000001
        9295000	       928	80001b90	00600a13	addi	x20,x0,6	  x0:0x00000000 x20=0x00000006
        9305000	       929	80001b94	00000013	addi	x0,x0,0	  x0:0x00000000
        9315000	       930	80001b98	2bd2f193	andi	x3,x5,701	  x5:0x00000052  x3=0x00000010
        9325000	       931	80001b9c	051d8293	addi	x5,x27,81	 x27:0x00000001  x5=0x00000052
        9335000	       932	80001ba0	fff70713	addi	x14,x14,-1	 x14:0x0000000a x14=0x00000009
        9345000	       933	80001ba4	01102633	slt	x12,x0,x17	  x0:0x00000000 x17:0x00000000 x12=0x00000000
        9355000	       934	80001ba8	ff4776e3	bgeu	x14,x20,80001b94	 x14:0x00000009 x20:0x00000006
        9365000	       935	00000000	00000013	addi	x0,x0,0	  x0:0x00000000
        9375000	       936	80001b90	00000013	addi	x0,x0,0	  x0:0x00000000
        9385000	       937	80001b94	00000013	addi	x0,x0,0	  x0:0x00000000
        9395000	       938	80001b98	2bd2f193	andi	x3,x5,701	  x5:0x00000052  x3=0x00000010
        9405000	       939	80001b9c	051d8293	addi	x5,x27,81	 x27:0x00000001  x5=0x00000052
        9415000	       940	80001ba0	fff70713	addi	x14,x14,-1	 x14:0x00000009 x14=0x00000008
        9425000	       941	80001ba4	01102633	slt	x12,x0,x17	  x0:0x00000000 x17:0x00000000 x12=0x00000000
        9435000	       942	80001ba8	ff4776e3	bgeu	x14,x20,80001b94	 x14:0x00000008 x20:0x00000006
        9445000	       943	00000000	00000013	addi	x0,x0,0	  x0:0x00000000
        9455000	       944	80001b90	00000013	addi	x0,x0,0	  x0:0x00000000
        9465000	       945	80001b94	00000013	addi	x0,x0,0	  x0:0x00000000
        9475000	       946	80001b98	2bd2f193	andi	x3,x5,701	  x5:0x00000052  x3=0x00000010
        9485000	       947	80001b9c	051d8293	addi	x5,x27,81	 x27:0x00000001  x5=0x00000052
        9495000	       948	80001ba0	fff70713	addi	x14,x14,-1	 x14:0x00000008 x14=0x00000007
        9505000	       949	80001ba4	01102633	slt	x12,x0,x17	  x0:0x00000000 x17:0x00000000 x12=0x00000000
        9515000	       950	80001ba8	ff4776e3	bgeu	x14,x20,80001b94	 x14:0x00000007 x20:0x00000006
        9525000	       951	00000000	00000013	addi	x0,x0,0	  x0:0x00000000
        9535000	       952	80001b90	00000013	addi	x0,x0,0	  x0:0x00000000
        9545000	       953	80001b94	00000013	addi	x0,x0,0	  x0:0x00000000
        9555000	       954	80001b98	2bd2f193	andi	x3,x5,701	  x5:0x00000052  x3=0x00000010
        9565000	       955	80001b9c	051d8293	addi	x5,x27,81	 x27:0x00000001  x5=0x00000052
        9575000	       956	80001ba0	fff70713	addi	x14,x14,-1	 x14:0x00000007 x14=0x00000006
        9585000	       957	80001ba4	01102633	slt	x12,x0,x17	  x0:0x00000000 x17:0x00000000 x12=0x00000000
        9595000	       958	80001ba8	ff4776e3	bgeu	x14,x20,80001b94	 x14:0x00000006 x20:0x00000006
        9605000	       959	00000000	00000013	addi	x0,x0,0	  x0:0x00000000
        9615000	       960	80001b90	00000013	addi	x0,x0,0	  x0:0x00000000
        9625000	       961	80001b94	00000013	addi	x0,x0,0	  x0:0x00000000
        9635000	       962	80001b98	2bd2f193	andi	x3,x5,701	  x5:0x00000052  x3=0x00000010
        9645000	       963	80001b9c	051d8293	addi	x5,x27,81	 x27:0x00000001  x5=0x00000052
        9655000	       964	80001ba0	fff70713	addi	x14,x14,-1	 x14:0x00000006 x14=0x00000005
        9665000	       965	80001ba4	01102633	slt	x12,x0,x17	  x0:0x00000000 x17:0x00000000 x12=0x00000000
        9675000	       966	80001ba8	ff4776e3	bgeu	x14,x20,80001b94	 x14:0x00000005 x20:0x00000006
        9685000	       967	80001bac	403303b3	sub	x7,x6,x3	  x6:0x00000363  x3:0x00000010  x7=0x00000353
        9695000	       968	80001bb0	00644c33	xor	x24,x8,x6	  x8:0x00000363  x6:0x00000363 x24=0x00000000
        9705000	       969	80001bb4	f6d08c13	addi	x24,x1,-147	  x1:0xffffffff x24=0xffffff6c
        9715000	       970	80001bb8	6c4f4913	xori	x18,x30,1732	 x30:0x40000000 x18=0x400006c4
        9725000	       971	80001bbc	fd7842e3	blt	x16,x23,80001b80	 x16:0x00000012 x23:0x00000012
        9735000	       972	80001bc0	002a1033	sll	x0,x20,x2	 x20:0x00000006  x2:0xffffffed
        9745000	       973	80001bc4	00800f13	addi	x30,x0,8	  x0:0x00000000 x30=0x00000008
        9755000	       974	80001bc8	780e0413	addi	x8,x28,1920	 x28:0x00000000  x8=0x00000780
        9765000	       975	80001bcc	fec00093	addi	x1,x0,-20	  x0:0x00000000  x1=0xffffffec
        9775000	       976	80001bd0	018c9fb3	sll	x31,x25,x24	 x25:0xd51edb7c x24:0xffffff6c x31=0xedb7c000
        9785000	       977	80001bd4	1c98e813	ori	x16,x17,457	 x17:0x00000000 x16=0x000001c9
        9795000	       978	80001bd8	011edc93	srli	x25,x29,0x11	 x29:0x80009f60 x25=0x00004000
        9805000	       979	80001bdc	e1af6713	ori	x14,x30,-486	 x30:0x00000008 x14=0xfffffe1a
        9815000	       980	80001be0	008cf133	and	x2,x25,x8	 x25:0x00004000  x8:0x00000780  x2=0x00000000
        9825000	       981	80001be4	ff7f0f13	addi	x30,x30,-9	 x30:0x00000008 x30=0xffffffff
        9835000	       982	80001be8	01da96b3	sll	x13,x21,x29	 x21:0x00000001 x29:0x80009f60 x13=0x00000001
        9845000	       983	80001bec	01f1e333	or	x6,x3,x31	  x3:0x00000010 x31:0xedb7c000  x6=0xedb7c010
        9855000	       984	80001bf0	01f1efb3	or	x31,x3,x31	  x3:0x00000010 x31:0xedb7c000 x31=0xedb7c010
        9865000	       985	80001bf4	ffd00d93	addi	x27,x0,-3	  x0:0x00000000 x27=0xfffffffd
        9875000	       986	80001bf8	b6c2e117	auipc	x2,0xb6c2e	  x2=0x36c2fbf4
        9885000	       987	80001bfc	00000013	addi	x0,x0,0	  x0:0x00000000
        9895000	       988	80001c00	ff700a13	addi	x20,x0,-9	  x0:0x00000000 x20=0xfffffff7
        9905000	       989	80001c04	41a55b93	srai	x23,x10,0x1a	 x10:0x00000000 x23=0x00000000
        9915000	       990	80001c08	00b0a5b3	slt	x11,x1,x11	  x1:0xffffffec x11:0x80009d40 x11=0x00000000
        9925000	       991	80001c0c	00537c33	and	x24,x6,x5	  x6:0xedb7c010  x5:0x00000052 x24=0x00000010
        9935000	       992	80001c10	ffad8d93	addi	x27,x27,-6	 x27:0xfffffffd x27=0xfffffff7
        9945000	       993	80001c14	004577b3	and	x15,x10,x4	 x10:0x00000000  x4:0x80009fc4 x15=0x00000000
        9955000	       994	80001c18	014e7833	and	x16,x28,x20	 x28:0x00000000 x20:0xfffffff7 x16=0x00000000
        9965000	       995	80001c1c	35bd5d37	lui	x26,0x35bd5	 x26=0x35bd5000
        9975000	       996	80001c20	ff4d94e3	bne	x27,x20,80001c08	 x27:0xfffffff7 x20:0xfffffff7
        9985000	       997	80001c24	003a6833	or	x16,x20,x3	 x20:0xfffffff7  x3:0x00000010 x16=0xfffffff7
        9995000	       998	80001c28	fa1f56e3	bge	x30,x1,80001bd4	 x30:0xffffffff  x1:0xffffffec
       10005000	       999	00000000	00000013	addi	x0,x0,0	  x0:0x00000000
       10015000	      1000	80001bd0	00000013	addi	x0,x0,0	  x0:0x00000000
       10025000	      1001	80001bd4	1c98e813	ori	x16,x17,457	 x17:0x00000000 x16=0x000001c9
       10035000	      1002	80001bd8	011edc93	srli	x25,x29,0x11	 x29:0x80009f60 x25=0x00004000
       10045000	      1003	80001bdc	e1af6713	ori	x14,x30,-486	 x30:0xffffffff x14=0xffffffff
       10055000	      1004	80001be0	008cf133	and	x2,x25,x8	 x25:0x00004000  x8:0x00000780  x2=0x00000000
       10065000	      1005	80001be4	ff7f0f13	addi	x30,x30,-9	 x30:0xffffffff x30=0xfffffff6
       10075000	      1006	80001be8	01da96b3	sll	x13,x21,x29	 x21:0x00000001 x29:0x80009f60 x13=0x00000001
       10085000	      1007	80001bec	01f1e333	or	x6,x3,x31	  x3:0x00000010 x31:0xedb7c010  x6=0xedb7c010
       10095000	      1008	80001bf0	01f1efb3	or	x31,x3,x31	  x3:0x00000010 x31:0xedb7c010 x31=0xedb7c010
       10105000	      1009	80001bf4	ffd00d93	addi	x27,x0,-3	  x0:0x00000000 x27=0xfffffffd
       10115000	      1010	80001bf8	b6c2e117	auipc	x2,0xb6c2e	  x2=0x36c2fbf4
       10125000	      1011	80001bfc	00000013	addi	x0,x0,0	  x0:0x00000000
       10135000	      1012	80001c00	ff700a13	addi	x20,x0,-9	  x0:0x00000000 x20=0xfffffff7
       10145000	      1013	80001c04	41a55b93	srai	x23,x10,0x1a	 x10:0x00000000 x23=0x00000000
       10155000	      1014	80001c08	00b0a5b3	slt	x11,x1,x11	  x1:0xffffffec x11:0x00000000 x11=0x00000001
       10165000	      1015	80001c0c	00537c33	and	x24,x6,x5	  x6:0xedb7c010  x5:0x00000052 x24=0x00000010
       10175000	      1016	80001c10	ffad8d93	addi	x27,x27,-6	 x27:0xfffffffd x27=0xfffffff7
       10185000	      1017	80001c14	004577b3	and	x15,x10,x4	 x10:0x00000000  x4:0x80009fc4 x15=0x00000000
       10195000	      1018	80001c18	014e7833	and	x16,x28,x20	 x28:0x00000000 x20:0xfffffff7 x16=0x00000000
       10205000	      1019	80001c1c	35bd5d37	lui	x26,0x35bd5	 x26=0x35bd5000
       10215000	      1020	80001c20	ff4d94e3	bne	x27,x20,80001c08	 x27:0xfffffff7 x20:0xfffffff7
       10225000	      1021	80001c24	003a6833	or	x16,x20,x3	 x20:0xfffffff7  x3:0x00000010 x16=0xfffffff7
       10235000	      1022	80001c28	fa1f56e3	bge	x30,x1,80001bd4	 x30:0xfffffff6  x1:0xffffffec
       10245000	      1023	00000000	00000013	addi	x0,x0,0	  x0:0x00000000
       10255000	      1024	80001bd0	00000013	addi	x0,x0,0	  x0:0x00000000
       10265000	      1025	80001bd4	1c98e813	ori	x16,x17,457	 x17:0x00000000 x16=0x000001c9
       10275000	      1026	80001bd8	011edc93	srli	x25,x29,0x11	 x29:0x80009f60 x25=0x00004000
       10285000	      1027	80001bdc	e1af6713	ori	x14,x30,-486	 x30:0xfffffff6 x14=0xfffffffe
       10295000	      1028	80001be0	008cf133	and	x2,x25,x8	 x25:0x00004000  x8:0x00000780  x2=0x00000000
       10305000	      1029	80001be4	ff7f0f13	addi	x30,x30,-9	 x30:0xfffffff6 x30=0xffffffed
       10315000	      1030	80001be8	01da96b3	sll	x13,x21,x29	 x21:0x00000001 x29:0x80009f60 x13=0x00000001
       10325000	      1031	80001bec	01f1e333	or	x6,x3,x31	  x3:0x00000010 x31:0xedb7c010  x6=0xedb7c010
       10335000	      1032	80001bf0	01f1efb3	or	x31,x3,x31	  x3:0x00000010 x31:0xedb7c010 x31=0xedb7c010
       10345000	      1033	80001bf4	ffd00d93	addi	x27,x0,-3	  x0:0x00000000 x27=0xfffffffd
       10355000	      1034	80001bf8	b6c2e117	auipc	x2,0xb6c2e	  x2=0x36c2fbf4
       10365000	      1035	80001bfc	00000013	addi	x0,x0,0	  x0:0x00000000
       10375000	      1036	80001c00	ff700a13	addi	x20,x0,-9	  x0:0x00000000 x20=0xfffffff7
       10385000	      1037	80001c04	41a55b93	srai	x23,x10,0x1a	 x10:0x00000000 x23=0x00000000
       10395000	      1038	80001c08	00b0a5b3	slt	x11,x1,x11	  x1:0xffffffec x11:0x00000001 x11=0x00000001
       10405000	      1039	80001c0c	00537c33	and	x24,x6,x5	  x6:0xedb7c010  x5:0x00000052 x24=0x00000010
       10415000	      1040	80001c10	ffad8d93	addi	x27,x27,-6	 x27:0xfffffffd x27=0xfffffff7
       10425000	      1041	80001c14	004577b3	and	x15,x10,x4	 x10:0x00000000  x4:0x80009fc4 x15=0x00000000
       10435000	      1042	80001c18	014e7833	and	x16,x28,x20	 x28:0x00000000 x20:0xfffffff7 x16=0x00000000
       10445000	      1043	80001c1c	35bd5d37	lui	x26,0x35bd5	 x26=0x35bd5000
       10455000	      1044	80001c20	ff4d94e3	bne	x27,x20,80001c08	 x27:0xfffffff7 x20:0xfffffff7
       10465000	      1045	80001c24	003a6833	or	x16,x20,x3	 x20:0xfffffff7  x3:0x00000010 x16=0xfffffff7
       10475000	      1046	80001c28	fa1f56e3	bge	x30,x1,80001bd4	 x30:0xffffffed  x1:0xffffffec
       10485000	      1047	00000000	00000013	addi	x0,x0,0	  x0:0x00000000
       10495000	      1048	80001bd0	00000013	addi	x0,x0,0	  x0:0x00000000
       10505000	      1049	80001bd4	1c98e813	ori	x16,x17,457	 x17:0x00000000 x16=0x000001c9
       10515000	      1050	80001bd8	011edc93	srli	x25,x29,0x11	 x29:0x80009f60 x25=0x00004000
       10525000	      1051	80001bdc	e1af6713	ori	x14,x30,-486	 x30:0xffffffed x14=0xffffffff
       10535000	      1052	80001be0	008cf133	and	x2,x25,x8	 x25:0x00004000  x8:0x00000780  x2=0x00000000
       10545000	      1053	80001be4	ff7f0f13	addi	x30,x30,-9	 x30:0xffffffed x30=0xffffffe4
       10555000	      1054	80001be8	01da96b3	sll	x13,x21,x29	 x21:0x00000001 x29:0x80009f60 x13=0x00000001
       10565000	      1055	80001bec	01f1e333	or	x6,x3,x31	  x3:0x00000010 x31:0xedb7c010  x6=0xedb7c010
       10575000	      1056	80001bf0	01f1efb3	or	x31,x3,x31	  x3:0x00000010 x31:0xedb7c010 x31=0xedb7c010
       10585000	      1057	80001bf4	ffd00d93	addi	x27,x0,-3	  x0:0x00000000 x27=0xfffffffd
       10595000	      1058	80001bf8	b6c2e117	auipc	x2,0xb6c2e	  x2=0x36c2fbf4
       10605000	      1059	80001bfc	00000013	addi	x0,x0,0	  x0:0x00000000
       10615000	      1060	80001c00	ff700a13	addi	x20,x0,-9	  x0:0x00000000 x20=0xfffffff7
       10625000	      1061	80001c04	41a55b93	srai	x23,x10,0x1a	 x10:0x00000000 x23=0x00000000
       10635000	      1062	80001c08	00b0a5b3	slt	x11,x1,x11	  x1:0xffffffec x11:0x00000001 x11=0x00000001
       10645000	      1063	80001c0c	00537c33	and	x24,x6,x5	  x6:0xedb7c010  x5:0x00000052 x24=0x00000010
       10655000	      1064	80001c10	ffad8d93	addi	x27,x27,-6	 x27:0xfffffffd x27=0xfffffff7
       10665000	      1065	80001c14	004577b3	and	x15,x10,x4	 x10:0x00000000  x4:0x80009fc4 x15=0x00000000
       10675000	      1066	80001c18	014e7833	and	x16,x28,x20	 x28:0x00000000 x20:0xfffffff7 x16=0x00000000
       10685000	      1067	80001c1c	35bd5d37	lui	x26,0x35bd5	 x26=0x35bd5000
       10695000	      1068	80001c20	ff4d94e3	bne	x27,x20,80001c08	 x27:0xfffffff7 x20:0xfffffff7
       10705000	      1069	80001c24	003a6833	or	x16,x20,x3	 x20:0xfffffff7  x3:0x00000010 x16=0xfffffff7
       10715000	      1070	80001c28	fa1f56e3	bge	x30,x1,80001bd4	 x30:0xffffffe4  x1:0xffffffec
       10725000	      1071	80001c2c	01af2133	slt	x2,x30,x26	 x30:0xffffffe4 x26:0x35bd5000  x2=0x00000001
       10735000	      1072	80001c30	00600b93	addi	x23,x0,6	  x0:0x00000000 x23=0x00000006
       10745000	      1073	80001c34	41f0d793	srai	x15,x1,0x1f	  x1:0xffffffec x15=0xffffffff
       10755000	      1074	80001c38	a0dc2fb7	lui	x31,0xa0dc2	 x31=0xa0dc2000
       10765000	      1075	80001c3c	01db09b3	add	x19,x22,x29	 x22:0x00000001 x29:0x80009f60 x19=0x80009f61
       10775000	      1076	80001c40	b1f8f813	andi	x16,x17,-1249	 x17:0x00000000 x16=0x00000000
       10785000	      1077	80001c44	017ab533	sltu	x10,x21,x23	 x21:0x00000001 x23:0x00000006 x10=0x00000001
       10795000	      1078	80001c48	00000013	addi	x0,x0,0	  x0:0x00000000
       10805000	      1079	80001c4c	00f00193	addi	x3,x0,15	  x0:0x00000000  x3=0x0000000f
       10815000	      1080	80001c50	7eb3e013	ori	x0,x7,2027	  x7:0x00000353
       10825000	      1081	80001c54	74d67b13	andi	x22,x12,1869	 x12:0x00000000 x22=0x00000000
       10835000	      1082	80001c58	012b9993	slli	x19,x23,0x12	 x23:0x00000006 x19=0x00180000
       10845000	      1083	80001c5c	727aaf93	slti	x31,x21,1831	 x21:0x00000001 x31=0x00000001
       10855000	      1084	80001c60	01dc3333	sltu	x6,x24,x29	 x24:0x00000010 x29:0x80009f60  x6=0x00000001
       10865000	      1085	80001c64	bf2ccc13	xori	x24,x25,-1038	 x25:0x00004000 x24=0xffffbbf2
       10875000	      1086	80001c68	d3293613	sltiu	x12,x18,-718	 x18:0x400006c4 x12=0x00000001
       10885000	      1087	80001c6c	403b8133	sub	x2,x23,x3	 x23:0x00000006  x3:0x0000000f  x2=0xfffffff7
       10895000	      1088	80001c70	2cc4c513	xori	x10,x9,716	  x9:0x00000001 x10=0x000002cd
       10905000	      1089	80001c74	007a5b33	srl	x22,x20,x7	 x20:0xfffffff7  x7:0x00000353 x22=0x00001fff
       10915000	      1090	80001c78	cf065c37	lui	x24,0xcf065	 x24=0xcf065000
       10925000	      1091	80001c7c	002b8b93	addi	x23,x23,2	 x23:0x00000006 x23=0x00000008
       10935000	      1092	80001c80	0b4d7893	andi	x17,x26,180	 x26:0x35bd5000 x17=0x00000000
       10945000	      1093	80001c84	014815b3	sll	x11,x16,x20	 x16:0x00000000 x20:0xfffffff7 x11=0x00000000
       10955000	      1094	80001c88	01f39593	slli	x11,x7,0x1f	  x7:0x00000353 x11=0x80000000
       10965000	      1095	80001c8c	00000013	addi	x0,x0,0	  x0:0x00000000
       10975000	      1096	80001c90	fc3be6e3	bltu	x23,x3,80001c5c	 x23:0x00000008  x3:0x0000000f
       10985000	      1097	00000000	00000013	addi	x0,x0,0	  x0:0x00000000
       10995000	      1098	80001c58	00000013	addi	x0,x0,0	  x0:0x00000000
       11005000	      1099	80001c5c	727aaf93	slti	x31,x21,1831	 x21:0x00000001 x31=0x00000001
       11015000	      1100	80001c60	01dc3333	sltu	x6,x24,x29	 x24:0xcf065000 x29:0x80009f60  x6=0x00000000
       11025000	      1101	80001c64	bf2ccc13	xori	x24,x25,-1038	 x25:0x00004000 x24=0xffffbbf2
       11035000	      1102	80001c68	d3293613	sltiu	x12,x18,-718	 x18:0x400006c4 x12=0x00000001
       11045000	      1103	80001c6c	403b8133	sub	x2,x23,x3	 x23:0x00000008  x3:0x0000000f  x2=0xfffffff9
       11055000	      1104	80001c70	2cc4c513	xori	x10,x9,716	  x9:0x00000001 x10=0x000002cd
       11065000	      1105	80001c74	007a5b33	srl	x22,x20,x7	 x20:0xfffffff7  x7:0x00000353 x22=0x00001fff
       11075000	      1106	80001c78	cf065c37	lui	x24,0xcf065	 x24=0xcf065000
       11085000	      1107	80001c7c	002b8b93	addi	x23,x23,2	 x23:0x00000008 x23=0x0000000a
       11095000	      1108	80001c80	0b4d7893	andi	x17,x26,180	 x26:0x35bd5000 x17=0x00000000
       11105000	      1109	80001c84	014815b3	sll	x11,x16,x20	 x16:0x00000000 x20:0xfffffff7 x11=0x00000000
       11115000	      1110	80001c88	01f39593	slli	x11,x7,0x1f	  x7:0x00000353 x11=0x80000000
       11125000	      1111	80001c8c	00000013	addi	x0,x0,0	  x0:0x00000000
       11135000	      1112	80001c90	fc3be6e3	bltu	x23,x3,80001c5c	 x23:0x0000000a  x3:0x0000000f
       11145000	      1113	00000000	00000013	addi	x0,x0,0	  x0:0x00000000
       11155000	      1114	80001c58	00000013	addi	x0,x0,0	  x0:0x00000000
       11165000	      1115	80001c5c	727aaf93	slti	x31,x21,1831	 x21:0x00000001 x31=0x00000001
       11175000	      1116	80001c60	01dc3333	sltu	x6,x24,x29	 x24:0xcf065000 x29:0x80009f60  x6=0x00000000
       11185000	      1117	80001c64	bf2ccc13	xori	x24,x25,-1038	 x25:0x00004000 x24=0xffffbbf2
       11195000	      1118	80001c68	d3293613	sltiu	x12,x18,-718	 x18:0x400006c4 x12=0x00000001
       11205000	      1119	80001c6c	403b8133	sub	x2,x23,x3	 x23:0x0000000a  x3:0x0000000f  x2=0xfffffffb
       11215000	      1120	80001c70	2cc4c513	xori	x10,x9,716	  x9:0x00000001 x10=0x000002cd
       11225000	      1121	80001c74	007a5b33	srl	x22,x20,x7	 x20:0xfffffff7  x7:0x00000353 x22=0x00001fff
       11235000	      1122	80001c78	cf065c37	lui	x24,0xcf065	 x24=0xcf065000
       11245000	      1123	80001c7c	002b8b93	addi	x23,x23,2	 x23:0x0000000a x23=0x0000000c
       11255000	      1124	80001c80	0b4d7893	andi	x17,x26,180	 x26:0x35bd5000 x17=0x00000000
       11265000	      1125	80001c84	014815b3	sll	x11,x16,x20	 x16:0x00000000 x20:0xfffffff7 x11=0x00000000
       11275000	      1126	80001c88	01f39593	slli	x11,x7,0x1f	  x7:0x00000353 x11=0x80000000
       11285000	      1127	80001c8c	00000013	addi	x0,x0,0	  x0:0x00000000
       11295000	      1128	80001c90	fc3be6e3	bltu	x23,x3,80001c5c	 x23:0x0000000c  x3:0x0000000f
       11305000	      1129	00000000	00000013	addi	x0,x0,0	  x0:0x00000000
       11315000	      1130	80001c58	00000013	addi	x0,x0,0	  x0:0x00000000
       11325000	      1131	80001c5c	727aaf93	slti	x31,x21,1831	 x21:0x00000001 x31=0x00000001
       11335000	      1132	80001c60	01dc3333	sltu	x6,x24,x29	 x24:0xcf065000 x29:0x80009f60  x6=0x00000000
       11345000	      1133	80001c64	bf2ccc13	xori	x24,x25,-1038	 x25:0x00004000 x24=0xffffbbf2
       11355000	      1134	80001c68	d3293613	sltiu	x12,x18,-718	 x18:0x400006c4 x12=0x00000001
       11365000	      1135	80001c6c	403b8133	sub	x2,x23,x3	 x23:0x0000000c  x3:0x0000000f  x2=0xfffffffd
       11375000	      1136	80001c70	2cc4c513	xori	x10,x9,716	  x9:0x00000001 x10=0x000002cd
       11385000	      1137	80001c74	007a5b33	srl	x22,x20,x7	 x20:0xfffffff7  x7:0x00000353 x22=0x00001fff
       11395000	      1138	80001c78	cf065c37	lui	x24,0xcf065	 x24=0xcf065000
       11405000	      1139	80001c7c	002b8b93	addi	x23,x23,2	 x23:0x0000000c x23=0x0000000e
       11415000	      1140	80001c80	0b4d7893	andi	x17,x26,180	 x26:0x35bd5000 x17=0x00000000
       11425000	      1141	80001c84	014815b3	sll	x11,x16,x20	 x16:0x00000000 x20:0xfffffff7 x11=0x00000000
       11435000	      1142	80001c88	01f39593	slli	x11,x7,0x1f	  x7:0x00000353 x11=0x80000000
       11445000	      1143	80001c8c	00000013	addi	x0,x0,0	  x0:0x00000000
       11455000	      1144	80001c90	fc3be6e3	bltu	x23,x3,80001c5c	 x23:0x0000000e  x3:0x0000000f
       11465000	      1145	00000000	00000013	addi	x0,x0,0	  x0:0x00000000
       11475000	      1146	80001c58	00000013	addi	x0,x0,0	  x0:0x00000000
       11485000	      1147	80001c5c	727aaf93	slti	x31,x21,1831	 x21:0x00000001 x31=0x00000001
       11495000	      1148	80001c60	01dc3333	sltu	x6,x24,x29	 x24:0xcf065000 x29:0x80009f60  x6=0x00000000
       11505000	      1149	80001c64	bf2ccc13	xori	x24,x25,-1038	 x25:0x00004000 x24=0xffffbbf2
       11515000	      1150	80001c68	d3293613	sltiu	x12,x18,-718	 x18:0x400006c4 x12=0x00000001
       11525000	      1151	80001c6c	403b8133	sub	x2,x23,x3	 x23:0x0000000e  x3:0x0000000f  x2=0xffffffff
       11535000	      1152	80001c70	2cc4c513	xori	x10,x9,716	  x9:0x00000001 x10=0x000002cd
       11545000	      1153	80001c74	007a5b33	srl	x22,x20,x7	 x20:0xfffffff7  x7:0x00000353 x22=0x00001fff
       11555000	      1154	80001c78	cf065c37	lui	x24,0xcf065	 x24=0xcf065000
       11565000	      1155	80001c7c	002b8b93	addi	x23,x23,2	 x23:0x0000000e x23=0x00000010
       11575000	      1156	80001c80	0b4d7893	andi	x17,x26,180	 x26:0x35bd5000 x17=0x00000000
       11585000	      1157	80001c84	014815b3	sll	x11,x16,x20	 x16:0x00000000 x20:0xfffffff7 x11=0x00000000
       11595000	      1158	80001c88	01f39593	slli	x11,x7,0x1f	  x7:0x00000353 x11=0x80000000
       11605000	      1159	80001c8c	00000013	addi	x0,x0,0	  x0:0x00000000
       11615000	      1160	80001c90	fc3be6e3	bltu	x23,x3,80001c5c	 x23:0x00000010  x3:0x0000000f
       11625000	      1161	80001c94	01acd3b3	srl	x7,x25,x26	 x25:0x00004000 x26:0x35bd5000  x7=0x00004000
       11635000	      1162	80001c98	ffb00813	addi	x16,x0,-5	  x0:0x00000000 x16=0xfffffffb
       11645000	      1163	80001c9c	ff700993	addi	x19,x0,-9	  x0:0x00000000 x19=0xfffffff7
       11655000	      1164	80001ca0	41acd2b3	sra	x5,x25,x26	 x25:0x00004000 x26:0x35bd5000  x5=0x00004000
       11665000	      1165	80001ca4	1752a393	slti	x7,x5,373	  x5:0x00004000  x7=0x00000000
       11675000	      1166	80001ca8	ffc80813	addi	x16,x16,-4	 x16:0xfffffffb x16=0xfffffff7
       11685000	      1167	80001cac	ffa00613	addi	x12,x0,-6	  x0:0x00000000 x12=0xfffffffa
       11695000	      1168	80001cb0	00610ab3	add	x21,x2,x6	  x2:0xffffffff  x6:0x00000000 x21=0xffffffff
       11705000	      1169	80001cb4	017cbfb3	sltu	x31,x25,x23	 x25:0x00004000 x23:0x00000010 x31=0x00000000
       11715000	      1170	80001cb8	ff200d13	addi	x26,x0,-14	  x0:0x00000000 x26=0xfffffff2
       11725000	      1171	80001cbc	d9bd1437	lui	x8,0xd9bd1	  x8=0xd9bd1000
       11735000	      1172	80001cc0	014afb33	and	x22,x21,x20	 x21:0xffffffff x20:0xfffffff7 x22=0xfffffff7
       11745000	      1173	80001cc4	ff860613	addi	x12,x12,-8	 x12:0xfffffffa x12=0xfffffff2
       11755000	      1174	80001cc8	ffa61ae3	bne	x12,x26,80001cbc	 x12:0xfffffff2 x26:0xfffffff2
       11765000	      1175	80001ccc	fd380ce3	beq	x16,x19,80001ca4	 x16:0xfffffff7 x19:0xfffffff7
       11775000	      1176	00000000	00000013	addi	x0,x0,0	  x0:0x00000000
       11785000	      1177	80001ca0	00000013	addi	x0,x0,0	  x0:0x00000000
       11795000	      1178	80001ca4	1752a393	slti	x7,x5,373	  x5:0x00004000  x7=0x00000000
       11805000	      1179	80001ca8	ffc80813	addi	x16,x16,-4	 x16:0xfffffff7 x16=0xfffffff3
       11815000	      1180	80001cac	ffa00613	addi	x12,x0,-6	  x0:0x00000000 x12=0xfffffffa
       11825000	      1181	80001cb0	00610ab3	add	x21,x2,x6	  x2:0xffffffff  x6:0x00000000 x21=0xffffffff
       11835000	      1182	80001cb4	017cbfb3	sltu	x31,x25,x23	 x25:0x00004000 x23:0x00000010 x31=0x00000000
       11845000	      1183	80001cb8	ff200d13	addi	x26,x0,-14	  x0:0x00000000 x26=0xfffffff2
       11855000	      1184	80001cbc	d9bd1437	lui	x8,0xd9bd1	  x8=0xd9bd1000
       11865000	      1185	80001cc0	014afb33	and	x22,x21,x20	 x21:0xffffffff x20:0xfffffff7 x22=0xfffffff7
       11875000	      1186	80001cc4	ff860613	addi	x12,x12,-8	 x12:0xfffffffa x12=0xfffffff2
       11885000	      1187	80001cc8	ffa61ae3	bne	x12,x26,80001cbc	 x12:0xfffffff2 x26:0xfffffff2
       11895000	      1188	80001ccc	fd380ce3	beq	x16,x19,80001ca4	 x16:0xfffffff3 x19:0xfffffff7
       11905000	      1189	80001cd0	01604f33	xor	x30,x0,x22	  x0:0x00000000 x22:0xfffffff7 x30=0xfffffff7
       11915000	      1190	80001cd4	00a00293	addi	x5,x0,10	  x0:0x00000000  x5=0x0000000a
       11925000	      1191	80001cd8	003bf0b3	and	x1,x23,x3	 x23:0x00000010  x3:0x0000000f  x1=0x00000000
       11935000	      1192	80001cdc	005ba7b3	slt	x15,x23,x5	 x23:0x00000010  x5:0x0000000a x15=0x00000000
       11945000	      1193	80001ce0	00600413	addi	x8,x0,6	  x0:0x00000000  x8=0x00000006
       11955000	      1194	80001ce4	40e5d833	sra	x16,x11,x14	 x11:0x80000000 x14:0xffffffff x16=0xffffffff
       11965000	      1195	80001ce8	e626f793	andi	x15,x13,-414	 x13:0x00000001 x15=0x00000000
       11975000	      1196	80001cec	00000013	addi	x0,x0,0	  x0:0x00000000
       11985000	      1197	80001cf0	00b2e133	or	x2,x5,x11	  x5:0x0000000a x11:0x80000000  x2=0x8000000a
       11995000	      1198	80001cf4	ffb28293	addi	x5,x5,-5	  x5:0x0000000a  x5=0x00000005
       12005000	      1199	80001cf8	008ce733	or	x14,x25,x8	 x25:0x00004000  x8:0x00000006 x14=0x00004006
       12015000	      1200	80001cfc	0164c933	xor	x18,x9,x22	  x9:0x00000001 x22:0xfffffff7 x18=0xfffffff6
       12025000	      1201	80001d00	91b94117	auipc	x2,0x91b94	  x2=0x11b95cfc
       12035000	      1202	80001d04	28f8e797	auipc	x15,0x28f8e	 x15=0xa8f8fd00
       12045000	      1203	80001d08	fe82f2e3	bgeu	x5,x8,80001cec	  x5:0x00000005  x8:0x00000006
       12055000	      1204	80001d0c	2826a913	slti	x18,x13,642	 x13:0x00000001 x18=0x00000001
       12065000	      1205	80001d10	00500113	addi	x2,x0,5	  x0:0x00000000  x2=0x00000005
       12075000	      1206	80001d14	00de1593	slli	x11,x28,0xd	 x28:0x00000000 x11=0x00000000
       12085000	      1207	80001d18	5637e297	auipc	x5,0x5637e	  x5=0xd637fd14
       12095000	      1208	80001d1c	3a48c193	xori	x3,x17,932	 x17:0x00000000  x3=0x000003a4
       12105000	      1209	80001d20	01027633	and	x12,x4,x16	  x4:0x80009fc4 x16:0xffffffff x12=0x80009fc4
       12115000	      1210	80001d24	009d17b3	sll	x15,x26,x9	 x26:0xfffffff2  x9:0x00000001 x15=0xffffffe4
       12125000	      1211	80001d28	001eb333	sltu	x6,x29,x1	 x29:0x80009f60  x1:0x00000000  x6=0x00000000
       12135000	      1212	80001d2c	00000013	addi	x0,x0,0	  x0:0x00000000
       12145000	      1213	80001d30	8f105ab7	lui	x21,0x8f105	 x21=0x8f105000
       12155000	      1214	80001d34	0032e6b3	or	x13,x5,x3	  x5:0xd637fd14  x3:0x000003a4 x13=0xd637ffb4
       12165000	      1215	80001d38	007fd7b3	srl	x15,x31,x7	 x31:0x00000000  x7:0x00000000 x15=0x00000000
       12175000	      1216	80001d3c	00f00b13	addi	x22,x0,15	  x0:0x00000000 x22=0x0000000f
       12185000	      1217	80001d40	00489533	sll	x10,x17,x4	 x17:0x00000000  x4:0x80009fc4 x10=0x00000000
       12195000	      1218	80001d44	40edd513	srai	x10,x27,0xe	 x27:0xfffffff7 x10=0xffffffff
       12205000	      1219	80001d48	014f7833	and	x16,x30,x20	 x30:0xfffffff7 x20:0xfffffff7 x16=0xfffffff7
       12215000	      1220	80001d4c	40e1dc93	srai	x25,x3,0xe	  x3:0x000003a4 x25=0x00000000
       12225000	      1221	80001d50	00c96633	or	x12,x18,x12	 x18:0x00000001 x12:0x80009fc4 x12=0x80009fc5
       12235000	      1222	80001d54	000ff3b3	and	x7,x31,x0	 x31:0x00000000  x0:0x00000000  x7=0x00000000
       12245000	      1223	80001d58	00810113	addi	x2,x2,8	  x2:0x00000005  x2=0x0000000d
       12255000	      1224	80001d5c	00f0d033	srl	x0,x1,x15	  x1:0x00000000 x15:0x00000000
       12265000	      1225	80001d60	86670513	addi	x10,x14,-1946	 x14:0x00004006 x10=0x0000386c
       12275000	      1226	80001d64	ff6162e3	bltu	x2,x22,80001d48	  x2:0x0000000d x22:0x0000000f
       12285000	      1227	00000000	00000013	addi	x0,x0,0	  x0:0x00000000
       12295000	      1228	80001d44	00000013	addi	x0,x0,0	  x0:0x00000000
       12305000	      1229	80001d48	014f7833	and	x16,x30,x20	 x30:0xfffffff7 x20:0xfffffff7 x16=0xfffffff7
       12315000	      1230	80001d4c	40e1dc93	srai	x25,x3,0xe	  x3:0x000003a4 x25=0x00000000
       12325000	      1231	80001d50	00c96633	or	x12,x18,x12	 x18:0x00000001 x12:0x80009fc5 x12=0x80009fc5
       12335000	      1232	80001d54	000ff3b3	and	x7,x31,x0	 x31:0x00000000  x0:0x00000000  x7=0x00000000
       12345000	      1233	80001d58	00810113	addi	x2,x2,8	  x2:0x0000000d  x2=0x00000015
       12355000	      1234	80001d5c	00f0d033	srl	x0,x1,x15	  x1:0x00000000 x15:0x00000000
       12365000	      1235	80001d60	86670513	addi	x10,x14,-1946	 x14:0x00004006 x10=0x0000386c
       12375000	      1236	80001d64	ff6162e3	bltu	x2,x22,80001d48	  x2:0x00000015 x22:0x0000000f
       12385000	      1237	80001d68	00a65893	srli	x17,x12,0xa	 x12:0x80009fc5 x17=0x00200027
       12395000	      1238	80001d6c	00700d93	addi	x27,x0,7	  x0:0x00000000 x27=0x00000007
       12405000	      1239	80001d70	00d00313	addi	x6,x0,13	  x0:0x00000000  x6=0x0000000d
       12415000	      1240	80001d74	307b3093	sltiu	x1,x22,775	 x22:0x0000000f  x1=0x00000001
       12425000	      1241	80001d78	002d8d93	addi	x27,x27,2	 x27:0x00000007 x27=0x00000009
       12435000	      1242	80001d7c	00a00893	addi	x17,x0,10	  x0:0x00000000 x17=0x0000000a
       12445000	      1243	80001d80	00a00a93	addi	x21,x0,10	  x0:0x00000000 x21=0x0000000a
       12455000	      1244	80001d84	005649b3	xor	x19,x12,x5	 x12:0x80009fc5  x5:0xd637fd14 x19=0x563762d1
       12465000	      1245	80001d88	ff788893	addi	x17,x17,-9	 x17:0x0000000a x17=0x00000001
       12475000	      1246	80001d8c	ff58fce3	bgeu	x17,x21,80001d84	 x17:0x00000001 x21:0x0000000a
       12485000	      1247	80001d90	fe6dc2e3	blt	x27,x6,80001d74	 x27:0x00000009  x6:0x0000000d
       12495000	      1248	00000000	00000013	addi	x0,x0,0	  x0:0x00000000
       12505000	      1249	80001d70	00000013	addi	x0,x0,0	  x0:0x00000000
       12515000	      1250	80001d74	307b3093	sltiu	x1,x22,775	 x22:0x0000000f  x1=0x00000001
       12525000	      1251	80001d78	002d8d93	addi	x27,x27,2	 x27:0x00000009 x27=0x0000000b
       12535000	      1252	80001d7c	00a00893	addi	x17,x0,10	  x0:0x00000000 x17=0x0000000a
       12545000	      1253	80001d80	00a00a93	addi	x21,x0,10	  x0:0x00000000 x21=0x0000000a
       12555000	      1254	80001d84	005649b3	xor	x19,x12,x5	 x12:0x80009fc5  x5:0xd637fd14 x19=0x563762d1
       12565000	      1255	80001d88	ff788893	addi	x17,x17,-9	 x17:0x0000000a x17=0x00000001
       12575000	      1256	80001d8c	ff58fce3	bgeu	x17,x21,80001d84	 x17:0x00000001 x21:0x0000000a
       12585000	      1257	80001d90	fe6dc2e3	blt	x27,x6,80001d74	 x27:0x0000000b  x6:0x0000000d
       12595000	      1258	00000000	00000013	addi	x0,x0,0	  x0:0x00000000
       12605000	      1259	80001d70	00000013	addi	x0,x0,0	  x0:0x00000000
       12615000	      1260	80001d74	307b3093	sltiu	x1,x22,775	 x22:0x0000000f  x1=0x00000001
       12625000	      1261	80001d78	002d8d93	addi	x27,x27,2	 x27:0x0000000b x27=0x0000000d
       12635000	      1262	80001d7c	00a00893	addi	x17,x0,10	  x0:0x00000000 x17=0x0000000a
       12645000	      1263	80001d80	00a00a93	addi	x21,x0,10	  x0:0x00000000 x21=0x0000000a
       12655000	      1264	80001d84	005649b3	xor	x19,x12,x5	 x12:0x80009fc5  x5:0xd637fd14 x19=0x563762d1
       12665000	      1265	80001d88	ff788893	addi	x17,x17,-9	 x17:0x0000000a x17=0x00000001
       12675000	      1266	80001d8c	ff58fce3	bgeu	x17,x21,80001d84	 x17:0x00000001 x21:0x0000000a
       12685000	      1267	80001d90	fe6dc2e3	blt	x27,x6,80001d74	 x27:0x0000000d  x6:0x0000000d
       12695000	      1268	80001d94	0305c113	xori	x2,x11,48	 x11:0x00000000  x2=0x00000030
       12705000	      1269	80001d98	00100e13	addi	x28,x0,1	  x0:0x00000000 x28=0x00000001
       12715000	      1270	80001d9c	011682b3	add	x5,x13,x17	 x13:0xd637ffb4 x17:0x00000001  x5=0xd637ffb5
       12725000	      1271	80001da0	c3e24a93	xori	x21,x4,-962	  x4:0x80009fc4 x21=0x7fff63fa
       12735000	      1272	80001da4	ff400413	addi	x8,x0,-12	  x0:0x00000000  x8=0xfffffff4
       12745000	      1273	80001da8	91f94313	xori	x6,x18,-1761	 x18:0x00000001  x6=0xfffff91e
       12755000	      1274	80001dac	01963cb3	sltu	x25,x12,x25	 x12:0x80009fc5 x25:0x00000000 x25=0x00000000
       12765000	      1275	80001db0	ffce0e13	addi	x28,x28,-4	 x28:0x00000001 x28=0xfffffffd
       12775000	      1276	80001db4	007262b3	or	x5,x4,x7	  x4:0x80009fc4  x7:0x00000000  x5=0x80009fc4
       12785000	      1277	80001db8	00900513	addi	x10,x0,9	  x0:0x00000000 x10=0x00000009
       12795000	      1278	80001dbc	00700393	addi	x7,x0,7	  x0:0x00000000  x7=0x00000007
       12805000	      1279	80001dc0	00e48633	add	x12,x9,x14	  x9:0x00000001 x14:0x00004006 x12=0x00004007
       12815000	      1280	80001dc4	6cf6cb17	auipc	x22,0x6cf6c	 x22=0xecf6ddc0
       12825000	      1281	80001dc8	fff50513	addi	x10,x10,-1	 x10:0x00000009 x10=0x00000008
       12835000	      1282	80001dcc	fe757ce3	bgeu	x10,x7,80001dc4	 x10:0x00000008  x7:0x00000007
       12845000	      1283	00000000	00000013	addi	x0,x0,0	  x0:0x00000000
       12855000	      1284	80001dc0	00000013	addi	x0,x0,0	  x0:0x00000000
       12865000	      1285	80001dc4	6cf6cb17	auipc	x22,0x6cf6c	 x22=0xecf6ddc0
       12875000	      1286	80001dc8	fff50513	addi	x10,x10,-1	 x10:0x00000008 x10=0x00000007
       12885000	      1287	80001dcc	fe757ce3	bgeu	x10,x7,80001dc4	 x10:0x00000007  x7:0x00000007
       12895000	      1288	00000000	00000013	addi	x0,x0,0	  x0:0x00000000
       12905000	      1289	80001dc0	00000013	addi	x0,x0,0	  x0:0x00000000
       12915000	      1290	80001dc4	6cf6cb17	auipc	x22,0x6cf6c	 x22=0xecf6ddc0
       12925000	      1291	80001dc8	fff50513	addi	x10,x10,-1	 x10:0x00000007 x10=0x00000006
       12935000	      1292	80001dcc	fe757ce3	bgeu	x10,x7,80001dc4	 x10:0x00000006  x7:0x00000007
       12945000	      1293	80001dd0	015ad593	srli	x11,x21,0x15	 x21:0x7fff63fa x11=0x000003ff
       12955000	      1294	80001dd4	f6774c93	xori	x25,x14,-153	 x14:0x00004006 x25=0xffffbf61
       12965000	      1295	80001dd8	fc8e58e3	bge	x28,x8,80001da8	 x28:0xfffffffd  x8:0xfffffff4
       12975000	      1296	00000000	00000013	addi	x0,x0,0	  x0:0x00000000
       12985000	      1297	80001da4	00000013	addi	x0,x0,0	  x0:0x00000000
       12995000	      1298	80001da8	91f94313	xori	x6,x18,-1761	 x18:0x00000001  x6=0xfffff91e
       13005000	      1299	80001dac	01963cb3	sltu	x25,x12,x25	 x12:0x00004007 x25:0xffffbf61 x25=0x00000001
       13015000	      1300	80001db0	ffce0e13	addi	x28,x28,-4	 x28:0xfffffffd x28=0xfffffff9
       13025000	      1301	80001db4	007262b3	or	x5,x4,x7	  x4:0x80009fc4  x7:0x00000007  x5=0x80009fc7
       13035000	      1302	80001db8	00900513	addi	x10,x0,9	  x0:0x00000000 x10=0x00000009
       13045000	      1303	80001dbc	00700393	addi	x7,x0,7	  x0:0x00000000  x7=0x00000007
       13055000	      1304	80001dc0	00e48633	add	x12,x9,x14	  x9:0x00000001 x14:0x00004006 x12=0x00004007
       13065000	      1305	80001dc4	6cf6cb17	auipc	x22,0x6cf6c	 x22=0xecf6ddc0
       13075000	      1306	80001dc8	fff50513	addi	x10,x10,-1	 x10:0x00000009 x10=0x00000008
       13085000	      1307	80001dcc	fe757ce3	bgeu	x10,x7,80001dc4	 x10:0x00000008  x7:0x00000007
       13095000	      1308	00000000	00000013	addi	x0,x0,0	  x0:0x00000000
       13105000	      1309	80001dc0	00000013	addi	x0,x0,0	  x0:0x00000000
       13115000	      1310	80001dc4	6cf6cb17	auipc	x22,0x6cf6c	 x22=0xecf6ddc0
       13125000	      1311	80001dc8	fff50513	addi	x10,x10,-1	 x10:0x00000008 x10=0x00000007
       13135000	      1312	80001dcc	fe757ce3	bgeu	x10,x7,80001dc4	 x10:0x00000007  x7:0x00000007
       13145000	      1313	00000000	00000013	addi	x0,x0,0	  x0:0x00000000
       13155000	      1314	80001dc0	00000013	addi	x0,x0,0	  x0:0x00000000
       13165000	      1315	80001dc4	6cf6cb17	auipc	x22,0x6cf6c	 x22=0xecf6ddc0
       13175000	      1316	80001dc8	fff50513	addi	x10,x10,-1	 x10:0x00000007 x10=0x00000006
       13185000	      1317	80001dcc	fe757ce3	bgeu	x10,x7,80001dc4	 x10:0x00000006  x7:0x00000007
       13195000	      1318	80001dd0	015ad593	srli	x11,x21,0x15	 x21:0x7fff63fa x11=0x000003ff
       13205000	      1319	80001dd4	f6774c93	xori	x25,x14,-153	 x14:0x00004006 x25=0xffffbf61
       13215000	      1320	80001dd8	fc8e58e3	bge	x28,x8,80001da8	 x28:0xfffffff9  x8:0xfffffff4
       13225000	      1321	00000000	00000013	addi	x0,x0,0	  x0:0x00000000
       13235000	      1322	80001da4	00000013	addi	x0,x0,0	  x0:0x00000000
       13245000	      1323	80001da8	91f94313	xori	x6,x18,-1761	 x18:0x00000001  x6=0xfffff91e
       13255000	      1324	80001dac	01963cb3	sltu	x25,x12,x25	 x12:0x00004007 x25:0xffffbf61 x25=0x00000001
       13265000	      1325	80001db0	ffce0e13	addi	x28,x28,-4	 x28:0xfffffff9 x28=0xfffffff5
       13275000	      1326	80001db4	007262b3	or	x5,x4,x7	  x4:0x80009fc4  x7:0x00000007  x5=0x80009fc7
       13285000	      1327	80001db8	00900513	addi	x10,x0,9	  x0:0x00000000 x10=0x00000009
       13295000	      1328	80001dbc	00700393	addi	x7,x0,7	  x0:0x00000000  x7=0x00000007
       13305000	      1329	80001dc0	00e48633	add	x12,x9,x14	  x9:0x00000001 x14:0x00004006 x12=0x00004007
       13315000	      1330	80001dc4	6cf6cb17	auipc	x22,0x6cf6c	 x22=0xecf6ddc0
       13325000	      1331	80001dc8	fff50513	addi	x10,x10,-1	 x10:0x00000009 x10=0x00000008
       13335000	      1332	80001dcc	fe757ce3	bgeu	x10,x7,80001dc4	 x10:0x00000008  x7:0x00000007
       13345000	      1333	00000000	00000013	addi	x0,x0,0	  x0:0x00000000
       13355000	      1334	80001dc0	00000013	addi	x0,x0,0	  x0:0x00000000
       13365000	      1335	80001dc4	6cf6cb17	auipc	x22,0x6cf6c	 x22=0xecf6ddc0
       13375000	      1336	80001dc8	fff50513	addi	x10,x10,-1	 x10:0x00000008 x10=0x00000007
       13385000	      1337	80001dcc	fe757ce3	bgeu	x10,x7,80001dc4	 x10:0x00000007  x7:0x00000007
       13395000	      1338	00000000	00000013	addi	x0,x0,0	  x0:0x00000000
       13405000	      1339	80001dc0	00000013	addi	x0,x0,0	  x0:0x00000000
       13415000	      1340	80001dc4	6cf6cb17	auipc	x22,0x6cf6c	 x22=0xecf6ddc0
       13425000	      1341	80001dc8	fff50513	addi	x10,x10,-1	 x10:0x00000007 x10=0x00000006
       13435000	      1342	80001dcc	fe757ce3	bgeu	x10,x7,80001dc4	 x10:0x00000006  x7:0x00000007
       13445000	      1343	80001dd0	015ad593	srli	x11,x21,0x15	 x21:0x7fff63fa x11=0x000003ff
       13455000	      1344	80001dd4	f6774c93	xori	x25,x14,-153	 x14:0x00004006 x25=0xffffbf61
       13465000	      1345	80001dd8	fc8e58e3	bge	x28,x8,80001da8	 x28:0xfffffff5  x8:0xfffffff4
       13475000	      1346	00000000	00000013	addi	x0,x0,0	  x0:0x00000000
       13485000	      1347	80001da4	00000013	addi	x0,x0,0	  x0:0x00000000
       13495000	      1348	80001da8	91f94313	xori	x6,x18,-1761	 x18:0x00000001  x6=0xfffff91e
       13505000	      1349	80001dac	01963cb3	sltu	x25,x12,x25	 x12:0x00004007 x25:0xffffbf61 x25=0x00000001
       13515000	      1350	80001db0	ffce0e13	addi	x28,x28,-4	 x28:0xfffffff5 x28=0xfffffff1
       13525000	      1351	80001db4	007262b3	or	x5,x4,x7	  x4:0x80009fc4  x7:0x00000007  x5=0x80009fc7
       13535000	      1352	80001db8	00900513	addi	x10,x0,9	  x0:0x00000000 x10=0x00000009
       13545000	      1353	80001dbc	00700393	addi	x7,x0,7	  x0:0x00000000  x7=0x00000007
       13555000	      1354	80001dc0	00e48633	add	x12,x9,x14	  x9:0x00000001 x14:0x00004006 x12=0x00004007
       13565000	      1355	80001dc4	6cf6cb17	auipc	x22,0x6cf6c	 x22=0xecf6ddc0
       13575000	      1356	80001dc8	fff50513	addi	x10,x10,-1	 x10:0x00000009 x10=0x00000008
       13585000	      1357	80001dcc	fe757ce3	bgeu	x10,x7,80001dc4	 x10:0x00000008  x7:0x00000007
       13595000	      1358	00000000	00000013	addi	x0,x0,0	  x0:0x00000000
       13605000	      1359	80001dc0	00000013	addi	x0,x0,0	  x0:0x00000000
       13615000	      1360	80001dc4	6cf6cb17	auipc	x22,0x6cf6c	 x22=0xecf6ddc0
       13625000	      1361	80001dc8	fff50513	addi	x10,x10,-1	 x10:0x00000008 x10=0x00000007
       13635000	      1362	80001dcc	fe757ce3	bgeu	x10,x7,80001dc4	 x10:0x00000007  x7:0x00000007
       13645000	      1363	00000000	00000013	addi	x0,x0,0	  x0:0x00000000
       13655000	      1364	80001dc0	00000013	addi	x0,x0,0	  x0:0x00000000
       13665000	      1365	80001dc4	6cf6cb17	auipc	x22,0x6cf6c	 x22=0xecf6ddc0
       13675000	      1366	80001dc8	fff50513	addi	x10,x10,-1	 x10:0x00000007 x10=0x00000006
       13685000	      1367	80001dcc	fe757ce3	bgeu	x10,x7,80001dc4	 x10:0x00000006  x7:0x00000007
       13695000	      1368	80001dd0	015ad593	srli	x11,x21,0x15	 x21:0x7fff63fa x11=0x000003ff
       13705000	      1369	80001dd4	f6774c93	xori	x25,x14,-153	 x14:0x00004006 x25=0xffffbf61
       13715000	      1370	80001dd8	fc8e58e3	bge	x28,x8,80001da8	 x28:0xfffffff1  x8:0xfffffff4
       13725000	      1371	80001ddc	00e32333	slt	x6,x6,x14	  x6:0xfffff91e x14:0x00004006  x6=0x00000001
       13735000	      1372	80001de0	ff700813	addi	x16,x0,-9	  x0:0x00000000 x16=0xfffffff7
       13745000	      1373	80001de4	4192d3b3	sra	x7,x5,x25	  x5:0x80009fc7 x25:0xffffbf61  x7=0xc0004fe3
       13755000	      1374	80001de8	00900d13	addi	x26,x0,9	  x0:0x00000000 x26=0x00000009
       13765000	      1375	80001dec	01d3c2b3	xor	x5,x7,x29	  x7:0xc0004fe3 x29:0x80009f60  x5=0x4000d083
       13775000	      1376	80001df0	9d354313	xori	x6,x10,-1581	 x10:0x00000006  x6=0xfffff9d5
       13785000	      1377	80001df4	00280813	addi	x16,x16,2	 x16:0xfffffff7 x16=0xfffffff9
       13795000	      1378	80001df8	ffa81ae3	bne	x16,x26,80001dec	 x16:0xfffffff9 x26:0x00000009
       13805000	      1379	00000000	00000013	addi	x0,x0,0	  x0:0x00000000
       13815000	      1380	80001de8	00000013	addi	x0,x0,0	  x0:0x00000000
       13825000	      1381	80001dec	01d3c2b3	xor	x5,x7,x29	  x7:0xc0004fe3 x29:0x80009f60  x5=0x4000d083
       13835000	      1382	80001df0	9d354313	xori	x6,x10,-1581	 x10:0x00000006  x6=0xfffff9d5
       13845000	      1383	80001df4	00280813	addi	x16,x16,2	 x16:0xfffffff9 x16=0xfffffffb
       13855000	      1384	80001df8	ffa81ae3	bne	x16,x26,80001dec	 x16:0xfffffffb x26:0x00000009
       13865000	      1385	00000000	00000013	addi	x0,x0,0	  x0:0x00000000
       13875000	      1386	80001de8	00000013	addi	x0,x0,0	  x0:0x00000000
       13885000	      1387	80001dec	01d3c2b3	xor	x5,x7,x29	  x7:0xc0004fe3 x29:0x80009f60  x5=0x4000d083
       13895000	      1388	80001df0	9d354313	xori	x6,x10,-1581	 x10:0x00000006  x6=0xfffff9d5
       13905000	      1389	80001df4	00280813	addi	x16,x16,2	 x16:0xfffffffb x16=0xfffffffd
       13915000	      1390	80001df8	ffa81ae3	bne	x16,x26,80001dec	 x16:0xfffffffd x26:0x00000009
       13925000	      1391	00000000	00000013	addi	x0,x0,0	  x0:0x00000000
       13935000	      1392	80001de8	00000013	addi	x0,x0,0	  x0:0x00000000
       13945000	      1393	80001dec	01d3c2b3	xor	x5,x7,x29	  x7:0xc0004fe3 x29:0x80009f60  x5=0x4000d083
       13955000	      1394	80001df0	9d354313	xori	x6,x10,-1581	 x10:0x00000006  x6=0xfffff9d5
       13965000	      1395	80001df4	00280813	addi	x16,x16,2	 x16:0xfffffffd x16=0xffffffff
       13975000	      1396	80001df8	ffa81ae3	bne	x16,x26,80001dec	 x16:0xffffffff x26:0x00000009
       13985000	      1397	00000000	00000013	addi	x0,x0,0	  x0:0x00000000
       13995000	      1398	80001de8	00000013	addi	x0,x0,0	  x0:0x00000000
       14005000	      1399	80001dec	01d3c2b3	xor	x5,x7,x29	  x7:0xc0004fe3 x29:0x80009f60  x5=0x4000d083
       14015000	      1400	80001df0	9d354313	xori	x6,x10,-1581	 x10:0x00000006  x6=0xfffff9d5
       14025000	      1401	80001df4	00280813	addi	x16,x16,2	 x16:0xffffffff x16=0x00000001
       14035000	      1402	80001df8	ffa81ae3	bne	x16,x26,80001dec	 x16:0x00000001 x26:0x00000009
       14045000	      1403	00000000	00000013	addi	x0,x0,0	  x0:0x00000000
       14055000	      1404	80001de8	00000013	addi	x0,x0,0	  x0:0x00000000
       14065000	      1405	80001dec	01d3c2b3	xor	x5,x7,x29	  x7:0xc0004fe3 x29:0x80009f60  x5=0x4000d083
       14075000	      1406	80001df0	9d354313	xori	x6,x10,-1581	 x10:0x00000006  x6=0xfffff9d5
       14085000	      1407	80001df4	00280813	addi	x16,x16,2	 x16:0x00000001 x16=0x00000003
       14095000	      1408	80001df8	ffa81ae3	bne	x16,x26,80001dec	 x16:0x00000003 x26:0x00000009
       14105000	      1409	00000000	00000013	addi	x0,x0,0	  x0:0x00000000
       14115000	      1410	80001de8	00000013	addi	x0,x0,0	  x0:0x00000000
       14125000	      1411	80001dec	01d3c2b3	xor	x5,x7,x29	  x7:0xc0004fe3 x29:0x80009f60  x5=0x4000d083
       14135000	      1412	80001df0	9d354313	xori	x6,x10,-1581	 x10:0x00000006  x6=0xfffff9d5
       14145000	      1413	80001df4	00280813	addi	x16,x16,2	 x16:0x00000003 x16=0x00000005
       14155000	      1414	80001df8	ffa81ae3	bne	x16,x26,80001dec	 x16:0x00000005 x26:0x00000009
       14165000	      1415	00000000	00000013	addi	x0,x0,0	  x0:0x00000000
       14175000	      1416	80001de8	00000013	addi	x0,x0,0	  x0:0x00000000
       14185000	      1417	80001dec	01d3c2b3	xor	x5,x7,x29	  x7:0xc0004fe3 x29:0x80009f60  x5=0x4000d083
       14195000	      1418	80001df0	9d354313	xori	x6,x10,-1581	 x10:0x00000006  x6=0xfffff9d5
       14205000	      1419	80001df4	00280813	addi	x16,x16,2	 x16:0x00000005 x16=0x00000007
       14215000	      1420	80001df8	ffa81ae3	bne	x16,x26,80001dec	 x16:0x00000007 x26:0x00000009
       14225000	      1421	00000000	00000013	addi	x0,x0,0	  x0:0x00000000
       14235000	      1422	80001de8	00000013	addi	x0,x0,0	  x0:0x00000000
       14245000	      1423	80001dec	01d3c2b3	xor	x5,x7,x29	  x7:0xc0004fe3 x29:0x80009f60  x5=0x4000d083
       14255000	      1424	80001df0	9d354313	xori	x6,x10,-1581	 x10:0x00000006  x6=0xfffff9d5
       14265000	      1425	80001df4	00280813	addi	x16,x16,2	 x16:0x00000007 x16=0x00000009
       14275000	      1426	80001df8	ffa81ae3	bne	x16,x26,80001dec	 x16:0x00000009 x26:0x00000009
       14285000	      1427	80001dfc	02f25e17	auipc	x28,0x2f25	 x28=0x82f26df8
       14295000	      1428	80001e00	00500c93	addi	x25,x0,5	  x0:0x00000000 x25=0x00000005
       14305000	      1429	80001e04	00c71e13	slli	x28,x14,0xc	 x14:0x00004006 x28=0x04006000
       14315000	      1430	80001e08	00400313	addi	x6,x0,4	  x0:0x00000000  x6=0x00000004
       14325000	      1431	80001e0c	00f650b3	srl	x1,x12,x15	 x12:0x00004007 x15:0x00000000  x1=0x00004007
       14335000	      1432	80001e10	015069b3	or	x19,x0,x21	  x0:0x00000000 x21:0x7fff63fa x19=0x7fff63fa
       14345000	      1433	80001e14	57040b93	addi	x23,x8,1392	  x8:0xfffffff4 x23=0x00000564
       14355000	      1434	80001e18	39673a93	sltiu	x21,x14,918	 x14:0x00004006 x21=0x00000000
       14365000	      1435	80001e1c	00000013	addi	x0,x0,0	  x0:0x00000000
       14375000	      1436	80001e20	01288c33	add	x24,x17,x18	 x17:0x00000001 x18:0x00000001 x24=0x00000002
       14385000	      1437	80001e24	0021b6b3	sltu	x13,x3,x2	  x3:0x000003a4  x2:0x00000030 x13=0x00000000
       14395000	      1438	80001e28	0086f933	and	x18,x13,x8	 x13:0x00000000  x8:0xfffffff4 x18=0x00000000
       14405000	      1439	80001e2c	ffdc8c93	addi	x25,x25,-3	 x25:0x00000005 x25=0x00000002
       14415000	      1440	80001e30	00900f93	addi	x31,x0,9	  x0:0x00000000 x31=0x00000009
       14425000	      1441	80001e34	0020d813	srli	x16,x1,0x2	  x1:0x00004007 x16=0x00001001
       14435000	      1442	80001e38	00b8e9b3	or	x19,x17,x11	 x17:0x00000001 x11:0x000003ff x19=0x000003ff
       14445000	      1443	80001e3c	ffd00113	addi	x2,x0,-3	  x0:0x00000000  x2=0xfffffffd
       14455000	      1444	80001e40	00000013	addi	x0,x0,0	  x0:0x00000000
       14465000	      1445	80001e44	1fb47e17	auipc	x28,0x1fb47	 x28=0x9fb48e40
       14475000	      1446	80001e48	ff6f8f93	addi	x31,x31,-10	 x31:0x00000009 x31=0xffffffff
       14485000	      1447	80001e4c	6093fb93	andi	x23,x7,1545	  x7:0xc0004fe3 x23=0x00000601
       14495000	      1448	80001e50	fe2fd8e3	bge	x31,x2,80001e40	 x31:0xffffffff  x2:0xfffffffd
       14505000	      1449	00000000	00000013	addi	x0,x0,0	  x0:0x00000000
       14515000	      1450	80001e3c	00000013	addi	x0,x0,0	  x0:0x00000000
       14525000	      1451	80001e40	00000013	addi	x0,x0,0	  x0:0x00000000
       14535000	      1452	80001e44	1fb47e17	auipc	x28,0x1fb47	 x28=0x9fb48e40
       14545000	      1453	80001e48	ff6f8f93	addi	x31,x31,-10	 x31:0xffffffff x31=0xfffffff5
       14555000	      1454	80001e4c	6093fb93	andi	x23,x7,1545	  x7:0xc0004fe3 x23=0x00000601
       14565000	      1455	80001e50	fe2fd8e3	bge	x31,x2,80001e40	 x31:0xfffffff5  x2:0xfffffffd
       14575000	      1456	80001e54	fc6cfae3	bgeu	x25,x6,80001e28	 x25:0x00000002  x6:0x00000004
       14585000	      1457	80001e58	528a6293	ori	x5,x20,1320	 x20:0xfffffff7  x5=0xffffffff
       14595000	      1458	80001e5c	00200513	addi	x10,x0,2	  x0:0x00000000 x10=0x00000002
       14605000	      1459	80001e60	00413e33	sltu	x28,x2,x4	  x2:0xfffffffd  x4:0x80009fc4 x28=0x00000000
       14615000	      1460	80001e64	002ec833	xor	x16,x29,x2	 x29:0x80009f60  x2:0xfffffffd x16=0x7fff609d
       14625000	      1461	80001e68	10e4e113	ori	x2,x9,270	  x9:0x00000001  x2=0x0000010f
       14635000	      1462	80001e6c	400b5c33	sra	x24,x22,x0	 x22:0xecf6ddc0  x0:0x00000000 x24=0xecf6ddc0
       14645000	      1463	80001e70	00300193	addi	x3,x0,3	  x0:0x00000000  x3=0x00000003
       14655000	      1464	80001e74	d16b9d17	auipc	x26,0xd16b9	 x26=0x516bae70
       14665000	      1465	80001e78	00350513	addi	x10,x10,3	 x10:0x00000002 x10=0x00000005
       14675000	      1466	80001e7c	00c902b3	add	x5,x18,x12	 x18:0x00000000 x12:0x00004007  x5=0x00004007
       14685000	      1467	80001e80	c9eeba13	sltiu	x20,x29,-866	 x29:0x80009f60 x20=0x00000001
       14695000	      1468	80001e84	00d7b2b3	sltu	x5,x15,x13	 x15:0x00000000 x13:0x00000000  x5=0x00000000
       14705000	      1469	80001e88	01f6da33	srl	x20,x13,x31	 x13:0x00000000 x31:0xfffffff5 x20=0x00000000
       14715000	      1470	80001e8c	01c08733	add	x14,x1,x28	  x1:0x00004007 x28:0x00000000 x14=0x00004007
       14725000	      1471	80001e90	41d9d693	srai	x13,x19,0x1d	 x19:0x000003ff x13=0x00000000
       14735000	      1472	80001e94	4c960813	addi	x16,x12,1225	 x12:0x00004007 x16=0x000044d0
       14745000	      1473	80001e98	00d21e13	slli	x28,x4,0xd	  x4:0x80009fc4 x28=0x13f88000
       14755000	      1474	80001e9c	fc354ce3	blt	x10,x3,80001e74	 x10:0x00000005  x3:0x00000003
       14765000	      1475	80001ea0	7bdf7393	andi	x7,x30,1981	 x30:0xfffffff7  x7=0x000007b5
       14775000	      1476	80001ea4	00000093	addi	x1,x0,0	  x0:0x00000000  x1=0x00000000
       14785000	      1477	80001ea8	018879b3	and	x19,x16,x24	 x16:0x000044d0 x24:0xecf6ddc0 x19=0x000044c0
       14795000	      1478	80001eac	01200d93	addi	x27,x0,18	  x0:0x00000000 x27=0x00000012
       14805000	      1479	80001eb0	000909b3	add	x19,x18,x0	 x18:0x00000000  x0:0x00000000 x19=0x00000000
       14815000	      1480	80001eb4	40ce86b3	sub	x13,x29,x12	 x29:0x80009f60 x12:0x00004007 x13=0x80005f59
       14825000	      1481	80001eb8	00908093	addi	x1,x1,9	  x1:0x00000000  x1=0x00000009
       14835000	      1482	80001ebc	ffb0cae3	blt	x1,x27,80001eb0	  x1:0x00000009 x27:0x00000012
       14845000	      1483	00000000	00000013	addi	x0,x0,0	  x0:0x00000000
       14855000	      1484	80001eac	00000013	addi	x0,x0,0	  x0:0x00000000
       14865000	      1485	80001eb0	000909b3	add	x19,x18,x0	 x18:0x00000000  x0:0x00000000 x19=0x00000000
       14875000	      1486	80001eb4	40ce86b3	sub	x13,x29,x12	 x29:0x80009f60 x12:0x00004007 x13=0x80005f59
       14885000	      1487	80001eb8	00908093	addi	x1,x1,9	  x1:0x00000009  x1=0x00000012
       14895000	      1488	80001ebc	ffb0cae3	blt	x1,x27,80001eb0	  x1:0x00000012 x27:0x00000012
       14905000	      1489	80001ec0	013f7733	and	x14,x30,x19	 x30:0xfffffff7 x19:0x00000000 x14=0x00000000
       14915000	      1490	80001ec4	ff800893	addi	x17,x0,-8	  x0:0x00000000 x17=0xfffffff8
       14925000	      1491	80001ec8	0006fb33	and	x22,x13,x0	 x13:0x80005f59  x0:0x00000000 x22=0x00000000
       14935000	      1492	80001ecc	0103d1b3	srl	x3,x7,x16	  x7:0x000007b5 x16:0x000044d0  x3=0x00000000
       14945000	      1493	80001ed0	35acc293	xori	x5,x25,858	 x25:0x00000002  x5=0x00000358
       14955000	      1494	80001ed4	41eb5313	srai	x6,x22,0x1e	 x22:0x00000000  x6=0x00000000
       14965000	      1495	80001ed8	1ae307b7	lui	x15,0x1ae30	 x15=0x1ae30000
       14975000	      1496	80001edc	0094e2b3	or	x5,x9,x9	  x9:0x00000001  x9:0x00000001  x5=0x00000001
       14985000	      1497	80001ee0	0109db93	srli	x23,x19,0x10	 x19:0x00000000 x23=0x00000000
       14995000	      1498	80001ee4	4be2a413	slti	x8,x5,1214	  x5:0x00000001  x8=0x00000001
       15005000	      1499	80001ee8	00bed093	srli	x1,x29,0xb	 x29:0x80009f60  x1=0x00100013
       15015000	      1500	80001eec	f991f917	auipc	x18,0xf991f	 x18=0x79920ee8
       15025000	      1501	80001ef0	00605f33	srl	x30,x0,x6	  x0:0x00000000  x6:0x00000000 x30=0x00000000
       15035000	      1502	80001ef4	ff000d93	addi	x27,x0,-16	  x0:0x00000000 x27=0xfffffff0
       15045000	      1503	80001ef8	00c55533	srl	x10,x10,x12	 x10:0x00000005 x12:0x00004007 x10=0x00000000
       15055000	      1504	80001efc	01693833	sltu	x16,x18,x22	 x18:0x79920ee8 x22:0x00000000 x16=0x00000000
       15065000	      1505	80001f00	5a3a3717	auipc	x14,0x5a3a3	 x14=0xda3a4efc
       15075000	      1506	80001f04	884ce813	ori	x16,x25,-1916	 x25:0x00000002 x16=0xfffff886
       15085000	      1507	80001f08	00eb5a13	srli	x20,x22,0xe	 x22:0x00000000 x20=0x00000000
       15095000	      1508	80001f0c	51fe4c13	xori	x24,x28,1311	 x28:0x13f88000 x24=0x13f8851f
       15105000	      1509	80001f10	55a2fa13	andi	x20,x5,1370	  x5:0x00000001 x20=0x00000000
       15115000	      1510	80001f14	1756bf13	sltiu	x30,x13,373	 x13:0x80005f59 x30=0x00000000
       15125000	      1511	80001f18	ff888893	addi	x17,x17,-8	 x17:0xfffffff8 x17=0xfffffff0
       15135000	      1512	80001f1c	00c50333	add	x6,x10,x12	 x10:0x00000000 x12:0x00004007  x6=0x00004007
       15145000	      1513	80001f20	00d6dc33	srl	x24,x13,x13	 x13:0x80005f59 x13:0x80005f59 x24=0x00000040
       15155000	      1514	80001f24	01b60133	add	x2,x12,x27	 x12:0x00004007 x27:0xfffffff0  x2=0x00003ff7
       15165000	      1515	80001f28	005347b3	xor	x15,x6,x5	  x6:0x00004007  x5:0x00000001 x15=0x00004006
       15175000	      1516	80001f2c	01d0aa33	slt	x20,x1,x29	  x1:0x00100013 x29:0x80009f60 x20=0x00000000
       15185000	      1517	80001f30	01781b93	slli	x23,x16,0x17	 x16:0xfffff886 x23=0x43000000
       15195000	      1518	80001f34	fdb884e3	beq	x17,x27,80001efc	 x17:0xfffffff0 x27:0xfffffff0
       15205000	      1519	00000000	00000013	addi	x0,x0,0	  x0:0x00000000
       15215000	      1520	80001ef8	00000013	addi	x0,x0,0	  x0:0x00000000
       15225000	      1521	80001efc	01693833	sltu	x16,x18,x22	 x18:0x79920ee8 x22:0x00000000 x16=0x00000000
       15235000	      1522	80001f00	5a3a3717	auipc	x14,0x5a3a3	 x14=0xda3a4efc
       15245000	      1523	80001f04	884ce813	ori	x16,x25,-1916	 x25:0x00000002 x16=0xfffff886
       15255000	      1524	80001f08	00eb5a13	srli	x20,x22,0xe	 x22:0x00000000 x20=0x00000000
       15265000	      1525	80001f0c	51fe4c13	xori	x24,x28,1311	 x28:0x13f88000 x24=0x13f8851f
       15275000	      1526	80001f10	55a2fa13	andi	x20,x5,1370	  x5:0x00000001 x20=0x00000000
       15285000	      1527	80001f14	1756bf13	sltiu	x30,x13,373	 x13:0x80005f59 x30=0x00000000
       15295000	      1528	80001f18	ff888893	addi	x17,x17,-8	 x17:0xfffffff0 x17=0xffffffe8
       15305000	      1529	80001f1c	00c50333	add	x6,x10,x12	 x10:0x00000000 x12:0x00004007  x6=0x00004007
       15315000	      1530	80001f20	00d6dc33	srl	x24,x13,x13	 x13:0x80005f59 x13:0x80005f59 x24=0x00000040
       15325000	      1531	80001f24	01b60133	add	x2,x12,x27	 x12:0x00004007 x27:0xfffffff0  x2=0x00003ff7
       15335000	      1532	80001f28	005347b3	xor	x15,x6,x5	  x6:0x00004007  x5:0x00000001 x15=0x00004006
       15345000	      1533	80001f2c	01d0aa33	slt	x20,x1,x29	  x1:0x00100013 x29:0x80009f60 x20=0x00000000
       15355000	      1534	80001f30	01781b93	slli	x23,x16,0x17	 x16:0xfffff886 x23=0x43000000
       15365000	      1535	80001f34	fdb884e3	beq	x17,x27,80001efc	 x17:0xffffffe8 x27:0xfffffff0
       15375000	      1536	80001f38	c3c6e7b7	lui	x15,0xc3c6e	 x15=0xc3c6e000
       15385000	      1537	80001f3c	00800893	addi	x17,x0,8	  x0:0x00000000 x17=0x00000008
       15395000	      1538	80001f40	00a00813	addi	x16,x0,10	  x0:0x00000000 x16=0x0000000a
       15405000	      1539	80001f44	0139e033	or	x0,x19,x19	 x19:0x00000000 x19:0x00000000
       15415000	      1540	80001f48	00a88893	addi	x17,x17,10	 x17:0x00000008 x17=0x00000012
       15425000	      1541	80001f4c	010747b3	xor	x15,x14,x16	 x14:0xda3a4efc x16:0x0000000a x15=0xda3a4ef6
       15435000	      1542	80001f50	8e64e513	ori	x10,x9,-1818	  x9:0x00000001 x10=0xfffff8e7
       15445000	      1543	80001f54	00800313	addi	x6,x0,8	  x0:0x00000000  x6=0x00000008
       15455000	      1544	80001f58	40a95433	sra	x8,x18,x10	 x18:0x79920ee8 x10:0xfffff8e7  x8=0x00f3241d
       15465000	      1545	80001f5c	41380bb3	sub	x23,x16,x19	 x16:0x0000000a x19:0x00000000 x23=0x0000000a
       15475000	      1546	80001f60	ff400a93	addi	x21,x0,-12	  x0:0x00000000 x21=0xfffffff4
       15485000	      1547	80001f64	2e01c913	xori	x18,x3,736	  x3:0x00000000 x18=0x000002e0
       15495000	      1548	80001f68	ffe30313	addi	x6,x6,-2	  x6:0x00000008  x6=0x00000006
       15505000	      1549	80001f6c	ff535ce3	bge	x6,x21,80001f64	  x6:0x00000006 x21:0xfffffff4
       15515000	      1550	00000000	00000013	addi	x0,x0,0	  x0:0x00000000
       15525000	      1551	80001f60	00000013	addi	x0,x0,0	  x0:0x00000000
       15535000	      1552	80001f64	2e01c913	xori	x18,x3,736	  x3:0x00000000 x18=0x000002e0
       15545000	      1553	80001f68	ffe30313	addi	x6,x6,-2	  x6:0x00000006  x6=0x00000004
       15555000	      1554	80001f6c	ff535ce3	bge	x6,x21,80001f64	  x6:0x00000004 x21:0xfffffff4
       15565000	      1555	00000000	00000013	addi	x0,x0,0	  x0:0x00000000
       15575000	      1556	80001f60	00000013	addi	x0,x0,0	  x0:0x00000000
       15585000	      1557	80001f64	2e01c913	xori	x18,x3,736	  x3:0x00000000 x18=0x000002e0
       15595000	      1558	80001f68	ffe30313	addi	x6,x6,-2	  x6:0x00000004  x6=0x00000002
       15605000	      1559	80001f6c	ff535ce3	bge	x6,x21,80001f64	  x6:0x00000002 x21:0xfffffff4
       15615000	      1560	00000000	00000013	addi	x0,x0,0	  x0:0x00000000
       15625000	      1561	80001f60	00000013	addi	x0,x0,0	  x0:0x00000000
       15635000	      1562	80001f64	2e01c913	xori	x18,x3,736	  x3:0x00000000 x18=0x000002e0
       15645000	      1563	80001f68	ffe30313	addi	x6,x6,-2	  x6:0x00000002  x6=0x00000000
       15655000	      1564	80001f6c	ff535ce3	bge	x6,x21,80001f64	  x6:0x00000000 x21:0xfffffff4
       15665000	      1565	00000000	00000013	addi	x0,x0,0	  x0:0x00000000
       15675000	      1566	80001f60	00000013	addi	x0,x0,0	  x0:0x00000000
       15685000	      1567	80001f64	2e01c913	xori	x18,x3,736	  x3:0x00000000 x18=0x000002e0
       15695000	      1568	80001f68	ffe30313	addi	x6,x6,-2	  x6:0x00000000  x6=0xfffffffe
       15705000	      1569	80001f6c	ff535ce3	bge	x6,x21,80001f64	  x6:0xfffffffe x21:0xfffffff4
       15715000	      1570	00000000	00000013	addi	x0,x0,0	  x0:0x00000000
       15725000	      1571	80001f60	00000013	addi	x0,x0,0	  x0:0x00000000
       15735000	      1572	80001f64	2e01c913	xori	x18,x3,736	  x3:0x00000000 x18=0x000002e0
       15745000	      1573	80001f68	ffe30313	addi	x6,x6,-2	  x6:0xfffffffe  x6=0xfffffffc
       15755000	      1574	80001f6c	ff535ce3	bge	x6,x21,80001f64	  x6:0xfffffffc x21:0xfffffff4
       15765000	      1575	00000000	00000013	addi	x0,x0,0	  x0:0x00000000
       15775000	      1576	80001f60	00000013	addi	x0,x0,0	  x0:0x00000000
       15785000	      1577	80001f64	2e01c913	xori	x18,x3,736	  x3:0x00000000 x18=0x000002e0
       15795000	      1578	80001f68	ffe30313	addi	x6,x6,-2	  x6:0xfffffffc  x6=0xfffffffa
       15805000	      1579	80001f6c	ff535ce3	bge	x6,x21,80001f64	  x6:0xfffffffa x21:0xfffffff4
       15815000	      1580	00000000	00000013	addi	x0,x0,0	  x0:0x00000000
       15825000	      1581	80001f60	00000013	addi	x0,x0,0	  x0:0x00000000
       15835000	      1582	80001f64	2e01c913	xori	x18,x3,736	  x3:0x00000000 x18=0x000002e0
       15845000	      1583	80001f68	ffe30313	addi	x6,x6,-2	  x6:0xfffffffa  x6=0xfffffff8
       15855000	      1584	80001f6c	ff535ce3	bge	x6,x21,80001f64	  x6:0xfffffff8 x21:0xfffffff4
       15865000	      1585	00000000	00000013	addi	x0,x0,0	  x0:0x00000000
       15875000	      1586	80001f60	00000013	addi	x0,x0,0	  x0:0x00000000
       15885000	      1587	80001f64	2e01c913	xori	x18,x3,736	  x3:0x00000000 x18=0x000002e0
       15895000	      1588	80001f68	ffe30313	addi	x6,x6,-2	  x6:0xfffffff8  x6=0xfffffff6
       15905000	      1589	80001f6c	ff535ce3	bge	x6,x21,80001f64	  x6:0xfffffff6 x21:0xfffffff4
       15915000	      1590	00000000	00000013	addi	x0,x0,0	  x0:0x00000000
       15925000	      1591	80001f60	00000013	addi	x0,x0,0	  x0:0x00000000
       15935000	      1592	80001f64	2e01c913	xori	x18,x3,736	  x3:0x00000000 x18=0x000002e0
       15945000	      1593	80001f68	ffe30313	addi	x6,x6,-2	  x6:0xfffffff6  x6=0xfffffff4
       15955000	      1594	80001f6c	ff535ce3	bge	x6,x21,80001f64	  x6:0xfffffff4 x21:0xfffffff4
       15965000	      1595	00000000	00000013	addi	x0,x0,0	  x0:0x00000000
       15975000	      1596	80001f60	00000013	addi	x0,x0,0	  x0:0x00000000
       15985000	      1597	80001f64	2e01c913	xori	x18,x3,736	  x3:0x00000000 x18=0x000002e0
       15995000	      1598	80001f68	ffe30313	addi	x6,x6,-2	  x6:0xfffffff4  x6=0xfffffff2
       16005000	      1599	80001f6c	ff535ce3	bge	x6,x21,80001f64	  x6:0xfffffff2 x21:0xfffffff4
       16015000	      1600	80001f70	b28be593	ori	x11,x23,-1240	 x23:0x0000000a x11=0xfffffb2a
       16025000	      1601	80001f74	fd08c8e3	blt	x17,x16,80001f44	 x17:0x00000012 x16:0x0000000a
       16035000	      1602	80001f78	01cde133	or	x2,x27,x28	 x27:0xfffffff0 x28:0x13f88000  x2=0xfffffff0
       16045000	      1603	80001f7c	34b60313	addi	x6,x12,843	 x12:0x00004007  x6=0x00004352
       16055000	      1604	80001f80	414bd0b3	sra	x1,x23,x20	 x23:0x0000000a x20:0x00000000  x1=0x0000000a
       16065000	      1605	80001f84	016dfb33	and	x22,x27,x22	 x27:0xfffffff0 x22:0x00000000 x22=0x00000000
       16075000	      1606	80001f88	de675837	lui	x16,0xde675	 x16=0xde675000
       16085000	      1607	80001f8c	15d87893	andi	x17,x16,349	 x16:0xde675000 x17=0x00000000
       16095000	      1608	80001f90	0473ec13	ori	x24,x7,71	  x7:0x000007b5 x24=0x000007f7
       16105000	      1609	80001f94	04a74663	blt	x14,x10,80001fe0	 x14:0xda3a4efc x10:0xfffff8e7
       16115000	      1610	00000000	00000013	addi	x0,x0,0	  x0:0x00000000
       16125000	      1611	80001fdc	00000013	addi	x0,x0,0	  x0:0x00000000
       16135000	      1612	80001fe0	0194de13	srli	x28,x9,0x19	  x9:0x00000001 x28=0x00000000
       16145000	      1613	80001fe4	41f2dc13	srai	x24,x5,0x1f	  x5:0x00000001 x24=0x00000000
       16155000	      1614	80001fe8	00000013	addi	x0,x0,0	  x0:0x00000000
       16165000	      1615	80001fec	010308b3	add	x17,x6,x16	  x6:0x00004352 x16:0xde675000 x17=0xde679352
       16175000	      1616	80001ff0	41550833	sub	x16,x10,x21	 x10:0xfffff8e7 x21:0xfffffff4 x16=0xfffff8f3
       16185000	      1617	80001ff4	019f9863	bne	x31,x25,80002004	 x31:0xfffffff5 x25:0x00000002
       16195000	      1618	00000000	00000013	addi	x0,x0,0	  x0:0x00000000
       16205000	      1619	80002000	00000013	addi	x0,x0,0	  x0:0x00000000
       16215000	      1620	80002004	41130a33	sub	x20,x6,x17	  x6:0x00004352 x17:0xde679352 x20=0x2198b000
       16225000	      1621	80002008	01d11ab3	sll	x21,x2,x29	  x2:0xfffffff0 x29:0x80009f60 x21=0xfffffff0
       16235000	      1622	8000200c	00bc27b3	slt	x15,x24,x11	 x24:0x00000000 x11:0xfffffb2a x15=0x00000000
       16245000	      1623	80002010	00667033	and	x0,x12,x6	 x12:0x00004007  x6:0x00004352
       16255000	      1624	80002014	e68c6737	lui	x14,0xe68c6	 x14=0xe68c6000
       16265000	      1625	80002018	4010ddb3	sra	x27,x1,x1	  x1:0x0000000a  x1:0x0000000a x27=0x00000000
       16275000	      1626	8000201c	01531193	slli	x3,x6,0x15	  x6:0x00004352  x3=0x6a400000
       16285000	      1627	80002020	02641c63	bne	x8,x6,80002058	  x8:0x00f3241d  x6:0x00004352
       16295000	      1628	00000000	00000013	addi	x0,x0,0	  x0:0x00000000
       16305000	      1629	80002054	00000013	addi	x0,x0,0	  x0:0x00000000
       16315000	      1630	80002058	01109c93	slli	x25,x1,0x11	  x1:0x0000000a x25=0x00140000
       16325000	      1631	8000205c	03e58663	beq	x11,x30,80002088	 x11:0xfffffb2a x30:0x00000000
       16335000	      1632	80002060	00000013	addi	x0,x0,0	  x0:0x00000000
       16345000	      1633	80002064	d96d6413	ori	x8,x26,-618	 x26:0x516bae70  x8=0xfffffff6
       16355000	      1634	80002068	640eff13	andi	x30,x29,1600	 x29:0x80009f60 x30=0x00000640
       16365000	      1635	8000206c	00000013	addi	x0,x0,0	  x0:0x00000000
       16375000	      1636	80002070	0170f863	bgeu	x1,x23,80002080	  x1:0x0000000a x23:0x0000000a
       16385000	      1637	00000000	00000013	addi	x0,x0,0	  x0:0x00000000
       16395000	      1638	8000207c	00000013	addi	x0,x0,0	  x0:0x00000000
       16405000	      1639	80002080	c3858813	addi	x16,x11,-968	 x11:0xfffffb2a x16=0xfffff762
       16415000	      1640	80002084	01ad9db3	sll	x27,x27,x26	 x27:0x00000000 x26:0x516bae70 x27=0x00000000
       16425000	      1641	80002088	01a6d693	srli	x13,x13,0x1a	 x13:0x80005f59 x13=0x00000020
       16435000	      1642	8000208c	04cf1863	bne	x30,x12,800020dc	 x30:0x00000640 x12:0x00004007
       16445000	      1643	00000000	00000013	addi	x0,x0,0	  x0:0x00000000
       16455000	      1644	800020d8	00000013	addi	x0,x0,0	  x0:0x00000000
       16465000	      1645	800020dc	40a0d293	srai	x5,x1,0xa	  x1:0x0000000a  x5=0x00000000
       16475000	      1646	800020e0	01b04d33	xor	x26,x0,x27	  x0:0x00000000 x27:0x00000000 x26=0x00000000
       16485000	      1647	800020e4	51c40713	addi	x14,x8,1308	  x8:0xfffffff6 x14=0x00000512
       16495000	      1648	800020e8	00a6b3b3	sltu	x7,x13,x10	 x13:0x00000020 x10:0xfffff8e7  x7=0x00000001
       16505000	      1649	800020ec	418d0833	sub	x16,x26,x24	 x26:0x00000000 x24:0x00000000 x16=0x00000000
       16515000	      1650	800020f0	02936063	bltu	x6,x9,80002110	  x6:0x00004352  x9:0x00000001
       16525000	      1651	800020f4	00000013	addi	x0,x0,0	  x0:0x00000000
       16535000	      1652	800020f8	01e57333	and	x6,x10,x30	 x10:0xfffff8e7 x30:0x00000640  x6=0x00000040
       16545000	      1653	800020fc	00f89593	slli	x11,x17,0xf	 x17:0xde679352 x11=0xc9a90000
       16555000	      1654	80002100	04338863	beq	x7,x3,80002150	  x7:0x00000001  x3:0x6a400000
       16565000	      1655	80002104	01754133	xor	x2,x10,x23	 x10:0xfffff8e7 x23:0x0000000a  x2=0xfffff8ed
       16575000	      1656	80002108	dde9f813	andi	x16,x19,-546	 x19:0x00000000 x16=0x00000000
       16585000	      1657	8000210c	82dc6797	auipc	x15,0x82dc6	 x15=0x02dc8108
       16595000	      1658	80002110	404f5313	srai	x6,x30,0x4	 x30:0x00000640  x6=0x00000064
       16605000	      1659	80002114	00000013	addi	x0,x0,0	  x0:0x00000000
       16615000	      1660	80002118	023d1c63	bne	x26,x3,80002150	 x26:0x00000000  x3:0x6a400000
       16625000	      1661	00000000	00000013	addi	x0,x0,0	  x0:0x00000000
       16635000	      1662	8000214c	00000013	addi	x0,x0,0	  x0:0x00000000
       16645000	      1663	80002150	3fedec13	ori	x24,x27,1022	 x27:0x00000000 x24=0x000003fe
       16655000	      1664	80002154	d38ae993	ori	x19,x21,-712	 x21:0xfffffff0 x19=0xfffffff8
       16665000	      1665	80002158	04fb8463	beq	x23,x15,800021a0	 x23:0x0000000a x15:0x02dc8108
       16675000	      1666	8000215c	01a84533	xor	x10,x16,x26	 x16:0x00000000 x26:0x00000000 x10=0x00000000
       16685000	      1667	80002160	0154fd33	and	x26,x9,x21	  x9:0x00000001 x21:0xfffffff0 x26=0x00000000
       16695000	      1668	80002164	029f9863	bne	x31,x9,80002194	 x31:0xfffffff5  x9:0x00000001
       16705000	      1669	00000000	00000013	addi	x0,x0,0	  x0:0x00000000
       16715000	      1670	80002190	00000013	addi	x0,x0,0	  x0:0x00000000
       16725000	      1671	80002194	44d7e513	ori	x10,x15,1101	 x15:0x02dc8108 x10=0x02dc854d
       16735000	      1672	80002198	0073b1b3	sltu	x3,x7,x7	  x7:0x00000001  x7:0x00000001  x3=0x00000000
       16745000	      1673	8000219c	03fe0c63	beq	x28,x31,800021d4	 x28:0x00000000 x31:0xfffffff5
       16755000	      1674	800021a0	40940b33	sub	x22,x8,x9	  x8:0xfffffff6  x9:0x00000001 x22=0xfffffff5
       16765000	      1675	800021a4	f7feaa93	slti	x21,x29,-129	 x29:0x80009f60 x21=0x00000001
       16775000	      1676	800021a8	66655437	lui	x8,0x66655	  x8=0x66655000
       16785000	      1677	800021ac	049fc863	blt	x31,x9,800021fc	 x31:0xfffffff5  x9:0x00000001
       16795000	      1678	00000000	00000013	addi	x0,x0,0	  x0:0x00000000
       16805000	      1679	800021f8	00000013	addi	x0,x0,0	  x0:0x00000000
       16815000	      1680	800021fc	012e4933	xor	x18,x28,x18	 x28:0x00000000 x18:0x000002e0 x18=0x000002e0
       16825000	      1681	80002200	012d4333	xor	x6,x26,x18	 x26:0x00000000 x18:0x000002e0  x6=0x000002e0
       16835000	      1682	80002204	41bd5693	srai	x13,x26,0x1b	 x26:0x00000000 x13=0x00000000
       16845000	      1683	80002208	40c10b33	sub	x22,x2,x12	  x2:0xfffff8ed x12:0x00004007 x22=0xffffb8e6
       16855000	      1684	8000220c	027d5c63	bge	x26,x7,80002244	 x26:0x00000000  x7:0x00000001
       16865000	      1685	80002210	a5a8f813	andi	x16,x17,-1446	 x17:0xde679352 x16=0xde679252
       16875000	      1686	80002214	00738a33	add	x20,x7,x7	  x7:0x00000001  x7:0x00000001 x20=0x00000002
       16885000	      1687	80002218	dc148797	auipc	x15,0xdc148	 x15=0x5c14a214
       16895000	      1688	8000221c	e1827293	andi	x5,x4,-488	  x4:0x80009fc4  x5=0x80009e00
       16905000	      1689	80002220	011ee933	or	x18,x29,x17	 x29:0x80009f60 x17:0xde679352 x18=0xde679f72
       16915000	      1690	80002224	7a132993	slti	x19,x6,1953	  x6:0x000002e0 x19=0x00000001
       16925000	      1691	80002228	00000013	addi	x0,x0,0	  x0:0x00000000
       16935000	      1692	8000222c	40138533	sub	x10,x7,x1	  x7:0x00000001  x1:0x0000000a x10=0xfffffff7
       16945000	      1693	80002230	00000013	addi	x0,x0,0	  x0:0x00000000
       16955000	      1694	80002234	00000013	addi	x0,x0,0	  x0:0x00000000
       16965000	      1695	80002238	01f42e33	slt	x28,x8,x31	  x8:0x66655000 x31:0xfffffff5 x28=0x00000000
       16975000	      1696	8000223c	002d9c13	slli	x24,x27,0x2	 x27:0x00000000 x24=0x00000000
       16985000	      1697	80002240	0172ef33	or	x30,x5,x23	  x5:0x80009e00 x23:0x0000000a x30=0x80009e0a
       16995000	      1698	80002244	408a8833	sub	x16,x21,x8	 x21:0x00000001  x8:0x66655000 x16=0x999ab001
       17005000	      1699	80002248	01239513	slli	x10,x7,0x12	  x7:0x00000001 x10=0x00040000
       17015000	      1700	8000224c	017afcb3	and	x25,x21,x23	 x21:0x00000001 x23:0x0000000a x25=0x00000000
       17025000	      1701	80002250	404d5033	sra	x0,x26,x4	 x26:0x00000000  x4:0x80009fc4
       17035000	      1702	80002254	00d899b3	sll	x19,x17,x13	 x17:0xde679352 x13:0x00000000 x19=0xde679352
       17045000	      1703	80002258	00010863	beq	x2,x0,80002268	  x2:0xfffff8ed  x0:0x00000000
       17055000	      1704	8000225c	c0a97793	andi	x15,x18,-1014	 x18:0xde679f72 x15=0xde679c02
       17065000	      1705	80002260	3bc87e13	andi	x28,x16,956	 x16:0x999ab001 x28=0x00000000
       17075000	      1706	80002264	2ee66f93	ori	x31,x12,750	 x12:0x00004007 x31=0x000042ef
       17085000	      1707	80002268	7c5d4a13	xori	x20,x26,1989	 x26:0x00000000 x20=0x000007c5
       17095000	      1708	8000226c	7cc72513	slti	x10,x14,1996	 x14:0x00000512 x10=0x00000001
       17105000	      1709	80002270	2c90ad17	auipc	x26,0x2c90a	 x26=0xac90c26c
       17115000	      1710	80002274	0140c433	xor	x8,x1,x20	  x1:0x0000000a x20:0x000007c5  x8=0x000007cf
       17125000	      1711	80002278	02364863	blt	x12,x3,800022a8	 x12:0x00004007  x3:0x00000000
       17135000	      1712	8000227c	00efacb3	slt	x25,x31,x14	 x31:0x000042ef x14:0x00000512 x25=0x00000000
       17145000	      1713	80002280	00f2d8b3	srl	x17,x5,x15	  x5:0x80009e00 x15:0xde679c02 x17=0x20002780
       17155000	      1714	80002284	03c05663	bge	x0,x28,800022b0	  x0:0x00000000 x28:0x00000000
       17165000	      1715	00000000	00000013	addi	x0,x0,0	  x0:0x00000000
       17175000	      1716	800022ac	00000013	addi	x0,x0,0	  x0:0x00000000
       17185000	      1717	800022b0	01259333	sll	x6,x11,x18	 x11:0xc9a90000 x18:0xde679f72  x6=0x00000000
       17195000	      1718	800022b4	01ec7cb3	and	x25,x24,x30	 x24:0x00000000 x30:0x80009e0a x25=0x00000000
       17205000	      1719	800022b8	01f3a533	slt	x10,x7,x31	  x7:0x00000001 x31:0x000042ef x10=0x00000001
       17215000	      1720	800022bc	03467663	bgeu	x12,x20,800022e8	 x12:0x00004007 x20:0x000007c5
       17225000	      1721	00000000	00000013	addi	x0,x0,0	  x0:0x00000000
       17235000	      1722	800022e4	00000013	addi	x0,x0,0	  x0:0x00000000
       17245000	      1723	800022e8	006cd813	srli	x16,x25,0x6	 x25:0x00000000 x16=0x00000000
       17255000	      1724	800022ec	01319cb3	sll	x25,x3,x19	  x3:0x00000000 x19:0xde679352 x25=0x00000000
       17265000	      1725	800022f0	012a5133	srl	x2,x20,x18	 x20:0x000007c5 x18:0xde679f72  x2=0x00000000
       17275000	      1726	800022f4	00baecb3	or	x25,x21,x11	 x21:0x00000001 x11:0xc9a90000 x25=0xc9a90001
       17285000	      1727	800022f8	012853b3	srl	x7,x16,x18	 x16:0x00000000 x18:0xde679f72  x7=0x00000000
       17295000	      1728	800022fc	032c4c63	blt	x24,x18,80002334	 x24:0x00000000 x18:0xde679f72
       17305000	      1729	80002300	5442fb13	andi	x22,x5,1348	  x5:0x80009e00 x22=0x00000400
       17315000	      1730	80002304	03905463	bge	x0,x25,8000232c	  x0:0x00000000 x25:0xc9a90001
       17325000	      1731	00000000	00000013	addi	x0,x0,0	  x0:0x00000000
       17335000	      1732	80002328	00000013	addi	x0,x0,0	  x0:0x00000000
       17345000	      1733	8000232c	02d60063	beq	x12,x13,8000234c	 x12:0x00004007 x13:0x00000000
       17355000	      1734	80002330	044de263	bltu	x27,x4,80002374	 x27:0x00000000  x4:0x80009fc4
       17365000	      1735	00000000	00000013	addi	x0,x0,0	  x0:0x00000000
       17375000	      1736	80002370	00000013	addi	x0,x0,0	  x0:0x00000000
       17385000	      1737	80002374	01380433	add	x8,x16,x19	 x16:0x00000000 x19:0xde679352  x8=0xde679352
       17395000	      1738	80002378	33ec1bb7	lui	x23,0x33ec1	 x23=0x33ec1000
       17405000	      1739	8000237c	07e39a63	bne	x7,x30,800023f0	  x7:0x00000000 x30:0x80009e0a
       17415000	      1740	00000000	00000013	addi	x0,x0,0	  x0:0x00000000
       17425000	      1741	800023ec	00000013	addi	x0,x0,0	  x0:0x00000000
       17435000	      1742	800023f0	00049293	slli	x5,x9,0x0	  x9:0x00000001  x5=0x00000001
       17445000	      1743	800023f4	00732433	slt	x8,x6,x7	  x6:0x00000000  x7:0x00000000  x8=0x00000000
       17455000	      1744	800023f8	049f8663	beq	x31,x9,80002444	 x31:0x000042ef  x9:0x00000001
       17465000	      1745	800023fc	01e1f863	bgeu	x3,x30,8000240c	  x3:0x00000000 x30:0x80009e0a
       17475000	      1746	80002400	05744813	xori	x16,x8,87	  x8:0x00000000 x16=0x00000057
       17485000	      1747	80002404	0279cc63	blt	x19,x7,8000243c	 x19:0xde679352  x7:0x00000000
       17495000	      1748	00000000	00000013	addi	x0,x0,0	  x0:0x00000000
       17505000	      1749	80002438	00000013	addi	x0,x0,0	  x0:0x00000000
       17515000	      1750	8000243c	4057d133	sra	x2,x15,x5	 x15:0xde679c02  x5:0x00000001  x2=0xef33ce01
       17525000	      1751	80002440	9a3d4397	auipc	x7,0x9a3d4	  x7=0x1a3d643c
       17535000	      1752	80002444	004cea33	or	x20,x25,x4	 x25:0xc9a90001  x4:0x80009fc4 x20=0xc9a99fc5
       17545000	      1753	80002448	009bd133	srl	x2,x23,x9	 x23:0x33ec1000  x9:0x00000001  x2=0x19f60800
       17555000	      1754	8000244c	03d0cc63	blt	x1,x29,80002484	  x1:0x0000000a x29:0x80009f60
       17565000	      1755	80002450	05fcc063	blt	x25,x31,80002490	 x25:0xc9a90001 x31:0x000042ef
       17575000	      1756	00000000	00000013	addi	x0,x0,0	  x0:0x00000000
       17585000	      1757	8000248c	00000013	addi	x0,x0,0	  x0:0x00000000
       17595000	      1758	80002490	02d59c63	bne	x11,x13,800024c8	 x11:0xc9a90000 x13:0x00000000
       17605000	      1759	00000000	00000013	addi	x0,x0,0	  x0:0x00000000
       17615000	      1760	800024c4	00000013	addi	x0,x0,0	  x0:0x00000000
       17625000	      1761	800024c8	00b94533	xor	x10,x18,x11	 x18:0xde679f72 x11:0xc9a90000 x10=0x17ce9f72
       17635000	      1762	800024cc	0408e863	bltu	x17,x0,8000251c	 x17:0x20002780  x0:0x00000000
       17645000	      1763	800024d0	01bd5b33	srl	x22,x26,x27	 x26:0xac90c26c x27:0x00000000 x22=0xac90c26c
       17655000	      1764	800024d4	e4d57193	andi	x3,x10,-435	 x10:0x17ce9f72  x3=0x17ce9e40
       17665000	      1765	800024d8	76406b13	ori	x22,x0,1892	  x0:0x00000000 x22=0x00000764
       17675000	      1766	800024dc	bff33893	sltiu	x17,x6,-1025	  x6:0x00000000 x17=0x00000001
       17685000	      1767	800024e0	04cde793	ori	x15,x27,76	 x27:0x00000000 x15=0x0000004c
       17695000	      1768	800024e4	01d03bb3	sltu	x23,x0,x29	  x0:0x00000000 x29:0x80009f60 x23=0x00000001
       17705000	      1769	800024e8	016a9313	slli	x6,x21,0x16	 x21:0x00000001  x6=0x00400000
       17715000	      1770	800024ec	00a31893	slli	x17,x6,0xa	  x6:0x00400000 x17=0x00000000
       17725000	      1771	800024f0	417e85b3	sub	x11,x29,x23	 x29:0x80009f60 x23:0x00000001 x11=0x80009f5f
       17735000	      1772	800024f4	035f9c63	bne	x31,x21,8000252c	 x31:0x000042ef x21:0x00000001
       17745000	      1773	00000000	00000013	addi	x0,x0,0	  x0:0x00000000
       17755000	      1774	80002528	00000013	addi	x0,x0,0	  x0:0x00000000
       17765000	      1775	8000252c	4195d9b3	sra	x19,x11,x25	 x11:0x80009f5f x25:0xc9a90001 x19=0xc0004faf
       17775000	      1776	80002530	01198fb3	add	x31,x19,x17	 x19:0xc0004faf x17:0x00000000 x31=0xc0004faf
       17785000	      1777	80002534	41f65833	sra	x16,x12,x31	 x12:0x00004007 x31:0xc0004faf x16=0x00000000
       17795000	      1778	80002538	03fa0e63	beq	x20,x31,80002574	 x20:0xc9a99fc5 x31:0xc0004faf
       17805000	      1779	8000253c	b64b7397	auipc	x7,0xb64b7	  x7=0x364b9538
       17815000	      1780	80002540	8f9f4517	auipc	x10,0x8f9f4	 x10=0x0f9f653c
       17825000	      1781	80002544	007cfdb3	and	x27,x25,x7	 x25:0xc9a90001  x7:0x364b9538 x27=0x00090000
       17835000	      1782	80002548	00813f33	sltu	x30,x2,x8	  x2:0x19f60800  x8:0x00000000 x30=0x00000000
       17845000	      1783	8000254c	41cd5ab3	sra	x21,x26,x28	 x26:0xac90c26c x28:0x00000000 x21=0xac90c26c
       17855000	      1784	80002550	0151f833	and	x16,x3,x21	  x3:0x17ce9e40 x21:0xac90c26c x16=0x04808240
       17865000	      1785	80002554	36674393	xori	x7,x14,870	 x14:0x00000512  x7=0x00000674
       17875000	      1786	80002558	01377433	and	x8,x14,x19	 x14:0x00000512 x19:0xc0004faf  x8=0x00000502
       17885000	      1787	8000255c	01b0dc93	srli	x25,x1,0x1b	  x1:0x0000000a x25=0x00000000
       17895000	      1788	80002560	02ab6863	bltu	x22,x10,80002590	 x22:0x00000764 x10:0x0f9f653c
       17905000	      1789	00000000	00000013	addi	x0,x0,0	  x0:0x00000000
       17915000	      1790	8000258c	00000013	addi	x0,x0,0	  x0:0x00000000
       17925000	      1791	80002590	00898933	add	x18,x19,x8	 x19:0xc0004faf  x8:0x00000502 x18=0xc00054b1
       17935000	      1792	80002594	c292f113	andi	x2,x5,-983	  x5:0x00000001  x2=0x00000001
       17945000	      1793	80002598	00c26c33	or	x24,x4,x12	  x4:0x80009fc4 x12:0x00004007 x24=0x8000dfc7
       17955000	      1794	8000259c	01745a33	srl	x20,x8,x23	  x8:0x00000502 x23:0x00000001 x20=0x00000281
       17965000	      1795	800025a0	29b9aa93	slti	x21,x19,667	 x19:0xc0004faf x21=0x00000001
       17975000	      1796	800025a4	02069063	bne	x13,x0,800025c4	 x13:0x00000000  x0:0x00000000
       17985000	      1797	800025a8	f3a84837	lui	x16,0xf3a84	 x16=0xf3a84000
       17995000	      1798	800025ac	01ef6c63	bltu	x30,x30,800025c4	 x30:0x00000000 x30:0x00000000
       18005000	      1799	800025b0	01321e13	slli	x28,x4,0x13	  x4:0x80009fc4 x28=0xfe200000
       18015000	      1800	800025b4	40295ab3	sra	x21,x18,x2	 x18:0xc00054b1  x2:0x00000001 x21=0xe0002a58
       18025000	      1801	800025b8	04ad4463	blt	x26,x10,80002600	 x26:0xac90c26c x10:0x0f9f653c
       18035000	      1802	00000000	00000013	addi	x0,x0,0	  x0:0x00000000
       18045000	      1803	800025fc	00000013	addi	x0,x0,0	  x0:0x00000000
       18055000	      1804	80002600	41705b93	srai	x23,x0,0x17	  x0:0x00000000 x23=0x00000000
       18065000	      1805	80002604	04c5e663	bltu	x11,x12,80002650	 x11:0x80009f5f x12:0x00004007
       18075000	      1806	80002608	40f7d3b3	sra	x7,x15,x15	 x15:0x0000004c x15:0x0000004c  x7=0x00000000
       18085000	      1807	8000260c	00000013	addi	x0,x0,0	  x0:0x00000000
       18095000	      1808	80002610	00d0d8b3	srl	x17,x1,x13	  x1:0x0000000a x13:0x00000000 x17=0x0000000a
       18105000	      1809	80002614	01e71d93	slli	x27,x14,0x1e	 x14:0x00000512 x27=0x80000000
       18115000	      1810	80002618	fd35f813	andi	x16,x11,-45	 x11:0x80009f5f x16=0x80009f53
       18125000	      1811	8000261c	03720c63	beq	x4,x23,80002654	  x4:0x80009fc4 x23:0x00000000
       18135000	      1812	80002620	9faaa013	slti	x0,x21,-1542	 x21:0xe0002a58
       18145000	      1813	80002624	4120ddb3	sra	x27,x1,x18	  x1:0x0000000a x18:0xc00054b1 x27=0x00000000
       18155000	      1814	80002628	02224063	blt	x4,x2,80002648	  x4:0x80009fc4  x2:0x00000001
       18165000	      1815	00000000	00000013	addi	x0,x0,0	  x0:0x00000000
       18175000	      1816	80002644	00000013	addi	x0,x0,0	  x0:0x00000000
       18185000	      1817	80002648	04597863	bgeu	x18,x5,80002698	 x18:0xc00054b1  x5:0x00000001
       18195000	      1818	00000000	00000013	addi	x0,x0,0	  x0:0x00000000
       18205000	      1819	80002694	00000013	addi	x0,x0,0	  x0:0x00000000
       18215000	      1820	80002698	05865863	bge	x12,x24,800026e8	 x12:0x00004007 x24:0x8000dfc7
       18225000	      1821	00000000	00000013	addi	x0,x0,0	  x0:0x00000000
       18235000	      1822	800026e4	00000013	addi	x0,x0,0	  x0:0x00000000
       18245000	      1823	800026e8	172a3013	sltiu	x0,x20,370	 x20:0x00000281
       18255000	      1824	800026ec	004d99b3	sll	x19,x27,x4	 x27:0x00000000  x4:0x80009fc4 x19=0x00000000
       18265000	      1825	800026f0	19fc0c13	addi	x24,x24,415	 x24:0x8000dfc7 x24=0x8000e166
       18275000	      1826	800026f4	00c75133	srl	x2,x14,x12	 x14:0x00000512 x12:0x00004007  x2=0x0000000a
       18285000	      1827	800026f8	00000013	addi	x0,x0,0	  x0:0x00000000
       18295000	      1828	800026fc	053b8263	beq	x23,x19,80002740	 x23:0x00000000 x19:0x00000000
       18305000	      1829	00000000	00000013	addi	x0,x0,0	  x0:0x00000000
       18315000	      1830	8000273c	00000013	addi	x0,x0,0	  x0:0x00000000
       18325000	      1831	80002740	02fa7863	bgeu	x20,x15,80002770	 x20:0x00000281 x15:0x0000004c
       18335000	      1832	00000000	00000013	addi	x0,x0,0	  x0:0x00000000
       18345000	      1833	8000276c	00000013	addi	x0,x0,0	  x0:0x00000000
       18355000	      1834	80002770	04a27263	bgeu	x4,x10,800027b4	  x4:0x80009fc4 x10:0x0f9f653c
       18365000	      1835	00000000	00000013	addi	x0,x0,0	  x0:0x00000000
       18375000	      1836	800027b0	00000013	addi	x0,x0,0	  x0:0x00000000
       18385000	      1837	800027b4	01cbdd13	srli	x26,x23,0x1c	 x23:0x00000000 x26=0x00000000
       18395000	      1838	800027b8	40b80333	sub	x6,x16,x11	 x16:0x80009f53 x11:0x80009f5f  x6=0xfffffff4
       18405000	      1839	800027bc	c737c593	xori	x11,x15,-909	 x15:0x0000004c x11=0xfffffc3f
       18415000	      1840	800027c0	01601833	sll	x16,x0,x22	  x0:0x00000000 x22:0x00000764 x16=0x00000000
       18425000	      1841	800027c4	008ddd93	srli	x27,x27,0x8	 x27:0x00000000 x27=0x00000000
       18435000	      1842	800027c8	b69ab717	auipc	x14,0xb69ab	 x14=0x369ad7c4
       18445000	      1843	800027cc	052def13	ori	x30,x27,82	 x27:0x00000000 x30=0x00000052
       18455000	      1844	800027d0	4021d413	srai	x8,x3,0x2	  x3:0x17ce9e40  x8=0x05f3a790
       18465000	      1845	800027d4	00585813	srli	x16,x16,0x5	 x16:0x00000000 x16=0x00000000
       18475000	      1846	800027d8	00b39ab3	sll	x21,x7,x11	  x7:0x00000000 x11:0xfffffc3f x21=0x00000000
       18485000	      1847	800027dc	4f4a4b13	xori	x22,x20,1268	 x20:0x00000281 x22=0x00000675
       18495000	      1848	800027e0	04600663	beq	x0,x6,8000282c	  x0:0x00000000  x6:0xfffffff4
       18505000	      1849	800027e4	b1350013	addi	x0,x10,-1261	 x10:0x0f9f653c
       18515000	      1850	800027e8	00b45863	bge	x8,x11,800027f8	  x8:0x05f3a790 x11:0xfffffc3f
       18525000	      1851	00000000	00000013	addi	x0,x0,0	  x0:0x00000000
       18535000	      1852	800027f4	00000013	addi	x0,x0,0	  x0:0x00000000
       18545000	      1853	800027f8	1930a693	slti	x13,x1,403	  x1:0x0000000a x13=0x00000001
       18555000	      1854	800027fc	400ad013	srai	x0,x21,0x0	 x21:0x00000000
       18565000	      1855	80002800	02e59663	bne	x11,x14,8000282c	 x11:0xfffffc3f x14:0x369ad7c4
       18575000	      1856	00000000	00000013	addi	x0,x0,0	  x0:0x00000000
       18585000	      1857	80002828	00000013	addi	x0,x0,0	  x0:0x00000000
       18595000	      1858	8000282c	011aa6b3	slt	x13,x21,x17	 x21:0x00000000 x17:0x0000000a x13=0x00000001
       18605000	      1859	80002830	0164c863	blt	x9,x22,80002840	  x9:0x00000001 x22:0x00000675
       18615000	      1860	00000000	00000013	addi	x0,x0,0	  x0:0x00000000
       18625000	      1861	8000283c	00000013	addi	x0,x0,0	  x0:0x00000000
       18635000	      1862	80002840	812db637	lui	x12,0x812db	 x12=0x812db000
       18645000	      1863	80002844	00955cb3	srl	x25,x10,x9	 x10:0x0f9f653c  x9:0x00000001 x25=0x07cfb29e
       18655000	      1864	80002848	01691693	slli	x13,x18,0x16	 x18:0xc00054b1 x13=0x2c400000
       18665000	      1865	8000284c	01501993	slli	x19,x0,0x15	  x0:0x00000000 x19=0x00000000
       18675000	      1866	80002850	004b3a33	sltu	x20,x22,x4	 x22:0x00000675  x4:0x80009fc4 x20=0x00000001
       18685000	      1867	80002854	00c27c63	bgeu	x4,x12,8000286c	  x4:0x80009fc4 x12:0x812db000
       18695000	      1868	80002858	00a0d633	srl	x12,x1,x10	  x1:0x0000000a x10:0x0f9f653c x12=0x00000000
       18705000	      1869	8000285c	002ccb33	xor	x22,x25,x2	 x25:0x07cfb29e  x2:0x0000000a x22=0x07cfb294
       18715000	      1870	80002860	4191d3b3	sra	x7,x3,x25	  x3:0x17ce9e40 x25:0x07cfb29e  x7=0x00000000
       18725000	      1871	80002864	0233cc63	blt	x7,x3,8000289c	  x7:0x00000000  x3:0x17ce9e40
       18735000	      1872	00000000	00000013	addi	x0,x0,0	  x0:0x00000000
       18745000	      1873	80002898	00000013	addi	x0,x0,0	  x0:0x00000000
       18755000	      1874	8000289c	057f7063	bgeu	x30,x23,800028dc	 x30:0x00000052 x23:0x00000000
       18765000	      1875	00000000	00000013	addi	x0,x0,0	  x0:0x00000000
       18775000	      1876	800028d8	00000013	addi	x0,x0,0	  x0:0x00000000
       18785000	      1877	800028dc	2fc33c93	sltiu	x25,x6,764	  x6:0xfffffff4 x25=0x00000000
       18795000	      1878	800028e0	00d46433	or	x8,x8,x13	  x8:0x05f3a790 x13:0x2c400000  x8=0x2df3a790
       18805000	      1879	800028e4	03421c63	bne	x4,x20,8000291c	  x4:0x80009fc4 x20:0x00000001
       18815000	      1880	00000000	00000013	addi	x0,x0,0	  x0:0x00000000
       18825000	      1881	80002918	00000013	addi	x0,x0,0	  x0:0x00000000
       18835000	      1882	8000291c	4174db13	srai	x22,x9,0x17	  x9:0x00000001 x22=0x00000000
       18845000	      1883	80002920	01d6df93	srli	x31,x13,0x1d	 x13:0x2c400000 x31=0x00000001
       18855000	      1884	80002924	01ca02b3	add	x5,x20,x28	 x20:0x00000001 x28:0xfe200000  x5=0xfe200001
       18865000	      1885	80002928	01e01513	slli	x10,x0,0x1e	  x0:0x00000000 x10=0x00000000
       18875000	      1886	8000292c	00650433	add	x8,x10,x6	 x10:0x00000000  x6:0xfffffff4  x8=0xfffffff4
       18885000	      1887	80002930	01e92e33	slt	x28,x18,x30	 x18:0xc00054b1 x30:0x00000052 x28=0x00000001
       18895000	      1888	80002934	26711db7	lui	x27,0x26711	 x27=0x26711000
       18905000	      1889	80002938	cfacf693	andi	x13,x25,-774	 x25:0x00000000 x13=0x00000000
       18915000	      1890	8000293c	36c7c813	xori	x16,x15,876	 x15:0x0000004c x16=0x00000320
       18925000	      1891	80002940	0019cab3	xor	x21,x19,x1	 x19:0x00000000  x1:0x0000000a x21=0x0000000a
       18935000	      1892	80002944	006ce863	bltu	x25,x6,80002954	 x25:0x00000000  x6:0xfffffff4
       18945000	      1893	00000000	00000013	addi	x0,x0,0	  x0:0x00000000
       18955000	      1894	80002950	00000013	addi	x0,x0,0	  x0:0x00000000
       18965000	      1895	80002954	04d36463	bltu	x6,x13,8000299c	  x6:0xfffffff4 x13:0x00000000
       18975000	      1896	80002958	001c9713	slli	x14,x25,0x1	 x25:0x00000000 x14=0x00000000
       18985000	      1897	8000295c	4142d3b3	sra	x7,x5,x20	  x5:0xfe200001 x20:0x00000001  x7=0xff100000
       18995000	      1898	80002960	01a20033	add	x0,x4,x26	  x4:0x80009fc4 x26:0x00000000
       19005000	      1899	80002964	00000013	addi	x0,x0,0	  x0:0x00000000
       19015000	      1900	80002968	24f2e393	ori	x7,x5,591	  x5:0xfe200001  x7=0xfe20024f
       19025000	      1901	8000296c	00581013	slli	x0,x16,0x5	 x16:0x00000320
       19035000	      1902	80002970	414c5ab3	sra	x21,x24,x20	 x24:0x8000e166 x20:0x00000001 x21=0xc00070b3
       19045000	      1903	80002974	0338c863	blt	x17,x19,800029a4	 x17:0x0000000a x19:0x00000000
       19055000	      1904	80002978	0143e933	or	x18,x7,x20	  x7:0xfe20024f x20:0x00000001 x18=0xfe20024f
       19065000	      1905	8000297c	03f1d663	bge	x3,x31,800029a8	  x3:0x17ce9e40 x31:0x00000001
       19075000	      1906	00000000	00000013	addi	x0,x0,0	  x0:0x00000000
       19085000	      1907	800029a4	00000013	addi	x0,x0,0	  x0:0x00000000
       19095000	      1908	800029a8	018c9d13	slli	x26,x25,0x18	 x25:0x00000000 x26=0x00000000
       19105000	      1909	800029ac	f4d20713	addi	x14,x4,-179	  x4:0x80009fc4 x14=0x80009f11
       19115000	      1910	800029b0	416f0fb3	sub	x31,x30,x22	 x30:0x00000052 x22:0x00000000 x31=0x00000052
       19125000	      1911	800029b4	05c5f863	bgeu	x11,x28,80002a04	 x11:0xfffffc3f x28:0x00000001
       19135000	      1912	00000000	00000013	addi	x0,x0,0	  x0:0x00000000
       19145000	      1913	80002a00	00000013	addi	x0,x0,0	  x0:0x00000000
       19155000	      1914	80002a04	0177d113	srli	x2,x15,0x17	 x15:0x0000004c  x2=0x00000000
       19165000	      1915	80002a08	009a8db3	add	x27,x21,x9	 x21:0xc00070b3  x9:0x00000001 x27=0xc00070b4
       19175000	      1916	80002a0c	b73ac113	xori	x2,x21,-1165	 x21:0xc00070b3  x2=0x3fff8bc0
       19185000	      1917	80002a10	007ea8b3	slt	x17,x29,x7	 x29:0x80009f60  x7:0xfe20024f x17=0x00000001
       19195000	      1918	80002a14	46172c13	slti	x24,x14,1121	 x14:0x80009f11 x24=0x00000001
       19205000	      1919	80002a18	65934113	xori	x2,x6,1625	  x6:0xfffffff4  x2=0xfffff9ad
       19215000	      1920	80002a1c	00805f93	srli	x31,x0,0x8	  x0:0x00000000 x31=0x00000000
       19225000	      1921	80002a20	2b35b2b7	lui	x5,0x2b35b	  x5=0x2b35b000
       19235000	      1922	80002a24	0487f263	bgeu	x15,x8,80002a68	 x15:0x0000004c  x8:0xfffffff4
       19245000	      1923	80002a28	4633ce13	xori	x28,x7,1123	  x7:0xfe20024f x28=0xfe20062c
       19255000	      1924	80002a2c	41415093	srai	x1,x2,0x14	  x2:0xfffff9ad  x1=0xffffffff
       19265000	      1925	80002a30	5cb0a293	slti	x5,x1,1483	  x1:0xffffffff  x5=0x00000001
       19275000	      1926	80002a34	17c90a93	addi	x21,x18,380	 x18:0xfe20024f x21=0xfe2003cb
       19285000	      1927	80002a38	009b5d13	srli	x26,x22,0x9	 x22:0x00000000 x26=0x00000000
       19295000	      1928	80002a3c	44420d13	addi	x26,x4,1092	  x4:0x80009fc4 x26=0x8000a408
       19305000	      1929	80002a40	0103e863	bltu	x7,x16,80002a50	  x7:0xfe20024f x16:0x00000320
       19315000	      1930	80002a44	03fa0863	beq	x20,x31,80002a74	 x20:0x00000001 x31:0x00000000
       19325000	      1931	80002a48	01439913	slli	x18,x7,0x14	  x7:0xfe20024f x18=0x24f00000
       19335000	      1932	80002a4c	03c2ec63	bltu	x5,x28,80002a84	  x5:0x00000001 x28:0xfe20062c
       19345000	      1933	00000000	00000013	addi	x0,x0,0	  x0:0x00000000
       19355000	      1934	80002a80	00000013	addi	x0,x0,0	  x0:0x00000000
       19365000	      1935	80002a84	00647863	bgeu	x8,x6,80002a94	  x8:0xfffffff4  x6:0xfffffff4
       19375000	      1936	00000000	00000013	addi	x0,x0,0	  x0:0x00000000
       19385000	      1937	80002a90	00000013	addi	x0,x0,0	  x0:0x00000000
       19395000	      1938	80002a94	00c6d733	srl	x14,x13,x12	 x13:0x00000000 x12:0x00000000 x14=0x00000000
       19405000	      1939	80002a98	0091ea33	or	x20,x3,x9	  x3:0x17ce9e40  x9:0x00000001 x20=0x17ce9e41
       19415000	      1940	80002a9c	a2312093	slti	x1,x2,-1501	  x2:0xfffff9ad  x1=0x00000001
       19425000	      1941	80002aa0	004b9593	slli	x11,x23,0x4	 x23:0x00000000 x11=0x00000000
       19435000	      1942	80002aa4	03585063	bge	x16,x21,80002ac4	 x16:0x00000320 x21:0xfe2003cb
       19445000	      1943	00000000	00000013	addi	x0,x0,0	  x0:0x00000000
       19455000	      1944	80002ac0	00000013	addi	x0,x0,0	  x0:0x00000000
       19465000	      1945	80002ac4	9c10ac13	slti	x24,x1,-1599	  x1:0x00000001 x24=0x00000000
       19475000	      1946	80002ac8	010bf833	and	x16,x23,x16	 x23:0x00000000 x16:0x00000320 x16=0x00000000
       19485000	      1947	80002acc	4aaf3793	sltiu	x15,x30,1194	 x30:0x00000052 x15=0x00000001
       19495000	      1948	80002ad0	005fa433	slt	x8,x31,x5	 x31:0x00000000  x5:0x00000001  x8=0x00000001
       19505000	      1949	80002ad4	4048d793	srai	x15,x17,0x4	 x17:0x00000001 x15=0x00000000
       19515000	      1950	80002ad8	40658133	sub	x2,x11,x6	 x11:0x00000000  x6:0xfffffff4  x2=0x0000000c
       19525000	      1951	80002adc	00e7f1b3	and	x3,x15,x14	 x15:0x00000000 x14:0x00000000  x3=0x00000000
       19535000	      1952	80002ae0	40d68033	sub	x0,x13,x13	 x13:0x00000000 x13:0x00000000
       19545000	      1953	80002ae4	05a41063	bne	x8,x26,80002b24	  x8:0x00000001 x26:0x8000a408
       19555000	      1954	00000000	00000013	addi	x0,x0,0	  x0:0x00000000
       19565000	      1955	80002b20	00000013	addi	x0,x0,0	  x0:0x00000000
       19575000	      1956	80002b24	a850b513	sltiu	x10,x1,-1403	  x1:0x00000001 x10=0x00000001
       19585000	      1957	80002b28	01a13133	sltu	x2,x2,x26	  x2:0x0000000c x26:0x8000a408  x2=0x00000001
       19595000	      1958	80002b2c	7907ec93	ori	x25,x15,1936	 x15:0x00000000 x25=0x00000790
       19605000	      1959	80002b30	013e3db3	sltu	x27,x28,x19	 x28:0xfe20062c x19:0x00000000 x27=0x00000000
       19615000	      1960	80002b34	0478e063	bltu	x17,x7,80002b74	 x17:0x00000001  x7:0xfe20024f
       19625000	      1961	00000000	00000013	addi	x0,x0,0	  x0:0x00000000
       19635000	      1962	80002b70	00000013	addi	x0,x0,0	  x0:0x00000000
       19645000	      1963	80002b74	acb64317	auipc	x6,0xacb64	  x6=0x2cb66b70
       19655000	      1964	80002b78	04594863	blt	x18,x5,80002bc8	 x18:0x24f00000  x5:0x00000001
       19665000	      1965	80002b7c	05049663	bne	x9,x16,80002bc8	  x9:0x00000001 x16:0x00000000
       19675000	      1966	00000000	00000013	addi	x0,x0,0	  x0:0x00000000
       19685000	      1967	80002bc4	00000013	addi	x0,x0,0	  x0:0x00000000
       19695000	      1968	80002bc8	008a1713	slli	x14,x20,0x8	 x20:0x17ce9e41 x14=0xce9e4100
       19705000	      1969	80002bcc	00c6ebb3	or	x23,x13,x12	 x13:0x00000000 x12:0x00000000 x23=0x00000000
       19715000	      1970	80002bd0	7fa29b17	auipc	x22,0x7fa29	 x22=0xffa2bbcc
       19725000	      1971	80002bd4	02a9cc63	blt	x19,x10,80002c0c	 x19:0x00000000 x10:0x00000001
       19735000	      1972	00000000	00000013	addi	x0,x0,0	  x0:0x00000000
       19745000	      1973	80002c08	00000013	addi	x0,x0,0	  x0:0x00000000
       19755000	      1974	80002c0c	887e2017	auipc	x0,0x887e2	
       19765000	      1975	80002c10	00000013	addi	x0,x0,0	  x0:0x00000000
       19775000	      1976	80002c14	05521863	bne	x4,x21,80002c64	  x4:0x80009fc4 x21:0xfe2003cb
       19785000	      1977	00000000	00000013	addi	x0,x0,0	  x0:0x00000000
       19795000	      1978	80002c60	00000013	addi	x0,x0,0	  x0:0x00000000
       19805000	      1979	80002c64	03f46e63	bltu	x8,x31,80002ca0	  x8:0x00000001 x31:0x00000000
       19815000	      1980	80002c68	59cb3793	sltiu	x15,x22,1436	 x22:0xffa2bbcc x15=0x00000000
       19825000	      1981	80002c6c	01e71833	sll	x16,x14,x30	 x14:0xce9e4100 x30:0x00000052 x16=0x04000000
       19835000	      1982	80002c70	05b7c863	blt	x15,x27,80002cc0	 x15:0x00000000 x27:0x00000000
       19845000	      1983	80002c74	0398c663	blt	x17,x25,80002ca0	 x17:0x00000001 x25:0x00000790
       19855000	      1984	00000000	00000013	addi	x0,x0,0	  x0:0x00000000
       19865000	      1985	80002c9c	00000013	addi	x0,x0,0	  x0:0x00000000
       19875000	      1986	80002ca0	015d7133	and	x2,x26,x21	 x26:0x8000a408 x21:0xfe2003cb  x2=0x80000008
       19885000	      1987	80002ca4	412f8133	sub	x2,x31,x18	 x31:0x00000000 x18:0x24f00000  x2=0xdb100000
       19895000	      1988	80002ca8	01f17863	bgeu	x2,x31,80002cb8	  x2:0xdb100000 x31:0x00000000
       19905000	      1989	00000000	00000013	addi	x0,x0,0	  x0:0x00000000
       19915000	      1990	80002cb4	00000013	addi	x0,x0,0	  x0:0x00000000
       19925000	      1991	80002cb8	007bc863	blt	x23,x7,80002cc8	 x23:0x00000000  x7:0xfe20024f
       19935000	      1992	80002cbc	01f53cb3	sltu	x25,x10,x31	 x10:0x00000001 x31:0x00000000 x25=0x00000000
       19945000	      1993	80002cc0	049b4063	blt	x22,x9,80002d00	 x22:0xffa2bbcc  x9:0x00000001
       19955000	      1994	00000000	00000013	addi	x0,x0,0	  x0:0x00000000
       19965000	      1995	80002cfc	00000013	addi	x0,x0,0	  x0:0x00000000
       19975000	      1996	80002d00	04dd7463	bgeu	x26,x13,80002d48	 x26:0x8000a408 x13:0x00000000
       19985000	      1997	00000000	00000013	addi	x0,x0,0	  x0:0x00000000
       19995000	      1998	80002d44	00000013	addi	x0,x0,0	  x0:0x00000000
       20005000	      1999	80002d48	7588c293	xori	x5,x17,1880	 x17:0x00000001  x5=0x00000759
       20015000	      2000	80002d4c	03be0863	beq	x28,x27,80002d7c	 x28:0xfe20062c x27:0x00000000
       20025000	      2001	80002d50	004ea2b3	slt	x5,x29,x4	 x29:0x80009f60  x4:0x80009fc4  x5=0x00000001
       20035000	      2002	80002d54	014f37b3	sltu	x15,x30,x20	 x30:0x00000052 x20:0x17ce9e41 x15=0x00000001
       20045000	      2003	80002d58	01a86f33	or	x30,x16,x26	 x16:0x04000000 x26:0x8000a408 x30=0x8400a408
       20055000	      2004	80002d5c	c02bb093	sltiu	x1,x23,-1022	 x23:0x00000000  x1=0x00000001
       20065000	      2005	80002d60	3d722d13	slti	x26,x4,983	  x4:0x80009fc4 x26=0x00000001
       20075000	      2006	80002d64	e1090837	lui	x16,0xe1090	 x16=0xe1090000
       20085000	      2007	80002d68	00b06c63	bltu	x0,x11,80002d80	  x0:0x00000000 x11:0x00000000
       20095000	      2008	80002d6c	ec65ed13	ori	x26,x11,-314	 x11:0x00000000 x26=0xfffffec6
       20105000	      2009	80002d70	ca237193	andi	x3,x6,-862	  x6:0x2cb66b70  x3=0x2cb66820
       20115000	      2010	80002d74	009579b3	and	x19,x10,x9	 x10:0x00000001  x9:0x00000001 x19=0x00000001
       20125000	      2011	80002d78	4174ddb3	sra	x27,x9,x23	  x9:0x00000001 x23:0x00000000 x27=0x00000001
       20135000	      2012	80002d7c	03c66c63	bltu	x12,x28,80002db4	 x12:0x00000000 x28:0xfe20062c
       20145000	      2013	00000000	00000013	addi	x0,x0,0	  x0:0x00000000
       20155000	      2014	80002db0	00000013	addi	x0,x0,0	  x0:0x00000000
       20165000	      2015	80002db4	03a48a63	beq	x9,x26,80002de8	  x9:0x00000001 x26:0xfffffec6
       20175000	      2016	80002db8	0201f863	bgeu	x3,x0,80002de8	  x3:0x2cb66820  x0:0x00000000
       20185000	      2017	00000000	00000013	addi	x0,x0,0	  x0:0x00000000
       20195000	      2018	80002de4	00000013	addi	x0,x0,0	  x0:0x00000000
       20205000	      2019	80002de8	413fd993	srai	x19,x31,0x13	 x31:0x00000000 x19=0x00000000
       20215000	      2020	80002dec	41db8ab3	sub	x21,x23,x29	 x23:0x00000000 x29:0x80009f60 x21=0x7fff60a0
       20225000	      2021	80002df0	410ddd93	srai	x27,x27,0x10	 x27:0x00000001 x27=0x00000000
       20235000	      2022	80002df4	004ea083	lw	x1,4(x29)	 x29:0x80009f60  x1=0x80000998 PA:0x80009f64
       20245000	      2023	80002df8	000db033	sltu	x0,x27,x0	 x27:0x00000000  x0:0x00000000
       20255000	      2024	80002dfc	30118a93	addi	x21,x3,769	  x3:0x2cb66820 x21=0x2cb66b21
       20265000	      2025	80002e00	00ce8e93	addi	x29,x29,12	 x29:0x80009f60 x29=0x80009f6c
       20275000	      2026	80002e04	00fa5733	srl	x14,x20,x15	 x20:0x17ce9e41 x15:0x00000001 x14=0x0be74f20
       20285000	      2027	80002e08	00ef6fb3	or	x31,x30,x14	 x30:0x8400a408 x14:0x0be74f20 x31=0x8fe7ef28
       20295000	      2028	80002e0c	00008893	addi	x17,x1,0	  x1:0x80000998 x17=0x80000998
       20305000	      2029	80002e10	000888e7	jalr	x17,x17,0	 x17:0x80000998 x17=0x80002e10
       20315000	      2030	00000000	00000013	addi	x0,x0,0	  x0:0x00000000
       20325000	      2031	80000998	00000013	addi	x0,x0,0	  x0:0x00000000
       20335000	      2032	8000099c	017f6fb3	or	x31,x30,x23	 x30:0x8400a408 x23:0x00000000 x31=0x8400a408
       20345000	      2033	800009a0	00001517	auipc	x10,0x1	 x10=0x8000199c
       20355000	      2034	800009a4	ff050513	addi	x10,x10,-16	 x10:0x8000199c x10=0x8000198c
       20365000	      2035	800009a8	00b26e33	or	x28,x4,x11	  x4:0x80009fc4 x11:0x00000000 x28=0x80009fc4
       20375000	      2036	800009ac	013c2933	slt	x18,x24,x19	 x24:0x00000000 x19:0x00000000 x18=0x00000000
       20385000	      2037	800009b0	41e00b33	sub	x22,x0,x30	  x0:0x00000000 x30:0x8400a408 x22=0x7bff5bf8
       20395000	      2038	800009b4	012c2e33	slt	x28,x24,x18	 x24:0x00000000 x18:0x00000000 x28=0x00000000
       20405000	      2039	800009b8	009cda33	srl	x20,x25,x9	 x25:0x00000000  x9:0x00000001 x20=0x00000000
       20415000	      2040	800009bc	00000013	addi	x0,x0,0	  x0:0x00000000
       20425000	      2041	800009c0	00aa5133	srl	x2,x20,x10	 x20:0x00000000 x10:0x8000198c  x2=0x00000000
       20435000	      2042	800009c4	c2a50513	addi	x10,x10,-982	 x10:0x8000198c x10=0x800015b6
       20445000	      2043	800009c8	6563f413	andi	x8,x7,1622	  x7:0xfe20024f  x8=0x00000246
       20455000	      2044	800009cc	00b8d463	bge	x17,x11,800009d4	 x17:0x80002e10 x11:0x00000000
       20465000	      2045	800009d0	4063d433	sra	x8,x7,x6	  x7:0xfe20024f  x6:0x2cb66b70  x8=0xfffffe20
       20475000	      2046	800009d4	3d7500e7	jalr	x1,x10,983	 x10:0x800015b6  x1=0x800009d4
       20485000	      2047	00000000	00000013	addi	x0,x0,0	  x0:0x00000000
       20495000	      2048	8000198c	00000013	addi	x0,x0,0	  x0:0x00000000
       20505000	      2049	80001990	00297663	bgeu	x18,x2,8000199c	 x18:0x00000000  x2:0x00000000
       20515000	      2050	00000000	00000013	addi	x0,x0,0	  x0:0x00000000
       20525000	      2051	80001998	00000013	addi	x0,x0,0	  x0:0x00000000
       20535000	      2052	8000199c	ff4e8e93	addi	x29,x29,-12	 x29:0x80009f6c x29=0x80009f60
       20545000	      2053	800019a0	00000013	addi	x0,x0,0	  x0:0x00000000
       20555000	      2054	800019a4	6bb24a93	xori	x21,x4,1723	  x4:0x80009fc4 x21=0x8000997f
       20565000	      2055	800019a8	001ea223	sw	x1,4(x29)	 x29:0x80009f60  x1:0x800009d4 PA:0x80009f64
       20575000	      2056	800019ac	862f8717	auipc	x14,0x862f8	 x14=0x062f99a8
       20585000	      2057	800019b0	06991737	lui	x14,0x6991	 x14=0x06991000
       20595000	      2058	800019b4	0075e6b3	or	x13,x11,x7	 x11:0x00000000  x7:0xfe20024f x13=0xfe20024f
       20605000	      2059	800019b8	011e4e33	xor	x28,x28,x17	 x28:0x00000000 x17:0x80002e10 x28=0x80002e10
       20615000	      2060	800019bc	ffe00593	addi	x11,x0,-2	  x0:0x00000000 x11=0xfffffffe
       20625000	      2061	800019c0	c3526f93	ori	x31,x4,-971	  x4:0x80009fc4 x31=0xfffffff5
       20635000	      2062	800019c4	19e88193	addi	x3,x17,414	 x17:0x80002e10  x3=0x80002fae
       20645000	      2063	800019c8	b99a4c97	auipc	x25,0xb99a4	 x25=0x399a59c4
       20655000	      2064	800019cc	f4b78537	lui	x10,0xf4b78	 x10=0xf4b78000
       20665000	      2065	800019d0	01300093	addi	x1,x0,19	  x0:0x00000000  x1=0x00000013
       20675000	      2066	800019d4	00000013	addi	x0,x0,0	  x0:0x00000000
       20685000	      2067	800019d8	0148bcb3	sltu	x25,x17,x20	 x17:0x80002e10 x20:0x00000000 x25=0x00000000
       20695000	      2068	800019dc	afc3b993	sltiu	x19,x7,-1284	  x7:0xfe20024f x19=0x00000001
       20705000	      2069	800019e0	230e0293	addi	x5,x28,560	 x28:0x80002e10  x5=0x80003040
       20715000	      2070	800019e4	414207b3	sub	x15,x4,x20	  x4:0x80009fc4 x20:0x00000000 x15=0x80009fc4
       20725000	      2071	800019e8	01114833	xor	x16,x2,x17	  x2:0x00000000 x17:0x80002e10 x16=0x80002e10
       20735000	      2072	800019ec	41b15b13	srai	x22,x2,0x1b	  x2:0x00000000 x22=0x00000000
       20745000	      2073	800019f0	01ad6b33	or	x22,x26,x26	 x26:0xfffffec6 x26:0xfffffec6 x22=0xfffffec6
       20755000	      2074	800019f4	3e897a13	andi	x20,x18,1000	 x18:0x00000000 x20=0x00000000
       20765000	      2075	800019f8	01ae4133	xor	x2,x28,x26	 x28:0x80002e10 x26:0xfffffec6  x2=0x7fffd0d6
       20775000	      2076	800019fc	d6cbcc13	xori	x24,x23,-660	 x23:0x00000000 x24=0xfffffd6c
       20785000	      2077	80001a00	00758593	addi	x11,x11,7	 x11:0xfffffffe x11=0x00000005
       20795000	      2078	80001a04	00000013	addi	x0,x0,0	  x0:0x00000000
       20805000	      2079	80001a08	fe15c6e3	blt	x11,x1,800019f4	 x11:0x00000005  x1:0x00000013
       20815000	      2080	00000000	00000013	addi	x0,x0,0	  x0:0x00000000
       20825000	      2081	800019f0	00000013	addi	x0,x0,0	  x0:0x00000000
       20835000	      2082	800019f4	3e897a13	andi	x20,x18,1000	 x18:0x00000000 x20=0x00000000
       20845000	      2083	800019f8	01ae4133	xor	x2,x28,x26	 x28:0x80002e10 x26:0xfffffec6  x2=0x7fffd0d6
       20855000	      2084	800019fc	d6cbcc13	xori	x24,x23,-660	 x23:0x00000000 x24=0xfffffd6c
       20865000	      2085	80001a00	00758593	addi	x11,x11,7	 x11:0x00000005 x11=0x0000000c
       20875000	      2086	80001a04	00000013	addi	x0,x0,0	  x0:0x00000000
       20885000	      2087	80001a08	fe15c6e3	blt	x11,x1,800019f4	 x11:0x0000000c  x1:0x00000013
       20895000	      2088	00000000	00000013	addi	x0,x0,0	  x0:0x00000000
       20905000	      2089	800019f0	00000013	addi	x0,x0,0	  x0:0x00000000
       20915000	      2090	800019f4	3e897a13	andi	x20,x18,1000	 x18:0x00000000 x20=0x00000000
       20925000	      2091	800019f8	01ae4133	xor	x2,x28,x26	 x28:0x80002e10 x26:0xfffffec6  x2=0x7fffd0d6
       20935000	      2092	800019fc	d6cbcc13	xori	x24,x23,-660	 x23:0x00000000 x24=0xfffffd6c
       20945000	      2093	80001a00	00758593	addi	x11,x11,7	 x11:0x0000000c x11=0x00000013
       20955000	      2094	80001a04	00000013	addi	x0,x0,0	  x0:0x00000000
       20965000	      2095	80001a08	fe15c6e3	blt	x11,x1,800019f4	 x11:0x00000013  x1:0x00000013
       20975000	      2096	80001a0c	0c04b913	sltiu	x18,x9,192	  x9:0x00000001 x18=0x00000001
       20985000	      2097	80001a10	fff00b13	addi	x22,x0,-1	  x0:0x00000000 x22=0xffffffff
       20995000	      2098	80001a14	c860df37	lui	x30,0xc860d	 x30=0xc860d000
       21005000	      2099	80001a18	01cd7a33	and	x20,x26,x28	 x26:0xfffffec6 x28:0x80002e10 x20=0x80002e00
       21015000	      2100	80001a1c	2d754893	xori	x17,x10,727	 x10:0xf4b78000 x17=0xf4b782d7
       21025000	      2101	80001a20	01368333	add	x6,x13,x19	 x13:0xfe20024f x19:0x00000001  x6=0xfe200250
       21035000	      2102	80001a24	ff900813	addi	x16,x0,-7	  x0:0x00000000 x16=0xfffffff9
       21045000	      2103	80001a28	00e028b3	slt	x17,x0,x14	  x0:0x00000000 x14:0x06991000 x17=0x00000001
       21055000	      2104	80001a2c	00000013	addi	x0,x0,0	  x0:0x00000000
       21065000	      2105	80001a30	00780433	add	x8,x16,x7	 x16:0xfffffff9  x7:0xfe20024f  x8=0xfe200248
       21075000	      2106	80001a34	8d650793	addi	x15,x10,-1834	 x10:0xf4b78000 x15=0xf4b778d6
       21085000	      2107	80001a38	0132a8b3	slt	x17,x5,x19	  x5:0x80003040 x19:0x00000001 x17=0x00000001
       21095000	      2108	80001a3c	01a97ab3	and	x21,x18,x26	 x18:0x00000001 x26:0xfffffec6 x21=0x00000000
       21105000	      2109	80001a40	ff7b0b13	addi	x22,x22,-9	 x22:0xffffffff x22=0xfffffff6
       21115000	      2110	80001a44	00a00e13	addi	x28,x0,10	  x0:0x00000000 x28=0x0000000a
       21125000	      2111	80001a48	00f2b9b3	sltu	x19,x5,x15	  x5:0x80003040 x15:0xf4b778d6 x19=0x00000001
       21135000	      2112	80001a4c	00600693	addi	x13,x0,6	  x0:0x00000000 x13=0x00000006
       21145000	      2113	80001a50	d581a413	slti	x8,x3,-680	  x3:0x80002fae  x8=0x00000001
       21155000	      2114	80001a54	01984fb3	xor	x31,x16,x25	 x16:0xfffffff9 x25:0x00000000 x31=0xfffffff9
       21165000	      2115	80001a58	01c7bdb3	sltu	x27,x15,x28	 x15:0xf4b778d6 x28:0x0000000a x27=0x00000000
       21175000	      2116	80001a5c	ffbe0e13	addi	x28,x28,-5	 x28:0x0000000a x28=0x00000005
       21185000	      2117	80001a60	01d85cb3	srl	x25,x16,x29	 x16:0xfffffff9 x29:0x80009f60 x25=0xfffffff9
       21195000	      2118	80001a64	61ef0a37	lui	x20,0x61ef0	 x20=0x61ef0000
       21205000	      2119	80001a68	019625b3	slt	x11,x12,x25	 x12:0x00000000 x25:0xfffffff9 x11=0x00000000
       21215000	      2120	80001a6c	001f0133	add	x2,x30,x1	 x30:0xc860d000  x1:0x00000013  x2=0xc860d013
       21225000	      2121	80001a70	fede70e3	bgeu	x28,x13,80001a50	 x28:0x00000005 x13:0x00000006
       21235000	      2122	80001a74	000c0d33	add	x26,x24,x0	 x24:0xfffffd6c  x0:0x00000000 x26=0xfffffd6c
       21245000	      2123	80001a78	05c7fd13	andi	x26,x15,92	 x15:0xf4b778d6 x26=0x00000054
       21255000	      2124	80001a7c	fd0b50e3	bge	x22,x16,80001a3c	 x22:0xfffffff6 x16:0xfffffff9
       21265000	      2125	80001a80	9e662997	auipc	x19,0x9e662	 x19=0x1e663a7c
       21275000	      2126	80001a84	00600393	addi	x7,x0,6	  x0:0x00000000  x7=0x00000006
       21285000	      2127	80001a88	01000d13	addi	x26,x0,16	  x0:0x00000000 x26=0x00000010
       21295000	      2128	80001a8c	13252c93	slti	x25,x10,306	 x10:0xf4b78000 x25=0x00000001
       21305000	      2129	80001a90	af61f893	andi	x17,x3,-1290	  x3:0x80002fae x17=0x80002aa6
       21315000	      2130	80001a94	012a9f13	slli	x30,x21,0x12	 x21:0x00000000 x30=0x00000000
       21325000	      2131	80001a98	009dc0b3	xor	x1,x27,x9	 x27:0x00000000  x9:0x00000001  x1=0x00000001
       21335000	      2132	80001a9c	a4858993	addi	x19,x11,-1464	 x11:0x00000000 x19=0xfffffa48
       21345000	      2133	80001aa0	0043bdb3	sltu	x27,x7,x4	  x7:0x00000006  x4:0x80009fc4 x27=0x00000001
       21355000	      2134	80001aa4	410bd5b3	sra	x11,x23,x16	 x23:0x00000000 x16:0xfffffff9 x11=0x00000000
       21365000	      2135	80001aa8	eec78c13	addi	x24,x15,-276	 x15:0xf4b778d6 x24=0xf4b777c2
       21375000	      2136	80001aac	00838393	addi	x7,x7,8	  x7:0x00000006  x7=0x0000000e
       21385000	      2137	80001ab0	007d0833	add	x16,x26,x7	 x26:0x00000010  x7:0x0000000e x16=0x0000001e
       21395000	      2138	80001ab4	4175d713	srai	x14,x11,0x17	 x11:0x00000000 x14=0x00000000
       21405000	      2139	80001ab8	afbcca13	xori	x20,x25,-1285	 x25:0x00000001 x20=0xfffffafa
       21415000	      2140	80001abc	00b319b3	sll	x19,x6,x11	  x6:0xfe200250 x11:0x00000000 x19=0xfe200250
       21425000	      2141	80001ac0	00000013	addi	x0,x0,0	  x0:0x00000000
       21435000	      2142	80001ac4	fff00613	addi	x12,x0,-1	  x0:0x00000000 x12=0xffffffff
       21445000	      2143	80001ac8	01000413	addi	x8,x0,16	  x0:0x00000000  x8=0x00000010
       21455000	      2144	80001acc	01dc1f13	slli	x30,x24,0x1d	 x24:0xf4b777c2 x30=0x40000000
       21465000	      2145	80001ad0	71c7eb13	ori	x22,x15,1820	 x15:0xf4b778d6 x22=0xf4b77fde
       21475000	      2146	80001ad4	01c90e33	add	x28,x18,x28	 x18:0x00000001 x28:0x00000005 x28=0x00000006
       21485000	      2147	80001ad8	40fa3813	sltiu	x16,x20,1039	 x20:0xfffffafa x16=0x00000000
       21495000	      2148	80001adc	00000013	addi	x0,x0,0	  x0:0x00000000
       21505000	      2149	80001ae0	00360613	addi	x12,x12,3	 x12:0xffffffff x12=0x00000002
       21515000	      2150	80001ae4	403bd333	sra	x6,x23,x3	 x23:0x00000000  x3:0x80002fae  x6=0x00000000
       21525000	      2151	80001ae8	fe866ae3	bltu	x12,x8,80001adc	 x12:0x00000002  x8:0x00000010
       21535000	      2152	00000000	00000013	addi	x0,x0,0	  x0:0x00000000
       21545000	      2153	80001ad8	00000013	addi	x0,x0,0	  x0:0x00000000
       21555000	      2154	80001adc	00000013	addi	x0,x0,0	  x0:0x00000000
       21565000	      2155	80001ae0	00360613	addi	x12,x12,3	 x12:0x00000002 x12=0x00000005
       21575000	      2156	80001ae4	403bd333	sra	x6,x23,x3	 x23:0x00000000  x3:0x80002fae  x6=0x00000000
       21585000	      2157	80001ae8	fe866ae3	bltu	x12,x8,80001adc	 x12:0x00000005  x8:0x00000010
       21595000	      2158	00000000	00000013	addi	x0,x0,0	  x0:0x00000000
       21605000	      2159	80001ad8	00000013	addi	x0,x0,0	  x0:0x00000000
       21615000	      2160	80001adc	00000013	addi	x0,x0,0	  x0:0x00000000
       21625000	      2161	80001ae0	00360613	addi	x12,x12,3	 x12:0x00000005 x12=0x00000008
       21635000	      2162	80001ae4	403bd333	sra	x6,x23,x3	 x23:0x00000000  x3:0x80002fae  x6=0x00000000
       21645000	      2163	80001ae8	fe866ae3	bltu	x12,x8,80001adc	 x12:0x00000008  x8:0x00000010
       21655000	      2164	00000000	00000013	addi	x0,x0,0	  x0:0x00000000
       21665000	      2165	80001ad8	00000013	addi	x0,x0,0	  x0:0x00000000
       21675000	      2166	80001adc	00000013	addi	x0,x0,0	  x0:0x00000000
       21685000	      2167	80001ae0	00360613	addi	x12,x12,3	 x12:0x00000008 x12=0x0000000b
       21695000	      2168	80001ae4	403bd333	sra	x6,x23,x3	 x23:0x00000000  x3:0x80002fae  x6=0x00000000
       21705000	      2169	80001ae8	fe866ae3	bltu	x12,x8,80001adc	 x12:0x0000000b  x8:0x00000010
       21715000	      2170	00000000	00000013	addi	x0,x0,0	  x0:0x00000000
       21725000	      2171	80001ad8	00000013	addi	x0,x0,0	  x0:0x00000000
       21735000	      2172	80001adc	00000013	addi	x0,x0,0	  x0:0x00000000
       21745000	      2173	80001ae0	00360613	addi	x12,x12,3	 x12:0x0000000b x12=0x0000000e
       21755000	      2174	80001ae4	403bd333	sra	x6,x23,x3	 x23:0x00000000  x3:0x80002fae  x6=0x00000000
       21765000	      2175	80001ae8	fe866ae3	bltu	x12,x8,80001adc	 x12:0x0000000e  x8:0x00000010
       21775000	      2176	00000000	00000013	addi	x0,x0,0	  x0:0x00000000
       21785000	      2177	80001ad8	00000013	addi	x0,x0,0	  x0:0x00000000
       21795000	      2178	80001adc	00000013	addi	x0,x0,0	  x0:0x00000000
       21805000	      2179	80001ae0	00360613	addi	x12,x12,3	 x12:0x0000000e x12=0x00000011
       21815000	      2180	80001ae4	403bd333	sra	x6,x23,x3	 x23:0x00000000  x3:0x80002fae  x6=0x00000000
       21825000	      2181	80001ae8	fe866ae3	bltu	x12,x8,80001adc	 x12:0x00000011  x8:0x00000010
       21835000	      2182	80001aec	01925f93	srli	x31,x4,0x19	  x4:0x80009fc4 x31=0x00000040
       21845000	      2183	80001af0	405eda13	srai	x20,x29,0x5	 x29:0x80009f60 x20=0xfc0004fb
       21855000	      2184	80001af4	0119ffb3	and	x31,x19,x17	 x19:0xfe200250 x17:0x80002aa6 x31=0x80000200
       21865000	      2185	80001af8	dc2ef593	andi	x11,x29,-574	 x29:0x80009f60 x11=0x80009d40
       21875000	      2186	80001afc	f9a3cae3	blt	x7,x26,80001a90	  x7:0x0000000e x26:0x00000010
       21885000	      2187	00000000	00000013	addi	x0,x0,0	  x0:0x00000000
       21895000	      2188	80001a8c	00000013	addi	x0,x0,0	  x0:0x00000000
       21905000	      2189	80001a90	af61f893	andi	x17,x3,-1290	  x3:0x80002fae x17=0x80002aa6
       21915000	      2190	80001a94	012a9f13	slli	x30,x21,0x12	 x21:0x00000000 x30=0x00000000
       21925000	      2191	80001a98	009dc0b3	xor	x1,x27,x9	 x27:0x00000001  x9:0x00000001  x1=0x00000000
       21935000	      2192	80001a9c	a4858993	addi	x19,x11,-1464	 x11:0x80009d40 x19=0x80009788
       21945000	      2193	80001aa0	0043bdb3	sltu	x27,x7,x4	  x7:0x0000000e  x4:0x80009fc4 x27=0x00000001
       21955000	      2194	80001aa4	410bd5b3	sra	x11,x23,x16	 x23:0x00000000 x16:0x00000000 x11=0x00000000
       21965000	      2195	80001aa8	eec78c13	addi	x24,x15,-276	 x15:0xf4b778d6 x24=0xf4b777c2
       21975000	      2196	80001aac	00838393	addi	x7,x7,8	  x7:0x0000000e  x7=0x00000016
       21985000	      2197	80001ab0	007d0833	add	x16,x26,x7	 x26:0x00000010  x7:0x00000016 x16=0x00000026
       21995000	      2198	80001ab4	4175d713	srai	x14,x11,0x17	 x11:0x00000000 x14=0x00000000
       22005000	      2199	80001ab8	afbcca13	xori	x20,x25,-1285	 x25:0x00000001 x20=0xfffffafa
       22015000	      2200	80001abc	00b319b3	sll	x19,x6,x11	  x6:0x00000000 x11:0x00000000 x19=0x00000000
       22025000	      2201	80001ac0	00000013	addi	x0,x0,0	  x0:0x00000000
       22035000	      2202	80001ac4	fff00613	addi	x12,x0,-1	  x0:0x00000000 x12=0xffffffff
       22045000	      2203	80001ac8	01000413	addi	x8,x0,16	  x0:0x00000000  x8=0x00000010
       22055000	      2204	80001acc	01dc1f13	slli	x30,x24,0x1d	 x24:0xf4b777c2 x30=0x40000000
       22065000	      2205	80001ad0	71c7eb13	ori	x22,x15,1820	 x15:0xf4b778d6 x22=0xf4b77fde
       22075000	      2206	80001ad4	01c90e33	add	x28,x18,x28	 x18:0x00000001 x28:0x00000006 x28=0x00000007
       22085000	      2207	80001ad8	40fa3813	sltiu	x16,x20,1039	 x20:0xfffffafa x16=0x00000000
       22095000	      2208	80001adc	00000013	addi	x0,x0,0	  x0:0x00000000
       22105000	      2209	80001ae0	00360613	addi	x12,x12,3	 x12:0xffffffff x12=0x00000002
       22115000	      2210	80001ae4	403bd333	sra	x6,x23,x3	 x23:0x00000000  x3:0x80002fae  x6=0x00000000
       22125000	      2211	80001ae8	fe866ae3	bltu	x12,x8,80001adc	 x12:0x00000002  x8:0x00000010
       22135000	      2212	00000000	00000013	addi	x0,x0,0	  x0:0x00000000
       22145000	      2213	80001ad8	00000013	addi	x0,x0,0	  x0:0x00000000
       22155000	      2214	80001adc	00000013	addi	x0,x0,0	  x0:0x00000000
       22165000	      2215	80001ae0	00360613	addi	x12,x12,3	 x12:0x00000002 x12=0x00000005
       22175000	      2216	80001ae4	403bd333	sra	x6,x23,x3	 x23:0x00000000  x3:0x80002fae  x6=0x00000000
       22185000	      2217	80001ae8	fe866ae3	bltu	x12,x8,80001adc	 x12:0x00000005  x8:0x00000010
       22195000	      2218	00000000	00000013	addi	x0,x0,0	  x0:0x00000000
       22205000	      2219	80001ad8	00000013	addi	x0,x0,0	  x0:0x00000000
       22215000	      2220	80001adc	00000013	addi	x0,x0,0	  x0:0x00000000
       22225000	      2221	80001ae0	00360613	addi	x12,x12,3	 x12:0x00000005 x12=0x00000008
       22235000	      2222	80001ae4	403bd333	sra	x6,x23,x3	 x23:0x00000000  x3:0x80002fae  x6=0x00000000
       22245000	      2223	80001ae8	fe866ae3	bltu	x12,x8,80001adc	 x12:0x00000008  x8:0x00000010
       22255000	      2224	00000000	00000013	addi	x0,x0,0	  x0:0x00000000
       22265000	      2225	80001ad8	00000013	addi	x0,x0,0	  x0:0x00000000
       22275000	      2226	80001adc	00000013	addi	x0,x0,0	  x0:0x00000000
       22285000	      2227	80001ae0	00360613	addi	x12,x12,3	 x12:0x00000008 x12=0x0000000b
       22295000	      2228	80001ae4	403bd333	sra	x6,x23,x3	 x23:0x00000000  x3:0x80002fae  x6=0x00000000
       22305000	      2229	80001ae8	fe866ae3	bltu	x12,x8,80001adc	 x12:0x0000000b  x8:0x00000010
       22315000	      2230	00000000	00000013	addi	x0,x0,0	  x0:0x00000000
       22325000	      2231	80001ad8	00000013	addi	x0,x0,0	  x0:0x00000000
       22335000	      2232	80001adc	00000013	addi	x0,x0,0	  x0:0x00000000
       22345000	      2233	80001ae0	00360613	addi	x12,x12,3	 x12:0x0000000b x12=0x0000000e
       22355000	      2234	80001ae4	403bd333	sra	x6,x23,x3	 x23:0x00000000  x3:0x80002fae  x6=0x00000000
       22365000	      2235	80001ae8	fe866ae3	bltu	x12,x8,80001adc	 x12:0x0000000e  x8:0x00000010
       22375000	      2236	00000000	00000013	addi	x0,x0,0	  x0:0x00000000
       22385000	      2237	80001ad8	00000013	addi	x0,x0,0	  x0:0x00000000
       22395000	      2238	80001adc	00000013	addi	x0,x0,0	  x0:0x00000000
       22405000	      2239	80001ae0	00360613	addi	x12,x12,3	 x12:0x0000000e x12=0x00000011
       22415000	      2240	80001ae4	403bd333	sra	x6,x23,x3	 x23:0x00000000  x3:0x80002fae  x6=0x00000000
       22425000	      2241	80001ae8	fe866ae3	bltu	x12,x8,80001adc	 x12:0x00000011  x8:0x00000010
       22435000	      2242	80001aec	01925f93	srli	x31,x4,0x19	  x4:0x80009fc4 x31=0x00000040
       22445000	      2243	80001af0	405eda13	srai	x20,x29,0x5	 x29:0x80009f60 x20=0xfc0004fb
       22455000	      2244	80001af4	0119ffb3	and	x31,x19,x17	 x19:0x00000000 x17:0x80002aa6 x31=0x00000000
       22465000	      2245	80001af8	dc2ef593	andi	x11,x29,-574	 x29:0x80009f60 x11=0x80009d40
       22475000	      2246	80001afc	f9a3cae3	blt	x7,x26,80001a90	  x7:0x00000016 x26:0x00000010
       22485000	      2247	80001b00	01295e13	srli	x28,x18,0x12	 x18:0x00000001 x28=0x00000000
       22495000	      2248	80001b04	ff600b93	addi	x23,x0,-10	  x0:0x00000000 x23=0xfffffff6
       22505000	      2249	80001b08	01608433	add	x8,x1,x22	  x1:0x00000000 x22:0xf4b77fde  x8=0xf4b77fde
       22515000	      2250	80001b0c	89036097	auipc	x1,0x89036	  x1=0x09037b08
       22525000	      2251	80001b10	012dc433	xor	x8,x27,x18	 x27:0x00000001 x18:0x00000001  x8=0x00000000
       22535000	      2252	80001b14	14423793	sltiu	x15,x4,324	  x4:0x80009fc4 x15=0x00000000
       22545000	      2253	80001b18	fed00113	addi	x2,x0,-19	  x0:0x00000000  x2=0xffffffed
       22555000	      2254	80001b1c	05da6393	ori	x7,x20,93	 x20:0xfc0004fb  x7=0xfc0004ff
       22565000	      2255	80001b20	019cbd33	sltu	x26,x25,x25	 x25:0x00000001 x25:0x00000001 x26=0x00000000
       22575000	      2256	80001b24	016c6033	or	x0,x24,x22	 x24:0xf4b777c2 x22:0xf4b77fde
       22585000	      2257	80001b28	be14ba93	sltiu	x21,x9,-1055	  x9:0x00000001 x21=0x00000001
       22595000	      2258	80001b2c	40c15093	srai	x1,x2,0xc	  x2:0xffffffed  x1=0xffffffff
       22605000	      2259	80001b30	0007dc33	srl	x24,x15,x0	 x15:0x00000000  x0:0x00000000 x24=0x00000000
       22615000	      2260	80001b34	006b9433	sll	x8,x23,x6	 x23:0xfffffff6  x6:0x00000000  x8=0xfffffff6
       22625000	      2261	80001b38	c9c0c413	xori	x8,x1,-868	  x1:0xffffffff  x8=0x00000363
       22635000	      2262	80001b3c	01398833	add	x16,x19,x19	 x19:0x00000000 x19:0x00000000 x16=0x00000000
       22645000	      2263	80001b40	075309b7	lui	x19,0x7530	 x19=0x07530000
       22655000	      2264	80001b44	005d5033	srl	x0,x26,x5	 x26:0x00000000  x5:0x80003040
       22665000	      2265	80001b48	ffdb8b93	addi	x23,x23,-3	 x23:0xfffffff6 x23=0xfffffff3
       22675000	      2266	80001b4c	a161a893	slti	x17,x3,-1514	  x3:0x80002fae x17=0x00000001
       22685000	      2267	80001b50	01f73733	sltu	x14,x14,x31	 x14:0x00000000 x31:0x00000000 x14=0x00000000
       22695000	      2268	80001b54	40a95533	sra	x10,x18,x10	 x18:0x00000001 x10:0xf4b78000 x10=0x00000001
       22705000	      2269	80001b58	0138f733	and	x14,x17,x19	 x17:0x00000001 x19:0x07530000 x14=0x00000000
       22715000	      2270	80001b5c	93b13a13	sltiu	x20,x2,-1733	  x2:0xffffffed x20=0x00000000
       22725000	      2271	80001b60	01cadc33	srl	x24,x21,x28	 x21:0x00000001 x28:0x00000000 x24=0x00000001
       22735000	      2272	80001b64	01b8cb33	xor	x22,x17,x27	 x17:0x00000001 x27:0x00000001 x22=0x00000000
       22745000	      2273	80001b68	fc2bdae3	bge	x23,x2,80001b3c	 x23:0xfffffff3  x2:0xffffffed
       22755000	      2274	00000000	00000013	addi	x0,x0,0	  x0:0x00000000
       22765000	      2275	80001b38	00000013	addi	x0,x0,0	  x0:0x00000000
       22775000	      2276	80001b3c	01398833	add	x16,x19,x19	 x19:0x07530000 x19:0x07530000 x16=0x0ea60000
       22785000	      2277	80001b40	075309b7	lui	x19,0x7530	 x19=0x07530000
       22795000	      2278	80001b44	005d5033	srl	x0,x26,x5	 x26:0x00000000  x5:0x80003040
       22805000	      2279	80001b48	ffdb8b93	addi	x23,x23,-3	 x23:0xfffffff3 x23=0xfffffff0
       22815000	      2280	80001b4c	a161a893	slti	x17,x3,-1514	  x3:0x80002fae x17=0x00000001
       22825000	      2281	80001b50	01f73733	sltu	x14,x14,x31	 x14:0x00000000 x31:0x00000000 x14=0x00000000
       22835000	      2282	80001b54	40a95533	sra	x10,x18,x10	 x18:0x00000001 x10:0x00000001 x10=0x00000000
       22845000	      2283	80001b58	0138f733	and	x14,x17,x19	 x17:0x00000001 x19:0x07530000 x14=0x00000000
       22855000	      2284	80001b5c	93b13a13	sltiu	x20,x2,-1733	  x2:0xffffffed x20=0x00000000
       22865000	      2285	80001b60	01cadc33	srl	x24,x21,x28	 x21:0x00000001 x28:0x00000000 x24=0x00000001
       22875000	      2286	80001b64	01b8cb33	xor	x22,x17,x27	 x17:0x00000001 x27:0x00000001 x22=0x00000000
       22885000	      2287	80001b68	fc2bdae3	bge	x23,x2,80001b3c	 x23:0xfffffff0  x2:0xffffffed
       22895000	      2288	00000000	00000013	addi	x0,x0,0	  x0:0x00000000
       22905000	      2289	80001b38	00000013	addi	x0,x0,0	  x0:0x00000000
       22915000	      2290	80001b3c	01398833	add	x16,x19,x19	 x19:0x07530000 x19:0x07530000 x16=0x0ea60000
       22925000	      2291	80001b40	075309b7	lui	x19,0x7530	 x19=0x07530000
       22935000	      2292	80001b44	005d5033	srl	x0,x26,x5	 x26:0x00000000  x5:0x80003040
       22945000	      2293	80001b48	ffdb8b93	addi	x23,x23,-3	 x23:0xfffffff0 x23=0xffffffed
       22955000	      2294	80001b4c	a161a893	slti	x17,x3,-1514	  x3:0x80002fae x17=0x00000001
       22965000	      2295	80001b50	01f73733	sltu	x14,x14,x31	 x14:0x00000000 x31:0x00000000 x14=0x00000000
       22975000	      2296	80001b54	40a95533	sra	x10,x18,x10	 x18:0x00000001 x10:0x00000000 x10=0x00000001
       22985000	      2297	80001b58	0138f733	and	x14,x17,x19	 x17:0x00000001 x19:0x07530000 x14=0x00000000
       22995000	      2298	80001b5c	93b13a13	sltiu	x20,x2,-1733	  x2:0xffffffed x20=0x00000000
       23005000	      2299	80001b60	01cadc33	srl	x24,x21,x28	 x21:0x00000001 x28:0x00000000 x24=0x00000001
       23015000	      2300	80001b64	01b8cb33	xor	x22,x17,x27	 x17:0x00000001 x27:0x00000001 x22=0x00000000
       23025000	      2301	80001b68	fc2bdae3	bge	x23,x2,80001b3c	 x23:0xffffffed  x2:0xffffffed
       23035000	      2302	00000000	00000013	addi	x0,x0,0	  x0:0x00000000
       23045000	      2303	80001b38	00000013	addi	x0,x0,0	  x0:0x00000000
       23055000	      2304	80001b3c	01398833	add	x16,x19,x19	 x19:0x07530000 x19:0x07530000 x16=0x0ea60000
       23065000	      2305	80001b40	075309b7	lui	x19,0x7530	 x19=0x07530000
       23075000	      2306	80001b44	005d5033	srl	x0,x26,x5	 x26:0x00000000  x5:0x80003040
       23085000	      2307	80001b48	ffdb8b93	addi	x23,x23,-3	 x23:0xffffffed x23=0xffffffea
       23095000	      2308	80001b4c	a161a893	slti	x17,x3,-1514	  x3:0x80002fae x17=0x00000001
       23105000	      2309	80001b50	01f73733	sltu	x14,x14,x31	 x14:0x00000000 x31:0x00000000 x14=0x00000000
       23115000	      2310	80001b54	40a95533	sra	x10,x18,x10	 x18:0x00000001 x10:0x00000001 x10=0x00000000
       23125000	      2311	80001b58	0138f733	and	x14,x17,x19	 x17:0x00000001 x19:0x07530000 x14=0x00000000
       23135000	      2312	80001b5c	93b13a13	sltiu	x20,x2,-1733	  x2:0xffffffed x20=0x00000000
       23145000	      2313	80001b60	01cadc33	srl	x24,x21,x28	 x21:0x00000001 x28:0x00000000 x24=0x00000001
       23155000	      2314	80001b64	01b8cb33	xor	x22,x17,x27	 x17:0x00000001 x27:0x00000001 x22=0x00000000
       23165000	      2315	80001b68	fc2bdae3	bge	x23,x2,80001b3c	 x23:0xffffffea  x2:0xffffffed
       23175000	      2316	80001b6c	018ed993	srli	x19,x29,0x18	 x29:0x80009f60 x19=0x00000080
       23185000	      2317	80001b70	00900813	addi	x16,x0,9	  x0:0x00000000 x16=0x00000009
       23195000	      2318	80001b74	00045313	srli	x6,x8,0x0	  x8:0x00000363  x6=0x00000363
       23205000	      2319	80001b78	01200b93	addi	x23,x0,18	  x0:0x00000000 x23=0x00000012
       23215000	      2320	80001b7c	01eb1013	slli	x0,x22,0x1e	 x22:0x00000000
       23225000	      2321	80001b80	551ecc97	auipc	x25,0x551ec	 x25=0xd51edb7c
       23235000	      2322	80001b84	00380813	addi	x16,x16,3	 x16:0x00000009 x16=0x0000000c
       23245000	      2323	80001b88	00a00713	addi	x14,x0,10	  x0:0x00000000 x14=0x0000000a
       23255000	      2324	80001b8c	07ad3793	sltiu	x15,x26,122	 x26:0x00000000 x15=0x00000001
       23265000	      2325	80001b90	00600a13	addi	x20,x0,6	  x0:0x00000000 x20=0x00000006
       23275000	      2326	80001b94	00000013	addi	x0,x0,0	  x0:0x00000000
       23285000	      2327	80001b98	2bd2f193	andi	x3,x5,701	  x5:0x80003040  x3=0x00000000
       23295000	      2328	80001b9c	051d8293	addi	x5,x27,81	 x27:0x00000001  x5=0x00000052
       23305000	      2329	80001ba0	fff70713	addi	x14,x14,-1	 x14:0x0000000a x14=0x00000009
       23315000	      2330	80001ba4	01102633	slt	x12,x0,x17	  x0:0x00000000 x17:0x00000001 x12=0x00000001
       23325000	      2331	80001ba8	ff4776e3	bgeu	x14,x20,80001b94	 x14:0x00000009 x20:0x00000006
       23335000	      2332	00000000	00000013	addi	x0,x0,0	  x0:0x00000000
       23345000	      2333	80001b90	00000013	addi	x0,x0,0	  x0:0x00000000
       23355000	      2334	80001b94	00000013	addi	x0,x0,0	  x0:0x00000000
       23365000	      2335	80001b98	2bd2f193	andi	x3,x5,701	  x5:0x00000052  x3=0x00000010
       23375000	      2336	80001b9c	051d8293	addi	x5,x27,81	 x27:0x00000001  x5=0x00000052
       23385000	      2337	80001ba0	fff70713	addi	x14,x14,-1	 x14:0x00000009 x14=0x00000008
       23395000	      2338	80001ba4	01102633	slt	x12,x0,x17	  x0:0x00000000 x17:0x00000001 x12=0x00000001
       23405000	      2339	80001ba8	ff4776e3	bgeu	x14,x20,80001b94	 x14:0x00000008 x20:0x00000006
       23415000	      2340	00000000	00000013	addi	x0,x0,0	  x0:0x00000000
       23425000	      2341	80001b90	00000013	addi	x0,x0,0	  x0:0x00000000
       23435000	      2342	80001b94	00000013	addi	x0,x0,0	  x0:0x00000000
       23445000	      2343	80001b98	2bd2f193	andi	x3,x5,701	  x5:0x00000052  x3=0x00000010
       23455000	      2344	80001b9c	051d8293	addi	x5,x27,81	 x27:0x00000001  x5=0x00000052
       23465000	      2345	80001ba0	fff70713	addi	x14,x14,-1	 x14:0x00000008 x14=0x00000007
       23475000	      2346	80001ba4	01102633	slt	x12,x0,x17	  x0:0x00000000 x17:0x00000001 x12=0x00000001
       23485000	      2347	80001ba8	ff4776e3	bgeu	x14,x20,80001b94	 x14:0x00000007 x20:0x00000006
       23495000	      2348	00000000	00000013	addi	x0,x0,0	  x0:0x00000000
       23505000	      2349	80001b90	00000013	addi	x0,x0,0	  x0:0x00000000
       23515000	      2350	80001b94	00000013	addi	x0,x0,0	  x0:0x00000000
       23525000	      2351	80001b98	2bd2f193	andi	x3,x5,701	  x5:0x00000052  x3=0x00000010
       23535000	      2352	80001b9c	051d8293	addi	x5,x27,81	 x27:0x00000001  x5=0x00000052
       23545000	      2353	80001ba0	fff70713	addi	x14,x14,-1	 x14:0x00000007 x14=0x00000006
       23555000	      2354	80001ba4	01102633	slt	x12,x0,x17	  x0:0x00000000 x17:0x00000001 x12=0x00000001
       23565000	      2355	80001ba8	ff4776e3	bgeu	x14,x20,80001b94	 x14:0x00000006 x20:0x00000006
       23575000	      2356	00000000	00000013	addi	x0,x0,0	  x0:0x00000000
       23585000	      2357	80001b90	00000013	addi	x0,x0,0	  x0:0x00000000
       23595000	      2358	80001b94	00000013	addi	x0,x0,0	  x0:0x00000000
       23605000	      2359	80001b98	2bd2f193	andi	x3,x5,701	  x5:0x00000052  x3=0x00000010
       23615000	      2360	80001b9c	051d8293	addi	x5,x27,81	 x27:0x00000001  x5=0x00000052
       23625000	      2361	80001ba0	fff70713	addi	x14,x14,-1	 x14:0x00000006 x14=0x00000005
       23635000	      2362	80001ba4	01102633	slt	x12,x0,x17	  x0:0x00000000 x17:0x00000001 x12=0x00000001
       23645000	      2363	80001ba8	ff4776e3	bgeu	x14,x20,80001b94	 x14:0x00000005 x20:0x00000006
       23655000	      2364	80001bac	403303b3	sub	x7,x6,x3	  x6:0x00000363  x3:0x00000010  x7=0x00000353
       23665000	      2365	80001bb0	00644c33	xor	x24,x8,x6	  x8:0x00000363  x6:0x00000363 x24=0x00000000
       23675000	      2366	80001bb4	f6d08c13	addi	x24,x1,-147	  x1:0xffffffff x24=0xffffff6c
       23685000	      2367	80001bb8	6c4f4913	xori	x18,x30,1732	 x30:0x40000000 x18=0x400006c4
       23695000	      2368	80001bbc	fd7842e3	blt	x16,x23,80001b80	 x16:0x0000000c x23:0x00000012
       23705000	      2369	00000000	00000013	addi	x0,x0,0	  x0:0x00000000
       23715000	      2370	80001b7c	00000013	addi	x0,x0,0	  x0:0x00000000
       23725000	      2371	80001b80	551ecc97	auipc	x25,0x551ec	 x25=0xd51edb7c
       23735000	      2372	80001b84	00380813	addi	x16,x16,3	 x16:0x0000000c x16=0x0000000f
       23745000	      2373	80001b88	00a00713	addi	x14,x0,10	  x0:0x00000000 x14=0x0000000a
       23755000	      2374	80001b8c	07ad3793	sltiu	x15,x26,122	 x26:0x00000000 x15=0x00000001
       23765000	      2375	80001b90	00600a13	addi	x20,x0,6	  x0:0x00000000 x20=0x00000006
       23775000	      2376	80001b94	00000013	addi	x0,x0,0	  x0:0x00000000
       23785000	      2377	80001b98	2bd2f193	andi	x3,x5,701	  x5:0x00000052  x3=0x00000010
       23795000	      2378	80001b9c	051d8293	addi	x5,x27,81	 x27:0x00000001  x5=0x00000052
       23805000	      2379	80001ba0	fff70713	addi	x14,x14,-1	 x14:0x0000000a x14=0x00000009
       23815000	      2380	80001ba4	01102633	slt	x12,x0,x17	  x0:0x00000000 x17:0x00000001 x12=0x00000001
       23825000	      2381	80001ba8	ff4776e3	bgeu	x14,x20,80001b94	 x14:0x00000009 x20:0x00000006
       23835000	      2382	00000000	00000013	addi	x0,x0,0	  x0:0x00000000
       23845000	      2383	80001b90	00000013	addi	x0,x0,0	  x0:0x00000000
       23855000	      2384	80001b94	00000013	addi	x0,x0,0	  x0:0x00000000
       23865000	      2385	80001b98	2bd2f193	andi	x3,x5,701	  x5:0x00000052  x3=0x00000010
       23875000	      2386	80001b9c	051d8293	addi	x5,x27,81	 x27:0x00000001  x5=0x00000052
       23885000	      2387	80001ba0	fff70713	addi	x14,x14,-1	 x14:0x00000009 x14=0x00000008
       23895000	      2388	80001ba4	01102633	slt	x12,x0,x17	  x0:0x00000000 x17:0x00000001 x12=0x00000001
       23905000	      2389	80001ba8	ff4776e3	bgeu	x14,x20,80001b94	 x14:0x00000008 x20:0x00000006
       23915000	      2390	00000000	00000013	addi	x0,x0,0	  x0:0x00000000
       23925000	      2391	80001b90	00000013	addi	x0,x0,0	  x0:0x00000000
       23935000	      2392	80001b94	00000013	addi	x0,x0,0	  x0:0x00000000
       23945000	      2393	80001b98	2bd2f193	andi	x3,x5,701	  x5:0x00000052  x3=0x00000010
       23955000	      2394	80001b9c	051d8293	addi	x5,x27,81	 x27:0x00000001  x5=0x00000052
       23965000	      2395	80001ba0	fff70713	addi	x14,x14,-1	 x14:0x00000008 x14=0x00000007
       23975000	      2396	80001ba4	01102633	slt	x12,x0,x17	  x0:0x00000000 x17:0x00000001 x12=0x00000001
       23985000	      2397	80001ba8	ff4776e3	bgeu	x14,x20,80001b94	 x14:0x00000007 x20:0x00000006
       23995000	      2398	00000000	00000013	addi	x0,x0,0	  x0:0x00000000
       24005000	      2399	80001b90	00000013	addi	x0,x0,0	  x0:0x00000000
       24015000	      2400	80001b94	00000013	addi	x0,x0,0	  x0:0x00000000
       24025000	      2401	80001b98	2bd2f193	andi	x3,x5,701	  x5:0x00000052  x3=0x00000010
       24035000	      2402	80001b9c	051d8293	addi	x5,x27,81	 x27:0x00000001  x5=0x00000052
       24045000	      2403	80001ba0	fff70713	addi	x14,x14,-1	 x14:0x00000007 x14=0x00000006
       24055000	      2404	80001ba4	01102633	slt	x12,x0,x17	  x0:0x00000000 x17:0x00000001 x12=0x00000001
       24065000	      2405	80001ba8	ff4776e3	bgeu	x14,x20,80001b94	 x14:0x00000006 x20:0x00000006
       24075000	      2406	00000000	00000013	addi	x0,x0,0	  x0:0x00000000
       24085000	      2407	80001b90	00000013	addi	x0,x0,0	  x0:0x00000000
       24095000	      2408	80001b94	00000013	addi	x0,x0,0	  x0:0x00000000
       24105000	      2409	80001b98	2bd2f193	andi	x3,x5,701	  x5:0x00000052  x3=0x00000010
       24115000	      2410	80001b9c	051d8293	addi	x5,x27,81	 x27:0x00000001  x5=0x00000052
       24125000	      2411	80001ba0	fff70713	addi	x14,x14,-1	 x14:0x00000006 x14=0x00000005
       24135000	      2412	80001ba4	01102633	slt	x12,x0,x17	  x0:0x00000000 x17:0x00000001 x12=0x00000001
       24145000	      2413	80001ba8	ff4776e3	bgeu	x14,x20,80001b94	 x14:0x00000005 x20:0x00000006
       24155000	      2414	80001bac	403303b3	sub	x7,x6,x3	  x6:0x00000363  x3:0x00000010  x7=0x00000353
       24165000	      2415	80001bb0	00644c33	xor	x24,x8,x6	  x8:0x00000363  x6:0x00000363 x24=0x00000000
       24175000	      2416	80001bb4	f6d08c13	addi	x24,x1,-147	  x1:0xffffffff x24=0xffffff6c
       24185000	      2417	80001bb8	6c4f4913	xori	x18,x30,1732	 x30:0x40000000 x18=0x400006c4
       24195000	      2418	80001bbc	fd7842e3	blt	x16,x23,80001b80	 x16:0x0000000f x23:0x00000012
       24205000	      2419	00000000	00000013	addi	x0,x0,0	  x0:0x00000000
       24215000	      2420	80001b7c	00000013	addi	x0,x0,0	  x0:0x00000000
       24225000	      2421	80001b80	551ecc97	auipc	x25,0x551ec	 x25=0xd51edb7c
       24235000	      2422	80001b84	00380813	addi	x16,x16,3	 x16:0x0000000f x16=0x00000012
       24245000	      2423	80001b88	00a00713	addi	x14,x0,10	  x0:0x00000000 x14=0x0000000a
       24255000	      2424	80001b8c	07ad3793	sltiu	x15,x26,122	 x26:0x00000000 x15=0x00000001
       24265000	      2425	80001b90	00600a13	addi	x20,x0,6	  x0:0x00000000 x20=0x00000006
       24275000	      2426	80001b94	00000013	addi	x0,x0,0	  x0:0x00000000
       24285000	      2427	80001b98	2bd2f193	andi	x3,x5,701	  x5:0x00000052  x3=0x00000010
       24295000	      2428	80001b9c	051d8293	addi	x5,x27,81	 x27:0x00000001  x5=0x00000052
       24305000	      2429	80001ba0	fff70713	addi	x14,x14,-1	 x14:0x0000000a x14=0x00000009
       24315000	      2430	80001ba4	01102633	slt	x12,x0,x17	  x0:0x00000000 x17:0x00000001 x12=0x00000001
       24325000	      2431	80001ba8	ff4776e3	bgeu	x14,x20,80001b94	 x14:0x00000009 x20:0x00000006
       24335000	      2432	00000000	00000013	addi	x0,x0,0	  x0:0x00000000
       24345000	      2433	80001b90	00000013	addi	x0,x0,0	  x0:0x00000000
       24355000	      2434	80001b94	00000013	addi	x0,x0,0	  x0:0x00000000
       24365000	      2435	80001b98	2bd2f193	andi	x3,x5,701	  x5:0x00000052  x3=0x00000010
       24375000	      2436	80001b9c	051d8293	addi	x5,x27,81	 x27:0x00000001  x5=0x00000052
       24385000	      2437	80001ba0	fff70713	addi	x14,x14,-1	 x14:0x00000009 x14=0x00000008
       24395000	      2438	80001ba4	01102633	slt	x12,x0,x17	  x0:0x00000000 x17:0x00000001 x12=0x00000001
       24405000	      2439	80001ba8	ff4776e3	bgeu	x14,x20,80001b94	 x14:0x00000008 x20:0x00000006
       24415000	      2440	00000000	00000013	addi	x0,x0,0	  x0:0x00000000
       24425000	      2441	80001b90	00000013	addi	x0,x0,0	  x0:0x00000000
       24435000	      2442	80001b94	00000013	addi	x0,x0,0	  x0:0x00000000
       24445000	      2443	80001b98	2bd2f193	andi	x3,x5,701	  x5:0x00000052  x3=0x00000010
       24455000	      2444	80001b9c	051d8293	addi	x5,x27,81	 x27:0x00000001  x5=0x00000052
       24465000	      2445	80001ba0	fff70713	addi	x14,x14,-1	 x14:0x00000008 x14=0x00000007
       24475000	      2446	80001ba4	01102633	slt	x12,x0,x17	  x0:0x00000000 x17:0x00000001 x12=0x00000001
       24485000	      2447	80001ba8	ff4776e3	bgeu	x14,x20,80001b94	 x14:0x00000007 x20:0x00000006
       24495000	      2448	00000000	00000013	addi	x0,x0,0	  x0:0x00000000
       24505000	      2449	80001b90	00000013	addi	x0,x0,0	  x0:0x00000000
       24515000	      2450	80001b94	00000013	addi	x0,x0,0	  x0:0x00000000
       24525000	      2451	80001b98	2bd2f193	andi	x3,x5,701	  x5:0x00000052  x3=0x00000010
       24535000	      2452	80001b9c	051d8293	addi	x5,x27,81	 x27:0x00000001  x5=0x00000052
       24545000	      2453	80001ba0	fff70713	addi	x14,x14,-1	 x14:0x00000007 x14=0x00000006
       24555000	      2454	80001ba4	01102633	slt	x12,x0,x17	  x0:0x00000000 x17:0x00000001 x12=0x00000001
       24565000	      2455	80001ba8	ff4776e3	bgeu	x14,x20,80001b94	 x14:0x00000006 x20:0x00000006
       24575000	      2456	00000000	00000013	addi	x0,x0,0	  x0:0x00000000
       24585000	      2457	80001b90	00000013	addi	x0,x0,0	  x0:0x00000000
       24595000	      2458	80001b94	00000013	addi	x0,x0,0	  x0:0x00000000
       24605000	      2459	80001b98	2bd2f193	andi	x3,x5,701	  x5:0x00000052  x3=0x00000010
       24615000	      2460	80001b9c	051d8293	addi	x5,x27,81	 x27:0x00000001  x5=0x00000052
       24625000	      2461	80001ba0	fff70713	addi	x14,x14,-1	 x14:0x00000006 x14=0x00000005
       24635000	      2462	80001ba4	01102633	slt	x12,x0,x17	  x0:0x00000000 x17:0x00000001 x12=0x00000001
       24645000	      2463	80001ba8	ff4776e3	bgeu	x14,x20,80001b94	 x14:0x00000005 x20:0x00000006
       24655000	      2464	80001bac	403303b3	sub	x7,x6,x3	  x6:0x00000363  x3:0x00000010  x7=0x00000353
       24665000	      2465	80001bb0	00644c33	xor	x24,x8,x6	  x8:0x00000363  x6:0x00000363 x24=0x00000000
       24675000	      2466	80001bb4	f6d08c13	addi	x24,x1,-147	  x1:0xffffffff x24=0xffffff6c
       24685000	      2467	80001bb8	6c4f4913	xori	x18,x30,1732	 x30:0x40000000 x18=0x400006c4
       24695000	      2468	80001bbc	fd7842e3	blt	x16,x23,80001b80	 x16:0x00000012 x23:0x00000012
       24705000	      2469	80001bc0	002a1033	sll	x0,x20,x2	 x20:0x00000006  x2:0xffffffed
       24715000	      2470	80001bc4	00800f13	addi	x30,x0,8	  x0:0x00000000 x30=0x00000008
       24725000	      2471	80001bc8	780e0413	addi	x8,x28,1920	 x28:0x00000000  x8=0x00000780
       24735000	      2472	80001bcc	fec00093	addi	x1,x0,-20	  x0:0x00000000  x1=0xffffffec
       24745000	      2473	80001bd0	018c9fb3	sll	x31,x25,x24	 x25:0xd51edb7c x24:0xffffff6c x31=0xedb7c000
       24755000	      2474	80001bd4	1c98e813	ori	x16,x17,457	 x17:0x00000001 x16=0x000001c9
       24765000	      2475	80001bd8	011edc93	srli	x25,x29,0x11	 x29:0x80009f60 x25=0x00004000
       24775000	      2476	80001bdc	e1af6713	ori	x14,x30,-486	 x30:0x00000008 x14=0xfffffe1a
       24785000	      2477	80001be0	008cf133	and	x2,x25,x8	 x25:0x00004000  x8:0x00000780  x2=0x00000000
       24795000	      2478	80001be4	ff7f0f13	addi	x30,x30,-9	 x30:0x00000008 x30=0xffffffff
       24805000	      2479	80001be8	01da96b3	sll	x13,x21,x29	 x21:0x00000001 x29:0x80009f60 x13=0x00000001
       24815000	      2480	80001bec	01f1e333	or	x6,x3,x31	  x3:0x00000010 x31:0xedb7c000  x6=0xedb7c010
       24825000	      2481	80001bf0	01f1efb3	or	x31,x3,x31	  x3:0x00000010 x31:0xedb7c000 x31=0xedb7c010
       24835000	      2482	80001bf4	ffd00d93	addi	x27,x0,-3	  x0:0x00000000 x27=0xfffffffd
       24845000	      2483	80001bf8	b6c2e117	auipc	x2,0xb6c2e	  x2=0x36c2fbf4
       24855000	      2484	80001bfc	00000013	addi	x0,x0,0	  x0:0x00000000
       24865000	      2485	80001c00	ff700a13	addi	x20,x0,-9	  x0:0x00000000 x20=0xfffffff7
       24875000	      2486	80001c04	41a55b93	srai	x23,x10,0x1a	 x10:0x00000000 x23=0x00000000
       24885000	      2487	80001c08	00b0a5b3	slt	x11,x1,x11	  x1:0xffffffec x11:0x80009d40 x11=0x00000000
       24895000	      2488	80001c0c	00537c33	and	x24,x6,x5	  x6:0xedb7c010  x5:0x00000052 x24=0x00000010
       24905000	      2489	80001c10	ffad8d93	addi	x27,x27,-6	 x27:0xfffffffd x27=0xfffffff7
       24915000	      2490	80001c14	004577b3	and	x15,x10,x4	 x10:0x00000000  x4:0x80009fc4 x15=0x00000000
       24925000	      2491	80001c18	014e7833	and	x16,x28,x20	 x28:0x00000000 x20:0xfffffff7 x16=0x00000000
       24935000	      2492	80001c1c	35bd5d37	lui	x26,0x35bd5	 x26=0x35bd5000
       24945000	      2493	80001c20	ff4d94e3	bne	x27,x20,80001c08	 x27:0xfffffff7 x20:0xfffffff7
       24955000	      2494	80001c24	003a6833	or	x16,x20,x3	 x20:0xfffffff7  x3:0x00000010 x16=0xfffffff7
       24965000	      2495	80001c28	fa1f56e3	bge	x30,x1,80001bd4	 x30:0xffffffff  x1:0xffffffec
       24975000	      2496	00000000	00000013	addi	x0,x0,0	  x0:0x00000000
       24985000	      2497	80001bd0	00000013	addi	x0,x0,0	  x0:0x00000000
       24995000	      2498	80001bd4	1c98e813	ori	x16,x17,457	 x17:0x00000001 x16=0x000001c9
       25005000	      2499	80001bd8	011edc93	srli	x25,x29,0x11	 x29:0x80009f60 x25=0x00004000
       25015000	      2500	80001bdc	e1af6713	ori	x14,x30,-486	 x30:0xffffffff x14=0xffffffff
       25025000	      2501	80001be0	008cf133	and	x2,x25,x8	 x25:0x00004000  x8:0x00000780  x2=0x00000000
       25035000	      2502	80001be4	ff7f0f13	addi	x30,x30,-9	 x30:0xffffffff x30=0xfffffff6
       25045000	      2503	80001be8	01da96b3	sll	x13,x21,x29	 x21:0x00000001 x29:0x80009f60 x13=0x00000001
       25055000	      2504	80001bec	01f1e333	or	x6,x3,x31	  x3:0x00000010 x31:0xedb7c010  x6=0xedb7c010
       25065000	      2505	80001bf0	01f1efb3	or	x31,x3,x31	  x3:0x00000010 x31:0xedb7c010 x31=0xedb7c010
       25075000	      2506	80001bf4	ffd00d93	addi	x27,x0,-3	  x0:0x00000000 x27=0xfffffffd
       25085000	      2507	80001bf8	b6c2e117	auipc	x2,0xb6c2e	  x2=0x36c2fbf4
       25095000	      2508	80001bfc	00000013	addi	x0,x0,0	  x0:0x00000000
       25105000	      2509	80001c00	ff700a13	addi	x20,x0,-9	  x0:0x00000000 x20=0xfffffff7
       25115000	      2510	80001c04	41a55b93	srai	x23,x10,0x1a	 x10:0x00000000 x23=0x00000000
       25125000	      2511	80001c08	00b0a5b3	slt	x11,x1,x11	  x1:0xffffffec x11:0x00000000 x11=0x00000001
       25135000	      2512	80001c0c	00537c33	and	x24,x6,x5	  x6:0xedb7c010  x5:0x00000052 x24=0x00000010
       25145000	      2513	80001c10	ffad8d93	addi	x27,x27,-6	 x27:0xfffffffd x27=0xfffffff7
       25155000	      2514	80001c14	004577b3	and	x15,x10,x4	 x10:0x00000000  x4:0x80009fc4 x15=0x00000000
       25165000	      2515	80001c18	014e7833	and	x16,x28,x20	 x28:0x00000000 x20:0xfffffff7 x16=0x00000000
       25175000	      2516	80001c1c	35bd5d37	lui	x26,0x35bd5	 x26=0x35bd5000
       25185000	      2517	80001c20	ff4d94e3	bne	x27,x20,80001c08	 x27:0xfffffff7 x20:0xfffffff7
       25195000	      2518	80001c24	003a6833	or	x16,x20,x3	 x20:0xfffffff7  x3:0x00000010 x16=0xfffffff7
       25205000	      2519	80001c28	fa1f56e3	bge	x30,x1,80001bd4	 x30:0xfffffff6  x1:0xffffffec
       25215000	      2520	00000000	00000013	addi	x0,x0,0	  x0:0x00000000
       25225000	      2521	80001bd0	00000013	addi	x0,x0,0	  x0:0x00000000
       25235000	      2522	80001bd4	1c98e813	ori	x16,x17,457	 x17:0x00000001 x16=0x000001c9
       25245000	      2523	80001bd8	011edc93	srli	x25,x29,0x11	 x29:0x80009f60 x25=0x00004000
       25255000	      2524	80001bdc	e1af6713	ori	x14,x30,-486	 x30:0xfffffff6 x14=0xfffffffe
       25265000	      2525	80001be0	008cf133	and	x2,x25,x8	 x25:0x00004000  x8:0x00000780  x2=0x00000000
       25275000	      2526	80001be4	ff7f0f13	addi	x30,x30,-9	 x30:0xfffffff6 x30=0xffffffed
       25285000	      2527	80001be8	01da96b3	sll	x13,x21,x29	 x21:0x00000001 x29:0x80009f60 x13=0x00000001
       25295000	      2528	80001bec	01f1e333	or	x6,x3,x31	  x3:0x00000010 x31:0xedb7c010  x6=0xedb7c010
       25305000	      2529	80001bf0	01f1efb3	or	x31,x3,x31	  x3:0x00000010 x31:0xedb7c010 x31=0xedb7c010
       25315000	      2530	80001bf4	ffd00d93	addi	x27,x0,-3	  x0:0x00000000 x27=0xfffffffd
       25325000	      2531	80001bf8	b6c2e117	auipc	x2,0xb6c2e	  x2=0x36c2fbf4
       25335000	      2532	80001bfc	00000013	addi	x0,x0,0	  x0:0x00000000
       25345000	      2533	80001c00	ff700a13	addi	x20,x0,-9	  x0:0x00000000 x20=0xfffffff7
       25355000	      2534	80001c04	41a55b93	srai	x23,x10,0x1a	 x10:0x00000000 x23=0x00000000
       25365000	      2535	80001c08	00b0a5b3	slt	x11,x1,x11	  x1:0xffffffec x11:0x00000001 x11=0x00000001
       25375000	      2536	80001c0c	00537c33	and	x24,x6,x5	  x6:0xedb7c010  x5:0x00000052 x24=0x00000010
       25385000	      2537	80001c10	ffad8d93	addi	x27,x27,-6	 x27:0xfffffffd x27=0xfffffff7
       25395000	      2538	80001c14	004577b3	and	x15,x10,x4	 x10:0x00000000  x4:0x80009fc4 x15=0x00000000
       25405000	      2539	80001c18	014e7833	and	x16,x28,x20	 x28:0x00000000 x20:0xfffffff7 x16=0x00000000
       25415000	      2540	80001c1c	35bd5d37	lui	x26,0x35bd5	 x26=0x35bd5000
       25425000	      2541	80001c20	ff4d94e3	bne	x27,x20,80001c08	 x27:0xfffffff7 x20:0xfffffff7
       25435000	      2542	80001c24	003a6833	or	x16,x20,x3	 x20:0xfffffff7  x3:0x00000010 x16=0xfffffff7
       25445000	      2543	80001c28	fa1f56e3	bge	x30,x1,80001bd4	 x30:0xffffffed  x1:0xffffffec
       25455000	      2544	00000000	00000013	addi	x0,x0,0	  x0:0x00000000
       25465000	      2545	80001bd0	00000013	addi	x0,x0,0	  x0:0x00000000
       25475000	      2546	80001bd4	1c98e813	ori	x16,x17,457	 x17:0x00000001 x16=0x000001c9
       25485000	      2547	80001bd8	011edc93	srli	x25,x29,0x11	 x29:0x80009f60 x25=0x00004000
       25495000	      2548	80001bdc	e1af6713	ori	x14,x30,-486	 x30:0xffffffed x14=0xffffffff
       25505000	      2549	80001be0	008cf133	and	x2,x25,x8	 x25:0x00004000  x8:0x00000780  x2=0x00000000
       25515000	      2550	80001be4	ff7f0f13	addi	x30,x30,-9	 x30:0xffffffed x30=0xffffffe4
       25525000	      2551	80001be8	01da96b3	sll	x13,x21,x29	 x21:0x00000001 x29:0x80009f60 x13=0x00000001
       25535000	      2552	80001bec	01f1e333	or	x6,x3,x31	  x3:0x00000010 x31:0xedb7c010  x6=0xedb7c010
       25545000	      2553	80001bf0	01f1efb3	or	x31,x3,x31	  x3:0x00000010 x31:0xedb7c010 x31=0xedb7c010
       25555000	      2554	80001bf4	ffd00d93	addi	x27,x0,-3	  x0:0x00000000 x27=0xfffffffd
       25565000	      2555	80001bf8	b6c2e117	auipc	x2,0xb6c2e	  x2=0x36c2fbf4
       25575000	      2556	80001bfc	00000013	addi	x0,x0,0	  x0:0x00000000
       25585000	      2557	80001c00	ff700a13	addi	x20,x0,-9	  x0:0x00000000 x20=0xfffffff7
       25595000	      2558	80001c04	41a55b93	srai	x23,x10,0x1a	 x10:0x00000000 x23=0x00000000
       25605000	      2559	80001c08	00b0a5b3	slt	x11,x1,x11	  x1:0xffffffec x11:0x00000001 x11=0x00000001
       25615000	      2560	80001c0c	00537c33	and	x24,x6,x5	  x6:0xedb7c010  x5:0x00000052 x24=0x00000010
       25625000	      2561	80001c10	ffad8d93	addi	x27,x27,-6	 x27:0xfffffffd x27=0xfffffff7
       25635000	      2562	80001c14	004577b3	and	x15,x10,x4	 x10:0x00000000  x4:0x80009fc4 x15=0x00000000
       25645000	      2563	80001c18	014e7833	and	x16,x28,x20	 x28:0x00000000 x20:0xfffffff7 x16=0x00000000
       25655000	      2564	80001c1c	35bd5d37	lui	x26,0x35bd5	 x26=0x35bd5000
       25665000	      2565	80001c20	ff4d94e3	bne	x27,x20,80001c08	 x27:0xfffffff7 x20:0xfffffff7
       25675000	      2566	80001c24	003a6833	or	x16,x20,x3	 x20:0xfffffff7  x3:0x00000010 x16=0xfffffff7
       25685000	      2567	80001c28	fa1f56e3	bge	x30,x1,80001bd4	 x30:0xffffffe4  x1:0xffffffec
       25695000	      2568	80001c2c	01af2133	slt	x2,x30,x26	 x30:0xffffffe4 x26:0x35bd5000  x2=0x00000001
       25705000	      2569	80001c30	00600b93	addi	x23,x0,6	  x0:0x00000000 x23=0x00000006
       25715000	      2570	80001c34	41f0d793	srai	x15,x1,0x1f	  x1:0xffffffec x15=0xffffffff
       25725000	      2571	80001c38	a0dc2fb7	lui	x31,0xa0dc2	 x31=0xa0dc2000
       25735000	      2572	80001c3c	01db09b3	add	x19,x22,x29	 x22:0x00000000 x29:0x80009f60 x19=0x80009f60
       25745000	      2573	80001c40	b1f8f813	andi	x16,x17,-1249	 x17:0x00000001 x16=0x00000001
       25755000	      2574	80001c44	017ab533	sltu	x10,x21,x23	 x21:0x00000001 x23:0x00000006 x10=0x00000001
       25765000	      2575	80001c48	00000013	addi	x0,x0,0	  x0:0x00000000
       25775000	      2576	80001c4c	00f00193	addi	x3,x0,15	  x0:0x00000000  x3=0x0000000f
       25785000	      2577	80001c50	7eb3e013	ori	x0,x7,2027	  x7:0x00000353
       25795000	      2578	80001c54	74d67b13	andi	x22,x12,1869	 x12:0x00000001 x22=0x00000001
       25805000	      2579	80001c58	012b9993	slli	x19,x23,0x12	 x23:0x00000006 x19=0x00180000
       25815000	      2580	80001c5c	727aaf93	slti	x31,x21,1831	 x21:0x00000001 x31=0x00000001
       25825000	      2581	80001c60	01dc3333	sltu	x6,x24,x29	 x24:0x00000010 x29:0x80009f60  x6=0x00000001
       25835000	      2582	80001c64	bf2ccc13	xori	x24,x25,-1038	 x25:0x00004000 x24=0xffffbbf2
       25845000	      2583	80001c68	d3293613	sltiu	x12,x18,-718	 x18:0x400006c4 x12=0x00000001
       25855000	      2584	80001c6c	403b8133	sub	x2,x23,x3	 x23:0x00000006  x3:0x0000000f  x2=0xfffffff7
       25865000	      2585	80001c70	2cc4c513	xori	x10,x9,716	  x9:0x00000001 x10=0x000002cd
       25875000	      2586	80001c74	007a5b33	srl	x22,x20,x7	 x20:0xfffffff7  x7:0x00000353 x22=0x00001fff
       25885000	      2587	80001c78	cf065c37	lui	x24,0xcf065	 x24=0xcf065000
       25895000	      2588	80001c7c	002b8b93	addi	x23,x23,2	 x23:0x00000006 x23=0x00000008
       25905000	      2589	80001c80	0b4d7893	andi	x17,x26,180	 x26:0x35bd5000 x17=0x00000000
       25915000	      2590	80001c84	014815b3	sll	x11,x16,x20	 x16:0x00000001 x20:0xfffffff7 x11=0x00800000
       25925000	      2591	80001c88	01f39593	slli	x11,x7,0x1f	  x7:0x00000353 x11=0x80000000
       25935000	      2592	80001c8c	00000013	addi	x0,x0,0	  x0:0x00000000
       25945000	      2593	80001c90	fc3be6e3	bltu	x23,x3,80001c5c	 x23:0x00000008  x3:0x0000000f
       25955000	      2594	00000000	00000013	addi	x0,x0,0	  x0:0x00000000
       25965000	      2595	80001c58	00000013	addi	x0,x0,0	  x0:0x00000000
       25975000	      2596	80001c5c	727aaf93	slti	x31,x21,1831	 x21:0x00000001 x31=0x00000001
       25985000	      2597	80001c60	01dc3333	sltu	x6,x24,x29	 x24:0xcf065000 x29:0x80009f60  x6=0x00000000
       25995000	      2598	80001c64	bf2ccc13	xori	x24,x25,-1038	 x25:0x00004000 x24=0xffffbbf2
       26005000	      2599	80001c68	d3293613	sltiu	x12,x18,-718	 x18:0x400006c4 x12=0x00000001
       26015000	      2600	80001c6c	403b8133	sub	x2,x23,x3	 x23:0x00000008  x3:0x0000000f  x2=0xfffffff9
       26025000	      2601	80001c70	2cc4c513	xori	x10,x9,716	  x9:0x00000001 x10=0x000002cd
       26035000	      2602	80001c74	007a5b33	srl	x22,x20,x7	 x20:0xfffffff7  x7:0x00000353 x22=0x00001fff
       26045000	      2603	80001c78	cf065c37	lui	x24,0xcf065	 x24=0xcf065000
       26055000	      2604	80001c7c	002b8b93	addi	x23,x23,2	 x23:0x00000008 x23=0x0000000a
       26065000	      2605	80001c80	0b4d7893	andi	x17,x26,180	 x26:0x35bd5000 x17=0x00000000
       26075000	      2606	80001c84	014815b3	sll	x11,x16,x20	 x16:0x00000001 x20:0xfffffff7 x11=0x00800000
       26085000	      2607	80001c88	01f39593	slli	x11,x7,0x1f	  x7:0x00000353 x11=0x80000000
       26095000	      2608	80001c8c	00000013	addi	x0,x0,0	  x0:0x00000000
       26105000	      2609	80001c90	fc3be6e3	bltu	x23,x3,80001c5c	 x23:0x0000000a  x3:0x0000000f
       26115000	      2610	00000000	00000013	addi	x0,x0,0	  x0:0x00000000
       26125000	      2611	80001c58	00000013	addi	x0,x0,0	  x0:0x00000000
       26135000	      2612	80001c5c	727aaf93	slti	x31,x21,1831	 x21:0x00000001 x31=0x00000001
       26145000	      2613	80001c60	01dc3333	sltu	x6,x24,x29	 x24:0xcf065000 x29:0x80009f60  x6=0x00000000
       26155000	      2614	80001c64	bf2ccc13	xori	x24,x25,-1038	 x25:0x00004000 x24=0xffffbbf2
       26165000	      2615	80001c68	d3293613	sltiu	x12,x18,-718	 x18:0x400006c4 x12=0x00000001
       26175000	      2616	80001c6c	403b8133	sub	x2,x23,x3	 x23:0x0000000a  x3:0x0000000f  x2=0xfffffffb
       26185000	      2617	80001c70	2cc4c513	xori	x10,x9,716	  x9:0x00000001 x10=0x000002cd
       26195000	      2618	80001c74	007a5b33	srl	x22,x20,x7	 x20:0xfffffff7  x7:0x00000353 x22=0x00001fff
       26205000	      2619	80001c78	cf065c37	lui	x24,0xcf065	 x24=0xcf065000
       26215000	      2620	80001c7c	002b8b93	addi	x23,x23,2	 x23:0x0000000a x23=0x0000000c
       26225000	      2621	80001c80	0b4d7893	andi	x17,x26,180	 x26:0x35bd5000 x17=0x00000000
       26235000	      2622	80001c84	014815b3	sll	x11,x16,x20	 x16:0x00000001 x20:0xfffffff7 x11=0x00800000
       26245000	      2623	80001c88	01f39593	slli	x11,x7,0x1f	  x7:0x00000353 x11=0x80000000
       26255000	      2624	80001c8c	00000013	addi	x0,x0,0	  x0:0x00000000
       26265000	      2625	80001c90	fc3be6e3	bltu	x23,x3,80001c5c	 x23:0x0000000c  x3:0x0000000f
       26275000	      2626	00000000	00000013	addi	x0,x0,0	  x0:0x00000000
       26285000	      2627	80001c58	00000013	addi	x0,x0,0	  x0:0x00000000
       26295000	      2628	80001c5c	727aaf93	slti	x31,x21,1831	 x21:0x00000001 x31=0x00000001
       26305000	      2629	80001c60	01dc3333	sltu	x6,x24,x29	 x24:0xcf065000 x29:0x80009f60  x6=0x00000000
       26315000	      2630	80001c64	bf2ccc13	xori	x24,x25,-1038	 x25:0x00004000 x24=0xffffbbf2
       26325000	      2631	80001c68	d3293613	sltiu	x12,x18,-718	 x18:0x400006c4 x12=0x00000001
       26335000	      2632	80001c6c	403b8133	sub	x2,x23,x3	 x23:0x0000000c  x3:0x0000000f  x2=0xfffffffd
       26345000	      2633	80001c70	2cc4c513	xori	x10,x9,716	  x9:0x00000001 x10=0x000002cd
       26355000	      2634	80001c74	007a5b33	srl	x22,x20,x7	 x20:0xfffffff7  x7:0x00000353 x22=0x00001fff
       26365000	      2635	80001c78	cf065c37	lui	x24,0xcf065	 x24=0xcf065000
       26375000	      2636	80001c7c	002b8b93	addi	x23,x23,2	 x23:0x0000000c x23=0x0000000e
       26385000	      2637	80001c80	0b4d7893	andi	x17,x26,180	 x26:0x35bd5000 x17=0x00000000
       26395000	      2638	80001c84	014815b3	sll	x11,x16,x20	 x16:0x00000001 x20:0xfffffff7 x11=0x00800000
       26405000	      2639	80001c88	01f39593	slli	x11,x7,0x1f	  x7:0x00000353 x11=0x80000000
       26415000	      2640	80001c8c	00000013	addi	x0,x0,0	  x0:0x00000000
       26425000	      2641	80001c90	fc3be6e3	bltu	x23,x3,80001c5c	 x23:0x0000000e  x3:0x0000000f
       26435000	      2642	00000000	00000013	addi	x0,x0,0	  x0:0x00000000
       26445000	      2643	80001c58	00000013	addi	x0,x0,0	  x0:0x00000000
       26455000	      2644	80001c5c	727aaf93	slti	x31,x21,1831	 x21:0x00000001 x31=0x00000001
       26465000	      2645	80001c60	01dc3333	sltu	x6,x24,x29	 x24:0xcf065000 x29:0x80009f60  x6=0x00000000
       26475000	      2646	80001c64	bf2ccc13	xori	x24,x25,-1038	 x25:0x00004000 x24=0xffffbbf2
       26485000	      2647	80001c68	d3293613	sltiu	x12,x18,-718	 x18:0x400006c4 x12=0x00000001
       26495000	      2648	80001c6c	403b8133	sub	x2,x23,x3	 x23:0x0000000e  x3:0x0000000f  x2=0xffffffff
       26505000	      2649	80001c70	2cc4c513	xori	x10,x9,716	  x9:0x00000001 x10=0x000002cd
       26515000	      2650	80001c74	007a5b33	srl	x22,x20,x7	 x20:0xfffffff7  x7:0x00000353 x22=0x00001fff
       26525000	      2651	80001c78	cf065c37	lui	x24,0xcf065	 x24=0xcf065000
       26535000	      2652	80001c7c	002b8b93	addi	x23,x23,2	 x23:0x0000000e x23=0x00000010
       26545000	      2653	80001c80	0b4d7893	andi	x17,x26,180	 x26:0x35bd5000 x17=0x00000000
       26555000	      2654	80001c84	014815b3	sll	x11,x16,x20	 x16:0x00000001 x20:0xfffffff7 x11=0x00800000
       26565000	      2655	80001c88	01f39593	slli	x11,x7,0x1f	  x7:0x00000353 x11=0x80000000
       26575000	      2656	80001c8c	00000013	addi	x0,x0,0	  x0:0x00000000
       26585000	      2657	80001c90	fc3be6e3	bltu	x23,x3,80001c5c	 x23:0x00000010  x3:0x0000000f
       26595000	      2658	80001c94	01acd3b3	srl	x7,x25,x26	 x25:0x00004000 x26:0x35bd5000  x7=0x00004000
       26605000	      2659	80001c98	ffb00813	addi	x16,x0,-5	  x0:0x00000000 x16=0xfffffffb
       26615000	      2660	80001c9c	ff700993	addi	x19,x0,-9	  x0:0x00000000 x19=0xfffffff7
       26625000	      2661	80001ca0	41acd2b3	sra	x5,x25,x26	 x25:0x00004000 x26:0x35bd5000  x5=0x00004000
       26635000	      2662	80001ca4	1752a393	slti	x7,x5,373	  x5:0x00004000  x7=0x00000000
       26645000	      2663	80001ca8	ffc80813	addi	x16,x16,-4	 x16:0xfffffffb x16=0xfffffff7
       26655000	      2664	80001cac	ffa00613	addi	x12,x0,-6	  x0:0x00000000 x12=0xfffffffa
       26665000	      2665	80001cb0	00610ab3	add	x21,x2,x6	  x2:0xffffffff  x6:0x00000000 x21=0xffffffff
       26675000	      2666	80001cb4	017cbfb3	sltu	x31,x25,x23	 x25:0x00004000 x23:0x00000010 x31=0x00000000
       26685000	      2667	80001cb8	ff200d13	addi	x26,x0,-14	  x0:0x00000000 x26=0xfffffff2
       26695000	      2668	80001cbc	d9bd1437	lui	x8,0xd9bd1	  x8=0xd9bd1000
       26705000	      2669	80001cc0	014afb33	and	x22,x21,x20	 x21:0xffffffff x20:0xfffffff7 x22=0xfffffff7
       26715000	      2670	80001cc4	ff860613	addi	x12,x12,-8	 x12:0xfffffffa x12=0xfffffff2
       26725000	      2671	80001cc8	ffa61ae3	bne	x12,x26,80001cbc	 x12:0xfffffff2 x26:0xfffffff2
       26735000	      2672	80001ccc	fd380ce3	beq	x16,x19,80001ca4	 x16:0xfffffff7 x19:0xfffffff7
       26745000	      2673	00000000	00000013	addi	x0,x0,0	  x0:0x00000000
       26755000	      2674	80001ca0	00000013	addi	x0,x0,0	  x0:0x00000000
       26765000	      2675	80001ca4	1752a393	slti	x7,x5,373	  x5:0x00004000  x7=0x00000000
       26775000	      2676	80001ca8	ffc80813	addi	x16,x16,-4	 x16:0xfffffff7 x16=0xfffffff3
       26785000	      2677	80001cac	ffa00613	addi	x12,x0,-6	  x0:0x00000000 x12=0xfffffffa
       26795000	      2678	80001cb0	00610ab3	add	x21,x2,x6	  x2:0xffffffff  x6:0x00000000 x21=0xffffffff
       26805000	      2679	80001cb4	017cbfb3	sltu	x31,x25,x23	 x25:0x00004000 x23:0x00000010 x31=0x00000000
       26815000	      2680	80001cb8	ff200d13	addi	x26,x0,-14	  x0:0x00000000 x26=0xfffffff2
       26825000	      2681	80001cbc	d9bd1437	lui	x8,0xd9bd1	  x8=0xd9bd1000
       26835000	      2682	80001cc0	014afb33	and	x22,x21,x20	 x21:0xffffffff x20:0xfffffff7 x22=0xfffffff7
       26845000	      2683	80001cc4	ff860613	addi	x12,x12,-8	 x12:0xfffffffa x12=0xfffffff2
       26855000	      2684	80001cc8	ffa61ae3	bne	x12,x26,80001cbc	 x12:0xfffffff2 x26:0xfffffff2
       26865000	      2685	80001ccc	fd380ce3	beq	x16,x19,80001ca4	 x16:0xfffffff3 x19:0xfffffff7
       26875000	      2686	80001cd0	01604f33	xor	x30,x0,x22	  x0:0x00000000 x22:0xfffffff7 x30=0xfffffff7
       26885000	      2687	80001cd4	00a00293	addi	x5,x0,10	  x0:0x00000000  x5=0x0000000a
       26895000	      2688	80001cd8	003bf0b3	and	x1,x23,x3	 x23:0x00000010  x3:0x0000000f  x1=0x00000000
       26905000	      2689	80001cdc	005ba7b3	slt	x15,x23,x5	 x23:0x00000010  x5:0x0000000a x15=0x00000000
       26915000	      2690	80001ce0	00600413	addi	x8,x0,6	  x0:0x00000000  x8=0x00000006
       26925000	      2691	80001ce4	40e5d833	sra	x16,x11,x14	 x11:0x80000000 x14:0xffffffff x16=0xffffffff
       26935000	      2692	80001ce8	e626f793	andi	x15,x13,-414	 x13:0x00000001 x15=0x00000000
       26945000	      2693	80001cec	00000013	addi	x0,x0,0	  x0:0x00000000
       26955000	      2694	80001cf0	00b2e133	or	x2,x5,x11	  x5:0x0000000a x11:0x80000000  x2=0x8000000a
       26965000	      2695	80001cf4	ffb28293	addi	x5,x5,-5	  x5:0x0000000a  x5=0x00000005
       26975000	      2696	80001cf8	008ce733	or	x14,x25,x8	 x25:0x00004000  x8:0x00000006 x14=0x00004006
       26985000	      2697	80001cfc	0164c933	xor	x18,x9,x22	  x9:0x00000001 x22:0xfffffff7 x18=0xfffffff6
       26995000	      2698	80001d00	91b94117	auipc	x2,0x91b94	  x2=0x11b95cfc
       27005000	      2699	80001d04	28f8e797	auipc	x15,0x28f8e	 x15=0xa8f8fd00
       27015000	      2700	80001d08	fe82f2e3	bgeu	x5,x8,80001cec	  x5:0x00000005  x8:0x00000006
       27025000	      2701	80001d0c	2826a913	slti	x18,x13,642	 x13:0x00000001 x18=0x00000001
       27035000	      2702	80001d10	00500113	addi	x2,x0,5	  x0:0x00000000  x2=0x00000005
       27045000	      2703	80001d14	00de1593	slli	x11,x28,0xd	 x28:0x00000000 x11=0x00000000
       27055000	      2704	80001d18	5637e297	auipc	x5,0x5637e	  x5=0xd637fd14
       27065000	      2705	80001d1c	3a48c193	xori	x3,x17,932	 x17:0x00000000  x3=0x000003a4
       27075000	      2706	80001d20	01027633	and	x12,x4,x16	  x4:0x80009fc4 x16:0xffffffff x12=0x80009fc4
       27085000	      2707	80001d24	009d17b3	sll	x15,x26,x9	 x26:0xfffffff2  x9:0x00000001 x15=0xffffffe4
       27095000	      2708	80001d28	001eb333	sltu	x6,x29,x1	 x29:0x80009f60  x1:0x00000000  x6=0x00000000
       27105000	      2709	80001d2c	00000013	addi	x0,x0,0	  x0:0x00000000
       27115000	      2710	80001d30	8f105ab7	lui	x21,0x8f105	 x21=0x8f105000
       27125000	      2711	80001d34	0032e6b3	or	x13,x5,x3	  x5:0xd637fd14  x3:0x000003a4 x13=0xd637ffb4
       27135000	      2712	80001d38	007fd7b3	srl	x15,x31,x7	 x31:0x00000000  x7:0x00000000 x15=0x00000000
       27145000	      2713	80001d3c	00f00b13	addi	x22,x0,15	  x0:0x00000000 x22=0x0000000f
       27155000	      2714	80001d40	00489533	sll	x10,x17,x4	 x17:0x00000000  x4:0x80009fc4 x10=0x00000000
       27165000	      2715	80001d44	40edd513	srai	x10,x27,0xe	 x27:0xfffffff7 x10=0xffffffff
       27175000	      2716	80001d48	014f7833	and	x16,x30,x20	 x30:0xfffffff7 x20:0xfffffff7 x16=0xfffffff7
       27185000	      2717	80001d4c	40e1dc93	srai	x25,x3,0xe	  x3:0x000003a4 x25=0x00000000
       27195000	      2718	80001d50	00c96633	or	x12,x18,x12	 x18:0x00000001 x12:0x80009fc4 x12=0x80009fc5
       27205000	      2719	80001d54	000ff3b3	and	x7,x31,x0	 x31:0x00000000  x0:0x00000000  x7=0x00000000
       27215000	      2720	80001d58	00810113	addi	x2,x2,8	  x2:0x00000005  x2=0x0000000d
       27225000	      2721	80001d5c	00f0d033	srl	x0,x1,x15	  x1:0x00000000 x15:0x00000000
       27235000	      2722	80001d60	86670513	addi	x10,x14,-1946	 x14:0x00004006 x10=0x0000386c
       27245000	      2723	80001d64	ff6162e3	bltu	x2,x22,80001d48	  x2:0x0000000d x22:0x0000000f
       27255000	      2724	00000000	00000013	addi	x0,x0,0	  x0:0x00000000
       27265000	      2725	80001d44	00000013	addi	x0,x0,0	  x0:0x00000000
       27275000	      2726	80001d48	014f7833	and	x16,x30,x20	 x30:0xfffffff7 x20:0xfffffff7 x16=0xfffffff7
       27285000	      2727	80001d4c	40e1dc93	srai	x25,x3,0xe	  x3:0x000003a4 x25=0x00000000
       27295000	      2728	80001d50	00c96633	or	x12,x18,x12	 x18:0x00000001 x12:0x80009fc5 x12=0x80009fc5
       27305000	      2729	80001d54	000ff3b3	and	x7,x31,x0	 x31:0x00000000  x0:0x00000000  x7=0x00000000
       27315000	      2730	80001d58	00810113	addi	x2,x2,8	  x2:0x0000000d  x2=0x00000015
       27325000	      2731	80001d5c	00f0d033	srl	x0,x1,x15	  x1:0x00000000 x15:0x00000000
       27335000	      2732	80001d60	86670513	addi	x10,x14,-1946	 x14:0x00004006 x10=0x0000386c
       27345000	      2733	80001d64	ff6162e3	bltu	x2,x22,80001d48	  x2:0x00000015 x22:0x0000000f
       27355000	      2734	80001d68	00a65893	srli	x17,x12,0xa	 x12:0x80009fc5 x17=0x00200027
       27365000	      2735	80001d6c	00700d93	addi	x27,x0,7	  x0:0x00000000 x27=0x00000007
       27375000	      2736	80001d70	00d00313	addi	x6,x0,13	  x0:0x00000000  x6=0x0000000d
       27385000	      2737	80001d74	307b3093	sltiu	x1,x22,775	 x22:0x0000000f  x1=0x00000001
       27395000	      2738	80001d78	002d8d93	addi	x27,x27,2	 x27:0x00000007 x27=0x00000009
       27405000	      2739	80001d7c	00a00893	addi	x17,x0,10	  x0:0x00000000 x17=0x0000000a
       27415000	      2740	80001d80	00a00a93	addi	x21,x0,10	  x0:0x00000000 x21=0x0000000a
       27425000	      2741	80001d84	005649b3	xor	x19,x12,x5	 x12:0x80009fc5  x5:0xd637fd14 x19=0x563762d1
       27435000	      2742	80001d88	ff788893	addi	x17,x17,-9	 x17:0x0000000a x17=0x00000001
       27445000	      2743	80001d8c	ff58fce3	bgeu	x17,x21,80001d84	 x17:0x00000001 x21:0x0000000a
       27455000	      2744	80001d90	fe6dc2e3	blt	x27,x6,80001d74	 x27:0x00000009  x6:0x0000000d
       27465000	      2745	00000000	00000013	addi	x0,x0,0	  x0:0x00000000
       27475000	      2746	80001d70	00000013	addi	x0,x0,0	  x0:0x00000000
       27485000	      2747	80001d74	307b3093	sltiu	x1,x22,775	 x22:0x0000000f  x1=0x00000001
       27495000	      2748	80001d78	002d8d93	addi	x27,x27,2	 x27:0x00000009 x27=0x0000000b
       27505000	      2749	80001d7c	00a00893	addi	x17,x0,10	  x0:0x00000000 x17=0x0000000a
       27515000	      2750	80001d80	00a00a93	addi	x21,x0,10	  x0:0x00000000 x21=0x0000000a
       27525000	      2751	80001d84	005649b3	xor	x19,x12,x5	 x12:0x80009fc5  x5:0xd637fd14 x19=0x563762d1
       27535000	      2752	80001d88	ff788893	addi	x17,x17,-9	 x17:0x0000000a x17=0x00000001
       27545000	      2753	80001d8c	ff58fce3	bgeu	x17,x21,80001d84	 x17:0x00000001 x21:0x0000000a
       27555000	      2754	80001d90	fe6dc2e3	blt	x27,x6,80001d74	 x27:0x0000000b  x6:0x0000000d
       27565000	      2755	00000000	00000013	addi	x0,x0,0	  x0:0x00000000
       27575000	      2756	80001d70	00000013	addi	x0,x0,0	  x0:0x00000000
       27585000	      2757	80001d74	307b3093	sltiu	x1,x22,775	 x22:0x0000000f  x1=0x00000001
       27595000	      2758	80001d78	002d8d93	addi	x27,x27,2	 x27:0x0000000b x27=0x0000000d
       27605000	      2759	80001d7c	00a00893	addi	x17,x0,10	  x0:0x00000000 x17=0x0000000a
       27615000	      2760	80001d80	00a00a93	addi	x21,x0,10	  x0:0x00000000 x21=0x0000000a
       27625000	      2761	80001d84	005649b3	xor	x19,x12,x5	 x12:0x80009fc5  x5:0xd637fd14 x19=0x563762d1
       27635000	      2762	80001d88	ff788893	addi	x17,x17,-9	 x17:0x0000000a x17=0x00000001
       27645000	      2763	80001d8c	ff58fce3	bgeu	x17,x21,80001d84	 x17:0x00000001 x21:0x0000000a
       27655000	      2764	80001d90	fe6dc2e3	blt	x27,x6,80001d74	 x27:0x0000000d  x6:0x0000000d
       27665000	      2765	80001d94	0305c113	xori	x2,x11,48	 x11:0x00000000  x2=0x00000030
       27675000	      2766	80001d98	00100e13	addi	x28,x0,1	  x0:0x00000000 x28=0x00000001
       27685000	      2767	80001d9c	011682b3	add	x5,x13,x17	 x13:0xd637ffb4 x17:0x00000001  x5=0xd637ffb5
       27695000	      2768	80001da0	c3e24a93	xori	x21,x4,-962	  x4:0x80009fc4 x21=0x7fff63fa
       27705000	      2769	80001da4	ff400413	addi	x8,x0,-12	  x0:0x00000000  x8=0xfffffff4
       27715000	      2770	80001da8	91f94313	xori	x6,x18,-1761	 x18:0x00000001  x6=0xfffff91e
       27725000	      2771	80001dac	01963cb3	sltu	x25,x12,x25	 x12:0x80009fc5 x25:0x00000000 x25=0x00000000
       27735000	      2772	80001db0	ffce0e13	addi	x28,x28,-4	 x28:0x00000001 x28=0xfffffffd
       27745000	      2773	80001db4	007262b3	or	x5,x4,x7	  x4:0x80009fc4  x7:0x00000000  x5=0x80009fc4
       27755000	      2774	80001db8	00900513	addi	x10,x0,9	  x0:0x00000000 x10=0x00000009
       27765000	      2775	80001dbc	00700393	addi	x7,x0,7	  x0:0x00000000  x7=0x00000007
       27775000	      2776	80001dc0	00e48633	add	x12,x9,x14	  x9:0x00000001 x14:0x00004006 x12=0x00004007
       27785000	      2777	80001dc4	6cf6cb17	auipc	x22,0x6cf6c	 x22=0xecf6ddc0
       27795000	      2778	80001dc8	fff50513	addi	x10,x10,-1	 x10:0x00000009 x10=0x00000008
       27805000	      2779	80001dcc	fe757ce3	bgeu	x10,x7,80001dc4	 x10:0x00000008  x7:0x00000007
       27815000	      2780	00000000	00000013	addi	x0,x0,0	  x0:0x00000000
       27825000	      2781	80001dc0	00000013	addi	x0,x0,0	  x0:0x00000000
       27835000	      2782	80001dc4	6cf6cb17	auipc	x22,0x6cf6c	 x22=0xecf6ddc0
       27845000	      2783	80001dc8	fff50513	addi	x10,x10,-1	 x10:0x00000008 x10=0x00000007
       27855000	      2784	80001dcc	fe757ce3	bgeu	x10,x7,80001dc4	 x10:0x00000007  x7:0x00000007
       27865000	      2785	00000000	00000013	addi	x0,x0,0	  x0:0x00000000
       27875000	      2786	80001dc0	00000013	addi	x0,x0,0	  x0:0x00000000
       27885000	      2787	80001dc4	6cf6cb17	auipc	x22,0x6cf6c	 x22=0xecf6ddc0
       27895000	      2788	80001dc8	fff50513	addi	x10,x10,-1	 x10:0x00000007 x10=0x00000006
       27905000	      2789	80001dcc	fe757ce3	bgeu	x10,x7,80001dc4	 x10:0x00000006  x7:0x00000007
       27915000	      2790	80001dd0	015ad593	srli	x11,x21,0x15	 x21:0x7fff63fa x11=0x000003ff
       27925000	      2791	80001dd4	f6774c93	xori	x25,x14,-153	 x14:0x00004006 x25=0xffffbf61
       27935000	      2792	80001dd8	fc8e58e3	bge	x28,x8,80001da8	 x28:0xfffffffd  x8:0xfffffff4
       27945000	      2793	00000000	00000013	addi	x0,x0,0	  x0:0x00000000
       27955000	      2794	80001da4	00000013	addi	x0,x0,0	  x0:0x00000000
       27965000	      2795	80001da8	91f94313	xori	x6,x18,-1761	 x18:0x00000001  x6=0xfffff91e
       27975000	      2796	80001dac	01963cb3	sltu	x25,x12,x25	 x12:0x00004007 x25:0xffffbf61 x25=0x00000001
       27985000	      2797	80001db0	ffce0e13	addi	x28,x28,-4	 x28:0xfffffffd x28=0xfffffff9
       27995000	      2798	80001db4	007262b3	or	x5,x4,x7	  x4:0x80009fc4  x7:0x00000007  x5=0x80009fc7
       28005000	      2799	80001db8	00900513	addi	x10,x0,9	  x0:0x00000000 x10=0x00000009
       28015000	      2800	80001dbc	00700393	addi	x7,x0,7	  x0:0x00000000  x7=0x00000007
       28025000	      2801	80001dc0	00e48633	add	x12,x9,x14	  x9:0x00000001 x14:0x00004006 x12=0x00004007
       28035000	      2802	80001dc4	6cf6cb17	auipc	x22,0x6cf6c	 x22=0xecf6ddc0
       28045000	      2803	80001dc8	fff50513	addi	x10,x10,-1	 x10:0x00000009 x10=0x00000008
       28055000	      2804	80001dcc	fe757ce3	bgeu	x10,x7,80001dc4	 x10:0x00000008  x7:0x00000007
       28065000	      2805	00000000	00000013	addi	x0,x0,0	  x0:0x00000000
       28075000	      2806	80001dc0	00000013	addi	x0,x0,0	  x0:0x00000000
       28085000	      2807	80001dc4	6cf6cb17	auipc	x22,0x6cf6c	 x22=0xecf6ddc0
       28095000	      2808	80001dc8	fff50513	addi	x10,x10,-1	 x10:0x00000008 x10=0x00000007
       28105000	      2809	80001dcc	fe757ce3	bgeu	x10,x7,80001dc4	 x10:0x00000007  x7:0x00000007
       28115000	      2810	00000000	00000013	addi	x0,x0,0	  x0:0x00000000
       28125000	      2811	80001dc0	00000013	addi	x0,x0,0	  x0:0x00000000
       28135000	      2812	80001dc4	6cf6cb17	auipc	x22,0x6cf6c	 x22=0xecf6ddc0
       28145000	      2813	80001dc8	fff50513	addi	x10,x10,-1	 x10:0x00000007 x10=0x00000006
       28155000	      2814	80001dcc	fe757ce3	bgeu	x10,x7,80001dc4	 x10:0x00000006  x7:0x00000007
       28165000	      2815	80001dd0	015ad593	srli	x11,x21,0x15	 x21:0x7fff63fa x11=0x000003ff
       28175000	      2816	80001dd4	f6774c93	xori	x25,x14,-153	 x14:0x00004006 x25=0xffffbf61
       28185000	      2817	80001dd8	fc8e58e3	bge	x28,x8,80001da8	 x28:0xfffffff9  x8:0xfffffff4
       28195000	      2818	00000000	00000013	addi	x0,x0,0	  x0:0x00000000
       28205000	      2819	80001da4	00000013	addi	x0,x0,0	  x0:0x00000000
       28215000	      2820	80001da8	91f94313	xori	x6,x18,-1761	 x18:0x00000001  x6=0xfffff91e
       28225000	      2821	80001dac	01963cb3	sltu	x25,x12,x25	 x12:0x00004007 x25:0xffffbf61 x25=0x00000001
       28235000	      2822	80001db0	ffce0e13	addi	x28,x28,-4	 x28:0xfffffff9 x28=0xfffffff5
       28245000	      2823	80001db4	007262b3	or	x5,x4,x7	  x4:0x80009fc4  x7:0x00000007  x5=0x80009fc7
       28255000	      2824	80001db8	00900513	addi	x10,x0,9	  x0:0x00000000 x10=0x00000009
       28265000	      2825	80001dbc	00700393	addi	x7,x0,7	  x0:0x00000000  x7=0x00000007
       28275000	      2826	80001dc0	00e48633	add	x12,x9,x14	  x9:0x00000001 x14:0x00004006 x12=0x00004007
       28285000	      2827	80001dc4	6cf6cb17	auipc	x22,0x6cf6c	 x22=0xecf6ddc0
       28295000	      2828	80001dc8	fff50513	addi	x10,x10,-1	 x10:0x00000009 x10=0x00000008
       28305000	      2829	80001dcc	fe757ce3	bgeu	x10,x7,80001dc4	 x10:0x00000008  x7:0x00000007
       28315000	      2830	00000000	00000013	addi	x0,x0,0	  x0:0x00000000
       28325000	      2831	80001dc0	00000013	addi	x0,x0,0	  x0:0x00000000
       28335000	      2832	80001dc4	6cf6cb17	auipc	x22,0x6cf6c	 x22=0xecf6ddc0
       28345000	      2833	80001dc8	fff50513	addi	x10,x10,-1	 x10:0x00000008 x10=0x00000007
       28355000	      2834	80001dcc	fe757ce3	bgeu	x10,x7,80001dc4	 x10:0x00000007  x7:0x00000007
       28365000	      2835	00000000	00000013	addi	x0,x0,0	  x0:0x00000000
       28375000	      2836	80001dc0	00000013	addi	x0,x0,0	  x0:0x00000000
       28385000	      2837	80001dc4	6cf6cb17	auipc	x22,0x6cf6c	 x22=0xecf6ddc0
       28395000	      2838	80001dc8	fff50513	addi	x10,x10,-1	 x10:0x00000007 x10=0x00000006
       28405000	      2839	80001dcc	fe757ce3	bgeu	x10,x7,80001dc4	 x10:0x00000006  x7:0x00000007
       28415000	      2840	80001dd0	015ad593	srli	x11,x21,0x15	 x21:0x7fff63fa x11=0x000003ff
       28425000	      2841	80001dd4	f6774c93	xori	x25,x14,-153	 x14:0x00004006 x25=0xffffbf61
       28435000	      2842	80001dd8	fc8e58e3	bge	x28,x8,80001da8	 x28:0xfffffff5  x8:0xfffffff4
       28445000	      2843	00000000	00000013	addi	x0,x0,0	  x0:0x00000000
       28455000	      2844	80001da4	00000013	addi	x0,x0,0	  x0:0x00000000
       28465000	      2845	80001da8	91f94313	xori	x6,x18,-1761	 x18:0x00000001  x6=0xfffff91e
       28475000	      2846	80001dac	01963cb3	sltu	x25,x12,x25	 x12:0x00004007 x25:0xffffbf61 x25=0x00000001
       28485000	      2847	80001db0	ffce0e13	addi	x28,x28,-4	 x28:0xfffffff5 x28=0xfffffff1
       28495000	      2848	80001db4	007262b3	or	x5,x4,x7	  x4:0x80009fc4  x7:0x00000007  x5=0x80009fc7
       28505000	      2849	80001db8	00900513	addi	x10,x0,9	  x0:0x00000000 x10=0x00000009
       28515000	      2850	80001dbc	00700393	addi	x7,x0,7	  x0:0x00000000  x7=0x00000007
       28525000	      2851	80001dc0	00e48633	add	x12,x9,x14	  x9:0x00000001 x14:0x00004006 x12=0x00004007
       28535000	      2852	80001dc4	6cf6cb17	auipc	x22,0x6cf6c	 x22=0xecf6ddc0
       28545000	      2853	80001dc8	fff50513	addi	x10,x10,-1	 x10:0x00000009 x10=0x00000008
       28555000	      2854	80001dcc	fe757ce3	bgeu	x10,x7,80001dc4	 x10:0x00000008  x7:0x00000007
       28565000	      2855	00000000	00000013	addi	x0,x0,0	  x0:0x00000000
       28575000	      2856	80001dc0	00000013	addi	x0,x0,0	  x0:0x00000000
       28585000	      2857	80001dc4	6cf6cb17	auipc	x22,0x6cf6c	 x22=0xecf6ddc0
       28595000	      2858	80001dc8	fff50513	addi	x10,x10,-1	 x10:0x00000008 x10=0x00000007
       28605000	      2859	80001dcc	fe757ce3	bgeu	x10,x7,80001dc4	 x10:0x00000007  x7:0x00000007
       28615000	      2860	00000000	00000013	addi	x0,x0,0	  x0:0x00000000
       28625000	      2861	80001dc0	00000013	addi	x0,x0,0	  x0:0x00000000
       28635000	      2862	80001dc4	6cf6cb17	auipc	x22,0x6cf6c	 x22=0xecf6ddc0
       28645000	      2863	80001dc8	fff50513	addi	x10,x10,-1	 x10:0x00000007 x10=0x00000006
       28655000	      2864	80001dcc	fe757ce3	bgeu	x10,x7,80001dc4	 x10:0x00000006  x7:0x00000007
       28665000	      2865	80001dd0	015ad593	srli	x11,x21,0x15	 x21:0x7fff63fa x11=0x000003ff
       28675000	      2866	80001dd4	f6774c93	xori	x25,x14,-153	 x14:0x00004006 x25=0xffffbf61
       28685000	      2867	80001dd8	fc8e58e3	bge	x28,x8,80001da8	 x28:0xfffffff1  x8:0xfffffff4
       28695000	      2868	80001ddc	00e32333	slt	x6,x6,x14	  x6:0xfffff91e x14:0x00004006  x6=0x00000001
       28705000	      2869	80001de0	ff700813	addi	x16,x0,-9	  x0:0x00000000 x16=0xfffffff7
       28715000	      2870	80001de4	4192d3b3	sra	x7,x5,x25	  x5:0x80009fc7 x25:0xffffbf61  x7=0xc0004fe3
       28725000	      2871	80001de8	00900d13	addi	x26,x0,9	  x0:0x00000000 x26=0x00000009
       28735000	      2872	80001dec	01d3c2b3	xor	x5,x7,x29	  x7:0xc0004fe3 x29:0x80009f60  x5=0x4000d083
       28745000	      2873	80001df0	9d354313	xori	x6,x10,-1581	 x10:0x00000006  x6=0xfffff9d5
       28755000	      2874	80001df4	00280813	addi	x16,x16,2	 x16:0xfffffff7 x16=0xfffffff9
       28765000	      2875	80001df8	ffa81ae3	bne	x16,x26,80001dec	 x16:0xfffffff9 x26:0x00000009
       28775000	      2876	00000000	00000013	addi	x0,x0,0	  x0:0x00000000
       28785000	      2877	80001de8	00000013	addi	x0,x0,0	  x0:0x00000000
       28795000	      2878	80001dec	01d3c2b3	xor	x5,x7,x29	  x7:0xc0004fe3 x29:0x80009f60  x5=0x4000d083
       28805000	      2879	80001df0	9d354313	xori	x6,x10,-1581	 x10:0x00000006  x6=0xfffff9d5
       28815000	      2880	80001df4	00280813	addi	x16,x16,2	 x16:0xfffffff9 x16=0xfffffffb
       28825000	      2881	80001df8	ffa81ae3	bne	x16,x26,80001dec	 x16:0xfffffffb x26:0x00000009
       28835000	      2882	00000000	00000013	addi	x0,x0,0	  x0:0x00000000
       28845000	      2883	80001de8	00000013	addi	x0,x0,0	  x0:0x00000000
       28855000	      2884	80001dec	01d3c2b3	xor	x5,x7,x29	  x7:0xc0004fe3 x29:0x80009f60  x5=0x4000d083
       28865000	      2885	80001df0	9d354313	xori	x6,x10,-1581	 x10:0x00000006  x6=0xfffff9d5
       28875000	      2886	80001df4	00280813	addi	x16,x16,2	 x16:0xfffffffb x16=0xfffffffd
       28885000	      2887	80001df8	ffa81ae3	bne	x16,x26,80001dec	 x16:0xfffffffd x26:0x00000009
       28895000	      2888	00000000	00000013	addi	x0,x0,0	  x0:0x00000000
       28905000	      2889	80001de8	00000013	addi	x0,x0,0	  x0:0x00000000
       28915000	      2890	80001dec	01d3c2b3	xor	x5,x7,x29	  x7:0xc0004fe3 x29:0x80009f60  x5=0x4000d083
       28925000	      2891	80001df0	9d354313	xori	x6,x10,-1581	 x10:0x00000006  x6=0xfffff9d5
       28935000	      2892	80001df4	00280813	addi	x16,x16,2	 x16:0xfffffffd x16=0xffffffff
       28945000	      2893	80001df8	ffa81ae3	bne	x16,x26,80001dec	 x16:0xffffffff x26:0x00000009
       28955000	      2894	00000000	00000013	addi	x0,x0,0	  x0:0x00000000
       28965000	      2895	80001de8	00000013	addi	x0,x0,0	  x0:0x00000000
       28975000	      2896	80001dec	01d3c2b3	xor	x5,x7,x29	  x7:0xc0004fe3 x29:0x80009f60  x5=0x4000d083
       28985000	      2897	80001df0	9d354313	xori	x6,x10,-1581	 x10:0x00000006  x6=0xfffff9d5
       28995000	      2898	80001df4	00280813	addi	x16,x16,2	 x16:0xffffffff x16=0x00000001
       29005000	      2899	80001df8	ffa81ae3	bne	x16,x26,80001dec	 x16:0x00000001 x26:0x00000009
       29015000	      2900	00000000	00000013	addi	x0,x0,0	  x0:0x00000000
       29025000	      2901	80001de8	00000013	addi	x0,x0,0	  x0:0x00000000
       29035000	      2902	80001dec	01d3c2b3	xor	x5,x7,x29	  x7:0xc0004fe3 x29:0x80009f60  x5=0x4000d083
       29045000	      2903	80001df0	9d354313	xori	x6,x10,-1581	 x10:0x00000006  x6=0xfffff9d5
       29055000	      2904	80001df4	00280813	addi	x16,x16,2	 x16:0x00000001 x16=0x00000003
       29065000	      2905	80001df8	ffa81ae3	bne	x16,x26,80001dec	 x16:0x00000003 x26:0x00000009
       29075000	      2906	00000000	00000013	addi	x0,x0,0	  x0:0x00000000
       29085000	      2907	80001de8	00000013	addi	x0,x0,0	  x0:0x00000000
       29095000	      2908	80001dec	01d3c2b3	xor	x5,x7,x29	  x7:0xc0004fe3 x29:0x80009f60  x5=0x4000d083
       29105000	      2909	80001df0	9d354313	xori	x6,x10,-1581	 x10:0x00000006  x6=0xfffff9d5
       29115000	      2910	80001df4	00280813	addi	x16,x16,2	 x16:0x00000003 x16=0x00000005
       29125000	      2911	80001df8	ffa81ae3	bne	x16,x26,80001dec	 x16:0x00000005 x26:0x00000009
       29135000	      2912	00000000	00000013	addi	x0,x0,0	  x0:0x00000000
       29145000	      2913	80001de8	00000013	addi	x0,x0,0	  x0:0x00000000
       29155000	      2914	80001dec	01d3c2b3	xor	x5,x7,x29	  x7:0xc0004fe3 x29:0x80009f60  x5=0x4000d083
       29165000	      2915	80001df0	9d354313	xori	x6,x10,-1581	 x10:0x00000006  x6=0xfffff9d5
       29175000	      2916	80001df4	00280813	addi	x16,x16,2	 x16:0x00000005 x16=0x00000007
       29185000	      2917	80001df8	ffa81ae3	bne	x16,x26,80001dec	 x16:0x00000007 x26:0x00000009
       29195000	      2918	00000000	00000013	addi	x0,x0,0	  x0:0x00000000
       29205000	      2919	80001de8	00000013	addi	x0,x0,0	  x0:0x00000000
       29215000	      2920	80001dec	01d3c2b3	xor	x5,x7,x29	  x7:0xc0004fe3 x29:0x80009f60  x5=0x4000d083
       29225000	      2921	80001df0	9d354313	xori	x6,x10,-1581	 x10:0x00000006  x6=0xfffff9d5
       29235000	      2922	80001df4	00280813	addi	x16,x16,2	 x16:0x00000007 x16=0x00000009
       29245000	      2923	80001df8	ffa81ae3	bne	x16,x26,80001dec	 x16:0x00000009 x26:0x00000009
       29255000	      2924	80001dfc	02f25e17	auipc	x28,0x2f25	 x28=0x82f26df8
       29265000	      2925	80001e00	00500c93	addi	x25,x0,5	  x0:0x00000000 x25=0x00000005
       29275000	      2926	80001e04	00c71e13	slli	x28,x14,0xc	 x14:0x00004006 x28=0x04006000
       29285000	      2927	80001e08	00400313	addi	x6,x0,4	  x0:0x00000000  x6=0x00000004
       29295000	      2928	80001e0c	00f650b3	srl	x1,x12,x15	 x12:0x00004007 x15:0x00000000  x1=0x00004007
       29305000	      2929	80001e10	015069b3	or	x19,x0,x21	  x0:0x00000000 x21:0x7fff63fa x19=0x7fff63fa
       29315000	      2930	80001e14	57040b93	addi	x23,x8,1392	  x8:0xfffffff4 x23=0x00000564
       29325000	      2931	80001e18	39673a93	sltiu	x21,x14,918	 x14:0x00004006 x21=0x00000000
       29335000	      2932	80001e1c	00000013	addi	x0,x0,0	  x0:0x00000000
       29345000	      2933	80001e20	01288c33	add	x24,x17,x18	 x17:0x00000001 x18:0x00000001 x24=0x00000002
       29355000	      2934	80001e24	0021b6b3	sltu	x13,x3,x2	  x3:0x000003a4  x2:0x00000030 x13=0x00000000
       29365000	      2935	80001e28	0086f933	and	x18,x13,x8	 x13:0x00000000  x8:0xfffffff4 x18=0x00000000
       29375000	      2936	80001e2c	ffdc8c93	addi	x25,x25,-3	 x25:0x00000005 x25=0x00000002
       29385000	      2937	80001e30	00900f93	addi	x31,x0,9	  x0:0x00000000 x31=0x00000009
       29395000	      2938	80001e34	0020d813	srli	x16,x1,0x2	  x1:0x00004007 x16=0x00001001
       29405000	      2939	80001e38	00b8e9b3	or	x19,x17,x11	 x17:0x00000001 x11:0x000003ff x19=0x000003ff
       29415000	      2940	80001e3c	ffd00113	addi	x2,x0,-3	  x0:0x00000000  x2=0xfffffffd
       29425000	      2941	80001e40	00000013	addi	x0,x0,0	  x0:0x00000000
       29435000	      2942	80001e44	1fb47e17	auipc	x28,0x1fb47	 x28=0x9fb48e40
       29445000	      2943	80001e48	ff6f8f93	addi	x31,x31,-10	 x31:0x00000009 x31=0xffffffff
       29455000	      2944	80001e4c	6093fb93	andi	x23,x7,1545	  x7:0xc0004fe3 x23=0x00000601
       29465000	      2945	80001e50	fe2fd8e3	bge	x31,x2,80001e40	 x31:0xffffffff  x2:0xfffffffd
       29475000	      2946	00000000	00000013	addi	x0,x0,0	  x0:0x00000000
       29485000	      2947	80001e3c	00000013	addi	x0,x0,0	  x0:0x00000000
       29495000	      2948	80001e40	00000013	addi	x0,x0,0	  x0:0x00000000
       29505000	      2949	80001e44	1fb47e17	auipc	x28,0x1fb47	 x28=0x9fb48e40
       29515000	      2950	80001e48	ff6f8f93	addi	x31,x31,-10	 x31:0xffffffff x31=0xfffffff5
       29525000	      2951	80001e4c	6093fb93	andi	x23,x7,1545	  x7:0xc0004fe3 x23=0x00000601
       29535000	      2952	80001e50	fe2fd8e3	bge	x31,x2,80001e40	 x31:0xfffffff5  x2:0xfffffffd
       29545000	      2953	80001e54	fc6cfae3	bgeu	x25,x6,80001e28	 x25:0x00000002  x6:0x00000004
       29555000	      2954	80001e58	528a6293	ori	x5,x20,1320	 x20:0xfffffff7  x5=0xffffffff
       29565000	      2955	80001e5c	00200513	addi	x10,x0,2	  x0:0x00000000 x10=0x00000002
       29575000	      2956	80001e60	00413e33	sltu	x28,x2,x4	  x2:0xfffffffd  x4:0x80009fc4 x28=0x00000000
       29585000	      2957	80001e64	002ec833	xor	x16,x29,x2	 x29:0x80009f60  x2:0xfffffffd x16=0x7fff609d
       29595000	      2958	80001e68	10e4e113	ori	x2,x9,270	  x9:0x00000001  x2=0x0000010f
       29605000	      2959	80001e6c	400b5c33	sra	x24,x22,x0	 x22:0xecf6ddc0  x0:0x00000000 x24=0xecf6ddc0
       29615000	      2960	80001e70	00300193	addi	x3,x0,3	  x0:0x00000000  x3=0x00000003
       29625000	      2961	80001e74	d16b9d17	auipc	x26,0xd16b9	 x26=0x516bae70
       29635000	      2962	80001e78	00350513	addi	x10,x10,3	 x10:0x00000002 x10=0x00000005
       29645000	      2963	80001e7c	00c902b3	add	x5,x18,x12	 x18:0x00000000 x12:0x00004007  x5=0x00004007
       29655000	      2964	80001e80	c9eeba13	sltiu	x20,x29,-866	 x29:0x80009f60 x20=0x00000001
       29665000	      2965	80001e84	00d7b2b3	sltu	x5,x15,x13	 x15:0x00000000 x13:0x00000000  x5=0x00000000
       29675000	      2966	80001e88	01f6da33	srl	x20,x13,x31	 x13:0x00000000 x31:0xfffffff5 x20=0x00000000
       29685000	      2967	80001e8c	01c08733	add	x14,x1,x28	  x1:0x00004007 x28:0x00000000 x14=0x00004007
       29695000	      2968	80001e90	41d9d693	srai	x13,x19,0x1d	 x19:0x000003ff x13=0x00000000
       29705000	      2969	80001e94	4c960813	addi	x16,x12,1225	 x12:0x00004007 x16=0x000044d0
       29715000	      2970	80001e98	00d21e13	slli	x28,x4,0xd	  x4:0x80009fc4 x28=0x13f88000
       29725000	      2971	80001e9c	fc354ce3	blt	x10,x3,80001e74	 x10:0x00000005  x3:0x00000003
       29735000	      2972	80001ea0	7bdf7393	andi	x7,x30,1981	 x30:0xfffffff7  x7=0x000007b5
       29745000	      2973	80001ea4	00000093	addi	x1,x0,0	  x0:0x00000000  x1=0x00000000
       29755000	      2974	80001ea8	018879b3	and	x19,x16,x24	 x16:0x000044d0 x24:0xecf6ddc0 x19=0x000044c0
       29765000	      2975	80001eac	01200d93	addi	x27,x0,18	  x0:0x00000000 x27=0x00000012
       29775000	      2976	80001eb0	000909b3	add	x19,x18,x0	 x18:0x00000000  x0:0x00000000 x19=0x00000000
       29785000	      2977	80001eb4	40ce86b3	sub	x13,x29,x12	 x29:0x80009f60 x12:0x00004007 x13=0x80005f59
       29795000	      2978	80001eb8	00908093	addi	x1,x1,9	  x1:0x00000000  x1=0x00000009
       29805000	      2979	80001ebc	ffb0cae3	blt	x1,x27,80001eb0	  x1:0x00000009 x27:0x00000012
       29815000	      2980	00000000	00000013	addi	x0,x0,0	  x0:0x00000000
       29825000	      2981	80001eac	00000013	addi	x0,x0,0	  x0:0x00000000
       29835000	      2982	80001eb0	000909b3	add	x19,x18,x0	 x18:0x00000000  x0:0x00000000 x19=0x00000000
       29845000	      2983	80001eb4	40ce86b3	sub	x13,x29,x12	 x29:0x80009f60 x12:0x00004007 x13=0x80005f59
       29855000	      2984	80001eb8	00908093	addi	x1,x1,9	  x1:0x00000009  x1=0x00000012
       29865000	      2985	80001ebc	ffb0cae3	blt	x1,x27,80001eb0	  x1:0x00000012 x27:0x00000012
       29875000	      2986	80001ec0	013f7733	and	x14,x30,x19	 x30:0xfffffff7 x19:0x00000000 x14=0x00000000
       29885000	      2987	80001ec4	ff800893	addi	x17,x0,-8	  x0:0x00000000 x17=0xfffffff8
       29895000	      2988	80001ec8	0006fb33	and	x22,x13,x0	 x13:0x80005f59  x0:0x00000000 x22=0x00000000
       29905000	      2989	80001ecc	0103d1b3	srl	x3,x7,x16	  x7:0x000007b5 x16:0x000044d0  x3=0x00000000
       29915000	      2990	80001ed0	35acc293	xori	x5,x25,858	 x25:0x00000002  x5=0x00000358
       29925000	      2991	80001ed4	41eb5313	srai	x6,x22,0x1e	 x22:0x00000000  x6=0x00000000
       29935000	      2992	80001ed8	1ae307b7	lui	x15,0x1ae30	 x15=0x1ae30000
       29945000	      2993	80001edc	0094e2b3	or	x5,x9,x9	  x9:0x00000001  x9:0x00000001  x5=0x00000001
       29955000	      2994	80001ee0	0109db93	srli	x23,x19,0x10	 x19:0x00000000 x23=0x00000000
       29965000	      2995	80001ee4	4be2a413	slti	x8,x5,1214	  x5:0x00000001  x8=0x00000001
       29975000	      2996	80001ee8	00bed093	srli	x1,x29,0xb	 x29:0x80009f60  x1=0x00100013
       29985000	      2997	80001eec	f991f917	auipc	x18,0xf991f	 x18=0x79920ee8
       29995000	      2998	80001ef0	00605f33	srl	x30,x0,x6	  x0:0x00000000  x6:0x00000000 x30=0x00000000
       30005000	      2999	80001ef4	ff000d93	addi	x27,x0,-16	  x0:0x00000000 x27=0xfffffff0
       30015000	      3000	80001ef8	00c55533	srl	x10,x10,x12	 x10:0x00000005 x12:0x00004007 x10=0x00000000
       30025000	      3001	80001efc	01693833	sltu	x16,x18,x22	 x18:0x79920ee8 x22:0x00000000 x16=0x00000000
       30035000	      3002	80001f00	5a3a3717	auipc	x14,0x5a3a3	 x14=0xda3a4efc
       30045000	      3003	80001f04	884ce813	ori	x16,x25,-1916	 x25:0x00000002 x16=0xfffff886
       30055000	      3004	80001f08	00eb5a13	srli	x20,x22,0xe	 x22:0x00000000 x20=0x00000000
       30065000	      3005	80001f0c	51fe4c13	xori	x24,x28,1311	 x28:0x13f88000 x24=0x13f8851f
       30075000	      3006	80001f10	55a2fa13	andi	x20,x5,1370	  x5:0x00000001 x20=0x00000000
       30085000	      3007	80001f14	1756bf13	sltiu	x30,x13,373	 x13:0x80005f59 x30=0x00000000
       30095000	      3008	80001f18	ff888893	addi	x17,x17,-8	 x17:0xfffffff8 x17=0xfffffff0
       30105000	      3009	80001f1c	00c50333	add	x6,x10,x12	 x10:0x00000000 x12:0x00004007  x6=0x00004007
       30115000	      3010	80001f20	00d6dc33	srl	x24,x13,x13	 x13:0x80005f59 x13:0x80005f59 x24=0x00000040
       30125000	      3011	80001f24	01b60133	add	x2,x12,x27	 x12:0x00004007 x27:0xfffffff0  x2=0x00003ff7
       30135000	      3012	80001f28	005347b3	xor	x15,x6,x5	  x6:0x00004007  x5:0x00000001 x15=0x00004006
       30145000	      3013	80001f2c	01d0aa33	slt	x20,x1,x29	  x1:0x00100013 x29:0x80009f60 x20=0x00000000
       30155000	      3014	80001f30	01781b93	slli	x23,x16,0x17	 x16:0xfffff886 x23=0x43000000
       30165000	      3015	80001f34	fdb884e3	beq	x17,x27,80001efc	 x17:0xfffffff0 x27:0xfffffff0
       30175000	      3016	00000000	00000013	addi	x0,x0,0	  x0:0x00000000
       30185000	      3017	80001ef8	00000013	addi	x0,x0,0	  x0:0x00000000
       30195000	      3018	80001efc	01693833	sltu	x16,x18,x22	 x18:0x79920ee8 x22:0x00000000 x16=0x00000000
       30205000	      3019	80001f00	5a3a3717	auipc	x14,0x5a3a3	 x14=0xda3a4efc
       30215000	      3020	80001f04	884ce813	ori	x16,x25,-1916	 x25:0x00000002 x16=0xfffff886
       30225000	      3021	80001f08	00eb5a13	srli	x20,x22,0xe	 x22:0x00000000 x20=0x00000000
       30235000	      3022	80001f0c	51fe4c13	xori	x24,x28,1311	 x28:0x13f88000 x24=0x13f8851f
       30245000	      3023	80001f10	55a2fa13	andi	x20,x5,1370	  x5:0x00000001 x20=0x00000000
       30255000	      3024	80001f14	1756bf13	sltiu	x30,x13,373	 x13:0x80005f59 x30=0x00000000
       30265000	      3025	80001f18	ff888893	addi	x17,x17,-8	 x17:0xfffffff0 x17=0xffffffe8
       30275000	      3026	80001f1c	00c50333	add	x6,x10,x12	 x10:0x00000000 x12:0x00004007  x6=0x00004007
       30285000	      3027	80001f20	00d6dc33	srl	x24,x13,x13	 x13:0x80005f59 x13:0x80005f59 x24=0x00000040
       30295000	      3028	80001f24	01b60133	add	x2,x12,x27	 x12:0x00004007 x27:0xfffffff0  x2=0x00003ff7
       30305000	      3029	80001f28	005347b3	xor	x15,x6,x5	  x6:0x00004007  x5:0x00000001 x15=0x00004006
       30315000	      3030	80001f2c	01d0aa33	slt	x20,x1,x29	  x1:0x00100013 x29:0x80009f60 x20=0x00000000
       30325000	      3031	80001f30	01781b93	slli	x23,x16,0x17	 x16:0xfffff886 x23=0x43000000
       30335000	      3032	80001f34	fdb884e3	beq	x17,x27,80001efc	 x17:0xffffffe8 x27:0xfffffff0
       30345000	      3033	80001f38	c3c6e7b7	lui	x15,0xc3c6e	 x15=0xc3c6e000
       30355000	      3034	80001f3c	00800893	addi	x17,x0,8	  x0:0x00000000 x17=0x00000008
       30365000	      3035	80001f40	00a00813	addi	x16,x0,10	  x0:0x00000000 x16=0x0000000a
       30375000	      3036	80001f44	0139e033	or	x0,x19,x19	 x19:0x00000000 x19:0x00000000
       30385000	      3037	80001f48	00a88893	addi	x17,x17,10	 x17:0x00000008 x17=0x00000012
       30395000	      3038	80001f4c	010747b3	xor	x15,x14,x16	 x14:0xda3a4efc x16:0x0000000a x15=0xda3a4ef6
       30405000	      3039	80001f50	8e64e513	ori	x10,x9,-1818	  x9:0x00000001 x10=0xfffff8e7
       30415000	      3040	80001f54	00800313	addi	x6,x0,8	  x0:0x00000000  x6=0x00000008
       30425000	      3041	80001f58	40a95433	sra	x8,x18,x10	 x18:0x79920ee8 x10:0xfffff8e7  x8=0x00f3241d
       30435000	      3042	80001f5c	41380bb3	sub	x23,x16,x19	 x16:0x0000000a x19:0x00000000 x23=0x0000000a
       30445000	      3043	80001f60	ff400a93	addi	x21,x0,-12	  x0:0x00000000 x21=0xfffffff4
       30455000	      3044	80001f64	2e01c913	xori	x18,x3,736	  x3:0x00000000 x18=0x000002e0
       30465000	      3045	80001f68	ffe30313	addi	x6,x6,-2	  x6:0x00000008  x6=0x00000006
       30475000	      3046	80001f6c	ff535ce3	bge	x6,x21,80001f64	  x6:0x00000006 x21:0xfffffff4
       30485000	      3047	00000000	00000013	addi	x0,x0,0	  x0:0x00000000
       30495000	      3048	80001f60	00000013	addi	x0,x0,0	  x0:0x00000000
       30505000	      3049	80001f64	2e01c913	xori	x18,x3,736	  x3:0x00000000 x18=0x000002e0
       30515000	      3050	80001f68	ffe30313	addi	x6,x6,-2	  x6:0x00000006  x6=0x00000004
       30525000	      3051	80001f6c	ff535ce3	bge	x6,x21,80001f64	  x6:0x00000004 x21:0xfffffff4
       30535000	      3052	00000000	00000013	addi	x0,x0,0	  x0:0x00000000
       30545000	      3053	80001f60	00000013	addi	x0,x0,0	  x0:0x00000000
       30555000	      3054	80001f64	2e01c913	xori	x18,x3,736	  x3:0x00000000 x18=0x000002e0
       30565000	      3055	80001f68	ffe30313	addi	x6,x6,-2	  x6:0x00000004  x6=0x00000002
       30575000	      3056	80001f6c	ff535ce3	bge	x6,x21,80001f64	  x6:0x00000002 x21:0xfffffff4
       30585000	      3057	00000000	00000013	addi	x0,x0,0	  x0:0x00000000
       30595000	      3058	80001f60	00000013	addi	x0,x0,0	  x0:0x00000000
       30605000	      3059	80001f64	2e01c913	xori	x18,x3,736	  x3:0x00000000 x18=0x000002e0
       30615000	      3060	80001f68	ffe30313	addi	x6,x6,-2	  x6:0x00000002  x6=0x00000000
       30625000	      3061	80001f6c	ff535ce3	bge	x6,x21,80001f64	  x6:0x00000000 x21:0xfffffff4
       30635000	      3062	00000000	00000013	addi	x0,x0,0	  x0:0x00000000
       30645000	      3063	80001f60	00000013	addi	x0,x0,0	  x0:0x00000000
       30655000	      3064	80001f64	2e01c913	xori	x18,x3,736	  x3:0x00000000 x18=0x000002e0
       30665000	      3065	80001f68	ffe30313	addi	x6,x6,-2	  x6:0x00000000  x6=0xfffffffe
       30675000	      3066	80001f6c	ff535ce3	bge	x6,x21,80001f64	  x6:0xfffffffe x21:0xfffffff4
       30685000	      3067	00000000	00000013	addi	x0,x0,0	  x0:0x00000000
       30695000	      3068	80001f60	00000013	addi	x0,x0,0	  x0:0x00000000
       30705000	      3069	80001f64	2e01c913	xori	x18,x3,736	  x3:0x00000000 x18=0x000002e0
       30715000	      3070	80001f68	ffe30313	addi	x6,x6,-2	  x6:0xfffffffe  x6=0xfffffffc
       30725000	      3071	80001f6c	ff535ce3	bge	x6,x21,80001f64	  x6:0xfffffffc x21:0xfffffff4
       30735000	      3072	00000000	00000013	addi	x0,x0,0	  x0:0x00000000
       30745000	      3073	80001f60	00000013	addi	x0,x0,0	  x0:0x00000000
       30755000	      3074	80001f64	2e01c913	xori	x18,x3,736	  x3:0x00000000 x18=0x000002e0
       30765000	      3075	80001f68	ffe30313	addi	x6,x6,-2	  x6:0xfffffffc  x6=0xfffffffa
       30775000	      3076	80001f6c	ff535ce3	bge	x6,x21,80001f64	  x6:0xfffffffa x21:0xfffffff4
       30785000	      3077	00000000	00000013	addi	x0,x0,0	  x0:0x00000000
       30795000	      3078	80001f60	00000013	addi	x0,x0,0	  x0:0x00000000
       30805000	      3079	80001f64	2e01c913	xori	x18,x3,736	  x3:0x00000000 x18=0x000002e0
       30815000	      3080	80001f68	ffe30313	addi	x6,x6,-2	  x6:0xfffffffa  x6=0xfffffff8
       30825000	      3081	80001f6c	ff535ce3	bge	x6,x21,80001f64	  x6:0xfffffff8 x21:0xfffffff4
       30835000	      3082	00000000	00000013	addi	x0,x0,0	  x0:0x00000000
       30845000	      3083	80001f60	00000013	addi	x0,x0,0	  x0:0x00000000
       30855000	      3084	80001f64	2e01c913	xori	x18,x3,736	  x3:0x00000000 x18=0x000002e0
       30865000	      3085	80001f68	ffe30313	addi	x6,x6,-2	  x6:0xfffffff8  x6=0xfffffff6
       30875000	      3086	80001f6c	ff535ce3	bge	x6,x21,80001f64	  x6:0xfffffff6 x21:0xfffffff4
       30885000	      3087	00000000	00000013	addi	x0,x0,0	  x0:0x00000000
       30895000	      3088	80001f60	00000013	addi	x0,x0,0	  x0:0x00000000
       30905000	      3089	80001f64	2e01c913	xori	x18,x3,736	  x3:0x00000000 x18=0x000002e0
       30915000	      3090	80001f68	ffe30313	addi	x6,x6,-2	  x6:0xfffffff6  x6=0xfffffff4
       30925000	      3091	80001f6c	ff535ce3	bge	x6,x21,80001f64	  x6:0xfffffff4 x21:0xfffffff4
       30935000	      3092	00000000	00000013	addi	x0,x0,0	  x0:0x00000000
       30945000	      3093	80001f60	00000013	addi	x0,x0,0	  x0:0x00000000
       30955000	      3094	80001f64	2e01c913	xori	x18,x3,736	  x3:0x00000000 x18=0x000002e0
       30965000	      3095	80001f68	ffe30313	addi	x6,x6,-2	  x6:0xfffffff4  x6=0xfffffff2
       30975000	      3096	80001f6c	ff535ce3	bge	x6,x21,80001f64	  x6:0xfffffff2 x21:0xfffffff4
       30985000	      3097	80001f70	b28be593	ori	x11,x23,-1240	 x23:0x0000000a x11=0xfffffb2a
       30995000	      3098	80001f74	fd08c8e3	blt	x17,x16,80001f44	 x17:0x00000012 x16:0x0000000a
       31005000	      3099	80001f78	01cde133	or	x2,x27,x28	 x27:0xfffffff0 x28:0x13f88000  x2=0xfffffff0
       31015000	      3100	80001f7c	34b60313	addi	x6,x12,843	 x12:0x00004007  x6=0x00004352
       31025000	      3101	80001f80	414bd0b3	sra	x1,x23,x20	 x23:0x0000000a x20:0x00000000  x1=0x0000000a
       31035000	      3102	80001f84	016dfb33	and	x22,x27,x22	 x27:0xfffffff0 x22:0x00000000 x22=0x00000000
       31045000	      3103	80001f88	de675837	lui	x16,0xde675	 x16=0xde675000
       31055000	      3104	80001f8c	15d87893	andi	x17,x16,349	 x16:0xde675000 x17=0x00000000
       31065000	      3105	80001f90	0473ec13	ori	x24,x7,71	  x7:0x000007b5 x24=0x000007f7
       31075000	      3106	80001f94	04a74663	blt	x14,x10,80001fe0	 x14:0xda3a4efc x10:0xfffff8e7
       31085000	      3107	00000000	00000013	addi	x0,x0,0	  x0:0x00000000
       31095000	      3108	80001fdc	00000013	addi	x0,x0,0	  x0:0x00000000
       31105000	      3109	80001fe0	0194de13	srli	x28,x9,0x19	  x9:0x00000001 x28=0x00000000
       31115000	      3110	80001fe4	41f2dc13	srai	x24,x5,0x1f	  x5:0x00000001 x24=0x00000000
       31125000	      3111	80001fe8	00000013	addi	x0,x0,0	  x0:0x00000000
       31135000	      3112	80001fec	010308b3	add	x17,x6,x16	  x6:0x00004352 x16:0xde675000 x17=0xde679352
       31145000	      3113	80001ff0	41550833	sub	x16,x10,x21	 x10:0xfffff8e7 x21:0xfffffff4 x16=0xfffff8f3
       31155000	      3114	80001ff4	019f9863	bne	x31,x25,80002004	 x31:0xfffffff5 x25:0x00000002
       31165000	      3115	00000000	00000013	addi	x0,x0,0	  x0:0x00000000
       31175000	      3116	80002000	00000013	addi	x0,x0,0	  x0:0x00000000
       31185000	      3117	80002004	41130a33	sub	x20,x6,x17	  x6:0x00004352 x17:0xde679352 x20=0x2198b000
       31195000	      3118	80002008	01d11ab3	sll	x21,x2,x29	  x2:0xfffffff0 x29:0x80009f60 x21=0xfffffff0
       31205000	      3119	8000200c	00bc27b3	slt	x15,x24,x11	 x24:0x00000000 x11:0xfffffb2a x15=0x00000000
       31215000	      3120	80002010	00667033	and	x0,x12,x6	 x12:0x00004007  x6:0x00004352
       31225000	      3121	80002014	e68c6737	lui	x14,0xe68c6	 x14=0xe68c6000
       31235000	      3122	80002018	4010ddb3	sra	x27,x1,x1	  x1:0x0000000a  x1:0x0000000a x27=0x00000000
       31245000	      3123	8000201c	01531193	slli	x3,x6,0x15	  x6:0x00004352  x3=0x6a400000
       31255000	      3124	80002020	02641c63	bne	x8,x6,80002058	  x8:0x00f3241d  x6:0x00004352
       31265000	      3125	00000000	00000013	addi	x0,x0,0	  x0:0x00000000
       31275000	      3126	80002054	00000013	addi	x0,x0,0	  x0:0x00000000
       31285000	      3127	80002058	01109c93	slli	x25,x1,0x11	  x1:0x0000000a x25=0x00140000
       31295000	      3128	8000205c	03e58663	beq	x11,x30,80002088	 x11:0xfffffb2a x30:0x00000000
       31305000	      3129	80002060	00000013	addi	x0,x0,0	  x0:0x00000000
       31315000	      3130	80002064	d96d6413	ori	x8,x26,-618	 x26:0x516bae70  x8=0xfffffff6
       31325000	      3131	80002068	640eff13	andi	x30,x29,1600	 x29:0x80009f60 x30=0x00000640
       31335000	      3132	8000206c	00000013	addi	x0,x0,0	  x0:0x00000000
       31345000	      3133	80002070	0170f863	bgeu	x1,x23,80002080	  x1:0x0000000a x23:0x0000000a
       31355000	      3134	00000000	00000013	addi	x0,x0,0	  x0:0x00000000
       31365000	      3135	8000207c	00000013	addi	x0,x0,0	  x0:0x00000000
       31375000	      3136	80002080	c3858813	addi	x16,x11,-968	 x11:0xfffffb2a x16=0xfffff762
       31385000	      3137	80002084	01ad9db3	sll	x27,x27,x26	 x27:0x00000000 x26:0x516bae70 x27=0x00000000
       31395000	      3138	80002088	01a6d693	srli	x13,x13,0x1a	 x13:0x80005f59 x13=0x00000020
       31405000	      3139	8000208c	04cf1863	bne	x30,x12,800020dc	 x30:0x00000640 x12:0x00004007
       31415000	      3140	00000000	00000013	addi	x0,x0,0	  x0:0x00000000
       31425000	      3141	800020d8	00000013	addi	x0,x0,0	  x0:0x00000000
       31435000	      3142	800020dc	40a0d293	srai	x5,x1,0xa	  x1:0x0000000a  x5=0x00000000
       31445000	      3143	800020e0	01b04d33	xor	x26,x0,x27	  x0:0x00000000 x27:0x00000000 x26=0x00000000
       31455000	      3144	800020e4	51c40713	addi	x14,x8,1308	  x8:0xfffffff6 x14=0x00000512
       31465000	      3145	800020e8	00a6b3b3	sltu	x7,x13,x10	 x13:0x00000020 x10:0xfffff8e7  x7=0x00000001
       31475000	      3146	800020ec	418d0833	sub	x16,x26,x24	 x26:0x00000000 x24:0x00000000 x16=0x00000000
       31485000	      3147	800020f0	02936063	bltu	x6,x9,80002110	  x6:0x00004352  x9:0x00000001
       31495000	      3148	800020f4	00000013	addi	x0,x0,0	  x0:0x00000000
       31505000	      3149	800020f8	01e57333	and	x6,x10,x30	 x10:0xfffff8e7 x30:0x00000640  x6=0x00000040
       31515000	      3150	800020fc	00f89593	slli	x11,x17,0xf	 x17:0xde679352 x11=0xc9a90000
       31525000	      3151	80002100	04338863	beq	x7,x3,80002150	  x7:0x00000001  x3:0x6a400000
       31535000	      3152	80002104	01754133	xor	x2,x10,x23	 x10:0xfffff8e7 x23:0x0000000a  x2=0xfffff8ed
       31545000	      3153	80002108	dde9f813	andi	x16,x19,-546	 x19:0x00000000 x16=0x00000000
       31555000	      3154	8000210c	82dc6797	auipc	x15,0x82dc6	 x15=0x02dc8108
       31565000	      3155	80002110	404f5313	srai	x6,x30,0x4	 x30:0x00000640  x6=0x00000064
       31575000	      3156	80002114	00000013	addi	x0,x0,0	  x0:0x00000000
       31585000	      3157	80002118	023d1c63	bne	x26,x3,80002150	 x26:0x00000000  x3:0x6a400000
       31595000	      3158	00000000	00000013	addi	x0,x0,0	  x0:0x00000000
       31605000	      3159	8000214c	00000013	addi	x0,x0,0	  x0:0x00000000
       31615000	      3160	80002150	3fedec13	ori	x24,x27,1022	 x27:0x00000000 x24=0x000003fe
       31625000	      3161	80002154	d38ae993	ori	x19,x21,-712	 x21:0xfffffff0 x19=0xfffffff8
       31635000	      3162	80002158	04fb8463	beq	x23,x15,800021a0	 x23:0x0000000a x15:0x02dc8108
       31645000	      3163	8000215c	01a84533	xor	x10,x16,x26	 x16:0x00000000 x26:0x00000000 x10=0x00000000
       31655000	      3164	80002160	0154fd33	and	x26,x9,x21	  x9:0x00000001 x21:0xfffffff0 x26=0x00000000
       31665000	      3165	80002164	029f9863	bne	x31,x9,80002194	 x31:0xfffffff5  x9:0x00000001
       31675000	      3166	00000000	00000013	addi	x0,x0,0	  x0:0x00000000
       31685000	      3167	80002190	00000013	addi	x0,x0,0	  x0:0x00000000
       31695000	      3168	80002194	44d7e513	ori	x10,x15,1101	 x15:0x02dc8108 x10=0x02dc854d
       31705000	      3169	80002198	0073b1b3	sltu	x3,x7,x7	  x7:0x00000001  x7:0x00000001  x3=0x00000000
       31715000	      3170	8000219c	03fe0c63	beq	x28,x31,800021d4	 x28:0x00000000 x31:0xfffffff5
       31725000	      3171	800021a0	40940b33	sub	x22,x8,x9	  x8:0xfffffff6  x9:0x00000001 x22=0xfffffff5
       31735000	      3172	800021a4	f7feaa93	slti	x21,x29,-129	 x29:0x80009f60 x21=0x00000001
       31745000	      3173	800021a8	66655437	lui	x8,0x66655	  x8=0x66655000
       31755000	      3174	800021ac	049fc863	blt	x31,x9,800021fc	 x31:0xfffffff5  x9:0x00000001
       31765000	      3175	00000000	00000013	addi	x0,x0,0	  x0:0x00000000
       31775000	      3176	800021f8	00000013	addi	x0,x0,0	  x0:0x00000000
       31785000	      3177	800021fc	012e4933	xor	x18,x28,x18	 x28:0x00000000 x18:0x000002e0 x18=0x000002e0
       31795000	      3178	80002200	012d4333	xor	x6,x26,x18	 x26:0x00000000 x18:0x000002e0  x6=0x000002e0
       31805000	      3179	80002204	41bd5693	srai	x13,x26,0x1b	 x26:0x00000000 x13=0x00000000
       31815000	      3180	80002208	40c10b33	sub	x22,x2,x12	  x2:0xfffff8ed x12:0x00004007 x22=0xffffb8e6
       31825000	      3181	8000220c	027d5c63	bge	x26,x7,80002244	 x26:0x00000000  x7:0x00000001
       31835000	      3182	80002210	a5a8f813	andi	x16,x17,-1446	 x17:0xde679352 x16=0xde679252
       31845000	      3183	80002214	00738a33	add	x20,x7,x7	  x7:0x00000001  x7:0x00000001 x20=0x00000002
       31855000	      3184	80002218	dc148797	auipc	x15,0xdc148	 x15=0x5c14a214
       31865000	      3185	8000221c	e1827293	andi	x5,x4,-488	  x4:0x80009fc4  x5=0x80009e00
       31875000	      3186	80002220	011ee933	or	x18,x29,x17	 x29:0x80009f60 x17:0xde679352 x18=0xde679f72
       31885000	      3187	80002224	7a132993	slti	x19,x6,1953	  x6:0x000002e0 x19=0x00000001
       31895000	      3188	80002228	00000013	addi	x0,x0,0	  x0:0x00000000
       31905000	      3189	8000222c	40138533	sub	x10,x7,x1	  x7:0x00000001  x1:0x0000000a x10=0xfffffff7
       31915000	      3190	80002230	00000013	addi	x0,x0,0	  x0:0x00000000
       31925000	      3191	80002234	00000013	addi	x0,x0,0	  x0:0x00000000
       31935000	      3192	80002238	01f42e33	slt	x28,x8,x31	  x8:0x66655000 x31:0xfffffff5 x28=0x00000000
       31945000	      3193	8000223c	002d9c13	slli	x24,x27,0x2	 x27:0x00000000 x24=0x00000000
       31955000	      3194	80002240	0172ef33	or	x30,x5,x23	  x5:0x80009e00 x23:0x0000000a x30=0x80009e0a
       31965000	      3195	80002244	408a8833	sub	x16,x21,x8	 x21:0x00000001  x8:0x66655000 x16=0x999ab001
       31975000	      3196	80002248	01239513	slli	x10,x7,0x12	  x7:0x00000001 x10=0x00040000
       31985000	      3197	8000224c	017afcb3	and	x25,x21,x23	 x21:0x00000001 x23:0x0000000a x25=0x00000000
       31995000	      3198	80002250	404d5033	sra	x0,x26,x4	 x26:0x00000000  x4:0x80009fc4
       32005000	      3199	80002254	00d899b3	sll	x19,x17,x13	 x17:0xde679352 x13:0x00000000 x19=0xde679352
       32015000	      3200	80002258	00010863	beq	x2,x0,80002268	  x2:0xfffff8ed  x0:0x00000000
       32025000	      3201	8000225c	c0a97793	andi	x15,x18,-1014	 x18:0xde679f72 x15=0xde679c02
       32035000	      3202	80002260	3bc87e13	andi	x28,x16,956	 x16:0x999ab001 x28=0x00000000
       32045000	      3203	80002264	2ee66f93	ori	x31,x12,750	 x12:0x00004007 x31=0x000042ef
       32055000	      3204	80002268	7c5d4a13	xori	x20,x26,1989	 x26:0x00000000 x20=0x000007c5
       32065000	      3205	8000226c	7cc72513	slti	x10,x14,1996	 x14:0x00000512 x10=0x00000001
       32075000	      3206	80002270	2c90ad17	auipc	x26,0x2c90a	 x26=0xac90c26c
       32085000	      3207	80002274	0140c433	xor	x8,x1,x20	  x1:0x0000000a x20:0x000007c5  x8=0x000007cf
       32095000	      3208	80002278	02364863	blt	x12,x3,800022a8	 x12:0x00004007  x3:0x00000000
       32105000	      3209	8000227c	00efacb3	slt	x25,x31,x14	 x31:0x000042ef x14:0x00000512 x25=0x00000000
       32115000	      3210	80002280	00f2d8b3	srl	x17,x5,x15	  x5:0x80009e00 x15:0xde679c02 x17=0x20002780
       32125000	      3211	80002284	03c05663	bge	x0,x28,800022b0	  x0:0x00000000 x28:0x00000000
       32135000	      3212	00000000	00000013	addi	x0,x0,0	  x0:0x00000000
       32145000	      3213	800022ac	00000013	addi	x0,x0,0	  x0:0x00000000
       32155000	      3214	800022b0	01259333	sll	x6,x11,x18	 x11:0xc9a90000 x18:0xde679f72  x6=0x00000000
       32165000	      3215	800022b4	01ec7cb3	and	x25,x24,x30	 x24:0x00000000 x30:0x80009e0a x25=0x00000000
       32175000	      3216	800022b8	01f3a533	slt	x10,x7,x31	  x7:0x00000001 x31:0x000042ef x10=0x00000001
       32185000	      3217	800022bc	03467663	bgeu	x12,x20,800022e8	 x12:0x00004007 x20:0x000007c5
       32195000	      3218	00000000	00000013	addi	x0,x0,0	  x0:0x00000000
       32205000	      3219	800022e4	00000013	addi	x0,x0,0	  x0:0x00000000
       32215000	      3220	800022e8	006cd813	srli	x16,x25,0x6	 x25:0x00000000 x16=0x00000000
       32225000	      3221	800022ec	01319cb3	sll	x25,x3,x19	  x3:0x00000000 x19:0xde679352 x25=0x00000000
       32235000	      3222	800022f0	012a5133	srl	x2,x20,x18	 x20:0x000007c5 x18:0xde679f72  x2=0x00000000
       32245000	      3223	800022f4	00baecb3	or	x25,x21,x11	 x21:0x00000001 x11:0xc9a90000 x25=0xc9a90001
       32255000	      3224	800022f8	012853b3	srl	x7,x16,x18	 x16:0x00000000 x18:0xde679f72  x7=0x00000000
       32265000	      3225	800022fc	032c4c63	blt	x24,x18,80002334	 x24:0x00000000 x18:0xde679f72
       32275000	      3226	80002300	5442fb13	andi	x22,x5,1348	  x5:0x80009e00 x22=0x00000400
       32285000	      3227	80002304	03905463	bge	x0,x25,8000232c	  x0:0x00000000 x25:0xc9a90001
       32295000	      3228	00000000	00000013	addi	x0,x0,0	  x0:0x00000000
       32305000	      3229	80002328	00000013	addi	x0,x0,0	  x0:0x00000000
       32315000	      3230	8000232c	02d60063	beq	x12,x13,8000234c	 x12:0x00004007 x13:0x00000000
       32325000	      3231	80002330	044de263	bltu	x27,x4,80002374	 x27:0x00000000  x4:0x80009fc4
       32335000	      3232	00000000	00000013	addi	x0,x0,0	  x0:0x00000000
       32345000	      3233	80002370	00000013	addi	x0,x0,0	  x0:0x00000000
       32355000	      3234	80002374	01380433	add	x8,x16,x19	 x16:0x00000000 x19:0xde679352  x8=0xde679352
       32365000	      3235	80002378	33ec1bb7	lui	x23,0x33ec1	 x23=0x33ec1000
       32375000	      3236	8000237c	07e39a63	bne	x7,x30,800023f0	  x7:0x00000000 x30:0x80009e0a
       32385000	      3237	00000000	00000013	addi	x0,x0,0	  x0:0x00000000
       32395000	      3238	800023ec	00000013	addi	x0,x0,0	  x0:0x00000000
       32405000	      3239	800023f0	00049293	slli	x5,x9,0x0	  x9:0x00000001  x5=0x00000001
       32415000	      3240	800023f4	00732433	slt	x8,x6,x7	  x6:0x00000000  x7:0x00000000  x8=0x00000000
       32425000	      3241	800023f8	049f8663	beq	x31,x9,80002444	 x31:0x000042ef  x9:0x00000001
       32435000	      3242	800023fc	01e1f863	bgeu	x3,x30,8000240c	  x3:0x00000000 x30:0x80009e0a
       32445000	      3243	80002400	05744813	xori	x16,x8,87	  x8:0x00000000 x16=0x00000057
       32455000	      3244	80002404	0279cc63	blt	x19,x7,8000243c	 x19:0xde679352  x7:0x00000000
       32465000	      3245	00000000	00000013	addi	x0,x0,0	  x0:0x00000000
       32475000	      3246	80002438	00000013	addi	x0,x0,0	  x0:0x00000000
       32485000	      3247	8000243c	4057d133	sra	x2,x15,x5	 x15:0xde679c02  x5:0x00000001  x2=0xef33ce01
       32495000	      3248	80002440	9a3d4397	auipc	x7,0x9a3d4	  x7=0x1a3d643c
       32505000	      3249	80002444	004cea33	or	x20,x25,x4	 x25:0xc9a90001  x4:0x80009fc4 x20=0xc9a99fc5
       32515000	      3250	80002448	009bd133	srl	x2,x23,x9	 x23:0x33ec1000  x9:0x00000001  x2=0x19f60800
       32525000	      3251	8000244c	03d0cc63	blt	x1,x29,80002484	  x1:0x0000000a x29:0x80009f60
       32535000	      3252	80002450	05fcc063	blt	x25,x31,80002490	 x25:0xc9a90001 x31:0x000042ef
       32545000	      3253	00000000	00000013	addi	x0,x0,0	  x0:0x00000000
       32555000	      3254	8000248c	00000013	addi	x0,x0,0	  x0:0x00000000
       32565000	      3255	80002490	02d59c63	bne	x11,x13,800024c8	 x11:0xc9a90000 x13:0x00000000
       32575000	      3256	00000000	00000013	addi	x0,x0,0	  x0:0x00000000
       32585000	      3257	800024c4	00000013	addi	x0,x0,0	  x0:0x00000000
       32595000	      3258	800024c8	00b94533	xor	x10,x18,x11	 x18:0xde679f72 x11:0xc9a90000 x10=0x17ce9f72
       32605000	      3259	800024cc	0408e863	bltu	x17,x0,8000251c	 x17:0x20002780  x0:0x00000000
       32615000	      3260	800024d0	01bd5b33	srl	x22,x26,x27	 x26:0xac90c26c x27:0x00000000 x22=0xac90c26c
       32625000	      3261	800024d4	e4d57193	andi	x3,x10,-435	 x10:0x17ce9f72  x3=0x17ce9e40
       32635000	      3262	800024d8	76406b13	ori	x22,x0,1892	  x0:0x00000000 x22=0x00000764
       32645000	      3263	800024dc	bff33893	sltiu	x17,x6,-1025	  x6:0x00000000 x17=0x00000001
       32655000	      3264	800024e0	04cde793	ori	x15,x27,76	 x27:0x00000000 x15=0x0000004c
       32665000	      3265	800024e4	01d03bb3	sltu	x23,x0,x29	  x0:0x00000000 x29:0x80009f60 x23=0x00000001
       32675000	      3266	800024e8	016a9313	slli	x6,x21,0x16	 x21:0x00000001  x6=0x00400000
       32685000	      3267	800024ec	00a31893	slli	x17,x6,0xa	  x6:0x00400000 x17=0x00000000
       32695000	      3268	800024f0	417e85b3	sub	x11,x29,x23	 x29:0x80009f60 x23:0x00000001 x11=0x80009f5f
       32705000	      3269	800024f4	035f9c63	bne	x31,x21,8000252c	 x31:0x000042ef x21:0x00000001
       32715000	      3270	00000000	00000013	addi	x0,x0,0	  x0:0x00000000
       32725000	      3271	80002528	00000013	addi	x0,x0,0	  x0:0x00000000
       32735000	      3272	8000252c	4195d9b3	sra	x19,x11,x25	 x11:0x80009f5f x25:0xc9a90001 x19=0xc0004faf
       32745000	      3273	80002530	01198fb3	add	x31,x19,x17	 x19:0xc0004faf x17:0x00000000 x31=0xc0004faf
       32755000	      3274	80002534	41f65833	sra	x16,x12,x31	 x12:0x00004007 x31:0xc0004faf x16=0x00000000
       32765000	      3275	80002538	03fa0e63	beq	x20,x31,80002574	 x20:0xc9a99fc5 x31:0xc0004faf
       32775000	      3276	8000253c	b64b7397	auipc	x7,0xb64b7	  x7=0x364b9538
       32785000	      3277	80002540	8f9f4517	auipc	x10,0x8f9f4	 x10=0x0f9f653c
       32795000	      3278	80002544	007cfdb3	and	x27,x25,x7	 x25:0xc9a90001  x7:0x364b9538 x27=0x00090000
       32805000	      3279	80002548	00813f33	sltu	x30,x2,x8	  x2:0x19f60800  x8:0x00000000 x30=0x00000000
       32815000	      3280	8000254c	41cd5ab3	sra	x21,x26,x28	 x26:0xac90c26c x28:0x00000000 x21=0xac90c26c
       32825000	      3281	80002550	0151f833	and	x16,x3,x21	  x3:0x17ce9e40 x21:0xac90c26c x16=0x04808240
       32835000	      3282	80002554	36674393	xori	x7,x14,870	 x14:0x00000512  x7=0x00000674
       32845000	      3283	80002558	01377433	and	x8,x14,x19	 x14:0x00000512 x19:0xc0004faf  x8=0x00000502
       32855000	      3284	8000255c	01b0dc93	srli	x25,x1,0x1b	  x1:0x0000000a x25=0x00000000
       32865000	      3285	80002560	02ab6863	bltu	x22,x10,80002590	 x22:0x00000764 x10:0x0f9f653c
       32875000	      3286	00000000	00000013	addi	x0,x0,0	  x0:0x00000000
       32885000	      3287	8000258c	00000013	addi	x0,x0,0	  x0:0x00000000
       32895000	      3288	80002590	00898933	add	x18,x19,x8	 x19:0xc0004faf  x8:0x00000502 x18=0xc00054b1
       32905000	      3289	80002594	c292f113	andi	x2,x5,-983	  x5:0x00000001  x2=0x00000001
       32915000	      3290	80002598	00c26c33	or	x24,x4,x12	  x4:0x80009fc4 x12:0x00004007 x24=0x8000dfc7
       32925000	      3291	8000259c	01745a33	srl	x20,x8,x23	  x8:0x00000502 x23:0x00000001 x20=0x00000281
       32935000	      3292	800025a0	29b9aa93	slti	x21,x19,667	 x19:0xc0004faf x21=0x00000001
       32945000	      3293	800025a4	02069063	bne	x13,x0,800025c4	 x13:0x00000000  x0:0x00000000
       32955000	      3294	800025a8	f3a84837	lui	x16,0xf3a84	 x16=0xf3a84000
       32965000	      3295	800025ac	01ef6c63	bltu	x30,x30,800025c4	 x30:0x00000000 x30:0x00000000
       32975000	      3296	800025b0	01321e13	slli	x28,x4,0x13	  x4:0x80009fc4 x28=0xfe200000
       32985000	      3297	800025b4	40295ab3	sra	x21,x18,x2	 x18:0xc00054b1  x2:0x00000001 x21=0xe0002a58
       32995000	      3298	800025b8	04ad4463	blt	x26,x10,80002600	 x26:0xac90c26c x10:0x0f9f653c
       33005000	      3299	00000000	00000013	addi	x0,x0,0	  x0:0x00000000
       33015000	      3300	800025fc	00000013	addi	x0,x0,0	  x0:0x00000000
       33025000	      3301	80002600	41705b93	srai	x23,x0,0x17	  x0:0x00000000 x23=0x00000000
       33035000	      3302	80002604	04c5e663	bltu	x11,x12,80002650	 x11:0x80009f5f x12:0x00004007
       33045000	      3303	80002608	40f7d3b3	sra	x7,x15,x15	 x15:0x0000004c x15:0x0000004c  x7=0x00000000
       33055000	      3304	8000260c	00000013	addi	x0,x0,0	  x0:0x00000000
       33065000	      3305	80002610	00d0d8b3	srl	x17,x1,x13	  x1:0x0000000a x13:0x00000000 x17=0x0000000a
       33075000	      3306	80002614	01e71d93	slli	x27,x14,0x1e	 x14:0x00000512 x27=0x80000000
       33085000	      3307	80002618	fd35f813	andi	x16,x11,-45	 x11:0x80009f5f x16=0x80009f53
       33095000	      3308	8000261c	03720c63	beq	x4,x23,80002654	  x4:0x80009fc4 x23:0x00000000
       33105000	      3309	80002620	9faaa013	slti	x0,x21,-1542	 x21:0xe0002a58
       33115000	      3310	80002624	4120ddb3	sra	x27,x1,x18	  x1:0x0000000a x18:0xc00054b1 x27=0x00000000
       33125000	      3311	80002628	02224063	blt	x4,x2,80002648	  x4:0x80009fc4  x2:0x00000001
       33135000	      3312	00000000	00000013	addi	x0,x0,0	  x0:0x00000000
       33145000	      3313	80002644	00000013	addi	x0,x0,0	  x0:0x00000000
       33155000	      3314	80002648	04597863	bgeu	x18,x5,80002698	 x18:0xc00054b1  x5:0x00000001
       33165000	      3315	00000000	00000013	addi	x0,x0,0	  x0:0x00000000
       33175000	      3316	80002694	00000013	addi	x0,x0,0	  x0:0x00000000
       33185000	      3317	80002698	05865863	bge	x12,x24,800026e8	 x12:0x00004007 x24:0x8000dfc7
       33195000	      3318	00000000	00000013	addi	x0,x0,0	  x0:0x00000000
       33205000	      3319	800026e4	00000013	addi	x0,x0,0	  x0:0x00000000
       33215000	      3320	800026e8	172a3013	sltiu	x0,x20,370	 x20:0x00000281
       33225000	      3321	800026ec	004d99b3	sll	x19,x27,x4	 x27:0x00000000  x4:0x80009fc4 x19=0x00000000
       33235000	      3322	800026f0	19fc0c13	addi	x24,x24,415	 x24:0x8000dfc7 x24=0x8000e166
       33245000	      3323	800026f4	00c75133	srl	x2,x14,x12	 x14:0x00000512 x12:0x00004007  x2=0x0000000a
       33255000	      3324	800026f8	00000013	addi	x0,x0,0	  x0:0x00000000
       33265000	      3325	800026fc	053b8263	beq	x23,x19,80002740	 x23:0x00000000 x19:0x00000000
       33275000	      3326	00000000	00000013	addi	x0,x0,0	  x0:0x00000000
       33285000	      3327	8000273c	00000013	addi	x0,x0,0	  x0:0x00000000
       33295000	      3328	80002740	02fa7863	bgeu	x20,x15,80002770	 x20:0x00000281 x15:0x0000004c
       33305000	      3329	00000000	00000013	addi	x0,x0,0	  x0:0x00000000
       33315000	      3330	8000276c	00000013	addi	x0,x0,0	  x0:0x00000000
       33325000	      3331	80002770	04a27263	bgeu	x4,x10,800027b4	  x4:0x80009fc4 x10:0x0f9f653c
       33335000	      3332	00000000	00000013	addi	x0,x0,0	  x0:0x00000000
       33345000	      3333	800027b0	00000013	addi	x0,x0,0	  x0:0x00000000
       33355000	      3334	800027b4	01cbdd13	srli	x26,x23,0x1c	 x23:0x00000000 x26=0x00000000
       33365000	      3335	800027b8	40b80333	sub	x6,x16,x11	 x16:0x80009f53 x11:0x80009f5f  x6=0xfffffff4
       33375000	      3336	800027bc	c737c593	xori	x11,x15,-909	 x15:0x0000004c x11=0xfffffc3f
       33385000	      3337	800027c0	01601833	sll	x16,x0,x22	  x0:0x00000000 x22:0x00000764 x16=0x00000000
       33395000	      3338	800027c4	008ddd93	srli	x27,x27,0x8	 x27:0x00000000 x27=0x00000000
       33405000	      3339	800027c8	b69ab717	auipc	x14,0xb69ab	 x14=0x369ad7c4
       33415000	      3340	800027cc	052def13	ori	x30,x27,82	 x27:0x00000000 x30=0x00000052
       33425000	      3341	800027d0	4021d413	srai	x8,x3,0x2	  x3:0x17ce9e40  x8=0x05f3a790
       33435000	      3342	800027d4	00585813	srli	x16,x16,0x5	 x16:0x00000000 x16=0x00000000
       33445000	      3343	800027d8	00b39ab3	sll	x21,x7,x11	  x7:0x00000000 x11:0xfffffc3f x21=0x00000000
       33455000	      3344	800027dc	4f4a4b13	xori	x22,x20,1268	 x20:0x00000281 x22=0x00000675
       33465000	      3345	800027e0	04600663	beq	x0,x6,8000282c	  x0:0x00000000  x6:0xfffffff4
       33475000	      3346	800027e4	b1350013	addi	x0,x10,-1261	 x10:0x0f9f653c
       33485000	      3347	800027e8	00b45863	bge	x8,x11,800027f8	  x8:0x05f3a790 x11:0xfffffc3f
       33495000	      3348	00000000	00000013	addi	x0,x0,0	  x0:0x00000000
       33505000	      3349	800027f4	00000013	addi	x0,x0,0	  x0:0x00000000
       33515000	      3350	800027f8	1930a693	slti	x13,x1,403	  x1:0x0000000a x13=0x00000001
       33525000	      3351	800027fc	400ad013	srai	x0,x21,0x0	 x21:0x00000000
       33535000	      3352	80002800	02e59663	bne	x11,x14,8000282c	 x11:0xfffffc3f x14:0x369ad7c4
       33545000	      3353	00000000	00000013	addi	x0,x0,0	  x0:0x00000000
       33555000	      3354	80002828	00000013	addi	x0,x0,0	  x0:0x00000000
       33565000	      3355	8000282c	011aa6b3	slt	x13,x21,x17	 x21:0x00000000 x17:0x0000000a x13=0x00000001
       33575000	      3356	80002830	0164c863	blt	x9,x22,80002840	  x9:0x00000001 x22:0x00000675
       33585000	      3357	00000000	00000013	addi	x0,x0,0	  x0:0x00000000
       33595000	      3358	8000283c	00000013	addi	x0,x0,0	  x0:0x00000000
       33605000	      3359	80002840	812db637	lui	x12,0x812db	 x12=0x812db000
       33615000	      3360	80002844	00955cb3	srl	x25,x10,x9	 x10:0x0f9f653c  x9:0x00000001 x25=0x07cfb29e
       33625000	      3361	80002848	01691693	slli	x13,x18,0x16	 x18:0xc00054b1 x13=0x2c400000
       33635000	      3362	8000284c	01501993	slli	x19,x0,0x15	  x0:0x00000000 x19=0x00000000
       33645000	      3363	80002850	004b3a33	sltu	x20,x22,x4	 x22:0x00000675  x4:0x80009fc4 x20=0x00000001
       33655000	      3364	80002854	00c27c63	bgeu	x4,x12,8000286c	  x4:0x80009fc4 x12:0x812db000
       33665000	      3365	80002858	00a0d633	srl	x12,x1,x10	  x1:0x0000000a x10:0x0f9f653c x12=0x00000000
       33675000	      3366	8000285c	002ccb33	xor	x22,x25,x2	 x25:0x07cfb29e  x2:0x0000000a x22=0x07cfb294
       33685000	      3367	80002860	4191d3b3	sra	x7,x3,x25	  x3:0x17ce9e40 x25:0x07cfb29e  x7=0x00000000
       33695000	      3368	80002864	0233cc63	blt	x7,x3,8000289c	  x7:0x00000000  x3:0x17ce9e40
       33705000	      3369	00000000	00000013	addi	x0,x0,0	  x0:0x00000000
       33715000	      3370	80002898	00000013	addi	x0,x0,0	  x0:0x00000000
       33725000	      3371	8000289c	057f7063	bgeu	x30,x23,800028dc	 x30:0x00000052 x23:0x00000000
       33735000	      3372	00000000	00000013	addi	x0,x0,0	  x0:0x00000000
       33745000	      3373	800028d8	00000013	addi	x0,x0,0	  x0:0x00000000
       33755000	      3374	800028dc	2fc33c93	sltiu	x25,x6,764	  x6:0xfffffff4 x25=0x00000000
       33765000	      3375	800028e0	00d46433	or	x8,x8,x13	  x8:0x05f3a790 x13:0x2c400000  x8=0x2df3a790
       33775000	      3376	800028e4	03421c63	bne	x4,x20,8000291c	  x4:0x80009fc4 x20:0x00000001
       33785000	      3377	00000000	00000013	addi	x0,x0,0	  x0:0x00000000
       33795000	      3378	80002918	00000013	addi	x0,x0,0	  x0:0x00000000
       33805000	      3379	8000291c	4174db13	srai	x22,x9,0x17	  x9:0x00000001 x22=0x00000000
       33815000	      3380	80002920	01d6df93	srli	x31,x13,0x1d	 x13:0x2c400000 x31=0x00000001
       33825000	      3381	80002924	01ca02b3	add	x5,x20,x28	 x20:0x00000001 x28:0xfe200000  x5=0xfe200001
       33835000	      3382	80002928	01e01513	slli	x10,x0,0x1e	  x0:0x00000000 x10=0x00000000
       33845000	      3383	8000292c	00650433	add	x8,x10,x6	 x10:0x00000000  x6:0xfffffff4  x8=0xfffffff4
       33855000	      3384	80002930	01e92e33	slt	x28,x18,x30	 x18:0xc00054b1 x30:0x00000052 x28=0x00000001
       33865000	      3385	80002934	26711db7	lui	x27,0x26711	 x27=0x26711000
       33875000	      3386	80002938	cfacf693	andi	x13,x25,-774	 x25:0x00000000 x13=0x00000000
       33885000	      3387	8000293c	36c7c813	xori	x16,x15,876	 x15:0x0000004c x16=0x00000320
       33895000	      3388	80002940	0019cab3	xor	x21,x19,x1	 x19:0x00000000  x1:0x0000000a x21=0x0000000a
       33905000	      3389	80002944	006ce863	bltu	x25,x6,80002954	 x25:0x00000000  x6:0xfffffff4
       33915000	      3390	00000000	00000013	addi	x0,x0,0	  x0:0x00000000
       33925000	      3391	80002950	00000013	addi	x0,x0,0	  x0:0x00000000
       33935000	      3392	80002954	04d36463	bltu	x6,x13,8000299c	  x6:0xfffffff4 x13:0x00000000
       33945000	      3393	80002958	001c9713	slli	x14,x25,0x1	 x25:0x00000000 x14=0x00000000
       33955000	      3394	8000295c	4142d3b3	sra	x7,x5,x20	  x5:0xfe200001 x20:0x00000001  x7=0xff100000
       33965000	      3395	80002960	01a20033	add	x0,x4,x26	  x4:0x80009fc4 x26:0x00000000
       33975000	      3396	80002964	00000013	addi	x0,x0,0	  x0:0x00000000
       33985000	      3397	80002968	24f2e393	ori	x7,x5,591	  x5:0xfe200001  x7=0xfe20024f
       33995000	      3398	8000296c	00581013	slli	x0,x16,0x5	 x16:0x00000320
       34005000	      3399	80002970	414c5ab3	sra	x21,x24,x20	 x24:0x8000e166 x20:0x00000001 x21=0xc00070b3
       34015000	      3400	80002974	0338c863	blt	x17,x19,800029a4	 x17:0x0000000a x19:0x00000000
       34025000	      3401	80002978	0143e933	or	x18,x7,x20	  x7:0xfe20024f x20:0x00000001 x18=0xfe20024f
       34035000	      3402	8000297c	03f1d663	bge	x3,x31,800029a8	  x3:0x17ce9e40 x31:0x00000001
       34045000	      3403	00000000	00000013	addi	x0,x0,0	  x0:0x00000000
       34055000	      3404	800029a4	00000013	addi	x0,x0,0	  x0:0x00000000
       34065000	      3405	800029a8	018c9d13	slli	x26,x25,0x18	 x25:0x00000000 x26=0x00000000
       34075000	      3406	800029ac	f4d20713	addi	x14,x4,-179	  x4:0x80009fc4 x14=0x80009f11
       34085000	      3407	800029b0	416f0fb3	sub	x31,x30,x22	 x30:0x00000052 x22:0x00000000 x31=0x00000052
       34095000	      3408	800029b4	05c5f863	bgeu	x11,x28,80002a04	 x11:0xfffffc3f x28:0x00000001
       34105000	      3409	00000000	00000013	addi	x0,x0,0	  x0:0x00000000
       34115000	      3410	80002a00	00000013	addi	x0,x0,0	  x0:0x00000000
       34125000	      3411	80002a04	0177d113	srli	x2,x15,0x17	 x15:0x0000004c  x2=0x00000000
       34135000	      3412	80002a08	009a8db3	add	x27,x21,x9	 x21:0xc00070b3  x9:0x00000001 x27=0xc00070b4
       34145000	      3413	80002a0c	b73ac113	xori	x2,x21,-1165	 x21:0xc00070b3  x2=0x3fff8bc0
       34155000	      3414	80002a10	007ea8b3	slt	x17,x29,x7	 x29:0x80009f60  x7:0xfe20024f x17=0x00000001
       34165000	      3415	80002a14	46172c13	slti	x24,x14,1121	 x14:0x80009f11 x24=0x00000001
       34175000	      3416	80002a18	65934113	xori	x2,x6,1625	  x6:0xfffffff4  x2=0xfffff9ad
       34185000	      3417	80002a1c	00805f93	srli	x31,x0,0x8	  x0:0x00000000 x31=0x00000000
       34195000	      3418	80002a20	2b35b2b7	lui	x5,0x2b35b	  x5=0x2b35b000
       34205000	      3419	80002a24	0487f263	bgeu	x15,x8,80002a68	 x15:0x0000004c  x8:0xfffffff4
       34215000	      3420	80002a28	4633ce13	xori	x28,x7,1123	  x7:0xfe20024f x28=0xfe20062c
       34225000	      3421	80002a2c	41415093	srai	x1,x2,0x14	  x2:0xfffff9ad  x1=0xffffffff
       34235000	      3422	80002a30	5cb0a293	slti	x5,x1,1483	  x1:0xffffffff  x5=0x00000001
       34245000	      3423	80002a34	17c90a93	addi	x21,x18,380	 x18:0xfe20024f x21=0xfe2003cb
       34255000	      3424	80002a38	009b5d13	srli	x26,x22,0x9	 x22:0x00000000 x26=0x00000000
       34265000	      3425	80002a3c	44420d13	addi	x26,x4,1092	  x4:0x80009fc4 x26=0x8000a408
       34275000	      3426	80002a40	0103e863	bltu	x7,x16,80002a50	  x7:0xfe20024f x16:0x00000320
       34285000	      3427	80002a44	03fa0863	beq	x20,x31,80002a74	 x20:0x00000001 x31:0x00000000
       34295000	      3428	80002a48	01439913	slli	x18,x7,0x14	  x7:0xfe20024f x18=0x24f00000
       34305000	      3429	80002a4c	03c2ec63	bltu	x5,x28,80002a84	  x5:0x00000001 x28:0xfe20062c
       34315000	      3430	00000000	00000013	addi	x0,x0,0	  x0:0x00000000
       34325000	      3431	80002a80	00000013	addi	x0,x0,0	  x0:0x00000000
       34335000	      3432	80002a84	00647863	bgeu	x8,x6,80002a94	  x8:0xfffffff4  x6:0xfffffff4
       34345000	      3433	00000000	00000013	addi	x0,x0,0	  x0:0x00000000
       34355000	      3434	80002a90	00000013	addi	x0,x0,0	  x0:0x00000000
       34365000	      3435	80002a94	00c6d733	srl	x14,x13,x12	 x13:0x00000000 x12:0x00000000 x14=0x00000000
       34375000	      3436	80002a98	0091ea33	or	x20,x3,x9	  x3:0x17ce9e40  x9:0x00000001 x20=0x17ce9e41
       34385000	      3437	80002a9c	a2312093	slti	x1,x2,-1501	  x2:0xfffff9ad  x1=0x00000001
       34395000	      3438	80002aa0	004b9593	slli	x11,x23,0x4	 x23:0x00000000 x11=0x00000000
       34405000	      3439	80002aa4	03585063	bge	x16,x21,80002ac4	 x16:0x00000320 x21:0xfe2003cb
       34415000	      3440	00000000	00000013	addi	x0,x0,0	  x0:0x00000000
       34425000	      3441	80002ac0	00000013	addi	x0,x0,0	  x0:0x00000000
       34435000	      3442	80002ac4	9c10ac13	slti	x24,x1,-1599	  x1:0x00000001 x24=0x00000000
       34445000	      3443	80002ac8	010bf833	and	x16,x23,x16	 x23:0x00000000 x16:0x00000320 x16=0x00000000
       34455000	      3444	80002acc	4aaf3793	sltiu	x15,x30,1194	 x30:0x00000052 x15=0x00000001
       34465000	      3445	80002ad0	005fa433	slt	x8,x31,x5	 x31:0x00000000  x5:0x00000001  x8=0x00000001
       34475000	      3446	80002ad4	4048d793	srai	x15,x17,0x4	 x17:0x00000001 x15=0x00000000
       34485000	      3447	80002ad8	40658133	sub	x2,x11,x6	 x11:0x00000000  x6:0xfffffff4  x2=0x0000000c
       34495000	      3448	80002adc	00e7f1b3	and	x3,x15,x14	 x15:0x00000000 x14:0x00000000  x3=0x00000000
       34505000	      3449	80002ae0	40d68033	sub	x0,x13,x13	 x13:0x00000000 x13:0x00000000
       34515000	      3450	80002ae4	05a41063	bne	x8,x26,80002b24	  x8:0x00000001 x26:0x8000a408
       34525000	      3451	00000000	00000013	addi	x0,x0,0	  x0:0x00000000
       34535000	      3452	80002b20	00000013	addi	x0,x0,0	  x0:0x00000000
       34545000	      3453	80002b24	a850b513	sltiu	x10,x1,-1403	  x1:0x00000001 x10=0x00000001
       34555000	      3454	80002b28	01a13133	sltu	x2,x2,x26	  x2:0x0000000c x26:0x8000a408  x2=0x00000001
       34565000	      3455	80002b2c	7907ec93	ori	x25,x15,1936	 x15:0x00000000 x25=0x00000790
       34575000	      3456	80002b30	013e3db3	sltu	x27,x28,x19	 x28:0xfe20062c x19:0x00000000 x27=0x00000000
       34585000	      3457	80002b34	0478e063	bltu	x17,x7,80002b74	 x17:0x00000001  x7:0xfe20024f
       34595000	      3458	00000000	00000013	addi	x0,x0,0	  x0:0x00000000
       34605000	      3459	80002b70	00000013	addi	x0,x0,0	  x0:0x00000000
       34615000	      3460	80002b74	acb64317	auipc	x6,0xacb64	  x6=0x2cb66b70
       34625000	      3461	80002b78	04594863	blt	x18,x5,80002bc8	 x18:0x24f00000  x5:0x00000001
       34635000	      3462	80002b7c	05049663	bne	x9,x16,80002bc8	  x9:0x00000001 x16:0x00000000
       34645000	      3463	00000000	00000013	addi	x0,x0,0	  x0:0x00000000
       34655000	      3464	80002bc4	00000013	addi	x0,x0,0	  x0:0x00000000
       34665000	      3465	80002bc8	008a1713	slli	x14,x20,0x8	 x20:0x17ce9e41 x14=0xce9e4100
       34675000	      3466	80002bcc	00c6ebb3	or	x23,x13,x12	 x13:0x00000000 x12:0x00000000 x23=0x00000000
       34685000	      3467	80002bd0	7fa29b17	auipc	x22,0x7fa29	 x22=0xffa2bbcc
       34695000	      3468	80002bd4	02a9cc63	blt	x19,x10,80002c0c	 x19:0x00000000 x10:0x00000001
       34705000	      3469	00000000	00000013	addi	x0,x0,0	  x0:0x00000000
       34715000	      3470	80002c08	00000013	addi	x0,x0,0	  x0:0x00000000
       34725000	      3471	80002c0c	887e2017	auipc	x0,0x887e2	
       34735000	      3472	80002c10	00000013	addi	x0,x0,0	  x0:0x00000000
       34745000	      3473	80002c14	05521863	bne	x4,x21,80002c64	  x4:0x80009fc4 x21:0xfe2003cb
       34755000	      3474	00000000	00000013	addi	x0,x0,0	  x0:0x00000000
       34765000	      3475	80002c60	00000013	addi	x0,x0,0	  x0:0x00000000
       34775000	      3476	80002c64	03f46e63	bltu	x8,x31,80002ca0	  x8:0x00000001 x31:0x00000000
       34785000	      3477	80002c68	59cb3793	sltiu	x15,x22,1436	 x22:0xffa2bbcc x15=0x00000000
       34795000	      3478	80002c6c	01e71833	sll	x16,x14,x30	 x14:0xce9e4100 x30:0x00000052 x16=0x04000000
       34805000	      3479	80002c70	05b7c863	blt	x15,x27,80002cc0	 x15:0x00000000 x27:0x00000000
       34815000	      3480	80002c74	0398c663	blt	x17,x25,80002ca0	 x17:0x00000001 x25:0x00000790
       34825000	      3481	00000000	00000013	addi	x0,x0,0	  x0:0x00000000
       34835000	      3482	80002c9c	00000013	addi	x0,x0,0	  x0:0x00000000
       34845000	      3483	80002ca0	015d7133	and	x2,x26,x21	 x26:0x8000a408 x21:0xfe2003cb  x2=0x80000008
       34855000	      3484	80002ca4	412f8133	sub	x2,x31,x18	 x31:0x00000000 x18:0x24f00000  x2=0xdb100000
       34865000	      3485	80002ca8	01f17863	bgeu	x2,x31,80002cb8	  x2:0xdb100000 x31:0x00000000
       34875000	      3486	00000000	00000013	addi	x0,x0,0	  x0:0x00000000
       34885000	      3487	80002cb4	00000013	addi	x0,x0,0	  x0:0x00000000
       34895000	      3488	80002cb8	007bc863	blt	x23,x7,80002cc8	 x23:0x00000000  x7:0xfe20024f
       34905000	      3489	80002cbc	01f53cb3	sltu	x25,x10,x31	 x10:0x00000001 x31:0x00000000 x25=0x00000000
       34915000	      3490	80002cc0	049b4063	blt	x22,x9,80002d00	 x22:0xffa2bbcc  x9:0x00000001
       34925000	      3491	00000000	00000013	addi	x0,x0,0	  x0:0x00000000
       34935000	      3492	80002cfc	00000013	addi	x0,x0,0	  x0:0x00000000
       34945000	      3493	80002d00	04dd7463	bgeu	x26,x13,80002d48	 x26:0x8000a408 x13:0x00000000
       34955000	      3494	00000000	00000013	addi	x0,x0,0	  x0:0x00000000
       34965000	      3495	80002d44	00000013	addi	x0,x0,0	  x0:0x00000000
       34975000	      3496	80002d48	7588c293	xori	x5,x17,1880	 x17:0x00000001  x5=0x00000759
       34985000	      3497	80002d4c	03be0863	beq	x28,x27,80002d7c	 x28:0xfe20062c x27:0x00000000
       34995000	      3498	80002d50	004ea2b3	slt	x5,x29,x4	 x29:0x80009f60  x4:0x80009fc4  x5=0x00000001
       35005000	      3499	80002d54	014f37b3	sltu	x15,x30,x20	 x30:0x00000052 x20:0x17ce9e41 x15=0x00000001
       35015000	      3500	80002d58	01a86f33	or	x30,x16,x26	 x16:0x04000000 x26:0x8000a408 x30=0x8400a408
       35025000	      3501	80002d5c	c02bb093	sltiu	x1,x23,-1022	 x23:0x00000000  x1=0x00000001
       35035000	      3502	80002d60	3d722d13	slti	x26,x4,983	  x4:0x80009fc4 x26=0x00000001
       35045000	      3503	80002d64	e1090837	lui	x16,0xe1090	 x16=0xe1090000
       35055000	      3504	80002d68	00b06c63	bltu	x0,x11,80002d80	  x0:0x00000000 x11:0x00000000
       35065000	      3505	80002d6c	ec65ed13	ori	x26,x11,-314	 x11:0x00000000 x26=0xfffffec6
       35075000	      3506	80002d70	ca237193	andi	x3,x6,-862	  x6:0x2cb66b70  x3=0x2cb66820
       35085000	      3507	80002d74	009579b3	and	x19,x10,x9	 x10:0x00000001  x9:0x00000001 x19=0x00000001
       35095000	      3508	80002d78	4174ddb3	sra	x27,x9,x23	  x9:0x00000001 x23:0x00000000 x27=0x00000001
       35105000	      3509	80002d7c	03c66c63	bltu	x12,x28,80002db4	 x12:0x00000000 x28:0xfe20062c
       35115000	      3510	00000000	00000013	addi	x0,x0,0	  x0:0x00000000
       35125000	      3511	80002db0	00000013	addi	x0,x0,0	  x0:0x00000000
       35135000	      3512	80002db4	03a48a63	beq	x9,x26,80002de8	  x9:0x00000001 x26:0xfffffec6
       35145000	      3513	80002db8	0201f863	bgeu	x3,x0,80002de8	  x3:0x2cb66820  x0:0x00000000
       35155000	      3514	00000000	00000013	addi	x0,x0,0	  x0:0x00000000
       35165000	      3515	80002de4	00000013	addi	x0,x0,0	  x0:0x00000000
       35175000	      3516	80002de8	413fd993	srai	x19,x31,0x13	 x31:0x00000000 x19=0x00000000
       35185000	      3517	80002dec	41db8ab3	sub	x21,x23,x29	 x23:0x00000000 x29:0x80009f60 x21=0x7fff60a0
       35195000	      3518	80002df0	410ddd93	srai	x27,x27,0x10	 x27:0x00000001 x27=0x00000000
       35205000	      3519	80002df4	004ea083	lw	x1,4(x29)	 x29:0x80009f60  x1=0x800009d4 PA:0x80009f64
       35215000	      3520	80002df8	000db033	sltu	x0,x27,x0	 x27:0x00000000  x0:0x00000000
       35225000	      3521	80002dfc	30118a93	addi	x21,x3,769	  x3:0x2cb66820 x21=0x2cb66b21
       35235000	      3522	80002e00	00ce8e93	addi	x29,x29,12	 x29:0x80009f60 x29=0x80009f6c
       35245000	      3523	80002e04	00fa5733	srl	x14,x20,x15	 x20:0x17ce9e41 x15:0x00000001 x14=0x0be74f20
       35255000	      3524	80002e08	00ef6fb3	or	x31,x30,x14	 x30:0x8400a408 x14:0x0be74f20 x31=0x8fe7ef28
       35265000	      3525	80002e0c	00008893	addi	x17,x1,0	  x1:0x800009d4 x17=0x800009d4
       35275000	      3526	80002e10	000888e7	jalr	x17,x17,0	 x17:0x800009d4 x17=0x80002e10
       35285000	      3527	00000000	00000013	addi	x0,x0,0	  x0:0x00000000
       35295000	      3528	800009d4	00000013	addi	x0,x0,0	  x0:0x00000000
       35305000	      3529	800009d8	00500c13	addi	x24,x0,5	  x0:0x00000000 x24=0x00000005
       35315000	      3530	800009dc	0029e6b3	or	x13,x19,x2	 x19:0x00000000  x2:0xdb100000 x13=0xdb100000
       35325000	      3531	800009e0	c4078b13	addi	x22,x15,-960	 x15:0x00000001 x22=0xfffffc41
       35335000	      3532	800009e4	01131613	slli	x12,x6,0x11	  x6:0x2cb66b70 x12=0xd6e00000
       35345000	      3533	800009e8	01a326b3	slt	x13,x6,x26	  x6:0x2cb66b70 x26:0xfffffec6 x13=0x00000000
       35355000	      3534	800009ec	01000093	addi	x1,x0,16	  x0:0x00000000  x1=0x00000010
       35365000	      3535	800009f0	0e05ce13	xori	x28,x11,224	 x11:0x00000000 x28=0x000000e0
       35375000	      3536	800009f4	acb73c97	auipc	x25,0xacb73	 x25=0x2cb739f0
       35385000	      3537	800009f8	01cc9433	sll	x8,x25,x28	 x25:0x2cb739f0 x28:0x000000e0  x8=0x2cb739f0
       35395000	      3538	800009fc	9c6c0993	addi	x19,x24,-1594	 x24:0x00000005 x19=0xfffff9cb
       35405000	      3539	80000a00	41a05e33	sra	x28,x0,x26	  x0:0x00000000 x26:0xfffffec6 x28=0x00000000
       35415000	      3540	80000a04	013f3033	sltu	x0,x30,x19	 x30:0x8400a408 x19:0xfffff9cb
       35425000	      3541	80000a08	01ef5033	srl	x0,x30,x30	 x30:0x8400a408 x30:0x8400a408
       35435000	      3542	80000a0c	004c0c13	addi	x24,x24,4	 x24:0x00000005 x24=0x00000009
       35445000	      3543	80000a10	408b85b3	sub	x11,x23,x8	 x23:0x00000000  x8:0x2cb739f0 x11=0xd348c610
       35455000	      3544	80000a14	00ff05b3	add	x11,x30,x15	 x30:0x8400a408 x15:0x00000001 x11=0x8400a409
       35465000	      3545	80000a18	01676fb3	or	x31,x14,x22	 x14:0x0be74f20 x22:0xfffffc41 x31=0xffffff61
       35475000	      3546	80000a1c	40688f33	sub	x30,x17,x6	 x17:0x80002e10  x6:0x2cb66b70 x30=0x5349c2a0
       35485000	      3547	80000a20	404981b3	sub	x3,x19,x4	 x19:0xfffff9cb  x4:0x80009fc4  x3=0x7fff5a07
       35495000	      3548	80000a24	015c9d93	slli	x27,x25,0x15	 x25:0x2cb739f0 x27=0x3e000000
       35505000	      3549	80000a28	fc1c66e3	bltu	x24,x1,800009f4	 x24:0x00000009  x1:0x00000010
       35515000	      3550	00000000	00000013	addi	x0,x0,0	  x0:0x00000000
       35525000	      3551	800009f0	00000013	addi	x0,x0,0	  x0:0x00000000
       35535000	      3552	800009f4	acb73c97	auipc	x25,0xacb73	 x25=0x2cb739f0
       35545000	      3553	800009f8	01cc9433	sll	x8,x25,x28	 x25:0x2cb739f0 x28:0x00000000  x8=0x2cb739f0
       35555000	      3554	800009fc	9c6c0993	addi	x19,x24,-1594	 x24:0x00000009 x19=0xfffff9cf
       35565000	      3555	80000a00	41a05e33	sra	x28,x0,x26	  x0:0x00000000 x26:0xfffffec6 x28=0x00000000
       35575000	      3556	80000a04	013f3033	sltu	x0,x30,x19	 x30:0x5349c2a0 x19:0xfffff9cf
       35585000	      3557	80000a08	01ef5033	srl	x0,x30,x30	 x30:0x5349c2a0 x30:0x5349c2a0
       35595000	      3558	80000a0c	004c0c13	addi	x24,x24,4	 x24:0x00000009 x24=0x0000000d
       35605000	      3559	80000a10	408b85b3	sub	x11,x23,x8	 x23:0x00000000  x8:0x2cb739f0 x11=0xd348c610
       35615000	      3560	80000a14	00ff05b3	add	x11,x30,x15	 x30:0x5349c2a0 x15:0x00000001 x11=0x5349c2a1
       35625000	      3561	80000a18	01676fb3	or	x31,x14,x22	 x14:0x0be74f20 x22:0xfffffc41 x31=0xffffff61
       35635000	      3562	80000a1c	40688f33	sub	x30,x17,x6	 x17:0x80002e10  x6:0x2cb66b70 x30=0x5349c2a0
       35645000	      3563	80000a20	404981b3	sub	x3,x19,x4	 x19:0xfffff9cf  x4:0x80009fc4  x3=0x7fff5a0b
       35655000	      3564	80000a24	015c9d93	slli	x27,x25,0x15	 x25:0x2cb739f0 x27=0x3e000000
       35665000	      3565	80000a28	fc1c66e3	bltu	x24,x1,800009f4	 x24:0x0000000d  x1:0x00000010
       35675000	      3566	00000000	00000013	addi	x0,x0,0	  x0:0x00000000
       35685000	      3567	800009f0	00000013	addi	x0,x0,0	  x0:0x00000000
       35695000	      3568	800009f4	acb73c97	auipc	x25,0xacb73	 x25=0x2cb739f0
       35705000	      3569	800009f8	01cc9433	sll	x8,x25,x28	 x25:0x2cb739f0 x28:0x00000000  x8=0x2cb739f0
       35715000	      3570	800009fc	9c6c0993	addi	x19,x24,-1594	 x24:0x0000000d x19=0xfffff9d3
       35725000	      3571	80000a00	41a05e33	sra	x28,x0,x26	  x0:0x00000000 x26:0xfffffec6 x28=0x00000000
       35735000	      3572	80000a04	013f3033	sltu	x0,x30,x19	 x30:0x5349c2a0 x19:0xfffff9d3
       35745000	      3573	80000a08	01ef5033	srl	x0,x30,x30	 x30:0x5349c2a0 x30:0x5349c2a0
       35755000	      3574	80000a0c	004c0c13	addi	x24,x24,4	 x24:0x0000000d x24=0x00000011
       35765000	      3575	80000a10	408b85b3	sub	x11,x23,x8	 x23:0x00000000  x8:0x2cb739f0 x11=0xd348c610
       35775000	      3576	80000a14	00ff05b3	add	x11,x30,x15	 x30:0x5349c2a0 x15:0x00000001 x11=0x5349c2a1
       35785000	      3577	80000a18	01676fb3	or	x31,x14,x22	 x14:0x0be74f20 x22:0xfffffc41 x31=0xffffff61
       35795000	      3578	80000a1c	40688f33	sub	x30,x17,x6	 x17:0x80002e10  x6:0x2cb66b70 x30=0x5349c2a0
       35805000	      3579	80000a20	404981b3	sub	x3,x19,x4	 x19:0xfffff9d3  x4:0x80009fc4  x3=0x7fff5a0f
       35815000	      3580	80000a24	015c9d93	slli	x27,x25,0x15	 x25:0x2cb739f0 x27=0x3e000000
       35825000	      3581	80000a28	fc1c66e3	bltu	x24,x1,800009f4	 x24:0x00000011  x1:0x00000010
       35835000	      3582	80000a2c	013993b3	sll	x7,x19,x19	 x19:0xfffff9d3 x19:0xfffff9d3  x7=0xce980000
       35845000	      3583	80000a30	ffb00313	addi	x6,x0,-5	  x0:0x00000000  x6=0xfffffffb
       35855000	      3584	80000a34	60fded97	auipc	x27,0x60fde	 x27=0xe0fdea30
       35865000	      3585	80000a38	d082f413	andi	x8,x5,-760	  x5:0x00000001  x8=0x00000000
       35875000	      3586	80000a3c	00900813	addi	x16,x0,9	  x0:0x00000000 x16=0x00000009
       35885000	      3587	80000a40	006177b3	and	x15,x2,x6	  x2:0xdb100000  x6:0xfffffffb x15=0xdb100000
       35895000	      3588	80000a44	016e2c33	slt	x24,x28,x22	 x28:0x00000000 x22:0xfffffc41 x24=0x00000000
       35905000	      3589	80000a48	c8280113	addi	x2,x16,-894	 x16:0x00000009  x2=0xfffffc8b
       35915000	      3590	80000a4c	e14e6d13	ori	x26,x28,-492	 x28:0x00000000 x26=0xfffffe14
       35925000	      3591	80000a50	40875d13	srai	x26,x14,0x8	 x14:0x0be74f20 x26=0x000be74f
       35935000	      3592	80000a54	00734133	xor	x2,x6,x7	  x6:0xfffffffb  x7:0xce980000  x2=0x3167fffb
       35945000	      3593	80000a58	00830313	addi	x6,x6,8	  x6:0xfffffffb  x6=0x00000003
       35955000	      3594	80000a5c	016271b3	and	x3,x4,x22	  x4:0x80009fc4 x22:0xfffffc41  x3=0x80009c40
       35965000	      3595	80000a60	00725db3	srl	x27,x4,x7	  x4:0x80009fc4  x7:0xce980000 x27=0x80009fc4
       35975000	      3596	80000a64	01b3e733	or	x14,x7,x27	  x7:0xce980000 x27:0x80009fc4 x14=0xce989fc4
       35985000	      3597	80000a68	aa35ad93	slti	x27,x11,-1373	 x11:0x5349c2a1 x27=0x00000000
       35995000	      3598	80000a6c	ff0364e3	bltu	x6,x16,80000a54	  x6:0x00000003 x16:0x00000009
       36005000	      3599	00000000	00000013	addi	x0,x0,0	  x0:0x00000000
       36015000	      3600	80000a50	00000013	addi	x0,x0,0	  x0:0x00000000
       36025000	      3601	80000a54	00734133	xor	x2,x6,x7	  x6:0x00000003  x7:0xce980000  x2=0xce980003
       36035000	      3602	80000a58	00830313	addi	x6,x6,8	  x6:0x00000003  x6=0x0000000b
       36045000	      3603	80000a5c	016271b3	and	x3,x4,x22	  x4:0x80009fc4 x22:0xfffffc41  x3=0x80009c40
       36055000	      3604	80000a60	00725db3	srl	x27,x4,x7	  x4:0x80009fc4  x7:0xce980000 x27=0x80009fc4
       36065000	      3605	80000a64	01b3e733	or	x14,x7,x27	  x7:0xce980000 x27:0x80009fc4 x14=0xce989fc4
       36075000	      3606	80000a68	aa35ad93	slti	x27,x11,-1373	 x11:0x5349c2a1 x27=0x00000000
       36085000	      3607	80000a6c	ff0364e3	bltu	x6,x16,80000a54	  x6:0x0000000b x16:0x00000009
       36095000	      3608	80000a70	4060d433	sra	x8,x1,x6	  x1:0x00000010  x6:0x0000000b  x8=0x00000000
       36105000	      3609	80000a74	00800c13	addi	x24,x0,8	  x0:0x00000000 x24=0x00000008
       36115000	      3610	80000a78	01100293	addi	x5,x0,17	  x0:0x00000000  x5=0x00000011
       36125000	      3611	80000a7c	012c4e33	xor	x28,x24,x18	 x24:0x00000008 x18:0x24f00000 x28=0x24f00008
       36135000	      3612	80000a80	009c0c13	addi	x24,x24,9	 x24:0x00000008 x24=0x00000011
       36145000	      3613	80000a84	382a08b7	lui	x17,0x382a0	 x17=0x382a0000
       36155000	      3614	80000a88	00600193	addi	x3,x0,6	  x0:0x00000000  x3=0x00000006
       36165000	      3615	80000a8c	00400f13	addi	x30,x0,4	  x0:0x00000000 x30=0x00000004
       36175000	      3616	80000a90	002675b3	and	x11,x12,x2	 x12:0xd6e00000  x2:0xce980003 x11=0xc6800000
       36185000	      3617	80000a94	fff18193	addi	x3,x3,-1	  x3:0x00000006  x3=0x00000005
       36195000	      3618	80000a98	c314ed13	ori	x26,x9,-975	  x9:0x00000001 x26=0xfffffc31
       36205000	      3619	80000a9c	ffe1fae3	bgeu	x3,x30,80000a90	  x3:0x00000005 x30:0x00000004
       36215000	      3620	00000000	00000013	addi	x0,x0,0	  x0:0x00000000
       36225000	      3621	80000a8c	00000013	addi	x0,x0,0	  x0:0x00000000
       36235000	      3622	80000a90	002675b3	and	x11,x12,x2	 x12:0xd6e00000  x2:0xce980003 x11=0xc6800000
       36245000	      3623	80000a94	fff18193	addi	x3,x3,-1	  x3:0x00000005  x3=0x00000004
       36255000	      3624	80000a98	c314ed13	ori	x26,x9,-975	  x9:0x00000001 x26=0xfffffc31
       36265000	      3625	80000a9c	ffe1fae3	bgeu	x3,x30,80000a90	  x3:0x00000004 x30:0x00000004
       36275000	      3626	00000000	00000013	addi	x0,x0,0	  x0:0x00000000
       36285000	      3627	80000a8c	00000013	addi	x0,x0,0	  x0:0x00000000
       36295000	      3628	80000a90	002675b3	and	x11,x12,x2	 x12:0xd6e00000  x2:0xce980003 x11=0xc6800000
       36305000	      3629	80000a94	fff18193	addi	x3,x3,-1	  x3:0x00000004  x3=0x00000003
       36315000	      3630	80000a98	c314ed13	ori	x26,x9,-975	  x9:0x00000001 x26=0xfffffc31
       36325000	      3631	80000a9c	ffe1fae3	bgeu	x3,x30,80000a90	  x3:0x00000003 x30:0x00000004
       36335000	      3632	80000aa0	fc5c1ee3	bne	x24,x5,80000a7c	 x24:0x00000011  x5:0x00000011
       36345000	      3633	80000aa4	01100fb3	add	x31,x0,x17	  x0:0x00000000 x17:0x382a0000 x31=0x382a0000
       36355000	      3634	80000aa8	ff900e13	addi	x28,x0,-7	  x0:0x00000000 x28=0xfffffff9
       36365000	      3635	80000aac	407808b3	sub	x17,x16,x7	 x16:0x00000009  x7:0xce980000 x17=0x31680009
       36375000	      3636	80000ab0	034ecc17	auipc	x24,0x34ec	 x24=0x834ecaac
       36385000	      3637	80000ab4	ffc00f13	addi	x30,x0,-4	  x0:0x00000000 x30=0xfffffffc
       36395000	      3638	80000ab8	79103137	lui	x2,0x79103	  x2=0x79103000
       36405000	      3639	80000abc	0016d513	srli	x10,x13,0x1	 x13:0x00000000 x10=0x00000000
       36415000	      3640	80000ac0	007e0e13	addi	x28,x28,7	 x28:0xfffffff9 x28=0x00000000
       36425000	      3641	80000ac4	01c53133	sltu	x2,x10,x28	 x10:0x00000000 x28:0x00000000  x2=0x00000000
       36435000	      3642	80000ac8	36f1d1b7	lui	x3,0x36f1d	  x3=0x36f1d000
       36445000	      3643	80000acc	41d151b3	sra	x3,x2,x29	  x2:0x00000000 x29:0x80009f6c  x3=0x00000000
       36455000	      3644	80000ad0	ffee44e3	blt	x28,x30,80000ab8	 x28:0x00000000 x30:0xfffffffc
       36465000	      3645	80000ad4	41b35533	sra	x10,x6,x27	  x6:0x0000000b x27:0x00000000 x10=0x0000000b
       36475000	      3646	80000ad8	00900793	addi	x15,x0,9	  x0:0x00000000 x15=0x00000009
       36485000	      3647	80000adc	004a61b3	or	x3,x20,x4	 x20:0x17ce9e41  x4:0x80009fc4  x3=0x97ce9fc5
       36495000	      3648	80000ae0	01aac833	xor	x16,x21,x26	 x21:0x2cb66b21 x26:0xfffffc31 x16=0xd3499710
       36505000	      3649	80000ae4	00800993	addi	x19,x0,8	  x0:0x00000000 x19=0x00000008
       36515000	      3650	80000ae8	26daea13	ori	x20,x21,621	 x21:0x2cb66b21 x20=0x2cb66b6d
       36525000	      3651	80000aec	019fcf33	xor	x30,x31,x25	 x31:0x382a0000 x25:0x2cb739f0 x30=0x149d39f0
       36535000	      3652	80000af0	00b010b3	sll	x1,x0,x11	  x0:0x00000000 x11:0xc6800000  x1=0x00000000
       36545000	      3653	80000af4	ffe78793	addi	x15,x15,-2	 x15:0x00000009 x15=0x00000007
       36555000	      3654	80000af8	00300d13	addi	x26,x0,3	  x0:0x00000000 x26=0x00000003
       36565000	      3655	80000afc	018a5333	srl	x6,x20,x24	 x20:0x2cb66b6d x24:0x834ecaac  x6=0x0002cb66
       36575000	      3656	80000b00	00300c13	addi	x24,x0,3	  x0:0x00000000 x24=0x00000003
       36585000	      3657	80000b04	412b5133	sra	x2,x22,x18	 x22:0xfffffc41 x18:0x24f00000  x2=0xfffffc41
       36595000	      3658	80000b08	00f035b3	sltu	x11,x0,x15	  x0:0x00000000 x15:0x00000007 x11=0x00000001
       36605000	      3659	80000b0c	ffed0d13	addi	x26,x26,-2	 x26:0x00000003 x26=0x00000001
       36615000	      3660	80000b10	bd58b813	sltiu	x16,x17,-1067	 x17:0x31680009 x16=0x00000001
       36625000	      3661	80000b14	00000013	addi	x0,x0,0	  x0:0x00000000
       36635000	      3662	80000b18	ff8d78e3	bgeu	x26,x24,80000b08	 x26:0x00000001 x24:0x00000003
       36645000	      3663	80000b1c	0086c3b3	xor	x7,x13,x8	 x13:0x00000000  x8:0x00000000  x7=0x00000000
       36655000	      3664	80000b20	fd37f6e3	bgeu	x15,x19,80000aec	 x15:0x00000007 x19:0x00000008
       36665000	      3665	80000b24	ba48f313	andi	x6,x17,-1116	 x17:0x31680009  x6=0x31680000
       36675000	      3666	80000b28	00a00913	addi	x18,x0,10	  x0:0x00000000 x18=0x0000000a
       36685000	      3667	80000b2c	d6c41197	auipc	x3,0xd6c41	  x3=0x56c41b28
       36695000	      3668	80000b30	40be0c33	sub	x24,x28,x11	 x28:0x00000000 x11:0x00000001 x24=0xffffffff
       36705000	      3669	80000b34	48b82697	auipc	x13,0x48b82	 x13=0xc8b82b30
       36715000	      3670	80000b38	00900d93	addi	x27,x0,9	  x0:0x00000000 x27=0x00000009
       36725000	      3671	80000b3c	00ee7133	and	x2,x28,x14	 x28:0x00000000 x14:0xce989fc4  x2=0x00000000
       36735000	      3672	80000b40	40935b13	srai	x22,x6,0x9	  x6:0x31680000 x22=0x0018b400
       36745000	      3673	80000b44	41355d13	srai	x26,x10,0x13	 x10:0x0000000b x26=0x00000000
       36755000	      3674	80000b48	00000013	addi	x0,x0,0	  x0:0x00000000
       36765000	      3675	80000b4c	00000013	addi	x0,x0,0	  x0:0x00000000
       36775000	      3676	80000b50	ff890913	addi	x18,x18,-8	 x18:0x0000000a x18=0x00000002
       36785000	      3677	80000b54	006d36b3	sltu	x13,x26,x6	 x26:0x00000000  x6:0x31680000 x13=0x00000001
       36795000	      3678	80000b58	00900e13	addi	x28,x0,9	  x0:0x00000000 x28=0x00000009
       36805000	      3679	80000b5c	c543bc93	sltiu	x25,x7,-940	  x7:0x00000000 x25=0x00000001
       36815000	      3680	80000b60	ed48e093	ori	x1,x17,-300	 x17:0x31680009  x1=0xfffffedd
       36825000	      3681	80000b64	00855d33	srl	x26,x10,x8	 x10:0x0000000b  x8:0x00000000 x26=0x0000000b
       36835000	      3682	80000b68	41ec56b3	sra	x13,x24,x30	 x24:0xffffffff x30:0x149d39f0 x13=0xffffffff
       36845000	      3683	80000b6c	d2dd7a13	andi	x20,x26,-723	 x26:0x0000000b x20=0x00000009
       36855000	      3684	80000b70	01b33c33	sltu	x24,x6,x27	  x6:0x31680000 x27:0x00000009 x24=0x00000000
       36865000	      3685	80000b74	41ccdc33	sra	x24,x25,x28	 x25:0x00000001 x28:0x00000009 x24=0x00000000
       36875000	      3686	80000b78	01000613	addi	x12,x0,16	  x0:0x00000000 x12=0x00000010
       36885000	      3687	80000b7c	00000013	addi	x0,x0,0	  x0:0x00000000
       36895000	      3688	80000b80	0006a533	slt	x10,x13,x0	 x13:0xffffffff  x0:0x00000000 x10=0x00000001
       36905000	      3689	80000b84	098fb713	sltiu	x14,x31,152	 x31:0x382a0000 x14=0x00000000
       36915000	      3690	80000b88	7d0e0313	addi	x6,x28,2000	 x28:0x00000009  x6=0x000007d9
       36925000	      3691	80000b8c	013c57b3	srl	x15,x24,x19	 x24:0x00000000 x19:0x00000008 x15=0x00000000
       36935000	      3692	80000b90	01e50bb3	add	x23,x10,x30	 x10:0x00000001 x30:0x149d39f0 x23=0x149d39f1
       36945000	      3693	80000b94	007e0e13	addi	x28,x28,7	 x28:0x00000009 x28=0x00000010
       36955000	      3694	80000b98	68027513	andi	x10,x4,1664	  x4:0x80009fc4 x10=0x00000680
       36965000	      3695	80000b9c	fece16e3	bne	x28,x12,80000b88	 x28:0x00000010 x12:0x00000010
       36975000	      3696	80000ba0	7347af13	slti	x30,x15,1844	 x15:0x00000000 x30=0x00000001
       36985000	      3697	80000ba4	7ce5c413	xori	x8,x11,1998	 x11:0x00000001  x8=0x000007cf
       36995000	      3698	80000ba8	f9b97ae3	bgeu	x18,x27,80000b3c	 x18:0x00000002 x27:0x00000009
       37005000	      3699	80000bac	01e9ea33	or	x20,x19,x30	 x19:0x00000008 x30:0x00000001 x20=0x00000009
       37015000	      3700	80000bb0	ffb00593	addi	x11,x0,-5	  x0:0x00000000 x11=0xfffffffb
       37025000	      3701	80000bb4	00e703b3	add	x7,x14,x14	 x14:0x00000000 x14:0x00000000  x7=0x00000000
       37035000	      3702	80000bb8	00b2a433	slt	x8,x5,x11	  x5:0x00000011 x11:0xfffffffb  x8=0x00000000
       37045000	      3703	80000bbc	0174f0b3	and	x1,x9,x23	  x9:0x00000001 x23:0x149d39f1  x1=0x00000001
       37055000	      3704	80000bc0	8ab24137	lui	x2,0x8ab24	  x2=0x8ab24000
       37065000	      3705	80000bc4	a7a44a93	xori	x21,x8,-1414	  x8:0x00000000 x21=0xfffffa7a
       37075000	      3706	80000bc8	ff000f93	addi	x31,x0,-16	  x0:0x00000000 x31=0xfffffff0
       37085000	      3707	80000bcc	00e24733	xor	x14,x4,x14	  x4:0x80009fc4 x14:0x00000000 x14=0x80009fc4
       37095000	      3708	80000bd0	41f400b3	sub	x1,x8,x31	  x8:0x00000000 x31:0xfffffff0  x1=0x00000010
       37105000	      3709	80000bd4	01a2d413	srli	x8,x5,0x1a	  x5:0x00000011  x8=0x00000000
       37115000	      3710	80000bd8	83fec013	xori	x0,x29,-1985	 x29:0x80009f6c
       37125000	      3711	80000bdc	408c5d33	sra	x26,x24,x8	 x24:0x00000000  x8:0x00000000 x26=0x00000000
       37135000	      3712	80000be0	16bc3893	sltiu	x17,x24,363	 x24:0x00000000 x17=0x00000001
       37145000	      3713	80000be4	ff658593	addi	x11,x11,-10	 x11:0xfffffffb x11=0xfffffff1
       37155000	      3714	80000be8	fff5dce3	bge	x11,x31,80000be0	 x11:0xfffffff1 x31:0xfffffff0
       37165000	      3715	00000000	00000013	addi	x0,x0,0	  x0:0x00000000
       37175000	      3716	80000bdc	00000013	addi	x0,x0,0	  x0:0x00000000
       37185000	      3717	80000be0	16bc3893	sltiu	x17,x24,363	 x24:0x00000000 x17=0x00000001
       37195000	      3718	80000be4	ff658593	addi	x11,x11,-10	 x11:0xfffffff1 x11=0xffffffe7
       37205000	      3719	80000be8	fff5dce3	bge	x11,x31,80000be0	 x11:0xffffffe7 x31:0xfffffff0
       37215000	      3720	80000bec	0151dd13	srli	x26,x3,0x15	  x3:0x56c41b28 x26=0x000002b6
       37225000	      3721	80000bf0	477be513	ori	x10,x23,1143	 x23:0x149d39f1 x10=0x149d3df7
       37235000	      3722	80000bf4	042b5063	bge	x22,x2,80000c34	 x22:0x0018b400  x2:0x8ab24000
       37245000	      3723	00000000	00000013	addi	x0,x0,0	  x0:0x00000000
       37255000	      3724	80000c30	00000013	addi	x0,x0,0	  x0:0x00000000
       37265000	      3725	80000c34	3ec6cd13	xori	x26,x13,1004	 x13:0xffffffff x26=0xfffffc13
       37275000	      3726	80000c38	00000013	addi	x0,x0,0	  x0:0x00000000
       37285000	      3727	80000c3c	000ad863	bge	x21,x0,80000c4c	 x21:0xfffffa7a  x0:0x00000000
       37295000	      3728	80000c40	bce4cc37	lui	x24,0xbce4c	 x24=0xbce4c000
       37305000	      3729	80000c44	0017a133	slt	x2,x15,x1	 x15:0x00000000  x1:0x00000010  x2=0x00000001
       37315000	      3730	80000c48	e91186b7	lui	x13,0xe9118	 x13=0xe9118000
       37325000	      3731	80000c4c	00c8d663	bge	x17,x12,80000c58	 x17:0x00000001 x12:0x00000010
       37335000	      3732	80000c50	01308433	add	x8,x1,x19	  x1:0x00000010 x19:0x00000008  x8=0x00000018
       37345000	      3733	80000c54	05b54c13	xori	x24,x10,91	 x10:0x149d3df7 x24=0x149d3dac
       37355000	      3734	80000c58	02fe8e63	beq	x29,x15,80000c94	 x29:0x80009f6c x15:0x00000000
       37365000	      3735	80000c5c	021a0263	beq	x20,x1,80000c80	 x20:0x00000009  x1:0x00000010
       37375000	      3736	80000c60	9686c893	xori	x17,x13,-1688	 x13:0xe9118000 x17=0x16ee7968
       37385000	      3737	80000c64	034cfa63	bgeu	x25,x20,80000c98	 x25:0x00000001 x20:0x00000009
       37395000	      3738	80000c68	ba363b13	sltiu	x22,x12,-1117	 x12:0x00000010 x22=0x00000001
       37405000	      3739	80000c6c	0394dc63	bge	x9,x25,80000ca4	  x9:0x00000001 x25:0x00000001
       37415000	      3740	00000000	00000013	addi	x0,x0,0	  x0:0x00000000
       37425000	      3741	80000ca0	00000013	addi	x0,x0,0	  x0:0x00000000
       37435000	      3742	80000ca4	21f3b313	sltiu	x6,x7,543	  x7:0x00000000  x6=0x00000001
       37445000	      3743	80000ca8	0c91f993	andi	x19,x3,201	  x3:0x56c41b28 x19=0x00000008
       37455000	      3744	80000cac	212c3c13	sltiu	x24,x24,530	 x24:0x149d3dac x24=0x00000000
       37465000	      3745	80000cb0	01700c33	add	x24,x0,x23	  x0:0x00000000 x23:0x149d39f1 x24=0x149d39f1
       37475000	      3746	80000cb4	03d36e63	bltu	x6,x29,80000cf0	  x6:0x00000001 x29:0x80009f6c
       37485000	      3747	00000000	00000013	addi	x0,x0,0	  x0:0x00000000
       37495000	      3748	80000cec	00000013	addi	x0,x0,0	  x0:0x00000000
       37505000	      3749	80000cf0	03b46463	bltu	x8,x27,80000d18	  x8:0x00000018 x27:0x00000009
       37515000	      3750	80000cf4	40abd993	srai	x19,x23,0xa	 x23:0x149d39f1 x19=0x0005274e
       37525000	      3751	80000cf8	007cd593	srli	x11,x25,0x7	 x25:0x00000001 x11=0x00000000
       37535000	      3752	80000cfc	bfe5cd93	xori	x27,x11,-1026	 x11:0x00000000 x27=0xfffffbfe
       37545000	      3753	80000d00	1af40013	addi	x0,x8,431	  x8:0x00000018
       37555000	      3754	80000d04	00455313	srli	x6,x10,0x4	 x10:0x149d3df7  x6=0x0149d3df
       37565000	      3755	80000d08	00bd7c63	bgeu	x26,x11,80000d20	 x26:0xfffffc13 x11:0x00000000
       37575000	      3756	00000000	00000013	addi	x0,x0,0	  x0:0x00000000
       37585000	      3757	80000d1c	00000013	addi	x0,x0,0	  x0:0x00000000
       37595000	      3758	80000d20	f6880593	addi	x11,x16,-152	 x16:0x00000001 x11=0xffffff69
       37605000	      3759	80000d24	0168d733	srl	x14,x17,x22	 x17:0x16ee7968 x22:0x00000001 x14=0x0b773cb4
       37615000	      3760	80000d28	0029b1b3	sltu	x3,x19,x2	 x19:0x0005274e  x2:0x00000001  x3=0x00000000
       37625000	      3761	80000d2c	05b76263	bltu	x14,x27,80000d70	 x14:0x0b773cb4 x27:0xfffffbfe
       37635000	      3762	00000000	00000013	addi	x0,x0,0	  x0:0x00000000
       37645000	      3763	80000d6c	00000013	addi	x0,x0,0	  x0:0x00000000
       37655000	      3764	80000d70	8389f113	andi	x2,x19,-1992	 x19:0x0005274e  x2=0x00052008
       37665000	      3765	80000d74	7c91bd13	sltiu	x26,x3,1993	  x3:0x00000000 x26=0x00000001
       37675000	      3766	80000d78	eb198f93	addi	x31,x19,-335	 x19:0x0005274e x31=0x000525ff
       37685000	      3767	80000d7c	03da4063	blt	x20,x29,80000d9c	 x20:0x00000009 x29:0x80009f6c
       37695000	      3768	80000d80	09926713	ori	x14,x4,153	  x4:0x80009fc4 x14=0x80009fdd
       37705000	      3769	80000d84	00000013	addi	x0,x0,0	  x0:0x00000000
       37715000	      3770	80000d88	40da0ab3	sub	x21,x20,x13	 x20:0x00000009 x13:0xe9118000 x21=0x16ee8009
       37725000	      3771	80000d8c	016f4bb3	xor	x23,x30,x22	 x30:0x00000001 x22:0x00000001 x23=0x00000000
       37735000	      3772	80000d90	00f5a833	slt	x16,x11,x15	 x11:0xffffff69 x15:0x00000000 x16=0x00000001
       37745000	      3773	80000d94	04d56663	bltu	x10,x13,80000de0	 x10:0x149d3df7 x13:0xe9118000
       37755000	      3774	00000000	00000013	addi	x0,x0,0	  x0:0x00000000
       37765000	      3775	80000ddc	00000013	addi	x0,x0,0	  x0:0x00000000
       37775000	      3776	80000de0	409b8db3	sub	x27,x23,x9	 x23:0x00000000  x9:0x00000001 x27=0xffffffff
       37785000	      3777	80000de4	00000013	addi	x0,x0,0	  x0:0x00000000
       37795000	      3778	80000de8	0484e263	bltu	x9,x8,80000e2c	  x9:0x00000001  x8:0x00000018
       37805000	      3779	00000000	00000013	addi	x0,x0,0	  x0:0x00000000
       37815000	      3780	80000e28	00000013	addi	x0,x0,0	  x0:0x00000000
       37825000	      3781	80000e2c	05b71063	bne	x14,x27,80000e6c	 x14:0x80009fdd x27:0xffffffff
       37835000	      3782	00000000	00000013	addi	x0,x0,0	  x0:0x00000000
       37845000	      3783	80000e68	00000013	addi	x0,x0,0	  x0:0x00000000
       37855000	      3784	80000e6c	006f9693	slli	x13,x31,0x6	 x31:0x000525ff x13=0x01497fc0
       37865000	      3785	80000e70	7ab992b7	lui	x5,0x7ab99	  x5=0x7ab99000
       37875000	      3786	80000e74	003f7863	bgeu	x30,x3,80000e84	 x30:0x00000001  x3:0x00000000
       37885000	      3787	00000000	00000013	addi	x0,x0,0	  x0:0x00000000
       37895000	      3788	80000e80	00000013	addi	x0,x0,0	  x0:0x00000000
       37905000	      3789	80000e84	01bd3033	sltu	x0,x26,x27	 x26:0x00000001 x27:0xffffffff
       37915000	      3790	80000e88	cc678113	addi	x2,x15,-826	 x15:0x00000000  x2=0xfffffcc6
       37925000	      3791	80000e8c	0087ac33	slt	x24,x15,x8	 x15:0x00000000  x8:0x00000018 x24=0x00000001
       37935000	      3792	80000e90	001e9733	sll	x14,x29,x1	 x29:0x80009f6c  x1:0x00000010 x14=0x9f6c0000
       37945000	      3793	80000e94	007b7a33	and	x20,x22,x7	 x22:0x00000001  x7:0x00000000 x20=0x00000000
       37955000	      3794	80000e98	00000013	addi	x0,x0,0	  x0:0x00000000
       37965000	      3795	80000e9c	02cfce63	blt	x31,x12,80000ed8	 x31:0x000525ff x12:0x00000010
       37975000	      3796	80000ea0	05799663	bne	x19,x23,80000eec	 x19:0x0005274e x23:0x00000000
       37985000	      3797	00000000	00000013	addi	x0,x0,0	  x0:0x00000000
       37995000	      3798	80000ee8	00000013	addi	x0,x0,0	  x0:0x00000000
       38005000	      3799	80000eec	018ded33	or	x26,x27,x24	 x27:0xffffffff x24:0x00000001 x26=0xffffffff
       38015000	      3800	80000ef0	bf12fc13	andi	x24,x5,-1039	  x5:0x7ab99000 x24=0x7ab99000
       38025000	      3801	80000ef4	4f650697	auipc	x13,0x4f650	 x13=0xcf650ef0
       38035000	      3802	80000ef8	003f8bb3	add	x23,x31,x3	 x31:0x000525ff  x3:0x00000000 x23=0x000525ff
       38045000	      3803	80000efc	993d8d13	addi	x26,x27,-1645	 x27:0xffffffff x26=0xfffff992
       38055000	      3804	80000f00	414ed013	srai	x0,x29,0x14	 x29:0x80009f6c
       38065000	      3805	80000f04	03bcec63	bltu	x25,x27,80000f3c	 x25:0x00000001 x27:0xffffffff
       38075000	      3806	00000000	00000013	addi	x0,x0,0	  x0:0x00000000
       38085000	      3807	80000f38	00000013	addi	x0,x0,0	  x0:0x00000000
       38095000	      3808	80000f3c	8c44fc13	andi	x24,x9,-1852	  x9:0x00000001 x24=0x00000000
       38105000	      3809	80000f40	00b8e8b3	or	x17,x17,x11	 x17:0x16ee7968 x11:0xffffff69 x17=0xffffff69
       38115000	      3810	80000f44	01079c13	slli	x24,x15,0x10	 x15:0x00000000 x24=0x00000000
       38125000	      3811	80000f48	03da1a63	bne	x20,x29,80000f7c	 x20:0x00000000 x29:0x80009f6c
       38135000	      3812	00000000	00000013	addi	x0,x0,0	  x0:0x00000000
       38145000	      3813	80000f78	00000013	addi	x0,x0,0	  x0:0x00000000
       38155000	      3814	80000f7c	00000013	addi	x0,x0,0	  x0:0x00000000
       38165000	      3815	80000f80	000e9693	slli	x13,x29,0x0	 x29:0x80009f6c x13=0x80009f6c
       38175000	      3816	80000f84	012a51b3	srl	x3,x20,x18	 x20:0x00000000 x18:0x00000002  x3=0x00000000
       38185000	      3817	80000f88	40ca5b33	sra	x22,x20,x12	 x20:0x00000000 x12:0x00000010 x22=0x00000000
       38195000	      3818	80000f8c	04286663	bltu	x16,x2,80000fd8	 x16:0x00000001  x2:0xfffffcc6
       38205000	      3819	00000000	00000013	addi	x0,x0,0	  x0:0x00000000
       38215000	      3820	80000fd4	00000013	addi	x0,x0,0	  x0:0x00000000
       38225000	      3821	80000fd8	01db9833	sll	x16,x23,x29	 x23:0x000525ff x29:0x80009f6c x16=0x525ff000
       38235000	      3822	80000fdc	1a6eadb7	lui	x27,0x1a6ea	 x27=0x1a6ea000
       38245000	      3823	80000fe0	00ef7533	and	x10,x30,x14	 x30:0x00000001 x14:0x9f6c0000 x10=0x00000000
       38255000	      3824	80000fe4	01dc7a33	and	x20,x24,x29	 x24:0x00000000 x29:0x80009f6c x20=0x00000000
       38265000	      3825	80000fe8	00bea833	slt	x16,x29,x11	 x29:0x80009f6c x11:0xffffff69 x16=0x00000001
       38275000	      3826	80000fec	049e6063	bltu	x28,x9,8000102c	 x28:0x00000010  x9:0x00000001
       38285000	      3827	80000ff0	020d0463	beq	x26,x0,80001018	 x26:0xfffff992  x0:0x00000000
       38295000	      3828	80000ff4	07853693	sltiu	x13,x10,120	 x10:0x00000000 x13=0x00000001
       38305000	      3829	80000ff8	01094f33	xor	x30,x18,x16	 x18:0x00000002 x16:0x00000001 x30=0x00000003
       38315000	      3830	80000ffc	198bb813	sltiu	x16,x23,408	 x23:0x000525ff x16=0x00000000
       38325000	      3831	80001000	0198eb33	or	x22,x17,x25	 x17:0xffffff69 x25:0x00000001 x22=0xffffff69
       38335000	      3832	80001004	13494f37	lui	x30,0x13494	 x30=0x13494000
       38345000	      3833	80001008	0174a7b3	slt	x15,x9,x23	  x9:0x00000001 x23:0x000525ff x15=0x00000001
       38355000	      3834	8000100c	2dace913	ori	x18,x25,730	 x25:0x00000001 x18=0x000002db
       38365000	      3835	80001010	014f1913	slli	x18,x30,0x14	 x30:0x13494000 x18=0x00000000
       38375000	      3836	80001014	0f174e17	auipc	x28,0xf174	 x28=0x8f175010
       38385000	      3837	80001018	00879db3	sll	x27,x15,x8	 x15:0x00000001  x8:0x00000018 x27=0x01000000
       38395000	      3838	8000101c	03cb9863	bne	x23,x28,8000104c	 x23:0x000525ff x28:0x8f175010
       38405000	      3839	00000000	00000013	addi	x0,x0,0	  x0:0x00000000
       38415000	      3840	80001048	00000013	addi	x0,x0,0	  x0:0x00000000
       38425000	      3841	8000104c	1640ec97	auipc	x25,0x1640e	 x25=0x9640f048
       38435000	      3842	80001050	012f9c93	slli	x25,x31,0x12	 x31:0x000525ff x25=0x97fc0000
       38445000	      3843	80001054	01430c33	add	x24,x6,x20	  x6:0x0149d3df x20:0x00000000 x24=0x0149d3df
       38455000	      3844	80001058	0066e033	or	x0,x13,x6	 x13:0x00000001  x6:0x0149d3df
       38465000	      3845	8000105c	0161d8b3	srl	x17,x3,x22	  x3:0x00000000 x22:0xffffff69 x17=0x00000000
       38475000	      3846	80001060	001dbd33	sltu	x26,x27,x1	 x27:0x01000000  x1:0x00000010 x26=0x00000000
       38485000	      3847	80001064	d6f33993	sltiu	x19,x6,-657	  x6:0x0149d3df x19=0x00000001
       38495000	      3848	80001068	048d7863	bgeu	x26,x8,800010b8	 x26:0x00000000  x8:0x00000018
       38505000	      3849	8000106c	5458b293	sltiu	x5,x17,1349	 x17:0x00000000  x5=0x00000001
       38515000	      3850	80001070	414f8133	sub	x2,x31,x20	 x31:0x000525ff x20:0x00000000  x2=0x000525ff
       38525000	      3851	80001074	010b0933	add	x18,x22,x16	 x22:0xffffff69 x16:0x00000000 x18=0xffffff69
       38535000	      3852	80001078	e1da4413	xori	x8,x20,-483	 x20:0x00000000  x8=0xfffffe1d
       38545000	      3853	8000107c	cb10ee13	ori	x28,x1,-847	  x1:0x00000010 x28=0xfffffcb1
       38555000	      3854	80001080	01bf7c33	and	x24,x30,x27	 x30:0x13494000 x27:0x01000000 x24=0x01000000
       38565000	      3855	80001084	00199693	slli	x13,x19,0x1	 x19:0x00000001 x13=0x00000002
       38575000	      3856	80001088	00000013	addi	x0,x0,0	  x0:0x00000000
       38585000	      3857	8000108c	0092c533	xor	x10,x5,x9	  x5:0x00000001  x9:0x00000001 x10=0x00000000
       38595000	      3858	80001090	0e762c93	slti	x25,x12,231	 x12:0x00000010 x25=0x00000001
       38605000	      3859	80001094	002f6033	or	x0,x30,x2	 x30:0x13494000  x2:0x000525ff
       38615000	      3860	80001098	4fafad93	slti	x27,x31,1274	 x31:0x000525ff x27=0x00000000
       38625000	      3861	8000109c	008dd663	bge	x27,x8,800010a8	 x27:0x00000000  x8:0xfffffe1d
       38635000	      3862	00000000	00000013	addi	x0,x0,0	  x0:0x00000000
       38645000	      3863	800010a4	00000013	addi	x0,x0,0	  x0:0x00000000
       38655000	      3864	800010a8	01569413	slli	x8,x13,0x15	 x13:0x00000002  x8=0x00400000
       38665000	      3865	800010ac	413a56b3	sra	x13,x20,x19	 x20:0x00000000 x19:0x00000001 x13=0x00000000
       38675000	      3866	800010b0	40870d33	sub	x26,x14,x8	 x14:0x9f6c0000  x8:0x00400000 x26=0x9f2c0000
       38685000	      3867	800010b4	016353b3	srl	x7,x6,x22	  x6:0x0149d3df x22:0xffffff69  x7=0x0000a4e9
       38695000	      3868	800010b8	0162b733	sltu	x14,x5,x22	  x5:0x00000001 x22:0xffffff69 x14=0x00000001
       38705000	      3869	800010bc	01bd8863	beq	x27,x27,800010cc	 x27:0x00000000 x27:0x00000000
       38715000	      3870	00000000	00000013	addi	x0,x0,0	  x0:0x00000000
       38725000	      3871	800010c8	00000013	addi	x0,x0,0	  x0:0x00000000
       38735000	      3872	800010cc	00d9cc33	xor	x24,x19,x13	 x19:0x00000001 x13:0x00000000 x24=0x00000001
       38745000	      3873	800010d0	2da4e193	ori	x3,x9,730	  x9:0x00000001  x3=0x000002db
       38755000	      3874	800010d4	40295b13	srai	x22,x18,0x2	 x18:0xffffff69 x22=0xffffffda
       38765000	      3875	800010d8	2ae4a317	auipc	x6,0x2ae4a	  x6=0xaae4b0d4
       38775000	      3876	800010dc	405fd333	sra	x6,x31,x5	 x31:0x000525ff  x5:0x00000001  x6=0x000292ff
       38785000	      3877	800010e0	ab1b06b7	lui	x13,0xab1b0	 x13=0xab1b0000
       38795000	      3878	800010e4	01597c63	bgeu	x18,x21,800010fc	 x18:0xffffff69 x21:0x16ee8009
       38805000	      3879	00000000	00000013	addi	x0,x0,0	  x0:0x00000000
       38815000	      3880	800010f8	00000013	addi	x0,x0,0	  x0:0x00000000
       38825000	      3881	800010fc	017dfb33	and	x22,x27,x23	 x27:0x00000000 x23:0x000525ff x22=0x00000000
       38835000	      3882	80001100	054c9263	bne	x25,x20,80001144	 x25:0x00000001 x20:0x00000000
       38845000	      3883	00000000	00000013	addi	x0,x0,0	  x0:0x00000000
       38855000	      3884	80001140	00000013	addi	x0,x0,0	  x0:0x00000000
       38865000	      3885	80001144	01650a63	beq	x10,x22,80001158	 x10:0x00000000 x22:0x00000000
       38875000	      3886	00000000	00000013	addi	x0,x0,0	  x0:0x00000000
       38885000	      3887	80001154	00000013	addi	x0,x0,0	  x0:0x00000000
       38895000	      3888	80001158	0464d663	bge	x9,x6,800011a4	  x9:0x00000001  x6:0x000292ff
       38905000	      3889	8000115c	0171ed33	or	x26,x3,x23	  x3:0x000002db x23:0x000525ff x26=0x000527ff
       38915000	      3890	80001160	03f65e63	bge	x12,x31,8000119c	 x12:0x00000010 x31:0x000525ff
       38925000	      3891	80001164	00921d13	slli	x26,x4,0x9	  x4:0x80009fc4 x26=0x013f8800
       38935000	      3892	80001168	03119c63	bne	x3,x17,800011a0	  x3:0x000002db x17:0x00000000
       38945000	      3893	00000000	00000013	addi	x0,x0,0	  x0:0x00000000
       38955000	      3894	8000119c	00000013	addi	x0,x0,0	  x0:0x00000000
       38965000	      3895	800011a0	00040cb3	add	x25,x8,x0	  x8:0x00400000  x0:0x00000000 x25=0x00400000
       38975000	      3896	800011a4	16d6ea93	ori	x21,x13,365	 x13:0xab1b0000 x21=0xab1b016d
       38985000	      3897	800011a8	57303993	sltiu	x19,x0,1395	  x0:0x00000000 x19=0x00000001
       38995000	      3898	800011ac	011e4863	blt	x28,x17,800011bc	 x28:0xfffffcb1 x17:0x00000000
       39005000	      3899	00000000	00000013	addi	x0,x0,0	  x0:0x00000000
       39015000	      3900	800011b8	00000013	addi	x0,x0,0	  x0:0x00000000
       39025000	      3901	800011bc	e94aa793	slti	x15,x21,-364	 x21:0xab1b016d x15=0x00000001
       39035000	      3902	800011c0	02ab9663	bne	x23,x10,800011ec	 x23:0x000525ff x10:0x00000000
       39045000	      3903	00000000	00000013	addi	x0,x0,0	  x0:0x00000000
       39055000	      3904	800011e8	00000013	addi	x0,x0,0	  x0:0x00000000
       39065000	      3905	800011ec	34b3ec13	ori	x24,x7,843	  x7:0x0000a4e9 x24=0x0000a7eb
       39075000	      3906	800011f0	004ea083	lw	x1,4(x29)	 x29:0x80009f6c  x1=0x800002f0 PA:0x80009f70
       39085000	      3907	800011f4	ccf87293	andi	x5,x16,-817	 x16:0x00000000  x5=0x00000000
       39095000	      3908	800011f8	00ce8e93	addi	x29,x29,12	 x29:0x80009f6c x29=0x80009f78
       39105000	      3909	800011fc	001e3ab3	sltu	x21,x28,x1	 x28:0xfffffcb1  x1:0x800002f0 x21=0x00000000
       39115000	      3910	80001200	00000013	addi	x0,x0,0	  x0:0x00000000
       39125000	      3911	80001204	00008c93	addi	x25,x1,0	  x1:0x800002f0 x25=0x800002f0
       39135000	      3912	80001208	000c8ce7	jalr	x25,x25,0	 x25:0x800002f0 x25=0x80001208
       39145000	      3913	00000000	00000013	addi	x0,x0,0	  x0:0x00000000
       39155000	      3914	800002f0	00000013	addi	x0,x0,0	  x0:0x00000000
       39165000	      3915	800002f4	00000d17	auipc	x26,0x0	 x26=0x800002f0
       39175000	      3916	800002f8	628d0d13	addi	x26,x26,1576	 x26:0x800002f0 x26=0x80000918
       39185000	      3917	800002fc	01926733	or	x14,x4,x25	  x4:0x80009fc4 x25:0x80001208 x14=0x80009fcc
       39195000	      3918	80000300	c9ad0d13	addi	x26,x26,-870	 x26:0x80000918 x26=0x800005b2
       39205000	      3919	80000304	00925a63	bge	x4,x9,80000318	  x4:0x80009fc4  x9:0x00000001
       39215000	      3920	80000308	01531133	sll	x2,x6,x21	  x6:0x000292ff x21:0x00000000  x2=0x000292ff
       39225000	      3921	8000030c	0f68e313	ori	x6,x17,246	 x17:0x00000000  x6=0x000000f6
       39235000	      3922	80000310	01531a93	slli	x21,x6,0x15	  x6:0x000000f6 x21=0x1ec00000
       39245000	      3923	80000314	010dd813	srli	x16,x27,0x10	 x27:0x00000000 x16=0x00000000
       39255000	      3924	80000318	367d00e7	jalr	x1,x26,871	 x26:0x800005b2  x1=0x80000318
       39265000	      3925	00000000	00000013	addi	x0,x0,0	  x0:0x00000000
       39275000	      3926	80000918	00000013	addi	x0,x0,0	  x0:0x00000000
       39285000	      3927	8000091c	6d588517	auipc	x10,0x6d588	 x10=0xed588918
       39295000	      3928	80000920	41110db3	sub	x27,x2,x17	  x2:0x000292ff x17:0x00000000 x27=0x000292ff
       39305000	      3929	80000924	01571513	slli	x10,x14,0x15	 x14:0x80009fcc x10=0xf9800000
       39315000	      3930	80000928	0c512813	slti	x16,x2,197	  x2:0x000292ff x16=0x00000000
       39325000	      3931	8000092c	01f29463	bne	x5,x31,80000934	  x5:0x00000000 x31:0x000525ff
       39335000	      3932	00000000	00000013	addi	x0,x0,0	  x0:0x00000000
       39345000	      3933	80000930	00000013	addi	x0,x0,0	  x0:0x00000000
       39355000	      3934	80000934	ff4e8e93	addi	x29,x29,-12	 x29:0x80009f78 x29=0x80009f6c
       39365000	      3935	80000938	001ea223	sw	x1,4(x29)	 x29:0x80009f6c  x1:0x80000318 PA:0x80009f70
       39375000	      3936	8000093c	1ea76d13	ori	x26,x14,490	 x14:0x80009fcc x26=0x80009fee
       39385000	      3937	80000940	41e6d413	srai	x8,x13,0x1e	 x13:0xab1b0000  x8=0xfffffffe
       39395000	      3938	80000944	40c30c33	sub	x24,x6,x12	  x6:0x000000f6 x12:0x00000010 x24=0x000000e6
       39405000	      3939	80000948	eabf7d13	andi	x26,x30,-341	 x30:0x13494000 x26=0x13494000
       39415000	      3940	8000094c	5ba62193	slti	x3,x12,1466	 x12:0x00000010  x3=0x00000001
       39425000	      3941	80000950	624baf93	slti	x31,x23,1572	 x23:0x000525ff x31=0x00000000
       39435000	      3942	80000954	01df57b3	srl	x15,x30,x29	 x30:0x13494000 x29:0x80009f6c x15=0x00013494
       39445000	      3943	80000958	01e55c93	srli	x25,x10,0x1e	 x10:0xf9800000 x25=0x00000003
       39455000	      3944	8000095c	0b1000ef	jal	x1,8000095c	  x1=0x8000095c
       39465000	      3945	00000000	00000013	addi	x0,x0,0	  x0:0x00000000
       39475000	      3946	80001208	00000013	addi	x0,x0,0	  x0:0x00000000
       39485000	      3947	8000120c	01309a63	bne	x1,x19,80001220	  x1:0x8000095c x19:0x00000001
       39495000	      3948	00000000	00000013	addi	x0,x0,0	  x0:0x00000000
       39505000	      3949	8000121c	00000013	addi	x0,x0,0	  x0:0x00000000
       39515000	      3950	80001220	fdce8e93	addi	x29,x29,-36	 x29:0x80009f6c x29=0x80009f48
       39525000	      3951	80001224	001ea223	sw	x1,4(x29)	 x29:0x80009f48  x1:0x8000095c PA:0x80009f4c
       39535000	      3952	80001228	00000013	addi	x0,x0,0	  x0:0x00000000
       39545000	      3953	8000122c	00500413	addi	x8,x0,5	  x0:0x00000000  x8=0x00000005
       39555000	      3954	80001230	983b0b13	addi	x22,x22,-1661	 x22:0x00000000 x22=0xfffff983
       39565000	      3955	80001234	01300c13	addi	x24,x0,19	  x0:0x00000000 x24=0x00000013
       39575000	      3956	80001238	1c2b0893	addi	x17,x22,450	 x22:0xfffff983 x17=0xfffffb45
       39585000	      3957	8000123c	00b47133	and	x2,x8,x11	  x8:0x00000005 x11:0xffffff69  x2=0x00000001
       39595000	      3958	80001240	5000fdb7	lui	x27,0x5000f	 x27=0x5000f000
       39605000	      3959	80001244	00740413	addi	x8,x8,7	  x8:0x00000005  x8=0x0000000c
       39615000	      3960	80001248	00800193	addi	x3,x0,8	  x0:0x00000000  x3=0x00000008
       39625000	      3961	8000124c	018b8f33	add	x30,x23,x24	 x23:0x000525ff x24:0x00000013 x30=0x00052612
       39635000	      3962	80001250	01100993	addi	x19,x0,17	  x0:0x00000000 x19=0x00000011
       39645000	      3963	80001254	190ef893	andi	x17,x29,400	 x29:0x80009f48 x17=0x00000100
       39655000	      3964	80001258	01108f13	addi	x30,x1,17	  x1:0x8000095c x30=0x8000096d
       39665000	      3965	8000125c	00518193	addi	x3,x3,5	  x3:0x00000008  x3=0x0000000d
       39675000	      3966	80001260	01bbacb3	slt	x25,x23,x27	 x23:0x000525ff x27:0x5000f000 x25=0x00000001
       39685000	      3967	80001264	42a26313	ori	x6,x4,1066	  x4:0x80009fc4  x6=0x80009fee
       39695000	      3968	80001268	ff31e8e3	bltu	x3,x19,80001258	  x3:0x0000000d x19:0x00000011
       39705000	      3969	00000000	00000013	addi	x0,x0,0	  x0:0x00000000
       39715000	      3970	80001254	00000013	addi	x0,x0,0	  x0:0x00000000
       39725000	      3971	80001258	01108f13	addi	x30,x1,17	  x1:0x8000095c x30=0x8000096d
       39735000	      3972	8000125c	00518193	addi	x3,x3,5	  x3:0x0000000d  x3=0x00000012
       39745000	      3973	80001260	01bbacb3	slt	x25,x23,x27	 x23:0x000525ff x27:0x5000f000 x25=0x00000001
       39755000	      3974	80001264	42a26313	ori	x6,x4,1066	  x4:0x80009fc4  x6=0x80009fee
       39765000	      3975	80001268	ff31e8e3	bltu	x3,x19,80001258	  x3:0x00000012 x19:0x00000011
       39775000	      3976	8000126c	102aa513	slti	x10,x21,258	 x21:0x1ec00000 x10=0x00000000
       39785000	      3977	80001270	40085893	srai	x17,x16,0x0	 x16:0x00000000 x17=0x00000000
       39795000	      3978	80001274	0009bb33	sltu	x22,x19,x0	 x19:0x00000011  x0:0x00000000 x22=0x00000000
       39805000	      3979	80001278	fd8402e3	beq	x8,x24,8000123c	  x8:0x0000000c x24:0x00000013
       39815000	      3980	8000127c	40e705b3	sub	x11,x14,x14	 x14:0x80009fcc x14:0x80009fcc x11=0x00000000
       39825000	      3981	80001280	00500993	addi	x19,x0,5	  x0:0x00000000 x19=0x00000005
       39835000	      3982	80001284	00ae08b3	add	x17,x28,x10	 x28:0xfffffcb1 x10:0x00000000 x17=0xfffffcb1
       39845000	      3983	80001288	b335b793	sltiu	x15,x11,-1229	 x11:0x00000000 x15=0x00000001
       39855000	      3984	8000128c	00b54bb3	xor	x23,x10,x11	 x10:0x00000000 x11:0x00000000 x23=0x00000000
       39865000	      3985	80001290	01173d33	sltu	x26,x14,x17	 x14:0x80009fcc x17:0xfffffcb1 x26=0x00000001
       39875000	      3986	80001294	00700593	addi	x11,x0,7	  x0:0x00000000 x11=0x00000007
       39885000	      3987	80001298	7bbfb193	sltiu	x3,x31,1979	 x31:0x00000000  x3=0x00000001
       39895000	      3988	8000129c	41e1d7b3	sra	x15,x3,x30	  x3:0x00000001 x30:0x8000096d x15=0x00000000
       39905000	      3989	800012a0	015fc733	xor	x14,x31,x21	 x31:0x00000000 x21:0x1ec00000 x14=0x1ec00000
       39915000	      3990	800012a4	00000013	addi	x0,x0,0	  x0:0x00000000
       39925000	      3991	800012a8	00598993	addi	x19,x19,5	 x19:0x00000005 x19=0x0000000a
       39935000	      3992	800012ac	196d2d93	slti	x27,x26,406	 x26:0x00000001 x27=0x00000001
       39945000	      3993	800012b0	01c3f633	and	x12,x7,x28	  x7:0x0000a4e9 x28:0xfffffcb1 x12=0x0000a4a1
       39955000	      3994	800012b4	c2589937	lui	x18,0xc2589	 x18=0xc2589000
       39965000	      3995	800012b8	7d0c7d13	andi	x26,x24,2000	 x24:0x00000013 x26=0x00000010
       39975000	      3996	800012bc	00e0c033	xor	x0,x1,x14	  x1:0x8000095c x14:0x1ec00000
       39985000	      3997	800012c0	03347813	andi	x16,x8,51	  x8:0x0000000c x16=0x00000000
       39995000	      3998	800012c4	fcb9eee3	bltu	x19,x11,800012a0	 x19:0x0000000a x11:0x00000007
       40005000	      3999	800012c8	40fd5013	srai	x0,x26,0xf	 x26:0x00000010
       40015000	      4000	800012cc	fff00a13	addi	x20,x0,-1	  x0:0x00000000 x20=0xffffffff
       40025000	      4001	800012d0	3141c897	auipc	x17,0x3141c	 x17=0xb141d2cc
       40035000	      4002	800012d4	c344ec13	ori	x24,x9,-972	  x9:0x00000001 x24=0xfffffc35
       40045000	      4003	800012d8	0122c293	xori	x5,x5,18	  x5:0x00000000  x5=0x00000012
       40055000	      4004	800012dc	397c4793	xori	x15,x24,919	 x24:0xfffffc35 x15=0xffffffa2
       40065000	      4005	800012e0	00100613	addi	x12,x0,1	  x0:0x00000000 x12=0x00000001
       40075000	      4006	800012e4	413c5fb3	sra	x31,x24,x19	 x24:0xfffffc35 x19:0x0000000a x31=0xffffffff
       40085000	      4007	800012e8	0142f033	and	x0,x5,x20	  x5:0x00000012 x20:0xffffffff
       40095000	      4008	800012ec	93822b93	slti	x23,x4,-1736	  x4:0x80009fc4 x23=0x00000001
       40105000	      4009	800012f0	00000013	addi	x0,x0,0	  x0:0x00000000
       40115000	      4010	800012f4	745ec713	xori	x14,x29,1861	 x29:0x80009f48 x14=0x8000980d
       40125000	      4011	800012f8	fa43e513	ori	x10,x7,-92	  x7:0x0000a4e9 x10=0xffffffed
       40135000	      4012	800012fc	0be74a93	xori	x21,x14,190	 x14:0x8000980d x21=0x800098b3
       40145000	      4013	80001300	2724c193	xori	x3,x9,626	  x9:0x00000001  x3=0x00000273
       40155000	      4014	80001304	418f6d37	lui	x26,0x418f6	 x26=0x418f6000
       40165000	      4015	80001308	40c75f13	srai	x30,x14,0xc	 x14:0x8000980d x30=0xfff80009
       40175000	      4016	8000130c	17110113	addi	x2,x2,369	  x2:0x00000001  x2=0x00000172
       40185000	      4017	80001310	a9b57b93	andi	x23,x10,-1381	 x10:0xffffffed x23=0xfffffa89
       40195000	      4018	80001314	005a0a13	addi	x20,x20,5	 x20:0xffffffff x20=0x00000004
       40205000	      4019	80001318	00000013	addi	x0,x0,0	  x0:0x00000000
       40215000	      4020	8000131c	407e0d33	sub	x26,x28,x7	 x28:0xfffffcb1  x7:0x0000a4e9 x26=0xffff57c8
       40225000	      4021	80001320	40560ab3	sub	x21,x12,x5	 x12:0x00000001  x5:0x00000012 x21=0xffffffef
       40235000	      4022	80001324	016ea3b3	slt	x7,x29,x22	 x29:0x80009f48 x22:0x00000000  x7=0x00000001
       40245000	      4023	80001328	fcca64e3	bltu	x20,x12,800012f0	 x20:0x00000004 x12:0x00000001
       40255000	      4024	8000132c	00fede33	srl	x28,x29,x15	 x29:0x80009f48 x15:0xffffffa2 x28=0x200027d2
       40265000	      4025	80001330	ff900a93	addi	x21,x0,-7	  x0:0x00000000 x21=0xfffffff9
       40275000	      4026	80001334	33936017	auipc	x0,0x33936	
       40285000	      4027	80001338	00e139b3	sltu	x19,x2,x14	  x2:0x00000172 x14:0x8000980d x19=0x00000001
       40295000	      4028	8000133c	00bc6a33	or	x20,x24,x11	 x24:0xfffffc35 x11:0x00000007 x20=0xfffffc37
       40305000	      4029	80001340	ff700c93	addi	x25,x0,-9	  x0:0x00000000 x25=0xfffffff7
       40315000	      4030	80001344	40820bb3	sub	x23,x4,x8	  x4:0x80009fc4  x8:0x0000000c x23=0x80009fb8
       40325000	      4031	80001348	0075cdb3	xor	x27,x11,x7	 x11:0x00000007  x7:0x00000001 x27=0x00000006
       40335000	      4032	8000134c	ffea8a93	addi	x21,x21,-2	 x21:0xfffffff9 x21=0xfffffff7
       40345000	      4033	80001350	ff9a8ae3	beq	x21,x25,80001344	 x21:0xfffffff7 x25:0xfffffff7
       40355000	      4034	00000000	00000013	addi	x0,x0,0	  x0:0x00000000
       40365000	      4035	80001340	00000013	addi	x0,x0,0	  x0:0x00000000
       40375000	      4036	80001344	40820bb3	sub	x23,x4,x8	  x4:0x80009fc4  x8:0x0000000c x23=0x80009fb8
       40385000	      4037	80001348	0075cdb3	xor	x27,x11,x7	 x11:0x00000007  x7:0x00000001 x27=0x00000006
       40395000	      4038	8000134c	ffea8a93	addi	x21,x21,-2	 x21:0xfffffff7 x21=0xfffffff5
       40405000	      4039	80001350	ff9a8ae3	beq	x21,x25,80001344	 x21:0xfffffff5 x25:0xfffffff7
       40415000	      4040	80001354	f67b3013	sltiu	x0,x22,-153	 x22:0x00000000
       40425000	      4041	80001358	00200f93	addi	x31,x0,2	  x0:0x00000000 x31=0x00000002
       40435000	      4042	8000135c	0166db93	srli	x23,x13,0x16	 x13:0xab1b0000 x23=0x000002ac
       40445000	      4043	80001360	64a1b613	sltiu	x12,x3,1610	  x3:0x00000273 x12=0x00000001
       40455000	      4044	80001364	007a73b3	and	x7,x20,x7	 x20:0xfffffc37  x7:0x00000001  x7=0x00000001
       40465000	      4045	80001368	00b34333	xor	x6,x6,x11	  x6:0x80009fee x11:0x00000007  x6=0x80009fe9
       40475000	      4046	8000136c	00d59413	slli	x8,x11,0xd	 x11:0x00000007  x8=0x0000e000
       40485000	      4047	80001370	00ce6b33	or	x22,x28,x12	 x28:0x200027d2 x12:0x00000001 x22=0x200027d3
       40495000	      4048	80001374	015a5793	srli	x15,x20,0x15	 x20:0xfffffc37 x15=0x000007ff
       40505000	      4049	80001378	00200893	addi	x17,x0,2	  x0:0x00000000 x17=0x00000002
       40515000	      4050	8000137c	fc26ad17	auipc	x26,0xfc26a	 x26=0x7c26b378
       40525000	      4051	80001380	0171d593	srli	x11,x3,0x17	  x3:0x00000273 x11=0x00000000
       40535000	      4052	80001384	000d89b3	add	x19,x27,x0	 x27:0x00000006  x0:0x00000000 x19=0x00000006
       40545000	      4053	80001388	412ed293	srai	x5,x29,0x12	 x29:0x80009f48  x5=0xffffe000
       40555000	      4054	8000138c	d4026513	ori	x10,x4,-704	  x4:0x80009fc4 x10=0xffffffc4
       40565000	      4055	80001390	fa9a7c37	lui	x24,0xfa9a7	 x24=0xfa9a7000
       40575000	      4056	80001394	00000013	addi	x0,x0,0	  x0:0x00000000
       40585000	      4057	80001398	28365537	lui	x10,0x28365	 x10=0x28365000
       40595000	      4058	8000139c	ffff8f93	addi	x31,x31,-1	 x31:0x00000002 x31=0x00000001
       40605000	      4059	800013a0	01064d33	xor	x26,x12,x16	 x12:0x00000001 x16:0x00000000 x26=0x00000001
       40615000	      4060	800013a4	fd1ffce3	bgeu	x31,x17,8000137c	 x31:0x00000001 x17:0x00000002
       40625000	      4061	800013a8	d3f00637	lui	x12,0xd3f00	 x12=0xd3f00000
       40635000	      4062	800013ac	6df846b7	lui	x13,0x6df84	 x13=0x6df84000
       40645000	      4063	800013b0	007decb3	or	x25,x27,x7	 x27:0x00000006  x7:0x00000001 x25=0x00000007
       40655000	      4064	800013b4	01a05193	srli	x3,x0,0x1a	  x0:0x00000000  x3=0x00000000
       40665000	      4065	800013b8	01447d33	and	x26,x8,x20	  x8:0x0000e000 x20:0xfffffc37 x26=0x0000e000
       40675000	      4066	800013bc	002af2b3	and	x5,x21,x2	 x21:0xfffffff5  x2:0x00000172  x5=0x00000170
       40685000	      4067	800013c0	00a6d733	srl	x14,x13,x10	 x13:0x6df84000 x10:0x28365000 x14=0x6df84000
       40695000	      4068	800013c4	41155733	sra	x14,x10,x17	 x10:0x28365000 x17:0x00000002 x14=0x0a0d9400
       40705000	      4069	800013c8	09a89c97	auipc	x25,0x9a89	 x25=0x89a8a3c4
       40715000	      4070	800013cc	8a75eb93	ori	x23,x11,-1881	 x11:0x00000000 x23=0xfffff8a7
       40725000	      4071	800013d0	055ce113	ori	x2,x25,85	 x25:0x89a8a3c4  x2=0x89a8a3d5
       40735000	      4072	800013d4	00398933	add	x18,x19,x3	 x19:0x00000006  x3:0x00000000 x18=0x00000006
       40745000	      4073	800013d8	006aa733	slt	x14,x21,x6	 x21:0xfffffff5  x6:0x80009fe9 x14=0x00000000
       40755000	      4074	800013dc	01ba53b3	srl	x7,x20,x27	 x20:0xfffffc37 x27:0x00000006  x7=0x03fffff0
       40765000	      4075	800013e0	00185c13	srli	x24,x16,0x1	 x16:0x00000000 x24=0x00000000
       40775000	      4076	800013e4	40c15133	sra	x2,x2,x12	  x2:0x89a8a3d5 x12:0xd3f00000  x2=0x89a8a3d5
       40785000	      4077	800013e8	007d5013	srli	x0,x26,0x7	 x26:0x0000e000
       40795000	      4078	800013ec	00000013	addi	x0,x0,0	  x0:0x00000000
       40805000	      4079	800013f0	002d56b3	srl	x13,x26,x2	 x26:0x0000e000  x2:0x89a8a3d5 x13=0x00000000
       40815000	      4080	800013f4	00df5833	srl	x16,x30,x13	 x30:0xfff80009 x13:0x00000000 x16=0xfff80009
       40825000	      4081	800013f8	016e8e33	add	x28,x29,x22	 x29:0x80009f48 x22:0x200027d3 x28=0xa000c71b
       40835000	      4082	800013fc	01b14ab3	xor	x21,x2,x27	  x2:0x89a8a3d5 x27:0x00000006 x21=0x89a8a3d3
       40845000	      4083	80001400	98f3c0b7	lui	x1,0x98f3c	  x1=0x98f3c000
       40855000	      4084	80001404	402c51b3	sra	x3,x24,x2	 x24:0x00000000  x2:0x89a8a3d5  x3=0x00000000
       40865000	      4085	80001408	000e5793	srli	x15,x28,0x0	 x28:0xa000c71b x15=0xa000c71b
       40875000	      4086	8000140c	00d1c5b3	xor	x11,x3,x13	  x3:0x00000000 x13:0x00000000 x11=0x00000000
       40885000	      4087	80001410	0494f463	bgeu	x9,x9,80001458	  x9:0x00000001  x9:0x00000001
       40895000	      4088	00000000	00000013	addi	x0,x0,0	  x0:0x00000000
       40905000	      4089	80001454	00000013	addi	x0,x0,0	  x0:0x00000000
       40915000	      4090	80001458	03ae4863	blt	x28,x26,80001488	 x28:0xa000c71b x26:0x0000e000
       40925000	      4091	00000000	00000013	addi	x0,x0,0	  x0:0x00000000
       40935000	      4092	80001484	00000013	addi	x0,x0,0	  x0:0x00000000
       40945000	      4093	80001488	02a91063	bne	x18,x10,800014a8	 x18:0x00000006 x10:0x28365000
       40955000	      4094	00000000	00000013	addi	x0,x0,0	  x0:0x00000000
       40965000	      4095	800014a4	00000013	addi	x0,x0,0	  x0:0x00000000
       40975000	      4096	800014a8	41680033	sub	x0,x16,x22	 x16:0xfff80009 x22:0x200027d3
       40985000	      4097	800014ac	753a0913	addi	x18,x20,1875	 x20:0xfffffc37 x18=0x0000038a
       40995000	      4098	800014b0	4f6f2393	slti	x7,x30,1270	 x30:0xfff80009  x7=0x00000001
       41005000	      4099	800014b4	017e7833	and	x16,x28,x23	 x28:0xa000c71b x23:0xfffff8a7 x16=0xa000c003
       41015000	      4100	800014b8	41e88033	sub	x0,x17,x30	 x17:0x00000002 x30:0xfff80009
       41025000	      4101	800014bc	d35ee413	ori	x8,x29,-715	 x29:0x80009f48  x8=0xffffff7d
       41035000	      4102	800014c0	5382a317	auipc	x6,0x5382a	  x6=0xd382b4bc
       41045000	      4103	800014c4	65d32a93	slti	x21,x6,1629	  x6:0xd382b4bc x21=0x00000001
       41055000	      4104	800014c8	012a9863	bne	x21,x18,800014d8	 x21:0x00000001 x18:0x0000038a
       41065000	      4105	00000000	00000013	addi	x0,x0,0	  x0:0x00000000
       41075000	      4106	800014d4	00000013	addi	x0,x0,0	  x0:0x00000000
       41085000	      4107	800014d8	cd36ca13	xori	x20,x13,-813	 x13:0x00000000 x20=0xfffffcd3
       41095000	      4108	800014dc	049f9263	bne	x31,x9,80001520	 x31:0x00000001  x9:0x00000001
       41105000	      4109	800014e0	00bb9663	bne	x23,x11,800014ec	 x23:0xfffff8a7 x11:0x00000000
       41115000	      4110	00000000	00000013	addi	x0,x0,0	  x0:0x00000000
       41125000	      4111	800014e8	00000013	addi	x0,x0,0	  x0:0x00000000
       41135000	      4112	800014ec	0539d063	bge	x19,x19,8000152c	 x19:0x00000006 x19:0x00000006
       41145000	      4113	00000000	00000013	addi	x0,x0,0	  x0:0x00000000
       41155000	      4114	80001528	00000013	addi	x0,x0,0	  x0:0x00000000
       41165000	      4115	8000152c	1189b937	lui	x18,0x1189b	 x18=0x1189b000
       41175000	      4116	80001530	001fc263	blt	x31,x1,80001534	 x31:0x00000001  x1:0x98f3c000
       41185000	      4117	80001534	41c050b3	sra	x1,x0,x28	  x0:0x00000000 x28:0xa000c71b  x1=0x00000000
       41195000	      4118	80001538	e3542093	slti	x1,x8,-459	  x8:0xffffff7d  x1=0x00000000
       41205000	      4119	8000153c	00c43933	sltu	x18,x8,x12	  x8:0xffffff7d x12:0xd3f00000 x18=0x00000000
       41215000	      4120	80001540	04fed063	bge	x29,x15,80001580	 x29:0x80009f48 x15:0xa000c71b
       41225000	      4121	80001544	406f5113	srai	x2,x30,0x6	 x30:0xfff80009  x2=0xffffe000
       41235000	      4122	80001548	00570fb3	add	x31,x14,x5	 x14:0x00000000  x5:0x00000170 x31=0x00000170
       41245000	      4123	8000154c	e29a4ab7	lui	x21,0xe29a4	 x21=0xe29a4000
       41255000	      4124	80001550	945e3a93	sltiu	x21,x28,-1723	 x28:0xa000c71b x21=0x00000001
       41265000	      4125	80001554	69c63613	sltiu	x12,x12,1692	 x12:0xd3f00000 x12=0x00000000
       41275000	      4126	80001558	014871b3	and	x3,x16,x20	 x16:0xa000c003 x20:0xfffffcd3  x3=0xa000c003
       41285000	      4127	8000155c	000325b3	slt	x11,x6,x0	  x6:0xd382b4bc  x0:0x00000000 x11=0x00000001
       41295000	      4128	80001560	41f2df93	srai	x31,x5,0x1f	  x5:0x00000170 x31=0x00000000
       41305000	      4129	80001564	007f9313	slli	x6,x31,0x7	 x31:0x00000000  x6=0x00000000
       41315000	      4130	80001568	ae29e937	lui	x18,0xae29e	 x18=0xae29e000
       41325000	      4131	8000156c	00ca1813	slli	x16,x20,0xc	 x20:0xfffffcd3 x16=0xffcd3000
       41335000	      4132	80001570	01a8fc33	and	x24,x17,x26	 x17:0x00000002 x26:0x0000e000 x24=0x00000000
       41345000	      4133	80001574	41ad81b3	sub	x3,x27,x26	 x27:0x00000006 x26:0x0000e000  x3=0xffff2006
       41355000	      4134	80001578	03c40463	beq	x8,x28,800015a0	  x8:0xffffff7d x28:0xa000c71b
       41365000	      4135	8000157c	810acd13	xori	x26,x21,-2032	 x21:0x00000001 x26=0xfffff811
       41375000	      4136	80001580	02ae1463	bne	x28,x10,800015a8	 x28:0xa000c71b x10:0x28365000
       41385000	      4137	00000000	00000013	addi	x0,x0,0	  x0:0x00000000
       41395000	      4138	800015a4	00000013	addi	x0,x0,0	  x0:0x00000000
       41405000	      4139	800015a8	00826ab3	or	x21,x4,x8	  x4:0x80009fc4  x8:0xffffff7d x21=0xfffffffd
       41415000	      4140	800015ac	01f593b3	sll	x7,x11,x31	 x11:0x00000001 x31:0x00000000  x7=0x00000001
       41425000	      4141	800015b0	def7f413	andi	x8,x15,-529	 x15:0xa000c71b  x8=0xa000c50b
       41435000	      4142	800015b4	01f69c63	bne	x13,x31,800015cc	 x13:0x00000000 x31:0x00000000
       41445000	      4143	800015b8	005aea63	bltu	x21,x5,800015cc	 x21:0xfffffffd  x5:0x00000170
       41455000	      4144	800015bc	7bc48fb7	lui	x31,0x7bc48	 x31=0x7bc48000
       41465000	      4145	800015c0	01a75513	srli	x10,x14,0x1a	 x14:0x00000000 x10=0x00000000
       41475000	      4146	800015c4	0143d263	bge	x7,x20,800015c8	  x7:0x00000001 x20:0xfffffcd3
       41485000	      4147	00000000	00000013	addi	x0,x0,0	  x0:0x00000000
       41495000	      4148	800015c4	00000013	addi	x0,x0,0	  x0:0x00000000
       41505000	      4149	800015c8	00c3e7b3	or	x15,x7,x12	  x7:0x00000001 x12:0x00000000 x15=0x00000001
       41515000	      4150	800015cc	408551b3	sra	x3,x10,x8	 x10:0x00000000  x8:0xa000c50b  x3=0x00000000
       41525000	      4151	800015d0	1ce22913	slti	x18,x4,462	  x4:0x80009fc4 x18=0x00000001
       41535000	      4152	800015d4	16296393	ori	x7,x18,354	 x18:0x00000001  x7=0x00000163
       41545000	      4153	800015d8	d33dabb7	lui	x23,0xd33da	 x23=0xd33da000
       41555000	      4154	800015dc	05e68063	beq	x13,x30,8000161c	 x13:0x00000000 x30:0xfff80009
       41565000	      4155	800015e0	11243997	auipc	x19,0x11243	 x19=0x912445dc
       41575000	      4156	800015e4	00796db3	or	x27,x18,x7	 x18:0x00000001  x7:0x00000163 x27=0x00000163
       41585000	      4157	800015e8	01335b13	srli	x22,x6,0x13	  x6:0x00000000 x22=0x00000000
       41595000	      4158	800015ec	015bdb13	srli	x22,x23,0x15	 x23:0xd33da000 x22=0x00000699
       41605000	      4159	800015f0	bfc70d13	addi	x26,x14,-1028	 x14:0x00000000 x26=0xfffffbfc
       41615000	      4160	800015f4	41eed9b3	sra	x19,x29,x30	 x29:0x80009f48 x30:0xfff80009 x19=0xffc0004f
       41625000	      4161	800015f8	406f5a93	srai	x21,x30,0x6	 x30:0xfff80009 x21=0xffffe000
       41635000	      4162	800015fc	c402d0b7	lui	x1,0xc402d	  x1=0xc402d000
       41645000	      4163	80001600	40aed633	sra	x12,x29,x10	 x29:0x80009f48 x10:0x00000000 x12=0x80009f48
       41655000	      4164	80001604	00346463	bltu	x8,x3,8000160c	  x8:0xa000c50b  x3:0x00000000
       41665000	      4165	80001608	0120c633	xor	x12,x1,x18	  x1:0xc402d000 x18:0x00000001 x12=0xc402d001
       41675000	      4166	8000160c	01f80933	add	x18,x16,x31	 x16:0xffcd3000 x31:0x7bc48000 x18=0x7b91b000
       41685000	      4167	80001610	00257cb3	and	x25,x10,x2	 x10:0x00000000  x2:0xffffe000 x25=0x00000000
       41695000	      4168	80001614	00035863	bge	x6,x0,80001624	  x6:0x00000000  x0:0x00000000
       41705000	      4169	00000000	00000013	addi	x0,x0,0	  x0:0x00000000
       41715000	      4170	80001620	00000013	addi	x0,x0,0	  x0:0x00000000
       41725000	      4171	80001624	9babfd93	andi	x27,x23,-1606	 x23:0xd33da000 x27=0xd33da000
       41735000	      4172	80001628	00982133	slt	x2,x16,x9	 x16:0xffcd3000  x9:0x00000001  x2=0x00000001
       41745000	      4173	8000162c	0161c133	xor	x2,x3,x22	  x3:0x00000000 x22:0x00000699  x2=0x00000699
       41755000	      4174	80001630	9bc34613	xori	x12,x6,-1604	  x6:0x00000000 x12=0xfffff9bc
       41765000	      4175	80001634	a0f3c313	xori	x6,x7,-1521	  x7:0x00000163  x6=0xfffffb6c
       41775000	      4176	80001638	00c99513	slli	x10,x19,0xc	 x19:0xffc0004f x10=0x0004f000
       41785000	      4177	8000163c	b3e8b593	sltiu	x11,x17,-1218	 x17:0x00000002 x11=0x00000001
       41795000	      4178	80001640	0033fc63	bgeu	x7,x3,80001658	  x7:0x00000163  x3:0x00000000
       41805000	      4179	00000000	00000013	addi	x0,x0,0	  x0:0x00000000
       41815000	      4180	80001654	00000013	addi	x0,x0,0	  x0:0x00000000
       41825000	      4181	80001658	00e268b3	or	x17,x4,x14	  x4:0x80009fc4 x14:0x00000000 x17=0x80009fc4
       41835000	      4182	8000165c	0051dc93	srli	x25,x3,0x5	  x3:0x00000000 x25=0x00000000
       41845000	      4183	80001660	01b428b3	slt	x17,x8,x27	  x8:0xa000c50b x27:0xd33da000 x17=0x00000001
       41855000	      4184	80001664	00d57533	and	x10,x10,x13	 x10:0x0004f000 x13:0x00000000 x10=0x00000000
       41865000	      4185	80001668	01404263	blt	x0,x20,8000166c	  x0:0x00000000 x20:0xfffffcd3
       41875000	      4186	8000166c	017ee7b3	or	x15,x29,x23	 x29:0x80009f48 x23:0xd33da000 x15=0xd33dbf48
       41885000	      4187	80001670	00c9f5b3	and	x11,x19,x12	 x19:0xffc0004f x12:0xfffff9bc x11=0xffc0000c
       41895000	      4188	80001674	015b5993	srli	x19,x22,0x15	 x22:0x00000699 x19=0x00000000
       41905000	      4189	80001678	9e793f93	sltiu	x31,x18,-1561	 x18:0x7b91b000 x31=0x00000001
       41915000	      4190	8000167c	d574f713	andi	x14,x9,-681	  x9:0x00000001 x14=0x00000001
       41925000	      4191	80001680	ed701137	lui	x2,0xed701	  x2=0xed701000
       41935000	      4192	80001684	00735e33	srl	x28,x6,x7	  x6:0xfffffb6c  x7:0x00000163 x28=0x1fffff6d
       41945000	      4193	80001688	00726263	bltu	x4,x7,8000168c	  x4:0x80009fc4  x7:0x00000163
       41955000	      4194	8000168c	0ae27863	bgeu	x4,x14,8000173c	  x4:0x80009fc4 x14:0x00000001
       41965000	      4195	00000000	00000013	addi	x0,x0,0	  x0:0x00000000
       41975000	      4196	80001738	00000013	addi	x0,x0,0	  x0:0x00000000
       41985000	      4197	8000173c	596aaf17	auipc	x30,0x596aa	 x30=0xd96ab738
       41995000	      4198	80001740	017b67b3	or	x15,x22,x23	 x22:0x00000699 x23:0xd33da000 x15=0xd33da699
       42005000	      4199	80001744	a920ee13	ori	x28,x1,-1390	  x1:0xc402d000 x28=0xfffffa92
       42015000	      4200	80001748	e4242913	slti	x18,x8,-446	  x8:0xa000c50b x18=0x00000001
       42025000	      4201	8000174c	00000013	addi	x0,x0,0	  x0:0x00000000
       42035000	      4202	80001750	0472e063	bltu	x5,x7,80001790	  x5:0x00000170  x7:0x00000163
       42045000	      4203	80001754	023d4863	blt	x26,x3,80001784	 x26:0xfffffbfc  x3:0x00000000
       42055000	      4204	00000000	00000013	addi	x0,x0,0	  x0:0x00000000
       42065000	      4205	80001780	00000013	addi	x0,x0,0	  x0:0x00000000
       42075000	      4206	80001784	bb068013	addi	x0,x13,-1104	 x13:0x00000000
       42085000	      4207	80001788	c99d7f17	auipc	x30,0xc99d7	 x30=0x499d8784
       42095000	      4208	8000178c	019e7b33	and	x22,x28,x25	 x28:0xfffffa92 x25:0x00000000 x22=0x00000000
       42105000	      4209	80001790	5af615b7	lui	x11,0x5af61	 x11=0x5af61000
       42115000	      4210	80001794	8fda2f13	slti	x30,x20,-1795	 x20:0xfffffcd3 x30=0x00000000
       42125000	      4211	80001798	77666a37	lui	x20,0x77666	 x20=0x77666000
       42135000	      4212	8000179c	0135ec63	bltu	x11,x19,800017b4	 x11:0x5af61000 x19:0x00000000
       42145000	      4213	800017a0	e4959c37	lui	x24,0xe4959	 x24=0xe4959000
       42155000	      4214	800017a4	00fe5c63	bge	x28,x15,800017bc	 x28:0xfffffa92 x15:0xd33da699
       42165000	      4215	00000000	00000013	addi	x0,x0,0	  x0:0x00000000
       42175000	      4216	800017b8	00000013	addi	x0,x0,0	  x0:0x00000000
       42185000	      4217	800017bc	01224333	xor	x6,x4,x18	  x4:0x80009fc4 x18:0x00000001  x6=0x80009fc5
       42195000	      4218	800017c0	048c6063	bltu	x24,x8,80001800	 x24:0xe4959000  x8:0xa000c50b
       42205000	      4219	800017c4	00000013	addi	x0,x0,0	  x0:0x00000000
       42215000	      4220	800017c8	00bc8663	beq	x25,x11,800017d4	 x25:0x00000000 x11:0x5af61000
       42225000	      4221	800017cc	01dfec33	or	x24,x31,x29	 x31:0x00000001 x29:0x80009f48 x24=0x80009f49
       42235000	      4222	800017d0	40b0d0b3	sra	x1,x1,x11	  x1:0xc402d000 x11:0x5af61000  x1=0xc402d000
       42245000	      4223	800017d4	01419863	bne	x3,x20,800017e4	  x3:0x00000000 x20:0x77666000
       42255000	      4224	00000000	00000013	addi	x0,x0,0	  x0:0x00000000
       42265000	      4225	800017e0	00000013	addi	x0,x0,0	  x0:0x00000000
       42275000	      4226	800017e4	e1c94613	xori	x12,x18,-484	 x18:0x00000001 x12=0xfffffe1d
       42285000	      4227	800017e8	01069933	sll	x18,x13,x16	 x13:0x00000000 x16:0xffcd3000 x18=0x00000000
       42295000	      4228	800017ec	56957f97	auipc	x31,0x56957	 x31=0xd69587e8
       42305000	      4229	800017f0	01a12a33	slt	x20,x2,x26	  x2:0xed701000 x26:0xfffffbfc x20=0x00000001
       42315000	      4230	800017f4	002f1193	slli	x3,x30,0x2	 x30:0x00000000  x3=0x00000000
       42325000	      4231	800017f8	00709fb3	sll	x31,x1,x7	  x1:0xc402d000  x7:0x00000163 x31=0x20168000
       42335000	      4232	800017fc	00e18263	beq	x3,x14,80001800	  x3:0x00000000 x14:0x00000001
       42345000	      4233	80001800	00140d33	add	x26,x8,x1	  x8:0xa000c50b  x1:0xc402d000 x26=0x6403950b
       42355000	      4234	80001804	04c08063	beq	x1,x12,80001844	  x1:0xc402d000 x12:0xfffffe1d
       42365000	      4235	80001808	56368393	addi	x7,x13,1379	 x13:0x00000000  x7=0x00000563
       42375000	      4236	8000180c	a206f013	andi	x0,x13,-1504	 x13:0x00000000
       42385000	      4237	80001810	00000013	addi	x0,x0,0	  x0:0x00000000
       42395000	      4238	80001814	fb68e093	ori	x1,x17,-74	 x17:0x00000001  x1=0xffffffb7
       42405000	      4239	80001818	4053d9b3	sra	x19,x7,x5	  x7:0x00000563  x5:0x00000170 x19=0x00000000
       42415000	      4240	8000181c	93143b13	sltiu	x22,x8,-1743	  x8:0xa000c50b x22=0x00000001
       42425000	      4241	80001820	af89f737	lui	x14,0xaf89f	 x14=0xaf89f000
       42435000	      4242	80001824	01dd1113	slli	x2,x26,0x1d	 x26:0x6403950b  x2=0x60000000
       42445000	      4243	80001828	02501e63	bne	x0,x5,80001864	  x0:0x00000000  x5:0x00000170
       42455000	      4244	00000000	00000013	addi	x0,x0,0	  x0:0x00000000
       42465000	      4245	80001860	00000013	addi	x0,x0,0	  x0:0x00000000
       42475000	      4246	80001864	40c25033	sra	x0,x4,x12	  x4:0x80009fc4 x12:0xfffffe1d
       42485000	      4247	80001868	00841c93	slli	x25,x8,0x8	  x8:0xa000c50b x25=0x00c50b00
       42495000	      4248	8000186c	01817433	and	x8,x2,x24	  x2:0x60000000 x24:0x80009f49  x8=0x00000000
       42505000	      4249	80001870	00169ab3	sll	x21,x13,x1	 x13:0x00000000  x1:0xffffffb7 x21=0x00000000
       42515000	      4250	80001874	41cf0033	sub	x0,x30,x28	 x30:0x00000000 x28:0xfffffa92
       42525000	      4251	80001878	c91c7993	andi	x19,x24,-879	 x24:0x80009f49 x19=0x80009c01
       42535000	      4252	8000187c	00ab2bb3	slt	x23,x22,x10	 x22:0x00000001 x10:0x00000000 x23=0x00000000
       42545000	      4253	80001880	054a1063	bne	x20,x20,800018c0	 x20:0x00000001 x20:0x00000001
       42555000	      4254	80001884	489d2593	slti	x11,x26,1161	 x26:0x6403950b x11=0x00000000
       42565000	      4255	80001888	4044dab3	sra	x21,x9,x4	  x9:0x00000001  x4:0x80009fc4 x21=0x00000000
       42575000	      4256	8000188c	010b05b3	add	x11,x22,x16	 x22:0x00000001 x16:0xffcd3000 x11=0xffcd3001
       42585000	      4257	80001890	016c5613	srli	x12,x24,0x16	 x24:0x80009f49 x12=0x00000200
       42595000	      4258	80001894	0161c1b3	xor	x3,x3,x22	  x3:0x00000000 x22:0x00000001  x3=0x00000001
       42605000	      4259	80001898	00000013	addi	x0,x0,0	  x0:0x00000000
       42615000	      4260	8000189c	01fd9993	slli	x19,x27,0x1f	 x27:0xd33da000 x19=0x00000000
       42625000	      4261	800018a0	01aaebb3	or	x23,x21,x26	 x21:0x00000000 x26:0x6403950b x23=0x6403950b
       42635000	      4262	800018a4	003ed8b3	srl	x17,x29,x3	 x29:0x80009f48  x3:0x00000001 x17=0x40004fa4
       42645000	      4263	800018a8	406bdbb3	sra	x23,x23,x6	 x23:0x6403950b  x6:0x80009fc5 x23=0x03201ca8
       42655000	      4264	800018ac	415bd693	srai	x13,x23,0x15	 x23:0x03201ca8 x13=0x00000019
       42665000	      4265	800018b0	013649b3	xor	x19,x12,x19	 x12:0x00000200 x19:0x00000000 x19=0x00000200
       42675000	      4266	800018b4	015a5463	bge	x20,x21,800018bc	 x20:0x00000001 x21:0x00000000
       42685000	      4267	00000000	00000013	addi	x0,x0,0	  x0:0x00000000
       42695000	      4268	800018b8	00000013	addi	x0,x0,0	  x0:0x00000000
       42705000	      4269	800018bc	017d63b3	or	x7,x26,x23	 x26:0x6403950b x23:0x03201ca8  x7=0x67239dab
       42715000	      4270	800018c0	01835c13	srli	x24,x6,0x18	  x6:0x80009fc5 x24=0x00000080
       42725000	      4271	800018c4	40bb5393	srai	x7,x22,0xb	 x22:0x00000001  x7=0x00000000
       42735000	      4272	800018c8	058ad263	bge	x21,x24,8000190c	 x21:0x00000000 x24:0x00000080
       42745000	      4273	800018cc	010cf0b3	and	x1,x25,x16	 x25:0x00c50b00 x16:0xffcd3000  x1=0x00c50000
       42755000	      4274	800018d0	418cdd13	srai	x26,x25,0x18	 x25:0x00c50b00 x26=0x00000000
       42765000	      4275	800018d4	03891863	bne	x18,x24,80001904	 x18:0x00000000 x24:0x00000080
       42775000	      4276	00000000	00000013	addi	x0,x0,0	  x0:0x00000000
       42785000	      4277	80001900	00000013	addi	x0,x0,0	  x0:0x00000000
       42795000	      4278	80001904	007cc133	xor	x2,x25,x7	 x25:0x00c50b00  x7:0x00000000  x2=0x00c50b00
       42805000	      4279	80001908	011efab3	and	x21,x29,x17	 x29:0x80009f48 x17:0x40004fa4 x21=0x00000f00
       42815000	      4280	8000190c	015f36b3	sltu	x13,x30,x21	 x30:0x00000000 x21:0x00000f00 x13=0x00000001
       42825000	      4281	80001910	014bd0b3	srl	x1,x23,x20	 x23:0x03201ca8 x20:0x00000001  x1=0x01900e54
       42835000	      4282	80001914	400e8b33	sub	x22,x29,x0	 x29:0x80009f48  x0:0x00000000 x22=0x80009f48
       42845000	      4283	80001918	015179b3	and	x19,x2,x21	  x2:0x00c50b00 x21:0x00000f00 x19=0x00000b00
       42855000	      4284	8000191c	015160b3	or	x1,x2,x21	  x2:0x00c50b00 x21:0x00000f00  x1=0x00c50f00
       42865000	      4285	80001920	310ca593	slti	x11,x25,784	 x25:0x00c50b00 x11=0x00000000
       42875000	      4286	80001924	00776263	bltu	x14,x7,80001928	 x14:0xaf89f000  x7:0x00000000
       42885000	      4287	80001928	be4e8b13	addi	x22,x29,-1052	 x29:0x80009f48 x22=0x80009b2c
       42895000	      4288	8000192c	00d25e33	srl	x28,x4,x13	  x4:0x80009fc4 x13:0x00000001 x28=0x40004fe2
       42905000	      4289	80001930	0086a7b3	slt	x15,x13,x8	 x13:0x00000001  x8:0x00000000 x15=0x00000000
       42915000	      4290	80001934	01a1d693	srli	x13,x3,0x1a	  x3:0x00000001 x13=0x00000000
       42925000	      4291	80001938	006d1463	bne	x26,x6,80001940	 x26:0x00000000  x6:0x80009fc5
       42935000	      4292	00000000	00000013	addi	x0,x0,0	  x0:0x00000000
       42945000	      4293	8000193c	00000013	addi	x0,x0,0	  x0:0x00000000
       42955000	      4294	80001940	02774663	blt	x14,x7,8000196c	 x14:0xaf89f000  x7:0x00000000
       42965000	      4295	00000000	00000013	addi	x0,x0,0	  x0:0x00000000
       42975000	      4296	80001968	00000013	addi	x0,x0,0	  x0:0x00000000
       42985000	      4297	8000196c	00ca5393	srli	x7,x20,0xc	 x20:0x00000001  x7=0x00000000
       42995000	      4298	80001970	004ea083	lw	x1,4(x29)	 x29:0x80009f48  x1=0x8000095c PA:0x80009f4c
       43005000	      4299	80001974	01012933	slt	x18,x2,x16	  x2:0x00c50b00 x16:0xffcd3000 x18=0x00000000
       43015000	      4300	80001978	01b4e133	or	x2,x9,x27	  x9:0x00000001 x27:0xd33da000  x2=0xd33da001
       43025000	      4301	8000197c	024e8e93	addi	x29,x29,36	 x29:0x80009f48 x29=0x80009f6c
       43035000	      4302	80001980	004de533	or	x10,x27,x4	 x27:0xd33da000  x4:0x80009fc4 x10=0xd33dbfc4
       43045000	      4303	80001984	3ce94393	xori	x7,x18,974	 x18:0x00000000  x7=0x000003ce
       43055000	      4304	80001988	00108c13	addi	x24,x1,1	  x1:0x8000095c x24=0x8000095d
       43065000	      4305	8000198c	000c0c67	jalr	x24,x24,0	 x24:0x8000095d x24=0x8000198c
       43075000	      4306	00000000	00000013	addi	x0,x0,0	  x0:0x00000000
       43085000	      4307	8000095c	00000013	addi	x0,x0,0	  x0:0x00000000
       43095000	      4308	80000960	000643b3	xor	x7,x12,x0	 x12:0x00000200  x0:0x00000000  x7=0x00000200
       43105000	      4309	80000964	00fc5533	srl	x10,x24,x15	 x24:0x8000198c x15:0x00000000 x10=0x8000198c
       43115000	      4310	80000968	e8d46317	auipc	x6,0xe8d46	  x6=0x68d46964
       43125000	      4311	8000096c	00001797	auipc	x15,0x1	 x15=0x80001968
       43135000	      4312	80000970	02478793	addi	x15,x15,36	 x15:0x80001968 x15=0x8000198c
       43145000	      4313	80000974	32558813	addi	x16,x11,805	 x11:0x00000000 x16=0x00000325
       43155000	      4314	80000978	27578a93	addi	x21,x15,629	 x15:0x8000198c x21=0x80001c01
       43165000	      4315	8000097c	cd878793	addi	x15,x15,-808	 x15:0x8000198c x15=0x80001664
       43175000	      4316	80000980	41cfd3b3	sra	x7,x31,x28	 x31:0x20168000 x28:0x40004fe2  x7=0x0805a000
       43185000	      4317	80000984	cd613a93	sltiu	x21,x2,-810	  x2:0xd33da001 x21=0x00000001
       43195000	      4318	80000988	00269993	slli	x19,x13,0x2	 x13:0x00000000 x19=0x00000000
       43205000	      4319	8000098c	59c7ecb7	lui	x25,0x59c7e	 x25=0x59c7e000
       43215000	      4320	80000990	0033c463	blt	x7,x3,80000998	  x7:0x0805a000  x3:0x00000001
       43225000	      4321	80000994	7ca46613	ori	x12,x8,1994	  x8:0x00000000 x12=0x000007ca
       43235000	      4322	80000998	329780e7	jalr	x1,x15,809	 x15:0x80001664  x1=0x80000998
       43245000	      4323	00000000	00000013	addi	x0,x0,0	  x0:0x00000000
       43255000	      4324	8000198c	00000013	addi	x0,x0,0	  x0:0x00000000
       43265000	      4325	80001990	00297663	bgeu	x18,x2,8000199c	 x18:0x00000000  x2:0xd33da001
       43275000	      4326	80001994	003efcb3	and	x25,x29,x3	 x29:0x80009f6c  x3:0x00000001 x25=0x00000000
       43285000	      4327	80001998	63db3a93	sltiu	x21,x22,1597	 x22:0x80009b2c x21=0x00000000
       43295000	      4328	8000199c	ff4e8e93	addi	x29,x29,-12	 x29:0x80009f6c x29=0x80009f60
       43305000	      4329	800019a0	00000013	addi	x0,x0,0	  x0:0x00000000
       43315000	      4330	800019a4	6bb24a93	xori	x21,x4,1723	  x4:0x80009fc4 x21=0x8000997f
       43325000	      4331	800019a8	001ea223	sw	x1,4(x29)	 x29:0x80009f60  x1:0x80000998 PA:0x80009f64
       43335000	      4332	800019ac	862f8717	auipc	x14,0x862f8	 x14=0x062f99a8
       43345000	      4333	800019b0	06991737	lui	x14,0x6991	 x14=0x06991000
       43355000	      4334	800019b4	0075e6b3	or	x13,x11,x7	 x11:0x00000000  x7:0x0805a000 x13=0x0805a000
       43365000	      4335	800019b8	011e4e33	xor	x28,x28,x17	 x28:0x40004fe2 x17:0x40004fa4 x28=0x00000046
       43375000	      4336	800019bc	ffe00593	addi	x11,x0,-2	  x0:0x00000000 x11=0xfffffffe
       43385000	      4337	800019c0	c3526f93	ori	x31,x4,-971	  x4:0x80009fc4 x31=0xfffffff5
       43395000	      4338	800019c4	19e88193	addi	x3,x17,414	 x17:0x40004fa4  x3=0x40005142
       43405000	      4339	800019c8	b99a4c97	auipc	x25,0xb99a4	 x25=0x399a59c4
       43415000	      4340	800019cc	f4b78537	lui	x10,0xf4b78	 x10=0xf4b78000
       43425000	      4341	800019d0	01300093	addi	x1,x0,19	  x0:0x00000000  x1=0x00000013
       43435000	      4342	800019d4	00000013	addi	x0,x0,0	  x0:0x00000000
       43445000	      4343	800019d8	0148bcb3	sltu	x25,x17,x20	 x17:0x40004fa4 x20:0x00000001 x25=0x00000000
       43455000	      4344	800019dc	afc3b993	sltiu	x19,x7,-1284	  x7:0x0805a000 x19=0x00000001
       43465000	      4345	800019e0	230e0293	addi	x5,x28,560	 x28:0x00000046  x5=0x00000276
       43475000	      4346	800019e4	414207b3	sub	x15,x4,x20	  x4:0x80009fc4 x20:0x00000001 x15=0x80009fc3
       43485000	      4347	800019e8	01114833	xor	x16,x2,x17	  x2:0xd33da001 x17:0x40004fa4 x16=0x933defa5
       43495000	      4348	800019ec	41b15b13	srai	x22,x2,0x1b	  x2:0xd33da001 x22=0xfffffffa
       43505000	      4349	800019f0	01ad6b33	or	x22,x26,x26	 x26:0x00000000 x26:0x00000000 x22=0x00000000
       43515000	      4350	800019f4	3e897a13	andi	x20,x18,1000	 x18:0x00000000 x20=0x00000000
       43525000	      4351	800019f8	01ae4133	xor	x2,x28,x26	 x28:0x00000046 x26:0x00000000  x2=0x00000046
       43535000	      4352	800019fc	d6cbcc13	xori	x24,x23,-660	 x23:0x03201ca8 x24=0xfcdfe1c4
       43545000	      4353	80001a00	00758593	addi	x11,x11,7	 x11:0xfffffffe x11=0x00000005
       43555000	      4354	80001a04	00000013	addi	x0,x0,0	  x0:0x00000000
       43565000	      4355	80001a08	fe15c6e3	blt	x11,x1,800019f4	 x11:0x00000005  x1:0x00000013
       43575000	      4356	00000000	00000013	addi	x0,x0,0	  x0:0x00000000
       43585000	      4357	800019f0	00000013	addi	x0,x0,0	  x0:0x00000000
       43595000	      4358	800019f4	3e897a13	andi	x20,x18,1000	 x18:0x00000000 x20=0x00000000
       43605000	      4359	800019f8	01ae4133	xor	x2,x28,x26	 x28:0x00000046 x26:0x00000000  x2=0x00000046
       43615000	      4360	800019fc	d6cbcc13	xori	x24,x23,-660	 x23:0x03201ca8 x24=0xfcdfe1c4
       43625000	      4361	80001a00	00758593	addi	x11,x11,7	 x11:0x00000005 x11=0x0000000c
       43635000	      4362	80001a04	00000013	addi	x0,x0,0	  x0:0x00000000
       43645000	      4363	80001a08	fe15c6e3	blt	x11,x1,800019f4	 x11:0x0000000c  x1:0x00000013
       43655000	      4364	00000000	00000013	addi	x0,x0,0	  x0:0x00000000
       43665000	      4365	800019f0	00000013	addi	x0,x0,0	  x0:0x00000000
       43675000	      4366	800019f4	3e897a13	andi	x20,x18,1000	 x18:0x00000000 x20=0x00000000
       43685000	      4367	800019f8	01ae4133	xor	x2,x28,x26	 x28:0x00000046 x26:0x00000000  x2=0x00000046
       43695000	      4368	800019fc	d6cbcc13	xori	x24,x23,-660	 x23:0x03201ca8 x24=0xfcdfe1c4
       43705000	      4369	80001a00	00758593	addi	x11,x11,7	 x11:0x0000000c x11=0x00000013
       43715000	      4370	80001a04	00000013	addi	x0,x0,0	  x0:0x00000000
       43725000	      4371	80001a08	fe15c6e3	blt	x11,x1,800019f4	 x11:0x00000013  x1:0x00000013
       43735000	      4372	80001a0c	0c04b913	sltiu	x18,x9,192	  x9:0x00000001 x18=0x00000001
       43745000	      4373	80001a10	fff00b13	addi	x22,x0,-1	  x0:0x00000000 x22=0xffffffff
       43755000	      4374	80001a14	c860df37	lui	x30,0xc860d	 x30=0xc860d000
       43765000	      4375	80001a18	01cd7a33	and	x20,x26,x28	 x26:0x00000000 x28:0x00000046 x20=0x00000000
       43775000	      4376	80001a1c	2d754893	xori	x17,x10,727	 x10:0xf4b78000 x17=0xf4b782d7
       43785000	      4377	80001a20	01368333	add	x6,x13,x19	 x13:0x0805a000 x19:0x00000001  x6=0x0805a001
       43795000	      4378	80001a24	ff900813	addi	x16,x0,-7	  x0:0x00000000 x16=0xfffffff9
       43805000	      4379	80001a28	00e028b3	slt	x17,x0,x14	  x0:0x00000000 x14:0x06991000 x17=0x00000001
       43815000	      4380	80001a2c	00000013	addi	x0,x0,0	  x0:0x00000000
       43825000	      4381	80001a30	00780433	add	x8,x16,x7	 x16:0xfffffff9  x7:0x0805a000  x8=0x08059ff9
       43835000	      4382	80001a34	8d650793	addi	x15,x10,-1834	 x10:0xf4b78000 x15=0xf4b778d6
       43845000	      4383	80001a38	0132a8b3	slt	x17,x5,x19	  x5:0x00000276 x19:0x00000001 x17=0x00000000
       43855000	      4384	80001a3c	01a97ab3	and	x21,x18,x26	 x18:0x00000001 x26:0x00000000 x21=0x00000000
       43865000	      4385	80001a40	ff7b0b13	addi	x22,x22,-9	 x22:0xffffffff x22=0xfffffff6
       43875000	      4386	80001a44	00a00e13	addi	x28,x0,10	  x0:0x00000000 x28=0x0000000a
       43885000	      4387	80001a48	00f2b9b3	sltu	x19,x5,x15	  x5:0x00000276 x15:0xf4b778d6 x19=0x00000001
       43895000	      4388	80001a4c	00600693	addi	x13,x0,6	  x0:0x00000000 x13=0x00000006
       43905000	      4389	80001a50	d581a413	slti	x8,x3,-680	  x3:0x40005142  x8=0x00000000
       43915000	      4390	80001a54	01984fb3	xor	x31,x16,x25	 x16:0xfffffff9 x25:0x00000000 x31=0xfffffff9
       43925000	      4391	80001a58	01c7bdb3	sltu	x27,x15,x28	 x15:0xf4b778d6 x28:0x0000000a x27=0x00000000
       43935000	      4392	80001a5c	ffbe0e13	addi	x28,x28,-5	 x28:0x0000000a x28=0x00000005
       43945000	      4393	80001a60	01d85cb3	srl	x25,x16,x29	 x16:0xfffffff9 x29:0x80009f60 x25=0xfffffff9
       43955000	      4394	80001a64	61ef0a37	lui	x20,0x61ef0	 x20=0x61ef0000
       43965000	      4395	80001a68	019625b3	slt	x11,x12,x25	 x12:0x000007ca x25:0xfffffff9 x11=0x00000000
       43975000	      4396	80001a6c	001f0133	add	x2,x30,x1	 x30:0xc860d000  x1:0x00000013  x2=0xc860d013
       43985000	      4397	80001a70	fede70e3	bgeu	x28,x13,80001a50	 x28:0x00000005 x13:0x00000006
       43995000	      4398	80001a74	000c0d33	add	x26,x24,x0	 x24:0xfcdfe1c4  x0:0x00000000 x26=0xfcdfe1c4
       44005000	      4399	80001a78	05c7fd13	andi	x26,x15,92	 x15:0xf4b778d6 x26=0x00000054
       44015000	      4400	80001a7c	fd0b50e3	bge	x22,x16,80001a3c	 x22:0xfffffff6 x16:0xfffffff9
       44025000	      4401	80001a80	9e662997	auipc	x19,0x9e662	 x19=0x1e663a7c
       44035000	      4402	80001a84	00600393	addi	x7,x0,6	  x0:0x00000000  x7=0x00000006
       44045000	      4403	80001a88	01000d13	addi	x26,x0,16	  x0:0x00000000 x26=0x00000010
       44055000	      4404	80001a8c	13252c93	slti	x25,x10,306	 x10:0xf4b78000 x25=0x00000001
       44065000	      4405	80001a90	af61f893	andi	x17,x3,-1290	  x3:0x40005142 x17=0x40005042
       44075000	      4406	80001a94	012a9f13	slli	x30,x21,0x12	 x21:0x00000000 x30=0x00000000
       44085000	      4407	80001a98	009dc0b3	xor	x1,x27,x9	 x27:0x00000000  x9:0x00000001  x1=0x00000001
       44095000	      4408	80001a9c	a4858993	addi	x19,x11,-1464	 x11:0x00000000 x19=0xfffffa48
       44105000	      4409	80001aa0	0043bdb3	sltu	x27,x7,x4	  x7:0x00000006  x4:0x80009fc4 x27=0x00000001
       44115000	      4410	80001aa4	410bd5b3	sra	x11,x23,x16	 x23:0x03201ca8 x16:0xfffffff9 x11=0x00000001
       44125000	      4411	80001aa8	eec78c13	addi	x24,x15,-276	 x15:0xf4b778d6 x24=0xf4b777c2
       44135000	      4412	80001aac	00838393	addi	x7,x7,8	  x7:0x00000006  x7=0x0000000e
       44145000	      4413	80001ab0	007d0833	add	x16,x26,x7	 x26:0x00000010  x7:0x0000000e x16=0x0000001e
       44155000	      4414	80001ab4	4175d713	srai	x14,x11,0x17	 x11:0x00000001 x14=0x00000000
       44165000	      4415	80001ab8	afbcca13	xori	x20,x25,-1285	 x25:0x00000001 x20=0xfffffafa
       44175000	      4416	80001abc	00b319b3	sll	x19,x6,x11	  x6:0x0805a001 x11:0x00000001 x19=0x100b4002
       44185000	      4417	80001ac0	00000013	addi	x0,x0,0	  x0:0x00000000
       44195000	      4418	80001ac4	fff00613	addi	x12,x0,-1	  x0:0x00000000 x12=0xffffffff
       44205000	      4419	80001ac8	01000413	addi	x8,x0,16	  x0:0x00000000  x8=0x00000010
       44215000	      4420	80001acc	01dc1f13	slli	x30,x24,0x1d	 x24:0xf4b777c2 x30=0x40000000
       44225000	      4421	80001ad0	71c7eb13	ori	x22,x15,1820	 x15:0xf4b778d6 x22=0xf4b77fde
       44235000	      4422	80001ad4	01c90e33	add	x28,x18,x28	 x18:0x00000001 x28:0x00000005 x28=0x00000006
       44245000	      4423	80001ad8	40fa3813	sltiu	x16,x20,1039	 x20:0xfffffafa x16=0x00000000
       44255000	      4424	80001adc	00000013	addi	x0,x0,0	  x0:0x00000000
       44265000	      4425	80001ae0	00360613	addi	x12,x12,3	 x12:0xffffffff x12=0x00000002
       44275000	      4426	80001ae4	403bd333	sra	x6,x23,x3	 x23:0x03201ca8  x3:0x40005142  x6=0x00c8072a
       44285000	      4427	80001ae8	fe866ae3	bltu	x12,x8,80001adc	 x12:0x00000002  x8:0x00000010
       44295000	      4428	00000000	00000013	addi	x0,x0,0	  x0:0x00000000
       44305000	      4429	80001ad8	00000013	addi	x0,x0,0	  x0:0x00000000
       44315000	      4430	80001adc	00000013	addi	x0,x0,0	  x0:0x00000000
       44325000	      4431	80001ae0	00360613	addi	x12,x12,3	 x12:0x00000002 x12=0x00000005
       44335000	      4432	80001ae4	403bd333	sra	x6,x23,x3	 x23:0x03201ca8  x3:0x40005142  x6=0x00c8072a
       44345000	      4433	80001ae8	fe866ae3	bltu	x12,x8,80001adc	 x12:0x00000005  x8:0x00000010
       44355000	      4434	00000000	00000013	addi	x0,x0,0	  x0:0x00000000
       44365000	      4435	80001ad8	00000013	addi	x0,x0,0	  x0:0x00000000
       44375000	      4436	80001adc	00000013	addi	x0,x0,0	  x0:0x00000000
       44385000	      4437	80001ae0	00360613	addi	x12,x12,3	 x12:0x00000005 x12=0x00000008
       44395000	      4438	80001ae4	403bd333	sra	x6,x23,x3	 x23:0x03201ca8  x3:0x40005142  x6=0x00c8072a
       44405000	      4439	80001ae8	fe866ae3	bltu	x12,x8,80001adc	 x12:0x00000008  x8:0x00000010
       44415000	      4440	00000000	00000013	addi	x0,x0,0	  x0:0x00000000
       44425000	      4441	80001ad8	00000013	addi	x0,x0,0	  x0:0x00000000
       44435000	      4442	80001adc	00000013	addi	x0,x0,0	  x0:0x00000000
       44445000	      4443	80001ae0	00360613	addi	x12,x12,3	 x12:0x00000008 x12=0x0000000b
       44455000	      4444	80001ae4	403bd333	sra	x6,x23,x3	 x23:0x03201ca8  x3:0x40005142  x6=0x00c8072a
       44465000	      4445	80001ae8	fe866ae3	bltu	x12,x8,80001adc	 x12:0x0000000b  x8:0x00000010
       44475000	      4446	00000000	00000013	addi	x0,x0,0	  x0:0x00000000
       44485000	      4447	80001ad8	00000013	addi	x0,x0,0	  x0:0x00000000
       44495000	      4448	80001adc	00000013	addi	x0,x0,0	  x0:0x00000000
       44505000	      4449	80001ae0	00360613	addi	x12,x12,3	 x12:0x0000000b x12=0x0000000e
       44515000	      4450	80001ae4	403bd333	sra	x6,x23,x3	 x23:0x03201ca8  x3:0x40005142  x6=0x00c8072a
       44525000	      4451	80001ae8	fe866ae3	bltu	x12,x8,80001adc	 x12:0x0000000e  x8:0x00000010
       44535000	      4452	00000000	00000013	addi	x0,x0,0	  x0:0x00000000
       44545000	      4453	80001ad8	00000013	addi	x0,x0,0	  x0:0x00000000
       44555000	      4454	80001adc	00000013	addi	x0,x0,0	  x0:0x00000000
       44565000	      4455	80001ae0	00360613	addi	x12,x12,3	 x12:0x0000000e x12=0x00000011
       44575000	      4456	80001ae4	403bd333	sra	x6,x23,x3	 x23:0x03201ca8  x3:0x40005142  x6=0x00c8072a
       44585000	      4457	80001ae8	fe866ae3	bltu	x12,x8,80001adc	 x12:0x00000011  x8:0x00000010
       44595000	      4458	80001aec	01925f93	srli	x31,x4,0x19	  x4:0x80009fc4 x31=0x00000040
       44605000	      4459	80001af0	405eda13	srai	x20,x29,0x5	 x29:0x80009f60 x20=0xfc0004fb
       44615000	      4460	80001af4	0119ffb3	and	x31,x19,x17	 x19:0x100b4002 x17:0x40005042 x31=0x00004002
       44625000	      4461	80001af8	dc2ef593	andi	x11,x29,-574	 x29:0x80009f60 x11=0x80009d40
       44635000	      4462	80001afc	f9a3cae3	blt	x7,x26,80001a90	  x7:0x0000000e x26:0x00000010
       44645000	      4463	00000000	00000013	addi	x0,x0,0	  x0:0x00000000
       44655000	      4464	80001a8c	00000013	addi	x0,x0,0	  x0:0x00000000
       44665000	      4465	80001a90	af61f893	andi	x17,x3,-1290	  x3:0x40005142 x17=0x40005042
       44675000	      4466	80001a94	012a9f13	slli	x30,x21,0x12	 x21:0x00000000 x30=0x00000000
       44685000	      4467	80001a98	009dc0b3	xor	x1,x27,x9	 x27:0x00000001  x9:0x00000001  x1=0x00000000
       44695000	      4468	80001a9c	a4858993	addi	x19,x11,-1464	 x11:0x80009d40 x19=0x80009788
       44705000	      4469	80001aa0	0043bdb3	sltu	x27,x7,x4	  x7:0x0000000e  x4:0x80009fc4 x27=0x00000001
       44715000	      4470	80001aa4	410bd5b3	sra	x11,x23,x16	 x23:0x03201ca8 x16:0x00000000 x11=0x03201ca8
       44725000	      4471	80001aa8	eec78c13	addi	x24,x15,-276	 x15:0xf4b778d6 x24=0xf4b777c2
       44735000	      4472	80001aac	00838393	addi	x7,x7,8	  x7:0x0000000e  x7=0x00000016
       44745000	      4473	80001ab0	007d0833	add	x16,x26,x7	 x26:0x00000010  x7:0x00000016 x16=0x00000026
       44755000	      4474	80001ab4	4175d713	srai	x14,x11,0x17	 x11:0x03201ca8 x14=0x00000006
       44765000	      4475	80001ab8	afbcca13	xori	x20,x25,-1285	 x25:0x00000001 x20=0xfffffafa
       44775000	      4476	80001abc	00b319b3	sll	x19,x6,x11	  x6:0x00c8072a x11:0x03201ca8 x19=0xc8072a00
       44785000	      4477	80001ac0	00000013	addi	x0,x0,0	  x0:0x00000000
       44795000	      4478	80001ac4	fff00613	addi	x12,x0,-1	  x0:0x00000000 x12=0xffffffff
       44805000	      4479	80001ac8	01000413	addi	x8,x0,16	  x0:0x00000000  x8=0x00000010
       44815000	      4480	80001acc	01dc1f13	slli	x30,x24,0x1d	 x24:0xf4b777c2 x30=0x40000000
       44825000	      4481	80001ad0	71c7eb13	ori	x22,x15,1820	 x15:0xf4b778d6 x22=0xf4b77fde
       44835000	      4482	80001ad4	01c90e33	add	x28,x18,x28	 x18:0x00000001 x28:0x00000006 x28=0x00000007
       44845000	      4483	80001ad8	40fa3813	sltiu	x16,x20,1039	 x20:0xfffffafa x16=0x00000000
       44855000	      4484	80001adc	00000013	addi	x0,x0,0	  x0:0x00000000
       44865000	      4485	80001ae0	00360613	addi	x12,x12,3	 x12:0xffffffff x12=0x00000002
       44875000	      4486	80001ae4	403bd333	sra	x6,x23,x3	 x23:0x03201ca8  x3:0x40005142  x6=0x00c8072a
       44885000	      4487	80001ae8	fe866ae3	bltu	x12,x8,80001adc	 x12:0x00000002  x8:0x00000010
       44895000	      4488	00000000	00000013	addi	x0,x0,0	  x0:0x00000000
       44905000	      4489	80001ad8	00000013	addi	x0,x0,0	  x0:0x00000000
       44915000	      4490	80001adc	00000013	addi	x0,x0,0	  x0:0x00000000
       44925000	      4491	80001ae0	00360613	addi	x12,x12,3	 x12:0x00000002 x12=0x00000005
       44935000	      4492	80001ae4	403bd333	sra	x6,x23,x3	 x23:0x03201ca8  x3:0x40005142  x6=0x00c8072a
       44945000	      4493	80001ae8	fe866ae3	bltu	x12,x8,80001adc	 x12:0x00000005  x8:0x00000010
       44955000	      4494	00000000	00000013	addi	x0,x0,0	  x0:0x00000000
       44965000	      4495	80001ad8	00000013	addi	x0,x0,0	  x0:0x00000000
       44975000	      4496	80001adc	00000013	addi	x0,x0,0	  x0:0x00000000
       44985000	      4497	80001ae0	00360613	addi	x12,x12,3	 x12:0x00000005 x12=0x00000008
       44995000	      4498	80001ae4	403bd333	sra	x6,x23,x3	 x23:0x03201ca8  x3:0x40005142  x6=0x00c8072a
       45005000	      4499	80001ae8	fe866ae3	bltu	x12,x8,80001adc	 x12:0x00000008  x8:0x00000010
       45015000	      4500	00000000	00000013	addi	x0,x0,0	  x0:0x00000000
       45025000	      4501	80001ad8	00000013	addi	x0,x0,0	  x0:0x00000000
       45035000	      4502	80001adc	00000013	addi	x0,x0,0	  x0:0x00000000
       45045000	      4503	80001ae0	00360613	addi	x12,x12,3	 x12:0x00000008 x12=0x0000000b
       45055000	      4504	80001ae4	403bd333	sra	x6,x23,x3	 x23:0x03201ca8  x3:0x40005142  x6=0x00c8072a
       45065000	      4505	80001ae8	fe866ae3	bltu	x12,x8,80001adc	 x12:0x0000000b  x8:0x00000010
       45075000	      4506	00000000	00000013	addi	x0,x0,0	  x0:0x00000000
       45085000	      4507	80001ad8	00000013	addi	x0,x0,0	  x0:0x00000000
       45095000	      4508	80001adc	00000013	addi	x0,x0,0	  x0:0x00000000
       45105000	      4509	80001ae0	00360613	addi	x12,x12,3	 x12:0x0000000b x12=0x0000000e
       45115000	      4510	80001ae4	403bd333	sra	x6,x23,x3	 x23:0x03201ca8  x3:0x40005142  x6=0x00c8072a
       45125000	      4511	80001ae8	fe866ae3	bltu	x12,x8,80001adc	 x12:0x0000000e  x8:0x00000010
       45135000	      4512	00000000	00000013	addi	x0,x0,0	  x0:0x00000000
       45145000	      4513	80001ad8	00000013	addi	x0,x0,0	  x0:0x00000000
       45155000	      4514	80001adc	00000013	addi	x0,x0,0	  x0:0x00000000
       45165000	      4515	80001ae0	00360613	addi	x12,x12,3	 x12:0x0000000e x12=0x00000011
       45175000	      4516	80001ae4	403bd333	sra	x6,x23,x3	 x23:0x03201ca8  x3:0x40005142  x6=0x00c8072a
       45185000	      4517	80001ae8	fe866ae3	bltu	x12,x8,80001adc	 x12:0x00000011  x8:0x00000010
       45195000	      4518	80001aec	01925f93	srli	x31,x4,0x19	  x4:0x80009fc4 x31=0x00000040
       45205000	      4519	80001af0	405eda13	srai	x20,x29,0x5	 x29:0x80009f60 x20=0xfc0004fb
       45215000	      4520	80001af4	0119ffb3	and	x31,x19,x17	 x19:0xc8072a00 x17:0x40005042 x31=0x40000000
       45225000	      4521	80001af8	dc2ef593	andi	x11,x29,-574	 x29:0x80009f60 x11=0x80009d40
       45235000	      4522	80001afc	f9a3cae3	blt	x7,x26,80001a90	  x7:0x00000016 x26:0x00000010
       45245000	      4523	80001b00	01295e13	srli	x28,x18,0x12	 x18:0x00000001 x28=0x00000000
       45255000	      4524	80001b04	ff600b93	addi	x23,x0,-10	  x0:0x00000000 x23=0xfffffff6
       45265000	      4525	80001b08	01608433	add	x8,x1,x22	  x1:0x00000000 x22:0xf4b77fde  x8=0xf4b77fde
       45275000	      4526	80001b0c	89036097	auipc	x1,0x89036	  x1=0x09037b08
       45285000	      4527	80001b10	012dc433	xor	x8,x27,x18	 x27:0x00000001 x18:0x00000001  x8=0x00000000
       45295000	      4528	80001b14	14423793	sltiu	x15,x4,324	  x4:0x80009fc4 x15=0x00000000
       45305000	      4529	80001b18	fed00113	addi	x2,x0,-19	  x0:0x00000000  x2=0xffffffed
       45315000	      4530	80001b1c	05da6393	ori	x7,x20,93	 x20:0xfc0004fb  x7=0xfc0004ff
       45325000	      4531	80001b20	019cbd33	sltu	x26,x25,x25	 x25:0x00000001 x25:0x00000001 x26=0x00000000
       45335000	      4532	80001b24	016c6033	or	x0,x24,x22	 x24:0xf4b777c2 x22:0xf4b77fde
       45345000	      4533	80001b28	be14ba93	sltiu	x21,x9,-1055	  x9:0x00000001 x21=0x00000001
       45355000	      4534	80001b2c	40c15093	srai	x1,x2,0xc	  x2:0xffffffed  x1=0xffffffff
       45365000	      4535	80001b30	0007dc33	srl	x24,x15,x0	 x15:0x00000000  x0:0x00000000 x24=0x00000000
       45375000	      4536	80001b34	006b9433	sll	x8,x23,x6	 x23:0xfffffff6  x6:0x00c8072a  x8=0xffffd800
       45385000	      4537	80001b38	c9c0c413	xori	x8,x1,-868	  x1:0xffffffff  x8=0x00000363
       45395000	      4538	80001b3c	01398833	add	x16,x19,x19	 x19:0xc8072a00 x19:0xc8072a00 x16=0x900e5400
       45405000	      4539	80001b40	075309b7	lui	x19,0x7530	 x19=0x07530000
       45415000	      4540	80001b44	005d5033	srl	x0,x26,x5	 x26:0x00000000  x5:0x00000276
       45425000	      4541	80001b48	ffdb8b93	addi	x23,x23,-3	 x23:0xfffffff6 x23=0xfffffff3
       45435000	      4542	80001b4c	a161a893	slti	x17,x3,-1514	  x3:0x40005142 x17=0x00000000
       45445000	      4543	80001b50	01f73733	sltu	x14,x14,x31	 x14:0x00000006 x31:0x40000000 x14=0x00000001
       45455000	      4544	80001b54	40a95533	sra	x10,x18,x10	 x18:0x00000001 x10:0xf4b78000 x10=0x00000001
       45465000	      4545	80001b58	0138f733	and	x14,x17,x19	 x17:0x00000000 x19:0x07530000 x14=0x00000000
       45475000	      4546	80001b5c	93b13a13	sltiu	x20,x2,-1733	  x2:0xffffffed x20=0x00000000
       45485000	      4547	80001b60	01cadc33	srl	x24,x21,x28	 x21:0x00000001 x28:0x00000000 x24=0x00000001
       45495000	      4548	80001b64	01b8cb33	xor	x22,x17,x27	 x17:0x00000000 x27:0x00000001 x22=0x00000001
       45505000	      4549	80001b68	fc2bdae3	bge	x23,x2,80001b3c	 x23:0xfffffff3  x2:0xffffffed
       45515000	      4550	00000000	00000013	addi	x0,x0,0	  x0:0x00000000
       45525000	      4551	80001b38	00000013	addi	x0,x0,0	  x0:0x00000000
       45535000	      4552	80001b3c	01398833	add	x16,x19,x19	 x19:0x07530000 x19:0x07530000 x16=0x0ea60000
       45545000	      4553	80001b40	075309b7	lui	x19,0x7530	 x19=0x07530000
       45555000	      4554	80001b44	005d5033	srl	x0,x26,x5	 x26:0x00000000  x5:0x00000276
       45565000	      4555	80001b48	ffdb8b93	addi	x23,x23,-3	 x23:0xfffffff3 x23=0xfffffff0
       45575000	      4556	80001b4c	a161a893	slti	x17,x3,-1514	  x3:0x40005142 x17=0x00000000
       45585000	      4557	80001b50	01f73733	sltu	x14,x14,x31	 x14:0x00000000 x31:0x40000000 x14=0x00000001
       45595000	      4558	80001b54	40a95533	sra	x10,x18,x10	 x18:0x00000001 x10:0x00000001 x10=0x00000000
       45605000	      4559	80001b58	0138f733	and	x14,x17,x19	 x17:0x00000000 x19:0x07530000 x14=0x00000000
       45615000	      4560	80001b5c	93b13a13	sltiu	x20,x2,-1733	  x2:0xffffffed x20=0x00000000
       45625000	      4561	80001b60	01cadc33	srl	x24,x21,x28	 x21:0x00000001 x28:0x00000000 x24=0x00000001
       45635000	      4562	80001b64	01b8cb33	xor	x22,x17,x27	 x17:0x00000000 x27:0x00000001 x22=0x00000001
       45645000	      4563	80001b68	fc2bdae3	bge	x23,x2,80001b3c	 x23:0xfffffff0  x2:0xffffffed
       45655000	      4564	00000000	00000013	addi	x0,x0,0	  x0:0x00000000
       45665000	      4565	80001b38	00000013	addi	x0,x0,0	  x0:0x00000000
       45675000	      4566	80001b3c	01398833	add	x16,x19,x19	 x19:0x07530000 x19:0x07530000 x16=0x0ea60000
       45685000	      4567	80001b40	075309b7	lui	x19,0x7530	 x19=0x07530000
       45695000	      4568	80001b44	005d5033	srl	x0,x26,x5	 x26:0x00000000  x5:0x00000276
       45705000	      4569	80001b48	ffdb8b93	addi	x23,x23,-3	 x23:0xfffffff0 x23=0xffffffed
       45715000	      4570	80001b4c	a161a893	slti	x17,x3,-1514	  x3:0x40005142 x17=0x00000000
       45725000	      4571	80001b50	01f73733	sltu	x14,x14,x31	 x14:0x00000000 x31:0x40000000 x14=0x00000001
       45735000	      4572	80001b54	40a95533	sra	x10,x18,x10	 x18:0x00000001 x10:0x00000000 x10=0x00000001
       45745000	      4573	80001b58	0138f733	and	x14,x17,x19	 x17:0x00000000 x19:0x07530000 x14=0x00000000
       45755000	      4574	80001b5c	93b13a13	sltiu	x20,x2,-1733	  x2:0xffffffed x20=0x00000000
       45765000	      4575	80001b60	01cadc33	srl	x24,x21,x28	 x21:0x00000001 x28:0x00000000 x24=0x00000001
       45775000	      4576	80001b64	01b8cb33	xor	x22,x17,x27	 x17:0x00000000 x27:0x00000001 x22=0x00000001
       45785000	      4577	80001b68	fc2bdae3	bge	x23,x2,80001b3c	 x23:0xffffffed  x2:0xffffffed
       45795000	      4578	00000000	00000013	addi	x0,x0,0	  x0:0x00000000
       45805000	      4579	80001b38	00000013	addi	x0,x0,0	  x0:0x00000000
       45815000	      4580	80001b3c	01398833	add	x16,x19,x19	 x19:0x07530000 x19:0x07530000 x16=0x0ea60000
       45825000	      4581	80001b40	075309b7	lui	x19,0x7530	 x19=0x07530000
       45835000	      4582	80001b44	005d5033	srl	x0,x26,x5	 x26:0x00000000  x5:0x00000276
       45845000	      4583	80001b48	ffdb8b93	addi	x23,x23,-3	 x23:0xffffffed x23=0xffffffea
       45855000	      4584	80001b4c	a161a893	slti	x17,x3,-1514	  x3:0x40005142 x17=0x00000000
       45865000	      4585	80001b50	01f73733	sltu	x14,x14,x31	 x14:0x00000000 x31:0x40000000 x14=0x00000001
       45875000	      4586	80001b54	40a95533	sra	x10,x18,x10	 x18:0x00000001 x10:0x00000001 x10=0x00000000
       45885000	      4587	80001b58	0138f733	and	x14,x17,x19	 x17:0x00000000 x19:0x07530000 x14=0x00000000
       45895000	      4588	80001b5c	93b13a13	sltiu	x20,x2,-1733	  x2:0xffffffed x20=0x00000000
       45905000	      4589	80001b60	01cadc33	srl	x24,x21,x28	 x21:0x00000001 x28:0x00000000 x24=0x00000001
       45915000	      4590	80001b64	01b8cb33	xor	x22,x17,x27	 x17:0x00000000 x27:0x00000001 x22=0x00000001
       45925000	      4591	80001b68	fc2bdae3	bge	x23,x2,80001b3c	 x23:0xffffffea  x2:0xffffffed
       45935000	      4592	80001b6c	018ed993	srli	x19,x29,0x18	 x29:0x80009f60 x19=0x00000080
       45945000	      4593	80001b70	00900813	addi	x16,x0,9	  x0:0x00000000 x16=0x00000009
       45955000	      4594	80001b74	00045313	srli	x6,x8,0x0	  x8:0x00000363  x6=0x00000363
       45965000	      4595	80001b78	01200b93	addi	x23,x0,18	  x0:0x00000000 x23=0x00000012
       45975000	      4596	80001b7c	01eb1013	slli	x0,x22,0x1e	 x22:0x00000001
       45985000	      4597	80001b80	551ecc97	auipc	x25,0x551ec	 x25=0xd51edb7c
       45995000	      4598	80001b84	00380813	addi	x16,x16,3	 x16:0x00000009 x16=0x0000000c
       46005000	      4599	80001b88	00a00713	addi	x14,x0,10	  x0:0x00000000 x14=0x0000000a
       46015000	      4600	80001b8c	07ad3793	sltiu	x15,x26,122	 x26:0x00000000 x15=0x00000001
       46025000	      4601	80001b90	00600a13	addi	x20,x0,6	  x0:0x00000000 x20=0x00000006
       46035000	      4602	80001b94	00000013	addi	x0,x0,0	  x0:0x00000000
       46045000	      4603	80001b98	2bd2f193	andi	x3,x5,701	  x5:0x00000276  x3=0x00000234
       46055000	      4604	80001b9c	051d8293	addi	x5,x27,81	 x27:0x00000001  x5=0x00000052
       46065000	      4605	80001ba0	fff70713	addi	x14,x14,-1	 x14:0x0000000a x14=0x00000009
       46075000	      4606	80001ba4	01102633	slt	x12,x0,x17	  x0:0x00000000 x17:0x00000000 x12=0x00000000
       46085000	      4607	80001ba8	ff4776e3	bgeu	x14,x20,80001b94	 x14:0x00000009 x20:0x00000006
       46095000	      4608	00000000	00000013	addi	x0,x0,0	  x0:0x00000000
       46105000	      4609	80001b90	00000013	addi	x0,x0,0	  x0:0x00000000
       46115000	      4610	80001b94	00000013	addi	x0,x0,0	  x0:0x00000000
       46125000	      4611	80001b98	2bd2f193	andi	x3,x5,701	  x5:0x00000052  x3=0x00000010
       46135000	      4612	80001b9c	051d8293	addi	x5,x27,81	 x27:0x00000001  x5=0x00000052
       46145000	      4613	80001ba0	fff70713	addi	x14,x14,-1	 x14:0x00000009 x14=0x00000008
       46155000	      4614	80001ba4	01102633	slt	x12,x0,x17	  x0:0x00000000 x17:0x00000000 x12=0x00000000
       46165000	      4615	80001ba8	ff4776e3	bgeu	x14,x20,80001b94	 x14:0x00000008 x20:0x00000006
       46175000	      4616	00000000	00000013	addi	x0,x0,0	  x0:0x00000000
       46185000	      4617	80001b90	00000013	addi	x0,x0,0	  x0:0x00000000
       46195000	      4618	80001b94	00000013	addi	x0,x0,0	  x0:0x00000000
       46205000	      4619	80001b98	2bd2f193	andi	x3,x5,701	  x5:0x00000052  x3=0x00000010
       46215000	      4620	80001b9c	051d8293	addi	x5,x27,81	 x27:0x00000001  x5=0x00000052
       46225000	      4621	80001ba0	fff70713	addi	x14,x14,-1	 x14:0x00000008 x14=0x00000007
       46235000	      4622	80001ba4	01102633	slt	x12,x0,x17	  x0:0x00000000 x17:0x00000000 x12=0x00000000
       46245000	      4623	80001ba8	ff4776e3	bgeu	x14,x20,80001b94	 x14:0x00000007 x20:0x00000006
       46255000	      4624	00000000	00000013	addi	x0,x0,0	  x0:0x00000000
       46265000	      4625	80001b90	00000013	addi	x0,x0,0	  x0:0x00000000
       46275000	      4626	80001b94	00000013	addi	x0,x0,0	  x0:0x00000000
       46285000	      4627	80001b98	2bd2f193	andi	x3,x5,701	  x5:0x00000052  x3=0x00000010
       46295000	      4628	80001b9c	051d8293	addi	x5,x27,81	 x27:0x00000001  x5=0x00000052
       46305000	      4629	80001ba0	fff70713	addi	x14,x14,-1	 x14:0x00000007 x14=0x00000006
       46315000	      4630	80001ba4	01102633	slt	x12,x0,x17	  x0:0x00000000 x17:0x00000000 x12=0x00000000
       46325000	      4631	80001ba8	ff4776e3	bgeu	x14,x20,80001b94	 x14:0x00000006 x20:0x00000006
       46335000	      4632	00000000	00000013	addi	x0,x0,0	  x0:0x00000000
       46345000	      4633	80001b90	00000013	addi	x0,x0,0	  x0:0x00000000
       46355000	      4634	80001b94	00000013	addi	x0,x0,0	  x0:0x00000000
       46365000	      4635	80001b98	2bd2f193	andi	x3,x5,701	  x5:0x00000052  x3=0x00000010
       46375000	      4636	80001b9c	051d8293	addi	x5,x27,81	 x27:0x00000001  x5=0x00000052
       46385000	      4637	80001ba0	fff70713	addi	x14,x14,-1	 x14:0x00000006 x14=0x00000005
       46395000	      4638	80001ba4	01102633	slt	x12,x0,x17	  x0:0x00000000 x17:0x00000000 x12=0x00000000
       46405000	      4639	80001ba8	ff4776e3	bgeu	x14,x20,80001b94	 x14:0x00000005 x20:0x00000006
       46415000	      4640	80001bac	403303b3	sub	x7,x6,x3	  x6:0x00000363  x3:0x00000010  x7=0x00000353
       46425000	      4641	80001bb0	00644c33	xor	x24,x8,x6	  x8:0x00000363  x6:0x00000363 x24=0x00000000
       46435000	      4642	80001bb4	f6d08c13	addi	x24,x1,-147	  x1:0xffffffff x24=0xffffff6c
       46445000	      4643	80001bb8	6c4f4913	xori	x18,x30,1732	 x30:0x40000000 x18=0x400006c4
       46455000	      4644	80001bbc	fd7842e3	blt	x16,x23,80001b80	 x16:0x0000000c x23:0x00000012
       46465000	      4645	00000000	00000013	addi	x0,x0,0	  x0:0x00000000
       46475000	      4646	80001b7c	00000013	addi	x0,x0,0	  x0:0x00000000
       46485000	      4647	80001b80	551ecc97	auipc	x25,0x551ec	 x25=0xd51edb7c
       46495000	      4648	80001b84	00380813	addi	x16,x16,3	 x16:0x0000000c x16=0x0000000f
       46505000	      4649	80001b88	00a00713	addi	x14,x0,10	  x0:0x00000000 x14=0x0000000a
       46515000	      4650	80001b8c	07ad3793	sltiu	x15,x26,122	 x26:0x00000000 x15=0x00000001
       46525000	      4651	80001b90	00600a13	addi	x20,x0,6	  x0:0x00000000 x20=0x00000006
       46535000	      4652	80001b94	00000013	addi	x0,x0,0	  x0:0x00000000
       46545000	      4653	80001b98	2bd2f193	andi	x3,x5,701	  x5:0x00000052  x3=0x00000010
       46555000	      4654	80001b9c	051d8293	addi	x5,x27,81	 x27:0x00000001  x5=0x00000052
       46565000	      4655	80001ba0	fff70713	addi	x14,x14,-1	 x14:0x0000000a x14=0x00000009
       46575000	      4656	80001ba4	01102633	slt	x12,x0,x17	  x0:0x00000000 x17:0x00000000 x12=0x00000000
       46585000	      4657	80001ba8	ff4776e3	bgeu	x14,x20,80001b94	 x14:0x00000009 x20:0x00000006
       46595000	      4658	00000000	00000013	addi	x0,x0,0	  x0:0x00000000
       46605000	      4659	80001b90	00000013	addi	x0,x0,0	  x0:0x00000000
       46615000	      4660	80001b94	00000013	addi	x0,x0,0	  x0:0x00000000
       46625000	      4661	80001b98	2bd2f193	andi	x3,x5,701	  x5:0x00000052  x3=0x00000010
       46635000	      4662	80001b9c	051d8293	addi	x5,x27,81	 x27:0x00000001  x5=0x00000052
       46645000	      4663	80001ba0	fff70713	addi	x14,x14,-1	 x14:0x00000009 x14=0x00000008
       46655000	      4664	80001ba4	01102633	slt	x12,x0,x17	  x0:0x00000000 x17:0x00000000 x12=0x00000000
       46665000	      4665	80001ba8	ff4776e3	bgeu	x14,x20,80001b94	 x14:0x00000008 x20:0x00000006
       46675000	      4666	00000000	00000013	addi	x0,x0,0	  x0:0x00000000
       46685000	      4667	80001b90	00000013	addi	x0,x0,0	  x0:0x00000000
       46695000	      4668	80001b94	00000013	addi	x0,x0,0	  x0:0x00000000
       46705000	      4669	80001b98	2bd2f193	andi	x3,x5,701	  x5:0x00000052  x3=0x00000010
       46715000	      4670	80001b9c	051d8293	addi	x5,x27,81	 x27:0x00000001  x5=0x00000052
       46725000	      4671	80001ba0	fff70713	addi	x14,x14,-1	 x14:0x00000008 x14=0x00000007
       46735000	      4672	80001ba4	01102633	slt	x12,x0,x17	  x0:0x00000000 x17:0x00000000 x12=0x00000000
       46745000	      4673	80001ba8	ff4776e3	bgeu	x14,x20,80001b94	 x14:0x00000007 x20:0x00000006
       46755000	      4674	00000000	00000013	addi	x0,x0,0	  x0:0x00000000
       46765000	      4675	80001b90	00000013	addi	x0,x0,0	  x0:0x00000000
       46775000	      4676	80001b94	00000013	addi	x0,x0,0	  x0:0x00000000
       46785000	      4677	80001b98	2bd2f193	andi	x3,x5,701	  x5:0x00000052  x3=0x00000010
       46795000	      4678	80001b9c	051d8293	addi	x5,x27,81	 x27:0x00000001  x5=0x00000052
       46805000	      4679	80001ba0	fff70713	addi	x14,x14,-1	 x14:0x00000007 x14=0x00000006
       46815000	      4680	80001ba4	01102633	slt	x12,x0,x17	  x0:0x00000000 x17:0x00000000 x12=0x00000000
       46825000	      4681	80001ba8	ff4776e3	bgeu	x14,x20,80001b94	 x14:0x00000006 x20:0x00000006
       46835000	      4682	00000000	00000013	addi	x0,x0,0	  x0:0x00000000
       46845000	      4683	80001b90	00000013	addi	x0,x0,0	  x0:0x00000000
       46855000	      4684	80001b94	00000013	addi	x0,x0,0	  x0:0x00000000
       46865000	      4685	80001b98	2bd2f193	andi	x3,x5,701	  x5:0x00000052  x3=0x00000010
       46875000	      4686	80001b9c	051d8293	addi	x5,x27,81	 x27:0x00000001  x5=0x00000052
       46885000	      4687	80001ba0	fff70713	addi	x14,x14,-1	 x14:0x00000006 x14=0x00000005
       46895000	      4688	80001ba4	01102633	slt	x12,x0,x17	  x0:0x00000000 x17:0x00000000 x12=0x00000000
       46905000	      4689	80001ba8	ff4776e3	bgeu	x14,x20,80001b94	 x14:0x00000005 x20:0x00000006
       46915000	      4690	80001bac	403303b3	sub	x7,x6,x3	  x6:0x00000363  x3:0x00000010  x7=0x00000353
       46925000	      4691	80001bb0	00644c33	xor	x24,x8,x6	  x8:0x00000363  x6:0x00000363 x24=0x00000000
       46935000	      4692	80001bb4	f6d08c13	addi	x24,x1,-147	  x1:0xffffffff x24=0xffffff6c
       46945000	      4693	80001bb8	6c4f4913	xori	x18,x30,1732	 x30:0x40000000 x18=0x400006c4
       46955000	      4694	80001bbc	fd7842e3	blt	x16,x23,80001b80	 x16:0x0000000f x23:0x00000012
       46965000	      4695	00000000	00000013	addi	x0,x0,0	  x0:0x00000000
       46975000	      4696	80001b7c	00000013	addi	x0,x0,0	  x0:0x00000000
       46985000	      4697	80001b80	551ecc97	auipc	x25,0x551ec	 x25=0xd51edb7c
       46995000	      4698	80001b84	00380813	addi	x16,x16,3	 x16:0x0000000f x16=0x00000012
       47005000	      4699	80001b88	00a00713	addi	x14,x0,10	  x0:0x00000000 x14=0x0000000a
       47015000	      4700	80001b8c	07ad3793	sltiu	x15,x26,122	 x26:0x00000000 x15=0x00000001
       47025000	      4701	80001b90	00600a13	addi	x20,x0,6	  x0:0x00000000 x20=0x00000006
       47035000	      4702	80001b94	00000013	addi	x0,x0,0	  x0:0x00000000
       47045000	      4703	80001b98	2bd2f193	andi	x3,x5,701	  x5:0x00000052  x3=0x00000010
       47055000	      4704	80001b9c	051d8293	addi	x5,x27,81	 x27:0x00000001  x5=0x00000052
       47065000	      4705	80001ba0	fff70713	addi	x14,x14,-1	 x14:0x0000000a x14=0x00000009
       47075000	      4706	80001ba4	01102633	slt	x12,x0,x17	  x0:0x00000000 x17:0x00000000 x12=0x00000000
       47085000	      4707	80001ba8	ff4776e3	bgeu	x14,x20,80001b94	 x14:0x00000009 x20:0x00000006
       47095000	      4708	00000000	00000013	addi	x0,x0,0	  x0:0x00000000
       47105000	      4709	80001b90	00000013	addi	x0,x0,0	  x0:0x00000000
       47115000	      4710	80001b94	00000013	addi	x0,x0,0	  x0:0x00000000
       47125000	      4711	80001b98	2bd2f193	andi	x3,x5,701	  x5:0x00000052  x3=0x00000010
       47135000	      4712	80001b9c	051d8293	addi	x5,x27,81	 x27:0x00000001  x5=0x00000052
       47145000	      4713	80001ba0	fff70713	addi	x14,x14,-1	 x14:0x00000009 x14=0x00000008
       47155000	      4714	80001ba4	01102633	slt	x12,x0,x17	  x0:0x00000000 x17:0x00000000 x12=0x00000000
       47165000	      4715	80001ba8	ff4776e3	bgeu	x14,x20,80001b94	 x14:0x00000008 x20:0x00000006
       47175000	      4716	00000000	00000013	addi	x0,x0,0	  x0:0x00000000
       47185000	      4717	80001b90	00000013	addi	x0,x0,0	  x0:0x00000000
       47195000	      4718	80001b94	00000013	addi	x0,x0,0	  x0:0x00000000
       47205000	      4719	80001b98	2bd2f193	andi	x3,x5,701	  x5:0x00000052  x3=0x00000010
       47215000	      4720	80001b9c	051d8293	addi	x5,x27,81	 x27:0x00000001  x5=0x00000052
       47225000	      4721	80001ba0	fff70713	addi	x14,x14,-1	 x14:0x00000008 x14=0x00000007
       47235000	      4722	80001ba4	01102633	slt	x12,x0,x17	  x0:0x00000000 x17:0x00000000 x12=0x00000000
       47245000	      4723	80001ba8	ff4776e3	bgeu	x14,x20,80001b94	 x14:0x00000007 x20:0x00000006
       47255000	      4724	00000000	00000013	addi	x0,x0,0	  x0:0x00000000
       47265000	      4725	80001b90	00000013	addi	x0,x0,0	  x0:0x00000000
       47275000	      4726	80001b94	00000013	addi	x0,x0,0	  x0:0x00000000
       47285000	      4727	80001b98	2bd2f193	andi	x3,x5,701	  x5:0x00000052  x3=0x00000010
       47295000	      4728	80001b9c	051d8293	addi	x5,x27,81	 x27:0x00000001  x5=0x00000052
       47305000	      4729	80001ba0	fff70713	addi	x14,x14,-1	 x14:0x00000007 x14=0x00000006
       47315000	      4730	80001ba4	01102633	slt	x12,x0,x17	  x0:0x00000000 x17:0x00000000 x12=0x00000000
       47325000	      4731	80001ba8	ff4776e3	bgeu	x14,x20,80001b94	 x14:0x00000006 x20:0x00000006
       47335000	      4732	00000000	00000013	addi	x0,x0,0	  x0:0x00000000
       47345000	      4733	80001b90	00000013	addi	x0,x0,0	  x0:0x00000000
       47355000	      4734	80001b94	00000013	addi	x0,x0,0	  x0:0x00000000
       47365000	      4735	80001b98	2bd2f193	andi	x3,x5,701	  x5:0x00000052  x3=0x00000010
       47375000	      4736	80001b9c	051d8293	addi	x5,x27,81	 x27:0x00000001  x5=0x00000052
       47385000	      4737	80001ba0	fff70713	addi	x14,x14,-1	 x14:0x00000006 x14=0x00000005
       47395000	      4738	80001ba4	01102633	slt	x12,x0,x17	  x0:0x00000000 x17:0x00000000 x12=0x00000000
       47405000	      4739	80001ba8	ff4776e3	bgeu	x14,x20,80001b94	 x14:0x00000005 x20:0x00000006
       47415000	      4740	80001bac	403303b3	sub	x7,x6,x3	  x6:0x00000363  x3:0x00000010  x7=0x00000353
       47425000	      4741	80001bb0	00644c33	xor	x24,x8,x6	  x8:0x00000363  x6:0x00000363 x24=0x00000000
       47435000	      4742	80001bb4	f6d08c13	addi	x24,x1,-147	  x1:0xffffffff x24=0xffffff6c
       47445000	      4743	80001bb8	6c4f4913	xori	x18,x30,1732	 x30:0x40000000 x18=0x400006c4
       47455000	      4744	80001bbc	fd7842e3	blt	x16,x23,80001b80	 x16:0x00000012 x23:0x00000012
       47465000	      4745	80001bc0	002a1033	sll	x0,x20,x2	 x20:0x00000006  x2:0xffffffed
       47475000	      4746	80001bc4	00800f13	addi	x30,x0,8	  x0:0x00000000 x30=0x00000008
       47485000	      4747	80001bc8	780e0413	addi	x8,x28,1920	 x28:0x00000000  x8=0x00000780
       47495000	      4748	80001bcc	fec00093	addi	x1,x0,-20	  x0:0x00000000  x1=0xffffffec
       47505000	      4749	80001bd0	018c9fb3	sll	x31,x25,x24	 x25:0xd51edb7c x24:0xffffff6c x31=0xedb7c000
       47515000	      4750	80001bd4	1c98e813	ori	x16,x17,457	 x17:0x00000000 x16=0x000001c9
       47525000	      4751	80001bd8	011edc93	srli	x25,x29,0x11	 x29:0x80009f60 x25=0x00004000
       47535000	      4752	80001bdc	e1af6713	ori	x14,x30,-486	 x30:0x00000008 x14=0xfffffe1a
       47545000	      4753	80001be0	008cf133	and	x2,x25,x8	 x25:0x00004000  x8:0x00000780  x2=0x00000000
       47555000	      4754	80001be4	ff7f0f13	addi	x30,x30,-9	 x30:0x00000008 x30=0xffffffff
       47565000	      4755	80001be8	01da96b3	sll	x13,x21,x29	 x21:0x00000001 x29:0x80009f60 x13=0x00000001
       47575000	      4756	80001bec	01f1e333	or	x6,x3,x31	  x3:0x00000010 x31:0xedb7c000  x6=0xedb7c010
       47585000	      4757	80001bf0	01f1efb3	or	x31,x3,x31	  x3:0x00000010 x31:0xedb7c000 x31=0xedb7c010
       47595000	      4758	80001bf4	ffd00d93	addi	x27,x0,-3	  x0:0x00000000 x27=0xfffffffd
       47605000	      4759	80001bf8	b6c2e117	auipc	x2,0xb6c2e	  x2=0x36c2fbf4
       47615000	      4760	80001bfc	00000013	addi	x0,x0,0	  x0:0x00000000
       47625000	      4761	80001c00	ff700a13	addi	x20,x0,-9	  x0:0x00000000 x20=0xfffffff7
       47635000	      4762	80001c04	41a55b93	srai	x23,x10,0x1a	 x10:0x00000000 x23=0x00000000
       47645000	      4763	80001c08	00b0a5b3	slt	x11,x1,x11	  x1:0xffffffec x11:0x80009d40 x11=0x00000000
       47655000	      4764	80001c0c	00537c33	and	x24,x6,x5	  x6:0xedb7c010  x5:0x00000052 x24=0x00000010
       47665000	      4765	80001c10	ffad8d93	addi	x27,x27,-6	 x27:0xfffffffd x27=0xfffffff7
       47675000	      4766	80001c14	004577b3	and	x15,x10,x4	 x10:0x00000000  x4:0x80009fc4 x15=0x00000000
       47685000	      4767	80001c18	014e7833	and	x16,x28,x20	 x28:0x00000000 x20:0xfffffff7 x16=0x00000000
       47695000	      4768	80001c1c	35bd5d37	lui	x26,0x35bd5	 x26=0x35bd5000
       47705000	      4769	80001c20	ff4d94e3	bne	x27,x20,80001c08	 x27:0xfffffff7 x20:0xfffffff7
       47715000	      4770	80001c24	003a6833	or	x16,x20,x3	 x20:0xfffffff7  x3:0x00000010 x16=0xfffffff7
       47725000	      4771	80001c28	fa1f56e3	bge	x30,x1,80001bd4	 x30:0xffffffff  x1:0xffffffec
       47735000	      4772	00000000	00000013	addi	x0,x0,0	  x0:0x00000000
       47745000	      4773	80001bd0	00000013	addi	x0,x0,0	  x0:0x00000000
       47755000	      4774	80001bd4	1c98e813	ori	x16,x17,457	 x17:0x00000000 x16=0x000001c9
       47765000	      4775	80001bd8	011edc93	srli	x25,x29,0x11	 x29:0x80009f60 x25=0x00004000
       47775000	      4776	80001bdc	e1af6713	ori	x14,x30,-486	 x30:0xffffffff x14=0xffffffff
       47785000	      4777	80001be0	008cf133	and	x2,x25,x8	 x25:0x00004000  x8:0x00000780  x2=0x00000000
       47795000	      4778	80001be4	ff7f0f13	addi	x30,x30,-9	 x30:0xffffffff x30=0xfffffff6
       47805000	      4779	80001be8	01da96b3	sll	x13,x21,x29	 x21:0x00000001 x29:0x80009f60 x13=0x00000001
       47815000	      4780	80001bec	01f1e333	or	x6,x3,x31	  x3:0x00000010 x31:0xedb7c010  x6=0xedb7c010
       47825000	      4781	80001bf0	01f1efb3	or	x31,x3,x31	  x3:0x00000010 x31:0xedb7c010 x31=0xedb7c010
       47835000	      4782	80001bf4	ffd00d93	addi	x27,x0,-3	  x0:0x00000000 x27=0xfffffffd
       47845000	      4783	80001bf8	b6c2e117	auipc	x2,0xb6c2e	  x2=0x36c2fbf4
       47855000	      4784	80001bfc	00000013	addi	x0,x0,0	  x0:0x00000000
       47865000	      4785	80001c00	ff700a13	addi	x20,x0,-9	  x0:0x00000000 x20=0xfffffff7
       47875000	      4786	80001c04	41a55b93	srai	x23,x10,0x1a	 x10:0x00000000 x23=0x00000000
       47885000	      4787	80001c08	00b0a5b3	slt	x11,x1,x11	  x1:0xffffffec x11:0x00000000 x11=0x00000001
       47895000	      4788	80001c0c	00537c33	and	x24,x6,x5	  x6:0xedb7c010  x5:0x00000052 x24=0x00000010
       47905000	      4789	80001c10	ffad8d93	addi	x27,x27,-6	 x27:0xfffffffd x27=0xfffffff7
       47915000	      4790	80001c14	004577b3	and	x15,x10,x4	 x10:0x00000000  x4:0x80009fc4 x15=0x00000000
       47925000	      4791	80001c18	014e7833	and	x16,x28,x20	 x28:0x00000000 x20:0xfffffff7 x16=0x00000000
       47935000	      4792	80001c1c	35bd5d37	lui	x26,0x35bd5	 x26=0x35bd5000
       47945000	      4793	80001c20	ff4d94e3	bne	x27,x20,80001c08	 x27:0xfffffff7 x20:0xfffffff7
       47955000	      4794	80001c24	003a6833	or	x16,x20,x3	 x20:0xfffffff7  x3:0x00000010 x16=0xfffffff7
       47965000	      4795	80001c28	fa1f56e3	bge	x30,x1,80001bd4	 x30:0xfffffff6  x1:0xffffffec
       47975000	      4796	00000000	00000013	addi	x0,x0,0	  x0:0x00000000
       47985000	      4797	80001bd0	00000013	addi	x0,x0,0	  x0:0x00000000
       47995000	      4798	80001bd4	1c98e813	ori	x16,x17,457	 x17:0x00000000 x16=0x000001c9
       48005000	      4799	80001bd8	011edc93	srli	x25,x29,0x11	 x29:0x80009f60 x25=0x00004000
       48015000	      4800	80001bdc	e1af6713	ori	x14,x30,-486	 x30:0xfffffff6 x14=0xfffffffe
       48025000	      4801	80001be0	008cf133	and	x2,x25,x8	 x25:0x00004000  x8:0x00000780  x2=0x00000000
       48035000	      4802	80001be4	ff7f0f13	addi	x30,x30,-9	 x30:0xfffffff6 x30=0xffffffed
       48045000	      4803	80001be8	01da96b3	sll	x13,x21,x29	 x21:0x00000001 x29:0x80009f60 x13=0x00000001
       48055000	      4804	80001bec	01f1e333	or	x6,x3,x31	  x3:0x00000010 x31:0xedb7c010  x6=0xedb7c010
       48065000	      4805	80001bf0	01f1efb3	or	x31,x3,x31	  x3:0x00000010 x31:0xedb7c010 x31=0xedb7c010
       48075000	      4806	80001bf4	ffd00d93	addi	x27,x0,-3	  x0:0x00000000 x27=0xfffffffd
       48085000	      4807	80001bf8	b6c2e117	auipc	x2,0xb6c2e	  x2=0x36c2fbf4
       48095000	      4808	80001bfc	00000013	addi	x0,x0,0	  x0:0x00000000
       48105000	      4809	80001c00	ff700a13	addi	x20,x0,-9	  x0:0x00000000 x20=0xfffffff7
       48115000	      4810	80001c04	41a55b93	srai	x23,x10,0x1a	 x10:0x00000000 x23=0x00000000
       48125000	      4811	80001c08	00b0a5b3	slt	x11,x1,x11	  x1:0xffffffec x11:0x00000001 x11=0x00000001
       48135000	      4812	80001c0c	00537c33	and	x24,x6,x5	  x6:0xedb7c010  x5:0x00000052 x24=0x00000010
       48145000	      4813	80001c10	ffad8d93	addi	x27,x27,-6	 x27:0xfffffffd x27=0xfffffff7
       48155000	      4814	80001c14	004577b3	and	x15,x10,x4	 x10:0x00000000  x4:0x80009fc4 x15=0x00000000
       48165000	      4815	80001c18	014e7833	and	x16,x28,x20	 x28:0x00000000 x20:0xfffffff7 x16=0x00000000
       48175000	      4816	80001c1c	35bd5d37	lui	x26,0x35bd5	 x26=0x35bd5000
       48185000	      4817	80001c20	ff4d94e3	bne	x27,x20,80001c08	 x27:0xfffffff7 x20:0xfffffff7
       48195000	      4818	80001c24	003a6833	or	x16,x20,x3	 x20:0xfffffff7  x3:0x00000010 x16=0xfffffff7
       48205000	      4819	80001c28	fa1f56e3	bge	x30,x1,80001bd4	 x30:0xffffffed  x1:0xffffffec
       48215000	      4820	00000000	00000013	addi	x0,x0,0	  x0:0x00000000
       48225000	      4821	80001bd0	00000013	addi	x0,x0,0	  x0:0x00000000
       48235000	      4822	80001bd4	1c98e813	ori	x16,x17,457	 x17:0x00000000 x16=0x000001c9
       48245000	      4823	80001bd8	011edc93	srli	x25,x29,0x11	 x29:0x80009f60 x25=0x00004000
       48255000	      4824	80001bdc	e1af6713	ori	x14,x30,-486	 x30:0xffffffed x14=0xffffffff
       48265000	      4825	80001be0	008cf133	and	x2,x25,x8	 x25:0x00004000  x8:0x00000780  x2=0x00000000
       48275000	      4826	80001be4	ff7f0f13	addi	x30,x30,-9	 x30:0xffffffed x30=0xffffffe4
       48285000	      4827	80001be8	01da96b3	sll	x13,x21,x29	 x21:0x00000001 x29:0x80009f60 x13=0x00000001
       48295000	      4828	80001bec	01f1e333	or	x6,x3,x31	  x3:0x00000010 x31:0xedb7c010  x6=0xedb7c010
       48305000	      4829	80001bf0	01f1efb3	or	x31,x3,x31	  x3:0x00000010 x31:0xedb7c010 x31=0xedb7c010
       48315000	      4830	80001bf4	ffd00d93	addi	x27,x0,-3	  x0:0x00000000 x27=0xfffffffd
       48325000	      4831	80001bf8	b6c2e117	auipc	x2,0xb6c2e	  x2=0x36c2fbf4
       48335000	      4832	80001bfc	00000013	addi	x0,x0,0	  x0:0x00000000
       48345000	      4833	80001c00	ff700a13	addi	x20,x0,-9	  x0:0x00000000 x20=0xfffffff7
       48355000	      4834	80001c04	41a55b93	srai	x23,x10,0x1a	 x10:0x00000000 x23=0x00000000
       48365000	      4835	80001c08	00b0a5b3	slt	x11,x1,x11	  x1:0xffffffec x11:0x00000001 x11=0x00000001
       48375000	      4836	80001c0c	00537c33	and	x24,x6,x5	  x6:0xedb7c010  x5:0x00000052 x24=0x00000010
       48385000	      4837	80001c10	ffad8d93	addi	x27,x27,-6	 x27:0xfffffffd x27=0xfffffff7
       48395000	      4838	80001c14	004577b3	and	x15,x10,x4	 x10:0x00000000  x4:0x80009fc4 x15=0x00000000
       48405000	      4839	80001c18	014e7833	and	x16,x28,x20	 x28:0x00000000 x20:0xfffffff7 x16=0x00000000
       48415000	      4840	80001c1c	35bd5d37	lui	x26,0x35bd5	 x26=0x35bd5000
       48425000	      4841	80001c20	ff4d94e3	bne	x27,x20,80001c08	 x27:0xfffffff7 x20:0xfffffff7
       48435000	      4842	80001c24	003a6833	or	x16,x20,x3	 x20:0xfffffff7  x3:0x00000010 x16=0xfffffff7
       48445000	      4843	80001c28	fa1f56e3	bge	x30,x1,80001bd4	 x30:0xffffffe4  x1:0xffffffec
       48455000	      4844	80001c2c	01af2133	slt	x2,x30,x26	 x30:0xffffffe4 x26:0x35bd5000  x2=0x00000001
       48465000	      4845	80001c30	00600b93	addi	x23,x0,6	  x0:0x00000000 x23=0x00000006
       48475000	      4846	80001c34	41f0d793	srai	x15,x1,0x1f	  x1:0xffffffec x15=0xffffffff
       48485000	      4847	80001c38	a0dc2fb7	lui	x31,0xa0dc2	 x31=0xa0dc2000
       48495000	      4848	80001c3c	01db09b3	add	x19,x22,x29	 x22:0x00000001 x29:0x80009f60 x19=0x80009f61
       48505000	      4849	80001c40	b1f8f813	andi	x16,x17,-1249	 x17:0x00000000 x16=0x00000000
       48515000	      4850	80001c44	017ab533	sltu	x10,x21,x23	 x21:0x00000001 x23:0x00000006 x10=0x00000001
       48525000	      4851	80001c48	00000013	addi	x0,x0,0	  x0:0x00000000
       48535000	      4852	80001c4c	00f00193	addi	x3,x0,15	  x0:0x00000000  x3=0x0000000f
       48545000	      4853	80001c50	7eb3e013	ori	x0,x7,2027	  x7:0x00000353
       48555000	      4854	80001c54	74d67b13	andi	x22,x12,1869	 x12:0x00000000 x22=0x00000000
       48565000	      4855	80001c58	012b9993	slli	x19,x23,0x12	 x23:0x00000006 x19=0x00180000
       48575000	      4856	80001c5c	727aaf93	slti	x31,x21,1831	 x21:0x00000001 x31=0x00000001
       48585000	      4857	80001c60	01dc3333	sltu	x6,x24,x29	 x24:0x00000010 x29:0x80009f60  x6=0x00000001
       48595000	      4858	80001c64	bf2ccc13	xori	x24,x25,-1038	 x25:0x00004000 x24=0xffffbbf2
       48605000	      4859	80001c68	d3293613	sltiu	x12,x18,-718	 x18:0x400006c4 x12=0x00000001
       48615000	      4860	80001c6c	403b8133	sub	x2,x23,x3	 x23:0x00000006  x3:0x0000000f  x2=0xfffffff7
       48625000	      4861	80001c70	2cc4c513	xori	x10,x9,716	  x9:0x00000001 x10=0x000002cd
       48635000	      4862	80001c74	007a5b33	srl	x22,x20,x7	 x20:0xfffffff7  x7:0x00000353 x22=0x00001fff
       48645000	      4863	80001c78	cf065c37	lui	x24,0xcf065	 x24=0xcf065000
       48655000	      4864	80001c7c	002b8b93	addi	x23,x23,2	 x23:0x00000006 x23=0x00000008
       48665000	      4865	80001c80	0b4d7893	andi	x17,x26,180	 x26:0x35bd5000 x17=0x00000000
       48675000	      4866	80001c84	014815b3	sll	x11,x16,x20	 x16:0x00000000 x20:0xfffffff7 x11=0x00000000
       48685000	      4867	80001c88	01f39593	slli	x11,x7,0x1f	  x7:0x00000353 x11=0x80000000
       48695000	      4868	80001c8c	00000013	addi	x0,x0,0	  x0:0x00000000
       48705000	      4869	80001c90	fc3be6e3	bltu	x23,x3,80001c5c	 x23:0x00000008  x3:0x0000000f
       48715000	      4870	00000000	00000013	addi	x0,x0,0	  x0:0x00000000
       48725000	      4871	80001c58	00000013	addi	x0,x0,0	  x0:0x00000000
       48735000	      4872	80001c5c	727aaf93	slti	x31,x21,1831	 x21:0x00000001 x31=0x00000001
       48745000	      4873	80001c60	01dc3333	sltu	x6,x24,x29	 x24:0xcf065000 x29:0x80009f60  x6=0x00000000
       48755000	      4874	80001c64	bf2ccc13	xori	x24,x25,-1038	 x25:0x00004000 x24=0xffffbbf2
       48765000	      4875	80001c68	d3293613	sltiu	x12,x18,-718	 x18:0x400006c4 x12=0x00000001
       48775000	      4876	80001c6c	403b8133	sub	x2,x23,x3	 x23:0x00000008  x3:0x0000000f  x2=0xfffffff9
       48785000	      4877	80001c70	2cc4c513	xori	x10,x9,716	  x9:0x00000001 x10=0x000002cd
       48795000	      4878	80001c74	007a5b33	srl	x22,x20,x7	 x20:0xfffffff7  x7:0x00000353 x22=0x00001fff
       48805000	      4879	80001c78	cf065c37	lui	x24,0xcf065	 x24=0xcf065000
       48815000	      4880	80001c7c	002b8b93	addi	x23,x23,2	 x23:0x00000008 x23=0x0000000a
       48825000	      4881	80001c80	0b4d7893	andi	x17,x26,180	 x26:0x35bd5000 x17=0x00000000
       48835000	      4882	80001c84	014815b3	sll	x11,x16,x20	 x16:0x00000000 x20:0xfffffff7 x11=0x00000000
       48845000	      4883	80001c88	01f39593	slli	x11,x7,0x1f	  x7:0x00000353 x11=0x80000000
       48855000	      4884	80001c8c	00000013	addi	x0,x0,0	  x0:0x00000000
       48865000	      4885	80001c90	fc3be6e3	bltu	x23,x3,80001c5c	 x23:0x0000000a  x3:0x0000000f
       48875000	      4886	00000000	00000013	addi	x0,x0,0	  x0:0x00000000
       48885000	      4887	80001c58	00000013	addi	x0,x0,0	  x0:0x00000000
       48895000	      4888	80001c5c	727aaf93	slti	x31,x21,1831	 x21:0x00000001 x31=0x00000001
       48905000	      4889	80001c60	01dc3333	sltu	x6,x24,x29	 x24:0xcf065000 x29:0x80009f60  x6=0x00000000
       48915000	      4890	80001c64	bf2ccc13	xori	x24,x25,-1038	 x25:0x00004000 x24=0xffffbbf2
       48925000	      4891	80001c68	d3293613	sltiu	x12,x18,-718	 x18:0x400006c4 x12=0x00000001
       48935000	      4892	80001c6c	403b8133	sub	x2,x23,x3	 x23:0x0000000a  x3:0x0000000f  x2=0xfffffffb
       48945000	      4893	80001c70	2cc4c513	xori	x10,x9,716	  x9:0x00000001 x10=0x000002cd
       48955000	      4894	80001c74	007a5b33	srl	x22,x20,x7	 x20:0xfffffff7  x7:0x00000353 x22=0x00001fff
       48965000	      4895	80001c78	cf065c37	lui	x24,0xcf065	 x24=0xcf065000
       48975000	      4896	80001c7c	002b8b93	addi	x23,x23,2	 x23:0x0000000a x23=0x0000000c
       48985000	      4897	80001c80	0b4d7893	andi	x17,x26,180	 x26:0x35bd5000 x17=0x00000000
       48995000	      4898	80001c84	014815b3	sll	x11,x16,x20	 x16:0x00000000 x20:0xfffffff7 x11=0x00000000
       49005000	      4899	80001c88	01f39593	slli	x11,x7,0x1f	  x7:0x00000353 x11=0x80000000
       49015000	      4900	80001c8c	00000013	addi	x0,x0,0	  x0:0x00000000
       49025000	      4901	80001c90	fc3be6e3	bltu	x23,x3,80001c5c	 x23:0x0000000c  x3:0x0000000f
       49035000	      4902	00000000	00000013	addi	x0,x0,0	  x0:0x00000000
       49045000	      4903	80001c58	00000013	addi	x0,x0,0	  x0:0x00000000
       49055000	      4904	80001c5c	727aaf93	slti	x31,x21,1831	 x21:0x00000001 x31=0x00000001
       49065000	      4905	80001c60	01dc3333	sltu	x6,x24,x29	 x24:0xcf065000 x29:0x80009f60  x6=0x00000000
       49075000	      4906	80001c64	bf2ccc13	xori	x24,x25,-1038	 x25:0x00004000 x24=0xffffbbf2
       49085000	      4907	80001c68	d3293613	sltiu	x12,x18,-718	 x18:0x400006c4 x12=0x00000001
       49095000	      4908	80001c6c	403b8133	sub	x2,x23,x3	 x23:0x0000000c  x3:0x0000000f  x2=0xfffffffd
       49105000	      4909	80001c70	2cc4c513	xori	x10,x9,716	  x9:0x00000001 x10=0x000002cd
       49115000	      4910	80001c74	007a5b33	srl	x22,x20,x7	 x20:0xfffffff7  x7:0x00000353 x22=0x00001fff
       49125000	      4911	80001c78	cf065c37	lui	x24,0xcf065	 x24=0xcf065000
       49135000	      4912	80001c7c	002b8b93	addi	x23,x23,2	 x23:0x0000000c x23=0x0000000e
       49145000	      4913	80001c80	0b4d7893	andi	x17,x26,180	 x26:0x35bd5000 x17=0x00000000
       49155000	      4914	80001c84	014815b3	sll	x11,x16,x20	 x16:0x00000000 x20:0xfffffff7 x11=0x00000000
       49165000	      4915	80001c88	01f39593	slli	x11,x7,0x1f	  x7:0x00000353 x11=0x80000000
       49175000	      4916	80001c8c	00000013	addi	x0,x0,0	  x0:0x00000000
       49185000	      4917	80001c90	fc3be6e3	bltu	x23,x3,80001c5c	 x23:0x0000000e  x3:0x0000000f
       49195000	      4918	00000000	00000013	addi	x0,x0,0	  x0:0x00000000
       49205000	      4919	80001c58	00000013	addi	x0,x0,0	  x0:0x00000000
       49215000	      4920	80001c5c	727aaf93	slti	x31,x21,1831	 x21:0x00000001 x31=0x00000001
       49225000	      4921	80001c60	01dc3333	sltu	x6,x24,x29	 x24:0xcf065000 x29:0x80009f60  x6=0x00000000
       49235000	      4922	80001c64	bf2ccc13	xori	x24,x25,-1038	 x25:0x00004000 x24=0xffffbbf2
       49245000	      4923	80001c68	d3293613	sltiu	x12,x18,-718	 x18:0x400006c4 x12=0x00000001
       49255000	      4924	80001c6c	403b8133	sub	x2,x23,x3	 x23:0x0000000e  x3:0x0000000f  x2=0xffffffff
       49265000	      4925	80001c70	2cc4c513	xori	x10,x9,716	  x9:0x00000001 x10=0x000002cd
       49275000	      4926	80001c74	007a5b33	srl	x22,x20,x7	 x20:0xfffffff7  x7:0x00000353 x22=0x00001fff
       49285000	      4927	80001c78	cf065c37	lui	x24,0xcf065	 x24=0xcf065000
       49295000	      4928	80001c7c	002b8b93	addi	x23,x23,2	 x23:0x0000000e x23=0x00000010
       49305000	      4929	80001c80	0b4d7893	andi	x17,x26,180	 x26:0x35bd5000 x17=0x00000000
       49315000	      4930	80001c84	014815b3	sll	x11,x16,x20	 x16:0x00000000 x20:0xfffffff7 x11=0x00000000
       49325000	      4931	80001c88	01f39593	slli	x11,x7,0x1f	  x7:0x00000353 x11=0x80000000
       49335000	      4932	80001c8c	00000013	addi	x0,x0,0	  x0:0x00000000
       49345000	      4933	80001c90	fc3be6e3	bltu	x23,x3,80001c5c	 x23:0x00000010  x3:0x0000000f
       49355000	      4934	80001c94	01acd3b3	srl	x7,x25,x26	 x25:0x00004000 x26:0x35bd5000  x7=0x00004000
       49365000	      4935	80001c98	ffb00813	addi	x16,x0,-5	  x0:0x00000000 x16=0xfffffffb
       49375000	      4936	80001c9c	ff700993	addi	x19,x0,-9	  x0:0x00000000 x19=0xfffffff7
       49385000	      4937	80001ca0	41acd2b3	sra	x5,x25,x26	 x25:0x00004000 x26:0x35bd5000  x5=0x00004000
       49395000	      4938	80001ca4	1752a393	slti	x7,x5,373	  x5:0x00004000  x7=0x00000000
       49405000	      4939	80001ca8	ffc80813	addi	x16,x16,-4	 x16:0xfffffffb x16=0xfffffff7
       49415000	      4940	80001cac	ffa00613	addi	x12,x0,-6	  x0:0x00000000 x12=0xfffffffa
       49425000	      4941	80001cb0	00610ab3	add	x21,x2,x6	  x2:0xffffffff  x6:0x00000000 x21=0xffffffff
       49435000	      4942	80001cb4	017cbfb3	sltu	x31,x25,x23	 x25:0x00004000 x23:0x00000010 x31=0x00000000
       49445000	      4943	80001cb8	ff200d13	addi	x26,x0,-14	  x0:0x00000000 x26=0xfffffff2
       49455000	      4944	80001cbc	d9bd1437	lui	x8,0xd9bd1	  x8=0xd9bd1000
       49465000	      4945	80001cc0	014afb33	and	x22,x21,x20	 x21:0xffffffff x20:0xfffffff7 x22=0xfffffff7
       49475000	      4946	80001cc4	ff860613	addi	x12,x12,-8	 x12:0xfffffffa x12=0xfffffff2
       49485000	      4947	80001cc8	ffa61ae3	bne	x12,x26,80001cbc	 x12:0xfffffff2 x26:0xfffffff2
       49495000	      4948	80001ccc	fd380ce3	beq	x16,x19,80001ca4	 x16:0xfffffff7 x19:0xfffffff7
       49505000	      4949	00000000	00000013	addi	x0,x0,0	  x0:0x00000000
       49515000	      4950	80001ca0	00000013	addi	x0,x0,0	  x0:0x00000000
       49525000	      4951	80001ca4	1752a393	slti	x7,x5,373	  x5:0x00004000  x7=0x00000000
       49535000	      4952	80001ca8	ffc80813	addi	x16,x16,-4	 x16:0xfffffff7 x16=0xfffffff3
       49545000	      4953	80001cac	ffa00613	addi	x12,x0,-6	  x0:0x00000000 x12=0xfffffffa
       49555000	      4954	80001cb0	00610ab3	add	x21,x2,x6	  x2:0xffffffff  x6:0x00000000 x21=0xffffffff
       49565000	      4955	80001cb4	017cbfb3	sltu	x31,x25,x23	 x25:0x00004000 x23:0x00000010 x31=0x00000000
       49575000	      4956	80001cb8	ff200d13	addi	x26,x0,-14	  x0:0x00000000 x26=0xfffffff2
       49585000	      4957	80001cbc	d9bd1437	lui	x8,0xd9bd1	  x8=0xd9bd1000
       49595000	      4958	80001cc0	014afb33	and	x22,x21,x20	 x21:0xffffffff x20:0xfffffff7 x22=0xfffffff7
       49605000	      4959	80001cc4	ff860613	addi	x12,x12,-8	 x12:0xfffffffa x12=0xfffffff2
       49615000	      4960	80001cc8	ffa61ae3	bne	x12,x26,80001cbc	 x12:0xfffffff2 x26:0xfffffff2
       49625000	      4961	80001ccc	fd380ce3	beq	x16,x19,80001ca4	 x16:0xfffffff3 x19:0xfffffff7
       49635000	      4962	80001cd0	01604f33	xor	x30,x0,x22	  x0:0x00000000 x22:0xfffffff7 x30=0xfffffff7
       49645000	      4963	80001cd4	00a00293	addi	x5,x0,10	  x0:0x00000000  x5=0x0000000a
       49655000	      4964	80001cd8	003bf0b3	and	x1,x23,x3	 x23:0x00000010  x3:0x0000000f  x1=0x00000000
       49665000	      4965	80001cdc	005ba7b3	slt	x15,x23,x5	 x23:0x00000010  x5:0x0000000a x15=0x00000000
       49675000	      4966	80001ce0	00600413	addi	x8,x0,6	  x0:0x00000000  x8=0x00000006
       49685000	      4967	80001ce4	40e5d833	sra	x16,x11,x14	 x11:0x80000000 x14:0xffffffff x16=0xffffffff
       49695000	      4968	80001ce8	e626f793	andi	x15,x13,-414	 x13:0x00000001 x15=0x00000000
       49705000	      4969	80001cec	00000013	addi	x0,x0,0	  x0:0x00000000
       49715000	      4970	80001cf0	00b2e133	or	x2,x5,x11	  x5:0x0000000a x11:0x80000000  x2=0x8000000a
       49725000	      4971	80001cf4	ffb28293	addi	x5,x5,-5	  x5:0x0000000a  x5=0x00000005
       49735000	      4972	80001cf8	008ce733	or	x14,x25,x8	 x25:0x00004000  x8:0x00000006 x14=0x00004006
       49745000	      4973	80001cfc	0164c933	xor	x18,x9,x22	  x9:0x00000001 x22:0xfffffff7 x18=0xfffffff6
       49755000	      4974	80001d00	91b94117	auipc	x2,0x91b94	  x2=0x11b95cfc
       49765000	      4975	80001d04	28f8e797	auipc	x15,0x28f8e	 x15=0xa8f8fd00
       49775000	      4976	80001d08	fe82f2e3	bgeu	x5,x8,80001cec	  x5:0x00000005  x8:0x00000006
       49785000	      4977	80001d0c	2826a913	slti	x18,x13,642	 x13:0x00000001 x18=0x00000001
       49795000	      4978	80001d10	00500113	addi	x2,x0,5	  x0:0x00000000  x2=0x00000005
       49805000	      4979	80001d14	00de1593	slli	x11,x28,0xd	 x28:0x00000000 x11=0x00000000
       49815000	      4980	80001d18	5637e297	auipc	x5,0x5637e	  x5=0xd637fd14
       49825000	      4981	80001d1c	3a48c193	xori	x3,x17,932	 x17:0x00000000  x3=0x000003a4
       49835000	      4982	80001d20	01027633	and	x12,x4,x16	  x4:0x80009fc4 x16:0xffffffff x12=0x80009fc4
       49845000	      4983	80001d24	009d17b3	sll	x15,x26,x9	 x26:0xfffffff2  x9:0x00000001 x15=0xffffffe4
       49855000	      4984	80001d28	001eb333	sltu	x6,x29,x1	 x29:0x80009f60  x1:0x00000000  x6=0x00000000
       49865000	      4985	80001d2c	00000013	addi	x0,x0,0	  x0:0x00000000
       49875000	      4986	80001d30	8f105ab7	lui	x21,0x8f105	 x21=0x8f105000
       49885000	      4987	80001d34	0032e6b3	or	x13,x5,x3	  x5:0xd637fd14  x3:0x000003a4 x13=0xd637ffb4
       49895000	      4988	80001d38	007fd7b3	srl	x15,x31,x7	 x31:0x00000000  x7:0x00000000 x15=0x00000000
       49905000	      4989	80001d3c	00f00b13	addi	x22,x0,15	  x0:0x00000000 x22=0x0000000f
       49915000	      4990	80001d40	00489533	sll	x10,x17,x4	 x17:0x00000000  x4:0x80009fc4 x10=0x00000000
       49925000	      4991	80001d44	40edd513	srai	x10,x27,0xe	 x27:0xfffffff7 x10=0xffffffff
       49935000	      4992	80001d48	014f7833	and	x16,x30,x20	 x30:0xfffffff7 x20:0xfffffff7 x16=0xfffffff7
       49945000	      4993	80001d4c	40e1dc93	srai	x25,x3,0xe	  x3:0x000003a4 x25=0x00000000
       49955000	      4994	80001d50	00c96633	or	x12,x18,x12	 x18:0x00000001 x12:0x80009fc4 x12=0x80009fc5
       49965000	      4995	80001d54	000ff3b3	and	x7,x31,x0	 x31:0x00000000  x0:0x00000000  x7=0x00000000
       49975000	      4996	80001d58	00810113	addi	x2,x2,8	  x2:0x00000005  x2=0x0000000d
       49985000	      4997	80001d5c	00f0d033	srl	x0,x1,x15	  x1:0x00000000 x15:0x00000000
       49995000	      4998	80001d60	86670513	addi	x10,x14,-1946	 x14:0x00004006 x10=0x0000386c
       50005000	      4999	80001d64	ff6162e3	bltu	x2,x22,80001d48	  x2:0x0000000d x22:0x0000000f
       50015000	      5000	00000000	00000013	addi	x0,x0,0	  x0:0x00000000
       50025000	      5001	80001d44	00000013	addi	x0,x0,0	  x0:0x00000000
       50035000	      5002	80001d48	014f7833	and	x16,x30,x20	 x30:0xfffffff7 x20:0xfffffff7 x16=0xfffffff7
       50045000	      5003	80001d4c	40e1dc93	srai	x25,x3,0xe	  x3:0x000003a4 x25=0x00000000
       50055000	      5004	80001d50	00c96633	or	x12,x18,x12	 x18:0x00000001 x12:0x80009fc5 x12=0x80009fc5
       50065000	      5005	80001d54	000ff3b3	and	x7,x31,x0	 x31:0x00000000  x0:0x00000000  x7=0x00000000
       50075000	      5006	80001d58	00810113	addi	x2,x2,8	  x2:0x0000000d  x2=0x00000015
       50085000	      5007	80001d5c	00f0d033	srl	x0,x1,x15	  x1:0x00000000 x15:0x00000000
       50095000	      5008	80001d60	86670513	addi	x10,x14,-1946	 x14:0x00004006 x10=0x0000386c
       50105000	      5009	80001d64	ff6162e3	bltu	x2,x22,80001d48	  x2:0x00000015 x22:0x0000000f
       50115000	      5010	80001d68	00a65893	srli	x17,x12,0xa	 x12:0x80009fc5 x17=0x00200027
       50125000	      5011	80001d6c	00700d93	addi	x27,x0,7	  x0:0x00000000 x27=0x00000007
       50135000	      5012	80001d70	00d00313	addi	x6,x0,13	  x0:0x00000000  x6=0x0000000d
       50145000	      5013	80001d74	307b3093	sltiu	x1,x22,775	 x22:0x0000000f  x1=0x00000001
       50155000	      5014	80001d78	002d8d93	addi	x27,x27,2	 x27:0x00000007 x27=0x00000009
       50165000	      5015	80001d7c	00a00893	addi	x17,x0,10	  x0:0x00000000 x17=0x0000000a
       50175000	      5016	80001d80	00a00a93	addi	x21,x0,10	  x0:0x00000000 x21=0x0000000a
       50185000	      5017	80001d84	005649b3	xor	x19,x12,x5	 x12:0x80009fc5  x5:0xd637fd14 x19=0x563762d1
       50195000	      5018	80001d88	ff788893	addi	x17,x17,-9	 x17:0x0000000a x17=0x00000001
       50205000	      5019	80001d8c	ff58fce3	bgeu	x17,x21,80001d84	 x17:0x00000001 x21:0x0000000a
       50215000	      5020	80001d90	fe6dc2e3	blt	x27,x6,80001d74	 x27:0x00000009  x6:0x0000000d
       50225000	      5021	00000000	00000013	addi	x0,x0,0	  x0:0x00000000
       50235000	      5022	80001d70	00000013	addi	x0,x0,0	  x0:0x00000000
       50245000	      5023	80001d74	307b3093	sltiu	x1,x22,775	 x22:0x0000000f  x1=0x00000001
       50255000	      5024	80001d78	002d8d93	addi	x27,x27,2	 x27:0x00000009 x27=0x0000000b
       50265000	      5025	80001d7c	00a00893	addi	x17,x0,10	  x0:0x00000000 x17=0x0000000a
       50275000	      5026	80001d80	00a00a93	addi	x21,x0,10	  x0:0x00000000 x21=0x0000000a
       50285000	      5027	80001d84	005649b3	xor	x19,x12,x5	 x12:0x80009fc5  x5:0xd637fd14 x19=0x563762d1
       50295000	      5028	80001d88	ff788893	addi	x17,x17,-9	 x17:0x0000000a x17=0x00000001
       50305000	      5029	80001d8c	ff58fce3	bgeu	x17,x21,80001d84	 x17:0x00000001 x21:0x0000000a
       50315000	      5030	80001d90	fe6dc2e3	blt	x27,x6,80001d74	 x27:0x0000000b  x6:0x0000000d
       50325000	      5031	00000000	00000013	addi	x0,x0,0	  x0:0x00000000
       50335000	      5032	80001d70	00000013	addi	x0,x0,0	  x0:0x00000000
       50345000	      5033	80001d74	307b3093	sltiu	x1,x22,775	 x22:0x0000000f  x1=0x00000001
       50355000	      5034	80001d78	002d8d93	addi	x27,x27,2	 x27:0x0000000b x27=0x0000000d
       50365000	      5035	80001d7c	00a00893	addi	x17,x0,10	  x0:0x00000000 x17=0x0000000a
       50375000	      5036	80001d80	00a00a93	addi	x21,x0,10	  x0:0x00000000 x21=0x0000000a
       50385000	      5037	80001d84	005649b3	xor	x19,x12,x5	 x12:0x80009fc5  x5:0xd637fd14 x19=0x563762d1
       50395000	      5038	80001d88	ff788893	addi	x17,x17,-9	 x17:0x0000000a x17=0x00000001
       50405000	      5039	80001d8c	ff58fce3	bgeu	x17,x21,80001d84	 x17:0x00000001 x21:0x0000000a
       50415000	      5040	80001d90	fe6dc2e3	blt	x27,x6,80001d74	 x27:0x0000000d  x6:0x0000000d
       50425000	      5041	80001d94	0305c113	xori	x2,x11,48	 x11:0x00000000  x2=0x00000030
       50435000	      5042	80001d98	00100e13	addi	x28,x0,1	  x0:0x00000000 x28=0x00000001
       50445000	      5043	80001d9c	011682b3	add	x5,x13,x17	 x13:0xd637ffb4 x17:0x00000001  x5=0xd637ffb5
       50455000	      5044	80001da0	c3e24a93	xori	x21,x4,-962	  x4:0x80009fc4 x21=0x7fff63fa
       50465000	      5045	80001da4	ff400413	addi	x8,x0,-12	  x0:0x00000000  x8=0xfffffff4
       50475000	      5046	80001da8	91f94313	xori	x6,x18,-1761	 x18:0x00000001  x6=0xfffff91e
       50485000	      5047	80001dac	01963cb3	sltu	x25,x12,x25	 x12:0x80009fc5 x25:0x00000000 x25=0x00000000
       50495000	      5048	80001db0	ffce0e13	addi	x28,x28,-4	 x28:0x00000001 x28=0xfffffffd
       50505000	      5049	80001db4	007262b3	or	x5,x4,x7	  x4:0x80009fc4  x7:0x00000000  x5=0x80009fc4
       50515000	      5050	80001db8	00900513	addi	x10,x0,9	  x0:0x00000000 x10=0x00000009
       50525000	      5051	80001dbc	00700393	addi	x7,x0,7	  x0:0x00000000  x7=0x00000007
       50535000	      5052	80001dc0	00e48633	add	x12,x9,x14	  x9:0x00000001 x14:0x00004006 x12=0x00004007
       50545000	      5053	80001dc4	6cf6cb17	auipc	x22,0x6cf6c	 x22=0xecf6ddc0
       50555000	      5054	80001dc8	fff50513	addi	x10,x10,-1	 x10:0x00000009 x10=0x00000008
       50565000	      5055	80001dcc	fe757ce3	bgeu	x10,x7,80001dc4	 x10:0x00000008  x7:0x00000007
       50575000	      5056	00000000	00000013	addi	x0,x0,0	  x0:0x00000000
       50585000	      5057	80001dc0	00000013	addi	x0,x0,0	  x0:0x00000000
       50595000	      5058	80001dc4	6cf6cb17	auipc	x22,0x6cf6c	 x22=0xecf6ddc0
       50605000	      5059	80001dc8	fff50513	addi	x10,x10,-1	 x10:0x00000008 x10=0x00000007
       50615000	      5060	80001dcc	fe757ce3	bgeu	x10,x7,80001dc4	 x10:0x00000007  x7:0x00000007
       50625000	      5061	00000000	00000013	addi	x0,x0,0	  x0:0x00000000
       50635000	      5062	80001dc0	00000013	addi	x0,x0,0	  x0:0x00000000
       50645000	      5063	80001dc4	6cf6cb17	auipc	x22,0x6cf6c	 x22=0xecf6ddc0
       50655000	      5064	80001dc8	fff50513	addi	x10,x10,-1	 x10:0x00000007 x10=0x00000006
       50665000	      5065	80001dcc	fe757ce3	bgeu	x10,x7,80001dc4	 x10:0x00000006  x7:0x00000007
       50675000	      5066	80001dd0	015ad593	srli	x11,x21,0x15	 x21:0x7fff63fa x11=0x000003ff
       50685000	      5067	80001dd4	f6774c93	xori	x25,x14,-153	 x14:0x00004006 x25=0xffffbf61
       50695000	      5068	80001dd8	fc8e58e3	bge	x28,x8,80001da8	 x28:0xfffffffd  x8:0xfffffff4
       50705000	      5069	00000000	00000013	addi	x0,x0,0	  x0:0x00000000
       50715000	      5070	80001da4	00000013	addi	x0,x0,0	  x0:0x00000000
       50725000	      5071	80001da8	91f94313	xori	x6,x18,-1761	 x18:0x00000001  x6=0xfffff91e
       50735000	      5072	80001dac	01963cb3	sltu	x25,x12,x25	 x12:0x00004007 x25:0xffffbf61 x25=0x00000001
       50745000	      5073	80001db0	ffce0e13	addi	x28,x28,-4	 x28:0xfffffffd x28=0xfffffff9
       50755000	      5074	80001db4	007262b3	or	x5,x4,x7	  x4:0x80009fc4  x7:0x00000007  x5=0x80009fc7
       50765000	      5075	80001db8	00900513	addi	x10,x0,9	  x0:0x00000000 x10=0x00000009
       50775000	      5076	80001dbc	00700393	addi	x7,x0,7	  x0:0x00000000  x7=0x00000007
       50785000	      5077	80001dc0	00e48633	add	x12,x9,x14	  x9:0x00000001 x14:0x00004006 x12=0x00004007
       50795000	      5078	80001dc4	6cf6cb17	auipc	x22,0x6cf6c	 x22=0xecf6ddc0
       50805000	      5079	80001dc8	fff50513	addi	x10,x10,-1	 x10:0x00000009 x10=0x00000008
       50815000	      5080	80001dcc	fe757ce3	bgeu	x10,x7,80001dc4	 x10:0x00000008  x7:0x00000007
       50825000	      5081	00000000	00000013	addi	x0,x0,0	  x0:0x00000000
       50835000	      5082	80001dc0	00000013	addi	x0,x0,0	  x0:0x00000000
       50845000	      5083	80001dc4	6cf6cb17	auipc	x22,0x6cf6c	 x22=0xecf6ddc0
       50855000	      5084	80001dc8	fff50513	addi	x10,x10,-1	 x10:0x00000008 x10=0x00000007
       50865000	      5085	80001dcc	fe757ce3	bgeu	x10,x7,80001dc4	 x10:0x00000007  x7:0x00000007
       50875000	      5086	00000000	00000013	addi	x0,x0,0	  x0:0x00000000
       50885000	      5087	80001dc0	00000013	addi	x0,x0,0	  x0:0x00000000
       50895000	      5088	80001dc4	6cf6cb17	auipc	x22,0x6cf6c	 x22=0xecf6ddc0
       50905000	      5089	80001dc8	fff50513	addi	x10,x10,-1	 x10:0x00000007 x10=0x00000006
       50915000	      5090	80001dcc	fe757ce3	bgeu	x10,x7,80001dc4	 x10:0x00000006  x7:0x00000007
       50925000	      5091	80001dd0	015ad593	srli	x11,x21,0x15	 x21:0x7fff63fa x11=0x000003ff
       50935000	      5092	80001dd4	f6774c93	xori	x25,x14,-153	 x14:0x00004006 x25=0xffffbf61
       50945000	      5093	80001dd8	fc8e58e3	bge	x28,x8,80001da8	 x28:0xfffffff9  x8:0xfffffff4
       50955000	      5094	00000000	00000013	addi	x0,x0,0	  x0:0x00000000
       50965000	      5095	80001da4	00000013	addi	x0,x0,0	  x0:0x00000000
       50975000	      5096	80001da8	91f94313	xori	x6,x18,-1761	 x18:0x00000001  x6=0xfffff91e
       50985000	      5097	80001dac	01963cb3	sltu	x25,x12,x25	 x12:0x00004007 x25:0xffffbf61 x25=0x00000001
       50995000	      5098	80001db0	ffce0e13	addi	x28,x28,-4	 x28:0xfffffff9 x28=0xfffffff5
       51005000	      5099	80001db4	007262b3	or	x5,x4,x7	  x4:0x80009fc4  x7:0x00000007  x5=0x80009fc7
       51015000	      5100	80001db8	00900513	addi	x10,x0,9	  x0:0x00000000 x10=0x00000009
       51025000	      5101	80001dbc	00700393	addi	x7,x0,7	  x0:0x00000000  x7=0x00000007
       51035000	      5102	80001dc0	00e48633	add	x12,x9,x14	  x9:0x00000001 x14:0x00004006 x12=0x00004007
       51045000	      5103	80001dc4	6cf6cb17	auipc	x22,0x6cf6c	 x22=0xecf6ddc0
       51055000	      5104	80001dc8	fff50513	addi	x10,x10,-1	 x10:0x00000009 x10=0x00000008
       51065000	      5105	80001dcc	fe757ce3	bgeu	x10,x7,80001dc4	 x10:0x00000008  x7:0x00000007
       51075000	      5106	00000000	00000013	addi	x0,x0,0	  x0:0x00000000
       51085000	      5107	80001dc0	00000013	addi	x0,x0,0	  x0:0x00000000
       51095000	      5108	80001dc4	6cf6cb17	auipc	x22,0x6cf6c	 x22=0xecf6ddc0
       51105000	      5109	80001dc8	fff50513	addi	x10,x10,-1	 x10:0x00000008 x10=0x00000007
       51115000	      5110	80001dcc	fe757ce3	bgeu	x10,x7,80001dc4	 x10:0x00000007  x7:0x00000007
       51125000	      5111	00000000	00000013	addi	x0,x0,0	  x0:0x00000000
       51135000	      5112	80001dc0	00000013	addi	x0,x0,0	  x0:0x00000000
       51145000	      5113	80001dc4	6cf6cb17	auipc	x22,0x6cf6c	 x22=0xecf6ddc0
       51155000	      5114	80001dc8	fff50513	addi	x10,x10,-1	 x10:0x00000007 x10=0x00000006
       51165000	      5115	80001dcc	fe757ce3	bgeu	x10,x7,80001dc4	 x10:0x00000006  x7:0x00000007
       51175000	      5116	80001dd0	015ad593	srli	x11,x21,0x15	 x21:0x7fff63fa x11=0x000003ff
       51185000	      5117	80001dd4	f6774c93	xori	x25,x14,-153	 x14:0x00004006 x25=0xffffbf61
       51195000	      5118	80001dd8	fc8e58e3	bge	x28,x8,80001da8	 x28:0xfffffff5  x8:0xfffffff4
       51205000	      5119	00000000	00000013	addi	x0,x0,0	  x0:0x00000000
       51215000	      5120	80001da4	00000013	addi	x0,x0,0	  x0:0x00000000
       51225000	      5121	80001da8	91f94313	xori	x6,x18,-1761	 x18:0x00000001  x6=0xfffff91e
       51235000	      5122	80001dac	01963cb3	sltu	x25,x12,x25	 x12:0x00004007 x25:0xffffbf61 x25=0x00000001
       51245000	      5123	80001db0	ffce0e13	addi	x28,x28,-4	 x28:0xfffffff5 x28=0xfffffff1
       51255000	      5124	80001db4	007262b3	or	x5,x4,x7	  x4:0x80009fc4  x7:0x00000007  x5=0x80009fc7
       51265000	      5125	80001db8	00900513	addi	x10,x0,9	  x0:0x00000000 x10=0x00000009
       51275000	      5126	80001dbc	00700393	addi	x7,x0,7	  x0:0x00000000  x7=0x00000007
       51285000	      5127	80001dc0	00e48633	add	x12,x9,x14	  x9:0x00000001 x14:0x00004006 x12=0x00004007
       51295000	      5128	80001dc4	6cf6cb17	auipc	x22,0x6cf6c	 x22=0xecf6ddc0
       51305000	      5129	80001dc8	fff50513	addi	x10,x10,-1	 x10:0x00000009 x10=0x00000008
       51315000	      5130	80001dcc	fe757ce3	bgeu	x10,x7,80001dc4	 x10:0x00000008  x7:0x00000007
       51325000	      5131	00000000	00000013	addi	x0,x0,0	  x0:0x00000000
       51335000	      5132	80001dc0	00000013	addi	x0,x0,0	  x0:0x00000000
       51345000	      5133	80001dc4	6cf6cb17	auipc	x22,0x6cf6c	 x22=0xecf6ddc0
       51355000	      5134	80001dc8	fff50513	addi	x10,x10,-1	 x10:0x00000008 x10=0x00000007
       51365000	      5135	80001dcc	fe757ce3	bgeu	x10,x7,80001dc4	 x10:0x00000007  x7:0x00000007
       51375000	      5136	00000000	00000013	addi	x0,x0,0	  x0:0x00000000
       51385000	      5137	80001dc0	00000013	addi	x0,x0,0	  x0:0x00000000
       51395000	      5138	80001dc4	6cf6cb17	auipc	x22,0x6cf6c	 x22=0xecf6ddc0
       51405000	      5139	80001dc8	fff50513	addi	x10,x10,-1	 x10:0x00000007 x10=0x00000006
       51415000	      5140	80001dcc	fe757ce3	bgeu	x10,x7,80001dc4	 x10:0x00000006  x7:0x00000007
       51425000	      5141	80001dd0	015ad593	srli	x11,x21,0x15	 x21:0x7fff63fa x11=0x000003ff
       51435000	      5142	80001dd4	f6774c93	xori	x25,x14,-153	 x14:0x00004006 x25=0xffffbf61
       51445000	      5143	80001dd8	fc8e58e3	bge	x28,x8,80001da8	 x28:0xfffffff1  x8:0xfffffff4
       51455000	      5144	80001ddc	00e32333	slt	x6,x6,x14	  x6:0xfffff91e x14:0x00004006  x6=0x00000001
       51465000	      5145	80001de0	ff700813	addi	x16,x0,-9	  x0:0x00000000 x16=0xfffffff7
       51475000	      5146	80001de4	4192d3b3	sra	x7,x5,x25	  x5:0x80009fc7 x25:0xffffbf61  x7=0xc0004fe3
       51485000	      5147	80001de8	00900d13	addi	x26,x0,9	  x0:0x00000000 x26=0x00000009
       51495000	      5148	80001dec	01d3c2b3	xor	x5,x7,x29	  x7:0xc0004fe3 x29:0x80009f60  x5=0x4000d083
       51505000	      5149	80001df0	9d354313	xori	x6,x10,-1581	 x10:0x00000006  x6=0xfffff9d5
       51515000	      5150	80001df4	00280813	addi	x16,x16,2	 x16:0xfffffff7 x16=0xfffffff9
       51525000	      5151	80001df8	ffa81ae3	bne	x16,x26,80001dec	 x16:0xfffffff9 x26:0x00000009
       51535000	      5152	00000000	00000013	addi	x0,x0,0	  x0:0x00000000
       51545000	      5153	80001de8	00000013	addi	x0,x0,0	  x0:0x00000000
       51555000	      5154	80001dec	01d3c2b3	xor	x5,x7,x29	  x7:0xc0004fe3 x29:0x80009f60  x5=0x4000d083
       51565000	      5155	80001df0	9d354313	xori	x6,x10,-1581	 x10:0x00000006  x6=0xfffff9d5
       51575000	      5156	80001df4	00280813	addi	x16,x16,2	 x16:0xfffffff9 x16=0xfffffffb
       51585000	      5157	80001df8	ffa81ae3	bne	x16,x26,80001dec	 x16:0xfffffffb x26:0x00000009
       51595000	      5158	00000000	00000013	addi	x0,x0,0	  x0:0x00000000
       51605000	      5159	80001de8	00000013	addi	x0,x0,0	  x0:0x00000000
       51615000	      5160	80001dec	01d3c2b3	xor	x5,x7,x29	  x7:0xc0004fe3 x29:0x80009f60  x5=0x4000d083
       51625000	      5161	80001df0	9d354313	xori	x6,x10,-1581	 x10:0x00000006  x6=0xfffff9d5
       51635000	      5162	80001df4	00280813	addi	x16,x16,2	 x16:0xfffffffb x16=0xfffffffd
       51645000	      5163	80001df8	ffa81ae3	bne	x16,x26,80001dec	 x16:0xfffffffd x26:0x00000009
       51655000	      5164	00000000	00000013	addi	x0,x0,0	  x0:0x00000000
       51665000	      5165	80001de8	00000013	addi	x0,x0,0	  x0:0x00000000
       51675000	      5166	80001dec	01d3c2b3	xor	x5,x7,x29	  x7:0xc0004fe3 x29:0x80009f60  x5=0x4000d083
       51685000	      5167	80001df0	9d354313	xori	x6,x10,-1581	 x10:0x00000006  x6=0xfffff9d5
       51695000	      5168	80001df4	00280813	addi	x16,x16,2	 x16:0xfffffffd x16=0xffffffff
       51705000	      5169	80001df8	ffa81ae3	bne	x16,x26,80001dec	 x16:0xffffffff x26:0x00000009
       51715000	      5170	00000000	00000013	addi	x0,x0,0	  x0:0x00000000
       51725000	      5171	80001de8	00000013	addi	x0,x0,0	  x0:0x00000000
       51735000	      5172	80001dec	01d3c2b3	xor	x5,x7,x29	  x7:0xc0004fe3 x29:0x80009f60  x5=0x4000d083
       51745000	      5173	80001df0	9d354313	xori	x6,x10,-1581	 x10:0x00000006  x6=0xfffff9d5
       51755000	      5174	80001df4	00280813	addi	x16,x16,2	 x16:0xffffffff x16=0x00000001
       51765000	      5175	80001df8	ffa81ae3	bne	x16,x26,80001dec	 x16:0x00000001 x26:0x00000009
       51775000	      5176	00000000	00000013	addi	x0,x0,0	  x0:0x00000000
       51785000	      5177	80001de8	00000013	addi	x0,x0,0	  x0:0x00000000
       51795000	      5178	80001dec	01d3c2b3	xor	x5,x7,x29	  x7:0xc0004fe3 x29:0x80009f60  x5=0x4000d083
       51805000	      5179	80001df0	9d354313	xori	x6,x10,-1581	 x10:0x00000006  x6=0xfffff9d5
       51815000	      5180	80001df4	00280813	addi	x16,x16,2	 x16:0x00000001 x16=0x00000003
       51825000	      5181	80001df8	ffa81ae3	bne	x16,x26,80001dec	 x16:0x00000003 x26:0x00000009
       51835000	      5182	00000000	00000013	addi	x0,x0,0	  x0:0x00000000
       51845000	      5183	80001de8	00000013	addi	x0,x0,0	  x0:0x00000000
       51855000	      5184	80001dec	01d3c2b3	xor	x5,x7,x29	  x7:0xc0004fe3 x29:0x80009f60  x5=0x4000d083
       51865000	      5185	80001df0	9d354313	xori	x6,x10,-1581	 x10:0x00000006  x6=0xfffff9d5
       51875000	      5186	80001df4	00280813	addi	x16,x16,2	 x16:0x00000003 x16=0x00000005
       51885000	      5187	80001df8	ffa81ae3	bne	x16,x26,80001dec	 x16:0x00000005 x26:0x00000009
       51895000	      5188	00000000	00000013	addi	x0,x0,0	  x0:0x00000000
       51905000	      5189	80001de8	00000013	addi	x0,x0,0	  x0:0x00000000
       51915000	      5190	80001dec	01d3c2b3	xor	x5,x7,x29	  x7:0xc0004fe3 x29:0x80009f60  x5=0x4000d083
       51925000	      5191	80001df0	9d354313	xori	x6,x10,-1581	 x10:0x00000006  x6=0xfffff9d5
       51935000	      5192	80001df4	00280813	addi	x16,x16,2	 x16:0x00000005 x16=0x00000007
       51945000	      5193	80001df8	ffa81ae3	bne	x16,x26,80001dec	 x16:0x00000007 x26:0x00000009
       51955000	      5194	00000000	00000013	addi	x0,x0,0	  x0:0x00000000
       51965000	      5195	80001de8	00000013	addi	x0,x0,0	  x0:0x00000000
       51975000	      5196	80001dec	01d3c2b3	xor	x5,x7,x29	  x7:0xc0004fe3 x29:0x80009f60  x5=0x4000d083
       51985000	      5197	80001df0	9d354313	xori	x6,x10,-1581	 x10:0x00000006  x6=0xfffff9d5
       51995000	      5198	80001df4	00280813	addi	x16,x16,2	 x16:0x00000007 x16=0x00000009
       52005000	      5199	80001df8	ffa81ae3	bne	x16,x26,80001dec	 x16:0x00000009 x26:0x00000009
       52015000	      5200	80001dfc	02f25e17	auipc	x28,0x2f25	 x28=0x82f26df8
       52025000	      5201	80001e00	00500c93	addi	x25,x0,5	  x0:0x00000000 x25=0x00000005
       52035000	      5202	80001e04	00c71e13	slli	x28,x14,0xc	 x14:0x00004006 x28=0x04006000
       52045000	      5203	80001e08	00400313	addi	x6,x0,4	  x0:0x00000000  x6=0x00000004
       52055000	      5204	80001e0c	00f650b3	srl	x1,x12,x15	 x12:0x00004007 x15:0x00000000  x1=0x00004007
       52065000	      5205	80001e10	015069b3	or	x19,x0,x21	  x0:0x00000000 x21:0x7fff63fa x19=0x7fff63fa
       52075000	      5206	80001e14	57040b93	addi	x23,x8,1392	  x8:0xfffffff4 x23=0x00000564
       52085000	      5207	80001e18	39673a93	sltiu	x21,x14,918	 x14:0x00004006 x21=0x00000000
       52095000	      5208	80001e1c	00000013	addi	x0,x0,0	  x0:0x00000000
       52105000	      5209	80001e20	01288c33	add	x24,x17,x18	 x17:0x00000001 x18:0x00000001 x24=0x00000002
       52115000	      5210	80001e24	0021b6b3	sltu	x13,x3,x2	  x3:0x000003a4  x2:0x00000030 x13=0x00000000
       52125000	      5211	80001e28	0086f933	and	x18,x13,x8	 x13:0x00000000  x8:0xfffffff4 x18=0x00000000
       52135000	      5212	80001e2c	ffdc8c93	addi	x25,x25,-3	 x25:0x00000005 x25=0x00000002
       52145000	      5213	80001e30	00900f93	addi	x31,x0,9	  x0:0x00000000 x31=0x00000009
       52155000	      5214	80001e34	0020d813	srli	x16,x1,0x2	  x1:0x00004007 x16=0x00001001
       52165000	      5215	80001e38	00b8e9b3	or	x19,x17,x11	 x17:0x00000001 x11:0x000003ff x19=0x000003ff
       52175000	      5216	80001e3c	ffd00113	addi	x2,x0,-3	  x0:0x00000000  x2=0xfffffffd
       52185000	      5217	80001e40	00000013	addi	x0,x0,0	  x0:0x00000000
       52195000	      5218	80001e44	1fb47e17	auipc	x28,0x1fb47	 x28=0x9fb48e40
       52205000	      5219	80001e48	ff6f8f93	addi	x31,x31,-10	 x31:0x00000009 x31=0xffffffff
       52215000	      5220	80001e4c	6093fb93	andi	x23,x7,1545	  x7:0xc0004fe3 x23=0x00000601
       52225000	      5221	80001e50	fe2fd8e3	bge	x31,x2,80001e40	 x31:0xffffffff  x2:0xfffffffd
       52235000	      5222	00000000	00000013	addi	x0,x0,0	  x0:0x00000000
       52245000	      5223	80001e3c	00000013	addi	x0,x0,0	  x0:0x00000000
       52255000	      5224	80001e40	00000013	addi	x0,x0,0	  x0:0x00000000
       52265000	      5225	80001e44	1fb47e17	auipc	x28,0x1fb47	 x28=0x9fb48e40
       52275000	      5226	80001e48	ff6f8f93	addi	x31,x31,-10	 x31:0xffffffff x31=0xfffffff5
       52285000	      5227	80001e4c	6093fb93	andi	x23,x7,1545	  x7:0xc0004fe3 x23=0x00000601
       52295000	      5228	80001e50	fe2fd8e3	bge	x31,x2,80001e40	 x31:0xfffffff5  x2:0xfffffffd
       52305000	      5229	80001e54	fc6cfae3	bgeu	x25,x6,80001e28	 x25:0x00000002  x6:0x00000004
       52315000	      5230	80001e58	528a6293	ori	x5,x20,1320	 x20:0xfffffff7  x5=0xffffffff
       52325000	      5231	80001e5c	00200513	addi	x10,x0,2	  x0:0x00000000 x10=0x00000002
       52335000	      5232	80001e60	00413e33	sltu	x28,x2,x4	  x2:0xfffffffd  x4:0x80009fc4 x28=0x00000000
       52345000	      5233	80001e64	002ec833	xor	x16,x29,x2	 x29:0x80009f60  x2:0xfffffffd x16=0x7fff609d
       52355000	      5234	80001e68	10e4e113	ori	x2,x9,270	  x9:0x00000001  x2=0x0000010f
       52365000	      5235	80001e6c	400b5c33	sra	x24,x22,x0	 x22:0xecf6ddc0  x0:0x00000000 x24=0xecf6ddc0
       52375000	      5236	80001e70	00300193	addi	x3,x0,3	  x0:0x00000000  x3=0x00000003
       52385000	      5237	80001e74	d16b9d17	auipc	x26,0xd16b9	 x26=0x516bae70
       52395000	      5238	80001e78	00350513	addi	x10,x10,3	 x10:0x00000002 x10=0x00000005
       52405000	      5239	80001e7c	00c902b3	add	x5,x18,x12	 x18:0x00000000 x12:0x00004007  x5=0x00004007
       52415000	      5240	80001e80	c9eeba13	sltiu	x20,x29,-866	 x29:0x80009f60 x20=0x00000001
       52425000	      5241	80001e84	00d7b2b3	sltu	x5,x15,x13	 x15:0x00000000 x13:0x00000000  x5=0x00000000
       52435000	      5242	80001e88	01f6da33	srl	x20,x13,x31	 x13:0x00000000 x31:0xfffffff5 x20=0x00000000
       52445000	      5243	80001e8c	01c08733	add	x14,x1,x28	  x1:0x00004007 x28:0x00000000 x14=0x00004007
       52455000	      5244	80001e90	41d9d693	srai	x13,x19,0x1d	 x19:0x000003ff x13=0x00000000
       52465000	      5245	80001e94	4c960813	addi	x16,x12,1225	 x12:0x00004007 x16=0x000044d0
       52475000	      5246	80001e98	00d21e13	slli	x28,x4,0xd	  x4:0x80009fc4 x28=0x13f88000
       52485000	      5247	80001e9c	fc354ce3	blt	x10,x3,80001e74	 x10:0x00000005  x3:0x00000003
       52495000	      5248	80001ea0	7bdf7393	andi	x7,x30,1981	 x30:0xfffffff7  x7=0x000007b5
       52505000	      5249	80001ea4	00000093	addi	x1,x0,0	  x0:0x00000000  x1=0x00000000
       52515000	      5250	80001ea8	018879b3	and	x19,x16,x24	 x16:0x000044d0 x24:0xecf6ddc0 x19=0x000044c0
       52525000	      5251	80001eac	01200d93	addi	x27,x0,18	  x0:0x00000000 x27=0x00000012
       52535000	      5252	80001eb0	000909b3	add	x19,x18,x0	 x18:0x00000000  x0:0x00000000 x19=0x00000000
       52545000	      5253	80001eb4	40ce86b3	sub	x13,x29,x12	 x29:0x80009f60 x12:0x00004007 x13=0x80005f59
       52555000	      5254	80001eb8	00908093	addi	x1,x1,9	  x1:0x00000000  x1=0x00000009
       52565000	      5255	80001ebc	ffb0cae3	blt	x1,x27,80001eb0	  x1:0x00000009 x27:0x00000012
       52575000	      5256	00000000	00000013	addi	x0,x0,0	  x0:0x00000000
       52585000	      5257	80001eac	00000013	addi	x0,x0,0	  x0:0x00000000
       52595000	      5258	80001eb0	000909b3	add	x19,x18,x0	 x18:0x00000000  x0:0x00000000 x19=0x00000000
       52605000	      5259	80001eb4	40ce86b3	sub	x13,x29,x12	 x29:0x80009f60 x12:0x00004007 x13=0x80005f59
       52615000	      5260	80001eb8	00908093	addi	x1,x1,9	  x1:0x00000009  x1=0x00000012
       52625000	      5261	80001ebc	ffb0cae3	blt	x1,x27,80001eb0	  x1:0x00000012 x27:0x00000012
       52635000	      5262	80001ec0	013f7733	and	x14,x30,x19	 x30:0xfffffff7 x19:0x00000000 x14=0x00000000
       52645000	      5263	80001ec4	ff800893	addi	x17,x0,-8	  x0:0x00000000 x17=0xfffffff8
       52655000	      5264	80001ec8	0006fb33	and	x22,x13,x0	 x13:0x80005f59  x0:0x00000000 x22=0x00000000
       52665000	      5265	80001ecc	0103d1b3	srl	x3,x7,x16	  x7:0x000007b5 x16:0x000044d0  x3=0x00000000
       52675000	      5266	80001ed0	35acc293	xori	x5,x25,858	 x25:0x00000002  x5=0x00000358
       52685000	      5267	80001ed4	41eb5313	srai	x6,x22,0x1e	 x22:0x00000000  x6=0x00000000
       52695000	      5268	80001ed8	1ae307b7	lui	x15,0x1ae30	 x15=0x1ae30000
       52705000	      5269	80001edc	0094e2b3	or	x5,x9,x9	  x9:0x00000001  x9:0x00000001  x5=0x00000001
       52715000	      5270	80001ee0	0109db93	srli	x23,x19,0x10	 x19:0x00000000 x23=0x00000000
       52725000	      5271	80001ee4	4be2a413	slti	x8,x5,1214	  x5:0x00000001  x8=0x00000001
       52735000	      5272	80001ee8	00bed093	srli	x1,x29,0xb	 x29:0x80009f60  x1=0x00100013
       52745000	      5273	80001eec	f991f917	auipc	x18,0xf991f	 x18=0x79920ee8
       52755000	      5274	80001ef0	00605f33	srl	x30,x0,x6	  x0:0x00000000  x6:0x00000000 x30=0x00000000
       52765000	      5275	80001ef4	ff000d93	addi	x27,x0,-16	  x0:0x00000000 x27=0xfffffff0
       52775000	      5276	80001ef8	00c55533	srl	x10,x10,x12	 x10:0x00000005 x12:0x00004007 x10=0x00000000
       52785000	      5277	80001efc	01693833	sltu	x16,x18,x22	 x18:0x79920ee8 x22:0x00000000 x16=0x00000000
       52795000	      5278	80001f00	5a3a3717	auipc	x14,0x5a3a3	 x14=0xda3a4efc
       52805000	      5279	80001f04	884ce813	ori	x16,x25,-1916	 x25:0x00000002 x16=0xfffff886
       52815000	      5280	80001f08	00eb5a13	srli	x20,x22,0xe	 x22:0x00000000 x20=0x00000000
       52825000	      5281	80001f0c	51fe4c13	xori	x24,x28,1311	 x28:0x13f88000 x24=0x13f8851f
       52835000	      5282	80001f10	55a2fa13	andi	x20,x5,1370	  x5:0x00000001 x20=0x00000000
       52845000	      5283	80001f14	1756bf13	sltiu	x30,x13,373	 x13:0x80005f59 x30=0x00000000
       52855000	      5284	80001f18	ff888893	addi	x17,x17,-8	 x17:0xfffffff8 x17=0xfffffff0
       52865000	      5285	80001f1c	00c50333	add	x6,x10,x12	 x10:0x00000000 x12:0x00004007  x6=0x00004007
       52875000	      5286	80001f20	00d6dc33	srl	x24,x13,x13	 x13:0x80005f59 x13:0x80005f59 x24=0x00000040
       52885000	      5287	80001f24	01b60133	add	x2,x12,x27	 x12:0x00004007 x27:0xfffffff0  x2=0x00003ff7
       52895000	      5288	80001f28	005347b3	xor	x15,x6,x5	  x6:0x00004007  x5:0x00000001 x15=0x00004006
       52905000	      5289	80001f2c	01d0aa33	slt	x20,x1,x29	  x1:0x00100013 x29:0x80009f60 x20=0x00000000
       52915000	      5290	80001f30	01781b93	slli	x23,x16,0x17	 x16:0xfffff886 x23=0x43000000
       52925000	      5291	80001f34	fdb884e3	beq	x17,x27,80001efc	 x17:0xfffffff0 x27:0xfffffff0
       52935000	      5292	00000000	00000013	addi	x0,x0,0	  x0:0x00000000
       52945000	      5293	80001ef8	00000013	addi	x0,x0,0	  x0:0x00000000
       52955000	      5294	80001efc	01693833	sltu	x16,x18,x22	 x18:0x79920ee8 x22:0x00000000 x16=0x00000000
       52965000	      5295	80001f00	5a3a3717	auipc	x14,0x5a3a3	 x14=0xda3a4efc
       52975000	      5296	80001f04	884ce813	ori	x16,x25,-1916	 x25:0x00000002 x16=0xfffff886
       52985000	      5297	80001f08	00eb5a13	srli	x20,x22,0xe	 x22:0x00000000 x20=0x00000000
       52995000	      5298	80001f0c	51fe4c13	xori	x24,x28,1311	 x28:0x13f88000 x24=0x13f8851f
       53005000	      5299	80001f10	55a2fa13	andi	x20,x5,1370	  x5:0x00000001 x20=0x00000000
       53015000	      5300	80001f14	1756bf13	sltiu	x30,x13,373	 x13:0x80005f59 x30=0x00000000
       53025000	      5301	80001f18	ff888893	addi	x17,x17,-8	 x17:0xfffffff0 x17=0xffffffe8
       53035000	      5302	80001f1c	00c50333	add	x6,x10,x12	 x10:0x00000000 x12:0x00004007  x6=0x00004007
       53045000	      5303	80001f20	00d6dc33	srl	x24,x13,x13	 x13:0x80005f59 x13:0x80005f59 x24=0x00000040
       53055000	      5304	80001f24	01b60133	add	x2,x12,x27	 x12:0x00004007 x27:0xfffffff0  x2=0x00003ff7
       53065000	      5305	80001f28	005347b3	xor	x15,x6,x5	  x6:0x00004007  x5:0x00000001 x15=0x00004006
       53075000	      5306	80001f2c	01d0aa33	slt	x20,x1,x29	  x1:0x00100013 x29:0x80009f60 x20=0x00000000
       53085000	      5307	80001f30	01781b93	slli	x23,x16,0x17	 x16:0xfffff886 x23=0x43000000
       53095000	      5308	80001f34	fdb884e3	beq	x17,x27,80001efc	 x17:0xffffffe8 x27:0xfffffff0
       53105000	      5309	80001f38	c3c6e7b7	lui	x15,0xc3c6e	 x15=0xc3c6e000
       53115000	      5310	80001f3c	00800893	addi	x17,x0,8	  x0:0x00000000 x17=0x00000008
       53125000	      5311	80001f40	00a00813	addi	x16,x0,10	  x0:0x00000000 x16=0x0000000a
       53135000	      5312	80001f44	0139e033	or	x0,x19,x19	 x19:0x00000000 x19:0x00000000
       53145000	      5313	80001f48	00a88893	addi	x17,x17,10	 x17:0x00000008 x17=0x00000012
       53155000	      5314	80001f4c	010747b3	xor	x15,x14,x16	 x14:0xda3a4efc x16:0x0000000a x15=0xda3a4ef6
       53165000	      5315	80001f50	8e64e513	ori	x10,x9,-1818	  x9:0x00000001 x10=0xfffff8e7
       53175000	      5316	80001f54	00800313	addi	x6,x0,8	  x0:0x00000000  x6=0x00000008
       53185000	      5317	80001f58	40a95433	sra	x8,x18,x10	 x18:0x79920ee8 x10:0xfffff8e7  x8=0x00f3241d
       53195000	      5318	80001f5c	41380bb3	sub	x23,x16,x19	 x16:0x0000000a x19:0x00000000 x23=0x0000000a
       53205000	      5319	80001f60	ff400a93	addi	x21,x0,-12	  x0:0x00000000 x21=0xfffffff4
       53215000	      5320	80001f64	2e01c913	xori	x18,x3,736	  x3:0x00000000 x18=0x000002e0
       53225000	      5321	80001f68	ffe30313	addi	x6,x6,-2	  x6:0x00000008  x6=0x00000006
       53235000	      5322	80001f6c	ff535ce3	bge	x6,x21,80001f64	  x6:0x00000006 x21:0xfffffff4
       53245000	      5323	00000000	00000013	addi	x0,x0,0	  x0:0x00000000
       53255000	      5324	80001f60	00000013	addi	x0,x0,0	  x0:0x00000000
       53265000	      5325	80001f64	2e01c913	xori	x18,x3,736	  x3:0x00000000 x18=0x000002e0
       53275000	      5326	80001f68	ffe30313	addi	x6,x6,-2	  x6:0x00000006  x6=0x00000004
       53285000	      5327	80001f6c	ff535ce3	bge	x6,x21,80001f64	  x6:0x00000004 x21:0xfffffff4
       53295000	      5328	00000000	00000013	addi	x0,x0,0	  x0:0x00000000
       53305000	      5329	80001f60	00000013	addi	x0,x0,0	  x0:0x00000000
       53315000	      5330	80001f64	2e01c913	xori	x18,x3,736	  x3:0x00000000 x18=0x000002e0
       53325000	      5331	80001f68	ffe30313	addi	x6,x6,-2	  x6:0x00000004  x6=0x00000002
       53335000	      5332	80001f6c	ff535ce3	bge	x6,x21,80001f64	  x6:0x00000002 x21:0xfffffff4
       53345000	      5333	00000000	00000013	addi	x0,x0,0	  x0:0x00000000
       53355000	      5334	80001f60	00000013	addi	x0,x0,0	  x0:0x00000000
       53365000	      5335	80001f64	2e01c913	xori	x18,x3,736	  x3:0x00000000 x18=0x000002e0
       53375000	      5336	80001f68	ffe30313	addi	x6,x6,-2	  x6:0x00000002  x6=0x00000000
       53385000	      5337	80001f6c	ff535ce3	bge	x6,x21,80001f64	  x6:0x00000000 x21:0xfffffff4
       53395000	      5338	00000000	00000013	addi	x0,x0,0	  x0:0x00000000
       53405000	      5339	80001f60	00000013	addi	x0,x0,0	  x0:0x00000000
       53415000	      5340	80001f64	2e01c913	xori	x18,x3,736	  x3:0x00000000 x18=0x000002e0
       53425000	      5341	80001f68	ffe30313	addi	x6,x6,-2	  x6:0x00000000  x6=0xfffffffe
       53435000	      5342	80001f6c	ff535ce3	bge	x6,x21,80001f64	  x6:0xfffffffe x21:0xfffffff4
       53445000	      5343	00000000	00000013	addi	x0,x0,0	  x0:0x00000000
       53455000	      5344	80001f60	00000013	addi	x0,x0,0	  x0:0x00000000
       53465000	      5345	80001f64	2e01c913	xori	x18,x3,736	  x3:0x00000000 x18=0x000002e0
       53475000	      5346	80001f68	ffe30313	addi	x6,x6,-2	  x6:0xfffffffe  x6=0xfffffffc
       53485000	      5347	80001f6c	ff535ce3	bge	x6,x21,80001f64	  x6:0xfffffffc x21:0xfffffff4
       53495000	      5348	00000000	00000013	addi	x0,x0,0	  x0:0x00000000
       53505000	      5349	80001f60	00000013	addi	x0,x0,0	  x0:0x00000000
       53515000	      5350	80001f64	2e01c913	xori	x18,x3,736	  x3:0x00000000 x18=0x000002e0
       53525000	      5351	80001f68	ffe30313	addi	x6,x6,-2	  x6:0xfffffffc  x6=0xfffffffa
       53535000	      5352	80001f6c	ff535ce3	bge	x6,x21,80001f64	  x6:0xfffffffa x21:0xfffffff4
       53545000	      5353	00000000	00000013	addi	x0,x0,0	  x0:0x00000000
       53555000	      5354	80001f60	00000013	addi	x0,x0,0	  x0:0x00000000
       53565000	      5355	80001f64	2e01c913	xori	x18,x3,736	  x3:0x00000000 x18=0x000002e0
       53575000	      5356	80001f68	ffe30313	addi	x6,x6,-2	  x6:0xfffffffa  x6=0xfffffff8
       53585000	      5357	80001f6c	ff535ce3	bge	x6,x21,80001f64	  x6:0xfffffff8 x21:0xfffffff4
       53595000	      5358	00000000	00000013	addi	x0,x0,0	  x0:0x00000000
       53605000	      5359	80001f60	00000013	addi	x0,x0,0	  x0:0x00000000
       53615000	      5360	80001f64	2e01c913	xori	x18,x3,736	  x3:0x00000000 x18=0x000002e0
       53625000	      5361	80001f68	ffe30313	addi	x6,x6,-2	  x6:0xfffffff8  x6=0xfffffff6
       53635000	      5362	80001f6c	ff535ce3	bge	x6,x21,80001f64	  x6:0xfffffff6 x21:0xfffffff4
       53645000	      5363	00000000	00000013	addi	x0,x0,0	  x0:0x00000000
       53655000	      5364	80001f60	00000013	addi	x0,x0,0	  x0:0x00000000
       53665000	      5365	80001f64	2e01c913	xori	x18,x3,736	  x3:0x00000000 x18=0x000002e0
       53675000	      5366	80001f68	ffe30313	addi	x6,x6,-2	  x6:0xfffffff6  x6=0xfffffff4
       53685000	      5367	80001f6c	ff535ce3	bge	x6,x21,80001f64	  x6:0xfffffff4 x21:0xfffffff4
       53695000	      5368	00000000	00000013	addi	x0,x0,0	  x0:0x00000000
       53705000	      5369	80001f60	00000013	addi	x0,x0,0	  x0:0x00000000
       53715000	      5370	80001f64	2e01c913	xori	x18,x3,736	  x3:0x00000000 x18=0x000002e0
       53725000	      5371	80001f68	ffe30313	addi	x6,x6,-2	  x6:0xfffffff4  x6=0xfffffff2
       53735000	      5372	80001f6c	ff535ce3	bge	x6,x21,80001f64	  x6:0xfffffff2 x21:0xfffffff4
       53745000	      5373	80001f70	b28be593	ori	x11,x23,-1240	 x23:0x0000000a x11=0xfffffb2a
       53755000	      5374	80001f74	fd08c8e3	blt	x17,x16,80001f44	 x17:0x00000012 x16:0x0000000a
       53765000	      5375	80001f78	01cde133	or	x2,x27,x28	 x27:0xfffffff0 x28:0x13f88000  x2=0xfffffff0
       53775000	      5376	80001f7c	34b60313	addi	x6,x12,843	 x12:0x00004007  x6=0x00004352
       53785000	      5377	80001f80	414bd0b3	sra	x1,x23,x20	 x23:0x0000000a x20:0x00000000  x1=0x0000000a
       53795000	      5378	80001f84	016dfb33	and	x22,x27,x22	 x27:0xfffffff0 x22:0x00000000 x22=0x00000000
       53805000	      5379	80001f88	de675837	lui	x16,0xde675	 x16=0xde675000
       53815000	      5380	80001f8c	15d87893	andi	x17,x16,349	 x16:0xde675000 x17=0x00000000
       53825000	      5381	80001f90	0473ec13	ori	x24,x7,71	  x7:0x000007b5 x24=0x000007f7
       53835000	      5382	80001f94	04a74663	blt	x14,x10,80001fe0	 x14:0xda3a4efc x10:0xfffff8e7
       53845000	      5383	00000000	00000013	addi	x0,x0,0	  x0:0x00000000
       53855000	      5384	80001fdc	00000013	addi	x0,x0,0	  x0:0x00000000
       53865000	      5385	80001fe0	0194de13	srli	x28,x9,0x19	  x9:0x00000001 x28=0x00000000
       53875000	      5386	80001fe4	41f2dc13	srai	x24,x5,0x1f	  x5:0x00000001 x24=0x00000000
       53885000	      5387	80001fe8	00000013	addi	x0,x0,0	  x0:0x00000000
       53895000	      5388	80001fec	010308b3	add	x17,x6,x16	  x6:0x00004352 x16:0xde675000 x17=0xde679352
       53905000	      5389	80001ff0	41550833	sub	x16,x10,x21	 x10:0xfffff8e7 x21:0xfffffff4 x16=0xfffff8f3
       53915000	      5390	80001ff4	019f9863	bne	x31,x25,80002004	 x31:0xfffffff5 x25:0x00000002
       53925000	      5391	00000000	00000013	addi	x0,x0,0	  x0:0x00000000
       53935000	      5392	80002000	00000013	addi	x0,x0,0	  x0:0x00000000
       53945000	      5393	80002004	41130a33	sub	x20,x6,x17	  x6:0x00004352 x17:0xde679352 x20=0x2198b000
       53955000	      5394	80002008	01d11ab3	sll	x21,x2,x29	  x2:0xfffffff0 x29:0x80009f60 x21=0xfffffff0
       53965000	      5395	8000200c	00bc27b3	slt	x15,x24,x11	 x24:0x00000000 x11:0xfffffb2a x15=0x00000000
       53975000	      5396	80002010	00667033	and	x0,x12,x6	 x12:0x00004007  x6:0x00004352
       53985000	      5397	80002014	e68c6737	lui	x14,0xe68c6	 x14=0xe68c6000
       53995000	      5398	80002018	4010ddb3	sra	x27,x1,x1	  x1:0x0000000a  x1:0x0000000a x27=0x00000000
       54005000	      5399	8000201c	01531193	slli	x3,x6,0x15	  x6:0x00004352  x3=0x6a400000
       54015000	      5400	80002020	02641c63	bne	x8,x6,80002058	  x8:0x00f3241d  x6:0x00004352
       54025000	      5401	00000000	00000013	addi	x0,x0,0	  x0:0x00000000
       54035000	      5402	80002054	00000013	addi	x0,x0,0	  x0:0x00000000
       54045000	      5403	80002058	01109c93	slli	x25,x1,0x11	  x1:0x0000000a x25=0x00140000
       54055000	      5404	8000205c	03e58663	beq	x11,x30,80002088	 x11:0xfffffb2a x30:0x00000000
       54065000	      5405	80002060	00000013	addi	x0,x0,0	  x0:0x00000000
       54075000	      5406	80002064	d96d6413	ori	x8,x26,-618	 x26:0x516bae70  x8=0xfffffff6
       54085000	      5407	80002068	640eff13	andi	x30,x29,1600	 x29:0x80009f60 x30=0x00000640
       54095000	      5408	8000206c	00000013	addi	x0,x0,0	  x0:0x00000000
       54105000	      5409	80002070	0170f863	bgeu	x1,x23,80002080	  x1:0x0000000a x23:0x0000000a
       54115000	      5410	00000000	00000013	addi	x0,x0,0	  x0:0x00000000
       54125000	      5411	8000207c	00000013	addi	x0,x0,0	  x0:0x00000000
       54135000	      5412	80002080	c3858813	addi	x16,x11,-968	 x11:0xfffffb2a x16=0xfffff762
       54145000	      5413	80002084	01ad9db3	sll	x27,x27,x26	 x27:0x00000000 x26:0x516bae70 x27=0x00000000
       54155000	      5414	80002088	01a6d693	srli	x13,x13,0x1a	 x13:0x80005f59 x13=0x00000020
       54165000	      5415	8000208c	04cf1863	bne	x30,x12,800020dc	 x30:0x00000640 x12:0x00004007
       54175000	      5416	00000000	00000013	addi	x0,x0,0	  x0:0x00000000
       54185000	      5417	800020d8	00000013	addi	x0,x0,0	  x0:0x00000000
       54195000	      5418	800020dc	40a0d293	srai	x5,x1,0xa	  x1:0x0000000a  x5=0x00000000
       54205000	      5419	800020e0	01b04d33	xor	x26,x0,x27	  x0:0x00000000 x27:0x00000000 x26=0x00000000
       54215000	      5420	800020e4	51c40713	addi	x14,x8,1308	  x8:0xfffffff6 x14=0x00000512
       54225000	      5421	800020e8	00a6b3b3	sltu	x7,x13,x10	 x13:0x00000020 x10:0xfffff8e7  x7=0x00000001
       54235000	      5422	800020ec	418d0833	sub	x16,x26,x24	 x26:0x00000000 x24:0x00000000 x16=0x00000000
       54245000	      5423	800020f0	02936063	bltu	x6,x9,80002110	  x6:0x00004352  x9:0x00000001
       54255000	      5424	800020f4	00000013	addi	x0,x0,0	  x0:0x00000000
       54265000	      5425	800020f8	01e57333	and	x6,x10,x30	 x10:0xfffff8e7 x30:0x00000640  x6=0x00000040
       54275000	      5426	800020fc	00f89593	slli	x11,x17,0xf	 x17:0xde679352 x11=0xc9a90000
       54285000	      5427	80002100	04338863	beq	x7,x3,80002150	  x7:0x00000001  x3:0x6a400000
       54295000	      5428	80002104	01754133	xor	x2,x10,x23	 x10:0xfffff8e7 x23:0x0000000a  x2=0xfffff8ed
       54305000	      5429	80002108	dde9f813	andi	x16,x19,-546	 x19:0x00000000 x16=0x00000000
       54315000	      5430	8000210c	82dc6797	auipc	x15,0x82dc6	 x15=0x02dc8108
       54325000	      5431	80002110	404f5313	srai	x6,x30,0x4	 x30:0x00000640  x6=0x00000064
       54335000	      5432	80002114	00000013	addi	x0,x0,0	  x0:0x00000000
       54345000	      5433	80002118	023d1c63	bne	x26,x3,80002150	 x26:0x00000000  x3:0x6a400000
       54355000	      5434	00000000	00000013	addi	x0,x0,0	  x0:0x00000000
       54365000	      5435	8000214c	00000013	addi	x0,x0,0	  x0:0x00000000
       54375000	      5436	80002150	3fedec13	ori	x24,x27,1022	 x27:0x00000000 x24=0x000003fe
       54385000	      5437	80002154	d38ae993	ori	x19,x21,-712	 x21:0xfffffff0 x19=0xfffffff8
       54395000	      5438	80002158	04fb8463	beq	x23,x15,800021a0	 x23:0x0000000a x15:0x02dc8108
       54405000	      5439	8000215c	01a84533	xor	x10,x16,x26	 x16:0x00000000 x26:0x00000000 x10=0x00000000
       54415000	      5440	80002160	0154fd33	and	x26,x9,x21	  x9:0x00000001 x21:0xfffffff0 x26=0x00000000
       54425000	      5441	80002164	029f9863	bne	x31,x9,80002194	 x31:0xfffffff5  x9:0x00000001
       54435000	      5442	00000000	00000013	addi	x0,x0,0	  x0:0x00000000
       54445000	      5443	80002190	00000013	addi	x0,x0,0	  x0:0x00000000
       54455000	      5444	80002194	44d7e513	ori	x10,x15,1101	 x15:0x02dc8108 x10=0x02dc854d
       54465000	      5445	80002198	0073b1b3	sltu	x3,x7,x7	  x7:0x00000001  x7:0x00000001  x3=0x00000000
       54475000	      5446	8000219c	03fe0c63	beq	x28,x31,800021d4	 x28:0x00000000 x31:0xfffffff5
       54485000	      5447	800021a0	40940b33	sub	x22,x8,x9	  x8:0xfffffff6  x9:0x00000001 x22=0xfffffff5
       54495000	      5448	800021a4	f7feaa93	slti	x21,x29,-129	 x29:0x80009f60 x21=0x00000001
       54505000	      5449	800021a8	66655437	lui	x8,0x66655	  x8=0x66655000
       54515000	      5450	800021ac	049fc863	blt	x31,x9,800021fc	 x31:0xfffffff5  x9:0x00000001
       54525000	      5451	00000000	00000013	addi	x0,x0,0	  x0:0x00000000
       54535000	      5452	800021f8	00000013	addi	x0,x0,0	  x0:0x00000000
       54545000	      5453	800021fc	012e4933	xor	x18,x28,x18	 x28:0x00000000 x18:0x000002e0 x18=0x000002e0
       54555000	      5454	80002200	012d4333	xor	x6,x26,x18	 x26:0x00000000 x18:0x000002e0  x6=0x000002e0
       54565000	      5455	80002204	41bd5693	srai	x13,x26,0x1b	 x26:0x00000000 x13=0x00000000
       54575000	      5456	80002208	40c10b33	sub	x22,x2,x12	  x2:0xfffff8ed x12:0x00004007 x22=0xffffb8e6
       54585000	      5457	8000220c	027d5c63	bge	x26,x7,80002244	 x26:0x00000000  x7:0x00000001
       54595000	      5458	80002210	a5a8f813	andi	x16,x17,-1446	 x17:0xde679352 x16=0xde679252
       54605000	      5459	80002214	00738a33	add	x20,x7,x7	  x7:0x00000001  x7:0x00000001 x20=0x00000002
       54615000	      5460	80002218	dc148797	auipc	x15,0xdc148	 x15=0x5c14a214
       54625000	      5461	8000221c	e1827293	andi	x5,x4,-488	  x4:0x80009fc4  x5=0x80009e00
       54635000	      5462	80002220	011ee933	or	x18,x29,x17	 x29:0x80009f60 x17:0xde679352 x18=0xde679f72
       54645000	      5463	80002224	7a132993	slti	x19,x6,1953	  x6:0x000002e0 x19=0x00000001
       54655000	      5464	80002228	00000013	addi	x0,x0,0	  x0:0x00000000
       54665000	      5465	8000222c	40138533	sub	x10,x7,x1	  x7:0x00000001  x1:0x0000000a x10=0xfffffff7
       54675000	      5466	80002230	00000013	addi	x0,x0,0	  x0:0x00000000
       54685000	      5467	80002234	00000013	addi	x0,x0,0	  x0:0x00000000
       54695000	      5468	80002238	01f42e33	slt	x28,x8,x31	  x8:0x66655000 x31:0xfffffff5 x28=0x00000000
       54705000	      5469	8000223c	002d9c13	slli	x24,x27,0x2	 x27:0x00000000 x24=0x00000000
       54715000	      5470	80002240	0172ef33	or	x30,x5,x23	  x5:0x80009e00 x23:0x0000000a x30=0x80009e0a
       54725000	      5471	80002244	408a8833	sub	x16,x21,x8	 x21:0x00000001  x8:0x66655000 x16=0x999ab001
       54735000	      5472	80002248	01239513	slli	x10,x7,0x12	  x7:0x00000001 x10=0x00040000
       54745000	      5473	8000224c	017afcb3	and	x25,x21,x23	 x21:0x00000001 x23:0x0000000a x25=0x00000000
       54755000	      5474	80002250	404d5033	sra	x0,x26,x4	 x26:0x00000000  x4:0x80009fc4
       54765000	      5475	80002254	00d899b3	sll	x19,x17,x13	 x17:0xde679352 x13:0x00000000 x19=0xde679352
       54775000	      5476	80002258	00010863	beq	x2,x0,80002268	  x2:0xfffff8ed  x0:0x00000000
       54785000	      5477	8000225c	c0a97793	andi	x15,x18,-1014	 x18:0xde679f72 x15=0xde679c02
       54795000	      5478	80002260	3bc87e13	andi	x28,x16,956	 x16:0x999ab001 x28=0x00000000
       54805000	      5479	80002264	2ee66f93	ori	x31,x12,750	 x12:0x00004007 x31=0x000042ef
       54815000	      5480	80002268	7c5d4a13	xori	x20,x26,1989	 x26:0x00000000 x20=0x000007c5
       54825000	      5481	8000226c	7cc72513	slti	x10,x14,1996	 x14:0x00000512 x10=0x00000001
       54835000	      5482	80002270	2c90ad17	auipc	x26,0x2c90a	 x26=0xac90c26c
       54845000	      5483	80002274	0140c433	xor	x8,x1,x20	  x1:0x0000000a x20:0x000007c5  x8=0x000007cf
       54855000	      5484	80002278	02364863	blt	x12,x3,800022a8	 x12:0x00004007  x3:0x00000000
       54865000	      5485	8000227c	00efacb3	slt	x25,x31,x14	 x31:0x000042ef x14:0x00000512 x25=0x00000000
       54875000	      5486	80002280	00f2d8b3	srl	x17,x5,x15	  x5:0x80009e00 x15:0xde679c02 x17=0x20002780
       54885000	      5487	80002284	03c05663	bge	x0,x28,800022b0	  x0:0x00000000 x28:0x00000000
       54895000	      5488	00000000	00000013	addi	x0,x0,0	  x0:0x00000000
       54905000	      5489	800022ac	00000013	addi	x0,x0,0	  x0:0x00000000
       54915000	      5490	800022b0	01259333	sll	x6,x11,x18	 x11:0xc9a90000 x18:0xde679f72  x6=0x00000000
       54925000	      5491	800022b4	01ec7cb3	and	x25,x24,x30	 x24:0x00000000 x30:0x80009e0a x25=0x00000000
       54935000	      5492	800022b8	01f3a533	slt	x10,x7,x31	  x7:0x00000001 x31:0x000042ef x10=0x00000001
       54945000	      5493	800022bc	03467663	bgeu	x12,x20,800022e8	 x12:0x00004007 x20:0x000007c5
       54955000	      5494	00000000	00000013	addi	x0,x0,0	  x0:0x00000000
       54965000	      5495	800022e4	00000013	addi	x0,x0,0	  x0:0x00000000
       54975000	      5496	800022e8	006cd813	srli	x16,x25,0x6	 x25:0x00000000 x16=0x00000000
       54985000	      5497	800022ec	01319cb3	sll	x25,x3,x19	  x3:0x00000000 x19:0xde679352 x25=0x00000000
       54995000	      5498	800022f0	012a5133	srl	x2,x20,x18	 x20:0x000007c5 x18:0xde679f72  x2=0x00000000
       55005000	      5499	800022f4	00baecb3	or	x25,x21,x11	 x21:0x00000001 x11:0xc9a90000 x25=0xc9a90001
       55015000	      5500	800022f8	012853b3	srl	x7,x16,x18	 x16:0x00000000 x18:0xde679f72  x7=0x00000000
       55025000	      5501	800022fc	032c4c63	blt	x24,x18,80002334	 x24:0x00000000 x18:0xde679f72
       55035000	      5502	80002300	5442fb13	andi	x22,x5,1348	  x5:0x80009e00 x22=0x00000400
       55045000	      5503	80002304	03905463	bge	x0,x25,8000232c	  x0:0x00000000 x25:0xc9a90001
       55055000	      5504	00000000	00000013	addi	x0,x0,0	  x0:0x00000000
       55065000	      5505	80002328	00000013	addi	x0,x0,0	  x0:0x00000000
       55075000	      5506	8000232c	02d60063	beq	x12,x13,8000234c	 x12:0x00004007 x13:0x00000000
       55085000	      5507	80002330	044de263	bltu	x27,x4,80002374	 x27:0x00000000  x4:0x80009fc4
       55095000	      5508	00000000	00000013	addi	x0,x0,0	  x0:0x00000000
       55105000	      5509	80002370	00000013	addi	x0,x0,0	  x0:0x00000000
       55115000	      5510	80002374	01380433	add	x8,x16,x19	 x16:0x00000000 x19:0xde679352  x8=0xde679352
       55125000	      5511	80002378	33ec1bb7	lui	x23,0x33ec1	 x23=0x33ec1000
       55135000	      5512	8000237c	07e39a63	bne	x7,x30,800023f0	  x7:0x00000000 x30:0x80009e0a
       55145000	      5513	00000000	00000013	addi	x0,x0,0	  x0:0x00000000
       55155000	      5514	800023ec	00000013	addi	x0,x0,0	  x0:0x00000000
       55165000	      5515	800023f0	00049293	slli	x5,x9,0x0	  x9:0x00000001  x5=0x00000001
       55175000	      5516	800023f4	00732433	slt	x8,x6,x7	  x6:0x00000000  x7:0x00000000  x8=0x00000000
       55185000	      5517	800023f8	049f8663	beq	x31,x9,80002444	 x31:0x000042ef  x9:0x00000001
       55195000	      5518	800023fc	01e1f863	bgeu	x3,x30,8000240c	  x3:0x00000000 x30:0x80009e0a
       55205000	      5519	80002400	05744813	xori	x16,x8,87	  x8:0x00000000 x16=0x00000057
       55215000	      5520	80002404	0279cc63	blt	x19,x7,8000243c	 x19:0xde679352  x7:0x00000000
       55225000	      5521	00000000	00000013	addi	x0,x0,0	  x0:0x00000000
       55235000	      5522	80002438	00000013	addi	x0,x0,0	  x0:0x00000000
       55245000	      5523	8000243c	4057d133	sra	x2,x15,x5	 x15:0xde679c02  x5:0x00000001  x2=0xef33ce01
       55255000	      5524	80002440	9a3d4397	auipc	x7,0x9a3d4	  x7=0x1a3d643c
       55265000	      5525	80002444	004cea33	or	x20,x25,x4	 x25:0xc9a90001  x4:0x80009fc4 x20=0xc9a99fc5
       55275000	      5526	80002448	009bd133	srl	x2,x23,x9	 x23:0x33ec1000  x9:0x00000001  x2=0x19f60800
       55285000	      5527	8000244c	03d0cc63	blt	x1,x29,80002484	  x1:0x0000000a x29:0x80009f60
       55295000	      5528	80002450	05fcc063	blt	x25,x31,80002490	 x25:0xc9a90001 x31:0x000042ef
       55305000	      5529	00000000	00000013	addi	x0,x0,0	  x0:0x00000000
       55315000	      5530	8000248c	00000013	addi	x0,x0,0	  x0:0x00000000
       55325000	      5531	80002490	02d59c63	bne	x11,x13,800024c8	 x11:0xc9a90000 x13:0x00000000
       55335000	      5532	00000000	00000013	addi	x0,x0,0	  x0:0x00000000
       55345000	      5533	800024c4	00000013	addi	x0,x0,0	  x0:0x00000000
       55355000	      5534	800024c8	00b94533	xor	x10,x18,x11	 x18:0xde679f72 x11:0xc9a90000 x10=0x17ce9f72
       55365000	      5535	800024cc	0408e863	bltu	x17,x0,8000251c	 x17:0x20002780  x0:0x00000000
       55375000	      5536	800024d0	01bd5b33	srl	x22,x26,x27	 x26:0xac90c26c x27:0x00000000 x22=0xac90c26c
       55385000	      5537	800024d4	e4d57193	andi	x3,x10,-435	 x10:0x17ce9f72  x3=0x17ce9e40
       55395000	      5538	800024d8	76406b13	ori	x22,x0,1892	  x0:0x00000000 x22=0x00000764
       55405000	      5539	800024dc	bff33893	sltiu	x17,x6,-1025	  x6:0x00000000 x17=0x00000001
       55415000	      5540	800024e0	04cde793	ori	x15,x27,76	 x27:0x00000000 x15=0x0000004c
       55425000	      5541	800024e4	01d03bb3	sltu	x23,x0,x29	  x0:0x00000000 x29:0x80009f60 x23=0x00000001
       55435000	      5542	800024e8	016a9313	slli	x6,x21,0x16	 x21:0x00000001  x6=0x00400000
       55445000	      5543	800024ec	00a31893	slli	x17,x6,0xa	  x6:0x00400000 x17=0x00000000
       55455000	      5544	800024f0	417e85b3	sub	x11,x29,x23	 x29:0x80009f60 x23:0x00000001 x11=0x80009f5f
       55465000	      5545	800024f4	035f9c63	bne	x31,x21,8000252c	 x31:0x000042ef x21:0x00000001
       55475000	      5546	00000000	00000013	addi	x0,x0,0	  x0:0x00000000
       55485000	      5547	80002528	00000013	addi	x0,x0,0	  x0:0x00000000
       55495000	      5548	8000252c	4195d9b3	sra	x19,x11,x25	 x11:0x80009f5f x25:0xc9a90001 x19=0xc0004faf
       55505000	      5549	80002530	01198fb3	add	x31,x19,x17	 x19:0xc0004faf x17:0x00000000 x31=0xc0004faf
       55515000	      5550	80002534	41f65833	sra	x16,x12,x31	 x12:0x00004007 x31:0xc0004faf x16=0x00000000
       55525000	      5551	80002538	03fa0e63	beq	x20,x31,80002574	 x20:0xc9a99fc5 x31:0xc0004faf
       55535000	      5552	8000253c	b64b7397	auipc	x7,0xb64b7	  x7=0x364b9538
       55545000	      5553	80002540	8f9f4517	auipc	x10,0x8f9f4	 x10=0x0f9f653c
       55555000	      5554	80002544	007cfdb3	and	x27,x25,x7	 x25:0xc9a90001  x7:0x364b9538 x27=0x00090000
       55565000	      5555	80002548	00813f33	sltu	x30,x2,x8	  x2:0x19f60800  x8:0x00000000 x30=0x00000000
       55575000	      5556	8000254c	41cd5ab3	sra	x21,x26,x28	 x26:0xac90c26c x28:0x00000000 x21=0xac90c26c
       55585000	      5557	80002550	0151f833	and	x16,x3,x21	  x3:0x17ce9e40 x21:0xac90c26c x16=0x04808240
       55595000	      5558	80002554	36674393	xori	x7,x14,870	 x14:0x00000512  x7=0x00000674
       55605000	      5559	80002558	01377433	and	x8,x14,x19	 x14:0x00000512 x19:0xc0004faf  x8=0x00000502
       55615000	      5560	8000255c	01b0dc93	srli	x25,x1,0x1b	  x1:0x0000000a x25=0x00000000
       55625000	      5561	80002560	02ab6863	bltu	x22,x10,80002590	 x22:0x00000764 x10:0x0f9f653c
       55635000	      5562	00000000	00000013	addi	x0,x0,0	  x0:0x00000000
       55645000	      5563	8000258c	00000013	addi	x0,x0,0	  x0:0x00000000
       55655000	      5564	80002590	00898933	add	x18,x19,x8	 x19:0xc0004faf  x8:0x00000502 x18=0xc00054b1
       55665000	      5565	80002594	c292f113	andi	x2,x5,-983	  x5:0x00000001  x2=0x00000001
       55675000	      5566	80002598	00c26c33	or	x24,x4,x12	  x4:0x80009fc4 x12:0x00004007 x24=0x8000dfc7
       55685000	      5567	8000259c	01745a33	srl	x20,x8,x23	  x8:0x00000502 x23:0x00000001 x20=0x00000281
       55695000	      5568	800025a0	29b9aa93	slti	x21,x19,667	 x19:0xc0004faf x21=0x00000001
       55705000	      5569	800025a4	02069063	bne	x13,x0,800025c4	 x13:0x00000000  x0:0x00000000
       55715000	      5570	800025a8	f3a84837	lui	x16,0xf3a84	 x16=0xf3a84000
       55725000	      5571	800025ac	01ef6c63	bltu	x30,x30,800025c4	 x30:0x00000000 x30:0x00000000
       55735000	      5572	800025b0	01321e13	slli	x28,x4,0x13	  x4:0x80009fc4 x28=0xfe200000
       55745000	      5573	800025b4	40295ab3	sra	x21,x18,x2	 x18:0xc00054b1  x2:0x00000001 x21=0xe0002a58
       55755000	      5574	800025b8	04ad4463	blt	x26,x10,80002600	 x26:0xac90c26c x10:0x0f9f653c
       55765000	      5575	00000000	00000013	addi	x0,x0,0	  x0:0x00000000
       55775000	      5576	800025fc	00000013	addi	x0,x0,0	  x0:0x00000000
       55785000	      5577	80002600	41705b93	srai	x23,x0,0x17	  x0:0x00000000 x23=0x00000000
       55795000	      5578	80002604	04c5e663	bltu	x11,x12,80002650	 x11:0x80009f5f x12:0x00004007
       55805000	      5579	80002608	40f7d3b3	sra	x7,x15,x15	 x15:0x0000004c x15:0x0000004c  x7=0x00000000
       55815000	      5580	8000260c	00000013	addi	x0,x0,0	  x0:0x00000000
       55825000	      5581	80002610	00d0d8b3	srl	x17,x1,x13	  x1:0x0000000a x13:0x00000000 x17=0x0000000a
       55835000	      5582	80002614	01e71d93	slli	x27,x14,0x1e	 x14:0x00000512 x27=0x80000000
       55845000	      5583	80002618	fd35f813	andi	x16,x11,-45	 x11:0x80009f5f x16=0x80009f53
       55855000	      5584	8000261c	03720c63	beq	x4,x23,80002654	  x4:0x80009fc4 x23:0x00000000
       55865000	      5585	80002620	9faaa013	slti	x0,x21,-1542	 x21:0xe0002a58
       55875000	      5586	80002624	4120ddb3	sra	x27,x1,x18	  x1:0x0000000a x18:0xc00054b1 x27=0x00000000
       55885000	      5587	80002628	02224063	blt	x4,x2,80002648	  x4:0x80009fc4  x2:0x00000001
       55895000	      5588	00000000	00000013	addi	x0,x0,0	  x0:0x00000000
       55905000	      5589	80002644	00000013	addi	x0,x0,0	  x0:0x00000000
       55915000	      5590	80002648	04597863	bgeu	x18,x5,80002698	 x18:0xc00054b1  x5:0x00000001
       55925000	      5591	00000000	00000013	addi	x0,x0,0	  x0:0x00000000
       55935000	      5592	80002694	00000013	addi	x0,x0,0	  x0:0x00000000
       55945000	      5593	80002698	05865863	bge	x12,x24,800026e8	 x12:0x00004007 x24:0x8000dfc7
       55955000	      5594	00000000	00000013	addi	x0,x0,0	  x0:0x00000000
       55965000	      5595	800026e4	00000013	addi	x0,x0,0	  x0:0x00000000
       55975000	      5596	800026e8	172a3013	sltiu	x0,x20,370	 x20:0x00000281
       55985000	      5597	800026ec	004d99b3	sll	x19,x27,x4	 x27:0x00000000  x4:0x80009fc4 x19=0x00000000
       55995000	      5598	800026f0	19fc0c13	addi	x24,x24,415	 x24:0x8000dfc7 x24=0x8000e166
       56005000	      5599	800026f4	00c75133	srl	x2,x14,x12	 x14:0x00000512 x12:0x00004007  x2=0x0000000a
       56015000	      5600	800026f8	00000013	addi	x0,x0,0	  x0:0x00000000
       56025000	      5601	800026fc	053b8263	beq	x23,x19,80002740	 x23:0x00000000 x19:0x00000000
       56035000	      5602	00000000	00000013	addi	x0,x0,0	  x0:0x00000000
       56045000	      5603	8000273c	00000013	addi	x0,x0,0	  x0:0x00000000
       56055000	      5604	80002740	02fa7863	bgeu	x20,x15,80002770	 x20:0x00000281 x15:0x0000004c
       56065000	      5605	00000000	00000013	addi	x0,x0,0	  x0:0x00000000
       56075000	      5606	8000276c	00000013	addi	x0,x0,0	  x0:0x00000000
       56085000	      5607	80002770	04a27263	bgeu	x4,x10,800027b4	  x4:0x80009fc4 x10:0x0f9f653c
       56095000	      5608	00000000	00000013	addi	x0,x0,0	  x0:0x00000000
       56105000	      5609	800027b0	00000013	addi	x0,x0,0	  x0:0x00000000
       56115000	      5610	800027b4	01cbdd13	srli	x26,x23,0x1c	 x23:0x00000000 x26=0x00000000
       56125000	      5611	800027b8	40b80333	sub	x6,x16,x11	 x16:0x80009f53 x11:0x80009f5f  x6=0xfffffff4
       56135000	      5612	800027bc	c737c593	xori	x11,x15,-909	 x15:0x0000004c x11=0xfffffc3f
       56145000	      5613	800027c0	01601833	sll	x16,x0,x22	  x0:0x00000000 x22:0x00000764 x16=0x00000000
       56155000	      5614	800027c4	008ddd93	srli	x27,x27,0x8	 x27:0x00000000 x27=0x00000000
       56165000	      5615	800027c8	b69ab717	auipc	x14,0xb69ab	 x14=0x369ad7c4
       56175000	      5616	800027cc	052def13	ori	x30,x27,82	 x27:0x00000000 x30=0x00000052
       56185000	      5617	800027d0	4021d413	srai	x8,x3,0x2	  x3:0x17ce9e40  x8=0x05f3a790
       56195000	      5618	800027d4	00585813	srli	x16,x16,0x5	 x16:0x00000000 x16=0x00000000
       56205000	      5619	800027d8	00b39ab3	sll	x21,x7,x11	  x7:0x00000000 x11:0xfffffc3f x21=0x00000000
       56215000	      5620	800027dc	4f4a4b13	xori	x22,x20,1268	 x20:0x00000281 x22=0x00000675
       56225000	      5621	800027e0	04600663	beq	x0,x6,8000282c	  x0:0x00000000  x6:0xfffffff4
       56235000	      5622	800027e4	b1350013	addi	x0,x10,-1261	 x10:0x0f9f653c
       56245000	      5623	800027e8	00b45863	bge	x8,x11,800027f8	  x8:0x05f3a790 x11:0xfffffc3f
       56255000	      5624	00000000	00000013	addi	x0,x0,0	  x0:0x00000000
       56265000	      5625	800027f4	00000013	addi	x0,x0,0	  x0:0x00000000
       56275000	      5626	800027f8	1930a693	slti	x13,x1,403	  x1:0x0000000a x13=0x00000001
       56285000	      5627	800027fc	400ad013	srai	x0,x21,0x0	 x21:0x00000000
       56295000	      5628	80002800	02e59663	bne	x11,x14,8000282c	 x11:0xfffffc3f x14:0x369ad7c4
       56305000	      5629	00000000	00000013	addi	x0,x0,0	  x0:0x00000000
       56315000	      5630	80002828	00000013	addi	x0,x0,0	  x0:0x00000000
       56325000	      5631	8000282c	011aa6b3	slt	x13,x21,x17	 x21:0x00000000 x17:0x0000000a x13=0x00000001
       56335000	      5632	80002830	0164c863	blt	x9,x22,80002840	  x9:0x00000001 x22:0x00000675
       56345000	      5633	00000000	00000013	addi	x0,x0,0	  x0:0x00000000
       56355000	      5634	8000283c	00000013	addi	x0,x0,0	  x0:0x00000000
       56365000	      5635	80002840	812db637	lui	x12,0x812db	 x12=0x812db000
       56375000	      5636	80002844	00955cb3	srl	x25,x10,x9	 x10:0x0f9f653c  x9:0x00000001 x25=0x07cfb29e
       56385000	      5637	80002848	01691693	slli	x13,x18,0x16	 x18:0xc00054b1 x13=0x2c400000
       56395000	      5638	8000284c	01501993	slli	x19,x0,0x15	  x0:0x00000000 x19=0x00000000
       56405000	      5639	80002850	004b3a33	sltu	x20,x22,x4	 x22:0x00000675  x4:0x80009fc4 x20=0x00000001
       56415000	      5640	80002854	00c27c63	bgeu	x4,x12,8000286c	  x4:0x80009fc4 x12:0x812db000
       56425000	      5641	80002858	00a0d633	srl	x12,x1,x10	  x1:0x0000000a x10:0x0f9f653c x12=0x00000000
       56435000	      5642	8000285c	002ccb33	xor	x22,x25,x2	 x25:0x07cfb29e  x2:0x0000000a x22=0x07cfb294
       56445000	      5643	80002860	4191d3b3	sra	x7,x3,x25	  x3:0x17ce9e40 x25:0x07cfb29e  x7=0x00000000
       56455000	      5644	80002864	0233cc63	blt	x7,x3,8000289c	  x7:0x00000000  x3:0x17ce9e40
       56465000	      5645	00000000	00000013	addi	x0,x0,0	  x0:0x00000000
       56475000	      5646	80002898	00000013	addi	x0,x0,0	  x0:0x00000000
       56485000	      5647	8000289c	057f7063	bgeu	x30,x23,800028dc	 x30:0x00000052 x23:0x00000000
       56495000	      5648	00000000	00000013	addi	x0,x0,0	  x0:0x00000000
       56505000	      5649	800028d8	00000013	addi	x0,x0,0	  x0:0x00000000
       56515000	      5650	800028dc	2fc33c93	sltiu	x25,x6,764	  x6:0xfffffff4 x25=0x00000000
       56525000	      5651	800028e0	00d46433	or	x8,x8,x13	  x8:0x05f3a790 x13:0x2c400000  x8=0x2df3a790
       56535000	      5652	800028e4	03421c63	bne	x4,x20,8000291c	  x4:0x80009fc4 x20:0x00000001
       56545000	      5653	00000000	00000013	addi	x0,x0,0	  x0:0x00000000
       56555000	      5654	80002918	00000013	addi	x0,x0,0	  x0:0x00000000
       56565000	      5655	8000291c	4174db13	srai	x22,x9,0x17	  x9:0x00000001 x22=0x00000000
       56575000	      5656	80002920	01d6df93	srli	x31,x13,0x1d	 x13:0x2c400000 x31=0x00000001
       56585000	      5657	80002924	01ca02b3	add	x5,x20,x28	 x20:0x00000001 x28:0xfe200000  x5=0xfe200001
       56595000	      5658	80002928	01e01513	slli	x10,x0,0x1e	  x0:0x00000000 x10=0x00000000
       56605000	      5659	8000292c	00650433	add	x8,x10,x6	 x10:0x00000000  x6:0xfffffff4  x8=0xfffffff4
       56615000	      5660	80002930	01e92e33	slt	x28,x18,x30	 x18:0xc00054b1 x30:0x00000052 x28=0x00000001
       56625000	      5661	80002934	26711db7	lui	x27,0x26711	 x27=0x26711000
       56635000	      5662	80002938	cfacf693	andi	x13,x25,-774	 x25:0x00000000 x13=0x00000000
       56645000	      5663	8000293c	36c7c813	xori	x16,x15,876	 x15:0x0000004c x16=0x00000320
       56655000	      5664	80002940	0019cab3	xor	x21,x19,x1	 x19:0x00000000  x1:0x0000000a x21=0x0000000a
       56665000	      5665	80002944	006ce863	bltu	x25,x6,80002954	 x25:0x00000000  x6:0xfffffff4
       56675000	      5666	00000000	00000013	addi	x0,x0,0	  x0:0x00000000
       56685000	      5667	80002950	00000013	addi	x0,x0,0	  x0:0x00000000
       56695000	      5668	80002954	04d36463	bltu	x6,x13,8000299c	  x6:0xfffffff4 x13:0x00000000
       56705000	      5669	80002958	001c9713	slli	x14,x25,0x1	 x25:0x00000000 x14=0x00000000
       56715000	      5670	8000295c	4142d3b3	sra	x7,x5,x20	  x5:0xfe200001 x20:0x00000001  x7=0xff100000
       56725000	      5671	80002960	01a20033	add	x0,x4,x26	  x4:0x80009fc4 x26:0x00000000
       56735000	      5672	80002964	00000013	addi	x0,x0,0	  x0:0x00000000
       56745000	      5673	80002968	24f2e393	ori	x7,x5,591	  x5:0xfe200001  x7=0xfe20024f
       56755000	      5674	8000296c	00581013	slli	x0,x16,0x5	 x16:0x00000320
       56765000	      5675	80002970	414c5ab3	sra	x21,x24,x20	 x24:0x8000e166 x20:0x00000001 x21=0xc00070b3
       56775000	      5676	80002974	0338c863	blt	x17,x19,800029a4	 x17:0x0000000a x19:0x00000000
       56785000	      5677	80002978	0143e933	or	x18,x7,x20	  x7:0xfe20024f x20:0x00000001 x18=0xfe20024f
       56795000	      5678	8000297c	03f1d663	bge	x3,x31,800029a8	  x3:0x17ce9e40 x31:0x00000001
       56805000	      5679	00000000	00000013	addi	x0,x0,0	  x0:0x00000000
       56815000	      5680	800029a4	00000013	addi	x0,x0,0	  x0:0x00000000
       56825000	      5681	800029a8	018c9d13	slli	x26,x25,0x18	 x25:0x00000000 x26=0x00000000
       56835000	      5682	800029ac	f4d20713	addi	x14,x4,-179	  x4:0x80009fc4 x14=0x80009f11
       56845000	      5683	800029b0	416f0fb3	sub	x31,x30,x22	 x30:0x00000052 x22:0x00000000 x31=0x00000052
       56855000	      5684	800029b4	05c5f863	bgeu	x11,x28,80002a04	 x11:0xfffffc3f x28:0x00000001
       56865000	      5685	00000000	00000013	addi	x0,x0,0	  x0:0x00000000
       56875000	      5686	80002a00	00000013	addi	x0,x0,0	  x0:0x00000000
       56885000	      5687	80002a04	0177d113	srli	x2,x15,0x17	 x15:0x0000004c  x2=0x00000000
       56895000	      5688	80002a08	009a8db3	add	x27,x21,x9	 x21:0xc00070b3  x9:0x00000001 x27=0xc00070b4
       56905000	      5689	80002a0c	b73ac113	xori	x2,x21,-1165	 x21:0xc00070b3  x2=0x3fff8bc0
       56915000	      5690	80002a10	007ea8b3	slt	x17,x29,x7	 x29:0x80009f60  x7:0xfe20024f x17=0x00000001
       56925000	      5691	80002a14	46172c13	slti	x24,x14,1121	 x14:0x80009f11 x24=0x00000001
       56935000	      5692	80002a18	65934113	xori	x2,x6,1625	  x6:0xfffffff4  x2=0xfffff9ad
       56945000	      5693	80002a1c	00805f93	srli	x31,x0,0x8	  x0:0x00000000 x31=0x00000000
       56955000	      5694	80002a20	2b35b2b7	lui	x5,0x2b35b	  x5=0x2b35b000
       56965000	      5695	80002a24	0487f263	bgeu	x15,x8,80002a68	 x15:0x0000004c  x8:0xfffffff4
       56975000	      5696	80002a28	4633ce13	xori	x28,x7,1123	  x7:0xfe20024f x28=0xfe20062c
       56985000	      5697	80002a2c	41415093	srai	x1,x2,0x14	  x2:0xfffff9ad  x1=0xffffffff
       56995000	      5698	80002a30	5cb0a293	slti	x5,x1,1483	  x1:0xffffffff  x5=0x00000001
       57005000	      5699	80002a34	17c90a93	addi	x21,x18,380	 x18:0xfe20024f x21=0xfe2003cb
       57015000	      5700	80002a38	009b5d13	srli	x26,x22,0x9	 x22:0x00000000 x26=0x00000000
       57025000	      5701	80002a3c	44420d13	addi	x26,x4,1092	  x4:0x80009fc4 x26=0x8000a408
       57035000	      5702	80002a40	0103e863	bltu	x7,x16,80002a50	  x7:0xfe20024f x16:0x00000320
       57045000	      5703	80002a44	03fa0863	beq	x20,x31,80002a74	 x20:0x00000001 x31:0x00000000
       57055000	      5704	80002a48	01439913	slli	x18,x7,0x14	  x7:0xfe20024f x18=0x24f00000
       57065000	      5705	80002a4c	03c2ec63	bltu	x5,x28,80002a84	  x5:0x00000001 x28:0xfe20062c
       57075000	      5706	00000000	00000013	addi	x0,x0,0	  x0:0x00000000
       57085000	      5707	80002a80	00000013	addi	x0,x0,0	  x0:0x00000000
       57095000	      5708	80002a84	00647863	bgeu	x8,x6,80002a94	  x8:0xfffffff4  x6:0xfffffff4
       57105000	      5709	00000000	00000013	addi	x0,x0,0	  x0:0x00000000
       57115000	      5710	80002a90	00000013	addi	x0,x0,0	  x0:0x00000000
       57125000	      5711	80002a94	00c6d733	srl	x14,x13,x12	 x13:0x00000000 x12:0x00000000 x14=0x00000000
       57135000	      5712	80002a98	0091ea33	or	x20,x3,x9	  x3:0x17ce9e40  x9:0x00000001 x20=0x17ce9e41
       57145000	      5713	80002a9c	a2312093	slti	x1,x2,-1501	  x2:0xfffff9ad  x1=0x00000001
       57155000	      5714	80002aa0	004b9593	slli	x11,x23,0x4	 x23:0x00000000 x11=0x00000000
       57165000	      5715	80002aa4	03585063	bge	x16,x21,80002ac4	 x16:0x00000320 x21:0xfe2003cb
       57175000	      5716	00000000	00000013	addi	x0,x0,0	  x0:0x00000000
       57185000	      5717	80002ac0	00000013	addi	x0,x0,0	  x0:0x00000000
       57195000	      5718	80002ac4	9c10ac13	slti	x24,x1,-1599	  x1:0x00000001 x24=0x00000000
       57205000	      5719	80002ac8	010bf833	and	x16,x23,x16	 x23:0x00000000 x16:0x00000320 x16=0x00000000
       57215000	      5720	80002acc	4aaf3793	sltiu	x15,x30,1194	 x30:0x00000052 x15=0x00000001
       57225000	      5721	80002ad0	005fa433	slt	x8,x31,x5	 x31:0x00000000  x5:0x00000001  x8=0x00000001
       57235000	      5722	80002ad4	4048d793	srai	x15,x17,0x4	 x17:0x00000001 x15=0x00000000
       57245000	      5723	80002ad8	40658133	sub	x2,x11,x6	 x11:0x00000000  x6:0xfffffff4  x2=0x0000000c
       57255000	      5724	80002adc	00e7f1b3	and	x3,x15,x14	 x15:0x00000000 x14:0x00000000  x3=0x00000000
       57265000	      5725	80002ae0	40d68033	sub	x0,x13,x13	 x13:0x00000000 x13:0x00000000
       57275000	      5726	80002ae4	05a41063	bne	x8,x26,80002b24	  x8:0x00000001 x26:0x8000a408
       57285000	      5727	00000000	00000013	addi	x0,x0,0	  x0:0x00000000
       57295000	      5728	80002b20	00000013	addi	x0,x0,0	  x0:0x00000000
       57305000	      5729	80002b24	a850b513	sltiu	x10,x1,-1403	  x1:0x00000001 x10=0x00000001
       57315000	      5730	80002b28	01a13133	sltu	x2,x2,x26	  x2:0x0000000c x26:0x8000a408  x2=0x00000001
       57325000	      5731	80002b2c	7907ec93	ori	x25,x15,1936	 x15:0x00000000 x25=0x00000790
       57335000	      5732	80002b30	013e3db3	sltu	x27,x28,x19	 x28:0xfe20062c x19:0x00000000 x27=0x00000000
       57345000	      5733	80002b34	0478e063	bltu	x17,x7,80002b74	 x17:0x00000001  x7:0xfe20024f
       57355000	      5734	00000000	00000013	addi	x0,x0,0	  x0:0x00000000
       57365000	      5735	80002b70	00000013	addi	x0,x0,0	  x0:0x00000000
       57375000	      5736	80002b74	acb64317	auipc	x6,0xacb64	  x6=0x2cb66b70
       57385000	      5737	80002b78	04594863	blt	x18,x5,80002bc8	 x18:0x24f00000  x5:0x00000001
       57395000	      5738	80002b7c	05049663	bne	x9,x16,80002bc8	  x9:0x00000001 x16:0x00000000
       57405000	      5739	00000000	00000013	addi	x0,x0,0	  x0:0x00000000
       57415000	      5740	80002bc4	00000013	addi	x0,x0,0	  x0:0x00000000
       57425000	      5741	80002bc8	008a1713	slli	x14,x20,0x8	 x20:0x17ce9e41 x14=0xce9e4100
       57435000	      5742	80002bcc	00c6ebb3	or	x23,x13,x12	 x13:0x00000000 x12:0x00000000 x23=0x00000000
       57445000	      5743	80002bd0	7fa29b17	auipc	x22,0x7fa29	 x22=0xffa2bbcc
       57455000	      5744	80002bd4	02a9cc63	blt	x19,x10,80002c0c	 x19:0x00000000 x10:0x00000001
       57465000	      5745	00000000	00000013	addi	x0,x0,0	  x0:0x00000000
       57475000	      5746	80002c08	00000013	addi	x0,x0,0	  x0:0x00000000
       57485000	      5747	80002c0c	887e2017	auipc	x0,0x887e2	
       57495000	      5748	80002c10	00000013	addi	x0,x0,0	  x0:0x00000000
       57505000	      5749	80002c14	05521863	bne	x4,x21,80002c64	  x4:0x80009fc4 x21:0xfe2003cb
       57515000	      5750	00000000	00000013	addi	x0,x0,0	  x0:0x00000000
       57525000	      5751	80002c60	00000013	addi	x0,x0,0	  x0:0x00000000
       57535000	      5752	80002c64	03f46e63	bltu	x8,x31,80002ca0	  x8:0x00000001 x31:0x00000000
       57545000	      5753	80002c68	59cb3793	sltiu	x15,x22,1436	 x22:0xffa2bbcc x15=0x00000000
       57555000	      5754	80002c6c	01e71833	sll	x16,x14,x30	 x14:0xce9e4100 x30:0x00000052 x16=0x04000000
       57565000	      5755	80002c70	05b7c863	blt	x15,x27,80002cc0	 x15:0x00000000 x27:0x00000000
       57575000	      5756	80002c74	0398c663	blt	x17,x25,80002ca0	 x17:0x00000001 x25:0x00000790
       57585000	      5757	00000000	00000013	addi	x0,x0,0	  x0:0x00000000
       57595000	      5758	80002c9c	00000013	addi	x0,x0,0	  x0:0x00000000
       57605000	      5759	80002ca0	015d7133	and	x2,x26,x21	 x26:0x8000a408 x21:0xfe2003cb  x2=0x80000008
       57615000	      5760	80002ca4	412f8133	sub	x2,x31,x18	 x31:0x00000000 x18:0x24f00000  x2=0xdb100000
       57625000	      5761	80002ca8	01f17863	bgeu	x2,x31,80002cb8	  x2:0xdb100000 x31:0x00000000
       57635000	      5762	00000000	00000013	addi	x0,x0,0	  x0:0x00000000
       57645000	      5763	80002cb4	00000013	addi	x0,x0,0	  x0:0x00000000
       57655000	      5764	80002cb8	007bc863	blt	x23,x7,80002cc8	 x23:0x00000000  x7:0xfe20024f
       57665000	      5765	80002cbc	01f53cb3	sltu	x25,x10,x31	 x10:0x00000001 x31:0x00000000 x25=0x00000000
       57675000	      5766	80002cc0	049b4063	blt	x22,x9,80002d00	 x22:0xffa2bbcc  x9:0x00000001
       57685000	      5767	00000000	00000013	addi	x0,x0,0	  x0:0x00000000
       57695000	      5768	80002cfc	00000013	addi	x0,x0,0	  x0:0x00000000
       57705000	      5769	80002d00	04dd7463	bgeu	x26,x13,80002d48	 x26:0x8000a408 x13:0x00000000
       57715000	      5770	00000000	00000013	addi	x0,x0,0	  x0:0x00000000
       57725000	      5771	80002d44	00000013	addi	x0,x0,0	  x0:0x00000000
       57735000	      5772	80002d48	7588c293	xori	x5,x17,1880	 x17:0x00000001  x5=0x00000759
       57745000	      5773	80002d4c	03be0863	beq	x28,x27,80002d7c	 x28:0xfe20062c x27:0x00000000
       57755000	      5774	80002d50	004ea2b3	slt	x5,x29,x4	 x29:0x80009f60  x4:0x80009fc4  x5=0x00000001
       57765000	      5775	80002d54	014f37b3	sltu	x15,x30,x20	 x30:0x00000052 x20:0x17ce9e41 x15=0x00000001
       57775000	      5776	80002d58	01a86f33	or	x30,x16,x26	 x16:0x04000000 x26:0x8000a408 x30=0x8400a408
       57785000	      5777	80002d5c	c02bb093	sltiu	x1,x23,-1022	 x23:0x00000000  x1=0x00000001
       57795000	      5778	80002d60	3d722d13	slti	x26,x4,983	  x4:0x80009fc4 x26=0x00000001
       57805000	      5779	80002d64	e1090837	lui	x16,0xe1090	 x16=0xe1090000
       57815000	      5780	80002d68	00b06c63	bltu	x0,x11,80002d80	  x0:0x00000000 x11:0x00000000
       57825000	      5781	80002d6c	ec65ed13	ori	x26,x11,-314	 x11:0x00000000 x26=0xfffffec6
       57835000	      5782	80002d70	ca237193	andi	x3,x6,-862	  x6:0x2cb66b70  x3=0x2cb66820
       57845000	      5783	80002d74	009579b3	and	x19,x10,x9	 x10:0x00000001  x9:0x00000001 x19=0x00000001
       57855000	      5784	80002d78	4174ddb3	sra	x27,x9,x23	  x9:0x00000001 x23:0x00000000 x27=0x00000001
       57865000	      5785	80002d7c	03c66c63	bltu	x12,x28,80002db4	 x12:0x00000000 x28:0xfe20062c
       57875000	      5786	00000000	00000013	addi	x0,x0,0	  x0:0x00000000
       57885000	      5787	80002db0	00000013	addi	x0,x0,0	  x0:0x00000000
       57895000	      5788	80002db4	03a48a63	beq	x9,x26,80002de8	  x9:0x00000001 x26:0xfffffec6
       57905000	      5789	80002db8	0201f863	bgeu	x3,x0,80002de8	  x3:0x2cb66820  x0:0x00000000
       57915000	      5790	00000000	00000013	addi	x0,x0,0	  x0:0x00000000
       57925000	      5791	80002de4	00000013	addi	x0,x0,0	  x0:0x00000000
       57935000	      5792	80002de8	413fd993	srai	x19,x31,0x13	 x31:0x00000000 x19=0x00000000
       57945000	      5793	80002dec	41db8ab3	sub	x21,x23,x29	 x23:0x00000000 x29:0x80009f60 x21=0x7fff60a0
       57955000	      5794	80002df0	410ddd93	srai	x27,x27,0x10	 x27:0x00000001 x27=0x00000000
       57965000	      5795	80002df4	004ea083	lw	x1,4(x29)	 x29:0x80009f60  x1=0x80000998 PA:0x80009f64
       57975000	      5796	80002df8	000db033	sltu	x0,x27,x0	 x27:0x00000000  x0:0x00000000
       57985000	      5797	80002dfc	30118a93	addi	x21,x3,769	  x3:0x2cb66820 x21=0x2cb66b21
       57995000	      5798	80002e00	00ce8e93	addi	x29,x29,12	 x29:0x80009f60 x29=0x80009f6c
       58005000	      5799	80002e04	00fa5733	srl	x14,x20,x15	 x20:0x17ce9e41 x15:0x00000001 x14=0x0be74f20
       58015000	      5800	80002e08	00ef6fb3	or	x31,x30,x14	 x30:0x8400a408 x14:0x0be74f20 x31=0x8fe7ef28
       58025000	      5801	80002e0c	00008893	addi	x17,x1,0	  x1:0x80000998 x17=0x80000998
       58035000	      5802	80002e10	000888e7	jalr	x17,x17,0	 x17:0x80000998 x17=0x80002e10
       58045000	      5803	00000000	00000013	addi	x0,x0,0	  x0:0x00000000
       58055000	      5804	80000998	00000013	addi	x0,x0,0	  x0:0x00000000
       58065000	      5805	8000099c	017f6fb3	or	x31,x30,x23	 x30:0x8400a408 x23:0x00000000 x31=0x8400a408
       58075000	      5806	800009a0	00001517	auipc	x10,0x1	 x10=0x8000199c
       58085000	      5807	800009a4	ff050513	addi	x10,x10,-16	 x10:0x8000199c x10=0x8000198c
       58095000	      5808	800009a8	00b26e33	or	x28,x4,x11	  x4:0x80009fc4 x11:0x00000000 x28=0x80009fc4
       58105000	      5809	800009ac	013c2933	slt	x18,x24,x19	 x24:0x00000000 x19:0x00000000 x18=0x00000000
       58115000	      5810	800009b0	41e00b33	sub	x22,x0,x30	  x0:0x00000000 x30:0x8400a408 x22=0x7bff5bf8
       58125000	      5811	800009b4	012c2e33	slt	x28,x24,x18	 x24:0x00000000 x18:0x00000000 x28=0x00000000
       58135000	      5812	800009b8	009cda33	srl	x20,x25,x9	 x25:0x00000000  x9:0x00000001 x20=0x00000000
       58145000	      5813	800009bc	00000013	addi	x0,x0,0	  x0:0x00000000
       58155000	      5814	800009c0	00aa5133	srl	x2,x20,x10	 x20:0x00000000 x10:0x8000198c  x2=0x00000000
       58165000	      5815	800009c4	c2a50513	addi	x10,x10,-982	 x10:0x8000198c x10=0x800015b6
       58175000	      5816	800009c8	6563f413	andi	x8,x7,1622	  x7:0xfe20024f  x8=0x00000246
       58185000	      5817	800009cc	00b8d463	bge	x17,x11,800009d4	 x17:0x80002e10 x11:0x00000000
       58195000	      5818	800009d0	4063d433	sra	x8,x7,x6	  x7:0xfe20024f  x6:0x2cb66b70  x8=0xfffffe20
       58205000	      5819	800009d4	3d7500e7	jalr	x1,x10,983	 x10:0x800015b6  x1=0x800009d4
       58215000	      5820	00000000	00000013	addi	x0,x0,0	  x0:0x00000000
       58225000	      5821	8000198c	00000013	addi	x0,x0,0	  x0:0x00000000
       58235000	      5822	80001990	00297663	bgeu	x18,x2,8000199c	 x18:0x00000000  x2:0x00000000
       58245000	      5823	00000000	00000013	addi	x0,x0,0	  x0:0x00000000
       58255000	      5824	80001998	00000013	addi	x0,x0,0	  x0:0x00000000
       58265000	      5825	8000199c	ff4e8e93	addi	x29,x29,-12	 x29:0x80009f6c x29=0x80009f60
       58275000	      5826	800019a0	00000013	addi	x0,x0,0	  x0:0x00000000
       58285000	      5827	800019a4	6bb24a93	xori	x21,x4,1723	  x4:0x80009fc4 x21=0x8000997f
       58295000	      5828	800019a8	001ea223	sw	x1,4(x29)	 x29:0x80009f60  x1:0x800009d4 PA:0x80009f64
       58305000	      5829	800019ac	862f8717	auipc	x14,0x862f8	 x14=0x062f99a8
       58315000	      5830	800019b0	06991737	lui	x14,0x6991	 x14=0x06991000
       58325000	      5831	800019b4	0075e6b3	or	x13,x11,x7	 x11:0x00000000  x7:0xfe20024f x13=0xfe20024f
       58335000	      5832	800019b8	011e4e33	xor	x28,x28,x17	 x28:0x00000000 x17:0x80002e10 x28=0x80002e10
       58345000	      5833	800019bc	ffe00593	addi	x11,x0,-2	  x0:0x00000000 x11=0xfffffffe
       58355000	      5834	800019c0	c3526f93	ori	x31,x4,-971	  x4:0x80009fc4 x31=0xfffffff5
       58365000	      5835	800019c4	19e88193	addi	x3,x17,414	 x17:0x80002e10  x3=0x80002fae
       58375000	      5836	800019c8	b99a4c97	auipc	x25,0xb99a4	 x25=0x399a59c4
       58385000	      5837	800019cc	f4b78537	lui	x10,0xf4b78	 x10=0xf4b78000
       58395000	      5838	800019d0	01300093	addi	x1,x0,19	  x0:0x00000000  x1=0x00000013
       58405000	      5839	800019d4	00000013	addi	x0,x0,0	  x0:0x00000000
       58415000	      5840	800019d8	0148bcb3	sltu	x25,x17,x20	 x17:0x80002e10 x20:0x00000000 x25=0x00000000
       58425000	      5841	800019dc	afc3b993	sltiu	x19,x7,-1284	  x7:0xfe20024f x19=0x00000001
       58435000	      5842	800019e0	230e0293	addi	x5,x28,560	 x28:0x80002e10  x5=0x80003040
       58445000	      5843	800019e4	414207b3	sub	x15,x4,x20	  x4:0x80009fc4 x20:0x00000000 x15=0x80009fc4
       58455000	      5844	800019e8	01114833	xor	x16,x2,x17	  x2:0x00000000 x17:0x80002e10 x16=0x80002e10
       58465000	      5845	800019ec	41b15b13	srai	x22,x2,0x1b	  x2:0x00000000 x22=0x00000000
       58475000	      5846	800019f0	01ad6b33	or	x22,x26,x26	 x26:0xfffffec6 x26:0xfffffec6 x22=0xfffffec6
       58485000	      5847	800019f4	3e897a13	andi	x20,x18,1000	 x18:0x00000000 x20=0x00000000
       58495000	      5848	800019f8	01ae4133	xor	x2,x28,x26	 x28:0x80002e10 x26:0xfffffec6  x2=0x7fffd0d6
       58505000	      5849	800019fc	d6cbcc13	xori	x24,x23,-660	 x23:0x00000000 x24=0xfffffd6c
       58515000	      5850	80001a00	00758593	addi	x11,x11,7	 x11:0xfffffffe x11=0x00000005
       58525000	      5851	80001a04	00000013	addi	x0,x0,0	  x0:0x00000000
       58535000	      5852	80001a08	fe15c6e3	blt	x11,x1,800019f4	 x11:0x00000005  x1:0x00000013
       58545000	      5853	00000000	00000013	addi	x0,x0,0	  x0:0x00000000
       58555000	      5854	800019f0	00000013	addi	x0,x0,0	  x0:0x00000000
       58565000	      5855	800019f4	3e897a13	andi	x20,x18,1000	 x18:0x00000000 x20=0x00000000
       58575000	      5856	800019f8	01ae4133	xor	x2,x28,x26	 x28:0x80002e10 x26:0xfffffec6  x2=0x7fffd0d6
       58585000	      5857	800019fc	d6cbcc13	xori	x24,x23,-660	 x23:0x00000000 x24=0xfffffd6c
       58595000	      5858	80001a00	00758593	addi	x11,x11,7	 x11:0x00000005 x11=0x0000000c
       58605000	      5859	80001a04	00000013	addi	x0,x0,0	  x0:0x00000000
       58615000	      5860	80001a08	fe15c6e3	blt	x11,x1,800019f4	 x11:0x0000000c  x1:0x00000013
       58625000	      5861	00000000	00000013	addi	x0,x0,0	  x0:0x00000000
       58635000	      5862	800019f0	00000013	addi	x0,x0,0	  x0:0x00000000
       58645000	      5863	800019f4	3e897a13	andi	x20,x18,1000	 x18:0x00000000 x20=0x00000000
       58655000	      5864	800019f8	01ae4133	xor	x2,x28,x26	 x28:0x80002e10 x26:0xfffffec6  x2=0x7fffd0d6
       58665000	      5865	800019fc	d6cbcc13	xori	x24,x23,-660	 x23:0x00000000 x24=0xfffffd6c
       58675000	      5866	80001a00	00758593	addi	x11,x11,7	 x11:0x0000000c x11=0x00000013
       58685000	      5867	80001a04	00000013	addi	x0,x0,0	  x0:0x00000000
       58695000	      5868	80001a08	fe15c6e3	blt	x11,x1,800019f4	 x11:0x00000013  x1:0x00000013
       58705000	      5869	80001a0c	0c04b913	sltiu	x18,x9,192	  x9:0x00000001 x18=0x00000001
       58715000	      5870	80001a10	fff00b13	addi	x22,x0,-1	  x0:0x00000000 x22=0xffffffff
       58725000	      5871	80001a14	c860df37	lui	x30,0xc860d	 x30=0xc860d000
       58735000	      5872	80001a18	01cd7a33	and	x20,x26,x28	 x26:0xfffffec6 x28:0x80002e10 x20=0x80002e00
       58745000	      5873	80001a1c	2d754893	xori	x17,x10,727	 x10:0xf4b78000 x17=0xf4b782d7
       58755000	      5874	80001a20	01368333	add	x6,x13,x19	 x13:0xfe20024f x19:0x00000001  x6=0xfe200250
       58765000	      5875	80001a24	ff900813	addi	x16,x0,-7	  x0:0x00000000 x16=0xfffffff9
       58775000	      5876	80001a28	00e028b3	slt	x17,x0,x14	  x0:0x00000000 x14:0x06991000 x17=0x00000001
       58785000	      5877	80001a2c	00000013	addi	x0,x0,0	  x0:0x00000000
       58795000	      5878	80001a30	00780433	add	x8,x16,x7	 x16:0xfffffff9  x7:0xfe20024f  x8=0xfe200248
       58805000	      5879	80001a34	8d650793	addi	x15,x10,-1834	 x10:0xf4b78000 x15=0xf4b778d6
       58815000	      5880	80001a38	0132a8b3	slt	x17,x5,x19	  x5:0x80003040 x19:0x00000001 x17=0x00000001
       58825000	      5881	80001a3c	01a97ab3	and	x21,x18,x26	 x18:0x00000001 x26:0xfffffec6 x21=0x00000000
       58835000	      5882	80001a40	ff7b0b13	addi	x22,x22,-9	 x22:0xffffffff x22=0xfffffff6
       58845000	      5883	80001a44	00a00e13	addi	x28,x0,10	  x0:0x00000000 x28=0x0000000a
       58855000	      5884	80001a48	00f2b9b3	sltu	x19,x5,x15	  x5:0x80003040 x15:0xf4b778d6 x19=0x00000001
       58865000	      5885	80001a4c	00600693	addi	x13,x0,6	  x0:0x00000000 x13=0x00000006
       58875000	      5886	80001a50	d581a413	slti	x8,x3,-680	  x3:0x80002fae  x8=0x00000001
       58885000	      5887	80001a54	01984fb3	xor	x31,x16,x25	 x16:0xfffffff9 x25:0x00000000 x31=0xfffffff9
       58895000	      5888	80001a58	01c7bdb3	sltu	x27,x15,x28	 x15:0xf4b778d6 x28:0x0000000a x27=0x00000000
       58905000	      5889	80001a5c	ffbe0e13	addi	x28,x28,-5	 x28:0x0000000a x28=0x00000005
       58915000	      5890	80001a60	01d85cb3	srl	x25,x16,x29	 x16:0xfffffff9 x29:0x80009f60 x25=0xfffffff9
       58925000	      5891	80001a64	61ef0a37	lui	x20,0x61ef0	 x20=0x61ef0000
       58935000	      5892	80001a68	019625b3	slt	x11,x12,x25	 x12:0x00000000 x25:0xfffffff9 x11=0x00000000
       58945000	      5893	80001a6c	001f0133	add	x2,x30,x1	 x30:0xc860d000  x1:0x00000013  x2=0xc860d013
       58955000	      5894	80001a70	fede70e3	bgeu	x28,x13,80001a50	 x28:0x00000005 x13:0x00000006
       58965000	      5895	80001a74	000c0d33	add	x26,x24,x0	 x24:0xfffffd6c  x0:0x00000000 x26=0xfffffd6c
       58975000	      5896	80001a78	05c7fd13	andi	x26,x15,92	 x15:0xf4b778d6 x26=0x00000054
       58985000	      5897	80001a7c	fd0b50e3	bge	x22,x16,80001a3c	 x22:0xfffffff6 x16:0xfffffff9
       58995000	      5898	80001a80	9e662997	auipc	x19,0x9e662	 x19=0x1e663a7c
       59005000	      5899	80001a84	00600393	addi	x7,x0,6	  x0:0x00000000  x7=0x00000006
       59015000	      5900	80001a88	01000d13	addi	x26,x0,16	  x0:0x00000000 x26=0x00000010
       59025000	      5901	80001a8c	13252c93	slti	x25,x10,306	 x10:0xf4b78000 x25=0x00000001
       59035000	      5902	80001a90	af61f893	andi	x17,x3,-1290	  x3:0x80002fae x17=0x80002aa6
       59045000	      5903	80001a94	012a9f13	slli	x30,x21,0x12	 x21:0x00000000 x30=0x00000000
       59055000	      5904	80001a98	009dc0b3	xor	x1,x27,x9	 x27:0x00000000  x9:0x00000001  x1=0x00000001
       59065000	      5905	80001a9c	a4858993	addi	x19,x11,-1464	 x11:0x00000000 x19=0xfffffa48
       59075000	      5906	80001aa0	0043bdb3	sltu	x27,x7,x4	  x7:0x00000006  x4:0x80009fc4 x27=0x00000001
       59085000	      5907	80001aa4	410bd5b3	sra	x11,x23,x16	 x23:0x00000000 x16:0xfffffff9 x11=0x00000000
       59095000	      5908	80001aa8	eec78c13	addi	x24,x15,-276	 x15:0xf4b778d6 x24=0xf4b777c2
       59105000	      5909	80001aac	00838393	addi	x7,x7,8	  x7:0x00000006  x7=0x0000000e
       59115000	      5910	80001ab0	007d0833	add	x16,x26,x7	 x26:0x00000010  x7:0x0000000e x16=0x0000001e
       59125000	      5911	80001ab4	4175d713	srai	x14,x11,0x17	 x11:0x00000000 x14=0x00000000
       59135000	      5912	80001ab8	afbcca13	xori	x20,x25,-1285	 x25:0x00000001 x20=0xfffffafa
       59145000	      5913	80001abc	00b319b3	sll	x19,x6,x11	  x6:0xfe200250 x11:0x00000000 x19=0xfe200250
       59155000	      5914	80001ac0	00000013	addi	x0,x0,0	  x0:0x00000000
       59165000	      5915	80001ac4	fff00613	addi	x12,x0,-1	  x0:0x00000000 x12=0xffffffff
       59175000	      5916	80001ac8	01000413	addi	x8,x0,16	  x0:0x00000000  x8=0x00000010
       59185000	      5917	80001acc	01dc1f13	slli	x30,x24,0x1d	 x24:0xf4b777c2 x30=0x40000000
       59195000	      5918	80001ad0	71c7eb13	ori	x22,x15,1820	 x15:0xf4b778d6 x22=0xf4b77fde
       59205000	      5919	80001ad4	01c90e33	add	x28,x18,x28	 x18:0x00000001 x28:0x00000005 x28=0x00000006
       59215000	      5920	80001ad8	40fa3813	sltiu	x16,x20,1039	 x20:0xfffffafa x16=0x00000000
       59225000	      5921	80001adc	00000013	addi	x0,x0,0	  x0:0x00000000
       59235000	      5922	80001ae0	00360613	addi	x12,x12,3	 x12:0xffffffff x12=0x00000002
       59245000	      5923	80001ae4	403bd333	sra	x6,x23,x3	 x23:0x00000000  x3:0x80002fae  x6=0x00000000
       59255000	      5924	80001ae8	fe866ae3	bltu	x12,x8,80001adc	 x12:0x00000002  x8:0x00000010
       59265000	      5925	00000000	00000013	addi	x0,x0,0	  x0:0x00000000
       59275000	      5926	80001ad8	00000013	addi	x0,x0,0	  x0:0x00000000
       59285000	      5927	80001adc	00000013	addi	x0,x0,0	  x0:0x00000000
       59295000	      5928	80001ae0	00360613	addi	x12,x12,3	 x12:0x00000002 x12=0x00000005
       59305000	      5929	80001ae4	403bd333	sra	x6,x23,x3	 x23:0x00000000  x3:0x80002fae  x6=0x00000000
       59315000	      5930	80001ae8	fe866ae3	bltu	x12,x8,80001adc	 x12:0x00000005  x8:0x00000010
       59325000	      5931	00000000	00000013	addi	x0,x0,0	  x0:0x00000000
       59335000	      5932	80001ad8	00000013	addi	x0,x0,0	  x0:0x00000000
       59345000	      5933	80001adc	00000013	addi	x0,x0,0	  x0:0x00000000
       59355000	      5934	80001ae0	00360613	addi	x12,x12,3	 x12:0x00000005 x12=0x00000008
       59365000	      5935	80001ae4	403bd333	sra	x6,x23,x3	 x23:0x00000000  x3:0x80002fae  x6=0x00000000
       59375000	      5936	80001ae8	fe866ae3	bltu	x12,x8,80001adc	 x12:0x00000008  x8:0x00000010
       59385000	      5937	00000000	00000013	addi	x0,x0,0	  x0:0x00000000
       59395000	      5938	80001ad8	00000013	addi	x0,x0,0	  x0:0x00000000
       59405000	      5939	80001adc	00000013	addi	x0,x0,0	  x0:0x00000000
       59415000	      5940	80001ae0	00360613	addi	x12,x12,3	 x12:0x00000008 x12=0x0000000b
       59425000	      5941	80001ae4	403bd333	sra	x6,x23,x3	 x23:0x00000000  x3:0x80002fae  x6=0x00000000
       59435000	      5942	80001ae8	fe866ae3	bltu	x12,x8,80001adc	 x12:0x0000000b  x8:0x00000010
       59445000	      5943	00000000	00000013	addi	x0,x0,0	  x0:0x00000000
       59455000	      5944	80001ad8	00000013	addi	x0,x0,0	  x0:0x00000000
       59465000	      5945	80001adc	00000013	addi	x0,x0,0	  x0:0x00000000
       59475000	      5946	80001ae0	00360613	addi	x12,x12,3	 x12:0x0000000b x12=0x0000000e
       59485000	      5947	80001ae4	403bd333	sra	x6,x23,x3	 x23:0x00000000  x3:0x80002fae  x6=0x00000000
       59495000	      5948	80001ae8	fe866ae3	bltu	x12,x8,80001adc	 x12:0x0000000e  x8:0x00000010
       59505000	      5949	00000000	00000013	addi	x0,x0,0	  x0:0x00000000
       59515000	      5950	80001ad8	00000013	addi	x0,x0,0	  x0:0x00000000
       59525000	      5951	80001adc	00000013	addi	x0,x0,0	  x0:0x00000000
       59535000	      5952	80001ae0	00360613	addi	x12,x12,3	 x12:0x0000000e x12=0x00000011
       59545000	      5953	80001ae4	403bd333	sra	x6,x23,x3	 x23:0x00000000  x3:0x80002fae  x6=0x00000000
       59555000	      5954	80001ae8	fe866ae3	bltu	x12,x8,80001adc	 x12:0x00000011  x8:0x00000010
       59565000	      5955	80001aec	01925f93	srli	x31,x4,0x19	  x4:0x80009fc4 x31=0x00000040
       59575000	      5956	80001af0	405eda13	srai	x20,x29,0x5	 x29:0x80009f60 x20=0xfc0004fb
       59585000	      5957	80001af4	0119ffb3	and	x31,x19,x17	 x19:0xfe200250 x17:0x80002aa6 x31=0x80000200
       59595000	      5958	80001af8	dc2ef593	andi	x11,x29,-574	 x29:0x80009f60 x11=0x80009d40
       59605000	      5959	80001afc	f9a3cae3	blt	x7,x26,80001a90	  x7:0x0000000e x26:0x00000010
       59615000	      5960	00000000	00000013	addi	x0,x0,0	  x0:0x00000000
       59625000	      5961	80001a8c	00000013	addi	x0,x0,0	  x0:0x00000000
       59635000	      5962	80001a90	af61f893	andi	x17,x3,-1290	  x3:0x80002fae x17=0x80002aa6
       59645000	      5963	80001a94	012a9f13	slli	x30,x21,0x12	 x21:0x00000000 x30=0x00000000
       59655000	      5964	80001a98	009dc0b3	xor	x1,x27,x9	 x27:0x00000001  x9:0x00000001  x1=0x00000000
       59665000	      5965	80001a9c	a4858993	addi	x19,x11,-1464	 x11:0x80009d40 x19=0x80009788
       59675000	      5966	80001aa0	0043bdb3	sltu	x27,x7,x4	  x7:0x0000000e  x4:0x80009fc4 x27=0x00000001
       59685000	      5967	80001aa4	410bd5b3	sra	x11,x23,x16	 x23:0x00000000 x16:0x00000000 x11=0x00000000
       59695000	      5968	80001aa8	eec78c13	addi	x24,x15,-276	 x15:0xf4b778d6 x24=0xf4b777c2
       59705000	      5969	80001aac	00838393	addi	x7,x7,8	  x7:0x0000000e  x7=0x00000016
       59715000	      5970	80001ab0	007d0833	add	x16,x26,x7	 x26:0x00000010  x7:0x00000016 x16=0x00000026
       59725000	      5971	80001ab4	4175d713	srai	x14,x11,0x17	 x11:0x00000000 x14=0x00000000
       59735000	      5972	80001ab8	afbcca13	xori	x20,x25,-1285	 x25:0x00000001 x20=0xfffffafa
       59745000	      5973	80001abc	00b319b3	sll	x19,x6,x11	  x6:0x00000000 x11:0x00000000 x19=0x00000000
       59755000	      5974	80001ac0	00000013	addi	x0,x0,0	  x0:0x00000000
       59765000	      5975	80001ac4	fff00613	addi	x12,x0,-1	  x0:0x00000000 x12=0xffffffff
       59775000	      5976	80001ac8	01000413	addi	x8,x0,16	  x0:0x00000000  x8=0x00000010
       59785000	      5977	80001acc	01dc1f13	slli	x30,x24,0x1d	 x24:0xf4b777c2 x30=0x40000000
       59795000	      5978	80001ad0	71c7eb13	ori	x22,x15,1820	 x15:0xf4b778d6 x22=0xf4b77fde
       59805000	      5979	80001ad4	01c90e33	add	x28,x18,x28	 x18:0x00000001 x28:0x00000006 x28=0x00000007
       59815000	      5980	80001ad8	40fa3813	sltiu	x16,x20,1039	 x20:0xfffffafa x16=0x00000000
       59825000	      5981	80001adc	00000013	addi	x0,x0,0	  x0:0x00000000
       59835000	      5982	80001ae0	00360613	addi	x12,x12,3	 x12:0xffffffff x12=0x00000002
       59845000	      5983	80001ae4	403bd333	sra	x6,x23,x3	 x23:0x00000000  x3:0x80002fae  x6=0x00000000
       59855000	      5984	80001ae8	fe866ae3	bltu	x12,x8,80001adc	 x12:0x00000002  x8:0x00000010
       59865000	      5985	00000000	00000013	addi	x0,x0,0	  x0:0x00000000
       59875000	      5986	80001ad8	00000013	addi	x0,x0,0	  x0:0x00000000
       59885000	      5987	80001adc	00000013	addi	x0,x0,0	  x0:0x00000000
       59895000	      5988	80001ae0	00360613	addi	x12,x12,3	 x12:0x00000002 x12=0x00000005
       59905000	      5989	80001ae4	403bd333	sra	x6,x23,x3	 x23:0x00000000  x3:0x80002fae  x6=0x00000000
       59915000	      5990	80001ae8	fe866ae3	bltu	x12,x8,80001adc	 x12:0x00000005  x8:0x00000010
       59925000	      5991	00000000	00000013	addi	x0,x0,0	  x0:0x00000000
       59935000	      5992	80001ad8	00000013	addi	x0,x0,0	  x0:0x00000000
       59945000	      5993	80001adc	00000013	addi	x0,x0,0	  x0:0x00000000
       59955000	      5994	80001ae0	00360613	addi	x12,x12,3	 x12:0x00000005 x12=0x00000008
       59965000	      5995	80001ae4	403bd333	sra	x6,x23,x3	 x23:0x00000000  x3:0x80002fae  x6=0x00000000
       59975000	      5996	80001ae8	fe866ae3	bltu	x12,x8,80001adc	 x12:0x00000008  x8:0x00000010
       59985000	      5997	00000000	00000013	addi	x0,x0,0	  x0:0x00000000
       59995000	      5998	80001ad8	00000013	addi	x0,x0,0	  x0:0x00000000
       60005000	      5999	80001adc	00000013	addi	x0,x0,0	  x0:0x00000000
       60015000	      6000	80001ae0	00360613	addi	x12,x12,3	 x12:0x00000008 x12=0x0000000b
       60025000	      6001	80001ae4	403bd333	sra	x6,x23,x3	 x23:0x00000000  x3:0x80002fae  x6=0x00000000
       60035000	      6002	80001ae8	fe866ae3	bltu	x12,x8,80001adc	 x12:0x0000000b  x8:0x00000010
       60045000	      6003	00000000	00000013	addi	x0,x0,0	  x0:0x00000000
       60055000	      6004	80001ad8	00000013	addi	x0,x0,0	  x0:0x00000000
       60065000	      6005	80001adc	00000013	addi	x0,x0,0	  x0:0x00000000
       60075000	      6006	80001ae0	00360613	addi	x12,x12,3	 x12:0x0000000b x12=0x0000000e
       60085000	      6007	80001ae4	403bd333	sra	x6,x23,x3	 x23:0x00000000  x3:0x80002fae  x6=0x00000000
       60095000	      6008	80001ae8	fe866ae3	bltu	x12,x8,80001adc	 x12:0x0000000e  x8:0x00000010
       60105000	      6009	00000000	00000013	addi	x0,x0,0	  x0:0x00000000
       60115000	      6010	80001ad8	00000013	addi	x0,x0,0	  x0:0x00000000
       60125000	      6011	80001adc	00000013	addi	x0,x0,0	  x0:0x00000000
       60135000	      6012	80001ae0	00360613	addi	x12,x12,3	 x12:0x0000000e x12=0x00000011
       60145000	      6013	80001ae4	403bd333	sra	x6,x23,x3	 x23:0x00000000  x3:0x80002fae  x6=0x00000000
       60155000	      6014	80001ae8	fe866ae3	bltu	x12,x8,80001adc	 x12:0x00000011  x8:0x00000010
       60165000	      6015	80001aec	01925f93	srli	x31,x4,0x19	  x4:0x80009fc4 x31=0x00000040
       60175000	      6016	80001af0	405eda13	srai	x20,x29,0x5	 x29:0x80009f60 x20=0xfc0004fb
       60185000	      6017	80001af4	0119ffb3	and	x31,x19,x17	 x19:0x00000000 x17:0x80002aa6 x31=0x00000000
       60195000	      6018	80001af8	dc2ef593	andi	x11,x29,-574	 x29:0x80009f60 x11=0x80009d40
       60205000	      6019	80001afc	f9a3cae3	blt	x7,x26,80001a90	  x7:0x00000016 x26:0x00000010
       60215000	      6020	80001b00	01295e13	srli	x28,x18,0x12	 x18:0x00000001 x28=0x00000000
       60225000	      6021	80001b04	ff600b93	addi	x23,x0,-10	  x0:0x00000000 x23=0xfffffff6
       60235000	      6022	80001b08	01608433	add	x8,x1,x22	  x1:0x00000000 x22:0xf4b77fde  x8=0xf4b77fde
       60245000	      6023	80001b0c	89036097	auipc	x1,0x89036	  x1=0x09037b08
       60255000	      6024	80001b10	012dc433	xor	x8,x27,x18	 x27:0x00000001 x18:0x00000001  x8=0x00000000
       60265000	      6025	80001b14	14423793	sltiu	x15,x4,324	  x4:0x80009fc4 x15=0x00000000
       60275000	      6026	80001b18	fed00113	addi	x2,x0,-19	  x0:0x00000000  x2=0xffffffed
       60285000	      6027	80001b1c	05da6393	ori	x7,x20,93	 x20:0xfc0004fb  x7=0xfc0004ff
       60295000	      6028	80001b20	019cbd33	sltu	x26,x25,x25	 x25:0x00000001 x25:0x00000001 x26=0x00000000
       60305000	      6029	80001b24	016c6033	or	x0,x24,x22	 x24:0xf4b777c2 x22:0xf4b77fde
       60315000	      6030	80001b28	be14ba93	sltiu	x21,x9,-1055	  x9:0x00000001 x21=0x00000001
       60325000	      6031	80001b2c	40c15093	srai	x1,x2,0xc	  x2:0xffffffed  x1=0xffffffff
       60335000	      6032	80001b30	0007dc33	srl	x24,x15,x0	 x15:0x00000000  x0:0x00000000 x24=0x00000000
       60345000	      6033	80001b34	006b9433	sll	x8,x23,x6	 x23:0xfffffff6  x6:0x00000000  x8=0xfffffff6
       60355000	      6034	80001b38	c9c0c413	xori	x8,x1,-868	  x1:0xffffffff  x8=0x00000363
       60365000	      6035	80001b3c	01398833	add	x16,x19,x19	 x19:0x00000000 x19:0x00000000 x16=0x00000000
       60375000	      6036	80001b40	075309b7	lui	x19,0x7530	 x19=0x07530000
       60385000	      6037	80001b44	005d5033	srl	x0,x26,x5	 x26:0x00000000  x5:0x80003040
       60395000	      6038	80001b48	ffdb8b93	addi	x23,x23,-3	 x23:0xfffffff6 x23=0xfffffff3
       60405000	      6039	80001b4c	a161a893	slti	x17,x3,-1514	  x3:0x80002fae x17=0x00000001
       60415000	      6040	80001b50	01f73733	sltu	x14,x14,x31	 x14:0x00000000 x31:0x00000000 x14=0x00000000
       60425000	      6041	80001b54	40a95533	sra	x10,x18,x10	 x18:0x00000001 x10:0xf4b78000 x10=0x00000001
       60435000	      6042	80001b58	0138f733	and	x14,x17,x19	 x17:0x00000001 x19:0x07530000 x14=0x00000000
       60445000	      6043	80001b5c	93b13a13	sltiu	x20,x2,-1733	  x2:0xffffffed x20=0x00000000
       60455000	      6044	80001b60	01cadc33	srl	x24,x21,x28	 x21:0x00000001 x28:0x00000000 x24=0x00000001
       60465000	      6045	80001b64	01b8cb33	xor	x22,x17,x27	 x17:0x00000001 x27:0x00000001 x22=0x00000000
       60475000	      6046	80001b68	fc2bdae3	bge	x23,x2,80001b3c	 x23:0xfffffff3  x2:0xffffffed
       60485000	      6047	00000000	00000013	addi	x0,x0,0	  x0:0x00000000
       60495000	      6048	80001b38	00000013	addi	x0,x0,0	  x0:0x00000000
       60505000	      6049	80001b3c	01398833	add	x16,x19,x19	 x19:0x07530000 x19:0x07530000 x16=0x0ea60000
       60515000	      6050	80001b40	075309b7	lui	x19,0x7530	 x19=0x07530000
       60525000	      6051	80001b44	005d5033	srl	x0,x26,x5	 x26:0x00000000  x5:0x80003040
       60535000	      6052	80001b48	ffdb8b93	addi	x23,x23,-3	 x23:0xfffffff3 x23=0xfffffff0
       60545000	      6053	80001b4c	a161a893	slti	x17,x3,-1514	  x3:0x80002fae x17=0x00000001
       60555000	      6054	80001b50	01f73733	sltu	x14,x14,x31	 x14:0x00000000 x31:0x00000000 x14=0x00000000
       60565000	      6055	80001b54	40a95533	sra	x10,x18,x10	 x18:0x00000001 x10:0x00000001 x10=0x00000000
       60575000	      6056	80001b58	0138f733	and	x14,x17,x19	 x17:0x00000001 x19:0x07530000 x14=0x00000000
       60585000	      6057	80001b5c	93b13a13	sltiu	x20,x2,-1733	  x2:0xffffffed x20=0x00000000
       60595000	      6058	80001b60	01cadc33	srl	x24,x21,x28	 x21:0x00000001 x28:0x00000000 x24=0x00000001
       60605000	      6059	80001b64	01b8cb33	xor	x22,x17,x27	 x17:0x00000001 x27:0x00000001 x22=0x00000000
       60615000	      6060	80001b68	fc2bdae3	bge	x23,x2,80001b3c	 x23:0xfffffff0  x2:0xffffffed
       60625000	      6061	00000000	00000013	addi	x0,x0,0	  x0:0x00000000
       60635000	      6062	80001b38	00000013	addi	x0,x0,0	  x0:0x00000000
       60645000	      6063	80001b3c	01398833	add	x16,x19,x19	 x19:0x07530000 x19:0x07530000 x16=0x0ea60000
       60655000	      6064	80001b40	075309b7	lui	x19,0x7530	 x19=0x07530000
       60665000	      6065	80001b44	005d5033	srl	x0,x26,x5	 x26:0x00000000  x5:0x80003040
       60675000	      6066	80001b48	ffdb8b93	addi	x23,x23,-3	 x23:0xfffffff0 x23=0xffffffed
       60685000	      6067	80001b4c	a161a893	slti	x17,x3,-1514	  x3:0x80002fae x17=0x00000001
       60695000	      6068	80001b50	01f73733	sltu	x14,x14,x31	 x14:0x00000000 x31:0x00000000 x14=0x00000000
       60705000	      6069	80001b54	40a95533	sra	x10,x18,x10	 x18:0x00000001 x10:0x00000000 x10=0x00000001
       60715000	      6070	80001b58	0138f733	and	x14,x17,x19	 x17:0x00000001 x19:0x07530000 x14=0x00000000
       60725000	      6071	80001b5c	93b13a13	sltiu	x20,x2,-1733	  x2:0xffffffed x20=0x00000000
       60735000	      6072	80001b60	01cadc33	srl	x24,x21,x28	 x21:0x00000001 x28:0x00000000 x24=0x00000001
       60745000	      6073	80001b64	01b8cb33	xor	x22,x17,x27	 x17:0x00000001 x27:0x00000001 x22=0x00000000
       60755000	      6074	80001b68	fc2bdae3	bge	x23,x2,80001b3c	 x23:0xffffffed  x2:0xffffffed
       60765000	      6075	00000000	00000013	addi	x0,x0,0	  x0:0x00000000
       60775000	      6076	80001b38	00000013	addi	x0,x0,0	  x0:0x00000000
       60785000	      6077	80001b3c	01398833	add	x16,x19,x19	 x19:0x07530000 x19:0x07530000 x16=0x0ea60000
       60795000	      6078	80001b40	075309b7	lui	x19,0x7530	 x19=0x07530000
       60805000	      6079	80001b44	005d5033	srl	x0,x26,x5	 x26:0x00000000  x5:0x80003040
       60815000	      6080	80001b48	ffdb8b93	addi	x23,x23,-3	 x23:0xffffffed x23=0xffffffea
       60825000	      6081	80001b4c	a161a893	slti	x17,x3,-1514	  x3:0x80002fae x17=0x00000001
       60835000	      6082	80001b50	01f73733	sltu	x14,x14,x31	 x14:0x00000000 x31:0x00000000 x14=0x00000000
       60845000	      6083	80001b54	40a95533	sra	x10,x18,x10	 x18:0x00000001 x10:0x00000001 x10=0x00000000
       60855000	      6084	80001b58	0138f733	and	x14,x17,x19	 x17:0x00000001 x19:0x07530000 x14=0x00000000
       60865000	      6085	80001b5c	93b13a13	sltiu	x20,x2,-1733	  x2:0xffffffed x20=0x00000000
       60875000	      6086	80001b60	01cadc33	srl	x24,x21,x28	 x21:0x00000001 x28:0x00000000 x24=0x00000001
       60885000	      6087	80001b64	01b8cb33	xor	x22,x17,x27	 x17:0x00000001 x27:0x00000001 x22=0x00000000
       60895000	      6088	80001b68	fc2bdae3	bge	x23,x2,80001b3c	 x23:0xffffffea  x2:0xffffffed
       60905000	      6089	80001b6c	018ed993	srli	x19,x29,0x18	 x29:0x80009f60 x19=0x00000080
       60915000	      6090	80001b70	00900813	addi	x16,x0,9	  x0:0x00000000 x16=0x00000009
       60925000	      6091	80001b74	00045313	srli	x6,x8,0x0	  x8:0x00000363  x6=0x00000363
       60935000	      6092	80001b78	01200b93	addi	x23,x0,18	  x0:0x00000000 x23=0x00000012
       60945000	      6093	80001b7c	01eb1013	slli	x0,x22,0x1e	 x22:0x00000000
       60955000	      6094	80001b80	551ecc97	auipc	x25,0x551ec	 x25=0xd51edb7c
       60965000	      6095	80001b84	00380813	addi	x16,x16,3	 x16:0x00000009 x16=0x0000000c
       60975000	      6096	80001b88	00a00713	addi	x14,x0,10	  x0:0x00000000 x14=0x0000000a
       60985000	      6097	80001b8c	07ad3793	sltiu	x15,x26,122	 x26:0x00000000 x15=0x00000001
       60995000	      6098	80001b90	00600a13	addi	x20,x0,6	  x0:0x00000000 x20=0x00000006
       61005000	      6099	80001b94	00000013	addi	x0,x0,0	  x0:0x00000000
       61015000	      6100	80001b98	2bd2f193	andi	x3,x5,701	  x5:0x80003040  x3=0x00000000
       61025000	      6101	80001b9c	051d8293	addi	x5,x27,81	 x27:0x00000001  x5=0x00000052
       61035000	      6102	80001ba0	fff70713	addi	x14,x14,-1	 x14:0x0000000a x14=0x00000009
       61045000	      6103	80001ba4	01102633	slt	x12,x0,x17	  x0:0x00000000 x17:0x00000001 x12=0x00000001
       61055000	      6104	80001ba8	ff4776e3	bgeu	x14,x20,80001b94	 x14:0x00000009 x20:0x00000006
       61065000	      6105	00000000	00000013	addi	x0,x0,0	  x0:0x00000000
       61075000	      6106	80001b90	00000013	addi	x0,x0,0	  x0:0x00000000
       61085000	      6107	80001b94	00000013	addi	x0,x0,0	  x0:0x00000000
       61095000	      6108	80001b98	2bd2f193	andi	x3,x5,701	  x5:0x00000052  x3=0x00000010
       61105000	      6109	80001b9c	051d8293	addi	x5,x27,81	 x27:0x00000001  x5=0x00000052
       61115000	      6110	80001ba0	fff70713	addi	x14,x14,-1	 x14:0x00000009 x14=0x00000008
       61125000	      6111	80001ba4	01102633	slt	x12,x0,x17	  x0:0x00000000 x17:0x00000001 x12=0x00000001
       61135000	      6112	80001ba8	ff4776e3	bgeu	x14,x20,80001b94	 x14:0x00000008 x20:0x00000006
       61145000	      6113	00000000	00000013	addi	x0,x0,0	  x0:0x00000000
       61155000	      6114	80001b90	00000013	addi	x0,x0,0	  x0:0x00000000
       61165000	      6115	80001b94	00000013	addi	x0,x0,0	  x0:0x00000000
       61175000	      6116	80001b98	2bd2f193	andi	x3,x5,701	  x5:0x00000052  x3=0x00000010
       61185000	      6117	80001b9c	051d8293	addi	x5,x27,81	 x27:0x00000001  x5=0x00000052
       61195000	      6118	80001ba0	fff70713	addi	x14,x14,-1	 x14:0x00000008 x14=0x00000007
       61205000	      6119	80001ba4	01102633	slt	x12,x0,x17	  x0:0x00000000 x17:0x00000001 x12=0x00000001
       61215000	      6120	80001ba8	ff4776e3	bgeu	x14,x20,80001b94	 x14:0x00000007 x20:0x00000006
       61225000	      6121	00000000	00000013	addi	x0,x0,0	  x0:0x00000000
       61235000	      6122	80001b90	00000013	addi	x0,x0,0	  x0:0x00000000
       61245000	      6123	80001b94	00000013	addi	x0,x0,0	  x0:0x00000000
       61255000	      6124	80001b98	2bd2f193	andi	x3,x5,701	  x5:0x00000052  x3=0x00000010
       61265000	      6125	80001b9c	051d8293	addi	x5,x27,81	 x27:0x00000001  x5=0x00000052
       61275000	      6126	80001ba0	fff70713	addi	x14,x14,-1	 x14:0x00000007 x14=0x00000006
       61285000	      6127	80001ba4	01102633	slt	x12,x0,x17	  x0:0x00000000 x17:0x00000001 x12=0x00000001
       61295000	      6128	80001ba8	ff4776e3	bgeu	x14,x20,80001b94	 x14:0x00000006 x20:0x00000006
       61305000	      6129	00000000	00000013	addi	x0,x0,0	  x0:0x00000000
       61315000	      6130	80001b90	00000013	addi	x0,x0,0	  x0:0x00000000
       61325000	      6131	80001b94	00000013	addi	x0,x0,0	  x0:0x00000000
       61335000	      6132	80001b98	2bd2f193	andi	x3,x5,701	  x5:0x00000052  x3=0x00000010
       61345000	      6133	80001b9c	051d8293	addi	x5,x27,81	 x27:0x00000001  x5=0x00000052
       61355000	      6134	80001ba0	fff70713	addi	x14,x14,-1	 x14:0x00000006 x14=0x00000005
       61365000	      6135	80001ba4	01102633	slt	x12,x0,x17	  x0:0x00000000 x17:0x00000001 x12=0x00000001
       61375000	      6136	80001ba8	ff4776e3	bgeu	x14,x20,80001b94	 x14:0x00000005 x20:0x00000006
       61385000	      6137	80001bac	403303b3	sub	x7,x6,x3	  x6:0x00000363  x3:0x00000010  x7=0x00000353
       61395000	      6138	80001bb0	00644c33	xor	x24,x8,x6	  x8:0x00000363  x6:0x00000363 x24=0x00000000
       61405000	      6139	80001bb4	f6d08c13	addi	x24,x1,-147	  x1:0xffffffff x24=0xffffff6c
       61415000	      6140	80001bb8	6c4f4913	xori	x18,x30,1732	 x30:0x40000000 x18=0x400006c4
       61425000	      6141	80001bbc	fd7842e3	blt	x16,x23,80001b80	 x16:0x0000000c x23:0x00000012
       61435000	      6142	00000000	00000013	addi	x0,x0,0	  x0:0x00000000
       61445000	      6143	80001b7c	00000013	addi	x0,x0,0	  x0:0x00000000
       61455000	      6144	80001b80	551ecc97	auipc	x25,0x551ec	 x25=0xd51edb7c
       61465000	      6145	80001b84	00380813	addi	x16,x16,3	 x16:0x0000000c x16=0x0000000f
       61475000	      6146	80001b88	00a00713	addi	x14,x0,10	  x0:0x00000000 x14=0x0000000a
       61485000	      6147	80001b8c	07ad3793	sltiu	x15,x26,122	 x26:0x00000000 x15=0x00000001
       61495000	      6148	80001b90	00600a13	addi	x20,x0,6	  x0:0x00000000 x20=0x00000006
       61505000	      6149	80001b94	00000013	addi	x0,x0,0	  x0:0x00000000
       61515000	      6150	80001b98	2bd2f193	andi	x3,x5,701	  x5:0x00000052  x3=0x00000010
       61525000	      6151	80001b9c	051d8293	addi	x5,x27,81	 x27:0x00000001  x5=0x00000052
       61535000	      6152	80001ba0	fff70713	addi	x14,x14,-1	 x14:0x0000000a x14=0x00000009
       61545000	      6153	80001ba4	01102633	slt	x12,x0,x17	  x0:0x00000000 x17:0x00000001 x12=0x00000001
       61555000	      6154	80001ba8	ff4776e3	bgeu	x14,x20,80001b94	 x14:0x00000009 x20:0x00000006
       61565000	      6155	00000000	00000013	addi	x0,x0,0	  x0:0x00000000
       61575000	      6156	80001b90	00000013	addi	x0,x0,0	  x0:0x00000000
       61585000	      6157	80001b94	00000013	addi	x0,x0,0	  x0:0x00000000
       61595000	      6158	80001b98	2bd2f193	andi	x3,x5,701	  x5:0x00000052  x3=0x00000010
       61605000	      6159	80001b9c	051d8293	addi	x5,x27,81	 x27:0x00000001  x5=0x00000052
       61615000	      6160	80001ba0	fff70713	addi	x14,x14,-1	 x14:0x00000009 x14=0x00000008
       61625000	      6161	80001ba4	01102633	slt	x12,x0,x17	  x0:0x00000000 x17:0x00000001 x12=0x00000001
       61635000	      6162	80001ba8	ff4776e3	bgeu	x14,x20,80001b94	 x14:0x00000008 x20:0x00000006
       61645000	      6163	00000000	00000013	addi	x0,x0,0	  x0:0x00000000
       61655000	      6164	80001b90	00000013	addi	x0,x0,0	  x0:0x00000000
       61665000	      6165	80001b94	00000013	addi	x0,x0,0	  x0:0x00000000
       61675000	      6166	80001b98	2bd2f193	andi	x3,x5,701	  x5:0x00000052  x3=0x00000010
       61685000	      6167	80001b9c	051d8293	addi	x5,x27,81	 x27:0x00000001  x5=0x00000052
       61695000	      6168	80001ba0	fff70713	addi	x14,x14,-1	 x14:0x00000008 x14=0x00000007
       61705000	      6169	80001ba4	01102633	slt	x12,x0,x17	  x0:0x00000000 x17:0x00000001 x12=0x00000001
       61715000	      6170	80001ba8	ff4776e3	bgeu	x14,x20,80001b94	 x14:0x00000007 x20:0x00000006
       61725000	      6171	00000000	00000013	addi	x0,x0,0	  x0:0x00000000
       61735000	      6172	80001b90	00000013	addi	x0,x0,0	  x0:0x00000000
       61745000	      6173	80001b94	00000013	addi	x0,x0,0	  x0:0x00000000
       61755000	      6174	80001b98	2bd2f193	andi	x3,x5,701	  x5:0x00000052  x3=0x00000010
       61765000	      6175	80001b9c	051d8293	addi	x5,x27,81	 x27:0x00000001  x5=0x00000052
       61775000	      6176	80001ba0	fff70713	addi	x14,x14,-1	 x14:0x00000007 x14=0x00000006
       61785000	      6177	80001ba4	01102633	slt	x12,x0,x17	  x0:0x00000000 x17:0x00000001 x12=0x00000001
       61795000	      6178	80001ba8	ff4776e3	bgeu	x14,x20,80001b94	 x14:0x00000006 x20:0x00000006
       61805000	      6179	00000000	00000013	addi	x0,x0,0	  x0:0x00000000
       61815000	      6180	80001b90	00000013	addi	x0,x0,0	  x0:0x00000000
       61825000	      6181	80001b94	00000013	addi	x0,x0,0	  x0:0x00000000
       61835000	      6182	80001b98	2bd2f193	andi	x3,x5,701	  x5:0x00000052  x3=0x00000010
       61845000	      6183	80001b9c	051d8293	addi	x5,x27,81	 x27:0x00000001  x5=0x00000052
       61855000	      6184	80001ba0	fff70713	addi	x14,x14,-1	 x14:0x00000006 x14=0x00000005
       61865000	      6185	80001ba4	01102633	slt	x12,x0,x17	  x0:0x00000000 x17:0x00000001 x12=0x00000001
       61875000	      6186	80001ba8	ff4776e3	bgeu	x14,x20,80001b94	 x14:0x00000005 x20:0x00000006
       61885000	      6187	80001bac	403303b3	sub	x7,x6,x3	  x6:0x00000363  x3:0x00000010  x7=0x00000353
       61895000	      6188	80001bb0	00644c33	xor	x24,x8,x6	  x8:0x00000363  x6:0x00000363 x24=0x00000000
       61905000	      6189	80001bb4	f6d08c13	addi	x24,x1,-147	  x1:0xffffffff x24=0xffffff6c
       61915000	      6190	80001bb8	6c4f4913	xori	x18,x30,1732	 x30:0x40000000 x18=0x400006c4
       61925000	      6191	80001bbc	fd7842e3	blt	x16,x23,80001b80	 x16:0x0000000f x23:0x00000012
       61935000	      6192	00000000	00000013	addi	x0,x0,0	  x0:0x00000000
       61945000	      6193	80001b7c	00000013	addi	x0,x0,0	  x0:0x00000000
       61955000	      6194	80001b80	551ecc97	auipc	x25,0x551ec	 x25=0xd51edb7c
       61965000	      6195	80001b84	00380813	addi	x16,x16,3	 x16:0x0000000f x16=0x00000012
       61975000	      6196	80001b88	00a00713	addi	x14,x0,10	  x0:0x00000000 x14=0x0000000a
       61985000	      6197	80001b8c	07ad3793	sltiu	x15,x26,122	 x26:0x00000000 x15=0x00000001
       61995000	      6198	80001b90	00600a13	addi	x20,x0,6	  x0:0x00000000 x20=0x00000006
       62005000	      6199	80001b94	00000013	addi	x0,x0,0	  x0:0x00000000
       62015000	      6200	80001b98	2bd2f193	andi	x3,x5,701	  x5:0x00000052  x3=0x00000010
       62025000	      6201	80001b9c	051d8293	addi	x5,x27,81	 x27:0x00000001  x5=0x00000052
       62035000	      6202	80001ba0	fff70713	addi	x14,x14,-1	 x14:0x0000000a x14=0x00000009
       62045000	      6203	80001ba4	01102633	slt	x12,x0,x17	  x0:0x00000000 x17:0x00000001 x12=0x00000001
       62055000	      6204	80001ba8	ff4776e3	bgeu	x14,x20,80001b94	 x14:0x00000009 x20:0x00000006
       62065000	      6205	00000000	00000013	addi	x0,x0,0	  x0:0x00000000
       62075000	      6206	80001b90	00000013	addi	x0,x0,0	  x0:0x00000000
       62085000	      6207	80001b94	00000013	addi	x0,x0,0	  x0:0x00000000
       62095000	      6208	80001b98	2bd2f193	andi	x3,x5,701	  x5:0x00000052  x3=0x00000010
       62105000	      6209	80001b9c	051d8293	addi	x5,x27,81	 x27:0x00000001  x5=0x00000052
       62115000	      6210	80001ba0	fff70713	addi	x14,x14,-1	 x14:0x00000009 x14=0x00000008
       62125000	      6211	80001ba4	01102633	slt	x12,x0,x17	  x0:0x00000000 x17:0x00000001 x12=0x00000001
       62135000	      6212	80001ba8	ff4776e3	bgeu	x14,x20,80001b94	 x14:0x00000008 x20:0x00000006
       62145000	      6213	00000000	00000013	addi	x0,x0,0	  x0:0x00000000
       62155000	      6214	80001b90	00000013	addi	x0,x0,0	  x0:0x00000000
       62165000	      6215	80001b94	00000013	addi	x0,x0,0	  x0:0x00000000
       62175000	      6216	80001b98	2bd2f193	andi	x3,x5,701	  x5:0x00000052  x3=0x00000010
       62185000	      6217	80001b9c	051d8293	addi	x5,x27,81	 x27:0x00000001  x5=0x00000052
       62195000	      6218	80001ba0	fff70713	addi	x14,x14,-1	 x14:0x00000008 x14=0x00000007
       62205000	      6219	80001ba4	01102633	slt	x12,x0,x17	  x0:0x00000000 x17:0x00000001 x12=0x00000001
       62215000	      6220	80001ba8	ff4776e3	bgeu	x14,x20,80001b94	 x14:0x00000007 x20:0x00000006
       62225000	      6221	00000000	00000013	addi	x0,x0,0	  x0:0x00000000
       62235000	      6222	80001b90	00000013	addi	x0,x0,0	  x0:0x00000000
       62245000	      6223	80001b94	00000013	addi	x0,x0,0	  x0:0x00000000
       62255000	      6224	80001b98	2bd2f193	andi	x3,x5,701	  x5:0x00000052  x3=0x00000010
       62265000	      6225	80001b9c	051d8293	addi	x5,x27,81	 x27:0x00000001  x5=0x00000052
       62275000	      6226	80001ba0	fff70713	addi	x14,x14,-1	 x14:0x00000007 x14=0x00000006
       62285000	      6227	80001ba4	01102633	slt	x12,x0,x17	  x0:0x00000000 x17:0x00000001 x12=0x00000001
       62295000	      6228	80001ba8	ff4776e3	bgeu	x14,x20,80001b94	 x14:0x00000006 x20:0x00000006
       62305000	      6229	00000000	00000013	addi	x0,x0,0	  x0:0x00000000
       62315000	      6230	80001b90	00000013	addi	x0,x0,0	  x0:0x00000000
       62325000	      6231	80001b94	00000013	addi	x0,x0,0	  x0:0x00000000
       62335000	      6232	80001b98	2bd2f193	andi	x3,x5,701	  x5:0x00000052  x3=0x00000010
       62345000	      6233	80001b9c	051d8293	addi	x5,x27,81	 x27:0x00000001  x5=0x00000052
       62355000	      6234	80001ba0	fff70713	addi	x14,x14,-1	 x14:0x00000006 x14=0x00000005
       62365000	      6235	80001ba4	01102633	slt	x12,x0,x17	  x0:0x00000000 x17:0x00000001 x12=0x00000001
       62375000	      6236	80001ba8	ff4776e3	bgeu	x14,x20,80001b94	 x14:0x00000005 x20:0x00000006
       62385000	      6237	80001bac	403303b3	sub	x7,x6,x3	  x6:0x00000363  x3:0x00000010  x7=0x00000353
       62395000	      6238	80001bb0	00644c33	xor	x24,x8,x6	  x8:0x00000363  x6:0x00000363 x24=0x00000000
       62405000	      6239	80001bb4	f6d08c13	addi	x24,x1,-147	  x1:0xffffffff x24=0xffffff6c
       62415000	      6240	80001bb8	6c4f4913	xori	x18,x30,1732	 x30:0x40000000 x18=0x400006c4
       62425000	      6241	80001bbc	fd7842e3	blt	x16,x23,80001b80	 x16:0x00000012 x23:0x00000012
       62435000	      6242	80001bc0	002a1033	sll	x0,x20,x2	 x20:0x00000006  x2:0xffffffed
       62445000	      6243	80001bc4	00800f13	addi	x30,x0,8	  x0:0x00000000 x30=0x00000008
       62455000	      6244	80001bc8	780e0413	addi	x8,x28,1920	 x28:0x00000000  x8=0x00000780
       62465000	      6245	80001bcc	fec00093	addi	x1,x0,-20	  x0:0x00000000  x1=0xffffffec
       62475000	      6246	80001bd0	018c9fb3	sll	x31,x25,x24	 x25:0xd51edb7c x24:0xffffff6c x31=0xedb7c000
       62485000	      6247	80001bd4	1c98e813	ori	x16,x17,457	 x17:0x00000001 x16=0x000001c9
       62495000	      6248	80001bd8	011edc93	srli	x25,x29,0x11	 x29:0x80009f60 x25=0x00004000
       62505000	      6249	80001bdc	e1af6713	ori	x14,x30,-486	 x30:0x00000008 x14=0xfffffe1a
       62515000	      6250	80001be0	008cf133	and	x2,x25,x8	 x25:0x00004000  x8:0x00000780  x2=0x00000000
       62525000	      6251	80001be4	ff7f0f13	addi	x30,x30,-9	 x30:0x00000008 x30=0xffffffff
       62535000	      6252	80001be8	01da96b3	sll	x13,x21,x29	 x21:0x00000001 x29:0x80009f60 x13=0x00000001
       62545000	      6253	80001bec	01f1e333	or	x6,x3,x31	  x3:0x00000010 x31:0xedb7c000  x6=0xedb7c010
       62555000	      6254	80001bf0	01f1efb3	or	x31,x3,x31	  x3:0x00000010 x31:0xedb7c000 x31=0xedb7c010
       62565000	      6255	80001bf4	ffd00d93	addi	x27,x0,-3	  x0:0x00000000 x27=0xfffffffd
       62575000	      6256	80001bf8	b6c2e117	auipc	x2,0xb6c2e	  x2=0x36c2fbf4
       62585000	      6257	80001bfc	00000013	addi	x0,x0,0	  x0:0x00000000
       62595000	      6258	80001c00	ff700a13	addi	x20,x0,-9	  x0:0x00000000 x20=0xfffffff7
       62605000	      6259	80001c04	41a55b93	srai	x23,x10,0x1a	 x10:0x00000000 x23=0x00000000
       62615000	      6260	80001c08	00b0a5b3	slt	x11,x1,x11	  x1:0xffffffec x11:0x80009d40 x11=0x00000000
       62625000	      6261	80001c0c	00537c33	and	x24,x6,x5	  x6:0xedb7c010  x5:0x00000052 x24=0x00000010
       62635000	      6262	80001c10	ffad8d93	addi	x27,x27,-6	 x27:0xfffffffd x27=0xfffffff7
       62645000	      6263	80001c14	004577b3	and	x15,x10,x4	 x10:0x00000000  x4:0x80009fc4 x15=0x00000000
       62655000	      6264	80001c18	014e7833	and	x16,x28,x20	 x28:0x00000000 x20:0xfffffff7 x16=0x00000000
       62665000	      6265	80001c1c	35bd5d37	lui	x26,0x35bd5	 x26=0x35bd5000
       62675000	      6266	80001c20	ff4d94e3	bne	x27,x20,80001c08	 x27:0xfffffff7 x20:0xfffffff7
       62685000	      6267	80001c24	003a6833	or	x16,x20,x3	 x20:0xfffffff7  x3:0x00000010 x16=0xfffffff7
       62695000	      6268	80001c28	fa1f56e3	bge	x30,x1,80001bd4	 x30:0xffffffff  x1:0xffffffec
       62705000	      6269	00000000	00000013	addi	x0,x0,0	  x0:0x00000000
       62715000	      6270	80001bd0	00000013	addi	x0,x0,0	  x0:0x00000000
       62725000	      6271	80001bd4	1c98e813	ori	x16,x17,457	 x17:0x00000001 x16=0x000001c9
       62735000	      6272	80001bd8	011edc93	srli	x25,x29,0x11	 x29:0x80009f60 x25=0x00004000
       62745000	      6273	80001bdc	e1af6713	ori	x14,x30,-486	 x30:0xffffffff x14=0xffffffff
       62755000	      6274	80001be0	008cf133	and	x2,x25,x8	 x25:0x00004000  x8:0x00000780  x2=0x00000000
       62765000	      6275	80001be4	ff7f0f13	addi	x30,x30,-9	 x30:0xffffffff x30=0xfffffff6
       62775000	      6276	80001be8	01da96b3	sll	x13,x21,x29	 x21:0x00000001 x29:0x80009f60 x13=0x00000001
       62785000	      6277	80001bec	01f1e333	or	x6,x3,x31	  x3:0x00000010 x31:0xedb7c010  x6=0xedb7c010
       62795000	      6278	80001bf0	01f1efb3	or	x31,x3,x31	  x3:0x00000010 x31:0xedb7c010 x31=0xedb7c010
       62805000	      6279	80001bf4	ffd00d93	addi	x27,x0,-3	  x0:0x00000000 x27=0xfffffffd
       62815000	      6280	80001bf8	b6c2e117	auipc	x2,0xb6c2e	  x2=0x36c2fbf4
       62825000	      6281	80001bfc	00000013	addi	x0,x0,0	  x0:0x00000000
       62835000	      6282	80001c00	ff700a13	addi	x20,x0,-9	  x0:0x00000000 x20=0xfffffff7
       62845000	      6283	80001c04	41a55b93	srai	x23,x10,0x1a	 x10:0x00000000 x23=0x00000000
       62855000	      6284	80001c08	00b0a5b3	slt	x11,x1,x11	  x1:0xffffffec x11:0x00000000 x11=0x00000001
       62865000	      6285	80001c0c	00537c33	and	x24,x6,x5	  x6:0xedb7c010  x5:0x00000052 x24=0x00000010
       62875000	      6286	80001c10	ffad8d93	addi	x27,x27,-6	 x27:0xfffffffd x27=0xfffffff7
       62885000	      6287	80001c14	004577b3	and	x15,x10,x4	 x10:0x00000000  x4:0x80009fc4 x15=0x00000000
       62895000	      6288	80001c18	014e7833	and	x16,x28,x20	 x28:0x00000000 x20:0xfffffff7 x16=0x00000000
       62905000	      6289	80001c1c	35bd5d37	lui	x26,0x35bd5	 x26=0x35bd5000
       62915000	      6290	80001c20	ff4d94e3	bne	x27,x20,80001c08	 x27:0xfffffff7 x20:0xfffffff7
       62925000	      6291	80001c24	003a6833	or	x16,x20,x3	 x20:0xfffffff7  x3:0x00000010 x16=0xfffffff7
       62935000	      6292	80001c28	fa1f56e3	bge	x30,x1,80001bd4	 x30:0xfffffff6  x1:0xffffffec
       62945000	      6293	00000000	00000013	addi	x0,x0,0	  x0:0x00000000
       62955000	      6294	80001bd0	00000013	addi	x0,x0,0	  x0:0x00000000
       62965000	      6295	80001bd4	1c98e813	ori	x16,x17,457	 x17:0x00000001 x16=0x000001c9
       62975000	      6296	80001bd8	011edc93	srli	x25,x29,0x11	 x29:0x80009f60 x25=0x00004000
       62985000	      6297	80001bdc	e1af6713	ori	x14,x30,-486	 x30:0xfffffff6 x14=0xfffffffe
       62995000	      6298	80001be0	008cf133	and	x2,x25,x8	 x25:0x00004000  x8:0x00000780  x2=0x00000000
       63005000	      6299	80001be4	ff7f0f13	addi	x30,x30,-9	 x30:0xfffffff6 x30=0xffffffed
       63015000	      6300	80001be8	01da96b3	sll	x13,x21,x29	 x21:0x00000001 x29:0x80009f60 x13=0x00000001
       63025000	      6301	80001bec	01f1e333	or	x6,x3,x31	  x3:0x00000010 x31:0xedb7c010  x6=0xedb7c010
       63035000	      6302	80001bf0	01f1efb3	or	x31,x3,x31	  x3:0x00000010 x31:0xedb7c010 x31=0xedb7c010
       63045000	      6303	80001bf4	ffd00d93	addi	x27,x0,-3	  x0:0x00000000 x27=0xfffffffd
       63055000	      6304	80001bf8	b6c2e117	auipc	x2,0xb6c2e	  x2=0x36c2fbf4
       63065000	      6305	80001bfc	00000013	addi	x0,x0,0	  x0:0x00000000
       63075000	      6306	80001c00	ff700a13	addi	x20,x0,-9	  x0:0x00000000 x20=0xfffffff7
       63085000	      6307	80001c04	41a55b93	srai	x23,x10,0x1a	 x10:0x00000000 x23=0x00000000
       63095000	      6308	80001c08	00b0a5b3	slt	x11,x1,x11	  x1:0xffffffec x11:0x00000001 x11=0x00000001
       63105000	      6309	80001c0c	00537c33	and	x24,x6,x5	  x6:0xedb7c010  x5:0x00000052 x24=0x00000010
       63115000	      6310	80001c10	ffad8d93	addi	x27,x27,-6	 x27:0xfffffffd x27=0xfffffff7
       63125000	      6311	80001c14	004577b3	and	x15,x10,x4	 x10:0x00000000  x4:0x80009fc4 x15=0x00000000
       63135000	      6312	80001c18	014e7833	and	x16,x28,x20	 x28:0x00000000 x20:0xfffffff7 x16=0x00000000
       63145000	      6313	80001c1c	35bd5d37	lui	x26,0x35bd5	 x26=0x35bd5000
       63155000	      6314	80001c20	ff4d94e3	bne	x27,x20,80001c08	 x27:0xfffffff7 x20:0xfffffff7
       63165000	      6315	80001c24	003a6833	or	x16,x20,x3	 x20:0xfffffff7  x3:0x00000010 x16=0xfffffff7
       63175000	      6316	80001c28	fa1f56e3	bge	x30,x1,80001bd4	 x30:0xffffffed  x1:0xffffffec
       63185000	      6317	00000000	00000013	addi	x0,x0,0	  x0:0x00000000
       63195000	      6318	80001bd0	00000013	addi	x0,x0,0	  x0:0x00000000
       63205000	      6319	80001bd4	1c98e813	ori	x16,x17,457	 x17:0x00000001 x16=0x000001c9
       63215000	      6320	80001bd8	011edc93	srli	x25,x29,0x11	 x29:0x80009f60 x25=0x00004000
       63225000	      6321	80001bdc	e1af6713	ori	x14,x30,-486	 x30:0xffffffed x14=0xffffffff
       63235000	      6322	80001be0	008cf133	and	x2,x25,x8	 x25:0x00004000  x8:0x00000780  x2=0x00000000
       63245000	      6323	80001be4	ff7f0f13	addi	x30,x30,-9	 x30:0xffffffed x30=0xffffffe4
       63255000	      6324	80001be8	01da96b3	sll	x13,x21,x29	 x21:0x00000001 x29:0x80009f60 x13=0x00000001
       63265000	      6325	80001bec	01f1e333	or	x6,x3,x31	  x3:0x00000010 x31:0xedb7c010  x6=0xedb7c010
       63275000	      6326	80001bf0	01f1efb3	or	x31,x3,x31	  x3:0x00000010 x31:0xedb7c010 x31=0xedb7c010
       63285000	      6327	80001bf4	ffd00d93	addi	x27,x0,-3	  x0:0x00000000 x27=0xfffffffd
       63295000	      6328	80001bf8	b6c2e117	auipc	x2,0xb6c2e	  x2=0x36c2fbf4
       63305000	      6329	80001bfc	00000013	addi	x0,x0,0	  x0:0x00000000
       63315000	      6330	80001c00	ff700a13	addi	x20,x0,-9	  x0:0x00000000 x20=0xfffffff7
       63325000	      6331	80001c04	41a55b93	srai	x23,x10,0x1a	 x10:0x00000000 x23=0x00000000
       63335000	      6332	80001c08	00b0a5b3	slt	x11,x1,x11	  x1:0xffffffec x11:0x00000001 x11=0x00000001
       63345000	      6333	80001c0c	00537c33	and	x24,x6,x5	  x6:0xedb7c010  x5:0x00000052 x24=0x00000010
       63355000	      6334	80001c10	ffad8d93	addi	x27,x27,-6	 x27:0xfffffffd x27=0xfffffff7
       63365000	      6335	80001c14	004577b3	and	x15,x10,x4	 x10:0x00000000  x4:0x80009fc4 x15=0x00000000
       63375000	      6336	80001c18	014e7833	and	x16,x28,x20	 x28:0x00000000 x20:0xfffffff7 x16=0x00000000
       63385000	      6337	80001c1c	35bd5d37	lui	x26,0x35bd5	 x26=0x35bd5000
       63395000	      6338	80001c20	ff4d94e3	bne	x27,x20,80001c08	 x27:0xfffffff7 x20:0xfffffff7
       63405000	      6339	80001c24	003a6833	or	x16,x20,x3	 x20:0xfffffff7  x3:0x00000010 x16=0xfffffff7
       63415000	      6340	80001c28	fa1f56e3	bge	x30,x1,80001bd4	 x30:0xffffffe4  x1:0xffffffec
       63425000	      6341	80001c2c	01af2133	slt	x2,x30,x26	 x30:0xffffffe4 x26:0x35bd5000  x2=0x00000001
       63435000	      6342	80001c30	00600b93	addi	x23,x0,6	  x0:0x00000000 x23=0x00000006
       63445000	      6343	80001c34	41f0d793	srai	x15,x1,0x1f	  x1:0xffffffec x15=0xffffffff
       63455000	      6344	80001c38	a0dc2fb7	lui	x31,0xa0dc2	 x31=0xa0dc2000
       63465000	      6345	80001c3c	01db09b3	add	x19,x22,x29	 x22:0x00000000 x29:0x80009f60 x19=0x80009f60
       63475000	      6346	80001c40	b1f8f813	andi	x16,x17,-1249	 x17:0x00000001 x16=0x00000001
       63485000	      6347	80001c44	017ab533	sltu	x10,x21,x23	 x21:0x00000001 x23:0x00000006 x10=0x00000001
       63495000	      6348	80001c48	00000013	addi	x0,x0,0	  x0:0x00000000
       63505000	      6349	80001c4c	00f00193	addi	x3,x0,15	  x0:0x00000000  x3=0x0000000f
       63515000	      6350	80001c50	7eb3e013	ori	x0,x7,2027	  x7:0x00000353
       63525000	      6351	80001c54	74d67b13	andi	x22,x12,1869	 x12:0x00000001 x22=0x00000001
       63535000	      6352	80001c58	012b9993	slli	x19,x23,0x12	 x23:0x00000006 x19=0x00180000
       63545000	      6353	80001c5c	727aaf93	slti	x31,x21,1831	 x21:0x00000001 x31=0x00000001
       63555000	      6354	80001c60	01dc3333	sltu	x6,x24,x29	 x24:0x00000010 x29:0x80009f60  x6=0x00000001
       63565000	      6355	80001c64	bf2ccc13	xori	x24,x25,-1038	 x25:0x00004000 x24=0xffffbbf2
       63575000	      6356	80001c68	d3293613	sltiu	x12,x18,-718	 x18:0x400006c4 x12=0x00000001
       63585000	      6357	80001c6c	403b8133	sub	x2,x23,x3	 x23:0x00000006  x3:0x0000000f  x2=0xfffffff7
       63595000	      6358	80001c70	2cc4c513	xori	x10,x9,716	  x9:0x00000001 x10=0x000002cd
       63605000	      6359	80001c74	007a5b33	srl	x22,x20,x7	 x20:0xfffffff7  x7:0x00000353 x22=0x00001fff
       63615000	      6360	80001c78	cf065c37	lui	x24,0xcf065	 x24=0xcf065000
       63625000	      6361	80001c7c	002b8b93	addi	x23,x23,2	 x23:0x00000006 x23=0x00000008
       63635000	      6362	80001c80	0b4d7893	andi	x17,x26,180	 x26:0x35bd5000 x17=0x00000000
       63645000	      6363	80001c84	014815b3	sll	x11,x16,x20	 x16:0x00000001 x20:0xfffffff7 x11=0x00800000
       63655000	      6364	80001c88	01f39593	slli	x11,x7,0x1f	  x7:0x00000353 x11=0x80000000
       63665000	      6365	80001c8c	00000013	addi	x0,x0,0	  x0:0x00000000
       63675000	      6366	80001c90	fc3be6e3	bltu	x23,x3,80001c5c	 x23:0x00000008  x3:0x0000000f
       63685000	      6367	00000000	00000013	addi	x0,x0,0	  x0:0x00000000
       63695000	      6368	80001c58	00000013	addi	x0,x0,0	  x0:0x00000000
       63705000	      6369	80001c5c	727aaf93	slti	x31,x21,1831	 x21:0x00000001 x31=0x00000001
       63715000	      6370	80001c60	01dc3333	sltu	x6,x24,x29	 x24:0xcf065000 x29:0x80009f60  x6=0x00000000
       63725000	      6371	80001c64	bf2ccc13	xori	x24,x25,-1038	 x25:0x00004000 x24=0xffffbbf2
       63735000	      6372	80001c68	d3293613	sltiu	x12,x18,-718	 x18:0x400006c4 x12=0x00000001
       63745000	      6373	80001c6c	403b8133	sub	x2,x23,x3	 x23:0x00000008  x3:0x0000000f  x2=0xfffffff9
       63755000	      6374	80001c70	2cc4c513	xori	x10,x9,716	  x9:0x00000001 x10=0x000002cd
       63765000	      6375	80001c74	007a5b33	srl	x22,x20,x7	 x20:0xfffffff7  x7:0x00000353 x22=0x00001fff
       63775000	      6376	80001c78	cf065c37	lui	x24,0xcf065	 x24=0xcf065000
       63785000	      6377	80001c7c	002b8b93	addi	x23,x23,2	 x23:0x00000008 x23=0x0000000a
       63795000	      6378	80001c80	0b4d7893	andi	x17,x26,180	 x26:0x35bd5000 x17=0x00000000
       63805000	      6379	80001c84	014815b3	sll	x11,x16,x20	 x16:0x00000001 x20:0xfffffff7 x11=0x00800000
       63815000	      6380	80001c88	01f39593	slli	x11,x7,0x1f	  x7:0x00000353 x11=0x80000000
       63825000	      6381	80001c8c	00000013	addi	x0,x0,0	  x0:0x00000000
       63835000	      6382	80001c90	fc3be6e3	bltu	x23,x3,80001c5c	 x23:0x0000000a  x3:0x0000000f
       63845000	      6383	00000000	00000013	addi	x0,x0,0	  x0:0x00000000
       63855000	      6384	80001c58	00000013	addi	x0,x0,0	  x0:0x00000000
       63865000	      6385	80001c5c	727aaf93	slti	x31,x21,1831	 x21:0x00000001 x31=0x00000001
       63875000	      6386	80001c60	01dc3333	sltu	x6,x24,x29	 x24:0xcf065000 x29:0x80009f60  x6=0x00000000
       63885000	      6387	80001c64	bf2ccc13	xori	x24,x25,-1038	 x25:0x00004000 x24=0xffffbbf2
       63895000	      6388	80001c68	d3293613	sltiu	x12,x18,-718	 x18:0x400006c4 x12=0x00000001
       63905000	      6389	80001c6c	403b8133	sub	x2,x23,x3	 x23:0x0000000a  x3:0x0000000f  x2=0xfffffffb
       63915000	      6390	80001c70	2cc4c513	xori	x10,x9,716	  x9:0x00000001 x10=0x000002cd
       63925000	      6391	80001c74	007a5b33	srl	x22,x20,x7	 x20:0xfffffff7  x7:0x00000353 x22=0x00001fff
       63935000	      6392	80001c78	cf065c37	lui	x24,0xcf065	 x24=0xcf065000
       63945000	      6393	80001c7c	002b8b93	addi	x23,x23,2	 x23:0x0000000a x23=0x0000000c
       63955000	      6394	80001c80	0b4d7893	andi	x17,x26,180	 x26:0x35bd5000 x17=0x00000000
       63965000	      6395	80001c84	014815b3	sll	x11,x16,x20	 x16:0x00000001 x20:0xfffffff7 x11=0x00800000
       63975000	      6396	80001c88	01f39593	slli	x11,x7,0x1f	  x7:0x00000353 x11=0x80000000
       63985000	      6397	80001c8c	00000013	addi	x0,x0,0	  x0:0x00000000
       63995000	      6398	80001c90	fc3be6e3	bltu	x23,x3,80001c5c	 x23:0x0000000c  x3:0x0000000f
       64005000	      6399	00000000	00000013	addi	x0,x0,0	  x0:0x00000000
       64015000	      6400	80001c58	00000013	addi	x0,x0,0	  x0:0x00000000
       64025000	      6401	80001c5c	727aaf93	slti	x31,x21,1831	 x21:0x00000001 x31=0x00000001
       64035000	      6402	80001c60	01dc3333	sltu	x6,x24,x29	 x24:0xcf065000 x29:0x80009f60  x6=0x00000000
       64045000	      6403	80001c64	bf2ccc13	xori	x24,x25,-1038	 x25:0x00004000 x24=0xffffbbf2
       64055000	      6404	80001c68	d3293613	sltiu	x12,x18,-718	 x18:0x400006c4 x12=0x00000001
       64065000	      6405	80001c6c	403b8133	sub	x2,x23,x3	 x23:0x0000000c  x3:0x0000000f  x2=0xfffffffd
       64075000	      6406	80001c70	2cc4c513	xori	x10,x9,716	  x9:0x00000001 x10=0x000002cd
       64085000	      6407	80001c74	007a5b33	srl	x22,x20,x7	 x20:0xfffffff7  x7:0x00000353 x22=0x00001fff
       64095000	      6408	80001c78	cf065c37	lui	x24,0xcf065	 x24=0xcf065000
       64105000	      6409	80001c7c	002b8b93	addi	x23,x23,2	 x23:0x0000000c x23=0x0000000e
       64115000	      6410	80001c80	0b4d7893	andi	x17,x26,180	 x26:0x35bd5000 x17=0x00000000
       64125000	      6411	80001c84	014815b3	sll	x11,x16,x20	 x16:0x00000001 x20:0xfffffff7 x11=0x00800000
       64135000	      6412	80001c88	01f39593	slli	x11,x7,0x1f	  x7:0x00000353 x11=0x80000000
       64145000	      6413	80001c8c	00000013	addi	x0,x0,0	  x0:0x00000000
       64155000	      6414	80001c90	fc3be6e3	bltu	x23,x3,80001c5c	 x23:0x0000000e  x3:0x0000000f
       64165000	      6415	00000000	00000013	addi	x0,x0,0	  x0:0x00000000
       64175000	      6416	80001c58	00000013	addi	x0,x0,0	  x0:0x00000000
       64185000	      6417	80001c5c	727aaf93	slti	x31,x21,1831	 x21:0x00000001 x31=0x00000001
       64195000	      6418	80001c60	01dc3333	sltu	x6,x24,x29	 x24:0xcf065000 x29:0x80009f60  x6=0x00000000
       64205000	      6419	80001c64	bf2ccc13	xori	x24,x25,-1038	 x25:0x00004000 x24=0xffffbbf2
       64215000	      6420	80001c68	d3293613	sltiu	x12,x18,-718	 x18:0x400006c4 x12=0x00000001
       64225000	      6421	80001c6c	403b8133	sub	x2,x23,x3	 x23:0x0000000e  x3:0x0000000f  x2=0xffffffff
       64235000	      6422	80001c70	2cc4c513	xori	x10,x9,716	  x9:0x00000001 x10=0x000002cd
       64245000	      6423	80001c74	007a5b33	srl	x22,x20,x7	 x20:0xfffffff7  x7:0x00000353 x22=0x00001fff
       64255000	      6424	80001c78	cf065c37	lui	x24,0xcf065	 x24=0xcf065000
       64265000	      6425	80001c7c	002b8b93	addi	x23,x23,2	 x23:0x0000000e x23=0x00000010
       64275000	      6426	80001c80	0b4d7893	andi	x17,x26,180	 x26:0x35bd5000 x17=0x00000000
       64285000	      6427	80001c84	014815b3	sll	x11,x16,x20	 x16:0x00000001 x20:0xfffffff7 x11=0x00800000
       64295000	      6428	80001c88	01f39593	slli	x11,x7,0x1f	  x7:0x00000353 x11=0x80000000
       64305000	      6429	80001c8c	00000013	addi	x0,x0,0	  x0:0x00000000
       64315000	      6430	80001c90	fc3be6e3	bltu	x23,x3,80001c5c	 x23:0x00000010  x3:0x0000000f
       64325000	      6431	80001c94	01acd3b3	srl	x7,x25,x26	 x25:0x00004000 x26:0x35bd5000  x7=0x00004000
       64335000	      6432	80001c98	ffb00813	addi	x16,x0,-5	  x0:0x00000000 x16=0xfffffffb
       64345000	      6433	80001c9c	ff700993	addi	x19,x0,-9	  x0:0x00000000 x19=0xfffffff7
       64355000	      6434	80001ca0	41acd2b3	sra	x5,x25,x26	 x25:0x00004000 x26:0x35bd5000  x5=0x00004000
       64365000	      6435	80001ca4	1752a393	slti	x7,x5,373	  x5:0x00004000  x7=0x00000000
       64375000	      6436	80001ca8	ffc80813	addi	x16,x16,-4	 x16:0xfffffffb x16=0xfffffff7
       64385000	      6437	80001cac	ffa00613	addi	x12,x0,-6	  x0:0x00000000 x12=0xfffffffa
       64395000	      6438	80001cb0	00610ab3	add	x21,x2,x6	  x2:0xffffffff  x6:0x00000000 x21=0xffffffff
       64405000	      6439	80001cb4	017cbfb3	sltu	x31,x25,x23	 x25:0x00004000 x23:0x00000010 x31=0x00000000
       64415000	      6440	80001cb8	ff200d13	addi	x26,x0,-14	  x0:0x00000000 x26=0xfffffff2
       64425000	      6441	80001cbc	d9bd1437	lui	x8,0xd9bd1	  x8=0xd9bd1000
       64435000	      6442	80001cc0	014afb33	and	x22,x21,x20	 x21:0xffffffff x20:0xfffffff7 x22=0xfffffff7
       64445000	      6443	80001cc4	ff860613	addi	x12,x12,-8	 x12:0xfffffffa x12=0xfffffff2
       64455000	      6444	80001cc8	ffa61ae3	bne	x12,x26,80001cbc	 x12:0xfffffff2 x26:0xfffffff2
       64465000	      6445	80001ccc	fd380ce3	beq	x16,x19,80001ca4	 x16:0xfffffff7 x19:0xfffffff7
       64475000	      6446	00000000	00000013	addi	x0,x0,0	  x0:0x00000000
       64485000	      6447	80001ca0	00000013	addi	x0,x0,0	  x0:0x00000000
       64495000	      6448	80001ca4	1752a393	slti	x7,x5,373	  x5:0x00004000  x7=0x00000000
       64505000	      6449	80001ca8	ffc80813	addi	x16,x16,-4	 x16:0xfffffff7 x16=0xfffffff3
       64515000	      6450	80001cac	ffa00613	addi	x12,x0,-6	  x0:0x00000000 x12=0xfffffffa
       64525000	      6451	80001cb0	00610ab3	add	x21,x2,x6	  x2:0xffffffff  x6:0x00000000 x21=0xffffffff
       64535000	      6452	80001cb4	017cbfb3	sltu	x31,x25,x23	 x25:0x00004000 x23:0x00000010 x31=0x00000000
       64545000	      6453	80001cb8	ff200d13	addi	x26,x0,-14	  x0:0x00000000 x26=0xfffffff2
       64555000	      6454	80001cbc	d9bd1437	lui	x8,0xd9bd1	  x8=0xd9bd1000
       64565000	      6455	80001cc0	014afb33	and	x22,x21,x20	 x21:0xffffffff x20:0xfffffff7 x22=0xfffffff7
       64575000	      6456	80001cc4	ff860613	addi	x12,x12,-8	 x12:0xfffffffa x12=0xfffffff2
       64585000	      6457	80001cc8	ffa61ae3	bne	x12,x26,80001cbc	 x12:0xfffffff2 x26:0xfffffff2
       64595000	      6458	80001ccc	fd380ce3	beq	x16,x19,80001ca4	 x16:0xfffffff3 x19:0xfffffff7
       64605000	      6459	80001cd0	01604f33	xor	x30,x0,x22	  x0:0x00000000 x22:0xfffffff7 x30=0xfffffff7
       64615000	      6460	80001cd4	00a00293	addi	x5,x0,10	  x0:0x00000000  x5=0x0000000a
       64625000	      6461	80001cd8	003bf0b3	and	x1,x23,x3	 x23:0x00000010  x3:0x0000000f  x1=0x00000000
       64635000	      6462	80001cdc	005ba7b3	slt	x15,x23,x5	 x23:0x00000010  x5:0x0000000a x15=0x00000000
       64645000	      6463	80001ce0	00600413	addi	x8,x0,6	  x0:0x00000000  x8=0x00000006
       64655000	      6464	80001ce4	40e5d833	sra	x16,x11,x14	 x11:0x80000000 x14:0xffffffff x16=0xffffffff
       64665000	      6465	80001ce8	e626f793	andi	x15,x13,-414	 x13:0x00000001 x15=0x00000000
       64675000	      6466	80001cec	00000013	addi	x0,x0,0	  x0:0x00000000
       64685000	      6467	80001cf0	00b2e133	or	x2,x5,x11	  x5:0x0000000a x11:0x80000000  x2=0x8000000a
       64695000	      6468	80001cf4	ffb28293	addi	x5,x5,-5	  x5:0x0000000a  x5=0x00000005
       64705000	      6469	80001cf8	008ce733	or	x14,x25,x8	 x25:0x00004000  x8:0x00000006 x14=0x00004006
       64715000	      6470	80001cfc	0164c933	xor	x18,x9,x22	  x9:0x00000001 x22:0xfffffff7 x18=0xfffffff6
       64725000	      6471	80001d00	91b94117	auipc	x2,0x91b94	  x2=0x11b95cfc
       64735000	      6472	80001d04	28f8e797	auipc	x15,0x28f8e	 x15=0xa8f8fd00
       64745000	      6473	80001d08	fe82f2e3	bgeu	x5,x8,80001cec	  x5:0x00000005  x8:0x00000006
       64755000	      6474	80001d0c	2826a913	slti	x18,x13,642	 x13:0x00000001 x18=0x00000001
       64765000	      6475	80001d10	00500113	addi	x2,x0,5	  x0:0x00000000  x2=0x00000005
       64775000	      6476	80001d14	00de1593	slli	x11,x28,0xd	 x28:0x00000000 x11=0x00000000
       64785000	      6477	80001d18	5637e297	auipc	x5,0x5637e	  x5=0xd637fd14
       64795000	      6478	80001d1c	3a48c193	xori	x3,x17,932	 x17:0x00000000  x3=0x000003a4
       64805000	      6479	80001d20	01027633	and	x12,x4,x16	  x4:0x80009fc4 x16:0xffffffff x12=0x80009fc4
       64815000	      6480	80001d24	009d17b3	sll	x15,x26,x9	 x26:0xfffffff2  x9:0x00000001 x15=0xffffffe4
       64825000	      6481	80001d28	001eb333	sltu	x6,x29,x1	 x29:0x80009f60  x1:0x00000000  x6=0x00000000
       64835000	      6482	80001d2c	00000013	addi	x0,x0,0	  x0:0x00000000
       64845000	      6483	80001d30	8f105ab7	lui	x21,0x8f105	 x21=0x8f105000
       64855000	      6484	80001d34	0032e6b3	or	x13,x5,x3	  x5:0xd637fd14  x3:0x000003a4 x13=0xd637ffb4
       64865000	      6485	80001d38	007fd7b3	srl	x15,x31,x7	 x31:0x00000000  x7:0x00000000 x15=0x00000000
       64875000	      6486	80001d3c	00f00b13	addi	x22,x0,15	  x0:0x00000000 x22=0x0000000f
       64885000	      6487	80001d40	00489533	sll	x10,x17,x4	 x17:0x00000000  x4:0x80009fc4 x10=0x00000000
       64895000	      6488	80001d44	40edd513	srai	x10,x27,0xe	 x27:0xfffffff7 x10=0xffffffff
       64905000	      6489	80001d48	014f7833	and	x16,x30,x20	 x30:0xfffffff7 x20:0xfffffff7 x16=0xfffffff7
       64915000	      6490	80001d4c	40e1dc93	srai	x25,x3,0xe	  x3:0x000003a4 x25=0x00000000
       64925000	      6491	80001d50	00c96633	or	x12,x18,x12	 x18:0x00000001 x12:0x80009fc4 x12=0x80009fc5
       64935000	      6492	80001d54	000ff3b3	and	x7,x31,x0	 x31:0x00000000  x0:0x00000000  x7=0x00000000
       64945000	      6493	80001d58	00810113	addi	x2,x2,8	  x2:0x00000005  x2=0x0000000d
       64955000	      6494	80001d5c	00f0d033	srl	x0,x1,x15	  x1:0x00000000 x15:0x00000000
       64965000	      6495	80001d60	86670513	addi	x10,x14,-1946	 x14:0x00004006 x10=0x0000386c
       64975000	      6496	80001d64	ff6162e3	bltu	x2,x22,80001d48	  x2:0x0000000d x22:0x0000000f
       64985000	      6497	00000000	00000013	addi	x0,x0,0	  x0:0x00000000
       64995000	      6498	80001d44	00000013	addi	x0,x0,0	  x0:0x00000000
       65005000	      6499	80001d48	014f7833	and	x16,x30,x20	 x30:0xfffffff7 x20:0xfffffff7 x16=0xfffffff7
       65015000	      6500	80001d4c	40e1dc93	srai	x25,x3,0xe	  x3:0x000003a4 x25=0x00000000
       65025000	      6501	80001d50	00c96633	or	x12,x18,x12	 x18:0x00000001 x12:0x80009fc5 x12=0x80009fc5
       65035000	      6502	80001d54	000ff3b3	and	x7,x31,x0	 x31:0x00000000  x0:0x00000000  x7=0x00000000
       65045000	      6503	80001d58	00810113	addi	x2,x2,8	  x2:0x0000000d  x2=0x00000015
       65055000	      6504	80001d5c	00f0d033	srl	x0,x1,x15	  x1:0x00000000 x15:0x00000000
       65065000	      6505	80001d60	86670513	addi	x10,x14,-1946	 x14:0x00004006 x10=0x0000386c
       65075000	      6506	80001d64	ff6162e3	bltu	x2,x22,80001d48	  x2:0x00000015 x22:0x0000000f
       65085000	      6507	80001d68	00a65893	srli	x17,x12,0xa	 x12:0x80009fc5 x17=0x00200027
       65095000	      6508	80001d6c	00700d93	addi	x27,x0,7	  x0:0x00000000 x27=0x00000007
       65105000	      6509	80001d70	00d00313	addi	x6,x0,13	  x0:0x00000000  x6=0x0000000d
       65115000	      6510	80001d74	307b3093	sltiu	x1,x22,775	 x22:0x0000000f  x1=0x00000001
       65125000	      6511	80001d78	002d8d93	addi	x27,x27,2	 x27:0x00000007 x27=0x00000009
       65135000	      6512	80001d7c	00a00893	addi	x17,x0,10	  x0:0x00000000 x17=0x0000000a
       65145000	      6513	80001d80	00a00a93	addi	x21,x0,10	  x0:0x00000000 x21=0x0000000a
       65155000	      6514	80001d84	005649b3	xor	x19,x12,x5	 x12:0x80009fc5  x5:0xd637fd14 x19=0x563762d1
       65165000	      6515	80001d88	ff788893	addi	x17,x17,-9	 x17:0x0000000a x17=0x00000001
       65175000	      6516	80001d8c	ff58fce3	bgeu	x17,x21,80001d84	 x17:0x00000001 x21:0x0000000a
       65185000	      6517	80001d90	fe6dc2e3	blt	x27,x6,80001d74	 x27:0x00000009  x6:0x0000000d
       65195000	      6518	00000000	00000013	addi	x0,x0,0	  x0:0x00000000
       65205000	      6519	80001d70	00000013	addi	x0,x0,0	  x0:0x00000000
       65215000	      6520	80001d74	307b3093	sltiu	x1,x22,775	 x22:0x0000000f  x1=0x00000001
       65225000	      6521	80001d78	002d8d93	addi	x27,x27,2	 x27:0x00000009 x27=0x0000000b
       65235000	      6522	80001d7c	00a00893	addi	x17,x0,10	  x0:0x00000000 x17=0x0000000a
       65245000	      6523	80001d80	00a00a93	addi	x21,x0,10	  x0:0x00000000 x21=0x0000000a
       65255000	      6524	80001d84	005649b3	xor	x19,x12,x5	 x12:0x80009fc5  x5:0xd637fd14 x19=0x563762d1
       65265000	      6525	80001d88	ff788893	addi	x17,x17,-9	 x17:0x0000000a x17=0x00000001
       65275000	      6526	80001d8c	ff58fce3	bgeu	x17,x21,80001d84	 x17:0x00000001 x21:0x0000000a
       65285000	      6527	80001d90	fe6dc2e3	blt	x27,x6,80001d74	 x27:0x0000000b  x6:0x0000000d
       65295000	      6528	00000000	00000013	addi	x0,x0,0	  x0:0x00000000
       65305000	      6529	80001d70	00000013	addi	x0,x0,0	  x0:0x00000000
       65315000	      6530	80001d74	307b3093	sltiu	x1,x22,775	 x22:0x0000000f  x1=0x00000001
       65325000	      6531	80001d78	002d8d93	addi	x27,x27,2	 x27:0x0000000b x27=0x0000000d
       65335000	      6532	80001d7c	00a00893	addi	x17,x0,10	  x0:0x00000000 x17=0x0000000a
       65345000	      6533	80001d80	00a00a93	addi	x21,x0,10	  x0:0x00000000 x21=0x0000000a
       65355000	      6534	80001d84	005649b3	xor	x19,x12,x5	 x12:0x80009fc5  x5:0xd637fd14 x19=0x563762d1
       65365000	      6535	80001d88	ff788893	addi	x17,x17,-9	 x17:0x0000000a x17=0x00000001
       65375000	      6536	80001d8c	ff58fce3	bgeu	x17,x21,80001d84	 x17:0x00000001 x21:0x0000000a
       65385000	      6537	80001d90	fe6dc2e3	blt	x27,x6,80001d74	 x27:0x0000000d  x6:0x0000000d
       65395000	      6538	80001d94	0305c113	xori	x2,x11,48	 x11:0x00000000  x2=0x00000030
       65405000	      6539	80001d98	00100e13	addi	x28,x0,1	  x0:0x00000000 x28=0x00000001
       65415000	      6540	80001d9c	011682b3	add	x5,x13,x17	 x13:0xd637ffb4 x17:0x00000001  x5=0xd637ffb5
       65425000	      6541	80001da0	c3e24a93	xori	x21,x4,-962	  x4:0x80009fc4 x21=0x7fff63fa
       65435000	      6542	80001da4	ff400413	addi	x8,x0,-12	  x0:0x00000000  x8=0xfffffff4
       65445000	      6543	80001da8	91f94313	xori	x6,x18,-1761	 x18:0x00000001  x6=0xfffff91e
       65455000	      6544	80001dac	01963cb3	sltu	x25,x12,x25	 x12:0x80009fc5 x25:0x00000000 x25=0x00000000
       65465000	      6545	80001db0	ffce0e13	addi	x28,x28,-4	 x28:0x00000001 x28=0xfffffffd
       65475000	      6546	80001db4	007262b3	or	x5,x4,x7	  x4:0x80009fc4  x7:0x00000000  x5=0x80009fc4
       65485000	      6547	80001db8	00900513	addi	x10,x0,9	  x0:0x00000000 x10=0x00000009
       65495000	      6548	80001dbc	00700393	addi	x7,x0,7	  x0:0x00000000  x7=0x00000007
       65505000	      6549	80001dc0	00e48633	add	x12,x9,x14	  x9:0x00000001 x14:0x00004006 x12=0x00004007
       65515000	      6550	80001dc4	6cf6cb17	auipc	x22,0x6cf6c	 x22=0xecf6ddc0
       65525000	      6551	80001dc8	fff50513	addi	x10,x10,-1	 x10:0x00000009 x10=0x00000008
       65535000	      6552	80001dcc	fe757ce3	bgeu	x10,x7,80001dc4	 x10:0x00000008  x7:0x00000007
       65545000	      6553	00000000	00000013	addi	x0,x0,0	  x0:0x00000000
       65555000	      6554	80001dc0	00000013	addi	x0,x0,0	  x0:0x00000000
       65565000	      6555	80001dc4	6cf6cb17	auipc	x22,0x6cf6c	 x22=0xecf6ddc0
       65575000	      6556	80001dc8	fff50513	addi	x10,x10,-1	 x10:0x00000008 x10=0x00000007
       65585000	      6557	80001dcc	fe757ce3	bgeu	x10,x7,80001dc4	 x10:0x00000007  x7:0x00000007
       65595000	      6558	00000000	00000013	addi	x0,x0,0	  x0:0x00000000
       65605000	      6559	80001dc0	00000013	addi	x0,x0,0	  x0:0x00000000
       65615000	      6560	80001dc4	6cf6cb17	auipc	x22,0x6cf6c	 x22=0xecf6ddc0
       65625000	      6561	80001dc8	fff50513	addi	x10,x10,-1	 x10:0x00000007 x10=0x00000006
       65635000	      6562	80001dcc	fe757ce3	bgeu	x10,x7,80001dc4	 x10:0x00000006  x7:0x00000007
       65645000	      6563	80001dd0	015ad593	srli	x11,x21,0x15	 x21:0x7fff63fa x11=0x000003ff
       65655000	      6564	80001dd4	f6774c93	xori	x25,x14,-153	 x14:0x00004006 x25=0xffffbf61
       65665000	      6565	80001dd8	fc8e58e3	bge	x28,x8,80001da8	 x28:0xfffffffd  x8:0xfffffff4
       65675000	      6566	00000000	00000013	addi	x0,x0,0	  x0:0x00000000
       65685000	      6567	80001da4	00000013	addi	x0,x0,0	  x0:0x00000000
       65695000	      6568	80001da8	91f94313	xori	x6,x18,-1761	 x18:0x00000001  x6=0xfffff91e
       65705000	      6569	80001dac	01963cb3	sltu	x25,x12,x25	 x12:0x00004007 x25:0xffffbf61 x25=0x00000001
       65715000	      6570	80001db0	ffce0e13	addi	x28,x28,-4	 x28:0xfffffffd x28=0xfffffff9
       65725000	      6571	80001db4	007262b3	or	x5,x4,x7	  x4:0x80009fc4  x7:0x00000007  x5=0x80009fc7
       65735000	      6572	80001db8	00900513	addi	x10,x0,9	  x0:0x00000000 x10=0x00000009
       65745000	      6573	80001dbc	00700393	addi	x7,x0,7	  x0:0x00000000  x7=0x00000007
       65755000	      6574	80001dc0	00e48633	add	x12,x9,x14	  x9:0x00000001 x14:0x00004006 x12=0x00004007
       65765000	      6575	80001dc4	6cf6cb17	auipc	x22,0x6cf6c	 x22=0xecf6ddc0
       65775000	      6576	80001dc8	fff50513	addi	x10,x10,-1	 x10:0x00000009 x10=0x00000008
       65785000	      6577	80001dcc	fe757ce3	bgeu	x10,x7,80001dc4	 x10:0x00000008  x7:0x00000007
       65795000	      6578	00000000	00000013	addi	x0,x0,0	  x0:0x00000000
       65805000	      6579	80001dc0	00000013	addi	x0,x0,0	  x0:0x00000000
       65815000	      6580	80001dc4	6cf6cb17	auipc	x22,0x6cf6c	 x22=0xecf6ddc0
       65825000	      6581	80001dc8	fff50513	addi	x10,x10,-1	 x10:0x00000008 x10=0x00000007
       65835000	      6582	80001dcc	fe757ce3	bgeu	x10,x7,80001dc4	 x10:0x00000007  x7:0x00000007
       65845000	      6583	00000000	00000013	addi	x0,x0,0	  x0:0x00000000
       65855000	      6584	80001dc0	00000013	addi	x0,x0,0	  x0:0x00000000
       65865000	      6585	80001dc4	6cf6cb17	auipc	x22,0x6cf6c	 x22=0xecf6ddc0
       65875000	      6586	80001dc8	fff50513	addi	x10,x10,-1	 x10:0x00000007 x10=0x00000006
       65885000	      6587	80001dcc	fe757ce3	bgeu	x10,x7,80001dc4	 x10:0x00000006  x7:0x00000007
       65895000	      6588	80001dd0	015ad593	srli	x11,x21,0x15	 x21:0x7fff63fa x11=0x000003ff
       65905000	      6589	80001dd4	f6774c93	xori	x25,x14,-153	 x14:0x00004006 x25=0xffffbf61
       65915000	      6590	80001dd8	fc8e58e3	bge	x28,x8,80001da8	 x28:0xfffffff9  x8:0xfffffff4
       65925000	      6591	00000000	00000013	addi	x0,x0,0	  x0:0x00000000
       65935000	      6592	80001da4	00000013	addi	x0,x0,0	  x0:0x00000000
       65945000	      6593	80001da8	91f94313	xori	x6,x18,-1761	 x18:0x00000001  x6=0xfffff91e
       65955000	      6594	80001dac	01963cb3	sltu	x25,x12,x25	 x12:0x00004007 x25:0xffffbf61 x25=0x00000001
       65965000	      6595	80001db0	ffce0e13	addi	x28,x28,-4	 x28:0xfffffff9 x28=0xfffffff5
       65975000	      6596	80001db4	007262b3	or	x5,x4,x7	  x4:0x80009fc4  x7:0x00000007  x5=0x80009fc7
       65985000	      6597	80001db8	00900513	addi	x10,x0,9	  x0:0x00000000 x10=0x00000009
       65995000	      6598	80001dbc	00700393	addi	x7,x0,7	  x0:0x00000000  x7=0x00000007
       66005000	      6599	80001dc0	00e48633	add	x12,x9,x14	  x9:0x00000001 x14:0x00004006 x12=0x00004007
       66015000	      6600	80001dc4	6cf6cb17	auipc	x22,0x6cf6c	 x22=0xecf6ddc0
       66025000	      6601	80001dc8	fff50513	addi	x10,x10,-1	 x10:0x00000009 x10=0x00000008
       66035000	      6602	80001dcc	fe757ce3	bgeu	x10,x7,80001dc4	 x10:0x00000008  x7:0x00000007
       66045000	      6603	00000000	00000013	addi	x0,x0,0	  x0:0x00000000
       66055000	      6604	80001dc0	00000013	addi	x0,x0,0	  x0:0x00000000
       66065000	      6605	80001dc4	6cf6cb17	auipc	x22,0x6cf6c	 x22=0xecf6ddc0
       66075000	      6606	80001dc8	fff50513	addi	x10,x10,-1	 x10:0x00000008 x10=0x00000007
       66085000	      6607	80001dcc	fe757ce3	bgeu	x10,x7,80001dc4	 x10:0x00000007  x7:0x00000007
       66095000	      6608	00000000	00000013	addi	x0,x0,0	  x0:0x00000000
       66105000	      6609	80001dc0	00000013	addi	x0,x0,0	  x0:0x00000000
       66115000	      6610	80001dc4	6cf6cb17	auipc	x22,0x6cf6c	 x22=0xecf6ddc0
       66125000	      6611	80001dc8	fff50513	addi	x10,x10,-1	 x10:0x00000007 x10=0x00000006
       66135000	      6612	80001dcc	fe757ce3	bgeu	x10,x7,80001dc4	 x10:0x00000006  x7:0x00000007
       66145000	      6613	80001dd0	015ad593	srli	x11,x21,0x15	 x21:0x7fff63fa x11=0x000003ff
       66155000	      6614	80001dd4	f6774c93	xori	x25,x14,-153	 x14:0x00004006 x25=0xffffbf61
       66165000	      6615	80001dd8	fc8e58e3	bge	x28,x8,80001da8	 x28:0xfffffff5  x8:0xfffffff4
       66175000	      6616	00000000	00000013	addi	x0,x0,0	  x0:0x00000000
       66185000	      6617	80001da4	00000013	addi	x0,x0,0	  x0:0x00000000
       66195000	      6618	80001da8	91f94313	xori	x6,x18,-1761	 x18:0x00000001  x6=0xfffff91e
       66205000	      6619	80001dac	01963cb3	sltu	x25,x12,x25	 x12:0x00004007 x25:0xffffbf61 x25=0x00000001
       66215000	      6620	80001db0	ffce0e13	addi	x28,x28,-4	 x28:0xfffffff5 x28=0xfffffff1
       66225000	      6621	80001db4	007262b3	or	x5,x4,x7	  x4:0x80009fc4  x7:0x00000007  x5=0x80009fc7
       66235000	      6622	80001db8	00900513	addi	x10,x0,9	  x0:0x00000000 x10=0x00000009
       66245000	      6623	80001dbc	00700393	addi	x7,x0,7	  x0:0x00000000  x7=0x00000007
       66255000	      6624	80001dc0	00e48633	add	x12,x9,x14	  x9:0x00000001 x14:0x00004006 x12=0x00004007
       66265000	      6625	80001dc4	6cf6cb17	auipc	x22,0x6cf6c	 x22=0xecf6ddc0
       66275000	      6626	80001dc8	fff50513	addi	x10,x10,-1	 x10:0x00000009 x10=0x00000008
       66285000	      6627	80001dcc	fe757ce3	bgeu	x10,x7,80001dc4	 x10:0x00000008  x7:0x00000007
       66295000	      6628	00000000	00000013	addi	x0,x0,0	  x0:0x00000000
       66305000	      6629	80001dc0	00000013	addi	x0,x0,0	  x0:0x00000000
       66315000	      6630	80001dc4	6cf6cb17	auipc	x22,0x6cf6c	 x22=0xecf6ddc0
       66325000	      6631	80001dc8	fff50513	addi	x10,x10,-1	 x10:0x00000008 x10=0x00000007
       66335000	      6632	80001dcc	fe757ce3	bgeu	x10,x7,80001dc4	 x10:0x00000007  x7:0x00000007
       66345000	      6633	00000000	00000013	addi	x0,x0,0	  x0:0x00000000
       66355000	      6634	80001dc0	00000013	addi	x0,x0,0	  x0:0x00000000
       66365000	      6635	80001dc4	6cf6cb17	auipc	x22,0x6cf6c	 x22=0xecf6ddc0
       66375000	      6636	80001dc8	fff50513	addi	x10,x10,-1	 x10:0x00000007 x10=0x00000006
       66385000	      6637	80001dcc	fe757ce3	bgeu	x10,x7,80001dc4	 x10:0x00000006  x7:0x00000007
       66395000	      6638	80001dd0	015ad593	srli	x11,x21,0x15	 x21:0x7fff63fa x11=0x000003ff
       66405000	      6639	80001dd4	f6774c93	xori	x25,x14,-153	 x14:0x00004006 x25=0xffffbf61
       66415000	      6640	80001dd8	fc8e58e3	bge	x28,x8,80001da8	 x28:0xfffffff1  x8:0xfffffff4
       66425000	      6641	80001ddc	00e32333	slt	x6,x6,x14	  x6:0xfffff91e x14:0x00004006  x6=0x00000001
       66435000	      6642	80001de0	ff700813	addi	x16,x0,-9	  x0:0x00000000 x16=0xfffffff7
       66445000	      6643	80001de4	4192d3b3	sra	x7,x5,x25	  x5:0x80009fc7 x25:0xffffbf61  x7=0xc0004fe3
       66455000	      6644	80001de8	00900d13	addi	x26,x0,9	  x0:0x00000000 x26=0x00000009
       66465000	      6645	80001dec	01d3c2b3	xor	x5,x7,x29	  x7:0xc0004fe3 x29:0x80009f60  x5=0x4000d083
       66475000	      6646	80001df0	9d354313	xori	x6,x10,-1581	 x10:0x00000006  x6=0xfffff9d5
       66485000	      6647	80001df4	00280813	addi	x16,x16,2	 x16:0xfffffff7 x16=0xfffffff9
       66495000	      6648	80001df8	ffa81ae3	bne	x16,x26,80001dec	 x16:0xfffffff9 x26:0x00000009
       66505000	      6649	00000000	00000013	addi	x0,x0,0	  x0:0x00000000
       66515000	      6650	80001de8	00000013	addi	x0,x0,0	  x0:0x00000000
       66525000	      6651	80001dec	01d3c2b3	xor	x5,x7,x29	  x7:0xc0004fe3 x29:0x80009f60  x5=0x4000d083
       66535000	      6652	80001df0	9d354313	xori	x6,x10,-1581	 x10:0x00000006  x6=0xfffff9d5
       66545000	      6653	80001df4	00280813	addi	x16,x16,2	 x16:0xfffffff9 x16=0xfffffffb
       66555000	      6654	80001df8	ffa81ae3	bne	x16,x26,80001dec	 x16:0xfffffffb x26:0x00000009
       66565000	      6655	00000000	00000013	addi	x0,x0,0	  x0:0x00000000
       66575000	      6656	80001de8	00000013	addi	x0,x0,0	  x0:0x00000000
       66585000	      6657	80001dec	01d3c2b3	xor	x5,x7,x29	  x7:0xc0004fe3 x29:0x80009f60  x5=0x4000d083
       66595000	      6658	80001df0	9d354313	xori	x6,x10,-1581	 x10:0x00000006  x6=0xfffff9d5
       66605000	      6659	80001df4	00280813	addi	x16,x16,2	 x16:0xfffffffb x16=0xfffffffd
       66615000	      6660	80001df8	ffa81ae3	bne	x16,x26,80001dec	 x16:0xfffffffd x26:0x00000009
       66625000	      6661	00000000	00000013	addi	x0,x0,0	  x0:0x00000000
       66635000	      6662	80001de8	00000013	addi	x0,x0,0	  x0:0x00000000
       66645000	      6663	80001dec	01d3c2b3	xor	x5,x7,x29	  x7:0xc0004fe3 x29:0x80009f60  x5=0x4000d083
       66655000	      6664	80001df0	9d354313	xori	x6,x10,-1581	 x10:0x00000006  x6=0xfffff9d5
       66665000	      6665	80001df4	00280813	addi	x16,x16,2	 x16:0xfffffffd x16=0xffffffff
       66675000	      6666	80001df8	ffa81ae3	bne	x16,x26,80001dec	 x16:0xffffffff x26:0x00000009
       66685000	      6667	00000000	00000013	addi	x0,x0,0	  x0:0x00000000
       66695000	      6668	80001de8	00000013	addi	x0,x0,0	  x0:0x00000000
       66705000	      6669	80001dec	01d3c2b3	xor	x5,x7,x29	  x7:0xc0004fe3 x29:0x80009f60  x5=0x4000d083
       66715000	      6670	80001df0	9d354313	xori	x6,x10,-1581	 x10:0x00000006  x6=0xfffff9d5
       66725000	      6671	80001df4	00280813	addi	x16,x16,2	 x16:0xffffffff x16=0x00000001
       66735000	      6672	80001df8	ffa81ae3	bne	x16,x26,80001dec	 x16:0x00000001 x26:0x00000009
       66745000	      6673	00000000	00000013	addi	x0,x0,0	  x0:0x00000000
       66755000	      6674	80001de8	00000013	addi	x0,x0,0	  x0:0x00000000
       66765000	      6675	80001dec	01d3c2b3	xor	x5,x7,x29	  x7:0xc0004fe3 x29:0x80009f60  x5=0x4000d083
       66775000	      6676	80001df0	9d354313	xori	x6,x10,-1581	 x10:0x00000006  x6=0xfffff9d5
       66785000	      6677	80001df4	00280813	addi	x16,x16,2	 x16:0x00000001 x16=0x00000003
       66795000	      6678	80001df8	ffa81ae3	bne	x16,x26,80001dec	 x16:0x00000003 x26:0x00000009
       66805000	      6679	00000000	00000013	addi	x0,x0,0	  x0:0x00000000
       66815000	      6680	80001de8	00000013	addi	x0,x0,0	  x0:0x00000000
       66825000	      6681	80001dec	01d3c2b3	xor	x5,x7,x29	  x7:0xc0004fe3 x29:0x80009f60  x5=0x4000d083
       66835000	      6682	80001df0	9d354313	xori	x6,x10,-1581	 x10:0x00000006  x6=0xfffff9d5
       66845000	      6683	80001df4	00280813	addi	x16,x16,2	 x16:0x00000003 x16=0x00000005
       66855000	      6684	80001df8	ffa81ae3	bne	x16,x26,80001dec	 x16:0x00000005 x26:0x00000009
       66865000	      6685	00000000	00000013	addi	x0,x0,0	  x0:0x00000000
       66875000	      6686	80001de8	00000013	addi	x0,x0,0	  x0:0x00000000
       66885000	      6687	80001dec	01d3c2b3	xor	x5,x7,x29	  x7:0xc0004fe3 x29:0x80009f60  x5=0x4000d083
       66895000	      6688	80001df0	9d354313	xori	x6,x10,-1581	 x10:0x00000006  x6=0xfffff9d5
       66905000	      6689	80001df4	00280813	addi	x16,x16,2	 x16:0x00000005 x16=0x00000007
       66915000	      6690	80001df8	ffa81ae3	bne	x16,x26,80001dec	 x16:0x00000007 x26:0x00000009
       66925000	      6691	00000000	00000013	addi	x0,x0,0	  x0:0x00000000
       66935000	      6692	80001de8	00000013	addi	x0,x0,0	  x0:0x00000000
       66945000	      6693	80001dec	01d3c2b3	xor	x5,x7,x29	  x7:0xc0004fe3 x29:0x80009f60  x5=0x4000d083
       66955000	      6694	80001df0	9d354313	xori	x6,x10,-1581	 x10:0x00000006  x6=0xfffff9d5
       66965000	      6695	80001df4	00280813	addi	x16,x16,2	 x16:0x00000007 x16=0x00000009
       66975000	      6696	80001df8	ffa81ae3	bne	x16,x26,80001dec	 x16:0x00000009 x26:0x00000009
       66985000	      6697	80001dfc	02f25e17	auipc	x28,0x2f25	 x28=0x82f26df8
       66995000	      6698	80001e00	00500c93	addi	x25,x0,5	  x0:0x00000000 x25=0x00000005
       67005000	      6699	80001e04	00c71e13	slli	x28,x14,0xc	 x14:0x00004006 x28=0x04006000
       67015000	      6700	80001e08	00400313	addi	x6,x0,4	  x0:0x00000000  x6=0x00000004
       67025000	      6701	80001e0c	00f650b3	srl	x1,x12,x15	 x12:0x00004007 x15:0x00000000  x1=0x00004007
       67035000	      6702	80001e10	015069b3	or	x19,x0,x21	  x0:0x00000000 x21:0x7fff63fa x19=0x7fff63fa
       67045000	      6703	80001e14	57040b93	addi	x23,x8,1392	  x8:0xfffffff4 x23=0x00000564
       67055000	      6704	80001e18	39673a93	sltiu	x21,x14,918	 x14:0x00004006 x21=0x00000000
       67065000	      6705	80001e1c	00000013	addi	x0,x0,0	  x0:0x00000000
       67075000	      6706	80001e20	01288c33	add	x24,x17,x18	 x17:0x00000001 x18:0x00000001 x24=0x00000002
       67085000	      6707	80001e24	0021b6b3	sltu	x13,x3,x2	  x3:0x000003a4  x2:0x00000030 x13=0x00000000
       67095000	      6708	80001e28	0086f933	and	x18,x13,x8	 x13:0x00000000  x8:0xfffffff4 x18=0x00000000
       67105000	      6709	80001e2c	ffdc8c93	addi	x25,x25,-3	 x25:0x00000005 x25=0x00000002
       67115000	      6710	80001e30	00900f93	addi	x31,x0,9	  x0:0x00000000 x31=0x00000009
       67125000	      6711	80001e34	0020d813	srli	x16,x1,0x2	  x1:0x00004007 x16=0x00001001
       67135000	      6712	80001e38	00b8e9b3	or	x19,x17,x11	 x17:0x00000001 x11:0x000003ff x19=0x000003ff
       67145000	      6713	80001e3c	ffd00113	addi	x2,x0,-3	  x0:0x00000000  x2=0xfffffffd
       67155000	      6714	80001e40	00000013	addi	x0,x0,0	  x0:0x00000000
       67165000	      6715	80001e44	1fb47e17	auipc	x28,0x1fb47	 x28=0x9fb48e40
       67175000	      6716	80001e48	ff6f8f93	addi	x31,x31,-10	 x31:0x00000009 x31=0xffffffff
       67185000	      6717	80001e4c	6093fb93	andi	x23,x7,1545	  x7:0xc0004fe3 x23=0x00000601
       67195000	      6718	80001e50	fe2fd8e3	bge	x31,x2,80001e40	 x31:0xffffffff  x2:0xfffffffd
       67205000	      6719	00000000	00000013	addi	x0,x0,0	  x0:0x00000000
       67215000	      6720	80001e3c	00000013	addi	x0,x0,0	  x0:0x00000000
       67225000	      6721	80001e40	00000013	addi	x0,x0,0	  x0:0x00000000
       67235000	      6722	80001e44	1fb47e17	auipc	x28,0x1fb47	 x28=0x9fb48e40
       67245000	      6723	80001e48	ff6f8f93	addi	x31,x31,-10	 x31:0xffffffff x31=0xfffffff5
       67255000	      6724	80001e4c	6093fb93	andi	x23,x7,1545	  x7:0xc0004fe3 x23=0x00000601
       67265000	      6725	80001e50	fe2fd8e3	bge	x31,x2,80001e40	 x31:0xfffffff5  x2:0xfffffffd
       67275000	      6726	80001e54	fc6cfae3	bgeu	x25,x6,80001e28	 x25:0x00000002  x6:0x00000004
       67285000	      6727	80001e58	528a6293	ori	x5,x20,1320	 x20:0xfffffff7  x5=0xffffffff
       67295000	      6728	80001e5c	00200513	addi	x10,x0,2	  x0:0x00000000 x10=0x00000002
       67305000	      6729	80001e60	00413e33	sltu	x28,x2,x4	  x2:0xfffffffd  x4:0x80009fc4 x28=0x00000000
       67315000	      6730	80001e64	002ec833	xor	x16,x29,x2	 x29:0x80009f60  x2:0xfffffffd x16=0x7fff609d
       67325000	      6731	80001e68	10e4e113	ori	x2,x9,270	  x9:0x00000001  x2=0x0000010f
       67335000	      6732	80001e6c	400b5c33	sra	x24,x22,x0	 x22:0xecf6ddc0  x0:0x00000000 x24=0xecf6ddc0
       67345000	      6733	80001e70	00300193	addi	x3,x0,3	  x0:0x00000000  x3=0x00000003
       67355000	      6734	80001e74	d16b9d17	auipc	x26,0xd16b9	 x26=0x516bae70
       67365000	      6735	80001e78	00350513	addi	x10,x10,3	 x10:0x00000002 x10=0x00000005
       67375000	      6736	80001e7c	00c902b3	add	x5,x18,x12	 x18:0x00000000 x12:0x00004007  x5=0x00004007
       67385000	      6737	80001e80	c9eeba13	sltiu	x20,x29,-866	 x29:0x80009f60 x20=0x00000001
       67395000	      6738	80001e84	00d7b2b3	sltu	x5,x15,x13	 x15:0x00000000 x13:0x00000000  x5=0x00000000
       67405000	      6739	80001e88	01f6da33	srl	x20,x13,x31	 x13:0x00000000 x31:0xfffffff5 x20=0x00000000
       67415000	      6740	80001e8c	01c08733	add	x14,x1,x28	  x1:0x00004007 x28:0x00000000 x14=0x00004007
       67425000	      6741	80001e90	41d9d693	srai	x13,x19,0x1d	 x19:0x000003ff x13=0x00000000
       67435000	      6742	80001e94	4c960813	addi	x16,x12,1225	 x12:0x00004007 x16=0x000044d0
       67445000	      6743	80001e98	00d21e13	slli	x28,x4,0xd	  x4:0x80009fc4 x28=0x13f88000
       67455000	      6744	80001e9c	fc354ce3	blt	x10,x3,80001e74	 x10:0x00000005  x3:0x00000003
       67465000	      6745	80001ea0	7bdf7393	andi	x7,x30,1981	 x30:0xfffffff7  x7=0x000007b5
       67475000	      6746	80001ea4	00000093	addi	x1,x0,0	  x0:0x00000000  x1=0x00000000
       67485000	      6747	80001ea8	018879b3	and	x19,x16,x24	 x16:0x000044d0 x24:0xecf6ddc0 x19=0x000044c0
       67495000	      6748	80001eac	01200d93	addi	x27,x0,18	  x0:0x00000000 x27=0x00000012
       67505000	      6749	80001eb0	000909b3	add	x19,x18,x0	 x18:0x00000000  x0:0x00000000 x19=0x00000000
       67515000	      6750	80001eb4	40ce86b3	sub	x13,x29,x12	 x29:0x80009f60 x12:0x00004007 x13=0x80005f59
       67525000	      6751	80001eb8	00908093	addi	x1,x1,9	  x1:0x00000000  x1=0x00000009
       67535000	      6752	80001ebc	ffb0cae3	blt	x1,x27,80001eb0	  x1:0x00000009 x27:0x00000012
       67545000	      6753	00000000	00000013	addi	x0,x0,0	  x0:0x00000000
       67555000	      6754	80001eac	00000013	addi	x0,x0,0	  x0:0x00000000
       67565000	      6755	80001eb0	000909b3	add	x19,x18,x0	 x18:0x00000000  x0:0x00000000 x19=0x00000000
       67575000	      6756	80001eb4	40ce86b3	sub	x13,x29,x12	 x29:0x80009f60 x12:0x00004007 x13=0x80005f59
       67585000	      6757	80001eb8	00908093	addi	x1,x1,9	  x1:0x00000009  x1=0x00000012
       67595000	      6758	80001ebc	ffb0cae3	blt	x1,x27,80001eb0	  x1:0x00000012 x27:0x00000012
       67605000	      6759	80001ec0	013f7733	and	x14,x30,x19	 x30:0xfffffff7 x19:0x00000000 x14=0x00000000
       67615000	      6760	80001ec4	ff800893	addi	x17,x0,-8	  x0:0x00000000 x17=0xfffffff8
       67625000	      6761	80001ec8	0006fb33	and	x22,x13,x0	 x13:0x80005f59  x0:0x00000000 x22=0x00000000
       67635000	      6762	80001ecc	0103d1b3	srl	x3,x7,x16	  x7:0x000007b5 x16:0x000044d0  x3=0x00000000
       67645000	      6763	80001ed0	35acc293	xori	x5,x25,858	 x25:0x00000002  x5=0x00000358
       67655000	      6764	80001ed4	41eb5313	srai	x6,x22,0x1e	 x22:0x00000000  x6=0x00000000
       67665000	      6765	80001ed8	1ae307b7	lui	x15,0x1ae30	 x15=0x1ae30000
       67675000	      6766	80001edc	0094e2b3	or	x5,x9,x9	  x9:0x00000001  x9:0x00000001  x5=0x00000001
       67685000	      6767	80001ee0	0109db93	srli	x23,x19,0x10	 x19:0x00000000 x23=0x00000000
       67695000	      6768	80001ee4	4be2a413	slti	x8,x5,1214	  x5:0x00000001  x8=0x00000001
       67705000	      6769	80001ee8	00bed093	srli	x1,x29,0xb	 x29:0x80009f60  x1=0x00100013
       67715000	      6770	80001eec	f991f917	auipc	x18,0xf991f	 x18=0x79920ee8
       67725000	      6771	80001ef0	00605f33	srl	x30,x0,x6	  x0:0x00000000  x6:0x00000000 x30=0x00000000
       67735000	      6772	80001ef4	ff000d93	addi	x27,x0,-16	  x0:0x00000000 x27=0xfffffff0
       67745000	      6773	80001ef8	00c55533	srl	x10,x10,x12	 x10:0x00000005 x12:0x00004007 x10=0x00000000
       67755000	      6774	80001efc	01693833	sltu	x16,x18,x22	 x18:0x79920ee8 x22:0x00000000 x16=0x00000000
       67765000	      6775	80001f00	5a3a3717	auipc	x14,0x5a3a3	 x14=0xda3a4efc
       67775000	      6776	80001f04	884ce813	ori	x16,x25,-1916	 x25:0x00000002 x16=0xfffff886
       67785000	      6777	80001f08	00eb5a13	srli	x20,x22,0xe	 x22:0x00000000 x20=0x00000000
       67795000	      6778	80001f0c	51fe4c13	xori	x24,x28,1311	 x28:0x13f88000 x24=0x13f8851f
       67805000	      6779	80001f10	55a2fa13	andi	x20,x5,1370	  x5:0x00000001 x20=0x00000000
       67815000	      6780	80001f14	1756bf13	sltiu	x30,x13,373	 x13:0x80005f59 x30=0x00000000
       67825000	      6781	80001f18	ff888893	addi	x17,x17,-8	 x17:0xfffffff8 x17=0xfffffff0
       67835000	      6782	80001f1c	00c50333	add	x6,x10,x12	 x10:0x00000000 x12:0x00004007  x6=0x00004007
       67845000	      6783	80001f20	00d6dc33	srl	x24,x13,x13	 x13:0x80005f59 x13:0x80005f59 x24=0x00000040
       67855000	      6784	80001f24	01b60133	add	x2,x12,x27	 x12:0x00004007 x27:0xfffffff0  x2=0x00003ff7
       67865000	      6785	80001f28	005347b3	xor	x15,x6,x5	  x6:0x00004007  x5:0x00000001 x15=0x00004006
       67875000	      6786	80001f2c	01d0aa33	slt	x20,x1,x29	  x1:0x00100013 x29:0x80009f60 x20=0x00000000
       67885000	      6787	80001f30	01781b93	slli	x23,x16,0x17	 x16:0xfffff886 x23=0x43000000
       67895000	      6788	80001f34	fdb884e3	beq	x17,x27,80001efc	 x17:0xfffffff0 x27:0xfffffff0
       67905000	      6789	00000000	00000013	addi	x0,x0,0	  x0:0x00000000
       67915000	      6790	80001ef8	00000013	addi	x0,x0,0	  x0:0x00000000
       67925000	      6791	80001efc	01693833	sltu	x16,x18,x22	 x18:0x79920ee8 x22:0x00000000 x16=0x00000000
       67935000	      6792	80001f00	5a3a3717	auipc	x14,0x5a3a3	 x14=0xda3a4efc
       67945000	      6793	80001f04	884ce813	ori	x16,x25,-1916	 x25:0x00000002 x16=0xfffff886
       67955000	      6794	80001f08	00eb5a13	srli	x20,x22,0xe	 x22:0x00000000 x20=0x00000000
       67965000	      6795	80001f0c	51fe4c13	xori	x24,x28,1311	 x28:0x13f88000 x24=0x13f8851f
       67975000	      6796	80001f10	55a2fa13	andi	x20,x5,1370	  x5:0x00000001 x20=0x00000000
       67985000	      6797	80001f14	1756bf13	sltiu	x30,x13,373	 x13:0x80005f59 x30=0x00000000
       67995000	      6798	80001f18	ff888893	addi	x17,x17,-8	 x17:0xfffffff0 x17=0xffffffe8
       68005000	      6799	80001f1c	00c50333	add	x6,x10,x12	 x10:0x00000000 x12:0x00004007  x6=0x00004007
       68015000	      6800	80001f20	00d6dc33	srl	x24,x13,x13	 x13:0x80005f59 x13:0x80005f59 x24=0x00000040
       68025000	      6801	80001f24	01b60133	add	x2,x12,x27	 x12:0x00004007 x27:0xfffffff0  x2=0x00003ff7
       68035000	      6802	80001f28	005347b3	xor	x15,x6,x5	  x6:0x00004007  x5:0x00000001 x15=0x00004006
       68045000	      6803	80001f2c	01d0aa33	slt	x20,x1,x29	  x1:0x00100013 x29:0x80009f60 x20=0x00000000
       68055000	      6804	80001f30	01781b93	slli	x23,x16,0x17	 x16:0xfffff886 x23=0x43000000
       68065000	      6805	80001f34	fdb884e3	beq	x17,x27,80001efc	 x17:0xffffffe8 x27:0xfffffff0
       68075000	      6806	80001f38	c3c6e7b7	lui	x15,0xc3c6e	 x15=0xc3c6e000
       68085000	      6807	80001f3c	00800893	addi	x17,x0,8	  x0:0x00000000 x17=0x00000008
       68095000	      6808	80001f40	00a00813	addi	x16,x0,10	  x0:0x00000000 x16=0x0000000a
       68105000	      6809	80001f44	0139e033	or	x0,x19,x19	 x19:0x00000000 x19:0x00000000
       68115000	      6810	80001f48	00a88893	addi	x17,x17,10	 x17:0x00000008 x17=0x00000012
       68125000	      6811	80001f4c	010747b3	xor	x15,x14,x16	 x14:0xda3a4efc x16:0x0000000a x15=0xda3a4ef6
       68135000	      6812	80001f50	8e64e513	ori	x10,x9,-1818	  x9:0x00000001 x10=0xfffff8e7
       68145000	      6813	80001f54	00800313	addi	x6,x0,8	  x0:0x00000000  x6=0x00000008
       68155000	      6814	80001f58	40a95433	sra	x8,x18,x10	 x18:0x79920ee8 x10:0xfffff8e7  x8=0x00f3241d
       68165000	      6815	80001f5c	41380bb3	sub	x23,x16,x19	 x16:0x0000000a x19:0x00000000 x23=0x0000000a
       68175000	      6816	80001f60	ff400a93	addi	x21,x0,-12	  x0:0x00000000 x21=0xfffffff4
       68185000	      6817	80001f64	2e01c913	xori	x18,x3,736	  x3:0x00000000 x18=0x000002e0
       68195000	      6818	80001f68	ffe30313	addi	x6,x6,-2	  x6:0x00000008  x6=0x00000006
       68205000	      6819	80001f6c	ff535ce3	bge	x6,x21,80001f64	  x6:0x00000006 x21:0xfffffff4
       68215000	      6820	00000000	00000013	addi	x0,x0,0	  x0:0x00000000
       68225000	      6821	80001f60	00000013	addi	x0,x0,0	  x0:0x00000000
       68235000	      6822	80001f64	2e01c913	xori	x18,x3,736	  x3:0x00000000 x18=0x000002e0
       68245000	      6823	80001f68	ffe30313	addi	x6,x6,-2	  x6:0x00000006  x6=0x00000004
       68255000	      6824	80001f6c	ff535ce3	bge	x6,x21,80001f64	  x6:0x00000004 x21:0xfffffff4
       68265000	      6825	00000000	00000013	addi	x0,x0,0	  x0:0x00000000
       68275000	      6826	80001f60	00000013	addi	x0,x0,0	  x0:0x00000000
       68285000	      6827	80001f64	2e01c913	xori	x18,x3,736	  x3:0x00000000 x18=0x000002e0
       68295000	      6828	80001f68	ffe30313	addi	x6,x6,-2	  x6:0x00000004  x6=0x00000002
       68305000	      6829	80001f6c	ff535ce3	bge	x6,x21,80001f64	  x6:0x00000002 x21:0xfffffff4
       68315000	      6830	00000000	00000013	addi	x0,x0,0	  x0:0x00000000
       68325000	      6831	80001f60	00000013	addi	x0,x0,0	  x0:0x00000000
       68335000	      6832	80001f64	2e01c913	xori	x18,x3,736	  x3:0x00000000 x18=0x000002e0
       68345000	      6833	80001f68	ffe30313	addi	x6,x6,-2	  x6:0x00000002  x6=0x00000000
       68355000	      6834	80001f6c	ff535ce3	bge	x6,x21,80001f64	  x6:0x00000000 x21:0xfffffff4
       68365000	      6835	00000000	00000013	addi	x0,x0,0	  x0:0x00000000
       68375000	      6836	80001f60	00000013	addi	x0,x0,0	  x0:0x00000000
       68385000	      6837	80001f64	2e01c913	xori	x18,x3,736	  x3:0x00000000 x18=0x000002e0
       68395000	      6838	80001f68	ffe30313	addi	x6,x6,-2	  x6:0x00000000  x6=0xfffffffe
       68405000	      6839	80001f6c	ff535ce3	bge	x6,x21,80001f64	  x6:0xfffffffe x21:0xfffffff4
       68415000	      6840	00000000	00000013	addi	x0,x0,0	  x0:0x00000000
       68425000	      6841	80001f60	00000013	addi	x0,x0,0	  x0:0x00000000
       68435000	      6842	80001f64	2e01c913	xori	x18,x3,736	  x3:0x00000000 x18=0x000002e0
       68445000	      6843	80001f68	ffe30313	addi	x6,x6,-2	  x6:0xfffffffe  x6=0xfffffffc
       68455000	      6844	80001f6c	ff535ce3	bge	x6,x21,80001f64	  x6:0xfffffffc x21:0xfffffff4
       68465000	      6845	00000000	00000013	addi	x0,x0,0	  x0:0x00000000
       68475000	      6846	80001f60	00000013	addi	x0,x0,0	  x0:0x00000000
       68485000	      6847	80001f64	2e01c913	xori	x18,x3,736	  x3:0x00000000 x18=0x000002e0
       68495000	      6848	80001f68	ffe30313	addi	x6,x6,-2	  x6:0xfffffffc  x6=0xfffffffa
       68505000	      6849	80001f6c	ff535ce3	bge	x6,x21,80001f64	  x6:0xfffffffa x21:0xfffffff4
       68515000	      6850	00000000	00000013	addi	x0,x0,0	  x0:0x00000000
       68525000	      6851	80001f60	00000013	addi	x0,x0,0	  x0:0x00000000
       68535000	      6852	80001f64	2e01c913	xori	x18,x3,736	  x3:0x00000000 x18=0x000002e0
       68545000	      6853	80001f68	ffe30313	addi	x6,x6,-2	  x6:0xfffffffa  x6=0xfffffff8
       68555000	      6854	80001f6c	ff535ce3	bge	x6,x21,80001f64	  x6:0xfffffff8 x21:0xfffffff4
       68565000	      6855	00000000	00000013	addi	x0,x0,0	  x0:0x00000000
       68575000	      6856	80001f60	00000013	addi	x0,x0,0	  x0:0x00000000
       68585000	      6857	80001f64	2e01c913	xori	x18,x3,736	  x3:0x00000000 x18=0x000002e0
       68595000	      6858	80001f68	ffe30313	addi	x6,x6,-2	  x6:0xfffffff8  x6=0xfffffff6
       68605000	      6859	80001f6c	ff535ce3	bge	x6,x21,80001f64	  x6:0xfffffff6 x21:0xfffffff4
       68615000	      6860	00000000	00000013	addi	x0,x0,0	  x0:0x00000000
       68625000	      6861	80001f60	00000013	addi	x0,x0,0	  x0:0x00000000
       68635000	      6862	80001f64	2e01c913	xori	x18,x3,736	  x3:0x00000000 x18=0x000002e0
       68645000	      6863	80001f68	ffe30313	addi	x6,x6,-2	  x6:0xfffffff6  x6=0xfffffff4
       68655000	      6864	80001f6c	ff535ce3	bge	x6,x21,80001f64	  x6:0xfffffff4 x21:0xfffffff4
       68665000	      6865	00000000	00000013	addi	x0,x0,0	  x0:0x00000000
       68675000	      6866	80001f60	00000013	addi	x0,x0,0	  x0:0x00000000
       68685000	      6867	80001f64	2e01c913	xori	x18,x3,736	  x3:0x00000000 x18=0x000002e0
       68695000	      6868	80001f68	ffe30313	addi	x6,x6,-2	  x6:0xfffffff4  x6=0xfffffff2
       68705000	      6869	80001f6c	ff535ce3	bge	x6,x21,80001f64	  x6:0xfffffff2 x21:0xfffffff4
       68715000	      6870	80001f70	b28be593	ori	x11,x23,-1240	 x23:0x0000000a x11=0xfffffb2a
       68725000	      6871	80001f74	fd08c8e3	blt	x17,x16,80001f44	 x17:0x00000012 x16:0x0000000a
       68735000	      6872	80001f78	01cde133	or	x2,x27,x28	 x27:0xfffffff0 x28:0x13f88000  x2=0xfffffff0
       68745000	      6873	80001f7c	34b60313	addi	x6,x12,843	 x12:0x00004007  x6=0x00004352
       68755000	      6874	80001f80	414bd0b3	sra	x1,x23,x20	 x23:0x0000000a x20:0x00000000  x1=0x0000000a
       68765000	      6875	80001f84	016dfb33	and	x22,x27,x22	 x27:0xfffffff0 x22:0x00000000 x22=0x00000000
       68775000	      6876	80001f88	de675837	lui	x16,0xde675	 x16=0xde675000
       68785000	      6877	80001f8c	15d87893	andi	x17,x16,349	 x16:0xde675000 x17=0x00000000
       68795000	      6878	80001f90	0473ec13	ori	x24,x7,71	  x7:0x000007b5 x24=0x000007f7
       68805000	      6879	80001f94	04a74663	blt	x14,x10,80001fe0	 x14:0xda3a4efc x10:0xfffff8e7
       68815000	      6880	00000000	00000013	addi	x0,x0,0	  x0:0x00000000
       68825000	      6881	80001fdc	00000013	addi	x0,x0,0	  x0:0x00000000
       68835000	      6882	80001fe0	0194de13	srli	x28,x9,0x19	  x9:0x00000001 x28=0x00000000
       68845000	      6883	80001fe4	41f2dc13	srai	x24,x5,0x1f	  x5:0x00000001 x24=0x00000000
       68855000	      6884	80001fe8	00000013	addi	x0,x0,0	  x0:0x00000000
       68865000	      6885	80001fec	010308b3	add	x17,x6,x16	  x6:0x00004352 x16:0xde675000 x17=0xde679352
       68875000	      6886	80001ff0	41550833	sub	x16,x10,x21	 x10:0xfffff8e7 x21:0xfffffff4 x16=0xfffff8f3
       68885000	      6887	80001ff4	019f9863	bne	x31,x25,80002004	 x31:0xfffffff5 x25:0x00000002
       68895000	      6888	00000000	00000013	addi	x0,x0,0	  x0:0x00000000
       68905000	      6889	80002000	00000013	addi	x0,x0,0	  x0:0x00000000
       68915000	      6890	80002004	41130a33	sub	x20,x6,x17	  x6:0x00004352 x17:0xde679352 x20=0x2198b000
       68925000	      6891	80002008	01d11ab3	sll	x21,x2,x29	  x2:0xfffffff0 x29:0x80009f60 x21=0xfffffff0
       68935000	      6892	8000200c	00bc27b3	slt	x15,x24,x11	 x24:0x00000000 x11:0xfffffb2a x15=0x00000000
       68945000	      6893	80002010	00667033	and	x0,x12,x6	 x12:0x00004007  x6:0x00004352
       68955000	      6894	80002014	e68c6737	lui	x14,0xe68c6	 x14=0xe68c6000
       68965000	      6895	80002018	4010ddb3	sra	x27,x1,x1	  x1:0x0000000a  x1:0x0000000a x27=0x00000000
       68975000	      6896	8000201c	01531193	slli	x3,x6,0x15	  x6:0x00004352  x3=0x6a400000
       68985000	      6897	80002020	02641c63	bne	x8,x6,80002058	  x8:0x00f3241d  x6:0x00004352
       68995000	      6898	00000000	00000013	addi	x0,x0,0	  x0:0x00000000
       69005000	      6899	80002054	00000013	addi	x0,x0,0	  x0:0x00000000
       69015000	      6900	80002058	01109c93	slli	x25,x1,0x11	  x1:0x0000000a x25=0x00140000
       69025000	      6901	8000205c	03e58663	beq	x11,x30,80002088	 x11:0xfffffb2a x30:0x00000000
       69035000	      6902	80002060	00000013	addi	x0,x0,0	  x0:0x00000000
       69045000	      6903	80002064	d96d6413	ori	x8,x26,-618	 x26:0x516bae70  x8=0xfffffff6
       69055000	      6904	80002068	640eff13	andi	x30,x29,1600	 x29:0x80009f60 x30=0x00000640
       69065000	      6905	8000206c	00000013	addi	x0,x0,0	  x0:0x00000000
       69075000	      6906	80002070	0170f863	bgeu	x1,x23,80002080	  x1:0x0000000a x23:0x0000000a
       69085000	      6907	00000000	00000013	addi	x0,x0,0	  x0:0x00000000
       69095000	      6908	8000207c	00000013	addi	x0,x0,0	  x0:0x00000000
       69105000	      6909	80002080	c3858813	addi	x16,x11,-968	 x11:0xfffffb2a x16=0xfffff762
       69115000	      6910	80002084	01ad9db3	sll	x27,x27,x26	 x27:0x00000000 x26:0x516bae70 x27=0x00000000
       69125000	      6911	80002088	01a6d693	srli	x13,x13,0x1a	 x13:0x80005f59 x13=0x00000020
       69135000	      6912	8000208c	04cf1863	bne	x30,x12,800020dc	 x30:0x00000640 x12:0x00004007
       69145000	      6913	00000000	00000013	addi	x0,x0,0	  x0:0x00000000
       69155000	      6914	800020d8	00000013	addi	x0,x0,0	  x0:0x00000000
       69165000	      6915	800020dc	40a0d293	srai	x5,x1,0xa	  x1:0x0000000a  x5=0x00000000
       69175000	      6916	800020e0	01b04d33	xor	x26,x0,x27	  x0:0x00000000 x27:0x00000000 x26=0x00000000
       69185000	      6917	800020e4	51c40713	addi	x14,x8,1308	  x8:0xfffffff6 x14=0x00000512
       69195000	      6918	800020e8	00a6b3b3	sltu	x7,x13,x10	 x13:0x00000020 x10:0xfffff8e7  x7=0x00000001
       69205000	      6919	800020ec	418d0833	sub	x16,x26,x24	 x26:0x00000000 x24:0x00000000 x16=0x00000000
       69215000	      6920	800020f0	02936063	bltu	x6,x9,80002110	  x6:0x00004352  x9:0x00000001
       69225000	      6921	800020f4	00000013	addi	x0,x0,0	  x0:0x00000000
       69235000	      6922	800020f8	01e57333	and	x6,x10,x30	 x10:0xfffff8e7 x30:0x00000640  x6=0x00000040
       69245000	      6923	800020fc	00f89593	slli	x11,x17,0xf	 x17:0xde679352 x11=0xc9a90000
       69255000	      6924	80002100	04338863	beq	x7,x3,80002150	  x7:0x00000001  x3:0x6a400000
       69265000	      6925	80002104	01754133	xor	x2,x10,x23	 x10:0xfffff8e7 x23:0x0000000a  x2=0xfffff8ed
       69275000	      6926	80002108	dde9f813	andi	x16,x19,-546	 x19:0x00000000 x16=0x00000000
       69285000	      6927	8000210c	82dc6797	auipc	x15,0x82dc6	 x15=0x02dc8108
       69295000	      6928	80002110	404f5313	srai	x6,x30,0x4	 x30:0x00000640  x6=0x00000064
       69305000	      6929	80002114	00000013	addi	x0,x0,0	  x0:0x00000000
       69315000	      6930	80002118	023d1c63	bne	x26,x3,80002150	 x26:0x00000000  x3:0x6a400000
       69325000	      6931	00000000	00000013	addi	x0,x0,0	  x0:0x00000000
       69335000	      6932	8000214c	00000013	addi	x0,x0,0	  x0:0x00000000
       69345000	      6933	80002150	3fedec13	ori	x24,x27,1022	 x27:0x00000000 x24=0x000003fe
       69355000	      6934	80002154	d38ae993	ori	x19,x21,-712	 x21:0xfffffff0 x19=0xfffffff8
       69365000	      6935	80002158	04fb8463	beq	x23,x15,800021a0	 x23:0x0000000a x15:0x02dc8108
       69375000	      6936	8000215c	01a84533	xor	x10,x16,x26	 x16:0x00000000 x26:0x00000000 x10=0x00000000
       69385000	      6937	80002160	0154fd33	and	x26,x9,x21	  x9:0x00000001 x21:0xfffffff0 x26=0x00000000
       69395000	      6938	80002164	029f9863	bne	x31,x9,80002194	 x31:0xfffffff5  x9:0x00000001
       69405000	      6939	00000000	00000013	addi	x0,x0,0	  x0:0x00000000
       69415000	      6940	80002190	00000013	addi	x0,x0,0	  x0:0x00000000
       69425000	      6941	80002194	44d7e513	ori	x10,x15,1101	 x15:0x02dc8108 x10=0x02dc854d
       69435000	      6942	80002198	0073b1b3	sltu	x3,x7,x7	  x7:0x00000001  x7:0x00000001  x3=0x00000000
       69445000	      6943	8000219c	03fe0c63	beq	x28,x31,800021d4	 x28:0x00000000 x31:0xfffffff5
       69455000	      6944	800021a0	40940b33	sub	x22,x8,x9	  x8:0xfffffff6  x9:0x00000001 x22=0xfffffff5
       69465000	      6945	800021a4	f7feaa93	slti	x21,x29,-129	 x29:0x80009f60 x21=0x00000001
       69475000	      6946	800021a8	66655437	lui	x8,0x66655	  x8=0x66655000
       69485000	      6947	800021ac	049fc863	blt	x31,x9,800021fc	 x31:0xfffffff5  x9:0x00000001
       69495000	      6948	00000000	00000013	addi	x0,x0,0	  x0:0x00000000
       69505000	      6949	800021f8	00000013	addi	x0,x0,0	  x0:0x00000000
       69515000	      6950	800021fc	012e4933	xor	x18,x28,x18	 x28:0x00000000 x18:0x000002e0 x18=0x000002e0
       69525000	      6951	80002200	012d4333	xor	x6,x26,x18	 x26:0x00000000 x18:0x000002e0  x6=0x000002e0
       69535000	      6952	80002204	41bd5693	srai	x13,x26,0x1b	 x26:0x00000000 x13=0x00000000
       69545000	      6953	80002208	40c10b33	sub	x22,x2,x12	  x2:0xfffff8ed x12:0x00004007 x22=0xffffb8e6
       69555000	      6954	8000220c	027d5c63	bge	x26,x7,80002244	 x26:0x00000000  x7:0x00000001
       69565000	      6955	80002210	a5a8f813	andi	x16,x17,-1446	 x17:0xde679352 x16=0xde679252
       69575000	      6956	80002214	00738a33	add	x20,x7,x7	  x7:0x00000001  x7:0x00000001 x20=0x00000002
       69585000	      6957	80002218	dc148797	auipc	x15,0xdc148	 x15=0x5c14a214
       69595000	      6958	8000221c	e1827293	andi	x5,x4,-488	  x4:0x80009fc4  x5=0x80009e00
       69605000	      6959	80002220	011ee933	or	x18,x29,x17	 x29:0x80009f60 x17:0xde679352 x18=0xde679f72
       69615000	      6960	80002224	7a132993	slti	x19,x6,1953	  x6:0x000002e0 x19=0x00000001
       69625000	      6961	80002228	00000013	addi	x0,x0,0	  x0:0x00000000
       69635000	      6962	8000222c	40138533	sub	x10,x7,x1	  x7:0x00000001  x1:0x0000000a x10=0xfffffff7
       69645000	      6963	80002230	00000013	addi	x0,x0,0	  x0:0x00000000
       69655000	      6964	80002234	00000013	addi	x0,x0,0	  x0:0x00000000
       69665000	      6965	80002238	01f42e33	slt	x28,x8,x31	  x8:0x66655000 x31:0xfffffff5 x28=0x00000000
       69675000	      6966	8000223c	002d9c13	slli	x24,x27,0x2	 x27:0x00000000 x24=0x00000000
       69685000	      6967	80002240	0172ef33	or	x30,x5,x23	  x5:0x80009e00 x23:0x0000000a x30=0x80009e0a
       69695000	      6968	80002244	408a8833	sub	x16,x21,x8	 x21:0x00000001  x8:0x66655000 x16=0x999ab001
       69705000	      6969	80002248	01239513	slli	x10,x7,0x12	  x7:0x00000001 x10=0x00040000
       69715000	      6970	8000224c	017afcb3	and	x25,x21,x23	 x21:0x00000001 x23:0x0000000a x25=0x00000000
       69725000	      6971	80002250	404d5033	sra	x0,x26,x4	 x26:0x00000000  x4:0x80009fc4
       69735000	      6972	80002254	00d899b3	sll	x19,x17,x13	 x17:0xde679352 x13:0x00000000 x19=0xde679352
       69745000	      6973	80002258	00010863	beq	x2,x0,80002268	  x2:0xfffff8ed  x0:0x00000000
       69755000	      6974	8000225c	c0a97793	andi	x15,x18,-1014	 x18:0xde679f72 x15=0xde679c02
       69765000	      6975	80002260	3bc87e13	andi	x28,x16,956	 x16:0x999ab001 x28=0x00000000
       69775000	      6976	80002264	2ee66f93	ori	x31,x12,750	 x12:0x00004007 x31=0x000042ef
       69785000	      6977	80002268	7c5d4a13	xori	x20,x26,1989	 x26:0x00000000 x20=0x000007c5
       69795000	      6978	8000226c	7cc72513	slti	x10,x14,1996	 x14:0x00000512 x10=0x00000001
       69805000	      6979	80002270	2c90ad17	auipc	x26,0x2c90a	 x26=0xac90c26c
       69815000	      6980	80002274	0140c433	xor	x8,x1,x20	  x1:0x0000000a x20:0x000007c5  x8=0x000007cf
       69825000	      6981	80002278	02364863	blt	x12,x3,800022a8	 x12:0x00004007  x3:0x00000000
       69835000	      6982	8000227c	00efacb3	slt	x25,x31,x14	 x31:0x000042ef x14:0x00000512 x25=0x00000000
       69845000	      6983	80002280	00f2d8b3	srl	x17,x5,x15	  x5:0x80009e00 x15:0xde679c02 x17=0x20002780
       69855000	      6984	80002284	03c05663	bge	x0,x28,800022b0	  x0:0x00000000 x28:0x00000000
       69865000	      6985	00000000	00000013	addi	x0,x0,0	  x0:0x00000000
       69875000	      6986	800022ac	00000013	addi	x0,x0,0	  x0:0x00000000
       69885000	      6987	800022b0	01259333	sll	x6,x11,x18	 x11:0xc9a90000 x18:0xde679f72  x6=0x00000000
       69895000	      6988	800022b4	01ec7cb3	and	x25,x24,x30	 x24:0x00000000 x30:0x80009e0a x25=0x00000000
       69905000	      6989	800022b8	01f3a533	slt	x10,x7,x31	  x7:0x00000001 x31:0x000042ef x10=0x00000001
       69915000	      6990	800022bc	03467663	bgeu	x12,x20,800022e8	 x12:0x00004007 x20:0x000007c5
       69925000	      6991	00000000	00000013	addi	x0,x0,0	  x0:0x00000000
       69935000	      6992	800022e4	00000013	addi	x0,x0,0	  x0:0x00000000
       69945000	      6993	800022e8	006cd813	srli	x16,x25,0x6	 x25:0x00000000 x16=0x00000000
       69955000	      6994	800022ec	01319cb3	sll	x25,x3,x19	  x3:0x00000000 x19:0xde679352 x25=0x00000000
       69965000	      6995	800022f0	012a5133	srl	x2,x20,x18	 x20:0x000007c5 x18:0xde679f72  x2=0x00000000
       69975000	      6996	800022f4	00baecb3	or	x25,x21,x11	 x21:0x00000001 x11:0xc9a90000 x25=0xc9a90001
       69985000	      6997	800022f8	012853b3	srl	x7,x16,x18	 x16:0x00000000 x18:0xde679f72  x7=0x00000000
       69995000	      6998	800022fc	032c4c63	blt	x24,x18,80002334	 x24:0x00000000 x18:0xde679f72
       70005000	      6999	80002300	5442fb13	andi	x22,x5,1348	  x5:0x80009e00 x22=0x00000400
       70015000	      7000	80002304	03905463	bge	x0,x25,8000232c	  x0:0x00000000 x25:0xc9a90001
       70025000	      7001	00000000	00000013	addi	x0,x0,0	  x0:0x00000000
       70035000	      7002	80002328	00000013	addi	x0,x0,0	  x0:0x00000000
       70045000	      7003	8000232c	02d60063	beq	x12,x13,8000234c	 x12:0x00004007 x13:0x00000000
       70055000	      7004	80002330	044de263	bltu	x27,x4,80002374	 x27:0x00000000  x4:0x80009fc4
       70065000	      7005	00000000	00000013	addi	x0,x0,0	  x0:0x00000000
       70075000	      7006	80002370	00000013	addi	x0,x0,0	  x0:0x00000000
       70085000	      7007	80002374	01380433	add	x8,x16,x19	 x16:0x00000000 x19:0xde679352  x8=0xde679352
       70095000	      7008	80002378	33ec1bb7	lui	x23,0x33ec1	 x23=0x33ec1000
       70105000	      7009	8000237c	07e39a63	bne	x7,x30,800023f0	  x7:0x00000000 x30:0x80009e0a
       70115000	      7010	00000000	00000013	addi	x0,x0,0	  x0:0x00000000
       70125000	      7011	800023ec	00000013	addi	x0,x0,0	  x0:0x00000000
       70135000	      7012	800023f0	00049293	slli	x5,x9,0x0	  x9:0x00000001  x5=0x00000001
       70145000	      7013	800023f4	00732433	slt	x8,x6,x7	  x6:0x00000000  x7:0x00000000  x8=0x00000000
       70155000	      7014	800023f8	049f8663	beq	x31,x9,80002444	 x31:0x000042ef  x9:0x00000001
       70165000	      7015	800023fc	01e1f863	bgeu	x3,x30,8000240c	  x3:0x00000000 x30:0x80009e0a
       70175000	      7016	80002400	05744813	xori	x16,x8,87	  x8:0x00000000 x16=0x00000057
       70185000	      7017	80002404	0279cc63	blt	x19,x7,8000243c	 x19:0xde679352  x7:0x00000000
       70195000	      7018	00000000	00000013	addi	x0,x0,0	  x0:0x00000000
       70205000	      7019	80002438	00000013	addi	x0,x0,0	  x0:0x00000000
       70215000	      7020	8000243c	4057d133	sra	x2,x15,x5	 x15:0xde679c02  x5:0x00000001  x2=0xef33ce01
       70225000	      7021	80002440	9a3d4397	auipc	x7,0x9a3d4	  x7=0x1a3d643c
       70235000	      7022	80002444	004cea33	or	x20,x25,x4	 x25:0xc9a90001  x4:0x80009fc4 x20=0xc9a99fc5
       70245000	      7023	80002448	009bd133	srl	x2,x23,x9	 x23:0x33ec1000  x9:0x00000001  x2=0x19f60800
       70255000	      7024	8000244c	03d0cc63	blt	x1,x29,80002484	  x1:0x0000000a x29:0x80009f60
       70265000	      7025	80002450	05fcc063	blt	x25,x31,80002490	 x25:0xc9a90001 x31:0x000042ef
       70275000	      7026	00000000	00000013	addi	x0,x0,0	  x0:0x00000000
       70285000	      7027	8000248c	00000013	addi	x0,x0,0	  x0:0x00000000
       70295000	      7028	80002490	02d59c63	bne	x11,x13,800024c8	 x11:0xc9a90000 x13:0x00000000
       70305000	      7029	00000000	00000013	addi	x0,x0,0	  x0:0x00000000
       70315000	      7030	800024c4	00000013	addi	x0,x0,0	  x0:0x00000000
       70325000	      7031	800024c8	00b94533	xor	x10,x18,x11	 x18:0xde679f72 x11:0xc9a90000 x10=0x17ce9f72
       70335000	      7032	800024cc	0408e863	bltu	x17,x0,8000251c	 x17:0x20002780  x0:0x00000000
       70345000	      7033	800024d0	01bd5b33	srl	x22,x26,x27	 x26:0xac90c26c x27:0x00000000 x22=0xac90c26c
       70355000	      7034	800024d4	e4d57193	andi	x3,x10,-435	 x10:0x17ce9f72  x3=0x17ce9e40
       70365000	      7035	800024d8	76406b13	ori	x22,x0,1892	  x0:0x00000000 x22=0x00000764
       70375000	      7036	800024dc	bff33893	sltiu	x17,x6,-1025	  x6:0x00000000 x17=0x00000001
       70385000	      7037	800024e0	04cde793	ori	x15,x27,76	 x27:0x00000000 x15=0x0000004c
       70395000	      7038	800024e4	01d03bb3	sltu	x23,x0,x29	  x0:0x00000000 x29:0x80009f60 x23=0x00000001
       70405000	      7039	800024e8	016a9313	slli	x6,x21,0x16	 x21:0x00000001  x6=0x00400000
       70415000	      7040	800024ec	00a31893	slli	x17,x6,0xa	  x6:0x00400000 x17=0x00000000
       70425000	      7041	800024f0	417e85b3	sub	x11,x29,x23	 x29:0x80009f60 x23:0x00000001 x11=0x80009f5f
       70435000	      7042	800024f4	035f9c63	bne	x31,x21,8000252c	 x31:0x000042ef x21:0x00000001
       70445000	      7043	00000000	00000013	addi	x0,x0,0	  x0:0x00000000
       70455000	      7044	80002528	00000013	addi	x0,x0,0	  x0:0x00000000
       70465000	      7045	8000252c	4195d9b3	sra	x19,x11,x25	 x11:0x80009f5f x25:0xc9a90001 x19=0xc0004faf
       70475000	      7046	80002530	01198fb3	add	x31,x19,x17	 x19:0xc0004faf x17:0x00000000 x31=0xc0004faf
       70485000	      7047	80002534	41f65833	sra	x16,x12,x31	 x12:0x00004007 x31:0xc0004faf x16=0x00000000
       70495000	      7048	80002538	03fa0e63	beq	x20,x31,80002574	 x20:0xc9a99fc5 x31:0xc0004faf
       70505000	      7049	8000253c	b64b7397	auipc	x7,0xb64b7	  x7=0x364b9538
       70515000	      7050	80002540	8f9f4517	auipc	x10,0x8f9f4	 x10=0x0f9f653c
       70525000	      7051	80002544	007cfdb3	and	x27,x25,x7	 x25:0xc9a90001  x7:0x364b9538 x27=0x00090000
       70535000	      7052	80002548	00813f33	sltu	x30,x2,x8	  x2:0x19f60800  x8:0x00000000 x30=0x00000000
       70545000	      7053	8000254c	41cd5ab3	sra	x21,x26,x28	 x26:0xac90c26c x28:0x00000000 x21=0xac90c26c
       70555000	      7054	80002550	0151f833	and	x16,x3,x21	  x3:0x17ce9e40 x21:0xac90c26c x16=0x04808240
       70565000	      7055	80002554	36674393	xori	x7,x14,870	 x14:0x00000512  x7=0x00000674
       70575000	      7056	80002558	01377433	and	x8,x14,x19	 x14:0x00000512 x19:0xc0004faf  x8=0x00000502
       70585000	      7057	8000255c	01b0dc93	srli	x25,x1,0x1b	  x1:0x0000000a x25=0x00000000
       70595000	      7058	80002560	02ab6863	bltu	x22,x10,80002590	 x22:0x00000764 x10:0x0f9f653c
       70605000	      7059	00000000	00000013	addi	x0,x0,0	  x0:0x00000000
       70615000	      7060	8000258c	00000013	addi	x0,x0,0	  x0:0x00000000
       70625000	      7061	80002590	00898933	add	x18,x19,x8	 x19:0xc0004faf  x8:0x00000502 x18=0xc00054b1
       70635000	      7062	80002594	c292f113	andi	x2,x5,-983	  x5:0x00000001  x2=0x00000001
       70645000	      7063	80002598	00c26c33	or	x24,x4,x12	  x4:0x80009fc4 x12:0x00004007 x24=0x8000dfc7
       70655000	      7064	8000259c	01745a33	srl	x20,x8,x23	  x8:0x00000502 x23:0x00000001 x20=0x00000281
       70665000	      7065	800025a0	29b9aa93	slti	x21,x19,667	 x19:0xc0004faf x21=0x00000001
       70675000	      7066	800025a4	02069063	bne	x13,x0,800025c4	 x13:0x00000000  x0:0x00000000
       70685000	      7067	800025a8	f3a84837	lui	x16,0xf3a84	 x16=0xf3a84000
       70695000	      7068	800025ac	01ef6c63	bltu	x30,x30,800025c4	 x30:0x00000000 x30:0x00000000
       70705000	      7069	800025b0	01321e13	slli	x28,x4,0x13	  x4:0x80009fc4 x28=0xfe200000
       70715000	      7070	800025b4	40295ab3	sra	x21,x18,x2	 x18:0xc00054b1  x2:0x00000001 x21=0xe0002a58
       70725000	      7071	800025b8	04ad4463	blt	x26,x10,80002600	 x26:0xac90c26c x10:0x0f9f653c
       70735000	      7072	00000000	00000013	addi	x0,x0,0	  x0:0x00000000
       70745000	      7073	800025fc	00000013	addi	x0,x0,0	  x0:0x00000000
       70755000	      7074	80002600	41705b93	srai	x23,x0,0x17	  x0:0x00000000 x23=0x00000000
       70765000	      7075	80002604	04c5e663	bltu	x11,x12,80002650	 x11:0x80009f5f x12:0x00004007
       70775000	      7076	80002608	40f7d3b3	sra	x7,x15,x15	 x15:0x0000004c x15:0x0000004c  x7=0x00000000
       70785000	      7077	8000260c	00000013	addi	x0,x0,0	  x0:0x00000000
       70795000	      7078	80002610	00d0d8b3	srl	x17,x1,x13	  x1:0x0000000a x13:0x00000000 x17=0x0000000a
       70805000	      7079	80002614	01e71d93	slli	x27,x14,0x1e	 x14:0x00000512 x27=0x80000000
       70815000	      7080	80002618	fd35f813	andi	x16,x11,-45	 x11:0x80009f5f x16=0x80009f53
       70825000	      7081	8000261c	03720c63	beq	x4,x23,80002654	  x4:0x80009fc4 x23:0x00000000
       70835000	      7082	80002620	9faaa013	slti	x0,x21,-1542	 x21:0xe0002a58
       70845000	      7083	80002624	4120ddb3	sra	x27,x1,x18	  x1:0x0000000a x18:0xc00054b1 x27=0x00000000
       70855000	      7084	80002628	02224063	blt	x4,x2,80002648	  x4:0x80009fc4  x2:0x00000001
       70865000	      7085	00000000	00000013	addi	x0,x0,0	  x0:0x00000000
       70875000	      7086	80002644	00000013	addi	x0,x0,0	  x0:0x00000000
       70885000	      7087	80002648	04597863	bgeu	x18,x5,80002698	 x18:0xc00054b1  x5:0x00000001
       70895000	      7088	00000000	00000013	addi	x0,x0,0	  x0:0x00000000
       70905000	      7089	80002694	00000013	addi	x0,x0,0	  x0:0x00000000
       70915000	      7090	80002698	05865863	bge	x12,x24,800026e8	 x12:0x00004007 x24:0x8000dfc7
       70925000	      7091	00000000	00000013	addi	x0,x0,0	  x0:0x00000000
       70935000	      7092	800026e4	00000013	addi	x0,x0,0	  x0:0x00000000
       70945000	      7093	800026e8	172a3013	sltiu	x0,x20,370	 x20:0x00000281
       70955000	      7094	800026ec	004d99b3	sll	x19,x27,x4	 x27:0x00000000  x4:0x80009fc4 x19=0x00000000
       70965000	      7095	800026f0	19fc0c13	addi	x24,x24,415	 x24:0x8000dfc7 x24=0x8000e166
       70975000	      7096	800026f4	00c75133	srl	x2,x14,x12	 x14:0x00000512 x12:0x00004007  x2=0x0000000a
       70985000	      7097	800026f8	00000013	addi	x0,x0,0	  x0:0x00000000
       70995000	      7098	800026fc	053b8263	beq	x23,x19,80002740	 x23:0x00000000 x19:0x00000000
       71005000	      7099	00000000	00000013	addi	x0,x0,0	  x0:0x00000000
       71015000	      7100	8000273c	00000013	addi	x0,x0,0	  x0:0x00000000
       71025000	      7101	80002740	02fa7863	bgeu	x20,x15,80002770	 x20:0x00000281 x15:0x0000004c
       71035000	      7102	00000000	00000013	addi	x0,x0,0	  x0:0x00000000
       71045000	      7103	8000276c	00000013	addi	x0,x0,0	  x0:0x00000000
       71055000	      7104	80002770	04a27263	bgeu	x4,x10,800027b4	  x4:0x80009fc4 x10:0x0f9f653c
       71065000	      7105	00000000	00000013	addi	x0,x0,0	  x0:0x00000000
       71075000	      7106	800027b0	00000013	addi	x0,x0,0	  x0:0x00000000
       71085000	      7107	800027b4	01cbdd13	srli	x26,x23,0x1c	 x23:0x00000000 x26=0x00000000
       71095000	      7108	800027b8	40b80333	sub	x6,x16,x11	 x16:0x80009f53 x11:0x80009f5f  x6=0xfffffff4
       71105000	      7109	800027bc	c737c593	xori	x11,x15,-909	 x15:0x0000004c x11=0xfffffc3f
       71115000	      7110	800027c0	01601833	sll	x16,x0,x22	  x0:0x00000000 x22:0x00000764 x16=0x00000000
       71125000	      7111	800027c4	008ddd93	srli	x27,x27,0x8	 x27:0x00000000 x27=0x00000000
       71135000	      7112	800027c8	b69ab717	auipc	x14,0xb69ab	 x14=0x369ad7c4
       71145000	      7113	800027cc	052def13	ori	x30,x27,82	 x27:0x00000000 x30=0x00000052
       71155000	      7114	800027d0	4021d413	srai	x8,x3,0x2	  x3:0x17ce9e40  x8=0x05f3a790
       71165000	      7115	800027d4	00585813	srli	x16,x16,0x5	 x16:0x00000000 x16=0x00000000
       71175000	      7116	800027d8	00b39ab3	sll	x21,x7,x11	  x7:0x00000000 x11:0xfffffc3f x21=0x00000000
       71185000	      7117	800027dc	4f4a4b13	xori	x22,x20,1268	 x20:0x00000281 x22=0x00000675
       71195000	      7118	800027e0	04600663	beq	x0,x6,8000282c	  x0:0x00000000  x6:0xfffffff4
       71205000	      7119	800027e4	b1350013	addi	x0,x10,-1261	 x10:0x0f9f653c
       71215000	      7120	800027e8	00b45863	bge	x8,x11,800027f8	  x8:0x05f3a790 x11:0xfffffc3f
       71225000	      7121	00000000	00000013	addi	x0,x0,0	  x0:0x00000000
       71235000	      7122	800027f4	00000013	addi	x0,x0,0	  x0:0x00000000
       71245000	      7123	800027f8	1930a693	slti	x13,x1,403	  x1:0x0000000a x13=0x00000001
       71255000	      7124	800027fc	400ad013	srai	x0,x21,0x0	 x21:0x00000000
       71265000	      7125	80002800	02e59663	bne	x11,x14,8000282c	 x11:0xfffffc3f x14:0x369ad7c4
       71275000	      7126	00000000	00000013	addi	x0,x0,0	  x0:0x00000000
       71285000	      7127	80002828	00000013	addi	x0,x0,0	  x0:0x00000000
       71295000	      7128	8000282c	011aa6b3	slt	x13,x21,x17	 x21:0x00000000 x17:0x0000000a x13=0x00000001
       71305000	      7129	80002830	0164c863	blt	x9,x22,80002840	  x9:0x00000001 x22:0x00000675
       71315000	      7130	00000000	00000013	addi	x0,x0,0	  x0:0x00000000
       71325000	      7131	8000283c	00000013	addi	x0,x0,0	  x0:0x00000000
       71335000	      7132	80002840	812db637	lui	x12,0x812db	 x12=0x812db000
       71345000	      7133	80002844	00955cb3	srl	x25,x10,x9	 x10:0x0f9f653c  x9:0x00000001 x25=0x07cfb29e
       71355000	      7134	80002848	01691693	slli	x13,x18,0x16	 x18:0xc00054b1 x13=0x2c400000
       71365000	      7135	8000284c	01501993	slli	x19,x0,0x15	  x0:0x00000000 x19=0x00000000
       71375000	      7136	80002850	004b3a33	sltu	x20,x22,x4	 x22:0x00000675  x4:0x80009fc4 x20=0x00000001
       71385000	      7137	80002854	00c27c63	bgeu	x4,x12,8000286c	  x4:0x80009fc4 x12:0x812db000
       71395000	      7138	80002858	00a0d633	srl	x12,x1,x10	  x1:0x0000000a x10:0x0f9f653c x12=0x00000000
       71405000	      7139	8000285c	002ccb33	xor	x22,x25,x2	 x25:0x07cfb29e  x2:0x0000000a x22=0x07cfb294
       71415000	      7140	80002860	4191d3b3	sra	x7,x3,x25	  x3:0x17ce9e40 x25:0x07cfb29e  x7=0x00000000
       71425000	      7141	80002864	0233cc63	blt	x7,x3,8000289c	  x7:0x00000000  x3:0x17ce9e40
       71435000	      7142	00000000	00000013	addi	x0,x0,0	  x0:0x00000000
       71445000	      7143	80002898	00000013	addi	x0,x0,0	  x0:0x00000000
       71455000	      7144	8000289c	057f7063	bgeu	x30,x23,800028dc	 x30:0x00000052 x23:0x00000000
       71465000	      7145	00000000	00000013	addi	x0,x0,0	  x0:0x00000000
       71475000	      7146	800028d8	00000013	addi	x0,x0,0	  x0:0x00000000
       71485000	      7147	800028dc	2fc33c93	sltiu	x25,x6,764	  x6:0xfffffff4 x25=0x00000000
       71495000	      7148	800028e0	00d46433	or	x8,x8,x13	  x8:0x05f3a790 x13:0x2c400000  x8=0x2df3a790
       71505000	      7149	800028e4	03421c63	bne	x4,x20,8000291c	  x4:0x80009fc4 x20:0x00000001
       71515000	      7150	00000000	00000013	addi	x0,x0,0	  x0:0x00000000
       71525000	      7151	80002918	00000013	addi	x0,x0,0	  x0:0x00000000
       71535000	      7152	8000291c	4174db13	srai	x22,x9,0x17	  x9:0x00000001 x22=0x00000000
       71545000	      7153	80002920	01d6df93	srli	x31,x13,0x1d	 x13:0x2c400000 x31=0x00000001
       71555000	      7154	80002924	01ca02b3	add	x5,x20,x28	 x20:0x00000001 x28:0xfe200000  x5=0xfe200001
       71565000	      7155	80002928	01e01513	slli	x10,x0,0x1e	  x0:0x00000000 x10=0x00000000
       71575000	      7156	8000292c	00650433	add	x8,x10,x6	 x10:0x00000000  x6:0xfffffff4  x8=0xfffffff4
       71585000	      7157	80002930	01e92e33	slt	x28,x18,x30	 x18:0xc00054b1 x30:0x00000052 x28=0x00000001
       71595000	      7158	80002934	26711db7	lui	x27,0x26711	 x27=0x26711000
       71605000	      7159	80002938	cfacf693	andi	x13,x25,-774	 x25:0x00000000 x13=0x00000000
       71615000	      7160	8000293c	36c7c813	xori	x16,x15,876	 x15:0x0000004c x16=0x00000320
       71625000	      7161	80002940	0019cab3	xor	x21,x19,x1	 x19:0x00000000  x1:0x0000000a x21=0x0000000a
       71635000	      7162	80002944	006ce863	bltu	x25,x6,80002954	 x25:0x00000000  x6:0xfffffff4
       71645000	      7163	00000000	00000013	addi	x0,x0,0	  x0:0x00000000
       71655000	      7164	80002950	00000013	addi	x0,x0,0	  x0:0x00000000
       71665000	      7165	80002954	04d36463	bltu	x6,x13,8000299c	  x6:0xfffffff4 x13:0x00000000
       71675000	      7166	80002958	001c9713	slli	x14,x25,0x1	 x25:0x00000000 x14=0x00000000
       71685000	      7167	8000295c	4142d3b3	sra	x7,x5,x20	  x5:0xfe200001 x20:0x00000001  x7=0xff100000
       71695000	      7168	80002960	01a20033	add	x0,x4,x26	  x4:0x80009fc4 x26:0x00000000
       71705000	      7169	80002964	00000013	addi	x0,x0,0	  x0:0x00000000
       71715000	      7170	80002968	24f2e393	ori	x7,x5,591	  x5:0xfe200001  x7=0xfe20024f
       71725000	      7171	8000296c	00581013	slli	x0,x16,0x5	 x16:0x00000320
       71735000	      7172	80002970	414c5ab3	sra	x21,x24,x20	 x24:0x8000e166 x20:0x00000001 x21=0xc00070b3
       71745000	      7173	80002974	0338c863	blt	x17,x19,800029a4	 x17:0x0000000a x19:0x00000000
       71755000	      7174	80002978	0143e933	or	x18,x7,x20	  x7:0xfe20024f x20:0x00000001 x18=0xfe20024f
       71765000	      7175	8000297c	03f1d663	bge	x3,x31,800029a8	  x3:0x17ce9e40 x31:0x00000001
       71775000	      7176	00000000	00000013	addi	x0,x0,0	  x0:0x00000000
       71785000	      7177	800029a4	00000013	addi	x0,x0,0	  x0:0x00000000
       71795000	      7178	800029a8	018c9d13	slli	x26,x25,0x18	 x25:0x00000000 x26=0x00000000
       71805000	      7179	800029ac	f4d20713	addi	x14,x4,-179	  x4:0x80009fc4 x14=0x80009f11
       71815000	      7180	800029b0	416f0fb3	sub	x31,x30,x22	 x30:0x00000052 x22:0x00000000 x31=0x00000052
       71825000	      7181	800029b4	05c5f863	bgeu	x11,x28,80002a04	 x11:0xfffffc3f x28:0x00000001
       71835000	      7182	00000000	00000013	addi	x0,x0,0	  x0:0x00000000
       71845000	      7183	80002a00	00000013	addi	x0,x0,0	  x0:0x00000000
       71855000	      7184	80002a04	0177d113	srli	x2,x15,0x17	 x15:0x0000004c  x2=0x00000000
       71865000	      7185	80002a08	009a8db3	add	x27,x21,x9	 x21:0xc00070b3  x9:0x00000001 x27=0xc00070b4
       71875000	      7186	80002a0c	b73ac113	xori	x2,x21,-1165	 x21:0xc00070b3  x2=0x3fff8bc0
       71885000	      7187	80002a10	007ea8b3	slt	x17,x29,x7	 x29:0x80009f60  x7:0xfe20024f x17=0x00000001
       71895000	      7188	80002a14	46172c13	slti	x24,x14,1121	 x14:0x80009f11 x24=0x00000001
       71905000	      7189	80002a18	65934113	xori	x2,x6,1625	  x6:0xfffffff4  x2=0xfffff9ad
       71915000	      7190	80002a1c	00805f93	srli	x31,x0,0x8	  x0:0x00000000 x31=0x00000000
       71925000	      7191	80002a20	2b35b2b7	lui	x5,0x2b35b	  x5=0x2b35b000
       71935000	      7192	80002a24	0487f263	bgeu	x15,x8,80002a68	 x15:0x0000004c  x8:0xfffffff4
       71945000	      7193	80002a28	4633ce13	xori	x28,x7,1123	  x7:0xfe20024f x28=0xfe20062c
       71955000	      7194	80002a2c	41415093	srai	x1,x2,0x14	  x2:0xfffff9ad  x1=0xffffffff
       71965000	      7195	80002a30	5cb0a293	slti	x5,x1,1483	  x1:0xffffffff  x5=0x00000001
       71975000	      7196	80002a34	17c90a93	addi	x21,x18,380	 x18:0xfe20024f x21=0xfe2003cb
       71985000	      7197	80002a38	009b5d13	srli	x26,x22,0x9	 x22:0x00000000 x26=0x00000000
       71995000	      7198	80002a3c	44420d13	addi	x26,x4,1092	  x4:0x80009fc4 x26=0x8000a408
       72005000	      7199	80002a40	0103e863	bltu	x7,x16,80002a50	  x7:0xfe20024f x16:0x00000320
       72015000	      7200	80002a44	03fa0863	beq	x20,x31,80002a74	 x20:0x00000001 x31:0x00000000
       72025000	      7201	80002a48	01439913	slli	x18,x7,0x14	  x7:0xfe20024f x18=0x24f00000
       72035000	      7202	80002a4c	03c2ec63	bltu	x5,x28,80002a84	  x5:0x00000001 x28:0xfe20062c
       72045000	      7203	00000000	00000013	addi	x0,x0,0	  x0:0x00000000
       72055000	      7204	80002a80	00000013	addi	x0,x0,0	  x0:0x00000000
       72065000	      7205	80002a84	00647863	bgeu	x8,x6,80002a94	  x8:0xfffffff4  x6:0xfffffff4
       72075000	      7206	00000000	00000013	addi	x0,x0,0	  x0:0x00000000
       72085000	      7207	80002a90	00000013	addi	x0,x0,0	  x0:0x00000000
       72095000	      7208	80002a94	00c6d733	srl	x14,x13,x12	 x13:0x00000000 x12:0x00000000 x14=0x00000000
       72105000	      7209	80002a98	0091ea33	or	x20,x3,x9	  x3:0x17ce9e40  x9:0x00000001 x20=0x17ce9e41
       72115000	      7210	80002a9c	a2312093	slti	x1,x2,-1501	  x2:0xfffff9ad  x1=0x00000001
       72125000	      7211	80002aa0	004b9593	slli	x11,x23,0x4	 x23:0x00000000 x11=0x00000000
       72135000	      7212	80002aa4	03585063	bge	x16,x21,80002ac4	 x16:0x00000320 x21:0xfe2003cb
       72145000	      7213	00000000	00000013	addi	x0,x0,0	  x0:0x00000000
       72155000	      7214	80002ac0	00000013	addi	x0,x0,0	  x0:0x00000000
       72165000	      7215	80002ac4	9c10ac13	slti	x24,x1,-1599	  x1:0x00000001 x24=0x00000000
       72175000	      7216	80002ac8	010bf833	and	x16,x23,x16	 x23:0x00000000 x16:0x00000320 x16=0x00000000
       72185000	      7217	80002acc	4aaf3793	sltiu	x15,x30,1194	 x30:0x00000052 x15=0x00000001
       72195000	      7218	80002ad0	005fa433	slt	x8,x31,x5	 x31:0x00000000  x5:0x00000001  x8=0x00000001
       72205000	      7219	80002ad4	4048d793	srai	x15,x17,0x4	 x17:0x00000001 x15=0x00000000
       72215000	      7220	80002ad8	40658133	sub	x2,x11,x6	 x11:0x00000000  x6:0xfffffff4  x2=0x0000000c
       72225000	      7221	80002adc	00e7f1b3	and	x3,x15,x14	 x15:0x00000000 x14:0x00000000  x3=0x00000000
       72235000	      7222	80002ae0	40d68033	sub	x0,x13,x13	 x13:0x00000000 x13:0x00000000
       72245000	      7223	80002ae4	05a41063	bne	x8,x26,80002b24	  x8:0x00000001 x26:0x8000a408
       72255000	      7224	00000000	00000013	addi	x0,x0,0	  x0:0x00000000
       72265000	      7225	80002b20	00000013	addi	x0,x0,0	  x0:0x00000000
       72275000	      7226	80002b24	a850b513	sltiu	x10,x1,-1403	  x1:0x00000001 x10=0x00000001
       72285000	      7227	80002b28	01a13133	sltu	x2,x2,x26	  x2:0x0000000c x26:0x8000a408  x2=0x00000001
       72295000	      7228	80002b2c	7907ec93	ori	x25,x15,1936	 x15:0x00000000 x25=0x00000790
       72305000	      7229	80002b30	013e3db3	sltu	x27,x28,x19	 x28:0xfe20062c x19:0x00000000 x27=0x00000000
       72315000	      7230	80002b34	0478e063	bltu	x17,x7,80002b74	 x17:0x00000001  x7:0xfe20024f
       72325000	      7231	00000000	00000013	addi	x0,x0,0	  x0:0x00000000
       72335000	      7232	80002b70	00000013	addi	x0,x0,0	  x0:0x00000000
       72345000	      7233	80002b74	acb64317	auipc	x6,0xacb64	  x6=0x2cb66b70
       72355000	      7234	80002b78	04594863	blt	x18,x5,80002bc8	 x18:0x24f00000  x5:0x00000001
       72365000	      7235	80002b7c	05049663	bne	x9,x16,80002bc8	  x9:0x00000001 x16:0x00000000
       72375000	      7236	00000000	00000013	addi	x0,x0,0	  x0:0x00000000
       72385000	      7237	80002bc4	00000013	addi	x0,x0,0	  x0:0x00000000
       72395000	      7238	80002bc8	008a1713	slli	x14,x20,0x8	 x20:0x17ce9e41 x14=0xce9e4100
       72405000	      7239	80002bcc	00c6ebb3	or	x23,x13,x12	 x13:0x00000000 x12:0x00000000 x23=0x00000000
       72415000	      7240	80002bd0	7fa29b17	auipc	x22,0x7fa29	 x22=0xffa2bbcc
       72425000	      7241	80002bd4	02a9cc63	blt	x19,x10,80002c0c	 x19:0x00000000 x10:0x00000001
       72435000	      7242	00000000	00000013	addi	x0,x0,0	  x0:0x00000000
       72445000	      7243	80002c08	00000013	addi	x0,x0,0	  x0:0x00000000
       72455000	      7244	80002c0c	887e2017	auipc	x0,0x887e2	
       72465000	      7245	80002c10	00000013	addi	x0,x0,0	  x0:0x00000000
       72475000	      7246	80002c14	05521863	bne	x4,x21,80002c64	  x4:0x80009fc4 x21:0xfe2003cb
       72485000	      7247	00000000	00000013	addi	x0,x0,0	  x0:0x00000000
       72495000	      7248	80002c60	00000013	addi	x0,x0,0	  x0:0x00000000
       72505000	      7249	80002c64	03f46e63	bltu	x8,x31,80002ca0	  x8:0x00000001 x31:0x00000000
       72515000	      7250	80002c68	59cb3793	sltiu	x15,x22,1436	 x22:0xffa2bbcc x15=0x00000000
       72525000	      7251	80002c6c	01e71833	sll	x16,x14,x30	 x14:0xce9e4100 x30:0x00000052 x16=0x04000000
       72535000	      7252	80002c70	05b7c863	blt	x15,x27,80002cc0	 x15:0x00000000 x27:0x00000000
       72545000	      7253	80002c74	0398c663	blt	x17,x25,80002ca0	 x17:0x00000001 x25:0x00000790
       72555000	      7254	00000000	00000013	addi	x0,x0,0	  x0:0x00000000
       72565000	      7255	80002c9c	00000013	addi	x0,x0,0	  x0:0x00000000
       72575000	      7256	80002ca0	015d7133	and	x2,x26,x21	 x26:0x8000a408 x21:0xfe2003cb  x2=0x80000008
       72585000	      7257	80002ca4	412f8133	sub	x2,x31,x18	 x31:0x00000000 x18:0x24f00000  x2=0xdb100000
       72595000	      7258	80002ca8	01f17863	bgeu	x2,x31,80002cb8	  x2:0xdb100000 x31:0x00000000
       72605000	      7259	00000000	00000013	addi	x0,x0,0	  x0:0x00000000
       72615000	      7260	80002cb4	00000013	addi	x0,x0,0	  x0:0x00000000
       72625000	      7261	80002cb8	007bc863	blt	x23,x7,80002cc8	 x23:0x00000000  x7:0xfe20024f
       72635000	      7262	80002cbc	01f53cb3	sltu	x25,x10,x31	 x10:0x00000001 x31:0x00000000 x25=0x00000000
       72645000	      7263	80002cc0	049b4063	blt	x22,x9,80002d00	 x22:0xffa2bbcc  x9:0x00000001
       72655000	      7264	00000000	00000013	addi	x0,x0,0	  x0:0x00000000
       72665000	      7265	80002cfc	00000013	addi	x0,x0,0	  x0:0x00000000
       72675000	      7266	80002d00	04dd7463	bgeu	x26,x13,80002d48	 x26:0x8000a408 x13:0x00000000
       72685000	      7267	00000000	00000013	addi	x0,x0,0	  x0:0x00000000
       72695000	      7268	80002d44	00000013	addi	x0,x0,0	  x0:0x00000000
       72705000	      7269	80002d48	7588c293	xori	x5,x17,1880	 x17:0x00000001  x5=0x00000759
       72715000	      7270	80002d4c	03be0863	beq	x28,x27,80002d7c	 x28:0xfe20062c x27:0x00000000
       72725000	      7271	80002d50	004ea2b3	slt	x5,x29,x4	 x29:0x80009f60  x4:0x80009fc4  x5=0x00000001
       72735000	      7272	80002d54	014f37b3	sltu	x15,x30,x20	 x30:0x00000052 x20:0x17ce9e41 x15=0x00000001
       72745000	      7273	80002d58	01a86f33	or	x30,x16,x26	 x16:0x04000000 x26:0x8000a408 x30=0x8400a408
       72755000	      7274	80002d5c	c02bb093	sltiu	x1,x23,-1022	 x23:0x00000000  x1=0x00000001
       72765000	      7275	80002d60	3d722d13	slti	x26,x4,983	  x4:0x80009fc4 x26=0x00000001
       72775000	      7276	80002d64	e1090837	lui	x16,0xe1090	 x16=0xe1090000
       72785000	      7277	80002d68	00b06c63	bltu	x0,x11,80002d80	  x0:0x00000000 x11:0x00000000
       72795000	      7278	80002d6c	ec65ed13	ori	x26,x11,-314	 x11:0x00000000 x26=0xfffffec6
       72805000	      7279	80002d70	ca237193	andi	x3,x6,-862	  x6:0x2cb66b70  x3=0x2cb66820
       72815000	      7280	80002d74	009579b3	and	x19,x10,x9	 x10:0x00000001  x9:0x00000001 x19=0x00000001
       72825000	      7281	80002d78	4174ddb3	sra	x27,x9,x23	  x9:0x00000001 x23:0x00000000 x27=0x00000001
       72835000	      7282	80002d7c	03c66c63	bltu	x12,x28,80002db4	 x12:0x00000000 x28:0xfe20062c
       72845000	      7283	00000000	00000013	addi	x0,x0,0	  x0:0x00000000
       72855000	      7284	80002db0	00000013	addi	x0,x0,0	  x0:0x00000000
       72865000	      7285	80002db4	03a48a63	beq	x9,x26,80002de8	  x9:0x00000001 x26:0xfffffec6
       72875000	      7286	80002db8	0201f863	bgeu	x3,x0,80002de8	  x3:0x2cb66820  x0:0x00000000
       72885000	      7287	00000000	00000013	addi	x0,x0,0	  x0:0x00000000
       72895000	      7288	80002de4	00000013	addi	x0,x0,0	  x0:0x00000000
       72905000	      7289	80002de8	413fd993	srai	x19,x31,0x13	 x31:0x00000000 x19=0x00000000
       72915000	      7290	80002dec	41db8ab3	sub	x21,x23,x29	 x23:0x00000000 x29:0x80009f60 x21=0x7fff60a0
       72925000	      7291	80002df0	410ddd93	srai	x27,x27,0x10	 x27:0x00000001 x27=0x00000000
       72935000	      7292	80002df4	004ea083	lw	x1,4(x29)	 x29:0x80009f60  x1=0x800009d4 PA:0x80009f64
       72945000	      7293	80002df8	000db033	sltu	x0,x27,x0	 x27:0x00000000  x0:0x00000000
       72955000	      7294	80002dfc	30118a93	addi	x21,x3,769	  x3:0x2cb66820 x21=0x2cb66b21
       72965000	      7295	80002e00	00ce8e93	addi	x29,x29,12	 x29:0x80009f60 x29=0x80009f6c
       72975000	      7296	80002e04	00fa5733	srl	x14,x20,x15	 x20:0x17ce9e41 x15:0x00000001 x14=0x0be74f20
       72985000	      7297	80002e08	00ef6fb3	or	x31,x30,x14	 x30:0x8400a408 x14:0x0be74f20 x31=0x8fe7ef28
       72995000	      7298	80002e0c	00008893	addi	x17,x1,0	  x1:0x800009d4 x17=0x800009d4
       73005000	      7299	80002e10	000888e7	jalr	x17,x17,0	 x17:0x800009d4 x17=0x80002e10
       73015000	      7300	00000000	00000013	addi	x0,x0,0	  x0:0x00000000
       73025000	      7301	800009d4	00000013	addi	x0,x0,0	  x0:0x00000000
       73035000	      7302	800009d8	00500c13	addi	x24,x0,5	  x0:0x00000000 x24=0x00000005
       73045000	      7303	800009dc	0029e6b3	or	x13,x19,x2	 x19:0x00000000  x2:0xdb100000 x13=0xdb100000
       73055000	      7304	800009e0	c4078b13	addi	x22,x15,-960	 x15:0x00000001 x22=0xfffffc41
       73065000	      7305	800009e4	01131613	slli	x12,x6,0x11	  x6:0x2cb66b70 x12=0xd6e00000
       73075000	      7306	800009e8	01a326b3	slt	x13,x6,x26	  x6:0x2cb66b70 x26:0xfffffec6 x13=0x00000000
       73085000	      7307	800009ec	01000093	addi	x1,x0,16	  x0:0x00000000  x1=0x00000010
       73095000	      7308	800009f0	0e05ce13	xori	x28,x11,224	 x11:0x00000000 x28=0x000000e0
       73105000	      7309	800009f4	acb73c97	auipc	x25,0xacb73	 x25=0x2cb739f0
       73115000	      7310	800009f8	01cc9433	sll	x8,x25,x28	 x25:0x2cb739f0 x28:0x000000e0  x8=0x2cb739f0
       73125000	      7311	800009fc	9c6c0993	addi	x19,x24,-1594	 x24:0x00000005 x19=0xfffff9cb
       73135000	      7312	80000a00	41a05e33	sra	x28,x0,x26	  x0:0x00000000 x26:0xfffffec6 x28=0x00000000
       73145000	      7313	80000a04	013f3033	sltu	x0,x30,x19	 x30:0x8400a408 x19:0xfffff9cb
       73155000	      7314	80000a08	01ef5033	srl	x0,x30,x30	 x30:0x8400a408 x30:0x8400a408
       73165000	      7315	80000a0c	004c0c13	addi	x24,x24,4	 x24:0x00000005 x24=0x00000009
       73175000	      7316	80000a10	408b85b3	sub	x11,x23,x8	 x23:0x00000000  x8:0x2cb739f0 x11=0xd348c610
       73185000	      7317	80000a14	00ff05b3	add	x11,x30,x15	 x30:0x8400a408 x15:0x00000001 x11=0x8400a409
       73195000	      7318	80000a18	01676fb3	or	x31,x14,x22	 x14:0x0be74f20 x22:0xfffffc41 x31=0xffffff61
       73205000	      7319	80000a1c	40688f33	sub	x30,x17,x6	 x17:0x80002e10  x6:0x2cb66b70 x30=0x5349c2a0
       73215000	      7320	80000a20	404981b3	sub	x3,x19,x4	 x19:0xfffff9cb  x4:0x80009fc4  x3=0x7fff5a07
       73225000	      7321	80000a24	015c9d93	slli	x27,x25,0x15	 x25:0x2cb739f0 x27=0x3e000000
       73235000	      7322	80000a28	fc1c66e3	bltu	x24,x1,800009f4	 x24:0x00000009  x1:0x00000010
       73245000	      7323	00000000	00000013	addi	x0,x0,0	  x0:0x00000000
       73255000	      7324	800009f0	00000013	addi	x0,x0,0	  x0:0x00000000
       73265000	      7325	800009f4	acb73c97	auipc	x25,0xacb73	 x25=0x2cb739f0
       73275000	      7326	800009f8	01cc9433	sll	x8,x25,x28	 x25:0x2cb739f0 x28:0x00000000  x8=0x2cb739f0
       73285000	      7327	800009fc	9c6c0993	addi	x19,x24,-1594	 x24:0x00000009 x19=0xfffff9cf
       73295000	      7328	80000a00	41a05e33	sra	x28,x0,x26	  x0:0x00000000 x26:0xfffffec6 x28=0x00000000
       73305000	      7329	80000a04	013f3033	sltu	x0,x30,x19	 x30:0x5349c2a0 x19:0xfffff9cf
       73315000	      7330	80000a08	01ef5033	srl	x0,x30,x30	 x30:0x5349c2a0 x30:0x5349c2a0
       73325000	      7331	80000a0c	004c0c13	addi	x24,x24,4	 x24:0x00000009 x24=0x0000000d
       73335000	      7332	80000a10	408b85b3	sub	x11,x23,x8	 x23:0x00000000  x8:0x2cb739f0 x11=0xd348c610
       73345000	      7333	80000a14	00ff05b3	add	x11,x30,x15	 x30:0x5349c2a0 x15:0x00000001 x11=0x5349c2a1
       73355000	      7334	80000a18	01676fb3	or	x31,x14,x22	 x14:0x0be74f20 x22:0xfffffc41 x31=0xffffff61
       73365000	      7335	80000a1c	40688f33	sub	x30,x17,x6	 x17:0x80002e10  x6:0x2cb66b70 x30=0x5349c2a0
       73375000	      7336	80000a20	404981b3	sub	x3,x19,x4	 x19:0xfffff9cf  x4:0x80009fc4  x3=0x7fff5a0b
       73385000	      7337	80000a24	015c9d93	slli	x27,x25,0x15	 x25:0x2cb739f0 x27=0x3e000000
       73395000	      7338	80000a28	fc1c66e3	bltu	x24,x1,800009f4	 x24:0x0000000d  x1:0x00000010
       73405000	      7339	00000000	00000013	addi	x0,x0,0	  x0:0x00000000
       73415000	      7340	800009f0	00000013	addi	x0,x0,0	  x0:0x00000000
       73425000	      7341	800009f4	acb73c97	auipc	x25,0xacb73	 x25=0x2cb739f0
       73435000	      7342	800009f8	01cc9433	sll	x8,x25,x28	 x25:0x2cb739f0 x28:0x00000000  x8=0x2cb739f0
       73445000	      7343	800009fc	9c6c0993	addi	x19,x24,-1594	 x24:0x0000000d x19=0xfffff9d3
       73455000	      7344	80000a00	41a05e33	sra	x28,x0,x26	  x0:0x00000000 x26:0xfffffec6 x28=0x00000000
       73465000	      7345	80000a04	013f3033	sltu	x0,x30,x19	 x30:0x5349c2a0 x19:0xfffff9d3
       73475000	      7346	80000a08	01ef5033	srl	x0,x30,x30	 x30:0x5349c2a0 x30:0x5349c2a0
       73485000	      7347	80000a0c	004c0c13	addi	x24,x24,4	 x24:0x0000000d x24=0x00000011
       73495000	      7348	80000a10	408b85b3	sub	x11,x23,x8	 x23:0x00000000  x8:0x2cb739f0 x11=0xd348c610
       73505000	      7349	80000a14	00ff05b3	add	x11,x30,x15	 x30:0x5349c2a0 x15:0x00000001 x11=0x5349c2a1
       73515000	      7350	80000a18	01676fb3	or	x31,x14,x22	 x14:0x0be74f20 x22:0xfffffc41 x31=0xffffff61
       73525000	      7351	80000a1c	40688f33	sub	x30,x17,x6	 x17:0x80002e10  x6:0x2cb66b70 x30=0x5349c2a0
       73535000	      7352	80000a20	404981b3	sub	x3,x19,x4	 x19:0xfffff9d3  x4:0x80009fc4  x3=0x7fff5a0f
       73545000	      7353	80000a24	015c9d93	slli	x27,x25,0x15	 x25:0x2cb739f0 x27=0x3e000000
       73555000	      7354	80000a28	fc1c66e3	bltu	x24,x1,800009f4	 x24:0x00000011  x1:0x00000010
       73565000	      7355	80000a2c	013993b3	sll	x7,x19,x19	 x19:0xfffff9d3 x19:0xfffff9d3  x7=0xce980000
       73575000	      7356	80000a30	ffb00313	addi	x6,x0,-5	  x0:0x00000000  x6=0xfffffffb
       73585000	      7357	80000a34	60fded97	auipc	x27,0x60fde	 x27=0xe0fdea30
       73595000	      7358	80000a38	d082f413	andi	x8,x5,-760	  x5:0x00000001  x8=0x00000000
       73605000	      7359	80000a3c	00900813	addi	x16,x0,9	  x0:0x00000000 x16=0x00000009
       73615000	      7360	80000a40	006177b3	and	x15,x2,x6	  x2:0xdb100000  x6:0xfffffffb x15=0xdb100000
       73625000	      7361	80000a44	016e2c33	slt	x24,x28,x22	 x28:0x00000000 x22:0xfffffc41 x24=0x00000000
       73635000	      7362	80000a48	c8280113	addi	x2,x16,-894	 x16:0x00000009  x2=0xfffffc8b
       73645000	      7363	80000a4c	e14e6d13	ori	x26,x28,-492	 x28:0x00000000 x26=0xfffffe14
       73655000	      7364	80000a50	40875d13	srai	x26,x14,0x8	 x14:0x0be74f20 x26=0x000be74f
       73665000	      7365	80000a54	00734133	xor	x2,x6,x7	  x6:0xfffffffb  x7:0xce980000  x2=0x3167fffb
       73675000	      7366	80000a58	00830313	addi	x6,x6,8	  x6:0xfffffffb  x6=0x00000003
       73685000	      7367	80000a5c	016271b3	and	x3,x4,x22	  x4:0x80009fc4 x22:0xfffffc41  x3=0x80009c40
       73695000	      7368	80000a60	00725db3	srl	x27,x4,x7	  x4:0x80009fc4  x7:0xce980000 x27=0x80009fc4
       73705000	      7369	80000a64	01b3e733	or	x14,x7,x27	  x7:0xce980000 x27:0x80009fc4 x14=0xce989fc4
       73715000	      7370	80000a68	aa35ad93	slti	x27,x11,-1373	 x11:0x5349c2a1 x27=0x00000000
       73725000	      7371	80000a6c	ff0364e3	bltu	x6,x16,80000a54	  x6:0x00000003 x16:0x00000009
       73735000	      7372	00000000	00000013	addi	x0,x0,0	  x0:0x00000000
       73745000	      7373	80000a50	00000013	addi	x0,x0,0	  x0:0x00000000
       73755000	      7374	80000a54	00734133	xor	x2,x6,x7	  x6:0x00000003  x7:0xce980000  x2=0xce980003
       73765000	      7375	80000a58	00830313	addi	x6,x6,8	  x6:0x00000003  x6=0x0000000b
       73775000	      7376	80000a5c	016271b3	and	x3,x4,x22	  x4:0x80009fc4 x22:0xfffffc41  x3=0x80009c40
       73785000	      7377	80000a60	00725db3	srl	x27,x4,x7	  x4:0x80009fc4  x7:0xce980000 x27=0x80009fc4
       73795000	      7378	80000a64	01b3e733	or	x14,x7,x27	  x7:0xce980000 x27:0x80009fc4 x14=0xce989fc4
       73805000	      7379	80000a68	aa35ad93	slti	x27,x11,-1373	 x11:0x5349c2a1 x27=0x00000000
       73815000	      7380	80000a6c	ff0364e3	bltu	x6,x16,80000a54	  x6:0x0000000b x16:0x00000009
       73825000	      7381	80000a70	4060d433	sra	x8,x1,x6	  x1:0x00000010  x6:0x0000000b  x8=0x00000000
       73835000	      7382	80000a74	00800c13	addi	x24,x0,8	  x0:0x00000000 x24=0x00000008
       73845000	      7383	80000a78	01100293	addi	x5,x0,17	  x0:0x00000000  x5=0x00000011
       73855000	      7384	80000a7c	012c4e33	xor	x28,x24,x18	 x24:0x00000008 x18:0x24f00000 x28=0x24f00008
       73865000	      7385	80000a80	009c0c13	addi	x24,x24,9	 x24:0x00000008 x24=0x00000011
       73875000	      7386	80000a84	382a08b7	lui	x17,0x382a0	 x17=0x382a0000
       73885000	      7387	80000a88	00600193	addi	x3,x0,6	  x0:0x00000000  x3=0x00000006
       73895000	      7388	80000a8c	00400f13	addi	x30,x0,4	  x0:0x00000000 x30=0x00000004
       73905000	      7389	80000a90	002675b3	and	x11,x12,x2	 x12:0xd6e00000  x2:0xce980003 x11=0xc6800000
       73915000	      7390	80000a94	fff18193	addi	x3,x3,-1	  x3:0x00000006  x3=0x00000005
       73925000	      7391	80000a98	c314ed13	ori	x26,x9,-975	  x9:0x00000001 x26=0xfffffc31
       73935000	      7392	80000a9c	ffe1fae3	bgeu	x3,x30,80000a90	  x3:0x00000005 x30:0x00000004
       73945000	      7393	00000000	00000013	addi	x0,x0,0	  x0:0x00000000
       73955000	      7394	80000a8c	00000013	addi	x0,x0,0	  x0:0x00000000
       73965000	      7395	80000a90	002675b3	and	x11,x12,x2	 x12:0xd6e00000  x2:0xce980003 x11=0xc6800000
       73975000	      7396	80000a94	fff18193	addi	x3,x3,-1	  x3:0x00000005  x3=0x00000004
       73985000	      7397	80000a98	c314ed13	ori	x26,x9,-975	  x9:0x00000001 x26=0xfffffc31
       73995000	      7398	80000a9c	ffe1fae3	bgeu	x3,x30,80000a90	  x3:0x00000004 x30:0x00000004
       74005000	      7399	00000000	00000013	addi	x0,x0,0	  x0:0x00000000
       74015000	      7400	80000a8c	00000013	addi	x0,x0,0	  x0:0x00000000
       74025000	      7401	80000a90	002675b3	and	x11,x12,x2	 x12:0xd6e00000  x2:0xce980003 x11=0xc6800000
       74035000	      7402	80000a94	fff18193	addi	x3,x3,-1	  x3:0x00000004  x3=0x00000003
       74045000	      7403	80000a98	c314ed13	ori	x26,x9,-975	  x9:0x00000001 x26=0xfffffc31
       74055000	      7404	80000a9c	ffe1fae3	bgeu	x3,x30,80000a90	  x3:0x00000003 x30:0x00000004
       74065000	      7405	80000aa0	fc5c1ee3	bne	x24,x5,80000a7c	 x24:0x00000011  x5:0x00000011
       74075000	      7406	80000aa4	01100fb3	add	x31,x0,x17	  x0:0x00000000 x17:0x382a0000 x31=0x382a0000
       74085000	      7407	80000aa8	ff900e13	addi	x28,x0,-7	  x0:0x00000000 x28=0xfffffff9
       74095000	      7408	80000aac	407808b3	sub	x17,x16,x7	 x16:0x00000009  x7:0xce980000 x17=0x31680009
       74105000	      7409	80000ab0	034ecc17	auipc	x24,0x34ec	 x24=0x834ecaac
       74115000	      7410	80000ab4	ffc00f13	addi	x30,x0,-4	  x0:0x00000000 x30=0xfffffffc
       74125000	      7411	80000ab8	79103137	lui	x2,0x79103	  x2=0x79103000
       74135000	      7412	80000abc	0016d513	srli	x10,x13,0x1	 x13:0x00000000 x10=0x00000000
       74145000	      7413	80000ac0	007e0e13	addi	x28,x28,7	 x28:0xfffffff9 x28=0x00000000
       74155000	      7414	80000ac4	01c53133	sltu	x2,x10,x28	 x10:0x00000000 x28:0x00000000  x2=0x00000000
       74165000	      7415	80000ac8	36f1d1b7	lui	x3,0x36f1d	  x3=0x36f1d000
       74175000	      7416	80000acc	41d151b3	sra	x3,x2,x29	  x2:0x00000000 x29:0x80009f6c  x3=0x00000000
       74185000	      7417	80000ad0	ffee44e3	blt	x28,x30,80000ab8	 x28:0x00000000 x30:0xfffffffc
       74195000	      7418	80000ad4	41b35533	sra	x10,x6,x27	  x6:0x0000000b x27:0x00000000 x10=0x0000000b
       74205000	      7419	80000ad8	00900793	addi	x15,x0,9	  x0:0x00000000 x15=0x00000009
       74215000	      7420	80000adc	004a61b3	or	x3,x20,x4	 x20:0x17ce9e41  x4:0x80009fc4  x3=0x97ce9fc5
       74225000	      7421	80000ae0	01aac833	xor	x16,x21,x26	 x21:0x2cb66b21 x26:0xfffffc31 x16=0xd3499710
       74235000	      7422	80000ae4	00800993	addi	x19,x0,8	  x0:0x00000000 x19=0x00000008
       74245000	      7423	80000ae8	26daea13	ori	x20,x21,621	 x21:0x2cb66b21 x20=0x2cb66b6d
       74255000	      7424	80000aec	019fcf33	xor	x30,x31,x25	 x31:0x382a0000 x25:0x2cb739f0 x30=0x149d39f0
       74265000	      7425	80000af0	00b010b3	sll	x1,x0,x11	  x0:0x00000000 x11:0xc6800000  x1=0x00000000
       74275000	      7426	80000af4	ffe78793	addi	x15,x15,-2	 x15:0x00000009 x15=0x00000007
       74285000	      7427	80000af8	00300d13	addi	x26,x0,3	  x0:0x00000000 x26=0x00000003
       74295000	      7428	80000afc	018a5333	srl	x6,x20,x24	 x20:0x2cb66b6d x24:0x834ecaac  x6=0x0002cb66
       74305000	      7429	80000b00	00300c13	addi	x24,x0,3	  x0:0x00000000 x24=0x00000003
       74315000	      7430	80000b04	412b5133	sra	x2,x22,x18	 x22:0xfffffc41 x18:0x24f00000  x2=0xfffffc41
       74325000	      7431	80000b08	00f035b3	sltu	x11,x0,x15	  x0:0x00000000 x15:0x00000007 x11=0x00000001
       74335000	      7432	80000b0c	ffed0d13	addi	x26,x26,-2	 x26:0x00000003 x26=0x00000001
       74345000	      7433	80000b10	bd58b813	sltiu	x16,x17,-1067	 x17:0x31680009 x16=0x00000001
       74355000	      7434	80000b14	00000013	addi	x0,x0,0	  x0:0x00000000
       74365000	      7435	80000b18	ff8d78e3	bgeu	x26,x24,80000b08	 x26:0x00000001 x24:0x00000003
       74375000	      7436	80000b1c	0086c3b3	xor	x7,x13,x8	 x13:0x00000000  x8:0x00000000  x7=0x00000000
       74385000	      7437	80000b20	fd37f6e3	bgeu	x15,x19,80000aec	 x15:0x00000007 x19:0x00000008
       74395000	      7438	80000b24	ba48f313	andi	x6,x17,-1116	 x17:0x31680009  x6=0x31680000
       74405000	      7439	80000b28	00a00913	addi	x18,x0,10	  x0:0x00000000 x18=0x0000000a
       74415000	      7440	80000b2c	d6c41197	auipc	x3,0xd6c41	  x3=0x56c41b28
       74425000	      7441	80000b30	40be0c33	sub	x24,x28,x11	 x28:0x00000000 x11:0x00000001 x24=0xffffffff
       74435000	      7442	80000b34	48b82697	auipc	x13,0x48b82	 x13=0xc8b82b30
       74445000	      7443	80000b38	00900d93	addi	x27,x0,9	  x0:0x00000000 x27=0x00000009
       74455000	      7444	80000b3c	00ee7133	and	x2,x28,x14	 x28:0x00000000 x14:0xce989fc4  x2=0x00000000
       74465000	      7445	80000b40	40935b13	srai	x22,x6,0x9	  x6:0x31680000 x22=0x0018b400
       74475000	      7446	80000b44	41355d13	srai	x26,x10,0x13	 x10:0x0000000b x26=0x00000000
       74485000	      7447	80000b48	00000013	addi	x0,x0,0	  x0:0x00000000
       74495000	      7448	80000b4c	00000013	addi	x0,x0,0	  x0:0x00000000
       74505000	      7449	80000b50	ff890913	addi	x18,x18,-8	 x18:0x0000000a x18=0x00000002
       74515000	      7450	80000b54	006d36b3	sltu	x13,x26,x6	 x26:0x00000000  x6:0x31680000 x13=0x00000001
       74525000	      7451	80000b58	00900e13	addi	x28,x0,9	  x0:0x00000000 x28=0x00000009
       74535000	      7452	80000b5c	c543bc93	sltiu	x25,x7,-940	  x7:0x00000000 x25=0x00000001
       74545000	      7453	80000b60	ed48e093	ori	x1,x17,-300	 x17:0x31680009  x1=0xfffffedd
       74555000	      7454	80000b64	00855d33	srl	x26,x10,x8	 x10:0x0000000b  x8:0x00000000 x26=0x0000000b
       74565000	      7455	80000b68	41ec56b3	sra	x13,x24,x30	 x24:0xffffffff x30:0x149d39f0 x13=0xffffffff
       74575000	      7456	80000b6c	d2dd7a13	andi	x20,x26,-723	 x26:0x0000000b x20=0x00000009
       74585000	      7457	80000b70	01b33c33	sltu	x24,x6,x27	  x6:0x31680000 x27:0x00000009 x24=0x00000000
       74595000	      7458	80000b74	41ccdc33	sra	x24,x25,x28	 x25:0x00000001 x28:0x00000009 x24=0x00000000
       74605000	      7459	80000b78	01000613	addi	x12,x0,16	  x0:0x00000000 x12=0x00000010
       74615000	      7460	80000b7c	00000013	addi	x0,x0,0	  x0:0x00000000
       74625000	      7461	80000b80	0006a533	slt	x10,x13,x0	 x13:0xffffffff  x0:0x00000000 x10=0x00000001
       74635000	      7462	80000b84	098fb713	sltiu	x14,x31,152	 x31:0x382a0000 x14=0x00000000
       74645000	      7463	80000b88	7d0e0313	addi	x6,x28,2000	 x28:0x00000009  x6=0x000007d9
       74655000	      7464	80000b8c	013c57b3	srl	x15,x24,x19	 x24:0x00000000 x19:0x00000008 x15=0x00000000
       74665000	      7465	80000b90	01e50bb3	add	x23,x10,x30	 x10:0x00000001 x30:0x149d39f0 x23=0x149d39f1
       74675000	      7466	80000b94	007e0e13	addi	x28,x28,7	 x28:0x00000009 x28=0x00000010
       74685000	      7467	80000b98	68027513	andi	x10,x4,1664	  x4:0x80009fc4 x10=0x00000680
       74695000	      7468	80000b9c	fece16e3	bne	x28,x12,80000b88	 x28:0x00000010 x12:0x00000010
       74705000	      7469	80000ba0	7347af13	slti	x30,x15,1844	 x15:0x00000000 x30=0x00000001
       74715000	      7470	80000ba4	7ce5c413	xori	x8,x11,1998	 x11:0x00000001  x8=0x000007cf
       74725000	      7471	80000ba8	f9b97ae3	bgeu	x18,x27,80000b3c	 x18:0x00000002 x27:0x00000009
       74735000	      7472	80000bac	01e9ea33	or	x20,x19,x30	 x19:0x00000008 x30:0x00000001 x20=0x00000009
       74745000	      7473	80000bb0	ffb00593	addi	x11,x0,-5	  x0:0x00000000 x11=0xfffffffb
       74755000	      7474	80000bb4	00e703b3	add	x7,x14,x14	 x14:0x00000000 x14:0x00000000  x7=0x00000000
       74765000	      7475	80000bb8	00b2a433	slt	x8,x5,x11	  x5:0x00000011 x11:0xfffffffb  x8=0x00000000
       74775000	      7476	80000bbc	0174f0b3	and	x1,x9,x23	  x9:0x00000001 x23:0x149d39f1  x1=0x00000001
       74785000	      7477	80000bc0	8ab24137	lui	x2,0x8ab24	  x2=0x8ab24000
       74795000	      7478	80000bc4	a7a44a93	xori	x21,x8,-1414	  x8:0x00000000 x21=0xfffffa7a
       74805000	      7479	80000bc8	ff000f93	addi	x31,x0,-16	  x0:0x00000000 x31=0xfffffff0
       74815000	      7480	80000bcc	00e24733	xor	x14,x4,x14	  x4:0x80009fc4 x14:0x00000000 x14=0x80009fc4
       74825000	      7481	80000bd0	41f400b3	sub	x1,x8,x31	  x8:0x00000000 x31:0xfffffff0  x1=0x00000010
       74835000	      7482	80000bd4	01a2d413	srli	x8,x5,0x1a	  x5:0x00000011  x8=0x00000000
       74845000	      7483	80000bd8	83fec013	xori	x0,x29,-1985	 x29:0x80009f6c
       74855000	      7484	80000bdc	408c5d33	sra	x26,x24,x8	 x24:0x00000000  x8:0x00000000 x26=0x00000000
       74865000	      7485	80000be0	16bc3893	sltiu	x17,x24,363	 x24:0x00000000 x17=0x00000001
       74875000	      7486	80000be4	ff658593	addi	x11,x11,-10	 x11:0xfffffffb x11=0xfffffff1
       74885000	      7487	80000be8	fff5dce3	bge	x11,x31,80000be0	 x11:0xfffffff1 x31:0xfffffff0
       74895000	      7488	00000000	00000013	addi	x0,x0,0	  x0:0x00000000
       74905000	      7489	80000bdc	00000013	addi	x0,x0,0	  x0:0x00000000
       74915000	      7490	80000be0	16bc3893	sltiu	x17,x24,363	 x24:0x00000000 x17=0x00000001
       74925000	      7491	80000be4	ff658593	addi	x11,x11,-10	 x11:0xfffffff1 x11=0xffffffe7
       74935000	      7492	80000be8	fff5dce3	bge	x11,x31,80000be0	 x11:0xffffffe7 x31:0xfffffff0
       74945000	      7493	80000bec	0151dd13	srli	x26,x3,0x15	  x3:0x56c41b28 x26=0x000002b6
       74955000	      7494	80000bf0	477be513	ori	x10,x23,1143	 x23:0x149d39f1 x10=0x149d3df7
       74965000	      7495	80000bf4	042b5063	bge	x22,x2,80000c34	 x22:0x0018b400  x2:0x8ab24000
       74975000	      7496	00000000	00000013	addi	x0,x0,0	  x0:0x00000000
       74985000	      7497	80000c30	00000013	addi	x0,x0,0	  x0:0x00000000
       74995000	      7498	80000c34	3ec6cd13	xori	x26,x13,1004	 x13:0xffffffff x26=0xfffffc13
       75005000	      7499	80000c38	00000013	addi	x0,x0,0	  x0:0x00000000
       75015000	      7500	80000c3c	000ad863	bge	x21,x0,80000c4c	 x21:0xfffffa7a  x0:0x00000000
       75025000	      7501	80000c40	bce4cc37	lui	x24,0xbce4c	 x24=0xbce4c000
       75035000	      7502	80000c44	0017a133	slt	x2,x15,x1	 x15:0x00000000  x1:0x00000010  x2=0x00000001
       75045000	      7503	80000c48	e91186b7	lui	x13,0xe9118	 x13=0xe9118000
       75055000	      7504	80000c4c	00c8d663	bge	x17,x12,80000c58	 x17:0x00000001 x12:0x00000010
       75065000	      7505	80000c50	01308433	add	x8,x1,x19	  x1:0x00000010 x19:0x00000008  x8=0x00000018
       75075000	      7506	80000c54	05b54c13	xori	x24,x10,91	 x10:0x149d3df7 x24=0x149d3dac
       75085000	      7507	80000c58	02fe8e63	beq	x29,x15,80000c94	 x29:0x80009f6c x15:0x00000000
       75095000	      7508	80000c5c	021a0263	beq	x20,x1,80000c80	 x20:0x00000009  x1:0x00000010
       75105000	      7509	80000c60	9686c893	xori	x17,x13,-1688	 x13:0xe9118000 x17=0x16ee7968
       75115000	      7510	80000c64	034cfa63	bgeu	x25,x20,80000c98	 x25:0x00000001 x20:0x00000009
       75125000	      7511	80000c68	ba363b13	sltiu	x22,x12,-1117	 x12:0x00000010 x22=0x00000001
       75135000	      7512	80000c6c	0394dc63	bge	x9,x25,80000ca4	  x9:0x00000001 x25:0x00000001
       75145000	      7513	00000000	00000013	addi	x0,x0,0	  x0:0x00000000
       75155000	      7514	80000ca0	00000013	addi	x0,x0,0	  x0:0x00000000
       75165000	      7515	80000ca4	21f3b313	sltiu	x6,x7,543	  x7:0x00000000  x6=0x00000001
       75175000	      7516	80000ca8	0c91f993	andi	x19,x3,201	  x3:0x56c41b28 x19=0x00000008
       75185000	      7517	80000cac	212c3c13	sltiu	x24,x24,530	 x24:0x149d3dac x24=0x00000000
       75195000	      7518	80000cb0	01700c33	add	x24,x0,x23	  x0:0x00000000 x23:0x149d39f1 x24=0x149d39f1
       75205000	      7519	80000cb4	03d36e63	bltu	x6,x29,80000cf0	  x6:0x00000001 x29:0x80009f6c
       75215000	      7520	00000000	00000013	addi	x0,x0,0	  x0:0x00000000
       75225000	      7521	80000cec	00000013	addi	x0,x0,0	  x0:0x00000000
       75235000	      7522	80000cf0	03b46463	bltu	x8,x27,80000d18	  x8:0x00000018 x27:0x00000009
       75245000	      7523	80000cf4	40abd993	srai	x19,x23,0xa	 x23:0x149d39f1 x19=0x0005274e
       75255000	      7524	80000cf8	007cd593	srli	x11,x25,0x7	 x25:0x00000001 x11=0x00000000
       75265000	      7525	80000cfc	bfe5cd93	xori	x27,x11,-1026	 x11:0x00000000 x27=0xfffffbfe
       75275000	      7526	80000d00	1af40013	addi	x0,x8,431	  x8:0x00000018
       75285000	      7527	80000d04	00455313	srli	x6,x10,0x4	 x10:0x149d3df7  x6=0x0149d3df
       75295000	      7528	80000d08	00bd7c63	bgeu	x26,x11,80000d20	 x26:0xfffffc13 x11:0x00000000
       75305000	      7529	00000000	00000013	addi	x0,x0,0	  x0:0x00000000
       75315000	      7530	80000d1c	00000013	addi	x0,x0,0	  x0:0x00000000
       75325000	      7531	80000d20	f6880593	addi	x11,x16,-152	 x16:0x00000001 x11=0xffffff69
       75335000	      7532	80000d24	0168d733	srl	x14,x17,x22	 x17:0x16ee7968 x22:0x00000001 x14=0x0b773cb4
       75345000	      7533	80000d28	0029b1b3	sltu	x3,x19,x2	 x19:0x0005274e  x2:0x00000001  x3=0x00000000
       75355000	      7534	80000d2c	05b76263	bltu	x14,x27,80000d70	 x14:0x0b773cb4 x27:0xfffffbfe
       75365000	      7535	00000000	00000013	addi	x0,x0,0	  x0:0x00000000
       75375000	      7536	80000d6c	00000013	addi	x0,x0,0	  x0:0x00000000
       75385000	      7537	80000d70	8389f113	andi	x2,x19,-1992	 x19:0x0005274e  x2=0x00052008
       75395000	      7538	80000d74	7c91bd13	sltiu	x26,x3,1993	  x3:0x00000000 x26=0x00000001
       75405000	      7539	80000d78	eb198f93	addi	x31,x19,-335	 x19:0x0005274e x31=0x000525ff
       75415000	      7540	80000d7c	03da4063	blt	x20,x29,80000d9c	 x20:0x00000009 x29:0x80009f6c
       75425000	      7541	80000d80	09926713	ori	x14,x4,153	  x4:0x80009fc4 x14=0x80009fdd
       75435000	      7542	80000d84	00000013	addi	x0,x0,0	  x0:0x00000000
       75445000	      7543	80000d88	40da0ab3	sub	x21,x20,x13	 x20:0x00000009 x13:0xe9118000 x21=0x16ee8009
       75455000	      7544	80000d8c	016f4bb3	xor	x23,x30,x22	 x30:0x00000001 x22:0x00000001 x23=0x00000000
       75465000	      7545	80000d90	00f5a833	slt	x16,x11,x15	 x11:0xffffff69 x15:0x00000000 x16=0x00000001
       75475000	      7546	80000d94	04d56663	bltu	x10,x13,80000de0	 x10:0x149d3df7 x13:0xe9118000
       75485000	      7547	00000000	00000013	addi	x0,x0,0	  x0:0x00000000
       75495000	      7548	80000ddc	00000013	addi	x0,x0,0	  x0:0x00000000
       75505000	      7549	80000de0	409b8db3	sub	x27,x23,x9	 x23:0x00000000  x9:0x00000001 x27=0xffffffff
       75515000	      7550	80000de4	00000013	addi	x0,x0,0	  x0:0x00000000
       75525000	      7551	80000de8	0484e263	bltu	x9,x8,80000e2c	  x9:0x00000001  x8:0x00000018
       75535000	      7552	00000000	00000013	addi	x0,x0,0	  x0:0x00000000
       75545000	      7553	80000e28	00000013	addi	x0,x0,0	  x0:0x00000000
       75555000	      7554	80000e2c	05b71063	bne	x14,x27,80000e6c	 x14:0x80009fdd x27:0xffffffff
       75565000	      7555	00000000	00000013	addi	x0,x0,0	  x0:0x00000000
       75575000	      7556	80000e68	00000013	addi	x0,x0,0	  x0:0x00000000
       75585000	      7557	80000e6c	006f9693	slli	x13,x31,0x6	 x31:0x000525ff x13=0x01497fc0
       75595000	      7558	80000e70	7ab992b7	lui	x5,0x7ab99	  x5=0x7ab99000
       75605000	      7559	80000e74	003f7863	bgeu	x30,x3,80000e84	 x30:0x00000001  x3:0x00000000
       75615000	      7560	00000000	00000013	addi	x0,x0,0	  x0:0x00000000
       75625000	      7561	80000e80	00000013	addi	x0,x0,0	  x0:0x00000000
       75635000	      7562	80000e84	01bd3033	sltu	x0,x26,x27	 x26:0x00000001 x27:0xffffffff
       75645000	      7563	80000e88	cc678113	addi	x2,x15,-826	 x15:0x00000000  x2=0xfffffcc6
       75655000	      7564	80000e8c	0087ac33	slt	x24,x15,x8	 x15:0x00000000  x8:0x00000018 x24=0x00000001
       75665000	      7565	80000e90	001e9733	sll	x14,x29,x1	 x29:0x80009f6c  x1:0x00000010 x14=0x9f6c0000
       75675000	      7566	80000e94	007b7a33	and	x20,x22,x7	 x22:0x00000001  x7:0x00000000 x20=0x00000000
       75685000	      7567	80000e98	00000013	addi	x0,x0,0	  x0:0x00000000
       75695000	      7568	80000e9c	02cfce63	blt	x31,x12,80000ed8	 x31:0x000525ff x12:0x00000010
       75705000	      7569	80000ea0	05799663	bne	x19,x23,80000eec	 x19:0x0005274e x23:0x00000000
       75715000	      7570	00000000	00000013	addi	x0,x0,0	  x0:0x00000000
       75725000	      7571	80000ee8	00000013	addi	x0,x0,0	  x0:0x00000000
       75735000	      7572	80000eec	018ded33	or	x26,x27,x24	 x27:0xffffffff x24:0x00000001 x26=0xffffffff
       75745000	      7573	80000ef0	bf12fc13	andi	x24,x5,-1039	  x5:0x7ab99000 x24=0x7ab99000
       75755000	      7574	80000ef4	4f650697	auipc	x13,0x4f650	 x13=0xcf650ef0
       75765000	      7575	80000ef8	003f8bb3	add	x23,x31,x3	 x31:0x000525ff  x3:0x00000000 x23=0x000525ff
       75775000	      7576	80000efc	993d8d13	addi	x26,x27,-1645	 x27:0xffffffff x26=0xfffff992
       75785000	      7577	80000f00	414ed013	srai	x0,x29,0x14	 x29:0x80009f6c
       75795000	      7578	80000f04	03bcec63	bltu	x25,x27,80000f3c	 x25:0x00000001 x27:0xffffffff
       75805000	      7579	00000000	00000013	addi	x0,x0,0	  x0:0x00000000
       75815000	      7580	80000f38	00000013	addi	x0,x0,0	  x0:0x00000000
       75825000	      7581	80000f3c	8c44fc13	andi	x24,x9,-1852	  x9:0x00000001 x24=0x00000000
       75835000	      7582	80000f40	00b8e8b3	or	x17,x17,x11	 x17:0x16ee7968 x11:0xffffff69 x17=0xffffff69
       75845000	      7583	80000f44	01079c13	slli	x24,x15,0x10	 x15:0x00000000 x24=0x00000000
       75855000	      7584	80000f48	03da1a63	bne	x20,x29,80000f7c	 x20:0x00000000 x29:0x80009f6c
       75865000	      7585	00000000	00000013	addi	x0,x0,0	  x0:0x00000000
       75875000	      7586	80000f78	00000013	addi	x0,x0,0	  x0:0x00000000
       75885000	      7587	80000f7c	00000013	addi	x0,x0,0	  x0:0x00000000
       75895000	      7588	80000f80	000e9693	slli	x13,x29,0x0	 x29:0x80009f6c x13=0x80009f6c
       75905000	      7589	80000f84	012a51b3	srl	x3,x20,x18	 x20:0x00000000 x18:0x00000002  x3=0x00000000
       75915000	      7590	80000f88	40ca5b33	sra	x22,x20,x12	 x20:0x00000000 x12:0x00000010 x22=0x00000000
       75925000	      7591	80000f8c	04286663	bltu	x16,x2,80000fd8	 x16:0x00000001  x2:0xfffffcc6
       75935000	      7592	00000000	00000013	addi	x0,x0,0	  x0:0x00000000
       75945000	      7593	80000fd4	00000013	addi	x0,x0,0	  x0:0x00000000
       75955000	      7594	80000fd8	01db9833	sll	x16,x23,x29	 x23:0x000525ff x29:0x80009f6c x16=0x525ff000
       75965000	      7595	80000fdc	1a6eadb7	lui	x27,0x1a6ea	 x27=0x1a6ea000
       75975000	      7596	80000fe0	00ef7533	and	x10,x30,x14	 x30:0x00000001 x14:0x9f6c0000 x10=0x00000000
       75985000	      7597	80000fe4	01dc7a33	and	x20,x24,x29	 x24:0x00000000 x29:0x80009f6c x20=0x00000000
       75995000	      7598	80000fe8	00bea833	slt	x16,x29,x11	 x29:0x80009f6c x11:0xffffff69 x16=0x00000001
       76005000	      7599	80000fec	049e6063	bltu	x28,x9,8000102c	 x28:0x00000010  x9:0x00000001
       76015000	      7600	80000ff0	020d0463	beq	x26,x0,80001018	 x26:0xfffff992  x0:0x00000000
       76025000	      7601	80000ff4	07853693	sltiu	x13,x10,120	 x10:0x00000000 x13=0x00000001
       76035000	      7602	80000ff8	01094f33	xor	x30,x18,x16	 x18:0x00000002 x16:0x00000001 x30=0x00000003
       76045000	      7603	80000ffc	198bb813	sltiu	x16,x23,408	 x23:0x000525ff x16=0x00000000
       76055000	      7604	80001000	0198eb33	or	x22,x17,x25	 x17:0xffffff69 x25:0x00000001 x22=0xffffff69
       76065000	      7605	80001004	13494f37	lui	x30,0x13494	 x30=0x13494000
       76075000	      7606	80001008	0174a7b3	slt	x15,x9,x23	  x9:0x00000001 x23:0x000525ff x15=0x00000001
       76085000	      7607	8000100c	2dace913	ori	x18,x25,730	 x25:0x00000001 x18=0x000002db
       76095000	      7608	80001010	014f1913	slli	x18,x30,0x14	 x30:0x13494000 x18=0x00000000
       76105000	      7609	80001014	0f174e17	auipc	x28,0xf174	 x28=0x8f175010
       76115000	      7610	80001018	00879db3	sll	x27,x15,x8	 x15:0x00000001  x8:0x00000018 x27=0x01000000
       76125000	      7611	8000101c	03cb9863	bne	x23,x28,8000104c	 x23:0x000525ff x28:0x8f175010
       76135000	      7612	00000000	00000013	addi	x0,x0,0	  x0:0x00000000
       76145000	      7613	80001048	00000013	addi	x0,x0,0	  x0:0x00000000
       76155000	      7614	8000104c	1640ec97	auipc	x25,0x1640e	 x25=0x9640f048
       76165000	      7615	80001050	012f9c93	slli	x25,x31,0x12	 x31:0x000525ff x25=0x97fc0000
       76175000	      7616	80001054	01430c33	add	x24,x6,x20	  x6:0x0149d3df x20:0x00000000 x24=0x0149d3df
       76185000	      7617	80001058	0066e033	or	x0,x13,x6	 x13:0x00000001  x6:0x0149d3df
       76195000	      7618	8000105c	0161d8b3	srl	x17,x3,x22	  x3:0x00000000 x22:0xffffff69 x17=0x00000000
       76205000	      7619	80001060	001dbd33	sltu	x26,x27,x1	 x27:0x01000000  x1:0x00000010 x26=0x00000000
       76215000	      7620	80001064	d6f33993	sltiu	x19,x6,-657	  x6:0x0149d3df x19=0x00000001
       76225000	      7621	80001068	048d7863	bgeu	x26,x8,800010b8	 x26:0x00000000  x8:0x00000018
       76235000	      7622	8000106c	5458b293	sltiu	x5,x17,1349	 x17:0x00000000  x5=0x00000001
       76245000	      7623	80001070	414f8133	sub	x2,x31,x20	 x31:0x000525ff x20:0x00000000  x2=0x000525ff
       76255000	      7624	80001074	010b0933	add	x18,x22,x16	 x22:0xffffff69 x16:0x00000000 x18=0xffffff69
       76265000	      7625	80001078	e1da4413	xori	x8,x20,-483	 x20:0x00000000  x8=0xfffffe1d
       76275000	      7626	8000107c	cb10ee13	ori	x28,x1,-847	  x1:0x00000010 x28=0xfffffcb1
       76285000	      7627	80001080	01bf7c33	and	x24,x30,x27	 x30:0x13494000 x27:0x01000000 x24=0x01000000
       76295000	      7628	80001084	00199693	slli	x13,x19,0x1	 x19:0x00000001 x13=0x00000002
       76305000	      7629	80001088	00000013	addi	x0,x0,0	  x0:0x00000000
       76315000	      7630	8000108c	0092c533	xor	x10,x5,x9	  x5:0x00000001  x9:0x00000001 x10=0x00000000
       76325000	      7631	80001090	0e762c93	slti	x25,x12,231	 x12:0x00000010 x25=0x00000001
       76335000	      7632	80001094	002f6033	or	x0,x30,x2	 x30:0x13494000  x2:0x000525ff
       76345000	      7633	80001098	4fafad93	slti	x27,x31,1274	 x31:0x000525ff x27=0x00000000
       76355000	      7634	8000109c	008dd663	bge	x27,x8,800010a8	 x27:0x00000000  x8:0xfffffe1d
       76365000	      7635	00000000	00000013	addi	x0,x0,0	  x0:0x00000000
       76375000	      7636	800010a4	00000013	addi	x0,x0,0	  x0:0x00000000
       76385000	      7637	800010a8	01569413	slli	x8,x13,0x15	 x13:0x00000002  x8=0x00400000
       76395000	      7638	800010ac	413a56b3	sra	x13,x20,x19	 x20:0x00000000 x19:0x00000001 x13=0x00000000
       76405000	      7639	800010b0	40870d33	sub	x26,x14,x8	 x14:0x9f6c0000  x8:0x00400000 x26=0x9f2c0000
       76415000	      7640	800010b4	016353b3	srl	x7,x6,x22	  x6:0x0149d3df x22:0xffffff69  x7=0x0000a4e9
       76425000	      7641	800010b8	0162b733	sltu	x14,x5,x22	  x5:0x00000001 x22:0xffffff69 x14=0x00000001
       76435000	      7642	800010bc	01bd8863	beq	x27,x27,800010cc	 x27:0x00000000 x27:0x00000000
       76445000	      7643	00000000	00000013	addi	x0,x0,0	  x0:0x00000000
       76455000	      7644	800010c8	00000013	addi	x0,x0,0	  x0:0x00000000
       76465000	      7645	800010cc	00d9cc33	xor	x24,x19,x13	 x19:0x00000001 x13:0x00000000 x24=0x00000001
       76475000	      7646	800010d0	2da4e193	ori	x3,x9,730	  x9:0x00000001  x3=0x000002db
       76485000	      7647	800010d4	40295b13	srai	x22,x18,0x2	 x18:0xffffff69 x22=0xffffffda
       76495000	      7648	800010d8	2ae4a317	auipc	x6,0x2ae4a	  x6=0xaae4b0d4
       76505000	      7649	800010dc	405fd333	sra	x6,x31,x5	 x31:0x000525ff  x5:0x00000001  x6=0x000292ff
       76515000	      7650	800010e0	ab1b06b7	lui	x13,0xab1b0	 x13=0xab1b0000
       76525000	      7651	800010e4	01597c63	bgeu	x18,x21,800010fc	 x18:0xffffff69 x21:0x16ee8009
       76535000	      7652	00000000	00000013	addi	x0,x0,0	  x0:0x00000000
       76545000	      7653	800010f8	00000013	addi	x0,x0,0	  x0:0x00000000
       76555000	      7654	800010fc	017dfb33	and	x22,x27,x23	 x27:0x00000000 x23:0x000525ff x22=0x00000000
       76565000	      7655	80001100	054c9263	bne	x25,x20,80001144	 x25:0x00000001 x20:0x00000000
       76575000	      7656	00000000	00000013	addi	x0,x0,0	  x0:0x00000000
       76585000	      7657	80001140	00000013	addi	x0,x0,0	  x0:0x00000000
       76595000	      7658	80001144	01650a63	beq	x10,x22,80001158	 x10:0x00000000 x22:0x00000000
       76605000	      7659	00000000	00000013	addi	x0,x0,0	  x0:0x00000000
       76615000	      7660	80001154	00000013	addi	x0,x0,0	  x0:0x00000000
       76625000	      7661	80001158	0464d663	bge	x9,x6,800011a4	  x9:0x00000001  x6:0x000292ff
       76635000	      7662	8000115c	0171ed33	or	x26,x3,x23	  x3:0x000002db x23:0x000525ff x26=0x000527ff
       76645000	      7663	80001160	03f65e63	bge	x12,x31,8000119c	 x12:0x00000010 x31:0x000525ff
       76655000	      7664	80001164	00921d13	slli	x26,x4,0x9	  x4:0x80009fc4 x26=0x013f8800
       76665000	      7665	80001168	03119c63	bne	x3,x17,800011a0	  x3:0x000002db x17:0x00000000
       76675000	      7666	00000000	00000013	addi	x0,x0,0	  x0:0x00000000
       76685000	      7667	8000119c	00000013	addi	x0,x0,0	  x0:0x00000000
       76695000	      7668	800011a0	00040cb3	add	x25,x8,x0	  x8:0x00400000  x0:0x00000000 x25=0x00400000
       76705000	      7669	800011a4	16d6ea93	ori	x21,x13,365	 x13:0xab1b0000 x21=0xab1b016d
       76715000	      7670	800011a8	57303993	sltiu	x19,x0,1395	  x0:0x00000000 x19=0x00000001
       76725000	      7671	800011ac	011e4863	blt	x28,x17,800011bc	 x28:0xfffffcb1 x17:0x00000000
       76735000	      7672	00000000	00000013	addi	x0,x0,0	  x0:0x00000000
       76745000	      7673	800011b8	00000013	addi	x0,x0,0	  x0:0x00000000
       76755000	      7674	800011bc	e94aa793	slti	x15,x21,-364	 x21:0xab1b016d x15=0x00000001
       76765000	      7675	800011c0	02ab9663	bne	x23,x10,800011ec	 x23:0x000525ff x10:0x00000000
       76775000	      7676	00000000	00000013	addi	x0,x0,0	  x0:0x00000000
       76785000	      7677	800011e8	00000013	addi	x0,x0,0	  x0:0x00000000
       76795000	      7678	800011ec	34b3ec13	ori	x24,x7,843	  x7:0x0000a4e9 x24=0x0000a7eb
       76805000	      7679	800011f0	004ea083	lw	x1,4(x29)	 x29:0x80009f6c  x1=0x80000318 PA:0x80009f70
       76815000	      7680	800011f4	ccf87293	andi	x5,x16,-817	 x16:0x00000000  x5=0x00000000
       76825000	      7681	800011f8	00ce8e93	addi	x29,x29,12	 x29:0x80009f6c x29=0x80009f78
       76835000	      7682	800011fc	001e3ab3	sltu	x21,x28,x1	 x28:0xfffffcb1  x1:0x80000318 x21=0x00000000
       76845000	      7683	80001200	00000013	addi	x0,x0,0	  x0:0x00000000
       76855000	      7684	80001204	00008c93	addi	x25,x1,0	  x1:0x80000318 x25=0x80000318
       76865000	      7685	80001208	000c8ce7	jalr	x25,x25,0	 x25:0x80000318 x25=0x80001208
       76875000	      7686	00000000	00000013	addi	x0,x0,0	  x0:0x00000000
       76885000	      7687	80000318	00000013	addi	x0,x0,0	  x0:0x00000000
       76895000	      7688	8000031c	79516413	ori	x8,x2,1941	  x2:0x000525ff  x8=0x000527ff
       76905000	      7689	80000320	01cb96b3	sll	x13,x23,x28	 x23:0x000525ff x28:0xfffffcb1 x13=0x4bfe0000
       76915000	      7690	80000324	007af863	bgeu	x21,x7,80000334	 x21:0x00000000  x7:0x0000a4e9
       76925000	      7691	80000328	008aee33	or	x28,x21,x8	 x21:0x00000000  x8:0x000527ff x28=0x000527ff
       76935000	      7692	8000032c	54713a93	sltiu	x21,x2,1351	  x2:0x000525ff x21=0x00000000
       76945000	      7693	80000330	008a9663	bne	x21,x8,8000033c	 x21:0x00000000  x8:0x000527ff
       76955000	      7694	00000000	00000013	addi	x0,x0,0	  x0:0x00000000
       76965000	      7695	80000338	00000013	addi	x0,x0,0	  x0:0x00000000
       76975000	      7696	8000033c	007ae263	bltu	x21,x7,80000340	 x21:0x00000000  x7:0x0000a4e9
       76985000	      7697	00000000	00000013	addi	x0,x0,0	  x0:0x00000000
       76995000	      7698	8000033c	00000013	addi	x0,x0,0	  x0:0x00000000
       77005000	      7699	80000340	d0aefb37	lui	x22,0xd0aef	 x22=0xd0aef000
       77015000	      7700	80000344	7fd62137	lui	x2,0x7fd62	  x2=0x7fd62000
       77025000	      7701	80000348	004ea083	lw	x1,4(x29)	 x29:0x80009f78  x1=0x8000028c PA:0x80009f7c
       77035000	      7702	00000000	00000013	addi	x0,x0,0	  x0:0x00000000
       77045000	      7703	8000034c	fc17c013	xori	x0,x15,-63	 x15:0x00000001
       77055000	      7704	80000350	00ce8e93	addi	x29,x29,12	 x29:0x80009f78 x29=0x80009f84
       77065000	      7705	80000354	0078e133	or	x2,x17,x7	 x17:0x00000000  x7:0x0000a4e9  x2=0x0000a4e9
       77075000	      7706	80000358	00108e13	addi	x28,x1,1	  x1:0x8000028c x28=0x8000028d
       77085000	      7707	8000035c	000e0e67	jalr	x28,x28,0	 x28:0x8000028d x28=0x8000035c
       77095000	      7708	00000000	00000013	addi	x0,x0,0	  x0:0x00000000
       77105000	      7709	8000028c	00000013	addi	x0,x0,0	  x0:0x00000000
       77115000	      7710	80000290	00d3f863	bgeu	x7,x13,800002a0	  x7:0x0000a4e9 x13:0x4bfe0000
       77125000	      7711	80000294	00000013	addi	x0,x0,0	  x0:0x00000000
       77135000	      7712	80000298	00248db3	add	x27,x9,x2	  x9:0x00000001  x2:0x0000a4e9 x27=0x0000a4ea
       77145000	      7713	8000029c	f4c23d93	sltiu	x27,x4,-180	  x4:0x80009fc4 x27=0x00000001
       77155000	      7714	800002a0	00964133	xor	x2,x12,x9	 x12:0x00000010  x9:0x00000001  x2=0x00000011
       77165000	      7715	800002a4	00000497	auipc	x9,0x0	  x9=0x800002a0
       77175000	      7716	800002a8	00c48493	addi	x9,x9,12	  x9:0x800002a0  x9=0x800002ac
       77185000	      7717	800002ac	00048067	jalr	x0,x9,0	  x9:0x800002ac
       77195000	      7718	00000000	00000013	addi	x0,x0,0	  x0:0x00000000
       77205000	      7719	800002ac	00000013	addi	x0,x0,0	  x0:0x00000000
       77215000	      7720	800002b0	00100193	addi	x3,x0,1	  x0:0x00000000  x3=0x00000001
       77225000	      7721	800002b4	00000073	ecall	
       77235000	      7722	800002b8	ff4e8e93	addi	x29,x29,-12	 x29:0x80009f84 x29=0x80009f78
