		Time			Cycle	PC		Insn	Decoded instruction	Register and memory contents
          65000	         5	80000004	00000293	addi	x5,x0,0	  x0:0x00000000  x5=0x00000000
          75000	         6	80000008	00000313	addi	x6,x0,0	  x0:0x00000000  x6=0x00000000
          85000	         7	8000000c	00628263	beq	x5,x6,80000010	  x5:0x00000000  x6:0x00000000
          95000	         8	00000000	00000013	addi	x0,x0,0	  x0:0x00000000
         105000	         9	8000000c	00000013	addi	x0,x0,0	  x0:0x00000000
         115000	        10	80000010	00000d97	auipc	x27,0x0	 x27=0x8000000c
         125000	        11	80000014	00cd8d93	addi	x27,x27,12	 x27:0x8000000c x27=0x80000018
         135000	        12	80000018	000d8067	jalr	x0,x27,0	 x27:0x80000018
         145000	        13	00000000	00000013	addi	x0,x0,0	  x0:0x00000000
         155000	        14	80000018	00000013	addi	x0,x0,0	  x0:0x00000000
         165000	        15	8000001c	400007b7	lui	x15,0x40000	 x15=0x40000000
         175000	        16	80000020	10078793	addi	x15,x15,256	 x15:0x40000000 x15=0x40000100
         185000	        17	80000024	00000013	addi	x0,x0,0	  x0:0x00000000
         195000	        18	80000028	0000a517	auipc	x10,0xa	 x10=0x8000a024
         205000	        19	8000002c	fa050513	addi	x10,x10,-96	 x10:0x8000a024 x10=0x80009fc4
         215000	        20	80000030	00007797	auipc	x15,0x7	 x15=0x8000702c
         225000	        21	80000034	78478793	addi	x15,x15,1924	 x15:0x8000702c x15=0x800077b0
         235000	        22	80000038	0017e793	ori	x15,x15,1	 x15:0x800077b0 x15=0x800077b1
         245000	        23	8000003c	00000013	addi	x0,x0,0	  x0:0x00000000
         255000	        24	80000040	00000797	auipc	x15,0x0	 x15=0x8000003c
         265000	        25	80000044	02078793	addi	x15,x15,32	 x15:0x8000003c x15=0x8000005c
         275000	        26	80000048	00000013	addi	x0,x0,0	  x0:0x00000000
         285000	        27	8000004c	00000013	addi	x0,x0,0	  x0:0x00000000
         295000	        28	80000050	000027b7	lui	x15,0x2	 x15=0x00002000
         305000	        29	80000054	80078793	addi	x15,x15,-2048	 x15:0x00002000 x15=0x00001800
         315000	        30	80000058	00000013	addi	x0,x0,0	  x0:0x00000000
         325000	        31	8000005c	00000013	addi	x0,x0,0	  x0:0x00000000
         335000	        32	80000060	00000013	addi	x0,x0,0	  x0:0x00000000
         345000	        33	80000064	155710b7	lui	x1,0x15571	  x1=0x15571000
         355000	        34	80000068	f1208093	addi	x1,x1,-238	  x1:0x15571000  x1=0x15570f12
         365000	        35	8000006c	00000113	addi	x2,x0,0	  x0:0x00000000  x2=0x00000000
         375000	        36	80000070	f15a41b7	lui	x3,0xf15a4	  x3=0xf15a4000
         385000	        37	80000074	1fe18193	addi	x3,x3,510	  x3:0xf15a4000  x3=0xf15a41fe
         395000	        38	80000078	00000213	addi	x4,x0,0	  x0:0x00000000  x4=0x00000000
         405000	        39	8000007c	f79742b7	lui	x5,0xf7974	  x5=0xf7974000
         415000	        40	80000080	8f428293	addi	x5,x5,-1804	  x5:0xf7974000  x5=0xf79738f4
         425000	        41	80000084	fa799337	lui	x6,0xfa799	  x6=0xfa799000
         435000	        42	80000088	b9430313	addi	x6,x6,-1132	  x6:0xfa799000  x6=0xfa798b94
         445000	        43	8000008c	a64683b7	lui	x7,0xa6468	  x7=0xa6468000
         455000	        44	80000090	6ad38393	addi	x7,x7,1709	  x7:0xa6468000  x7=0xa64686ad
         465000	        45	80000094	80000437	lui	x8,0x80000	  x8=0x80000000
         475000	        46	80000098	00000493	addi	x9,x0,0	  x0:0x00000000  x9=0x00000000
         485000	        47	8000009c	0fa055b7	lui	x11,0xfa05	 x11=0x0fa05000
         495000	        48	800000a0	e0a58593	addi	x11,x11,-502	 x11:0x0fa05000 x11=0x0fa04e0a
         505000	        49	800000a4	00000613	addi	x12,x0,0	  x0:0x00000000 x12=0x00000000
         515000	        50	800000a8	1cbc66b7	lui	x13,0x1cbc6	 x13=0x1cbc6000
         525000	        51	800000ac	56768693	addi	x13,x13,1383	 x13:0x1cbc6000 x13=0x1cbc6567
         535000	        52	800000b0	80000737	lui	x14,0x80000	 x14=0x80000000
         545000	        53	800000b4	00000793	addi	x15,x0,0	  x0:0x00000000 x15=0x00000000
         555000	        54	800000b8	f5de9837	lui	x16,0xf5de9	 x16=0xf5de9000
         565000	        55	800000bc	59080813	addi	x16,x16,1424	 x16:0xf5de9000 x16=0xf5de9590
         575000	        56	800000c0	00500893	addi	x17,x0,5	  x0:0x00000000 x17=0x00000005
         585000	        57	800000c4	00000993	addi	x19,x0,0	  x0:0x00000000 x19=0x00000000
         595000	        58	800000c8	80000a37	lui	x20,0x80000	 x20=0x80000000
         605000	        59	800000cc	80000ab7	lui	x21,0x80000	 x21=0x80000000
         615000	        60	800000d0	00600b13	addi	x22,x0,6	  x0:0x00000000 x22=0x00000006
         625000	        61	800000d4	0322abb7	lui	x23,0x322a	 x23=0x0322a000
         635000	        62	800000d8	46db8b93	addi	x23,x23,1133	 x23:0x0322a000 x23=0x0322a46d
         645000	        63	800000dc	00000c13	addi	x24,x0,0	  x0:0x00000000 x24=0x00000000
         655000	        64	800000e0	e2192cb7	lui	x25,0xe2192	 x25=0xe2192000
         665000	        65	800000e4	073c8c93	addi	x25,x25,115	 x25:0xe2192000 x25=0xe2192073
         675000	        66	800000e8	00000d13	addi	x26,x0,0	  x0:0x00000000 x26=0x00000000
         685000	        67	800000ec	00000d93	addi	x27,x0,0	  x0:0x00000000 x27=0x00000000
         695000	        68	800000f0	00000e13	addi	x28,x0,0	  x0:0x00000000 x28=0x00000000
         705000	        69	800000f4	f3b4ceb7	lui	x29,0xf3b4c	 x29=0xf3b4c000
         715000	        70	800000f8	97ce8e93	addi	x29,x29,-1668	 x29:0xf3b4c000 x29=0xf3b4b97c
         725000	        71	800000fc	00100f13	addi	x30,x0,1	  x0:0x00000000 x30=0x00000001
         735000	        72	80000100	f6093fb7	lui	x31,0xf6093	 x31=0xf6093000
         745000	        73	80000104	ee2f8f93	addi	x31,x31,-286	 x31:0xf6093000 x31=0xf6092ee2
         755000	        74	80000108	0000a917	auipc	x18,0xa	 x18=0x8000a104
         765000	        75	8000010c	e8090913	addi	x18,x18,-384	 x18:0x8000a104 x18=0x80009f84
         775000	        76	80000110	ad45d297	auipc	x5,0xad45d	  x5=0x2d45d10c
         785000	        77	80000114	40d8d693	srai	x13,x17,0xd	 x17:0x00000005 x13=0x00000000
         795000	        78	80000118	40738833	sub	x16,x7,x7	  x7:0xa64686ad  x7:0xa64686ad x16=0x00000000
         805000	        79	8000011c	00003797	auipc	x15,0x3	 x15=0x80003118
         815000	        80	80000120	49c78793	addi	x15,x15,1180	 x15:0x80003118 x15=0x800035b4
         825000	        81	80000124	01a3ea33	or	x20,x7,x26	  x7:0xa64686ad x26:0x00000000 x20=0xa64686ad
         835000	        82	80000128	eef0f213	andi	x4,x1,-273	  x1:0x15570f12  x4=0x15570e02
         845000	        83	8000012c	3bc78793	addi	x15,x15,956	 x15:0x800035b4 x15=0x80003970
         855000	        84	80000130	001285b3	add	x11,x5,x1	  x5:0x2d45d10c  x1:0x15570f12 x11=0x429ce01e
         865000	        85	80000134	00766ab3	or	x21,x12,x7	 x12:0x00000000  x7:0xa64686ad x21=0xa64686ad
         875000	        86	80000138	015a48b3	xor	x17,x20,x21	 x20:0xa64686ad x21:0xa64686ad x17=0x00000000
         885000	        87	8000013c	001a4663	blt	x20,x1,80000148	 x20:0xa64686ad  x1:0x15570f12
         895000	        88	00000000	00000013	addi	x0,x0,0	  x0:0x00000000
         905000	        89	80000144	00000013	addi	x0,x0,0	  x0:0x00000000
         915000	        90	80000148	c4578467	jalr	x8,x15,-955	 x15:0x80003970  x8=0x80000148
         925000	        91	00000000	00000013	addi	x0,x0,0	  x0:0x00000000
         935000	        92	800035b4	00000013	addi	x0,x0,0	  x0:0x00000000
         945000	        93	800035b8	01eac463	blt	x21,x30,800035c0	 x21:0xa64686ad x30:0x00000001
         955000	        94	00000000	00000013	addi	x0,x0,0	  x0:0x00000000
         965000	        95	800035bc	00000013	addi	x0,x0,0	  x0:0x00000000
         975000	        96	800035c0	fc490913	addi	x18,x18,-60	 x18:0x80009f84 x18=0x80009f48
         985000	        97	800035c4	010f4233	xor	x4,x30,x16	 x30:0x00000001 x16:0x00000000  x4=0x00000001
         995000	        98	800035c8	00892223	sw	x8,4(x18)	 x18:0x80009f48  x8:0x80000148 PA:0x80009f4c
        1005000	        99	800035cc	4f50a393	slti	x7,x1,1269	  x1:0x15570f12  x7=0x00000000
        1015000	       100	800035d0	00c1aab3	slt	x21,x3,x12	  x3:0xf15a41fe x12:0x00000000 x21=0x00000001
        1025000	       101	800035d4	fffff617	auipc	x12,0xfffff	 x12=0x800025d0
        1035000	       102	800035d8	08c60613	addi	x12,x12,140	 x12:0x800025d0 x12=0x8000265c
        1045000	       103	800035dc	01fac8b3	xor	x17,x21,x31	 x21:0x00000001 x31:0xf6092ee2 x17=0xf6092ee3
        1055000	       104	800035e0	00101133	sll	x2,x0,x1	  x0:0x00000000  x1:0x15570f12  x2=0x00000000
        1065000	       105	800035e4	c172ad13	slti	x26,x5,-1001	  x5:0x2d45d10c x26=0x00000000
        1075000	       106	800035e8	1e460613	addi	x12,x12,484	 x12:0x8000265c x12=0x80002840
        1085000	       107	800035ec	fd666197	auipc	x3,0xfd666	  x3=0x7d6695e8
        1095000	       108	800035f0	473e2f93	slti	x31,x28,1139	 x28:0x00000000 x31=0x00000001
        1105000	       109	800035f4	01c8c2b3	xor	x5,x17,x28	 x17:0xf6092ee3 x28:0x00000000  x5=0xf6092ee3
        1115000	       110	800035f8	00697463	bgeu	x18,x6,80003600	 x18:0x80009f48  x6:0xfa798b94
        1125000	       111	800035fc	018d7eb3	and	x29,x26,x24	 x26:0x00000000 x24:0x00000000 x29=0x00000000
        1135000	       112	80003600	e1d60467	jalr	x8,x12,-483	 x12:0x80002840  x8=0x80003600
        1145000	       113	00000000	00000013	addi	x0,x0,0	  x0:0x00000000
        1155000	       114	8000265c	00000013	addi	x0,x0,0	  x0:0x00000000
        1165000	       115	80002660	df6df137	lui	x2,0xdf6df	  x2=0xdf6df000
        1175000	       116	80002664	17174113	xori	x2,x14,369	 x14:0x80000000  x2=0x80000171
        1185000	       117	80002668	ff890913	addi	x18,x18,-8	 x18:0x80009f48 x18=0x80009f40
        1195000	       118	8000266c	01a65893	srli	x17,x12,0x1a	 x12:0x80002840 x17=0x00000020
        1205000	       119	80002670	01fc57b3	srl	x15,x24,x31	 x24:0x00000000 x31:0x00000001 x15=0x00000000
        1215000	       120	80002674	00892223	sw	x8,4(x18)	 x18:0x80009f40  x8:0x80003600 PA:0x80009f44
        1225000	       121	80002678	00a012b3	sll	x5,x0,x10	  x0:0x00000000 x10:0x80009fc4  x5=0x00000000
        1235000	       122	8000267c	00006817	auipc	x16,0x6	 x16=0x80008678
        1245000	       123	80002680	e3880813	addi	x16,x16,-456	 x16:0x80008678 x16=0x800084b0
        1255000	       124	80002684	e2ae88b7	lui	x17,0xe2ae8	 x17=0xe2ae8000
        1265000	       125	80002688	01190633	add	x12,x18,x17	 x18:0x80009f40 x17:0xe2ae8000 x12=0x62af1f40
        1275000	       126	8000268c	fc580723	sb	x5,-50(x16)	 x16:0x800084b0  x5:0x00000000 PA:0x8000847e
        1285000	       127	80002690	001e25b3	slt	x11,x28,x1	 x28:0x00000000  x1:0x15570f12 x11=0x00000001
        1295000	       128	80002694	00384103	lbu	x2,3(x16)	 x16:0x800084b0  x2=0x00000068 PA:0x800084b3
        1305000	       129	00000000	00000013	addi	x0,x0,0	  x0:0x00000000
        1315000	       130	80002698	fc280ca3	sb	x2,-39(x16)	 x16:0x800084b0  x2:0x00000068 PA:0x80008489
        1325000	       131	8000269c	03d809a3	sb	x29,51(x16)	 x16:0x800084b0 x29:0x00000000 PA:0x800084e3
        1335000	       132	800026a0	02980e83	lb	x29,41(x16)	 x16:0x800084b0 x29=0xffffff92 PA:0x800084d9
        1345000	       133	800026a4	00cb1713	slli	x14,x22,0xc	 x22:0x00000006 x14=0x00006000
        1355000	       134	800026a8	4af70693	addi	x13,x14,1199	 x14:0x00006000 x13=0x000064af
        1365000	       135	800026ac	fcd80d03	lb	x26,-51(x16)	 x16:0x800084b0 x26=0x00000036 PA:0x8000847d
        1375000	       136	800026b0	12447e97	auipc	x29,0x12447	 x29=0x924496ac
        1385000	       137	800026b4	fe981623	sh	x9,-20(x16)	 x16:0x800084b0  x9:0x00000000 PA:0x8000849c
        1395000	       138	800026b8	01713ab3	sltu	x21,x2,x23	  x2:0x00000068 x23:0x0322a46d x21=0x00000001
        1405000	       139	800026bc	0003ffb3	and	x31,x7,x0	  x7:0x00000000  x0:0x00000000 x31=0x00000000
        1415000	       140	800026c0	03081783	lh	x15,48(x16)	 x16:0x800084b0 x15=0xffff9a9b PA:0x800084e0
        1425000	       141	800026c4	fc984b03	lbu	x22,-55(x16)	 x16:0x800084b0 x22=0x00000032 PA:0x80008479
        1435000	       142	800026c8	008c0033	add	x0,x24,x8	 x24:0x00000000  x8:0x80003600
        1445000	       143	800026cc	012cd233	srl	x4,x25,x18	 x25:0xe2192073 x18:0x80009f40  x4=0xe2192073
        1455000	       144	800026d0	40a7dd33	sra	x26,x15,x10	 x15:0xffff9a9b x10:0x80009fc4 x26=0xfffff9a9
        1465000	       145	800026d4	0c59e8b7	lui	x17,0xc59e	 x17=0x0c59e000
        1475000	       146	800026d8	405b5033	sra	x0,x22,x5	 x22:0x00000032  x5:0x00000000
        1485000	       147	800026dc	fc881103	lh	x2,-56(x16)	 x16:0x800084b0  x2=0x00003233 PA:0x80008478
        1495000	       148	800026e0	fc384583	lbu	x11,-61(x16)	 x16:0x800084b0 x11=0x00000028 PA:0x80008473
        1505000	       149	800026e4	01095613	srli	x12,x18,0x10	 x18:0x80009f40 x12=0x00008000
        1515000	       150	800026e8	416253b3	sra	x7,x4,x22	  x4:0xe2192073 x22:0x00000032  x7=0xfffff886
        1525000	       151	800026ec	00000013	addi	x0,x0,0	  x0:0x00000000
        1535000	       152	800026f0	40f3d713	srai	x14,x7,0xf	  x7:0xfffff886 x14=0xffffffff
        1545000	       153	800026f4	41840633	sub	x12,x8,x24	  x8:0x80003600 x24:0x00000000 x12=0x80003600
        1555000	       154	800026f8	fec84383	lbu	x7,-20(x16)	 x16:0x800084b0  x7=0x00000000 PA:0x8000849c
        1565000	       155	00000000	00000013	addi	x0,x0,0	  x0:0x00000000
        1575000	       156	800026fc	0083d1b3	srl	x3,x7,x8	  x7:0x00000000  x8:0x80003600  x3=0x00000000
        1585000	       157	80002700	40605c13	srai	x24,x0,0x6	  x0:0x00000000 x24=0x00000000
        1595000	       158	80002704	ff280183	lb	x3,-14(x16)	 x16:0x800084b0  x3=0x00000059 PA:0x800084a2
        1605000	       159	80002708	00c81a23	sh	x12,20(x16)	 x16:0x800084b0 x12:0x80003600 PA:0x800084c4
        1615000	       160	8000270c	01884b83	lbu	x23,24(x16)	 x16:0x800084b0 x23=0x00000083 PA:0x800084c8
        1625000	       161	80002710	00a23eb3	sltu	x29,x4,x10	  x4:0xe2192073 x10:0x80009fc4 x29=0x00000000
        1635000	       162	80002714	01584f03	lbu	x30,21(x16)	 x16:0x800084b0 x30=0x00000036 PA:0x800084c5
        1645000	       163	80002718	00d855b3	srl	x11,x16,x13	 x16:0x800084b0 x13:0x000064af x11=0x00010001
        1655000	       164	8000271c	00000013	addi	x0,x0,0	  x0:0x00000000
        1665000	       165	80002720	fda81023	sh	x26,-64(x16)	 x16:0x800084b0 x26:0xfffff9a9 PA:0x80008470
        1675000	       166	80002724	004d97b3	sll	x15,x27,x4	 x27:0x00000000  x4:0xe2192073 x15=0x00000000
        1685000	       167	80002728	0091fa33	and	x20,x3,x9	  x3:0x00000059  x9:0x00000000 x20=0x00000000
        1695000	       168	8000272c	01880083	lb	x1,24(x16)	 x16:0x800084b0  x1=0xffffff83 PA:0x800084c8
        1705000	       169	80002730	03b84483	lbu	x9,59(x16)	 x16:0x800084b0  x9=0x000000a0 PA:0x800084eb
        1715000	       170	80002734	8e252f17	auipc	x30,0x8e252	 x30=0x0e254730
        1725000	       171	80002738	fcb80403	lb	x8,-53(x16)	 x16:0x800084b0  x8=0x00000030 PA:0x8000847b
        1735000	       172	8000273c	06b1bd37	lui	x26,0x6b1b	 x26=0x06b1b000
        1745000	       173	80002740	02380c03	lb	x24,35(x16)	 x16:0x800084b0 x24=0xffffff88 PA:0x800084d3
        1755000	       174	80002744	00006e97	auipc	x29,0x6	 x29=0x80008740
        1765000	       175	80002748	ff3e8e93	addi	x29,x29,-13	 x29:0x80008740 x29=0x80008733
        1775000	       176	8000274c	1235f713	andi	x14,x11,291	 x11:0x00010001 x14=0x00000001
        1785000	       177	80002750	001c1713	slli	x14,x24,0x1	 x24:0xffffff88 x14=0xffffff10
        1795000	       178	80002754	0183db13	srli	x22,x7,0x18	  x7:0x00000000 x22=0x00000000
        1805000	       179	80002758	078ec283	lbu	x5,120(x29)	 x29:0x80008733  x5=0x00000060 PA:0x800087ab
        1815000	       180	8000275c	01e0af33	slt	x30,x1,x30	  x1:0xffffff83 x30:0x0e254730 x30=0x00000001
        1825000	       181	80002760	ffbec003	lbu	x0,-5(x29)	 x29:0x80008733 PA:0x8000872e
        1835000	       182	80002764	018560b3	or	x1,x10,x24	 x10:0x80009fc4 x24:0xffffff88  x1=0xffffffcc
        1845000	       183	80002768	feeec783	lbu	x15,-18(x29)	 x29:0x80008733 x15=0x000000da PA:0x80008721
        1855000	       184	8000276c	095eaf03	lw	x30,149(x29)	 x29:0x80008733 x30=0x80818283 PA:0x800087c8
        1865000	       185	80002770	0059ffb3	and	x31,x19,x5	 x19:0x00000000  x5:0x00000060 x31=0x00000000
        1875000	       186	80002774	036ec683	lbu	x13,54(x29)	 x29:0x80008733 x13=0x00000022 PA:0x80008769
        1885000	       187	80002778	408e8ab3	sub	x21,x29,x8	 x29:0x80008733  x8:0x00000030 x21=0x80008703
        1895000	       188	8000277c	f70e8703	lb	x14,-144(x29)	 x29:0x80008733 x14=0x00000058 PA:0x800086a3
        1905000	       189	80002780	75e636b7	lui	x13,0x75e63	 x13=0x75e63000
        1915000	       190	80002784	075ed603	lhu	x12,117(x29)	 x29:0x80008733 x12=0x00006263 PA:0x800087a8
        1925000	       191	00000000	00000013	addi	x0,x0,0	  x0:0x00000000
        1935000	       192	80002788	0cce8883	lb	x17,204(x29)	 x29:0x80008733 x17=0xffffffb4 PA:0x800087ff
        1945000	       193	8000278c	01ce1293	slli	x5,x28,0x1c	 x28:0x00000000  x5=0x00000000
        1955000	       194	80002790	01341ab3	sll	x21,x8,x19	  x8:0x00000030 x19:0x00000000 x21=0x00000030
        1965000	       195	80002794	008227b3	slt	x15,x4,x8	  x4:0xe2192073  x8:0x00000030 x15=0x00000001
        1975000	       196	80002798	0071a6b3	slt	x13,x3,x7	  x3:0x00000059  x7:0x00000000 x13=0x00000000
        1985000	       197	8000279c	006a5c93	srli	x25,x20,0x6	 x20:0x00000000 x25=0x00000000
        1995000	       198	800027a0	044ecf03	lbu	x30,68(x29)	 x29:0x80008733 x30=0x0000002c PA:0x80008777
        2005000	       199	800027a4	01db1cb3	sll	x25,x22,x29	 x22:0x00000000 x29:0x80008733 x25=0x00000000
        2015000	       200	800027a8	00de1633	sll	x12,x28,x13	 x28:0x00000000 x13:0x00000000 x12=0x00000000
        2025000	       201	800027ac	3d74b293	sltiu	x5,x9,983	  x9:0x000000a0  x5=0x00000001
        2035000	       202	800027b0	48beb893	sltiu	x17,x29,1163	 x29:0x80008733 x17=0x00000000
        2045000	       203	800027b4	010a1713	slli	x14,x20,0x10	 x20:0x00000000 x14=0x00000000
        2055000	       204	800027b8	0098f9b3	and	x19,x17,x9	 x17:0x00000000  x9:0x000000a0 x19=0x00000000
        2065000	       205	800027bc	02be8b23	sb	x11,54(x29)	 x29:0x80008733 x11:0x00010001 PA:0x80008769
        2075000	       206	800027c0	00006897	auipc	x17,0x6	 x17=0x800087bc
        2085000	       207	800027c4	6bb88893	addi	x17,x17,1723	 x17:0x800087bc x17=0x80008e77
        2095000	       208	800027c8	001894a3	sh	x1,9(x17)	 x17:0x80008e77  x1:0xffffffcc PA:0x80008e80
        2105000	       209	800027cc	01398133	add	x2,x19,x19	 x19:0x00000000 x19:0x00000000  x2=0x00000000
        2115000	       210	800027d0	a217fab7	lui	x21,0xa217f	 x21=0xa217f000
        2125000	       211	800027d4	010f9313	slli	x6,x31,0x10	 x31:0x00000000  x6=0x00000000
        2135000	       212	800027d8	575a7613	andi	x12,x20,1397	 x20:0x00000000 x12=0x00000000
        2145000	       213	800027dc	fc3891a3	sh	x3,-61(x17)	 x17:0x80008e77  x3:0x00000059 PA:0x80008e3a
        2155000	       214	800027e0	00b199b3	sll	x19,x3,x11	  x3:0x00000059 x11:0x00010001 x19=0x000000b2
        2165000	       215	800027e4	fe688a23	sb	x6,-12(x17)	 x17:0x80008e77  x6:0x00000000 PA:0x80008e6b
        2175000	       216	800027e8	01849433	sll	x8,x9,x24	  x9:0x000000a0 x24:0xffffff88  x8=0x0000a000
        2185000	       217	800027ec	fdd8ab83	lw	x23,-35(x17)	 x17:0x80008e77 x23=0x3c3d3e3f PA:0x80008e54
        2195000	       218	800027f0	fcb88523	sb	x11,-54(x17)	 x17:0x80008e77 x11:0x00010001 PA:0x80008e41
        2205000	       219	800027f4	00d61493	slli	x9,x12,0xd	 x12:0x00000000  x9=0x00000000
        2215000	       220	800027f8	01a8be33	sltu	x28,x17,x26	 x17:0x80008e77 x26:0x06b1b000 x28=0x00000000
        2225000	       221	800027fc	fd288123	sb	x18,-62(x17)	 x17:0x80008e77 x18:0x80009f40 PA:0x80008e39
        2235000	       222	80002800	ff288923	sb	x18,-14(x17)	 x17:0x80008e77 x18:0x80009f40 PA:0x80008e69
        2245000	       223	80002804	03f88103	lb	x2,63(x17)	 x17:0x80008e77  x2=0xffffff9d PA:0x80008eb6
        2255000	       224	80002808	01591ab3	sll	x21,x18,x21	 x18:0x80009f40 x21:0xa217f000 x21=0x80009f40
        2265000	       225	8000280c	03188f03	lb	x30,49(x17)	 x17:0x80008e77 x30=0xffffff93 PA:0x80008ea8
        2275000	       226	80002810	fcd884a3	sb	x13,-55(x17)	 x17:0x80008e77 x13:0x00000000 PA:0x80008e40
        2285000	       227	80002814	752b86b7	lui	x13,0x752b8	 x13=0x752b8000
        2295000	       228	80002818	3e4c4d13	xori	x26,x24,996	 x24:0xffffff88 x26=0xfffffc6c
        2305000	       229	8000281c	01388a03	lb	x20,19(x17)	 x17:0x80008e77 x20=0x00000071 PA:0x80008e8a
        2315000	       230	80002820	40e30033	sub	x0,x6,x14	  x6:0x00000000 x14:0x00000000
        2325000	       231	80002824	72040093	addi	x1,x8,1824	  x8:0x0000a000  x1=0x0000a720
        2335000	       232	80002828	02688783	lb	x15,38(x17)	 x17:0x80008e77 x15=0xffffff86 PA:0x80008e9d
        2345000	       233	8000282c	01aa0333	add	x6,x20,x26	 x20:0x00000071 x26:0xfffffc6c  x6=0xfffffcdd
        2355000	       234	80002830	02389e83	lh	x29,35(x17)	 x17:0x80008e77 x29=0xffff8081 PA:0x80008e9a
        2365000	       235	80002834	fe588003	lb	x0,-27(x17)	 x17:0x80008e77 PA:0x80008e5c
        2375000	       236	80002838	fe588323	sb	x5,-26(x17)	 x17:0x80008e77  x5:0x00000001 PA:0x80008e5d
        2385000	       237	8000283c	5701b313	sltiu	x6,x3,1392	  x3:0x00000059  x6=0x00000001
        2395000	       238	80002840	01788f83	lb	x31,23(x17)	 x17:0x80008e77 x31=0x00000075 PA:0x80008e8e
        2405000	       239	80002844	bbb8f193	andi	x3,x17,-1093	 x17:0x80008e77  x3=0x80008a33
        2415000	       240	80002848	0014ab33	slt	x22,x9,x1	  x9:0x00000000  x1:0x0000a720 x22=0x00000001
        2425000	       241	8000284c	010f67b3	or	x15,x30,x16	 x30:0xffffff93 x16:0x800084b0 x15=0xffffffb3
        2435000	       242	80002850	017889a3	sb	x23,19(x17)	 x17:0x80008e77 x23:0x3c3d3e3f PA:0x80008e8a
        2445000	       243	80002854	002435b3	sltu	x11,x8,x2	  x8:0x0000a000  x2:0xffffff9d x11=0x00000001
        2455000	       244	80002858	0078db83	lhu	x23,7(x17)	 x17:0x80008e77 x23=0x00006465 PA:0x80008e7e
        2465000	       245	8000285c	01f003b3	add	x7,x0,x31	  x0:0x00000000 x31:0x00000075  x7=0x00000075
        2475000	       246	80002860	fce8c403	lbu	x8,-50(x17)	 x17:0x80008e77  x8=0x0000002e PA:0x80008e45
        2485000	       247	80002864	fed896a3	sh	x13,-19(x17)	 x17:0x80008e77 x13:0x752b8000 PA:0x80008e64
        2495000	       248	80002868	01d5ea33	or	x20,x11,x29	 x11:0x00000001 x29:0xffff8081 x20=0xffff8081
        2505000	       249	8000286c	0028c583	lbu	x11,2(x17)	 x17:0x80008e77 x11=0x00000062 PA:0x80008e79
        2515000	       250	80002870	f8d7e213	ori	x4,x15,-115	 x15:0xffffffb3  x4=0xffffffbf
        2525000	       251	80002874	0398c083	lbu	x1,57(x17)	 x17:0x80008e77  x1=0x0000009b PA:0x80008eb0
        2535000	       252	80002878	0a4a2f93	slti	x31,x20,164	 x20:0xffff8081 x31=0x00000001
        2545000	       253	8000287c	00300f33	add	x30,x0,x3	  x0:0x00000000  x3:0x80008a33 x30=0x80008a33
        2555000	       254	80002880	00f492b3	sll	x5,x9,x15	  x9:0x00000000 x15:0xffffffb3  x5=0x00000000
        2565000	       255	80002884	35a2ed13	ori	x26,x5,858	  x5:0x00000000 x26=0x0000035a
        2575000	       256	80002888	fde88083	lb	x1,-34(x17)	 x17:0x80008e77  x1=0x0000003e PA:0x80008e55
        2585000	       257	8000288c	4f37ea93	ori	x21,x15,1267	 x15:0xffffffb3 x21=0xfffffff3
        2595000	       258	80002890	c0697b93	andi	x23,x18,-1018	 x18:0x80009f40 x23=0x80009c00
        2605000	       259	80002894	a6534393	xori	x7,x6,-1435	  x6:0x00000001  x7=0xfffffa64
        2615000	       260	80002898	00a94cb3	xor	x25,x18,x10	 x18:0x80009f40 x10:0x80009fc4 x25=0x00000084
        2625000	       261	8000289c	012a3733	sltu	x14,x20,x18	 x20:0xffff8081 x18:0x80009f40 x14=0x00000000
        2635000	       262	800028a0	001f5b13	srli	x22,x30,0x1	 x30:0x80008a33 x22=0x40004519
        2645000	       263	800028a4	008f33b3	sltu	x7,x30,x8	 x30:0x80008a33  x8:0x0000002e  x7=0x00000000
        2655000	       264	800028a8	00589313	slli	x6,x17,0x5	 x17:0x80008e77  x6=0x0011cee0
        2665000	       265	800028ac	056c1663	bne	x24,x22,800028f8	 x24:0xffffff88 x22:0x40004519
        2675000	       266	00000000	00000013	addi	x0,x0,0	  x0:0x00000000
        2685000	       267	800028f4	00000013	addi	x0,x0,0	  x0:0x00000000
        2695000	       268	800028f8	241ba713	slti	x14,x23,577	 x23:0x80009c00 x14=0x00000001
        2705000	       269	800028fc	0156db93	srli	x23,x13,0x15	 x13:0x752b8000 x23=0x000003a9
        2715000	       270	80002900	05391263	bne	x18,x19,80002944	 x18:0x80009f40 x19:0x000000b2
        2725000	       271	00000000	00000013	addi	x0,x0,0	  x0:0x00000000
        2735000	       272	80002940	00000013	addi	x0,x0,0	  x0:0x00000000
        2745000	       273	80002944	af86ac37	lui	x24,0xaf86a	 x24=0xaf86a000
        2755000	       274	80002948	415dd733	sra	x14,x27,x21	 x27:0x00000000 x21:0xfffffff3 x14=0x00000000
        2765000	       275	8000294c	017591b3	sll	x3,x11,x23	 x11:0x00000062 x23:0x000003a9  x3=0x0000c400
        2775000	       276	80002950	01ed6733	or	x14,x26,x30	 x26:0x0000035a x30:0x80008a33 x14=0x80008b7b
        2785000	       277	80002954	01a16333	or	x6,x2,x26	  x2:0xffffff9d x26:0x0000035a  x6=0xffffffdf
        2795000	       278	80002958	013dac33	slt	x24,x27,x19	 x27:0x00000000 x19:0x000000b2 x24=0x00000001
        2805000	       279	8000295c	f033bc13	sltiu	x24,x7,-253	  x7:0x00000000 x24=0x00000001
        2815000	       280	80002960	ff15f613	andi	x12,x11,-15	 x11:0x00000062 x12=0x00000060
        2825000	       281	80002964	01c9bd33	sltu	x26,x19,x28	 x19:0x000000b2 x28:0x00000000 x26=0x00000000
        2835000	       282	80002968	00ee4b33	xor	x22,x28,x14	 x28:0x00000000 x14:0x80008b7b x22=0x80008b7b
        2845000	       283	8000296c	01848c63	beq	x9,x24,80002984	  x9:0x00000000 x24:0x00000001
        2855000	       284	80002970	00d7d093	srli	x1,x15,0xd	 x15:0xffffffb3  x1=0x0007ffff
        2865000	       285	80002974	01dec9b3	xor	x19,x29,x29	 x29:0xffff8081 x29:0xffff8081 x19=0x00000000
        2875000	       286	80002978	048bc863	blt	x23,x8,800029c8	 x23:0x000003a9  x8:0x0000002e
        2885000	       287	8000297c	43e74c13	xori	x24,x14,1086	 x14:0x80008b7b x24=0x80008f45
        2895000	       288	80002980	0142e493	ori	x9,x5,20	  x5:0x00000000  x9=0x00000014
        2905000	       289	80002984	012ae263	bltu	x21,x18,80002988	 x21:0xfffffff3 x18:0x80009f40
        2915000	       290	80002988	05e50463	beq	x10,x30,800029d0	 x10:0x80009fc4 x30:0x80008a33
        2925000	       291	8000298c	00e70d33	add	x26,x14,x14	 x14:0x80008b7b x14:0x80008b7b x26=0x000116f6
        2935000	       292	80002990	010391b3	sll	x3,x7,x16	  x7:0x00000000 x16:0x800084b0  x3=0x00000000
        2945000	       293	80002994	00386b33	or	x22,x16,x3	 x16:0x800084b0  x3:0x00000000 x22=0x800084b0
        2955000	       294	80002998	00dd1f33	sll	x30,x26,x13	 x26:0x000116f6 x13:0x752b8000 x30=0x000116f6
        2965000	       295	8000299c	02798463	beq	x19,x7,800029c4	 x19:0x00000000  x7:0x00000000
        2975000	       296	00000000	00000013	addi	x0,x0,0	  x0:0x00000000
        2985000	       297	800029c0	00000013	addi	x0,x0,0	  x0:0x00000000
        2995000	       298	800029c4	05c21063	bne	x4,x28,80002a04	  x4:0xffffffbf x28:0x00000000
        3005000	       299	00000000	00000013	addi	x0,x0,0	  x0:0x00000000
        3015000	       300	80002a00	00000013	addi	x0,x0,0	  x0:0x00000000
        3025000	       301	80002a04	538f7693	andi	x13,x30,1336	 x30:0x000116f6 x13=0x00000430
        3035000	       302	80002a08	00ed5b93	srli	x23,x26,0xe	 x26:0x000116f6 x23=0x00000004
        3045000	       303	80002a0c	0046d263	bge	x13,x4,80002a10	 x13:0x00000430  x4:0xffffffbf
        3055000	       304	00000000	00000013	addi	x0,x0,0	  x0:0x00000000
        3065000	       305	80002a0c	00000013	addi	x0,x0,0	  x0:0x00000000
        3075000	       306	80002a10	0b03e013	ori	x0,x7,176	  x7:0x00000000
        3085000	       307	80002a14	03b84263	blt	x16,x27,80002a38	 x16:0x800084b0 x27:0x00000000
        3095000	       308	00000000	00000013	addi	x0,x0,0	  x0:0x00000000
        3105000	       309	80002a34	00000013	addi	x0,x0,0	  x0:0x00000000
        3115000	       310	80002a38	01dcd033	srl	x0,x25,x29	 x25:0x00000084 x29:0xffff8081
        3125000	       311	80002a3c	00208663	beq	x1,x2,80002a48	  x1:0x0007ffff  x2:0xffffff9d
        3135000	       312	80002a40	407dd193	srai	x3,x27,0x7	 x27:0x00000000  x3=0x00000000
        3145000	       313	80002a44	0012f4b3	and	x9,x5,x1	  x5:0x00000000  x1:0x0007ffff  x9=0x00000000
        3155000	       314	80002a48	00ef1f33	sll	x30,x30,x14	 x30:0x000116f6 x14:0x80008b7b x30=0xb0000000
        3165000	       315	80002a4c	00010eb3	add	x29,x2,x0	  x2:0xffffff9d  x0:0x00000000 x29=0xffffff9d
        3175000	       316	80002a50	009dd463	bge	x27,x9,80002a58	 x27:0x00000000  x9:0x00000000
        3185000	       317	00000000	00000013	addi	x0,x0,0	  x0:0x00000000
        3195000	       318	80002a54	00000013	addi	x0,x0,0	  x0:0x00000000
        3205000	       319	80002a58	00df5e93	srli	x29,x30,0xd	 x30:0xb0000000 x29=0x00058000
        3215000	       320	80002a5c	3e4e0697	auipc	x13,0x3e4e0	 x13=0xbe4e2a58
        3225000	       321	80002a60	4174da33	sra	x20,x9,x23	  x9:0x00000000 x23:0x00000004 x20=0x00000000
        3235000	       322	80002a64	31400e93	addi	x29,x0,788	  x0:0x00000000 x29=0x00000314
        3245000	       323	80002a68	01e933b3	sltu	x7,x18,x30	 x18:0x80009f40 x30:0xb0000000  x7=0x00000001
        3255000	       324	80002a6c	01dee663	bltu	x29,x29,80002a78	 x29:0x00000314 x29:0x00000314
        3265000	       325	80002a70	04d1c663	blt	x3,x13,80002abc	  x3:0x00000000 x13:0xbe4e2a58
        3275000	       326	80002a74	04b36263	bltu	x6,x11,80002ab8	  x6:0xffffffdf x11:0x00000062
        3285000	       327	80002a78	010ec6b3	xor	x13,x29,x16	 x29:0x00000314 x16:0x800084b0 x13=0x800087a4
        3295000	       328	80002a7c	6de7c197	auipc	x3,0x6de7c	  x3=0xede7ea78
        3305000	       329	80002a80	0f0a77b7	lui	x15,0xf0a7	 x15=0x0f0a7000
        3315000	       330	80002a84	00f16d33	or	x26,x2,x15	  x2:0xffffff9d x15:0x0f0a7000 x26=0xffffff9d
        3325000	       331	80002a88	0160b833	sltu	x16,x1,x22	  x1:0x0007ffff x22:0x800084b0 x16=0x00000001
        3335000	       332	80002a8c	41565a33	sra	x20,x12,x21	 x12:0x00000060 x21:0xfffffff3 x20=0x00000000
        3345000	       333	80002a90	de869f17	auipc	x30,0xde869	 x30=0x5e86ba8c
        3355000	       334	80002a94	eb774793	xori	x15,x14,-329	 x14:0x80008b7b x15=0x7fff75cc
        3365000	       335	80002a98	01661c13	slli	x24,x12,0x16	 x12:0x00000060 x24=0x18000000
        3375000	       336	80002a9c	00bfdc33	srl	x24,x31,x11	 x31:0x00000001 x11:0x00000062 x24=0x00000000
        3385000	       337	80002aa0	00dc9d13	slli	x26,x25,0xd	 x25:0x00000084 x26=0x00108000
        3395000	       338	80002aa4	cebd4013	xori	x0,x26,-789	 x26:0x00108000
        3405000	       339	80002aa8	40b4dc93	srai	x25,x9,0xb	  x9:0x00000000 x25=0x00000000
        3415000	       340	80002aac	01557a63	bgeu	x10,x21,80002ac0	 x10:0x80009fc4 x21:0xfffffff3
        3425000	       341	80002ab0	461c8213	addi	x4,x25,1121	 x25:0x00000000  x4=0x00000461
        3435000	       342	80002ab4	0072da63	bge	x5,x7,80002ac8	  x5:0x00000000  x7:0x00000001
        3445000	       343	80002ab8	41da5113	srai	x2,x20,0x1d	 x20:0x00000000  x2=0x00000000
        3455000	       344	80002abc	0012c6b3	xor	x13,x5,x1	  x5:0x00000000  x1:0x0007ffff x13=0x0007ffff
        3465000	       345	80002ac0	029e4a63	blt	x28,x9,80002af4	 x28:0x00000000  x9:0x00000000
        3475000	       346	80002ac4	01f15133	srl	x2,x2,x31	  x2:0x00000000 x31:0x00000001  x2=0x00000000
        3485000	       347	80002ac8	00f03333	sltu	x6,x0,x15	  x0:0x00000000 x15:0x7fff75cc  x6=0x00000001
        3495000	       348	80002acc	01fd28b3	slt	x17,x26,x31	 x26:0x00108000 x31:0x00000001 x17=0x00000000
        3505000	       349	80002ad0	00b9bbb3	sltu	x23,x19,x11	 x19:0x00000000 x11:0x00000062 x23=0x00000001
        3515000	       350	80002ad4	04bad063	bge	x21,x11,80002b14	 x21:0xfffffff3 x11:0x00000062
        3525000	       351	80002ad8	c2ec7993	andi	x19,x24,-978	 x24:0x00000000 x19=0x00000000
        3535000	       352	80002adc	413b8fb3	sub	x31,x23,x19	 x23:0x00000001 x19:0x00000000 x31=0x00000001
        3545000	       353	80002ae0	05277b13	andi	x22,x14,82	 x14:0x80008b7b x22=0x00000052
        3555000	       354	80002ae4	02fe9463	bne	x29,x15,80002b0c	 x29:0x00000314 x15:0x7fff75cc
        3565000	       355	00000000	00000013	addi	x0,x0,0	  x0:0x00000000
        3575000	       356	80002b08	00000013	addi	x0,x0,0	  x0:0x00000000
        3585000	       357	80002b0c	031c1463	bne	x24,x17,80002b34	 x24:0x00000000 x17:0x00000000
        3595000	       358	80002b10	00f30663	beq	x6,x15,80002b1c	  x6:0x00000001 x15:0x7fff75cc
        3605000	       359	80002b14	a11f4413	xori	x8,x30,-1519	 x30:0x5e86ba8c  x8=0xa179409d
        3615000	       360	80002b18	02ae6e63	bltu	x28,x10,80002b54	 x28:0x00000000 x10:0x80009fc4
        3625000	       361	00000000	00000013	addi	x0,x0,0	  x0:0x00000000
        3635000	       362	80002b50	00000013	addi	x0,x0,0	  x0:0x00000000
        3645000	       363	80002b54	01239213	slli	x4,x7,0x12	  x7:0x00000001  x4=0x00040000
        3655000	       364	80002b58	01c0ab33	slt	x22,x1,x28	  x1:0x0007ffff x28:0x00000000 x22=0x00000000
        3665000	       365	80002b5c	0114feb3	and	x29,x9,x17	  x9:0x00000000 x17:0x00000000 x29=0x00000000
        3675000	       366	80002b60	408b5f33	sra	x30,x22,x8	 x22:0x00000000  x8:0xa179409d x30=0x00000000
        3685000	       367	80002b64	00da0263	beq	x20,x13,80002b68	 x20:0x00000000 x13:0x0007ffff
        3695000	       368	80002b68	04cac063	blt	x21,x12,80002ba8	 x21:0xfffffff3 x12:0x00000060
        3705000	       369	00000000	00000013	addi	x0,x0,0	  x0:0x00000000
        3715000	       370	80002ba4	00000013	addi	x0,x0,0	  x0:0x00000000
        3725000	       371	80002ba8	f2dd8a97	auipc	x21,0xf2dd8	 x21=0x72ddaba4
        3735000	       372	80002bac	45ea5217	auipc	x4,0x45ea5	  x4=0xc5ea7ba8
        3745000	       373	80002bb0	50a3c993	xori	x19,x7,1290	  x7:0x00000001 x19=0x0000050b
        3755000	       374	80002bb4	2f5f3697	auipc	x13,0x2f5f3	 x13=0xaf5f5bb0
        3765000	       375	80002bb8	0555c463	blt	x11,x21,80002c00	 x11:0x00000062 x21:0x72ddaba4
        3775000	       376	00000000	00000013	addi	x0,x0,0	  x0:0x00000000
        3785000	       377	80002bfc	00000013	addi	x0,x0,0	  x0:0x00000000
        3795000	       378	80002c00	401adb93	srai	x23,x21,0x1	 x21:0x72ddaba4 x23=0x396ed5d2
        3805000	       379	80002c04	01d22d33	slt	x26,x4,x29	  x4:0xc5ea7ba8 x29:0x00000000 x26=0x00000001
        3815000	       380	80002c08	644c64b7	lui	x9,0x644c6	  x9=0x644c6000
        3825000	       381	80002c0c	05f29263	bne	x5,x31,80002c50	  x5:0x00000000 x31:0x00000001
        3835000	       382	00000000	00000013	addi	x0,x0,0	  x0:0x00000000
        3845000	       383	80002c4c	00000013	addi	x0,x0,0	  x0:0x00000000
        3855000	       384	80002c50	0077eb33	or	x22,x15,x7	 x15:0x7fff75cc  x7:0x00000001 x22=0x7fff75cd
        3865000	       385	80002c54	02415e63	bge	x2,x4,80002c90	  x2:0x00000000  x4:0xc5ea7ba8
        3875000	       386	00000000	00000013	addi	x0,x0,0	  x0:0x00000000
        3885000	       387	80002c8c	00000013	addi	x0,x0,0	  x0:0x00000000
        3895000	       388	80002c90	00c39fb3	sll	x31,x7,x12	  x7:0x00000001 x12:0x00000060 x31=0x00000001
        3905000	       389	80002c94	40d0d313	srai	x6,x1,0xd	  x1:0x0007ffff  x6=0x0000003f
        3915000	       390	80002c98	d51d9d17	auipc	x26,0xd51d9	 x26=0x551dbc94
        3925000	       391	80002c9c	be7dbeb7	lui	x29,0xbe7db	 x29=0xbe7db000
        3935000	       392	80002ca0	2adec413	xori	x8,x29,685	 x29:0xbe7db000  x8=0xbe7db2ad
        3945000	       393	80002ca4	f620db37	lui	x22,0xf620d	 x22=0xf620d000
        3955000	       394	80002ca8	01320c33	add	x24,x4,x19	  x4:0xc5ea7ba8 x19:0x0000050b x24=0xc5ea80b3
        3965000	       395	80002cac	f75ba693	slti	x13,x23,-139	 x23:0x396ed5d2 x13=0x00000000
        3975000	       396	80002cb0	070a5c63	bge	x20,x16,80002d28	 x20:0x00000000 x16:0x00000001
        3985000	       397	80002cb4	00894fb3	xor	x31,x18,x8	 x18:0x80009f40  x8:0xbe7db2ad x31=0x3e7d2ded
        3995000	       398	80002cb8	41268d33	sub	x26,x13,x18	 x13:0x00000000 x18:0x80009f40 x26=0x7fff60c0
        4005000	       399	80002cbc	00004217	auipc	x4,0x4	  x4=0x80006cb8
        4015000	       400	80002cc0	87c20213	addi	x4,x4,-1924	  x4:0x80006cb8  x4=0x80006534
        4025000	       401	80002cc4	00808b33	add	x22,x1,x8	  x1:0x0007ffff  x8:0xbe7db2ad x22=0xbe85b2ac
        4035000	       402	80002cc8	c0280e13	addi	x28,x16,-1022	 x16:0x00000001 x28=0xfffffc03
        4045000	       403	80002ccc	0163b6b3	sltu	x13,x7,x22	  x7:0x00000001 x22:0xbe85b2ac x13=0x00000001
        4055000	       404	80002cd0	001518b3	sll	x17,x10,x1	 x10:0x80009fc4  x1:0x0007ffff x17=0x00000000
        4065000	       405	80002cd4	ca720213	addi	x4,x4,-857	  x4:0x80006534  x4=0x800061db
        4075000	       406	80002cd8	01d63f33	sltu	x30,x12,x29	 x12:0x00000060 x29:0xbe7db000 x30=0x00000001
        4085000	       407	80002cdc	00b4db93	srli	x23,x9,0xb	  x9:0x644c6000 x23=0x000c898c
        4095000	       408	80002ce0	00f95863	bge	x18,x15,80002cf0	 x18:0x80009f40 x15:0x7fff75cc
        4105000	       409	80002ce4	02a5e493	ori	x9,x11,42	 x11:0x00000062  x9=0x0000006a
        4115000	       410	80002ce8	00b28f33	add	x30,x5,x11	  x5:0x00000000 x11:0x00000062 x30=0x00000062
        4125000	       411	80002cec	44994a93	xori	x21,x18,1097	 x18:0x80009f40 x21=0x80009b09
        4135000	       412	80002cf0	35a20467	jalr	x8,x4,858	  x4:0x800061db  x8=0x80002cf0
        4145000	       413	00000000	00000013	addi	x0,x0,0	  x0:0x00000000
        4155000	       414	80006534	00000013	addi	x0,x0,0	  x0:0x00000000
        4165000	       415	80006538	fd090913	addi	x18,x18,-48	 x18:0x80009f40 x18=0x80009f10
        4175000	       416	8000653c	10b3ac37	lui	x24,0x10b3a	 x24=0x10b3a000
        4185000	       417	80006540	00892223	sw	x8,4(x18)	 x18:0x80009f10  x8:0x80002cf0 PA:0x80009f14
        4195000	       418	80006544	6b07c713	xori	x14,x15,1712	 x15:0x7fff75cc x14=0x7fff737c
        4205000	       419	80006548	008dc133	xor	x2,x27,x8	 x27:0x00000000  x8:0x80002cf0  x2=0x80002cf0
        4215000	       420	8000654c	00002117	auipc	x2,0x2	  x2=0x80008548
        4225000	       421	80006550	f1110113	addi	x2,x2,-239	  x2:0x80008548  x2=0x80008459
        4235000	       422	80006554	00e60233	add	x4,x12,x14	 x12:0x00000060 x14:0x7fff737c  x4=0x7fff73dc
        4245000	       423	80006558	014016b3	sll	x13,x0,x20	  x0:0x00000000 x20:0x00000000 x13=0x00000000
        4255000	       424	8000655c	00881393	slli	x7,x16,0x8	 x16:0x00000001  x7=0x00000100
        4265000	       425	80006560	01a113a3	sh	x26,7(x2)	  x2:0x80008459 x26:0x7fff60c0 PA:0x80008460
        4275000	       426	80006564	ff311ea3	sh	x19,-3(x2)	  x2:0x80008459 x19:0x0000050b PA:0x80008456
        4285000	       427	80006568	cc0f3e93	sltiu	x29,x30,-832	 x30:0x00000062 x29=0x00000001
        4295000	       428	8000656c	00510183	lb	x3,5(x2)	  x2:0x80008459  x3=0x00000015 PA:0x8000845e
        4305000	       429	80006570	4178d193	srai	x3,x17,0x17	 x17:0x00000000  x3=0x00000000
        4315000	       430	80006574	00b89613	slli	x12,x17,0xb	 x17:0x00000000 x12=0x00000000
        4325000	       431	80006578	008f5f13	srli	x30,x30,0x8	 x30:0x00000062 x30=0x00000000
        4335000	       432	8000657c	ffb15403	lhu	x8,-5(x2)	  x2:0x80008459  x8=0x00000e0f PA:0x80008454
        4345000	       433	80006580	417fd693	srai	x13,x31,0x17	 x31:0x3e7d2ded x13=0x0000007c
        4355000	       434	80006584	0135f0b3	and	x1,x11,x19	 x11:0x00000062 x19:0x0000050b  x1=0x00000002
        4365000	       435	80006588	ff212da3	sw	x18,-5(x2)	  x2:0x80008459 x18:0x80009f10 PA:0x80008454
        4375000	       436	8000658c	00610483	lb	x9,6(x2)	  x2:0x80008459  x9=0x00000014 PA:0x8000845f
        4385000	       437	80006590	00514283	lbu	x5,5(x2)	  x2:0x80008459  x5=0x00000015 PA:0x8000845e
        4395000	       438	80006594	00330cb3	add	x25,x6,x3	  x6:0x0000003f  x3:0x00000000 x25=0x0000003f
        4405000	       439	80006598	33af8813	addi	x16,x31,826	 x31:0x3e7d2ded x16=0x3e7d3127
        4415000	       440	8000659c	ff814203	lbu	x4,-8(x2)	  x2:0x80008459  x4=0x0000000a PA:0x80008451
        4425000	       441	800065a0	00ce66b3	or	x13,x28,x12	 x28:0xfffffc03 x12:0x00000000 x13=0xfffffc03
        4435000	       442	800065a4	008104a3	sb	x8,9(x2)	  x2:0x80008459  x8:0x00000e0f PA:0x80008462
        4445000	       443	800065a8	0196dd33	srl	x26,x13,x25	 x13:0xfffffc03 x25:0x0000003f x26=0x00000001
        4455000	       444	800065ac	0192a7b3	slt	x15,x5,x25	  x5:0x00000015 x25:0x0000003f x15=0x00000001
        4465000	       445	800065b0	00010423	sb	x0,8(x2)	  x2:0x80008459  x0:0x00000000 PA:0x80008461
        4475000	       446	800065b4	0166bab3	sltu	x21,x13,x22	 x13:0xfffffc03 x22:0xbe85b2ac x21=0x00000000
        4485000	       447	800065b8	014125a3	sw	x20,11(x2)	  x2:0x80008459 x20:0x00000000 PA:0x80008464
        4495000	       448	800065bc	ffc10823	sb	x28,-16(x2)	  x2:0x80008459 x28:0xfffffc03 PA:0x80008449
        4505000	       449	800065c0	ffa11ba3	sh	x26,-9(x2)	  x2:0x80008459 x26:0x00000001 PA:0x80008450
        4515000	       450	800065c4	01010003	lb	x0,16(x2)	  x2:0x80008459 PA:0x80008469
        4525000	       451	800065c8	cb90cb13	xori	x22,x1,-839	  x1:0x00000002 x22=0xfffffcbb
        4535000	       452	800065cc	fea10da3	sb	x10,-5(x2)	  x2:0x80008459 x10:0x80009fc4 PA:0x80008454
        4545000	       453	800065d0	b9d63793	sltiu	x15,x12,-1123	 x12:0x00000000 x15=0x00000001
        4555000	       454	800065d4	00b11583	lh	x11,11(x2)	  x2:0x80008459 x11=0x00000000 PA:0x80008464
        4565000	       455	800065d8	ff714303	lbu	x6,-9(x2)	  x2:0x80008459  x6=0x00000001 PA:0x80008450
        4575000	       456	800065dc	0158d2b3	srl	x5,x17,x21	 x17:0x00000000 x21:0x00000000  x5=0x00000000
        4585000	       457	800065e0	013d5813	srli	x16,x26,0x13	 x26:0x00000001 x16=0x00000000
        4595000	       458	800065e4	00514583	lbu	x11,5(x2)	  x2:0x80008459 x11=0x00000015 PA:0x8000845e
        4605000	       459	800065e8	ff312d03	lw	x26,-13(x2)	  x2:0x80008459 x26=0x04050607 PA:0x8000844c
        4615000	       460	800065ec	ff210603	lb	x12,-14(x2)	  x2:0x80008459 x12=0x00000000 PA:0x8000844b
        4625000	       461	800065f0	005fe463	bltu	x31,x5,800065f8	 x31:0x3e7d2ded  x5:0x00000000
        4635000	       462	800065f4	00bd0e63	beq	x26,x11,80006610	 x26:0x04050607 x11:0x00000015
        4645000	       463	800065f8	00160f33	add	x30,x12,x1	 x12:0x00000000  x1:0x00000002 x30=0x00000002
        4655000	       464	800065fc	0092c233	xor	x4,x5,x9	  x5:0x00000000  x9:0x00000014  x4=0x00000014
        4665000	       465	80006600	005aaeb3	slt	x29,x21,x5	 x21:0x00000000  x5:0x00000000 x29=0x00000000
        4675000	       466	80006604	29c36d17	auipc	x26,0x29c36	 x26=0xa9c3c600
        4685000	       467	80006608	4137dcb3	sra	x25,x15,x19	 x15:0x00000001 x19:0x0000050b x25=0x00000000
        4695000	       468	8000660c	6c534713	xori	x14,x6,1733	  x6:0x00000001 x14=0x000006c4
        4705000	       469	80006610	00539663	bne	x7,x5,8000661c	  x7:0x00000100  x5:0x00000000
        4715000	       470	00000000	00000013	addi	x0,x0,0	  x0:0x00000000
        4725000	       471	80006618	00000013	addi	x0,x0,0	  x0:0x00000000
        4735000	       472	8000661c	0508d863	bge	x17,x16,8000666c	 x17:0x00000000 x16:0x00000000
        4745000	       473	00000000	00000013	addi	x0,x0,0	  x0:0x00000000
        4755000	       474	80006668	00000013	addi	x0,x0,0	  x0:0x00000000
        4765000	       475	8000666c	00707463	bgeu	x0,x7,80006674	  x0:0x00000000  x7:0x00000100
        4775000	       476	80006670	ade08e97	auipc	x29,0xade08	 x29=0x2de0e66c
        4785000	       477	80006674	01b0b2b3	sltu	x5,x1,x27	  x1:0x00000002 x27:0x00000000  x5=0x00000000
        4795000	       478	80006678	0196b3b3	sltu	x7,x13,x25	 x13:0xfffffc03 x25:0x00000000  x7=0x00000000
        4805000	       479	8000667c	002878b3	and	x17,x16,x2	 x16:0x00000000  x2:0x80008459 x17=0x00000000
        4815000	       480	80006680	00c070b3	and	x1,x0,x12	  x0:0x00000000 x12:0x00000000  x1=0x00000000
        4825000	       481	80006684	0054e133	or	x2,x9,x5	  x9:0x00000014  x5:0x00000000  x2=0x00000014
        4835000	       482	80006688	005d1333	sll	x6,x26,x5	 x26:0xa9c3c600  x5:0x00000000  x6=0xa9c3c600
        4845000	       483	8000668c	41a05333	sra	x6,x0,x26	  x0:0x00000000 x26:0xa9c3c600  x6=0x00000000
        4855000	       484	80006690	40865833	sra	x16,x12,x8	 x12:0x00000000  x8:0x00000e0f x16=0x00000000
        4865000	       485	80006694	e8622893	slti	x17,x4,-378	  x4:0x00000014 x17=0x00000000
        4875000	       486	80006698	025f4863	blt	x30,x5,800066c8	 x30:0x00000002  x5:0x00000000
        4885000	       487	8000669c	014f5c33	srl	x24,x30,x20	 x30:0x00000002 x20:0x00000000 x24=0x00000002
        4895000	       488	800066a0	40ffd613	srai	x12,x31,0xf	 x31:0x3e7d2ded x12=0x00007cfa
        4905000	       489	800066a4	7995ea93	ori	x21,x11,1945	 x11:0x00000015 x21=0x0000079d
        4915000	       490	800066a8	1851f313	andi	x6,x3,389	  x3:0x00000000  x6=0x00000000
        4925000	       491	800066ac	02cb8863	beq	x23,x12,800066dc	 x23:0x000c898c x12:0x00007cfa
        4935000	       492	800066b0	40248b33	sub	x22,x9,x2	  x9:0x00000014  x2:0x00000014 x22=0x00000000
        4945000	       493	800066b4	0437d263	bge	x15,x3,800066f8	 x15:0x00000001  x3:0x00000000
        4955000	       494	00000000	00000013	addi	x0,x0,0	  x0:0x00000000
        4965000	       495	800066f4	00000013	addi	x0,x0,0	  x0:0x00000000
        4975000	       496	800066f8	008a18b3	sll	x17,x20,x8	 x20:0x00000000  x8:0x00000e0f x17=0x00000000
        4985000	       497	800066fc	00899313	slli	x6,x19,0x8	 x19:0x0000050b  x6=0x00050b00
        4995000	       498	80006700	01015c63	bge	x2,x16,80006718	  x2:0x00000014 x16:0x00000000
        5005000	       499	00000000	00000013	addi	x0,x0,0	  x0:0x00000000
        5015000	       500	80006714	00000013	addi	x0,x0,0	  x0:0x00000000
        5025000	       501	80006718	03f27263	bgeu	x4,x31,8000673c	  x4:0x00000014 x31:0x3e7d2ded
        5035000	       502	8000671c	40ed08b3	sub	x17,x26,x14	 x26:0xa9c3c600 x14:0x000006c4 x17=0xa9c3bf3c
        5045000	       503	80006720	00921213	slli	x4,x4,0x9	  x4:0x00000014  x4=0x00002800
        5055000	       504	80006724	3be32813	slti	x16,x6,958	  x6:0x00050b00 x16=0x00000000
        5065000	       505	80006728	016b3033	sltu	x0,x22,x22	 x22:0x00000000 x22:0x00000000
        5075000	       506	8000672c	2ebcff13	andi	x30,x25,747	 x25:0x00000000 x30=0x00000000
        5085000	       507	80006730	00ce99b3	sll	x19,x29,x12	 x29:0x2de0e66c x12:0x00007cfa x19=0xb0000000
        5095000	       508	80006734	013d5993	srli	x19,x26,0x13	 x26:0xa9c3c600 x19=0x00001538
        5105000	       509	80006738	04e26663	bltu	x4,x14,80006784	  x4:0x00002800 x14:0x000006c4
        5115000	       510	8000673c	8a468e13	addi	x28,x13,-1884	 x13:0xfffffc03 x28=0xfffff4a7
        5125000	       511	80006740	62d12d13	slti	x26,x2,1581	  x2:0x00000014 x26=0x00000001
        5135000	       512	80006744	584a2493	slti	x9,x20,1412	 x20:0x00000000  x9=0x00000001
        5145000	       513	80006748	81363a93	sltiu	x21,x12,-2029	 x12:0x00007cfa x21=0x00000001
        5155000	       514	8000674c	4028dd13	srai	x26,x17,0x2	 x17:0xa9c3bf3c x26=0xea70efcf
        5165000	       515	80006750	036858b7	lui	x17,0x3685	 x17=0x03685000
        5175000	       516	80006754	8010e813	ori	x16,x1,-2047	  x1:0x00000000 x16=0xfffff801
        5185000	       517	80006758	019add33	srl	x26,x21,x25	 x21:0x00000001 x25:0x00000000 x26=0x00000001
        5195000	       518	8000675c	4168dc13	srai	x24,x17,0x16	 x17:0x03685000 x24=0x0000000d
        5205000	       519	80006760	015dec63	bltu	x27,x21,80006778	 x27:0x00000000 x21:0x00000001
        5215000	       520	00000000	00000013	addi	x0,x0,0	  x0:0x00000000
        5225000	       521	80006774	00000013	addi	x0,x0,0	  x0:0x00000000
        5235000	       522	80006778	011d88b3	add	x17,x27,x17	 x27:0x00000000 x17:0x03685000 x17=0x03685000
        5245000	       523	8000677c	40db5013	srai	x0,x22,0xd	 x22:0x00000000
        5255000	       524	80006780	6aa84093	xori	x1,x16,1706	 x16:0xfffff801  x1=0xfffffeab
        5265000	       525	80006784	006570b3	and	x1,x10,x6	 x10:0x80009fc4  x6:0x00050b00  x1=0x00000b00
        5275000	       526	80006788	05c2c063	blt	x5,x28,800067c8	  x5:0x00000000 x28:0xfffff4a7
        5285000	       527	8000678c	73293213	sltiu	x4,x18,1842	 x18:0x80009f10  x4=0x00000000
        5295000	       528	80006790	01a53b33	sltu	x22,x10,x26	 x10:0x80009fc4 x26:0x00000001 x22=0x00000000
        5305000	       529	80006794	04656863	bltu	x10,x6,800067e4	 x10:0x80009fc4  x6:0x00050b00
        5315000	       530	80006798	17bc2f13	slti	x30,x24,379	 x24:0x0000000d x30=0x00000001
        5325000	       531	8000679c	0490c263	blt	x1,x9,800067e0	  x1:0x00000b00  x9:0x00000001
        5335000	       532	800067a0	5a56c893	xori	x17,x13,1445	 x13:0xfffffc03 x17=0xfffff9a6
        5345000	       533	800067a4	a0753493	sltiu	x9,x10,-1529	 x10:0x80009fc4  x9=0x00000001
        5355000	       534	800067a8	917a2693	slti	x13,x20,-1769	 x20:0x00000000 x13=0x00000000
        5365000	       535	800067ac	015e4463	blt	x28,x21,800067b4	 x28:0xfffff4a7 x21:0x00000001
        5375000	       536	00000000	00000013	addi	x0,x0,0	  x0:0x00000000
        5385000	       537	800067b0	00000013	addi	x0,x0,0	  x0:0x00000000
        5395000	       538	800067b4	02819663	bne	x3,x8,800067e0	  x3:0x00000000  x8:0x00000e0f
        5405000	       539	00000000	00000013	addi	x0,x0,0	  x0:0x00000000
        5415000	       540	800067dc	00000013	addi	x0,x0,0	  x0:0x00000000
        5425000	       541	800067e0	01bb01b3	add	x3,x22,x27	 x22:0x00000000 x27:0x00000000  x3=0x00000000
        5435000	       542	800067e4	41bdd313	srai	x6,x27,0x1b	 x27:0x00000000  x6=0x00000000
        5445000	       543	800067e8	01d4fe33	and	x28,x9,x29	  x9:0x00000001 x29:0x2de0e66c x28=0x00000000
        5455000	       544	800067ec	03071a63	bne	x14,x16,80006820	 x14:0x000006c4 x16:0xfffff801
        5465000	       545	00000000	00000013	addi	x0,x0,0	  x0:0x00000000
        5475000	       546	8000681c	00000013	addi	x0,x0,0	  x0:0x00000000
        5485000	       547	80006820	398bf413	andi	x8,x23,920	 x23:0x000c898c  x8=0x00000188
        5495000	       548	80006824	6a6b36b7	lui	x13,0x6a6b3	 x13=0x6a6b3000
        5505000	       549	80006828	8bd20613	addi	x12,x4,-1859	  x4:0x00000000 x12=0xfffff8bd
        5515000	       550	8000682c	0030fc63	bgeu	x1,x3,80006844	  x1:0x00000b00  x3:0x00000000
        5525000	       551	00000000	00000013	addi	x0,x0,0	  x0:0x00000000
        5535000	       552	80006840	00000013	addi	x0,x0,0	  x0:0x00000000
        5545000	       553	80006844	58e20597	auipc	x11,0x58e20	 x11=0xd8e26840
        5555000	       554	80006848	0caf5663	bge	x30,x10,80006914	 x30:0x00000001 x10:0x80009fc4
        5565000	       555	00000000	00000013	addi	x0,x0,0	  x0:0x00000000
        5575000	       556	80006910	00000013	addi	x0,x0,0	  x0:0x00000000
        5585000	       557	80006914	00ff1463	bne	x30,x15,8000691c	 x30:0x00000001 x15:0x00000001
        5595000	       558	80006918	05231663	bne	x6,x18,80006964	  x6:0x00000000 x18:0x80009f10
        5605000	       559	00000000	00000013	addi	x0,x0,0	  x0:0x00000000
        5615000	       560	80006960	00000013	addi	x0,x0,0	  x0:0x00000000
        5625000	       561	80006964	05296263	bltu	x18,x18,800069a8	 x18:0x80009f10 x18:0x80009f10
        5635000	       562	80006968	00a3d893	srli	x17,x7,0xa	  x7:0x00000000 x17=0x00000000
        5645000	       563	8000696c	000398b3	sll	x17,x7,x0	  x7:0x00000000  x0:0x00000000 x17=0x00000000
        5655000	       564	80006970	00bb5e13	srli	x28,x22,0xb	 x22:0x00000000 x28=0x00000000
        5665000	       565	80006974	0532c863	blt	x5,x19,800069c4	  x5:0x00000000 x19:0x00001538
        5675000	       566	00000000	00000013	addi	x0,x0,0	  x0:0x00000000
        5685000	       567	800069c0	00000013	addi	x0,x0,0	  x0:0x00000000
        5695000	       568	800069c4	001492b3	sll	x5,x9,x1	  x9:0x00000001  x1:0x00000b00  x5=0x00000001
        5705000	       569	800069c8	fbbc8093	addi	x1,x25,-69	 x25:0x00000000  x1=0xffffffbb
        5715000	       570	800069cc	00b012b3	sll	x5,x0,x11	  x0:0x00000000 x11:0xd8e26840  x5=0x00000000
        5725000	       571	800069d0	05c24263	blt	x4,x28,80006a14	  x4:0x00000000 x28:0x00000000
        5735000	       572	800069d4	00e98633	add	x12,x19,x14	 x19:0x00001538 x14:0x000006c4 x12=0x00001bfc
        5745000	       573	800069d8	03d29263	bne	x5,x29,800069fc	  x5:0x00000000 x29:0x2de0e66c
        5755000	       574	00000000	00000013	addi	x0,x0,0	  x0:0x00000000
        5765000	       575	800069f8	00000013	addi	x0,x0,0	  x0:0x00000000
        5775000	       576	800069fc	006f7c63	bgeu	x30,x6,80006a14	 x30:0x00000001  x6:0x00000000
        5785000	       577	00000000	00000013	addi	x0,x0,0	  x0:0x00000000
        5795000	       578	80006a10	00000013	addi	x0,x0,0	  x0:0x00000000
        5805000	       579	80006a14	013bdcb3	srl	x25,x23,x19	 x23:0x000c898c x19:0x00001538 x25=0x00000000
        5815000	       580	80006a18	00537a33	and	x20,x6,x5	  x6:0x00000000  x5:0x00000000 x20=0x00000000
        5825000	       581	80006a1c	199b4a13	xori	x20,x22,409	 x22:0x00000000 x20=0x00000199
        5835000	       582	80006a20	40cb88b3	sub	x17,x23,x12	 x23:0x000c898c x12:0x00001bfc x17=0x000c6d90
        5845000	       583	80006a24	010f73b3	and	x7,x30,x16	 x30:0x00000001 x16:0xfffff801  x7=0x00000001
        5855000	       584	80006a28	adb5c693	xori	x13,x11,-1317	 x11:0xd8e26840 x13=0x271d929b
        5865000	       585	80006a2c	003d1a63	bne	x26,x3,80006a40	 x26:0x00000001  x3:0x00000000
        5875000	       586	00000000	00000013	addi	x0,x0,0	  x0:0x00000000
        5885000	       587	80006a3c	00000013	addi	x0,x0,0	  x0:0x00000000
        5895000	       588	80006a40	41d1d093	srai	x1,x3,0x1d	  x3:0x00000000  x1=0x00000000
        5905000	       589	80006a44	043ae063	bltu	x21,x3,80006a84	 x21:0x00000001  x3:0x00000000
        5915000	       590	80006a48	02847e63	bgeu	x8,x8,80006a84	  x8:0x00000188  x8:0x00000188
        5925000	       591	00000000	00000013	addi	x0,x0,0	  x0:0x00000000
        5935000	       592	80006a80	00000013	addi	x0,x0,0	  x0:0x00000000
        5945000	       593	80006a84	4058d733	sra	x14,x17,x5	 x17:0x000c6d90  x5:0x00000000 x14=0x000c6d90
        5955000	       594	80006a88	006c6a33	or	x20,x24,x6	 x24:0x0000000d  x6:0x00000000 x20=0x0000000d
        5965000	       595	80006a8c	e026a813	slti	x16,x13,-510	 x13:0x271d929b x16=0x00000000
        5975000	       596	80006a90	00492403	lw	x8,4(x18)	 x18:0x80009f10  x8=0x80002cf0 PA:0x80009f14
        5985000	       597	80006a94	e0f5c593	xori	x11,x11,-497	 x11:0xd8e26840 x11=0x271d964f
        5995000	       598	80006a98	b3590c17	auipc	x24,0xb3590	 x24=0x33596a94
        6005000	       599	80006a9c	00ab4a33	xor	x20,x22,x10	 x22:0x00000000 x10:0x80009fc4 x20=0x80009fc4
        6015000	       600	80006aa0	03090913	addi	x18,x18,48	 x18:0x80009f10 x18=0x80009f40
        6025000	       601	80006aa4	00399f13	slli	x30,x19,0x3	 x19:0x00001538 x30=0x0000a9c0
        6035000	       602	80006aa8	86ec3613	sltiu	x12,x24,-1938	 x24:0x33596a94 x12=0x00000001
        6045000	       603	80006aac	01c57cb3	and	x25,x10,x28	 x10:0x80009fc4 x28:0x00000000 x25=0x00000000
        6055000	       604	80006ab0	00140e13	addi	x28,x8,1	  x8:0x80002cf0 x28=0x80002cf1
        6065000	       605	80006ab4	000e0e67	jalr	x28,x28,0	 x28:0x80002cf1 x28=0x80006ab4
        6075000	       606	00000000	00000013	addi	x0,x0,0	  x0:0x00000000
        6085000	       607	80002cf0	00000013	addi	x0,x0,0	  x0:0x00000000
        6095000	       608	80002cf4	00fdb5b3	sltu	x11,x27,x15	 x27:0x00000000 x15:0x00000001 x11=0x00000001
        6105000	       609	80002cf8	00000013	addi	x0,x0,0	  x0:0x00000000
        6115000	       610	80002cfc	405f82b3	sub	x5,x31,x5	 x31:0x3e7d2ded  x5:0x00000000  x5=0x3e7d2ded
        6125000	       611	80002d00	01b20c63	beq	x4,x27,80002d18	  x4:0x00000000 x27:0x00000000
        6135000	       612	00000000	00000013	addi	x0,x0,0	  x0:0x00000000
        6145000	       613	80002d14	00000013	addi	x0,x0,0	  x0:0x00000000
        6155000	       614	80002d18	3a770e13	addi	x28,x14,935	 x14:0x000c6d90 x28=0x000c7137
        6165000	       615	80002d1c	049d8063	beq	x27,x9,80002d5c	 x27:0x00000000  x9:0x00000001
        6175000	       616	80002d20	e75e5337	lui	x6,0xe75e5	  x6=0xe75e5000
        6185000	       617	80002d24	00c7ba33	sltu	x20,x15,x12	 x15:0x00000001 x12:0x00000001 x20=0x00000000
        6195000	       618	80002d28	00e68663	beq	x13,x14,80002d34	 x13:0x271d929b x14:0x000c6d90
        6205000	       619	80002d2c	03011463	bne	x2,x16,80002d54	  x2:0x00000014 x16:0x00000000
        6215000	       620	00000000	00000013	addi	x0,x0,0	  x0:0x00000000
        6225000	       621	80002d50	00000013	addi	x0,x0,0	  x0:0x00000000
        6235000	       622	80002d54	60eb4b97	auipc	x23,0x60eb4	 x23=0xe0eb6d50
        6245000	       623	80002d58	511b3613	sltiu	x12,x22,1297	 x22:0x00000000 x12=0x00000001
        6255000	       624	80002d5c	594bac97	auipc	x25,0x594ba	 x25=0xd94bcd58
        6265000	       625	80002d60	00c7ca63	blt	x15,x12,80002d74	 x15:0x00000001 x12:0x00000001
        6275000	       626	80002d64	00a2d663	bge	x5,x10,80002d70	  x5:0x3e7d2ded x10:0x80009fc4
        6285000	       627	00000000	00000013	addi	x0,x0,0	  x0:0x00000000
        6295000	       628	80002d6c	00000013	addi	x0,x0,0	  x0:0x00000000
        6305000	       629	80002d70	01cf9833	sll	x16,x31,x28	 x31:0x3e7d2ded x28:0x000c7137 x16=0xf6800000
        6315000	       630	80002d74	02991e63	bne	x18,x9,80002db0	 x18:0x80009f40  x9:0x00000001
        6325000	       631	00000000	00000013	addi	x0,x0,0	  x0:0x00000000
        6335000	       632	80002dac	00000013	addi	x0,x0,0	  x0:0x00000000
        6345000	       633	80002db0	00000013	addi	x0,x0,0	  x0:0x00000000
        6355000	       634	80002db4	01ff9613	slli	x12,x31,0x1f	 x31:0x3e7d2ded x12=0x80000000
        6365000	       635	80002db8	002c2ab3	slt	x21,x24,x2	 x24:0x33596a94  x2:0x00000014 x21=0x00000000
        6375000	       636	80002dbc	01b190b3	sll	x1,x3,x27	  x3:0x00000000 x27:0x00000000  x1=0x00000000
        6385000	       637	80002dc0	015d9293	slli	x5,x27,0x15	 x27:0x00000000  x5=0x00000000
        6395000	       638	80002dc4	0103d793	srli	x15,x7,0x10	  x7:0x00000001 x15=0x00000000
        6405000	       639	80002dc8	e211cb13	xori	x22,x3,-479	  x3:0x00000000 x22=0xfffffe21
        6415000	       640	80002dcc	a928eb13	ori	x22,x17,-1390	 x17:0x000c6d90 x22=0xffffff92
        6425000	       641	80002dd0	03231463	bne	x6,x18,80002df8	  x6:0xe75e5000 x18:0x80009f40
        6435000	       642	00000000	00000013	addi	x0,x0,0	  x0:0x00000000
        6445000	       643	80002df4	00000013	addi	x0,x0,0	  x0:0x00000000
        6455000	       644	80002df8	011b5c63	bge	x22,x17,80002e10	 x22:0xffffff92 x17:0x000c6d90
        6465000	       645	80002dfc	00cf0893	addi	x17,x30,12	 x30:0x0000a9c0 x17=0x0000a9cc
        6475000	       646	80002e00	101cbc13	sltiu	x24,x25,257	 x25:0xd94bcd58 x24=0x00000000
        6485000	       647	80002e04	cf54b193	sltiu	x3,x9,-779	  x9:0x00000001  x3=0x00000001
        6495000	       648	80002e08	e8f9ca13	xori	x20,x19,-369	 x19:0x00001538 x20=0xffffebb7
        6505000	       649	80002e0c	1d21ba93	sltiu	x21,x3,466	  x3:0x00000001 x21=0x00000001
        6515000	       650	80002e10	bdf02f13	slti	x30,x0,-1057	  x0:0x00000000 x30=0x00000000
        6525000	       651	80002e14	015bea63	bltu	x23,x21,80002e28	 x23:0xe0eb6d50 x21:0x00000001
        6535000	       652	80002e18	a64c3013	sltiu	x0,x24,-1436	 x24:0x00000000
        6545000	       653	80002e1c	00ece263	bltu	x25,x14,80002e20	 x25:0xd94bcd58 x14:0x000c6d90
        6555000	       654	80002e20	01eabb33	sltu	x22,x21,x30	 x21:0x00000001 x30:0x00000000 x22=0x00000000
        6565000	       655	80002e24	fd1bb013	sltiu	x0,x23,-47	 x23:0xe0eb6d50
        6575000	       656	80002e28	026de463	bltu	x27,x6,80002e50	 x27:0x00000000  x6:0xe75e5000
        6585000	       657	00000000	00000013	addi	x0,x0,0	  x0:0x00000000
        6595000	       658	80002e4c	00000013	addi	x0,x0,0	  x0:0x00000000
        6605000	       659	80002e50	2b673313	sltiu	x6,x14,694	 x14:0x000c6d90  x6=0x00000000
        6615000	       660	80002e54	e077f593	andi	x11,x15,-505	 x15:0x00000000 x11=0x00000000
        6625000	       661	80002e58	0095d663	bge	x11,x9,80002e64	 x11:0x00000000  x9:0x00000001
        6635000	       662	80002e5c	01dd5f93	srli	x31,x26,0x1d	 x26:0x00000001 x31=0x00000000
        6645000	       663	80002e60	028a7263	bgeu	x20,x8,80002e84	 x20:0xffffebb7  x8:0x80002cf0
        6655000	       664	00000000	00000013	addi	x0,x0,0	  x0:0x00000000
        6665000	       665	80002e80	00000013	addi	x0,x0,0	  x0:0x00000000
        6675000	       666	80002e84	00c16cb3	or	x25,x2,x12	  x2:0x00000014 x12:0x80000000 x25=0x80000014
        6685000	       667	80002e88	41b35693	srai	x13,x6,0x1b	  x6:0x00000000 x13=0x00000000
        6695000	       668	80002e8c	014be433	or	x8,x23,x20	 x23:0xe0eb6d50 x20:0xffffebb7  x8=0xffffeff7
        6705000	       669	80002e90	00000013	addi	x0,x0,0	  x0:0x00000000
        6715000	       670	80002e94	044d0263	beq	x26,x4,80002ed8	 x26:0x00000001  x4:0x00000000
        6725000	       671	80002e98	00bab133	sltu	x2,x21,x11	 x21:0x00000001 x11:0x00000000  x2=0x00000000
        6735000	       672	80002e9c	01a34bb3	xor	x23,x6,x26	  x6:0x00000000 x26:0x00000001 x23=0x00000001
        6745000	       673	80002ea0	01554433	xor	x8,x10,x21	 x10:0x80009fc4 x21:0x00000001  x8=0x80009fc5
        6755000	       674	80002ea4	407cd0b3	sra	x1,x25,x7	 x25:0x80000014  x7:0x00000001  x1=0xc000000a
        6765000	       675	80002ea8	00a62e33	slt	x28,x12,x10	 x12:0x80000000 x10:0x80009fc4 x28=0x00000001
        6775000	       676	80002eac	43a23413	sltiu	x8,x4,1082	  x4:0x00000000  x8=0x00000001
        6785000	       677	80002eb0	058a9063	bne	x21,x24,80002ef0	 x21:0x00000001 x24:0x00000000
        6795000	       678	00000000	00000013	addi	x0,x0,0	  x0:0x00000000
        6805000	       679	80002eec	00000013	addi	x0,x0,0	  x0:0x00000000
        6815000	       680	80002ef0	d248ee97	auipc	x29,0xd248e	 x29=0x52490eec
        6825000	       681	80002ef4	01646ab3	or	x21,x8,x22	  x8:0x00000001 x22:0x00000000 x21=0x00000001
        6835000	       682	80002ef8	005d9c33	sll	x24,x27,x5	 x27:0x00000000  x5:0x00000000 x24=0x00000000
        6845000	       683	80002efc	00f768b3	or	x17,x14,x15	 x14:0x000c6d90 x15:0x00000000 x17=0x000c6d90
        6855000	       684	80002f00	0023ee33	or	x28,x7,x2	  x7:0x00000001  x2:0x00000000 x28=0x00000001
        6865000	       685	80002f04	b55c7f93	andi	x31,x24,-1195	 x24:0x00000000 x31=0x00000000
        6875000	       686	80002f08	011fc433	xor	x8,x31,x17	 x31:0x00000000 x17:0x000c6d90  x8=0x000c6d90
        6885000	       687	80002f0c	2ce0b137	lui	x2,0x2ce0b	  x2=0x2ce0b000
        6895000	       688	80002f10	412a0733	sub	x14,x20,x18	 x20:0xffffebb7 x18:0x80009f40 x14=0x7fff4c77
        6905000	       689	80002f14	24dfa613	slti	x12,x31,589	 x31:0x00000000 x12=0x00000001
        6915000	       690	80002f18	4dbd8193	addi	x3,x27,1243	 x27:0x00000000  x3=0x000004db
        6925000	       691	80002f1c	41a25993	srai	x19,x4,0x1a	  x4:0x00000000 x19=0x00000000
        6935000	       692	80002f20	f00bca13	xori	x20,x23,-256	 x23:0x00000001 x20=0xffffff01
        6945000	       693	80002f24	00345893	srli	x17,x8,0x3	  x8:0x000c6d90 x17=0x00018db2
        6955000	       694	80002f28	00927833	and	x16,x4,x9	  x4:0x00000000  x9:0x00000001 x16=0x00000000
        6965000	       695	80002f2c	02c30463	beq	x6,x12,80002f54	  x6:0x00000000 x12:0x00000001
        6975000	       696	80002f30	015be263	bltu	x23,x21,80002f34	 x23:0x00000001 x21:0x00000001
        6985000	       697	80002f34	03257a63	bgeu	x10,x18,80002f68	 x10:0x80009fc4 x18:0x80009f40
        6995000	       698	00000000	00000013	addi	x0,x0,0	  x0:0x00000000
        7005000	       699	80002f64	00000013	addi	x0,x0,0	  x0:0x00000000
        7015000	       700	80002f68	663b3e13	sltiu	x28,x22,1635	 x22:0x00000000 x28=0x00000001
        7025000	       701	80002f6c	00262633	slt	x12,x12,x2	 x12:0x00000001  x2:0x2ce0b000 x12=0x00000001
        7035000	       702	80002f70	004b1b93	slli	x23,x22,0x4	 x22:0x00000000 x23=0x00000000
        7045000	       703	80002f74	10b4fa63	bgeu	x9,x11,80003088	  x9:0x00000001 x11:0x00000000
        7055000	       704	00000000	00000013	addi	x0,x0,0	  x0:0x00000000
        7065000	       705	80003084	00000013	addi	x0,x0,0	  x0:0x00000000
        7075000	       706	80003088	001b04b3	add	x9,x22,x1	 x22:0x00000000  x1:0xc000000a  x9=0xc000000a
        7085000	       707	8000308c	007f26b3	slt	x13,x30,x7	 x30:0x00000000  x7:0x00000001 x13=0x00000001
        7095000	       708	80003090	ed2078b7	lui	x17,0xed207	 x17=0xed207000
        7105000	       709	80003094	01063a33	sltu	x20,x12,x16	 x12:0x00000001 x16:0x00000000 x20=0x00000000
        7115000	       710	80003098	e185df17	auipc	x30,0xe185d	 x30=0x61860094
        7125000	       711	8000309c	413055b3	sra	x11,x0,x19	  x0:0x00000000 x19:0x00000000 x11=0x00000000
        7135000	       712	800030a0	0084fa63	bgeu	x9,x8,800030b4	  x9:0xc000000a  x8:0x000c6d90
        7145000	       713	00000000	00000013	addi	x0,x0,0	  x0:0x00000000
        7155000	       714	800030b0	00000013	addi	x0,x0,0	  x0:0x00000000
        7165000	       715	800030b4	55d66213	ori	x4,x12,1373	 x12:0x00000001  x4=0x0000055d
        7175000	       716	800030b8	e1fdb093	sltiu	x1,x27,-481	 x27:0x00000000  x1=0x00000001
        7185000	       717	800030bc	02f8da63	bge	x17,x15,800030f0	 x17:0xed207000 x15:0x00000000
        7195000	       718	800030c0	01b5d993	srli	x19,x11,0x1b	 x11:0x00000000 x19=0x00000000
        7205000	       719	800030c4	05d5f663	bgeu	x11,x29,80003110	 x11:0x00000000 x29:0x52490eec
        7215000	       720	800030c8	e6638013	addi	x0,x7,-410	  x7:0x00000001
        7225000	       721	800030cc	418bde13	srai	x28,x23,0x18	 x23:0x00000000 x28=0x00000000
        7235000	       722	800030d0	013fd1b3	srl	x3,x31,x19	 x31:0x00000000 x19:0x00000000  x3=0x00000000
        7245000	       723	800030d4	b7fc4f93	xori	x31,x24,-1153	 x24:0x00000000 x31=0xfffffb7f
        7255000	       724	800030d8	0468f063	bgeu	x17,x6,80003118	 x17:0xed207000  x6:0x00000000
        7265000	       725	00000000	00000013	addi	x0,x0,0	  x0:0x00000000
        7275000	       726	80003114	00000013	addi	x0,x0,0	  x0:0x00000000
        7285000	       727	80003118	4075de33	sra	x28,x11,x7	 x11:0x00000000  x7:0x00000001 x28=0x00000000
        7295000	       728	8000311c	01c71393	slli	x7,x14,0x1c	 x14:0x7fff4c77  x7=0x70000000
        7305000	       729	80003120	01c9d013	srli	x0,x19,0x1c	 x19:0x00000000
        7315000	       730	80003124	01225cb3	srl	x25,x4,x18	  x4:0x0000055d x18:0x80009f40 x25=0x0000055d
        7325000	       731	80003128	044d8663	beq	x27,x4,80003174	 x27:0x00000000  x4:0x0000055d
        7335000	       732	8000312c	924d7593	andi	x11,x26,-1756	 x26:0x00000001 x11=0x00000000
        7345000	       733	80003130	01e4d0b3	srl	x1,x9,x30	  x9:0xc000000a x30:0x61860094  x1=0x00000c00
        7355000	       734	80003134	007943b3	xor	x7,x18,x7	 x18:0x80009f40  x7:0x70000000  x7=0xf0009f40
        7365000	       735	80003138	75ce2b13	slti	x22,x28,1884	 x28:0x00000000 x22=0x00000001
        7375000	       736	8000313c	00247663	bgeu	x8,x2,80003148	  x8:0x000c6d90  x2:0x2ce0b000
        7385000	       737	80003140	ad767717	auipc	x14,0xad767	 x14=0x2d76a13c
        7395000	       738	80003144	075d9263	bne	x27,x21,800031a8	 x27:0x00000000 x21:0x00000001
        7405000	       739	00000000	00000013	addi	x0,x0,0	  x0:0x00000000
        7415000	       740	800031a4	00000013	addi	x0,x0,0	  x0:0x00000000
        7425000	       741	800031a8	402880b3	sub	x1,x17,x2	 x17:0xed207000  x2:0x2ce0b000  x1=0xc03fc000
        7435000	       742	800031ac	f23db013	sltiu	x0,x27,-221	 x27:0x00000000
        7445000	       743	800031b0	409f0d33	sub	x26,x30,x9	 x30:0x61860094  x9:0xc000000a x26=0xa186008a
        7455000	       744	800031b4	0052a7b3	slt	x15,x5,x5	  x5:0x00000000  x5:0x00000000 x15=0x00000000
        7465000	       745	800031b8	002fe263	bltu	x31,x2,800031bc	 x31:0xfffffb7f  x2:0x2ce0b000
        7475000	       746	800031bc	00520263	beq	x4,x5,800031c0	  x4:0x0000055d  x5:0x00000000
        7485000	       747	800031c0	12a3f293	andi	x5,x7,298	  x7:0xf0009f40  x5=0x00000100
        7495000	       748	800031c4	92ab2093	slti	x1,x22,-1750	 x22:0x00000001  x1=0x00000000
        7505000	       749	800031c8	019bd263	bge	x23,x25,800031cc	 x23:0x00000000 x25:0x0000055d
        7515000	       750	800031cc	86f4be17	auipc	x28,0x86f4b	 x28=0x06f4e1c8
        7525000	       751	800031d0	00492403	lw	x8,4(x18)	 x18:0x80009f40  x8=0x80003600 PA:0x80009f44
        7535000	       752	800031d4	00799ab3	sll	x21,x19,x7	 x19:0x00000000  x7:0xf0009f40 x21=0x00000000
        7545000	       753	800031d8	00890913	addi	x18,x18,8	 x18:0x80009f40 x18=0x80009f48
        7555000	       754	800031dc	fa178613	addi	x12,x15,-95	 x15:0x00000000 x12=0xffffffa1
        7565000	       755	800031e0	019e87b3	add	x15,x29,x25	 x29:0x52490eec x25:0x0000055d x15=0x52491449
        7575000	       756	800031e4	0150dc13	srli	x24,x1,0x15	  x1:0x00000000 x24=0x00000000
        7585000	       757	800031e8	00c5f8b3	and	x17,x11,x12	 x11:0x00000000 x12:0xffffffa1 x17=0x00000000
        7595000	       758	800031ec	00140313	addi	x6,x8,1	  x8:0x80003600  x6=0x80003601
        7605000	       759	800031f0	00030367	jalr	x6,x6,0	  x6:0x80003601  x6=0x800031f0
        7615000	       760	00000000	00000013	addi	x0,x0,0	  x0:0x00000000
        7625000	       761	80003600	00000013	addi	x0,x0,0	  x0:0x00000000
        7635000	       762	80003604	0161c263	blt	x3,x22,80003608	  x3:0x00000000 x22:0x00000001
        7645000	       763	00000000	00000013	addi	x0,x0,0	  x0:0x00000000
        7655000	       764	80003604	00000013	addi	x0,x0,0	  x0:0x00000000
        7665000	       765	80003608	40f05993	srai	x19,x0,0xf	  x0:0x00000000 x19=0x00000000
        7675000	       766	8000360c	944c3413	sltiu	x8,x24,-1724	 x24:0x00000000  x8=0x00000001
        7685000	       767	80003610	02a14063	blt	x2,x10,80003630	  x2:0x2ce0b000 x10:0x80009fc4
        7695000	       768	80003614	09197463	bgeu	x18,x17,8000369c	 x18:0x80009f48 x17:0x00000000
        7705000	       769	00000000	00000013	addi	x0,x0,0	  x0:0x00000000
        7715000	       770	80003698	00000013	addi	x0,x0,0	  x0:0x00000000
        7725000	       771	8000369c	40b788b3	sub	x17,x15,x11	 x15:0x52491449 x11:0x00000000 x17=0x52491449
        7735000	       772	800036a0	015d6fb3	or	x31,x26,x21	 x26:0xa186008a x21:0x00000000 x31=0xa186008a
        7745000	       773	800036a4	01cf0463	beq	x30,x28,800036ac	 x30:0x61860094 x28:0x06f4e1c8
        7755000	       774	800036a8	0112e8b3	or	x17,x5,x17	  x5:0x00000100 x17:0x52491449 x17=0x52491549
        7765000	       775	800036ac	41455cb3	sra	x25,x10,x20	 x10:0x80009fc4 x20:0x00000000 x25=0x80009fc4
        7775000	       776	800036b0	01ecdd13	srli	x26,x25,0x1e	 x25:0x80009fc4 x26=0x00000002
        7785000	       777	800036b4	03e28063	beq	x5,x30,800036d4	  x5:0x00000100 x30:0x61860094
        7795000	       778	800036b8	01980ab3	add	x21,x16,x25	 x16:0x00000000 x25:0x80009fc4 x21=0x80009fc4
        7805000	       779	800036bc	00000013	addi	x0,x0,0	  x0:0x00000000
        7815000	       780	800036c0	01594c33	xor	x24,x18,x21	 x18:0x80009f48 x21:0x80009fc4 x24=0x0000008c
        7825000	       781	800036c4	01461c63	bne	x12,x20,800036dc	 x12:0xffffffa1 x20:0x00000000
        7835000	       782	00000000	00000013	addi	x0,x0,0	  x0:0x00000000
        7845000	       783	800036d8	00000013	addi	x0,x0,0	  x0:0x00000000
        7855000	       784	800036dc	0012e833	or	x16,x5,x1	  x5:0x00000100  x1:0x00000000 x16=0x00000100
        7865000	       785	800036e0	00c5d9b3	srl	x19,x11,x12	 x11:0x00000000 x12:0xffffffa1 x19=0x00000000
        7875000	       786	800036e4	00492403	lw	x8,4(x18)	 x18:0x80009f48  x8=0x80000148 PA:0x80009f4c
        7885000	       787	800036e8	03c90913	addi	x18,x18,60	 x18:0x80009f48 x18=0x80009f84
        7895000	       788	800036ec	00301333	sll	x6,x0,x3	  x0:0x00000000  x3:0x00000000  x6=0x00000000
        7905000	       789	800036f0	00000013	addi	x0,x0,0	  x0:0x00000000
        7915000	       790	800036f4	007c0633	add	x12,x24,x7	 x24:0x0000008c  x7:0xf0009f40 x12=0xf0009fcc
        7925000	       791	800036f8	00140793	addi	x15,x8,1	  x8:0x80000148 x15=0x80000149
        7935000	       792	800036fc	000787e7	jalr	x15,x15,0	 x15:0x80000149 x15=0x800036fc
        7945000	       793	00000000	00000013	addi	x0,x0,0	  x0:0x00000000
        7955000	       794	80000148	00000013	addi	x0,x0,0	  x0:0x00000000
        7965000	       795	8000014c	00008117	auipc	x2,0x8	  x2=0x80008148
        7975000	       796	80000150	2f410113	addi	x2,x2,756	  x2:0x80008148  x2=0x8000843c
        7985000	       797	80000154	ffd10c03	lb	x24,-3(x2)	  x2:0x8000843c x24=0xfffffff2 PA:0x80008439
        7995000	       798	80000158	417e88b3	sub	x17,x29,x23	 x29:0x52490eec x23:0x00000000 x17=0x52490eec
        8005000	       799	8000015c	5aa37313	andi	x6,x6,1450	  x6:0x00000000  x6=0x00000000
        8015000	       800	80000160	569af337	lui	x6,0x569af	  x6=0x569af000
        8025000	       801	80000164	0093a0b3	slt	x1,x7,x9	  x7:0xf0009f40  x9:0xc000000a  x1=0x00000000
        8035000	       802	80000168	1e723193	sltiu	x3,x4,487	  x4:0x0000055d  x3=0x00000000
        8045000	       803	8000016c	f9e7f413	andi	x8,x15,-98	 x15:0x800036fc  x8=0x8000369c
        8055000	       804	80000170	00411583	lh	x11,4(x2)	  x2:0x8000843c x11=0xfffffafb PA:0x80008440
        8065000	       805	80000174	02c101a3	sb	x12,35(x2)	  x2:0x8000843c x12:0xf0009fcc PA:0x8000845f
        8075000	       806	80000178	00da3c33	sltu	x24,x20,x13	 x20:0x00000000 x13:0x00000001 x24=0x00000001
        8085000	       807	8000017c	60eb6737	lui	x14,0x60eb6	 x14=0x60eb6000
        8095000	       808	80000180	03215c03	lhu	x24,50(x2)	  x2:0x8000843c x24=0x00002425 PA:0x8000846e
        8105000	       809	80000184	00000013	addi	x0,x0,0	  x0:0x00000000
        8115000	       810	80000188	fce10ba3	sb	x14,-41(x2)	  x2:0x8000843c x14:0x60eb6000 PA:0x80008413
        8125000	       811	8000018c	01e91e33	sll	x28,x18,x30	 x18:0x80009f84 x30:0x61860094 x28=0xf8400000
        8135000	       812	80000190	0176db13	srli	x22,x13,0x17	 x13:0x00000001 x22=0x00000000
        8145000	       813	80000194	ff310da3	sb	x19,-5(x2)	  x2:0x8000843c x19:0x00000000 PA:0x80008437
        8155000	       814	80000198	fc714383	lbu	x7,-57(x2)	  x2:0x8000843c  x7=0x000000b8 PA:0x80008403
        8165000	       815	8000019c	0139ca33	xor	x20,x19,x19	 x19:0x00000000 x19:0x00000000 x20=0x00000000
        8175000	       816	800001a0	01897a33	and	x20,x18,x24	 x18:0x80009f84 x24:0x00002425 x20=0x00000404
        8185000	       817	800001a4	fd0101a3	sb	x16,-61(x2)	  x2:0x8000843c x16:0x00000100 PA:0x800083ff
        8195000	       818	800001a8	00fe2233	slt	x4,x28,x15	 x28:0xf8400000 x15:0x800036fc  x4=0x00000000
        8205000	       819	800001ac	0ddd6f13	ori	x30,x26,221	 x26:0x00000002 x30=0x000000df
        8215000	       820	800001b0	01e14d03	lbu	x26,30(x2)	  x2:0x8000843c x26=0x00000011 PA:0x8000845a
        8225000	       821	800001b4	fe610fa3	sb	x6,-1(x2)	  x2:0x8000843c  x6:0x569af000 PA:0x8000843b
        8235000	       822	800001b8	001ee333	or	x6,x29,x1	 x29:0x52490eec  x1:0x00000000  x6=0x52490eec
        8245000	       823	800001bc	00b28fb3	add	x31,x5,x11	  x5:0x00000100 x11:0xfffffafb x31=0xfffffbfb
        8255000	       824	800001c0	00211403	lh	x8,2(x2)	  x2:0x8000843c  x8=0xfffff4f5 PA:0x8000843e
        8265000	       825	800001c4	55767693	andi	x13,x12,1367	 x12:0xf0009fcc x13=0x00000544
        8275000	       826	800001c8	fd610a03	lb	x20,-42(x2)	  x2:0x8000843c x20=0xffffffc9 PA:0x80008412
        8285000	       827	800001cc	02610483	lb	x9,38(x2)	  x2:0x8000843c  x9=0x0000000f PA:0x80008462
        8295000	       828	800001d0	fe114703	lbu	x14,-31(x2)	  x2:0x8000843c x14=0x000000d6 PA:0x8000841d
        8305000	       829	800001d4	fdf10a03	lb	x20,-33(x2)	  x2:0x8000843c x20=0xffffffd0 PA:0x8000841b
        8315000	       830	800001d8	d43bbb13	sltiu	x22,x23,-701	 x23:0x00000000 x22=0x00000001
        8325000	       831	800001dc	04568263	beq	x13,x5,80000220	 x13:0x00000544  x5:0x00000100
        8335000	       832	800001e0	01f22033	slt	x0,x4,x31	  x4:0x00000000 x31:0xfffffbfb
        8345000	       833	800001e4	0030c2b3	xor	x5,x1,x3	  x1:0x00000000  x3:0x00000000  x5=0x00000000
        8355000	       834	800001e8	01c13f33	sltu	x30,x2,x28	  x2:0x8000843c x28:0xf8400000 x30=0x00000001
        8365000	       835	800001ec	768d7293	andi	x5,x26,1896	 x26:0x00000011  x5=0x00000000
        8375000	       836	800001f0	00003e97	auipc	x29,0x3	 x29=0x800031ec
        8385000	       837	800001f4	3c8e8e93	addi	x29,x29,968	 x29:0x800031ec x29=0x800035b4
        8395000	       838	800001f8	01e8bd33	sltu	x26,x17,x30	 x17:0x52490eec x30:0x00000001 x26=0x00000000
        8405000	       839	800001fc	e47e8e93	addi	x29,x29,-441	 x29:0x800035b4 x29=0x800033fb
        8415000	       840	80000200	36108217	auipc	x4,0x36108	  x4=0xb61081fc
        8425000	       841	80000204	1bae8467	jalr	x8,x29,442	 x29:0x800033fb  x8=0x80000204
        8435000	       842	00000000	00000013	addi	x0,x0,0	  x0:0x00000000
        8445000	       843	800035b4	00000013	addi	x0,x0,0	  x0:0x00000000
        8455000	       844	800035b8	01eac463	blt	x21,x30,800035c0	 x21:0x80009fc4 x30:0x00000001
        8465000	       845	00000000	00000013	addi	x0,x0,0	  x0:0x00000000
        8475000	       846	800035bc	00000013	addi	x0,x0,0	  x0:0x00000000
        8485000	       847	800035c0	fc490913	addi	x18,x18,-60	 x18:0x80009f84 x18=0x80009f48
        8495000	       848	800035c4	010f4233	xor	x4,x30,x16	 x30:0x00000001 x16:0x00000100  x4=0x00000101
        8505000	       849	800035c8	00892223	sw	x8,4(x18)	 x18:0x80009f48  x8:0x80000204 PA:0x80009f4c
        8515000	       850	800035cc	4f50a393	slti	x7,x1,1269	  x1:0x00000000  x7=0x00000001
        8525000	       851	800035d0	00c1aab3	slt	x21,x3,x12	  x3:0x00000000 x12:0xf0009fcc x21=0x00000000
        8535000	       852	800035d4	fffff617	auipc	x12,0xfffff	 x12=0x800025d0
        8545000	       853	800035d8	08c60613	addi	x12,x12,140	 x12:0x800025d0 x12=0x8000265c
        8555000	       854	800035dc	01fac8b3	xor	x17,x21,x31	 x21:0x00000000 x31:0xfffffbfb x17=0xfffffbfb
        8565000	       855	800035e0	00101133	sll	x2,x0,x1	  x0:0x00000000  x1:0x00000000  x2=0x00000000
        8575000	       856	800035e4	c172ad13	slti	x26,x5,-1001	  x5:0x00000000 x26=0x00000000
        8585000	       857	800035e8	1e460613	addi	x12,x12,484	 x12:0x8000265c x12=0x80002840
        8595000	       858	800035ec	fd666197	auipc	x3,0xfd666	  x3=0x7d6695e8
        8605000	       859	800035f0	473e2f93	slti	x31,x28,1139	 x28:0xf8400000 x31=0x00000001
        8615000	       860	800035f4	01c8c2b3	xor	x5,x17,x28	 x17:0xfffffbfb x28:0xf8400000  x5=0x07bffbfb
        8625000	       861	800035f8	00697463	bgeu	x18,x6,80003600	 x18:0x80009f48  x6:0x52490eec
        8635000	       862	00000000	00000013	addi	x0,x0,0	  x0:0x00000000
        8645000	       863	800035fc	00000013	addi	x0,x0,0	  x0:0x00000000
        8655000	       864	80003600	e1d60467	jalr	x8,x12,-483	 x12:0x80002840  x8=0x80003600
        8665000	       865	00000000	00000013	addi	x0,x0,0	  x0:0x00000000
        8675000	       866	8000265c	00000013	addi	x0,x0,0	  x0:0x00000000
        8685000	       867	80002660	df6df137	lui	x2,0xdf6df	  x2=0xdf6df000
        8695000	       868	80002664	17174113	xori	x2,x14,369	 x14:0x000000d6  x2=0x000001a7
        8705000	       869	80002668	ff890913	addi	x18,x18,-8	 x18:0x80009f48 x18=0x80009f40
        8715000	       870	8000266c	01a65893	srli	x17,x12,0x1a	 x12:0x80002840 x17=0x00000020
        8725000	       871	80002670	01fc57b3	srl	x15,x24,x31	 x24:0x00002425 x31:0x00000001 x15=0x00001212
        8735000	       872	80002674	00892223	sw	x8,4(x18)	 x18:0x80009f40  x8:0x80003600 PA:0x80009f44
        8745000	       873	80002678	00a012b3	sll	x5,x0,x10	  x0:0x00000000 x10:0x80009fc4  x5=0x00000000
        8755000	       874	8000267c	00006817	auipc	x16,0x6	 x16=0x80008678
        8765000	       875	80002680	e3880813	addi	x16,x16,-456	 x16:0x80008678 x16=0x800084b0
        8775000	       876	80002684	e2ae88b7	lui	x17,0xe2ae8	 x17=0xe2ae8000
        8785000	       877	80002688	01190633	add	x12,x18,x17	 x18:0x80009f40 x17:0xe2ae8000 x12=0x62af1f40
        8795000	       878	8000268c	fc580723	sb	x5,-50(x16)	 x16:0x800084b0  x5:0x00000000 PA:0x8000847e
        8805000	       879	80002690	001e25b3	slt	x11,x28,x1	 x28:0xf8400000  x1:0x00000000 x11=0x00000001
        8815000	       880	80002694	00384103	lbu	x2,3(x16)	 x16:0x800084b0  x2=0x00000068 PA:0x800084b3
        8825000	       881	00000000	00000013	addi	x0,x0,0	  x0:0x00000000
        8835000	       882	80002698	fc280ca3	sb	x2,-39(x16)	 x16:0x800084b0  x2:0x00000068 PA:0x80008489
        8845000	       883	8000269c	03d809a3	sb	x29,51(x16)	 x16:0x800084b0 x29:0x800033fb PA:0x800084e3
        8855000	       884	800026a0	02980e83	lb	x29,41(x16)	 x16:0x800084b0 x29=0xffffff92 PA:0x800084d9
        8865000	       885	800026a4	00cb1713	slli	x14,x22,0xc	 x22:0x00000001 x14=0x00001000
        8875000	       886	800026a8	4af70693	addi	x13,x14,1199	 x14:0x00001000 x13=0x000014af
        8885000	       887	800026ac	fcd80d03	lb	x26,-51(x16)	 x16:0x800084b0 x26=0x00000036 PA:0x8000847d
        8895000	       888	800026b0	12447e97	auipc	x29,0x12447	 x29=0x924496ac
        8905000	       889	800026b4	fe981623	sh	x9,-20(x16)	 x16:0x800084b0  x9:0x0000000f PA:0x8000849c
        8915000	       890	800026b8	01713ab3	sltu	x21,x2,x23	  x2:0x00000068 x23:0x00000000 x21=0x00000000
        8925000	       891	800026bc	0003ffb3	and	x31,x7,x0	  x7:0x00000001  x0:0x00000000 x31=0x00000000
        8935000	       892	800026c0	03081783	lh	x15,48(x16)	 x16:0x800084b0 x15=0xffff9a9b PA:0x800084e0
        8945000	       893	800026c4	fc984b03	lbu	x22,-55(x16)	 x16:0x800084b0 x22=0x00000032 PA:0x80008479
        8955000	       894	800026c8	008c0033	add	x0,x24,x8	 x24:0x00002425  x8:0x80003600
        8965000	       895	800026cc	012cd233	srl	x4,x25,x18	 x25:0x80009fc4 x18:0x80009f40  x4=0x80009fc4
        8975000	       896	800026d0	40a7dd33	sra	x26,x15,x10	 x15:0xffff9a9b x10:0x80009fc4 x26=0xfffff9a9
        8985000	       897	800026d4	0c59e8b7	lui	x17,0xc59e	 x17=0x0c59e000
        8995000	       898	800026d8	405b5033	sra	x0,x22,x5	 x22:0x00000032  x5:0x00000000
        9005000	       899	800026dc	fc881103	lh	x2,-56(x16)	 x16:0x800084b0  x2=0x00003233 PA:0x80008478
        9015000	       900	800026e0	fc384583	lbu	x11,-61(x16)	 x16:0x800084b0 x11=0x00000028 PA:0x80008473
        9025000	       901	800026e4	01095613	srli	x12,x18,0x10	 x18:0x80009f40 x12=0x00008000
        9035000	       902	800026e8	416253b3	sra	x7,x4,x22	  x4:0x80009fc4 x22:0x00000032  x7=0xffffe000
        9045000	       903	800026ec	00000013	addi	x0,x0,0	  x0:0x00000000
        9055000	       904	800026f0	40f3d713	srai	x14,x7,0xf	  x7:0xffffe000 x14=0xffffffff
        9065000	       905	800026f4	41840633	sub	x12,x8,x24	  x8:0x80003600 x24:0x00002425 x12=0x800011db
        9075000	       906	800026f8	fec84383	lbu	x7,-20(x16)	 x16:0x800084b0  x7=0x0000000f PA:0x8000849c
        9085000	       907	00000000	00000013	addi	x0,x0,0	  x0:0x00000000
        9095000	       908	800026fc	0083d1b3	srl	x3,x7,x8	  x7:0x0000000f  x8:0x80003600  x3=0x0000000f
        9105000	       909	80002700	40605c13	srai	x24,x0,0x6	  x0:0x00000000 x24=0x00000000
        9115000	       910	80002704	ff280183	lb	x3,-14(x16)	 x16:0x800084b0  x3=0x00000059 PA:0x800084a2
        9125000	       911	80002708	00c81a23	sh	x12,20(x16)	 x16:0x800084b0 x12:0x800011db PA:0x800084c4
        9135000	       912	8000270c	01884b83	lbu	x23,24(x16)	 x16:0x800084b0 x23=0x00000083 PA:0x800084c8
        9145000	       913	80002710	00a23eb3	sltu	x29,x4,x10	  x4:0x80009fc4 x10:0x80009fc4 x29=0x00000000
        9155000	       914	80002714	01584f03	lbu	x30,21(x16)	 x16:0x800084b0 x30=0x00000011 PA:0x800084c5
        9165000	       915	80002718	00d855b3	srl	x11,x16,x13	 x16:0x800084b0 x13:0x000014af x11=0x00010001
        9175000	       916	8000271c	00000013	addi	x0,x0,0	  x0:0x00000000
        9185000	       917	80002720	fda81023	sh	x26,-64(x16)	 x16:0x800084b0 x26:0xfffff9a9 PA:0x80008470
        9195000	       918	80002724	004d97b3	sll	x15,x27,x4	 x27:0x00000000  x4:0x80009fc4 x15=0x00000000
        9205000	       919	80002728	0091fa33	and	x20,x3,x9	  x3:0x00000059  x9:0x0000000f x20=0x00000009
        9215000	       920	8000272c	01880083	lb	x1,24(x16)	 x16:0x800084b0  x1=0xffffff83 PA:0x800084c8
        9225000	       921	80002730	03b84483	lbu	x9,59(x16)	 x16:0x800084b0  x9=0x000000a0 PA:0x800084eb
        9235000	       922	80002734	8e252f17	auipc	x30,0x8e252	 x30=0x0e254730
        9245000	       923	80002738	fcb80403	lb	x8,-53(x16)	 x16:0x800084b0  x8=0x00000030 PA:0x8000847b
        9255000	       924	8000273c	06b1bd37	lui	x26,0x6b1b	 x26=0x06b1b000
        9265000	       925	80002740	02380c03	lb	x24,35(x16)	 x16:0x800084b0 x24=0xffffff88 PA:0x800084d3
        9275000	       926	80002744	00006e97	auipc	x29,0x6	 x29=0x80008740
        9285000	       927	80002748	ff3e8e93	addi	x29,x29,-13	 x29:0x80008740 x29=0x80008733
        9295000	       928	8000274c	1235f713	andi	x14,x11,291	 x11:0x00010001 x14=0x00000001
        9305000	       929	80002750	001c1713	slli	x14,x24,0x1	 x24:0xffffff88 x14=0xffffff10
        9315000	       930	80002754	0183db13	srli	x22,x7,0x18	  x7:0x0000000f x22=0x00000000
        9325000	       931	80002758	078ec283	lbu	x5,120(x29)	 x29:0x80008733  x5=0x00000060 PA:0x800087ab
        9335000	       932	8000275c	01e0af33	slt	x30,x1,x30	  x1:0xffffff83 x30:0x0e254730 x30=0x00000001
        9345000	       933	80002760	ffbec003	lbu	x0,-5(x29)	 x29:0x80008733 PA:0x8000872e
        9355000	       934	80002764	018560b3	or	x1,x10,x24	 x10:0x80009fc4 x24:0xffffff88  x1=0xffffffcc
        9365000	       935	80002768	feeec783	lbu	x15,-18(x29)	 x29:0x80008733 x15=0x000000da PA:0x80008721
        9375000	       936	8000276c	095eaf03	lw	x30,149(x29)	 x29:0x80008733 x30=0x80818283 PA:0x800087c8
        9385000	       937	80002770	0059ffb3	and	x31,x19,x5	 x19:0x00000000  x5:0x00000060 x31=0x00000000
        9395000	       938	80002774	036ec683	lbu	x13,54(x29)	 x29:0x80008733 x13=0x00000001 PA:0x80008769
        9405000	       939	80002778	408e8ab3	sub	x21,x29,x8	 x29:0x80008733  x8:0x00000030 x21=0x80008703
        9415000	       940	8000277c	f70e8703	lb	x14,-144(x29)	 x29:0x80008733 x14=0x00000058 PA:0x800086a3
        9425000	       941	80002780	75e636b7	lui	x13,0x75e63	 x13=0x75e63000
        9435000	       942	80002784	075ed603	lhu	x12,117(x29)	 x29:0x80008733 x12=0x00006263 PA:0x800087a8
        9445000	       943	00000000	00000013	addi	x0,x0,0	  x0:0x00000000
        9455000	       944	80002788	0cce8883	lb	x17,204(x29)	 x29:0x80008733 x17=0xffffffb4 PA:0x800087ff
        9465000	       945	8000278c	01ce1293	slli	x5,x28,0x1c	 x28:0xf8400000  x5=0x00000000
        9475000	       946	80002790	01341ab3	sll	x21,x8,x19	  x8:0x00000030 x19:0x00000000 x21=0x00000030
        9485000	       947	80002794	008227b3	slt	x15,x4,x8	  x4:0x80009fc4  x8:0x00000030 x15=0x00000001
        9495000	       948	80002798	0071a6b3	slt	x13,x3,x7	  x3:0x00000059  x7:0x0000000f x13=0x00000000
        9505000	       949	8000279c	006a5c93	srli	x25,x20,0x6	 x20:0x00000009 x25=0x00000000
        9515000	       950	800027a0	044ecf03	lbu	x30,68(x29)	 x29:0x80008733 x30=0x0000002c PA:0x80008777
        9525000	       951	800027a4	01db1cb3	sll	x25,x22,x29	 x22:0x00000000 x29:0x80008733 x25=0x00000000
        9535000	       952	800027a8	00de1633	sll	x12,x28,x13	 x28:0xf8400000 x13:0x00000000 x12=0xf8400000
        9545000	       953	800027ac	3d74b293	sltiu	x5,x9,983	  x9:0x000000a0  x5=0x00000001
        9555000	       954	800027b0	48beb893	sltiu	x17,x29,1163	 x29:0x80008733 x17=0x00000000
        9565000	       955	800027b4	010a1713	slli	x14,x20,0x10	 x20:0x00000009 x14=0x00090000
        9575000	       956	800027b8	0098f9b3	and	x19,x17,x9	 x17:0x00000000  x9:0x000000a0 x19=0x00000000
        9585000	       957	800027bc	02be8b23	sb	x11,54(x29)	 x29:0x80008733 x11:0x00010001 PA:0x80008769
        9595000	       958	800027c0	00006897	auipc	x17,0x6	 x17=0x800087bc
        9605000	       959	800027c4	6bb88893	addi	x17,x17,1723	 x17:0x800087bc x17=0x80008e77
        9615000	       960	800027c8	001894a3	sh	x1,9(x17)	 x17:0x80008e77  x1:0xffffffcc PA:0x80008e80
        9625000	       961	800027cc	01398133	add	x2,x19,x19	 x19:0x00000000 x19:0x00000000  x2=0x00000000
        9635000	       962	800027d0	a217fab7	lui	x21,0xa217f	 x21=0xa217f000
        9645000	       963	800027d4	010f9313	slli	x6,x31,0x10	 x31:0x00000000  x6=0x00000000
        9655000	       964	800027d8	575a7613	andi	x12,x20,1397	 x20:0x00000009 x12=0x00000001
        9665000	       965	800027dc	fc3891a3	sh	x3,-61(x17)	 x17:0x80008e77  x3:0x00000059 PA:0x80008e3a
        9675000	       966	800027e0	00b199b3	sll	x19,x3,x11	  x3:0x00000059 x11:0x00010001 x19=0x000000b2
        9685000	       967	800027e4	fe688a23	sb	x6,-12(x17)	 x17:0x80008e77  x6:0x00000000 PA:0x80008e6b
        9695000	       968	800027e8	01849433	sll	x8,x9,x24	  x9:0x000000a0 x24:0xffffff88  x8=0x0000a000
        9705000	       969	800027ec	fdd8ab83	lw	x23,-35(x17)	 x17:0x80008e77 x23=0x3c3d3e3f PA:0x80008e54
        9715000	       970	800027f0	fcb88523	sb	x11,-54(x17)	 x17:0x80008e77 x11:0x00010001 PA:0x80008e41
        9725000	       971	800027f4	00d61493	slli	x9,x12,0xd	 x12:0x00000001  x9=0x00002000
        9735000	       972	800027f8	01a8be33	sltu	x28,x17,x26	 x17:0x80008e77 x26:0x06b1b000 x28=0x00000000
        9745000	       973	800027fc	fd288123	sb	x18,-62(x17)	 x17:0x80008e77 x18:0x80009f40 PA:0x80008e39
        9755000	       974	80002800	ff288923	sb	x18,-14(x17)	 x17:0x80008e77 x18:0x80009f40 PA:0x80008e69
        9765000	       975	80002804	03f88103	lb	x2,63(x17)	 x17:0x80008e77  x2=0xffffff9d PA:0x80008eb6
        9775000	       976	80002808	01591ab3	sll	x21,x18,x21	 x18:0x80009f40 x21:0xa217f000 x21=0x80009f40
        9785000	       977	8000280c	03188f03	lb	x30,49(x17)	 x17:0x80008e77 x30=0xffffff93 PA:0x80008ea8
        9795000	       978	80002810	fcd884a3	sb	x13,-55(x17)	 x17:0x80008e77 x13:0x00000000 PA:0x80008e40
        9805000	       979	80002814	752b86b7	lui	x13,0x752b8	 x13=0x752b8000
        9815000	       980	80002818	3e4c4d13	xori	x26,x24,996	 x24:0xffffff88 x26=0xfffffc6c
        9825000	       981	8000281c	01388a03	lb	x20,19(x17)	 x17:0x80008e77 x20=0x0000003f PA:0x80008e8a
        9835000	       982	80002820	40e30033	sub	x0,x6,x14	  x6:0x00000000 x14:0x00090000
        9845000	       983	80002824	72040093	addi	x1,x8,1824	  x8:0x0000a000  x1=0x0000a720
        9855000	       984	80002828	02688783	lb	x15,38(x17)	 x17:0x80008e77 x15=0xffffff86 PA:0x80008e9d
        9865000	       985	8000282c	01aa0333	add	x6,x20,x26	 x20:0x0000003f x26:0xfffffc6c  x6=0xfffffcab
        9875000	       986	80002830	02389e83	lh	x29,35(x17)	 x17:0x80008e77 x29=0xffff8081 PA:0x80008e9a
        9885000	       987	80002834	fe588003	lb	x0,-27(x17)	 x17:0x80008e77 PA:0x80008e5c
        9895000	       988	80002838	fe588323	sb	x5,-26(x17)	 x17:0x80008e77  x5:0x00000001 PA:0x80008e5d
        9905000	       989	8000283c	5701b313	sltiu	x6,x3,1392	  x3:0x00000059  x6=0x00000001
        9915000	       990	80002840	01788f83	lb	x31,23(x17)	 x17:0x80008e77 x31=0x00000075 PA:0x80008e8e
        9925000	       991	80002844	bbb8f193	andi	x3,x17,-1093	 x17:0x80008e77  x3=0x80008a33
        9935000	       992	80002848	0014ab33	slt	x22,x9,x1	  x9:0x00002000  x1:0x0000a720 x22=0x00000001
        9945000	       993	8000284c	010f67b3	or	x15,x30,x16	 x30:0xffffff93 x16:0x800084b0 x15=0xffffffb3
        9955000	       994	80002850	017889a3	sb	x23,19(x17)	 x17:0x80008e77 x23:0x3c3d3e3f PA:0x80008e8a
        9965000	       995	80002854	002435b3	sltu	x11,x8,x2	  x8:0x0000a000  x2:0xffffff9d x11=0x00000001
        9975000	       996	80002858	0078db83	lhu	x23,7(x17)	 x17:0x80008e77 x23=0x00006465 PA:0x80008e7e
        9985000	       997	8000285c	01f003b3	add	x7,x0,x31	  x0:0x00000000 x31:0x00000075  x7=0x00000075
        9995000	       998	80002860	fce8c403	lbu	x8,-50(x17)	 x17:0x80008e77  x8=0x0000002e PA:0x80008e45
       10005000	       999	80002864	fed896a3	sh	x13,-19(x17)	 x17:0x80008e77 x13:0x752b8000 PA:0x80008e64
       10015000	      1000	80002868	01d5ea33	or	x20,x11,x29	 x11:0x00000001 x29:0xffff8081 x20=0xffff8081
       10025000	      1001	8000286c	0028c583	lbu	x11,2(x17)	 x17:0x80008e77 x11=0x00000062 PA:0x80008e79
       10035000	      1002	80002870	f8d7e213	ori	x4,x15,-115	 x15:0xffffffb3  x4=0xffffffbf
       10045000	      1003	80002874	0398c083	lbu	x1,57(x17)	 x17:0x80008e77  x1=0x0000009b PA:0x80008eb0
       10055000	      1004	80002878	0a4a2f93	slti	x31,x20,164	 x20:0xffff8081 x31=0x00000001
       10065000	      1005	8000287c	00300f33	add	x30,x0,x3	  x0:0x00000000  x3:0x80008a33 x30=0x80008a33
       10075000	      1006	80002880	00f492b3	sll	x5,x9,x15	  x9:0x00002000 x15:0xffffffb3  x5=0x00000000
       10085000	      1007	80002884	35a2ed13	ori	x26,x5,858	  x5:0x00000000 x26=0x0000035a
       10095000	      1008	80002888	fde88083	lb	x1,-34(x17)	 x17:0x80008e77  x1=0x0000003e PA:0x80008e55
       10105000	      1009	8000288c	4f37ea93	ori	x21,x15,1267	 x15:0xffffffb3 x21=0xfffffff3
       10115000	      1010	80002890	c0697b93	andi	x23,x18,-1018	 x18:0x80009f40 x23=0x80009c00
       10125000	      1011	80002894	a6534393	xori	x7,x6,-1435	  x6:0x00000001  x7=0xfffffa64
       10135000	      1012	80002898	00a94cb3	xor	x25,x18,x10	 x18:0x80009f40 x10:0x80009fc4 x25=0x00000084
       10145000	      1013	8000289c	012a3733	sltu	x14,x20,x18	 x20:0xffff8081 x18:0x80009f40 x14=0x00000000
       10155000	      1014	800028a0	001f5b13	srli	x22,x30,0x1	 x30:0x80008a33 x22=0x40004519
       10165000	      1015	800028a4	008f33b3	sltu	x7,x30,x8	 x30:0x80008a33  x8:0x0000002e  x7=0x00000000
       10175000	      1016	800028a8	00589313	slli	x6,x17,0x5	 x17:0x80008e77  x6=0x0011cee0
       10185000	      1017	800028ac	056c1663	bne	x24,x22,800028f8	 x24:0xffffff88 x22:0x40004519
       10195000	      1018	00000000	00000013	addi	x0,x0,0	  x0:0x00000000
       10205000	      1019	800028f4	00000013	addi	x0,x0,0	  x0:0x00000000
       10215000	      1020	800028f8	241ba713	slti	x14,x23,577	 x23:0x80009c00 x14=0x00000001
       10225000	      1021	800028fc	0156db93	srli	x23,x13,0x15	 x13:0x752b8000 x23=0x000003a9
       10235000	      1022	80002900	05391263	bne	x18,x19,80002944	 x18:0x80009f40 x19:0x000000b2
       10245000	      1023	00000000	00000013	addi	x0,x0,0	  x0:0x00000000
       10255000	      1024	80002940	00000013	addi	x0,x0,0	  x0:0x00000000
       10265000	      1025	80002944	af86ac37	lui	x24,0xaf86a	 x24=0xaf86a000
       10275000	      1026	80002948	415dd733	sra	x14,x27,x21	 x27:0x00000000 x21:0xfffffff3 x14=0x00000000
       10285000	      1027	8000294c	017591b3	sll	x3,x11,x23	 x11:0x00000062 x23:0x000003a9  x3=0x0000c400
       10295000	      1028	80002950	01ed6733	or	x14,x26,x30	 x26:0x0000035a x30:0x80008a33 x14=0x80008b7b
       10305000	      1029	80002954	01a16333	or	x6,x2,x26	  x2:0xffffff9d x26:0x0000035a  x6=0xffffffdf
       10315000	      1030	80002958	013dac33	slt	x24,x27,x19	 x27:0x00000000 x19:0x000000b2 x24=0x00000001
       10325000	      1031	8000295c	f033bc13	sltiu	x24,x7,-253	  x7:0x00000000 x24=0x00000001
       10335000	      1032	80002960	ff15f613	andi	x12,x11,-15	 x11:0x00000062 x12=0x00000060
       10345000	      1033	80002964	01c9bd33	sltu	x26,x19,x28	 x19:0x000000b2 x28:0x00000000 x26=0x00000000
       10355000	      1034	80002968	00ee4b33	xor	x22,x28,x14	 x28:0x00000000 x14:0x80008b7b x22=0x80008b7b
       10365000	      1035	8000296c	01848c63	beq	x9,x24,80002984	  x9:0x00002000 x24:0x00000001
       10375000	      1036	80002970	00d7d093	srli	x1,x15,0xd	 x15:0xffffffb3  x1=0x0007ffff
       10385000	      1037	80002974	01dec9b3	xor	x19,x29,x29	 x29:0xffff8081 x29:0xffff8081 x19=0x00000000
       10395000	      1038	80002978	048bc863	blt	x23,x8,800029c8	 x23:0x000003a9  x8:0x0000002e
       10405000	      1039	8000297c	43e74c13	xori	x24,x14,1086	 x14:0x80008b7b x24=0x80008f45
       10415000	      1040	80002980	0142e493	ori	x9,x5,20	  x5:0x00000000  x9=0x00000014
       10425000	      1041	80002984	012ae263	bltu	x21,x18,80002988	 x21:0xfffffff3 x18:0x80009f40
       10435000	      1042	80002988	05e50463	beq	x10,x30,800029d0	 x10:0x80009fc4 x30:0x80008a33
       10445000	      1043	8000298c	00e70d33	add	x26,x14,x14	 x14:0x80008b7b x14:0x80008b7b x26=0x000116f6
       10455000	      1044	80002990	010391b3	sll	x3,x7,x16	  x7:0x00000000 x16:0x800084b0  x3=0x00000000
       10465000	      1045	80002994	00386b33	or	x22,x16,x3	 x16:0x800084b0  x3:0x00000000 x22=0x800084b0
       10475000	      1046	80002998	00dd1f33	sll	x30,x26,x13	 x26:0x000116f6 x13:0x752b8000 x30=0x000116f6
       10485000	      1047	8000299c	02798463	beq	x19,x7,800029c4	 x19:0x00000000  x7:0x00000000
       10495000	      1048	00000000	00000013	addi	x0,x0,0	  x0:0x00000000
       10505000	      1049	800029c0	00000013	addi	x0,x0,0	  x0:0x00000000
       10515000	      1050	800029c4	05c21063	bne	x4,x28,80002a04	  x4:0xffffffbf x28:0x00000000
       10525000	      1051	00000000	00000013	addi	x0,x0,0	  x0:0x00000000
       10535000	      1052	80002a00	00000013	addi	x0,x0,0	  x0:0x00000000
       10545000	      1053	80002a04	538f7693	andi	x13,x30,1336	 x30:0x000116f6 x13=0x00000430
       10555000	      1054	80002a08	00ed5b93	srli	x23,x26,0xe	 x26:0x000116f6 x23=0x00000004
       10565000	      1055	80002a0c	0046d263	bge	x13,x4,80002a10	 x13:0x00000430  x4:0xffffffbf
       10575000	      1056	00000000	00000013	addi	x0,x0,0	  x0:0x00000000
       10585000	      1057	80002a0c	00000013	addi	x0,x0,0	  x0:0x00000000
       10595000	      1058	80002a10	0b03e013	ori	x0,x7,176	  x7:0x00000000
       10605000	      1059	80002a14	03b84263	blt	x16,x27,80002a38	 x16:0x800084b0 x27:0x00000000
       10615000	      1060	00000000	00000013	addi	x0,x0,0	  x0:0x00000000
       10625000	      1061	80002a34	00000013	addi	x0,x0,0	  x0:0x00000000
       10635000	      1062	80002a38	01dcd033	srl	x0,x25,x29	 x25:0x00000084 x29:0xffff8081
       10645000	      1063	80002a3c	00208663	beq	x1,x2,80002a48	  x1:0x0007ffff  x2:0xffffff9d
       10655000	      1064	80002a40	407dd193	srai	x3,x27,0x7	 x27:0x00000000  x3=0x00000000
       10665000	      1065	80002a44	0012f4b3	and	x9,x5,x1	  x5:0x00000000  x1:0x0007ffff  x9=0x00000000
       10675000	      1066	80002a48	00ef1f33	sll	x30,x30,x14	 x30:0x000116f6 x14:0x80008b7b x30=0xb0000000
       10685000	      1067	80002a4c	00010eb3	add	x29,x2,x0	  x2:0xffffff9d  x0:0x00000000 x29=0xffffff9d
       10695000	      1068	80002a50	009dd463	bge	x27,x9,80002a58	 x27:0x00000000  x9:0x00000000
       10705000	      1069	00000000	00000013	addi	x0,x0,0	  x0:0x00000000
       10715000	      1070	80002a54	00000013	addi	x0,x0,0	  x0:0x00000000
       10725000	      1071	80002a58	00df5e93	srli	x29,x30,0xd	 x30:0xb0000000 x29=0x00058000
       10735000	      1072	80002a5c	3e4e0697	auipc	x13,0x3e4e0	 x13=0xbe4e2a58
       10745000	      1073	80002a60	4174da33	sra	x20,x9,x23	  x9:0x00000000 x23:0x00000004 x20=0x00000000
       10755000	      1074	80002a64	31400e93	addi	x29,x0,788	  x0:0x00000000 x29=0x00000314
       10765000	      1075	80002a68	01e933b3	sltu	x7,x18,x30	 x18:0x80009f40 x30:0xb0000000  x7=0x00000001
       10775000	      1076	80002a6c	01dee663	bltu	x29,x29,80002a78	 x29:0x00000314 x29:0x00000314
       10785000	      1077	80002a70	04d1c663	blt	x3,x13,80002abc	  x3:0x00000000 x13:0xbe4e2a58
       10795000	      1078	80002a74	04b36263	bltu	x6,x11,80002ab8	  x6:0xffffffdf x11:0x00000062
       10805000	      1079	80002a78	010ec6b3	xor	x13,x29,x16	 x29:0x00000314 x16:0x800084b0 x13=0x800087a4
       10815000	      1080	80002a7c	6de7c197	auipc	x3,0x6de7c	  x3=0xede7ea78
       10825000	      1081	80002a80	0f0a77b7	lui	x15,0xf0a7	 x15=0x0f0a7000
       10835000	      1082	80002a84	00f16d33	or	x26,x2,x15	  x2:0xffffff9d x15:0x0f0a7000 x26=0xffffff9d
       10845000	      1083	80002a88	0160b833	sltu	x16,x1,x22	  x1:0x0007ffff x22:0x800084b0 x16=0x00000001
       10855000	      1084	80002a8c	41565a33	sra	x20,x12,x21	 x12:0x00000060 x21:0xfffffff3 x20=0x00000000
       10865000	      1085	80002a90	de869f17	auipc	x30,0xde869	 x30=0x5e86ba8c
       10875000	      1086	80002a94	eb774793	xori	x15,x14,-329	 x14:0x80008b7b x15=0x7fff75cc
       10885000	      1087	80002a98	01661c13	slli	x24,x12,0x16	 x12:0x00000060 x24=0x18000000
       10895000	      1088	80002a9c	00bfdc33	srl	x24,x31,x11	 x31:0x00000001 x11:0x00000062 x24=0x00000000
       10905000	      1089	80002aa0	00dc9d13	slli	x26,x25,0xd	 x25:0x00000084 x26=0x00108000
       10915000	      1090	80002aa4	cebd4013	xori	x0,x26,-789	 x26:0x00108000
       10925000	      1091	80002aa8	40b4dc93	srai	x25,x9,0xb	  x9:0x00000000 x25=0x00000000
       10935000	      1092	80002aac	01557a63	bgeu	x10,x21,80002ac0	 x10:0x80009fc4 x21:0xfffffff3
       10945000	      1093	80002ab0	461c8213	addi	x4,x25,1121	 x25:0x00000000  x4=0x00000461
       10955000	      1094	80002ab4	0072da63	bge	x5,x7,80002ac8	  x5:0x00000000  x7:0x00000001
       10965000	      1095	80002ab8	41da5113	srai	x2,x20,0x1d	 x20:0x00000000  x2=0x00000000
       10975000	      1096	80002abc	0012c6b3	xor	x13,x5,x1	  x5:0x00000000  x1:0x0007ffff x13=0x0007ffff
       10985000	      1097	80002ac0	029e4a63	blt	x28,x9,80002af4	 x28:0x00000000  x9:0x00000000
       10995000	      1098	80002ac4	01f15133	srl	x2,x2,x31	  x2:0x00000000 x31:0x00000001  x2=0x00000000
       11005000	      1099	80002ac8	00f03333	sltu	x6,x0,x15	  x0:0x00000000 x15:0x7fff75cc  x6=0x00000001
       11015000	      1100	80002acc	01fd28b3	slt	x17,x26,x31	 x26:0x00108000 x31:0x00000001 x17=0x00000000
       11025000	      1101	80002ad0	00b9bbb3	sltu	x23,x19,x11	 x19:0x00000000 x11:0x00000062 x23=0x00000001
       11035000	      1102	80002ad4	04bad063	bge	x21,x11,80002b14	 x21:0xfffffff3 x11:0x00000062
       11045000	      1103	80002ad8	c2ec7993	andi	x19,x24,-978	 x24:0x00000000 x19=0x00000000
       11055000	      1104	80002adc	413b8fb3	sub	x31,x23,x19	 x23:0x00000001 x19:0x00000000 x31=0x00000001
       11065000	      1105	80002ae0	05277b13	andi	x22,x14,82	 x14:0x80008b7b x22=0x00000052
       11075000	      1106	80002ae4	02fe9463	bne	x29,x15,80002b0c	 x29:0x00000314 x15:0x7fff75cc
       11085000	      1107	00000000	00000013	addi	x0,x0,0	  x0:0x00000000
       11095000	      1108	80002b08	00000013	addi	x0,x0,0	  x0:0x00000000
       11105000	      1109	80002b0c	031c1463	bne	x24,x17,80002b34	 x24:0x00000000 x17:0x00000000
       11115000	      1110	80002b10	00f30663	beq	x6,x15,80002b1c	  x6:0x00000001 x15:0x7fff75cc
       11125000	      1111	80002b14	a11f4413	xori	x8,x30,-1519	 x30:0x5e86ba8c  x8=0xa179409d
       11135000	      1112	80002b18	02ae6e63	bltu	x28,x10,80002b54	 x28:0x00000000 x10:0x80009fc4
       11145000	      1113	00000000	00000013	addi	x0,x0,0	  x0:0x00000000
       11155000	      1114	80002b50	00000013	addi	x0,x0,0	  x0:0x00000000
       11165000	      1115	80002b54	01239213	slli	x4,x7,0x12	  x7:0x00000001  x4=0x00040000
       11175000	      1116	80002b58	01c0ab33	slt	x22,x1,x28	  x1:0x0007ffff x28:0x00000000 x22=0x00000000
       11185000	      1117	80002b5c	0114feb3	and	x29,x9,x17	  x9:0x00000000 x17:0x00000000 x29=0x00000000
       11195000	      1118	80002b60	408b5f33	sra	x30,x22,x8	 x22:0x00000000  x8:0xa179409d x30=0x00000000
       11205000	      1119	80002b64	00da0263	beq	x20,x13,80002b68	 x20:0x00000000 x13:0x0007ffff
       11215000	      1120	80002b68	04cac063	blt	x21,x12,80002ba8	 x21:0xfffffff3 x12:0x00000060
       11225000	      1121	00000000	00000013	addi	x0,x0,0	  x0:0x00000000
       11235000	      1122	80002ba4	00000013	addi	x0,x0,0	  x0:0x00000000
       11245000	      1123	80002ba8	f2dd8a97	auipc	x21,0xf2dd8	 x21=0x72ddaba4
       11255000	      1124	80002bac	45ea5217	auipc	x4,0x45ea5	  x4=0xc5ea7ba8
       11265000	      1125	80002bb0	50a3c993	xori	x19,x7,1290	  x7:0x00000001 x19=0x0000050b
       11275000	      1126	80002bb4	2f5f3697	auipc	x13,0x2f5f3	 x13=0xaf5f5bb0
       11285000	      1127	80002bb8	0555c463	blt	x11,x21,80002c00	 x11:0x00000062 x21:0x72ddaba4
       11295000	      1128	00000000	00000013	addi	x0,x0,0	  x0:0x00000000
       11305000	      1129	80002bfc	00000013	addi	x0,x0,0	  x0:0x00000000
       11315000	      1130	80002c00	401adb93	srai	x23,x21,0x1	 x21:0x72ddaba4 x23=0x396ed5d2
       11325000	      1131	80002c04	01d22d33	slt	x26,x4,x29	  x4:0xc5ea7ba8 x29:0x00000000 x26=0x00000001
       11335000	      1132	80002c08	644c64b7	lui	x9,0x644c6	  x9=0x644c6000
       11345000	      1133	80002c0c	05f29263	bne	x5,x31,80002c50	  x5:0x00000000 x31:0x00000001
       11355000	      1134	00000000	00000013	addi	x0,x0,0	  x0:0x00000000
       11365000	      1135	80002c4c	00000013	addi	x0,x0,0	  x0:0x00000000
       11375000	      1136	80002c50	0077eb33	or	x22,x15,x7	 x15:0x7fff75cc  x7:0x00000001 x22=0x7fff75cd
       11385000	      1137	80002c54	02415e63	bge	x2,x4,80002c90	  x2:0x00000000  x4:0xc5ea7ba8
       11395000	      1138	00000000	00000013	addi	x0,x0,0	  x0:0x00000000
       11405000	      1139	80002c8c	00000013	addi	x0,x0,0	  x0:0x00000000
       11415000	      1140	80002c90	00c39fb3	sll	x31,x7,x12	  x7:0x00000001 x12:0x00000060 x31=0x00000001
       11425000	      1141	80002c94	40d0d313	srai	x6,x1,0xd	  x1:0x0007ffff  x6=0x0000003f
       11435000	      1142	80002c98	d51d9d17	auipc	x26,0xd51d9	 x26=0x551dbc94
       11445000	      1143	80002c9c	be7dbeb7	lui	x29,0xbe7db	 x29=0xbe7db000
       11455000	      1144	80002ca0	2adec413	xori	x8,x29,685	 x29:0xbe7db000  x8=0xbe7db2ad
       11465000	      1145	80002ca4	f620db37	lui	x22,0xf620d	 x22=0xf620d000
       11475000	      1146	80002ca8	01320c33	add	x24,x4,x19	  x4:0xc5ea7ba8 x19:0x0000050b x24=0xc5ea80b3
       11485000	      1147	80002cac	f75ba693	slti	x13,x23,-139	 x23:0x396ed5d2 x13=0x00000000
       11495000	      1148	80002cb0	070a5c63	bge	x20,x16,80002d28	 x20:0x00000000 x16:0x00000001
       11505000	      1149	80002cb4	00894fb3	xor	x31,x18,x8	 x18:0x80009f40  x8:0xbe7db2ad x31=0x3e7d2ded
       11515000	      1150	80002cb8	41268d33	sub	x26,x13,x18	 x13:0x00000000 x18:0x80009f40 x26=0x7fff60c0
       11525000	      1151	80002cbc	00004217	auipc	x4,0x4	  x4=0x80006cb8
       11535000	      1152	80002cc0	87c20213	addi	x4,x4,-1924	  x4:0x80006cb8  x4=0x80006534
       11545000	      1153	80002cc4	00808b33	add	x22,x1,x8	  x1:0x0007ffff  x8:0xbe7db2ad x22=0xbe85b2ac
       11555000	      1154	80002cc8	c0280e13	addi	x28,x16,-1022	 x16:0x00000001 x28=0xfffffc03
       11565000	      1155	80002ccc	0163b6b3	sltu	x13,x7,x22	  x7:0x00000001 x22:0xbe85b2ac x13=0x00000001
       11575000	      1156	80002cd0	001518b3	sll	x17,x10,x1	 x10:0x80009fc4  x1:0x0007ffff x17=0x00000000
       11585000	      1157	80002cd4	ca720213	addi	x4,x4,-857	  x4:0x80006534  x4=0x800061db
       11595000	      1158	80002cd8	01d63f33	sltu	x30,x12,x29	 x12:0x00000060 x29:0xbe7db000 x30=0x00000001
       11605000	      1159	80002cdc	00b4db93	srli	x23,x9,0xb	  x9:0x644c6000 x23=0x000c898c
       11615000	      1160	80002ce0	00f95863	bge	x18,x15,80002cf0	 x18:0x80009f40 x15:0x7fff75cc
       11625000	      1161	80002ce4	02a5e493	ori	x9,x11,42	 x11:0x00000062  x9=0x0000006a
       11635000	      1162	80002ce8	00b28f33	add	x30,x5,x11	  x5:0x00000000 x11:0x00000062 x30=0x00000062
       11645000	      1163	80002cec	44994a93	xori	x21,x18,1097	 x18:0x80009f40 x21=0x80009b09
       11655000	      1164	80002cf0	35a20467	jalr	x8,x4,858	  x4:0x800061db  x8=0x80002cf0
       11665000	      1165	00000000	00000013	addi	x0,x0,0	  x0:0x00000000
       11675000	      1166	80006534	00000013	addi	x0,x0,0	  x0:0x00000000
       11685000	      1167	80006538	fd090913	addi	x18,x18,-48	 x18:0x80009f40 x18=0x80009f10
       11695000	      1168	8000653c	10b3ac37	lui	x24,0x10b3a	 x24=0x10b3a000
       11705000	      1169	80006540	00892223	sw	x8,4(x18)	 x18:0x80009f10  x8:0x80002cf0 PA:0x80009f14
       11715000	      1170	80006544	6b07c713	xori	x14,x15,1712	 x15:0x7fff75cc x14=0x7fff737c
       11725000	      1171	80006548	008dc133	xor	x2,x27,x8	 x27:0x00000000  x8:0x80002cf0  x2=0x80002cf0
       11735000	      1172	8000654c	00002117	auipc	x2,0x2	  x2=0x80008548
       11745000	      1173	80006550	f1110113	addi	x2,x2,-239	  x2:0x80008548  x2=0x80008459
       11755000	      1174	80006554	00e60233	add	x4,x12,x14	 x12:0x00000060 x14:0x7fff737c  x4=0x7fff73dc
       11765000	      1175	80006558	014016b3	sll	x13,x0,x20	  x0:0x00000000 x20:0x00000000 x13=0x00000000
       11775000	      1176	8000655c	00881393	slli	x7,x16,0x8	 x16:0x00000001  x7=0x00000100
       11785000	      1177	80006560	01a113a3	sh	x26,7(x2)	  x2:0x80008459 x26:0x7fff60c0 PA:0x80008460
       11795000	      1178	80006564	ff311ea3	sh	x19,-3(x2)	  x2:0x80008459 x19:0x0000050b PA:0x80008456
       11805000	      1179	80006568	cc0f3e93	sltiu	x29,x30,-832	 x30:0x00000062 x29=0x00000001
       11815000	      1180	8000656c	00510183	lb	x3,5(x2)	  x2:0x80008459  x3=0x00000015 PA:0x8000845e
       11825000	      1181	80006570	4178d193	srai	x3,x17,0x17	 x17:0x00000000  x3=0x00000000
       11835000	      1182	80006574	00b89613	slli	x12,x17,0xb	 x17:0x00000000 x12=0x00000000
       11845000	      1183	80006578	008f5f13	srli	x30,x30,0x8	 x30:0x00000062 x30=0x00000000
       11855000	      1184	8000657c	ffb15403	lhu	x8,-5(x2)	  x2:0x80008459  x8=0x00009fc4 PA:0x80008454
       11865000	      1185	80006580	417fd693	srai	x13,x31,0x17	 x31:0x3e7d2ded x13=0x0000007c
       11875000	      1186	80006584	0135f0b3	and	x1,x11,x19	 x11:0x00000062 x19:0x0000050b  x1=0x00000002
       11885000	      1187	80006588	ff212da3	sw	x18,-5(x2)	  x2:0x80008459 x18:0x80009f10 PA:0x80008454
       11895000	      1188	8000658c	00610483	lb	x9,6(x2)	  x2:0x80008459  x9=0xffffffcc PA:0x8000845f
       11905000	      1189	80006590	00514283	lbu	x5,5(x2)	  x2:0x80008459  x5=0x00000015 PA:0x8000845e
       11915000	      1190	80006594	00330cb3	add	x25,x6,x3	  x6:0x0000003f  x3:0x00000000 x25=0x0000003f
       11925000	      1191	80006598	33af8813	addi	x16,x31,826	 x31:0x3e7d2ded x16=0x3e7d3127
       11935000	      1192	8000659c	ff814203	lbu	x4,-8(x2)	  x2:0x80008459  x4=0x00000000 PA:0x80008451
       11945000	      1193	800065a0	00ce66b3	or	x13,x28,x12	 x28:0xfffffc03 x12:0x00000000 x13=0xfffffc03
       11955000	      1194	800065a4	008104a3	sb	x8,9(x2)	  x2:0x80008459  x8:0x00009fc4 PA:0x80008462
       11965000	      1195	800065a8	0196dd33	srl	x26,x13,x25	 x13:0xfffffc03 x25:0x0000003f x26=0x00000001
       11975000	      1196	800065ac	0192a7b3	slt	x15,x5,x25	  x5:0x00000015 x25:0x0000003f x15=0x00000001
       11985000	      1197	800065b0	00010423	sb	x0,8(x2)	  x2:0x80008459  x0:0x00000000 PA:0x80008461
       11995000	      1198	800065b4	0166bab3	sltu	x21,x13,x22	 x13:0xfffffc03 x22:0xbe85b2ac x21=0x00000000
       12005000	      1199	800065b8	014125a3	sw	x20,11(x2)	  x2:0x80008459 x20:0x00000000 PA:0x80008464
       12015000	      1200	800065bc	ffc10823	sb	x28,-16(x2)	  x2:0x80008459 x28:0xfffffc03 PA:0x80008449
       12025000	      1201	800065c0	ffa11ba3	sh	x26,-9(x2)	  x2:0x80008459 x26:0x00000001 PA:0x80008450
       12035000	      1202	800065c4	01010003	lb	x0,16(x2)	  x2:0x80008459 PA:0x80008469
       12045000	      1203	800065c8	cb90cb13	xori	x22,x1,-839	  x1:0x00000002 x22=0xfffffcbb
       12055000	      1204	800065cc	fea10da3	sb	x10,-5(x2)	  x2:0x80008459 x10:0x80009fc4 PA:0x80008454
       12065000	      1205	800065d0	b9d63793	sltiu	x15,x12,-1123	 x12:0x00000000 x15=0x00000001
       12075000	      1206	800065d4	00b11583	lh	x11,11(x2)	  x2:0x80008459 x11=0x00000000 PA:0x80008464
       12085000	      1207	800065d8	ff714303	lbu	x6,-9(x2)	  x2:0x80008459  x6=0x00000001 PA:0x80008450
       12095000	      1208	800065dc	0158d2b3	srl	x5,x17,x21	 x17:0x00000000 x21:0x00000000  x5=0x00000000
       12105000	      1209	800065e0	013d5813	srli	x16,x26,0x13	 x26:0x00000001 x16=0x00000000
       12115000	      1210	800065e4	00514583	lbu	x11,5(x2)	  x2:0x80008459 x11=0x00000015 PA:0x8000845e
       12125000	      1211	800065e8	ff312d03	lw	x26,-13(x2)	  x2:0x80008459 x26=0x04050607 PA:0x8000844c
       12135000	      1212	800065ec	ff210603	lb	x12,-14(x2)	  x2:0x80008459 x12=0x00000000 PA:0x8000844b
       12145000	      1213	800065f0	005fe463	bltu	x31,x5,800065f8	 x31:0x3e7d2ded  x5:0x00000000
       12155000	      1214	800065f4	00bd0e63	beq	x26,x11,80006610	 x26:0x04050607 x11:0x00000015
       12165000	      1215	800065f8	00160f33	add	x30,x12,x1	 x12:0x00000000  x1:0x00000002 x30=0x00000002
       12175000	      1216	800065fc	0092c233	xor	x4,x5,x9	  x5:0x00000000  x9:0xffffffcc  x4=0xffffffcc
       12185000	      1217	80006600	005aaeb3	slt	x29,x21,x5	 x21:0x00000000  x5:0x00000000 x29=0x00000000
       12195000	      1218	80006604	29c36d17	auipc	x26,0x29c36	 x26=0xa9c3c600
       12205000	      1219	80006608	4137dcb3	sra	x25,x15,x19	 x15:0x00000001 x19:0x0000050b x25=0x00000000
       12215000	      1220	8000660c	6c534713	xori	x14,x6,1733	  x6:0x00000001 x14=0x000006c4
       12225000	      1221	80006610	00539663	bne	x7,x5,8000661c	  x7:0x00000100  x5:0x00000000
       12235000	      1222	00000000	00000013	addi	x0,x0,0	  x0:0x00000000
       12245000	      1223	80006618	00000013	addi	x0,x0,0	  x0:0x00000000
       12255000	      1224	8000661c	0508d863	bge	x17,x16,8000666c	 x17:0x00000000 x16:0x00000000
       12265000	      1225	00000000	00000013	addi	x0,x0,0	  x0:0x00000000
       12275000	      1226	80006668	00000013	addi	x0,x0,0	  x0:0x00000000
       12285000	      1227	8000666c	00707463	bgeu	x0,x7,80006674	  x0:0x00000000  x7:0x00000100
       12295000	      1228	80006670	ade08e97	auipc	x29,0xade08	 x29=0x2de0e66c
       12305000	      1229	80006674	01b0b2b3	sltu	x5,x1,x27	  x1:0x00000002 x27:0x00000000  x5=0x00000000
       12315000	      1230	80006678	0196b3b3	sltu	x7,x13,x25	 x13:0xfffffc03 x25:0x00000000  x7=0x00000000
       12325000	      1231	8000667c	002878b3	and	x17,x16,x2	 x16:0x00000000  x2:0x80008459 x17=0x00000000
       12335000	      1232	80006680	00c070b3	and	x1,x0,x12	  x0:0x00000000 x12:0x00000000  x1=0x00000000
       12345000	      1233	80006684	0054e133	or	x2,x9,x5	  x9:0xffffffcc  x5:0x00000000  x2=0xffffffcc
       12355000	      1234	80006688	005d1333	sll	x6,x26,x5	 x26:0xa9c3c600  x5:0x00000000  x6=0xa9c3c600
       12365000	      1235	8000668c	41a05333	sra	x6,x0,x26	  x0:0x00000000 x26:0xa9c3c600  x6=0x00000000
       12375000	      1236	80006690	40865833	sra	x16,x12,x8	 x12:0x00000000  x8:0x00009fc4 x16=0x00000000
       12385000	      1237	80006694	e8622893	slti	x17,x4,-378	  x4:0xffffffcc x17=0x00000000
       12395000	      1238	80006698	025f4863	blt	x30,x5,800066c8	 x30:0x00000002  x5:0x00000000
       12405000	      1239	8000669c	014f5c33	srl	x24,x30,x20	 x30:0x00000002 x20:0x00000000 x24=0x00000002
       12415000	      1240	800066a0	40ffd613	srai	x12,x31,0xf	 x31:0x3e7d2ded x12=0x00007cfa
       12425000	      1241	800066a4	7995ea93	ori	x21,x11,1945	 x11:0x00000015 x21=0x0000079d
       12435000	      1242	800066a8	1851f313	andi	x6,x3,389	  x3:0x00000000  x6=0x00000000
       12445000	      1243	800066ac	02cb8863	beq	x23,x12,800066dc	 x23:0x000c898c x12:0x00007cfa
       12455000	      1244	800066b0	40248b33	sub	x22,x9,x2	  x9:0xffffffcc  x2:0xffffffcc x22=0x00000000
       12465000	      1245	800066b4	0437d263	bge	x15,x3,800066f8	 x15:0x00000001  x3:0x00000000
       12475000	      1246	00000000	00000013	addi	x0,x0,0	  x0:0x00000000
       12485000	      1247	800066f4	00000013	addi	x0,x0,0	  x0:0x00000000
       12495000	      1248	800066f8	008a18b3	sll	x17,x20,x8	 x20:0x00000000  x8:0x00009fc4 x17=0x00000000
       12505000	      1249	800066fc	00899313	slli	x6,x19,0x8	 x19:0x0000050b  x6=0x00050b00
       12515000	      1250	80006700	01015c63	bge	x2,x16,80006718	  x2:0xffffffcc x16:0x00000000
       12525000	      1251	80006704	409988b3	sub	x17,x19,x9	 x19:0x0000050b  x9:0xffffffcc x17=0x0000053f
       12535000	      1252	80006708	2d5c4713	xori	x14,x24,725	 x24:0x00000002 x14=0x000002d7
       12545000	      1253	8000670c	017f2b33	slt	x22,x30,x23	 x30:0x00000002 x23:0x000c898c x22=0x00000001
       12555000	      1254	80006710	00964eb3	xor	x29,x12,x9	 x12:0x00007cfa  x9:0xffffffcc x29=0xffff8336
       12565000	      1255	80006714	005bb433	sltu	x8,x23,x5	 x23:0x000c898c  x5:0x00000000  x8=0x00000000
       12575000	      1256	80006718	03f27263	bgeu	x4,x31,8000673c	  x4:0xffffffcc x31:0x3e7d2ded
       12585000	      1257	00000000	00000013	addi	x0,x0,0	  x0:0x00000000
       12595000	      1258	80006738	00000013	addi	x0,x0,0	  x0:0x00000000
       12605000	      1259	8000673c	8a468e13	addi	x28,x13,-1884	 x13:0xfffffc03 x28=0xfffff4a7
       12615000	      1260	80006740	62d12d13	slti	x26,x2,1581	  x2:0xffffffcc x26=0x00000001
       12625000	      1261	80006744	584a2493	slti	x9,x20,1412	 x20:0x00000000  x9=0x00000001
       12635000	      1262	80006748	81363a93	sltiu	x21,x12,-2029	 x12:0x00007cfa x21=0x00000001
       12645000	      1263	8000674c	4028dd13	srai	x26,x17,0x2	 x17:0x0000053f x26=0x0000014f
       12655000	      1264	80006750	036858b7	lui	x17,0x3685	 x17=0x03685000
       12665000	      1265	80006754	8010e813	ori	x16,x1,-2047	  x1:0x00000000 x16=0xfffff801
       12675000	      1266	80006758	019add33	srl	x26,x21,x25	 x21:0x00000001 x25:0x00000000 x26=0x00000001
       12685000	      1267	8000675c	4168dc13	srai	x24,x17,0x16	 x17:0x03685000 x24=0x0000000d
       12695000	      1268	80006760	015dec63	bltu	x27,x21,80006778	 x27:0x00000000 x21:0x00000001
       12705000	      1269	00000000	00000013	addi	x0,x0,0	  x0:0x00000000
       12715000	      1270	80006774	00000013	addi	x0,x0,0	  x0:0x00000000
       12725000	      1271	80006778	011d88b3	add	x17,x27,x17	 x27:0x00000000 x17:0x03685000 x17=0x03685000
       12735000	      1272	8000677c	40db5013	srai	x0,x22,0xd	 x22:0x00000001
       12745000	      1273	80006780	6aa84093	xori	x1,x16,1706	 x16:0xfffff801  x1=0xfffffeab
       12755000	      1274	80006784	006570b3	and	x1,x10,x6	 x10:0x80009fc4  x6:0x00050b00  x1=0x00000b00
       12765000	      1275	80006788	05c2c063	blt	x5,x28,800067c8	  x5:0x00000000 x28:0xfffff4a7
       12775000	      1276	8000678c	73293213	sltiu	x4,x18,1842	 x18:0x80009f10  x4=0x00000000
       12785000	      1277	80006790	01a53b33	sltu	x22,x10,x26	 x10:0x80009fc4 x26:0x00000001 x22=0x00000000
       12795000	      1278	80006794	04656863	bltu	x10,x6,800067e4	 x10:0x80009fc4  x6:0x00050b00
       12805000	      1279	80006798	17bc2f13	slti	x30,x24,379	 x24:0x0000000d x30=0x00000001
       12815000	      1280	8000679c	0490c263	blt	x1,x9,800067e0	  x1:0x00000b00  x9:0x00000001
       12825000	      1281	800067a0	5a56c893	xori	x17,x13,1445	 x13:0xfffffc03 x17=0xfffff9a6
       12835000	      1282	800067a4	a0753493	sltiu	x9,x10,-1529	 x10:0x80009fc4  x9=0x00000001
       12845000	      1283	800067a8	917a2693	slti	x13,x20,-1769	 x20:0x00000000 x13=0x00000000
       12855000	      1284	800067ac	015e4463	blt	x28,x21,800067b4	 x28:0xfffff4a7 x21:0x00000001
       12865000	      1285	00000000	00000013	addi	x0,x0,0	  x0:0x00000000
       12875000	      1286	800067b0	00000013	addi	x0,x0,0	  x0:0x00000000
       12885000	      1287	800067b4	02819663	bne	x3,x8,800067e0	  x3:0x00000000  x8:0x00000000
       12895000	      1288	800067b8	40be5213	srai	x4,x28,0xb	 x28:0xfffff4a7  x4=0xfffffffe
       12905000	      1289	800067bc	382a3d37	lui	x26,0x382a3	 x26=0x382a3000
       12915000	      1290	800067c0	00000013	addi	x0,x0,0	  x0:0x00000000
       12925000	      1291	800067c4	01997663	bgeu	x18,x25,800067d0	 x18:0x80009f10 x25:0x00000000
       12935000	      1292	00000000	00000013	addi	x0,x0,0	  x0:0x00000000
       12945000	      1293	800067cc	00000013	addi	x0,x0,0	  x0:0x00000000
       12955000	      1294	800067d0	412f5c13	srai	x24,x30,0x12	 x30:0x00000001 x24=0x00000000
       12965000	      1295	800067d4	00704eb3	xor	x29,x0,x7	  x0:0x00000000  x7:0x00000000 x29=0x00000000
       12975000	      1296	800067d8	00463693	sltiu	x13,x12,4	 x12:0x00007cfa x13=0x00000000
       12985000	      1297	800067dc	8f78c713	xori	x14,x17,-1801	 x17:0xfffff9a6 x14=0x00000151
       12995000	      1298	800067e0	01bb01b3	add	x3,x22,x27	 x22:0x00000000 x27:0x00000000  x3=0x00000000
       13005000	      1299	800067e4	41bdd313	srai	x6,x27,0x1b	 x27:0x00000000  x6=0x00000000
       13015000	      1300	800067e8	01d4fe33	and	x28,x9,x29	  x9:0x00000001 x29:0x00000000 x28=0x00000000
       13025000	      1301	800067ec	03071a63	bne	x14,x16,80006820	 x14:0x00000151 x16:0xfffff801
       13035000	      1302	00000000	00000013	addi	x0,x0,0	  x0:0x00000000
       13045000	      1303	8000681c	00000013	addi	x0,x0,0	  x0:0x00000000
       13055000	      1304	80006820	398bf413	andi	x8,x23,920	 x23:0x000c898c  x8=0x00000188
       13065000	      1305	80006824	6a6b36b7	lui	x13,0x6a6b3	 x13=0x6a6b3000
       13075000	      1306	80006828	8bd20613	addi	x12,x4,-1859	  x4:0xfffffffe x12=0xfffff8bb
       13085000	      1307	8000682c	0030fc63	bgeu	x1,x3,80006844	  x1:0x00000b00  x3:0x00000000
       13095000	      1308	00000000	00000013	addi	x0,x0,0	  x0:0x00000000
       13105000	      1309	80006840	00000013	addi	x0,x0,0	  x0:0x00000000
       13115000	      1310	80006844	58e20597	auipc	x11,0x58e20	 x11=0xd8e26840
       13125000	      1311	80006848	0caf5663	bge	x30,x10,80006914	 x30:0x00000001 x10:0x80009fc4
       13135000	      1312	00000000	00000013	addi	x0,x0,0	  x0:0x00000000
       13145000	      1313	80006910	00000013	addi	x0,x0,0	  x0:0x00000000
       13155000	      1314	80006914	00ff1463	bne	x30,x15,8000691c	 x30:0x00000001 x15:0x00000001
       13165000	      1315	80006918	05231663	bne	x6,x18,80006964	  x6:0x00000000 x18:0x80009f10
       13175000	      1316	00000000	00000013	addi	x0,x0,0	  x0:0x00000000
       13185000	      1317	80006960	00000013	addi	x0,x0,0	  x0:0x00000000
       13195000	      1318	80006964	05296263	bltu	x18,x18,800069a8	 x18:0x80009f10 x18:0x80009f10
       13205000	      1319	80006968	00a3d893	srli	x17,x7,0xa	  x7:0x00000000 x17=0x00000000
       13215000	      1320	8000696c	000398b3	sll	x17,x7,x0	  x7:0x00000000  x0:0x00000000 x17=0x00000000
       13225000	      1321	80006970	00bb5e13	srli	x28,x22,0xb	 x22:0x00000000 x28=0x00000000
       13235000	      1322	80006974	0532c863	blt	x5,x19,800069c4	  x5:0x00000000 x19:0x0000050b
       13245000	      1323	00000000	00000013	addi	x0,x0,0	  x0:0x00000000
       13255000	      1324	800069c0	00000013	addi	x0,x0,0	  x0:0x00000000
       13265000	      1325	800069c4	001492b3	sll	x5,x9,x1	  x9:0x00000001  x1:0x00000b00  x5=0x00000001
       13275000	      1326	800069c8	fbbc8093	addi	x1,x25,-69	 x25:0x00000000  x1=0xffffffbb
       13285000	      1327	800069cc	00b012b3	sll	x5,x0,x11	  x0:0x00000000 x11:0xd8e26840  x5=0x00000000
       13295000	      1328	800069d0	05c24263	blt	x4,x28,80006a14	  x4:0xfffffffe x28:0x00000000
       13305000	      1329	00000000	00000013	addi	x0,x0,0	  x0:0x00000000
       13315000	      1330	80006a10	00000013	addi	x0,x0,0	  x0:0x00000000
       13325000	      1331	80006a14	013bdcb3	srl	x25,x23,x19	 x23:0x000c898c x19:0x0000050b x25=0x00000191
       13335000	      1332	80006a18	00537a33	and	x20,x6,x5	  x6:0x00000000  x5:0x00000000 x20=0x00000000
       13345000	      1333	80006a1c	199b4a13	xori	x20,x22,409	 x22:0x00000000 x20=0x00000199
       13355000	      1334	80006a20	40cb88b3	sub	x17,x23,x12	 x23:0x000c898c x12:0xfffff8bb x17=0x000c90d1
       13365000	      1335	80006a24	010f73b3	and	x7,x30,x16	 x30:0x00000001 x16:0xfffff801  x7=0x00000001
       13375000	      1336	80006a28	adb5c693	xori	x13,x11,-1317	 x11:0xd8e26840 x13=0x271d929b
       13385000	      1337	80006a2c	003d1a63	bne	x26,x3,80006a40	 x26:0x382a3000  x3:0x00000000
       13395000	      1338	00000000	00000013	addi	x0,x0,0	  x0:0x00000000
       13405000	      1339	80006a3c	00000013	addi	x0,x0,0	  x0:0x00000000
       13415000	      1340	80006a40	41d1d093	srai	x1,x3,0x1d	  x3:0x00000000  x1=0x00000000
       13425000	      1341	80006a44	043ae063	bltu	x21,x3,80006a84	 x21:0x00000001  x3:0x00000000
       13435000	      1342	80006a48	02847e63	bgeu	x8,x8,80006a84	  x8:0x00000188  x8:0x00000188
       13445000	      1343	00000000	00000013	addi	x0,x0,0	  x0:0x00000000
       13455000	      1344	80006a80	00000013	addi	x0,x0,0	  x0:0x00000000
       13465000	      1345	80006a84	4058d733	sra	x14,x17,x5	 x17:0x000c90d1  x5:0x00000000 x14=0x000c90d1
       13475000	      1346	80006a88	006c6a33	or	x20,x24,x6	 x24:0x00000000  x6:0x00000000 x20=0x00000000
       13485000	      1347	80006a8c	e026a813	slti	x16,x13,-510	 x13:0x271d929b x16=0x00000000
       13495000	      1348	80006a90	00492403	lw	x8,4(x18)	 x18:0x80009f10  x8=0x80002cf0 PA:0x80009f14
       13505000	      1349	80006a94	e0f5c593	xori	x11,x11,-497	 x11:0xd8e26840 x11=0x271d964f
       13515000	      1350	80006a98	b3590c17	auipc	x24,0xb3590	 x24=0x33596a94
       13525000	      1351	80006a9c	00ab4a33	xor	x20,x22,x10	 x22:0x00000000 x10:0x80009fc4 x20=0x80009fc4
       13535000	      1352	80006aa0	03090913	addi	x18,x18,48	 x18:0x80009f10 x18=0x80009f40
       13545000	      1353	80006aa4	00399f13	slli	x30,x19,0x3	 x19:0x0000050b x30=0x00002858
       13555000	      1354	80006aa8	86ec3613	sltiu	x12,x24,-1938	 x24:0x33596a94 x12=0x00000001
       13565000	      1355	80006aac	01c57cb3	and	x25,x10,x28	 x10:0x80009fc4 x28:0x00000000 x25=0x00000000
       13575000	      1356	80006ab0	00140e13	addi	x28,x8,1	  x8:0x80002cf0 x28=0x80002cf1
       13585000	      1357	80006ab4	000e0e67	jalr	x28,x28,0	 x28:0x80002cf1 x28=0x80006ab4
       13595000	      1358	00000000	00000013	addi	x0,x0,0	  x0:0x00000000
       13605000	      1359	80002cf0	00000013	addi	x0,x0,0	  x0:0x00000000
       13615000	      1360	80002cf4	00fdb5b3	sltu	x11,x27,x15	 x27:0x00000000 x15:0x00000001 x11=0x00000001
       13625000	      1361	80002cf8	00000013	addi	x0,x0,0	  x0:0x00000000
       13635000	      1362	80002cfc	405f82b3	sub	x5,x31,x5	 x31:0x3e7d2ded  x5:0x00000000  x5=0x3e7d2ded
       13645000	      1363	80002d00	01b20c63	beq	x4,x27,80002d18	  x4:0xfffffffe x27:0x00000000
       13655000	      1364	80002d04	0070e7b3	or	x15,x1,x7	  x1:0x00000000  x7:0x00000001 x15=0x00000001
       13665000	      1365	80002d08	f3b66a17	auipc	x20,0xf3b66	 x20=0x73b68d04
       13675000	      1366	80002d0c	00d91d33	sll	x26,x18,x13	 x18:0x80009f40 x13:0x271d929b x26=0x00000000
       13685000	      1367	80002d10	0196da63	bge	x13,x25,80002d24	 x13:0x271d929b x25:0x00000000
       13695000	      1368	00000000	00000013	addi	x0,x0,0	  x0:0x00000000
       13705000	      1369	80002d20	00000013	addi	x0,x0,0	  x0:0x00000000
       13715000	      1370	80002d24	00c7ba33	sltu	x20,x15,x12	 x15:0x00000001 x12:0x00000001 x20=0x00000000
       13725000	      1371	80002d28	00e68663	beq	x13,x14,80002d34	 x13:0x271d929b x14:0x000c90d1
       13735000	      1372	80002d2c	03011463	bne	x2,x16,80002d54	  x2:0xffffffcc x16:0x00000000
       13745000	      1373	00000000	00000013	addi	x0,x0,0	  x0:0x00000000
       13755000	      1374	80002d50	00000013	addi	x0,x0,0	  x0:0x00000000
       13765000	      1375	80002d54	60eb4b97	auipc	x23,0x60eb4	 x23=0xe0eb6d50
       13775000	      1376	80002d58	511b3613	sltiu	x12,x22,1297	 x22:0x00000000 x12=0x00000001
       13785000	      1377	80002d5c	594bac97	auipc	x25,0x594ba	 x25=0xd94bcd58
       13795000	      1378	80002d60	00c7ca63	blt	x15,x12,80002d74	 x15:0x00000001 x12:0x00000001
       13805000	      1379	80002d64	00a2d663	bge	x5,x10,80002d70	  x5:0x3e7d2ded x10:0x80009fc4
       13815000	      1380	00000000	00000013	addi	x0,x0,0	  x0:0x00000000
       13825000	      1381	80002d6c	00000013	addi	x0,x0,0	  x0:0x00000000
       13835000	      1382	80002d70	01cf9833	sll	x16,x31,x28	 x31:0x3e7d2ded x28:0x80006ab4 x16=0xded00000
       13845000	      1383	80002d74	02991e63	bne	x18,x9,80002db0	 x18:0x80009f40  x9:0x00000001
       13855000	      1384	00000000	00000013	addi	x0,x0,0	  x0:0x00000000
       13865000	      1385	80002dac	00000013	addi	x0,x0,0	  x0:0x00000000
       13875000	      1386	80002db0	00000013	addi	x0,x0,0	  x0:0x00000000
       13885000	      1387	80002db4	01ff9613	slli	x12,x31,0x1f	 x31:0x3e7d2ded x12=0x80000000
       13895000	      1388	80002db8	002c2ab3	slt	x21,x24,x2	 x24:0x33596a94  x2:0xffffffcc x21=0x00000000
       13905000	      1389	80002dbc	01b190b3	sll	x1,x3,x27	  x3:0x00000000 x27:0x00000000  x1=0x00000000
       13915000	      1390	80002dc0	015d9293	slli	x5,x27,0x15	 x27:0x00000000  x5=0x00000000
       13925000	      1391	80002dc4	0103d793	srli	x15,x7,0x10	  x7:0x00000001 x15=0x00000000
       13935000	      1392	80002dc8	e211cb13	xori	x22,x3,-479	  x3:0x00000000 x22=0xfffffe21
       13945000	      1393	80002dcc	a928eb13	ori	x22,x17,-1390	 x17:0x000c90d1 x22=0xfffffad3
       13955000	      1394	80002dd0	03231463	bne	x6,x18,80002df8	  x6:0x00000000 x18:0x80009f40
       13965000	      1395	00000000	00000013	addi	x0,x0,0	  x0:0x00000000
       13975000	      1396	80002df4	00000013	addi	x0,x0,0	  x0:0x00000000
       13985000	      1397	80002df8	011b5c63	bge	x22,x17,80002e10	 x22:0xfffffad3 x17:0x000c90d1
       13995000	      1398	80002dfc	00cf0893	addi	x17,x30,12	 x30:0x00002858 x17=0x00002864
       14005000	      1399	80002e00	101cbc13	sltiu	x24,x25,257	 x25:0xd94bcd58 x24=0x00000000
       14015000	      1400	80002e04	cf54b193	sltiu	x3,x9,-779	  x9:0x00000001  x3=0x00000001
       14025000	      1401	80002e08	e8f9ca13	xori	x20,x19,-369	 x19:0x0000050b x20=0xfffffb84
       14035000	      1402	80002e0c	1d21ba93	sltiu	x21,x3,466	  x3:0x00000001 x21=0x00000001
       14045000	      1403	80002e10	bdf02f13	slti	x30,x0,-1057	  x0:0x00000000 x30=0x00000000
       14055000	      1404	80002e14	015bea63	bltu	x23,x21,80002e28	 x23:0xe0eb6d50 x21:0x00000001
       14065000	      1405	80002e18	a64c3013	sltiu	x0,x24,-1436	 x24:0x00000000
       14075000	      1406	80002e1c	00ece263	bltu	x25,x14,80002e20	 x25:0xd94bcd58 x14:0x000c90d1
       14085000	      1407	80002e20	01eabb33	sltu	x22,x21,x30	 x21:0x00000001 x30:0x00000000 x22=0x00000000
       14095000	      1408	80002e24	fd1bb013	sltiu	x0,x23,-47	 x23:0xe0eb6d50
       14105000	      1409	80002e28	026de463	bltu	x27,x6,80002e50	 x27:0x00000000  x6:0x00000000
       14115000	      1410	80002e2c	03ba0e63	beq	x20,x27,80002e68	 x20:0xfffffb84 x27:0x00000000
       14125000	      1411	80002e30	88858193	addi	x3,x11,-1912	 x11:0x00000001  x3=0xfffff889
       14135000	      1412	80002e34	05364063	blt	x12,x19,80002e74	 x12:0x80000000 x19:0x0000050b
       14145000	      1413	00000000	00000013	addi	x0,x0,0	  x0:0x00000000
       14155000	      1414	80002e70	00000013	addi	x0,x0,0	  x0:0x00000000
       14165000	      1415	80002e74	1e87bf93	sltiu	x31,x15,488	 x15:0x00000000 x31=0x00000001
       14175000	      1416	80002e78	03b84863	blt	x16,x27,80002ea8	 x16:0xded00000 x27:0x00000000
       14185000	      1417	00000000	00000013	addi	x0,x0,0	  x0:0x00000000
       14195000	      1418	80002ea4	00000013	addi	x0,x0,0	  x0:0x00000000
       14205000	      1419	80002ea8	00a62e33	slt	x28,x12,x10	 x12:0x80000000 x10:0x80009fc4 x28=0x00000001
       14215000	      1420	80002eac	43a23413	sltiu	x8,x4,1082	  x4:0xfffffffe  x8=0x00000000
       14225000	      1421	80002eb0	058a9063	bne	x21,x24,80002ef0	 x21:0x00000001 x24:0x00000000
       14235000	      1422	00000000	00000013	addi	x0,x0,0	  x0:0x00000000
       14245000	      1423	80002eec	00000013	addi	x0,x0,0	  x0:0x00000000
       14255000	      1424	80002ef0	d248ee97	auipc	x29,0xd248e	 x29=0x52490eec
       14265000	      1425	80002ef4	01646ab3	or	x21,x8,x22	  x8:0x00000000 x22:0x00000000 x21=0x00000000
       14275000	      1426	80002ef8	005d9c33	sll	x24,x27,x5	 x27:0x00000000  x5:0x00000000 x24=0x00000000
       14285000	      1427	80002efc	00f768b3	or	x17,x14,x15	 x14:0x000c90d1 x15:0x00000000 x17=0x000c90d1
       14295000	      1428	80002f00	0023ee33	or	x28,x7,x2	  x7:0x00000001  x2:0xffffffcc x28=0xffffffcd
       14305000	      1429	80002f04	b55c7f93	andi	x31,x24,-1195	 x24:0x00000000 x31=0x00000000
       14315000	      1430	80002f08	011fc433	xor	x8,x31,x17	 x31:0x00000000 x17:0x000c90d1  x8=0x000c90d1
       14325000	      1431	80002f0c	2ce0b137	lui	x2,0x2ce0b	  x2=0x2ce0b000
       14335000	      1432	80002f10	412a0733	sub	x14,x20,x18	 x20:0xfffffb84 x18:0x80009f40 x14=0x7fff5c44
       14345000	      1433	80002f14	24dfa613	slti	x12,x31,589	 x31:0x00000000 x12=0x00000001
       14355000	      1434	80002f18	4dbd8193	addi	x3,x27,1243	 x27:0x00000000  x3=0x000004db
       14365000	      1435	80002f1c	41a25993	srai	x19,x4,0x1a	  x4:0xfffffffe x19=0xffffffff
       14375000	      1436	80002f20	f00bca13	xori	x20,x23,-256	 x23:0xe0eb6d50 x20=0x1f149250
       14385000	      1437	80002f24	00345893	srli	x17,x8,0x3	  x8:0x000c90d1 x17=0x0001921a
       14395000	      1438	80002f28	00927833	and	x16,x4,x9	  x4:0xfffffffe  x9:0x00000001 x16=0x00000000
       14405000	      1439	80002f2c	02c30463	beq	x6,x12,80002f54	  x6:0x00000000 x12:0x00000001
       14415000	      1440	80002f30	015be263	bltu	x23,x21,80002f34	 x23:0xe0eb6d50 x21:0x00000000
       14425000	      1441	80002f34	03257a63	bgeu	x10,x18,80002f68	 x10:0x80009fc4 x18:0x80009f40
       14435000	      1442	00000000	00000013	addi	x0,x0,0	  x0:0x00000000
       14445000	      1443	80002f64	00000013	addi	x0,x0,0	  x0:0x00000000
       14455000	      1444	80002f68	663b3e13	sltiu	x28,x22,1635	 x22:0x00000000 x28=0x00000001
       14465000	      1445	80002f6c	00262633	slt	x12,x12,x2	 x12:0x00000001  x2:0x2ce0b000 x12=0x00000001
       14475000	      1446	80002f70	004b1b93	slli	x23,x22,0x4	 x22:0x00000000 x23=0x00000000
       14485000	      1447	80002f74	10b4fa63	bgeu	x9,x11,80003088	  x9:0x00000001 x11:0x00000001
       14495000	      1448	00000000	00000013	addi	x0,x0,0	  x0:0x00000000
       14505000	      1449	80003084	00000013	addi	x0,x0,0	  x0:0x00000000
       14515000	      1450	80003088	001b04b3	add	x9,x22,x1	 x22:0x00000000  x1:0x00000000  x9=0x00000000
       14525000	      1451	8000308c	007f26b3	slt	x13,x30,x7	 x30:0x00000000  x7:0x00000001 x13=0x00000001
       14535000	      1452	80003090	ed2078b7	lui	x17,0xed207	 x17=0xed207000
       14545000	      1453	80003094	01063a33	sltu	x20,x12,x16	 x12:0x00000001 x16:0x00000000 x20=0x00000000
       14555000	      1454	80003098	e185df17	auipc	x30,0xe185d	 x30=0x61860094
       14565000	      1455	8000309c	413055b3	sra	x11,x0,x19	  x0:0x00000000 x19:0xffffffff x11=0x00000000
       14575000	      1456	800030a0	0084fa63	bgeu	x9,x8,800030b4	  x9:0x00000000  x8:0x000c90d1
       14585000	      1457	800030a4	00985a63	bge	x16,x9,800030b8	 x16:0x00000000  x9:0x00000000
       14595000	      1458	00000000	00000013	addi	x0,x0,0	  x0:0x00000000
       14605000	      1459	800030b4	00000013	addi	x0,x0,0	  x0:0x00000000
       14615000	      1460	800030b8	e1fdb093	sltiu	x1,x27,-481	 x27:0x00000000  x1=0x00000001
       14625000	      1461	800030bc	02f8da63	bge	x17,x15,800030f0	 x17:0xed207000 x15:0x00000000
       14635000	      1462	800030c0	01b5d993	srli	x19,x11,0x1b	 x11:0x00000000 x19=0x00000000
       14645000	      1463	800030c4	05d5f663	bgeu	x11,x29,80003110	 x11:0x00000000 x29:0x52490eec
       14655000	      1464	800030c8	e6638013	addi	x0,x7,-410	  x7:0x00000001
       14665000	      1465	800030cc	418bde13	srai	x28,x23,0x18	 x23:0x00000000 x28=0x00000000
       14675000	      1466	800030d0	013fd1b3	srl	x3,x31,x19	 x31:0x00000000 x19:0x00000000  x3=0x00000000
       14685000	      1467	800030d4	b7fc4f93	xori	x31,x24,-1153	 x24:0x00000000 x31=0xfffffb7f
       14695000	      1468	800030d8	0468f063	bgeu	x17,x6,80003118	 x17:0xed207000  x6:0x00000000
       14705000	      1469	00000000	00000013	addi	x0,x0,0	  x0:0x00000000
       14715000	      1470	80003114	00000013	addi	x0,x0,0	  x0:0x00000000
       14725000	      1471	80003118	4075de33	sra	x28,x11,x7	 x11:0x00000000  x7:0x00000001 x28=0x00000000
       14735000	      1472	8000311c	01c71393	slli	x7,x14,0x1c	 x14:0x7fff5c44  x7=0x40000000
       14745000	      1473	80003120	01c9d013	srli	x0,x19,0x1c	 x19:0x00000000
       14755000	      1474	80003124	01225cb3	srl	x25,x4,x18	  x4:0xfffffffe x18:0x80009f40 x25=0xfffffffe
       14765000	      1475	80003128	044d8663	beq	x27,x4,80003174	 x27:0x00000000  x4:0xfffffffe
       14775000	      1476	8000312c	924d7593	andi	x11,x26,-1756	 x26:0x00000000 x11=0x00000000
       14785000	      1477	80003130	01e4d0b3	srl	x1,x9,x30	  x9:0x00000000 x30:0x61860094  x1=0x00000000
       14795000	      1478	80003134	007943b3	xor	x7,x18,x7	 x18:0x80009f40  x7:0x40000000  x7=0xc0009f40
       14805000	      1479	80003138	75ce2b13	slti	x22,x28,1884	 x28:0x00000000 x22=0x00000001
       14815000	      1480	8000313c	00247663	bgeu	x8,x2,80003148	  x8:0x000c90d1  x2:0x2ce0b000
       14825000	      1481	80003140	ad767717	auipc	x14,0xad767	 x14=0x2d76a13c
       14835000	      1482	80003144	075d9263	bne	x27,x21,800031a8	 x27:0x00000000 x21:0x00000000
       14845000	      1483	80003148	d98b0337	lui	x6,0xd98b0	  x6=0xd98b0000
       14855000	      1484	8000314c	00d49633	sll	x12,x9,x13	  x9:0x00000000 x13:0x00000001 x12=0x00000000
       14865000	      1485	80003150	000a7c63	bgeu	x20,x0,80003168	 x20:0x00000000  x0:0x00000000
       14875000	      1486	00000000	00000013	addi	x0,x0,0	  x0:0x00000000
       14885000	      1487	80003164	00000013	addi	x0,x0,0	  x0:0x00000000
       14895000	      1488	80003168	0f854093	xori	x1,x10,248	 x10:0x80009fc4  x1=0x80009f3c
       14905000	      1489	8000316c	002d6f33	or	x30,x26,x2	 x26:0x00000000  x2:0x2ce0b000 x30=0x2ce0b000
       14915000	      1490	80003170	004748b3	xor	x17,x14,x4	 x14:0x2d76a13c  x4:0xfffffffe x17=0xd2895ec2
       14925000	      1491	80003174	0081feb3	and	x29,x3,x8	  x3:0x00000000  x8:0x000c90d1 x29=0x00000000
       14935000	      1492	80003178	03d61063	bne	x12,x29,80003198	 x12:0x00000000 x29:0x00000000
       14945000	      1493	8000317c	fcc02f93	slti	x31,x0,-52	  x0:0x00000000 x31=0x00000000
       14955000	      1494	80003180	003e33b3	sltu	x7,x28,x3	 x28:0x00000000  x3:0x00000000  x7=0x00000000
       14965000	      1495	80003184	01e7d313	srli	x6,x15,0x1e	 x15:0x00000000  x6=0x00000000
       14975000	      1496	80003188	d136c013	xori	x0,x13,-749	 x13:0x00000001
       14985000	      1497	8000318c	ab84c393	xori	x7,x9,-1352	  x9:0x00000000  x7=0xfffffab8
       14995000	      1498	80003190	1ef95ab7	lui	x21,0x1ef95	 x21=0x1ef95000
       15005000	      1499	80003194	44024793	xori	x15,x4,1088	  x4:0xfffffffe x15=0xfffffbbe
       15015000	      1500	80003198	1210346f	jal	x8,80003198	  x8=0x80003198
       15025000	      1501	00000000	00000013	addi	x0,x0,0	  x0:0x00000000
       15035000	      1502	80006ab4	00000013	addi	x0,x0,0	  x0:0x00000000
       15045000	      1503	80006ab8	01022733	slt	x14,x4,x16	  x4:0xfffffffe x16:0x00000000 x14=0x00000001
       15055000	      1504	80006abc	00966663	bltu	x12,x9,80006ac8	 x12:0x00000000  x9:0x00000000
       15065000	      1505	80006ac0	41d10633	sub	x12,x2,x29	  x2:0x2ce0b000 x29:0x00000000 x12=0x2ce0b000
       15075000	      1506	80006ac4	00ed8233	add	x4,x27,x14	 x27:0x00000000 x14:0x00000001  x4=0x00000001
       15085000	      1507	80006ac8	fd890913	addi	x18,x18,-40	 x18:0x80009f40 x18=0x80009f18
       15095000	      1508	80006acc	00892223	sw	x8,4(x18)	 x18:0x80009f18  x8:0x80003198 PA:0x80009f1c
       15105000	      1509	80006ad0	01e91cb3	sll	x25,x18,x30	 x18:0x80009f18 x30:0x2ce0b000 x25=0x80009f18
       15115000	      1510	80006ad4	014a66b3	or	x13,x20,x20	 x20:0x00000000 x20:0x00000000 x13=0x00000000
       15125000	      1511	80006ad8	413705b3	sub	x11,x14,x19	 x14:0x00000001 x19:0x00000000 x11=0x00000001
       15135000	      1512	80006adc	0f1cca13	xori	x20,x25,241	 x25:0x80009f18 x20=0x80009fe9
       15145000	      1513	80006ae0	b58c0e93	addi	x29,x24,-1192	 x24:0x00000000 x29=0xfffffb58
       15155000	      1514	80006ae4	70313213	sltiu	x4,x2,1795	  x2:0x2ce0b000  x4=0x00000000
       15165000	      1515	80006ae8	01cf0fb3	add	x31,x30,x28	 x30:0x2ce0b000 x28:0x00000000 x31=0x2ce0b000
       15175000	      1516	80006aec	c15fc46f	jal	x8,80006aec	  x8=0x80006aec
       15185000	      1517	00000000	00000013	addi	x0,x0,0	  x0:0x00000000
       15195000	      1518	800036fc	00000013	addi	x0,x0,0	  x0:0x00000000
       15205000	      1519	80003700	fe490913	addi	x18,x18,-28	 x18:0x80009f18 x18=0x80009efc
       15215000	      1520	80003704	0132f833	and	x16,x5,x19	  x5:0x00000000 x19:0x00000000 x16=0x00000000
       15225000	      1521	80003708	40a20233	sub	x4,x4,x10	  x4:0x00000000 x10:0x80009fc4  x4=0x7fff603c
       15235000	      1522	8000370c	ab59c813	xori	x16,x19,-1355	 x19:0x00000000 x16=0xfffffab5
       15245000	      1523	80003710	000e1bb3	sll	x23,x28,x0	 x28:0x00000000  x0:0x00000000 x23=0x00000000
       15255000	      1524	80003714	00892223	sw	x8,4(x18)	 x18:0x80009efc  x8:0x80006aec PA:0x80009f00
       15265000	      1525	80003718	d82efa93	andi	x21,x29,-638	 x29:0xfffffb58 x21=0xfffff900
       15275000	      1526	8000371c	00005117	auipc	x2,0x5	  x2=0x80008718
       15285000	      1527	80003720	2b110113	addi	x2,x2,689	  x2:0x80008718  x2=0x800089c9
       15295000	      1528	80003724	00b94f33	xor	x30,x18,x11	 x18:0x80009efc x11:0x00000001 x30=0x80009efd
       15305000	      1529	80003728	00000013	addi	x0,x0,0	  x0:0x00000000
       15315000	      1530	8000372c	30710d03	lb	x26,775(x2)	  x2:0x800089c9 x26=0xffffffbb PA:0x80008cd0
       15325000	      1531	80003730	f0110803	lb	x16,-255(x2)	  x2:0x800089c9 x16=0xffffffb1 PA:0x800088ca
       15335000	      1532	80003734	3ef14e83	lbu	x29,1007(x2)	  x2:0x800089c9 x29=0x000000a3 PA:0x80008db8
       15345000	      1533	80003738	0006c9b3	xor	x19,x13,x0	 x13:0x00000000  x0:0x00000000 x19=0x00000000
       15355000	      1534	8000373c	00e9a633	slt	x12,x19,x14	 x19:0x00000000 x14:0x00000001 x12=0x00000001
       15365000	      1535	80003740	fea110a3	sh	x10,-31(x2)	  x2:0x800089c9 x10:0x80009fc4 PA:0x800089aa
       15375000	      1536	80003744	01589093	slli	x1,x17,0x15	 x17:0xd2895ec2  x1=0xd8400000
       15385000	      1537	80003748	011e5733	srl	x14,x28,x17	 x28:0x00000000 x17:0xd2895ec2 x14=0x00000000
       15395000	      1538	8000374c	00ee7c33	and	x24,x28,x14	 x28:0x00000000 x14:0x00000000 x24=0x00000000
       15405000	      1539	80003750	41ab0433	sub	x8,x22,x26	 x22:0x00000001 x26:0xffffffbb  x8=0x00000046
       15415000	      1540	80003754	00000013	addi	x0,x0,0	  x0:0x00000000
       15425000	      1541	80003758	01bc2833	slt	x16,x24,x27	 x24:0x00000000 x27:0x00000000 x16=0x00000000
       15435000	      1542	8000375c	41d00333	sub	x6,x0,x29	  x0:0x00000000 x29:0x000000a3  x6=0xffffff5d
       15445000	      1543	80003760	05711983	lh	x19,87(x2)	  x2:0x800089c9 x19=0x00000a0b PA:0x80008a20
       15455000	      1544	00000000	00000013	addi	x0,x0,0	  x0:0x00000000
       15465000	      1545	80003764	e7376993	ori	x19,x14,-397	 x14:0x00000000 x19=0xfffffe73
       15475000	      1546	80003768	44d10a03	lb	x20,1101(x2)	  x2:0x800089c9 x20=0xfffffffd PA:0x80008e16
       15485000	      1547	8000376c	76798793	addi	x15,x19,1895	 x19:0xfffffe73 x15=0x000005da
       15495000	      1548	80003770	01c6ed33	or	x26,x13,x28	 x13:0x00000000 x28:0x00000000 x26=0x00000000
       15505000	      1549	80003774	415ad793	srai	x15,x21,0x15	 x21:0xfffff900 x15=0xffffffff
       15515000	      1550	80003778	5fa10803	lb	x16,1530(x2)	  x2:0x800089c9 x16=0xffffffa8 PA:0x80008fc3
       15525000	      1551	8000377c	00a59cb3	sll	x25,x11,x10	 x11:0x00000001 x10:0x80009fc4 x25=0x00000010
       15535000	      1552	80003780	00f7d633	srl	x12,x15,x15	 x15:0xffffffff x15:0xffffffff x12=0x00000001
       15545000	      1553	80003784	00363233	sltu	x4,x12,x3	 x12:0x00000001  x3:0x00000000  x4=0x00000000
       15555000	      1554	80003788	00ec14b3	sll	x9,x24,x14	 x24:0x00000000 x14:0x00000000  x9=0x00000000
       15565000	      1555	8000378c	01e3da13	srli	x20,x7,0x1e	  x7:0xfffffab8 x20=0x00000003
       15575000	      1556	80003790	8b5f1037	lui	x0,0x8b5f1	
       15585000	      1557	80003794	6cc02293	slti	x5,x0,1740	  x0:0x00000000  x5=0x00000001
       15595000	      1558	80003798	01d09eb3	sll	x29,x1,x29	  x1:0xd8400000 x29:0x000000a3 x29=0xc2000000
       15605000	      1559	8000379c	010cdfb3	srl	x31,x25,x16	 x25:0x00000010 x16:0xffffffa8 x31=0x00000000
       15615000	      1560	800037a0	6e568293	addi	x5,x13,1765	 x13:0x00000000  x5=0x000006e5
       15625000	      1561	800037a4	fea10b83	lb	x23,-22(x2)	  x2:0x800089c9 x23=0xffffff98 PA:0x800089b3
       15635000	      1562	800037a8	fb810f03	lb	x30,-72(x2)	  x2:0x800089c9 x30=0x0000006a PA:0x80008981
       15645000	      1563	800037ac	1fb76313	ori	x6,x14,507	 x14:0x00000000  x6=0x000001fb
       15655000	      1564	800037b0	00d10183	lb	x3,13(x2)	  x2:0x800089c9  x3=0xffffffbd PA:0x800089d6
       15665000	      1565	800037b4	00005617	auipc	x12,0x5	 x12=0x800087b0
       15675000	      1566	800037b8	98460613	addi	x12,x12,-1660	 x12:0x800087b0 x12=0x80008134
       15685000	      1567	800037bc	5cc22e93	slti	x29,x4,1484	  x4:0x00000000 x29=0x00000001
       15695000	      1568	800037c0	00e62823	sw	x14,16(x12)	 x12:0x80008134 x14:0x00000000 PA:0x80008144
       15705000	      1569	800037c4	00661a03	lh	x20,6(x12)	 x12:0x80008134 x20=0xfffff0f1 PA:0x8000813a
       15715000	      1570	800037c8	817b8b13	addi	x22,x23,-2025	 x23:0xffffff98 x22=0xfffff7af
       15725000	      1571	800037cc	01d54cb3	xor	x25,x10,x29	 x10:0x80009fc4 x29:0x00000001 x25=0x80009fc5
       15735000	      1572	800037d0	c5a30f97	auipc	x31,0xc5a30	 x31=0x45a337cc
       15745000	      1573	800037d4	81e70113	addi	x2,x14,-2018	 x14:0x00000000  x2=0xfffff81e
       15755000	      1574	800037d8	fe6609a3	sb	x6,-13(x12)	 x12:0x80008134  x6:0x000001fb PA:0x80008127
       15765000	      1575	800037dc	ffa60183	lb	x3,-6(x12)	 x12:0x80008134  x3=0xffffffe5 PA:0x8000812e
       15775000	      1576	800037e0	00665803	lhu	x16,6(x12)	 x12:0x80008134 x16=0x0000f0f1 PA:0x8000813a
       15785000	      1577	800037e4	ff364883	lbu	x17,-13(x12)	 x12:0x80008134 x17=0x000000fb PA:0x80008127
       15795000	      1578	800037e8	00c60023	sb	x12,0(x12)	 x12:0x80008134 x12:0x80008134 PA:0x80008134
       15805000	      1579	800037ec	00000013	addi	x0,x0,0	  x0:0x00000000
       15815000	      1580	800037f0	fff60e03	lb	x28,-1(x12)	 x12:0x80008134 x28=0xffffffe8 PA:0x80008133
       15825000	      1581	800037f4	00764e83	lbu	x29,7(x12)	 x12:0x80008134 x29=0x000000f0 PA:0x8000813b
       15835000	      1582	800037f8	ff260b83	lb	x23,-14(x12)	 x12:0x80008134 x23=0xffffffdd PA:0x80008126
       15845000	      1583	800037fc	973b3313	sltiu	x6,x22,-1677	 x22:0xfffff7af  x6=0x00000001
       15855000	      1584	80003800	fb590d17	auipc	x26,0xfb590	 x26=0x7b5937fc
       15865000	      1585	80003804	f6650a17	auipc	x20,0xf6650	 x20=0x76653800
       15875000	      1586	80003808	539b16b7	lui	x13,0x539b1	 x13=0x539b1000
       15885000	      1587	8000380c	00000013	addi	x0,x0,0	  x0:0x00000000
       15895000	      1588	80003810	3cf74693	xori	x13,x14,975	 x14:0x00000000 x13=0x000003cf
       15905000	      1589	80003814	ffa61683	lh	x13,-6(x12)	 x12:0x80008134 x13=0xffffe4e5 PA:0x8000812e
       15915000	      1590	80003818	00000013	addi	x0,x0,0	  x0:0x00000000
       15925000	      1591	8000381c	ff564683	lbu	x13,-11(x12)	 x12:0x80008134 x13=0x000000e2 PA:0x80008129
       15935000	      1592	80003820	01a3ebb3	or	x23,x7,x26	  x7:0xfffffab8 x26:0x7b5937fc x23=0xfffffffc
       15945000	      1593	80003824	29308e93	addi	x29,x1,659	  x1:0xd8400000 x29=0xd8400293
       15955000	      1594	80003828	fe560fa3	sb	x5,-1(x12)	 x12:0x80008134  x5:0x000006e5 PA:0x80008133
       15965000	      1595	8000382c	00000013	addi	x0,x0,0	  x0:0x00000000
       15975000	      1596	80003830	ff760ba3	sb	x23,-9(x12)	 x12:0x80008134 x23:0xfffffffc PA:0x8000812b
       15985000	      1597	80003834	01668e33	add	x28,x13,x22	 x13:0x000000e2 x22:0xfffff7af x28=0xfffff891
       15995000	      1598	80003838	01860523	sb	x24,10(x12)	 x12:0x80008134 x24:0x00000000 PA:0x8000813e
       16005000	      1599	8000383c	00a61783	lh	x15,10(x12)	 x12:0x80008134 x15=0xfffff400 PA:0x8000813e
       16015000	      1600	80003840	74b407b7	lui	x15,0x74b40	 x15=0x74b40000
       16025000	      1601	80003844	ff564783	lbu	x15,-11(x12)	 x12:0x80008134 x15=0x000000e2 PA:0x80008129
       16035000	      1602	80003848	f48bcf93	xori	x31,x23,-184	 x23:0xfffffffc x31=0x000000b4
       16045000	      1603	8000384c	fc40a393	slti	x7,x1,-60	  x1:0xd8400000  x7=0x00000001
       16055000	      1604	80003850	00aa4e33	xor	x28,x20,x10	 x20:0x76653800 x10:0x80009fc4 x28=0xf665a7c4
       16065000	      1605	80003854	0012cbb3	xor	x23,x5,x1	  x5:0x000006e5  x1:0xd8400000 x23=0xd84006e5
       16075000	      1606	80003858	fea60fa3	sb	x10,-1(x12)	 x12:0x80008134 x10:0x80009fc4 PA:0x80008133
       16085000	      1607	8000385c	fa416893	ori	x17,x2,-92	  x2:0xfffff81e x17=0xffffffbe
       16095000	      1608	80003860	ff364003	lbu	x0,-13(x12)	 x12:0x80008134 PA:0x80008127
       16105000	      1609	80003864	00005117	auipc	x2,0x5	  x2=0x80008860
       16115000	      1610	80003868	3f610113	addi	x2,x2,1014	  x2:0x80008860  x2=0x80008c56
       16125000	      1611	8000386c	f2d14c03	lbu	x24,-211(x2)	  x2:0x80008c56 x24=0x00000068 PA:0x80008b83
       16135000	      1612	80003870	ffd14303	lbu	x6,-3(x2)	  x2:0x80008c56  x6=0x00000038 PA:0x80008c53
       16145000	      1613	80003874	f8d12723	sw	x13,-114(x2)	  x2:0x80008c56 x13:0x000000e2 PA:0x80008be4
       16155000	      1614	80003878	514ffe13	andi	x28,x31,1300	 x31:0x000000b4 x28=0x00000014
       16165000	      1615	8000387c	0174d2b3	srl	x5,x9,x23	  x9:0x00000000 x23:0xd84006e5  x5=0x00000000
       16175000	      1616	80003880	fe714183	lbu	x3,-25(x2)	  x2:0x80008c56  x3=0x00000026 PA:0x80008c3d
       16185000	      1617	80003884	01475d13	srli	x26,x14,0x14	 x14:0x00000000 x26=0x00000000
       16195000	      1618	80003888	17b96a93	ori	x21,x18,379	 x18:0x80009efc x21=0x80009fff
       16205000	      1619	8000388c	f4010f03	lb	x30,-192(x2)	  x2:0x80008c56 x30=0x0000007d PA:0x80008b96
       16215000	      1620	80003890	fbc10203	lb	x4,-68(x2)	  x2:0x80008c56  x4=0xfffffff9 PA:0x80008c12
       16225000	      1621	80003894	cf474813	xori	x16,x14,-780	 x14:0x00000000 x16=0xfffffcf4
       16235000	      1622	80003898	f4811083	lh	x1,-184(x2)	  x2:0x80008c56  x1=0xffff8485 PA:0x80008b9e
       16245000	      1623	8000389c	f3c14783	lbu	x15,-196(x2)	  x2:0x80008c56 x15=0x00000079 PA:0x80008b92
       16255000	      1624	800038a0	4031de93	srai	x29,x3,0x3	  x3:0x00000026 x29=0x00000004
       16265000	      1625	800038a4	04f11b23	sh	x15,86(x2)	  x2:0x80008c56 x15:0x00000079 PA:0x80008cac
       16275000	      1626	800038a8	f6a10683	lb	x13,-150(x2)	  x2:0x80008c56 x13=0xffffffab PA:0x80008bc0
       16285000	      1627	800038ac	db4c0b93	addi	x23,x24,-588	 x24:0x00000068 x23=0xfffffe1c
       16295000	      1628	800038b0	d93ab993	sltiu	x19,x21,-621	 x21:0x80009fff x19=0x00000001
       16305000	      1629	800038b4	fc110e03	lb	x28,-63(x2)	  x2:0x80008c56 x28=0xfffffffc PA:0x80008c17
       16315000	      1630	800038b8	018a41b3	xor	x3,x20,x24	 x20:0x76653800 x24:0x00000068  x3=0x76653868
       16325000	      1631	800038bc	f8f14403	lbu	x8,-113(x2)	  x2:0x80008c56  x8=0x00000000 PA:0x80008be5
       16335000	      1632	800038c0	edc69d37	lui	x26,0xedc69	 x26=0xedc69000
       16345000	      1633	800038c4	fbb12523	sw	x27,-86(x2)	  x2:0x80008c56 x27:0x00000000 PA:0x80008c00
       16355000	      1634	800038c8	0f012d23	sw	x16,250(x2)	  x2:0x80008c56 x16:0xfffffcf4 PA:0x80008d50
       16365000	      1635	800038cc	02212983	lw	x19,34(x2)	  x2:0x80008c56 x19=0x60616263 PA:0x80008c78
       16375000	      1636	800038d0	fda11723	sh	x26,-50(x2)	  x2:0x80008c56 x26:0xedc69000 PA:0x80008c24
       16385000	      1637	800038d4	0e211603	lh	x12,226(x2)	  x2:0x80008c56 x12=0x00002223 PA:0x80008d38
       16395000	      1638	800038d8	f7f14d03	lbu	x26,-129(x2)	  x2:0x80008c56 x26=0x000000be PA:0x80008bd5
       16405000	      1639	800038dc	fe910ea3	sb	x9,-3(x2)	  x2:0x80008c56  x9:0x00000000 PA:0x80008c53
       16415000	      1640	800038e0	01db9ab3	sll	x21,x23,x29	 x23:0xfffffe1c x29:0x00000004 x21=0xffffe1c0
       16425000	      1641	800038e4	419b8e33	sub	x28,x23,x25	 x23:0xfffffe1c x25:0x80009fc5 x28=0x7fff5e57
       16435000	      1642	800038e8	a88d4e37	lui	x28,0xa88d4	 x28=0xa88d4000
       16445000	      1643	800038ec	fec10003	lb	x0,-20(x2)	  x2:0x80008c56 PA:0x80008c42
       16455000	      1644	800038f0	5e19fc37	lui	x24,0x5e19f	 x24=0x5e19f000
       16465000	      1645	800038f4	f9114683	lbu	x13,-111(x2)	  x2:0x80008c56 x13=0x00000000 PA:0x80008be7
       16475000	      1646	800038f8	408f5733	sra	x14,x30,x8	 x30:0x0000007d  x8:0x00000000 x14=0x0000007d
       16485000	      1647	800038fc	01910f03	lb	x30,25(x2)	  x2:0x80008c56 x30=0x00000054 PA:0x80008c6f
       16495000	      1648	80003900	01415083	lhu	x1,20(x2)	  x2:0x80008c56  x1=0x00005051 PA:0x80008c6a
       16505000	      1649	80003904	002b7633	and	x12,x22,x2	 x22:0xfffff7af  x2:0x80008c56 x12=0x80008406
       16515000	      1650	80003908	0a614603	lbu	x12,166(x2)	  x2:0x80008c56 x12=0x000000e7 PA:0x80008cfc
       16525000	      1651	8000390c	43d38313	addi	x6,x7,1085	  x7:0x00000001  x6=0x0000043e
       16535000	      1652	80003910	f8b10e83	lb	x29,-117(x2)	  x2:0x80008c56 x29=0xffffffca PA:0x80008be1
       16545000	      1653	80003914	0e910083	lb	x1,233(x2)	  x2:0x80008c56  x1=0x00000024 PA:0x80008d3f
       16555000	      1654	80003918	06b10e83	lb	x29,107(x2)	  x2:0x80008c56 x29=0xffffffaa PA:0x80008cc1
       16565000	      1655	8000391c	99aae793	ori	x15,x21,-1638	 x21:0xffffe1c0 x15=0xfffff9da
       16575000	      1656	80003920	0c710583	lb	x11,199(x2)	  x2:0x80008c56 x11=0x00000006 PA:0x80008d1d
       16585000	      1657	80003924	00000013	addi	x0,x0,0	  x0:0x00000000
       16595000	      1658	80003928	0b914703	lbu	x14,185(x2)	  x2:0x80008c56 x14=0x000000f4 PA:0x80008d0f
       16605000	      1659	8000392c	27516393	ori	x7,x2,629	  x2:0x80008c56  x7=0x80008e77
       16615000	      1660	80003930	f9612a83	lw	x21,-106(x2)	  x2:0x80008c56 x21=0xd4d5d6d7 PA:0x80008bec
       16625000	      1661	80003934	00005d17	auipc	x26,0x5	 x26=0x80008930
       16635000	      1662	80003938	35ed0d13	addi	x26,x26,862	 x26:0x80008930 x26=0x80008c8e
       16645000	      1663	8000393c	0eab2793	slti	x15,x22,234	 x22:0xfffff7af x15=0x00000001
       16655000	      1664	80003940	0d8d5c03	lhu	x24,216(x26)	 x26:0x80008c8e x24=0x00004c4d PA:0x80008d66
       16665000	      1665	80003944	04dd4b03	lbu	x22,77(x26)	 x26:0x80008c8e x22=0x000000c0 PA:0x80008cdb
       16675000	      1666	80003948	fc7d0323	sb	x7,-58(x26)	 x26:0x80008c8e  x7:0x80008e77 PA:0x80008c54
       16685000	      1667	8000394c	ecf1ce13	xori	x28,x3,-305	  x3:0x76653868 x28=0x899ac6a7
       16695000	      1668	80003950	f0dd0103	lb	x2,-243(x26)	 x26:0x80008c8e  x2=0xffffff80 PA:0x80008b9b
       16705000	      1669	80003954	065d4383	lbu	x7,101(x26)	 x26:0x80008c8e  x7=0x000000d8 PA:0x80008cf3
       16715000	      1670	80003958	f35d0583	lb	x11,-203(x26)	 x26:0x80008c8e x11=0xffffffa8 PA:0x80008bc3
       16725000	      1671	8000395c	400d5eb3	sra	x29,x26,x0	 x26:0x80008c8e  x0:0x00000000 x29=0x80008c8e
       16735000	      1672	80003960	02a9a993	slti	x19,x19,42	 x19:0x60616263 x19=0x00000000
       16745000	      1673	80003964	ff1d4283	lbu	x5,-15(x26)	 x26:0x80008c8e  x5=0x00000064 PA:0x80008c7f
       16755000	      1674	80003968	38ce4a93	xori	x21,x28,908	 x28:0x899ac6a7 x21=0x899ac52b
       16765000	      1675	8000396c	fa3d2323	sw	x3,-90(x26)	 x26:0x80008c8e  x3:0x76653868 PA:0x80008c34
       16775000	      1676	80003970	006d1003	lh	x0,6(x26)	 x26:0x80008c8e PA:0x80008c94
       16785000	      1677	80003974	0b9d0e23	sb	x25,188(x26)	 x26:0x80008c8e x25:0x80009fc5 PA:0x80008d4a
       16795000	      1678	80003978	016f8033	add	x0,x31,x22	 x31:0x000000b4 x22:0x000000c0
       16805000	      1679	8000397c	f6ad5583	lhu	x11,-150(x26)	 x26:0x80008c8e x11=0x0000e2e3 PA:0x80008bf8
       16815000	      1680	80003980	405a0333	sub	x6,x20,x5	 x20:0x76653800  x5:0x00000064  x6=0x7665379c
       16825000	      1681	80003984	411e0833	sub	x16,x28,x17	 x28:0x899ac6a7 x17:0xffffffbe x16=0x899ac6e9
       16835000	      1682	80003988	f8fd1223	sh	x15,-124(x26)	 x26:0x80008c8e x15:0x00000001 PA:0x80008c12
       16845000	      1683	8000398c	fa4d0683	lb	x13,-92(x26)	 x26:0x80008c8e x13=0x00000019 PA:0x80008c32
       16855000	      1684	80003990	662ccb13	xori	x22,x25,1634	 x25:0x80009fc5 x22=0x800099a7
       16865000	      1685	80003994	0b5d0203	lb	x4,181(x26)	 x26:0x80008c8e  x4=0x00000028 PA:0x80008d43
       16875000	      1686	80003998	f66d1423	sh	x6,-152(x26)	 x26:0x80008c8e  x6:0x7665379c PA:0x80008bf6
       16885000	      1687	8000399c	ff0d0c23	sb	x16,-8(x26)	 x26:0x80008c8e x16:0x899ac6e9 PA:0x80008c86
       16895000	      1688	800039a0	09ad1083	lh	x1,154(x26)	 x26:0x80008c8e  x1=0x00001213 PA:0x80008d28
       16905000	      1689	800039a4	41755ab3	sra	x21,x10,x23	 x10:0x80009fc4 x23:0xfffffe1c x21=0xfffffff8
       16915000	      1690	800039a8	0038ef33	or	x30,x17,x3	 x17:0xffffffbe  x3:0x76653868 x30=0xfffffffe
       16925000	      1691	800039ac	01949733	sll	x14,x9,x25	  x9:0x00000000 x25:0x80009fc5 x14=0x00000000
       16935000	      1692	800039b0	f53d4983	lbu	x19,-173(x26)	 x26:0x80008c8e x19=0x000000ca PA:0x80008be1
       16945000	      1693	800039b4	1b55b693	sltiu	x13,x11,437	 x11:0x0000e2e3 x13=0x00000000
       16955000	      1694	800039b8	c1710e13	addi	x28,x2,-1001	  x2:0xffffff80 x28=0xfffffb97
       16965000	      1695	800039bc	0d0d07a3	sb	x16,207(x26)	 x26:0x80008c8e x16:0x899ac6e9 PA:0x80008d5d
       16975000	      1696	800039c0	009f82b3	add	x5,x31,x9	 x31:0x000000b4  x9:0x00000000  x5=0x000000b4
       16985000	      1697	800039c4	27f23813	sltiu	x16,x4,639	  x4:0x00000028 x16=0x00000001
       16995000	      1698	800039c8	05bf7b93	andi	x23,x30,91	 x30:0xfffffffe x23=0x0000005a
       17005000	      1699	800039cc	0d6d0523	sb	x22,202(x26)	 x26:0x80008c8e x22:0x800099a7 PA:0x80008d58
       17015000	      1700	800039d0	06fd03a3	sb	x15,103(x26)	 x26:0x80008c8e x15:0x00000001 PA:0x80008cf5
       17025000	      1701	800039d4	fd4d5683	lhu	x13,-44(x26)	 x26:0x80008c8e x13=0x00004849 PA:0x80008c62
       17035000	      1702	800039d8	f8cd4783	lbu	x15,-116(x26)	 x26:0x80008c8e x15=0x00000001 PA:0x80008c1a
       17045000	      1703	800039dc	01434233	xor	x4,x6,x20	  x6:0x7665379c x20:0x76653800  x4=0x00000f9c
       17055000	      1704	800039e0	f2cd5e03	lhu	x28,-212(x26)	 x26:0x80008c8e x28=0x0000a0a1 PA:0x80008bba
       17065000	      1705	800039e4	fb9d0783	lb	x15,-71(x26)	 x26:0x80008c8e x15=0x0000002c PA:0x80008c47
       17075000	      1706	800039e8	f48d0e83	lb	x29,-184(x26)	 x26:0x80008c8e x29=0xffffffbd PA:0x80008bd6
       17085000	      1707	800039ec	00005997	auipc	x19,0x5	 x19=0x800089e8
       17095000	      1708	800039f0	52998993	addi	x19,x19,1321	 x19:0x800089e8 x19=0x80008f11
       17105000	      1709	800039f4	f7e98d03	lb	x26,-130(x19)	 x19:0x80008f11 x26=0x00000074 PA:0x80008e8f
       17115000	      1710	800039f8	06f98003	lb	x0,111(x19)	 x19:0x80008f11 PA:0x80008f80
       17125000	      1711	800039fc	ba0e9b17	auipc	x22,0xba0e9	 x22=0x3a0ec9f8
       17135000	      1712	80003a00	0bc98083	lb	x1,188(x19)	 x19:0x80008f11  x1=0xffffffb6 PA:0x80008fcd
       17145000	      1713	80003a04	00399103	lh	x2,3(x19)	 x19:0x80008f11  x2=0xfffffeff PA:0x80008f14
       17155000	      1714	80003a08	08a98a23	sb	x10,148(x19)	 x19:0x80008f11 x10:0x80009fc4 PA:0x80008fa5
       17165000	      1715	80003a0c	01d29b13	slli	x22,x5,0x1d	  x5:0x000000b4 x22=0x80000000
       17175000	      1716	80003a10	0179dfb3	srl	x31,x19,x23	 x19:0x80008f11 x23:0x0000005a x31=0x00000020
       17185000	      1717	80003a14	01e5e333	or	x6,x11,x30	 x11:0x0000e2e3 x30:0xfffffffe  x6=0xffffffff
       17195000	      1718	80003a18	8f3a33b7	lui	x7,0x8f3a3	  x7=0x8f3a3000
       17205000	      1719	80003a1c	06898ba3	sb	x8,119(x19)	 x19:0x80008f11  x8:0x00000000 PA:0x80008f88
       17215000	      1720	80003a20	019613b3	sll	x7,x12,x25	 x12:0x000000e7 x25:0x80009fc5  x7=0x00001ce0
       17225000	      1721	80003a24	56fceb97	auipc	x23,0x56fce	 x23=0xd6fd1a20
       17235000	      1722	80003a28	01197133	and	x2,x18,x17	 x18:0x80009efc x17:0xffffffbe  x2=0x80009ebc
       17245000	      1723	80003a2c	00000013	addi	x0,x0,0	  x0:0x00000000
       17255000	      1724	80003a30	fc29cc83	lbu	x25,-62(x19)	 x19:0x80008f11 x25=0x000000b8 PA:0x80008ed3
       17265000	      1725	80003a34	0c69c183	lbu	x3,198(x19)	 x19:0x80008f11  x3=0x000000bc PA:0x80008fd7
       17275000	      1726	80003a38	014e8133	add	x2,x29,x20	 x29:0xffffffbd x20:0x76653800  x2=0x766537bd
       17285000	      1727	80003a3c	2ca62793	slti	x15,x12,714	 x12:0x000000e7 x15=0x00000001
       17295000	      1728	80003a40	0d598103	lb	x2,213(x19)	 x19:0x80008f11  x2=0xffffffcd PA:0x80008fe6
       17305000	      1729	80003a44	01f91c33	sll	x24,x18,x31	 x18:0x80009efc x31:0x00000020 x24=0x80009efc
       17315000	      1730	80003a48	00bcd393	srli	x7,x25,0xb	 x25:0x000000b8  x7=0x00000000
       17325000	      1731	80003a4c	00b90d33	add	x26,x18,x11	 x18:0x80009efc x11:0x0000e2e3 x26=0x800181df
       17335000	      1732	80003a50	012edeb3	srl	x29,x29,x18	 x29:0xffffffbd x18:0x80009efc x29=0x0000000f
       17345000	      1733	80003a54	361358b7	lui	x17,0x36135	 x17=0x36135000
       17355000	      1734	80003a58	78714193	xori	x3,x2,1927	  x2:0xffffffcd  x3=0xfffff84a
       17365000	      1735	80003a5c	0479dc03	lhu	x24,71(x19)	 x19:0x80008f11 x24=0x00004243 PA:0x80008f58
       17375000	      1736	80003a60	01998c23	sb	x25,24(x19)	 x19:0x80008f11 x25:0x000000b8 PA:0x80008f29
       17385000	      1737	80003a64	fbc981a3	sb	x28,-93(x19)	 x19:0x80008f11 x28:0x0000a0a1 PA:0x80008eb4
       17395000	      1738	80003a68	a59a5397	auipc	x7,0xa59a5	  x7=0x259a8a64
       17405000	      1739	80003a6c	8464bc93	sltiu	x25,x9,-1978	  x9:0x00000000 x25=0x00000001
       17415000	      1740	80003a70	08598f23	sb	x5,158(x19)	 x19:0x80008f11  x5:0x000000b4 PA:0x80008faf
       17425000	      1741	80003a74	002363b3	or	x7,x6,x2	  x6:0xffffffff  x2:0xffffffcd  x7=0xffffffff
       17435000	      1742	80003a78	01f22d33	slt	x26,x4,x31	  x4:0x00000f9c x31:0x00000020 x26=0x00000000
       17445000	      1743	80003a7c	01c6fab3	and	x21,x13,x28	 x13:0x00004849 x28:0x0000a0a1 x21=0x00000001
       17455000	      1744	80003a80	f009c603	lbu	x12,-256(x19)	 x19:0x80008f11 x12=0x000000fa PA:0x80008e11
       17465000	      1745	80003a84	00005197	auipc	x3,0x5	  x3=0x80008a80
       17475000	      1746	80003a88	fe418193	addi	x3,x3,-28	  x3:0x80008a80  x3=0x80008a64
       17485000	      1747	80003a8c	40e48433	sub	x8,x9,x14	  x9:0x00000000 x14:0x00000000  x8=0x00000000
       17495000	      1748	80003a90	00c952b3	srl	x5,x18,x12	 x18:0x80009efc x12:0x000000fa  x5=0x00000020
       17505000	      1749	80003a94	ff918da3	sb	x25,-5(x3)	  x3:0x80008a64 x25:0x00000001 PA:0x80008a5f
       17515000	      1750	80003a98	ff8188a3	sb	x24,-15(x3)	  x3:0x80008a64 x24:0x00004243 PA:0x80008a55
       17525000	      1751	80003a9c	00c19e03	lh	x28,12(x3)	  x3:0x80008a64 x28=0x00005a5b PA:0x80008a70
       17535000	      1752	80003aa0	00619683	lh	x13,6(x3)	  x3:0x80008a64 x13=0x00005051 PA:0x80008a6a
       17545000	      1753	80003aa4	01b55e13	srli	x28,x10,0x1b	 x10:0x80009fc4 x28=0x00000010
       17555000	      1754	80003aa8	ff51ae23	sw	x21,-4(x3)	  x3:0x80008a64 x21:0x00000001 PA:0x80008a60
       17565000	      1755	80003aac	0029d893	srli	x17,x19,0x2	 x19:0x80008f11 x17=0x200023c4
       17575000	      1756	80003ab0	fff1c483	lbu	x9,-1(x3)	  x3:0x80008a64  x9=0x00000000 PA:0x80008a63
       17585000	      1757	80003ab4	ff219983	lh	x19,-14(x3)	  x3:0x80008a64 x19=0x00003c3d PA:0x80008a56
       17595000	      1758	80003ab8	0061c083	lbu	x1,6(x3)	  x3:0x80008a64  x1=0x00000051 PA:0x80008a6a
       17605000	      1759	80003abc	01d11713	slli	x14,x2,0x1d	  x2:0xffffffcd x14=0xa0000000
       17615000	      1760	80003ac0	fecb6f17	auipc	x30,0xfecb6	 x30=0x7ecb9abc
       17625000	      1761	80003ac4	00918003	lb	x0,9(x3)	  x3:0x80008a64 PA:0x80008a6d
       17635000	      1762	80003ac8	01e7d013	srli	x0,x15,0x1e	 x15:0x00000001
       17645000	      1763	80003acc	01019c83	lh	x25,16(x3)	  x3:0x80008a64 x25=0x00005e5f PA:0x80008a74
       17655000	      1764	80003ad0	ffc18403	lb	x8,-4(x3)	  x3:0x80008a64  x8=0x00000001 PA:0x80008a60
       17665000	      1765	80003ad4	000089b3	add	x19,x1,x0	  x1:0x00000051  x0:0x00000000 x19=0x00000051
       17675000	      1766	80003ad8	00c1de03	lhu	x28,12(x3)	  x3:0x80008a64 x28=0x00005a5b PA:0x80008a70
       17685000	      1767	80003adc	4fe0e413	ori	x8,x1,1278	  x1:0x00000051  x8=0x000004ff
       17695000	      1768	80003ae0	010d9f33	sll	x30,x27,x16	 x27:0x00000000 x16:0x00000001 x30=0x00000000
       17705000	      1769	80003ae4	003b3233	sltu	x4,x22,x3	 x22:0x80000000  x3:0x80008a64  x4=0x00000001
       17715000	      1770	80003ae8	01d5a433	slt	x8,x11,x29	 x11:0x0000e2e3 x29:0x0000000f  x8=0x00000000
       17725000	      1771	80003aec	01d35a93	srli	x21,x6,0x1d	  x6:0xffffffff x21=0x00000007
       17735000	      1772	80003af0	00000013	addi	x0,x0,0	  x0:0x00000000
       17745000	      1773	80003af4	40175a33	sra	x20,x14,x1	 x14:0xa0000000  x1:0x00000051 x20=0xffffd000
       17755000	      1774	80003af8	fff1ce83	lbu	x29,-1(x3)	  x3:0x80008a64 x29=0x00000000 PA:0x80008a63
       17765000	      1775	80003afc	ff31aa23	sw	x19,-12(x3)	  x3:0x80008a64 x19:0x00000051 PA:0x80008a58
       17775000	      1776	80003b00	00b18983	lb	x19,11(x3)	  x3:0x80008a64 x19=0x00000054 PA:0x80008a6f
       17785000	      1777	80003b04	01018203	lb	x4,16(x3)	  x3:0x80008a64  x4=0x0000005f PA:0x80008a74
       17795000	      1778	80003b08	00318823	sb	x3,16(x3)	  x3:0x80008a64  x3:0x80008a64 PA:0x80008a74
       17805000	      1779	80003b0c	3deee237	lui	x4,0x3deee	  x4=0x3deee000
       17815000	      1780	80003b10	ff31c003	lbu	x0,-13(x3)	  x3:0x80008a64 PA:0x80008a57
       17825000	      1781	80003b14	00005117	auipc	x2,0x5	  x2=0x80008b10
       17835000	      1782	80003b18	fb210113	addi	x2,x2,-78	  x2:0x80008b10  x2=0x80008ac2
       17845000	      1783	80003b1c	43b14203	lbu	x4,1083(x2)	  x2:0x80008ac2  x4=0x000000e6 PA:0x80008efd
       17855000	      1784	80003b20	50e11223	sh	x14,1284(x2)	  x2:0x80008ac2 x14:0xa0000000 PA:0x80008fc6
       17865000	      1785	80003b24	48612303	lw	x6,1158(x2)	  x2:0x80008ac2  x6=0x30313233 PA:0x80008f48
       17875000	      1786	80003b28	dd710f83	lb	x31,-553(x2)	  x2:0x80008ac2 x31=0xffffff82 PA:0x80008899
       17885000	      1787	80003b2c	4cd11723	sh	x13,1230(x2)	  x2:0x80008ac2 x13:0x00005051 PA:0x80008f90
       17895000	      1788	80003b30	3b815983	lhu	x19,952(x2)	  x2:0x80008ac2 x19=0x00006061 PA:0x80008e7a
       17905000	      1789	80003b34	40d68f33	sub	x30,x13,x13	 x13:0x00005051 x13:0x00005051 x30=0x00000000
       17915000	      1790	80003b38	fa910f03	lb	x30,-87(x2)	  x2:0x80008ac2 x30=0x00000050 PA:0x80008a6b
       17925000	      1791	80003b3c	00e9d593	srli	x11,x19,0xe	 x19:0x00006061 x11=0x00000001
       17935000	      1792	80003b40	015e4fb3	xor	x31,x28,x21	 x28:0x00005a5b x21:0x00000007 x31=0x00005a5c
       17945000	      1793	80003b44	2f610e83	lb	x29,758(x2)	  x2:0x80008ac2 x29=0xffffffa3 PA:0x80008db8
       17955000	      1794	80003b48	26011c03	lh	x24,608(x2)	  x2:0x80008ac2 x24=0x00000809 PA:0x80008d22
       17965000	      1795	80003b4c	17910003	lb	x0,377(x2)	  x2:0x80008ac2 PA:0x80008c3b
       17975000	      1796	80003b50	fe414403	lbu	x8,-28(x2)	  x2:0x80008ac2  x8=0x0000008d PA:0x80008aa6
       17985000	      1797	80003b54	41935993	srai	x19,x6,0x19	  x6:0x30313233 x19=0x00000018
       17995000	      1798	80003b58	6ad6cc17	auipc	x24,0x6ad6c	 x24=0xead6fb54
       18005000	      1799	80003b5c	25b10403	lb	x8,603(x2)	  x2:0x80008ac2  x8=0x00000006 PA:0x80008d1d
       18015000	      1800	80003b60	d7f14883	lbu	x17,-641(x2)	  x2:0x80008ac2 x17=0x0000002a PA:0x80008841
       18025000	      1801	80003b64	4eb14b03	lbu	x22,1259(x2)	  x2:0x80008ac2 x22=0x00000096 PA:0x80008fad
       18035000	      1802	80003b68	fa514583	lbu	x11,-91(x2)	  x2:0x80008ac2 x11=0x0000004c PA:0x80008a67
       18045000	      1803	80003b6c	da5103a3	sb	x5,-601(x2)	  x2:0x80008ac2  x5:0x00000020 PA:0x80008869
       18055000	      1804	80003b70	eb4105a3	sb	x20,-341(x2)	  x2:0x80008ac2 x20:0xffffd000 PA:0x8000896d
       18065000	      1805	80003b74	2e310fa3	sb	x3,767(x2)	  x2:0x80008ac2  x3:0x80008a64 PA:0x80008dc1
       18075000	      1806	80003b78	00000013	addi	x0,x0,0	  x0:0x00000000
       18085000	      1807	80003b7c	00000013	addi	x0,x0,0	  x0:0x00000000
       18095000	      1808	80003b80	41a15bb3	sra	x23,x2,x26	  x2:0x80008ac2 x26:0x00000000 x23=0x80008ac2
       18105000	      1809	80003b84	f4312323	sw	x3,-186(x2)	  x2:0x80008ac2  x3:0x80008a64 PA:0x80008a08
       18115000	      1810	80003b88	40fddfb3	sra	x31,x27,x15	 x27:0x00000000 x15:0x00000001 x31=0x00000000
       18125000	      1811	80003b8c	018f8733	add	x14,x31,x24	 x31:0x00000000 x24:0xead6fb54 x14=0xead6fb54
       18135000	      1812	80003b90	dd314b03	lbu	x22,-557(x2)	  x2:0x80008ac2 x22=0x0000007e PA:0x80008895
       18145000	      1813	80003b94	dc410a03	lb	x20,-572(x2)	  x2:0x80008ac2 x20=0x0000006d PA:0x80008886
       18155000	      1814	80003b98	3db10303	lb	x6,987(x2)	  x2:0x80008ac2  x6=0xffffff86 PA:0x80008e9d
       18165000	      1815	80003b9c	00000013	addi	x0,x0,0	  x0:0x00000000
       18175000	      1816	80003ba0	01fcf1b3	and	x3,x25,x31	 x25:0x00005e5f x31:0x00000000  x3=0x00000000
       18185000	      1817	80003ba4	32010d03	lb	x26,800(x2)	  x2:0x80008ac2 x26=0xffffffc9 PA:0x80008de2
       18195000	      1818	80003ba8	3a211b83	lh	x23,930(x2)	  x2:0x80008ac2 x23=0xffff8000 PA:0x80008e64
       18205000	      1819	80003bac	e3c10a23	sb	x28,-460(x2)	  x2:0x80008ac2 x28:0x00005a5b PA:0x800088f6
       18215000	      1820	80003bb0	0054b633	sltu	x12,x9,x5	  x9:0x00000000  x5:0x00000020 x12=0x00000001
       18225000	      1821	80003bb4	4d910783	lb	x15,1241(x2)	  x2:0x80008ac2 x15=0xffffff80 PA:0x80008f9b
       18235000	      1822	80003bb8	00005117	auipc	x2,0x5	  x2=0x80008bb4
       18245000	      1823	80003bbc	02210113	addi	x2,x2,34	  x2:0x80008bb4  x2=0x80008bd6
       18255000	      1824	80003bc0	d0dd4093	xori	x1,x26,-755	 x26:0xffffffc9  x1=0x000002c4
       18265000	      1825	80003bc4	05111023	sh	x17,64(x2)	  x2:0x80008bd6 x17:0x0000002a PA:0x80008c16
       18275000	      1826	80003bc8	ff615083	lhu	x1,-10(x2)	  x2:0x80008bd6  x1=0x0000b6b7 PA:0x80008bcc
       18285000	      1827	80003bcc	01e15f03	lhu	x30,30(x2)	  x2:0x80008bd6 x30=0x0000dedf PA:0x80008bf4
       18295000	      1828	80003bd0	003b7eb3	and	x29,x22,x3	 x22:0x0000007e  x3:0x00000000 x29=0x00000000
       18305000	      1829	80003bd4	00559c93	slli	x25,x11,0x5	 x11:0x0000004c x25=0x00000980
       18315000	      1830	80003bd8	03b14c03	lbu	x24,59(x2)	  x2:0x80008bd6 x24=0x000000fa PA:0x80008c11
       18325000	      1831	80003bdc	02d10603	lb	x12,45(x2)	  x2:0x80008bd6 x12=0x00000000 PA:0x80008c03
       18335000	      1832	80003be0	00e15a83	lhu	x21,14(x2)	  x2:0x80008bd6 x21=0x000000e2 PA:0x80008be4
       18345000	      1833	80003be4	e106f993	andi	x19,x13,-496	 x13:0x00005051 x19=0x00005010
       18355000	      1834	80003be8	fdf14d03	lbu	x26,-33(x2)	  x2:0x80008bd6 x26=0x0000009e PA:0x80008bb5
       18365000	      1835	80003bec	fc514983	lbu	x19,-59(x2)	  x2:0x80008bd6 x19=0x00000080 PA:0x80008b9b
       18375000	      1836	80003bf0	d2ab2013	slti	x0,x22,-726	 x22:0x0000007e
       18385000	      1837	80003bf4	01e14183	lbu	x3,30(x2)	  x2:0x80008bd6  x3=0x000000df PA:0x80008bf4
       18395000	      1838	00000000	00000013	addi	x0,x0,0	  x0:0x00000000
       18405000	      1839	80003bf8	0011fd33	and	x26,x3,x1	  x3:0x000000df  x1:0x0000b6b7 x26=0x00000097
       18415000	      1840	80003bfc	fe114c83	lbu	x25,-31(x2)	  x2:0x80008bd6 x25=0x0000009c PA:0x80008bb7
       18425000	      1841	80003c00	00614b03	lbu	x22,6(x2)	  x2:0x80008bd6 x22=0x000000c7 PA:0x80008bdc
       18435000	      1842	80003c04	037101a3	sb	x23,35(x2)	  x2:0x80008bd6 x23:0xffff8000 PA:0x80008bf9
       18445000	      1843	80003c08	fe8104a3	sb	x8,-23(x2)	  x2:0x80008bd6  x8:0x00000006 PA:0x80008bbf
       18455000	      1844	80003c0c	02810f03	lb	x30,40(x2)	  x2:0x80008bd6 x30=0xffffffe5 PA:0x80008bfe
       18465000	      1845	80003c10	02b14d03	lbu	x26,43(x2)	  x2:0x80008bd6 x26=0x00000000 PA:0x80008c01
       18475000	      1846	80003c14	00b80833	add	x16,x16,x11	 x16:0x00000001 x11:0x0000004c x16=0x0000004d
       18485000	      1847	80003c18	03c10783	lb	x15,60(x2)	  x2:0x80008bd6 x15=0x00000001 PA:0x80008c12
       18495000	      1848	80003c1c	feb10703	lb	x14,-21(x2)	  x2:0x80008bd6 x14=0xffffffaa PA:0x80008bc1
       18505000	      1849	80003c20	015103a3	sb	x21,7(x2)	  x2:0x80008bd6 x21:0x000000e2 PA:0x80008bdd
       18515000	      1850	80003c24	fc114883	lbu	x17,-63(x2)	  x2:0x80008bd6 x17=0x0000007c PA:0x80008b97
       18525000	      1851	80003c28	2db92e13	slti	x28,x18,731	 x18:0x80009efc x28=0x00000001
       18535000	      1852	80003c2c	00d14583	lbu	x11,13(x2)	  x2:0x80008bd6 x11=0x000000c8 PA:0x80008be3
       18545000	      1853	80003c30	fee10583	lb	x11,-18(x2)	  x2:0x80008bd6 x11=0xffffffaf PA:0x80008bc4
       18555000	      1854	80003c34	f2086437	lui	x8,0xf2086	  x8=0xf2086000
       18565000	      1855	80003c38	0d1b4593	xori	x11,x22,209	 x22:0x000000c7 x11=0x00000016
       18575000	      1856	80003c3c	fed103a3	sb	x13,-25(x2)	  x2:0x80008bd6 x13:0x00005051 PA:0x80008bbd
       18585000	      1857	80003c40	02c11a03	lh	x20,44(x2)	  x2:0x80008bd6 x20=0x00000000 PA:0x80008c02
       18595000	      1858	80003c44	ff510e03	lb	x28,-11(x2)	  x2:0x80008bd6 x28=0xffffffb0 PA:0x80008bcb
       18605000	      1859	80003c48	fd1109a3	sb	x17,-45(x2)	  x2:0x80008bd6 x17:0x0000007c PA:0x80008ba9
       18615000	      1860	80003c4c	01590c33	add	x24,x18,x21	 x18:0x80009efc x21:0x000000e2 x24=0x80009fde
       18625000	      1861	80003c50	a093c793	xori	x15,x7,-1527	  x7:0xffffffff x15=0x000005f6
       18635000	      1862	80003c54	775ff593	andi	x11,x31,1909	 x31:0x00000000 x11=0x00000000
       18645000	      1863	80003c58	fd510d23	sb	x21,-38(x2)	  x2:0x80008bd6 x21:0x000000e2 PA:0x80008bb0
       18655000	      1864	80003c5c	01212683	lw	x13,18(x2)	  x2:0x80008bd6 x13=0xd0d1d2d3 PA:0x80008be8
       18665000	      1865	80003c60	02014083	lbu	x1,32(x2)	  x2:0x80008bd6  x1=0x0000009c PA:0x80008bf6
       18675000	      1866	80003c64	03e104a3	sb	x30,41(x2)	  x2:0x80008bd6 x30:0xffffffe5 PA:0x80008bff
       18685000	      1867	80003c68	00510803	lb	x16,5(x2)	  x2:0x80008bd6 x16=0xffffffc0 PA:0x80008bdb
       18695000	      1868	80003c6c	00005297	auipc	x5,0x5	  x5=0x80008c68
       18705000	      1869	80003c70	ce028293	addi	x5,x5,-800	  x5:0x80008c68  x5=0x80008948
       18715000	      1870	80003c74	13e29203	lh	x4,318(x5)	  x5:0x80008948  x4=0x00006c6d PA:0x80008a86
       18725000	      1871	80003c78	4ab2cb83	lbu	x23,1195(x5)	  x5:0x80008948 x23=0x000000d8 PA:0x80008df3
       18735000	      1872	00000000	00000013	addi	x0,x0,0	  x0:0x00000000
       18745000	      1873	80003c7c	0173fc33	and	x24,x7,x23	  x7:0xffffffff x23:0x000000d8 x24=0x000000d8
       18755000	      1874	80003c80	3a728003	lb	x0,935(x5)	  x5:0x80008948 PA:0x80008cef
       18765000	      1875	80003c84	29a288a3	sb	x26,657(x5)	  x5:0x80008948 x26:0x00000000 PA:0x80008bd9
       18775000	      1876	80003c88	4a52cc03	lbu	x24,1189(x5)	  x5:0x80008948 x24=0x000000d6 PA:0x80008ded
       18785000	      1877	80003c8c	68a2d183	lhu	x3,1674(x5)	  x5:0x80008948  x3=0x0000b8b9 PA:0x80008fd2
       18795000	      1878	80003c90	018160b3	or	x1,x2,x24	  x2:0x80008bd6 x24:0x000000d6  x1=0x80008bd6
       18805000	      1879	80003c94	00ca38b3	sltu	x17,x20,x12	 x20:0x00000000 x12:0x00000000 x17=0x00000000
       18815000	      1880	80003c98	5332cd03	lbu	x26,1331(x5)	  x5:0x80008948 x26=0x00000060 PA:0x80008e7b
       18825000	      1881	80003c9c	00708b33	add	x22,x1,x7	  x1:0x80008bd6  x7:0xffffffff x22=0x80008bd5
       18835000	      1882	80003ca0	62f28123	sb	x15,1570(x5)	  x5:0x80008948 x15:0x000005f6 PA:0x80008f6a
       18845000	      1883	80003ca4	44b28ba3	sb	x11,1111(x5)	  x5:0x80008948 x11:0x00000000 PA:0x80008d9f
       18855000	      1884	80003ca8	36f28703	lb	x14,879(x5)	  x5:0x80008948 x14=0xffffff9c PA:0x80008cb7
       18865000	      1885	80003cac	0037ee33	or	x28,x15,x3	 x15:0x000005f6  x3:0x0000b8b9 x28=0x0000bdff
       18875000	      1886	80003cb0	01112d33	slt	x26,x2,x17	  x2:0x80008bd6 x17:0x00000000 x26=0x00000001
       18885000	      1887	80003cb4	42728aa3	sb	x7,1077(x5)	  x5:0x80008948  x7:0xffffffff PA:0x80008d7d
       18895000	      1888	80003cb8	3c548f13	addi	x30,x9,965	  x9:0x00000000 x30=0x000003c5
       18905000	      1889	80003cbc	fedf7593	andi	x11,x30,-19	 x30:0x000003c5 x11=0x000003c5
       18915000	      1890	80003cc0	58d64993	xori	x19,x12,1421	 x12:0x00000000 x19=0x0000058d
       18925000	      1891	80003cc4	01efd113	srli	x2,x31,0x1e	 x31:0x00000000  x2=0x00000000
       18935000	      1892	80003cc8	0762dd03	lhu	x26,118(x5)	  x5:0x80008948 x26=0x0000a4a5 PA:0x800089be
       18945000	      1893	80003ccc	00005c17	auipc	x24,0x5	 x24=0x80008cc8
       18955000	      1894	80003cd0	ceac0c13	addi	x24,x24,-790	 x24:0x80008cc8 x24=0x800089b2
       18965000	      1895	80003cd4	00c32333	slt	x6,x6,x12	  x6:0xffffff86 x12:0x00000000  x6=0x00000001
       18975000	      1896	80003cd8	d7c98213	addi	x4,x19,-644	 x19:0x0000058d  x4=0x00000309
       18985000	      1897	80003cdc	00e21413	slli	x8,x4,0xe	  x4:0x00000309  x8=0x00c24000
       18995000	      1898	80003ce0	2e1c0703	lb	x14,737(x24)	 x24:0x800089b2 x14=0x00000078 PA:0x80008c93
       19005000	      1899	80003ce4	411f0633	sub	x12,x30,x17	 x30:0x000003c5 x17:0x00000000 x12=0x000003c5
       19015000	      1900	80003ce8	eb5c0203	lb	x4,-331(x24)	 x24:0x800089b2  x4=0x0000004c PA:0x80008867
       19025000	      1901	80003cec	ea1c00a3	sb	x1,-351(x24)	 x24:0x800089b2  x1:0x80008bd6 PA:0x80008853
       19035000	      1902	80003cf0	4cfc0a83	lb	x21,1231(x24)	 x24:0x800089b2 x21=0xffffffff PA:0x80008e81
       19045000	      1903	80003cf4	0110c233	xor	x4,x1,x17	  x1:0x80008bd6 x17:0x00000000  x4=0x80008bd6
       19055000	      1904	80003cf8	40d85b13	srai	x22,x16,0xd	 x16:0xffffffc0 x22=0xffffffff
       19065000	      1905	80003cfc	2c67f9b7	lui	x19,0x2c67f	 x19=0x2c67f000
       19075000	      1906	80003d00	259c0003	lb	x0,601(x24)	 x24:0x800089b2 PA:0x80008c0b
       19085000	      1907	80003d04	3d9c0803	lb	x16,985(x24)	 x24:0x800089b2 x16=0x00000070 PA:0x80008d8b
       19095000	      1908	80003d08	f1dfbf17	auipc	x30,0xf1dfb	 x30=0x71dfed04
       19105000	      1909	80003d0c	65a94193	xori	x3,x18,1626	 x18:0x80009efc  x3=0x800098a6
       19115000	      1910	80003d10	206c2f83	lw	x31,518(x24)	 x24:0x800089b2 x31=0xa0a1a2a3 PA:0x80008bb8
       19125000	      1911	80003d14	e87c4103	lbu	x2,-377(x24)	 x24:0x800089b2  x2=0x00000022 PA:0x80008839
       19135000	      1912	00000000	00000013	addi	x0,x0,0	  x0:0x00000000
       19145000	      1913	80003d18	40295813	srai	x16,x18,0x2	 x18:0x80009efc x16=0xe00027bf
       19155000	      1914	80003d1c	00e99d33	sll	x26,x19,x14	 x19:0x2c67f000 x14:0x00000078 x26=0x00000000
       19165000	      1915	80003d20	00869893	slli	x17,x13,0x8	 x13:0xd0d1d2d3 x17=0xd1d2d300
       19175000	      1916	80003d24	ea7c4683	lbu	x13,-345(x24)	 x24:0x800089b2 x13=0x00000042 PA:0x80008859
       19185000	      1917	80003d28	411b8eb3	sub	x29,x23,x17	 x23:0x000000d8 x17:0xd1d2d300 x29=0x2e2d2dd8
       19195000	      1918	80003d2c	42952017	auipc	x0,0x42952	
       19205000	      1919	80003d30	170c5403	lhu	x8,368(x24)	 x24:0x800089b2  x8=0x00000809 PA:0x80008b22
       19215000	      1920	80003d34	fccc06a3	sb	x12,-51(x24)	 x24:0x800089b2 x12:0x000003c5 PA:0x8000897f
       19225000	      1921	80003d38	01dba6b3	slt	x13,x23,x29	 x23:0x000000d8 x29:0x2e2d2dd8 x13=0x00000001
       19235000	      1922	80003d3c	48b67837	lui	x16,0x48b67	 x16=0x48b67000
       19245000	      1923	80003d40	df826493	ori	x9,x4,-520	  x4:0x80008bd6  x9=0xfffffffe
       19255000	      1924	80003d44	513c0b83	lb	x23,1299(x24)	 x24:0x800089b2 x23=0xffffffae PA:0x80008ec5
       19265000	      1925	80003d48	d9d3c593	xori	x11,x7,-611	  x7:0xffffffff x11=0x00000262
       19275000	      1926	80003d4c	41ec0603	lb	x12,1054(x24)	 x24:0x800089b2 x12=0xffffffbb PA:0x80008dd0
       19285000	      1927	80003d50	01b0deb3	srl	x29,x1,x27	  x1:0x80008bd6 x27:0x00000000 x29=0x80008bd6
       19295000	      1928	80003d54	167c0a03	lb	x20,359(x24)	 x24:0x800089b2 x20=0x00000002 PA:0x80008b19
       19305000	      1929	80003d58	23bc0223	sb	x27,548(x24)	 x24:0x800089b2 x27:0x00000000 PA:0x80008bd6
       19315000	      1930	80003d5c	1d5c4f83	lbu	x31,469(x24)	 x24:0x800089b2 x31=0x0000006c PA:0x80008b87
       19325000	      1931	80003d60	00823133	sltu	x2,x4,x8	  x4:0x80008bd6  x8:0x00000809  x2=0x00000000
       19335000	      1932	80003d64	9dd57317	auipc	x6,0x9dd57	  x6=0x1dd5ad60
       19345000	      1933	80003d68	270c1d03	lh	x26,624(x24)	 x24:0x800089b2 x26=0x00000809 PA:0x80008c22
       19355000	      1934	80003d6c	21ec2e03	lw	x28,542(x24)	 x24:0x800089b2 x28=0xb8b9babb PA:0x80008bd0
       19365000	      1935	80003d70	d2ec0213	addi	x4,x24,-722	 x24:0x800089b2  x4=0x800086e0
       19375000	      1936	80003d74	01aca6b3	slt	x13,x25,x26	 x25:0x0000009c x26:0x00000809 x13=0x00000001
       19385000	      1937	80003d78	fb9c0ca3	sb	x25,-71(x24)	 x24:0x800089b2 x25:0x0000009c PA:0x8000896b
       19395000	      1938	80003d7c	433c4403	lbu	x8,1075(x24)	 x24:0x800089b2  x8=0x000000ce PA:0x80008de5
       19405000	      1939	80003d80	603c0a83	lb	x21,1539(x24)	 x24:0x800089b2 x21=0xffffff9e PA:0x80008fb5
       19415000	      1940	80003d84	00004b17	auipc	x22,0x4	 x22=0x80007d80
       19425000	      1941	80003d88	6feb0b13	addi	x22,x22,1790	 x22:0x80007d80 x22=0x8000847e
       19435000	      1942	80003d8c	416e5ab3	sra	x21,x28,x22	 x28:0xb8b9babb x22:0x8000847e x21=0xfffffffe
       19445000	      1943	80003d90	01001093	slli	x1,x0,0x10	  x0:0x00000000  x1=0x00000000
       19455000	      1944	80003d94	8562ba13	sltiu	x20,x5,-1962	  x5:0x80008948 x20=0x00000001
       19465000	      1945	80003d98	ebbb0da3	sb	x27,-325(x22)	 x22:0x8000847e x27:0x00000000 PA:0x80008339
       19475000	      1946	80003d9c	01a44bb3	xor	x23,x8,x26	  x8:0x000000ce x26:0x00000809 x23=0x000008c7
       19485000	      1947	80003da0	cecb0703	lb	x14,-788(x22)	 x22:0x8000847e x14=0x00000021 PA:0x8000816a
       19495000	      1948	80003da4	7d29ea13	ori	x20,x19,2002	 x19:0x2c67f000 x20=0x2c67f7d2
       19505000	      1949	80003da8	e11b4203	lbu	x4,-495(x22)	 x22:0x8000847e  x4=0x00000044 PA:0x8000828f
       19515000	      1950	80003dac	efeb1283	lh	x5,-258(x22)	 x22:0x8000847e  x5=0x00003637 PA:0x8000837c
       19525000	      1951	80003db0	bccb09a3	sb	x12,-1069(x22)	 x22:0x8000847e x12:0xffffffbb PA:0x80008051
       19535000	      1952	80003db4	e2eb0623	sb	x14,-468(x22)	 x22:0x8000847e x14:0x00000021 PA:0x800082aa
       19545000	      1953	80003db8	06364993	xori	x19,x12,99	 x12:0xffffffbb x19=0xffffffd8
       19555000	      1954	80003dbc	1a6b1f83	lh	x31,422(x22)	 x22:0x8000847e x31=0xffffdedf PA:0x80008624
       19565000	      1955	80003dc0	d9b97593	andi	x11,x18,-613	 x18:0x80009efc x11=0x80009c98
       19575000	      1956	80003dc4	011b4203	lbu	x4,17(x22)	 x22:0x8000847e  x4=0x00000044 PA:0x8000848f
       19585000	      1957	80003dc8	98c39717	auipc	x14,0x98c39	 x14=0x18c3cdc4
       19595000	      1958	80003dcc	f98b4783	lbu	x15,-104(x22)	 x22:0x8000847e x15=0x000000cd PA:0x80008416
       19605000	      1959	80003dd0	189b4803	lbu	x16,393(x22)	 x22:0x8000847e x16=0x000000bc PA:0x80008607
       19615000	      1960	80003dd4	d27b0fa3	sb	x7,-705(x22)	 x22:0x8000847e  x7:0xffffffff PA:0x800081bd
       19625000	      1961	80003dd8	d30eed13	ori	x26,x29,-720	 x29:0x80008bd6 x26=0xfffffff6
       19635000	      1962	80003ddc	ec3b4303	lbu	x6,-317(x22)	 x22:0x8000847e  x6=0x000000fa PA:0x80008341
       19645000	      1963	80003de0	382b4b83	lbu	x23,898(x22)	 x22:0x8000847e x23=0x000000bb PA:0x80008800
       19655000	      1964	80003de4	df3b1a23	sh	x19,-524(x22)	 x22:0x8000847e x19:0xffffffd8 PA:0x80008272
       19665000	      1965	80003de8	058b0f83	lb	x31,88(x22)	 x22:0x8000847e x31=0xffffff8d PA:0x800084d6
       19675000	      1966	80003dec	2d5b4883	lbu	x17,725(x22)	 x22:0x8000847e x17=0x00000008 PA:0x80008753
       19685000	      1967	80003df0	754ae2b7	lui	x5,0x754ae	  x5=0x754ae000
       19695000	      1968	80003df4	32bb4803	lbu	x16,811(x22)	 x22:0x8000847e x16=0x00000062 PA:0x800087a9
       19705000	      1969	00000000	00000013	addi	x0,x0,0	  x0:0x00000000
       19715000	      1970	80003df8	010d0f33	add	x30,x26,x16	 x26:0xfffffff6 x16:0x00000062 x30=0x00000058
       19725000	      1971	80003dfc	29f0b193	sltiu	x3,x1,671	  x1:0x00000000  x3=0x00000001
       19735000	      1972	80003e00	01295233	srl	x4,x18,x18	 x18:0x80009efc x18:0x80009efc  x4=0x00000008
       19745000	      1973	80003e04	4057df93	srai	x31,x15,0x5	 x15:0x000000cd x31=0x00000006
       19755000	      1974	80003e08	061b4303	lbu	x6,97(x22)	 x22:0x8000847e  x6=0x00000094 PA:0x800084df
       19765000	      1975	80003e0c	120b4c03	lbu	x24,288(x22)	 x22:0x8000847e x24=0x00000055 PA:0x8000859e
       19775000	      1976	80003e10	5f06a993	slti	x19,x13,1520	 x13:0x00000001 x19=0x00000001
       19785000	      1977	80003e14	f21b0783	lb	x15,-223(x22)	 x22:0x8000847e x15=0x00000054 PA:0x8000839f
       19795000	      1978	80003e18	00af9e13	slli	x28,x31,0xa	 x31:0x00000006 x28=0x00001800
       19805000	      1979	80003e1c	df1b4e03	lbu	x28,-527(x22)	 x22:0x8000847e x28=0x00000024 PA:0x8000826f
       19815000	      1980	80003e20	00005e97	auipc	x29,0x5	 x29=0x80008e1c
       19825000	      1981	80003e24	ca4e8e93	addi	x29,x29,-860	 x29:0x80008e1c x29=0x80008ac0
       19835000	      1982	80003e28	fe2ed983	lhu	x19,-30(x29)	 x29:0x80008ac0 x19=0x00008889 PA:0x80008aa2
       19845000	      1983	80003e2c	018e9d03	lh	x26,24(x29)	 x29:0x80008ac0 x26=0xffffc2c3 PA:0x80008ad8
       19855000	      1984	80003e30	02ee80a3	sb	x14,33(x29)	 x29:0x80008ac0 x14:0x18c3cdc4 PA:0x80008ae1
       19865000	      1985	80003e34	021e8f03	lb	x30,33(x29)	 x29:0x80008ac0 x30=0xffffffc4 PA:0x80008ae1
       19875000	      1986	80003e38	fd4e8e23	sb	x20,-36(x29)	 x29:0x80008ac0 x20:0x2c67f7d2 PA:0x80008a9c
       19885000	      1987	80003e3c	41c9d113	srai	x2,x19,0x1c	 x19:0x00008889  x2=0x00000000
       19895000	      1988	80003e40	01ce1793	slli	x15,x28,0x1c	 x28:0x00000024 x15=0x40000000
       19905000	      1989	80003e44	007e8203	lb	x4,7(x29)	 x29:0x80008ac0  x4=0xffffffac PA:0x80008ac7
       19915000	      1990	80003e48	01d1d493	srli	x9,x3,0x1d	  x3:0x00000001  x9=0x00000000
       19925000	      1991	80003e4c	6a408697	auipc	x13,0x6a408	 x13=0xea40be48
       19935000	      1992	80003e50	ffce8583	lb	x11,-4(x29)	 x29:0x80008ac0 x11=0xffffffa7 PA:0x80008abc
       19945000	      1993	80003e54	01f97b33	and	x22,x18,x31	 x18:0x80009efc x31:0x00000006 x22=0x00000004
       19955000	      1994	80003e58	fd3ec183	lbu	x3,-45(x29)	 x29:0x80008ac0  x3=0x00000078 PA:0x80008a93
       19965000	      1995	80003e5c	00eec003	lbu	x0,14(x29)	 x29:0x80008ac0 PA:0x80008ace
       19975000	      1996	80003e60	022e82a3	sb	x2,37(x29)	 x29:0x80008ac0  x2:0x00000000 PA:0x80008ae5
       19985000	      1997	80003e64	fd4e9123	sh	x20,-62(x29)	 x29:0x80008ac0 x20:0x2c67f7d2 PA:0x80008a82
       19995000	      1998	80003e68	000b9693	slli	x13,x23,0x0	 x23:0x000000bb x13=0x000000bb
       20005000	      1999	80003e6c	fd0e8f03	lb	x30,-48(x29)	 x29:0x80008ac0 x30=0x0000007b PA:0x80008a90
       20015000	      2000	80003e70	00591033	sll	x0,x18,x5	 x18:0x80009efc  x5:0x754ae000
       20025000	      2001	80003e74	01c49413	slli	x8,x9,0x1c	  x9:0x00000000  x8=0x00000000
       20035000	      2002	80003e78	00000013	addi	x0,x0,0	  x0:0x00000000
       20045000	      2003	80003e7c	013ec603	lbu	x12,19(x29)	 x29:0x80008ac0 x12=0x000000b8 PA:0x80008ad3
       20055000	      2004	80003e80	00eddfb3	srl	x31,x27,x14	 x27:0x00000000 x14:0x18c3cdc4 x31=0x00000000
       20065000	      2005	80003e84	6cc8f693	andi	x13,x17,1740	 x17:0x00000008 x13=0x00000008
       20075000	      2006	80003e88	4161dfb3	sra	x31,x3,x22	  x3:0x00000078 x22:0x00000004 x31=0x00000007
       20085000	      2007	80003e8c	00aed683	lhu	x13,10(x29)	 x29:0x80008ac0 x13=0x0000b0b1 PA:0x80008aca
       20095000	      2008	80003e90	b33afc13	andi	x24,x21,-1229	 x21:0xfffffffe x24=0xfffffb32
       20105000	      2009	80003e94	feaec483	lbu	x9,-22(x29)	 x29:0x80008ac0  x9=0x00000091 PA:0x80008aaa
       20115000	      2010	80003e98	00aecb03	lbu	x22,10(x29)	 x29:0x80008ac0 x22=0x000000b1 PA:0x80008aca
       20125000	      2011	80003e9c	3a5d7693	andi	x13,x26,933	 x26:0xffffc2c3 x13=0x00000281
       20135000	      2012	80003ea0	c4a2e097	auipc	x1,0xc4a2e	  x1=0x44a31e9c
       20145000	      2013	80003ea4	fedeca83	lbu	x21,-19(x29)	 x29:0x80008ac0 x21=0x00000096 PA:0x80008aad
       20155000	      2014	80003ea8	99ddaf93	slti	x31,x27,-1635	 x27:0x00000000 x31=0x00000000
       20165000	      2015	80003eac	ff8ea823	sw	x24,-16(x29)	 x29:0x80008ac0 x24:0xfffffb32 PA:0x80008ab0
       20175000	      2016	80003eb0	fefe87a3	sb	x15,-17(x29)	 x29:0x80008ac0 x15:0x40000000 PA:0x80008aaf
       20185000	      2017	80003eb4	404cd133	sra	x2,x25,x4	 x25:0x0000009c  x4:0xffffffac  x2=0x00000000
       20195000	      2018	80003eb8	0189d2b3	srl	x5,x19,x24	 x19:0x00008889 x24:0xfffffb32  x5=0x00000000
       20205000	      2019	80003ebc	adca5b17	auipc	x22,0xadca5	 x22=0x2dca8eb8
       20215000	      2020	80003ec0	029e8c83	lb	x25,41(x29)	 x29:0x80008ac0 x25=0xffffffd2 PA:0x80008ae9
       20225000	      2021	80003ec4	00cef833	and	x16,x29,x12	 x29:0x80008ac0 x12:0x000000b8 x16=0x00000080
       20235000	      2022	80003ec8	ff7eca83	lbu	x21,-9(x29)	 x29:0x80008ac0 x21=0x0000009c PA:0x80008ab7
       20245000	      2023	80003ecc	fd7e8b83	lb	x23,-41(x29)	 x29:0x80008ac0 x23=0x0000007c PA:0x80008a97
       20255000	      2024	80003ed0	406353b3	sra	x7,x6,x6	  x6:0x00000094  x6:0x00000094  x7=0x00000000
       20265000	      2025	80003ed4	00ac81b3	add	x3,x25,x10	 x25:0xffffffd2 x10:0x80009fc4  x3=0x80009f96
       20275000	      2026	80003ed8	001c9b33	sll	x22,x25,x1	 x25:0xffffffd2  x1:0x44a31e9c x22=0x20000000
       20285000	      2027	80003edc	fcfe8b83	lb	x23,-49(x29)	 x29:0x80008ac0 x23=0x00000074 PA:0x80008a8f
       20295000	      2028	80003ee0	86b5a393	slti	x7,x11,-1941	 x11:0xffffffa7  x7=0x00000000
       20305000	      2029	80003ee4	01a9d113	srli	x2,x19,0x1a	 x19:0x00008889  x2=0x00000000
       20315000	      2030	80003ee8	ffce9b23	sh	x28,-10(x29)	 x29:0x80008ac0 x28:0x00000024 PA:0x80008ab6
       20325000	      2031	80003eec	fd6e83a3	sb	x22,-57(x29)	 x29:0x80008ac0 x22:0x20000000 PA:0x80008a87
       20335000	      2032	80003ef0	01dec883	lbu	x17,29(x29)	 x29:0x80008ac0 x17=0x000000c6 PA:0x80008add
       20345000	      2033	80003ef4	03be89a3	sb	x27,51(x29)	 x29:0x80008ac0 x27:0x00000000 PA:0x80008af3
       20355000	      2034	80003ef8	d158b5b7	lui	x11,0xd158b	 x11=0xd158b000
       20365000	      2035	80003efc	00decc83	lbu	x25,13(x29)	 x29:0x80008ac0 x25=0x000000b6 PA:0x80008acd
       20375000	      2036	80003f00	00005617	auipc	x12,0x5	 x12=0x80008efc
       20385000	      2037	80003f04	0e760613	addi	x12,x12,231	 x12:0x80008efc x12=0x80008fe3
       20395000	      2038	80003f08	01301a13	slli	x20,x0,0x13	  x0:0x00000000 x20=0x00000000
       20405000	      2039	80003f0c	006b79b3	and	x19,x22,x6	 x22:0x20000000  x6:0x00000094 x19=0x00000000
       20415000	      2040	80003f10	4119d4b3	sra	x9,x19,x17	 x19:0x00000000 x17:0x000000c6  x9=0x00000000
       20425000	      2041	80003f14	b5b60e23	sb	x27,-1188(x12)	 x12:0x80008fe3 x27:0x00000000 PA:0x80008b3f
       20435000	      2042	80003f18	c8c9df17	auipc	x30,0xc8c9d	 x30=0x48ca0f14
       20445000	      2043	80003f1c	1f466b93	ori	x23,x12,500	 x12:0x80008fe3 x23=0x80008ff7
       20455000	      2044	80003f20	a4660083	lb	x1,-1466(x12)	 x12:0x80008fe3  x1=0x00000012 PA:0x80008a29
       20465000	      2045	80003f24	efda4493	xori	x9,x20,-259	 x20:0x00000000  x9=0xfffffefd
       20475000	      2046	80003f28	019e9693	slli	x13,x29,0x19	 x29:0x80008ac0 x13=0x80000000
       20485000	      2047	80003f2c	58347c93	andi	x25,x8,1411	  x8:0x00000000 x25=0x00000000
       20495000	      2048	80003f30	015476b3	and	x13,x8,x21	  x8:0x00000000 x21:0x0000009c x13=0x00000000
       20505000	      2049	80003f34	016b56b3	srl	x13,x22,x22	 x22:0x20000000 x22:0x20000000 x13=0x20000000
       20515000	      2050	80003f38	c5760d23	sb	x23,-934(x12)	 x12:0x80008fe3 x23:0x80008ff7 PA:0x80008c3d
       20525000	      2051	80003f3c	414b0333	sub	x6,x22,x20	 x22:0x20000000 x20:0x00000000  x6=0x20000000
       20535000	      2052	80003f40	a3864803	lbu	x16,-1480(x12)	 x12:0x80008fe3 x16=0x00000000 PA:0x80008a1b
       20545000	      2053	80003f44	abd20793	addi	x15,x4,-1347	  x4:0xffffffac x15=0xfffffa69
       20555000	      2054	80003f48	b2f64703	lbu	x14,-1233(x12)	 x12:0x80008fe3 x14=0x000000f9 PA:0x80008b12
       20565000	      2055	80003f4c	41fdd333	sra	x6,x27,x31	 x27:0x00000000 x31:0x00000000  x6=0x00000000
       20575000	      2056	80003f50	8669a893	slti	x17,x19,-1946	 x19:0x00000000 x17=0x00000000
       20585000	      2057	80003f54	004482b3	add	x5,x9,x4	  x9:0xfffffefd  x4:0xffffffac  x5=0xfffffea9
       20595000	      2058	80003f58	ab817297	auipc	x5,0xab817	  x5=0x2b81af54
       20605000	      2059	80003f5c	00f982b3	add	x5,x19,x15	 x19:0x00000000 x15:0xfffffa69  x5=0xfffffa69
       20615000	      2060	80003f60	f63b2b13	slti	x22,x22,-157	 x22:0x20000000 x22=0x00000000
       20625000	      2061	80003f64	000c8833	add	x16,x25,x0	 x25:0x00000000  x0:0x00000000 x16=0x00000000
       20635000	      2062	80003f68	95a64a03	lbu	x20,-1702(x12)	 x12:0x80008fe3 x20=0x00000026 PA:0x8000893d
       20645000	      2063	80003f6c	45d42f93	slti	x31,x8,1117	  x8:0x00000000 x31=0x00000001
       20655000	      2064	80003f70	40ec59b3	sra	x19,x24,x14	 x24:0xfffffb32 x14:0x000000f9 x19=0xffffffff
       20665000	      2065	80003f74	ee760483	lb	x9,-281(x12)	 x12:0x80008fe3  x9=0xffffffb1 PA:0x80008eca
       20675000	      2066	80003f78	00016033	or	x0,x2,x0	  x2:0x00000000  x0:0x00000000
       20685000	      2067	80003f7c	dd464f03	lbu	x30,-556(x12)	 x12:0x80008fe3 x30=0x0000009c PA:0x80008db7
       20695000	      2068	80003f80	b2864e03	lbu	x28,-1240(x12)	 x12:0x80008fe3 x28=0x000000f0 PA:0x80008b0b
       20705000	      2069	00000000	00000013	addi	x0,x0,0	  x0:0x00000000
       20715000	      2070	80003f84	c5c60223	sb	x28,-956(x12)	 x12:0x80008fe3 x28:0x000000f0 PA:0x80008c27
       20725000	      2071	80003f88	3b132813	slti	x16,x6,945	  x6:0x00000000 x16=0x00000001
       20735000	      2072	80003f8c	bfd62883	lw	x17,-1027(x12)	 x12:0x80008fe3 x17=0xc8c9cacb PA:0x80008be0
       20745000	      2073	80003f90	93660f83	lb	x31,-1738(x12)	 x12:0x80008fe3 x31=0x00000002 PA:0x80008919
       20755000	      2074	80003f94	c1e60583	lb	x11,-994(x12)	 x12:0x80008fe3 x11=0x00000000 PA:0x80008c01
       20765000	      2075	80003f98	00aa8bb3	add	x23,x21,x10	 x21:0x0000009c x10:0x80009fc4 x23=0x8000a060
       20775000	      2076	80003f9c	c83dd4b7	lui	x9,0xc83dd	  x9=0xc83dd000
       20785000	      2077	80003fa0	01632133	slt	x2,x6,x22	  x6:0x00000000 x22:0x00000000  x2=0x00000000
       20795000	      2078	80003fa4	e0b60a83	lb	x21,-501(x12)	 x12:0x80008fe3 x21=0xffffffd5 PA:0x80008dee
       20805000	      2079	80003fa8	04e58863	beq	x11,x14,80003ff8	 x11:0x00000000 x14:0x000000f9
       20815000	      2080	80003fac	02242993	slti	x19,x8,34	  x8:0x00000000 x19=0x00000001
       20825000	      2081	80003fb0	57ccc793	xori	x15,x25,1404	 x25:0x00000000 x15=0x0000057c
       20835000	      2082	80003fb4	01a5aeb3	slt	x29,x11,x26	 x11:0x00000000 x26:0xffffc2c3 x29=0x00000000
       20845000	      2083	80003fb8	1fdda013	slti	x0,x27,509	 x27:0x00000000
       20855000	      2084	80003fbc	020f4463	blt	x30,x0,80003fe4	 x30:0x0000009c  x0:0x00000000
       20865000	      2085	80003fc0	010afc33	and	x24,x21,x16	 x21:0xffffffd5 x16:0x00000001 x24=0x00000001
       20875000	      2086	80003fc4	00557263	bgeu	x10,x5,80003fc8	 x10:0x80009fc4  x5:0xfffffa69
       20885000	      2087	80003fc8	00b54a93	xori	x21,x10,11	 x10:0x80009fc4 x21=0x80009fcf
       20895000	      2088	80003fcc	04a8e263	bltu	x17,x10,80004010	 x17:0xc8c9cacb x10:0x80009fc4
       20905000	      2089	80003fd0	00e7b2b3	sltu	x5,x15,x14	 x15:0x0000057c x14:0x000000f9  x5=0x00000000
       20915000	      2090	80003fd4	01ce8233	add	x4,x29,x28	 x29:0x00000000 x28:0x000000f0  x4=0x000000f0
       20925000	      2091	80003fd8	02419263	bne	x3,x4,80003ffc	  x3:0x80009f96  x4:0x000000f0
       20935000	      2092	00000000	00000013	addi	x0,x0,0	  x0:0x00000000
       20945000	      2093	80003ff8	00000013	addi	x0,x0,0	  x0:0x00000000
       20955000	      2094	80003ffc	64c7ef93	ori	x31,x15,1612	 x15:0x0000057c x31=0x0000077c
       20965000	      2095	80004000	008c8133	add	x2,x25,x8	 x25:0x00000000  x8:0x00000000  x2=0x00000000
       20975000	      2096	80004004	00887d33	and	x26,x16,x8	 x16:0x00000001  x8:0x00000000 x26=0x00000000
       20985000	      2097	80004008	1249fe13	andi	x28,x19,292	 x19:0x00000001 x28=0x00000000
       20995000	      2098	8000400c	01e2b3b3	sltu	x7,x5,x30	  x5:0x00000000 x30:0x0000009c  x7=0x00000001
       21005000	      2099	80004010	02d4c063	blt	x9,x13,80004030	  x9:0xc83dd000 x13:0x20000000
       21015000	      2100	00000000	00000013	addi	x0,x0,0	  x0:0x00000000
       21025000	      2101	8000402c	00000013	addi	x0,x0,0	  x0:0x00000000
       21035000	      2102	80004030	01ab54b3	srl	x9,x22,x26	 x22:0x00000000 x26:0x00000000  x9=0x00000000
       21045000	      2103	80004034	40bcd633	sra	x12,x25,x11	 x25:0x00000000 x11:0x00000000 x12=0x00000000
       21055000	      2104	80004038	74f5fb93	andi	x23,x11,1871	 x11:0x00000000 x23=0x00000000
       21065000	      2105	8000403c	3c3d4f13	xori	x30,x26,963	 x26:0x00000000 x30=0x000003c3
       21075000	      2106	80004040	05177813	andi	x16,x14,81	 x14:0x000000f9 x16=0x00000051
       21085000	      2107	80004044	a38b2993	slti	x19,x22,-1480	 x22:0x00000000 x19=0x00000000
       21095000	      2108	80004048	46336413	ori	x8,x6,1123	  x6:0x00000000  x8=0x00000463
       21105000	      2109	8000404c	05326263	bltu	x4,x19,80004090	  x4:0x000000f0 x19:0x00000000
       21115000	      2110	80004050	00208cb3	add	x25,x1,x2	  x1:0x00000012  x2:0x00000000 x25=0x00000012
       21125000	      2111	80004054	02bf1063	bne	x30,x11,80004074	 x30:0x000003c3 x11:0x00000000
       21135000	      2112	00000000	00000013	addi	x0,x0,0	  x0:0x00000000
       21145000	      2113	80004070	00000013	addi	x0,x0,0	  x0:0x00000000
       21155000	      2114	80004074	01744463	blt	x8,x23,8000407c	  x8:0x00000463 x23:0x00000000
       21165000	      2115	80004078	402dd433	sra	x8,x27,x2	 x27:0x00000000  x2:0x00000000  x8=0x00000000
       21175000	      2116	8000407c	416c5b33	sra	x22,x24,x22	 x24:0x00000001 x22:0x00000000 x22=0x00000001
       21185000	      2117	80004080	0ca1b213	sltiu	x4,x3,202	  x3:0x80009f96  x4=0x00000000
       21195000	      2118	80004084	04575863	bge	x14,x5,800040d4	 x14:0x000000f9  x5:0x00000000
       21205000	      2119	00000000	00000013	addi	x0,x0,0	  x0:0x00000000
       21215000	      2120	800040d0	00000013	addi	x0,x0,0	  x0:0x00000000
       21225000	      2121	800040d4	003a9893	slli	x17,x21,0x3	 x21:0x80009fcf x17=0x0004fe78
       21235000	      2122	800040d8	01999733	sll	x14,x19,x25	 x19:0x00000000 x25:0x00000012 x14=0x00000000
       21245000	      2123	800040dc	4f7c6013	ori	x0,x24,1271	 x24:0x00000001
       21255000	      2124	800040e0	00059863	bne	x11,x0,800040f0	 x11:0x00000000  x0:0x00000000
       21265000	      2125	800040e4	00444333	xor	x6,x8,x4	  x8:0x00000000  x4:0x00000000  x6=0x00000000
       21275000	      2126	800040e8	00000013	addi	x0,x0,0	  x0:0x00000000
       21285000	      2127	800040ec	34d2a613	slti	x12,x5,845	  x5:0x00000000 x12=0x00000001
       21295000	      2128	800040f0	0094dc63	bge	x9,x9,80004108	  x9:0x00000000  x9:0x00000000
       21305000	      2129	00000000	00000013	addi	x0,x0,0	  x0:0x00000000
       21315000	      2130	80004104	00000013	addi	x0,x0,0	  x0:0x00000000
       21325000	      2131	80004108	40c45f33	sra	x30,x8,x12	  x8:0x00000000 x12:0x00000001 x30=0x00000000
       21335000	      2132	8000410c	321eb4b7	lui	x9,0x321eb	  x9=0x321eb000
       21345000	      2133	80004110	0470e063	bltu	x1,x7,80004150	  x1:0x00000012  x7:0x00000001
       21355000	      2134	80004114	40385b33	sra	x22,x16,x3	 x16:0x00000051  x3:0x80009f96 x22=0x00000000
       21365000	      2135	80004118	40c60eb3	sub	x29,x12,x12	 x12:0x00000001 x12:0x00000001 x29=0x00000000
       21375000	      2136	8000411c	41d9da33	sra	x20,x19,x29	 x19:0x00000000 x29:0x00000000 x20=0x00000000
       21385000	      2137	80004120	46a77e93	andi	x29,x14,1130	 x14:0x00000000 x29=0x00000000
       21395000	      2138	80004124	009e5a63	bge	x28,x9,80004138	 x28:0x00000000  x9:0x321eb000
       21405000	      2139	80004128	01b46e33	or	x28,x8,x27	  x8:0x00000000 x27:0x00000000 x28=0x00000000
       21415000	      2140	8000412c	00003233	sltu	x4,x0,x0	  x0:0x00000000  x0:0x00000000  x4=0x00000000
       21425000	      2141	80004130	03060663	beq	x12,x16,8000415c	 x12:0x00000001 x16:0x00000051
       21435000	      2142	80004134	0059fc63	bgeu	x19,x5,8000414c	 x19:0x00000000  x5:0x00000000
       21445000	      2143	00000000	00000013	addi	x0,x0,0	  x0:0x00000000
       21455000	      2144	80004148	00000013	addi	x0,x0,0	  x0:0x00000000
       21465000	      2145	8000414c	00184033	xor	x0,x16,x1	 x16:0x00000051  x1:0x00000012
       21475000	      2146	80004150	41760e33	sub	x28,x12,x23	 x12:0x00000001 x23:0x00000000 x28=0x00000001
       21485000	      2147	80004154	01219a63	bne	x3,x18,80004168	  x3:0x80009f96 x18:0x80009efc
       21495000	      2148	00000000	00000013	addi	x0,x0,0	  x0:0x00000000
       21505000	      2149	80004164	00000013	addi	x0,x0,0	  x0:0x00000000
       21515000	      2150	80004168	e9257113	andi	x2,x10,-366	 x10:0x80009fc4  x2=0x80009e80
       21525000	      2151	8000416c	049ad463	bge	x21,x9,800041b4	 x21:0x80009fcf  x9:0x321eb000
       21535000	      2152	80004170	002125b3	slt	x11,x2,x2	  x2:0x80009e80  x2:0x80009e80 x11=0x00000000
       21545000	      2153	80004174	1a33e3b7	lui	x7,0x1a33e	  x7=0x1a33e000
       21555000	      2154	80004178	017af1b3	and	x3,x21,x23	 x21:0x80009fcf x23:0x00000000  x3=0x00000000
       21565000	      2155	8000417c	40425813	srai	x16,x4,0x4	  x4:0x00000000 x16=0x00000000
       21575000	      2156	80004180	401b8f33	sub	x30,x23,x1	 x23:0x00000000  x1:0x00000012 x30=0xffffffee
       21585000	      2157	80004184	40e80e33	sub	x28,x16,x14	 x16:0x00000000 x14:0x00000000 x28=0x00000000
       21595000	      2158	80004188	012cc2b3	xor	x5,x25,x18	 x25:0x00000012 x18:0x80009efc  x5=0x80009eee
       21605000	      2159	8000418c	74b85e37	lui	x28,0x74b85	 x28=0x74b85000
       21615000	      2160	80004190	72f0a993	slti	x19,x1,1839	  x1:0x00000012 x19=0x00000001
       21625000	      2161	80004194	0141c3b3	xor	x7,x3,x20	  x3:0x00000000 x20:0x00000000  x7=0x00000000
       21635000	      2162	80004198	01a00333	add	x6,x0,x26	  x0:0x00000000 x26:0x00000000  x6=0x00000000
       21645000	      2163	8000419c	0105a733	slt	x14,x11,x16	 x11:0x00000000 x16:0x00000000 x14=0x00000000
       21655000	      2164	800041a0	3c153497	auipc	x9,0x3c153	  x9=0xbc15719c
       21665000	      2165	800041a4	013b6fb3	or	x31,x22,x19	 x22:0x00000000 x19:0x00000001 x31=0x00000001
       21675000	      2166	800041a8	2c557e93	andi	x29,x10,709	 x10:0x80009fc4 x29=0x000002c4
       21685000	      2167	800041ac	0071fa63	bgeu	x3,x7,800041c0	  x3:0x00000000  x7:0x00000000
       21695000	      2168	00000000	00000013	addi	x0,x0,0	  x0:0x00000000
       21705000	      2169	800041bc	00000013	addi	x0,x0,0	  x0:0x00000000
       21715000	      2170	800041c0	16e03737	lui	x14,0x16e03	 x14=0x16e03000
       21725000	      2171	800041c4	001d51b3	srl	x3,x26,x1	 x26:0x00000000  x1:0x00000012  x3=0x00000000
       21735000	      2172	800041c8	0008af33	slt	x30,x17,x0	 x17:0x0004fe78  x0:0x00000000 x30=0x00000000
       21745000	      2173	800041cc	55e4e993	ori	x19,x9,1374	  x9:0xbc15719c x19=0xbc1575de
       21755000	      2174	800041d0	00e45433	srl	x8,x8,x14	  x8:0x00000000 x14:0x16e03000  x8=0x00000000
       21765000	      2175	800041d4	02e08c17	auipc	x24,0x2e08	 x24=0x82e0c1d0
       21775000	      2176	800041d8	011709b3	add	x19,x14,x17	 x14:0x16e03000 x17:0x0004fe78 x19=0x16e52e78
       21785000	      2177	800041dc	04b6d463	bge	x13,x11,80004224	 x13:0x20000000 x11:0x00000000
       21795000	      2178	00000000	00000013	addi	x0,x0,0	  x0:0x00000000
       21805000	      2179	80004220	00000013	addi	x0,x0,0	  x0:0x00000000
       21815000	      2180	80004224	047b9063	bne	x23,x7,80004264	 x23:0x00000000  x7:0x00000000
       21825000	      2181	80004228	018b5c93	srli	x25,x22,0x18	 x22:0x00000000 x25=0x00000000
       21835000	      2182	8000422c	008c13b3	sll	x7,x24,x8	 x24:0x82e0c1d0  x8:0x00000000  x7=0x82e0c1d0
       21845000	      2183	80004230	01edea63	bltu	x27,x30,80004244	 x27:0x00000000 x30:0x00000000
       21855000	      2184	80004234	012d44b3	xor	x9,x26,x18	 x26:0x00000000 x18:0x80009efc  x9=0x80009efc
       21865000	      2185	80004238	05034263	blt	x6,x16,8000427c	  x6:0x00000000 x16:0x00000000
       21875000	      2186	8000423c	00000013	addi	x0,x0,0	  x0:0x00000000
       21885000	      2187	80004240	031d6463	bltu	x26,x17,80004268	 x26:0x00000000 x17:0x0004fe78
       21895000	      2188	00000000	00000013	addi	x0,x0,0	  x0:0x00000000
       21905000	      2189	80004264	00000013	addi	x0,x0,0	  x0:0x00000000
       21915000	      2190	80004268	018d8463	beq	x27,x24,80004270	 x27:0x00000000 x24:0x82e0c1d0
       21925000	      2191	8000426c	154c8893	addi	x17,x25,340	 x25:0x00000000 x17=0x00000154
       21935000	      2192	80004270	01c71633	sll	x12,x14,x28	 x14:0x16e03000 x28:0x74b85000 x12=0x16e03000
       21945000	      2193	80004274	0568fe97	auipc	x29,0x568f	 x29=0x85693270
       21955000	      2194	80004278	4076d413	srai	x8,x13,0x7	 x13:0x20000000  x8=0x00400000
       21965000	      2195	8000427c	9829ef13	ori	x30,x19,-1662	 x19:0x16e52e78 x30=0xfffffffa
       21975000	      2196	80004280	cd496113	ori	x2,x18,-812	 x18:0x80009efc  x2=0xfffffefc
       21985000	      2197	80004284	00000013	addi	x0,x0,0	  x0:0x00000000
       21995000	      2198	80004288	f564c313	xori	x6,x9,-170	  x9:0x80009efc  x6=0x7fff61aa
       22005000	      2199	8000428c	02754e63	blt	x10,x7,800042c8	 x10:0x80009fc4  x7:0x82e0c1d0
       22015000	      2200	00000000	00000013	addi	x0,x0,0	  x0:0x00000000
       22025000	      2201	800042c4	00000013	addi	x0,x0,0	  x0:0x00000000
       22035000	      2202	800042c8	0088a633	slt	x12,x17,x8	 x17:0x00000154  x8:0x00400000 x12=0x00000001
       22045000	      2203	800042cc	00339313	slli	x6,x7,0x3	  x7:0x82e0c1d0  x6=0x17060e80
       22055000	      2204	800042d0	01329c13	slli	x24,x5,0x13	  x5:0x80009eee x24=0xf7700000
       22065000	      2205	800042d4	01d58633	add	x12,x11,x29	 x11:0x00000000 x29:0x85693270 x12=0x85693270
       22075000	      2206	800042d8	007cc333	xor	x6,x25,x7	 x25:0x00000000  x7:0x82e0c1d0  x6=0x82e0c1d0
       22085000	      2207	800042dc	00f94c63	blt	x18,x15,800042f4	 x18:0x80009efc x15:0x0000057c
       22095000	      2208	00000000	00000013	addi	x0,x0,0	  x0:0x00000000
       22105000	      2209	800042f0	00000013	addi	x0,x0,0	  x0:0x00000000
       22115000	      2210	800042f4	00ebf833	and	x16,x23,x14	 x23:0x00000000 x14:0x16e03000 x16=0x00000000
       22125000	      2211	800042f8	9a13a237	lui	x4,0x9a13a	  x4=0x9a13a000
       22135000	      2212	800042fc	00f78233	add	x4,x15,x15	 x15:0x0000057c x15:0x0000057c  x4=0x00000af8
       22145000	      2213	80004300	00410c63	beq	x2,x4,80004318	  x2:0xfffffefc  x4:0x00000af8
       22155000	      2214	80004304	010cfeb3	and	x29,x25,x16	 x25:0x00000000 x16:0x00000000 x29=0x00000000
       22165000	      2215	80004308	0132c8b3	xor	x17,x5,x19	  x5:0x80009eee x19:0x16e52e78 x17=0x96e5b096
       22175000	      2216	8000430c	3b45bd37	lui	x26,0x3b45b	 x26=0x3b45b000
       22185000	      2217	80004310	41388e33	sub	x28,x17,x19	 x17:0x96e5b096 x19:0x16e52e78 x28=0x8000821e
       22195000	      2218	80004314	01739a93	slli	x21,x7,0x17	  x7:0x82e0c1d0 x21=0xe8000000
       22205000	      2219	80004318	86a1cf93	xori	x31,x3,-1942	  x3:0x00000000 x31=0xfffff86a
       22215000	      2220	8000431c	01412cb3	slt	x25,x2,x20	  x2:0xfffffefc x20:0x00000000 x25=0x00000001
       22225000	      2221	80004320	994e2313	slti	x6,x28,-1644	 x28:0x8000821e  x6=0x00000001
       22235000	      2222	80004324	31f7a413	slti	x8,x15,799	 x15:0x0000057c  x8=0x00000000
       22245000	      2223	80004328	00ca6663	bltu	x20,x12,80004334	 x20:0x00000000 x12:0x85693270
       22255000	      2224	00000000	00000013	addi	x0,x0,0	  x0:0x00000000
       22265000	      2225	80004330	00000013	addi	x0,x0,0	  x0:0x00000000
       22275000	      2226	80004334	30466093	ori	x1,x12,772	 x12:0x85693270  x1=0x85693374
       22285000	      2227	80004338	41ec0fb3	sub	x31,x24,x30	 x24:0xf7700000 x30:0xfffffffa x31=0xf7700006
       22295000	      2228	8000433c	00000013	addi	x0,x0,0	  x0:0x00000000
       22305000	      2229	80004340	07074313	xori	x6,x14,112	 x14:0x16e03000  x6=0x16e03070
       22315000	      2230	80004344	00051e13	slli	x28,x10,0x0	 x10:0x80009fc4 x28=0x80009fc4
       22325000	      2231	80004348	40625c33	sra	x24,x4,x6	  x4:0x00000af8  x6:0x16e03070 x24=0x00000000
       22335000	      2232	8000434c	016f04b3	add	x9,x30,x22	 x30:0xfffffffa x22:0x00000000  x9=0xfffffffa
       22345000	      2233	80004350	00000013	addi	x0,x0,0	  x0:0x00000000
       22355000	      2234	80004354	1c5b7b17	auipc	x22,0x1c5b7	 x22=0x9c5bb350
       22365000	      2235	80004358	002f5813	srli	x16,x30,0x2	 x30:0xfffffffa x16=0x3ffffffe
       22375000	      2236	8000435c	00e1ac33	slt	x24,x3,x14	  x3:0x00000000 x14:0x16e03000 x24=0x00000001
       22385000	      2237	80004360	4146d0b3	sra	x1,x13,x20	 x13:0x20000000 x20:0x00000000  x1=0x20000000
       22395000	      2238	80004364	00289293	slli	x5,x17,0x2	 x17:0x96e5b096  x5=0x5b96c258
       22405000	      2239	80004368	02fa0263	beq	x20,x15,8000438c	 x20:0x00000000 x15:0x0000057c
       22415000	      2240	8000436c	55b2c613	xori	x12,x5,1371	  x5:0x5b96c258 x12=0x5b96c703
       22425000	      2241	80004370	00000013	addi	x0,x0,0	  x0:0x00000000
       22435000	      2242	80004374	2af31d17	auipc	x26,0x2af31	 x26=0xaaf35370
       22445000	      2243	80004378	00185663	bge	x16,x1,80004384	 x16:0x3ffffffe  x1:0x20000000
       22455000	      2244	00000000	00000013	addi	x0,x0,0	  x0:0x00000000
       22465000	      2245	80004380	00000013	addi	x0,x0,0	  x0:0x00000000
       22475000	      2246	80004384	408b8633	sub	x12,x23,x8	 x23:0x00000000  x8:0x00000000 x12=0x00000000
       22485000	      2247	80004388	410e8b33	sub	x22,x29,x16	 x29:0x00000000 x16:0x3ffffffe x22=0xc0000002
       22495000	      2248	8000438c	03d80e63	beq	x16,x29,800043c8	 x16:0x3ffffffe x29:0x00000000
       22505000	      2249	80004390	4176db13	srai	x22,x13,0x17	 x13:0x20000000 x22=0x00000040
       22515000	      2250	80004394	016675b3	and	x11,x12,x22	 x12:0x00000000 x22:0x00000040 x11=0x00000000
       22525000	      2251	80004398	01feb2b3	sltu	x5,x29,x31	 x29:0x00000000 x31:0xf7700006  x5=0x00000001
       22535000	      2252	8000439c	f052e113	ori	x2,x5,-251	  x5:0x00000001  x2=0xffffff05
       22545000	      2253	800043a0	007867b3	or	x15,x16,x7	 x16:0x3ffffffe  x7:0x82e0c1d0 x15=0xbffffffe
       22555000	      2254	800043a4	01e2f263	bgeu	x5,x30,800043a8	  x5:0x00000001 x30:0xfffffffa
       22565000	      2255	800043a8	00bec9b3	xor	x19,x29,x11	 x29:0x00000000 x11:0x00000000 x19=0x00000000
       22575000	      2256	800043ac	44de2893	slti	x17,x28,1101	 x28:0x80009fc4 x17=0x00000001
       22585000	      2257	800043b0	0007ffb3	and	x31,x15,x0	 x15:0xbffffffe  x0:0x00000000 x31=0x00000000
       22595000	      2258	800043b4	8a0b3e93	sltiu	x29,x22,-1888	 x22:0x00000040 x29=0x00000001
       22605000	      2259	800043b8	01541c33	sll	x24,x8,x21	  x8:0x00000000 x21:0xe8000000 x24=0x00000000
       22615000	      2260	800043bc	02b69063	bne	x13,x11,800043dc	 x13:0x20000000 x11:0x00000000
       22625000	      2261	00000000	00000013	addi	x0,x0,0	  x0:0x00000000
       22635000	      2262	800043d8	00000013	addi	x0,x0,0	  x0:0x00000000
       22645000	      2263	800043dc	02f00063	beq	x0,x15,800043fc	  x0:0x00000000 x15:0xbffffffe
       22655000	      2264	800043e0	40a45713	srai	x14,x8,0xa	  x8:0x00000000 x14=0x00000000
       22665000	      2265	800043e4	11d3ae93	slti	x29,x7,285	  x7:0x82e0c1d0 x29=0x00000001
       22675000	      2266	800043e8	3de4a693	slti	x13,x9,990	  x9:0xfffffffa x13=0x00000001
       22685000	      2267	800043ec	01210a63	beq	x2,x18,80004400	  x2:0xffffff05 x18:0x80009efc
       22695000	      2268	800043f0	03a8de63	bge	x17,x26,8000442c	 x17:0x00000001 x26:0xaaf35370
       22705000	      2269	00000000	00000013	addi	x0,x0,0	  x0:0x00000000
       22715000	      2270	80004428	00000013	addi	x0,x0,0	  x0:0x00000000
       22725000	      2271	8000442c	41ea5213	srai	x4,x20,0x1e	 x20:0x00000000  x4=0x00000000
       22735000	      2272	80004430	e6200793	addi	x15,x0,-414	  x0:0x00000000 x15=0xfffffe62
       22745000	      2273	80004434	92ada993	slti	x19,x27,-1750	 x27:0x00000000 x19=0x00000000
       22755000	      2274	80004438	03e37063	bgeu	x6,x30,80004458	  x6:0x16e03070 x30:0xfffffffa
       22765000	      2275	8000443c	71fd3b13	sltiu	x22,x26,1823	 x26:0xaaf35370 x22=0x00000000
       22775000	      2276	80004440	405b0233	sub	x4,x22,x5	 x22:0x00000000  x5:0x00000001  x4=0xffffffff
       22785000	      2277	80004444	00d0c7b3	xor	x15,x1,x13	  x1:0x20000000 x13:0x00000001 x15=0x20000001
       22795000	      2278	80004448	00280c63	beq	x16,x2,80004460	 x16:0x3ffffffe  x2:0xffffff05
       22805000	      2279	8000444c	1ba8a817	auipc	x16,0x1ba8a	 x16=0x9ba8e448
       22815000	      2280	80004450	0370f263	bgeu	x1,x23,80004474	  x1:0x20000000 x23:0x00000000
       22825000	      2281	00000000	00000013	addi	x0,x0,0	  x0:0x00000000
       22835000	      2282	80004470	00000013	addi	x0,x0,0	  x0:0x00000000
       22845000	      2283	80004474	98b0f693	andi	x13,x1,-1653	  x1:0x20000000 x13=0x20000000
       22855000	      2284	80004478	0044cab3	xor	x21,x9,x4	  x9:0xfffffffa  x4:0xffffffff x21=0x00000005
       22865000	      2285	8000447c	0004cab3	xor	x21,x9,x0	  x9:0xfffffffa  x0:0x00000000 x21=0xfffffffa
       22875000	      2286	80004480	41f75b13	srai	x22,x14,0x1f	 x14:0x00000000 x22=0x00000000
       22885000	      2287	80004484	41585c93	srai	x25,x16,0x15	 x16:0x9ba8e448 x25=0xfffffcdd
       22895000	      2288	80004488	018eb0b3	sltu	x1,x29,x24	 x29:0x00000001 x24:0x00000000  x1=0x00000000
       22905000	      2289	8000448c	02440463	beq	x8,x4,800044b4	  x8:0x00000000  x4:0xffffffff
       22915000	      2290	80004490	00671613	slli	x12,x14,0x6	 x14:0x00000000 x12=0x00000000
       22925000	      2291	80004494	01ad0733	add	x14,x26,x26	 x26:0xaaf35370 x26:0xaaf35370 x14=0x55e6a6e0
       22935000	      2292	80004498	01478863	beq	x15,x20,800044a8	 x15:0x20000001 x20:0x00000000
       22945000	      2293	8000449c	05b30463	beq	x6,x27,800044e4	  x6:0x16e03070 x27:0x00000000
       22955000	      2294	800044a0	99d4ba17	auipc	x20,0x99d4b	 x20=0x19d4f49c
       22965000	      2295	800044a4	0053e3b3	or	x7,x7,x5	  x7:0x82e0c1d0  x5:0x00000001  x7=0x82e0c1d1
       22975000	      2296	800044a8	01348ab3	add	x21,x9,x19	  x9:0xfffffffa x19:0x00000000 x21=0xfffffffa
       22985000	      2297	800044ac	00c9dbb3	srl	x23,x19,x12	 x19:0x00000000 x12:0x00000000 x23=0x00000000
       22995000	      2298	800044b0	051bd2b7	lui	x5,0x51bd	  x5=0x051bd000
       23005000	      2299	800044b4	012c5733	srl	x14,x24,x18	 x24:0x00000000 x18:0x80009efc x14=0x00000000
       23015000	      2300	800044b8	0100c663	blt	x1,x16,800044c4	  x1:0x00000000 x16:0x9ba8e448
       23025000	      2301	800044bc	cf65a837	lui	x16,0xcf65a	 x16=0xcf65a000
       23035000	      2302	800044c0	01bd9613	slli	x12,x27,0x1b	 x27:0x00000000 x12=0x00000000
       23045000	      2303	800044c4	05580463	beq	x16,x21,8000450c	 x16:0xcf65a000 x21:0xfffffffa
       23055000	      2304	800044c8	01c8ca93	xori	x21,x17,28	 x17:0x00000001 x21=0x0000001d
       23065000	      2305	800044cc	43c40b93	addi	x23,x8,1084	  x8:0x00000000 x23=0x0000043c
       23075000	      2306	800044d0	008a4463	blt	x20,x8,800044d8	 x20:0x19d4f49c  x8:0x00000000
       23085000	      2307	800044d4	40c8d393	srai	x7,x17,0xc	 x17:0x00000001  x7=0x00000000
       23095000	      2308	800044d8	0069ed33	or	x26,x19,x6	 x19:0x00000000  x6:0x16e03070 x26=0x16e03070
       23105000	      2309	800044dc	30bab793	sltiu	x15,x21,779	 x21:0x0000001d x15=0x00000001
       23115000	      2310	800044e0	0441e263	bltu	x3,x4,80004524	  x3:0x00000000  x4:0xffffffff
       23125000	      2311	00000000	00000013	addi	x0,x0,0	  x0:0x00000000
       23135000	      2312	80004520	00000013	addi	x0,x0,0	  x0:0x00000000
       23145000	      2313	80004524	016dd893	srli	x17,x27,0x16	 x27:0x00000000 x17=0x00000000
       23155000	      2314	80004528	00000013	addi	x0,x0,0	  x0:0x00000000
       23165000	      2315	8000452c	00000013	addi	x0,x0,0	  x0:0x00000000
       23175000	      2316	80004530	008492b3	sll	x5,x9,x8	  x9:0xfffffffa  x8:0x00000000  x5=0xfffffffa
       23185000	      2317	80004534	03221463	bne	x4,x18,8000455c	  x4:0xffffffff x18:0x80009efc
       23195000	      2318	00000000	00000013	addi	x0,x0,0	  x0:0x00000000
       23205000	      2319	80004558	00000013	addi	x0,x0,0	  x0:0x00000000
       23215000	      2320	8000455c	00000013	addi	x0,x0,0	  x0:0x00000000
       23225000	      2321	80004560	8e733813	sltiu	x16,x6,-1817	  x6:0x16e03070 x16=0x00000001
       23235000	      2322	80004564	ecd9a813	slti	x16,x19,-307	 x19:0x00000000 x16=0x00000000
       23245000	      2323	80004568	01413b33	sltu	x22,x2,x20	  x2:0xffffff05 x20:0x19d4f49c x22=0x00000000
       23255000	      2324	8000456c	007519b3	sll	x19,x10,x7	 x10:0x80009fc4  x7:0x00000000 x19=0x80009fc4
       23265000	      2325	80004570	5b0d6c93	ori	x25,x26,1456	 x26:0x16e03070 x25=0x16e035f0
       23275000	      2326	80004574	418684b3	sub	x9,x13,x24	 x13:0x20000000 x24:0x00000000  x9=0x20000000
       23285000	      2327	80004578	404f8833	sub	x16,x31,x4	 x31:0x00000000  x4:0xffffffff x16=0x00000001
       23295000	      2328	8000457c	01ad1433	sll	x8,x26,x26	 x26:0x16e03070 x26:0x16e03070  x8=0x30700000
       23305000	      2329	80004580	01b8c133	xor	x2,x17,x27	 x17:0x00000000 x27:0x00000000  x2=0x00000000
       23315000	      2330	80004584	00000013	addi	x0,x0,0	  x0:0x00000000
       23325000	      2331	80004588	ed00bf97	auipc	x31,0xed00b	 x31=0x6d00f584
       23335000	      2332	8000458c	01935a63	bge	x6,x25,800045a0	  x6:0x16e03070 x25:0x16e035f0
       23345000	      2333	80004590	02a3d463	bge	x7,x10,800045b8	  x7:0x00000000 x10:0x80009fc4
       23355000	      2334	00000000	00000013	addi	x0,x0,0	  x0:0x00000000
       23365000	      2335	800045b4	00000013	addi	x0,x0,0	  x0:0x00000000
       23375000	      2336	800045b8	00561863	bne	x12,x5,800045c8	 x12:0x00000000  x5:0xfffffffa
       23385000	      2337	00000000	00000013	addi	x0,x0,0	  x0:0x00000000
       23395000	      2338	800045c4	00000013	addi	x0,x0,0	  x0:0x00000000
       23405000	      2339	800045c8	d544f393	andi	x7,x9,-684	  x9:0x20000000  x7=0x20000000
       23415000	      2340	800045cc	04ba7063	bgeu	x20,x11,8000460c	 x20:0x19d4f49c x11:0x00000000
       23425000	      2341	00000000	00000013	addi	x0,x0,0	  x0:0x00000000
       23435000	      2342	80004608	00000013	addi	x0,x0,0	  x0:0x00000000
       23445000	      2343	8000460c	039e4263	blt	x28,x25,80004630	 x28:0x80009fc4 x25:0x16e035f0
       23455000	      2344	00000000	00000013	addi	x0,x0,0	  x0:0x00000000
       23465000	      2345	8000462c	00000013	addi	x0,x0,0	  x0:0x00000000
       23475000	      2346	80004630	02731463	bne	x6,x7,80004658	  x6:0x16e03070  x7:0x20000000
       23485000	      2347	00000000	00000013	addi	x0,x0,0	  x0:0x00000000
       23495000	      2348	80004654	00000013	addi	x0,x0,0	  x0:0x00000000
       23505000	      2349	80004658	00000013	addi	x0,x0,0	  x0:0x00000000
       23515000	      2350	8000465c	07996a63	bltu	x18,x25,800046d0	 x18:0x80009efc x25:0x16e035f0
       23525000	      2351	80004660	406fdab3	sra	x21,x31,x6	 x31:0x6d00f584  x6:0x16e03070 x21=0x00006d00
       23535000	      2352	80004664	00c18733	add	x14,x3,x12	  x3:0x00000000 x12:0x00000000 x14=0x00000000
       23545000	      2353	80004668	00f87663	bgeu	x16,x15,80004674	 x16:0x00000001 x15:0x00000001
       23555000	      2354	00000000	00000013	addi	x0,x0,0	  x0:0x00000000
       23565000	      2355	80004670	00000013	addi	x0,x0,0	  x0:0x00000000
       23575000	      2356	80004674	00a31d33	sll	x26,x6,x10	  x6:0x16e03070 x10:0x80009fc4 x26=0x6e030700
       23585000	      2357	80004678	c5af3993	sltiu	x19,x30,-934	 x30:0xfffffffa x19=0x00000000
       23595000	      2358	8000467c	c0532113	slti	x2,x6,-1019	  x6:0x16e03070  x2=0x00000000
       23605000	      2359	80004680	01e49e63	bne	x9,x30,8000469c	  x9:0x20000000 x30:0xfffffffa
       23615000	      2360	00000000	00000013	addi	x0,x0,0	  x0:0x00000000
       23625000	      2361	80004698	00000013	addi	x0,x0,0	  x0:0x00000000
       23635000	      2362	8000469c	00000013	addi	x0,x0,0	  x0:0x00000000
       23645000	      2363	800046a0	93d76613	ori	x12,x14,-1731	 x14:0x00000000 x12=0xfffff93d
       23655000	      2364	800046a4	41385e13	srai	x28,x16,0x13	 x16:0x00000001 x28=0x00000000
       23665000	      2365	800046a8	00000013	addi	x0,x0,0	  x0:0x00000000
       23675000	      2366	800046ac	0b2a8617	auipc	x12,0xb2a8	 x12=0x8b2ac6a8
       23685000	      2367	800046b0	01d662b3	or	x5,x12,x29	 x12:0x8b2ac6a8 x29:0x00000001  x5=0x8b2ac6a9
       23695000	      2368	800046b4	4c496293	ori	x5,x18,1220	 x18:0x80009efc  x5=0x80009efc
       23705000	      2369	800046b8	00d632b3	sltu	x5,x12,x13	 x12:0x8b2ac6a8 x13:0x20000000  x5=0x00000000
       23715000	      2370	800046bc	0183f663	bgeu	x7,x24,800046c8	  x7:0x20000000 x24:0x00000000
       23725000	      2371	00000000	00000013	addi	x0,x0,0	  x0:0x00000000
       23735000	      2372	800046c4	00000013	addi	x0,x0,0	  x0:0x00000000
       23745000	      2373	800046c8	b2dfe46f	jal	x8,800046c8	  x8=0x800046c8
       23755000	      2374	00000000	00000013	addi	x0,x0,0	  x0:0x00000000
       23765000	      2375	800031f0	00000013	addi	x0,x0,0	  x0:0x00000000
       23775000	      2376	800031f4	018b67b3	or	x15,x22,x24	 x22:0x00000000 x24:0x00000000 x15=0x00000000
       23785000	      2377	800031f8	00000013	addi	x0,x0,0	  x0:0x00000000
       23795000	      2378	800031fc	ff490913	addi	x18,x18,-12	 x18:0x80009efc x18=0x80009ef0
       23805000	      2379	80003200	00892223	sw	x8,4(x18)	 x18:0x80009ef0  x8:0x800046c8 PA:0x80009ef4
       23815000	      2380	80003204	00b85093	srli	x1,x16,0xb	 x16:0x00000001  x1=0x00000000
       23825000	      2381	80003208	56a9a5b7	lui	x11,0x56a9a	 x11=0x56a9a000
       23835000	      2382	8000320c	000ee033	or	x0,x29,x0	 x29:0x00000001  x0:0x00000000
       23845000	      2383	80003210	81dd4297	auipc	x5,0x81dd4	  x5=0x01dd720c
       23855000	      2384	80003214	0185b833	sltu	x16,x11,x24	 x11:0x56a9a000 x24:0x00000000 x16=0x00000000
       23865000	      2385	80003218	00ed5333	srl	x6,x26,x14	 x26:0x6e030700 x14:0x00000000  x6=0x6e030700
       23875000	      2386	8000321c	7385f013	andi	x0,x11,1848	 x11:0x56a9a000
       23885000	      2387	80003220	00000013	addi	x0,x0,0	  x0:0x00000000
       23895000	      2388	80003224	fa74af97	auipc	x31,0xfa74a	 x31=0x7a74d220
       23905000	      2389	80003228	00000013	addi	x0,x0,0	  x0:0x00000000
       23915000	      2390	8000322c	2b00046f	jal	x8,8000322c	  x8=0x8000322c
       23925000	      2391	00000000	00000013	addi	x0,x0,0	  x0:0x00000000
       23935000	      2392	800034d8	00000013	addi	x0,x0,0	  x0:0x00000000
       23945000	      2393	800034dc	a7ecb4b7	lui	x9,0xa7ecb	  x9=0xa7ecb000
       23955000	      2394	800034e0	00030a33	add	x20,x6,x0	  x6:0x6e030700  x0:0x00000000 x20=0x6e030700
       23965000	      2395	800034e4	bfa6bc97	auipc	x25,0xbfa6b	 x25=0x3fa6e4e0
       23975000	      2396	800034e8	012625b3	slt	x11,x12,x18	 x12:0x8b2ac6a8 x18:0x80009ef0 x11=0x00000000
       23985000	      2397	800034ec	017a5663	bge	x20,x23,800034f8	 x20:0x6e030700 x23:0x0000043c
       23995000	      2398	00000000	00000013	addi	x0,x0,0	  x0:0x00000000
       24005000	      2399	800034f4	00000013	addi	x0,x0,0	  x0:0x00000000
       24015000	      2400	800034f8	fd090913	addi	x18,x18,-48	 x18:0x80009ef0 x18=0x80009ec0
       24025000	      2401	800034fc	41302393	slti	x7,x0,1043	  x0:0x00000000  x7=0x00000001
       24035000	      2402	80003500	009da0b3	slt	x1,x27,x9	 x27:0x00000000  x9:0xa7ecb000  x1=0x00000000
       24045000	      2403	80003504	00892223	sw	x8,4(x18)	 x18:0x80009ec0  x8:0x8000322c PA:0x80009ec4
       24055000	      2404	80003508	00000013	addi	x0,x0,0	  x0:0x00000000
       24065000	      2405	8000350c	005f2c33	slt	x24,x30,x5	 x30:0xfffffffa  x5:0x01dd720c x24=0x00000001
       24075000	      2406	80003510	413159b3	sra	x19,x2,x19	  x2:0x00000000 x19:0x00000000 x19=0x00000000
       24085000	      2407	80003514	416a0033	sub	x0,x20,x22	 x20:0x6e030700 x22:0x00000000
       24095000	      2408	80003518	416fda33	sra	x20,x31,x22	 x31:0x7a74d220 x22:0x00000000 x20=0x7a74d220
       24105000	      2409	8000351c	00b3ec63	bltu	x7,x11,80003534	  x7:0x00000001 x11:0x00000000
       24115000	      2410	80003520	41045293	srai	x5,x8,0x10	  x8:0x8000322c  x5=0xffff8000
       24125000	      2411	80003524	017e96b3	sll	x13,x29,x23	 x29:0x00000001 x23:0x0000043c x13=0x10000000
       24135000	      2412	80003528	419b5693	srai	x13,x22,0x19	 x22:0x00000000 x13=0x00000000
       24145000	      2413	8000352c	407783b3	sub	x7,x15,x7	 x15:0x00000000  x7:0x00000001  x7=0xffffffff
       24155000	      2414	80003530	41aa5693	srai	x13,x20,0x1a	 x20:0x7a74d220 x13=0x0000001e
       24165000	      2415	80003534	db1fc46f	jal	x8,80003534	  x8=0x80003534
       24175000	      2416	00000000	00000013	addi	x0,x0,0	  x0:0x00000000
       24185000	      2417	800002e0	00000013	addi	x0,x0,0	  x0:0x00000000
       24195000	      2418	800002e4	0183c133	xor	x2,x7,x24	  x7:0xffffffff x24:0x00000001  x2=0xfffffffe
       24205000	      2419	800002e8	28b07893	andi	x17,x0,651	  x0:0x00000000 x17=0x00000000
       24215000	      2420	800002ec	85b6b597	auipc	x11,0x85b6b	 x11=0x05b6b2e8
       24225000	      2421	800002f0	ff090913	addi	x18,x18,-16	 x18:0x80009ec0 x18=0x80009eb0
       24235000	      2422	800002f4	00892223	sw	x8,4(x18)	 x18:0x80009eb0  x8:0x80003534 PA:0x80009eb4
       24245000	      2423	800002f8	006e0833	add	x16,x28,x6	 x28:0x00000000  x6:0x6e030700 x16=0x6e030700
       24255000	      2424	800002fc	00000013	addi	x0,x0,0	  x0:0x00000000
       24265000	      2425	80000300	00008897	auipc	x17,0x8	 x17=0x800082fc
       24275000	      2426	80000304	6f288893	addi	x17,x17,1778	 x17:0x800082fc x17=0x800089ee
       24285000	      2427	80000308	a0700317	auipc	x6,0xa0700	  x6=0x20700304
       24295000	      2428	8000030c	5d4887a3	sb	x20,1487(x17)	 x17:0x800089ee x20:0x7a74d220 PA:0x80008fbd
       24305000	      2429	80000310	18d8ca03	lbu	x20,397(x17)	 x17:0x800089ee x20=0x00000060 PA:0x80008b7b
       24315000	      2430	80000314	23889023	sh	x24,544(x17)	 x17:0x800089ee x24:0x00000001 PA:0x80008c0e
       24325000	      2431	80000318	25f8c983	lbu	x19,607(x17)	 x17:0x800089ee x19=0x00000036 PA:0x80008c4d
       24335000	      2432	8000031c	3b78a123	sw	x23,930(x17)	 x17:0x800089ee x23:0x0000043c PA:0x80008d90
       24345000	      2433	80000320	00c30eb3	add	x29,x6,x12	  x6:0x20700304 x12:0x8b2ac6a8 x29=0xab9ac9ac
       24355000	      2434	80000324	f758c003	lbu	x0,-139(x17)	 x17:0x800089ee PA:0x80008963
       24365000	      2435	80000328	b596f613	andi	x12,x13,-1191	 x13:0x0000001e x12=0x00000018
       24375000	      2436	8000032c	0208c603	lbu	x12,32(x17)	 x17:0x800089ee x12=0x000000f5 PA:0x80008a0e
       24385000	      2437	80000330	4a08db83	lhu	x23,1184(x17)	 x17:0x800089ee x23=0x00007475 PA:0x80008e8e
       24395000	      2438	80000334	34a88723	sb	x10,846(x17)	 x17:0x800089ee x10:0x80009fc4 PA:0x80008d3c
       24405000	      2439	80000338	00beb733	sltu	x14,x29,x11	 x29:0xab9ac9ac x11:0x05b6b2e8 x14=0x00000000
       24415000	      2440	8000033c	849cfc93	andi	x25,x25,-1975	 x25:0x3fa6e4e0 x25=0x3fa6e040
       24425000	      2441	80000340	18589223	sh	x5,388(x17)	 x17:0x800089ee  x5:0xffff8000 PA:0x80008b72
       24435000	      2442	80000344	1c7d8d13	addi	x26,x27,455	 x27:0x00000000 x26=0x000001c7
       24445000	      2443	80000348	11c88ba3	sb	x28,279(x17)	 x17:0x800089ee x28:0x00000000 PA:0x80008b05
       24455000	      2444	8000034c	00000013	addi	x0,x0,0	  x0:0x00000000
       24465000	      2445	80000350	010f2e33	slt	x28,x30,x16	 x30:0xfffffffa x16:0x6e030700 x28=0x00000001
       24475000	      2446	80000354	4a7846b7	lui	x13,0x4a784	 x13=0x4a784000
       24485000	      2447	80000358	b198c613	xori	x12,x17,-1255	 x17:0x800089ee x12=0x7fff72f7
       24495000	      2448	8000035c	5671b593	sltiu	x11,x3,1383	  x3:0x00000000 x11=0x00000001
       24505000	      2449	80000360	ed78c703	lbu	x14,-297(x17)	 x17:0x800089ee x14=0x000000ae PA:0x800088c5
       24515000	      2450	80000364	227d8493	addi	x9,x27,551	 x27:0x00000000  x9=0x00000227
       24525000	      2451	80000368	01c344b3	xor	x9,x6,x28	  x6:0x20700304 x28:0x00000001  x9=0x20700305
       24535000	      2452	8000036c	00000013	addi	x0,x0,0	  x0:0x00000000
       24545000	      2453	80000370	01fd9313	slli	x6,x27,0x1f	 x27:0x00000000  x6=0x00000000
       24555000	      2454	80000374	01ba6d33	or	x26,x20,x27	 x20:0x00000060 x27:0x00000000 x26=0x00000060
       24565000	      2455	80000378	17188703	lb	x14,369(x17)	 x17:0x800089ee x14=0x00000044 PA:0x80008b5f
       24575000	      2456	8000037c	4c68a723	sw	x6,1230(x17)	 x17:0x800089ee  x6:0x00000000 PA:0x80008ebc
       24585000	      2457	80000380	5ee8c283	lbu	x5,1518(x17)	 x17:0x800089ee  x5=0x000000c7 PA:0x80008fdc
       24595000	      2458	80000384	2948c383	lbu	x7,660(x17)	 x17:0x800089ee  x7=0x00000069 PA:0x80008c82
       24605000	      2459	80000388	0c388323	sb	x3,198(x17)	 x17:0x800089ee  x3:0x00000000 PA:0x80008ab4
       24615000	      2460	8000038c	01185a13	srli	x20,x16,0x11	 x16:0x6e030700 x20=0x00003701
       24625000	      2461	80000390	33d88f03	lb	x30,829(x17)	 x17:0x800089ee x30=0x00000010 PA:0x80008d2b
       24635000	      2462	80000394	15b0b393	sltiu	x7,x1,347	  x1:0x00000000  x7=0x00000001
       24645000	      2463	80000398	c7506797	auipc	x15,0xc7506	 x15=0x47506394
       24655000	      2464	8000039c	419882a3	sb	x25,1029(x17)	 x17:0x800089ee x25:0x3fa6e040 PA:0x80008df3
       24665000	      2465	800003a0	0185cf33	xor	x30,x11,x24	 x11:0x00000001 x24:0x00000001 x30=0x00000000
       24675000	      2466	800003a4	03a88fa3	sb	x26,63(x17)	 x17:0x800089ee x26:0x00000060 PA:0x80008a2d
       24685000	      2467	800003a8	250a2293	slti	x5,x20,592	 x20:0x00003701  x5=0x00000000
       24695000	      2468	800003ac	25889c83	lh	x25,600(x17)	 x17:0x800089ee x25=0x00002c2d PA:0x80008c46
       24705000	      2469	800003b0	3308dd03	lhu	x26,816(x17)	 x17:0x800089ee x26=0x00000405 PA:0x80008d1e
       24715000	      2470	800003b4	01508133	add	x2,x1,x21	  x1:0x00000000 x21:0x00006d00  x2=0x00006d00
       24725000	      2471	800003b8	ca2a3c93	sltiu	x25,x20,-862	 x20:0x00003701 x25=0x00000001
       24735000	      2472	800003bc	40f20c33	sub	x24,x4,x15	  x4:0xffffffff x15:0x47506394 x24=0xb8af9c6b
       24745000	      2473	800003c0	00000013	addi	x0,x0,0	  x0:0x00000000
       24755000	      2474	800003c4	5bb8c583	lbu	x11,1467(x17)	 x17:0x800089ee x11=0x00000092 PA:0x80008fa9
       24765000	      2475	800003c8	01da5433	srl	x8,x20,x29	 x20:0x00003701 x29:0xab9ac9ac  x8=0x00000003
       24775000	      2476	800003cc	00ceda13	srli	x20,x29,0xc	 x29:0xab9ac9ac x20=0x000ab9ac
       24785000	      2477	800003d0	49489823	sh	x20,1168(x17)	 x17:0x800089ee x20:0x000ab9ac PA:0x80008e7e
       24795000	      2478	800003d4	004b2133	slt	x2,x22,x4	 x22:0x00000000  x4:0xffffffff  x2=0x00000000
       24805000	      2479	800003d8	39a88f03	lb	x30,922(x17)	 x17:0x800089ee x30=0x00000073 PA:0x80008d88
       24815000	      2480	800003dc	00008117	auipc	x2,0x8	  x2=0x800083d8
       24825000	      2481	800003e0	17810113	addi	x2,x2,376	  x2:0x800083d8  x2=0x80008550
       24835000	      2482	800003e4	8073cb13	xori	x22,x7,-2041	  x7:0x00000001 x22=0xfffff806
       24845000	      2483	800003e8	08511323	sh	x5,134(x2)	  x2:0x80008550  x5:0x00000000 PA:0x800085d6
       24855000	      2484	800003ec	fc014083	lbu	x1,-64(x2)	  x2:0x80008550  x1=0x000000cb PA:0x80008510
       24865000	      2485	00000000	00000013	addi	x0,x0,0	  x0:0x00000000
       24875000	      2486	800003f0	00198bb3	add	x23,x19,x1	 x19:0x00000036  x1:0x000000cb x23=0x00000101
       24885000	      2487	800003f4	00610fb3	add	x31,x2,x6	  x2:0x80008550  x6:0x00000000 x31=0x80008550
       24895000	      2488	800003f8	7f083a13	sltiu	x20,x16,2032	 x16:0x6e030700 x20=0x00000000
       24905000	      2489	800003fc	622f7013	andi	x0,x30,1570	 x30:0x00000073
       24915000	      2490	80000400	74bf6413	ori	x8,x30,1867	 x30:0x00000073  x8=0x0000077b
       24925000	      2491	80000404	00ac8433	add	x8,x25,x10	 x25:0x00000001 x10:0x80009fc4  x8=0x80009fc5
       24935000	      2492	80000408	f7814303	lbu	x6,-136(x2)	  x2:0x80008550  x6=0x00000083 PA:0x800084c8
       24945000	      2493	8000040c	002591b3	sll	x3,x11,x2	 x11:0x00000092  x2:0x80008550  x3=0x00920000
       24955000	      2494	80000410	001ea733	slt	x14,x29,x1	 x29:0xab9ac9ac  x1:0x000000cb x14=0x00000001
       24965000	      2495	80000414	41da55b3	sra	x11,x20,x29	 x20:0x00000000 x29:0xab9ac9ac x11=0x00000000
       24975000	      2496	80000418	05211023	sh	x18,64(x2)	  x2:0x80008550 x18:0x80009eb0 PA:0x80008590
       24985000	      2497	8000041c	f3a11e83	lh	x29,-198(x2)	  x2:0x80008550 x29=0x00004041 PA:0x8000848a
       24995000	      2498	80000420	00ee5a13	srli	x20,x28,0xe	 x28:0x00000001 x20=0x00000000
       25005000	      2499	80000424	41f9dd13	srai	x26,x19,0x1f	 x19:0x00000036 x26=0x00000000
       25015000	      2500	80000428	00f6b633	sltu	x12,x13,x15	 x13:0x4a784000 x15:0x47506394 x12=0x00000000
       25025000	      2501	8000042c	f2910603	lb	x12,-215(x2)	  x2:0x80008550 x12=0x00000032 PA:0x80008479
       25035000	      2502	80000430	00479a33	sll	x20,x15,x4	 x15:0x47506394  x4:0xffffffff x20=0x00000000
       25045000	      2503	80000434	00938bb3	add	x23,x7,x9	  x7:0x00000001  x9:0x20700305 x23=0x20700306
       25055000	      2504	80000438	57957093	andi	x1,x10,1401	 x10:0x80009fc4  x1=0x00000540
       25065000	      2505	8000043c	f2c67a93	andi	x21,x12,-212	 x12:0x00000032 x21=0x00000020
       25075000	      2506	80000440	fcb14183	lbu	x3,-53(x2)	  x2:0x80008550  x3=0x000000d0 PA:0x8000851b
       25085000	      2507	80000444	0142c233	xor	x4,x5,x20	  x5:0x00000000 x20:0x00000000  x4=0x00000000
       25095000	      2508	80000448	ffe10223	sb	x30,-28(x2)	  x2:0x80008550 x30:0x00000073 PA:0x80008534
       25105000	      2509	8000044c	d0454e13	xori	x28,x10,-764	 x10:0x80009fc4 x28=0x7fff62c0
       25115000	      2510	80000450	f9d14883	lbu	x17,-99(x2)	  x2:0x80008550 x17=0x000000a6 PA:0x800084ed
       25125000	      2511	80000454	07d10b03	lb	x22,125(x2)	  x2:0x80008550 x22=0xffffff86 PA:0x800085cd
       25135000	      2512	80000458	0c510983	lb	x19,197(x2)	  x2:0x80008550 x19=0xffffffce PA:0x80008615
       25145000	      2513	8000045c	09e12e23	sw	x30,156(x2)	  x2:0x80008550 x30:0x00000073 PA:0x800085ec
       25155000	      2514	80000460	f7f14d03	lbu	x26,-129(x2)	  x2:0x80008550 x26=0x00000084 PA:0x800084cf
       25165000	      2515	80000464	04714b83	lbu	x23,71(x2)	  x2:0x80008550 x23=0x0000004c PA:0x80008597
       25175000	      2516	80000468	0bb106a3	sb	x27,173(x2)	  x2:0x80008550 x27:0x00000000 PA:0x800085fd
       25185000	      2517	8000046c	ff910a03	lb	x20,-7(x2)	  x2:0x80008550 x20=0x00000002 PA:0x80008549
       25195000	      2518	80000470	c7f10713	addi	x14,x2,-897	  x2:0x80008550 x14=0x800081cf
       25205000	      2519	80000474	00000013	addi	x0,x0,0	  x0:0x00000000
       25215000	      2520	80000478	08110d23	sb	x1,154(x2)	  x2:0x80008550  x1:0x00000540 PA:0x800085ea
       25225000	      2521	8000047c	062101a3	sb	x2,99(x2)	  x2:0x80008550  x2:0x80008550 PA:0x800085b3
       25235000	      2522	80000480	40615bb3	sra	x23,x2,x6	  x2:0x80008550  x6:0x00000083 x23=0xf00010aa
       25245000	      2523	80000484	f2415283	lhu	x5,-220(x2)	  x2:0x80008550  x5=0x00002e2f PA:0x80008474
       25255000	      2524	80000488	5dbb2f13	slti	x30,x22,1499	 x22:0xffffff86 x30=0x00000001
       25265000	      2525	8000048c	01d10a03	lb	x20,29(x2)	  x2:0x80008550 x20=0x00000026 PA:0x8000856d
       25275000	      2526	80000490	fe815383	lhu	x7,-24(x2)	  x2:0x80008550  x7=0x0000f2f3 PA:0x80008538
       25285000	      2527	80000494	40d502b3	sub	x5,x10,x13	 x10:0x80009fc4 x13:0x4a784000  x5=0x35885fc4
       25295000	      2528	80000498	009a68b3	or	x17,x20,x9	 x20:0x00000026  x9:0x20700305 x17=0x20700327
       25305000	      2529	8000049c	f0810323	sb	x8,-250(x2)	  x2:0x80008550  x8:0x80009fc5 PA:0x80008456
       25315000	      2530	800004a0	0b211a83	lh	x21,178(x2)	  x2:0x80008550 x21=0xffffb8b9 PA:0x80008602
       25325000	      2531	800004a4	0ee11923	sh	x14,242(x2)	  x2:0x80008550 x14:0x800081cf PA:0x80008642
       25335000	      2532	800004a8	00008e17	auipc	x28,0x8	 x28=0x800084a4
       25345000	      2533	800004ac	1bce0e13	addi	x28,x28,444	 x28:0x800084a4 x28=0x80008660
       25355000	      2534	800004b0	edce2a23	sw	x28,-300(x28)	 x28:0x80008660 x28:0x80008660 PA:0x80008534
       25365000	      2535	800004b4	00000013	addi	x0,x0,0	  x0:0x00000000
       25375000	      2536	800004b8	f9be0383	lb	x7,-101(x28)	 x28:0x80008660  x7=0xffffffb0 PA:0x800085fb
       25385000	      2537	800004bc	b7ce0f23	sb	x28,-1154(x28)	 x28:0x80008660 x28:0x80008660 PA:0x800081de
       25395000	      2538	800004c0	01091413	slli	x8,x18,0x10	 x18:0x80009eb0  x8=0x9eb00000
       25405000	      2539	800004c4	f81e4483	lbu	x9,-127(x28)	 x28:0x80008660  x9=0x0000009a PA:0x800085e1
       25415000	      2540	800004c8	120e4583	lbu	x11,288(x28)	 x28:0x80008660 x11=0x0000003b PA:0x80008780
       25425000	      2541	800004cc	00685613	srli	x12,x16,0x6	 x16:0x6e030700 x12=0x01b80c1c
       25435000	      2542	800004d0	fbfe0603	lb	x12,-65(x28)	 x28:0x80008660 x12=0xffffffd4 PA:0x8000861f
       25445000	      2543	800004d4	2e8e0113	addi	x2,x28,744	 x28:0x80008660  x2=0x80008948
       25455000	      2544	800004d8	f7ee4183	lbu	x3,-130(x28)	 x28:0x80008660  x3=0x00000095 PA:0x800085de
       25465000	      2545	800004dc	e2de4b83	lbu	x23,-467(x28)	 x28:0x80008660 x23=0x00000046 PA:0x8000848d
       25475000	      2546	800004e0	f3ae0603	lb	x12,-198(x28)	 x28:0x80008660 x12=0x00000051 PA:0x8000859a
       25485000	      2547	800004e4	00000013	addi	x0,x0,0	  x0:0x00000000
       25495000	      2548	800004e8	4028d633	sra	x12,x17,x2	 x17:0x20700327  x2:0x80008948 x12=0x00207003
       25505000	      2549	800004ec	400557b3	sra	x15,x10,x0	 x10:0x80009fc4  x0:0x00000000 x15=0x80009fc4
       25515000	      2550	800004f0	efae0ba3	sb	x26,-265(x28)	 x28:0x80008660 x26:0x00000084 PA:0x80008557
       25525000	      2551	800004f4	c7ae5303	lhu	x6,-902(x28)	 x28:0x80008660  x6=0x00009091 PA:0x800082da
       25535000	      2552	800004f8	0c8e0803	lb	x16,200(x28)	 x28:0x80008660 x16=0xffffffe3 PA:0x80008728
       25545000	      2553	800004fc	acbe0003	lb	x0,-1333(x28)	 x28:0x80008660 PA:0x8000812b
       25555000	      2554	80000500	005a66b3	or	x13,x20,x5	 x20:0x00000026  x5:0x35885fc4 x13=0x35885fe6
       25565000	      2555	80000504	5ea57613	andi	x12,x10,1514	 x10:0x80009fc4 x12=0x000005c0
       25575000	      2556	80000508	005b8133	add	x2,x23,x5	 x23:0x00000046  x5:0x35885fc4  x2=0x3588600a
       25585000	      2557	8000050c	d00e5683	lhu	x13,-768(x28)	 x28:0x80008660 x13=0x00001a1b PA:0x80008360
       25595000	      2558	80000510	0d6e1d37	lui	x26,0xd6e1	 x26=0x0d6e1000
       25605000	      2559	80000514	10fe0c83	lb	x25,271(x28)	 x28:0x80008660 x25=0x00000024 PA:0x8000876f
       25615000	      2560	80000518	00bfd493	srli	x9,x31,0xb	 x31:0x80008550  x9=0x00100010
       25625000	      2561	8000051c	9c9e2797	auipc	x15,0x9c9e2	 x15=0x1c9e2518
       25635000	      2562	80000520	ef8e2783	lw	x15,-264(x28)	 x28:0x80008660 x15=0x10111213 PA:0x80008558
       25645000	      2563	80000524	d11e09a3	sb	x17,-749(x28)	 x28:0x80008660 x17:0x20700327 PA:0x80008373
       25655000	      2564	80000528	734eeb93	ori	x23,x29,1844	 x29:0x00004041 x23=0x00004775
       25665000	      2565	8000052c	ed6e4183	lbu	x3,-298(x28)	 x28:0x80008660  x3=0x00000000 PA:0x80008536
       25675000	      2566	80000530	4bf2ca13	xori	x20,x5,1215	  x5:0x35885fc4 x20=0x35885b7b
       25685000	      2567	80000534	be7e06a3	sb	x7,-1043(x28)	 x28:0x80008660  x7:0xffffffb0 PA:0x8000824d
       25695000	      2568	80000538	de4e0ea3	sb	x4,-515(x28)	 x28:0x80008660  x4:0x00000000 PA:0x8000845d
       25705000	      2569	8000053c	01585433	srl	x8,x16,x21	 x16:0xffffffe3 x21:0xffffb8b9  x8=0x0000007f
       25715000	      2570	80000540	f13e0f23	sb	x19,-226(x28)	 x28:0x80008660 x19:0xffffffce PA:0x8000857e
       25725000	      2571	80000544	00008417	auipc	x8,0x8	  x8=0x80008540
       25735000	      2572	80000548	d0440413	addi	x8,x8,-764	  x8:0x80008540  x8=0x80008244
       25745000	      2573	8000054c	00ac79b3	and	x19,x24,x10	 x24:0xb8af9c6b x10:0x80009fc4 x19=0x80009c40
       25755000	      2574	80000550	4ba45e03	lhu	x28,1210(x8)	  x8:0x80008244 x28=0x0000b4b5 PA:0x800086fe
       25765000	      2575	80000554	95532113	slti	x2,x6,-1707	  x6:0x00009091  x2=0x00000000
       25775000	      2576	80000558	00859093	slli	x1,x11,0x8	 x11:0x0000003b  x1=0x00003b00
       25785000	      2577	8000055c	40841383	lh	x7,1032(x8)	  x8:0x80008244  x7=0x00000607 PA:0x8000864c
       25795000	      2578	80000560	f2c44383	lbu	x7,-212(x8)	  x8:0x80008244  x7=0x0000002b PA:0x80008170
       25805000	      2579	80000564	13e40fa3	sb	x30,319(x8)	  x8:0x80008244 x30:0x00000001 PA:0x80008383
       25815000	      2580	80000568	cda08a13	addi	x20,x1,-806	  x1:0x00003b00 x20=0x000037da
       25825000	      2581	8000056c	2ac41b23	sh	x12,694(x8)	  x8:0x80008244 x12:0x000005c0 PA:0x800084fa
       25835000	      2582	80000570	0fb4ca13	xori	x20,x9,251	  x9:0x00100010 x20=0x001000eb
       25845000	      2583	80000574	efd41f23	sh	x29,-258(x8)	  x8:0x80008244 x29:0x00004041 PA:0x80008142
       25855000	      2584	80000578	0e440483	lb	x9,228(x8)	  x8:0x80008244  x9=0xffffffe3 PA:0x80008328
       25865000	      2585	8000057c	6846ec93	ori	x25,x13,1668	 x13:0x00001a1b x25=0x00001e9f
       25875000	      2586	80000580	fd440623	sb	x20,-52(x8)	  x8:0x80008244 x20:0x001000eb PA:0x80008210
       25885000	      2587	80000584	00b1e0b3	or	x1,x3,x11	  x3:0x00000000 x11:0x0000003b  x1=0x0000003b
       25895000	      2588	80000588	01b45b33	srl	x22,x8,x27	  x8:0x80008244 x27:0x00000000 x22=0x80008244
       25905000	      2589	8000058c	f5344603	lbu	x12,-173(x8)	  x8:0x80008244 x12=0x0000004c PA:0x80008197
       25915000	      2590	80000590	00000013	addi	x0,x0,0	  x0:0x00000000
       25925000	      2591	80000594	34845783	lhu	x15,840(x8)	  x8:0x80008244 x15=0x00004647 PA:0x8000858c
       25935000	      2592	80000598	43a40323	sb	x26,1062(x8)	  x8:0x80008244 x26:0x0d6e1000 PA:0x8000866a
       25945000	      2593	8000059c	00355633	srl	x12,x10,x3	 x10:0x80009fc4  x3:0x00000000 x12=0x80009fc4
       25955000	      2594	800005a0	00432033	slt	x0,x6,x4	  x6:0x00009091  x4:0x00000000
       25965000	      2595	800005a4	29f40183	lb	x3,671(x8)	  x8:0x80008244  x3=0xfffffffb PA:0x800084e3
       25975000	      2596	800005a8	c4ffc393	xori	x7,x31,-945	 x31:0x80008550  x7=0x7fff791f
       25985000	      2597	800005ac	0d042583	lw	x11,208(x8)	  x8:0x80008244 x11=0xcccdcecf PA:0x80008314
       25995000	      2598	800005b0	00fec833	xor	x16,x29,x15	 x29:0x00004041 x15:0x00004647 x16=0x00000606
       26005000	      2599	800005b4	45540a23	sb	x21,1108(x8)	  x8:0x80008244 x21:0xffffb8b9 PA:0x80008698
       26015000	      2600	800005b8	00009a17	auipc	x20,0x9	 x20=0x800095b4
       26025000	      2601	800005bc	a25a0a13	addi	x20,x20,-1499	 x20:0x800095b4 x20=0x80008fd9
       26035000	      2602	800005c0	01a666b3	or	x13,x12,x26	 x12:0x80009fc4 x26:0x0d6e1000 x13=0x8d6e9fc4
       26045000	      2603	800005c4	00cfc333	xor	x6,x31,x12	 x31:0x80008550 x12:0x80009fc4  x6=0x00001a94
       26055000	      2604	800005c8	fd8a0223	sb	x24,-60(x20)	 x20:0x80008fd9 x24:0xb8af9c6b PA:0x80008f9d
       26065000	      2605	800005cc	fc7a0a23	sb	x7,-44(x20)	 x20:0x80008fd9  x7:0x7fff791f PA:0x80008fad
       26075000	      2606	800005d0	00877e33	and	x28,x14,x8	 x14:0x800081cf  x8:0x80008244 x28=0x80008044
       26085000	      2607	800005d4	01e328b3	slt	x17,x6,x30	  x6:0x00001a94 x30:0x00000001 x17=0x00000000
       26095000	      2608	800005d8	ffea0c23	sb	x30,-8(x20)	 x20:0x80008fd9 x30:0x00000001 PA:0x80008fd1
       26105000	      2609	800005dc	8714e493	ori	x9,x9,-1935	  x9:0xffffffe3  x9=0xfffffff3
       26115000	      2610	800005e0	f95a0d03	lb	x26,-107(x20)	 x20:0x80008fd9 x26=0x00000055 PA:0x80008f6e
       26125000	      2611	800005e4	f83a5403	lhu	x8,-125(x20)	 x20:0x80008fd9  x8=0x00004647 PA:0x80008f5c
       26135000	      2612	800005e8	41e95393	srai	x7,x18,0x1e	 x18:0x80009eb0  x7=0xfffffffe
       26145000	      2613	800005ec	fe2a0003	lb	x0,-30(x20)	 x20:0x80008fd9 PA:0x80008fbb
       26155000	      2614	800005f0	3e198e13	addi	x28,x19,993	 x19:0x80009c40 x28=0x8000a021
       26165000	      2615	800005f4	01955233	srl	x4,x10,x25	 x10:0x80009fc4 x25:0x00001e9f  x4=0x00000001
       26175000	      2616	800005f8	9f1fa213	slti	x4,x31,-1551	 x31:0x80008550  x4=0x00000001
       26185000	      2617	800005fc	00eead33	slt	x26,x29,x14	 x29:0x00004041 x14:0x800081cf x26=0x00000000
       26195000	      2618	80000600	12f9bb93	sltiu	x23,x19,303	 x19:0x80009c40 x23=0x00000000
       26205000	      2619	80000604	f9da0483	lb	x9,-99(x20)	 x20:0x80008fd9  x9=0x0000005d PA:0x80008f76
       26215000	      2620	80000608	f9c43c93	sltiu	x25,x8,-100	  x8:0x00004647 x25=0x00000001
       26225000	      2621	8000060c	01f15993	srli	x19,x2,0x1f	  x2:0x00000000 x19=0x00000000
       26235000	      2622	80000610	f42a4083	lbu	x1,-190(x20)	 x20:0x80008fd9  x1=0x00000000 PA:0x80008f1b
       26245000	      2623	80000614	f67a1203	lh	x4,-153(x20)	 x20:0x80008fd9  x4=0x00002a2b PA:0x80008f40
       26255000	      2624	80000618	f23a2303	lw	x6,-221(x20)	 x20:0x80008fd9  x6=0xe4e5e6e7 PA:0x80008efc
       26265000	      2625	8000061c	00ea0f83	lb	x31,14(x20)	 x20:0x80008fd9 x31=0xffffffcc PA:0x80008fe7
       26275000	      2626	80000620	f08a4283	lbu	x5,-248(x20)	 x20:0x80008fd9  x5=0x000000ca PA:0x80008ee1
       26285000	      2627	80000624	f96a0803	lb	x16,-106(x20)	 x20:0x80008fd9 x16=0x00000054 PA:0x80008f6f
       26295000	      2628	80000628	e382e313	ori	x6,x5,-456	  x5:0x000000ca  x6=0xfffffefa
       26305000	      2629	8000062c	f8ea1ba3	sh	x14,-105(x20)	 x20:0x80008fd9 x14:0x800081cf PA:0x80008f70
       26315000	      2630	80000630	fd4a0583	lb	x11,-44(x20)	 x20:0x80008fd9 x11=0x0000001f PA:0x80008fad
       26325000	      2631	80000634	017d80b3	add	x1,x27,x23	 x27:0x00000000 x23:0x00000000  x1=0x00000000
       26335000	      2632	80000638	006a4c83	lbu	x25,6(x20)	 x20:0x80008fd9 x25=0x000000c4 PA:0x80008fdf
       26345000	      2633	8000063c	f52a4383	lbu	x7,-174(x20)	 x20:0x80008fd9  x7=0x00000010 PA:0x80008f2b
       26355000	      2634	80000640	f94a4283	lbu	x5,-108(x20)	 x20:0x80008fd9  x5=0x00000056 PA:0x80008f6d
       26365000	      2635	80000644	faca4303	lbu	x6,-84(x20)	 x20:0x80008fd9  x6=0x0000006e PA:0x80008f85
       26375000	      2636	80000648	f88a0c03	lb	x24,-120(x20)	 x20:0x80008fd9 x24=0x0000004a PA:0x80008f61
       26385000	      2637	8000064c	a0f78f93	addi	x31,x15,-1521	 x15:0x00004647 x31=0x00004056
       26395000	      2638	80000650	000cbf33	sltu	x30,x25,x0	 x25:0x000000c4  x0:0x00000000 x30=0x00000000
       26405000	      2639	80000654	f83a0483	lb	x9,-125(x20)	 x20:0x80008fd9  x9=0x00000047 PA:0x80008f5c
       26415000	      2640	80000658	00009697	auipc	x13,0x9	 x13=0x80009654
       26425000	      2641	8000065c	8ec68693	addi	x13,x13,-1812	 x13:0x80009654 x13=0x80008f40
       26435000	      2642	80000660	008ec4b3	xor	x9,x29,x8	 x29:0x00004041  x8:0x00004647  x9=0x00000606
       26445000	      2643	80000664	4101df13	srai	x30,x3,0x10	  x3:0xfffffffb x30=0xffffffff
       26455000	      2644	80000668	fd269e83	lh	x29,-46(x13)	 x13:0x80008f40 x29=0xfffff8f9 PA:0x80008f12
       26465000	      2645	8000066c	006ba5b3	slt	x11,x23,x6	 x23:0x00000000  x6:0x0000006e x11=0x00000001
       26475000	      2646	80000670	fd3687a3	sb	x19,-49(x13)	 x13:0x80008f40 x19:0x00000000 PA:0x80008f0f
       26485000	      2647	80000674	5e98fe13	andi	x28,x17,1513	 x17:0x00000000 x28=0x00000000
       26495000	      2648	80000678	f3f684a3	sb	x31,-215(x13)	 x13:0x80008f40 x31:0x00004056 PA:0x80008e69
       26505000	      2649	8000067c	09269c03	lh	x24,146(x13)	 x13:0x80008f40 x24=0xffffb8b9 PA:0x80008fd2
       26515000	      2650	80000680	013f5c13	srli	x24,x30,0x13	 x30:0xffffffff x24=0x00001fff
       26525000	      2651	80000684	fe06cf03	lbu	x30,-32(x13)	 x13:0x80008f40 x30=0x0000000b PA:0x80008f20
       26535000	      2652	80000688	0121ac33	slt	x24,x3,x18	  x3:0xfffffffb x18:0x80009eb0 x24=0x00000000
       26545000	      2653	8000068c	0f9ef597	auipc	x11,0xf9ef	 x11=0x8f9ef688
       26555000	      2654	80000690	f8268da3	sb	x2,-101(x13)	 x13:0x80008f40  x2:0x00000000 PA:0x80008edb
       26565000	      2655	80000694	f3469c03	lh	x24,-204(x13)	 x13:0x80008f40 x24=0x00005e5f PA:0x80008e74
       26575000	      2656	80000698	f5d6c083	lbu	x1,-163(x13)	 x13:0x80008f40  x1=0x00000086 PA:0x80008e9d
       26585000	      2657	8000069c	fdf687a3	sb	x31,-49(x13)	 x13:0x80008f40 x31:0x00004056 PA:0x80008f0f
       26595000	      2658	800006a0	f046cf83	lbu	x31,-252(x13)	 x13:0x80008f40 x31=0x0000002f PA:0x80008e44
       26605000	      2659	800006a4	00a37e33	and	x28,x6,x10	  x6:0x0000006e x10:0x80009fc4 x28=0x00000044
       26615000	      2660	800006a8	01f6cd03	lbu	x26,31(x13)	 x13:0x80008f40 x26=0x00000044 PA:0x80008f5f
       26625000	      2661	800006ac	f2468103	lb	x2,-220(x13)	 x13:0x80008f40  x2=0x00000000 PA:0x80008e64
       26635000	      2662	800006b0	c0570413	addi	x8,x14,-1019	 x14:0x800081cf  x8=0x80007dd4
       26645000	      2663	800006b4	00000013	addi	x0,x0,0	  x0:0x00000000
       26655000	      2664	800006b8	f26ce793	ori	x15,x25,-218	 x25:0x000000c4 x15=0xffffffe6
       26665000	      2665	800006bc	f506a623	sw	x16,-180(x13)	 x13:0x80008f40 x16:0x00000054 PA:0x80008e8c
       26675000	      2666	800006c0	f296c703	lbu	x14,-215(x13)	 x13:0x80008f40 x14=0x00000056 PA:0x80008e69
       26685000	      2667	800006c4	f056c783	lbu	x15,-251(x13)	 x13:0x80008f40 x15=0x0000002e PA:0x80008e45
       26695000	      2668	800006c8	016cb3b3	sltu	x7,x25,x22	 x25:0x000000c4 x22:0x80008244  x7=0x00000001
       26705000	      2669	800006cc	fee6ac23	sw	x14,-8(x13)	 x13:0x80008f40 x14:0x00000056 PA:0x80008f38
       26715000	      2670	800006d0	f7868f03	lb	x30,-136(x13)	 x13:0x80008f40 x30=0xffffffa3 PA:0x80008eb8
       26725000	      2671	800006d4	f3b68aa3	sb	x27,-203(x13)	 x13:0x80008f40 x27:0x00000000 PA:0x80008e75
       26735000	      2672	800006d8	ccf44b93	xori	x23,x8,-817	  x8:0x80007dd4 x23=0x7fff811b
       26745000	      2673	800006dc	00864cb3	xor	x25,x12,x8	 x12:0x80009fc4  x8:0x80007dd4 x25=0x0000e210
       26755000	      2674	800006e0	06f68723	sb	x15,110(x13)	 x13:0x80008f40 x15:0x0000002e PA:0x80008fae
       26765000	      2675	800006e4	a636ca93	xori	x21,x13,-1437	 x13:0x80008f40 x21=0x7fff7523
       26775000	      2676	800006e8	f0768ea3	sb	x7,-227(x13)	 x13:0x80008f40  x7:0x00000001 PA:0x80008e5d
       26785000	      2677	800006ec	02568583	lb	x11,37(x13)	 x13:0x80008f40 x11=0x0000004e PA:0x80008f65
       26795000	      2678	800006f0	056685a3	sb	x22,75(x13)	 x13:0x80008f40 x22:0x80008244 PA:0x80008f8b
       26805000	      2679	800006f4	fd36a023	sw	x19,-64(x13)	 x13:0x80008f40 x19:0x00000000 PA:0x80008f00
       26815000	      2680	800006f8	feb68103	lb	x2,-21(x13)	 x13:0x80008f40  x2=0x00000010 PA:0x80008f2b
       26825000	      2681	800006fc	01e40333	add	x6,x8,x30	  x8:0x80007dd4 x30:0xffffffa3  x6=0x80007d77
       26835000	      2682	80000700	f7e68083	lb	x1,-130(x13)	 x13:0x80008f40  x1=0x00000000 PA:0x80008ebe
       26845000	      2683	00000000	00000013	addi	x0,x0,0	  x0:0x00000000
       26855000	      2684	80000704	00008117	auipc	x2,0x8	  x2=0x80008700
       26865000	      2685	80000708	42510113	addi	x2,x2,1061	  x2:0x80008700  x2=0x80008b25
       26875000	      2686	8000070c	f2514383	lbu	x7,-219(x2)	  x2:0x80008b25  x7=0x00000031 PA:0x80008a4a
       26885000	      2687	80000710	f0a10a83	lb	x21,-246(x2)	  x2:0x80008b25 x21=0x00000014 PA:0x80008a2f
       26895000	      2688	80000714	062116a3	sh	x2,109(x2)	  x2:0x80008b25  x2:0x80008b25 PA:0x80008b92
       26905000	      2689	80000718	f7010523	sb	x16,-150(x2)	  x2:0x80008b25 x16:0x00000054 PA:0x80008a8f
       26915000	      2690	8000071c	014a9013	slli	x0,x21,0x14	 x21:0x00000014
       26925000	      2691	80000720	5f1d1897	auipc	x17,0x5f1d1	 x17=0xdf1d171c
       26935000	      2692	80000724	f2910b03	lb	x22,-215(x2)	  x2:0x80008b25 x22=0x00000035 PA:0x80008a4e
       26945000	      2693	80000728	01e20333	add	x6,x4,x30	  x4:0x00002a2b x30:0xffffffa3  x6=0x000029ce
       26955000	      2694	8000072c	f6910ea3	sb	x9,-131(x2)	  x2:0x80008b25  x9:0x00000606 PA:0x80008aa2
       26965000	      2695	80000730	56298c13	addi	x24,x19,1378	 x19:0x00000000 x24=0x00000562
       26975000	      2696	80000734	0ae10f83	lb	x31,174(x2)	  x2:0x80008b25 x31=0xffffffb8 PA:0x80008bd3
       26985000	      2697	80000738	fac14303	lbu	x6,-84(x2)	  x2:0x80008b25  x6=0x000000ba PA:0x80008ad1
       26995000	      2698	8000073c	fc110b03	lb	x22,-63(x2)	  x2:0x80008b25 x22=0xffffffcd PA:0x80008ae6
       27005000	      2699	80000740	2da83cb7	lui	x25,0x2da83	 x25=0x2da83000
       27015000	      2700	80000744	003736b3	sltu	x13,x14,x3	 x14:0x00000056  x3:0xfffffffb x13=0x00000001
       27025000	      2701	80000748	e0226093	ori	x1,x4,-510	  x4:0x00002a2b  x1=0xfffffe2b
       27035000	      2702	8000074c	f0115a83	lhu	x21,-255(x2)	  x2:0x80008b25 x21=0x00000c0d PA:0x80008a26
       27045000	      2703	80000750	fc714183	lbu	x3,-57(x2)	  x2:0x80008b25  x3=0x000000d7 PA:0x80008aec
       27055000	      2704	80000754	041125a3	sw	x1,75(x2)	  x2:0x80008b25  x1:0xfffffe2b PA:0x80008b70
       27065000	      2705	80000758	4135db33	sra	x22,x11,x19	 x11:0x0000004e x19:0x00000000 x22=0x0000004e
       27075000	      2706	8000075c	05d10303	lb	x6,93(x2)	  x2:0x80008b25  x6=0x00000069 PA:0x80008b82
       27085000	      2707	80000760	06a112a3	sh	x10,101(x2)	  x2:0x80008b25 x10:0x80009fc4 PA:0x80008b8a
       27095000	      2708	80000764	40b5d413	srai	x8,x11,0xb	 x11:0x0000004e  x8=0x00000000
       27105000	      2709	80000768	0b914a83	lbu	x21,185(x2)	  x2:0x80008b25 x21=0x000000c5 PA:0x80008bde
       27115000	      2710	8000076c	0e410603	lb	x12,228(x2)	  x2:0x80008b25 x12=0xfffffff2 PA:0x80008c09
       27125000	      2711	80000770	040d6213	ori	x4,x26,64	 x26:0x00000044  x4=0x00000044
       27135000	      2712	80000774	0ea10fa3	sb	x10,255(x2)	  x2:0x80008b25 x10:0x80009fc4 PA:0x80008c24
       27145000	      2713	80000778	018bf4b3	and	x9,x23,x24	 x23:0x7fff811b x24:0x00000562  x9=0x00000102
       27155000	      2714	8000077c	02910203	lb	x4,41(x2)	  x2:0x80008b25  x4=0x00000035 PA:0x80008b4e
       27165000	      2715	80000780	a0193c93	sltiu	x25,x18,-1535	 x18:0x80009eb0 x25=0x00000001
       27175000	      2716	80000784	0e515d03	lhu	x26,229(x2)	  x2:0x80008b25 x26=0x0000f0f1 PA:0x80008c0a
       27185000	      2717	80000788	f7510c23	sb	x21,-136(x2)	  x2:0x80008b25 x21:0x000000c5 PA:0x80008a9d
       27195000	      2718	8000078c	01214e03	lbu	x28,18(x2)	  x2:0x80008b25 x28=0x0000001c PA:0x80008b37
       27205000	      2719	80000790	f6214a83	lbu	x21,-158(x2)	  x2:0x80008b25 x21=0x00000000 PA:0x80008a87
       27215000	      2720	80000794	02f11b03	lh	x22,47(x2)	  x2:0x80008b25 x22=0x00003e3f PA:0x80008b54
       27225000	      2721	80000798	02814803	lbu	x16,40(x2)	  x2:0x80008b25 x16=0x00000036 PA:0x80008b4d
       27235000	      2722	8000079c	00008117	auipc	x2,0x8	  x2=0x80008798
       27245000	      2723	800007a0	38f10113	addi	x2,x2,911	  x2:0x80008798  x2=0x80008b27
       27255000	      2724	800007a4	37610703	lb	x14,886(x2)	  x2:0x80008b27 x14=0xffffff86 PA:0x80008e9d
       27265000	      2725	800007a8	2deeb893	sltiu	x17,x29,734	 x29:0xfffff8f9 x17=0x00000000
       27275000	      2726	800007ac	d2512783	lw	x15,-731(x2)	  x2:0x80008b27 x15=0x34353637 PA:0x8000884c
       27285000	      2727	800007b0	8b1db593	sltiu	x11,x27,-1871	 x27:0x00000000 x11=0x00000001
       27295000	      2728	800007b4	01749893	slli	x17,x9,0x17	  x9:0x00000102 x17=0x81000000
       27305000	      2729	800007b8	0005c6b3	xor	x13,x11,x0	 x11:0x00000001  x0:0x00000000 x13=0x00000001
       27315000	      2730	800007bc	01f28b33	add	x22,x5,x31	  x5:0x00000056 x31:0xffffffb8 x22=0x0000000e
       27325000	      2731	800007c0	00e98333	add	x6,x19,x14	 x19:0x00000000 x14:0xffffff86  x6=0xffffff86
       27335000	      2732	800007c4	00fd1e93	slli	x29,x26,0xf	 x26:0x0000f0f1 x29=0x78788000
       27345000	      2733	800007c8	f8914403	lbu	x8,-119(x2)	  x2:0x80008b27  x8=0x00000032 PA:0x80008ab0
       27355000	      2734	00000000	00000013	addi	x0,x0,0	  x0:0x00000000
       27365000	      2735	800007cc	3e810923	sb	x8,1010(x2)	  x2:0x80008b27  x8:0x00000032 PA:0x80008f19
       27375000	      2736	800007d0	0188f733	and	x14,x17,x24	 x17:0x81000000 x24:0x00000562 x14=0x00000000
       27385000	      2737	800007d4	8f679c37	lui	x24,0x8f679	 x24=0x8f679000
       27395000	      2738	800007d8	44b15d03	lhu	x26,1099(x2)	  x2:0x80008b27 x26=0x00005859 PA:0x80008f72
       27405000	      2739	800007dc	008b9f13	slli	x30,x23,0x8	 x23:0x7fff811b x30=0xff811b00
       27415000	      2740	800007e0	4192dd33	sra	x26,x5,x25	  x5:0x00000056 x25:0x00000001 x26=0x0000002b
       27425000	      2741	800007e4	00934bb3	xor	x23,x6,x9	  x6:0xffffff86  x9:0x00000102 x23=0xfffffe84
       27435000	      2742	800007e8	00000013	addi	x0,x0,0	  x0:0x00000000
       27445000	      2743	800007ec	b9bd2e13	slti	x28,x26,-1125	 x26:0x0000002b x28=0x00000000
       27455000	      2744	800007f0	12810023	sb	x8,288(x2)	  x2:0x80008b27  x8:0x00000032 PA:0x80008c47
       27465000	      2745	800007f4	00cdb6b3	sltu	x13,x27,x12	 x27:0x00000000 x12:0xfffffff2 x13=0x00000001
       27475000	      2746	800007f8	0cf10083	lb	x1,207(x2)	  x2:0x80008b27  x1=0xffffff9c PA:0x80008bf6
       27485000	      2747	800007fc	ddc14403	lbu	x8,-548(x2)	  x2:0x80008b27  x8=0x000000e8 PA:0x80008903
       27495000	      2748	80000800	004b9ab3	sll	x21,x23,x4	 x23:0xfffffe84  x4:0x00000035 x21=0xd0800000
       27505000	      2749	80000804	47414703	lbu	x14,1140(x2)	  x2:0x80008b27 x14=0x00000080 PA:0x80008f9b
       27515000	      2750	80000808	441102a3	sb	x1,1093(x2)	  x2:0x80008b27  x1:0xffffff9c PA:0x80008f6c
       27525000	      2751	8000080c	1b010403	lb	x8,432(x2)	  x2:0x80008b27  x8=0xffffffbc PA:0x80008cd7
       27535000	      2752	80000810	1d5102a3	sb	x21,453(x2)	  x2:0x80008b27 x21:0xd0800000 PA:0x80008cec
       27545000	      2753	80000814	31c14a83	lbu	x21,796(x2)	  x2:0x80008b27 x21=0x00000028 PA:0x80008e43
       27555000	      2754	80000818	00000013	addi	x0,x0,0	  x0:0x00000000
       27565000	      2755	8000081c	00d69d33	sll	x26,x13,x13	 x13:0x00000001 x13:0x00000001 x26=0x00000002
       27575000	      2756	80000820	9a758f93	addi	x31,x11,-1625	 x11:0x00000001 x31=0xfffff9a8
       27585000	      2757	80000824	41b05ab3	sra	x21,x0,x27	  x0:0x00000000 x27:0x00000000 x21=0x00000000
       27595000	      2758	80000828	0042f8b3	and	x17,x5,x4	  x5:0x00000056  x4:0x00000035 x17=0x00000014
       27605000	      2759	8000082c	eb912383	lw	x7,-327(x2)	  x2:0x80008b27  x7=0xc8c9cacb PA:0x800089e0
       27615000	      2760	80000830	f5311a83	lh	x21,-173(x2)	  x2:0x80008b27 x21=0x00006061 PA:0x80008a7a
       27625000	      2761	80000834	00d7dd13	srli	x26,x15,0xd	 x15:0x34353637 x26=0x0001a1a9
       27635000	      2762	80000838	5cf1c797	auipc	x15,0x5cf1c	 x15=0xdcf1c834
       27645000	      2763	8000083c	047ad063	bge	x21,x7,8000087c	 x21:0x00006061  x7:0xc8c9cacb
       27655000	      2764	00000000	00000013	addi	x0,x0,0	  x0:0x00000000
       27665000	      2765	80000878	00000013	addi	x0,x0,0	  x0:0x00000000
       27675000	      2766	8000087c	57206817	auipc	x16,0x57206	 x16=0xd7206878
       27685000	      2767	80000880	1130cd13	xori	x26,x1,275	  x1:0xffffff9c x26=0xfffffe8f
       27695000	      2768	80000884	90938013	addi	x0,x7,-1783	  x7:0xc8c9cacb
       27705000	      2769	80000888	323d3613	sltiu	x12,x26,803	 x26:0xfffffe8f x12=0x00000000
       27715000	      2770	8000088c	007b6ab3	or	x21,x22,x7	 x22:0x0000000e  x7:0xc8c9cacb x21=0xc8c9cacf
       27725000	      2771	80000890	edace197	auipc	x3,0xedace	  x3=0x6dace88c
       27735000	      2772	80000894	01fc4c63	blt	x24,x31,800008ac	 x24:0x8f679000 x31:0xfffff9a8
       27745000	      2773	00000000	00000013	addi	x0,x0,0	  x0:0x00000000
       27755000	      2774	800008a8	00000013	addi	x0,x0,0	  x0:0x00000000
       27765000	      2775	800008ac	019d93b3	sll	x7,x27,x25	 x27:0x00000000 x25:0x00000001  x7=0x00000000
       27775000	      2776	800008b0	c8c9e097	auipc	x1,0xc8c9e	  x1=0x48c9e8ac
       27785000	      2777	800008b4	41f38633	sub	x12,x7,x31	  x7:0x00000000 x31:0xfffff9a8 x12=0x00000658
       27795000	      2778	800008b8	0310cc63	blt	x1,x17,800008f0	  x1:0x48c9e8ac x17:0x00000014
       27805000	      2779	800008bc	02466e63	bltu	x12,x4,800008f8	 x12:0x00000658  x4:0x00000035
       27815000	      2780	800008c0	25fd8a93	addi	x21,x27,607	 x27:0x00000000 x21=0x0000025f
       27825000	      2781	800008c4	01f57b33	and	x22,x10,x31	 x10:0x80009fc4 x31:0xfffff9a8 x22=0x80009980
       27835000	      2782	800008c8	a25a8d13	addi	x26,x21,-1499	 x21:0x0000025f x26=0xfffffc84
       27845000	      2783	800008cc	95a83213	sltiu	x4,x16,-1702	 x16:0xd7206878  x4=0x00000001
       27855000	      2784	800008d0	043a0663	beq	x20,x3,8000091c	 x20:0x80008fd9  x3:0x6dace88c
       27865000	      2785	800008d4	0148b2b3	sltu	x5,x17,x20	 x17:0x00000014 x20:0x80008fd9  x5=0x00000001
       27875000	      2786	800008d8	16374b93	xori	x23,x14,355	 x14:0x00000080 x23=0x000001e3
       27885000	      2787	800008dc	b2546b93	ori	x23,x8,-1243	  x8:0xffffffbc x23=0xffffffbd
       27895000	      2788	800008e0	a967af13	slti	x30,x15,-1386	 x15:0xdcf1c834 x30=0x00000001
       27905000	      2789	800008e4	03aa7663	bgeu	x20,x26,80000910	 x20:0x80008fd9 x26:0xfffffc84
       27915000	      2790	800008e8	24356f93	ori	x31,x10,579	 x10:0x80009fc4 x31=0x80009fc7
       27925000	      2791	800008ec	015a3a33	sltu	x20,x20,x21	 x20:0x80008fd9 x21:0x0000025f x20=0x00000000
       27935000	      2792	800008f0	00000013	addi	x0,x0,0	  x0:0x00000000
       27945000	      2793	800008f4	058e4863	blt	x28,x24,80000944	 x28:0x00000000 x24:0x8f679000
       27955000	      2794	800008f8	91f22c13	slti	x24,x4,-1761	  x4:0x00000001 x24=0x00000000
       27965000	      2795	800008fc	001e1033	sll	x0,x28,x1	 x28:0x00000000  x1:0x48c9e8ac
       27975000	      2796	80000900	00000013	addi	x0,x0,0	  x0:0x00000000
       27985000	      2797	80000904	05afe463	bltu	x31,x26,8000094c	 x31:0x80009fc7 x26:0xfffffc84
       27995000	      2798	00000000	00000013	addi	x0,x0,0	  x0:0x00000000
       28005000	      2799	80000948	00000013	addi	x0,x0,0	  x0:0x00000000
       28015000	      2800	8000094c	6b8e3397	auipc	x7,0x6b8e3	  x7=0xeb8e3948
       28025000	      2801	80000950	27bbd237	lui	x4,0x27bbd	  x4=0x27bbd000
       28035000	      2802	80000954	00afa133	slt	x2,x31,x10	 x31:0x80009fc7 x10:0x80009fc4  x2=0x00000000
       28045000	      2803	80000958	01a5ca33	xor	x20,x11,x26	 x11:0x00000001 x26:0xfffffc84 x20=0xfffffc85
       28055000	      2804	8000095c	ec2fca93	xori	x21,x31,-318	 x31:0x80009fc7 x21=0x7fff6105
       28065000	      2805	80000960	01174e33	xor	x28,x14,x17	 x14:0x00000080 x17:0x00000014 x28=0x00000094
       28075000	      2806	80000964	00ad7d33	and	x26,x26,x10	 x26:0xfffffc84 x10:0x80009fc4 x26=0x80009c84
       28085000	      2807	80000968	0125b2b3	sltu	x5,x11,x18	 x11:0x00000001 x18:0x80009eb0  x5=0x00000001
       28095000	      2808	8000096c	001bc633	xor	x12,x23,x1	 x23:0xffffffbd  x1:0x48c9e8ac x12=0xb7361711
       28105000	      2809	80000970	05631863	bne	x6,x22,800009c0	  x6:0xffffff86 x22:0x80009980
       28115000	      2810	00000000	00000013	addi	x0,x0,0	  x0:0x00000000
       28125000	      2811	800009bc	00000013	addi	x0,x0,0	  x0:0x00000000
       28135000	      2812	800009c0	db3e7493	andi	x9,x28,-589	 x28:0x00000094  x9=0x00000090
       28145000	      2813	800009c4	663f2e13	slti	x28,x30,1635	 x30:0x00000001 x28=0x00000001
       28155000	      2814	800009c8	53732213	slti	x4,x6,1335	  x6:0xffffff86  x4=0x00000001
       28165000	      2815	800009cc	00b9b033	sltu	x0,x19,x11	 x19:0x00000000 x11:0x00000001
       28175000	      2816	800009d0	003e6d33	or	x26,x28,x3	 x28:0x00000001  x3:0x6dace88c x26=0x6dace88d
       28185000	      2817	800009d4	41ffd0b3	sra	x1,x31,x31	 x31:0x80009fc7 x31:0x80009fc7  x1=0xff00013f
       28195000	      2818	800009d8	6dff2313	slti	x6,x30,1759	 x30:0x00000001  x6=0x00000001
       28205000	      2819	800009dc	04d80263	beq	x16,x13,80000a20	 x16:0xd7206878 x13:0x00000001
       28215000	      2820	800009e0	1825a313	slti	x6,x11,386	 x11:0x00000001  x6=0x00000001
       28225000	      2821	800009e4	01de8c63	beq	x29,x29,800009fc	 x29:0x78788000 x29:0x78788000
       28235000	      2822	00000000	00000013	addi	x0,x0,0	  x0:0x00000000
       28245000	      2823	800009f8	00000013	addi	x0,x0,0	  x0:0x00000000
       28255000	      2824	800009fc	419dda13	srai	x20,x27,0x19	 x27:0x00000000 x20=0x00000000
       28265000	      2825	80000a00	40190f33	sub	x30,x18,x1	 x18:0x80009eb0  x1:0xff00013f x30=0x81009d71
       28275000	      2826	80000a04	440d7293	andi	x5,x26,1088	 x26:0x6dace88d  x5=0x00000000
       28285000	      2827	80000a08	d6263813	sltiu	x16,x12,-670	 x12:0xb7361711 x16=0x00000001
       28295000	      2828	80000a0c	00381e93	slli	x29,x16,0x3	 x16:0x00000001 x29=0x00000008
       28305000	      2829	80000a10	00265413	srli	x8,x12,0x2	 x12:0xb7361711  x8=0x2dcd85c4
       28315000	      2830	80000a14	e47d7217	auipc	x4,0xe47d7	  x4=0x647d7a10
       28325000	      2831	80000a18	d43de613	ori	x12,x27,-701	 x27:0x00000000 x12=0xfffffd43
       28335000	      2832	80000a1c	01a7bab3	sltu	x21,x15,x26	 x15:0xdcf1c834 x26:0x6dace88d x21=0x00000000
       28345000	      2833	80000a20	026c6863	bltu	x24,x6,80000a50	 x24:0x00000000  x6:0x00000001
       28355000	      2834	00000000	00000013	addi	x0,x0,0	  x0:0x00000000
       28365000	      2835	80000a4c	00000013	addi	x0,x0,0	  x0:0x00000000
       28375000	      2836	80000a50	e78ce693	ori	x13,x25,-392	 x25:0x00000001 x13=0xfffffe79
       28385000	      2837	80000a54	400f5213	srai	x4,x30,0x0	 x30:0x81009d71  x4=0x81009d71
       28395000	      2838	80000a58	4020da13	srai	x20,x1,0x2	  x1:0xff00013f x20=0xffc0004f
       28405000	      2839	80000a5c	4074dc93	srai	x25,x9,0x7	  x9:0x00000090 x25=0x00000001
       28415000	      2840	80000a60	ec1be493	ori	x9,x23,-319	 x23:0xffffffbd  x9=0xfffffffd
       28425000	      2841	80000a64	419f85b3	sub	x11,x31,x25	 x31:0x80009fc7 x25:0x00000001 x11=0x80009fc6
       28435000	      2842	80000a68	017d84b3	add	x9,x27,x23	 x27:0x00000000 x23:0xffffffbd  x9=0xffffffbd
       28445000	      2843	80000a6c	00659633	sll	x12,x11,x6	 x11:0x80009fc6  x6:0x00000001 x12=0x00013f8c
       28455000	      2844	80000a70	010180b3	add	x1,x3,x16	  x3:0x6dace88c x16:0x00000001  x1=0x6dace88d
       28465000	      2845	80000a74	00000013	addi	x0,x0,0	  x0:0x00000000
       28475000	      2846	80000a78	01f70f33	add	x30,x14,x31	 x14:0x00000080 x31:0x80009fc7 x30=0x8000a047
       28485000	      2847	80000a7c	00fb5a33	srl	x20,x22,x15	 x22:0x80009980 x15:0xdcf1c834 x20=0x00000800
       28495000	      2848	80000a80	6b4c0493	addi	x9,x24,1716	 x24:0x00000000  x9=0x000006b4
       28505000	      2849	80000a84	45946b93	ori	x23,x8,1113	  x8:0x2dcd85c4 x23=0x2dcd85dd
       28515000	      2850	80000a88	025c5c63	bge	x24,x5,80000ac0	 x24:0x00000000  x5:0x00000000
       28525000	      2851	00000000	00000013	addi	x0,x0,0	  x0:0x00000000
       28535000	      2852	80000abc	00000013	addi	x0,x0,0	  x0:0x00000000
       28545000	      2853	80000ac0	410283b3	sub	x7,x5,x16	  x5:0x00000000 x16:0x00000001  x7=0xffffffff
       28555000	      2854	80000ac4	05415863	bge	x2,x20,80000b14	  x2:0x00000000 x20:0x00000800
       28565000	      2855	80000ac8	05208463	beq	x1,x18,80000b10	  x1:0x6dace88d x18:0x80009eb0
       28575000	      2856	80000acc	223e7493	andi	x9,x28,547	 x28:0x00000001  x9=0x00000001
       28585000	      2857	80000ad0	007c9f13	slli	x30,x25,0x7	 x25:0x00000001 x30=0x00000080
       28595000	      2858	80000ad4	0158ccb3	xor	x25,x17,x21	 x17:0x00000014 x21:0x00000000 x25=0x00000014
       28605000	      2859	80000ad8	059d0863	beq	x26,x25,80000b28	 x26:0x6dace88d x25:0x00000014
       28615000	      2860	80000adc	04197263	bgeu	x18,x1,80000b20	 x18:0x80009eb0  x1:0x6dace88d
       28625000	      2861	00000000	00000013	addi	x0,x0,0	  x0:0x00000000
       28635000	      2862	80000b1c	00000013	addi	x0,x0,0	  x0:0x00000000
       28645000	      2863	80000b20	017a0f33	add	x30,x20,x23	 x20:0x00000800 x23:0x2dcd85dd x30=0x2dcd8ddd
       28655000	      2864	80000b24	66856193	ori	x3,x10,1640	 x10:0x80009fc4  x3=0x80009fec
       28665000	      2865	80000b28	014a7433	and	x8,x20,x20	 x20:0x00000800 x20:0x00000800  x8=0x00000800
       28675000	      2866	80000b2c	21248013	addi	x0,x9,530	  x9:0x00000001
       28685000	      2867	80000b30	004b2eb3	slt	x29,x22,x4	 x22:0x80009980  x4:0x81009d71 x29=0x00000001
       28695000	      2868	80000b34	0151f2b3	and	x5,x3,x21	  x3:0x80009fec x21:0x00000000  x5=0x00000000
       28705000	      2869	80000b38	01568a33	add	x20,x13,x21	 x13:0xfffffe79 x21:0x00000000 x20=0xfffffe79
       28715000	      2870	80000b3c	1ab84b13	xori	x22,x16,427	 x16:0x00000001 x22=0x000001aa
       28725000	      2871	80000b40	00fd8e33	add	x28,x27,x15	 x27:0x00000000 x15:0xdcf1c834 x28=0xdcf1c834
       28735000	      2872	80000b44	00b643b3	xor	x7,x12,x11	 x12:0x00013f8c x11:0x80009fc6  x7=0x8001a04a
       28745000	      2873	80000b48	01efa033	slt	x0,x31,x30	 x31:0x80009fc7 x30:0x2dcd8ddd
       28755000	      2874	80000b4c	00f14263	blt	x2,x15,80000b50	  x2:0x00000000 x15:0xdcf1c834
       28765000	      2875	80000b50	40a9d613	srai	x12,x19,0xa	 x19:0x00000000 x12=0x00000000
       28775000	      2876	80000b54	739c2893	slti	x17,x24,1849	 x24:0x00000000 x17=0x00000001
       28785000	      2877	80000b58	00d31263	bne	x6,x13,80000b5c	  x6:0x00000001 x13:0xfffffe79
       28795000	      2878	00000000	00000013	addi	x0,x0,0	  x0:0x00000000
       28805000	      2879	80000b58	00000013	addi	x0,x0,0	  x0:0x00000000
       28815000	      2880	80000b5c	7a063bb7	lui	x23,0x7a063	 x23=0x7a063000
       28825000	      2881	80000b60	0c994c63	blt	x18,x9,80000c38	 x18:0x80009eb0  x9:0x00000001
       28835000	      2882	00000000	00000013	addi	x0,x0,0	  x0:0x00000000
       28845000	      2883	80000c34	00000013	addi	x0,x0,0	  x0:0x00000000
       28855000	      2884	80000c38	05c9c063	blt	x19,x28,80000c78	 x19:0x00000000 x28:0xdcf1c834
       28865000	      2885	80000c3c	15bccb13	xori	x22,x25,347	 x25:0x00000014 x22=0x0000014f
       28875000	      2886	80000c40	1ec26c13	ori	x24,x4,492	  x4:0x81009d71 x24=0x81009dfd
       28885000	      2887	80000c44	bd068a13	addi	x20,x13,-1072	 x13:0xfffffe79 x20=0xfffffa49
       28895000	      2888	80000c48	054df263	bgeu	x27,x20,80000c8c	 x27:0x00000000 x20:0xfffffa49
       28905000	      2889	80000c4c	03bc7e63	bgeu	x24,x27,80000c88	 x24:0x81009dfd x27:0x00000000
       28915000	      2890	00000000	00000013	addi	x0,x0,0	  x0:0x00000000
       28925000	      2891	80000c84	00000013	addi	x0,x0,0	  x0:0x00000000
       28935000	      2892	80000c88	03b6dc63	bge	x13,x27,80000cc0	 x13:0xfffffe79 x27:0x00000000
       28945000	      2893	80000c8c	64bd7e93	andi	x29,x26,1611	 x26:0x6dace88d x29=0x00000009
       28955000	      2894	80000c90	03549063	bne	x9,x21,80000cb0	  x9:0x00000001 x21:0x00000000
       28965000	      2895	00000000	00000013	addi	x0,x0,0	  x0:0x00000000
       28975000	      2896	80000cac	00000013	addi	x0,x0,0	  x0:0x00000000
       28985000	      2897	80000cb0	40340233	sub	x4,x8,x3	  x8:0x00000800  x3:0x80009fec  x4=0x7fff6814
       28995000	      2898	80000cb4	01d4e663	bltu	x9,x29,80000cc0	  x9:0x00000001 x29:0x00000009
       29005000	      2899	00000000	00000013	addi	x0,x0,0	  x0:0x00000000
       29015000	      2900	80000cbc	00000013	addi	x0,x0,0	  x0:0x00000000
       29025000	      2901	80000cc0	cd87c493	xori	x9,x15,-808	 x15:0xdcf1c834  x9=0x230e34ec
       29035000	      2902	80000cc4	10b506b7	lui	x13,0x10b50	 x13=0x10b50000
       29045000	      2903	80000cc8	00556033	or	x0,x10,x5	 x10:0x80009fc4  x5:0x00000000
       29055000	      2904	80000ccc	02d3c663	blt	x7,x13,80000cf8	  x7:0x8001a04a x13:0x10b50000
       29065000	      2905	00000000	00000013	addi	x0,x0,0	  x0:0x00000000
       29075000	      2906	80000cf4	00000013	addi	x0,x0,0	  x0:0x00000000
       29085000	      2907	80000cf8	f5ea8813	addi	x16,x21,-162	 x21:0x00000000 x16=0xffffff5e
       29095000	      2908	80000cfc	736dfc93	andi	x25,x27,1846	 x27:0x00000000 x25=0x00000000
       29105000	      2909	80000d00	e1f72393	slti	x7,x14,-481	 x14:0x00000080  x7=0x00000000
       29115000	      2910	80000d04	97815a97	auipc	x21,0x97815	 x21=0x17815d00
       29125000	      2911	80000d08	005efc63	bgeu	x29,x5,80000d20	 x29:0x00000009  x5:0x00000000
       29135000	      2912	00000000	00000013	addi	x0,x0,0	  x0:0x00000000
       29145000	      2913	80000d1c	00000013	addi	x0,x0,0	  x0:0x00000000
       29155000	      2914	80000d20	055a0263	beq	x20,x21,80000d64	 x20:0xfffffa49 x21:0x17815d00
       29165000	      2915	80000d24	d4af2693	slti	x13,x30,-694	 x30:0x2dcd8ddd x13=0x00000000
       29175000	      2916	80000d28	00bdfc33	and	x24,x27,x11	 x27:0x00000000 x11:0x80009fc6 x24=0x00000000
       29185000	      2917	80000d2c	01f15333	srl	x6,x2,x31	  x2:0x00000000 x31:0x80009fc7  x6=0x00000000
       29195000	      2918	80000d30	8deb4e13	xori	x28,x22,-1826	 x22:0x0000014f x28=0xfffff991
       29205000	      2919	80000d34	16505997	auipc	x19,0x16505	 x19=0x96505d30
       29215000	      2920	80000d38	41d22213	slti	x4,x4,1053	  x4:0x7fff6814  x4=0x00000000
       29225000	      2921	80000d3c	00000013	addi	x0,x0,0	  x0:0x00000000
       29235000	      2922	80000d40	812e8593	addi	x11,x29,-2030	 x29:0x00000009 x11=0xfffff81b
       29245000	      2923	80000d44	d023a193	slti	x3,x7,-766	  x7:0x00000000  x3=0x00000000
       29255000	      2924	80000d48	dcbca113	slti	x2,x25,-565	 x25:0x00000000  x2=0x00000000
       29265000	      2925	80000d4c	0238ee63	bltu	x17,x3,80000d88	 x17:0x00000001  x3:0x00000000
       29275000	      2926	80000d50	00ee2a33	slt	x20,x28,x14	 x28:0xfffff991 x14:0x00000080 x20=0x00000001
       29285000	      2927	80000d54	018b6833	or	x16,x22,x24	 x22:0x0000014f x24:0x00000000 x16=0x0000014f
       29295000	      2928	80000d58	050d4863	blt	x26,x16,80000da8	 x26:0x6dace88d x16:0x0000014f
       29305000	      2929	80000d5c	02afc263	blt	x31,x10,80000d80	 x31:0x80009fc7 x10:0x80009fc4
       29315000	      2930	80000d60	43253193	sltiu	x3,x10,1074	 x10:0x80009fc4  x3=0x00000000
       29325000	      2931	80000d64	05686863	bltu	x16,x22,80000db4	 x16:0x0000014f x22:0x0000014f
       29335000	      2932	80000d68	00424b33	xor	x22,x4,x4	  x4:0x00000000  x4:0x00000000 x22=0x00000000
       29345000	      2933	80000d6c	04e9f463	bgeu	x19,x14,80000db4	 x19:0x96505d30 x14:0x00000080
       29355000	      2934	00000000	00000013	addi	x0,x0,0	  x0:0x00000000
       29365000	      2935	80000db0	00000013	addi	x0,x0,0	  x0:0x00000000
       29375000	      2936	80000db4	007831b3	sltu	x3,x16,x7	 x16:0x0000014f  x7:0x00000000  x3=0x00000000
       29385000	      2937	80000db8	5bf20897	auipc	x17,0x5bf20	 x17=0xdbf20db4
       29395000	      2938	80000dbc	27c8cf13	xori	x30,x17,636	 x17:0xdbf20db4 x30=0xdbf20fc8
       29405000	      2939	80000dc0	01670fb3	add	x31,x14,x22	 x14:0x00000080 x22:0x00000000 x31=0x00000080
       29415000	      2940	80000dc4	0460e663	bltu	x1,x6,80000e10	  x1:0x6dace88d  x6:0x00000000
       29425000	      2941	80000dc8	01419c13	slli	x24,x3,0x14	  x3:0x00000000 x24=0x00000000
       29435000	      2942	80000dcc	73f8f593	andi	x11,x17,1855	 x17:0xdbf20db4 x11=0x00000534
       29445000	      2943	80000dd0	00000013	addi	x0,x0,0	  x0:0x00000000
       29455000	      2944	80000dd4	03606e63	bltu	x0,x22,80000e10	  x0:0x00000000 x22:0x00000000
       29465000	      2945	80000dd8	01b20663	beq	x4,x27,80000de4	  x4:0x00000000 x27:0x00000000
       29475000	      2946	00000000	00000013	addi	x0,x0,0	  x0:0x00000000
       29485000	      2947	80000de0	00000013	addi	x0,x0,0	  x0:0x00000000
       29495000	      2948	80000de4	00000013	addi	x0,x0,0	  x0:0x00000000
       29505000	      2949	80000de8	01409333	sll	x6,x1,x20	  x1:0x6dace88d x20:0x00000001  x6=0xdb59d11a
       29515000	      2950	80000dec	93a4ab93	slti	x23,x9,-1734	  x9:0x230e34ec x23=0x00000000
       29525000	      2951	80000df0	00051d33	sll	x26,x10,x0	 x10:0x80009fc4  x0:0x00000000 x26=0x80009fc4
       29535000	      2952	80000df4	41615013	srai	x0,x2,0x16	  x2:0x00000000
       29545000	      2953	80000df8	009f2b33	slt	x22,x30,x9	 x30:0xdbf20fc8  x9:0x230e34ec x22=0x00000001
       29555000	      2954	80000dfc	04aa0063	beq	x20,x10,80000e3c	 x20:0x00000001 x10:0x80009fc4
       29565000	      2955	80000e00	41dcdcb3	sra	x25,x25,x29	 x25:0x00000000 x29:0x00000009 x25=0x00000000
       29575000	      2956	80000e04	41c48ab3	sub	x21,x9,x28	  x9:0x230e34ec x28:0xfffff991 x21=0x230e3b5b
       29585000	      2957	80000e08	018d8e33	add	x28,x27,x24	 x27:0x00000000 x24:0x00000000 x28=0x00000000
       29595000	      2958	80000e0c	004e21b3	slt	x3,x28,x4	 x28:0x00000000  x4:0x00000000  x3=0x00000000
       29605000	      2959	80000e10	00889a33	sll	x20,x17,x8	 x17:0xdbf20db4  x8:0x00000800 x20=0xdbf20db4
       29615000	      2960	80000e14	010636b3	sltu	x13,x12,x16	 x12:0x00000000 x16:0x0000014f x13=0x00000001
       29625000	      2961	80000e18	01d0bb33	sltu	x22,x1,x29	  x1:0x6dace88d x29:0x00000009 x22=0x00000000
       29635000	      2962	80000e1c	00000013	addi	x0,x0,0	  x0:0x00000000
       29645000	      2963	80000e20	0e5a7893	andi	x17,x20,229	 x20:0xdbf20db4 x17=0x000000a4
       29655000	      2964	80000e24	bc6cbc93	sltiu	x25,x25,-1082	 x25:0x00000000 x25=0x00000001
       29665000	      2965	80000e28	00b7ccb3	xor	x25,x15,x11	 x15:0xdcf1c834 x11:0x00000534 x25=0xdcf1cd00
       29675000	      2966	80000e2c	cb6b6297	auipc	x5,0xcb6b6	  x5=0x4b6b6e28
       29685000	      2967	80000e30	01ae12b3	sll	x5,x28,x26	 x28:0x00000000 x26:0x80009fc4  x5=0x00000000
       29695000	      2968	80000e34	00fafa63	bgeu	x21,x15,80000e48	 x21:0x230e3b5b x15:0xdcf1c834
       29705000	      2969	80000e38	00b87733	and	x14,x16,x11	 x16:0x0000014f x11:0x00000534 x14=0x00000104
       29715000	      2970	80000e3c	5e8ce613	ori	x12,x25,1512	 x25:0xdcf1cd00 x12=0xdcf1cde8
       29725000	      2971	80000e40	001fb2b3	sltu	x5,x31,x1	 x31:0x00000080  x1:0x6dace88d  x5=0x00000001
       29735000	      2972	80000e44	054bc863	blt	x23,x20,80000e94	 x23:0x00000000 x20:0xdbf20db4
       29745000	      2973	80000e48	6853c613	xori	x12,x7,1669	  x7:0x00000000 x12=0x00000685
       29755000	      2974	80000e4c	022f7663	bgeu	x30,x2,80000e78	 x30:0xdbf20fc8  x2:0x00000000
       29765000	      2975	00000000	00000013	addi	x0,x0,0	  x0:0x00000000
       29775000	      2976	80000e74	00000013	addi	x0,x0,0	  x0:0x00000000
       29785000	      2977	80000e78	3e56ca13	xori	x20,x13,997	 x13:0x00000001 x20=0x000003e4
       29795000	      2978	80000e7c	60390793	addi	x15,x18,1539	 x18:0x80009eb0 x15=0x8000a4b3
       29805000	      2979	80000e80	03b4c863	blt	x9,x27,80000eb0	  x9:0x230e34ec x27:0x00000000
       29815000	      2980	80000e84	d1d1ca13	xori	x20,x3,-739	  x3:0x00000000 x20=0xfffffd1d
       29825000	      2981	80000e88	dd36c117	auipc	x2,0xdd36c	  x2=0x5d36ce84
       29835000	      2982	80000e8c	04bc4463	blt	x24,x11,80000ed4	 x24:0x00000000 x11:0x00000534
       29845000	      2983	00000000	00000013	addi	x0,x0,0	  x0:0x00000000
       29855000	      2984	80000ed0	00000013	addi	x0,x0,0	  x0:0x00000000
       29865000	      2985	80000ed4	008b0c63	beq	x22,x8,80000eec	 x22:0x00000000  x8:0x00000800
       29875000	      2986	80000ed8	f4b63a93	sltiu	x21,x12,-181	 x12:0x00000685 x21=0x00000001
       29885000	      2987	80000edc	fb8db113	sltiu	x2,x27,-72	 x27:0x00000000  x2=0x00000001
       29895000	      2988	80000ee0	fef9e013	ori	x0,x19,-17	 x19:0x96505d30
       29905000	      2989	80000ee4	049bc463	blt	x23,x9,80000f2c	 x23:0x00000000  x9:0x230e34ec
       29915000	      2990	00000000	00000013	addi	x0,x0,0	  x0:0x00000000
       29925000	      2991	80000f28	00000013	addi	x0,x0,0	  x0:0x00000000
       29935000	      2992	80000f2c	00000013	addi	x0,x0,0	  x0:0x00000000
       29945000	      2993	80000f30	01eca633	slt	x12,x25,x30	 x25:0xdcf1cd00 x30:0xdbf20fc8 x12=0x00000000
       29955000	      2994	80000f34	01fdf663	bgeu	x27,x31,80000f40	 x27:0x00000000 x31:0x00000080
       29965000	      2995	80000f38	00c41893	slli	x17,x8,0xc	  x8:0x00000800 x17=0x00800000
       29975000	      2996	80000f3c	00efc133	xor	x2,x31,x14	 x31:0x00000080 x14:0x00000104  x2=0x00000184
       29985000	      2997	80000f40	00768c63	beq	x13,x7,80000f58	 x13:0x00000001  x7:0x00000000
       29995000	      2998	80000f44	05b97463	bgeu	x18,x27,80000f8c	 x18:0x80009eb0 x27:0x00000000
       30005000	      2999	00000000	00000013	addi	x0,x0,0	  x0:0x00000000
       30015000	      3000	80000f88	00000013	addi	x0,x0,0	  x0:0x00000000
       30025000	      3001	80000f8c	bb393993	sltiu	x19,x18,-1101	 x18:0x80009eb0 x19=0x00000001
       30035000	      3002	80000f90	e786e413	ori	x8,x13,-392	 x13:0x00000001  x8=0xfffffe79
       30045000	      3003	80000f94	01fd59b3	srl	x19,x26,x31	 x26:0x80009fc4 x31:0x00000080 x19=0x80009fc4
       30055000	      3004	80000f98	411fd013	srai	x0,x31,0x11	 x31:0x00000080
       30065000	      3005	80000f9c	02a9de63	bge	x19,x10,80000fd8	 x19:0x80009fc4 x10:0x80009fc4
       30075000	      3006	00000000	00000013	addi	x0,x0,0	  x0:0x00000000
       30085000	      3007	80000fd4	00000013	addi	x0,x0,0	  x0:0x00000000
       30095000	      3008	80000fd8	a382b097	auipc	x1,0xa382b	  x1=0x2382bfd4
       30105000	      3009	80000fdc	04875463	bge	x14,x8,80001024	 x14:0x00000104  x8:0xfffffe79
       30115000	      3010	00000000	00000013	addi	x0,x0,0	  x0:0x00000000
       30125000	      3011	80001020	00000013	addi	x0,x0,0	  x0:0x00000000
       30135000	      3012	80001024	016e8a33	add	x20,x29,x22	 x29:0x00000009 x22:0x00000000 x20=0x00000009
       30145000	      3013	80001028	015b6eb3	or	x29,x22,x21	 x22:0x00000000 x21:0x00000001 x29=0x00000001
       30155000	      3014	8000102c	899a2037	lui	x0,0x899a2	
       30165000	      3015	80001030	004d8733	add	x14,x27,x4	 x27:0x00000000  x4:0x00000000 x14=0x00000000
       30175000	      3016	80001034	404ad813	srai	x16,x21,0x4	 x21:0x00000001 x16=0x00000000
       30185000	      3017	80001038	62882a37	lui	x20,0x62882	 x20=0x62882000
       30195000	      3018	8000103c	0f5b8463	beq	x23,x21,80001124	 x23:0x00000000 x21:0x00000001
       30205000	      3019	80001040	39b0ae13	slti	x28,x1,923	  x1:0x2382bfd4 x28=0x00000000
       30215000	      3020	80001044	0c67cc63	blt	x15,x6,8000111c	 x15:0x8000a4b3  x6:0xdb59d11a
       30225000	      3021	00000000	00000013	addi	x0,x0,0	  x0:0x00000000
       30235000	      3022	80001118	00000013	addi	x0,x0,0	  x0:0x00000000
       30245000	      3023	8000111c	01cdaa33	slt	x20,x27,x28	 x27:0x00000000 x28:0x00000000 x20=0x00000000
       30255000	      3024	80001120	04ade063	bltu	x27,x10,80001160	 x27:0x00000000 x10:0x80009fc4
       30265000	      3025	00000000	00000013	addi	x0,x0,0	  x0:0x00000000
       30275000	      3026	8000115c	00000013	addi	x0,x0,0	  x0:0x00000000
       30285000	      3027	80001160	99da7b93	andi	x23,x20,-1635	 x20:0x00000000 x23=0x00000000
       30295000	      3028	80001164	000d75b3	and	x11,x26,x0	 x26:0x80009fc4  x0:0x00000000 x11=0x00000000
       30305000	      3029	80001168	b7460f97	auipc	x31,0xb7460	 x31=0x37461164
       30315000	      3030	8000116c	41265213	srai	x4,x12,0x12	 x12:0x00000000  x4=0x00000000
       30325000	      3031	80001170	02bdd063	bge	x27,x11,80001190	 x27:0x00000000 x11:0x00000000
       30335000	      3032	00000000	00000013	addi	x0,x0,0	  x0:0x00000000
       30345000	      3033	8000118c	00000013	addi	x0,x0,0	  x0:0x00000000
       30355000	      3034	80001190	3a25b593	sltiu	x11,x11,930	 x11:0x00000000 x11=0x00000001
       30365000	      3035	80001194	40da53b3	sra	x7,x20,x13	 x20:0x00000000 x13:0x00000001  x7=0x00000000
       30375000	      3036	80001198	01526a33	or	x20,x4,x21	  x4:0x00000000 x21:0x00000001 x20=0x00000001
       30385000	      3037	8000119c	009ad633	srl	x12,x21,x9	 x21:0x00000001  x9:0x230e34ec x12=0x00000000
       30395000	      3038	800011a0	4093d1b3	sra	x3,x7,x9	  x7:0x00000000  x9:0x230e34ec  x3=0x00000000
       30405000	      3039	800011a4	7cf16793	ori	x15,x2,1999	  x2:0x00000184 x15=0x000007cf
       30415000	      3040	800011a8	c3ebb093	sltiu	x1,x23,-962	 x23:0x00000000  x1=0x00000001
       30425000	      3041	800011ac	01f227b3	slt	x15,x4,x31	  x4:0x00000000 x31:0x37461164 x15=0x00000001
       30435000	      3042	800011b0	ccf4b993	sltiu	x19,x9,-817	  x9:0x230e34ec x19=0x00000001
       30445000	      3043	800011b4	00000013	addi	x0,x0,0	  x0:0x00000000
       30455000	      3044	800011b8	04f21663	bne	x4,x15,80001204	  x4:0x00000000 x15:0x00000001
       30465000	      3045	00000000	00000013	addi	x0,x0,0	  x0:0x00000000
       30475000	      3046	80001200	00000013	addi	x0,x0,0	  x0:0x00000000
       30485000	      3047	80001204	01496e33	or	x28,x18,x20	 x18:0x80009eb0 x20:0x00000001 x28=0x80009eb1
       30495000	      3048	80001208	04795263	bge	x18,x7,8000124c	 x18:0x80009eb0  x7:0x00000000
       30505000	      3049	8000120c	9b2cd5b7	lui	x11,0x9b2cd	 x11=0x9b2cd000
       30515000	      3050	80001210	6c7d2493	slti	x9,x26,1735	 x26:0x80009fc4  x9=0x00000001
       30525000	      3051	80001214	01268c63	beq	x13,x18,8000122c	 x13:0x00000001 x18:0x80009eb0
       30535000	      3052	80001218	741e7893	andi	x17,x28,1857	 x28:0x80009eb1 x17=0x00000601
       30545000	      3053	8000121c	00000013	addi	x0,x0,0	  x0:0x00000000
       30555000	      3054	80001220	0081deb3	srl	x29,x3,x8	  x3:0x00000000  x8:0xfffffe79 x29=0x00000000
       30565000	      3055	80001224	0371f463	bgeu	x3,x23,8000124c	  x3:0x00000000 x23:0x00000000
       30575000	      3056	00000000	00000013	addi	x0,x0,0	  x0:0x00000000
       30585000	      3057	80001248	00000013	addi	x0,x0,0	  x0:0x00000000
       30595000	      3058	8000124c	9d3e3793	sltiu	x15,x28,-1581	 x28:0x80009eb1 x15=0x00000001
       30605000	      3059	80001250	4147d713	srai	x14,x15,0x14	 x15:0x00000001 x14=0x00000000
       30615000	      3060	80001254	df01e217	auipc	x4,0xdf01e	  x4=0x5f01f250
       30625000	      3061	80001258	00000013	addi	x0,x0,0	  x0:0x00000000
       30635000	      3062	8000125c	00d52133	slt	x2,x10,x13	 x10:0x80009fc4 x13:0x00000001  x2=0x00000001
       30645000	      3063	80001260	7539e893	ori	x17,x19,1875	 x19:0x00000001 x17=0x00000753
       30655000	      3064	80001264	00ab5993	srli	x19,x22,0xa	 x22:0x00000000 x19=0x00000000
       30665000	      3065	80001268	41b8d713	srai	x14,x17,0x1b	 x17:0x00000753 x14=0x00000000
       30675000	      3066	8000126c	416009b3	sub	x19,x0,x22	  x0:0x00000000 x22:0x00000000 x19=0x00000000
       30685000	      3067	80001270	0176f663	bgeu	x13,x23,8000127c	 x13:0x00000001 x23:0x00000000
       30695000	      3068	00000000	00000013	addi	x0,x0,0	  x0:0x00000000
       30705000	      3069	80001278	00000013	addi	x0,x0,0	  x0:0x00000000
       30715000	      3070	8000127c	6bcaf3b7	lui	x7,0x6bcaf	  x7=0x6bcaf000
       30725000	      3071	80001280	4034d813	srai	x16,x9,0x3	  x9:0x00000001 x16=0x00000000
       30735000	      3072	80001284	00c27cb3	and	x25,x4,x12	  x4:0x5f01f250 x12:0x00000000 x25=0x00000000
       30745000	      3073	80001288	421b2193	slti	x3,x22,1057	 x22:0x00000000  x3=0x00000001
       30755000	      3074	8000128c	00007c97	auipc	x25,0x7	 x25=0x80008288
       30765000	      3075	80001290	e88c8c93	addi	x25,x25,-376	 x25:0x80008288 x25=0x80008110
       30775000	      3076	80001294	4069d433	sra	x8,x19,x6	 x19:0x00000000  x6:0xdb59d11a  x8=0x00000000
       30785000	      3077	80001298	607de717	auipc	x14,0x607de	 x14=0xe07df294
       30795000	      3078	8000129c	016c8223	sb	x22,4(x25)	 x25:0x80008110 x22:0x00000000 PA:0x80008114
       30805000	      3079	800012a0	fe6cac23	sw	x6,-8(x25)	 x25:0x80008110  x6:0xdb59d11a PA:0x80008108
       30815000	      3080	800012a4	009ddc13	srli	x24,x27,0x9	 x27:0x00000000 x24=0x00000000
       30825000	      3081	800012a8	001ccb03	lbu	x22,1(x25)	 x25:0x80008110 x22=0x000000ca PA:0x80008111
       30835000	      3082	00000000	00000013	addi	x0,x0,0	  x0:0x00000000
       30845000	      3083	800012ac	ff6cc783	lbu	x15,-10(x25)	 x25:0x80008110 x15=0x000000bd PA:0x80008106
       30855000	      3084	800012b0	01f56c33	or	x24,x10,x31	 x10:0x80009fc4 x31:0x37461164 x24=0xb7469fe4
       30865000	      3085	800012b4	ff0cdf03	lhu	x30,-16(x25)	 x25:0x80008110 x30=0x0000babb PA:0x80008100
       30875000	      3086	800012b8	ff2c8f83	lb	x31,-14(x25)	 x25:0x80008110 x31=0xffffffb9 PA:0x80008102
       30885000	      3087	800012bc	01793c33	sltu	x24,x18,x23	 x18:0x80009eb0 x23:0x00000000 x24=0x00000000
       30895000	      3088	800012c0	ff4c9783	lh	x15,-12(x25)	 x25:0x80008110 x15=0xffffbebf PA:0x80008104
       30905000	      3089	800012c4	006cc003	lbu	x0,6(x25)	 x25:0x80008110 PA:0x80008116
       30915000	      3090	800012c8	01ac81a3	sb	x26,3(x25)	 x25:0x80008110 x26:0x80009fc4 PA:0x80008113
       30925000	      3091	800012cc	ff1ccc03	lbu	x24,-15(x25)	 x25:0x80008110 x24=0x000000ba PA:0x80008101
       30935000	      3092	800012d0	01679313	slli	x6,x15,0x16	 x15:0xffffbebf  x6=0xafc00000
       30945000	      3093	800012d4	01f35a93	srli	x21,x6,0x1f	  x6:0xafc00000 x21=0x00000001
       30955000	      3094	800012d8	01eed833	srl	x16,x29,x30	 x29:0x00000000 x30:0x0000babb x16=0x00000000
       30965000	      3095	800012dc	6ce1a893	slti	x17,x3,1742	  x3:0x00000001 x17=0x00000001
       30975000	      3096	800012e0	ff7c8083	lb	x1,-9(x25)	 x25:0x80008110  x1=0xffffffbc PA:0x80008107
       30985000	      3097	800012e4	00ac83a3	sb	x10,7(x25)	 x25:0x80008110 x10:0x80009fc4 PA:0x80008117
       30995000	      3098	800012e8	ff5ccf83	lbu	x31,-11(x25)	 x25:0x80008110 x31=0x000000be PA:0x80008105
       31005000	      3099	800012ec	415a5d33	sra	x26,x20,x21	 x20:0x00000001 x21:0x00000001 x26=0x00000000
       31015000	      3100	800012f0	011c9123	sh	x17,2(x25)	 x25:0x80008110 x17:0x00000001 PA:0x80008112
       31025000	      3101	800012f4	ff6c88a3	sb	x22,-15(x25)	 x25:0x80008110 x22:0x000000ca PA:0x80008101
       31035000	      3102	800012f8	fe3c9c23	sh	x3,-8(x25)	 x25:0x80008110  x3:0x00000001 PA:0x80008108
       31045000	      3103	800012fc	ff8c9603	lh	x12,-8(x25)	 x25:0x80008110 x12=0x00000001 PA:0x80008108
       31055000	      3104	80001300	ff7c8403	lb	x8,-9(x25)	 x25:0x80008110  x8=0xffffffbc PA:0x80008107
       31065000	      3105	80001304	011c9623	sh	x17,12(x25)	 x25:0x80008110 x17:0x00000001 PA:0x8000811c
       31075000	      3106	80001308	00db1b13	slli	x22,x22,0xd	 x22:0x000000ca x22=0x00194000
       31085000	      3107	8000130c	003c85a3	sb	x3,11(x25)	 x25:0x80008110  x3:0x00000001 PA:0x8000811b
       31095000	      3108	80001310	00f041b3	xor	x3,x0,x15	  x0:0x00000000 x15:0xffffbebf  x3=0xffffbebf
       31105000	      3109	80001314	002c81a3	sb	x2,3(x25)	 x25:0x80008110  x2:0x00000001 PA:0x80008113
       31115000	      3110	80001318	fe5c9b23	sh	x5,-10(x25)	 x25:0x80008110  x5:0x00000001 PA:0x80008106
       31125000	      3111	8000131c	48d04b13	xori	x22,x0,1165	  x0:0x00000000 x22=0x0000048d
       31135000	      3112	80001320	befaf013	andi	x0,x21,-1041	 x21:0x00000001
       31145000	      3113	80001324	01880e93	addi	x29,x16,24	 x16:0x00000000 x29=0x00000018
       31155000	      3114	80001328	00183eb3	sltu	x29,x16,x1	 x16:0x00000000  x1:0xffffffbc x29=0x00000001
       31165000	      3115	8000132c	016b9c63	bne	x23,x22,80001344	 x23:0x00000000 x22:0x0000048d
       31175000	      3116	00000000	00000013	addi	x0,x0,0	  x0:0x00000000
       31185000	      3117	80001340	00000013	addi	x0,x0,0	  x0:0x00000000
       31195000	      3118	80001344	aef46793	ori	x15,x8,-1297	  x8:0xffffffbc x15=0xffffffff
       31205000	      3119	80001348	0003dc93	srli	x25,x7,0x0	  x7:0x6bcaf000 x25=0x6bcaf000
       31215000	      3120	8000134c	d112f293	andi	x5,x5,-751	  x5:0x00000001  x5=0x00000001
       31225000	      3121	80001350	009e5bb3	srl	x23,x28,x9	 x28:0x80009eb1  x9:0x00000001 x23=0x40004f58
       31235000	      3122	80001354	417a5e13	srai	x28,x20,0x17	 x20:0x00000001 x28=0x00000000
       31245000	      3123	80001358	00000013	addi	x0,x0,0	  x0:0x00000000
       31255000	      3124	8000135c	6ea7b013	sltiu	x0,x15,1770	 x15:0xffffffff
       31265000	      3125	80001360	00000013	addi	x0,x0,0	  x0:0x00000000
       31275000	      3126	80001364	408d5633	sra	x12,x26,x8	 x26:0x00000000  x8:0xffffffbc x12=0x00000000
       31285000	      3127	80001368	003e1263	bne	x28,x3,8000136c	 x28:0x00000000  x3:0xffffbebf
       31295000	      3128	00000000	00000013	addi	x0,x0,0	  x0:0x00000000
       31305000	      3129	80001368	00000013	addi	x0,x0,0	  x0:0x00000000
       31315000	      3130	8000136c	011381b3	add	x3,x7,x17	  x7:0x6bcaf000 x17:0x00000001  x3=0x6bcaf001
       31325000	      3131	80001370	e0224b13	xori	x22,x4,-510	  x4:0x5f01f250 x22=0xa0fe0c52
       31335000	      3132	80001374	f52e8293	addi	x5,x29,-174	 x29:0x00000001  x5=0xffffff53
       31345000	      3133	80001378	601ab093	sltiu	x1,x21,1537	 x21:0x00000001  x1=0x00000001
       31355000	      3134	8000137c	05a26263	bltu	x4,x26,800013c0	  x4:0x5f01f250 x26:0x00000000
       31365000	      3135	80001380	cd3e3a97	auipc	x21,0xcd3e3	 x21=0x4d3e437c
       31375000	      3136	80001384	012f84b3	add	x9,x31,x18	 x31:0x000000be x18:0x80009eb0  x9=0x80009f6e
       31385000	      3137	80001388	7ba50893	addi	x17,x10,1978	 x10:0x80009fc4 x17=0x8000a77e
       31395000	      3138	8000138c	40d286b3	sub	x13,x5,x13	  x5:0xffffff53 x13:0x00000001 x13=0xffffff52
       31405000	      3139	80001390	04066463	bltu	x12,x0,800013d8	 x12:0x00000000  x0:0x00000000
       31415000	      3140	80001394	08858b13	addi	x22,x11,136	 x11:0x9b2cd000 x22=0x9b2cd088
       31425000	      3141	80001398	03fd0c63	beq	x26,x31,800013d0	 x26:0x00000000 x31:0x000000be
       31435000	      3142	8000139c	057b4d13	xori	x26,x22,87	 x22:0x9b2cd088 x26=0x9b2cd0df
       31445000	      3143	800013a0	880df093	andi	x1,x27,-1920	 x27:0x00000000  x1=0x00000000
       31455000	      3144	800013a4	0183d0b3	srl	x1,x7,x24	  x7:0x6bcaf000 x24:0x000000ba  x1=0x0000001a
       31465000	      3145	800013a8	00b19a33	sll	x20,x3,x11	  x3:0x6bcaf001 x11:0x9b2cd000 x20=0x6bcaf001
       31475000	      3146	800013ac	02f20663	beq	x4,x15,800013d8	  x4:0x5f01f250 x15:0xffffffff
       31485000	      3147	800013b0	002d58b3	srl	x17,x26,x2	 x26:0x9b2cd0df  x2:0x00000001 x17=0x4d96686f
       31495000	      3148	800013b4	002f4133	xor	x2,x30,x2	 x30:0x0000babb  x2:0x00000001  x2=0x0000baba
       31505000	      3149	800013b8	40cc8b33	sub	x22,x25,x12	 x25:0x6bcaf000 x12:0x00000000 x22=0x6bcaf000
       31515000	      3150	800013bc	412f5793	srai	x15,x30,0x12	 x30:0x0000babb x15=0x00000000
       31525000	      3151	800013c0	b482b693	sltiu	x13,x5,-1208	  x5:0xffffff53 x13=0x00000000
       31535000	      3152	800013c4	02f9d863	bge	x19,x15,800013f4	 x19:0x00000000 x15:0x00000000
       31545000	      3153	00000000	00000013	addi	x0,x0,0	  x0:0x00000000
       31555000	      3154	800013f0	00000013	addi	x0,x0,0	  x0:0x00000000
       31565000	      3155	800013f4	40ecd133	sra	x2,x25,x14	 x25:0x6bcaf000 x14:0xe07df294  x2=0x000006bc
       31575000	      3156	800013f8	008e2e33	slt	x28,x28,x8	 x28:0x00000000  x8:0xffffffbc x28=0x00000000
       31585000	      3157	800013fc	04ce0263	beq	x28,x12,80001440	 x28:0x00000000 x12:0x00000000
       31595000	      3158	00000000	00000013	addi	x0,x0,0	  x0:0x00000000
       31605000	      3159	8000143c	00000013	addi	x0,x0,0	  x0:0x00000000
       31615000	      3160	80001440	40ad5333	sra	x6,x26,x10	 x26:0x9b2cd0df x10:0x80009fc4  x6=0xf9b2cd0d
       31625000	      3161	80001444	02264e63	blt	x12,x2,80001480	 x12:0x00000000  x2:0x000006bc
       31635000	      3162	00000000	00000013	addi	x0,x0,0	  x0:0x00000000
       31645000	      3163	8000147c	00000013	addi	x0,x0,0	  x0:0x00000000
       31655000	      3164	80001480	00c64a63	blt	x12,x12,80001494	 x12:0x00000000 x12:0x00000000
       31665000	      3165	80001484	0059e5b3	or	x11,x19,x5	 x19:0x00000000  x5:0xffffff53 x11=0xffffff53
       31675000	      3166	80001488	05bb1063	bne	x22,x27,800014c8	 x22:0x6bcaf000 x27:0x00000000
       31685000	      3167	00000000	00000013	addi	x0,x0,0	  x0:0x00000000
       31695000	      3168	800014c4	00000013	addi	x0,x0,0	  x0:0x00000000
       31705000	      3169	800014c8	00a2feb3	and	x29,x5,x10	  x5:0xffffff53 x10:0x80009fc4 x29=0x80009f40
       31715000	      3170	800014cc	001ede93	srli	x29,x29,0x1	 x29:0x80009f40 x29=0x40004fa0
       31725000	      3171	800014d0	0242f663	bgeu	x5,x4,800014fc	  x5:0xffffff53  x4:0x5f01f250
       31735000	      3172	00000000	00000013	addi	x0,x0,0	  x0:0x00000000
       31745000	      3173	800014f8	00000013	addi	x0,x0,0	  x0:0x00000000
       31755000	      3174	800014fc	04980263	beq	x16,x9,80001540	 x16:0x00000000  x9:0x80009f6e
       31765000	      3175	80001500	01da14b3	sll	x9,x20,x29	 x20:0x6bcaf001 x29:0x40004fa0  x9=0x6bcaf001
       31775000	      3176	80001504	41b40fb3	sub	x31,x8,x27	  x8:0xffffffbc x27:0x00000000 x31=0xffffffbc
       31785000	      3177	80001508	2432c793	xori	x15,x5,579	  x5:0xffffff53 x15=0xfffffd10
       31795000	      3178	8000150c	9961af17	auipc	x30,0x9961a	 x30=0x1961b508
       31805000	      3179	80001510	031ad063	bge	x21,x17,80001530	 x21:0x4d3e437c x17:0x4d96686f
       31815000	      3180	80001514	58186f93	ori	x31,x16,1409	 x16:0x00000000 x31=0x00000581
       31825000	      3181	80001518	67beeb93	ori	x23,x29,1659	 x29:0x40004fa0 x23=0x40004ffb
       31835000	      3182	8000151c	fd396813	ori	x16,x18,-45	 x18:0x80009eb0 x16=0xfffffff3
       31845000	      3183	80001520	5ee5e413	ori	x8,x11,1518	 x11:0xffffff53  x8=0xffffffff
       31855000	      3184	80001524	fa702e37	lui	x28,0xfa702	 x28=0xfa702000
       31865000	      3185	80001528	40740eb3	sub	x29,x8,x7	  x8:0xffffffff  x7:0x6bcaf000 x29=0x94350fff
       31875000	      3186	8000152c	7f3d3d13	sltiu	x26,x26,2035	 x26:0x9b2cd0df x26=0x00000000
       31885000	      3187	80001530	fb643f93	sltiu	x31,x8,-74	  x8:0xffffffff x31=0x00000000
       31895000	      3188	80001534	046e7463	bgeu	x28,x6,8000157c	 x28:0xfa702000  x6:0xf9b2cd0d
       31905000	      3189	00000000	00000013	addi	x0,x0,0	  x0:0x00000000
       31915000	      3190	80001578	00000013	addi	x0,x0,0	  x0:0x00000000
       31925000	      3191	8000157c	01da9b93	slli	x23,x21,0x1d	 x21:0x4d3e437c x23=0x80000000
       31935000	      3192	80001580	0514e463	bltu	x9,x17,800015c8	  x9:0x6bcaf001 x17:0x4d96686f
       31945000	      3193	80001584	02a10c63	beq	x2,x10,800015bc	  x2:0x000006bc x10:0x80009fc4
       31955000	      3194	80001588	00eaa8b3	slt	x17,x21,x14	 x21:0x4d3e437c x14:0xe07df294 x17=0x00000000
       31965000	      3195	8000158c	002dfe13	andi	x28,x27,2	 x27:0x00000000 x28=0x00000000
       31975000	      3196	80001590	01e86e33	or	x28,x16,x30	 x16:0xfffffff3 x30:0x1961b508 x28=0xfffffffb
       31985000	      3197	80001594	408d0833	sub	x16,x26,x8	 x26:0x00000000  x8:0xffffffff x16=0x00000001
       31995000	      3198	80001598	9a374993	xori	x19,x14,-1629	 x14:0xe07df294 x19=0x1f820b37
       32005000	      3199	8000159c	00399d33	sll	x26,x19,x3	 x19:0x1f820b37  x3:0x6bcaf001 x26=0x3f04166e
       32015000	      3200	800015a0	01ef0263	beq	x30,x30,800015a4	 x30:0x1961b508 x30:0x1961b508
       32025000	      3201	00000000	00000013	addi	x0,x0,0	  x0:0x00000000
       32035000	      3202	800015a0	00000013	addi	x0,x0,0	  x0:0x00000000
       32045000	      3203	800015a4	406407b3	sub	x15,x8,x6	  x8:0xffffffff  x6:0xf9b2cd0d x15=0x064d32f2
       32055000	      3204	800015a8	03c69863	bne	x13,x28,800015d8	 x13:0x00000000 x28:0xfffffffb
       32065000	      3205	00000000	00000013	addi	x0,x0,0	  x0:0x00000000
       32075000	      3206	800015d4	00000013	addi	x0,x0,0	  x0:0x00000000
       32085000	      3207	800015d8	c5d64193	xori	x3,x12,-931	 x12:0x00000000  x3=0xfffffc5d
       32095000	      3208	800015dc	673bb337	lui	x6,0x673bb	  x6=0x673bb000
       32105000	      3209	800015e0	a077cc13	xori	x24,x15,-1529	 x15:0x064d32f2 x24=0xf9b2c8f5
       32115000	      3210	800015e4	02ac0e63	beq	x24,x10,80001620	 x24:0xf9b2c8f5 x10:0x80009fc4
       32125000	      3211	800015e8	055fc863	blt	x31,x21,80001638	 x31:0x00000000 x21:0x4d3e437c
       32135000	      3212	00000000	00000013	addi	x0,x0,0	  x0:0x00000000
       32145000	      3213	80001634	00000013	addi	x0,x0,0	  x0:0x00000000
       32155000	      3214	80001638	00a5a8b3	slt	x17,x11,x10	 x11:0xffffff53 x10:0x80009fc4 x17=0x00000000
       32165000	      3215	8000163c	2464c837	lui	x16,0x2464c	 x16=0x2464c000
       32175000	      3216	80001640	013a5313	srli	x6,x20,0x13	 x20:0x6bcaf001  x6=0x00000d79
       32185000	      3217	80001644	a4be8e93	addi	x29,x29,-1461	 x29:0x94350fff x29=0x94350a4a
       32195000	      3218	80001648	01ac02b3	add	x5,x24,x26	 x24:0xf9b2c8f5 x26:0x3f04166e  x5=0x38b6df63
       32205000	      3219	8000164c	0141e4b3	or	x9,x3,x20	  x3:0xfffffc5d x20:0x6bcaf001  x9=0xfffffc5d
       32215000	      3220	80001650	41265693	srai	x13,x12,0x12	 x12:0x00000000 x13=0x00000000
       32225000	      3221	80001654	403a5633	sra	x12,x20,x3	 x20:0x6bcaf001  x3:0xfffffc5d x12=0x00000003
       32235000	      3222	80001658	a294e393	ori	x7,x9,-1495	  x9:0xfffffc5d  x7=0xfffffe7d
       32245000	      3223	8000165c	02a40463	beq	x8,x10,80001684	  x8:0xffffffff x10:0x80009fc4
       32255000	      3224	80001660	ab024a93	xori	x21,x4,-1360	  x4:0x5f01f250 x21=0xa0fe08e0
       32265000	      3225	80001664	007aec63	bltu	x21,x7,8000167c	 x21:0xa0fe08e0  x7:0xfffffe7d
       32275000	      3226	00000000	00000013	addi	x0,x0,0	  x0:0x00000000
       32285000	      3227	80001678	00000013	addi	x0,x0,0	  x0:0x00000000
       32295000	      3228	8000167c	a42be5b7	lui	x11,0xa42be	 x11=0xa42be000
       32305000	      3229	80001680	01f37d33	and	x26,x6,x31	  x6:0x00000d79 x31:0x00000000 x26=0x00000000
       32315000	      3230	80001684	25293193	sltiu	x3,x18,594	 x18:0x80009eb0  x3=0x00000000
       32325000	      3231	80001688	a1dfc413	xori	x8,x31,-1507	 x31:0x00000000  x8=0xfffffa1d
       32335000	      3232	8000168c	003ffe33	and	x28,x31,x3	 x31:0x00000000  x3:0x00000000 x28=0x00000000
       32345000	      3233	80001690	e5488793	addi	x15,x17,-428	 x17:0x00000000 x15=0xfffffe54
       32355000	      3234	80001694	00bdbfb3	sltu	x31,x27,x11	 x27:0x00000000 x11:0xa42be000 x31=0x00000001
       32365000	      3235	80001698	008caf33	slt	x30,x25,x8	 x25:0x6bcaf000  x8:0xfffffa1d x30=0x00000000
       32375000	      3236	8000169c	017afb33	and	x22,x21,x23	 x21:0xa0fe08e0 x23:0x80000000 x22=0x80000000
       32385000	      3237	800016a0	0152e233	or	x4,x5,x21	  x5:0x38b6df63 x21:0xa0fe08e0  x4=0xb8fedfe3
       32395000	      3238	800016a4	047be463	bltu	x23,x7,800016ec	 x23:0x80000000  x7:0xfffffe7d
       32405000	      3239	00000000	00000013	addi	x0,x0,0	  x0:0x00000000
       32415000	      3240	800016e8	00000013	addi	x0,x0,0	  x0:0x00000000
       32425000	      3241	800016ec	00045e93	srli	x29,x8,0x0	  x8:0xfffffa1d x29=0xfffffa1d
       32435000	      3242	800016f0	c32e6393	ori	x7,x28,-974	 x28:0x00000000  x7=0xfffffc32
       32445000	      3243	800016f4	01bd9a63	bne	x27,x27,80001708	 x27:0x00000000 x27:0x00000000
       32455000	      3244	800016f8	0cee4063	blt	x28,x14,800017b8	 x28:0x00000000 x14:0xe07df294
       32465000	      3245	800016fc	41b8db93	srai	x23,x17,0x1b	 x17:0x00000000 x23=0x00000000
       32475000	      3246	80001700	73a1f813	andi	x16,x3,1850	  x3:0x00000000 x16=0x00000000
       32485000	      3247	80001704	14f6d2b7	lui	x5,0x14f6d	  x5=0x14f6d000
       32495000	      3248	80001708	01765433	srl	x8,x12,x23	 x12:0x00000003 x23:0x00000000  x8=0x00000003
       32505000	      3249	8000170c	ff89aa13	slti	x20,x19,-8	 x19:0x1f820b37 x20=0x00000000
       32515000	      3250	80001710	0953d863	bge	x7,x21,800017a0	  x7:0xfffffc32 x21:0xa0fe08e0
       32525000	      3251	00000000	00000013	addi	x0,x0,0	  x0:0x00000000
       32535000	      3252	8000179c	00000013	addi	x0,x0,0	  x0:0x00000000
       32545000	      3253	800017a0	dab40fb7	lui	x31,0xdab40	 x31=0xdab40000
       32555000	      3254	800017a4	41655093	srai	x1,x10,0x16	 x10:0x80009fc4  x1=0xfffffe00
       32565000	      3255	800017a8	0042d213	srli	x4,x5,0x4	  x5:0x14f6d000  x4=0x014f6d00
       32575000	      3256	800017ac	fecf6f93	ori	x31,x30,-20	 x30:0x00000000 x31=0xffffffec
       32585000	      3257	800017b0	0040df93	srli	x31,x1,0x4	  x1:0xfffffe00 x31=0x0fffffe0
       32595000	      3258	800017b4	40d051b3	sra	x3,x0,x13	  x0:0x00000000 x13:0x00000000  x3=0x00000000
       32605000	      3259	800017b8	01d65d33	srl	x26,x12,x29	 x12:0x00000003 x29:0xfffffa1d x26=0x00000000
       32615000	      3260	800017bc	03b96663	bltu	x18,x27,800017e8	 x18:0x80009eb0 x27:0x00000000
       32625000	      3261	800017c0	016c64b3	or	x9,x24,x22	 x24:0xf9b2c8f5 x22:0x80000000  x9=0xf9b2c8f5
       32635000	      3262	800017c4	04670663	beq	x14,x6,80001810	 x14:0xe07df294  x6:0x00000d79
       32645000	      3263	800017c8	00c35ab3	srl	x21,x6,x12	  x6:0x00000d79 x12:0x00000003 x21=0x000001af
       32655000	      3264	800017cc	03c46063	bltu	x8,x28,800017ec	  x8:0x00000003 x28:0x00000000
       32665000	      3265	800017d0	04775263	bge	x14,x7,80001814	 x14:0xe07df294  x7:0xfffffc32
       32675000	      3266	800017d4	018b1693	slli	x13,x22,0x18	 x22:0x80000000 x13=0x00000000
       32685000	      3267	800017d8	017c1113	slli	x2,x24,0x17	 x24:0xf9b2c8f5  x2=0x7a800000
       32695000	      3268	800017dc	01e0a0b3	slt	x1,x1,x30	  x1:0xfffffe00 x30:0x00000000  x1=0x00000001
       32705000	      3269	800017e0	d60ea1b7	lui	x3,0xd60ea	  x3=0xd60ea000
       32715000	      3270	800017e4	04345263	bge	x8,x3,80001828	  x8:0x00000003  x3:0xd60ea000
       32725000	      3271	00000000	00000013	addi	x0,x0,0	  x0:0x00000000
       32735000	      3272	80001824	00000013	addi	x0,x0,0	  x0:0x00000000
       32745000	      3273	80001828	0189db33	srl	x22,x19,x24	 x19:0x1f820b37 x24:0xf9b2c8f5 x22=0x000000fc
       32755000	      3274	8000182c	404ed1b3	sra	x3,x29,x4	 x29:0xfffffa1d  x4:0x014f6d00  x3=0xfffffa1d
       32765000	      3275	80001830	67effa13	andi	x20,x31,1662	 x31:0x0fffffe0 x20=0x00000660
       32775000	      3276	80001834	015633b3	sltu	x7,x12,x21	 x12:0x00000003 x21:0x000001af  x7=0x00000001
       32785000	      3277	80001838	03941263	bne	x8,x25,8000185c	  x8:0x00000003 x25:0x6bcaf000
       32795000	      3278	00000000	00000013	addi	x0,x0,0	  x0:0x00000000
       32805000	      3279	80001858	00000013	addi	x0,x0,0	  x0:0x00000000
       32815000	      3280	8000185c	f7477a13	andi	x20,x14,-140	 x14:0xe07df294 x20=0xe07df214
       32825000	      3281	80001860	0010beb3	sltu	x29,x1,x1	  x1:0x00000001  x1:0x00000001 x29=0x00000000
       32835000	      3282	80001864	008d5713	srli	x14,x26,0x8	 x26:0x00000000 x14=0x00000000
       32845000	      3283	80001868	007e1813	slli	x16,x28,0x7	 x28:0x00000000 x16=0x00000000
       32855000	      3284	8000186c	410c5993	srai	x19,x24,0x10	 x24:0xf9b2c8f5 x19=0xfffff9b2
       32865000	      3285	80001870	01c4c263	blt	x9,x28,80001874	  x9:0xf9b2c8f5 x28:0x00000000
       32875000	      3286	00000000	00000013	addi	x0,x0,0	  x0:0x00000000
       32885000	      3287	80001870	00000013	addi	x0,x0,0	  x0:0x00000000
       32895000	      3288	80001874	004650b3	srl	x1,x12,x4	 x12:0x00000003  x4:0x014f6d00  x1=0x00000003
       32905000	      3289	80001878	7c9d2e37	lui	x28,0x7c9d2	 x28=0x7c9d2000
       32915000	      3290	8000187c	00a402b3	add	x5,x8,x10	  x8:0x00000003 x10:0x80009fc4  x5=0x80009fc7
       32925000	      3291	80001880	014cbc33	sltu	x24,x25,x20	 x25:0x6bcaf000 x20:0xe07df214 x24=0x00000001
       32935000	      3292	80001884	01fe9133	sll	x2,x29,x31	 x29:0x00000000 x31:0x0fffffe0  x2=0x00000000
       32945000	      3293	80001888	8ac1c893	xori	x17,x3,-1876	  x3:0xfffffa1d x17=0x000002b1
       32955000	      3294	8000188c	00000013	addi	x0,x0,0	  x0:0x00000000
       32965000	      3295	80001890	005f2833	slt	x16,x30,x5	 x30:0x00000000  x5:0x80009fc7 x16=0x00000000
       32975000	      3296	80001894	f0bfe793	ori	x15,x31,-245	 x31:0x0fffffe0 x15=0xffffffeb
       32985000	      3297	80001898	01b75c13	srli	x24,x14,0x1b	 x14:0x00000000 x24=0x00000000
       32995000	      3298	8000189c	05469663	bne	x13,x20,800018e8	 x13:0x00000000 x20:0xe07df214
       33005000	      3299	00000000	00000013	addi	x0,x0,0	  x0:0x00000000
       33015000	      3300	800018e4	00000013	addi	x0,x0,0	  x0:0x00000000
       33025000	      3301	800018e8	20864b93	xori	x23,x12,520	 x12:0x00000003 x23=0x0000020b
       33035000	      3302	800018ec	04bd0c93	addi	x25,x26,75	 x26:0x00000000 x25=0x0000004b
       33045000	      3303	800018f0	01bba433	slt	x8,x23,x27	 x23:0x0000020b x27:0x00000000  x8=0x00000000
       33055000	      3304	800018f4	01637b33	and	x22,x6,x22	  x6:0x00000d79 x22:0x000000fc x22=0x00000078
       33065000	      3305	800018f8	03889e63	bne	x17,x24,80001934	 x17:0x000002b1 x24:0x00000000
       33075000	      3306	00000000	00000013	addi	x0,x0,0	  x0:0x00000000
       33085000	      3307	80001930	00000013	addi	x0,x0,0	  x0:0x00000000
       33095000	      3308	80001934	016be2b3	or	x5,x23,x22	 x23:0x0000020b x22:0x00000078  x5=0x0000027b
       33105000	      3309	80001938	02317663	bgeu	x2,x3,80001964	  x2:0x00000000  x3:0xfffffa1d
       33115000	      3310	8000193c	d26a0993	addi	x19,x20,-730	 x20:0xe07df214 x19=0xe07def3a
       33125000	      3311	80001940	039b7e63	bgeu	x22,x25,8000197c	 x22:0x00000078 x25:0x0000004b
       33135000	      3312	00000000	00000013	addi	x0,x0,0	  x0:0x00000000
       33145000	      3313	80001978	00000013	addi	x0,x0,0	  x0:0x00000000
       33155000	      3314	8000197c	00000013	addi	x0,x0,0	  x0:0x00000000
       33165000	      3315	80001980	00189a13	slli	x20,x17,0x1	 x17:0x000002b1 x20=0x00000562
       33175000	      3316	80001984	418b04b3	sub	x9,x22,x24	 x22:0x00000078 x24:0x00000000  x9=0x00000078
       33185000	      3317	80001988	04b70463	beq	x14,x11,800019d0	 x14:0x00000000 x11:0xa42be000
       33195000	      3318	8000198c	00000013	addi	x0,x0,0	  x0:0x00000000
       33205000	      3319	80001990	41645293	srai	x5,x8,0x16	  x8:0x00000000  x5=0x00000000
       33215000	      3320	80001994	00bbc863	blt	x23,x11,800019a4	 x23:0x0000020b x11:0xa42be000
       33225000	      3321	80001998	3f43cc93	xori	x25,x7,1012	  x7:0x00000001 x25=0x000003f5
       33235000	      3322	8000199c	3162e717	auipc	x14,0x3162e	 x14=0xb162f998
       33245000	      3323	800019a0	05660663	beq	x12,x22,800019ec	 x12:0x00000003 x22:0x00000078
       33255000	      3324	800019a4	011d9833	sll	x16,x27,x17	 x27:0x00000000 x17:0x000002b1 x16=0x00000000
       33265000	      3325	800019a8	0497c463	blt	x15,x9,800019f0	 x15:0xffffffeb  x9:0x00000078
       33275000	      3326	00000000	00000013	addi	x0,x0,0	  x0:0x00000000
       33285000	      3327	800019ec	00000013	addi	x0,x0,0	  x0:0x00000000
       33295000	      3328	800019f0	00e76cb3	or	x25,x14,x14	 x14:0xb162f998 x14:0xb162f998 x25=0xb162f998
       33305000	      3329	800019f4	02926c63	bltu	x4,x9,80001a2c	  x4:0x014f6d00  x9:0x00000078
       33315000	      3330	800019f8	68f1ec13	ori	x24,x3,1679	  x3:0xfffffa1d x24=0xfffffe9f
       33325000	      3331	800019fc	00c41c13	slli	x24,x8,0xc	  x8:0x00000000 x24=0x00000000
       33335000	      3332	80001a00	419a5033	sra	x0,x20,x25	 x20:0x00000562 x25:0xb162f998
       33345000	      3333	80001a04	66929d17	auipc	x26,0x66929	 x26=0xe692aa00
       33355000	      3334	80001a08	66032213	slti	x4,x6,1632	  x6:0x00000d79  x4=0x00000000
       33365000	      3335	80001a0c	4149d093	srai	x1,x19,0x14	 x19:0xe07def3a  x1=0xfffffe07
       33375000	      3336	80001a10	00000013	addi	x0,x0,0	  x0:0x00000000
       33385000	      3337	80001a14	140a7c93	andi	x25,x20,320	 x20:0x00000562 x25=0x00000140
       33395000	      3338	80001a18	404ed033	sra	x0,x29,x4	 x29:0x00000000  x4:0x00000000
       33405000	      3339	80001a1c	41e9dab3	sra	x21,x19,x30	 x19:0xe07def3a x30:0x00000000 x21=0xe07def3a
       33415000	      3340	80001a20	00148333	add	x6,x9,x1	  x9:0x00000078  x1:0xfffffe07  x6=0xfffffe7f
       33425000	      3341	80001a24	29494893	xori	x17,x18,660	 x18:0x80009eb0 x17=0x80009c24
       33435000	      3342	80001a28	0104cd33	xor	x26,x9,x16	  x9:0x00000078 x16:0x00000000 x26=0x00000078
       33445000	      3343	80001a2c	fb473a93	sltiu	x21,x14,-76	 x14:0xb162f998 x21=0x00000001
       33455000	      3344	80001a30	0025c0b3	xor	x1,x11,x2	 x11:0xa42be000  x2:0x00000000  x1=0xa42be000
       33465000	      3345	80001a34	01b797b3	sll	x15,x15,x27	 x15:0xffffffeb x27:0x00000000 x15=0xffffffeb
       33475000	      3346	80001a38	01ee7263	bgeu	x28,x30,80001a3c	 x28:0x7c9d2000 x30:0x00000000
       33485000	      3347	00000000	00000013	addi	x0,x0,0	  x0:0x00000000
       33495000	      3348	80001a38	00000013	addi	x0,x0,0	  x0:0x00000000
       33505000	      3349	80001a3c	01b6a033	slt	x0,x13,x27	 x13:0x00000000 x27:0x00000000
       33515000	      3350	80001a40	019457b3	srl	x15,x8,x25	  x8:0x00000000 x25:0x00000140 x15=0x00000000
       33525000	      3351	80001a44	415cd713	srai	x14,x25,0x15	 x25:0x00000140 x14=0x00000000
       33535000	      3352	80001a48	01c370b3	and	x1,x6,x28	  x6:0xfffffe7f x28:0x7c9d2000  x1=0x7c9d2000
       33545000	      3353	80001a4c	408a03b3	sub	x7,x20,x8	 x20:0x00000562  x8:0x00000000  x7=0x00000562
       33555000	      3354	80001a50	2cdf2c13	slti	x24,x30,717	 x30:0x00000000 x24=0x00000001
       33565000	      3355	80001a54	109aa693	slti	x13,x21,265	 x21:0x00000001 x13=0x00000001
       33575000	      3356	80001a58	4473f993	andi	x19,x7,1095	  x7:0x00000562 x19=0x00000442
       33585000	      3357	80001a5c	409e5a33	sra	x20,x28,x9	 x28:0x7c9d2000  x9:0x00000078 x20=0x0000007c
       33595000	      3358	80001a60	0093a433	slt	x8,x7,x9	  x7:0x00000562  x9:0x00000078  x8=0x00000000
       33605000	      3359	80001a64	01c83033	sltu	x0,x16,x28	 x16:0x00000000 x28:0x7c9d2000
       33615000	      3360	80001a68	d3a0f613	andi	x12,x1,-710	  x1:0x7c9d2000 x12=0x7c9d2000
       33625000	      3361	80001a6c	012965b3	or	x11,x18,x18	 x18:0x80009eb0 x18:0x80009eb0 x11=0x80009eb0
       33635000	      3362	80001a70	41545213	srai	x4,x8,0x15	  x8:0x00000000  x4=0x00000000
       33645000	      3363	80001a74	04156463	bltu	x10,x1,80001abc	 x10:0x80009fc4  x1:0x7c9d2000
       33655000	      3364	80001a78	05d7f263	bgeu	x15,x29,80001abc	 x15:0x00000000 x29:0x00000000
       33665000	      3365	00000000	00000013	addi	x0,x0,0	  x0:0x00000000
       33675000	      3366	80001ab8	00000013	addi	x0,x0,0	  x0:0x00000000
       33685000	      3367	80001abc	51c98613	addi	x12,x19,1308	 x19:0x00000442 x12=0x0000095e
       33695000	      3368	80001ac0	00315a63	bge	x2,x3,80001ad4	  x2:0x00000000  x3:0xfffffa1d
       33705000	      3369	00000000	00000013	addi	x0,x0,0	  x0:0x00000000
       33715000	      3370	80001ad0	00000013	addi	x0,x0,0	  x0:0x00000000
       33725000	      3371	80001ad4	40a05633	sra	x12,x0,x10	  x0:0x00000000 x10:0x80009fc4 x12=0x00000000
       33735000	      3372	80001ad8	7eacfd37	lui	x26,0x7eacf	 x26=0x7eacf000
       33745000	      3373	80001adc	d930f893	andi	x17,x1,-621	  x1:0x7c9d2000 x17=0x7c9d2000
       33755000	      3374	80001ae0	002da2b3	slt	x5,x27,x2	 x27:0x00000000  x2:0x00000000  x5=0x00000000
       33765000	      3375	80001ae4	0174a833	slt	x16,x9,x23	  x9:0x00000078 x23:0x0000020b x16=0x00000001
       33775000	      3376	80001ae8	41fd05b3	sub	x11,x26,x31	 x26:0x7eacf000 x31:0x0fffffe0 x11=0x6eacf020
       33785000	      3377	80001aec	005084b3	add	x9,x1,x5	  x1:0x7c9d2000  x5:0x00000000  x9=0x7c9d2000
       33795000	      3378	80001af0	012637b3	sltu	x15,x12,x18	 x12:0x00000000 x18:0x80009eb0 x15=0x00000001
       33805000	      3379	80001af4	00000013	addi	x0,x0,0	  x0:0x00000000
       33815000	      3380	80001af8	00e0dab3	srl	x21,x1,x14	  x1:0x7c9d2000 x14:0x00000000 x21=0x7c9d2000
       33825000	      3381	80001afc	e07de213	ori	x4,x27,-505	 x27:0x00000000  x4=0xfffffe07
       33835000	      3382	80001b00	05c28863	beq	x5,x28,80001b50	  x5:0x00000000 x28:0x7c9d2000
       33845000	      3383	80001b04	40005a93	srai	x21,x0,0x0	  x0:0x00000000 x21=0x00000000
       33855000	      3384	80001b08	00000013	addi	x0,x0,0	  x0:0x00000000
       33865000	      3385	80001b0c	9e9c3413	sltiu	x8,x24,-1559	 x24:0x00000001  x8=0x00000001
       33875000	      3386	80001b10	004934b3	sltu	x9,x18,x4	 x18:0x80009eb0  x4:0xfffffe07  x9=0x00000001
       33885000	      3387	80001b14	73a87393	andi	x7,x16,1850	 x16:0x00000001  x7=0x00000000
       33895000	      3388	80001b18	03096063	bltu	x18,x16,80001b38	 x18:0x80009eb0 x16:0x00000001
       33905000	      3389	80001b1c	01c11193	slli	x3,x2,0x1c	  x2:0x00000000  x3=0x00000000
       33915000	      3390	80001b20	011518b3	sll	x17,x10,x17	 x10:0x80009fc4 x17:0x7c9d2000 x17=0x80009fc4
       33925000	      3391	80001b24	01c53433	sltu	x8,x10,x28	 x10:0x80009fc4 x28:0x7c9d2000  x8=0x00000000
       33935000	      3392	80001b28	00e76733	or	x14,x14,x14	 x14:0x00000000 x14:0x00000000 x14=0x00000000
       33945000	      3393	80001b2c	411d5793	srai	x15,x26,0x11	 x26:0x7eacf000 x15=0x00003f56
       33955000	      3394	80001b30	c1a98117	auipc	x2,0xc1a98	  x2=0x41a99b2c
       33965000	      3395	80001b34	00000013	addi	x0,x0,0	  x0:0x00000000
       33975000	      3396	80001b38	41ab5713	srai	x14,x22,0x1a	 x22:0x00000078 x14=0x00000000
       33985000	      3397	80001b3c	96a04237	lui	x4,0x96a04	  x4=0x96a04000
       33995000	      3398	80001b40	97507217	auipc	x4,0x97507	  x4=0x17508b3c
       34005000	      3399	80001b44	00c38733	add	x14,x7,x12	  x7:0x00000000 x12:0x00000000 x14=0x00000000
       34015000	      3400	80001b48	de5cf093	andi	x1,x25,-539	 x25:0x00000140  x1=0x00000140
       34025000	      3401	80001b4c	46783013	sltiu	x0,x16,1127	 x16:0x00000001
       34035000	      3402	80001b50	c2822693	slti	x13,x4,-984	  x4:0x17508b3c x13=0x00000000
       34045000	      3403	80001b54	01bfc1b3	xor	x3,x31,x27	 x31:0x0fffffe0 x27:0x00000000  x3=0x0fffffe0
       34055000	      3404	80001b58	047c9863	bne	x25,x7,80001ba8	 x25:0x00000140  x7:0x00000000
       34065000	      3405	00000000	00000013	addi	x0,x0,0	  x0:0x00000000
       34075000	      3406	80001ba4	00000013	addi	x0,x0,0	  x0:0x00000000
       34085000	      3407	80001ba8	026d7663	bgeu	x26,x6,80001bd4	 x26:0x7eacf000  x6:0xfffffe7f
       34095000	      3408	80001bac	01a8ccb3	xor	x25,x17,x26	 x17:0x80009fc4 x26:0x7eacf000 x25=0xfeac6fc4
       34105000	      3409	80001bb0	031a5063	bge	x20,x17,80001bd0	 x20:0x0000007c x17:0x80009fc4
       34115000	      3410	00000000	00000013	addi	x0,x0,0	  x0:0x00000000
       34125000	      3411	80001bcc	00000013	addi	x0,x0,0	  x0:0x00000000
       34135000	      3412	80001bd0	00b90d33	add	x26,x18,x11	 x18:0x80009eb0 x11:0x6eacf020 x26=0xeead8ed0
       34145000	      3413	80001bd4	01de9413	slli	x8,x29,0x1d	 x29:0x00000000  x8=0x00000000
       34155000	      3414	80001bd8	7ac60b13	addi	x22,x12,1964	 x12:0x00000000 x22=0x000007ac
       34165000	      3415	80001bdc	004e8bb3	add	x23,x29,x4	 x29:0x00000000  x4:0x17508b3c x23=0x17508b3c
       34175000	      3416	80001be0	26b29e97	auipc	x29,0x26b29	 x29=0xa6b2abdc
       34185000	      3417	80001be4	03d2dd37	lui	x26,0x3d2d	 x26=0x03d2d000
       34195000	      3418	80001be8	c3fe1137	lui	x2,0xc3fe1	  x2=0xc3fe1000
       34205000	      3419	80001bec	00a84263	blt	x16,x10,80001bf0	 x16:0x00000001 x10:0x80009fc4
       34215000	      3420	80001bf0	00a006b3	add	x13,x0,x10	  x0:0x00000000 x10:0x80009fc4 x13=0x80009fc4
       34225000	      3421	80001bf4	019703b3	add	x7,x14,x25	 x14:0x00000000 x25:0xfeac6fc4  x7=0xfeac6fc4
       34235000	      3422	80001bf8	01fa03b3	add	x7,x20,x31	 x20:0x0000007c x31:0x0fffffe0  x7=0x1000005c
       34245000	      3423	80001bfc	05fd5663	bge	x26,x31,80001c48	 x26:0x03d2d000 x31:0x0fffffe0
       34255000	      3424	80001c00	0073fbb3	and	x23,x7,x7	  x7:0x1000005c  x7:0x1000005c x23=0x1000005c
       34265000	      3425	80001c04	01c24813	xori	x16,x4,28	  x4:0x17508b3c x16=0x17508b20
       34275000	      3426	80001c08	0228cc63	blt	x17,x2,80001c40	 x17:0x80009fc4  x2:0xc3fe1000
       34285000	      3427	00000000	00000013	addi	x0,x0,0	  x0:0x00000000
       34295000	      3428	80001c3c	00000013	addi	x0,x0,0	  x0:0x00000000
       34305000	      3429	80001c40	222b7a13	andi	x20,x22,546	 x22:0x000007ac x20=0x00000220
       34315000	      3430	80001c44	01bf84b3	add	x9,x31,x27	 x31:0x0fffffe0 x27:0x00000000  x9=0x0fffffe0
       34325000	      3431	80001c48	05a06663	bltu	x0,x26,80001c94	  x0:0x00000000 x26:0x03d2d000
       34335000	      3432	00000000	00000013	addi	x0,x0,0	  x0:0x00000000
       34345000	      3433	80001c90	00000013	addi	x0,x0,0	  x0:0x00000000
       34355000	      3434	80001c94	26daea13	ori	x20,x21,621	 x21:0x00000000 x20=0x0000026d
       34365000	      3435	80001c98	0172beb3	sltu	x29,x5,x23	  x5:0x00000000 x23:0x1000005c x29=0x00000001
       34375000	      3436	80001c9c	016794b3	sll	x9,x15,x22	 x15:0x00003f56 x22:0x000007ac  x9=0x03f56000
       34385000	      3437	80001ca0	01aa38b3	sltu	x17,x20,x26	 x20:0x0000026d x26:0x03d2d000 x17=0x00000001
       34395000	      3438	80001ca4	58cac793	xori	x15,x21,1420	 x21:0x00000000 x15=0x0000058c
       34405000	      3439	80001ca8	d62383b7	lui	x7,0xd6238	  x7=0xd6238000
       34415000	      3440	80001cac	3c11f393	andi	x7,x3,961	  x3:0x0fffffe0  x7=0x000003c0
       34425000	      3441	80001cb0	a856c113	xori	x2,x13,-1403	 x13:0x80009fc4  x2=0x7fff6541
       34435000	      3442	80001cb4	01ab6d33	or	x26,x22,x26	 x22:0x000007ac x26:0x03d2d000 x26=0x03d2d7ac
       34445000	      3443	80001cb8	01e24cb3	xor	x25,x4,x30	  x4:0x17508b3c x30:0x00000000 x25=0x17508b3c
       34455000	      3444	80001cbc	01913bb3	sltu	x23,x2,x25	  x2:0x7fff6541 x25:0x17508b3c x23=0x00000000
       34465000	      3445	80001cc0	f2da6c93	ori	x25,x20,-211	 x20:0x0000026d x25=0xffffff6d
       34475000	      3446	80001cc4	adb7f693	andi	x13,x15,-1317	 x15:0x0000058c x13=0x00000088
       34485000	      3447	80001cc8	41498c33	sub	x24,x19,x20	 x19:0x00000442 x20:0x0000026d x24=0x000001d5
       34495000	      3448	80001ccc	033a1063	bne	x20,x19,80001cec	 x20:0x0000026d x19:0x00000442
       34505000	      3449	00000000	00000013	addi	x0,x0,0	  x0:0x00000000
       34515000	      3450	80001ce8	00000013	addi	x0,x0,0	  x0:0x00000000
       34525000	      3451	80001cec	8dbe32b7	lui	x5,0x8dbe3	  x5=0x8dbe3000
       34535000	      3452	80001cf0	81a08413	addi	x8,x1,-2022	  x1:0x00000140  x8=0xfffff95a
       34545000	      3453	80001cf4	0154cbb3	xor	x23,x9,x21	  x9:0x03f56000 x21:0x00000000 x23=0x03f56000
       34555000	      3454	80001cf8	008a7263	bgeu	x20,x8,80001cfc	 x20:0x0000026d  x8:0xfffff95a
       34565000	      3455	80001cfc	0107d793	srli	x15,x15,0x10	 x15:0x0000058c x15=0x00000000
       34575000	      3456	80001d00	00319393	slli	x7,x3,0x3	  x3:0x0fffffe0  x7=0x7fffff00
       34585000	      3457	80001d04	6e3c4313	xori	x6,x24,1763	 x24:0x000001d5  x6=0x00000736
       34595000	      3458	80001d08	05ed5063	bge	x26,x30,80001d48	 x26:0x03d2d7ac x30:0x00000000
       34605000	      3459	00000000	00000013	addi	x0,x0,0	  x0:0x00000000
       34615000	      3460	80001d44	00000013	addi	x0,x0,0	  x0:0x00000000
       34625000	      3461	80001d48	fb5aba93	sltiu	x21,x21,-75	 x21:0x00000000 x21=0x00000001
       34635000	      3462	80001d4c	41068f33	sub	x30,x13,x16	 x13:0x00000088 x16:0x17508b20 x30=0xe8af7568
       34645000	      3463	80001d50	00e59e13	slli	x28,x11,0xe	 x11:0x6eacf020 x28=0x3c080000
       34655000	      3464	80001d54	01a81433	sll	x8,x16,x26	 x16:0x17508b20 x26:0x03d2d7ac  x8=0x08b20000
       34665000	      3465	80001d58	03620c63	beq	x4,x22,80001d90	  x4:0x17508b3c x22:0x000007ac
       34675000	      3466	80001d5c	41a60cb3	sub	x25,x12,x26	 x12:0x00000000 x26:0x03d2d7ac x25=0xfc2d2854
       34685000	      3467	80001d60	014b88b3	add	x17,x23,x20	 x23:0x03f56000 x20:0x0000026d x17=0x03f5626d
       34695000	      3468	80001d64	01027433	and	x8,x4,x16	  x4:0x17508b3c x16:0x17508b20  x8=0x17508b20
       34705000	      3469	80001d68	4156da33	sra	x20,x13,x21	 x13:0x00000088 x21:0x00000001 x20=0x00000044
       34715000	      3470	80001d6c	efa24717	auipc	x14,0xefa24	 x14=0x6fa25d68
       34725000	      3471	80001d70	036cf863	bgeu	x25,x22,80001da0	 x25:0xfc2d2854 x22:0x000007ac
       34735000	      3472	00000000	00000013	addi	x0,x0,0	  x0:0x00000000
       34745000	      3473	80001d9c	00000013	addi	x0,x0,0	  x0:0x00000000
       34755000	      3474	80001da0	016eb0b3	sltu	x1,x29,x22	 x29:0x00000001 x22:0x000007ac  x1=0x00000001
       34765000	      3475	80001da4	4042dcb3	sra	x25,x5,x4	  x5:0x8dbe3000  x4:0x17508b3c x25=0xfffffff8
       34775000	      3476	80001da8	404ed393	srai	x7,x29,0x4	 x29:0x00000001  x7=0x00000000
       34785000	      3477	80001dac	03ac6e63	bltu	x24,x26,80001de8	 x24:0x000001d5 x26:0x03d2d7ac
       34795000	      3478	00000000	00000013	addi	x0,x0,0	  x0:0x00000000
       34805000	      3479	80001de4	00000013	addi	x0,x0,0	  x0:0x00000000
       34815000	      3480	80001de8	04674263	blt	x14,x6,80001e2c	 x14:0x6fa25d68  x6:0x00000736
       34825000	      3481	80001dec	4159d993	srai	x19,x19,0x15	 x19:0x00000442 x19=0x00000000
       34835000	      3482	80001df0	00000013	addi	x0,x0,0	  x0:0x00000000
       34845000	      3483	80001df4	39a40113	addi	x2,x8,922	  x8:0x17508b20  x2=0x17508eba
       34855000	      3484	80001df8	05aa9463	bne	x21,x26,80001e40	 x21:0x00000001 x26:0x03d2d7ac
       34865000	      3485	00000000	00000013	addi	x0,x0,0	  x0:0x00000000
       34875000	      3486	80001e3c	00000013	addi	x0,x0,0	  x0:0x00000000
       34885000	      3487	80001e40	045a6863	bltu	x20,x5,80001e90	 x20:0x00000044  x5:0x8dbe3000
       34895000	      3488	00000000	00000013	addi	x0,x0,0	  x0:0x00000000
       34905000	      3489	80001e8c	00000013	addi	x0,x0,0	  x0:0x00000000
       34915000	      3490	80001e90	00000013	addi	x0,x0,0	  x0:0x00000000
       34925000	      3491	80001e94	31ba6093	ori	x1,x20,795	 x20:0x00000044  x1=0x0000035f
       34935000	      3492	80001e98	41338fb3	sub	x31,x7,x19	  x7:0x00000000 x19:0x00000000 x31=0x00000000
       34945000	      3493	80001e9c	63bfcc13	xori	x24,x31,1595	 x31:0x00000000 x24=0x0000063b
       34955000	      3494	80001ea0	04489863	bne	x17,x4,80001ef0	 x17:0x03f5626d  x4:0x17508b3c
       34965000	      3495	00000000	00000013	addi	x0,x0,0	  x0:0x00000000
       34975000	      3496	80001eec	00000013	addi	x0,x0,0	  x0:0x00000000
       34985000	      3497	80001ef0	003040b3	xor	x1,x0,x3	  x0:0x00000000  x3:0x0fffffe0  x1=0x0fffffe0
       34995000	      3498	80001ef4	7b85b337	lui	x6,0x7b85b	  x6=0x7b85b000
       35005000	      3499	80001ef8	01dfba33	sltu	x20,x31,x29	 x31:0x00000000 x29:0x00000001 x20=0x00000001
       35015000	      3500	80001efc	4efafa93	andi	x21,x21,1263	 x21:0x00000001 x21=0x00000001
       35025000	      3501	80001f00	41f88cb3	sub	x25,x17,x31	 x17:0x03f5626d x31:0x00000000 x25=0x03f5626d
       35035000	      3502	80001f04	0183e663	bltu	x7,x24,80001f10	  x7:0x00000000 x24:0x0000063b
       35045000	      3503	00000000	00000013	addi	x0,x0,0	  x0:0x00000000
       35055000	      3504	80001f0c	00000013	addi	x0,x0,0	  x0:0x00000000
       35065000	      3505	80001f10	019d68b3	or	x17,x26,x25	 x26:0x03d2d7ac x25:0x03f5626d x17=0x03f7f7ed
       35075000	      3506	80001f14	03944663	blt	x8,x25,80001f40	  x8:0x17508b20 x25:0x03f5626d
       35085000	      3507	80001f18	03e7ce63	blt	x15,x30,80001f54	 x15:0x00000000 x30:0xe8af7568
       35095000	      3508	80001f1c	003fd093	srli	x1,x31,0x3	 x31:0x00000000  x1=0x00000000
       35105000	      3509	80001f20	8030bf37	lui	x30,0x8030b	 x30=0x8030b000
       35115000	      3510	80001f24	01a50e33	add	x28,x10,x26	 x10:0x80009fc4 x26:0x03d2d7ac x28=0x83d37770
       35125000	      3511	80001f28	f96b0a13	addi	x20,x22,-106	 x22:0x000007ac x20=0x00000742
       35135000	      3512	80001f2c	01922bb3	slt	x23,x4,x25	  x4:0x17508b3c x25:0x03f5626d x23=0x00000000
       35145000	      3513	80001f30	0135bab3	sltu	x21,x11,x19	 x11:0x6eacf020 x19:0x00000000 x21=0x00000000
       35155000	      3514	80001f34	0261fe63	bgeu	x3,x6,80001f70	  x3:0x0fffffe0  x6:0x7b85b000
       35165000	      3515	80001f38	12f3c263	blt	x7,x15,8000205c	  x7:0x00000000 x15:0x00000000
       35175000	      3516	80001f3c	00871c33	sll	x24,x14,x8	 x14:0x6fa25d68  x8:0x17508b20 x24=0x6fa25d68
       35185000	      3517	80001f40	01429a33	sll	x20,x5,x20	  x5:0x8dbe3000 x20:0x00000742 x20=0x36f8c000
       35195000	      3518	80001f44	f19e4cb7	lui	x25,0xf19e4	 x25=0xf19e4000
       35205000	      3519	80001f48	0c3ba693	slti	x13,x23,195	 x23:0x00000000 x13=0x00000001
       35215000	      3520	80001f4c	415406b3	sub	x13,x8,x21	  x8:0x17508b20 x21:0x00000000 x13=0x17508b20
       35225000	      3521	80001f50	01cd7ab3	and	x21,x26,x28	 x26:0x03d2d7ac x28:0x83d37770 x21=0x03d25720
       35235000	      3522	80001f54	108f6a63	bltu	x30,x8,80002068	 x30:0x8030b000  x8:0x17508b20
       35245000	      3523	80001f58	1341f463	bgeu	x3,x20,80002080	  x3:0x0fffffe0 x20:0x36f8c000
       35255000	      3524	80001f5c	01428263	beq	x5,x20,80001f60	  x5:0x8dbe3000 x20:0x36f8c000
       35265000	      3525	80001f60	0e76fe63	bgeu	x13,x7,8000205c	 x13:0x17508b20  x7:0x00000000
       35275000	      3526	00000000	00000013	addi	x0,x0,0	  x0:0x00000000
       35285000	      3527	80002058	00000013	addi	x0,x0,0	  x0:0x00000000
       35295000	      3528	8000205c	9dda3293	sltiu	x5,x20,-1571	 x20:0x36f8c000  x5=0x00000001
       35305000	      3529	80002060	9b4d7713	andi	x14,x26,-1612	 x26:0x03d2d7ac x14=0x03d2d1a4
       35315000	      3530	80002064	0113ba33	sltu	x20,x7,x17	  x7:0x00000000 x17:0x03f7f7ed x20=0x00000001
       35325000	      3531	80002068	03b99c63	bne	x19,x27,800020a0	 x19:0x00000000 x27:0x00000000
       35335000	      3532	8000206c	00bf8033	add	x0,x31,x11	 x31:0x00000000 x11:0x6eacf020
       35345000	      3533	80002070	011f59b3	srl	x19,x30,x17	 x30:0x8030b000 x17:0x03f7f7ed x19=0x00040185
       35355000	      3534	80002074	df688c93	addi	x25,x17,-522	 x17:0x03f7f7ed x25=0x03f7f5e3
       35365000	      3535	80002078	013f9193	slli	x3,x31,0x13	 x31:0x00000000  x3=0x00000000
       35375000	      3536	8000207c	41a75a13	srai	x20,x14,0x1a	 x14:0x03d2d1a4 x20=0x00000000
       35385000	      3537	80002080	011f1f33	sll	x30,x30,x17	 x30:0x8030b000 x17:0x03f7f7ed x30=0x16000000
       35395000	      3538	80002084	748a6717	auipc	x14,0x748a6	 x14=0xf48a8080
       35405000	      3539	80002088	40d67613	andi	x12,x12,1037	 x12:0x00000000 x12=0x00000000
       35415000	      3540	8000208c	04a10463	beq	x2,x10,800020d4	  x2:0x17508eba x10:0x80009fc4
       35425000	      3541	80002090	400057b3	sra	x15,x0,x0	  x0:0x00000000  x0:0x00000000 x15=0x00000000
       35435000	      3542	80002094	0150bfb3	sltu	x31,x1,x21	  x1:0x00000000 x21:0x03d25720 x31=0x00000001
       35445000	      3543	80002098	4de14893	xori	x17,x2,1246	  x2:0x17508eba x17=0x17508a64
       35455000	      3544	8000209c	02f7f463	bgeu	x15,x15,800020c4	 x15:0x00000000 x15:0x00000000
       35465000	      3545	00000000	00000013	addi	x0,x0,0	  x0:0x00000000
       35475000	      3546	800020c0	00000013	addi	x0,x0,0	  x0:0x00000000
       35485000	      3547	800020c4	05104463	blt	x0,x17,8000210c	  x0:0x00000000 x17:0x17508a64
       35495000	      3548	00000000	00000013	addi	x0,x0,0	  x0:0x00000000
       35505000	      3549	80002108	00000013	addi	x0,x0,0	  x0:0x00000000
       35515000	      3550	8000210c	003a94b3	sll	x9,x21,x3	 x21:0x03d25720  x3:0x00000000  x9=0x03d25720
       35525000	      3551	80002110	0ce16d17	auipc	x26,0xce16	 x26=0x8ce1810c
       35535000	      3552	80002114	459ef093	andi	x1,x29,1113	 x29:0x00000001  x1=0x00000001
       35545000	      3553	80002118	04bc0863	beq	x24,x11,80002168	 x24:0x6fa25d68 x11:0x6eacf020
       35555000	      3554	8000211c	04d31863	bne	x6,x13,8000216c	  x6:0x7b85b000 x13:0x17508b20
       35565000	      3555	00000000	00000013	addi	x0,x0,0	  x0:0x00000000
       35575000	      3556	80002168	00000013	addi	x0,x0,0	  x0:0x00000000
       35585000	      3557	8000216c	00a277b3	and	x15,x4,x10	  x4:0x17508b3c x10:0x80009fc4 x15=0x00008b04
       35595000	      3558	80002170	0bcca013	slti	x0,x25,188	 x25:0x03f7f5e3
       35605000	      3559	80002174	28f54693	xori	x13,x10,655	 x10:0x80009fc4 x13=0x80009d4b
       35615000	      3560	80002178	04d8f663	bgeu	x17,x13,800021c4	 x17:0x17508a64 x13:0x80009d4b
       35625000	      3561	8000217c	0156b2b3	sltu	x5,x13,x21	 x13:0x80009d4b x21:0x03d25720  x5=0x00000000
       35635000	      3562	80002180	04e7c863	blt	x15,x14,800021d0	 x15:0x00008b04 x14:0xf48a8080
       35645000	      3563	80002184	03df8863	beq	x31,x29,800021b4	 x31:0x00000001 x29:0x00000001
       35655000	      3564	00000000	00000013	addi	x0,x0,0	  x0:0x00000000
       35665000	      3565	800021b0	00000013	addi	x0,x0,0	  x0:0x00000000
       35675000	      3566	800021b4	2421a817	auipc	x16,0x2421a	 x16=0xa421c1b0
       35685000	      3567	800021b8	409f0b33	sub	x22,x30,x9	 x30:0x16000000  x9:0x03d25720 x22=0x122da8e0
       35695000	      3568	800021bc	400bdb13	srai	x22,x23,0x0	 x23:0x00000000 x22=0x00000000
       35705000	      3569	800021c0	00000013	addi	x0,x0,0	  x0:0x00000000
       35715000	      3570	800021c4	0004ee33	or	x28,x9,x0	  x9:0x03d25720  x0:0x00000000 x28=0x03d25720
       35725000	      3571	800021c8	0130bb33	sltu	x22,x1,x19	  x1:0x00000001 x19:0x00040185 x22=0x00000001
       35735000	      3572	800021cc	03256063	bltu	x10,x18,800021ec	 x10:0x80009fc4 x18:0x80009eb0
       35745000	      3573	800021d0	38b7a193	slti	x3,x15,907	 x15:0x00008b04  x3=0x00000000
       35755000	      3574	800021d4	05949063	bne	x9,x25,80002214	  x9:0x03d25720 x25:0x03f7f5e3
       35765000	      3575	00000000	00000013	addi	x0,x0,0	  x0:0x00000000
       35775000	      3576	80002210	00000013	addi	x0,x0,0	  x0:0x00000000
       35785000	      3577	80002214	018d6a63	bltu	x26,x24,80002228	 x26:0x8ce1810c x24:0x6fa25d68
       35795000	      3578	80002218	011574b3	and	x9,x10,x17	 x10:0x80009fc4 x17:0x17508a64  x9=0x00008a44
       35805000	      3579	8000221c	00caf733	and	x14,x21,x12	 x21:0x03d25720 x12:0x00000000 x14=0x00000000
       35815000	      3580	80002220	01c92633	slt	x12,x18,x28	 x18:0x80009eb0 x28:0x03d25720 x12=0x00000001
       35825000	      3581	80002224	01fde233	or	x4,x27,x31	 x27:0x00000000 x31:0x00000001  x4=0x00000001
       35835000	      3582	80002228	012e7bb3	and	x23,x28,x18	 x28:0x03d25720 x18:0x80009eb0 x23=0x00001620
       35845000	      3583	8000222c	43cf3713	sltiu	x14,x30,1084	 x30:0x16000000 x14=0x00000000
       35855000	      3584	80002230	04b56663	bltu	x10,x11,8000227c	 x10:0x80009fc4 x11:0x6eacf020
       35865000	      3585	80002234	02736c63	bltu	x6,x7,8000226c	  x6:0x7b85b000  x7:0x00000000
       35875000	      3586	80002238	012a1293	slli	x5,x20,0x12	 x20:0x00000000  x5=0x00000000
       35885000	      3587	8000223c	a8f2e813	ori	x16,x5,-1393	  x5:0x00000000 x16=0xfffffa8f
       35895000	      3588	80002240	71fa7493	andi	x9,x20,1823	 x20:0x00000000  x9=0x00000000
       35905000	      3589	80002244	00d2e333	or	x6,x5,x13	  x5:0x00000000 x13:0x80009d4b  x6=0x80009d4b
       35915000	      3590	80002248	89803f93	sltiu	x31,x0,-1896	  x0:0x00000000 x31=0x00000001
       35925000	      3591	8000224c	403dde33	sra	x28,x27,x3	 x27:0x00000000  x3:0x00000000 x28=0x00000000
       35935000	      3592	80002250	01b89293	slli	x5,x17,0x1b	 x17:0x17508a64  x5=0x20000000
       35945000	      3593	80002254	019eafb3	slt	x31,x29,x25	 x29:0x00000001 x25:0x03f7f5e3 x31=0x00000001
       35955000	      3594	80002258	812595b7	lui	x11,0x81259	 x11=0x81259000
       35965000	      3595	8000225c	00bb7bb3	and	x23,x22,x11	 x22:0x00000001 x11:0x81259000 x23=0x00000000
       35975000	      3596	80002260	0162c833	xor	x16,x5,x22	  x5:0x20000000 x22:0x00000001 x16=0x20000001
       35985000	      3597	80002264	00a2d113	srli	x2,x5,0xa	  x5:0x20000000  x2=0x00080000
       35995000	      3598	80002268	d580e113	ori	x2,x1,-680	  x1:0x00000001  x2=0xfffffd59
       36005000	      3599	8000226c	016b9e13	slli	x28,x23,0x16	 x23:0x00000000 x28=0x00000000
       36015000	      3600	80002270	0180c5b3	xor	x11,x1,x24	  x1:0x00000001 x24:0x6fa25d68 x11=0x6fa25d69
       36025000	      3601	80002274	01a65733	srl	x14,x12,x26	 x12:0x00000001 x26:0x8ce1810c x14=0x00000000
       36035000	      3602	80002278	241b2b93	slti	x23,x22,577	 x22:0x00000001 x23=0x00000001
       36045000	      3603	8000227c	40f2db93	srai	x23,x5,0xf	  x5:0x20000000 x23=0x00004000
       36055000	      3604	80002280	f8f1f593	andi	x11,x3,-113	  x3:0x00000000 x11=0x00000000
       36065000	      3605	80002284	01ccfbb3	and	x23,x25,x28	 x25:0x03f7f5e3 x28:0x00000000 x23=0x00000000
       36075000	      3606	80002288	703bf697	auipc	x13,0x703bf	 x13=0xf03c1284
       36085000	      3607	8000228c	03cb1663	bne	x22,x28,800022b8	 x22:0x00000001 x28:0x00000000
       36095000	      3608	00000000	00000013	addi	x0,x0,0	  x0:0x00000000
       36105000	      3609	800022b4	00000013	addi	x0,x0,0	  x0:0x00000000
       36115000	      3610	800022b8	01dbe033	or	x0,x23,x29	 x23:0x00000000 x29:0x00000001
       36125000	      3611	800022bc	403bd8b3	sra	x17,x23,x3	 x23:0x00000000  x3:0x00000000 x17=0x00000000
       36135000	      3612	800022c0	65b20793	addi	x15,x4,1627	  x4:0x00000001 x15=0x0000065c
       36145000	      3613	800022c4	41a38cb3	sub	x25,x7,x26	  x7:0x00000000 x26:0x8ce1810c x25=0x731e7ef4
       36155000	      3614	800022c8	08625117	auipc	x2,0x8625	  x2=0x886272c4
       36165000	      3615	800022cc	0222e263	bltu	x5,x2,800022f0	  x5:0x20000000  x2:0x886272c4
       36175000	      3616	00000000	00000013	addi	x0,x0,0	  x0:0x00000000
       36185000	      3617	800022ec	00000013	addi	x0,x0,0	  x0:0x00000000
       36195000	      3618	800022f0	002b47b3	xor	x15,x22,x2	 x22:0x00000001  x2:0x886272c4 x15=0x886272c5
       36205000	      3619	800022f4	6440e8b7	lui	x17,0x6440e	 x17=0x6440e000
       36215000	      3620	800022f8	01c4dc93	srli	x25,x9,0x1c	  x9:0x00000000 x25=0x00000000
       36225000	      3621	800022fc	51e57d13	andi	x26,x10,1310	 x10:0x80009fc4 x26=0x00000504
       36235000	      3622	80002300	006cc133	xor	x2,x25,x6	 x25:0x00000000  x6:0x80009d4b  x2=0x80009d4b
       36245000	      3623	80002304	415881b3	sub	x3,x17,x21	 x17:0x6440e000 x21:0x03d25720  x3=0x606e88e0
       36255000	      3624	80002308	00ea8733	add	x14,x21,x14	 x21:0x03d25720 x14:0x00000000 x14=0x03d25720
       36265000	      3625	8000230c	e534de37	lui	x28,0xe534d	 x28=0xe534d000
       36275000	      3626	80002310	002895b3	sll	x11,x17,x2	 x17:0x6440e000  x2:0x80009d4b x11=0x07000000
       36285000	      3627	80002314	05ad1463	bne	x26,x26,8000235c	 x26:0x00000504 x26:0x00000504
       36295000	      3628	80002318	00b604b3	add	x9,x12,x11	 x12:0x00000001 x11:0x07000000  x9=0x07000001
       36305000	      3629	8000231c	01331b13	slli	x22,x6,0x13	  x6:0x80009d4b x22=0xea580000
       36315000	      3630	80002320	02bfe063	bltu	x31,x11,80002340	 x31:0x00000001 x11:0x07000000
       36325000	      3631	00000000	00000013	addi	x0,x0,0	  x0:0x00000000
       36335000	      3632	8000233c	00000013	addi	x0,x0,0	  x0:0x00000000
       36345000	      3633	80002340	40a25fb3	sra	x31,x4,x10	  x4:0x00000001 x10:0x80009fc4 x31=0x00000000
       36355000	      3634	80002344	04286263	bltu	x16,x2,80002388	 x16:0x20000001  x2:0x80009d4b
       36365000	      3635	00000000	00000013	addi	x0,x0,0	  x0:0x00000000
       36375000	      3636	80002384	00000013	addi	x0,x0,0	  x0:0x00000000
       36385000	      3637	80002388	fe5c2a13	slti	x20,x24,-27	 x24:0x6fa25d68 x20=0x00000000
       36395000	      3638	8000238c	cdfb0013	addi	x0,x22,-801	 x22:0xea580000
       36405000	      3639	80002390	04d3cd13	xori	x26,x7,77	  x7:0x00000000 x26=0x0000004d
       36415000	      3640	80002394	016cd7b3	srl	x15,x25,x22	 x25:0x00000000 x22:0xea580000 x15=0x00000000
       36425000	      3641	80002398	00e209b3	add	x19,x4,x14	  x4:0x00000001 x14:0x03d25720 x19=0x03d25721
       36435000	      3642	8000239c	011b3133	sltu	x2,x22,x17	 x22:0xea580000 x17:0x6440e000  x2=0x00000000
       36445000	      3643	800023a0	403c5d13	srai	x26,x24,0x3	 x24:0x6fa25d68 x26=0x0df44bad
       36455000	      3644	800023a4	01459813	slli	x16,x11,0x14	 x11:0x07000000 x16=0x00000000
       36465000	      3645	800023a8	a2d4aa13	slti	x20,x9,-1491	  x9:0x07000001 x20=0x00000000
       36475000	      3646	800023ac	0084a333	slt	x6,x9,x8	  x9:0x07000001  x8:0x17508b20  x6=0x00000001
       36485000	      3647	800023b0	40ae5293	srai	x5,x28,0xa	 x28:0xe534d000  x5=0xfff94d34
       36495000	      3648	800023b4	017adab3	srl	x21,x21,x23	 x21:0x03d25720 x23:0x00000000 x21=0x03d25720
       36505000	      3649	800023b8	0031d593	srli	x11,x3,0x3	  x3:0x606e88e0 x11=0x0c0dd11c
       36515000	      3650	800023bc	41425613	srai	x12,x4,0x14	  x4:0x00000001 x12=0x00000000
       36525000	      3651	800023c0	6b720593	addi	x11,x4,1719	  x4:0x00000001 x11=0x000006b8
       36535000	      3652	800023c4	00306e33	or	x28,x0,x3	  x0:0x00000000  x3:0x606e88e0 x28=0x606e88e0
       36545000	      3653	800023c8	00000013	addi	x0,x0,0	  x0:0x00000000
       36555000	      3654	800023cc	05656863	bltu	x10,x22,8000241c	 x10:0x80009fc4 x22:0xea580000
       36565000	      3655	00000000	00000013	addi	x0,x0,0	  x0:0x00000000
       36575000	      3656	80002418	00000013	addi	x0,x0,0	  x0:0x00000000
       36585000	      3657	8000241c	7d8a0013	addi	x0,x20,2008	 x20:0x00000000
       36595000	      3658	80002420	00f3c4b3	xor	x9,x7,x15	  x7:0x00000000 x15:0x00000000  x9=0x00000000
       36605000	      3659	80002424	f92e2c93	slti	x25,x28,-110	 x28:0x606e88e0 x25=0x00000000
       36615000	      3660	80002428	0078e733	or	x14,x17,x7	 x17:0x6440e000  x7:0x00000000 x14=0x6440e000
       36625000	      3661	8000242c	410056b3	sra	x13,x0,x16	  x0:0x00000000 x16:0x00000000 x13=0x00000000
       36635000	      3662	80002430	05811863	bne	x2,x24,80002480	  x2:0x00000000 x24:0x6fa25d68
       36645000	      3663	00000000	00000013	addi	x0,x0,0	  x0:0x00000000
       36655000	      3664	8000247c	00000013	addi	x0,x0,0	  x0:0x00000000
       36665000	      3665	80002480	00ac02b3	add	x5,x24,x10	 x24:0x6fa25d68 x10:0x80009fc4  x5=0xefa2fd2c
       36675000	      3666	80002484	05fd7263	bgeu	x26,x31,800024c8	 x26:0x0df44bad x31:0x00000000
       36685000	      3667	00000000	00000013	addi	x0,x0,0	  x0:0x00000000
       36695000	      3668	800024c4	00000013	addi	x0,x0,0	  x0:0x00000000
       36705000	      3669	800024c8	05381263	bne	x16,x19,8000250c	 x16:0x00000000 x19:0x03d25721
       36715000	      3670	00000000	00000013	addi	x0,x0,0	  x0:0x00000000
       36725000	      3671	80002508	00000013	addi	x0,x0,0	  x0:0x00000000
       36735000	      3672	8000250c	01a17833	and	x16,x2,x26	  x2:0x00000000 x26:0x0df44bad x16=0x00000000
       36745000	      3673	80002510	05fa7263	bgeu	x20,x31,80002554	 x20:0x00000000 x31:0x00000000
       36755000	      3674	00000000	00000013	addi	x0,x0,0	  x0:0x00000000
       36765000	      3675	80002550	00000013	addi	x0,x0,0	  x0:0x00000000
       36775000	      3676	80002554	36a13b13	sltiu	x22,x2,874	  x2:0x00000000 x22=0x00000001
       36785000	      3677	80002558	000ab733	sltu	x14,x21,x0	 x21:0x03d25720  x0:0x00000000 x14=0x00000000
       36795000	      3678	8000255c	0053fcb3	and	x25,x7,x5	  x7:0x00000000  x5:0xefa2fd2c x25=0x00000000
       36805000	      3679	80002560	e969a197	auipc	x3,0xe969a	  x3=0x6969c55c
       36815000	      3680	80002564	bc3e8113	addi	x2,x29,-1085	 x29:0x00000001  x2=0xfffffbc4
       36825000	      3681	80002568	0018de93	srli	x29,x17,0x1	 x17:0x6440e000 x29=0x32207000
       36835000	      3682	8000256c	41150f33	sub	x30,x10,x17	 x10:0x80009fc4 x17:0x6440e000 x30=0x1bbfbfc4
       36845000	      3683	80002570	49850613	addi	x12,x10,1176	 x10:0x80009fc4 x12=0x8000a45c
       36855000	      3684	80002574	054a8463	beq	x21,x20,800025bc	 x21:0x03d25720 x20:0x00000000
       36865000	      3685	80002578	88c46093	ori	x1,x8,-1908	  x8:0x17508b20  x1=0xfffffbac
       36875000	      3686	8000257c	b682aa13	slti	x20,x5,-1176	  x5:0xefa2fd2c x20=0x00000001
       36885000	      3687	80002580	0198efb3	or	x31,x17,x25	 x17:0x6440e000 x25:0x00000000 x31=0x6440e000
       36895000	      3688	80002584	c3ade393	ori	x7,x27,-966	 x27:0x00000000  x7=0xfffffc3a
       36905000	      3689	80002588	026ce463	bltu	x25,x6,800025b0	 x25:0x00000000  x6:0x00000001
       36915000	      3690	00000000	00000013	addi	x0,x0,0	  x0:0x00000000
       36925000	      3691	800025ac	00000013	addi	x0,x0,0	  x0:0x00000000
       36935000	      3692	800025b0	a1a66a93	ori	x21,x12,-1510	 x12:0x8000a45c x21=0xfffffe5e
       36945000	      3693	800025b4	0012acb3	slt	x25,x5,x1	  x5:0xefa2fd2c  x1:0xfffffbac x25=0x00000001
       36955000	      3694	800025b8	013a1f33	sll	x30,x20,x19	 x20:0x00000001 x19:0x03d25721 x30=0x00000002
       36965000	      3695	800025bc	40b40733	sub	x14,x8,x11	  x8:0x17508b20 x11:0x000006b8 x14=0x17508468
       36975000	      3696	800025c0	04871663	bne	x14,x8,8000260c	 x14:0x17508468  x8:0x17508b20
       36985000	      3697	00000000	00000013	addi	x0,x0,0	  x0:0x00000000
       36995000	      3698	80002608	00000013	addi	x0,x0,0	  x0:0x00000000
       37005000	      3699	8000260c	d1ed0693	addi	x13,x26,-738	 x26:0x0df44bad x13=0x0df448cb
       37015000	      3700	80002610	7ada3413	sltiu	x8,x20,1965	 x20:0x00000001  x8=0x00000001
       37025000	      3701	80002614	006860b3	or	x1,x16,x6	 x16:0x00000000  x6:0x00000001  x1=0x00000001
       37035000	      3702	80002618	00000013	addi	x0,x0,0	  x0:0x00000000
       37045000	      3703	8000261c	417bd7b3	sra	x15,x23,x23	 x23:0x00000000 x23:0x00000000 x15=0x00000000
       37055000	      3704	80002620	40498233	sub	x4,x19,x4	 x19:0x03d25721  x4:0x00000001  x4=0x03d25720
       37065000	      3705	80002624	68a42f93	slti	x31,x8,1674	  x8:0x00000001 x31=0x00000001
       37075000	      3706	80002628	01e7c1b3	xor	x3,x15,x30	 x15:0x00000000 x30:0x00000002  x3=0x00000002
       37085000	      3707	8000262c	12bfb097	auipc	x1,0x12bfb	  x1=0x92bfd628
       37095000	      3708	80002630	5ab2ee13	ori	x28,x5,1451	  x5:0xefa2fd2c x28=0xefa2fdaf
       37105000	      3709	80002634	00492403	lw	x8,4(x18)	 x18:0x80009eb0  x8=0x80003534 PA:0x80009eb4
       37115000	      3710	80002638	00000013	addi	x0,x0,0	  x0:0x00000000
       37125000	      3711	8000263c	006445b3	xor	x11,x8,x6	  x8:0x80003534  x6:0x00000001 x11=0x80003535
       37135000	      3712	80002640	002edc13	srli	x24,x29,0x2	 x29:0x32207000 x24=0x0c881c00
       37145000	      3713	80002644	4164d293	srai	x5,x9,0x16	  x9:0x00000000  x5=0x00000000
       37155000	      3714	80002648	971519b7	lui	x19,0x97151	 x19=0x97151000
       37165000	      3715	8000264c	01090913	addi	x18,x18,16	 x18:0x80009eb0 x18=0x80009ec0
       37175000	      3716	80002650	418bd2b3	sra	x5,x23,x24	 x23:0x00000000 x24:0x0c881c00  x5=0x00000000
       37185000	      3717	80002654	4145d993	srai	x19,x11,0x14	 x11:0x80003535 x19=0xfffff800
       37195000	      3718	80002658	00040c13	addi	x24,x8,0	  x8:0x80003534 x24=0x80003534
       37205000	      3719	8000265c	000c0c67	jalr	x24,x24,0	 x24:0x80003534 x24=0x8000265c
       37215000	      3720	00000000	00000013	addi	x0,x0,0	  x0:0x00000000
       37225000	      3721	80003534	00000013	addi	x0,x0,0	  x0:0x00000000
       37235000	      3722	80003538	03a84263	blt	x16,x26,8000355c	 x16:0x00000000 x26:0x0df44bad
       37245000	      3723	00000000	00000013	addi	x0,x0,0	  x0:0x00000000
       37255000	      3724	80003558	00000013	addi	x0,x0,0	  x0:0x00000000
       37265000	      3725	8000355c	d736ee93	ori	x29,x13,-653	 x13:0x0df448cb x29=0xfffffdfb
       37275000	      3726	80003560	0114f7b3	and	x15,x9,x17	  x9:0x00000000 x17:0x6440e000 x15=0x00000000
       37285000	      3727	80003564	0023d863	bge	x7,x2,80003574	  x7:0xfffffc3a  x2:0xfffffbc4
       37295000	      3728	00000000	00000013	addi	x0,x0,0	  x0:0x00000000
       37305000	      3729	80003570	00000013	addi	x0,x0,0	  x0:0x00000000
       37315000	      3730	80003574	00391863	bne	x18,x3,80003584	 x18:0x80009ec0  x3:0x00000002
       37325000	      3731	00000000	00000013	addi	x0,x0,0	  x0:0x00000000
       37335000	      3732	80003580	00000013	addi	x0,x0,0	  x0:0x00000000
       37345000	      3733	80003584	01a869b3	or	x19,x16,x26	 x16:0x00000000 x26:0x0df44bad x19=0x0df44bad
       37355000	      3734	80003588	41050033	sub	x0,x10,x16	 x10:0x80009fc4 x16:0x00000000
       37365000	      3735	8000358c	40bdd393	srai	x7,x27,0xb	 x27:0x00000000  x7=0x00000000
       37375000	      3736	80003590	00492403	lw	x8,4(x18)	 x18:0x80009ec0  x8=0x8000322c PA:0x80009ec4
       37385000	      3737	80003594	00ae4d33	xor	x26,x28,x10	 x28:0xefa2fdaf x10:0x80009fc4 x26=0x6fa2626b
       37395000	      3738	80003598	715e7c13	andi	x24,x28,1813	 x28:0xefa2fdaf x24=0x00000505
       37405000	      3739	8000359c	003518b3	sll	x17,x10,x3	 x10:0x80009fc4  x3:0x00000002 x17=0x00027f10
       37415000	      3740	800035a0	03090913	addi	x18,x18,48	 x18:0x80009ec0 x18=0x80009ef0
       37425000	      3741	800035a4	011b3633	sltu	x12,x22,x17	 x22:0x00000001 x17:0x00027f10 x12=0x00000001
       37435000	      3742	800035a8	40340a93	addi	x21,x8,1027	  x8:0x8000322c x21=0x8000362f
       37445000	      3743	800035ac	15d46313	ori	x6,x8,349	  x8:0x8000322c  x6=0x8000337d
       37455000	      3744	800035b0	00040713	addi	x14,x8,0	  x8:0x8000322c x14=0x8000322c
       37465000	      3745	800035b4	00070767	jalr	x14,x14,0	 x14:0x8000322c x14=0x800035b4
       37475000	      3746	00000000	00000013	addi	x0,x0,0	  x0:0x00000000
       37485000	      3747	8000322c	00000013	addi	x0,x0,0	  x0:0x00000000
       37495000	      3748	80003230	9e36fbb7	lui	x23,0x9e36f	 x23=0x9e36f000
       37505000	      3749	80003234	3fc10f97	auipc	x31,0x3fc10	 x31=0xbfc13230
       37515000	      3750	80003238	dc675a17	auipc	x20,0xdc675	 x20=0x5c678234
       37525000	      3751	8000323c	00822ab3	slt	x21,x4,x8	  x4:0x03d25720  x8:0x8000322c x21=0x00000000
       37535000	      3752	80003240	3fa1a113	slti	x2,x3,1018	  x3:0x00000002  x2=0x00000001
       37545000	      3753	80003244	013fae33	slt	x28,x31,x19	 x31:0xbfc13230 x19:0x0df44bad x28=0x00000001
       37555000	      3754	80003248	01673733	sltu	x14,x14,x22	 x14:0x800035b4 x22:0x00000001 x14=0x00000000
       37565000	      3755	8000324c	1e80046f	jal	x8,8000324c	  x8=0x8000324c
       37575000	      3756	00000000	00000013	addi	x0,x0,0	  x0:0x00000000
       37585000	      3757	80003430	00000013	addi	x0,x0,0	  x0:0x00000000
       37595000	      3758	80003434	41c45993	srai	x19,x8,0x1c	  x8:0x8000324c x19=0xfffffff8
       37605000	      3759	80003438	008713b3	sll	x7,x14,x8	 x14:0x00000000  x8:0x8000324c  x7=0x00000000
       37615000	      3760	8000343c	001bf263	bgeu	x23,x1,80003440	 x23:0x9e36f000  x1:0x92bfd628
       37625000	      3761	00000000	00000013	addi	x0,x0,0	  x0:0x00000000
       37635000	      3762	8000343c	00000013	addi	x0,x0,0	  x0:0x00000000
       37645000	      3763	80003440	fdc90913	addi	x18,x18,-36	 x18:0x80009ef0 x18=0x80009ecc
       37655000	      3764	80003444	b2a80c93	addi	x25,x16,-1238	 x16:0x00000000 x25=0xfffffb2a
       37665000	      3765	80003448	00892223	sw	x8,4(x18)	 x18:0x80009ecc  x8:0x8000324c PA:0x80009ed0
       37675000	      3766	8000344c	a3b0ce93	xori	x29,x1,-1477	  x1:0x92bfd628 x29=0x6d402c13
       37685000	      3767	80003450	0187ecb3	or	x25,x15,x24	 x15:0x00000000 x24:0x00000505 x25=0x00000505
       37695000	      3768	80003454	ffffdd17	auipc	x26,0xffffd	 x26=0x80000450
       37705000	      3769	80003458	e90d0d13	addi	x26,x26,-368	 x26:0x80000450 x26=0x800002e0
       37715000	      3770	8000345c	9b4e4a13	xori	x20,x28,-1612	 x28:0x00000001 x20=0xfffff9b5
       37725000	      3771	80003460	bc493e13	sltiu	x28,x18,-1084	 x18:0x80009ecc x28=0x00000001
       37735000	      3772	80003464	2c7d0d13	addi	x26,x26,711	 x26:0x800002e0 x26=0x800005a7
       37745000	      3773	80003468	0077dfb3	srl	x31,x15,x7	 x15:0x00000000  x7:0x00000000 x31=0x00000000
       37755000	      3774	8000346c	40c50e33	sub	x28,x10,x12	 x10:0x80009fc4 x12:0x00000001 x28=0x80009fc3
       37765000	      3775	80003470	00268663	beq	x13,x2,8000347c	 x13:0x0df448cb  x2:0x00000001
       37775000	      3776	80003474	018438b3	sltu	x17,x8,x24	  x8:0x8000324c x24:0x00000505 x17=0x00000000
       37785000	      3777	80003478	01a5a1b3	slt	x3,x11,x26	 x11:0x80003535 x26:0x800005a7  x3=0x00000000
       37795000	      3778	8000347c	d3ad0467	jalr	x8,x26,-710	 x26:0x800005a7  x8=0x8000347c
       37805000	      3779	00000000	00000013	addi	x0,x0,0	  x0:0x00000000
       37815000	      3780	800002e0	00000013	addi	x0,x0,0	  x0:0x00000000
       37825000	      3781	800002e4	0183c133	xor	x2,x7,x24	  x7:0x00000000 x24:0x00000505  x2=0x00000505
       37835000	      3782	800002e8	28b07893	andi	x17,x0,651	  x0:0x00000000 x17=0x00000000
       37845000	      3783	800002ec	85b6b597	auipc	x11,0x85b6b	 x11=0x05b6b2e8
       37855000	      3784	800002f0	ff090913	addi	x18,x18,-16	 x18:0x80009ecc x18=0x80009ebc
       37865000	      3785	800002f4	00892223	sw	x8,4(x18)	 x18:0x80009ebc  x8:0x8000347c PA:0x80009ec0
       37875000	      3786	800002f8	006e0833	add	x16,x28,x6	 x28:0x80009fc3  x6:0x8000337d x16=0x0000d340
       37885000	      3787	800002fc	00000013	addi	x0,x0,0	  x0:0x00000000
       37895000	      3788	80000300	00008897	auipc	x17,0x8	 x17=0x800082fc
       37905000	      3789	80000304	6f288893	addi	x17,x17,1778	 x17:0x800082fc x17=0x800089ee
       37915000	      3790	80000308	a0700317	auipc	x6,0xa0700	  x6=0x20700304
       37925000	      3791	8000030c	5d4887a3	sb	x20,1487(x17)	 x17:0x800089ee x20:0xfffff9b5 PA:0x80008fbd
       37935000	      3792	80000310	18d8ca03	lbu	x20,397(x17)	 x17:0x800089ee x20=0x00000060 PA:0x80008b7b
       37945000	      3793	80000314	23889023	sh	x24,544(x17)	 x17:0x800089ee x24:0x00000505 PA:0x80008c0e
       37955000	      3794	80000318	25f8c983	lbu	x19,607(x17)	 x17:0x800089ee x19=0x00000036 PA:0x80008c4d
       37965000	      3795	8000031c	3b78a123	sw	x23,930(x17)	 x17:0x800089ee x23:0x9e36f000 PA:0x80008d90
       37975000	      3796	80000320	00c30eb3	add	x29,x6,x12	  x6:0x20700304 x12:0x00000001 x29=0x20700305
       37985000	      3797	80000324	f758c003	lbu	x0,-139(x17)	 x17:0x800089ee PA:0x80008963
       37995000	      3798	80000328	b596f613	andi	x12,x13,-1191	 x13:0x0df448cb x12=0x0df44849
       38005000	      3799	8000032c	0208c603	lbu	x12,32(x17)	 x17:0x800089ee x12=0x000000f5 PA:0x80008a0e
       38015000	      3800	80000330	4a08db83	lhu	x23,1184(x17)	 x17:0x800089ee x23=0x00000000 PA:0x80008e8e
       38025000	      3801	80000334	34a88723	sb	x10,846(x17)	 x17:0x800089ee x10:0x80009fc4 PA:0x80008d3c
       38035000	      3802	80000338	00beb733	sltu	x14,x29,x11	 x29:0x20700305 x11:0x05b6b2e8 x14=0x00000000
       38045000	      3803	8000033c	849cfc93	andi	x25,x25,-1975	 x25:0x00000505 x25=0x00000001
       38055000	      3804	80000340	18589223	sh	x5,388(x17)	 x17:0x800089ee  x5:0x00000000 PA:0x80008b72
       38065000	      3805	80000344	1c7d8d13	addi	x26,x27,455	 x27:0x00000000 x26=0x000001c7
       38075000	      3806	80000348	11c88ba3	sb	x28,279(x17)	 x17:0x800089ee x28:0x80009fc3 PA:0x80008b05
       38085000	      3807	8000034c	00000013	addi	x0,x0,0	  x0:0x00000000
       38095000	      3808	80000350	010f2e33	slt	x28,x30,x16	 x30:0x00000002 x16:0x0000d340 x28=0x00000001
       38105000	      3809	80000354	4a7846b7	lui	x13,0x4a784	 x13=0x4a784000
       38115000	      3810	80000358	b198c613	xori	x12,x17,-1255	 x17:0x800089ee x12=0x7fff72f7
       38125000	      3811	8000035c	5671b593	sltiu	x11,x3,1383	  x3:0x00000000 x11=0x00000001
       38135000	      3812	80000360	ed78c703	lbu	x14,-297(x17)	 x17:0x800089ee x14=0x000000ae PA:0x800088c5
       38145000	      3813	80000364	227d8493	addi	x9,x27,551	 x27:0x00000000  x9=0x00000227
       38155000	      3814	80000368	01c344b3	xor	x9,x6,x28	  x6:0x20700304 x28:0x00000001  x9=0x20700305
       38165000	      3815	8000036c	00000013	addi	x0,x0,0	  x0:0x00000000
       38175000	      3816	80000370	01fd9313	slli	x6,x27,0x1f	 x27:0x00000000  x6=0x00000000
       38185000	      3817	80000374	01ba6d33	or	x26,x20,x27	 x20:0x00000060 x27:0x00000000 x26=0x00000060
       38195000	      3818	80000378	17188703	lb	x14,369(x17)	 x17:0x800089ee x14=0x00000044 PA:0x80008b5f
       38205000	      3819	8000037c	4c68a723	sw	x6,1230(x17)	 x17:0x800089ee  x6:0x00000000 PA:0x80008ebc
       38215000	      3820	80000380	5ee8c283	lbu	x5,1518(x17)	 x17:0x800089ee  x5=0x000000c7 PA:0x80008fdc
       38225000	      3821	80000384	2948c383	lbu	x7,660(x17)	 x17:0x800089ee  x7=0x00000069 PA:0x80008c82
       38235000	      3822	80000388	0c388323	sb	x3,198(x17)	 x17:0x800089ee  x3:0x00000000 PA:0x80008ab4
       38245000	      3823	8000038c	01185a13	srli	x20,x16,0x11	 x16:0x0000d340 x20=0x00000000
       38255000	      3824	80000390	33d88f03	lb	x30,829(x17)	 x17:0x800089ee x30=0x00000010 PA:0x80008d2b
       38265000	      3825	80000394	15b0b393	sltiu	x7,x1,347	  x1:0x92bfd628  x7=0x00000000
       38275000	      3826	80000398	c7506797	auipc	x15,0xc7506	 x15=0x47506394
       38285000	      3827	8000039c	419882a3	sb	x25,1029(x17)	 x17:0x800089ee x25:0x00000001 PA:0x80008df3
       38295000	      3828	800003a0	0185cf33	xor	x30,x11,x24	 x11:0x00000001 x24:0x00000505 x30=0x00000504
       38305000	      3829	800003a4	03a88fa3	sb	x26,63(x17)	 x17:0x800089ee x26:0x00000060 PA:0x80008a2d
       38315000	      3830	800003a8	250a2293	slti	x5,x20,592	 x20:0x00000000  x5=0x00000001
       38325000	      3831	800003ac	25889c83	lh	x25,600(x17)	 x17:0x800089ee x25=0x0000322d PA:0x80008c46
       38335000	      3832	800003b0	3308dd03	lhu	x26,816(x17)	 x17:0x800089ee x26=0x00000405 PA:0x80008d1e
       38345000	      3833	800003b4	01508133	add	x2,x1,x21	  x1:0x92bfd628 x21:0x00000000  x2=0x92bfd628
       38355000	      3834	800003b8	ca2a3c93	sltiu	x25,x20,-862	 x20:0x00000000 x25=0x00000001
       38365000	      3835	800003bc	40f20c33	sub	x24,x4,x15	  x4:0x03d25720 x15:0x47506394 x24=0xbc81f38c
       38375000	      3836	800003c0	00000013	addi	x0,x0,0	  x0:0x00000000
       38385000	      3837	800003c4	5bb8c583	lbu	x11,1467(x17)	 x17:0x800089ee x11=0x00000092 PA:0x80008fa9
       38395000	      3838	800003c8	01da5433	srl	x8,x20,x29	 x20:0x00000000 x29:0x20700305  x8=0x00000000
       38405000	      3839	800003cc	00ceda13	srli	x20,x29,0xc	 x29:0x20700305 x20=0x00020700
       38415000	      3840	800003d0	49489823	sh	x20,1168(x17)	 x17:0x800089ee x20:0x00020700 PA:0x80008e7e
       38425000	      3841	800003d4	004b2133	slt	x2,x22,x4	 x22:0x00000001  x4:0x03d25720  x2=0x00000001
       38435000	      3842	800003d8	39a88f03	lb	x30,922(x17)	 x17:0x800089ee x30=0x00000073 PA:0x80008d88
       38445000	      3843	800003dc	00008117	auipc	x2,0x8	  x2=0x800083d8
       38455000	      3844	800003e0	17810113	addi	x2,x2,376	  x2:0x800083d8  x2=0x80008550
       38465000	      3845	800003e4	8073cb13	xori	x22,x7,-2041	  x7:0x00000000 x22=0xfffff807
       38475000	      3846	800003e8	08511323	sh	x5,134(x2)	  x2:0x80008550  x5:0x00000001 PA:0x800085d6
       38485000	      3847	800003ec	fc014083	lbu	x1,-64(x2)	  x2:0x80008550  x1=0x000000cb PA:0x80008510
       38495000	      3848	00000000	00000013	addi	x0,x0,0	  x0:0x00000000
       38505000	      3849	800003f0	00198bb3	add	x23,x19,x1	 x19:0x00000036  x1:0x000000cb x23=0x00000101
       38515000	      3850	800003f4	00610fb3	add	x31,x2,x6	  x2:0x80008550  x6:0x00000000 x31=0x80008550
       38525000	      3851	800003f8	7f083a13	sltiu	x20,x16,2032	 x16:0x0000d340 x20=0x00000000
       38535000	      3852	800003fc	622f7013	andi	x0,x30,1570	 x30:0x00000073
       38545000	      3853	80000400	74bf6413	ori	x8,x30,1867	 x30:0x00000073  x8=0x0000077b
       38555000	      3854	80000404	00ac8433	add	x8,x25,x10	 x25:0x00000001 x10:0x80009fc4  x8=0x80009fc5
       38565000	      3855	80000408	f7814303	lbu	x6,-136(x2)	  x2:0x80008550  x6=0x00000083 PA:0x800084c8
       38575000	      3856	8000040c	002591b3	sll	x3,x11,x2	 x11:0x00000092  x2:0x80008550  x3=0x00920000
       38585000	      3857	80000410	001ea733	slt	x14,x29,x1	 x29:0x20700305  x1:0x000000cb x14=0x00000000
       38595000	      3858	80000414	41da55b3	sra	x11,x20,x29	 x20:0x00000000 x29:0x20700305 x11=0x00000000
       38605000	      3859	80000418	05211023	sh	x18,64(x2)	  x2:0x80008550 x18:0x80009ebc PA:0x80008590
       38615000	      3860	8000041c	f3a11e83	lh	x29,-198(x2)	  x2:0x80008550 x29=0x00004041 PA:0x8000848a
       38625000	      3861	80000420	00ee5a13	srli	x20,x28,0xe	 x28:0x00000001 x20=0x00000000
       38635000	      3862	80000424	41f9dd13	srai	x26,x19,0x1f	 x19:0x00000036 x26=0x00000000
       38645000	      3863	80000428	00f6b633	sltu	x12,x13,x15	 x13:0x4a784000 x15:0x47506394 x12=0x00000000
       38655000	      3864	8000042c	f2910603	lb	x12,-215(x2)	  x2:0x80008550 x12=0x00000032 PA:0x80008479
       38665000	      3865	80000430	00479a33	sll	x20,x15,x4	 x15:0x47506394  x4:0x03d25720 x20=0x47506394
       38675000	      3866	80000434	00938bb3	add	x23,x7,x9	  x7:0x00000000  x9:0x20700305 x23=0x20700305
       38685000	      3867	80000438	57957093	andi	x1,x10,1401	 x10:0x80009fc4  x1=0x00000540
       38695000	      3868	8000043c	f2c67a93	andi	x21,x12,-212	 x12:0x00000032 x21=0x00000020
       38705000	      3869	80000440	fcb14183	lbu	x3,-53(x2)	  x2:0x80008550  x3=0x000000d0 PA:0x8000851b
       38715000	      3870	80000444	0142c233	xor	x4,x5,x20	  x5:0x00000001 x20:0x47506394  x4=0x47506395
       38725000	      3871	80000448	ffe10223	sb	x30,-28(x2)	  x2:0x80008550 x30:0x00000073 PA:0x80008534
       38735000	      3872	8000044c	d0454e13	xori	x28,x10,-764	 x10:0x80009fc4 x28=0x7fff62c0
       38745000	      3873	80000450	f9d14883	lbu	x17,-99(x2)	  x2:0x80008550 x17=0x000000a6 PA:0x800084ed
       38755000	      3874	80000454	07d10b03	lb	x22,125(x2)	  x2:0x80008550 x22=0xffffff86 PA:0x800085cd
       38765000	      3875	80000458	0c510983	lb	x19,197(x2)	  x2:0x80008550 x19=0xffffffce PA:0x80008615
       38775000	      3876	8000045c	09e12e23	sw	x30,156(x2)	  x2:0x80008550 x30:0x00000073 PA:0x800085ec
       38785000	      3877	80000460	f7f14d03	lbu	x26,-129(x2)	  x2:0x80008550 x26=0x00000084 PA:0x800084cf
       38795000	      3878	80000464	04714b83	lbu	x23,71(x2)	  x2:0x80008550 x23=0x0000004c PA:0x80008597
       38805000	      3879	80000468	0bb106a3	sb	x27,173(x2)	  x2:0x80008550 x27:0x00000000 PA:0x800085fd
       38815000	      3880	8000046c	ff910a03	lb	x20,-7(x2)	  x2:0x80008550 x20=0x00000002 PA:0x80008549
       38825000	      3881	80000470	c7f10713	addi	x14,x2,-897	  x2:0x80008550 x14=0x800081cf
       38835000	      3882	80000474	00000013	addi	x0,x0,0	  x0:0x00000000
       38845000	      3883	80000478	08110d23	sb	x1,154(x2)	  x2:0x80008550  x1:0x00000540 PA:0x800085ea
       38855000	      3884	8000047c	062101a3	sb	x2,99(x2)	  x2:0x80008550  x2:0x80008550 PA:0x800085b3
       38865000	      3885	80000480	40615bb3	sra	x23,x2,x6	  x2:0x80008550  x6:0x00000083 x23=0xf00010aa
       38875000	      3886	80000484	f2415283	lhu	x5,-220(x2)	  x2:0x80008550  x5=0x00002e2f PA:0x80008474
       38885000	      3887	80000488	5dbb2f13	slti	x30,x22,1499	 x22:0xffffff86 x30=0x00000001
       38895000	      3888	8000048c	01d10a03	lb	x20,29(x2)	  x2:0x80008550 x20=0x00000026 PA:0x8000856d
       38905000	      3889	80000490	fe815383	lhu	x7,-24(x2)	  x2:0x80008550  x7=0x0000f2f3 PA:0x80008538
       38915000	      3890	80000494	40d502b3	sub	x5,x10,x13	 x10:0x80009fc4 x13:0x4a784000  x5=0x35885fc4
       38925000	      3891	80000498	009a68b3	or	x17,x20,x9	 x20:0x00000026  x9:0x20700305 x17=0x20700327
       38935000	      3892	8000049c	f0810323	sb	x8,-250(x2)	  x2:0x80008550  x8:0x80009fc5 PA:0x80008456
       38945000	      3893	800004a0	0b211a83	lh	x21,178(x2)	  x2:0x80008550 x21=0xffffb8b9 PA:0x80008602
       38955000	      3894	800004a4	0ee11923	sh	x14,242(x2)	  x2:0x80008550 x14:0x800081cf PA:0x80008642
       38965000	      3895	800004a8	00008e17	auipc	x28,0x8	 x28=0x800084a4
       38975000	      3896	800004ac	1bce0e13	addi	x28,x28,444	 x28:0x800084a4 x28=0x80008660
       38985000	      3897	800004b0	edce2a23	sw	x28,-300(x28)	 x28:0x80008660 x28:0x80008660 PA:0x80008534
       38995000	      3898	800004b4	00000013	addi	x0,x0,0	  x0:0x00000000
       39005000	      3899	800004b8	f9be0383	lb	x7,-101(x28)	 x28:0x80008660  x7=0xffffffb0 PA:0x800085fb
       39015000	      3900	800004bc	b7ce0f23	sb	x28,-1154(x28)	 x28:0x80008660 x28:0x80008660 PA:0x800081de
       39025000	      3901	800004c0	01091413	slli	x8,x18,0x10	 x18:0x80009ebc  x8=0x9ebc0000
       39035000	      3902	800004c4	f81e4483	lbu	x9,-127(x28)	 x28:0x80008660  x9=0x0000009a PA:0x800085e1
       39045000	      3903	800004c8	120e4583	lbu	x11,288(x28)	 x28:0x80008660 x11=0x0000003b PA:0x80008780
       39055000	      3904	800004cc	00685613	srli	x12,x16,0x6	 x16:0x0000d340 x12=0x0000034d
       39065000	      3905	800004d0	fbfe0603	lb	x12,-65(x28)	 x28:0x80008660 x12=0xffffffd4 PA:0x8000861f
       39075000	      3906	800004d4	2e8e0113	addi	x2,x28,744	 x28:0x80008660  x2=0x80008948
       39085000	      3907	800004d8	f7ee4183	lbu	x3,-130(x28)	 x28:0x80008660  x3=0x00000095 PA:0x800085de
       39095000	      3908	800004dc	e2de4b83	lbu	x23,-467(x28)	 x28:0x80008660 x23=0x00000046 PA:0x8000848d
       39105000	      3909	800004e0	f3ae0603	lb	x12,-198(x28)	 x28:0x80008660 x12=0x00000051 PA:0x8000859a
       39115000	      3910	800004e4	00000013	addi	x0,x0,0	  x0:0x00000000
       39125000	      3911	800004e8	4028d633	sra	x12,x17,x2	 x17:0x20700327  x2:0x80008948 x12=0x00207003
       39135000	      3912	800004ec	400557b3	sra	x15,x10,x0	 x10:0x80009fc4  x0:0x00000000 x15=0x80009fc4
       39145000	      3913	800004f0	efae0ba3	sb	x26,-265(x28)	 x28:0x80008660 x26:0x00000084 PA:0x80008557
       39155000	      3914	800004f4	c7ae5303	lhu	x6,-902(x28)	 x28:0x80008660  x6=0x00009091 PA:0x800082da
       39165000	      3915	800004f8	0c8e0803	lb	x16,200(x28)	 x28:0x80008660 x16=0xffffffe3 PA:0x80008728
       39175000	      3916	800004fc	acbe0003	lb	x0,-1333(x28)	 x28:0x80008660 PA:0x8000812b
       39185000	      3917	80000500	005a66b3	or	x13,x20,x5	 x20:0x00000026  x5:0x35885fc4 x13=0x35885fe6
       39195000	      3918	80000504	5ea57613	andi	x12,x10,1514	 x10:0x80009fc4 x12=0x000005c0
       39205000	      3919	80000508	005b8133	add	x2,x23,x5	 x23:0x00000046  x5:0x35885fc4  x2=0x3588600a
       39215000	      3920	8000050c	d00e5683	lhu	x13,-768(x28)	 x28:0x80008660 x13=0x00001a1b PA:0x80008360
       39225000	      3921	80000510	0d6e1d37	lui	x26,0xd6e1	 x26=0x0d6e1000
       39235000	      3922	80000514	10fe0c83	lb	x25,271(x28)	 x28:0x80008660 x25=0x00000024 PA:0x8000876f
       39245000	      3923	80000518	00bfd493	srli	x9,x31,0xb	 x31:0x80008550  x9=0x00100010
       39255000	      3924	8000051c	9c9e2797	auipc	x15,0x9c9e2	 x15=0x1c9e2518
       39265000	      3925	80000520	ef8e2783	lw	x15,-264(x28)	 x28:0x80008660 x15=0x10111213 PA:0x80008558
       39275000	      3926	80000524	d11e09a3	sb	x17,-749(x28)	 x28:0x80008660 x17:0x20700327 PA:0x80008373
       39285000	      3927	80000528	734eeb93	ori	x23,x29,1844	 x29:0x00004041 x23=0x00004775
       39295000	      3928	8000052c	ed6e4183	lbu	x3,-298(x28)	 x28:0x80008660  x3=0x00000000 PA:0x80008536
       39305000	      3929	80000530	4bf2ca13	xori	x20,x5,1215	  x5:0x35885fc4 x20=0x35885b7b
       39315000	      3930	80000534	be7e06a3	sb	x7,-1043(x28)	 x28:0x80008660  x7:0xffffffb0 PA:0x8000824d
       39325000	      3931	80000538	de4e0ea3	sb	x4,-515(x28)	 x28:0x80008660  x4:0x47506395 PA:0x8000845d
       39335000	      3932	8000053c	01585433	srl	x8,x16,x21	 x16:0xffffffe3 x21:0xffffb8b9  x8=0x0000007f
       39345000	      3933	80000540	f13e0f23	sb	x19,-226(x28)	 x28:0x80008660 x19:0xffffffce PA:0x8000857e
       39355000	      3934	80000544	00008417	auipc	x8,0x8	  x8=0x80008540
       39365000	      3935	80000548	d0440413	addi	x8,x8,-764	  x8:0x80008540  x8=0x80008244
       39375000	      3936	8000054c	00ac79b3	and	x19,x24,x10	 x24:0xbc81f38c x10:0x80009fc4 x19=0x80009384
       39385000	      3937	80000550	4ba45e03	lhu	x28,1210(x8)	  x8:0x80008244 x28=0x0000b4b5 PA:0x800086fe
       39395000	      3938	80000554	95532113	slti	x2,x6,-1707	  x6:0x00009091  x2=0x00000000
       39405000	      3939	80000558	00859093	slli	x1,x11,0x8	 x11:0x0000003b  x1=0x00003b00
       39415000	      3940	8000055c	40841383	lh	x7,1032(x8)	  x8:0x80008244  x7=0x00000607 PA:0x8000864c
       39425000	      3941	80000560	f2c44383	lbu	x7,-212(x8)	  x8:0x80008244  x7=0x0000002b PA:0x80008170
       39435000	      3942	80000564	13e40fa3	sb	x30,319(x8)	  x8:0x80008244 x30:0x00000001 PA:0x80008383
       39445000	      3943	80000568	cda08a13	addi	x20,x1,-806	  x1:0x00003b00 x20=0x000037da
       39455000	      3944	8000056c	2ac41b23	sh	x12,694(x8)	  x8:0x80008244 x12:0x000005c0 PA:0x800084fa
       39465000	      3945	80000570	0fb4ca13	xori	x20,x9,251	  x9:0x00100010 x20=0x001000eb
       39475000	      3946	80000574	efd41f23	sh	x29,-258(x8)	  x8:0x80008244 x29:0x00004041 PA:0x80008142
       39485000	      3947	80000578	0e440483	lb	x9,228(x8)	  x8:0x80008244  x9=0xffffffe3 PA:0x80008328
       39495000	      3948	8000057c	6846ec93	ori	x25,x13,1668	 x13:0x00001a1b x25=0x00001e9f
       39505000	      3949	80000580	fd440623	sb	x20,-52(x8)	  x8:0x80008244 x20:0x001000eb PA:0x80008210
       39515000	      3950	80000584	00b1e0b3	or	x1,x3,x11	  x3:0x00000000 x11:0x0000003b  x1=0x0000003b
       39525000	      3951	80000588	01b45b33	srl	x22,x8,x27	  x8:0x80008244 x27:0x00000000 x22=0x80008244
       39535000	      3952	8000058c	f5344603	lbu	x12,-173(x8)	  x8:0x80008244 x12=0x0000004c PA:0x80008197
       39545000	      3953	80000590	00000013	addi	x0,x0,0	  x0:0x00000000
       39555000	      3954	80000594	34845783	lhu	x15,840(x8)	  x8:0x80008244 x15=0x00004647 PA:0x8000858c
       39565000	      3955	80000598	43a40323	sb	x26,1062(x8)	  x8:0x80008244 x26:0x0d6e1000 PA:0x8000866a
       39575000	      3956	8000059c	00355633	srl	x12,x10,x3	 x10:0x80009fc4  x3:0x00000000 x12=0x80009fc4
       39585000	      3957	800005a0	00432033	slt	x0,x6,x4	  x6:0x00009091  x4:0x47506395
       39595000	      3958	800005a4	29f40183	lb	x3,671(x8)	  x8:0x80008244  x3=0xfffffffb PA:0x800084e3
       39605000	      3959	800005a8	c4ffc393	xori	x7,x31,-945	 x31:0x80008550  x7=0x7fff791f
       39615000	      3960	800005ac	0d042583	lw	x11,208(x8)	  x8:0x80008244 x11=0xcccdcecf PA:0x80008314
       39625000	      3961	800005b0	00fec833	xor	x16,x29,x15	 x29:0x00004041 x15:0x00004647 x16=0x00000606
       39635000	      3962	800005b4	45540a23	sb	x21,1108(x8)	  x8:0x80008244 x21:0xffffb8b9 PA:0x80008698
       39645000	      3963	800005b8	00009a17	auipc	x20,0x9	 x20=0x800095b4
       39655000	      3964	800005bc	a25a0a13	addi	x20,x20,-1499	 x20:0x800095b4 x20=0x80008fd9
       39665000	      3965	800005c0	01a666b3	or	x13,x12,x26	 x12:0x80009fc4 x26:0x0d6e1000 x13=0x8d6e9fc4
       39675000	      3966	800005c4	00cfc333	xor	x6,x31,x12	 x31:0x80008550 x12:0x80009fc4  x6=0x00001a94
       39685000	      3967	800005c8	fd8a0223	sb	x24,-60(x20)	 x20:0x80008fd9 x24:0xbc81f38c PA:0x80008f9d
       39695000	      3968	800005cc	fc7a0a23	sb	x7,-44(x20)	 x20:0x80008fd9  x7:0x7fff791f PA:0x80008fad
       39705000	      3969	800005d0	00877e33	and	x28,x14,x8	 x14:0x800081cf  x8:0x80008244 x28=0x80008044
       39715000	      3970	800005d4	01e328b3	slt	x17,x6,x30	  x6:0x00001a94 x30:0x00000001 x17=0x00000000
       39725000	      3971	800005d8	ffea0c23	sb	x30,-8(x20)	 x20:0x80008fd9 x30:0x00000001 PA:0x80008fd1
       39735000	      3972	800005dc	8714e493	ori	x9,x9,-1935	  x9:0xffffffe3  x9=0xfffffff3
       39745000	      3973	800005e0	f95a0d03	lb	x26,-107(x20)	 x20:0x80008fd9 x26=0x00000055 PA:0x80008f6e
       39755000	      3974	800005e4	f83a5403	lhu	x8,-125(x20)	 x20:0x80008fd9  x8=0x00004647 PA:0x80008f5c
       39765000	      3975	800005e8	41e95393	srai	x7,x18,0x1e	 x18:0x80009ebc  x7=0xfffffffe
       39775000	      3976	800005ec	fe2a0003	lb	x0,-30(x20)	 x20:0x80008fd9 PA:0x80008fbb
       39785000	      3977	800005f0	3e198e13	addi	x28,x19,993	 x19:0x80009384 x28=0x80009765
       39795000	      3978	800005f4	01955233	srl	x4,x10,x25	 x10:0x80009fc4 x25:0x00001e9f  x4=0x00000001
       39805000	      3979	800005f8	9f1fa213	slti	x4,x31,-1551	 x31:0x80008550  x4=0x00000001
       39815000	      3980	800005fc	00eead33	slt	x26,x29,x14	 x29:0x00004041 x14:0x800081cf x26=0x00000000
       39825000	      3981	80000600	12f9bb93	sltiu	x23,x19,303	 x19:0x80009384 x23=0x00000000
       39835000	      3982	80000604	f9da0483	lb	x9,-99(x20)	 x20:0x80008fd9  x9=0x0000005d PA:0x80008f76
       39845000	      3983	80000608	f9c43c93	sltiu	x25,x8,-100	  x8:0x00004647 x25=0x00000001
       39855000	      3984	8000060c	01f15993	srli	x19,x2,0x1f	  x2:0x00000000 x19=0x00000000
       39865000	      3985	80000610	f42a4083	lbu	x1,-190(x20)	 x20:0x80008fd9  x1=0x00000000 PA:0x80008f1b
       39875000	      3986	80000614	f67a1203	lh	x4,-153(x20)	 x20:0x80008fd9  x4=0x00002a2b PA:0x80008f40
       39885000	      3987	80000618	f23a2303	lw	x6,-221(x20)	 x20:0x80008fd9  x6=0xe4e5e6e7 PA:0x80008efc
       39895000	      3988	8000061c	00ea0f83	lb	x31,14(x20)	 x20:0x80008fd9 x31=0xffffffcc PA:0x80008fe7
       39905000	      3989	80000620	f08a4283	lbu	x5,-248(x20)	 x20:0x80008fd9  x5=0x000000ca PA:0x80008ee1
       39915000	      3990	80000624	f96a0803	lb	x16,-106(x20)	 x20:0x80008fd9 x16=0x00000054 PA:0x80008f6f
       39925000	      3991	80000628	e382e313	ori	x6,x5,-456	  x5:0x000000ca  x6=0xfffffefa
       39935000	      3992	8000062c	f8ea1ba3	sh	x14,-105(x20)	 x20:0x80008fd9 x14:0x800081cf PA:0x80008f70
       39945000	      3993	80000630	fd4a0583	lb	x11,-44(x20)	 x20:0x80008fd9 x11=0x0000001f PA:0x80008fad
       39955000	      3994	80000634	017d80b3	add	x1,x27,x23	 x27:0x00000000 x23:0x00000000  x1=0x00000000
       39965000	      3995	80000638	006a4c83	lbu	x25,6(x20)	 x20:0x80008fd9 x25=0x000000c4 PA:0x80008fdf
       39975000	      3996	8000063c	f52a4383	lbu	x7,-174(x20)	 x20:0x80008fd9  x7=0x00000010 PA:0x80008f2b
       39985000	      3997	80000640	f94a4283	lbu	x5,-108(x20)	 x20:0x80008fd9  x5=0x00000056 PA:0x80008f6d
       39995000	      3998	80000644	faca4303	lbu	x6,-84(x20)	 x20:0x80008fd9  x6=0x0000006e PA:0x80008f85
       40005000	      3999	80000648	f88a0c03	lb	x24,-120(x20)	 x20:0x80008fd9 x24=0x0000004a PA:0x80008f61
       40015000	      4000	8000064c	a0f78f93	addi	x31,x15,-1521	 x15:0x00004647 x31=0x00004056
       40025000	      4001	80000650	000cbf33	sltu	x30,x25,x0	 x25:0x000000c4  x0:0x00000000 x30=0x00000000
       40035000	      4002	80000654	f83a0483	lb	x9,-125(x20)	 x20:0x80008fd9  x9=0x00000047 PA:0x80008f5c
       40045000	      4003	80000658	00009697	auipc	x13,0x9	 x13=0x80009654
       40055000	      4004	8000065c	8ec68693	addi	x13,x13,-1812	 x13:0x80009654 x13=0x80008f40
       40065000	      4005	80000660	008ec4b3	xor	x9,x29,x8	 x29:0x00004041  x8:0x00004647  x9=0x00000606
       40075000	      4006	80000664	4101df13	srai	x30,x3,0x10	  x3:0xfffffffb x30=0xffffffff
       40085000	      4007	80000668	fd269e83	lh	x29,-46(x13)	 x13:0x80008f40 x29=0xfffff8f9 PA:0x80008f12
       40095000	      4008	8000066c	006ba5b3	slt	x11,x23,x6	 x23:0x00000000  x6:0x0000006e x11=0x00000001
       40105000	      4009	80000670	fd3687a3	sb	x19,-49(x13)	 x13:0x80008f40 x19:0x00000000 PA:0x80008f0f
       40115000	      4010	80000674	5e98fe13	andi	x28,x17,1513	 x17:0x00000000 x28=0x00000000
       40125000	      4011	80000678	f3f684a3	sb	x31,-215(x13)	 x13:0x80008f40 x31:0x00004056 PA:0x80008e69
       40135000	      4012	8000067c	09269c03	lh	x24,146(x13)	 x13:0x80008f40 x24=0xffffb8b9 PA:0x80008fd2
       40145000	      4013	80000680	013f5c13	srli	x24,x30,0x13	 x30:0xffffffff x24=0x00001fff
       40155000	      4014	80000684	fe06cf03	lbu	x30,-32(x13)	 x13:0x80008f40 x30=0x0000000b PA:0x80008f20
       40165000	      4015	80000688	0121ac33	slt	x24,x3,x18	  x3:0xfffffffb x18:0x80009ebc x24=0x00000000
       40175000	      4016	8000068c	0f9ef597	auipc	x11,0xf9ef	 x11=0x8f9ef688
       40185000	      4017	80000690	f8268da3	sb	x2,-101(x13)	 x13:0x80008f40  x2:0x00000000 PA:0x80008edb
       40195000	      4018	80000694	f3469c03	lh	x24,-204(x13)	 x13:0x80008f40 x24=0x0000005f PA:0x80008e74
       40205000	      4019	80000698	f5d6c083	lbu	x1,-163(x13)	 x13:0x80008f40  x1=0x00000086 PA:0x80008e9d
       40215000	      4020	8000069c	fdf687a3	sb	x31,-49(x13)	 x13:0x80008f40 x31:0x00004056 PA:0x80008f0f
       40225000	      4021	800006a0	f046cf83	lbu	x31,-252(x13)	 x13:0x80008f40 x31=0x0000002f PA:0x80008e44
       40235000	      4022	800006a4	00a37e33	and	x28,x6,x10	  x6:0x0000006e x10:0x80009fc4 x28=0x00000044
       40245000	      4023	800006a8	01f6cd03	lbu	x26,31(x13)	 x13:0x80008f40 x26=0x00000044 PA:0x80008f5f
       40255000	      4024	800006ac	f2468103	lb	x2,-220(x13)	 x13:0x80008f40  x2=0x00000000 PA:0x80008e64
       40265000	      4025	800006b0	c0570413	addi	x8,x14,-1019	 x14:0x800081cf  x8=0x80007dd4
       40275000	      4026	800006b4	00000013	addi	x0,x0,0	  x0:0x00000000
       40285000	      4027	800006b8	f26ce793	ori	x15,x25,-218	 x25:0x000000c4 x15=0xffffffe6
       40295000	      4028	800006bc	f506a623	sw	x16,-180(x13)	 x13:0x80008f40 x16:0x00000054 PA:0x80008e8c
       40305000	      4029	800006c0	f296c703	lbu	x14,-215(x13)	 x13:0x80008f40 x14=0x00000056 PA:0x80008e69
       40315000	      4030	800006c4	f056c783	lbu	x15,-251(x13)	 x13:0x80008f40 x15=0x0000002e PA:0x80008e45
       40325000	      4031	800006c8	016cb3b3	sltu	x7,x25,x22	 x25:0x000000c4 x22:0x80008244  x7=0x00000001
       40335000	      4032	800006cc	fee6ac23	sw	x14,-8(x13)	 x13:0x80008f40 x14:0x00000056 PA:0x80008f38
       40345000	      4033	800006d0	f7868f03	lb	x30,-136(x13)	 x13:0x80008f40 x30=0xffffffa3 PA:0x80008eb8
       40355000	      4034	800006d4	f3b68aa3	sb	x27,-203(x13)	 x13:0x80008f40 x27:0x00000000 PA:0x80008e75
       40365000	      4035	800006d8	ccf44b93	xori	x23,x8,-817	  x8:0x80007dd4 x23=0x7fff811b
       40375000	      4036	800006dc	00864cb3	xor	x25,x12,x8	 x12:0x80009fc4  x8:0x80007dd4 x25=0x0000e210
       40385000	      4037	800006e0	06f68723	sb	x15,110(x13)	 x13:0x80008f40 x15:0x0000002e PA:0x80008fae
       40395000	      4038	800006e4	a636ca93	xori	x21,x13,-1437	 x13:0x80008f40 x21=0x7fff7523
       40405000	      4039	800006e8	f0768ea3	sb	x7,-227(x13)	 x13:0x80008f40  x7:0x00000001 PA:0x80008e5d
       40415000	      4040	800006ec	02568583	lb	x11,37(x13)	 x13:0x80008f40 x11=0x0000004e PA:0x80008f65
       40425000	      4041	800006f0	056685a3	sb	x22,75(x13)	 x13:0x80008f40 x22:0x80008244 PA:0x80008f8b
       40435000	      4042	800006f4	fd36a023	sw	x19,-64(x13)	 x13:0x80008f40 x19:0x00000000 PA:0x80008f00
       40445000	      4043	800006f8	feb68103	lb	x2,-21(x13)	 x13:0x80008f40  x2=0x00000010 PA:0x80008f2b
       40455000	      4044	800006fc	01e40333	add	x6,x8,x30	  x8:0x80007dd4 x30:0xffffffa3  x6=0x80007d77
       40465000	      4045	80000700	f7e68083	lb	x1,-130(x13)	 x13:0x80008f40  x1=0x00000000 PA:0x80008ebe
       40475000	      4046	00000000	00000013	addi	x0,x0,0	  x0:0x00000000
       40485000	      4047	80000704	00008117	auipc	x2,0x8	  x2=0x80008700
       40495000	      4048	80000708	42510113	addi	x2,x2,1061	  x2:0x80008700  x2=0x80008b25
       40505000	      4049	8000070c	f2514383	lbu	x7,-219(x2)	  x2:0x80008b25  x7=0x00000031 PA:0x80008a4a
       40515000	      4050	80000710	f0a10a83	lb	x21,-246(x2)	  x2:0x80008b25 x21=0x00000014 PA:0x80008a2f
       40525000	      4051	80000714	062116a3	sh	x2,109(x2)	  x2:0x80008b25  x2:0x80008b25 PA:0x80008b92
       40535000	      4052	80000718	f7010523	sb	x16,-150(x2)	  x2:0x80008b25 x16:0x00000054 PA:0x80008a8f
       40545000	      4053	8000071c	014a9013	slli	x0,x21,0x14	 x21:0x00000014
       40555000	      4054	80000720	5f1d1897	auipc	x17,0x5f1d1	 x17=0xdf1d171c
       40565000	      4055	80000724	f2910b03	lb	x22,-215(x2)	  x2:0x80008b25 x22=0x00000035 PA:0x80008a4e
       40575000	      4056	80000728	01e20333	add	x6,x4,x30	  x4:0x00002a2b x30:0xffffffa3  x6=0x000029ce
       40585000	      4057	8000072c	f6910ea3	sb	x9,-131(x2)	  x2:0x80008b25  x9:0x00000606 PA:0x80008aa2
       40595000	      4058	80000730	56298c13	addi	x24,x19,1378	 x19:0x00000000 x24=0x00000562
       40605000	      4059	80000734	0ae10f83	lb	x31,174(x2)	  x2:0x80008b25 x31=0xffffffb8 PA:0x80008bd3
       40615000	      4060	80000738	fac14303	lbu	x6,-84(x2)	  x2:0x80008b25  x6=0x000000ba PA:0x80008ad1
       40625000	      4061	8000073c	fc110b03	lb	x22,-63(x2)	  x2:0x80008b25 x22=0xffffffcd PA:0x80008ae6
       40635000	      4062	80000740	2da83cb7	lui	x25,0x2da83	 x25=0x2da83000
       40645000	      4063	80000744	003736b3	sltu	x13,x14,x3	 x14:0x00000056  x3:0xfffffffb x13=0x00000001
       40655000	      4064	80000748	e0226093	ori	x1,x4,-510	  x4:0x00002a2b  x1=0xfffffe2b
       40665000	      4065	8000074c	f0115a83	lhu	x21,-255(x2)	  x2:0x80008b25 x21=0x00000c0d PA:0x80008a26
       40675000	      4066	80000750	fc714183	lbu	x3,-57(x2)	  x2:0x80008b25  x3=0x000000d7 PA:0x80008aec
       40685000	      4067	80000754	041125a3	sw	x1,75(x2)	  x2:0x80008b25  x1:0xfffffe2b PA:0x80008b70
       40695000	      4068	80000758	4135db33	sra	x22,x11,x19	 x11:0x0000004e x19:0x00000000 x22=0x0000004e
       40705000	      4069	8000075c	05d10303	lb	x6,93(x2)	  x2:0x80008b25  x6=0x00000069 PA:0x80008b82
       40715000	      4070	80000760	06a112a3	sh	x10,101(x2)	  x2:0x80008b25 x10:0x80009fc4 PA:0x80008b8a
       40725000	      4071	80000764	40b5d413	srai	x8,x11,0xb	 x11:0x0000004e  x8=0x00000000
       40735000	      4072	80000768	0b914a83	lbu	x21,185(x2)	  x2:0x80008b25 x21=0x000000c5 PA:0x80008bde
       40745000	      4073	8000076c	0e410603	lb	x12,228(x2)	  x2:0x80008b25 x12=0xfffffff2 PA:0x80008c09
       40755000	      4074	80000770	040d6213	ori	x4,x26,64	 x26:0x00000044  x4=0x00000044
       40765000	      4075	80000774	0ea10fa3	sb	x10,255(x2)	  x2:0x80008b25 x10:0x80009fc4 PA:0x80008c24
       40775000	      4076	80000778	018bf4b3	and	x9,x23,x24	 x23:0x7fff811b x24:0x00000562  x9=0x00000102
       40785000	      4077	8000077c	02910203	lb	x4,41(x2)	  x2:0x80008b25  x4=0x00000035 PA:0x80008b4e
       40795000	      4078	80000780	a0193c93	sltiu	x25,x18,-1535	 x18:0x80009ebc x25=0x00000001
       40805000	      4079	80000784	0e515d03	lhu	x26,229(x2)	  x2:0x80008b25 x26=0x0000f0f1 PA:0x80008c0a
       40815000	      4080	80000788	f7510c23	sb	x21,-136(x2)	  x2:0x80008b25 x21:0x000000c5 PA:0x80008a9d
       40825000	      4081	8000078c	01214e03	lbu	x28,18(x2)	  x2:0x80008b25 x28=0x0000001c PA:0x80008b37
       40835000	      4082	80000790	f6214a83	lbu	x21,-158(x2)	  x2:0x80008b25 x21=0x00000000 PA:0x80008a87
       40845000	      4083	80000794	02f11b03	lh	x22,47(x2)	  x2:0x80008b25 x22=0x00003e3f PA:0x80008b54
       40855000	      4084	80000798	02814803	lbu	x16,40(x2)	  x2:0x80008b25 x16=0x00000036 PA:0x80008b4d
       40865000	      4085	8000079c	00008117	auipc	x2,0x8	  x2=0x80008798
       40875000	      4086	800007a0	38f10113	addi	x2,x2,911	  x2:0x80008798  x2=0x80008b27
       40885000	      4087	800007a4	37610703	lb	x14,886(x2)	  x2:0x80008b27 x14=0xffffff86 PA:0x80008e9d
       40895000	      4088	800007a8	2deeb893	sltiu	x17,x29,734	 x29:0xfffff8f9 x17=0x00000000
       40905000	      4089	800007ac	d2512783	lw	x15,-731(x2)	  x2:0x80008b27 x15=0x34353637 PA:0x8000884c
       40915000	      4090	800007b0	8b1db593	sltiu	x11,x27,-1871	 x27:0x00000000 x11=0x00000001
       40925000	      4091	800007b4	01749893	slli	x17,x9,0x17	  x9:0x00000102 x17=0x81000000
       40935000	      4092	800007b8	0005c6b3	xor	x13,x11,x0	 x11:0x00000001  x0:0x00000000 x13=0x00000001
       40945000	      4093	800007bc	01f28b33	add	x22,x5,x31	  x5:0x00000056 x31:0xffffffb8 x22=0x0000000e
       40955000	      4094	800007c0	00e98333	add	x6,x19,x14	 x19:0x00000000 x14:0xffffff86  x6=0xffffff86
       40965000	      4095	800007c4	00fd1e93	slli	x29,x26,0xf	 x26:0x0000f0f1 x29=0x78788000
       40975000	      4096	800007c8	f8914403	lbu	x8,-119(x2)	  x2:0x80008b27  x8=0x00000032 PA:0x80008ab0
       40985000	      4097	00000000	00000013	addi	x0,x0,0	  x0:0x00000000
       40995000	      4098	800007cc	3e810923	sb	x8,1010(x2)	  x2:0x80008b27  x8:0x00000032 PA:0x80008f19
       41005000	      4099	800007d0	0188f733	and	x14,x17,x24	 x17:0x81000000 x24:0x00000562 x14=0x00000000
       41015000	      4100	800007d4	8f679c37	lui	x24,0x8f679	 x24=0x8f679000
       41025000	      4101	800007d8	44b15d03	lhu	x26,1099(x2)	  x2:0x80008b27 x26=0x00005859 PA:0x80008f72
       41035000	      4102	800007dc	008b9f13	slli	x30,x23,0x8	 x23:0x7fff811b x30=0xff811b00
       41045000	      4103	800007e0	4192dd33	sra	x26,x5,x25	  x5:0x00000056 x25:0x00000001 x26=0x0000002b
       41055000	      4104	800007e4	00934bb3	xor	x23,x6,x9	  x6:0xffffff86  x9:0x00000102 x23=0xfffffe84
       41065000	      4105	800007e8	00000013	addi	x0,x0,0	  x0:0x00000000
       41075000	      4106	800007ec	b9bd2e13	slti	x28,x26,-1125	 x26:0x0000002b x28=0x00000000
       41085000	      4107	800007f0	12810023	sb	x8,288(x2)	  x2:0x80008b27  x8:0x00000032 PA:0x80008c47
       41095000	      4108	800007f4	00cdb6b3	sltu	x13,x27,x12	 x27:0x00000000 x12:0xfffffff2 x13=0x00000001
       41105000	      4109	800007f8	0cf10083	lb	x1,207(x2)	  x2:0x80008b27  x1=0xffffff9c PA:0x80008bf6
       41115000	      4110	800007fc	ddc14403	lbu	x8,-548(x2)	  x2:0x80008b27  x8=0x000000e8 PA:0x80008903
       41125000	      4111	80000800	004b9ab3	sll	x21,x23,x4	 x23:0xfffffe84  x4:0x00000035 x21=0xd0800000
       41135000	      4112	80000804	47414703	lbu	x14,1140(x2)	  x2:0x80008b27 x14=0x00000080 PA:0x80008f9b
       41145000	      4113	80000808	441102a3	sb	x1,1093(x2)	  x2:0x80008b27  x1:0xffffff9c PA:0x80008f6c
       41155000	      4114	8000080c	1b010403	lb	x8,432(x2)	  x2:0x80008b27  x8=0xffffffbc PA:0x80008cd7
       41165000	      4115	80000810	1d5102a3	sb	x21,453(x2)	  x2:0x80008b27 x21:0xd0800000 PA:0x80008cec
       41175000	      4116	80000814	31c14a83	lbu	x21,796(x2)	  x2:0x80008b27 x21=0x00000028 PA:0x80008e43
       41185000	      4117	80000818	00000013	addi	x0,x0,0	  x0:0x00000000
       41195000	      4118	8000081c	00d69d33	sll	x26,x13,x13	 x13:0x00000001 x13:0x00000001 x26=0x00000002
       41205000	      4119	80000820	9a758f93	addi	x31,x11,-1625	 x11:0x00000001 x31=0xfffff9a8
       41215000	      4120	80000824	41b05ab3	sra	x21,x0,x27	  x0:0x00000000 x27:0x00000000 x21=0x00000000
       41225000	      4121	80000828	0042f8b3	and	x17,x5,x4	  x5:0x00000056  x4:0x00000035 x17=0x00000014
       41235000	      4122	8000082c	eb912383	lw	x7,-327(x2)	  x2:0x80008b27  x7=0xc8c9cacb PA:0x800089e0
       41245000	      4123	80000830	f5311a83	lh	x21,-173(x2)	  x2:0x80008b27 x21=0x00006061 PA:0x80008a7a
       41255000	      4124	80000834	00d7dd13	srli	x26,x15,0xd	 x15:0x34353637 x26=0x0001a1a9
       41265000	      4125	80000838	5cf1c797	auipc	x15,0x5cf1c	 x15=0xdcf1c834
       41275000	      4126	8000083c	047ad063	bge	x21,x7,8000087c	 x21:0x00006061  x7:0xc8c9cacb
       41285000	      4127	00000000	00000013	addi	x0,x0,0	  x0:0x00000000
       41295000	      4128	80000878	00000013	addi	x0,x0,0	  x0:0x00000000
       41305000	      4129	8000087c	57206817	auipc	x16,0x57206	 x16=0xd7206878
       41315000	      4130	80000880	1130cd13	xori	x26,x1,275	  x1:0xffffff9c x26=0xfffffe8f
       41325000	      4131	80000884	90938013	addi	x0,x7,-1783	  x7:0xc8c9cacb
       41335000	      4132	80000888	323d3613	sltiu	x12,x26,803	 x26:0xfffffe8f x12=0x00000000
       41345000	      4133	8000088c	007b6ab3	or	x21,x22,x7	 x22:0x0000000e  x7:0xc8c9cacb x21=0xc8c9cacf
       41355000	      4134	80000890	edace197	auipc	x3,0xedace	  x3=0x6dace88c
       41365000	      4135	80000894	01fc4c63	blt	x24,x31,800008ac	 x24:0x8f679000 x31:0xfffff9a8
       41375000	      4136	00000000	00000013	addi	x0,x0,0	  x0:0x00000000
       41385000	      4137	800008a8	00000013	addi	x0,x0,0	  x0:0x00000000
       41395000	      4138	800008ac	019d93b3	sll	x7,x27,x25	 x27:0x00000000 x25:0x00000001  x7=0x00000000
       41405000	      4139	800008b0	c8c9e097	auipc	x1,0xc8c9e	  x1=0x48c9e8ac
       41415000	      4140	800008b4	41f38633	sub	x12,x7,x31	  x7:0x00000000 x31:0xfffff9a8 x12=0x00000658
       41425000	      4141	800008b8	0310cc63	blt	x1,x17,800008f0	  x1:0x48c9e8ac x17:0x00000014
       41435000	      4142	800008bc	02466e63	bltu	x12,x4,800008f8	 x12:0x00000658  x4:0x00000035
       41445000	      4143	800008c0	25fd8a93	addi	x21,x27,607	 x27:0x00000000 x21=0x0000025f
       41455000	      4144	800008c4	01f57b33	and	x22,x10,x31	 x10:0x80009fc4 x31:0xfffff9a8 x22=0x80009980
       41465000	      4145	800008c8	a25a8d13	addi	x26,x21,-1499	 x21:0x0000025f x26=0xfffffc84
       41475000	      4146	800008cc	95a83213	sltiu	x4,x16,-1702	 x16:0xd7206878  x4=0x00000001
       41485000	      4147	800008d0	043a0663	beq	x20,x3,8000091c	 x20:0x80008fd9  x3:0x6dace88c
       41495000	      4148	800008d4	0148b2b3	sltu	x5,x17,x20	 x17:0x00000014 x20:0x80008fd9  x5=0x00000001
       41505000	      4149	800008d8	16374b93	xori	x23,x14,355	 x14:0x00000080 x23=0x000001e3
       41515000	      4150	800008dc	b2546b93	ori	x23,x8,-1243	  x8:0xffffffbc x23=0xffffffbd
       41525000	      4151	800008e0	a967af13	slti	x30,x15,-1386	 x15:0xdcf1c834 x30=0x00000001
       41535000	      4152	800008e4	03aa7663	bgeu	x20,x26,80000910	 x20:0x80008fd9 x26:0xfffffc84
       41545000	      4153	800008e8	24356f93	ori	x31,x10,579	 x10:0x80009fc4 x31=0x80009fc7
       41555000	      4154	800008ec	015a3a33	sltu	x20,x20,x21	 x20:0x80008fd9 x21:0x0000025f x20=0x00000000
       41565000	      4155	800008f0	00000013	addi	x0,x0,0	  x0:0x00000000
       41575000	      4156	800008f4	058e4863	blt	x28,x24,80000944	 x28:0x00000000 x24:0x8f679000
       41585000	      4157	800008f8	91f22c13	slti	x24,x4,-1761	  x4:0x00000001 x24=0x00000000
       41595000	      4158	800008fc	001e1033	sll	x0,x28,x1	 x28:0x00000000  x1:0x48c9e8ac
       41605000	      4159	80000900	00000013	addi	x0,x0,0	  x0:0x00000000
       41615000	      4160	80000904	05afe463	bltu	x31,x26,8000094c	 x31:0x80009fc7 x26:0xfffffc84
       41625000	      4161	00000000	00000013	addi	x0,x0,0	  x0:0x00000000
       41635000	      4162	80000948	00000013	addi	x0,x0,0	  x0:0x00000000
       41645000	      4163	8000094c	6b8e3397	auipc	x7,0x6b8e3	  x7=0xeb8e3948
       41655000	      4164	80000950	27bbd237	lui	x4,0x27bbd	  x4=0x27bbd000
       41665000	      4165	80000954	00afa133	slt	x2,x31,x10	 x31:0x80009fc7 x10:0x80009fc4  x2=0x00000000
       41675000	      4166	80000958	01a5ca33	xor	x20,x11,x26	 x11:0x00000001 x26:0xfffffc84 x20=0xfffffc85
       41685000	      4167	8000095c	ec2fca93	xori	x21,x31,-318	 x31:0x80009fc7 x21=0x7fff6105
       41695000	      4168	80000960	01174e33	xor	x28,x14,x17	 x14:0x00000080 x17:0x00000014 x28=0x00000094
       41705000	      4169	80000964	00ad7d33	and	x26,x26,x10	 x26:0xfffffc84 x10:0x80009fc4 x26=0x80009c84
       41715000	      4170	80000968	0125b2b3	sltu	x5,x11,x18	 x11:0x00000001 x18:0x80009ebc  x5=0x00000001
       41725000	      4171	8000096c	001bc633	xor	x12,x23,x1	 x23:0xffffffbd  x1:0x48c9e8ac x12=0xb7361711
       41735000	      4172	80000970	05631863	bne	x6,x22,800009c0	  x6:0xffffff86 x22:0x80009980
       41745000	      4173	00000000	00000013	addi	x0,x0,0	  x0:0x00000000
       41755000	      4174	800009bc	00000013	addi	x0,x0,0	  x0:0x00000000
       41765000	      4175	800009c0	db3e7493	andi	x9,x28,-589	 x28:0x00000094  x9=0x00000090
       41775000	      4176	800009c4	663f2e13	slti	x28,x30,1635	 x30:0x00000001 x28=0x00000001
       41785000	      4177	800009c8	53732213	slti	x4,x6,1335	  x6:0xffffff86  x4=0x00000001
       41795000	      4178	800009cc	00b9b033	sltu	x0,x19,x11	 x19:0x00000000 x11:0x00000001
       41805000	      4179	800009d0	003e6d33	or	x26,x28,x3	 x28:0x00000001  x3:0x6dace88c x26=0x6dace88d
       41815000	      4180	800009d4	41ffd0b3	sra	x1,x31,x31	 x31:0x80009fc7 x31:0x80009fc7  x1=0xff00013f
       41825000	      4181	800009d8	6dff2313	slti	x6,x30,1759	 x30:0x00000001  x6=0x00000001
       41835000	      4182	800009dc	04d80263	beq	x16,x13,80000a20	 x16:0xd7206878 x13:0x00000001
       41845000	      4183	800009e0	1825a313	slti	x6,x11,386	 x11:0x00000001  x6=0x00000001
       41855000	      4184	800009e4	01de8c63	beq	x29,x29,800009fc	 x29:0x78788000 x29:0x78788000
       41865000	      4185	00000000	00000013	addi	x0,x0,0	  x0:0x00000000
       41875000	      4186	800009f8	00000013	addi	x0,x0,0	  x0:0x00000000
       41885000	      4187	800009fc	419dda13	srai	x20,x27,0x19	 x27:0x00000000 x20=0x00000000
       41895000	      4188	80000a00	40190f33	sub	x30,x18,x1	 x18:0x80009ebc  x1:0xff00013f x30=0x81009d7d
       41905000	      4189	80000a04	440d7293	andi	x5,x26,1088	 x26:0x6dace88d  x5=0x00000000
       41915000	      4190	80000a08	d6263813	sltiu	x16,x12,-670	 x12:0xb7361711 x16=0x00000001
       41925000	      4191	80000a0c	00381e93	slli	x29,x16,0x3	 x16:0x00000001 x29=0x00000008
       41935000	      4192	80000a10	00265413	srli	x8,x12,0x2	 x12:0xb7361711  x8=0x2dcd85c4
       41945000	      4193	80000a14	e47d7217	auipc	x4,0xe47d7	  x4=0x647d7a10
       41955000	      4194	80000a18	d43de613	ori	x12,x27,-701	 x27:0x00000000 x12=0xfffffd43
       41965000	      4195	80000a1c	01a7bab3	sltu	x21,x15,x26	 x15:0xdcf1c834 x26:0x6dace88d x21=0x00000000
       41975000	      4196	80000a20	026c6863	bltu	x24,x6,80000a50	 x24:0x00000000  x6:0x00000001
       41985000	      4197	00000000	00000013	addi	x0,x0,0	  x0:0x00000000
       41995000	      4198	80000a4c	00000013	addi	x0,x0,0	  x0:0x00000000
       42005000	      4199	80000a50	e78ce693	ori	x13,x25,-392	 x25:0x00000001 x13=0xfffffe79
       42015000	      4200	80000a54	400f5213	srai	x4,x30,0x0	 x30:0x81009d7d  x4=0x81009d7d
       42025000	      4201	80000a58	4020da13	srai	x20,x1,0x2	  x1:0xff00013f x20=0xffc0004f
       42035000	      4202	80000a5c	4074dc93	srai	x25,x9,0x7	  x9:0x00000090 x25=0x00000001
       42045000	      4203	80000a60	ec1be493	ori	x9,x23,-319	 x23:0xffffffbd  x9=0xfffffffd
       42055000	      4204	80000a64	419f85b3	sub	x11,x31,x25	 x31:0x80009fc7 x25:0x00000001 x11=0x80009fc6
       42065000	      4205	80000a68	017d84b3	add	x9,x27,x23	 x27:0x00000000 x23:0xffffffbd  x9=0xffffffbd
       42075000	      4206	80000a6c	00659633	sll	x12,x11,x6	 x11:0x80009fc6  x6:0x00000001 x12=0x00013f8c
       42085000	      4207	80000a70	010180b3	add	x1,x3,x16	  x3:0x6dace88c x16:0x00000001  x1=0x6dace88d
       42095000	      4208	80000a74	00000013	addi	x0,x0,0	  x0:0x00000000
       42105000	      4209	80000a78	01f70f33	add	x30,x14,x31	 x14:0x00000080 x31:0x80009fc7 x30=0x8000a047
       42115000	      4210	80000a7c	00fb5a33	srl	x20,x22,x15	 x22:0x80009980 x15:0xdcf1c834 x20=0x00000800
       42125000	      4211	80000a80	6b4c0493	addi	x9,x24,1716	 x24:0x00000000  x9=0x000006b4
       42135000	      4212	80000a84	45946b93	ori	x23,x8,1113	  x8:0x2dcd85c4 x23=0x2dcd85dd
       42145000	      4213	80000a88	025c5c63	bge	x24,x5,80000ac0	 x24:0x00000000  x5:0x00000000
       42155000	      4214	00000000	00000013	addi	x0,x0,0	  x0:0x00000000
       42165000	      4215	80000abc	00000013	addi	x0,x0,0	  x0:0x00000000
       42175000	      4216	80000ac0	410283b3	sub	x7,x5,x16	  x5:0x00000000 x16:0x00000001  x7=0xffffffff
       42185000	      4217	80000ac4	05415863	bge	x2,x20,80000b14	  x2:0x00000000 x20:0x00000800
       42195000	      4218	80000ac8	05208463	beq	x1,x18,80000b10	  x1:0x6dace88d x18:0x80009ebc
       42205000	      4219	80000acc	223e7493	andi	x9,x28,547	 x28:0x00000001  x9=0x00000001
       42215000	      4220	80000ad0	007c9f13	slli	x30,x25,0x7	 x25:0x00000001 x30=0x00000080
       42225000	      4221	80000ad4	0158ccb3	xor	x25,x17,x21	 x17:0x00000014 x21:0x00000000 x25=0x00000014
       42235000	      4222	80000ad8	059d0863	beq	x26,x25,80000b28	 x26:0x6dace88d x25:0x00000014
       42245000	      4223	80000adc	04197263	bgeu	x18,x1,80000b20	 x18:0x80009ebc  x1:0x6dace88d
       42255000	      4224	00000000	00000013	addi	x0,x0,0	  x0:0x00000000
       42265000	      4225	80000b1c	00000013	addi	x0,x0,0	  x0:0x00000000
       42275000	      4226	80000b20	017a0f33	add	x30,x20,x23	 x20:0x00000800 x23:0x2dcd85dd x30=0x2dcd8ddd
       42285000	      4227	80000b24	66856193	ori	x3,x10,1640	 x10:0x80009fc4  x3=0x80009fec
       42295000	      4228	80000b28	014a7433	and	x8,x20,x20	 x20:0x00000800 x20:0x00000800  x8=0x00000800
       42305000	      4229	80000b2c	21248013	addi	x0,x9,530	  x9:0x00000001
       42315000	      4230	80000b30	004b2eb3	slt	x29,x22,x4	 x22:0x80009980  x4:0x81009d7d x29=0x00000001
       42325000	      4231	80000b34	0151f2b3	and	x5,x3,x21	  x3:0x80009fec x21:0x00000000  x5=0x00000000
       42335000	      4232	80000b38	01568a33	add	x20,x13,x21	 x13:0xfffffe79 x21:0x00000000 x20=0xfffffe79
       42345000	      4233	80000b3c	1ab84b13	xori	x22,x16,427	 x16:0x00000001 x22=0x000001aa
       42355000	      4234	80000b40	00fd8e33	add	x28,x27,x15	 x27:0x00000000 x15:0xdcf1c834 x28=0xdcf1c834
       42365000	      4235	80000b44	00b643b3	xor	x7,x12,x11	 x12:0x00013f8c x11:0x80009fc6  x7=0x8001a04a
       42375000	      4236	80000b48	01efa033	slt	x0,x31,x30	 x31:0x80009fc7 x30:0x2dcd8ddd
       42385000	      4237	80000b4c	00f14263	blt	x2,x15,80000b50	  x2:0x00000000 x15:0xdcf1c834
       42395000	      4238	80000b50	40a9d613	srai	x12,x19,0xa	 x19:0x00000000 x12=0x00000000
       42405000	      4239	80000b54	739c2893	slti	x17,x24,1849	 x24:0x00000000 x17=0x00000001
       42415000	      4240	80000b58	00d31263	bne	x6,x13,80000b5c	  x6:0x00000001 x13:0xfffffe79
       42425000	      4241	00000000	00000013	addi	x0,x0,0	  x0:0x00000000
       42435000	      4242	80000b58	00000013	addi	x0,x0,0	  x0:0x00000000
       42445000	      4243	80000b5c	7a063bb7	lui	x23,0x7a063	 x23=0x7a063000
       42455000	      4244	80000b60	0c994c63	blt	x18,x9,80000c38	 x18:0x80009ebc  x9:0x00000001
       42465000	      4245	00000000	00000013	addi	x0,x0,0	  x0:0x00000000
       42475000	      4246	80000c34	00000013	addi	x0,x0,0	  x0:0x00000000
       42485000	      4247	80000c38	05c9c063	blt	x19,x28,80000c78	 x19:0x00000000 x28:0xdcf1c834
       42495000	      4248	80000c3c	15bccb13	xori	x22,x25,347	 x25:0x00000014 x22=0x0000014f
       42505000	      4249	80000c40	1ec26c13	ori	x24,x4,492	  x4:0x81009d7d x24=0x81009dfd
       42515000	      4250	80000c44	bd068a13	addi	x20,x13,-1072	 x13:0xfffffe79 x20=0xfffffa49
       42525000	      4251	80000c48	054df263	bgeu	x27,x20,80000c8c	 x27:0x00000000 x20:0xfffffa49
       42535000	      4252	80000c4c	03bc7e63	bgeu	x24,x27,80000c88	 x24:0x81009dfd x27:0x00000000
       42545000	      4253	00000000	00000013	addi	x0,x0,0	  x0:0x00000000
       42555000	      4254	80000c84	00000013	addi	x0,x0,0	  x0:0x00000000
       42565000	      4255	80000c88	03b6dc63	bge	x13,x27,80000cc0	 x13:0xfffffe79 x27:0x00000000
       42575000	      4256	80000c8c	64bd7e93	andi	x29,x26,1611	 x26:0x6dace88d x29=0x00000009
       42585000	      4257	80000c90	03549063	bne	x9,x21,80000cb0	  x9:0x00000001 x21:0x00000000
       42595000	      4258	00000000	00000013	addi	x0,x0,0	  x0:0x00000000
       42605000	      4259	80000cac	00000013	addi	x0,x0,0	  x0:0x00000000
       42615000	      4260	80000cb0	40340233	sub	x4,x8,x3	  x8:0x00000800  x3:0x80009fec  x4=0x7fff6814
       42625000	      4261	80000cb4	01d4e663	bltu	x9,x29,80000cc0	  x9:0x00000001 x29:0x00000009
       42635000	      4262	00000000	00000013	addi	x0,x0,0	  x0:0x00000000
       42645000	      4263	80000cbc	00000013	addi	x0,x0,0	  x0:0x00000000
       42655000	      4264	80000cc0	cd87c493	xori	x9,x15,-808	 x15:0xdcf1c834  x9=0x230e34ec
       42665000	      4265	80000cc4	10b506b7	lui	x13,0x10b50	 x13=0x10b50000
       42675000	      4266	80000cc8	00556033	or	x0,x10,x5	 x10:0x80009fc4  x5:0x00000000
       42685000	      4267	80000ccc	02d3c663	blt	x7,x13,80000cf8	  x7:0x8001a04a x13:0x10b50000
       42695000	      4268	00000000	00000013	addi	x0,x0,0	  x0:0x00000000
       42705000	      4269	80000cf4	00000013	addi	x0,x0,0	  x0:0x00000000
       42715000	      4270	80000cf8	f5ea8813	addi	x16,x21,-162	 x21:0x00000000 x16=0xffffff5e
       42725000	      4271	80000cfc	736dfc93	andi	x25,x27,1846	 x27:0x00000000 x25=0x00000000
       42735000	      4272	80000d00	e1f72393	slti	x7,x14,-481	 x14:0x00000080  x7=0x00000000
       42745000	      4273	80000d04	97815a97	auipc	x21,0x97815	 x21=0x17815d00
       42755000	      4274	80000d08	005efc63	bgeu	x29,x5,80000d20	 x29:0x00000009  x5:0x00000000
       42765000	      4275	00000000	00000013	addi	x0,x0,0	  x0:0x00000000
       42775000	      4276	80000d1c	00000013	addi	x0,x0,0	  x0:0x00000000
       42785000	      4277	80000d20	055a0263	beq	x20,x21,80000d64	 x20:0xfffffa49 x21:0x17815d00
       42795000	      4278	80000d24	d4af2693	slti	x13,x30,-694	 x30:0x2dcd8ddd x13=0x00000000
       42805000	      4279	80000d28	00bdfc33	and	x24,x27,x11	 x27:0x00000000 x11:0x80009fc6 x24=0x00000000
       42815000	      4280	80000d2c	01f15333	srl	x6,x2,x31	  x2:0x00000000 x31:0x80009fc7  x6=0x00000000
       42825000	      4281	80000d30	8deb4e13	xori	x28,x22,-1826	 x22:0x0000014f x28=0xfffff991
       42835000	      4282	80000d34	16505997	auipc	x19,0x16505	 x19=0x96505d30
       42845000	      4283	80000d38	41d22213	slti	x4,x4,1053	  x4:0x7fff6814  x4=0x00000000
       42855000	      4284	80000d3c	00000013	addi	x0,x0,0	  x0:0x00000000
       42865000	      4285	80000d40	812e8593	addi	x11,x29,-2030	 x29:0x00000009 x11=0xfffff81b
       42875000	      4286	80000d44	d023a193	slti	x3,x7,-766	  x7:0x00000000  x3=0x00000000
       42885000	      4287	80000d48	dcbca113	slti	x2,x25,-565	 x25:0x00000000  x2=0x00000000
       42895000	      4288	80000d4c	0238ee63	bltu	x17,x3,80000d88	 x17:0x00000001  x3:0x00000000
       42905000	      4289	80000d50	00ee2a33	slt	x20,x28,x14	 x28:0xfffff991 x14:0x00000080 x20=0x00000001
       42915000	      4290	80000d54	018b6833	or	x16,x22,x24	 x22:0x0000014f x24:0x00000000 x16=0x0000014f
       42925000	      4291	80000d58	050d4863	blt	x26,x16,80000da8	 x26:0x6dace88d x16:0x0000014f
       42935000	      4292	80000d5c	02afc263	blt	x31,x10,80000d80	 x31:0x80009fc7 x10:0x80009fc4
       42945000	      4293	80000d60	43253193	sltiu	x3,x10,1074	 x10:0x80009fc4  x3=0x00000000
       42955000	      4294	80000d64	05686863	bltu	x16,x22,80000db4	 x16:0x0000014f x22:0x0000014f
       42965000	      4295	80000d68	00424b33	xor	x22,x4,x4	  x4:0x00000000  x4:0x00000000 x22=0x00000000
       42975000	      4296	80000d6c	04e9f463	bgeu	x19,x14,80000db4	 x19:0x96505d30 x14:0x00000080
       42985000	      4297	00000000	00000013	addi	x0,x0,0	  x0:0x00000000
       42995000	      4298	80000db0	00000013	addi	x0,x0,0	  x0:0x00000000
       43005000	      4299	80000db4	007831b3	sltu	x3,x16,x7	 x16:0x0000014f  x7:0x00000000  x3=0x00000000
       43015000	      4300	80000db8	5bf20897	auipc	x17,0x5bf20	 x17=0xdbf20db4
       43025000	      4301	80000dbc	27c8cf13	xori	x30,x17,636	 x17:0xdbf20db4 x30=0xdbf20fc8
       43035000	      4302	80000dc0	01670fb3	add	x31,x14,x22	 x14:0x00000080 x22:0x00000000 x31=0x00000080
       43045000	      4303	80000dc4	0460e663	bltu	x1,x6,80000e10	  x1:0x6dace88d  x6:0x00000000
       43055000	      4304	80000dc8	01419c13	slli	x24,x3,0x14	  x3:0x00000000 x24=0x00000000
       43065000	      4305	80000dcc	73f8f593	andi	x11,x17,1855	 x17:0xdbf20db4 x11=0x00000534
       43075000	      4306	80000dd0	00000013	addi	x0,x0,0	  x0:0x00000000
       43085000	      4307	80000dd4	03606e63	bltu	x0,x22,80000e10	  x0:0x00000000 x22:0x00000000
       43095000	      4308	80000dd8	01b20663	beq	x4,x27,80000de4	  x4:0x00000000 x27:0x00000000
       43105000	      4309	00000000	00000013	addi	x0,x0,0	  x0:0x00000000
       43115000	      4310	80000de0	00000013	addi	x0,x0,0	  x0:0x00000000
       43125000	      4311	80000de4	00000013	addi	x0,x0,0	  x0:0x00000000
       43135000	      4312	80000de8	01409333	sll	x6,x1,x20	  x1:0x6dace88d x20:0x00000001  x6=0xdb59d11a
       43145000	      4313	80000dec	93a4ab93	slti	x23,x9,-1734	  x9:0x230e34ec x23=0x00000000
       43155000	      4314	80000df0	00051d33	sll	x26,x10,x0	 x10:0x80009fc4  x0:0x00000000 x26=0x80009fc4
       43165000	      4315	80000df4	41615013	srai	x0,x2,0x16	  x2:0x00000000
       43175000	      4316	80000df8	009f2b33	slt	x22,x30,x9	 x30:0xdbf20fc8  x9:0x230e34ec x22=0x00000001
       43185000	      4317	80000dfc	04aa0063	beq	x20,x10,80000e3c	 x20:0x00000001 x10:0x80009fc4
       43195000	      4318	80000e00	41dcdcb3	sra	x25,x25,x29	 x25:0x00000000 x29:0x00000009 x25=0x00000000
       43205000	      4319	80000e04	41c48ab3	sub	x21,x9,x28	  x9:0x230e34ec x28:0xfffff991 x21=0x230e3b5b
       43215000	      4320	80000e08	018d8e33	add	x28,x27,x24	 x27:0x00000000 x24:0x00000000 x28=0x00000000
       43225000	      4321	80000e0c	004e21b3	slt	x3,x28,x4	 x28:0x00000000  x4:0x00000000  x3=0x00000000
       43235000	      4322	80000e10	00889a33	sll	x20,x17,x8	 x17:0xdbf20db4  x8:0x00000800 x20=0xdbf20db4
       43245000	      4323	80000e14	010636b3	sltu	x13,x12,x16	 x12:0x00000000 x16:0x0000014f x13=0x00000001
       43255000	      4324	80000e18	01d0bb33	sltu	x22,x1,x29	  x1:0x6dace88d x29:0x00000009 x22=0x00000000
       43265000	      4325	80000e1c	00000013	addi	x0,x0,0	  x0:0x00000000
       43275000	      4326	80000e20	0e5a7893	andi	x17,x20,229	 x20:0xdbf20db4 x17=0x000000a4
       43285000	      4327	80000e24	bc6cbc93	sltiu	x25,x25,-1082	 x25:0x00000000 x25=0x00000001
       43295000	      4328	80000e28	00b7ccb3	xor	x25,x15,x11	 x15:0xdcf1c834 x11:0x00000534 x25=0xdcf1cd00
       43305000	      4329	80000e2c	cb6b6297	auipc	x5,0xcb6b6	  x5=0x4b6b6e28
       43315000	      4330	80000e30	01ae12b3	sll	x5,x28,x26	 x28:0x00000000 x26:0x80009fc4  x5=0x00000000
       43325000	      4331	80000e34	00fafa63	bgeu	x21,x15,80000e48	 x21:0x230e3b5b x15:0xdcf1c834
       43335000	      4332	80000e38	00b87733	and	x14,x16,x11	 x16:0x0000014f x11:0x00000534 x14=0x00000104
       43345000	      4333	80000e3c	5e8ce613	ori	x12,x25,1512	 x25:0xdcf1cd00 x12=0xdcf1cde8
       43355000	      4334	80000e40	001fb2b3	sltu	x5,x31,x1	 x31:0x00000080  x1:0x6dace88d  x5=0x00000001
       43365000	      4335	80000e44	054bc863	blt	x23,x20,80000e94	 x23:0x00000000 x20:0xdbf20db4
       43375000	      4336	80000e48	6853c613	xori	x12,x7,1669	  x7:0x00000000 x12=0x00000685
       43385000	      4337	80000e4c	022f7663	bgeu	x30,x2,80000e78	 x30:0xdbf20fc8  x2:0x00000000
       43395000	      4338	00000000	00000013	addi	x0,x0,0	  x0:0x00000000
       43405000	      4339	80000e74	00000013	addi	x0,x0,0	  x0:0x00000000
       43415000	      4340	80000e78	3e56ca13	xori	x20,x13,997	 x13:0x00000001 x20=0x000003e4
       43425000	      4341	80000e7c	60390793	addi	x15,x18,1539	 x18:0x80009ebc x15=0x8000a4bf
       43435000	      4342	80000e80	03b4c863	blt	x9,x27,80000eb0	  x9:0x230e34ec x27:0x00000000
       43445000	      4343	80000e84	d1d1ca13	xori	x20,x3,-739	  x3:0x00000000 x20=0xfffffd1d
       43455000	      4344	80000e88	dd36c117	auipc	x2,0xdd36c	  x2=0x5d36ce84
       43465000	      4345	80000e8c	04bc4463	blt	x24,x11,80000ed4	 x24:0x00000000 x11:0x00000534
       43475000	      4346	00000000	00000013	addi	x0,x0,0	  x0:0x00000000
       43485000	      4347	80000ed0	00000013	addi	x0,x0,0	  x0:0x00000000
       43495000	      4348	80000ed4	008b0c63	beq	x22,x8,80000eec	 x22:0x00000000  x8:0x00000800
       43505000	      4349	80000ed8	f4b63a93	sltiu	x21,x12,-181	 x12:0x00000685 x21=0x00000001
       43515000	      4350	80000edc	fb8db113	sltiu	x2,x27,-72	 x27:0x00000000  x2=0x00000001
       43525000	      4351	80000ee0	fef9e013	ori	x0,x19,-17	 x19:0x96505d30
       43535000	      4352	80000ee4	049bc463	blt	x23,x9,80000f2c	 x23:0x00000000  x9:0x230e34ec
       43545000	      4353	00000000	00000013	addi	x0,x0,0	  x0:0x00000000
       43555000	      4354	80000f28	00000013	addi	x0,x0,0	  x0:0x00000000
       43565000	      4355	80000f2c	00000013	addi	x0,x0,0	  x0:0x00000000
       43575000	      4356	80000f30	01eca633	slt	x12,x25,x30	 x25:0xdcf1cd00 x30:0xdbf20fc8 x12=0x00000000
       43585000	      4357	80000f34	01fdf663	bgeu	x27,x31,80000f40	 x27:0x00000000 x31:0x00000080
       43595000	      4358	80000f38	00c41893	slli	x17,x8,0xc	  x8:0x00000800 x17=0x00800000
       43605000	      4359	80000f3c	00efc133	xor	x2,x31,x14	 x31:0x00000080 x14:0x00000104  x2=0x00000184
       43615000	      4360	80000f40	00768c63	beq	x13,x7,80000f58	 x13:0x00000001  x7:0x00000000
       43625000	      4361	80000f44	05b97463	bgeu	x18,x27,80000f8c	 x18:0x80009ebc x27:0x00000000
       43635000	      4362	00000000	00000013	addi	x0,x0,0	  x0:0x00000000
       43645000	      4363	80000f88	00000013	addi	x0,x0,0	  x0:0x00000000
       43655000	      4364	80000f8c	bb393993	sltiu	x19,x18,-1101	 x18:0x80009ebc x19=0x00000001
       43665000	      4365	80000f90	e786e413	ori	x8,x13,-392	 x13:0x00000001  x8=0xfffffe79
       43675000	      4366	80000f94	01fd59b3	srl	x19,x26,x31	 x26:0x80009fc4 x31:0x00000080 x19=0x80009fc4
       43685000	      4367	80000f98	411fd013	srai	x0,x31,0x11	 x31:0x00000080
       43695000	      4368	80000f9c	02a9de63	bge	x19,x10,80000fd8	 x19:0x80009fc4 x10:0x80009fc4
       43705000	      4369	00000000	00000013	addi	x0,x0,0	  x0:0x00000000
       43715000	      4370	80000fd4	00000013	addi	x0,x0,0	  x0:0x00000000
       43725000	      4371	80000fd8	a382b097	auipc	x1,0xa382b	  x1=0x2382bfd4
       43735000	      4372	80000fdc	04875463	bge	x14,x8,80001024	 x14:0x00000104  x8:0xfffffe79
       43745000	      4373	00000000	00000013	addi	x0,x0,0	  x0:0x00000000
       43755000	      4374	80001020	00000013	addi	x0,x0,0	  x0:0x00000000
       43765000	      4375	80001024	016e8a33	add	x20,x29,x22	 x29:0x00000009 x22:0x00000000 x20=0x00000009
       43775000	      4376	80001028	015b6eb3	or	x29,x22,x21	 x22:0x00000000 x21:0x00000001 x29=0x00000001
       43785000	      4377	8000102c	899a2037	lui	x0,0x899a2	
       43795000	      4378	80001030	004d8733	add	x14,x27,x4	 x27:0x00000000  x4:0x00000000 x14=0x00000000
       43805000	      4379	80001034	404ad813	srai	x16,x21,0x4	 x21:0x00000001 x16=0x00000000
       43815000	      4380	80001038	62882a37	lui	x20,0x62882	 x20=0x62882000
       43825000	      4381	8000103c	0f5b8463	beq	x23,x21,80001124	 x23:0x00000000 x21:0x00000001
       43835000	      4382	80001040	39b0ae13	slti	x28,x1,923	  x1:0x2382bfd4 x28=0x00000000
       43845000	      4383	80001044	0c67cc63	blt	x15,x6,8000111c	 x15:0x8000a4bf  x6:0xdb59d11a
       43855000	      4384	00000000	00000013	addi	x0,x0,0	  x0:0x00000000
       43865000	      4385	80001118	00000013	addi	x0,x0,0	  x0:0x00000000
       43875000	      4386	8000111c	01cdaa33	slt	x20,x27,x28	 x27:0x00000000 x28:0x00000000 x20=0x00000000
       43885000	      4387	80001120	04ade063	bltu	x27,x10,80001160	 x27:0x00000000 x10:0x80009fc4
       43895000	      4388	00000000	00000013	addi	x0,x0,0	  x0:0x00000000
       43905000	      4389	8000115c	00000013	addi	x0,x0,0	  x0:0x00000000
       43915000	      4390	80001160	99da7b93	andi	x23,x20,-1635	 x20:0x00000000 x23=0x00000000
       43925000	      4391	80001164	000d75b3	and	x11,x26,x0	 x26:0x80009fc4  x0:0x00000000 x11=0x00000000
       43935000	      4392	80001168	b7460f97	auipc	x31,0xb7460	 x31=0x37461164
       43945000	      4393	8000116c	41265213	srai	x4,x12,0x12	 x12:0x00000000  x4=0x00000000
       43955000	      4394	80001170	02bdd063	bge	x27,x11,80001190	 x27:0x00000000 x11:0x00000000
       43965000	      4395	00000000	00000013	addi	x0,x0,0	  x0:0x00000000
       43975000	      4396	8000118c	00000013	addi	x0,x0,0	  x0:0x00000000
       43985000	      4397	80001190	3a25b593	sltiu	x11,x11,930	 x11:0x00000000 x11=0x00000001
       43995000	      4398	80001194	40da53b3	sra	x7,x20,x13	 x20:0x00000000 x13:0x00000001  x7=0x00000000
       44005000	      4399	80001198	01526a33	or	x20,x4,x21	  x4:0x00000000 x21:0x00000001 x20=0x00000001
       44015000	      4400	8000119c	009ad633	srl	x12,x21,x9	 x21:0x00000001  x9:0x230e34ec x12=0x00000000
       44025000	      4401	800011a0	4093d1b3	sra	x3,x7,x9	  x7:0x00000000  x9:0x230e34ec  x3=0x00000000
       44035000	      4402	800011a4	7cf16793	ori	x15,x2,1999	  x2:0x00000184 x15=0x000007cf
       44045000	      4403	800011a8	c3ebb093	sltiu	x1,x23,-962	 x23:0x00000000  x1=0x00000001
       44055000	      4404	800011ac	01f227b3	slt	x15,x4,x31	  x4:0x00000000 x31:0x37461164 x15=0x00000001
       44065000	      4405	800011b0	ccf4b993	sltiu	x19,x9,-817	  x9:0x230e34ec x19=0x00000001
       44075000	      4406	800011b4	00000013	addi	x0,x0,0	  x0:0x00000000
       44085000	      4407	800011b8	04f21663	bne	x4,x15,80001204	  x4:0x00000000 x15:0x00000001
       44095000	      4408	00000000	00000013	addi	x0,x0,0	  x0:0x00000000
       44105000	      4409	80001200	00000013	addi	x0,x0,0	  x0:0x00000000
       44115000	      4410	80001204	01496e33	or	x28,x18,x20	 x18:0x80009ebc x20:0x00000001 x28=0x80009ebd
       44125000	      4411	80001208	04795263	bge	x18,x7,8000124c	 x18:0x80009ebc  x7:0x00000000
       44135000	      4412	8000120c	9b2cd5b7	lui	x11,0x9b2cd	 x11=0x9b2cd000
       44145000	      4413	80001210	6c7d2493	slti	x9,x26,1735	 x26:0x80009fc4  x9=0x00000001
       44155000	      4414	80001214	01268c63	beq	x13,x18,8000122c	 x13:0x00000001 x18:0x80009ebc
       44165000	      4415	80001218	741e7893	andi	x17,x28,1857	 x28:0x80009ebd x17=0x00000601
       44175000	      4416	8000121c	00000013	addi	x0,x0,0	  x0:0x00000000
       44185000	      4417	80001220	0081deb3	srl	x29,x3,x8	  x3:0x00000000  x8:0xfffffe79 x29=0x00000000
       44195000	      4418	80001224	0371f463	bgeu	x3,x23,8000124c	  x3:0x00000000 x23:0x00000000
       44205000	      4419	00000000	00000013	addi	x0,x0,0	  x0:0x00000000
       44215000	      4420	80001248	00000013	addi	x0,x0,0	  x0:0x00000000
       44225000	      4421	8000124c	9d3e3793	sltiu	x15,x28,-1581	 x28:0x80009ebd x15=0x00000001
       44235000	      4422	80001250	4147d713	srai	x14,x15,0x14	 x15:0x00000001 x14=0x00000000
       44245000	      4423	80001254	df01e217	auipc	x4,0xdf01e	  x4=0x5f01f250
       44255000	      4424	80001258	00000013	addi	x0,x0,0	  x0:0x00000000
       44265000	      4425	8000125c	00d52133	slt	x2,x10,x13	 x10:0x80009fc4 x13:0x00000001  x2=0x00000001
       44275000	      4426	80001260	7539e893	ori	x17,x19,1875	 x19:0x00000001 x17=0x00000753
       44285000	      4427	80001264	00ab5993	srli	x19,x22,0xa	 x22:0x00000000 x19=0x00000000
       44295000	      4428	80001268	41b8d713	srai	x14,x17,0x1b	 x17:0x00000753 x14=0x00000000
       44305000	      4429	8000126c	416009b3	sub	x19,x0,x22	  x0:0x00000000 x22:0x00000000 x19=0x00000000
       44315000	      4430	80001270	0176f663	bgeu	x13,x23,8000127c	 x13:0x00000001 x23:0x00000000
       44325000	      4431	00000000	00000013	addi	x0,x0,0	  x0:0x00000000
       44335000	      4432	80001278	00000013	addi	x0,x0,0	  x0:0x00000000
       44345000	      4433	8000127c	6bcaf3b7	lui	x7,0x6bcaf	  x7=0x6bcaf000
       44355000	      4434	80001280	4034d813	srai	x16,x9,0x3	  x9:0x00000001 x16=0x00000000
       44365000	      4435	80001284	00c27cb3	and	x25,x4,x12	  x4:0x5f01f250 x12:0x00000000 x25=0x00000000
       44375000	      4436	80001288	421b2193	slti	x3,x22,1057	 x22:0x00000000  x3=0x00000001
       44385000	      4437	8000128c	00007c97	auipc	x25,0x7	 x25=0x80008288
       44395000	      4438	80001290	e88c8c93	addi	x25,x25,-376	 x25:0x80008288 x25=0x80008110
       44405000	      4439	80001294	4069d433	sra	x8,x19,x6	 x19:0x00000000  x6:0xdb59d11a  x8=0x00000000
       44415000	      4440	80001298	607de717	auipc	x14,0x607de	 x14=0xe07df294
       44425000	      4441	8000129c	016c8223	sb	x22,4(x25)	 x25:0x80008110 x22:0x00000000 PA:0x80008114
       44435000	      4442	800012a0	fe6cac23	sw	x6,-8(x25)	 x25:0x80008110  x6:0xdb59d11a PA:0x80008108
       44445000	      4443	800012a4	009ddc13	srli	x24,x27,0x9	 x27:0x00000000 x24=0x00000000
       44455000	      4444	800012a8	001ccb03	lbu	x22,1(x25)	 x25:0x80008110 x22=0x000000ca PA:0x80008111
       44465000	      4445	00000000	00000013	addi	x0,x0,0	  x0:0x00000000
       44475000	      4446	800012ac	ff6cc783	lbu	x15,-10(x25)	 x25:0x80008110 x15=0x00000001 PA:0x80008106
       44485000	      4447	800012b0	01f56c33	or	x24,x10,x31	 x10:0x80009fc4 x31:0x37461164 x24=0xb7469fe4
       44495000	      4448	800012b4	ff0cdf03	lhu	x30,-16(x25)	 x25:0x80008110 x30=0x0000cabb PA:0x80008100
       44505000	      4449	800012b8	ff2c8f83	lb	x31,-14(x25)	 x25:0x80008110 x31=0xffffffb9 PA:0x80008102
       44515000	      4450	800012bc	01793c33	sltu	x24,x18,x23	 x18:0x80009ebc x23:0x00000000 x24=0x00000000
       44525000	      4451	800012c0	ff4c9783	lh	x15,-12(x25)	 x25:0x80008110 x15=0xffffbebf PA:0x80008104
       44535000	      4452	800012c4	006cc003	lbu	x0,6(x25)	 x25:0x80008110 PA:0x80008116
       44545000	      4453	800012c8	01ac81a3	sb	x26,3(x25)	 x25:0x80008110 x26:0x80009fc4 PA:0x80008113
       44555000	      4454	800012cc	ff1ccc03	lbu	x24,-15(x25)	 x25:0x80008110 x24=0x000000ca PA:0x80008101
       44565000	      4455	800012d0	01679313	slli	x6,x15,0x16	 x15:0xffffbebf  x6=0xafc00000
       44575000	      4456	800012d4	01f35a93	srli	x21,x6,0x1f	  x6:0xafc00000 x21=0x00000001
       44585000	      4457	800012d8	01eed833	srl	x16,x29,x30	 x29:0x00000000 x30:0x0000cabb x16=0x00000000
       44595000	      4458	800012dc	6ce1a893	slti	x17,x3,1742	  x3:0x00000001 x17=0x00000001
       44605000	      4459	800012e0	ff7c8083	lb	x1,-9(x25)	 x25:0x80008110  x1=0x00000000 PA:0x80008107
       44615000	      4460	800012e4	00ac83a3	sb	x10,7(x25)	 x25:0x80008110 x10:0x80009fc4 PA:0x80008117
       44625000	      4461	800012e8	ff5ccf83	lbu	x31,-11(x25)	 x25:0x80008110 x31=0x000000be PA:0x80008105
       44635000	      4462	800012ec	415a5d33	sra	x26,x20,x21	 x20:0x00000001 x21:0x00000001 x26=0x00000000
       44645000	      4463	800012f0	011c9123	sh	x17,2(x25)	 x25:0x80008110 x17:0x00000001 PA:0x80008112
       44655000	      4464	800012f4	ff6c88a3	sb	x22,-15(x25)	 x25:0x80008110 x22:0x000000ca PA:0x80008101
       44665000	      4465	800012f8	fe3c9c23	sh	x3,-8(x25)	 x25:0x80008110  x3:0x00000001 PA:0x80008108
       44675000	      4466	800012fc	ff8c9603	lh	x12,-8(x25)	 x25:0x80008110 x12=0x00000001 PA:0x80008108
       44685000	      4467	80001300	ff7c8403	lb	x8,-9(x25)	 x25:0x80008110  x8=0x00000000 PA:0x80008107
       44695000	      4468	80001304	011c9623	sh	x17,12(x25)	 x25:0x80008110 x17:0x00000001 PA:0x8000811c
       44705000	      4469	80001308	00db1b13	slli	x22,x22,0xd	 x22:0x000000ca x22=0x00194000
       44715000	      4470	8000130c	003c85a3	sb	x3,11(x25)	 x25:0x80008110  x3:0x00000001 PA:0x8000811b
       44725000	      4471	80001310	00f041b3	xor	x3,x0,x15	  x0:0x00000000 x15:0xffffbebf  x3=0xffffbebf
       44735000	      4472	80001314	002c81a3	sb	x2,3(x25)	 x25:0x80008110  x2:0x00000001 PA:0x80008113
       44745000	      4473	80001318	fe5c9b23	sh	x5,-10(x25)	 x25:0x80008110  x5:0x00000001 PA:0x80008106
       44755000	      4474	8000131c	48d04b13	xori	x22,x0,1165	  x0:0x00000000 x22=0x0000048d
       44765000	      4475	80001320	befaf013	andi	x0,x21,-1041	 x21:0x00000001
       44775000	      4476	80001324	01880e93	addi	x29,x16,24	 x16:0x00000000 x29=0x00000018
       44785000	      4477	80001328	00183eb3	sltu	x29,x16,x1	 x16:0x00000000  x1:0x00000000 x29=0x00000000
       44795000	      4478	8000132c	016b9c63	bne	x23,x22,80001344	 x23:0x00000000 x22:0x0000048d
       44805000	      4479	00000000	00000013	addi	x0,x0,0	  x0:0x00000000
       44815000	      4480	80001340	00000013	addi	x0,x0,0	  x0:0x00000000
       44825000	      4481	80001344	aef46793	ori	x15,x8,-1297	  x8:0x00000000 x15=0xfffffaef
       44835000	      4482	80001348	0003dc93	srli	x25,x7,0x0	  x7:0x6bcaf000 x25=0x6bcaf000
       44845000	      4483	8000134c	d112f293	andi	x5,x5,-751	  x5:0x00000001  x5=0x00000001
       44855000	      4484	80001350	009e5bb3	srl	x23,x28,x9	 x28:0x80009ebd  x9:0x00000001 x23=0x40004f5e
       44865000	      4485	80001354	417a5e13	srai	x28,x20,0x17	 x20:0x00000001 x28=0x00000000
       44875000	      4486	80001358	00000013	addi	x0,x0,0	  x0:0x00000000
       44885000	      4487	8000135c	6ea7b013	sltiu	x0,x15,1770	 x15:0xfffffaef
       44895000	      4488	80001360	00000013	addi	x0,x0,0	  x0:0x00000000
       44905000	      4489	80001364	408d5633	sra	x12,x26,x8	 x26:0x00000000  x8:0x00000000 x12=0x00000000
       44915000	      4490	80001368	003e1263	bne	x28,x3,8000136c	 x28:0x00000000  x3:0xffffbebf
       44925000	      4491	00000000	00000013	addi	x0,x0,0	  x0:0x00000000
       44935000	      4492	80001368	00000013	addi	x0,x0,0	  x0:0x00000000
       44945000	      4493	8000136c	011381b3	add	x3,x7,x17	  x7:0x6bcaf000 x17:0x00000001  x3=0x6bcaf001
       44955000	      4494	80001370	e0224b13	xori	x22,x4,-510	  x4:0x5f01f250 x22=0xa0fe0c52
       44965000	      4495	80001374	f52e8293	addi	x5,x29,-174	 x29:0x00000000  x5=0xffffff52
       44975000	      4496	80001378	601ab093	sltiu	x1,x21,1537	 x21:0x00000001  x1=0x00000001
       44985000	      4497	8000137c	05a26263	bltu	x4,x26,800013c0	  x4:0x5f01f250 x26:0x00000000
       44995000	      4498	80001380	cd3e3a97	auipc	x21,0xcd3e3	 x21=0x4d3e437c
       45005000	      4499	80001384	012f84b3	add	x9,x31,x18	 x31:0x000000be x18:0x80009ebc  x9=0x80009f7a
       45015000	      4500	80001388	7ba50893	addi	x17,x10,1978	 x10:0x80009fc4 x17=0x8000a77e
       45025000	      4501	8000138c	40d286b3	sub	x13,x5,x13	  x5:0xffffff52 x13:0x00000001 x13=0xffffff51
       45035000	      4502	80001390	04066463	bltu	x12,x0,800013d8	 x12:0x00000000  x0:0x00000000
       45045000	      4503	80001394	08858b13	addi	x22,x11,136	 x11:0x9b2cd000 x22=0x9b2cd088
       45055000	      4504	80001398	03fd0c63	beq	x26,x31,800013d0	 x26:0x00000000 x31:0x000000be
       45065000	      4505	8000139c	057b4d13	xori	x26,x22,87	 x22:0x9b2cd088 x26=0x9b2cd0df
       45075000	      4506	800013a0	880df093	andi	x1,x27,-1920	 x27:0x00000000  x1=0x00000000
       45085000	      4507	800013a4	0183d0b3	srl	x1,x7,x24	  x7:0x6bcaf000 x24:0x000000ca  x1=0x001af2bc
       45095000	      4508	800013a8	00b19a33	sll	x20,x3,x11	  x3:0x6bcaf001 x11:0x9b2cd000 x20=0x6bcaf001
       45105000	      4509	800013ac	02f20663	beq	x4,x15,800013d8	  x4:0x5f01f250 x15:0xfffffaef
       45115000	      4510	800013b0	002d58b3	srl	x17,x26,x2	 x26:0x9b2cd0df  x2:0x00000001 x17=0x4d96686f
       45125000	      4511	800013b4	002f4133	xor	x2,x30,x2	 x30:0x0000cabb  x2:0x00000001  x2=0x0000caba
       45135000	      4512	800013b8	40cc8b33	sub	x22,x25,x12	 x25:0x6bcaf000 x12:0x00000000 x22=0x6bcaf000
       45145000	      4513	800013bc	412f5793	srai	x15,x30,0x12	 x30:0x0000cabb x15=0x00000000
       45155000	      4514	800013c0	b482b693	sltiu	x13,x5,-1208	  x5:0xffffff52 x13=0x00000000
       45165000	      4515	800013c4	02f9d863	bge	x19,x15,800013f4	 x19:0x00000000 x15:0x00000000
       45175000	      4516	00000000	00000013	addi	x0,x0,0	  x0:0x00000000
       45185000	      4517	800013f0	00000013	addi	x0,x0,0	  x0:0x00000000
       45195000	      4518	800013f4	40ecd133	sra	x2,x25,x14	 x25:0x6bcaf000 x14:0xe07df294  x2=0x000006bc
       45205000	      4519	800013f8	008e2e33	slt	x28,x28,x8	 x28:0x00000000  x8:0x00000000 x28=0x00000000
       45215000	      4520	800013fc	04ce0263	beq	x28,x12,80001440	 x28:0x00000000 x12:0x00000000
       45225000	      4521	00000000	00000013	addi	x0,x0,0	  x0:0x00000000
       45235000	      4522	8000143c	00000013	addi	x0,x0,0	  x0:0x00000000
       45245000	      4523	80001440	40ad5333	sra	x6,x26,x10	 x26:0x9b2cd0df x10:0x80009fc4  x6=0xf9b2cd0d
       45255000	      4524	80001444	02264e63	blt	x12,x2,80001480	 x12:0x00000000  x2:0x000006bc
       45265000	      4525	00000000	00000013	addi	x0,x0,0	  x0:0x00000000
       45275000	      4526	8000147c	00000013	addi	x0,x0,0	  x0:0x00000000
       45285000	      4527	80001480	00c64a63	blt	x12,x12,80001494	 x12:0x00000000 x12:0x00000000
       45295000	      4528	80001484	0059e5b3	or	x11,x19,x5	 x19:0x00000000  x5:0xffffff52 x11=0xffffff52
       45305000	      4529	80001488	05bb1063	bne	x22,x27,800014c8	 x22:0x6bcaf000 x27:0x00000000
       45315000	      4530	00000000	00000013	addi	x0,x0,0	  x0:0x00000000
       45325000	      4531	800014c4	00000013	addi	x0,x0,0	  x0:0x00000000
       45335000	      4532	800014c8	00a2feb3	and	x29,x5,x10	  x5:0xffffff52 x10:0x80009fc4 x29=0x80009f40
       45345000	      4533	800014cc	001ede93	srli	x29,x29,0x1	 x29:0x80009f40 x29=0x40004fa0
       45355000	      4534	800014d0	0242f663	bgeu	x5,x4,800014fc	  x5:0xffffff52  x4:0x5f01f250
       45365000	      4535	00000000	00000013	addi	x0,x0,0	  x0:0x00000000
       45375000	      4536	800014f8	00000013	addi	x0,x0,0	  x0:0x00000000
       45385000	      4537	800014fc	04980263	beq	x16,x9,80001540	 x16:0x00000000  x9:0x80009f7a
       45395000	      4538	80001500	01da14b3	sll	x9,x20,x29	 x20:0x6bcaf001 x29:0x40004fa0  x9=0x6bcaf001
       45405000	      4539	80001504	41b40fb3	sub	x31,x8,x27	  x8:0x00000000 x27:0x00000000 x31=0x00000000
       45415000	      4540	80001508	2432c793	xori	x15,x5,579	  x5:0xffffff52 x15=0xfffffd11
       45425000	      4541	8000150c	9961af17	auipc	x30,0x9961a	 x30=0x1961b508
       45435000	      4542	80001510	031ad063	bge	x21,x17,80001530	 x21:0x4d3e437c x17:0x4d96686f
       45445000	      4543	80001514	58186f93	ori	x31,x16,1409	 x16:0x00000000 x31=0x00000581
       45455000	      4544	80001518	67beeb93	ori	x23,x29,1659	 x29:0x40004fa0 x23=0x40004ffb
       45465000	      4545	8000151c	fd396813	ori	x16,x18,-45	 x18:0x80009ebc x16=0xffffffff
       45475000	      4546	80001520	5ee5e413	ori	x8,x11,1518	 x11:0xffffff52  x8=0xfffffffe
       45485000	      4547	80001524	fa702e37	lui	x28,0xfa702	 x28=0xfa702000
       45495000	      4548	80001528	40740eb3	sub	x29,x8,x7	  x8:0xfffffffe  x7:0x6bcaf000 x29=0x94350ffe
       45505000	      4549	8000152c	7f3d3d13	sltiu	x26,x26,2035	 x26:0x9b2cd0df x26=0x00000000
       45515000	      4550	80001530	fb643f93	sltiu	x31,x8,-74	  x8:0xfffffffe x31=0x00000000
       45525000	      4551	80001534	046e7463	bgeu	x28,x6,8000157c	 x28:0xfa702000  x6:0xf9b2cd0d
       45535000	      4552	00000000	00000013	addi	x0,x0,0	  x0:0x00000000
       45545000	      4553	80001578	00000013	addi	x0,x0,0	  x0:0x00000000
       45555000	      4554	8000157c	01da9b93	slli	x23,x21,0x1d	 x21:0x4d3e437c x23=0x80000000
       45565000	      4555	80001580	0514e463	bltu	x9,x17,800015c8	  x9:0x6bcaf001 x17:0x4d96686f
       45575000	      4556	80001584	02a10c63	beq	x2,x10,800015bc	  x2:0x000006bc x10:0x80009fc4
       45585000	      4557	80001588	00eaa8b3	slt	x17,x21,x14	 x21:0x4d3e437c x14:0xe07df294 x17=0x00000000
       45595000	      4558	8000158c	002dfe13	andi	x28,x27,2	 x27:0x00000000 x28=0x00000000
       45605000	      4559	80001590	01e86e33	or	x28,x16,x30	 x16:0xffffffff x30:0x1961b508 x28=0xffffffff
       45615000	      4560	80001594	408d0833	sub	x16,x26,x8	 x26:0x00000000  x8:0xfffffffe x16=0x00000002
       45625000	      4561	80001598	9a374993	xori	x19,x14,-1629	 x14:0xe07df294 x19=0x1f820b37
       45635000	      4562	8000159c	00399d33	sll	x26,x19,x3	 x19:0x1f820b37  x3:0x6bcaf001 x26=0x3f04166e
       45645000	      4563	800015a0	01ef0263	beq	x30,x30,800015a4	 x30:0x1961b508 x30:0x1961b508
       45655000	      4564	00000000	00000013	addi	x0,x0,0	  x0:0x00000000
       45665000	      4565	800015a0	00000013	addi	x0,x0,0	  x0:0x00000000
       45675000	      4566	800015a4	406407b3	sub	x15,x8,x6	  x8:0xfffffffe  x6:0xf9b2cd0d x15=0x064d32f1
       45685000	      4567	800015a8	03c69863	bne	x13,x28,800015d8	 x13:0x00000000 x28:0xffffffff
       45695000	      4568	00000000	00000013	addi	x0,x0,0	  x0:0x00000000
       45705000	      4569	800015d4	00000013	addi	x0,x0,0	  x0:0x00000000
       45715000	      4570	800015d8	c5d64193	xori	x3,x12,-931	 x12:0x00000000  x3=0xfffffc5d
       45725000	      4571	800015dc	673bb337	lui	x6,0x673bb	  x6=0x673bb000
       45735000	      4572	800015e0	a077cc13	xori	x24,x15,-1529	 x15:0x064d32f1 x24=0xf9b2c8f6
       45745000	      4573	800015e4	02ac0e63	beq	x24,x10,80001620	 x24:0xf9b2c8f6 x10:0x80009fc4
       45755000	      4574	800015e8	055fc863	blt	x31,x21,80001638	 x31:0x00000000 x21:0x4d3e437c
       45765000	      4575	00000000	00000013	addi	x0,x0,0	  x0:0x00000000
       45775000	      4576	80001634	00000013	addi	x0,x0,0	  x0:0x00000000
       45785000	      4577	80001638	00a5a8b3	slt	x17,x11,x10	 x11:0xffffff52 x10:0x80009fc4 x17=0x00000000
       45795000	      4578	8000163c	2464c837	lui	x16,0x2464c	 x16=0x2464c000
       45805000	      4579	80001640	013a5313	srli	x6,x20,0x13	 x20:0x6bcaf001  x6=0x00000d79
       45815000	      4580	80001644	a4be8e93	addi	x29,x29,-1461	 x29:0x94350ffe x29=0x94350a49
       45825000	      4581	80001648	01ac02b3	add	x5,x24,x26	 x24:0xf9b2c8f6 x26:0x3f04166e  x5=0x38b6df64
       45835000	      4582	8000164c	0141e4b3	or	x9,x3,x20	  x3:0xfffffc5d x20:0x6bcaf001  x9=0xfffffc5d
       45845000	      4583	80001650	41265693	srai	x13,x12,0x12	 x12:0x00000000 x13=0x00000000
       45855000	      4584	80001654	403a5633	sra	x12,x20,x3	 x20:0x6bcaf001  x3:0xfffffc5d x12=0x00000003
       45865000	      4585	80001658	a294e393	ori	x7,x9,-1495	  x9:0xfffffc5d  x7=0xfffffe7d
       45875000	      4586	8000165c	02a40463	beq	x8,x10,80001684	  x8:0xfffffffe x10:0x80009fc4
       45885000	      4587	80001660	ab024a93	xori	x21,x4,-1360	  x4:0x5f01f250 x21=0xa0fe08e0
       45895000	      4588	80001664	007aec63	bltu	x21,x7,8000167c	 x21:0xa0fe08e0  x7:0xfffffe7d
       45905000	      4589	00000000	00000013	addi	x0,x0,0	  x0:0x00000000
       45915000	      4590	80001678	00000013	addi	x0,x0,0	  x0:0x00000000
       45925000	      4591	8000167c	a42be5b7	lui	x11,0xa42be	 x11=0xa42be000
       45935000	      4592	80001680	01f37d33	and	x26,x6,x31	  x6:0x00000d79 x31:0x00000000 x26=0x00000000
       45945000	      4593	80001684	25293193	sltiu	x3,x18,594	 x18:0x80009ebc  x3=0x00000000
       45955000	      4594	80001688	a1dfc413	xori	x8,x31,-1507	 x31:0x00000000  x8=0xfffffa1d
       45965000	      4595	8000168c	003ffe33	and	x28,x31,x3	 x31:0x00000000  x3:0x00000000 x28=0x00000000
       45975000	      4596	80001690	e5488793	addi	x15,x17,-428	 x17:0x00000000 x15=0xfffffe54
       45985000	      4597	80001694	00bdbfb3	sltu	x31,x27,x11	 x27:0x00000000 x11:0xa42be000 x31=0x00000001
       45995000	      4598	80001698	008caf33	slt	x30,x25,x8	 x25:0x6bcaf000  x8:0xfffffa1d x30=0x00000000
       46005000	      4599	8000169c	017afb33	and	x22,x21,x23	 x21:0xa0fe08e0 x23:0x80000000 x22=0x80000000
       46015000	      4600	800016a0	0152e233	or	x4,x5,x21	  x5:0x38b6df64 x21:0xa0fe08e0  x4=0xb8fedfe4
       46025000	      4601	800016a4	047be463	bltu	x23,x7,800016ec	 x23:0x80000000  x7:0xfffffe7d
       46035000	      4602	00000000	00000013	addi	x0,x0,0	  x0:0x00000000
       46045000	      4603	800016e8	00000013	addi	x0,x0,0	  x0:0x00000000
       46055000	      4604	800016ec	00045e93	srli	x29,x8,0x0	  x8:0xfffffa1d x29=0xfffffa1d
       46065000	      4605	800016f0	c32e6393	ori	x7,x28,-974	 x28:0x00000000  x7=0xfffffc32
       46075000	      4606	800016f4	01bd9a63	bne	x27,x27,80001708	 x27:0x00000000 x27:0x00000000
       46085000	      4607	800016f8	0cee4063	blt	x28,x14,800017b8	 x28:0x00000000 x14:0xe07df294
       46095000	      4608	800016fc	41b8db93	srai	x23,x17,0x1b	 x17:0x00000000 x23=0x00000000
       46105000	      4609	80001700	73a1f813	andi	x16,x3,1850	  x3:0x00000000 x16=0x00000000
       46115000	      4610	80001704	14f6d2b7	lui	x5,0x14f6d	  x5=0x14f6d000
       46125000	      4611	80001708	01765433	srl	x8,x12,x23	 x12:0x00000003 x23:0x00000000  x8=0x00000003
       46135000	      4612	8000170c	ff89aa13	slti	x20,x19,-8	 x19:0x1f820b37 x20=0x00000000
       46145000	      4613	80001710	0953d863	bge	x7,x21,800017a0	  x7:0xfffffc32 x21:0xa0fe08e0
       46155000	      4614	00000000	00000013	addi	x0,x0,0	  x0:0x00000000
       46165000	      4615	8000179c	00000013	addi	x0,x0,0	  x0:0x00000000
       46175000	      4616	800017a0	dab40fb7	lui	x31,0xdab40	 x31=0xdab40000
       46185000	      4617	800017a4	41655093	srai	x1,x10,0x16	 x10:0x80009fc4  x1=0xfffffe00
       46195000	      4618	800017a8	0042d213	srli	x4,x5,0x4	  x5:0x14f6d000  x4=0x014f6d00
       46205000	      4619	800017ac	fecf6f93	ori	x31,x30,-20	 x30:0x00000000 x31=0xffffffec
       46215000	      4620	800017b0	0040df93	srli	x31,x1,0x4	  x1:0xfffffe00 x31=0x0fffffe0
       46225000	      4621	800017b4	40d051b3	sra	x3,x0,x13	  x0:0x00000000 x13:0x00000000  x3=0x00000000
       46235000	      4622	800017b8	01d65d33	srl	x26,x12,x29	 x12:0x00000003 x29:0xfffffa1d x26=0x00000000
       46245000	      4623	800017bc	03b96663	bltu	x18,x27,800017e8	 x18:0x80009ebc x27:0x00000000
       46255000	      4624	800017c0	016c64b3	or	x9,x24,x22	 x24:0xf9b2c8f6 x22:0x80000000  x9=0xf9b2c8f6
       46265000	      4625	800017c4	04670663	beq	x14,x6,80001810	 x14:0xe07df294  x6:0x00000d79
       46275000	      4626	800017c8	00c35ab3	srl	x21,x6,x12	  x6:0x00000d79 x12:0x00000003 x21=0x000001af
       46285000	      4627	800017cc	03c46063	bltu	x8,x28,800017ec	  x8:0x00000003 x28:0x00000000
       46295000	      4628	800017d0	04775263	bge	x14,x7,80001814	 x14:0xe07df294  x7:0xfffffc32
       46305000	      4629	800017d4	018b1693	slli	x13,x22,0x18	 x22:0x80000000 x13=0x00000000
       46315000	      4630	800017d8	017c1113	slli	x2,x24,0x17	 x24:0xf9b2c8f6  x2=0x7b000000
       46325000	      4631	800017dc	01e0a0b3	slt	x1,x1,x30	  x1:0xfffffe00 x30:0x00000000  x1=0x00000001
       46335000	      4632	800017e0	d60ea1b7	lui	x3,0xd60ea	  x3=0xd60ea000
       46345000	      4633	800017e4	04345263	bge	x8,x3,80001828	  x8:0x00000003  x3:0xd60ea000
       46355000	      4634	00000000	00000013	addi	x0,x0,0	  x0:0x00000000
       46365000	      4635	80001824	00000013	addi	x0,x0,0	  x0:0x00000000
       46375000	      4636	80001828	0189db33	srl	x22,x19,x24	 x19:0x1f820b37 x24:0xf9b2c8f6 x22=0x0000007e
       46385000	      4637	8000182c	404ed1b3	sra	x3,x29,x4	 x29:0xfffffa1d  x4:0x014f6d00  x3=0xfffffa1d
       46395000	      4638	80001830	67effa13	andi	x20,x31,1662	 x31:0x0fffffe0 x20=0x00000660
       46405000	      4639	80001834	015633b3	sltu	x7,x12,x21	 x12:0x00000003 x21:0x000001af  x7=0x00000001
       46415000	      4640	80001838	03941263	bne	x8,x25,8000185c	  x8:0x00000003 x25:0x6bcaf000
       46425000	      4641	00000000	00000013	addi	x0,x0,0	  x0:0x00000000
       46435000	      4642	80001858	00000013	addi	x0,x0,0	  x0:0x00000000
       46445000	      4643	8000185c	f7477a13	andi	x20,x14,-140	 x14:0xe07df294 x20=0xe07df214
       46455000	      4644	80001860	0010beb3	sltu	x29,x1,x1	  x1:0x00000001  x1:0x00000001 x29=0x00000000
       46465000	      4645	80001864	008d5713	srli	x14,x26,0x8	 x26:0x00000000 x14=0x00000000
       46475000	      4646	80001868	007e1813	slli	x16,x28,0x7	 x28:0x00000000 x16=0x00000000
       46485000	      4647	8000186c	410c5993	srai	x19,x24,0x10	 x24:0xf9b2c8f6 x19=0xfffff9b2
       46495000	      4648	80001870	01c4c263	blt	x9,x28,80001874	  x9:0xf9b2c8f6 x28:0x00000000
       46505000	      4649	00000000	00000013	addi	x0,x0,0	  x0:0x00000000
       46515000	      4650	80001870	00000013	addi	x0,x0,0	  x0:0x00000000
       46525000	      4651	80001874	004650b3	srl	x1,x12,x4	 x12:0x00000003  x4:0x014f6d00  x1=0x00000003
       46535000	      4652	80001878	7c9d2e37	lui	x28,0x7c9d2	 x28=0x7c9d2000
       46545000	      4653	8000187c	00a402b3	add	x5,x8,x10	  x8:0x00000003 x10:0x80009fc4  x5=0x80009fc7
       46555000	      4654	80001880	014cbc33	sltu	x24,x25,x20	 x25:0x6bcaf000 x20:0xe07df214 x24=0x00000001
       46565000	      4655	80001884	01fe9133	sll	x2,x29,x31	 x29:0x00000000 x31:0x0fffffe0  x2=0x00000000
       46575000	      4656	80001888	8ac1c893	xori	x17,x3,-1876	  x3:0xfffffa1d x17=0x000002b1
       46585000	      4657	8000188c	00000013	addi	x0,x0,0	  x0:0x00000000
       46595000	      4658	80001890	005f2833	slt	x16,x30,x5	 x30:0x00000000  x5:0x80009fc7 x16=0x00000000
       46605000	      4659	80001894	f0bfe793	ori	x15,x31,-245	 x31:0x0fffffe0 x15=0xffffffeb
       46615000	      4660	80001898	01b75c13	srli	x24,x14,0x1b	 x14:0x00000000 x24=0x00000000
       46625000	      4661	8000189c	05469663	bne	x13,x20,800018e8	 x13:0x00000000 x20:0xe07df214
       46635000	      4662	00000000	00000013	addi	x0,x0,0	  x0:0x00000000
       46645000	      4663	800018e4	00000013	addi	x0,x0,0	  x0:0x00000000
       46655000	      4664	800018e8	20864b93	xori	x23,x12,520	 x12:0x00000003 x23=0x0000020b
       46665000	      4665	800018ec	04bd0c93	addi	x25,x26,75	 x26:0x00000000 x25=0x0000004b
       46675000	      4666	800018f0	01bba433	slt	x8,x23,x27	 x23:0x0000020b x27:0x00000000  x8=0x00000000
       46685000	      4667	800018f4	01637b33	and	x22,x6,x22	  x6:0x00000d79 x22:0x0000007e x22=0x00000078
       46695000	      4668	800018f8	03889e63	bne	x17,x24,80001934	 x17:0x000002b1 x24:0x00000000
       46705000	      4669	00000000	00000013	addi	x0,x0,0	  x0:0x00000000
       46715000	      4670	80001930	00000013	addi	x0,x0,0	  x0:0x00000000
       46725000	      4671	80001934	016be2b3	or	x5,x23,x22	 x23:0x0000020b x22:0x00000078  x5=0x0000027b
       46735000	      4672	80001938	02317663	bgeu	x2,x3,80001964	  x2:0x00000000  x3:0xfffffa1d
       46745000	      4673	8000193c	d26a0993	addi	x19,x20,-730	 x20:0xe07df214 x19=0xe07def3a
       46755000	      4674	80001940	039b7e63	bgeu	x22,x25,8000197c	 x22:0x00000078 x25:0x0000004b
       46765000	      4675	00000000	00000013	addi	x0,x0,0	  x0:0x00000000
       46775000	      4676	80001978	00000013	addi	x0,x0,0	  x0:0x00000000
       46785000	      4677	8000197c	00000013	addi	x0,x0,0	  x0:0x00000000
       46795000	      4678	80001980	00189a13	slli	x20,x17,0x1	 x17:0x000002b1 x20=0x00000562
       46805000	      4679	80001984	418b04b3	sub	x9,x22,x24	 x22:0x00000078 x24:0x00000000  x9=0x00000078
       46815000	      4680	80001988	04b70463	beq	x14,x11,800019d0	 x14:0x00000000 x11:0xa42be000
       46825000	      4681	8000198c	00000013	addi	x0,x0,0	  x0:0x00000000
       46835000	      4682	80001990	41645293	srai	x5,x8,0x16	  x8:0x00000000  x5=0x00000000
       46845000	      4683	80001994	00bbc863	blt	x23,x11,800019a4	 x23:0x0000020b x11:0xa42be000
       46855000	      4684	80001998	3f43cc93	xori	x25,x7,1012	  x7:0x00000001 x25=0x000003f5
       46865000	      4685	8000199c	3162e717	auipc	x14,0x3162e	 x14=0xb162f998
       46875000	      4686	800019a0	05660663	beq	x12,x22,800019ec	 x12:0x00000003 x22:0x00000078
       46885000	      4687	800019a4	011d9833	sll	x16,x27,x17	 x27:0x00000000 x17:0x000002b1 x16=0x00000000
       46895000	      4688	800019a8	0497c463	blt	x15,x9,800019f0	 x15:0xffffffeb  x9:0x00000078
       46905000	      4689	00000000	00000013	addi	x0,x0,0	  x0:0x00000000
       46915000	      4690	800019ec	00000013	addi	x0,x0,0	  x0:0x00000000
       46925000	      4691	800019f0	00e76cb3	or	x25,x14,x14	 x14:0xb162f998 x14:0xb162f998 x25=0xb162f998
       46935000	      4692	800019f4	02926c63	bltu	x4,x9,80001a2c	  x4:0x014f6d00  x9:0x00000078
       46945000	      4693	800019f8	68f1ec13	ori	x24,x3,1679	  x3:0xfffffa1d x24=0xfffffe9f
       46955000	      4694	800019fc	00c41c13	slli	x24,x8,0xc	  x8:0x00000000 x24=0x00000000
       46965000	      4695	80001a00	419a5033	sra	x0,x20,x25	 x20:0x00000562 x25:0xb162f998
       46975000	      4696	80001a04	66929d17	auipc	x26,0x66929	 x26=0xe692aa00
       46985000	      4697	80001a08	66032213	slti	x4,x6,1632	  x6:0x00000d79  x4=0x00000000
       46995000	      4698	80001a0c	4149d093	srai	x1,x19,0x14	 x19:0xe07def3a  x1=0xfffffe07
       47005000	      4699	80001a10	00000013	addi	x0,x0,0	  x0:0x00000000
       47015000	      4700	80001a14	140a7c93	andi	x25,x20,320	 x20:0x00000562 x25=0x00000140
       47025000	      4701	80001a18	404ed033	sra	x0,x29,x4	 x29:0x00000000  x4:0x00000000
       47035000	      4702	80001a1c	41e9dab3	sra	x21,x19,x30	 x19:0xe07def3a x30:0x00000000 x21=0xe07def3a
       47045000	      4703	80001a20	00148333	add	x6,x9,x1	  x9:0x00000078  x1:0xfffffe07  x6=0xfffffe7f
       47055000	      4704	80001a24	29494893	xori	x17,x18,660	 x18:0x80009ebc x17=0x80009c28
       47065000	      4705	80001a28	0104cd33	xor	x26,x9,x16	  x9:0x00000078 x16:0x00000000 x26=0x00000078
       47075000	      4706	80001a2c	fb473a93	sltiu	x21,x14,-76	 x14:0xb162f998 x21=0x00000001
       47085000	      4707	80001a30	0025c0b3	xor	x1,x11,x2	 x11:0xa42be000  x2:0x00000000  x1=0xa42be000
       47095000	      4708	80001a34	01b797b3	sll	x15,x15,x27	 x15:0xffffffeb x27:0x00000000 x15=0xffffffeb
       47105000	      4709	80001a38	01ee7263	bgeu	x28,x30,80001a3c	 x28:0x7c9d2000 x30:0x00000000
       47115000	      4710	00000000	00000013	addi	x0,x0,0	  x0:0x00000000
       47125000	      4711	80001a38	00000013	addi	x0,x0,0	  x0:0x00000000
       47135000	      4712	80001a3c	01b6a033	slt	x0,x13,x27	 x13:0x00000000 x27:0x00000000
       47145000	      4713	80001a40	019457b3	srl	x15,x8,x25	  x8:0x00000000 x25:0x00000140 x15=0x00000000
       47155000	      4714	80001a44	415cd713	srai	x14,x25,0x15	 x25:0x00000140 x14=0x00000000
       47165000	      4715	80001a48	01c370b3	and	x1,x6,x28	  x6:0xfffffe7f x28:0x7c9d2000  x1=0x7c9d2000
       47175000	      4716	80001a4c	408a03b3	sub	x7,x20,x8	 x20:0x00000562  x8:0x00000000  x7=0x00000562
       47185000	      4717	80001a50	2cdf2c13	slti	x24,x30,717	 x30:0x00000000 x24=0x00000001
       47195000	      4718	80001a54	109aa693	slti	x13,x21,265	 x21:0x00000001 x13=0x00000001
       47205000	      4719	80001a58	4473f993	andi	x19,x7,1095	  x7:0x00000562 x19=0x00000442
       47215000	      4720	80001a5c	409e5a33	sra	x20,x28,x9	 x28:0x7c9d2000  x9:0x00000078 x20=0x0000007c
       47225000	      4721	80001a60	0093a433	slt	x8,x7,x9	  x7:0x00000562  x9:0x00000078  x8=0x00000000
       47235000	      4722	80001a64	01c83033	sltu	x0,x16,x28	 x16:0x00000000 x28:0x7c9d2000
       47245000	      4723	80001a68	d3a0f613	andi	x12,x1,-710	  x1:0x7c9d2000 x12=0x7c9d2000
       47255000	      4724	80001a6c	012965b3	or	x11,x18,x18	 x18:0x80009ebc x18:0x80009ebc x11=0x80009ebc
       47265000	      4725	80001a70	41545213	srai	x4,x8,0x15	  x8:0x00000000  x4=0x00000000
       47275000	      4726	80001a74	04156463	bltu	x10,x1,80001abc	 x10:0x80009fc4  x1:0x7c9d2000
       47285000	      4727	80001a78	05d7f263	bgeu	x15,x29,80001abc	 x15:0x00000000 x29:0x00000000
       47295000	      4728	00000000	00000013	addi	x0,x0,0	  x0:0x00000000
       47305000	      4729	80001ab8	00000013	addi	x0,x0,0	  x0:0x00000000
       47315000	      4730	80001abc	51c98613	addi	x12,x19,1308	 x19:0x00000442 x12=0x0000095e
       47325000	      4731	80001ac0	00315a63	bge	x2,x3,80001ad4	  x2:0x00000000  x3:0xfffffa1d
       47335000	      4732	00000000	00000013	addi	x0,x0,0	  x0:0x00000000
       47345000	      4733	80001ad0	00000013	addi	x0,x0,0	  x0:0x00000000
       47355000	      4734	80001ad4	40a05633	sra	x12,x0,x10	  x0:0x00000000 x10:0x80009fc4 x12=0x00000000
       47365000	      4735	80001ad8	7eacfd37	lui	x26,0x7eacf	 x26=0x7eacf000
       47375000	      4736	80001adc	d930f893	andi	x17,x1,-621	  x1:0x7c9d2000 x17=0x7c9d2000
       47385000	      4737	80001ae0	002da2b3	slt	x5,x27,x2	 x27:0x00000000  x2:0x00000000  x5=0x00000000
       47395000	      4738	80001ae4	0174a833	slt	x16,x9,x23	  x9:0x00000078 x23:0x0000020b x16=0x00000001
       47405000	      4739	80001ae8	41fd05b3	sub	x11,x26,x31	 x26:0x7eacf000 x31:0x0fffffe0 x11=0x6eacf020
       47415000	      4740	80001aec	005084b3	add	x9,x1,x5	  x1:0x7c9d2000  x5:0x00000000  x9=0x7c9d2000
       47425000	      4741	80001af0	012637b3	sltu	x15,x12,x18	 x12:0x00000000 x18:0x80009ebc x15=0x00000001
       47435000	      4742	80001af4	00000013	addi	x0,x0,0	  x0:0x00000000
       47445000	      4743	80001af8	00e0dab3	srl	x21,x1,x14	  x1:0x7c9d2000 x14:0x00000000 x21=0x7c9d2000
       47455000	      4744	80001afc	e07de213	ori	x4,x27,-505	 x27:0x00000000  x4=0xfffffe07
       47465000	      4745	80001b00	05c28863	beq	x5,x28,80001b50	  x5:0x00000000 x28:0x7c9d2000
       47475000	      4746	80001b04	40005a93	srai	x21,x0,0x0	  x0:0x00000000 x21=0x00000000
       47485000	      4747	80001b08	00000013	addi	x0,x0,0	  x0:0x00000000
       47495000	      4748	80001b0c	9e9c3413	sltiu	x8,x24,-1559	 x24:0x00000001  x8=0x00000001
       47505000	      4749	80001b10	004934b3	sltu	x9,x18,x4	 x18:0x80009ebc  x4:0xfffffe07  x9=0x00000001
       47515000	      4750	80001b14	73a87393	andi	x7,x16,1850	 x16:0x00000001  x7=0x00000000
       47525000	      4751	80001b18	03096063	bltu	x18,x16,80001b38	 x18:0x80009ebc x16:0x00000001
       47535000	      4752	80001b1c	01c11193	slli	x3,x2,0x1c	  x2:0x00000000  x3=0x00000000
       47545000	      4753	80001b20	011518b3	sll	x17,x10,x17	 x10:0x80009fc4 x17:0x7c9d2000 x17=0x80009fc4
       47555000	      4754	80001b24	01c53433	sltu	x8,x10,x28	 x10:0x80009fc4 x28:0x7c9d2000  x8=0x00000000
       47565000	      4755	80001b28	00e76733	or	x14,x14,x14	 x14:0x00000000 x14:0x00000000 x14=0x00000000
       47575000	      4756	80001b2c	411d5793	srai	x15,x26,0x11	 x26:0x7eacf000 x15=0x00003f56
       47585000	      4757	80001b30	c1a98117	auipc	x2,0xc1a98	  x2=0x41a99b2c
       47595000	      4758	80001b34	00000013	addi	x0,x0,0	  x0:0x00000000
       47605000	      4759	80001b38	41ab5713	srai	x14,x22,0x1a	 x22:0x00000078 x14=0x00000000
       47615000	      4760	80001b3c	96a04237	lui	x4,0x96a04	  x4=0x96a04000
       47625000	      4761	80001b40	97507217	auipc	x4,0x97507	  x4=0x17508b3c
       47635000	      4762	80001b44	00c38733	add	x14,x7,x12	  x7:0x00000000 x12:0x00000000 x14=0x00000000
       47645000	      4763	80001b48	de5cf093	andi	x1,x25,-539	 x25:0x00000140  x1=0x00000140
       47655000	      4764	80001b4c	46783013	sltiu	x0,x16,1127	 x16:0x00000001
       47665000	      4765	80001b50	c2822693	slti	x13,x4,-984	  x4:0x17508b3c x13=0x00000000
       47675000	      4766	80001b54	01bfc1b3	xor	x3,x31,x27	 x31:0x0fffffe0 x27:0x00000000  x3=0x0fffffe0
       47685000	      4767	80001b58	047c9863	bne	x25,x7,80001ba8	 x25:0x00000140  x7:0x00000000
       47695000	      4768	00000000	00000013	addi	x0,x0,0	  x0:0x00000000
       47705000	      4769	80001ba4	00000013	addi	x0,x0,0	  x0:0x00000000
       47715000	      4770	80001ba8	026d7663	bgeu	x26,x6,80001bd4	 x26:0x7eacf000  x6:0xfffffe7f
       47725000	      4771	80001bac	01a8ccb3	xor	x25,x17,x26	 x17:0x80009fc4 x26:0x7eacf000 x25=0xfeac6fc4
       47735000	      4772	80001bb0	031a5063	bge	x20,x17,80001bd0	 x20:0x0000007c x17:0x80009fc4
       47745000	      4773	00000000	00000013	addi	x0,x0,0	  x0:0x00000000
       47755000	      4774	80001bcc	00000013	addi	x0,x0,0	  x0:0x00000000
       47765000	      4775	80001bd0	00b90d33	add	x26,x18,x11	 x18:0x80009ebc x11:0x6eacf020 x26=0xeead8edc
       47775000	      4776	80001bd4	01de9413	slli	x8,x29,0x1d	 x29:0x00000000  x8=0x00000000
       47785000	      4777	80001bd8	7ac60b13	addi	x22,x12,1964	 x12:0x00000000 x22=0x000007ac
       47795000	      4778	80001bdc	004e8bb3	add	x23,x29,x4	 x29:0x00000000  x4:0x17508b3c x23=0x17508b3c
       47805000	      4779	80001be0	26b29e97	auipc	x29,0x26b29	 x29=0xa6b2abdc
       47815000	      4780	80001be4	03d2dd37	lui	x26,0x3d2d	 x26=0x03d2d000
       47825000	      4781	80001be8	c3fe1137	lui	x2,0xc3fe1	  x2=0xc3fe1000
       47835000	      4782	80001bec	00a84263	blt	x16,x10,80001bf0	 x16:0x00000001 x10:0x80009fc4
       47845000	      4783	80001bf0	00a006b3	add	x13,x0,x10	  x0:0x00000000 x10:0x80009fc4 x13=0x80009fc4
       47855000	      4784	80001bf4	019703b3	add	x7,x14,x25	 x14:0x00000000 x25:0xfeac6fc4  x7=0xfeac6fc4
       47865000	      4785	80001bf8	01fa03b3	add	x7,x20,x31	 x20:0x0000007c x31:0x0fffffe0  x7=0x1000005c
       47875000	      4786	80001bfc	05fd5663	bge	x26,x31,80001c48	 x26:0x03d2d000 x31:0x0fffffe0
       47885000	      4787	80001c00	0073fbb3	and	x23,x7,x7	  x7:0x1000005c  x7:0x1000005c x23=0x1000005c
       47895000	      4788	80001c04	01c24813	xori	x16,x4,28	  x4:0x17508b3c x16=0x17508b20
       47905000	      4789	80001c08	0228cc63	blt	x17,x2,80001c40	 x17:0x80009fc4  x2:0xc3fe1000
       47915000	      4790	00000000	00000013	addi	x0,x0,0	  x0:0x00000000
       47925000	      4791	80001c3c	00000013	addi	x0,x0,0	  x0:0x00000000
       47935000	      4792	80001c40	222b7a13	andi	x20,x22,546	 x22:0x000007ac x20=0x00000220
       47945000	      4793	80001c44	01bf84b3	add	x9,x31,x27	 x31:0x0fffffe0 x27:0x00000000  x9=0x0fffffe0
       47955000	      4794	80001c48	05a06663	bltu	x0,x26,80001c94	  x0:0x00000000 x26:0x03d2d000
       47965000	      4795	00000000	00000013	addi	x0,x0,0	  x0:0x00000000
       47975000	      4796	80001c90	00000013	addi	x0,x0,0	  x0:0x00000000
       47985000	      4797	80001c94	26daea13	ori	x20,x21,621	 x21:0x00000000 x20=0x0000026d
       47995000	      4798	80001c98	0172beb3	sltu	x29,x5,x23	  x5:0x00000000 x23:0x1000005c x29=0x00000001
       48005000	      4799	80001c9c	016794b3	sll	x9,x15,x22	 x15:0x00003f56 x22:0x000007ac  x9=0x03f56000
       48015000	      4800	80001ca0	01aa38b3	sltu	x17,x20,x26	 x20:0x0000026d x26:0x03d2d000 x17=0x00000001
       48025000	      4801	80001ca4	58cac793	xori	x15,x21,1420	 x21:0x00000000 x15=0x0000058c
       48035000	      4802	80001ca8	d62383b7	lui	x7,0xd6238	  x7=0xd6238000
       48045000	      4803	80001cac	3c11f393	andi	x7,x3,961	  x3:0x0fffffe0  x7=0x000003c0
       48055000	      4804	80001cb0	a856c113	xori	x2,x13,-1403	 x13:0x80009fc4  x2=0x7fff6541
       48065000	      4805	80001cb4	01ab6d33	or	x26,x22,x26	 x22:0x000007ac x26:0x03d2d000 x26=0x03d2d7ac
       48075000	      4806	80001cb8	01e24cb3	xor	x25,x4,x30	  x4:0x17508b3c x30:0x00000000 x25=0x17508b3c
       48085000	      4807	80001cbc	01913bb3	sltu	x23,x2,x25	  x2:0x7fff6541 x25:0x17508b3c x23=0x00000000
       48095000	      4808	80001cc0	f2da6c93	ori	x25,x20,-211	 x20:0x0000026d x25=0xffffff6d
       48105000	      4809	80001cc4	adb7f693	andi	x13,x15,-1317	 x15:0x0000058c x13=0x00000088
       48115000	      4810	80001cc8	41498c33	sub	x24,x19,x20	 x19:0x00000442 x20:0x0000026d x24=0x000001d5
       48125000	      4811	80001ccc	033a1063	bne	x20,x19,80001cec	 x20:0x0000026d x19:0x00000442
       48135000	      4812	00000000	00000013	addi	x0,x0,0	  x0:0x00000000
       48145000	      4813	80001ce8	00000013	addi	x0,x0,0	  x0:0x00000000
       48155000	      4814	80001cec	8dbe32b7	lui	x5,0x8dbe3	  x5=0x8dbe3000
       48165000	      4815	80001cf0	81a08413	addi	x8,x1,-2022	  x1:0x00000140  x8=0xfffff95a
       48175000	      4816	80001cf4	0154cbb3	xor	x23,x9,x21	  x9:0x03f56000 x21:0x00000000 x23=0x03f56000
       48185000	      4817	80001cf8	008a7263	bgeu	x20,x8,80001cfc	 x20:0x0000026d  x8:0xfffff95a
       48195000	      4818	80001cfc	0107d793	srli	x15,x15,0x10	 x15:0x0000058c x15=0x00000000
       48205000	      4819	80001d00	00319393	slli	x7,x3,0x3	  x3:0x0fffffe0  x7=0x7fffff00
       48215000	      4820	80001d04	6e3c4313	xori	x6,x24,1763	 x24:0x000001d5  x6=0x00000736
       48225000	      4821	80001d08	05ed5063	bge	x26,x30,80001d48	 x26:0x03d2d7ac x30:0x00000000
       48235000	      4822	00000000	00000013	addi	x0,x0,0	  x0:0x00000000
       48245000	      4823	80001d44	00000013	addi	x0,x0,0	  x0:0x00000000
       48255000	      4824	80001d48	fb5aba93	sltiu	x21,x21,-75	 x21:0x00000000 x21=0x00000001
       48265000	      4825	80001d4c	41068f33	sub	x30,x13,x16	 x13:0x00000088 x16:0x17508b20 x30=0xe8af7568
       48275000	      4826	80001d50	00e59e13	slli	x28,x11,0xe	 x11:0x6eacf020 x28=0x3c080000
       48285000	      4827	80001d54	01a81433	sll	x8,x16,x26	 x16:0x17508b20 x26:0x03d2d7ac  x8=0x08b20000
       48295000	      4828	80001d58	03620c63	beq	x4,x22,80001d90	  x4:0x17508b3c x22:0x000007ac
       48305000	      4829	80001d5c	41a60cb3	sub	x25,x12,x26	 x12:0x00000000 x26:0x03d2d7ac x25=0xfc2d2854
       48315000	      4830	80001d60	014b88b3	add	x17,x23,x20	 x23:0x03f56000 x20:0x0000026d x17=0x03f5626d
       48325000	      4831	80001d64	01027433	and	x8,x4,x16	  x4:0x17508b3c x16:0x17508b20  x8=0x17508b20
       48335000	      4832	80001d68	4156da33	sra	x20,x13,x21	 x13:0x00000088 x21:0x00000001 x20=0x00000044
       48345000	      4833	80001d6c	efa24717	auipc	x14,0xefa24	 x14=0x6fa25d68
       48355000	      4834	80001d70	036cf863	bgeu	x25,x22,80001da0	 x25:0xfc2d2854 x22:0x000007ac
       48365000	      4835	00000000	00000013	addi	x0,x0,0	  x0:0x00000000
       48375000	      4836	80001d9c	00000013	addi	x0,x0,0	  x0:0x00000000
       48385000	      4837	80001da0	016eb0b3	sltu	x1,x29,x22	 x29:0x00000001 x22:0x000007ac  x1=0x00000001
       48395000	      4838	80001da4	4042dcb3	sra	x25,x5,x4	  x5:0x8dbe3000  x4:0x17508b3c x25=0xfffffff8
       48405000	      4839	80001da8	404ed393	srai	x7,x29,0x4	 x29:0x00000001  x7=0x00000000
       48415000	      4840	80001dac	03ac6e63	bltu	x24,x26,80001de8	 x24:0x000001d5 x26:0x03d2d7ac
       48425000	      4841	00000000	00000013	addi	x0,x0,0	  x0:0x00000000
       48435000	      4842	80001de4	00000013	addi	x0,x0,0	  x0:0x00000000
       48445000	      4843	80001de8	04674263	blt	x14,x6,80001e2c	 x14:0x6fa25d68  x6:0x00000736
       48455000	      4844	80001dec	4159d993	srai	x19,x19,0x15	 x19:0x00000442 x19=0x00000000
       48465000	      4845	80001df0	00000013	addi	x0,x0,0	  x0:0x00000000
       48475000	      4846	80001df4	39a40113	addi	x2,x8,922	  x8:0x17508b20  x2=0x17508eba
       48485000	      4847	80001df8	05aa9463	bne	x21,x26,80001e40	 x21:0x00000001 x26:0x03d2d7ac
       48495000	      4848	00000000	00000013	addi	x0,x0,0	  x0:0x00000000
       48505000	      4849	80001e3c	00000013	addi	x0,x0,0	  x0:0x00000000
       48515000	      4850	80001e40	045a6863	bltu	x20,x5,80001e90	 x20:0x00000044  x5:0x8dbe3000
       48525000	      4851	00000000	00000013	addi	x0,x0,0	  x0:0x00000000
       48535000	      4852	80001e8c	00000013	addi	x0,x0,0	  x0:0x00000000
       48545000	      4853	80001e90	00000013	addi	x0,x0,0	  x0:0x00000000
       48555000	      4854	80001e94	31ba6093	ori	x1,x20,795	 x20:0x00000044  x1=0x0000035f
       48565000	      4855	80001e98	41338fb3	sub	x31,x7,x19	  x7:0x00000000 x19:0x00000000 x31=0x00000000
       48575000	      4856	80001e9c	63bfcc13	xori	x24,x31,1595	 x31:0x00000000 x24=0x0000063b
       48585000	      4857	80001ea0	04489863	bne	x17,x4,80001ef0	 x17:0x03f5626d  x4:0x17508b3c
       48595000	      4858	00000000	00000013	addi	x0,x0,0	  x0:0x00000000
       48605000	      4859	80001eec	00000013	addi	x0,x0,0	  x0:0x00000000
       48615000	      4860	80001ef0	003040b3	xor	x1,x0,x3	  x0:0x00000000  x3:0x0fffffe0  x1=0x0fffffe0
       48625000	      4861	80001ef4	7b85b337	lui	x6,0x7b85b	  x6=0x7b85b000
       48635000	      4862	80001ef8	01dfba33	sltu	x20,x31,x29	 x31:0x00000000 x29:0x00000001 x20=0x00000001
       48645000	      4863	80001efc	4efafa93	andi	x21,x21,1263	 x21:0x00000001 x21=0x00000001
       48655000	      4864	80001f00	41f88cb3	sub	x25,x17,x31	 x17:0x03f5626d x31:0x00000000 x25=0x03f5626d
       48665000	      4865	80001f04	0183e663	bltu	x7,x24,80001f10	  x7:0x00000000 x24:0x0000063b
       48675000	      4866	00000000	00000013	addi	x0,x0,0	  x0:0x00000000
       48685000	      4867	80001f0c	00000013	addi	x0,x0,0	  x0:0x00000000
       48695000	      4868	80001f10	019d68b3	or	x17,x26,x25	 x26:0x03d2d7ac x25:0x03f5626d x17=0x03f7f7ed
       48705000	      4869	80001f14	03944663	blt	x8,x25,80001f40	  x8:0x17508b20 x25:0x03f5626d
       48715000	      4870	80001f18	03e7ce63	blt	x15,x30,80001f54	 x15:0x00000000 x30:0xe8af7568
       48725000	      4871	80001f1c	003fd093	srli	x1,x31,0x3	 x31:0x00000000  x1=0x00000000
       48735000	      4872	80001f20	8030bf37	lui	x30,0x8030b	 x30=0x8030b000
       48745000	      4873	80001f24	01a50e33	add	x28,x10,x26	 x10:0x80009fc4 x26:0x03d2d7ac x28=0x83d37770
       48755000	      4874	80001f28	f96b0a13	addi	x20,x22,-106	 x22:0x000007ac x20=0x00000742
       48765000	      4875	80001f2c	01922bb3	slt	x23,x4,x25	  x4:0x17508b3c x25:0x03f5626d x23=0x00000000
       48775000	      4876	80001f30	0135bab3	sltu	x21,x11,x19	 x11:0x6eacf020 x19:0x00000000 x21=0x00000000
       48785000	      4877	80001f34	0261fe63	bgeu	x3,x6,80001f70	  x3:0x0fffffe0  x6:0x7b85b000
       48795000	      4878	80001f38	12f3c263	blt	x7,x15,8000205c	  x7:0x00000000 x15:0x00000000
       48805000	      4879	80001f3c	00871c33	sll	x24,x14,x8	 x14:0x6fa25d68  x8:0x17508b20 x24=0x6fa25d68
       48815000	      4880	80001f40	01429a33	sll	x20,x5,x20	  x5:0x8dbe3000 x20:0x00000742 x20=0x36f8c000
       48825000	      4881	80001f44	f19e4cb7	lui	x25,0xf19e4	 x25=0xf19e4000
       48835000	      4882	80001f48	0c3ba693	slti	x13,x23,195	 x23:0x00000000 x13=0x00000001
       48845000	      4883	80001f4c	415406b3	sub	x13,x8,x21	  x8:0x17508b20 x21:0x00000000 x13=0x17508b20
       48855000	      4884	80001f50	01cd7ab3	and	x21,x26,x28	 x26:0x03d2d7ac x28:0x83d37770 x21=0x03d25720
       48865000	      4885	80001f54	108f6a63	bltu	x30,x8,80002068	 x30:0x8030b000  x8:0x17508b20
       48875000	      4886	80001f58	1341f463	bgeu	x3,x20,80002080	  x3:0x0fffffe0 x20:0x36f8c000
       48885000	      4887	80001f5c	01428263	beq	x5,x20,80001f60	  x5:0x8dbe3000 x20:0x36f8c000
       48895000	      4888	80001f60	0e76fe63	bgeu	x13,x7,8000205c	 x13:0x17508b20  x7:0x00000000
       48905000	      4889	00000000	00000013	addi	x0,x0,0	  x0:0x00000000
       48915000	      4890	80002058	00000013	addi	x0,x0,0	  x0:0x00000000
       48925000	      4891	8000205c	9dda3293	sltiu	x5,x20,-1571	 x20:0x36f8c000  x5=0x00000001
       48935000	      4892	80002060	9b4d7713	andi	x14,x26,-1612	 x26:0x03d2d7ac x14=0x03d2d1a4
       48945000	      4893	80002064	0113ba33	sltu	x20,x7,x17	  x7:0x00000000 x17:0x03f7f7ed x20=0x00000001
       48955000	      4894	80002068	03b99c63	bne	x19,x27,800020a0	 x19:0x00000000 x27:0x00000000
       48965000	      4895	8000206c	00bf8033	add	x0,x31,x11	 x31:0x00000000 x11:0x6eacf020
       48975000	      4896	80002070	011f59b3	srl	x19,x30,x17	 x30:0x8030b000 x17:0x03f7f7ed x19=0x00040185
       48985000	      4897	80002074	df688c93	addi	x25,x17,-522	 x17:0x03f7f7ed x25=0x03f7f5e3
       48995000	      4898	80002078	013f9193	slli	x3,x31,0x13	 x31:0x00000000  x3=0x00000000
       49005000	      4899	8000207c	41a75a13	srai	x20,x14,0x1a	 x14:0x03d2d1a4 x20=0x00000000
       49015000	      4900	80002080	011f1f33	sll	x30,x30,x17	 x30:0x8030b000 x17:0x03f7f7ed x30=0x16000000
       49025000	      4901	80002084	748a6717	auipc	x14,0x748a6	 x14=0xf48a8080
       49035000	      4902	80002088	40d67613	andi	x12,x12,1037	 x12:0x00000000 x12=0x00000000
       49045000	      4903	8000208c	04a10463	beq	x2,x10,800020d4	  x2:0x17508eba x10:0x80009fc4
       49055000	      4904	80002090	400057b3	sra	x15,x0,x0	  x0:0x00000000  x0:0x00000000 x15=0x00000000
       49065000	      4905	80002094	0150bfb3	sltu	x31,x1,x21	  x1:0x00000000 x21:0x03d25720 x31=0x00000001
       49075000	      4906	80002098	4de14893	xori	x17,x2,1246	  x2:0x17508eba x17=0x17508a64
       49085000	      4907	8000209c	02f7f463	bgeu	x15,x15,800020c4	 x15:0x00000000 x15:0x00000000
       49095000	      4908	00000000	00000013	addi	x0,x0,0	  x0:0x00000000
       49105000	      4909	800020c0	00000013	addi	x0,x0,0	  x0:0x00000000
       49115000	      4910	800020c4	05104463	blt	x0,x17,8000210c	  x0:0x00000000 x17:0x17508a64
       49125000	      4911	00000000	00000013	addi	x0,x0,0	  x0:0x00000000
       49135000	      4912	80002108	00000013	addi	x0,x0,0	  x0:0x00000000
       49145000	      4913	8000210c	003a94b3	sll	x9,x21,x3	 x21:0x03d25720  x3:0x00000000  x9=0x03d25720
       49155000	      4914	80002110	0ce16d17	auipc	x26,0xce16	 x26=0x8ce1810c
       49165000	      4915	80002114	459ef093	andi	x1,x29,1113	 x29:0x00000001  x1=0x00000001
       49175000	      4916	80002118	04bc0863	beq	x24,x11,80002168	 x24:0x6fa25d68 x11:0x6eacf020
       49185000	      4917	8000211c	04d31863	bne	x6,x13,8000216c	  x6:0x7b85b000 x13:0x17508b20
       49195000	      4918	00000000	00000013	addi	x0,x0,0	  x0:0x00000000
       49205000	      4919	80002168	00000013	addi	x0,x0,0	  x0:0x00000000
       49215000	      4920	8000216c	00a277b3	and	x15,x4,x10	  x4:0x17508b3c x10:0x80009fc4 x15=0x00008b04
       49225000	      4921	80002170	0bcca013	slti	x0,x25,188	 x25:0x03f7f5e3
       49235000	      4922	80002174	28f54693	xori	x13,x10,655	 x10:0x80009fc4 x13=0x80009d4b
       49245000	      4923	80002178	04d8f663	bgeu	x17,x13,800021c4	 x17:0x17508a64 x13:0x80009d4b
       49255000	      4924	8000217c	0156b2b3	sltu	x5,x13,x21	 x13:0x80009d4b x21:0x03d25720  x5=0x00000000
       49265000	      4925	80002180	04e7c863	blt	x15,x14,800021d0	 x15:0x00008b04 x14:0xf48a8080
       49275000	      4926	80002184	03df8863	beq	x31,x29,800021b4	 x31:0x00000001 x29:0x00000001
       49285000	      4927	00000000	00000013	addi	x0,x0,0	  x0:0x00000000
       49295000	      4928	800021b0	00000013	addi	x0,x0,0	  x0:0x00000000
       49305000	      4929	800021b4	2421a817	auipc	x16,0x2421a	 x16=0xa421c1b0
       49315000	      4930	800021b8	409f0b33	sub	x22,x30,x9	 x30:0x16000000  x9:0x03d25720 x22=0x122da8e0
       49325000	      4931	800021bc	400bdb13	srai	x22,x23,0x0	 x23:0x00000000 x22=0x00000000
       49335000	      4932	800021c0	00000013	addi	x0,x0,0	  x0:0x00000000
       49345000	      4933	800021c4	0004ee33	or	x28,x9,x0	  x9:0x03d25720  x0:0x00000000 x28=0x03d25720
       49355000	      4934	800021c8	0130bb33	sltu	x22,x1,x19	  x1:0x00000001 x19:0x00040185 x22=0x00000001
       49365000	      4935	800021cc	03256063	bltu	x10,x18,800021ec	 x10:0x80009fc4 x18:0x80009ebc
       49375000	      4936	800021d0	38b7a193	slti	x3,x15,907	 x15:0x00008b04  x3=0x00000000
       49385000	      4937	800021d4	05949063	bne	x9,x25,80002214	  x9:0x03d25720 x25:0x03f7f5e3
       49395000	      4938	00000000	00000013	addi	x0,x0,0	  x0:0x00000000
       49405000	      4939	80002210	00000013	addi	x0,x0,0	  x0:0x00000000
       49415000	      4940	80002214	018d6a63	bltu	x26,x24,80002228	 x26:0x8ce1810c x24:0x6fa25d68
       49425000	      4941	80002218	011574b3	and	x9,x10,x17	 x10:0x80009fc4 x17:0x17508a64  x9=0x00008a44
       49435000	      4942	8000221c	00caf733	and	x14,x21,x12	 x21:0x03d25720 x12:0x00000000 x14=0x00000000
       49445000	      4943	80002220	01c92633	slt	x12,x18,x28	 x18:0x80009ebc x28:0x03d25720 x12=0x00000001
       49455000	      4944	80002224	01fde233	or	x4,x27,x31	 x27:0x00000000 x31:0x00000001  x4=0x00000001
       49465000	      4945	80002228	012e7bb3	and	x23,x28,x18	 x28:0x03d25720 x18:0x80009ebc x23=0x00001620
       49475000	      4946	8000222c	43cf3713	sltiu	x14,x30,1084	 x30:0x16000000 x14=0x00000000
       49485000	      4947	80002230	04b56663	bltu	x10,x11,8000227c	 x10:0x80009fc4 x11:0x6eacf020
       49495000	      4948	80002234	02736c63	bltu	x6,x7,8000226c	  x6:0x7b85b000  x7:0x00000000
       49505000	      4949	80002238	012a1293	slli	x5,x20,0x12	 x20:0x00000000  x5=0x00000000
       49515000	      4950	8000223c	a8f2e813	ori	x16,x5,-1393	  x5:0x00000000 x16=0xfffffa8f
       49525000	      4951	80002240	71fa7493	andi	x9,x20,1823	 x20:0x00000000  x9=0x00000000
       49535000	      4952	80002244	00d2e333	or	x6,x5,x13	  x5:0x00000000 x13:0x80009d4b  x6=0x80009d4b
       49545000	      4953	80002248	89803f93	sltiu	x31,x0,-1896	  x0:0x00000000 x31=0x00000001
       49555000	      4954	8000224c	403dde33	sra	x28,x27,x3	 x27:0x00000000  x3:0x00000000 x28=0x00000000
       49565000	      4955	80002250	01b89293	slli	x5,x17,0x1b	 x17:0x17508a64  x5=0x20000000
       49575000	      4956	80002254	019eafb3	slt	x31,x29,x25	 x29:0x00000001 x25:0x03f7f5e3 x31=0x00000001
       49585000	      4957	80002258	812595b7	lui	x11,0x81259	 x11=0x81259000
       49595000	      4958	8000225c	00bb7bb3	and	x23,x22,x11	 x22:0x00000001 x11:0x81259000 x23=0x00000000
       49605000	      4959	80002260	0162c833	xor	x16,x5,x22	  x5:0x20000000 x22:0x00000001 x16=0x20000001
       49615000	      4960	80002264	00a2d113	srli	x2,x5,0xa	  x5:0x20000000  x2=0x00080000
       49625000	      4961	80002268	d580e113	ori	x2,x1,-680	  x1:0x00000001  x2=0xfffffd59
       49635000	      4962	8000226c	016b9e13	slli	x28,x23,0x16	 x23:0x00000000 x28=0x00000000
       49645000	      4963	80002270	0180c5b3	xor	x11,x1,x24	  x1:0x00000001 x24:0x6fa25d68 x11=0x6fa25d69
       49655000	      4964	80002274	01a65733	srl	x14,x12,x26	 x12:0x00000001 x26:0x8ce1810c x14=0x00000000
       49665000	      4965	80002278	241b2b93	slti	x23,x22,577	 x22:0x00000001 x23=0x00000001
       49675000	      4966	8000227c	40f2db93	srai	x23,x5,0xf	  x5:0x20000000 x23=0x00004000
       49685000	      4967	80002280	f8f1f593	andi	x11,x3,-113	  x3:0x00000000 x11=0x00000000
       49695000	      4968	80002284	01ccfbb3	and	x23,x25,x28	 x25:0x03f7f5e3 x28:0x00000000 x23=0x00000000
       49705000	      4969	80002288	703bf697	auipc	x13,0x703bf	 x13=0xf03c1284
       49715000	      4970	8000228c	03cb1663	bne	x22,x28,800022b8	 x22:0x00000001 x28:0x00000000
       49725000	      4971	00000000	00000013	addi	x0,x0,0	  x0:0x00000000
       49735000	      4972	800022b4	00000013	addi	x0,x0,0	  x0:0x00000000
       49745000	      4973	800022b8	01dbe033	or	x0,x23,x29	 x23:0x00000000 x29:0x00000001
       49755000	      4974	800022bc	403bd8b3	sra	x17,x23,x3	 x23:0x00000000  x3:0x00000000 x17=0x00000000
       49765000	      4975	800022c0	65b20793	addi	x15,x4,1627	  x4:0x00000001 x15=0x0000065c
       49775000	      4976	800022c4	41a38cb3	sub	x25,x7,x26	  x7:0x00000000 x26:0x8ce1810c x25=0x731e7ef4
       49785000	      4977	800022c8	08625117	auipc	x2,0x8625	  x2=0x886272c4
       49795000	      4978	800022cc	0222e263	bltu	x5,x2,800022f0	  x5:0x20000000  x2:0x886272c4
       49805000	      4979	00000000	00000013	addi	x0,x0,0	  x0:0x00000000
       49815000	      4980	800022ec	00000013	addi	x0,x0,0	  x0:0x00000000
       49825000	      4981	800022f0	002b47b3	xor	x15,x22,x2	 x22:0x00000001  x2:0x886272c4 x15=0x886272c5
       49835000	      4982	800022f4	6440e8b7	lui	x17,0x6440e	 x17=0x6440e000
       49845000	      4983	800022f8	01c4dc93	srli	x25,x9,0x1c	  x9:0x00000000 x25=0x00000000
       49855000	      4984	800022fc	51e57d13	andi	x26,x10,1310	 x10:0x80009fc4 x26=0x00000504
       49865000	      4985	80002300	006cc133	xor	x2,x25,x6	 x25:0x00000000  x6:0x80009d4b  x2=0x80009d4b
       49875000	      4986	80002304	415881b3	sub	x3,x17,x21	 x17:0x6440e000 x21:0x03d25720  x3=0x606e88e0
       49885000	      4987	80002308	00ea8733	add	x14,x21,x14	 x21:0x03d25720 x14:0x00000000 x14=0x03d25720
       49895000	      4988	8000230c	e534de37	lui	x28,0xe534d	 x28=0xe534d000
       49905000	      4989	80002310	002895b3	sll	x11,x17,x2	 x17:0x6440e000  x2:0x80009d4b x11=0x07000000
       49915000	      4990	80002314	05ad1463	bne	x26,x26,8000235c	 x26:0x00000504 x26:0x00000504
       49925000	      4991	80002318	00b604b3	add	x9,x12,x11	 x12:0x00000001 x11:0x07000000  x9=0x07000001
       49935000	      4992	8000231c	01331b13	slli	x22,x6,0x13	  x6:0x80009d4b x22=0xea580000
       49945000	      4993	80002320	02bfe063	bltu	x31,x11,80002340	 x31:0x00000001 x11:0x07000000
       49955000	      4994	00000000	00000013	addi	x0,x0,0	  x0:0x00000000
       49965000	      4995	8000233c	00000013	addi	x0,x0,0	  x0:0x00000000
       49975000	      4996	80002340	40a25fb3	sra	x31,x4,x10	  x4:0x00000001 x10:0x80009fc4 x31=0x00000000
       49985000	      4997	80002344	04286263	bltu	x16,x2,80002388	 x16:0x20000001  x2:0x80009d4b
       49995000	      4998	00000000	00000013	addi	x0,x0,0	  x0:0x00000000
       50005000	      4999	80002384	00000013	addi	x0,x0,0	  x0:0x00000000
       50015000	      5000	80002388	fe5c2a13	slti	x20,x24,-27	 x24:0x6fa25d68 x20=0x00000000
       50025000	      5001	8000238c	cdfb0013	addi	x0,x22,-801	 x22:0xea580000
       50035000	      5002	80002390	04d3cd13	xori	x26,x7,77	  x7:0x00000000 x26=0x0000004d
       50045000	      5003	80002394	016cd7b3	srl	x15,x25,x22	 x25:0x00000000 x22:0xea580000 x15=0x00000000
       50055000	      5004	80002398	00e209b3	add	x19,x4,x14	  x4:0x00000001 x14:0x03d25720 x19=0x03d25721
       50065000	      5005	8000239c	011b3133	sltu	x2,x22,x17	 x22:0xea580000 x17:0x6440e000  x2=0x00000000
       50075000	      5006	800023a0	403c5d13	srai	x26,x24,0x3	 x24:0x6fa25d68 x26=0x0df44bad
       50085000	      5007	800023a4	01459813	slli	x16,x11,0x14	 x11:0x07000000 x16=0x00000000
       50095000	      5008	800023a8	a2d4aa13	slti	x20,x9,-1491	  x9:0x07000001 x20=0x00000000
       50105000	      5009	800023ac	0084a333	slt	x6,x9,x8	  x9:0x07000001  x8:0x17508b20  x6=0x00000001
       50115000	      5010	800023b0	40ae5293	srai	x5,x28,0xa	 x28:0xe534d000  x5=0xfff94d34
       50125000	      5011	800023b4	017adab3	srl	x21,x21,x23	 x21:0x03d25720 x23:0x00000000 x21=0x03d25720
       50135000	      5012	800023b8	0031d593	srli	x11,x3,0x3	  x3:0x606e88e0 x11=0x0c0dd11c
       50145000	      5013	800023bc	41425613	srai	x12,x4,0x14	  x4:0x00000001 x12=0x00000000
       50155000	      5014	800023c0	6b720593	addi	x11,x4,1719	  x4:0x00000001 x11=0x000006b8
       50165000	      5015	800023c4	00306e33	or	x28,x0,x3	  x0:0x00000000  x3:0x606e88e0 x28=0x606e88e0
       50175000	      5016	800023c8	00000013	addi	x0,x0,0	  x0:0x00000000
       50185000	      5017	800023cc	05656863	bltu	x10,x22,8000241c	 x10:0x80009fc4 x22:0xea580000
       50195000	      5018	00000000	00000013	addi	x0,x0,0	  x0:0x00000000
       50205000	      5019	80002418	00000013	addi	x0,x0,0	  x0:0x00000000
       50215000	      5020	8000241c	7d8a0013	addi	x0,x20,2008	 x20:0x00000000
       50225000	      5021	80002420	00f3c4b3	xor	x9,x7,x15	  x7:0x00000000 x15:0x00000000  x9=0x00000000
       50235000	      5022	80002424	f92e2c93	slti	x25,x28,-110	 x28:0x606e88e0 x25=0x00000000
       50245000	      5023	80002428	0078e733	or	x14,x17,x7	 x17:0x6440e000  x7:0x00000000 x14=0x6440e000
       50255000	      5024	8000242c	410056b3	sra	x13,x0,x16	  x0:0x00000000 x16:0x00000000 x13=0x00000000
       50265000	      5025	80002430	05811863	bne	x2,x24,80002480	  x2:0x00000000 x24:0x6fa25d68
       50275000	      5026	00000000	00000013	addi	x0,x0,0	  x0:0x00000000
       50285000	      5027	8000247c	00000013	addi	x0,x0,0	  x0:0x00000000
       50295000	      5028	80002480	00ac02b3	add	x5,x24,x10	 x24:0x6fa25d68 x10:0x80009fc4  x5=0xefa2fd2c
       50305000	      5029	80002484	05fd7263	bgeu	x26,x31,800024c8	 x26:0x0df44bad x31:0x00000000
       50315000	      5030	00000000	00000013	addi	x0,x0,0	  x0:0x00000000
       50325000	      5031	800024c4	00000013	addi	x0,x0,0	  x0:0x00000000
       50335000	      5032	800024c8	05381263	bne	x16,x19,8000250c	 x16:0x00000000 x19:0x03d25721
       50345000	      5033	00000000	00000013	addi	x0,x0,0	  x0:0x00000000
       50355000	      5034	80002508	00000013	addi	x0,x0,0	  x0:0x00000000
       50365000	      5035	8000250c	01a17833	and	x16,x2,x26	  x2:0x00000000 x26:0x0df44bad x16=0x00000000
       50375000	      5036	80002510	05fa7263	bgeu	x20,x31,80002554	 x20:0x00000000 x31:0x00000000
       50385000	      5037	00000000	00000013	addi	x0,x0,0	  x0:0x00000000
       50395000	      5038	80002550	00000013	addi	x0,x0,0	  x0:0x00000000
       50405000	      5039	80002554	36a13b13	sltiu	x22,x2,874	  x2:0x00000000 x22=0x00000001
       50415000	      5040	80002558	000ab733	sltu	x14,x21,x0	 x21:0x03d25720  x0:0x00000000 x14=0x00000000
       50425000	      5041	8000255c	0053fcb3	and	x25,x7,x5	  x7:0x00000000  x5:0xefa2fd2c x25=0x00000000
       50435000	      5042	80002560	e969a197	auipc	x3,0xe969a	  x3=0x6969c55c
       50445000	      5043	80002564	bc3e8113	addi	x2,x29,-1085	 x29:0x00000001  x2=0xfffffbc4
       50455000	      5044	80002568	0018de93	srli	x29,x17,0x1	 x17:0x6440e000 x29=0x32207000
       50465000	      5045	8000256c	41150f33	sub	x30,x10,x17	 x10:0x80009fc4 x17:0x6440e000 x30=0x1bbfbfc4
       50475000	      5046	80002570	49850613	addi	x12,x10,1176	 x10:0x80009fc4 x12=0x8000a45c
       50485000	      5047	80002574	054a8463	beq	x21,x20,800025bc	 x21:0x03d25720 x20:0x00000000
       50495000	      5048	80002578	88c46093	ori	x1,x8,-1908	  x8:0x17508b20  x1=0xfffffbac
       50505000	      5049	8000257c	b682aa13	slti	x20,x5,-1176	  x5:0xefa2fd2c x20=0x00000001
       50515000	      5050	80002580	0198efb3	or	x31,x17,x25	 x17:0x6440e000 x25:0x00000000 x31=0x6440e000
       50525000	      5051	80002584	c3ade393	ori	x7,x27,-966	 x27:0x00000000  x7=0xfffffc3a
       50535000	      5052	80002588	026ce463	bltu	x25,x6,800025b0	 x25:0x00000000  x6:0x00000001
       50545000	      5053	00000000	00000013	addi	x0,x0,0	  x0:0x00000000
       50555000	      5054	800025ac	00000013	addi	x0,x0,0	  x0:0x00000000
       50565000	      5055	800025b0	a1a66a93	ori	x21,x12,-1510	 x12:0x8000a45c x21=0xfffffe5e
       50575000	      5056	800025b4	0012acb3	slt	x25,x5,x1	  x5:0xefa2fd2c  x1:0xfffffbac x25=0x00000001
       50585000	      5057	800025b8	013a1f33	sll	x30,x20,x19	 x20:0x00000001 x19:0x03d25721 x30=0x00000002
       50595000	      5058	800025bc	40b40733	sub	x14,x8,x11	  x8:0x17508b20 x11:0x000006b8 x14=0x17508468
       50605000	      5059	800025c0	04871663	bne	x14,x8,8000260c	 x14:0x17508468  x8:0x17508b20
       50615000	      5060	00000000	00000013	addi	x0,x0,0	  x0:0x00000000
       50625000	      5061	80002608	00000013	addi	x0,x0,0	  x0:0x00000000
       50635000	      5062	8000260c	d1ed0693	addi	x13,x26,-738	 x26:0x0df44bad x13=0x0df448cb
       50645000	      5063	80002610	7ada3413	sltiu	x8,x20,1965	 x20:0x00000001  x8=0x00000001
       50655000	      5064	80002614	006860b3	or	x1,x16,x6	 x16:0x00000000  x6:0x00000001  x1=0x00000001
       50665000	      5065	80002618	00000013	addi	x0,x0,0	  x0:0x00000000
       50675000	      5066	8000261c	417bd7b3	sra	x15,x23,x23	 x23:0x00000000 x23:0x00000000 x15=0x00000000
       50685000	      5067	80002620	40498233	sub	x4,x19,x4	 x19:0x03d25721  x4:0x00000001  x4=0x03d25720
       50695000	      5068	80002624	68a42f93	slti	x31,x8,1674	  x8:0x00000001 x31=0x00000001
       50705000	      5069	80002628	01e7c1b3	xor	x3,x15,x30	 x15:0x00000000 x30:0x00000002  x3=0x00000002
       50715000	      5070	8000262c	12bfb097	auipc	x1,0x12bfb	  x1=0x92bfd628
       50725000	      5071	80002630	5ab2ee13	ori	x28,x5,1451	  x5:0xefa2fd2c x28=0xefa2fdaf
       50735000	      5072	80002634	00492403	lw	x8,4(x18)	 x18:0x80009ebc  x8=0x8000347c PA:0x80009ec0
       50745000	      5073	80002638	00000013	addi	x0,x0,0	  x0:0x00000000
       50755000	      5074	8000263c	006445b3	xor	x11,x8,x6	  x8:0x8000347c  x6:0x00000001 x11=0x8000347d
       50765000	      5075	80002640	002edc13	srli	x24,x29,0x2	 x29:0x32207000 x24=0x0c881c00
       50775000	      5076	80002644	4164d293	srai	x5,x9,0x16	  x9:0x00000000  x5=0x00000000
       50785000	      5077	80002648	971519b7	lui	x19,0x97151	 x19=0x97151000
       50795000	      5078	8000264c	01090913	addi	x18,x18,16	 x18:0x80009ebc x18=0x80009ecc
       50805000	      5079	80002650	418bd2b3	sra	x5,x23,x24	 x23:0x00000000 x24:0x0c881c00  x5=0x00000000
       50815000	      5080	80002654	4145d993	srai	x19,x11,0x14	 x11:0x8000347d x19=0xfffff800
       50825000	      5081	80002658	00040c13	addi	x24,x8,0	  x8:0x8000347c x24=0x8000347c
       50835000	      5082	8000265c	000c0c67	jalr	x24,x24,0	 x24:0x8000347c x24=0x8000265c
       50845000	      5083	00000000	00000013	addi	x0,x0,0	  x0:0x00000000
       50855000	      5084	8000347c	00000013	addi	x0,x0,0	  x0:0x00000000
       50865000	      5085	80003480	01ce2f33	slt	x30,x28,x28	 x28:0xefa2fdaf x28:0xefa2fdaf x30=0x00000000
       50875000	      5086	80003484	630c01b7	lui	x3,0x630c0	  x3=0x630c0000
       50885000	      5087	80003488	01f036b3	sltu	x13,x0,x31	  x0:0x00000000 x31:0x00000001 x13=0x00000001
       50895000	      5088	8000348c	0127c2b3	xor	x5,x15,x18	 x15:0x00000000 x18:0x80009ecc  x5=0x80009ecc
       50905000	      5089	80003490	0102da93	srli	x21,x5,0x10	  x5:0x80009ecc x21=0x00008000
       50915000	      5090	80003494	40f4d213	srai	x4,x9,0xf	  x9:0x00000000  x4=0x00000000
       50925000	      5091	80003498	011ce463	bltu	x25,x17,800034a0	 x25:0x00000001 x17:0x6440e000
       50935000	      5092	00000000	00000013	addi	x0,x0,0	  x0:0x00000000
       50945000	      5093	8000349c	00000013	addi	x0,x0,0	  x0:0x00000000
       50955000	      5094	800034a0	7ef1e593	ori	x11,x3,2031	  x3:0x630c0000 x11=0x630c07ef
       50965000	      5095	800034a4	0198f7b3	and	x15,x17,x25	 x17:0x6440e000 x25:0x00000001 x15=0x00000000
       50975000	      5096	800034a8	40dfd9b3	sra	x19,x31,x13	 x31:0x00000001 x13:0x00000001 x19=0x00000000
       50985000	      5097	800034ac	00492403	lw	x8,4(x18)	 x18:0x80009ecc  x8=0x8000324c PA:0x80009ed0
       50995000	      5098	800034b0	40e80733	sub	x14,x16,x14	 x16:0x00000000 x14:0x17508468 x14=0xe8af7b98
       51005000	      5099	800034b4	011adfb3	srl	x31,x21,x17	 x21:0x00008000 x17:0x6440e000 x31=0x00008000
       51015000	      5100	800034b8	6093f397	auipc	x7,0x6093f	  x7=0xe09424b4
       51025000	      5101	800034bc	00747033	and	x0,x8,x7	  x8:0x8000324c  x7:0xe09424b4
       51035000	      5102	800034c0	016def33	or	x30,x27,x22	 x27:0x00000000 x22:0x00000001 x30=0x00000001
       51045000	      5103	800034c4	02490913	addi	x18,x18,36	 x18:0x80009ecc x18=0x80009ef0
       51055000	      5104	800034c8	ed34e813	ori	x16,x9,-301	  x9:0x00000000 x16=0xfffffed3
       51065000	      5105	800034cc	008e6fb3	or	x31,x28,x8	 x28:0xefa2fdaf  x8:0x8000324c x31=0xefa2ffef
       51075000	      5106	800034d0	01f91c93	slli	x25,x18,0x1f	 x18:0x80009ef0 x25=0x00000000
       51085000	      5107	800034d4	00040413	addi	x8,x8,0	  x8:0x8000324c  x8=0x8000324c
       51095000	      5108	800034d8	00040467	jalr	x8,x8,0	  x8:0x8000324c  x8=0x800034d8
       51105000	      5109	00000000	00000013	addi	x0,x0,0	  x0:0x00000000
       51115000	      5110	8000324c	00000013	addi	x0,x0,0	  x0:0x00000000
       51125000	      5111	80003250	009c2bb3	slt	x23,x24,x9	 x24:0x8000265c  x9:0x00000000 x23=0x00000001
       51135000	      5112	80003254	01f3d5b3	srl	x11,x7,x31	  x7:0xe09424b4 x31:0xefa2ffef x11=0x0001c128
       51145000	      5113	80003258	b7b3fc93	andi	x25,x7,-1157	  x7:0xe09424b4 x25=0xe0942030
       51155000	      5114	8000325c	72d5fe93	andi	x29,x11,1837	 x11:0x0001c128 x29=0x00000128
       51165000	      5115	80003260	01811b13	slli	x22,x2,0x18	  x2:0xfffffbc4 x22=0xc4000000
       51175000	      5116	80003264	00000a17	auipc	x20,0x0	 x20=0x80003260
       51185000	      5117	80003268	078a0a13	addi	x20,x20,120	 x20:0x80003260 x20=0x800032d8
       51195000	      5118	8000326c	69329817	auipc	x16,0x69329	 x16=0xe932c268
       51205000	      5119	80003270	d2da0a13	addi	x20,x20,-723	 x20:0x800032d8 x20=0x80003005
       51215000	      5120	80003274	018fa6b3	slt	x13,x31,x24	 x31:0xefa2ffef x24:0x8000265c x13=0x00000000
       51225000	      5121	80003278	7280bd13	sltiu	x26,x1,1832	  x1:0x92bfd628 x26=0x00000000
       51235000	      5122	8000327c	01f7d463	bge	x15,x31,80003284	 x15:0x00000000 x31:0xefa2ffef
       51245000	      5123	00000000	00000013	addi	x0,x0,0	  x0:0x00000000
       51255000	      5124	80003280	00000013	addi	x0,x0,0	  x0:0x00000000
       51265000	      5125	80003284	2d4a0467	jalr	x8,x20,724	 x20:0x80003005  x8=0x80003284
       51275000	      5126	00000000	00000013	addi	x0,x0,0	  x0:0x00000000
       51285000	      5127	800032d8	00000013	addi	x0,x0,0	  x0:0x00000000
       51295000	      5128	800032dc	57078117	auipc	x2,0x57078	  x2=0xd707b2d8
       51305000	      5129	800032e0	01309993	slli	x19,x1,0x13	  x1:0x92bfd628 x19=0xb1400000
       51315000	      5130	800032e4	00a00a63	beq	x0,x10,800032f8	  x0:0x00000000 x10:0x80009fc4
       51325000	      5131	800032e8	413c8633	sub	x12,x25,x19	 x25:0xe0942030 x19:0xb1400000 x12=0x2f542030
       51335000	      5132	800032ec	41cbd893	srai	x17,x23,0x1c	 x23:0x00000001 x17=0x00000000
       51345000	      5133	800032f0	00ff19b3	sll	x19,x30,x15	 x30:0x00000001 x15:0x00000000 x19=0x00000001
       51355000	      5134	800032f4	00dab033	sltu	x0,x21,x13	 x21:0x00008000 x13:0x00000000
       51365000	      5135	800032f8	fe890913	addi	x18,x18,-24	 x18:0x80009ef0 x18=0x80009ed8
       51375000	      5136	800032fc	c59c1297	auipc	x5,0xc59c1	  x5=0x459c42f8
       51385000	      5137	80003300	00e342b3	xor	x5,x6,x14	  x6:0x00000001 x14:0xe8af7b98  x5=0xe8af7b99
       51395000	      5138	80003304	00892223	sw	x8,4(x18)	 x18:0x80009ed8  x8:0x80003284 PA:0x80009edc
       51405000	      5139	80003308	017f6d33	or	x26,x30,x23	 x30:0x00000001 x23:0x00000001 x26=0x00000001
       51415000	      5140	8000330c	012e0133	add	x2,x28,x18	 x28:0xefa2fdaf x18:0x80009ed8  x2=0x6fa39c87
       51425000	      5141	80003310	5455bf93	sltiu	x31,x11,1349	 x11:0x0001c128 x31=0x00000000
       51435000	      5142	80003314	0355c663	blt	x11,x21,80003340	 x11:0x0001c128 x21:0x00008000
       51445000	      5143	80003318	c8938813	addi	x16,x7,-887	  x7:0xe09424b4 x16=0xe094213d
       51455000	      5144	8000331c	009fc033	xor	x0,x31,x9	 x31:0x00000000  x9:0x00000000
       51465000	      5145	80003320	d22efa93	andi	x21,x29,-734	 x29:0x00000128 x21=0x00000120
       51475000	      5146	80003324	05034063	blt	x6,x16,80003364	  x6:0x00000001 x16:0xe094213d
       51485000	      5147	80003328	02ec9e63	bne	x25,x14,80003364	 x25:0xe0942030 x14:0xe8af7b98
       51495000	      5148	00000000	00000013	addi	x0,x0,0	  x0:0x00000000
       51505000	      5149	80003360	00000013	addi	x0,x0,0	  x0:0x00000000
       51515000	      5150	80003364	0166ab33	slt	x22,x13,x22	 x13:0x00000000 x22:0xc4000000 x22=0x00000000
       51525000	      5151	80003368	ebb22117	auipc	x2,0xebb22	  x2=0x6bb25364
       51535000	      5152	8000336c	01266633	or	x12,x12,x18	 x12:0x2f542030 x18:0x80009ed8 x12=0xaf54bef8
       51545000	      5153	80003370	014c5133	srl	x2,x24,x20	 x24:0x8000265c x20:0x80003005  x2=0x04000132
       51555000	      5154	80003374	402c5793	srai	x15,x24,0x2	 x24:0x8000265c x15=0xe0000997
       51565000	      5155	80003378	04518663	beq	x3,x5,800033c4	  x3:0x630c0000  x5:0xe8af7b99
       51575000	      5156	8000337c	967a80b7	lui	x1,0x967a8	  x1=0x967a8000
       51585000	      5157	80003380	00daaab3	slt	x21,x21,x13	 x21:0x00000120 x13:0x00000000 x21=0x00000000
       51595000	      5158	80003384	410402b3	sub	x5,x8,x16	  x8:0x80003284 x16:0xe094213d  x5=0x9f6c1147
       51605000	      5159	80003388	01d654b3	srl	x9,x12,x29	 x12:0xaf54bef8 x29:0x00000128  x9=0x00af54be
       51615000	      5160	8000338c	01abd5b3	srl	x11,x23,x26	 x23:0x00000001 x26:0x00000001 x11=0x00000000
       51625000	      5161	80003390	b44a0d13	addi	x26,x20,-1212	 x20:0x80003005 x26=0x80002b49
       51635000	      5162	80003394	0364e463	bltu	x9,x22,800033bc	  x9:0x00af54be x22:0x00000000
       51645000	      5163	80003398	00486f33	or	x30,x16,x4	 x16:0xe094213d  x4:0x00000000 x30=0xe094213d
       51655000	      5164	8000339c	058f5063	bge	x30,x24,800033dc	 x30:0xe094213d x24:0x8000265c
       51665000	      5165	00000000	00000013	addi	x0,x0,0	  x0:0x00000000
       51675000	      5166	800033d8	00000013	addi	x0,x0,0	  x0:0x00000000
       51685000	      5167	800033dc	00000013	addi	x0,x0,0	  x0:0x00000000
       51695000	      5168	800033e0	015b4133	xor	x2,x22,x21	 x22:0x00000000 x21:0x00000000  x2=0x00000000
       51705000	      5169	800033e4	00d248b3	xor	x17,x4,x13	  x4:0x00000000 x13:0x00000000 x17=0x00000000
       51715000	      5170	800033e8	009e5c63	bge	x28,x9,80003400	 x28:0xefa2fdaf  x9:0x00af54be
       51725000	      5171	800033ec	00716a63	bltu	x2,x7,80003400	  x2:0x00000000  x7:0xe09424b4
       51735000	      5172	00000000	00000013	addi	x0,x0,0	  x0:0x00000000
       51745000	      5173	800033fc	00000013	addi	x0,x0,0	  x0:0x00000000
       51755000	      5174	80003400	00035c33	srl	x24,x6,x0	  x6:0x00000001  x0:0x00000000 x24=0x00000001
       51765000	      5175	80003404	00b45193	srli	x3,x8,0xb	  x8:0x80003284  x3=0x00100006
       51775000	      5176	80003408	010ce9b3	or	x19,x25,x16	 x25:0xe0942030 x16:0xe094213d x19=0xe094213d
       51785000	      5177	8000340c	00492403	lw	x8,4(x18)	 x18:0x80009ed8  x8=0x80003284 PA:0x80009edc
       51795000	      5178	80003410	00eed293	srli	x5,x29,0xe	 x29:0x00000128  x5=0x00000000
       51805000	      5179	80003414	001d0eb3	add	x29,x26,x1	 x26:0x80002b49  x1:0x967a8000 x29=0x167aab49
       51815000	      5180	80003418	15f36013	ori	x0,x6,351	  x6:0x00000001
       51825000	      5181	8000341c	01890913	addi	x18,x18,24	 x18:0x80009ed8 x18=0x80009ef0
       51835000	      5182	80003420	41a68833	sub	x16,x13,x26	 x13:0x00000000 x26:0x80002b49 x16=0x7fffd4b7
       51845000	      5183	80003424	00816ab3	or	x21,x2,x8	  x2:0x00000000  x8:0x80003284 x21=0x80003284
       51855000	      5184	80003428	dd3f6593	ori	x11,x30,-557	 x30:0xe094213d x11=0xfffffdff
       51865000	      5185	8000342c	00040193	addi	x3,x8,0	  x8:0x80003284  x3=0x80003284
       51875000	      5186	80003430	000181e7	jalr	x3,x3,0	  x3:0x80003284  x3=0x80003430
       51885000	      5187	00000000	00000013	addi	x0,x0,0	  x0:0x00000000
       51895000	      5188	80003284	00000013	addi	x0,x0,0	  x0:0x00000000
       51905000	      5189	80003288	03254113	xori	x2,x10,50	 x10:0x80009fc4  x2=0x80009ff6
       51915000	      5190	8000328c	017173b3	and	x7,x2,x23	  x2:0x80009ff6 x23:0x00000001  x7=0x00000000
       51925000	      5191	80003290	f197aa13	slti	x20,x15,-231	 x15:0xe0000997 x20=0x00000001
       51935000	      5192	80003294	db437c13	andi	x24,x6,-588	  x6:0x00000001 x24=0x00000000
       51945000	      5193	80003298	41618c33	sub	x24,x3,x22	  x3:0x80003430 x22:0x00000000 x24=0x80003430
       51955000	      5194	8000329c	15b63213	sltiu	x4,x12,347	 x12:0xaf54bef8  x4=0x00000000
       51965000	      5195	800032a0	ff08ff97	auipc	x31,0xff08f	 x31=0x7f09229c
       51975000	      5196	800032a4	009eb633	sltu	x12,x29,x9	 x29:0x167aab49  x9:0x00af54be x12=0x00000000
       51985000	      5197	800032a8	01d96ab3	or	x21,x18,x29	 x18:0x80009ef0 x29:0x167aab49 x21=0x967abff9
       51995000	      5198	800032ac	24abb597	auipc	x11,0x24abb	 x11=0xa4abe2a8
       52005000	      5199	800032b0	003a5f93	srli	x31,x20,0x3	 x20:0x00000001 x31=0x00000000
       52015000	      5200	800032b4	34558793	addi	x15,x11,837	 x11:0xa4abe2a8 x15=0xa4abe5ed
       52025000	      5201	800032b8	00492403	lw	x8,4(x18)	 x18:0x80009ef0  x8=0x800046c8 PA:0x80009ef4
       52035000	      5202	800032bc	4656abb7	lui	x23,0x4656a	 x23=0x4656a000
       52045000	      5203	800032c0	00c90913	addi	x18,x18,12	 x18:0x80009ef0 x18=0x80009efc
       52055000	      5204	800032c4	69d87813	andi	x16,x16,1693	 x16:0x7fffd4b7 x16=0x00000495
       52065000	      5205	800032c8	008dac33	slt	x24,x27,x8	 x27:0x00000000  x8:0x800046c8 x24=0x00000000
       52075000	      5206	800032cc	0139d2b3	srl	x5,x19,x19	 x19:0xe094213d x19:0xe094213d  x5=0x00000007
       52085000	      5207	800032d0	00c6d193	srli	x3,x13,0xc	 x13:0x00000000  x3=0x00000000
       52095000	      5208	800032d4	00140d13	addi	x26,x8,1	  x8:0x800046c8 x26=0x800046c9
       52105000	      5209	800032d8	000d0d67	jalr	x26,x26,0	 x26:0x800046c9 x26=0x800032d8
       52115000	      5210	00000000	00000013	addi	x0,x0,0	  x0:0x00000000
       52125000	      5211	800046c8	00000013	addi	x0,x0,0	  x0:0x00000000
       52135000	      5212	800046cc	365b3197	auipc	x3,0x365b3	  x3=0xb65b76c8
       52145000	      5213	800046d0	00637263	bgeu	x6,x6,800046d4	  x6:0x00000001  x6:0x00000001
       52155000	      5214	00000000	00000013	addi	x0,x0,0	  x0:0x00000000
       52165000	      5215	800046d0	00000013	addi	x0,x0,0	  x0:0x00000000
       52175000	      5216	800046d4	4065d833	sra	x16,x11,x6	 x11:0xa4abe2a8  x6:0x00000001 x16=0xd255f154
       52185000	      5217	800046d8	0016d613	srli	x12,x13,0x1	 x13:0x00000000 x12=0x00000000
       52195000	      5218	800046dc	9784b793	sltiu	x15,x9,-1672	  x9:0x00af54be x15=0x00000001
       52205000	      5219	800046e0	00e71693	slli	x13,x14,0xe	 x14:0xe8af7b98 x13=0xdee60000
       52215000	      5220	800046e4	019be5b3	or	x11,x23,x25	 x23:0x4656a000 x25:0xe0942030 x11=0xe6d6a030
       52225000	      5221	800046e8	013cda63	bge	x25,x19,800046fc	 x25:0xe0942030 x19:0xe094213d
       52235000	      5222	800046ec	25cc4313	xori	x6,x24,604	 x24:0x00000000  x6=0x0000025c
       52245000	      5223	800046f0	01d8cc63	blt	x17,x29,80004708	 x17:0x00000000 x29:0x167aab49
       52255000	      5224	00000000	00000013	addi	x0,x0,0	  x0:0x00000000
       52265000	      5225	80004704	00000013	addi	x0,x0,0	  x0:0x00000000
       52275000	      5226	80004708	00d520b3	slt	x1,x10,x13	 x10:0x80009fc4 x13:0xdee60000  x1=0x00000001
       52285000	      5227	8000470c	695abbb7	lui	x23,0x695ab	 x23=0x695ab000
       52295000	      5228	80004710	40a905b3	sub	x11,x18,x10	 x18:0x80009efc x10:0x80009fc4 x11=0xffffff38
       52305000	      5229	80004714	4088d013	srai	x0,x17,0x8	 x17:0x00000000
       52315000	      5230	80004718	02318663	beq	x3,x3,80004744	  x3:0xb65b76c8  x3:0xb65b76c8
       52325000	      5231	00000000	00000013	addi	x0,x0,0	  x0:0x00000000
       52335000	      5232	80004740	00000013	addi	x0,x0,0	  x0:0x00000000
       52345000	      5233	80004744	00c09813	slli	x16,x1,0xc	  x1:0x00000001 x16=0x00001000
       52355000	      5234	80004748	00000013	addi	x0,x0,0	  x0:0x00000000
       52365000	      5235	8000474c	015f19b3	sll	x19,x30,x21	 x30:0xe094213d x21:0x967abff9 x19=0x7a000000
       52375000	      5236	80004750	017e5a63	bge	x28,x23,80004764	 x28:0xefa2fdaf x23:0x695ab000
       52385000	      5237	80004754	00e98fb3	add	x31,x19,x14	 x19:0x7a000000 x14:0xe8af7b98 x31=0x62af7b98
       52395000	      5238	80004758	5071f413	andi	x8,x3,1287	  x3:0xb65b76c8  x8=0x00000400
       52405000	      5239	8000475c	004e6463	bltu	x28,x4,80004764	 x28:0xefa2fdaf  x4:0x00000000
       52415000	      5240	80004760	83814093	xori	x1,x2,-1992	  x2:0x80009ff6  x1=0x7fff67ce
       52425000	      5241	80004764	01289463	bne	x17,x18,8000476c	 x17:0x00000000 x18:0x80009efc
       52435000	      5242	00000000	00000013	addi	x0,x0,0	  x0:0x00000000
       52445000	      5243	80004768	00000013	addi	x0,x0,0	  x0:0x00000000
       52455000	      5244	8000476c	0053ab33	slt	x22,x7,x5	  x7:0x00000000  x5:0x00000007 x22=0x00000001
       52465000	      5245	80004770	029f5063	bge	x30,x9,80004790	 x30:0xe094213d  x9:0x00af54be
       52475000	      5246	80004774	7ccb90b7	lui	x1,0x7ccb9	  x1=0x7ccb9000
       52485000	      5247	80004778	002978b3	and	x17,x18,x2	 x18:0x80009efc  x2:0x80009ff6 x17=0x80009ef4
       52495000	      5248	8000477c	c2afa697	auipc	x13,0xc2afa	 x13=0x42afe778
       52505000	      5249	80004780	1e9cdd37	lui	x26,0x1e9cd	 x26=0x1e9cd000
       52515000	      5250	80004784	014533b3	sltu	x7,x10,x20	 x10:0x80009fc4 x20:0x00000001  x7=0x00000000
       52525000	      5251	80004788	03488263	beq	x17,x20,800047ac	 x17:0x80009ef4 x20:0x00000001
       52535000	      5252	8000478c	e6204713	xori	x14,x0,-414	  x0:0x00000000 x14=0xfffffe62
       52545000	      5253	80004790	c4f42213	slti	x4,x8,-945	  x8:0x00000400  x4=0x00000000
       52555000	      5254	80004794	f21d2993	slti	x19,x26,-223	 x26:0x1e9cd000 x19=0x00000000
       52565000	      5255	80004798	02ac4263	blt	x24,x10,800047bc	 x24:0x00000000 x10:0x80009fc4
       52575000	      5256	8000479c	056c4463	blt	x24,x22,800047e4	 x24:0x00000000 x22:0x00000001
       52585000	      5257	00000000	00000013	addi	x0,x0,0	  x0:0x00000000
       52595000	      5258	800047e0	00000013	addi	x0,x0,0	  x0:0x00000000
       52605000	      5259	800047e4	008e8833	add	x16,x29,x8	 x29:0x167aab49  x8:0x00000400 x16=0x167aaf49
       52615000	      5260	800047e8	002a9f93	slli	x31,x21,0x2	 x21:0x967abff9 x31=0x59eaffe4
       52625000	      5261	800047ec	03b00463	beq	x0,x27,80004814	  x0:0x00000000 x27:0x00000000
       52635000	      5262	00000000	00000013	addi	x0,x0,0	  x0:0x00000000
       52645000	      5263	80004810	00000013	addi	x0,x0,0	  x0:0x00000000
       52655000	      5264	80004814	041d8863	beq	x27,x1,80004864	 x27:0x00000000  x1:0x7ccb9000
       52665000	      5265	80004818	015c8133	add	x2,x25,x21	 x25:0xe0942030 x21:0x967abff9  x2=0x770ee029
       52675000	      5266	8000481c	0181f3b3	and	x7,x3,x24	  x3:0xb65b76c8 x24:0x00000000  x7=0x00000000
       52685000	      5267	80004820	0163ea33	or	x20,x7,x22	  x7:0x00000000 x22:0x00000001 x20=0x00000001
       52695000	      5268	80004824	00709463	bne	x1,x7,8000482c	  x1:0x7ccb9000  x7:0x00000000
       52705000	      5269	00000000	00000013	addi	x0,x0,0	  x0:0x00000000
       52715000	      5270	80004828	00000013	addi	x0,x0,0	  x0:0x00000000
       52725000	      5271	8000482c	0194ca33	xor	x20,x9,x25	  x9:0x00af54be x25:0xe0942030 x20=0xe03b748e
       52735000	      5272	80004830	04206463	bltu	x0,x2,80004878	  x0:0x00000000  x2:0x770ee029
       52745000	      5273	00000000	00000013	addi	x0,x0,0	  x0:0x00000000
       52755000	      5274	80004874	00000013	addi	x0,x0,0	  x0:0x00000000
       52765000	      5275	80004878	000ade13	srli	x28,x21,0x0	 x21:0x967abff9 x28=0x967abff9
       52775000	      5276	8000487c	0180d613	srli	x12,x1,0x18	  x1:0x7ccb9000 x12=0x0000007c
       52785000	      5277	80004880	40395493	srai	x9,x18,0x3	 x18:0x80009efc  x9=0xf00013df
       52795000	      5278	80004884	fb1c0637	lui	x12,0xfb1c0	 x12=0xfb1c0000
       52805000	      5279	80004888	001199b3	sll	x19,x3,x1	  x3:0xb65b76c8  x1:0x7ccb9000 x19=0xb65b76c8
       52815000	      5280	8000488c	009decb3	or	x25,x27,x9	 x27:0x00000000  x9:0xf00013df x25=0xf00013df
       52825000	      5281	80004890	0370e463	bltu	x1,x23,800048b8	  x1:0x7ccb9000 x23:0x695ab000
       52835000	      5282	80004894	00099bb3	sll	x23,x19,x0	 x19:0xb65b76c8  x0:0x00000000 x23=0xb65b76c8
       52845000	      5283	80004898	69574d13	xori	x26,x14,1685	 x14:0xfffffe62 x26=0xfffff8f7
       52855000	      5284	8000489c	05400063	beq	x0,x20,800048dc	  x0:0x00000000 x20:0xe03b748e
       52865000	      5285	800048a0	00000013	addi	x0,x0,0	  x0:0x00000000
       52875000	      5286	800048a4	418bdfb3	sra	x31,x23,x24	 x23:0xb65b76c8 x24:0x00000000 x31=0xb65b76c8
       52885000	      5287	800048a8	3bbcb713	sltiu	x14,x25,955	 x25:0xf00013df x14=0x00000000
       52895000	      5288	800048ac	9af8a093	slti	x1,x17,-1617	 x17:0x80009ef4  x1=0x00000001
       52905000	      5289	800048b0	0059c3b3	xor	x7,x19,x5	 x19:0xb65b76c8  x5:0x00000007  x7=0xb65b76cf
       52915000	      5290	800048b4	41b38eb3	sub	x29,x7,x27	  x7:0xb65b76cf x27:0x00000000 x29=0xb65b76cf
       52925000	      5291	800048b8	e0b1a813	slti	x16,x3,-501	  x3:0xb65b76c8 x16=0x00000001
       52935000	      5292	800048bc	f0663a13	sltiu	x20,x12,-250	 x12:0xfb1c0000 x20=0x00000001
       52945000	      5293	800048c0	01119bb3	sll	x23,x3,x17	  x3:0xb65b76c8 x17:0x80009ef4 x23=0x6c800000
       52955000	      5294	800048c4	01828463	beq	x5,x24,800048cc	  x5:0x00000007 x24:0x00000000
       52965000	      5295	800048c8	01fc52b3	srl	x5,x24,x31	 x24:0x00000000 x31:0xb65b76c8  x5=0x00000000
       52975000	      5296	800048cc	74d36cb7	lui	x25,0x74d36	 x25=0x74d36000
       52985000	      5297	800048d0	2e95d1b7	lui	x3,0x2e95d	  x3=0x2e95d000
       52995000	      5298	800048d4	40285293	srai	x5,x16,0x2	 x16:0x00000001  x5=0x00000000
       53005000	      5299	800048d8	43b82e13	slti	x28,x16,1083	 x16:0x00000001 x28=0x00000001
       53015000	      5300	800048dc	53f38993	addi	x19,x7,1343	  x7:0xb65b76cf x19=0xb65b7c0e
       53025000	      5301	800048e0	e185c693	xori	x13,x11,-488	 x11:0xffffff38 x13=0x00000120
       53035000	      5302	800048e4	00004f17	auipc	x30,0x4	 x30=0x800088e0
       53045000	      5303	800048e8	b81f0f13	addi	x30,x30,-1151	 x30:0x800088e0 x30=0x80008461
       53055000	      5304	800048ec	f32f4b03	lbu	x22,-206(x30)	 x30:0x80008461 x22=0x00000048 PA:0x80008393
       53065000	      5305	800048f0	c1966593	ori	x11,x12,-999	 x12:0xfb1c0000 x11=0xfffffc19
       53075000	      5306	800048f4	00000013	addi	x0,x0,0	  x0:0x00000000
       53085000	      5307	800048f8	019f0f83	lb	x31,25(x30)	 x30:0x80008461 x31=0x00000031 PA:0x8000847a
       53095000	      5308	800048fc	e75bc113	xori	x2,x23,-395	 x23:0x6c800000  x2=0x937ffe75
       53105000	      5309	80004900	023f2803	lw	x16,35(x30)	 x30:0x80008461 x16=0x3c3d3e3f PA:0x80008484
       53115000	      5310	80004904	0121d293	srli	x5,x3,0x12	  x3:0x2e95d000  x5=0x00000ba5
       53125000	      5311	80004908	000f0883	lb	x17,0(x30)	 x30:0x80008461 x17=0x00000000 PA:0x80008461
       53135000	      5312	8000490c	581c4b93	xori	x23,x24,1409	 x24:0x00000000 x23=0x00000581
       53145000	      5313	80004910	41aed393	srai	x7,x29,0x1a	 x29:0xb65b76cf  x7=0xffffffed
       53155000	      5314	80004914	ac3688b7	lui	x17,0xac368	 x17=0xac368000
       53165000	      5315	80004918	fe0f4083	lbu	x1,-32(x30)	 x30:0x80008461  x1=0x000000fa PA:0x80008441
       53175000	      5316	8000491c	f3ef0023	sb	x30,-224(x30)	 x30:0x80008461 x30:0x80008461 PA:0x80008381
       53185000	      5317	80004920	036f0d23	sb	x22,58(x30)	 x30:0x80008461 x22:0x00000048 PA:0x8000849b
       53195000	      5318	80004924	0e7f5b03	lhu	x22,231(x30)	 x30:0x80008461 x22=0x00000203 PA:0x80008548
       53205000	      5319	80004928	ff4f0783	lb	x15,-12(x30)	 x30:0x80008461 x15=0xffffff9f PA:0x80008455
       53215000	      5320	8000492c	f3cf4383	lbu	x7,-196(x30)	 x30:0x80008461  x7=0x00000056 PA:0x8000839d
       53225000	      5321	80004930	0011f833	and	x16,x3,x1	  x3:0x2e95d000  x1:0x000000fa x16=0x00000000
       53235000	      5322	80004934	0b3f0e83	lb	x29,179(x30)	 x30:0x80008461 x29=0xffffffcf PA:0x80008514
       53245000	      5323	80004938	4e36bd13	sltiu	x26,x13,1251	 x13:0x00000120 x26=0x00000001
       53255000	      5324	8000493c	f58f4403	lbu	x8,-168(x30)	 x30:0x80008461  x8=0x00000072 PA:0x800083b9
       53265000	      5325	80004940	004a6333	or	x6,x20,x4	 x20:0x00000001  x4:0x00000000  x6=0x00000001
       53275000	      5326	80004944	013f2403	lw	x8,19(x30)	 x30:0x80008461  x8=0x2c2d2e2f PA:0x80008474
       53285000	      5327	80004948	010252b3	srl	x5,x4,x16	  x4:0x00000000 x16:0x00000000  x5=0x00000000
       53295000	      5328	8000494c	5fc9f713	andi	x14,x19,1532	 x19:0xb65b7c0e x14=0x0000040c
       53305000	      5329	80004950	0133e1b3	or	x3,x7,x19	  x7:0x00000056 x19:0xb65b7c0e  x3=0xb65b7c5e
       53315000	      5330	80004954	41bf8eb3	sub	x29,x31,x27	 x31:0x00000031 x27:0x00000000 x29=0x00000031
       53325000	      5331	80004958	fcc4f617	auipc	x12,0xfcc4f	 x12=0x7cc53954
       53335000	      5332	8000495c	5695fa13	andi	x20,x11,1385	 x11:0xfffffc19 x20=0x00000409
       53345000	      5333	80004960	01158c33	add	x24,x11,x17	 x11:0xfffffc19 x17:0xac368000 x24=0xac367c19
       53355000	      5334	80004964	0b3f1c03	lh	x24,179(x30)	 x30:0x80008461 x24=0xffffcecf PA:0x80008514
       53365000	      5335	80004968	6b166413	ori	x8,x12,1713	 x12:0x7cc53954  x8=0x7cc53ff5
       53375000	      5336	8000496c	f3af4383	lbu	x7,-198(x30)	 x30:0x80008461  x7=0x00000050 PA:0x8000839b
       53385000	      5337	80004970	08ff1083	lh	x1,143(x30)	 x30:0x80008461  x1=0xffffaaab PA:0x800084f0
       53395000	      5338	80004974	a692a2b7	lui	x5,0xa692a	  x5=0xa692a000
       53405000	      5339	80004978	09df1a83	lh	x21,157(x30)	 x30:0x80008461 x21=0xffffb4b5 PA:0x800084fe
       53415000	      5340	8000497c	00da3eb3	sltu	x29,x20,x13	 x20:0x00000409 x13:0x00000120 x29=0x00000000
       53425000	      5341	80004980	01c477b3	and	x15,x8,x28	  x8:0x7cc53ff5 x28:0x00000001 x15=0x00000001
       53435000	      5342	80004984	010f0f23	sb	x16,30(x30)	 x30:0x80008461 x16:0x00000000 PA:0x8000847f
       53445000	      5343	80004988	f64f0b23	sb	x4,-138(x30)	 x30:0x80008461  x4:0x00000000 PA:0x800083d7
       53455000	      5344	8000498c	02ef0183	lb	x3,46(x30)	 x30:0x80008461  x3=0x00000044 PA:0x8000848f
       53465000	      5345	80004990	f65f18a3	sh	x5,-143(x30)	 x30:0x80008461  x5:0xa692a000 PA:0x800083d2
       53475000	      5346	80004994	e49d2413	slti	x8,x26,-439	 x26:0x00000001  x8=0x00000000
       53485000	      5347	80004998	051f4683	lbu	x13,81(x30)	 x30:0x80008461 x13=0x00000069 PA:0x800084b2
       53495000	      5348	8000499c	0caf0c83	lb	x25,202(x30)	 x30:0x80008461 x25=0xffffffe0 PA:0x8000852b
       53505000	      5349	800049a0	0a0f0823	sb	x0,176(x30)	 x30:0x80008461  x0:0x00000000 PA:0x80008511
       53515000	      5350	800049a4	fadf4183	lbu	x3,-83(x30)	 x30:0x80008461  x3=0x000000c5 PA:0x8000840e
       53525000	      5351	800049a8	41485793	srai	x15,x16,0x14	 x16:0x00000000 x15=0x00000000
       53535000	      5352	800049ac	f0df4003	lbu	x0,-243(x30)	 x30:0x80008461 PA:0x8000836e
       53545000	      5353	800049b0	fc7f2c83	lw	x25,-57(x30)	 x30:0x80008461 x25=0xe0e1e2e3 PA:0x80008428
       53555000	      5354	800049b4	d1eb4093	xori	x1,x22,-738	 x22:0x00000203  x1=0xffffff1d
       53565000	      5355	800049b8	f9ff1ba3	sh	x31,-105(x30)	 x30:0x80008461 x31:0x00000031 PA:0x800083f8
       53575000	      5356	800049bc	fe9f5383	lhu	x7,-23(x30)	 x30:0x80008461  x7=0x00000001 PA:0x8000844a
       53585000	      5357	800049c0	022e0e63	beq	x28,x2,800049fc	 x28:0x00000001  x2:0x937ffe75
       53595000	      5358	800049c4	00f20c63	beq	x4,x15,800049dc	  x4:0x00000000 x15:0x00000000
       53605000	      5359	00000000	00000013	addi	x0,x0,0	  x0:0x00000000
       53615000	      5360	800049d8	00000013	addi	x0,x0,0	  x0:0x00000000
       53625000	      5361	800049dc	54d5f013	andi	x0,x11,1357	 x11:0xfffffc19
       53635000	      5362	800049e0	005c7c63	bgeu	x24,x5,800049f8	 x24:0xffffcecf  x5:0xa692a000
       53645000	      5363	00000000	00000013	addi	x0,x0,0	  x0:0x00000000
       53655000	      5364	800049f4	00000013	addi	x0,x0,0	  x0:0x00000000
       53665000	      5365	800049f8	40580fb3	sub	x31,x16,x5	 x16:0x00000000  x5:0xa692a000 x31=0x596d6000
       53675000	      5366	800049fc	00019c93	slli	x25,x3,0x0	  x3:0x000000c5 x25=0x000000c5
       53685000	      5367	80004a00	40380ab3	sub	x21,x16,x3	 x16:0x00000000  x3:0x000000c5 x21=0xffffff3b
       53695000	      5368	80004a04	02315e63	bge	x2,x3,80004a40	  x2:0x937ffe75  x3:0x000000c5
       53705000	      5369	80004a08	41985633	sra	x12,x16,x25	 x16:0x00000000 x25:0x000000c5 x12=0x00000000
       53715000	      5370	80004a0c	020ff663	bgeu	x31,x0,80004a38	 x31:0x596d6000  x0:0x00000000
       53725000	      5371	00000000	00000013	addi	x0,x0,0	  x0:0x00000000
       53735000	      5372	80004a34	00000013	addi	x0,x0,0	  x0:0x00000000
       53745000	      5373	80004a38	2588aa17	auipc	x20,0x2588a	 x20=0xa588ea34
       53755000	      5374	80004a3c	01b9e663	bltu	x19,x27,80004a48	 x19:0xb65b7c0e x27:0x00000000
       53765000	      5375	80004a40	01134733	xor	x14,x6,x17	  x6:0x00000001 x17:0xac368000 x14=0xac368001
       53775000	      5376	80004a44	02755063	bge	x10,x7,80004a64	 x10:0x80009fc4  x7:0x00000001
       53785000	      5377	80004a48	01ed3833	sltu	x16,x26,x30	 x26:0x00000001 x30:0x80008461 x16=0x00000001
       53795000	      5378	80004a4c	00ad8a63	beq	x27,x10,80004a60	 x27:0x00000000 x10:0x80009fc4
       53805000	      5379	80004a50	419007b3	sub	x15,x0,x25	  x0:0x00000000 x25:0x000000c5 x15=0xffffff3b
       53815000	      5380	80004a54	00000013	addi	x0,x0,0	  x0:0x00000000
       53825000	      5381	80004a58	3b5ce593	ori	x11,x25,949	 x25:0x000000c5 x11=0x000003f5
       53835000	      5382	80004a5c	00b09833	sll	x16,x1,x11	  x1:0xffffff1d x11:0x000003f5 x16=0xe3a00000
       53845000	      5383	80004a60	00dce633	or	x12,x25,x13	 x25:0x000000c5 x13:0x00000069 x12=0x000000ed
       53855000	      5384	80004a64	40b38eb3	sub	x29,x7,x11	  x7:0x00000001 x11:0x000003f5 x29=0xfffffc0c
       53865000	      5385	80004a68	e10b6593	ori	x11,x22,-496	 x22:0x00000203 x11=0xfffffe13
       53875000	      5386	80004a6c	35402f93	slti	x31,x0,852	  x0:0x00000000 x31=0x00000001
       53885000	      5387	80004a70	00981a93	slli	x21,x16,0x9	 x16:0xe3a00000 x21=0x40000000
       53895000	      5388	80004a74	978a0c13	addi	x24,x20,-1672	 x20:0xa588ea34 x24=0xa588e3ac
       53905000	      5389	80004a78	41e35c93	srai	x25,x6,0x1e	  x6:0x00000001 x25=0x00000000
       53915000	      5390	80004a7c	419cdbb3	sra	x23,x25,x25	 x25:0x00000000 x25:0x00000000 x23=0x00000000
       53925000	      5391	80004a80	00000013	addi	x0,x0,0	  x0:0x00000000
       53935000	      5392	80004a84	008e48b3	xor	x17,x28,x8	 x28:0x00000001  x8:0x00000000 x17=0x00000001
       53945000	      5393	80004a88	37dd0717	auipc	x14,0x37dd0	 x14=0xb7dd4a84
       53955000	      5394	80004a8c	00b1ac33	slt	x24,x3,x11	  x3:0x000000c5 x11:0xfffffe13 x24=0x00000000
       53965000	      5395	80004a90	e1c4be93	sltiu	x29,x9,-484	  x9:0xf00013df x29=0x00000001
       53975000	      5396	80004a94	011d5f93	srli	x31,x26,0x11	 x26:0x00000001 x31=0x00000000
       53985000	      5397	80004a98	4067d1b3	sra	x3,x15,x6	 x15:0xffffff3b  x6:0x00000001  x3=0xffffff9d
       53995000	      5398	80004a9c	01b6a4b3	slt	x9,x13,x27	 x13:0x00000069 x27:0x00000000  x9=0x00000000
       54005000	      5399	80004aa0	948bad13	slti	x26,x23,-1720	 x23:0x00000000 x26=0x00000000
       54015000	      5400	80004aa4	41c8d313	srai	x6,x17,0x1c	 x17:0x00000001  x6=0x00000000
       54025000	      5401	80004aa8	82526293	ori	x5,x4,-2011	  x4:0x00000000  x5=0xfffff825
       54035000	      5402	80004aac	00e60c63	beq	x12,x14,80004ac4	 x12:0x000000ed x14:0xb7dd4a84
       54045000	      5403	80004ab0	4056d233	sra	x4,x13,x5	 x13:0x00000069  x5:0xfffff825  x4=0x00000003
       54055000	      5404	80004ab4	0158cd33	xor	x26,x17,x21	 x17:0x00000001 x21:0x40000000 x26=0x40000001
       54065000	      5405	80004ab8	696bb093	sltiu	x1,x23,1686	 x23:0x00000000  x1=0x00000001
       54075000	      5406	80004abc	f03a7c93	andi	x25,x20,-253	 x20:0xa588ea34 x25=0xa588ea00
       54085000	      5407	80004ac0	a8910117	auipc	x2,0xa8910	  x2=0x28914abc
       54095000	      5408	80004ac4	11ee4663	blt	x28,x30,80004bd0	 x28:0x00000001 x30:0x80008461
       54105000	      5409	80004ac8	00309d13	slli	x26,x1,0x3	  x1:0x00000001 x26=0x00000008
       54115000	      5410	80004acc	e4dd3113	sltiu	x2,x26,-435	 x26:0x00000008  x2=0x00000001
       54125000	      5411	80004ad0	192b4093	xori	x1,x22,402	 x22:0x00000203  x1=0x00000391
       54135000	      5412	80004ad4	011c1593	slli	x11,x24,0x11	 x24:0x00000000 x11=0x00000000
       54145000	      5413	80004ad8	028eaa37	lui	x20,0x28ea	 x20=0x028ea000
       54155000	      5414	80004adc	009f8fb3	add	x31,x31,x9	 x31:0x00000000  x9:0x00000000 x31=0x00000000
       54165000	      5415	80004ae0	7bebb197	auipc	x3,0x7bebb	  x3=0xfbebfadc
       54175000	      5416	80004ae4	e94b3b13	sltiu	x22,x22,-364	 x22:0x00000203 x22=0x00000001
       54185000	      5417	80004ae8	00004117	auipc	x2,0x4	  x2=0x80008ae4
       54195000	      5418	80004aec	d0e10113	addi	x2,x2,-754	  x2:0x80008ae4  x2=0x800087f2
       54205000	      5419	80004af0	00f14c83	lbu	x25,15(x2)	  x2:0x800087f2 x25=0x000000ba PA:0x80008801
       54215000	      5420	80004af4	012b17b3	sll	x15,x22,x18	 x22:0x00000001 x18:0x80009efc x15=0x10000000
       54225000	      5421	80004af8	006107a3	sb	x6,15(x2)	  x2:0x800087f2  x6:0x00000000 PA:0x80008801
       54235000	      5422	80004afc	01010583	lb	x11,16(x2)	  x2:0x800087f2 x11=0xffffffb9 PA:0x80008802
       54245000	      5423	80004b00	00000013	addi	x0,x0,0	  x0:0x00000000
       54255000	      5424	80004b04	017e5793	srli	x15,x28,0x17	 x28:0x00000001 x15=0x00000000
       54265000	      5425	80004b08	00000013	addi	x0,x0,0	  x0:0x00000000
       54275000	      5426	80004b0c	a38de093	ori	x1,x27,-1480	 x27:0x00000000  x1=0xfffffa38
       54285000	      5427	80004b10	ffe10e03	lb	x28,-2(x2)	  x2:0x800087f2 x28=0xffffffab PA:0x800087f0
       54295000	      5428	80004b14	3c6f6f13	ori	x30,x30,966	 x30:0x80008461 x30=0x800087e7
       54305000	      5429	80004b18	ff011f83	lh	x31,-16(x2)	  x2:0x800087f2 x31=0xffff9899 PA:0x800087e2
       54315000	      5430	00000000	00000013	addi	x0,x0,0	  x0:0x00000000
       54325000	      5431	80004b1c	01f49b13	slli	x22,x9,0x1f	  x9:0x00000000 x22=0x00000000
       54335000	      5432	80004b20	7dee8c13	addi	x24,x29,2014	 x29:0x00000001 x24=0x000007df
       54345000	      5433	80004b24	00784bb3	xor	x23,x16,x7	 x16:0xe3a00000  x7:0x00000001 x23=0xe3a00001
       54355000	      5434	80004b28	00114803	lbu	x16,1(x2)	  x2:0x800087f2 x16=0x000000a8 PA:0x800087f3
       54365000	      5435	80004b2c	00a15183	lhu	x3,10(x2)	  x2:0x800087f2  x3=0x0000b6b7 PA:0x800087fc
       54375000	      5436	80004b30	01633033	sltu	x0,x6,x22	  x6:0x00000000 x22:0x00000000
       54385000	      5437	80004b34	0095d433	srl	x8,x11,x9	 x11:0xffffffb9  x9:0x00000000  x8=0xffffffb9
       54395000	      5438	80004b38	6d2ce193	ori	x3,x25,1746	 x25:0x000000ba  x3=0x000006fa
       54405000	      5439	80004b3c	415bd393	srai	x7,x23,0x15	 x23:0xe3a00001  x7=0xffffff1d
       54415000	      5440	80004b40	ff910e83	lb	x29,-7(x2)	  x2:0x800087f2 x29=0xffffffa0 PA:0x800087eb
       54425000	      5441	80004b44	010c0a33	add	x20,x24,x16	 x24:0x000007df x16:0x000000a8 x20=0x00000887
       54435000	      5442	80004b48	ff210e23	sb	x18,-4(x2)	  x2:0x800087f2 x18:0x80009efc PA:0x800087ee
       54445000	      5443	80004b4c	00f10283	lb	x5,15(x2)	  x2:0x800087f2  x5=0x00000000 PA:0x80008801
       54455000	      5444	80004b50	8fa57793	andi	x15,x10,-1798	 x10:0x80009fc4 x15=0x800098c0
       54465000	      5445	80004b54	00a12f03	lw	x30,10(x2)	  x2:0x800087f2 x30=0xb4b5b6b7 PA:0x800087fc
       54475000	      5446	80004b58	01fa1a33	sll	x20,x20,x31	 x20:0x00000887 x31:0xffff9899 x20=0x0e000000
       54485000	      5447	80004b5c	ff010b03	lb	x22,-16(x2)	  x2:0x800087f2 x22=0xffffff99 PA:0x800087e2
       54495000	      5448	80004b60	00a23fb3	sltu	x31,x4,x10	  x4:0x00000003 x10:0x80009fc4 x31=0x00000001
       54505000	      5449	80004b64	ffc14003	lbu	x0,-4(x2)	  x2:0x800087f2 PA:0x800087ee
       54515000	      5450	80004b68	01ac7a33	and	x20,x24,x26	 x24:0x000007df x26:0x00000008 x20=0x00000008
       54525000	      5451	80004b6c	014101a3	sb	x20,3(x2)	  x2:0x800087f2 x20:0x00000008 PA:0x800087f5
       54535000	      5452	80004b70	40825433	sra	x8,x4,x8	  x4:0x00000003  x8:0xffffffb9  x8=0x00000000
       54545000	      5453	80004b74	fe810923	sb	x8,-14(x2)	  x2:0x800087f2  x8:0x00000000 PA:0x800087e4
       54555000	      5454	80004b78	00585013	srli	x0,x16,0x5	 x16:0x000000a8
       54565000	      5455	80004b7c	59337613	andi	x12,x6,1427	  x6:0x00000000 x12=0x00000000
       54575000	      5456	80004b80	00e11083	lh	x1,14(x2)	  x2:0x800087f2  x1=0x000000bb PA:0x80008800
       54585000	      5457	80004b84	00000013	addi	x0,x0,0	  x0:0x00000000
       54595000	      5458	80004b88	00415d03	lhu	x26,4(x2)	  x2:0x800087f2 x26=0x0000acad PA:0x800087f6
       54605000	      5459	80004b8c	00714b83	lbu	x23,7(x2)	  x2:0x800087f2 x23=0x000000b2 PA:0x800087f9
       54615000	      5460	80004b90	00b100a3	sb	x11,1(x2)	  x2:0x800087f2 x11:0xffffffb9 PA:0x800087f3
       54625000	      5461	80004b94	00514583	lbu	x11,5(x2)	  x2:0x800087f2 x11=0x000000ac PA:0x800087f7
       54635000	      5462	80004b98	00214583	lbu	x11,2(x2)	  x2:0x800087f2 x11=0x000000af PA:0x800087f4
       54645000	      5463	80004b9c	ff615b83	lhu	x23,-10(x2)	  x2:0x800087f2 x23=0x0000a2a3 PA:0x800087e8
       54655000	      5464	80004ba0	00000013	addi	x0,x0,0	  x0:0x00000000
       54665000	      5465	80004ba4	feb10ea3	sb	x11,-3(x2)	  x2:0x800087f2 x11:0x000000af PA:0x800087ef
       54675000	      5466	80004ba8	014104a3	sb	x20,9(x2)	  x2:0x800087f2 x20:0x00000008 PA:0x800087fb
       54685000	      5467	80004bac	0bda2f13	slti	x30,x20,189	 x20:0x00000008 x30=0x00000001
       54695000	      5468	80004bb0	91760413	addi	x8,x12,-1769	 x12:0x00000000  x8=0xfffff917
       54705000	      5469	80004bb4	d8b1bd13	sltiu	x26,x3,-629	  x3:0x000006fa x26=0x00000001
       54715000	      5470	80004bb8	00536d33	or	x26,x6,x5	  x6:0x00000000  x5:0x00000000 x26=0x00000000
       54725000	      5471	80004bbc	2f624f93	xori	x31,x4,758	  x4:0x00000003 x31=0x000002f5
       54735000	      5472	80004bc0	01ab58b3	srl	x17,x22,x26	 x22:0xffffff99 x26:0x00000000 x17=0xffffff99
       54745000	      5473	80004bc4	015107a3	sb	x21,15(x2)	  x2:0x800087f2 x21:0x40000000 PA:0x80008801
       54755000	      5474	80004bc8	00f14583	lbu	x11,15(x2)	  x2:0x800087f2 x11=0x00000000 PA:0x80008801
       54765000	      5475	80004bcc	1114a893	slti	x17,x9,273	  x9:0x00000000 x17=0x00000001
       54775000	      5476	80004bd0	946a2693	slti	x13,x20,-1722	 x20:0x00000008 x13=0x00000000
       54785000	      5477	80004bd4	a5eefe93	andi	x29,x29,-1442	 x29:0xffffffa0 x29=0xfffffa00
       54795000	      5478	80004bd8	e82e7093	andi	x1,x28,-382	 x28:0xffffffab  x1=0xfffffe82
       54805000	      5479	80004bdc	35257213	andi	x4,x10,850	 x10:0x80009fc4  x4=0x00000340
       54815000	      5480	80004be0	002515b3	sll	x11,x10,x2	 x10:0x80009fc4  x2:0x800087f2 x11=0x7f100000
       54825000	      5481	80004be4	722e54b7	lui	x9,0x722e5	  x9=0x722e5000
       54835000	      5482	80004be8	50c7a013	slti	x0,x15,1292	 x15:0x800098c0
       54845000	      5483	80004bec	4fee8c93	addi	x25,x29,1278	 x29:0xfffffa00 x25=0xfffffefe
       54855000	      5484	80004bf0	92c944b7	lui	x9,0x92c94	  x9=0x92c94000
       54865000	      5485	80004bf4	401a08b3	sub	x17,x20,x1	 x20:0x00000008  x1:0xfffffe82 x17=0x00000186
       54875000	      5486	80004bf8	64d4bf17	auipc	x30,0x64d4b	 x30=0xe4d4fbf4
       54885000	      5487	80004bfc	03b56663	bltu	x10,x27,80004c28	 x10:0x80009fc4 x27:0x00000000
       54895000	      5488	80004c00	01f6ea63	bltu	x13,x31,80004c14	 x13:0x00000000 x31:0x000002f5
       54905000	      5489	00000000	00000013	addi	x0,x0,0	  x0:0x00000000
       54915000	      5490	80004c10	00000013	addi	x0,x0,0	  x0:0x00000000
       54925000	      5491	80004c14	67b04313	xori	x6,x0,1659	  x0:0x00000000  x6=0x0000067b
       54935000	      5492	80004c18	ba076793	ori	x15,x14,-1120	 x14:0xb7dd4a84 x15=0xfffffba4
       54945000	      5493	80004c1c	005e2493	slti	x9,x28,5	 x28:0xffffffab  x9=0x00000001
       54955000	      5494	80004c20	005a6463	bltu	x20,x5,80004c28	 x20:0x00000008  x5:0x00000000
       54965000	      5495	80004c24	00000013	addi	x0,x0,0	  x0:0x00000000
       54975000	      5496	80004c28	05da7263	bgeu	x20,x29,80004c6c	 x20:0x00000008 x29:0xfffffa00
       54985000	      5497	80004c2c	00fea433	slt	x8,x29,x15	 x29:0xfffffa00 x15:0xfffffba4  x8=0x00000001
       54995000	      5498	80004c30	1a407e13	andi	x28,x0,420	  x0:0x00000000 x28=0x00000000
       55005000	      5499	80004c34	5ea5e637	lui	x12,0x5ea5e	 x12=0x5ea5e000
       55015000	      5500	80004c38	01fba133	slt	x2,x23,x31	 x23:0x0000a2a3 x31:0x000002f5  x2=0x00000000
       55025000	      5501	80004c3c	836ae993	ori	x19,x21,-1994	 x21:0x40000000 x19=0xfffff836
       55035000	      5502	80004c40	015681b3	add	x3,x13,x21	 x13:0x00000000 x21:0x40000000  x3=0x40000000
       55045000	      5503	80004c44	5b3e8613	addi	x12,x29,1459	 x29:0xfffffa00 x12=0xffffffb3
       55055000	      5504	80004c48	4073d793	srai	x15,x7,0x7	  x7:0xffffff1d x15=0xfffffffe
       55065000	      5505	80004c4c	025c9463	bne	x25,x5,80004c74	 x25:0xfffffefe  x5:0x00000000
       55075000	      5506	00000000	00000013	addi	x0,x0,0	  x0:0x00000000
       55085000	      5507	80004c70	00000013	addi	x0,x0,0	  x0:0x00000000
       55095000	      5508	80004c74	00a8d433	srl	x8,x17,x10	 x17:0x00000186 x10:0x80009fc4  x8=0x00000018
       55105000	      5509	80004c78	053f7463	bgeu	x30,x19,80004cc0	 x30:0xe4d4fbf4 x19:0xfffff836
       55115000	      5510	80004c7c	fe378013	addi	x0,x15,-29	 x15:0xfffffffe
       55125000	      5511	80004c80	f22ff413	andi	x8,x31,-222	 x31:0x000002f5  x8=0x00000220
       55135000	      5512	80004c84	02e8d263	bge	x17,x14,80004ca8	 x17:0x00000186 x14:0xb7dd4a84
       55145000	      5513	00000000	00000013	addi	x0,x0,0	  x0:0x00000000
       55155000	      5514	80004ca4	00000013	addi	x0,x0,0	  x0:0x00000000
       55165000	      5515	80004ca8	402bd393	srai	x7,x23,0x2	 x23:0x0000a2a3  x7=0x000028a8
       55175000	      5516	80004cac	007e5f33	srl	x30,x28,x7	 x28:0x00000000  x7:0x000028a8 x30=0x00000000
       55185000	      5517	80004cb0	f7276113	ori	x2,x14,-142	 x14:0xb7dd4a84  x2=0xfffffff6
       55195000	      5518	80004cb4	016159b3	srl	x19,x2,x22	  x2:0xfffffff6 x22:0xffffff99 x19=0x0000007f
       55205000	      5519	80004cb8	01212bb3	slt	x23,x2,x18	  x2:0xfffffff6 x18:0x80009efc x23=0x00000000
       55215000	      5520	80004cbc	011e9d13	slli	x26,x29,0x11	 x29:0xfffffa00 x26=0xf4000000
       55225000	      5521	80004cc0	41e3d693	srai	x13,x7,0x1e	  x7:0x000028a8 x13=0x00000000
       55235000	      5522	80004cc4	00c46863	bltu	x8,x12,80004cd4	  x8:0x00000220 x12:0xffffffb3
       55245000	      5523	00000000	00000013	addi	x0,x0,0	  x0:0x00000000
       55255000	      5524	80004cd0	00000013	addi	x0,x0,0	  x0:0x00000000
       55265000	      5525	80004cd4	0249f263	bgeu	x19,x4,80004cf8	 x19:0x0000007f  x4:0x00000340
       55275000	      5526	80004cd8	008100b3	add	x1,x2,x8	  x2:0xfffffff6  x8:0x00000220  x1=0x00000216
       55285000	      5527	80004cdc	e02d8b93	addi	x23,x27,-510	 x27:0x00000000 x23=0xfffffe02
       55295000	      5528	80004ce0	00be9cb3	sll	x25,x29,x11	 x29:0xfffffa00 x11:0x7f100000 x25=0xfffffa00
       55305000	      5529	80004ce4	0034d793	srli	x15,x9,0x3	  x9:0x00000001 x15=0x00000000
       55315000	      5530	80004ce8	4683f113	andi	x2,x7,1128	  x7:0x000028a8  x2=0x00000028
       55325000	      5531	80004cec	400b5433	sra	x8,x22,x0	 x22:0xffffff99  x0:0x00000000  x8=0xffffff99
       55335000	      5532	80004cf0	004853b3	srl	x7,x16,x4	 x16:0x000000a8  x4:0x00000340  x7=0x000000a8
       55345000	      5533	80004cf4	ea67ee13	ori	x28,x15,-346	 x15:0x00000000 x28=0xfffffea6
       55355000	      5534	80004cf8	003e9613	slli	x12,x29,0x3	 x29:0xfffffa00 x12=0xffffd000
       55365000	      5535	80004cfc	01761433	sll	x8,x12,x23	 x12:0xffffd000 x23:0xfffffe02  x8=0xffff4000
       55375000	      5536	80004d00	31c67c93	andi	x25,x12,796	 x12:0xffffd000 x25=0x00000000
       55385000	      5537	80004d04	011e9463	bne	x29,x17,80004d0c	 x29:0xfffffa00 x17:0x00000186
       55395000	      5538	00000000	00000013	addi	x0,x0,0	  x0:0x00000000
       55405000	      5539	80004d08	00000013	addi	x0,x0,0	  x0:0x00000000
       55415000	      5540	80004d0c	0101bbb3	sltu	x23,x3,x16	  x3:0x40000000 x16:0x000000a8 x23=0x00000000
       55425000	      5541	80004d10	d6c03293	sltiu	x5,x0,-660	  x0:0x00000000  x5=0x00000001
       55435000	      5542	80004d14	191a2737	lui	x14,0x191a2	 x14=0x191a2000
       55445000	      5543	80004d18	66aa2d13	slti	x26,x20,1642	 x20:0x00000008 x26=0x00000001
       55455000	      5544	80004d1c	72c84313	xori	x6,x16,1836	 x16:0x000000a8  x6=0x00000784
       55465000	      5545	80004d20	ce6b0b93	addi	x23,x22,-794	 x22:0xffffff99 x23=0xfffffc7f
       55475000	      5546	80004d24	a712b593	sltiu	x11,x5,-1423	  x5:0x00000001 x11=0x00000001
       55485000	      5547	80004d28	02b8de63	bge	x17,x11,80004d64	 x17:0x00000186 x11:0x00000001
       55495000	      5548	00000000	00000013	addi	x0,x0,0	  x0:0x00000000
       55505000	      5549	80004d60	00000013	addi	x0,x0,0	  x0:0x00000000
       55515000	      5550	80004d64	8fe7e493	ori	x9,x15,-1794	 x15:0x00000000  x9=0xfffff8fe
       55525000	      5551	80004d68	40620d33	sub	x26,x4,x6	  x4:0x00000340  x6:0x00000784 x26=0xfffffbbc
       55535000	      5552	80004d6c	08742113	slti	x2,x8,135	  x8:0xffff4000  x2=0x00000001
       55545000	      5553	80004d70	d3c57713	andi	x14,x10,-708	 x10:0x80009fc4 x14=0x80009d04
       55555000	      5554	80004d74	405752b3	sra	x5,x14,x5	 x14:0x80009d04  x5:0x00000001  x5=0xc0004e82
       55565000	      5555	80004d78	01680fb3	add	x31,x16,x22	 x16:0x000000a8 x22:0xffffff99 x31=0x00000041
       55575000	      5556	80004d7c	037a9463	bne	x21,x23,80004da4	 x21:0x40000000 x23:0xfffffc7f
       55585000	      5557	00000000	00000013	addi	x0,x0,0	  x0:0x00000000
       55595000	      5558	80004da0	00000013	addi	x0,x0,0	  x0:0x00000000
       55605000	      5559	80004da4	048f8863	beq	x31,x8,80004df4	 x31:0x00000041  x8:0xffff4000
       55615000	      5560	80004da8	03daee63	bltu	x21,x29,80004de4	 x21:0x40000000 x29:0xfffffa00
       55625000	      5561	00000000	00000013	addi	x0,x0,0	  x0:0x00000000
       55635000	      5562	80004de0	00000013	addi	x0,x0,0	  x0:0x00000000
       55645000	      5563	80004de4	6d794193	xori	x3,x18,1751	 x18:0x80009efc  x3=0x8000982b
       55655000	      5564	80004de8	74262d13	slti	x26,x12,1858	 x12:0xffffd000 x26=0x00000001
       55665000	      5565	80004dec	57746d13	ori	x26,x8,1399	  x8:0xffff4000 x26=0xffff4577
       55675000	      5566	80004df0	74c08e93	addi	x29,x1,1868	  x1:0x00000216 x29=0x00000962
       55685000	      5567	80004df4	012a4663	blt	x20,x18,80004e00	 x20:0x00000008 x18:0x80009efc
       55695000	      5568	80004df8	00cbe433	or	x8,x23,x12	 x23:0xfffffc7f x12:0xffffd000  x8=0xfffffc7f
       55705000	      5569	80004dfc	00175a33	srl	x20,x14,x1	 x14:0x80009d04  x1:0x00000216 x20=0x00000200
       55715000	      5570	80004e00	a7f62d13	slti	x26,x12,-1409	 x12:0xffffd000 x26=0x00000001
       55725000	      5571	80004e04	013a1613	slli	x12,x20,0x13	 x20:0x00000200 x12=0x10000000
       55735000	      5572	80004e08	051d7063	bgeu	x26,x17,80004e48	 x26:0x00000001 x17:0x00000186
       55745000	      5573	80004e0c	00211c13	slli	x24,x2,0x2	  x2:0x00000001 x24=0x00000004
       55755000	      5574	80004e10	04dcc463	blt	x25,x13,80004e58	 x25:0x00000000 x13:0x00000000
       55765000	      5575	80004e14	01c7cc33	xor	x24,x15,x28	 x15:0x00000000 x28:0xfffffea6 x24=0xfffffea6
       55775000	      5576	80004e18	013736b3	sltu	x13,x14,x19	 x14:0x80009d04 x19:0x0000007f x13=0x00000000
       55785000	      5577	80004e1c	01aba133	slt	x2,x23,x26	 x23:0xfffffc7f x26:0x00000001  x2=0x00000001
       55795000	      5578	80004e20	fe24c893	xori	x17,x9,-30	  x9:0xfffff8fe x17=0x0000071c
       55805000	      5579	80004e24	b33d8313	addi	x6,x27,-1229	 x27:0x00000000  x6=0xfffffb33
       55815000	      5580	80004e28	40a7d313	srai	x6,x15,0xa	 x15:0x00000000  x6=0x00000000
       55825000	      5581	80004e2c	dd017b93	andi	x23,x2,-560	  x2:0x00000001 x23=0x00000000
       55835000	      5582	80004e30	0027c263	blt	x15,x2,80004e34	 x15:0x00000000  x2:0x00000001
       55845000	      5583	00000000	00000013	addi	x0,x0,0	  x0:0x00000000
       55855000	      5584	80004e30	00000013	addi	x0,x0,0	  x0:0x00000000
       55865000	      5585	80004e34	99c76793	ori	x15,x14,-1636	 x14:0x80009d04 x15=0xfffffd9c
       55875000	      5586	80004e38	14b22a13	slti	x20,x4,331	  x4:0x00000340 x20=0x00000000
       55885000	      5587	80004e3c	00470633	add	x12,x14,x4	 x14:0x80009d04  x4:0x00000340 x12=0x8000a044
       55895000	      5588	80004e40	01b7dd13	srli	x26,x15,0x1b	 x15:0xfffffd9c x26=0x0000001f
       55905000	      5589	80004e44	026a4463	blt	x20,x6,80004e6c	 x20:0x00000000  x6:0x00000000
       55915000	      5590	80004e48	004e8463	beq	x29,x4,80004e50	 x29:0x00000962  x4:0x00000340
       55925000	      5591	80004e4c	0089ffb3	and	x31,x19,x8	 x19:0x0000007f  x8:0xfffffc7f x31=0x0000007f
       55935000	      5592	80004e50	01ad9b93	slli	x23,x27,0x1a	 x27:0x00000000 x23=0x00000000
       55945000	      5593	80004e54	00000013	addi	x0,x0,0	  x0:0x00000000
       55955000	      5594	80004e58	63a3c713	xori	x14,x7,1594	  x7:0x000000a8 x14=0x00000692
       55965000	      5595	80004e5c	ebb04393	xori	x7,x0,-325	  x0:0x00000000  x7=0xfffffebb
       55975000	      5596	80004e60	7deea593	slti	x11,x29,2014	 x29:0x00000962 x11=0x00000000
       55985000	      5597	80004e64	017efa63	bgeu	x29,x23,80004e78	 x29:0x00000962 x23:0x00000000
       55995000	      5598	00000000	00000013	addi	x0,x0,0	  x0:0x00000000
       56005000	      5599	80004e74	00000013	addi	x0,x0,0	  x0:0x00000000
       56015000	      5600	80004e78	0153f333	and	x6,x7,x21	  x7:0xfffffebb x21:0x40000000  x6=0x40000000
       56025000	      5601	80004e7c	015f5b33	srl	x22,x30,x21	 x30:0x00000000 x21:0x40000000 x22=0x00000000
       56035000	      5602	80004e80	00000013	addi	x0,x0,0	  x0:0x00000000
       56045000	      5603	80004e84	3354c393	xori	x7,x9,821	  x9:0xfffff8fe  x7=0xfffffbcb
       56055000	      5604	80004e88	a59056b7	lui	x13,0xa5905	 x13=0xa5905000
       56065000	      5605	80004e8c	d4a92f13	slti	x30,x18,-694	 x18:0x80009efc x30=0x00000001
       56075000	      5606	80004e90	00dd84b3	add	x9,x27,x13	 x27:0x00000000 x13:0xa5905000  x9=0xa5905000
       56085000	      5607	80004e94	04b90263	beq	x18,x11,80004ed8	 x18:0x80009efc x11:0x00000000
       56095000	      5608	80004e98	88ad7993	andi	x19,x26,-1910	 x26:0x0000001f x19=0x0000000a
       56105000	      5609	80004e9c	0f9d6813	ori	x16,x26,249	 x26:0x0000001f x16=0x000000ff
       56115000	      5610	80004ea0	0057af33	slt	x30,x15,x5	 x15:0xfffffd9c  x5:0xc0004e82 x30=0x00000000
       56125000	      5611	80004ea4	7705a093	slti	x1,x11,1904	 x11:0x00000000  x1=0x00000001
       56135000	      5612	80004ea8	3e4fbb93	sltiu	x23,x31,996	 x31:0x0000007f x23=0x00000001
       56145000	      5613	80004eac	f84c7313	andi	x6,x24,-124	 x24:0xfffffea6  x6=0xfffffe84
       56155000	      5614	80004eb0	0394e263	bltu	x9,x25,80004ed4	  x9:0xa5905000 x25:0x00000000
       56165000	      5615	80004eb4	01403f33	sltu	x30,x0,x20	  x0:0x00000000 x20:0x00000000 x30=0x00000000
       56175000	      5616	80004eb8	41aad593	srai	x11,x21,0x1a	 x21:0x40000000 x11=0x00000010
       56185000	      5617	80004ebc	0124dd13	srli	x26,x9,0x12	  x9:0xa5905000 x26=0x00002964
       56195000	      5618	80004ec0	00da38b3	sltu	x17,x20,x13	 x20:0x00000000 x13:0xa5905000 x17=0x00000001
       56205000	      5619	80004ec4	01d11f93	slli	x31,x2,0x1d	  x2:0x00000001 x31=0x20000000
       56215000	      5620	80004ec8	00000013	addi	x0,x0,0	  x0:0x00000000
       56225000	      5621	80004ecc	40c20133	sub	x2,x4,x12	  x4:0x00000340 x12:0x8000a044  x2=0x7fff62fc
       56235000	      5622	80004ed0	0144cd33	xor	x26,x9,x20	  x9:0xa5905000 x20:0x00000000 x26=0xa5905000
       56245000	      5623	80004ed4	04b7a297	auipc	x5,0x4b7a	  x5=0x84b7eed0
       56255000	      5624	80004ed8	013932b3	sltu	x5,x18,x19	 x18:0x80009efc x19:0x0000000a  x5=0x00000000
       56265000	      5625	80004edc	4beebc93	sltiu	x25,x29,1214	 x29:0x00000962 x25=0x00000000
       56275000	      5626	80004ee0	00000013	addi	x0,x0,0	  x0:0x00000000
       56285000	      5627	80004ee4	40f658b3	sra	x17,x12,x15	 x12:0x8000a044 x15:0xfffffd9c x17=0xfffffff8
       56295000	      5628	80004ee8	7e58ac93	slti	x25,x17,2021	 x17:0xfffffff8 x25=0x00000001
       56305000	      5629	80004eec	01624863	blt	x4,x22,80004efc	  x4:0x00000340 x22:0x00000000
       56315000	      5630	80004ef0	04eac863	blt	x21,x14,80004f40	 x21:0x40000000 x14:0x00000692
       56325000	      5631	80004ef4	0140a633	slt	x12,x1,x20	  x1:0x00000001 x20:0x00000000 x12=0x00000000
       56335000	      5632	80004ef8	c38bacb7	lui	x25,0xc38ba	 x25=0xc38ba000
       56345000	      5633	80004efc	01316a63	bltu	x2,x19,80004f10	  x2:0x7fff62fc x19:0x0000000a
       56355000	      5634	80004f00	e5bec697	auipc	x13,0xe5bec	 x13=0x65bf0efc
       56365000	      5635	80004f04	01219c33	sll	x24,x3,x18	  x3:0x8000982b x18:0x80009efc x24=0xb0000000
       56375000	      5636	80004f08	016dea63	bltu	x27,x22,80004f1c	 x27:0x00000000 x22:0x00000000
       56385000	      5637	80004f0c	02f8f063	bgeu	x17,x15,80004f2c	 x17:0xfffffff8 x15:0xfffffd9c
       56395000	      5638	00000000	00000013	addi	x0,x0,0	  x0:0x00000000
       56405000	      5639	80004f28	00000013	addi	x0,x0,0	  x0:0x00000000
       56415000	      5640	80004f2c	00e43e33	sltu	x28,x8,x14	  x8:0xfffffc7f x14:0x00000692 x28=0x00000000
       56425000	      5641	80004f30	036c0063	beq	x24,x22,80004f50	 x24:0xb0000000 x22:0x00000000
       56435000	      5642	80004f34	0145feb3	and	x29,x11,x20	 x11:0x00000010 x20:0x00000000 x29=0x00000000
       56445000	      5643	80004f38	504ad137	lui	x2,0x504ad	  x2=0x504ad000
       56455000	      5644	80004f3c	00b047b3	xor	x15,x0,x11	  x0:0x00000000 x11:0x00000010 x15=0x00000010
       56465000	      5645	80004f40	41b98cb3	sub	x25,x19,x27	 x19:0x0000000a x27:0x00000000 x25=0x0000000a
       56475000	      5646	80004f44	01c2d493	srli	x9,x5,0x1c	  x5:0x00000000  x9=0x00000000
       56485000	      5647	80004f48	00000013	addi	x0,x0,0	  x0:0x00000000
       56495000	      5648	80004f4c	01ba9d33	sll	x26,x21,x27	 x21:0x40000000 x27:0x00000000 x26=0x40000000
       56505000	      5649	80004f50	01d0f463	bgeu	x1,x29,80004f58	  x1:0x00000001 x29:0x00000000
       56515000	      5650	00000000	00000013	addi	x0,x0,0	  x0:0x00000000
       56525000	      5651	80004f54	00000013	addi	x0,x0,0	  x0:0x00000000
       56535000	      5652	80004f58	011ad093	srli	x1,x21,0x11	 x21:0x40000000  x1=0x00002000
       56545000	      5653	80004f5c	01ad9663	bne	x27,x26,80004f68	 x27:0x00000000 x26:0x40000000
       56555000	      5654	00000000	00000013	addi	x0,x0,0	  x0:0x00000000
       56565000	      5655	80004f64	00000013	addi	x0,x0,0	  x0:0x00000000
       56575000	      5656	80004f68	0534c863	blt	x9,x19,80004fb8	  x9:0x00000000 x19:0x0000000a
       56585000	      5657	00000000	00000013	addi	x0,x0,0	  x0:0x00000000
       56595000	      5658	80004fb4	00000013	addi	x0,x0,0	  x0:0x00000000
       56605000	      5659	80004fb8	01b089b3	add	x19,x1,x27	  x1:0x00002000 x27:0x00000000 x19=0x00002000
       56615000	      5660	80004fbc	c8c26c97	auipc	x25,0xc8c26	 x25=0x48c2afb8
       56625000	      5661	80004fc0	2cc0c293	xori	x5,x1,716	  x1:0x00002000  x5=0x000022cc
       56635000	      5662	80004fc4	00787133	and	x2,x16,x7	 x16:0x000000ff  x7:0xfffffbcb  x2=0x000000cb
       56645000	      5663	80004fc8	40630133	sub	x2,x6,x6	  x6:0xfffffe84  x6:0xfffffe84  x2=0x00000000
       56655000	      5664	80004fcc	016d9cb3	sll	x25,x27,x22	 x27:0x00000000 x22:0x00000000 x25=0x00000000
       56665000	      5665	80004fd0	0b877393	andi	x7,x14,184	 x14:0x00000692  x7=0x00000090
       56675000	      5666	80004fd4	b7733493	sltiu	x9,x6,-1161	  x6:0xfffffe84  x9=0x00000000
       56685000	      5667	80004fd8	3378f293	andi	x5,x17,823	 x17:0xfffffff8  x5=0x00000330
       56695000	      5668	80004fdc	40d05a13	srai	x20,x0,0xd	  x0:0x00000000 x20=0x00000000
       56705000	      5669	80004fe0	05418463	beq	x3,x20,80005028	  x3:0x8000982b x20:0x00000000
       56715000	      5670	80004fe4	61944113	xori	x2,x8,1561	  x8:0xfffffc7f  x2=0xfffffa66
       56725000	      5671	80004fe8	8ffce717	auipc	x14,0x8ffce	 x14=0x0ffd2fe4
       56735000	      5672	80004fec	0382d663	bge	x5,x24,80005018	  x5:0x00000330 x24:0xb0000000
       56745000	      5673	00000000	00000013	addi	x0,x0,0	  x0:0x00000000
       56755000	      5674	80005014	00000013	addi	x0,x0,0	  x0:0x00000000
       56765000	      5675	80005018	b3356f13	ori	x30,x10,-1229	 x10:0x80009fc4 x30=0xfffffff7
       56775000	      5676	8000501c	004a9093	slli	x1,x21,0x4	 x21:0x40000000  x1=0x00000000
       56785000	      5677	80005020	05d59263	bne	x11,x29,80005064	 x11:0x00000010 x29:0x00000000
       56795000	      5678	00000000	00000013	addi	x0,x0,0	  x0:0x00000000
       56805000	      5679	80005060	00000013	addi	x0,x0,0	  x0:0x00000000
       56815000	      5680	80005064	418c0c33	sub	x24,x24,x24	 x24:0xb0000000 x24:0xb0000000 x24=0x00000000
       56825000	      5681	80005068	00b39f13	slli	x30,x7,0xb	  x7:0x00000090 x30=0x00048000
       56835000	      5682	8000506c	f9ca3113	sltiu	x2,x20,-100	 x20:0x00000000  x2=0x00000001
       56845000	      5683	80005070	01b22133	slt	x2,x4,x27	  x4:0x00000340 x27:0x00000000  x2=0x00000000
       56855000	      5684	80005074	010c7c33	and	x24,x24,x16	 x24:0x00000000 x16:0x000000ff x24=0x00000000
       56865000	      5685	80005078	00b58833	add	x16,x11,x11	 x11:0x00000010 x11:0x00000010 x16=0x00000020
       56875000	      5686	8000507c	41db7693	andi	x13,x22,1053	 x22:0x00000000 x13=0x00000000
       56885000	      5687	80005080	00549793	slli	x15,x9,0x5	  x9:0x00000000 x15=0x00000000
       56895000	      5688	80005084	abe9ac13	slti	x24,x19,-1346	 x19:0x00002000 x24=0x00000000
       56905000	      5689	80005088	01610c63	beq	x2,x22,800050a0	  x2:0x00000000 x22:0x00000000
       56915000	      5690	00000000	00000013	addi	x0,x0,0	  x0:0x00000000
       56925000	      5691	8000509c	00000013	addi	x0,x0,0	  x0:0x00000000
       56935000	      5692	800050a0	419186b3	sub	x13,x3,x25	  x3:0x8000982b x25:0x00000000 x13=0x8000982b
       56945000	      5693	800050a4	01a12f33	slt	x30,x2,x26	  x2:0x00000000 x26:0x40000000 x30=0x00000001
       56955000	      5694	800050a8	41cbd133	sra	x2,x23,x28	 x23:0x00000001 x28:0x00000000  x2=0x00000001
       56965000	      5695	800050ac	40e88833	sub	x16,x17,x14	 x17:0xfffffff8 x14:0x0ffd2fe4 x16=0xf002d014
       56975000	      5696	800050b0	00d0e663	bltu	x1,x13,800050bc	  x1:0x00000000 x13:0x8000982b
       56985000	      5697	00000000	00000013	addi	x0,x0,0	  x0:0x00000000
       56995000	      5698	800050b8	00000013	addi	x0,x0,0	  x0:0x00000000
       57005000	      5699	800050bc	011ce833	or	x16,x25,x17	 x25:0x00000000 x17:0xfffffff8 x16=0xfffffff8
       57015000	      5700	800050c0	05dc1463	bne	x24,x29,80005108	 x24:0x00000000 x29:0x00000000
       57025000	      5701	800050c4	01b51b93	slli	x23,x10,0x1b	 x10:0x80009fc4 x23=0x20000000
       57035000	      5702	800050c8	05e67263	bgeu	x12,x30,8000510c	 x12:0x00000000 x30:0x00000001
       57045000	      5703	800050cc	413b87b3	sub	x15,x23,x19	 x23:0x20000000 x19:0x00002000 x15=0x1fffe000
       57055000	      5704	800050d0	01c65493	srli	x9,x12,0x1c	 x12:0x00000000  x9=0x00000000
       57065000	      5705	800050d4	0137d293	srli	x5,x15,0x13	 x15:0x1fffe000  x5=0x000003ff
       57075000	      5706	800050d8	01dd5d33	srl	x26,x26,x29	 x26:0x40000000 x29:0x00000000 x26=0x40000000
       57085000	      5707	800050dc	38407113	andi	x2,x0,900	  x0:0x00000000  x2=0x00000000
       57095000	      5708	800050e0	409f5213	srai	x4,x30,0x9	 x30:0x00000001  x4=0x00000000
       57105000	      5709	800050e4	010bb133	sltu	x2,x23,x16	 x23:0x20000000 x16:0xfffffff8  x2=0x00000001
       57115000	      5710	800050e8	0003df93	srli	x31,x7,0x0	  x7:0x00000090 x31=0x00000090
       57125000	      5711	800050ec	01c15f33	srl	x30,x2,x28	  x2:0x00000001 x28:0x00000000 x30=0x00000001
       57135000	      5712	800050f0	017b46b3	xor	x13,x22,x23	 x22:0x00000000 x23:0x20000000 x13=0x20000000
       57145000	      5713	800050f4	fc61a493	slti	x9,x3,-58	  x3:0x8000982b  x9=0x00000001
       57155000	      5714	800050f8	01fb5e63	bge	x22,x31,80005114	 x22:0x00000000 x31:0x00000090
       57165000	      5715	800050fc	011e4263	blt	x28,x17,80005100	 x28:0x00000000 x17:0xfffffff8
       57175000	      5716	80005100	01cb9233	sll	x4,x23,x28	 x23:0x20000000 x28:0x00000000  x4=0x20000000
       57185000	      5717	80005104	056c0463	beq	x24,x22,8000514c	 x24:0x00000000 x22:0x00000000
       57195000	      5718	00000000	00000013	addi	x0,x0,0	  x0:0x00000000
       57205000	      5719	80005148	00000013	addi	x0,x0,0	  x0:0x00000000
       57215000	      5720	8000514c	00b2c2b3	xor	x5,x5,x11	  x5:0x000003ff x11:0x00000010  x5=0x000003ef
       57225000	      5721	80005150	004c3eb3	sltu	x29,x24,x4	 x24:0x00000000  x4:0x20000000 x29=0x00000001
       57235000	      5722	80005154	00157133	and	x2,x10,x1	 x10:0x80009fc4  x1:0x00000000  x2=0x00000000
       57245000	      5723	80005158	48f64293	xori	x5,x12,1167	 x12:0x00000000  x5=0x0000048f
       57255000	      5724	8000515c	415bdab3	sra	x21,x23,x21	 x23:0x20000000 x21:0x40000000 x21=0x20000000
       57265000	      5725	80005160	00751693	slli	x13,x10,0x7	 x10:0x80009fc4 x13=0x004fe200
       57275000	      5726	80005164	adef74b7	lui	x9,0xadef7	  x9=0xadef7000
       57285000	      5727	80005168	05028863	beq	x5,x16,800051b8	  x5:0x0000048f x16:0xfffffff8
       57295000	      5728	8000516c	02d31463	bne	x6,x13,80005194	  x6:0xfffffe84 x13:0x004fe200
       57305000	      5729	00000000	00000013	addi	x0,x0,0	  x0:0x00000000
       57315000	      5730	80005190	00000013	addi	x0,x0,0	  x0:0x00000000
       57325000	      5731	80005194	01745f33	srl	x30,x8,x23	  x8:0xfffffc7f x23:0x20000000 x30=0xfffffc7f
       57335000	      5732	80005198	00dc9f33	sll	x30,x25,x13	 x25:0x00000000 x13:0x004fe200 x30=0x00000000
       57345000	      5733	8000519c	40f9d213	srai	x4,x19,0xf	 x19:0x00002000  x4=0x00000000
       57355000	      5734	800051a0	029ffe63	bgeu	x31,x9,800051dc	 x31:0x00000090  x9:0xadef7000
       57365000	      5735	800051a4	03a75663	bge	x14,x26,800051d0	 x14:0x0ffd2fe4 x26:0x40000000
       57375000	      5736	800051a8	cd62b193	sltiu	x3,x5,-810	  x5:0x0000048f  x3=0x00000001
       57385000	      5737	800051ac	40bb5d33	sra	x26,x22,x11	 x22:0x00000000 x11:0x00000010 x26=0x00000000
       57395000	      5738	800051b0	23a0bb13	sltiu	x22,x1,570	  x1:0x00000000 x22=0x00000001
       57405000	      5739	800051b4	41fc58b3	sra	x17,x24,x31	 x24:0x00000000 x31:0x00000090 x17=0x00000000
       57415000	      5740	800051b8	02a37263	bgeu	x6,x10,800051dc	  x6:0xfffffe84 x10:0x80009fc4
       57425000	      5741	00000000	00000013	addi	x0,x0,0	  x0:0x00000000
       57435000	      5742	800051d8	00000013	addi	x0,x0,0	  x0:0x00000000
       57445000	      5743	800051dc	00000013	addi	x0,x0,0	  x0:0x00000000
       57455000	      5744	800051e0	012b7bb3	and	x23,x22,x18	 x22:0x00000001 x18:0x80009efc x23=0x00000000
       57465000	      5745	800051e4	41af5033	sra	x0,x30,x26	 x30:0x00000000 x26:0x00000000
       57475000	      5746	800051e8	00955f33	srl	x30,x10,x9	 x10:0x80009fc4  x9:0xadef7000 x30=0x80009fc4
       57485000	      5747	800051ec	011831b3	sltu	x3,x16,x17	 x16:0xfffffff8 x17:0x00000000  x3=0x00000000
       57495000	      5748	800051f0	05a39463	bne	x7,x26,80005238	  x7:0x00000090 x26:0x00000000
       57505000	      5749	00000000	00000013	addi	x0,x0,0	  x0:0x00000000
       57515000	      5750	80005234	00000013	addi	x0,x0,0	  x0:0x00000000
       57525000	      5751	80005238	1ae4f6b7	lui	x13,0x1ae4f	 x13=0x1ae4f000
       57535000	      5752	8000523c	2879ef37	lui	x30,0x2879e	 x30=0x2879e000
       57545000	      5753	80005240	02d80263	beq	x16,x13,80005264	 x16:0xfffffff8 x13:0x1ae4f000
       57555000	      5754	80005244	03f95e63	bge	x18,x31,80005280	 x18:0x80009efc x31:0x00000090
       57565000	      5755	80005248	01818eb3	add	x29,x3,x24	  x3:0x00000000 x24:0x00000000 x29=0x00000000
       57575000	      5756	8000524c	41ee5693	srai	x13,x28,0x1e	 x28:0x00000000 x13=0x00000000
       57585000	      5757	80005250	03076263	bltu	x14,x16,80005274	 x14:0x0ffd2fe4 x16:0xfffffff8
       57595000	      5758	00000000	00000013	addi	x0,x0,0	  x0:0x00000000
       57605000	      5759	80005270	00000013	addi	x0,x0,0	  x0:0x00000000
       57615000	      5760	80005274	0147a1b3	slt	x3,x15,x20	 x15:0x1fffe000 x20:0x00000000  x3=0x00000000
       57625000	      5761	80005278	7c202e13	slti	x28,x0,1986	  x0:0x00000000 x28=0x00000001
       57635000	      5762	8000527c	57e68493	addi	x9,x13,1406	 x13:0x00000000  x9=0x0000057e
       57645000	      5763	80005280	00797233	and	x4,x18,x7	 x18:0x80009efc  x7:0x00000090  x4=0x00000090
       57655000	      5764	80005284	00269c33	sll	x24,x13,x2	 x13:0x00000000  x2:0x00000000 x24=0x00000000
       57665000	      5765	80005288	00e74e33	xor	x28,x14,x14	 x14:0x0ffd2fe4 x14:0x0ffd2fe4 x28=0x00000000
       57675000	      5766	8000528c	02f98063	beq	x19,x15,800052ac	 x19:0x00002000 x15:0x1fffe000
       57685000	      5767	80005290	893c2e13	slti	x28,x24,-1901	 x24:0x00000000 x28=0x00000000
       57695000	      5768	80005294	00b0d593	srli	x11,x1,0xb	  x1:0x00000000 x11=0x00000000
       57705000	      5769	80005298	01985f93	srli	x31,x16,0x19	 x16:0xfffffff8 x31=0x0000007f
       57715000	      5770	8000529c	00000013	addi	x0,x0,0	  x0:0x00000000
       57725000	      5771	800052a0	01c2f833	and	x16,x5,x28	  x5:0x0000048f x28:0x00000000 x16=0x00000000
       57735000	      5772	800052a4	017a5113	srli	x2,x20,0x17	 x20:0x00000000  x2=0x00000000
       57745000	      5773	800052a8	77cc2397	auipc	x7,0x77cc2	  x7=0xf7cc72a4
       57755000	      5774	800052ac	00f9b2b3	sltu	x5,x19,x15	 x19:0x00002000 x15:0x1fffe000  x5=0x00000001
       57765000	      5775	800052b0	0e67e013	ori	x0,x15,230	 x15:0x1fffe000
       57775000	      5776	800052b4	056cc263	blt	x25,x22,800052f8	 x25:0x00000000 x22:0x00000001
       57785000	      5777	00000000	00000013	addi	x0,x0,0	  x0:0x00000000
       57795000	      5778	800052f4	00000013	addi	x0,x0,0	  x0:0x00000000
       57805000	      5779	800052f8	00b829b3	slt	x19,x16,x11	 x16:0x00000000 x11:0x00000000 x19=0x00000000
       57815000	      5780	800052fc	04e8f863	bgeu	x17,x14,8000534c	 x17:0x00000000 x14:0x0ffd2fe4
       57825000	      5781	80005300	01bc1093	slli	x1,x24,0x1b	 x24:0x00000000  x1=0x00000000
       57835000	      5782	80005304	00426a63	bltu	x4,x4,80005318	  x4:0x00000090  x4:0x00000090
       57845000	      5783	80005308	03460463	beq	x12,x20,80005330	 x12:0x00000000 x20:0x00000000
       57855000	      5784	00000000	00000013	addi	x0,x0,0	  x0:0x00000000
       57865000	      5785	8000532c	00000013	addi	x0,x0,0	  x0:0x00000000
       57875000	      5786	80005330	01ff86b3	add	x13,x31,x31	 x31:0x0000007f x31:0x0000007f x13=0x000000fe
       57885000	      5787	80005334	01d61c63	bne	x12,x29,8000534c	 x12:0x00000000 x29:0x00000000
       57895000	      5788	80005338	a7288e13	addi	x28,x17,-1422	 x17:0x00000000 x28=0xfffffa72
       57905000	      5789	8000533c	009aecb3	or	x25,x21,x9	 x21:0x20000000  x9:0x0000057e x25=0x2000057e
       57915000	      5790	80005340	1eee8593	addi	x11,x29,494	 x29:0x00000000 x11=0x000001ee
       57925000	      5791	80005344	37c50593	addi	x11,x10,892	 x10:0x80009fc4 x11=0x8000a340
       57935000	      5792	80005348	5a3c2213	slti	x4,x24,1443	 x24:0x00000000  x4=0x00000001
       57945000	      5793	8000534c	007b9a13	slli	x20,x23,0x7	 x23:0x00000000 x20=0x00000000
       57955000	      5794	80005350	411b5d13	srai	x26,x22,0x11	 x22:0x00000001 x26=0x00000000
       57965000	      5795	80005354	00f748b3	xor	x17,x14,x15	 x14:0x0ffd2fe4 x15:0x1fffe000 x17=0x1002cfe4
       57975000	      5796	80005358	00b15663	bge	x2,x11,80005364	  x2:0x00000000 x11:0x8000a340
       57985000	      5797	00000000	00000013	addi	x0,x0,0	  x0:0x00000000
       57995000	      5798	80005360	00000013	addi	x0,x0,0	  x0:0x00000000
       58005000	      5799	80005364	02055663	bge	x10,x0,80005390	 x10:0x80009fc4  x0:0x00000000
       58015000	      5800	80005368	490c1bb7	lui	x23,0x490c1	 x23=0x490c1000
       58025000	      5801	8000536c	8d7b7e13	andi	x28,x22,-1833	 x22:0x00000001 x28=0x00000001
       58035000	      5802	80005370	00676a63	bltu	x14,x6,80005384	 x14:0x0ffd2fe4  x6:0xfffffe84
       58045000	      5803	00000000	00000013	addi	x0,x0,0	  x0:0x00000000
       58055000	      5804	80005380	00000013	addi	x0,x0,0	  x0:0x00000000
       58065000	      5805	80005384	46d4c613	xori	x12,x9,1133	  x9:0x0000057e x12=0x00000113
       58075000	      5806	80005388	75d47993	andi	x19,x8,1885	  x8:0xfffffc7f x19=0x0000045d
       58085000	      5807	8000538c	6191f493	andi	x9,x3,1561	  x3:0x00000000  x9=0x00000000
       58095000	      5808	80005390	01735213	srli	x4,x6,0x17	  x6:0xfffffe84  x4=0x000001ff
       58105000	      5809	80005394	0058bab3	sltu	x21,x17,x5	 x17:0x1002cfe4  x5:0x00000001 x21=0x00000000
       58115000	      5810	80005398	00caf8b3	and	x17,x21,x12	 x21:0x00000000 x12:0x00000113 x17=0x00000000
       58125000	      5811	8000539c	980df113	andi	x2,x27,-1664	 x27:0x00000000  x2=0x00000000
       58135000	      5812	800053a0	79391c97	auipc	x25,0x79391	 x25=0xf939639c
       58145000	      5813	800053a4	016d3633	sltu	x12,x26,x22	 x26:0x00000000 x22:0x00000001 x12=0x00000001
       58155000	      5814	800053a8	01cd3eb3	sltu	x29,x26,x28	 x26:0x00000000 x28:0x00000001 x29=0x00000001
       58165000	      5815	800053ac	2504a093	slti	x1,x9,592	  x9:0x00000000  x1=0x00000001
       58175000	      5816	800053b0	0d4e7393	andi	x7,x28,212	 x28:0x00000001  x7=0x00000000
       58185000	      5817	800053b4	7c518c13	addi	x24,x3,1989	  x3:0x00000000 x24=0x000007c5
       58195000	      5818	800053b8	00509593	slli	x11,x1,0x5	  x1:0x00000001 x11=0x00000020
       58205000	      5819	800053bc	03405e63	bge	x0,x20,800053f8	  x0:0x00000000 x20:0x00000000
       58215000	      5820	00000000	00000013	addi	x0,x0,0	  x0:0x00000000
       58225000	      5821	800053f4	00000013	addi	x0,x0,0	  x0:0x00000000
       58235000	      5822	800053f8	00a1f833	and	x16,x3,x10	  x3:0x00000000 x10:0x80009fc4 x16=0x00000000
       58245000	      5823	800053fc	41b48f33	sub	x30,x9,x27	  x9:0x00000000 x27:0x00000000 x30=0x00000000
       58255000	      5824	80005400	015f8263	beq	x31,x21,80005404	 x31:0x0000007f x21:0x00000000
       58265000	      5825	80005404	00000013	addi	x0,x0,0	  x0:0x00000000
       58275000	      5826	80005408	0490f463	bgeu	x1,x9,80005450	  x1:0x00000001  x9:0x00000000
       58285000	      5827	00000000	00000013	addi	x0,x0,0	  x0:0x00000000
       58295000	      5828	8000544c	00000013	addi	x0,x0,0	  x0:0x00000000
       58305000	      5829	80005450	41595733	sra	x14,x18,x21	 x18:0x80009efc x21:0x00000000 x14=0x80009efc
       58315000	      5830	80005454	00ea5eb3	srl	x29,x20,x14	 x20:0x00000000 x14:0x80009efc x29=0x00000000
       58325000	      5831	80005458	00d9f0b3	and	x1,x19,x13	 x19:0x0000045d x13:0x000000fe  x1=0x0000005c
       58335000	      5832	8000545c	409e8fb3	sub	x31,x29,x9	 x29:0x00000000  x9:0x00000000 x31=0x00000000
       58345000	      5833	80005460	051d0063	beq	x26,x17,800054a0	 x26:0x00000000 x17:0x00000000
       58355000	      5834	00000000	00000013	addi	x0,x0,0	  x0:0x00000000
       58365000	      5835	8000549c	00000013	addi	x0,x0,0	  x0:0x00000000
       58375000	      5836	800054a0	41fd5bb3	sra	x23,x26,x31	 x26:0x00000000 x31:0x00000000 x23=0x00000000
       58385000	      5837	800054a4	00b7da63	bge	x15,x11,800054b8	 x15:0x1fffe000 x11:0x00000020
       58395000	      5838	00000000	00000013	addi	x0,x0,0	  x0:0x00000000
       58405000	      5839	800054b4	00000013	addi	x0,x0,0	  x0:0x00000000
       58415000	      5840	800054b8	05d74463	blt	x14,x29,80005500	 x14:0x80009efc x29:0x00000000
       58425000	      5841	00000000	00000013	addi	x0,x0,0	  x0:0x00000000
       58435000	      5842	800054fc	00000013	addi	x0,x0,0	  x0:0x00000000
       58445000	      5843	80005500	05aad463	bge	x21,x26,80005548	 x21:0x00000000 x26:0x00000000
       58455000	      5844	00000000	00000013	addi	x0,x0,0	  x0:0x00000000
       58465000	      5845	80005544	00000013	addi	x0,x0,0	  x0:0x00000000
       58475000	      5846	80005548	01c403b3	add	x7,x8,x28	  x8:0xfffffc7f x28:0x00000001  x7=0xfffffc80
       58485000	      5847	8000554c	815e7013	andi	x0,x28,-2027	 x28:0x00000001
       58495000	      5848	80005550	403e8e33	sub	x28,x29,x3	 x29:0x00000000  x3:0x00000000 x28=0x00000000
       58505000	      5849	80005554	00f0e463	bltu	x1,x15,8000555c	  x1:0x0000005c x15:0x1fffe000
       58515000	      5850	00000000	00000013	addi	x0,x0,0	  x0:0x00000000
       58525000	      5851	80005558	00000013	addi	x0,x0,0	  x0:0x00000000
       58535000	      5852	8000555c	409ec893	xori	x17,x29,1033	 x29:0x00000000 x17=0x00000409
       58545000	      5853	80005560	008e7e63	bgeu	x28,x8,8000557c	 x28:0x00000000  x8:0xfffffc7f
       58555000	      5854	80005564	f8034893	xori	x17,x6,-128	  x6:0xfffffe84 x17=0x00000104
       58565000	      5855	80005568	02636463	bltu	x6,x6,80005590	  x6:0xfffffe84  x6:0xfffffe84
       58575000	      5856	8000556c	00e3fe33	and	x28,x7,x14	  x7:0xfffffc80 x14:0x80009efc x28=0x80009c80
       58585000	      5857	80005570	9818fc37	lui	x24,0x9818f	 x24=0x9818f000
       58595000	      5858	80005574	be9a0613	addi	x12,x20,-1047	 x20:0x00000000 x12=0xfffffbe9
       58605000	      5859	80005578	00eef3b3	and	x7,x29,x14	 x29:0x00000000 x14:0x80009efc  x7=0x00000000
       58615000	      5860	8000557c	00a16033	or	x0,x2,x10	  x2:0x00000000 x10:0x80009fc4
       58625000	      5861	80005580	00292433	slt	x8,x18,x2	 x18:0x80009efc  x2:0x00000000  x8=0x00000001
       58635000	      5862	80005584	41318a33	sub	x20,x3,x19	  x3:0x00000000 x19:0x0000045d x20=0xfffffba3
       58645000	      5863	80005588	41fe5433	sra	x8,x28,x31	 x28:0x80009c80 x31:0x00000000  x8=0x80009c80
       58655000	      5864	8000558c	0002e663	bltu	x5,x0,80005598	  x5:0x00000001  x0:0x00000000
       58665000	      5865	80005590	00000013	addi	x0,x0,0	  x0:0x00000000
       58675000	      5866	80005594	01493ab3	sltu	x21,x18,x20	 x18:0x80009efc x20:0xfffffba3 x21=0x00000001
       58685000	      5867	80005598	6bd04213	xori	x4,x0,1725	  x0:0x00000000  x4=0x000006bd
       58695000	      5868	8000559c	01535263	bge	x6,x21,800055a0	  x6:0xfffffe84 x21:0x00000001
       58705000	      5869	800055a0	01605c63	bge	x0,x22,800055b8	  x0:0x00000000 x22:0x00000001
       58715000	      5870	800055a4	e3e01e37	lui	x28,0xe3e01	 x28=0xe3e01000
       58725000	      5871	800055a8	02ccf063	bgeu	x25,x12,800055c8	 x25:0xf939639c x12:0xfffffbe9
       58735000	      5872	800055ac	01129c93	slli	x25,x5,0x11	  x5:0x00000001 x25=0x00020000
       58745000	      5873	800055b0	01bd86b3	add	x13,x27,x27	 x27:0x00000000 x27:0x00000000 x13=0x00000000
       58755000	      5874	800055b4	01355413	srli	x8,x10,0x13	 x10:0x80009fc4  x8=0x00001000
       58765000	      5875	800055b8	6f263693	sltiu	x13,x12,1778	 x12:0xfffffbe9 x13=0x00000000
       58775000	      5876	800055bc	41145fb3	sra	x31,x8,x17	  x8:0x00001000 x17:0x00000104 x31=0x00000100
       58785000	      5877	800055c0	09786213	ori	x4,x16,151	 x16:0x00000000  x4=0x00000097
       58795000	      5878	800055c4	ace10d37	lui	x26,0xace10	 x26=0xace10000
       58805000	      5879	800055c8	018e5213	srli	x4,x28,0x18	 x28:0xe3e01000  x4=0x000000e3
       58815000	      5880	800055cc	0291ce63	blt	x3,x9,80005608	  x3:0x00000000  x9:0x00000000
       58825000	      5881	800055d0	edcdf693	andi	x13,x27,-292	 x27:0x00000000 x13=0x00000000
       58835000	      5882	800055d4	31020013	addi	x0,x4,784	  x4:0x000000e3
       58845000	      5883	800055d8	00f95733	srl	x14,x18,x15	 x18:0x80009efc x15:0x1fffe000 x14=0x80009efc
       58855000	      5884	800055dc	03bde263	bltu	x27,x27,80005600	 x27:0x00000000 x27:0x00000000
       58865000	      5885	800055e0	00fa3e33	sltu	x28,x20,x15	 x20:0xfffffba3 x15:0x1fffe000 x28=0x00000000
       58875000	      5886	800055e4	0086d133	srl	x2,x13,x8	 x13:0x00000000  x8:0x00001000  x2=0x00000000
       58885000	      5887	800055e8	ef69e793	ori	x15,x19,-266	 x19:0x0000045d x15=0xfffffeff
       58895000	      5888	800055ec	77c32e13	slti	x28,x6,1916	  x6:0xfffffe84 x28=0x00000001
       58905000	      5889	800055f0	faef08b7	lui	x17,0xfaef0	 x17=0xfaef0000
       58915000	      5890	800055f4	bd812cb7	lui	x25,0xbd812	 x25=0xbd812000
       58925000	      5891	800055f8	01f64233	xor	x4,x12,x31	 x12:0xfffffbe9 x31:0x00000100  x4=0xfffffae9
       58935000	      5892	800055fc	016e5863	bge	x28,x22,8000560c	 x28:0x00000001 x22:0x00000001
       58945000	      5893	00000000	00000013	addi	x0,x0,0	  x0:0x00000000
       58955000	      5894	80005608	00000013	addi	x0,x0,0	  x0:0x00000000
       58965000	      5895	8000560c	01535433	srl	x8,x6,x21	  x6:0xfffffe84 x21:0x00000001  x8=0x7fffff42
       58975000	      5896	80005610	003ac033	xor	x0,x21,x3	 x21:0x00000001  x3:0x00000000
       58985000	      5897	80005614	045f6863	bltu	x30,x5,80005664	 x30:0x00000000  x5:0x00000001
       58995000	      5898	00000000	00000013	addi	x0,x0,0	  x0:0x00000000
       59005000	      5899	80005660	00000013	addi	x0,x0,0	  x0:0x00000000
       59015000	      5900	80005664	baf63093	sltiu	x1,x12,-1105	 x12:0xfffffbe9  x1=0x00000000
       59025000	      5901	80005668	41050633	sub	x12,x10,x16	 x10:0x80009fc4 x16:0x00000000 x12=0x80009fc4
       59035000	      5902	8000566c	018f7ab3	and	x21,x30,x24	 x30:0x00000000 x24:0x9818f000 x21=0x00000000
       59045000	      5903	80005670	00f69593	slli	x11,x13,0xf	 x13:0x00000000 x11=0x00000000
       59055000	      5904	80005674	ed41df97	auipc	x31,0xed41d	 x31=0x6d422670
       59065000	      5905	80005678	2d850813	addi	x16,x10,728	 x10:0x80009fc4 x16=0x8000a29c
       59075000	      5906	8000567c	0020f5b3	and	x11,x1,x2	  x1:0x00000000  x2:0x00000000 x11=0x00000000
       59085000	      5907	80005680	01948c33	add	x24,x9,x25	  x9:0x00000000 x25:0xbd812000 x24=0xbd812000
       59095000	      5908	80005684	0176b8b3	sltu	x17,x13,x23	 x13:0x00000000 x23:0x00000000 x17=0x00000000
       59105000	      5909	80005688	e4d3b593	sltiu	x11,x7,-435	  x7:0x00000000 x11=0x00000001
       59115000	      5910	8000568c	41f9d893	srai	x17,x19,0x1f	 x19:0x0000045d x17=0x00000000
       59125000	      5911	80005690	03878263	beq	x15,x24,800056b4	 x15:0xfffffeff x24:0xbd812000
       59135000	      5912	80005694	00af5ab3	srl	x21,x30,x10	 x30:0x00000000 x10:0x80009fc4 x21=0x00000000
       59145000	      5913	80005698	67576093	ori	x1,x14,1653	 x14:0x80009efc  x1=0x80009efd
       59155000	      5914	8000569c	01eaaab3	slt	x21,x21,x30	 x21:0x00000000 x30:0x00000000 x21=0x00000000
       59165000	      5915	800056a0	019b80b3	add	x1,x23,x25	 x23:0x00000000 x25:0xbd812000  x1=0xbd812000
       59175000	      5916	800056a4	00ce4833	xor	x16,x28,x12	 x28:0x00000001 x12:0x80009fc4 x16=0x80009fc5
       59185000	      5917	800056a8	2d7ec9b7	lui	x19,0x2d7ec	 x19=0x2d7ec000
       59195000	      5918	800056ac	00915833	srl	x16,x2,x9	  x2:0x00000000  x9:0x00000000 x16=0x00000000
       59205000	      5919	800056b0	00000013	addi	x0,x0,0	  x0:0x00000000
       59215000	      5920	800056b4	4173f593	andi	x11,x7,1047	  x7:0x00000000 x11=0x00000000
       59225000	      5921	800056b8	d3070e13	addi	x28,x14,-720	 x14:0x80009efc x28=0x80009c2c
       59235000	      5922	800056bc	cb0f7a13	andi	x20,x30,-848	 x30:0x00000000 x20=0x00000000
       59245000	      5923	800056c0	00f2b633	sltu	x12,x5,x15	  x5:0x00000001 x15:0xfffffeff x12=0x00000001
       59255000	      5924	800056c4	01c960b3	or	x1,x18,x28	 x18:0x80009efc x28:0x80009c2c  x1=0x80009efc
       59265000	      5925	800056c8	06d217b7	lui	x15,0x6d21	 x15=0x06d21000
       59275000	      5926	800056cc	41ad5713	srai	x14,x26,0x1a	 x26:0xace10000 x14=0xffffffeb
       59285000	      5927	800056d0	003c0b33	add	x22,x24,x3	 x24:0xbd812000  x3:0x00000000 x22=0xbd812000
       59295000	      5928	800056d4	c06fb793	sltiu	x15,x31,-1018	 x31:0x6d422670 x15=0x00000001
       59305000	      5929	800056d8	5f168713	addi	x14,x13,1521	 x13:0x00000000 x14=0x000005f1
       59315000	      5930	800056dc	052ee463	bltu	x29,x18,80005724	 x29:0x00000000 x18:0x80009efc
       59325000	      5931	00000000	00000013	addi	x0,x0,0	  x0:0x00000000
       59335000	      5932	80005720	00000013	addi	x0,x0,0	  x0:0x00000000
       59345000	      5933	80005724	9fec4013	xori	x0,x24,-1538	 x24:0xbd812000
       59355000	      5934	80005728	001a21b3	slt	x3,x20,x1	 x20:0x00000000  x1:0x80009efc  x3=0x00000000
       59365000	      5935	8000572c	64166e93	ori	x29,x12,1601	 x12:0x00000001 x29=0x00000641
       59375000	      5936	80005730	99e80613	addi	x12,x16,-1634	 x16:0x00000000 x12=0xfffff99e
       59385000	      5937	80005734	4f7f3013	sltiu	x0,x30,1271	 x30:0x00000000
       59395000	      5938	80005738	00e9f663	bgeu	x19,x14,80005744	 x19:0x2d7ec000 x14:0x000005f1
       59405000	      5939	00000000	00000013	addi	x0,x0,0	  x0:0x00000000
       59415000	      5940	80005740	00000013	addi	x0,x0,0	  x0:0x00000000
       59425000	      5941	80005744	00f1afb3	slt	x31,x3,x15	  x3:0x00000000 x15:0x00000001 x31=0x00000001
       59435000	      5942	80005748	003061b3	or	x3,x0,x3	  x0:0x00000000  x3:0x00000000  x3=0x00000000
       59445000	      5943	8000574c	41ea0f33	sub	x30,x20,x30	 x20:0x00000000 x30:0x00000000 x30=0x00000000
       59455000	      5944	80005750	00bc5393	srli	x7,x24,0xb	 x24:0xbd812000  x7=0x0017b024
       59465000	      5945	80005754	550ac293	xori	x5,x21,1360	 x21:0x00000000  x5=0x00000550
       59475000	      5946	80005758	00dfde33	srl	x28,x31,x13	 x31:0x00000001 x13:0x00000000 x28=0x00000001
       59485000	      5947	8000575c	01431733	sll	x14,x6,x20	  x6:0xfffffe84 x20:0x00000000 x14=0xfffffe84
       59495000	      5948	80005760	01afdf13	srli	x30,x31,0x1a	 x31:0x00000001 x30=0x00000000
       59505000	      5949	80005764	309cf393	andi	x7,x25,777	 x25:0xbd812000  x7=0x00000000
       59515000	      5950	80005768	97f22993	slti	x19,x4,-1665	  x4:0xfffffae9 x19=0x00000000
       59525000	      5951	8000576c	00a25133	srl	x2,x4,x10	  x4:0xfffffae9 x10:0x80009fc4  x2=0x0fffffae
       59535000	      5952	80005770	e6de0f93	addi	x31,x28,-403	 x28:0x00000001 x31=0xfffffe6e
       59545000	      5953	80005774	0183b133	sltu	x2,x7,x24	  x7:0x00000000 x24:0xbd812000  x2=0x00000001
       59555000	      5954	80005778	00658eb3	add	x29,x11,x6	 x11:0x00000000  x6:0xfffffe84 x29=0xfffffe84
       59565000	      5955	8000577c	003b6463	bltu	x22,x3,80005784	 x22:0xbd812000  x3:0x00000000
       59575000	      5956	80005780	099effb7	lui	x31,0x99ef	 x31=0x099ef000
       59585000	      5957	80005784	030ae263	bltu	x21,x16,800057a8	 x21:0x00000000 x16:0x00000000
       59595000	      5958	80005788	40da88b3	sub	x17,x21,x13	 x21:0x00000000 x13:0x00000000 x17=0x00000000
       59605000	      5959	8000578c	01c66e63	bltu	x12,x28,800057a8	 x12:0xfffff99e x28:0x00000001
       59615000	      5960	80005790	003a3333	sltu	x6,x20,x3	 x20:0x00000000  x3:0x00000000  x6=0x00000000
       59625000	      5961	80005794	2dfd2237	lui	x4,0x2dfd2	  x4=0x2dfd2000
       59635000	      5962	80005798	55444a93	xori	x21,x8,1364	  x8:0x7fffff42 x21=0x7ffffa16
       59645000	      5963	8000579c	00fb81b3	add	x3,x23,x15	 x23:0x00000000 x15:0x00000001  x3=0x00000001
       59655000	      5964	800057a0	00ea65b3	or	x11,x20,x14	 x20:0x00000000 x14:0xfffffe84 x11=0xfffffe84
       59665000	      5965	800057a4	006f7d33	and	x26,x30,x6	 x30:0x00000000  x6:0x00000000 x26=0x00000000
       59675000	      5966	800057a8	00ea1a93	slli	x21,x20,0xe	 x20:0x00000000 x21=0x00000000
       59685000	      5967	800057ac	43ade9b7	lui	x19,0x43ade	 x19=0x43ade000
       59695000	      5968	800057b0	01235f33	srl	x30,x6,x18	  x6:0x00000000 x18:0x80009efc x30=0x00000000
       59705000	      5969	800057b4	009dffb3	and	x31,x27,x9	 x27:0x00000000  x9:0x00000000 x31=0x00000000
       59715000	      5970	800057b8	001ede33	srl	x28,x29,x1	 x29:0xfffffe84  x1:0x80009efc x28=0x0000000f
       59725000	      5971	800057bc	405bd2b3	sra	x5,x23,x5	 x23:0x00000000  x5:0x00000550  x5=0x00000000
       59735000	      5972	800057c0	013d88b3	add	x17,x27,x19	 x27:0x00000000 x19:0x43ade000 x17=0x43ade000
       59745000	      5973	800057c4	f63e2997	auipc	x19,0xf63e2	 x19=0x763e77c0
       59755000	      5974	800057c8	04da5463	bge	x20,x13,80005810	 x20:0x00000000 x13:0x00000000
       59765000	      5975	00000000	00000013	addi	x0,x0,0	  x0:0x00000000
       59775000	      5976	8000580c	00000013	addi	x0,x0,0	  x0:0x00000000
       59785000	      5977	80005810	003cfa63	bgeu	x25,x3,80005824	 x25:0xbd812000  x3:0x00000001
       59795000	      5978	00000000	00000013	addi	x0,x0,0	  x0:0x00000000
       59805000	      5979	80005820	00000013	addi	x0,x0,0	  x0:0x00000000
       59815000	      5980	80005824	67edb593	sltiu	x11,x27,1662	 x27:0x00000000 x11=0x00000001
       59825000	      5981	80005828	415bd113	srai	x2,x23,0x15	 x23:0x00000000  x2=0x00000000
       59835000	      5982	8000582c	00e26a33	or	x20,x4,x14	  x4:0x2dfd2000 x14:0xfffffe84 x20=0xfffffe84
       59845000	      5983	80005830	412b0fb3	sub	x31,x22,x18	 x22:0xbd812000 x18:0x80009efc x31=0x3d808104
       59855000	      5984	80005834	01349a33	sll	x20,x9,x19	  x9:0x00000000 x19:0x763e77c0 x20=0x00000000
       59865000	      5985	80005838	00e49833	sll	x16,x9,x14	  x9:0x00000000 x14:0xfffffe84 x16=0x00000000
       59875000	      5986	8000583c	414409b3	sub	x19,x8,x20	  x8:0x7fffff42 x20:0x00000000 x19=0x7fffff42
       59885000	      5987	80005840	0055e733	or	x14,x11,x5	 x11:0x00000001  x5:0x00000000 x14=0x00000001
       59895000	      5988	80005844	018728b3	slt	x17,x14,x24	 x14:0x00000001 x24:0xbd812000 x17=0x00000000
       59905000	      5989	80005848	04ec8063	beq	x25,x14,80005888	 x25:0xbd812000 x14:0x00000001
       59915000	      5990	8000584c	01d8ba33	sltu	x20,x17,x29	 x17:0x00000000 x29:0xfffffe84 x20=0x00000001
       59925000	      5991	80005850	0165db13	srli	x22,x11,0x16	 x11:0x00000001 x22=0x00000000
       59935000	      5992	80005854	00000013	addi	x0,x0,0	  x0:0x00000000
       59945000	      5993	80005858	40668f33	sub	x30,x13,x6	 x13:0x00000000  x6:0x00000000 x30=0x00000000
       59955000	      5994	8000585c	00f24a33	xor	x20,x4,x15	  x4:0x2dfd2000 x15:0x00000001 x20=0x2dfd2001
       59965000	      5995	80005860	0199d133	srl	x2,x19,x25	 x19:0x7fffff42 x25:0xbd812000  x2=0x7fffff42
       59975000	      5996	80005864	00ca9213	slli	x4,x21,0xc	 x21:0x00000000  x4=0x00000000
       59985000	      5997	80005868	0355ee63	bltu	x11,x21,800058a4	 x11:0x00000001 x21:0x00000000
       59995000	      5998	8000586c	41f900b3	sub	x1,x18,x31	 x18:0x80009efc x31:0x3d808104  x1=0x42801df8
       60005000	      5999	80005870	05961863	bne	x12,x25,800058c0	 x12:0xfffff99e x25:0xbd812000
       60015000	      6000	00000000	00000013	addi	x0,x0,0	  x0:0x00000000
       60025000	      6001	800058bc	00000013	addi	x0,x0,0	  x0:0x00000000
       60035000	      6002	800058c0	111d5663	bge	x26,x17,800059cc	 x26:0x00000000 x17:0x00000000
       60045000	      6003	00000000	00000013	addi	x0,x0,0	  x0:0x00000000
       60055000	      6004	800059c8	00000013	addi	x0,x0,0	  x0:0x00000000
       60065000	      6005	800059cc	001a5593	srli	x11,x20,0x1	 x20:0x2dfd2001 x11=0x16fe9000
       60075000	      6006	800059d0	c660bc13	sltiu	x24,x1,-922	  x1:0x42801df8 x24=0x00000001
       60085000	      6007	800059d4	01b12eb3	slt	x29,x2,x27	  x2:0x7fffff42 x27:0x00000000 x29=0x00000000
       60095000	      6008	800059d8	00e00663	beq	x0,x14,800059e4	  x0:0x00000000 x14:0x00000001
       60105000	      6009	800059dc	0004ed33	or	x26,x9,x0	  x9:0x00000000  x0:0x00000000 x26=0x00000000
       60115000	      6010	800059e0	00fa7fb3	and	x31,x20,x15	 x20:0x2dfd2001 x15:0x00000001 x31=0x00000001
       60125000	      6011	800059e4	0113c733	xor	x14,x7,x17	  x7:0x00000000 x17:0x00000000 x14=0x00000000
       60135000	      6012	800059e8	dac34993	xori	x19,x6,-596	  x6:0x00000000 x19=0xfffffdac
       60145000	      6013	800059ec	c66b6293	ori	x5,x22,-922	 x22:0x00000000  x5=0xfffffc66
       60155000	      6014	800059f0	0127df33	srl	x30,x15,x18	 x15:0x00000001 x18:0x80009efc x30=0x00000000
       60165000	      6015	800059f4	77b95597	auipc	x11,0x77b95	 x11=0xf7b9a9f0
       60175000	      6016	800059f8	01f4fe33	and	x28,x9,x31	  x9:0x00000000 x31:0x00000001 x28=0x00000000
       60185000	      6017	800059fc	bece3a13	sltiu	x20,x28,-1044	 x28:0x00000000 x20=0x00000001
       60195000	      6018	80005a00	0115d093	srli	x1,x11,0x11	 x11:0xf7b9a9f0  x1=0x00007bdc
       60205000	      6019	80005a04	012ba7b3	slt	x15,x23,x18	 x23:0x00000000 x18:0x80009efc x15=0x00000000
       60215000	      6020	80005a08	015c6863	bltu	x24,x21,80005a18	 x24:0x00000001 x21:0x00000000
       60225000	      6021	80005a0c	053c6463	bltu	x24,x19,80005a54	 x24:0x00000001 x19:0xfffffdac
       60235000	      6022	00000000	00000013	addi	x0,x0,0	  x0:0x00000000
       60245000	      6023	80005a50	00000013	addi	x0,x0,0	  x0:0x00000000
       60255000	      6024	80005a54	00212833	slt	x16,x2,x2	  x2:0x7fffff42  x2:0x7fffff42 x16=0x00000000
       60265000	      6025	80005a58	00570833	add	x16,x14,x5	 x14:0x00000000  x5:0xfffffc66 x16=0xfffffc66
       60275000	      6026	80005a5c	00000013	addi	x0,x0,0	  x0:0x00000000
       60285000	      6027	80005a60	009224b3	slt	x9,x4,x9	  x4:0x00000000  x9:0x00000000  x9=0x00000000
       60295000	      6028	80005a64	41de5233	sra	x4,x28,x29	 x28:0x00000000 x29:0x00000000  x4=0x00000000
       60305000	      6029	80005a68	ed34e493	ori	x9,x9,-301	  x9:0x00000000  x9=0xfffffed3
       60315000	      6030	80005a6c	07343d37	lui	x26,0x7343	 x26=0x07343000
       60325000	      6031	80005a70	b9c8f693	andi	x13,x17,-1124	 x17:0x00000000 x13=0x00000000
       60335000	      6032	80005a74	01285a33	srl	x20,x16,x18	 x16:0xfffffc66 x18:0x80009efc x20=0x0000000f
       60345000	      6033	80005a78	01439b13	slli	x22,x7,0x14	  x7:0x00000000 x22=0x00000000
       60355000	      6034	80005a7c	2ab47193	andi	x3,x8,683	  x8:0x7fffff42  x3=0x00000202
       60365000	      6035	80005a80	02948063	beq	x9,x9,80005aa0	  x9:0xfffffed3  x9:0xfffffed3
       60375000	      6036	00000000	00000013	addi	x0,x0,0	  x0:0x00000000
       60385000	      6037	80005a9c	00000013	addi	x0,x0,0	  x0:0x00000000
       60395000	      6038	80005aa0	fdb36a93	ori	x21,x6,-37	  x6:0x00000000 x21=0xffffffdb
       60405000	      6039	80005aa4	0180d4b3	srl	x9,x1,x24	  x1:0x00007bdc x24:0x00000001  x9=0x00003dee
       60415000	      6040	80005aa8	00000013	addi	x0,x0,0	  x0:0x00000000
       60425000	      6041	80005aac	207fbb13	sltiu	x22,x31,519	 x31:0x00000001 x22=0x00000001
       60435000	      6042	80005ab0	00000013	addi	x0,x0,0	  x0:0x00000000
       60445000	      6043	80005ab4	866bbf93	sltiu	x31,x23,-1946	 x23:0x00000000 x31=0x00000001
       60455000	      6044	80005ab8	00000013	addi	x0,x0,0	  x0:0x00000000
       60465000	      6045	80005abc	a7d5eeb7	lui	x29,0xa7d5e	 x29=0xa7d5e000
       60475000	      6046	80005ac0	0051deb3	srl	x29,x3,x5	  x3:0x00000202  x5:0xfffffc66 x29=0x00000008
       60485000	      6047	80005ac4	014884b3	add	x9,x17,x20	 x17:0x00000000 x20:0x0000000f  x9=0x0000000f
       60495000	      6048	80005ac8	01c7e033	or	x0,x15,x28	 x15:0x00000000 x28:0x00000000
       60505000	      6049	80005acc	01746433	or	x8,x8,x23	  x8:0x7fffff42 x23:0x00000000  x8=0x7fffff42
       60515000	      6050	80005ad0	01f88f33	add	x30,x17,x31	 x17:0x00000000 x31:0x00000001 x30=0x00000001
       60525000	      6051	80005ad4	410a5e33	sra	x28,x20,x16	 x20:0x0000000f x16:0xfffffc66 x28=0x00000000
       60535000	      6052	80005ad8	4fbae893	ori	x17,x21,1275	 x21:0xffffffdb x17=0xfffffffb
       60545000	      6053	80005adc	421533b7	lui	x7,0x42153	  x7=0x42153000
       60555000	      6054	80005ae0	00dd4133	xor	x2,x26,x13	 x26:0x07343000 x13:0x00000000  x2=0x07343000
       60565000	      6055	80005ae4	01d29a33	sll	x20,x5,x29	  x5:0xfffffc66 x29:0x00000008 x20=0xfffc6600
       60575000	      6056	80005ae8	00000013	addi	x0,x0,0	  x0:0x00000000
       60585000	      6057	80005aec	40de5d33	sra	x26,x28,x13	 x28:0x00000000 x13:0x00000000 x26=0x00000000
       60595000	      6058	80005af0	0001af33	slt	x30,x3,x0	  x3:0x00000202  x0:0x00000000 x30=0x00000000
       60605000	      6059	80005af4	02f4ee63	bltu	x9,x15,80005b30	  x9:0x0000000f x15:0x00000000
       60615000	      6060	80005af8	2220fe93	andi	x29,x1,546	  x1:0x00007bdc x29=0x00000200
       60625000	      6061	80005afc	00a4d3b3	srl	x7,x9,x10	  x9:0x0000000f x10:0x80009fc4  x7=0x00000000
       60635000	      6062	80005b00	d02c6693	ori	x13,x24,-766	 x24:0x00000001 x13=0xfffffd03
       60645000	      6063	80005b04	04a9d263	bge	x19,x10,80005b48	 x19:0xfffffdac x10:0x80009fc4
       60655000	      6064	00000000	00000013	addi	x0,x0,0	  x0:0x00000000
       60665000	      6065	80005b44	00000013	addi	x0,x0,0	  x0:0x00000000
       60675000	      6066	80005b48	2f61a113	slti	x2,x3,758	  x3:0x00000202  x2=0x00000001
       60685000	      6067	80005b4c	00bb3a33	sltu	x20,x22,x11	 x22:0x00000001 x11:0xf7b9a9f0 x20=0x00000001
       60695000	      6068	80005b50	03fa6463	bltu	x20,x31,80005b78	 x20:0x00000001 x31:0x00000001
       60705000	      6069	80005b54	00b92a33	slt	x20,x18,x11	 x18:0x80009efc x11:0xf7b9a9f0 x20=0x00000001
       60715000	      6070	80005b58	005d58b3	srl	x17,x26,x5	 x26:0x00000000  x5:0xfffffc66 x17=0x00000000
       60725000	      6071	80005b5c	01b4bb33	sltu	x22,x9,x27	  x9:0x0000000f x27:0x00000000 x22=0x00000000
       60735000	      6072	80005b60	02689663	bne	x17,x6,80005b8c	 x17:0x00000000  x6:0x00000000
       60745000	      6073	80005b64	012e1333	sll	x6,x28,x18	 x28:0x00000000 x18:0x80009efc  x6=0x00000000
       60755000	      6074	80005b68	044dc463	blt	x27,x4,80005bb0	 x27:0x00000000  x4:0x00000000
       60765000	      6075	80005b6c	00000013	addi	x0,x0,0	  x0:0x00000000
       60775000	      6076	80005b70	41780d33	sub	x26,x16,x23	 x16:0xfffffc66 x23:0x00000000 x26=0xfffffc66
       60785000	      6077	80005b74	01d81113	slli	x2,x16,0x1d	 x16:0xfffffc66  x2=0xc0000000
       60795000	      6078	80005b78	004ddf33	srl	x30,x27,x4	 x27:0x00000000  x4:0x00000000 x30=0x00000000
       60805000	      6079	80005b7c	0334d263	bge	x9,x19,80005ba0	  x9:0x0000000f x19:0xfffffdac
       60815000	      6080	00000000	00000013	addi	x0,x0,0	  x0:0x00000000
       60825000	      6081	80005b9c	00000013	addi	x0,x0,0	  x0:0x00000000
       60835000	      6082	80005ba0	41e98bb3	sub	x23,x19,x30	 x19:0xfffffdac x30:0x00000000 x23=0xfffffdac
       60845000	      6083	80005ba4	001320b3	slt	x1,x6,x1	  x6:0x00000000  x1:0x00007bdc  x1=0x00000001
       60855000	      6084	80005ba8	11227713	andi	x14,x4,274	  x4:0x00000000 x14=0x00000000
       60865000	      6085	80005bac	00448b33	add	x22,x9,x4	  x9:0x0000000f  x4:0x00000000 x22=0x0000000f
       60875000	      6086	80005bb0	41a953b3	sra	x7,x18,x26	 x18:0x80009efc x26:0xfffffc66  x7=0xfe00027b
       60885000	      6087	80005bb4	00b17a63	bgeu	x2,x11,80005bc8	  x2:0xc0000000 x11:0xf7b9a9f0
       60895000	      6088	80005bb8	00928a93	addi	x21,x5,9	  x5:0xfffffc66 x21=0xfffffc6f
       60905000	      6089	80005bbc	9b93a113	slti	x2,x7,-1607	  x7:0xfe00027b  x2=0x00000001
       60915000	      6090	80005bc0	e744bf13	sltiu	x30,x9,-396	  x9:0x0000000f x30=0x00000001
       60925000	      6091	80005bc4	04930863	beq	x6,x9,80005c14	  x6:0x00000000  x9:0x0000000f
       60935000	      6092	80005bc8	c8dd0a13	addi	x20,x26,-883	 x26:0xfffffc66 x20=0xfffff8f3
       60945000	      6093	80005bcc	0078fc63	bgeu	x17,x7,80005be4	 x17:0x00000000  x7:0xfe00027b
       60955000	      6094	80005bd0	390b8493	addi	x9,x23,912	 x23:0xfffffdac  x9=0x0000013c
       60965000	      6095	80005bd4	224ac193	xori	x3,x21,548	 x21:0xfffffc6f  x3=0xfffffe4b
       60975000	      6096	80005bd8	8f3ffc93	andi	x25,x31,-1805	 x31:0x00000001 x25=0x00000001
       60985000	      6097	80005bdc	0501d263	bge	x3,x16,80005c20	  x3:0xfffffe4b x16:0xfffffc66
       60995000	      6098	00000000	00000013	addi	x0,x0,0	  x0:0x00000000
       61005000	      6099	80005c1c	00000013	addi	x0,x0,0	  x0:0x00000000
       61015000	      6100	80005c20	0368f463	bgeu	x17,x22,80005c48	 x17:0x00000000 x22:0x0000000f
       61025000	      6101	80005c24	01628463	beq	x5,x22,80005c2c	  x5:0xfffffc66 x22:0x0000000f
       61035000	      6102	80005c28	00348733	add	x14,x9,x3	  x9:0x0000013c  x3:0xfffffe4b x14=0xffffff87
       61045000	      6103	80005c2c	005a95b3	sll	x11,x21,x5	 x21:0xfffffc6f  x5:0xfffffc66 x11=0xffff1bc0
       61055000	      6104	80005c30	01c6eab3	or	x21,x13,x28	 x13:0xfffffd03 x28:0x00000000 x21=0xfffffd03
       61065000	      6105	80005c34	009df2b3	and	x5,x27,x9	 x27:0x00000000  x9:0x0000013c  x5=0x00000000
       61075000	      6106	80005c38	01379293	slli	x5,x15,0x13	 x15:0x00000000  x5=0x00000000
       61085000	      6107	80005c3c	006b9433	sll	x8,x23,x6	 x23:0xfffffdac  x6:0x00000000  x8=0xfffffdac
       61095000	      6108	80005c40	01d8f263	bgeu	x17,x29,80005c44	 x17:0x00000000 x29:0x00000200
       61105000	      6109	80005c44	01cbe133	or	x2,x23,x28	 x23:0xfffffdac x28:0x00000000  x2=0xfffffdac
       61115000	      6110	80005c48	01e79813	slli	x16,x15,0x1e	 x15:0x00000000 x16=0x00000000
       61125000	      6111	80005c4c	0070efb3	or	x31,x1,x7	  x1:0x00000001  x7:0xfe00027b x31=0xfe00027b
       61135000	      6112	80005c50	2dcb2313	slti	x6,x22,732	 x22:0x0000000f  x6=0x00000001
       61145000	      6113	80005c54	01cf4c63	blt	x30,x28,80005c6c	 x30:0x00000001 x28:0x00000000
       61155000	      6114	80005c58	019dcc63	blt	x27,x25,80005c70	 x27:0x00000000 x25:0x00000001
       61165000	      6115	00000000	00000013	addi	x0,x0,0	  x0:0x00000000
       61175000	      6116	80005c6c	00000013	addi	x0,x0,0	  x0:0x00000000
       61185000	      6117	80005c70	00e79a63	bne	x15,x14,80005c84	 x15:0x00000000 x14:0xffffff87
       61195000	      6118	00000000	00000013	addi	x0,x0,0	  x0:0x00000000
       61205000	      6119	80005c80	00000013	addi	x0,x0,0	  x0:0x00000000
       61215000	      6120	80005c84	01119113	slli	x2,x3,0x11	  x3:0xfffffe4b  x2=0xfc960000
       61225000	      6121	80005c88	018e9693	slli	x13,x29,0x18	 x29:0x00000200 x13=0x00000000
       61235000	      6122	80005c8c	016b41b3	xor	x3,x22,x22	 x22:0x0000000f x22:0x0000000f  x3=0x00000000
       61245000	      6123	80005c90	013ca8b3	slt	x17,x25,x19	 x25:0x00000001 x19:0xfffffdac x17=0x00000000
       61255000	      6124	80005c94	00f4d263	bge	x9,x15,80005c98	  x9:0x0000013c x15:0x00000000
       61265000	      6125	00000000	00000013	addi	x0,x0,0	  x0:0x00000000
       61275000	      6126	80005c94	00000013	addi	x0,x0,0	  x0:0x00000000
       61285000	      6127	80005c98	3fc85097	auipc	x1,0x3fc85	  x1=0xbfc8ac94
       61295000	      6128	80005c9c	00000013	addi	x0,x0,0	  x0:0x00000000
       61305000	      6129	80005ca0	08f6e193	ori	x3,x13,143	 x13:0x00000000  x3=0x0000008f
       61315000	      6130	80005ca4	0053fa63	bgeu	x7,x5,80005cb8	  x7:0xfe00027b  x5:0x00000000
       61325000	      6131	00000000	00000013	addi	x0,x0,0	  x0:0x00000000
       61335000	      6132	80005cb4	00000013	addi	x0,x0,0	  x0:0x00000000
       61345000	      6133	80005cb8	01cb7633	and	x12,x22,x28	 x22:0x0000000f x28:0x00000000 x12=0x00000000
       61355000	      6134	80005cbc	00c5f8b3	and	x17,x11,x12	 x11:0xffff1bc0 x12:0x00000000 x17=0x00000000
       61365000	      6135	80005cc0	68e46193	ori	x3,x8,1678	  x8:0xfffffdac  x3=0xffffffae
       61375000	      6136	80005cc4	94287713	andi	x14,x16,-1726	 x16:0x00000000 x14=0x00000000
       61385000	      6137	80005cc8	407b0c33	sub	x24,x22,x7	 x22:0x0000000f  x7:0xfe00027b x24=0x01fffd94
       61395000	      6138	80005ccc	039a5e63	bge	x20,x25,80005d08	 x20:0xfffff8f3 x25:0x00000001
       61405000	      6139	80005cd0	f43d8313	addi	x6,x27,-189	 x27:0x00000000  x6=0xffffff43
       61415000	      6140	80005cd4	4483b693	sltiu	x13,x7,1096	  x7:0xfe00027b x13=0x00000000
       61425000	      6141	80005cd8	409bd133	sra	x2,x23,x9	 x23:0xfffffdac  x9:0x0000013c  x2=0xffffffff
       61435000	      6142	80005cdc	034a0463	beq	x20,x20,80005d04	 x20:0xfffff8f3 x20:0xfffff8f3
       61445000	      6143	00000000	00000013	addi	x0,x0,0	  x0:0x00000000
       61455000	      6144	80005d00	00000013	addi	x0,x0,0	  x0:0x00000000
       61465000	      6145	80005d04	01c3cb33	xor	x22,x7,x28	  x7:0xfe00027b x28:0x00000000 x22=0xfe00027b
       61475000	      6146	80005d08	0015dd33	srl	x26,x11,x1	 x11:0xffff1bc0  x1:0xbfc8ac94 x26=0x00000fff
       61485000	      6147	80005d0c	00d364b3	or	x9,x6,x13	  x6:0xffffff43 x13:0x00000000  x9=0xffffff43
       61495000	      6148	80005d10	00000013	addi	x0,x0,0	  x0:0x00000000
       61505000	      6149	80005d14	01fa8fb3	add	x31,x21,x31	 x21:0xfffffd03 x31:0xfe00027b x31=0xfdffff7e
       61515000	      6150	80005d18	30523b93	sltiu	x23,x4,773	  x4:0x00000000 x23=0x00000001
       61525000	      6151	80005d1c	9e042413	slti	x8,x8,-1568	  x8:0xfffffdac  x8=0x00000000
       61535000	      6152	80005d20	0372f263	bgeu	x5,x23,80005d44	  x5:0x00000000 x23:0x00000001
       61545000	      6153	80005d24	009d00b3	add	x1,x26,x9	 x26:0x00000fff  x9:0xffffff43  x1=0x00000f42
       61555000	      6154	80005d28	cd657637	lui	x12,0xcd657	 x12=0xcd657000
       61565000	      6155	80005d2c	01bd6833	or	x16,x26,x27	 x26:0x00000fff x27:0x00000000 x16=0x00000fff
       61575000	      6156	80005d30	01a4a3b3	slt	x7,x9,x26	  x9:0xffffff43 x26:0x00000fff  x7=0x00000001
       61585000	      6157	80005d34	01a7ab33	slt	x22,x15,x26	 x15:0x00000000 x26:0x00000fff x22=0x00000001
       61595000	      6158	80005d38	00da7bb3	and	x23,x20,x13	 x20:0xfffff8f3 x13:0x00000000 x23=0x00000000
       61605000	      6159	80005d3c	101bf393	andi	x7,x23,257	 x23:0x00000000  x7=0x00000000
       61615000	      6160	80005d40	018e8c63	beq	x29,x24,80005d58	 x29:0x00000200 x24:0x01fffd94
       61625000	      6161	80005d44	00027fb3	and	x31,x4,x0	  x4:0x00000000  x0:0x00000000 x31=0x00000000
       61635000	      6162	80005d48	40ed5313	srai	x6,x26,0xe	 x26:0x00000fff  x6=0x00000000
       61645000	      6163	80005d4c	402859b3	sra	x19,x16,x2	 x16:0x00000fff  x2:0xffffffff x19=0x00000000
       61655000	      6164	80005d50	031f4813	xori	x16,x30,49	 x30:0x00000001 x16=0x00000030
       61665000	      6165	80005d54	949d7213	andi	x4,x26,-1719	 x26:0x00000fff  x4=0x00000949
       61675000	      6166	80005d58	00c01d33	sll	x26,x0,x12	  x0:0x00000000 x12:0xcd657000 x26=0x00000000
       61685000	      6167	80005d5c	287b7613	andi	x12,x22,647	 x22:0x00000001 x12=0x00000001
       61695000	      6168	80005d60	e0575cb7	lui	x25,0xe0575	 x25=0xe0575000
       61705000	      6169	80005d64	41fdd313	srai	x6,x27,0x1f	 x27:0x00000000  x6=0x00000000
       61715000	      6170	80005d68	746af793	andi	x15,x21,1862	 x21:0xfffffd03 x15=0x00000502
       61725000	      6171	80005d6c	40b3d293	srai	x5,x7,0xb	  x7:0x00000000  x5=0x00000000
       61735000	      6172	80005d70	01861fb3	sll	x31,x12,x24	 x12:0x00000001 x24:0x01fffd94 x31=0x00100000
       61745000	      6173	80005d74	417c8c33	sub	x24,x25,x23	 x25:0xe0575000 x23:0x00000000 x24=0xe0575000
       61755000	      6174	80005d78	03f3e663	bltu	x7,x31,80005da4	  x7:0x00000000 x31:0x00100000
       61765000	      6175	00000000	00000013	addi	x0,x0,0	  x0:0x00000000
       61775000	      6176	80005da0	00000013	addi	x0,x0,0	  x0:0x00000000
       61785000	      6177	80005da4	48c4a0b7	lui	x1,0x48c4a	  x1=0x48c4a000
       61795000	      6178	80005da8	415f8433	sub	x8,x31,x21	 x31:0x00100000 x21:0xfffffd03  x8=0x001002fd
       61805000	      6179	80005dac	00000013	addi	x0,x0,0	  x0:0x00000000
       61815000	      6180	80005db0	00000013	addi	x0,x0,0	  x0:0x00000000
       61825000	      6181	80005db4	00209593	slli	x11,x1,0x2	  x1:0x48c4a000 x11=0x23128000
       61835000	      6182	80005db8	2d57e013	ori	x0,x15,725	 x15:0x00000502
       61845000	      6183	80005dbc	01ed8f33	add	x30,x27,x30	 x27:0x00000000 x30:0x00000001 x30=0x00000001
       61855000	      6184	80005dc0	01afcbb3	xor	x23,x31,x26	 x31:0x00100000 x26:0x00000000 x23=0x00100000
       61865000	      6185	80005dc4	01ec11b3	sll	x3,x24,x30	 x24:0xe0575000 x30:0x00000001  x3=0xc0aea000
       61875000	      6186	80005dc8	1aa12f93	slti	x31,x2,426	  x2:0xffffffff x31=0x00000001
       61885000	      6187	80005dcc	007751b3	srl	x3,x14,x7	 x14:0x00000000  x7:0x00000000  x3=0x00000000
       61895000	      6188	80005dd0	00b8b4b3	sltu	x9,x17,x11	 x17:0x00000000 x11:0x23128000  x9=0x00000001
       61905000	      6189	80005dd4	0420c263	blt	x1,x2,80005e18	  x1:0x48c4a000  x2:0xffffffff
       61915000	      6190	80005dd8	2f148a13	addi	x20,x9,753	  x9:0x00000001 x20=0x000002f2
       61925000	      6191	80005ddc	00538663	beq	x7,x5,80005de8	  x7:0x00000000  x5:0x00000000
       61935000	      6192	00000000	00000013	addi	x0,x0,0	  x0:0x00000000
       61945000	      6193	80005de4	00000013	addi	x0,x0,0	  x0:0x00000000
       61955000	      6194	80005de8	05244263	blt	x8,x18,80005e2c	  x8:0x001002fd x18:0x80009efc
       61965000	      6195	80005dec	00de9813	slli	x16,x29,0xd	 x29:0x00000200 x16=0x00400000
       61975000	      6196	80005df0	49307893	andi	x17,x0,1171	  x0:0x00000000 x17=0x00000000
       61985000	      6197	80005df4	00000013	addi	x0,x0,0	  x0:0x00000000
       61995000	      6198	80005df8	148ec493	xori	x9,x29,328	 x29:0x00000200  x9=0x00000348
       62005000	      6199	80005dfc	00d2ee33	or	x28,x5,x13	  x5:0x00000000 x13:0x00000000 x28=0x00000000
       62015000	      6200	80005e00	3f0f3697	auipc	x13,0x3f0f3	 x13=0xbf0f8dfc
       62025000	      6201	80005e04	011d5d33	srl	x26,x26,x17	 x26:0x00000000 x17:0x00000000 x26=0x00000000
       62035000	      6202	80005e08	417c5693	srai	x13,x24,0x17	 x24:0xe0575000 x13=0xffffffc0
       62045000	      6203	80005e0c	0110efb3	or	x31,x1,x17	  x1:0x48c4a000 x17:0x00000000 x31=0x48c4a000
       62055000	      6204	80005e10	01e61413	slli	x8,x12,0x1e	 x12:0x00000001  x8=0x40000000
       62065000	      6205	80005e14	017d4ab3	xor	x21,x26,x23	 x26:0x00000000 x23:0x00100000 x21=0x00100000
       62075000	      6206	80005e18	00e54a63	blt	x10,x14,80005e2c	 x10:0x80009fc4 x14:0x00000000
       62085000	      6207	00000000	00000013	addi	x0,x0,0	  x0:0x00000000
       62095000	      6208	80005e28	00000013	addi	x0,x0,0	  x0:0x00000000
       62105000	      6209	80005e2c	00951e13	slli	x28,x10,0x9	 x10:0x80009fc4 x28=0x013f8800
       62115000	      6210	80005e30	00969113	slli	x2,x13,0x9	 x13:0xffffffc0  x2=0xffff8000
       62125000	      6211	80005e34	9945bb93	sltiu	x23,x11,-1644	 x11:0x23128000 x23=0x00000001
       62135000	      6212	80005e38	1a23c613	xori	x12,x7,418	  x7:0x00000000 x12=0x000001a2
       62145000	      6213	80005e3c	409d02b3	sub	x5,x26,x9	 x26:0x00000000  x9:0x00000348  x5=0xfffffcb8
       62155000	      6214	80005e40	f214c2b7	lui	x5,0xf214c	  x5=0xf214c000
       62165000	      6215	80005e44	02888063	beq	x17,x8,80005e64	 x17:0x00000000  x8:0x40000000
       62175000	      6216	80005e48	00912fb3	slt	x31,x2,x9	  x2:0xffff8000  x9:0x00000348 x31=0x00000001
       62185000	      6217	80005e4c	01a89a13	slli	x20,x17,0x1a	 x17:0x00000000 x20=0x00000000
       62195000	      6218	80005e50	af113c93	sltiu	x25,x2,-1295	  x2:0xffff8000 x25=0x00000001
       62205000	      6219	80005e54	0462c863	blt	x5,x6,80005ea4	  x5:0xf214c000  x6:0x00000000
       62215000	      6220	00000000	00000013	addi	x0,x0,0	  x0:0x00000000
       62225000	      6221	80005ea0	00000013	addi	x0,x0,0	  x0:0x00000000
       62235000	      6222	80005ea4	0593f463	bgeu	x7,x25,80005eec	  x7:0x00000000 x25:0x00000001
       62245000	      6223	80005ea8	7ecbc117	auipc	x2,0x7ecbc	  x2=0xfecc1ea4
       62255000	      6224	80005eac	6bb77737	lui	x14,0x6bb77	 x14=0x6bb77000
       62265000	      6225	80005eb0	00199a63	bne	x19,x1,80005ec4	 x19:0x00000000  x1:0x48c4a000
       62275000	      6226	00000000	00000013	addi	x0,x0,0	  x0:0x00000000
       62285000	      6227	80005ec0	00000013	addi	x0,x0,0	  x0:0x00000000
       62295000	      6228	80005ec4	45f93217	auipc	x4,0x45f93	  x4=0xc5f98ec0
       62305000	      6229	80005ec8	36d07813	andi	x16,x0,877	  x0:0x00000000 x16=0x00000000
       62315000	      6230	80005ecc	413ad4b3	sra	x9,x21,x19	 x21:0x00100000 x19:0x00000000  x9=0x00100000
       62325000	      6231	80005ed0	053e1463	bne	x28,x19,80005f18	 x28:0x013f8800 x19:0x00000000
       62335000	      6232	00000000	00000013	addi	x0,x0,0	  x0:0x00000000
       62345000	      6233	80005f14	00000013	addi	x0,x0,0	  x0:0x00000000
       62355000	      6234	80005f18	01e45113	srli	x2,x8,0x1e	  x8:0x40000000  x2=0x00000001
       62365000	      6235	80005f1c	011c7a63	bgeu	x24,x17,80005f30	 x24:0xe0575000 x17:0x00000000
       62375000	      6236	00000000	00000013	addi	x0,x0,0	  x0:0x00000000
       62385000	      6237	80005f2c	00000013	addi	x0,x0,0	  x0:0x00000000
       62395000	      6238	80005f30	00bdd8b3	srl	x17,x27,x11	 x27:0x00000000 x11:0x23128000 x17=0x00000000
       62405000	      6239	80005f34	401308b3	sub	x17,x6,x1	  x6:0x00000000  x1:0x48c4a000 x17=0xb73b6000
       62415000	      6240	80005f38	036c0463	beq	x24,x22,80005f60	 x24:0xe0575000 x22:0x00000001
       62425000	      6241	80005f3c	41ee5693	srai	x13,x28,0x1e	 x28:0x013f8800 x13=0x00000000
       62435000	      6242	80005f40	0122ffb3	and	x31,x5,x18	  x5:0xf214c000 x18:0x80009efc x31=0x80008000
       62445000	      6243	80005f44	01b270b3	and	x1,x4,x27	  x4:0xc5f98ec0 x27:0x00000000  x1=0x00000000
       62455000	      6244	80005f48	0044c833	xor	x16,x9,x4	  x9:0x00100000  x4:0xc5f98ec0 x16=0xc5e98ec0
       62465000	      6245	80005f4c	415a81b3	sub	x3,x21,x21	 x21:0x00100000 x21:0x00100000  x3=0x00000000
       62475000	      6246	80005f50	176bbd13	sltiu	x26,x23,374	 x23:0x00000001 x26=0x00000001
       62485000	      6247	80005f54	00131d13	slli	x26,x6,0x1	  x6:0x00000000 x26=0x00000000
       62495000	      6248	80005f58	41965993	srai	x19,x12,0x19	 x12:0x000001a2 x19=0x00000000
       62505000	      6249	80005f5c	00250fb3	add	x31,x10,x2	 x10:0x80009fc4  x2:0x00000001 x31=0x80009fc5
       62515000	      6250	80005f60	d4753693	sltiu	x13,x10,-697	 x10:0x80009fc4 x13=0x00000001
       62525000	      6251	80005f64	00d116b3	sll	x13,x2,x13	  x2:0x00000001 x13:0x00000001 x13=0x00000002
       62535000	      6252	80005f68	01d94663	blt	x18,x29,80005f74	 x18:0x80009efc x29:0x00000200
       62545000	      6253	00000000	00000013	addi	x0,x0,0	  x0:0x00000000
       62555000	      6254	80005f70	00000013	addi	x0,x0,0	  x0:0x00000000
       62565000	      6255	80005f74	8a4b4393	xori	x7,x22,-1884	 x22:0x00000001  x7=0xfffff8a5
       62575000	      6256	80005f78	00762133	slt	x2,x12,x7	 x12:0x000001a2  x7:0xfffff8a5  x2=0x00000000
       62585000	      6257	80005f7c	87948893	addi	x17,x9,-1927	  x9:0x00100000 x17=0x000ff879
       62595000	      6258	80005f80	c9386d17	auipc	x26,0xc9386	 x26=0x4938bf7c
       62605000	      6259	80005f84	00ff22b3	slt	x5,x30,x15	 x30:0x00000001 x15:0x00000502  x5=0x00000001
       62615000	      6260	80005f88	05c6d063	bge	x13,x28,80005fc8	 x13:0x00000002 x28:0x013f8800
       62625000	      6261	80005f8c	7933c737	lui	x14,0x7933c	 x14=0x7933c000
       62635000	      6262	80005f90	00d8ab33	slt	x22,x17,x13	 x17:0x000ff879 x13:0x00000002 x22=0x00000000
       62645000	      6263	80005f94	e1bb6393	ori	x7,x22,-485	 x22:0x00000000  x7=0xfffffe1b
       62655000	      6264	80005f98	0172aa33	slt	x20,x5,x23	  x5:0x00000001 x23:0x00000001 x20=0x00000000
       62665000	      6265	80005f9c	cc6fcf13	xori	x30,x31,-826	 x31:0x80009fc5 x30=0x7fff6303
       62675000	      6266	80005fa0	01bbd833	srl	x16,x23,x27	 x23:0x00000001 x27:0x00000000 x16=0x00000001
       62685000	      6267	80005fa4	ecce3b93	sltiu	x23,x28,-308	 x28:0x013f8800 x23=0x00000001
       62695000	      6268	80005fa8	0115cbb3	xor	x23,x11,x17	 x11:0x23128000 x17:0x000ff879 x23=0x231d7879
       62705000	      6269	80005fac	00358463	beq	x11,x3,80005fb4	 x11:0x23128000  x3:0x00000000
       62715000	      6270	80005fb0	00000013	addi	x0,x0,0	  x0:0x00000000
       62725000	      6271	80005fb4	db82b637	lui	x12,0xdb82b	 x12=0xdb82b000
       62735000	      6272	80005fb8	db683e93	sltiu	x29,x16,-586	 x16:0x00000001 x29=0x00000001
       62745000	      6273	80005fbc	6d36beb7	lui	x29,0x6d36b	 x29=0x6d36b000
       62755000	      6274	80005fc0	004dbf33	sltu	x30,x27,x4	 x27:0x00000000  x4:0xc5f98ec0 x30=0x00000001
       62765000	      6275	80005fc4	05bbd863	bge	x23,x27,80006014	 x23:0x231d7879 x27:0x00000000
       62775000	      6276	00000000	00000013	addi	x0,x0,0	  x0:0x00000000
       62785000	      6277	80006010	00000013	addi	x0,x0,0	  x0:0x00000000
       62795000	      6278	80006014	037b1e63	bne	x22,x23,80006050	 x22:0x00000000 x23:0x231d7879
       62805000	      6279	00000000	00000013	addi	x0,x0,0	  x0:0x00000000
       62815000	      6280	8000604c	00000013	addi	x0,x0,0	  x0:0x00000000
       62825000	      6281	80006050	00a87bb3	and	x23,x16,x10	 x16:0x00000001 x10:0x80009fc4 x23=0x00000000
       62835000	      6282	80006054	00b25c33	srl	x24,x4,x11	  x4:0xc5f98ec0 x11:0x23128000 x24=0xc5f98ec0
       62845000	      6283	80006058	40d70733	sub	x14,x14,x13	 x14:0x7933c000 x13:0x00000002 x14=0x7933bffe
       62855000	      6284	8000605c	013d7133	and	x2,x26,x19	 x26:0x4938bf7c x19:0x00000000  x2=0x00000000
       62865000	      6285	80006060	41d08993	addi	x19,x1,1053	  x1:0x00000000 x19=0x0000041d
       62875000	      6286	80006064	0015a133	slt	x2,x11,x1	 x11:0x23128000  x1:0x00000000  x2=0x00000000
       62885000	      6287	80006068	0015ec33	or	x24,x11,x1	 x11:0x23128000  x1:0x00000000 x24=0x23128000
       62895000	      6288	8000606c	0035fab3	and	x21,x11,x3	 x11:0x23128000  x3:0x00000000 x21=0x00000000
       62905000	      6289	80006070	054d8463	beq	x27,x20,800060b8	 x27:0x00000000 x20:0x00000000
       62915000	      6290	00000000	00000013	addi	x0,x0,0	  x0:0x00000000
       62925000	      6291	800060b4	00000013	addi	x0,x0,0	  x0:0x00000000
       62935000	      6292	800060b8	01007e33	and	x28,x0,x16	  x0:0x00000000 x16:0x00000001 x28=0x00000000
       62945000	      6293	800060bc	f9e2e593	ori	x11,x5,-98	  x5:0x00000001 x11=0xffffff9f
       62955000	      6294	800060c0	00002117	auipc	x2,0x2	  x2=0x800080bc
       62965000	      6295	800060c4	58810113	addi	x2,x2,1416	  x2:0x800080bc  x2=0x80008644
       62975000	      6296	800060c8	00710783	lb	x15,7(x2)	  x2:0x80008644 x15=0x00000000 PA:0x8000864b
       62985000	      6297	800060cc	00d14f83	lbu	x31,13(x2)	  x2:0x80008644 x31=0x0000000a PA:0x80008651
       62995000	      6298	800060d0	00b14883	lbu	x17,11(x2)	  x2:0x80008644 x17=0x00000004 PA:0x8000864f
       63005000	      6299	800060d4	00814883	lbu	x17,8(x2)	  x2:0x80008644 x17=0x00000007 PA:0x8000864c
       63015000	      6300	800060d8	fec10ea3	sb	x12,-3(x2)	  x2:0x80008644 x12:0xdb82b000 PA:0x80008641
       63025000	      6301	800060dc	41860c33	sub	x24,x12,x24	 x12:0xdb82b000 x24:0x23128000 x24=0xb8703000
       63035000	      6302	800060e0	d384c393	xori	x7,x9,-712	  x9:0x00100000  x7=0xffeffd38
       63045000	      6303	800060e4	01e12623	sw	x30,12(x2)	  x2:0x80008644 x30:0x00000001 PA:0x80008650
       63055000	      6304	800060e8	014107a3	sb	x20,15(x2)	  x2:0x80008644 x20:0x00000000 PA:0x80008653
       63065000	      6305	800060ec	ffc12f83	lw	x31,-4(x2)	  x2:0x80008644 x31=0x81cf00fb PA:0x80008640
       63075000	      6306	800060f0	a0cb0a93	addi	x21,x22,-1524	 x22:0x00000000 x21=0xfffffa0c
       63085000	      6307	800060f4	ff510e83	lb	x29,-11(x2)	  x2:0x80008644 x29=0xfffffff2 PA:0x80008639
       63095000	      6308	800060f8	6f602013	slti	x0,x0,1782	  x0:0x00000000
       63105000	      6309	800060fc	406a5b13	srai	x22,x20,0x6	 x20:0x00000000 x22=0x00000000
       63115000	      6310	80006100	ffc10da3	sb	x28,-5(x2)	  x2:0x80008644 x28:0x00000000 PA:0x8000863f
       63125000	      6311	80006104	00314803	lbu	x16,3(x2)	  x2:0x80008644 x16=0x000000fc PA:0x80008647
       63135000	      6312	00000000	00000013	addi	x0,x0,0	  x0:0x00000000
       63145000	      6313	80006108	01011323	sh	x16,6(x2)	  x2:0x80008644 x16:0x000000fc PA:0x8000864a
       63155000	      6314	8000610c	ffa11683	lh	x13,-6(x2)	  x2:0x80008644 x13=0x000000f5 PA:0x8000863e
       63165000	      6315	80006110	00f14c83	lbu	x25,15(x2)	  x2:0x80008644 x25=0x00000000 PA:0x80008653
       63175000	      6316	80006114	ff214783	lbu	x15,-14(x2)	  x2:0x80008644 x15=0x000000ed PA:0x80008636
       63185000	      6317	80006118	ffa15983	lhu	x19,-6(x2)	  x2:0x80008644 x19=0x000000f5 PA:0x8000863e
       63195000	      6318	8000611c	01015083	lhu	x1,16(x2)	  x2:0x80008644  x1=0x00000e0f PA:0x80008654
       63205000	      6319	80006120	41100733	sub	x14,x0,x17	  x0:0x00000000 x17:0x00000007 x14=0xfffffff9
       63215000	      6320	80006124	ffa11883	lh	x17,-6(x2)	  x2:0x80008644 x17=0x000000f5 PA:0x8000863e
       63225000	      6321	80006128	00c10283	lb	x5,12(x2)	  x2:0x80008644  x5=0x00000001 PA:0x80008650
       63235000	      6322	8000612c	26c09197	auipc	x3,0x26c09	  x3=0xa6c0f128
       63245000	      6323	80006130	00a15703	lhu	x14,10(x2)	  x2:0x80008644 x14=0x00000405 PA:0x8000864e
       63255000	      6324	80006134	018d5e93	srli	x29,x26,0x18	 x26:0x4938bf7c x29=0x00000049
       63265000	      6325	80006138	8e442893	slti	x17,x8,-1820	  x8:0x40000000 x17=0x00000000
       63275000	      6326	8000613c	0164ad33	slt	x26,x9,x22	  x9:0x00100000 x22:0x00000000 x26=0x00000000
       63285000	      6327	80006140	3362fd13	andi	x26,x5,822	  x5:0x00000001 x26=0x00000000
       63295000	      6328	80006144	40c40f33	sub	x30,x8,x12	  x8:0x40000000 x12:0xdb82b000 x30=0x647d5000
       63305000	      6329	80006148	001e1093	slli	x1,x28,0x1	 x28:0x00000000  x1=0x00000000
       63315000	      6330	8000614c	008fd8b3	srl	x17,x31,x8	 x31:0x81cf00fb  x8:0x40000000 x17=0x81cf00fb
       63325000	      6331	80006150	00e15e03	lhu	x28,14(x2)	  x2:0x80008644 x28=0x00000000 PA:0x80008652
       63335000	      6332	80006154	ff714d03	lbu	x26,-9(x2)	  x2:0x80008644 x26=0x000000f0 PA:0x8000863b
       63345000	      6333	80006158	00815a83	lhu	x21,8(x2)	  x2:0x80008644 x21=0x00000607 PA:0x8000864c
       63355000	      6334	8000615c	fef108a3	sb	x15,-15(x2)	  x2:0x80008644 x15:0x000000ed PA:0x80008635
       63365000	      6335	80006160	00000013	addi	x0,x0,0	  x0:0x00000000
       63375000	      6336	80006164	289c0c17	auipc	x24,0x289c0	 x24=0xa89c6160
       63385000	      6337	80006168	00a11f83	lh	x31,10(x2)	  x2:0x80008644 x31=0x00000405 PA:0x8000864e
       63395000	      6338	8000616c	015606b3	add	x13,x12,x21	 x12:0xdb82b000 x21:0x00000607 x13=0xdb82b607
       63405000	      6339	80006170	ff110883	lb	x17,-15(x2)	  x2:0x80008644 x17=0xffffffed PA:0x80008635
       63415000	      6340	80006174	fef10d23	sb	x15,-6(x2)	  x2:0x80008644 x15:0x000000ed PA:0x8000863e
       63425000	      6341	80006178	407fda93	srai	x21,x31,0x7	 x31:0x00000405 x21=0x00000008
       63435000	      6342	8000617c	00714003	lbu	x0,7(x2)	  x2:0x80008644 PA:0x8000864b
       63445000	      6343	80006180	406cd4b3	sra	x9,x25,x6	 x25:0x00000000  x6:0x00000000  x9=0x00000000
       63455000	      6344	80006184	00f14183	lbu	x3,15(x2)	  x2:0x80008644  x3=0x00000000 PA:0x80008653
       63465000	      6345	80006188	d4c5f1b7	lui	x3,0xd4c5f	  x3=0xd4c5f000
       63475000	      6346	8000618c	00f14303	lbu	x6,15(x2)	  x2:0x80008644  x6=0x00000000 PA:0x80008653
       63485000	      6347	80006190	7eec4693	xori	x13,x24,2030	 x24:0xa89c6160 x13=0xa89c668e
       63495000	      6348	80006194	0f600993	addi	x19,x0,246	  x0:0x00000000 x19=0x000000f6
       63505000	      6349	80006198	00745ab3	srl	x21,x8,x7	  x8:0x40000000  x7:0xffeffd38 x21=0x00000040
       63515000	      6350	8000619c	015ff463	bgeu	x31,x21,800061a4	 x31:0x00000405 x21:0x00000040
       63525000	      6351	00000000	00000013	addi	x0,x0,0	  x0:0x00000000
       63535000	      6352	800061a0	00000013	addi	x0,x0,0	  x0:0x00000000
       63545000	      6353	800061a4	4ddff013	andi	x0,x31,1245	 x31:0x00000405
       63555000	      6354	800061a8	34a3f893	andi	x17,x7,842	  x7:0xffeffd38 x17=0x00000108
       63565000	      6355	800061ac	01faec63	bltu	x21,x31,800061c4	 x21:0x00000040 x31:0x00000405
       63575000	      6356	00000000	00000013	addi	x0,x0,0	  x0:0x00000000
       63585000	      6357	800061c0	00000013	addi	x0,x0,0	  x0:0x00000000
       63595000	      6358	800061c4	f3766293	ori	x5,x12,-201	 x12:0xdb82b000  x5=0xffffff37
       63605000	      6359	800061c8	00ee8a63	beq	x29,x14,800061dc	 x29:0x00000049 x14:0x00000405
       63615000	      6360	800061cc	41430cb3	sub	x25,x6,x20	  x6:0x00000000 x20:0x00000000 x25=0x00000000
       63625000	      6361	800061d0	00000013	addi	x0,x0,0	  x0:0x00000000
       63635000	      6362	800061d4	00d29493	slli	x9,x5,0xd	  x5:0xffffff37  x9=0xffe6e000
       63645000	      6363	800061d8	02a26e63	bltu	x4,x10,80006214	  x4:0xc5f98ec0 x10:0x80009fc4
       63655000	      6364	800061dc	1d03f993	andi	x19,x7,464	  x7:0xffeffd38 x19=0x00000110
       63665000	      6365	800061e0	40c75393	srai	x7,x14,0xc	 x14:0x00000405  x7=0x00000000
       63675000	      6366	800061e4	018f43b3	xor	x7,x30,x24	 x30:0x647d5000 x24:0xa89c6160  x7=0xcce13160
       63685000	      6367	800061e8	0180dab3	srl	x21,x1,x24	  x1:0x00000000 x24:0xa89c6160 x21=0x00000000
       63695000	      6368	800061ec	69ed2093	slti	x1,x26,1694	 x26:0x000000f0  x1=0x00000001
       63705000	      6369	800061f0	00000013	addi	x0,x0,0	  x0:0x00000000
       63715000	      6370	800061f4	4080d733	sra	x14,x1,x8	  x1:0x00000001  x8:0x40000000 x14=0x00000001
       63725000	      6371	800061f8	04467463	bgeu	x12,x4,80006240	 x12:0xdb82b000  x4:0xc5f98ec0
       63735000	      6372	00000000	00000013	addi	x0,x0,0	  x0:0x00000000
       63745000	      6373	8000623c	00000013	addi	x0,x0,0	  x0:0x00000000
       63755000	      6374	80006240	3e741e17	auipc	x28,0x3e741	 x28=0xbe74723c
       63765000	      6375	80006244	41f95893	srai	x17,x18,0x1f	 x18:0x80009efc x17=0xffffffff
       63775000	      6376	80006248	d95f6e93	ori	x29,x30,-619	 x30:0x647d5000 x29=0xfffffd95
       63785000	      6377	8000624c	00bc34b3	sltu	x9,x24,x11	 x24:0xa89c6160 x11:0xffffff9f  x9=0x00000001
       63795000	      6378	80006250	40485f33	sra	x30,x16,x4	 x16:0x000000fc  x4:0xc5f98ec0 x30=0x000000fc
       63805000	      6379	80006254	d026cc93	xori	x25,x13,-766	 x13:0xa89c668e x25=0x57639b8c
       63815000	      6380	80006258	12ebe593	ori	x11,x23,302	 x23:0x00000000 x11=0x0000012e
       63825000	      6381	8000625c	30cd4893	xori	x17,x26,780	 x26:0x000000f0 x17=0x000003fc
       63835000	      6382	80006260	40a95213	srai	x4,x18,0xa	 x18:0x80009efc  x4=0xffe00027
       63845000	      6383	80006264	082a4f93	xori	x31,x20,130	 x20:0x00000000 x31=0x00000082
       63855000	      6384	80006268	00577863	bgeu	x14,x5,80006278	 x14:0x00000001  x5:0xffffff37
       63865000	      6385	8000626c	a18b3b93	sltiu	x23,x22,-1512	 x22:0x00000000 x23=0x00000001
       63875000	      6386	80006270	ed9b03b7	lui	x7,0xed9b0	  x7=0xed9b0000
       63885000	      6387	80006274	03b6f463	bgeu	x13,x27,8000629c	 x13:0xa89c668e x27:0x00000000
       63895000	      6388	00000000	00000013	addi	x0,x0,0	  x0:0x00000000
       63905000	      6389	80006298	00000013	addi	x0,x0,0	  x0:0x00000000
       63915000	      6390	8000629c	01dcd633	srl	x12,x25,x29	 x25:0x57639b8c x29:0xfffffd95 x12=0x000002bb
       63925000	      6391	800062a0	e2044837	lui	x16,0xe2044	 x16=0xe2044000
       63935000	      6392	800062a4	6f15c893	xori	x17,x11,1777	 x11:0x0000012e x17=0x000007df
       63945000	      6393	800062a8	0436e463	bltu	x13,x3,800062f0	 x13:0xa89c668e  x3:0xd4c5f000
       63955000	      6394	00000000	00000013	addi	x0,x0,0	  x0:0x00000000
       63965000	      6395	800062ec	00000013	addi	x0,x0,0	  x0:0x00000000
       63975000	      6396	800062f0	04adc063	blt	x27,x10,80006330	 x27:0x00000000 x10:0x80009fc4
       63985000	      6397	800062f4	01a3d133	srl	x2,x7,x26	  x7:0xed9b0000 x26:0x000000f0  x2=0x0000ed9b
       63995000	      6398	800062f8	011f76b3	and	x13,x30,x17	 x30:0x000000fc x17:0x000007df x13=0x000000dc
       64005000	      6399	800062fc	01071ab3	sll	x21,x14,x16	 x14:0x00000001 x16:0xe2044000 x21=0x00000001
       64015000	      6400	80006300	0056d733	srl	x14,x13,x5	 x13:0x000000dc  x5:0xffffff37 x14=0x00000000
       64025000	      6401	80006304	400ed833	sra	x16,x29,x0	 x29:0xfffffd95  x0:0x00000000 x16=0xfffffd95
       64035000	      6402	80006308	48848493	addi	x9,x9,1160	  x9:0x00000001  x9=0x00000489
       64045000	      6403	8000630c	4ab182b7	lui	x5,0x4ab18	  x5=0x4ab18000
       64055000	      6404	80006310	01669133	sll	x2,x13,x22	 x13:0x000000dc x22:0x00000000  x2=0x000000dc
       64065000	      6405	80006314	01ded013	srli	x0,x29,0x1d	 x29:0xfffffd95
       64075000	      6406	80006318	005520b3	slt	x1,x10,x5	 x10:0x80009fc4  x5:0x4ab18000  x1=0x00000001
       64085000	      6407	8000631c	41dcdd13	srai	x26,x25,0x1d	 x25:0x57639b8c x26=0x00000002
       64095000	      6408	80006320	b5ac4493	xori	x9,x24,-1190	 x24:0xa89c6160  x9=0x57639a3a
       64105000	      6409	80006324	8d56bf97	auipc	x31,0x8d56b	 x31=0x0d571320
       64115000	      6410	80006328	405d5e13	srai	x28,x26,0x5	 x26:0x00000002 x28=0x00000000
       64125000	      6411	8000632c	c70f7e37	lui	x28,0xc70f7	 x28=0xc70f7000
       64135000	      6412	80006330	001b2133	slt	x2,x22,x1	 x22:0x00000000  x1:0x00000001  x2=0x00000001
       64145000	      6413	80006334	34c2a237	lui	x4,0x34c2a	  x4=0x34c2a000
       64155000	      6414	80006338	dce02013	slti	x0,x0,-562	  x0:0x00000000
       64165000	      6415	8000633c	0b45d0b7	lui	x1,0xb45d	  x1=0x0b45d000
       64175000	      6416	80006340	005dfab3	and	x21,x27,x5	 x27:0x00000000  x5:0x4ab18000 x21=0x00000000
       64185000	      6417	80006344	0104d2b3	srl	x5,x9,x16	  x9:0x57639a3a x16:0xfffffd95  x5=0x000002bb
       64195000	      6418	80006348	0893c993	xori	x19,x7,137	  x7:0xed9b0000 x19=0xed9b0089
       64205000	      6419	8000634c	01ab3c33	sltu	x24,x22,x26	 x22:0x00000000 x26:0x00000002 x24=0x00000001
       64215000	      6420	80006350	e8050437	lui	x8,0xe8050	  x8=0xe8050000
       64225000	      6421	80006354	04496863	bltu	x18,x4,800063a4	 x18:0x80009efc  x4:0x34c2a000
       64235000	      6422	80006358	004a0433	add	x8,x20,x4	 x20:0x00000000  x4:0x34c2a000  x8=0x34c2a000
       64245000	      6423	8000635c	41b9df33	sra	x30,x19,x27	 x19:0xed9b0089 x27:0x00000000 x30=0xed9b0089
       64255000	      6424	80006360	41545133	sra	x2,x8,x21	  x8:0x34c2a000 x21:0x00000000  x2=0x34c2a000
       64265000	      6425	80006364	007fbcb3	sltu	x25,x31,x7	 x31:0x0d571320  x7:0xed9b0000 x25=0x00000001
       64275000	      6426	80006368	015cd393	srli	x7,x25,0x15	 x25:0x00000001  x7=0x00000000
       64285000	      6427	8000636c	a9f46a97	auipc	x21,0xa9f46	 x21=0x29f4c368
       64295000	      6428	80006370	00fc9cb3	sll	x25,x25,x15	 x25:0x00000001 x15:0x000000ed x25=0x00002000
       64305000	      6429	80006374	01a16663	bltu	x2,x26,80006380	  x2:0x34c2a000 x26:0x00000002
       64315000	      6430	80006378	fcc6d4b7	lui	x9,0xfcc6d	  x9=0xfcc6d000
       64325000	      6431	8000637c	00ef5193	srli	x3,x30,0xe	 x30:0xed9b0089  x3=0x0003b66c
       64335000	      6432	80006380	00000013	addi	x0,x0,0	  x0:0x00000000
       64345000	      6433	80006384	04621463	bne	x4,x6,800063cc	  x4:0x34c2a000  x6:0x00000000
       64355000	      6434	00000000	00000013	addi	x0,x0,0	  x0:0x00000000
       64365000	      6435	800063c8	00000013	addi	x0,x0,0	  x0:0x00000000
       64375000	      6436	800063cc	019f59b3	srl	x19,x30,x25	 x30:0xed9b0089 x25:0x00002000 x19=0xed9b0089
       64385000	      6437	800063d0	05e99863	bne	x19,x30,80006420	 x19:0xed9b0089 x30:0xed9b0089
       64395000	      6438	800063d4	00188a63	beq	x17,x1,800063e8	 x17:0x000007df  x1:0x0b45d000
       64405000	      6439	800063d8	00000013	addi	x0,x0,0	  x0:0x00000000
       64415000	      6440	800063dc	01907833	and	x16,x0,x25	  x0:0x00000000 x25:0x00002000 x16=0x00000000
       64425000	      6441	800063e0	01f0bb33	sltu	x22,x1,x31	  x1:0x0b45d000 x31:0x0d571320 x22=0x00000001
       64435000	      6442	800063e4	02777063	bgeu	x14,x7,80006404	 x14:0x00000000  x7:0x00000000
       64445000	      6443	00000000	00000013	addi	x0,x0,0	  x0:0x00000000
       64455000	      6444	80006400	00000013	addi	x0,x0,0	  x0:0x00000000
       64465000	      6445	80006404	01ac8e63	beq	x25,x26,80006420	 x25:0x00002000 x26:0x00000002
       64475000	      6446	80006408	5d4f0e93	addi	x29,x30,1492	 x30:0xed9b0089 x29=0xed9b065d
       64485000	      6447	8000640c	40720eb3	sub	x29,x4,x7	  x4:0x34c2a000  x7:0x00000000 x29=0x34c2a000
       64495000	      6448	80006410	01c90033	add	x0,x18,x28	 x18:0x80009efc x28:0xc70f7000
       64505000	      6449	80006414	009e8233	add	x4,x29,x9	 x29:0x34c2a000  x9:0xfcc6d000  x4=0x31897000
       64515000	      6450	80006418	0095d6b3	srl	x13,x11,x9	 x11:0x0000012e  x9:0xfcc6d000 x13=0x0000012e
       64525000	      6451	8000641c	01082033	slt	x0,x16,x16	 x16:0x00000000 x16:0x00000000
       64535000	      6452	80006420	0116d6b3	srl	x13,x13,x17	 x13:0x0000012e x17:0x000007df x13=0x00000000
       64545000	      6453	80006424	045ee863	bltu	x29,x5,80006474	 x29:0x34c2a000  x5:0x000002bb
       64555000	      6454	80006428	01dc50b3	srl	x1,x24,x29	 x24:0x00000001 x29:0x34c2a000  x1=0x00000001
       64565000	      6455	8000642c	d70d8a13	addi	x20,x27,-656	 x27:0x00000000 x20=0xfffffd70
       64575000	      6456	80006430	41f65233	sra	x4,x12,x31	 x12:0x000002bb x31:0x0d571320  x4=0x000002bb
       64585000	      6457	80006434	00ab9833	sll	x16,x23,x10	 x23:0x00000001 x10:0x80009fc4 x16=0x00000010
       64595000	      6458	80006438	03f2d263	bge	x5,x31,8000645c	  x5:0x000002bb x31:0x0d571320
       64605000	      6459	8000643c	00216bb3	or	x23,x2,x2	  x2:0x34c2a000  x2:0x34c2a000 x23=0x34c2a000
       64615000	      6460	80006440	0458d463	bge	x17,x5,80006488	 x17:0x000007df  x5:0x000002bb
       64625000	      6461	00000000	00000013	addi	x0,x0,0	  x0:0x00000000
       64635000	      6462	80006484	00000013	addi	x0,x0,0	  x0:0x00000000
       64645000	      6463	80006488	01cd4a63	blt	x26,x28,8000649c	 x26:0x00000002 x28:0xc70f7000
       64655000	      6464	8000648c	405ed3b3	sra	x7,x29,x5	 x29:0x34c2a000  x5:0x000002bb  x7=0x00000006
       64665000	      6465	80006490	00d85e33	srl	x28,x16,x13	 x16:0x00000010 x13:0x00000000 x28=0x00000010
       64675000	      6466	80006494	2a1ccf13	xori	x30,x25,673	 x25:0x00002000 x30=0x000022a1
       64685000	      6467	80006498	04085463	bge	x16,x0,800064e0	 x16:0x00000010  x0:0x00000000
       64695000	      6468	00000000	00000013	addi	x0,x0,0	  x0:0x00000000
       64705000	      6469	800064dc	00000013	addi	x0,x0,0	  x0:0x00000000
       64715000	      6470	800064e0	01fa2cb3	slt	x25,x20,x31	 x20:0xfffffd70 x31:0x0d571320 x25=0x00000001
       64725000	      6471	800064e4	0026da63	bge	x13,x2,800064f8	 x13:0x00000000  x2:0x34c2a000
       64735000	      6472	800064e8	006d3d33	sltu	x26,x26,x6	 x26:0x00000002  x6:0x00000000 x26=0x00000000
       64745000	      6473	800064ec	0020a8b3	slt	x17,x1,x2	  x1:0x00000001  x2:0x34c2a000 x17=0x00000001
       64755000	      6474	800064f0	01b43ab3	sltu	x21,x8,x27	  x8:0x34c2a000 x27:0x00000000 x21=0x00000000
       64765000	      6475	800064f4	01a31033	sll	x0,x6,x26	  x6:0x00000000 x26:0x00000000
       64775000	      6476	800064f8	007c9413	slli	x8,x25,0x7	 x25:0x00000001  x8=0x00000080
       64785000	      6477	800064fc	00ac5c63	bge	x24,x10,80006514	 x24:0x00000001 x10:0x80009fc4
       64795000	      6478	00000000	00000013	addi	x0,x0,0	  x0:0x00000000
       64805000	      6479	80006510	00000013	addi	x0,x0,0	  x0:0x00000000
       64815000	      6480	80006514	4038dc33	sra	x24,x17,x3	 x17:0x00000001  x3:0x0003b66c x24=0x00000000
       64825000	      6481	80006518	00000013	addi	x0,x0,0	  x0:0x00000000
       64835000	      6482	8000651c	0170a133	slt	x2,x1,x23	  x1:0x00000001 x23:0x34c2a000  x2=0x00000001
       64845000	      6483	80006520	00492403	lw	x8,4(x18)	 x18:0x80009efc  x8=0x80006aec PA:0x80009f00
       64855000	      6484	80006524	23973793	sltiu	x15,x14,569	 x14:0x00000000 x15=0x00000001
       64865000	      6485	80006528	01c90913	addi	x18,x18,28	 x18:0x80009efc x18=0x80009f18
       64875000	      6486	8000652c	01262033	slt	x0,x12,x18	 x12:0x000002bb x18:0x80009f18
       64885000	      6487	80006530	00140c93	addi	x25,x8,1	  x8:0x80006aec x25=0x80006aed
       64895000	      6488	80006534	000c8ce7	jalr	x25,x25,0	 x25:0x80006aed x25=0x80006534
       64905000	      6489	00000000	00000013	addi	x0,x0,0	  x0:0x00000000
       64915000	      6490	80006aec	00000013	addi	x0,x0,0	  x0:0x00000000
       64925000	      6491	80006af0	00002717	auipc	x14,0x2	 x14=0x80008aec
       64935000	      6492	80006af4	25870713	addi	x14,x14,600	 x14:0x80008aec x14=0x80008d44
       64945000	      6493	80006af8	fcf74a03	lbu	x20,-49(x14)	 x14:0x80008d44 x20=0x000000f8 PA:0x80008d13
       64955000	      6494	80006afc	005228b3	slt	x17,x4,x5	  x4:0x000002bb  x5:0x000002bb x17=0x00000000
       64965000	      6495	80006b00	fc274003	lbu	x0,-62(x14)	 x14:0x80008d44 PA:0x80008d06
       64975000	      6496	80006b04	68ee0f93	addi	x31,x28,1678	 x28:0x00000010 x31=0x0000069e
       64985000	      6497	80006b08	01d59d13	slli	x26,x11,0x1d	 x11:0x0000012e x26=0xc0000000
       64995000	      6498	80006b0c	ffe70ca3	sb	x30,-7(x14)	 x14:0x80008d44 x30:0x000022a1 PA:0x80008d3d
       65005000	      6499	80006b10	013bf4b3	and	x9,x23,x19	 x23:0x34c2a000 x19:0xed9b0089  x9=0x24820000
       65015000	      6500	80006b14	da5aa213	slti	x4,x21,-603	 x21:0x00000000  x4=0x00000000
       65025000	      6501	80006b18	01b74203	lbu	x4,27(x14)	 x14:0x80008d44  x4=0x00000044 PA:0x80008d5f
       65035000	      6502	80006b1c	fe370f23	sb	x3,-2(x14)	 x14:0x80008d44  x3:0x0003b66c PA:0x80008d42
       65045000	      6503	80006b20	007e15b3	sll	x11,x28,x7	 x28:0x00000010  x7:0x00000006 x11=0x00000400
       65055000	      6504	80006b24	41bed093	srai	x1,x29,0x1b	 x29:0x34c2a000  x1=0x00000006
       65065000	      6505	80006b28	bb4b0693	addi	x13,x22,-1100	 x22:0x00000001 x13=0xfffffbb5
       65075000	      6506	80006b2c	7ad30b17	auipc	x22,0x7ad30	 x22=0xfad36b28
       65085000	      6507	80006b30	ffb72823	sw	x27,-16(x14)	 x14:0x80008d44 x27:0x00000000 PA:0x80008d34
       65095000	      6508	80006b34	4080d9b3	sra	x19,x1,x8	  x1:0x00000006  x8:0x80006aec x19=0x00000000
       65105000	      6509	80006b38	29b97f13	andi	x30,x18,667	 x18:0x80009f18 x30=0x00000218
       65115000	      6510	80006b3c	02b74a83	lbu	x21,43(x14)	 x14:0x80008d44 x21=0x00000054 PA:0x80008d6f
       65125000	      6511	80006b40	020704a3	sb	x0,41(x14)	 x14:0x80008d44  x0:0x00000000 PA:0x80008d6d
       65135000	      6512	80006b44	1be34f13	xori	x30,x6,446	  x6:0x00000000 x30=0x000001be
       65145000	      6513	80006b48	fd470da3	sb	x20,-37(x14)	 x14:0x80008d44 x20:0x000000f8 PA:0x80008d1f
       65155000	      6514	80006b4c	0125e3b3	or	x7,x11,x18	 x11:0x00000400 x18:0x80009f18  x7=0x80009f18
       65165000	      6515	80006b50	00f707a3	sb	x15,15(x14)	 x14:0x80008d44 x15:0x00000001 PA:0x80008d53
       65175000	      6516	80006b54	417656b3	sra	x13,x12,x23	 x12:0x000002bb x23:0x34c2a000 x13=0x000002bb
       65185000	      6517	80006b58	00000013	addi	x0,x0,0	  x0:0x00000000
       65195000	      6518	80006b5c	03270e03	lb	x28,50(x14)	 x14:0x80008d44 x28=0x0000005d PA:0x80008d76
       65205000	      6519	80006b60	00872983	lw	x19,8(x14)	 x14:0x80008d44 x19=0x34353637 PA:0x80008d4c
       65215000	      6520	80006b64	003d5393	srli	x7,x26,0x3	 x26:0xc0000000  x7=0x18000000
       65225000	      6521	80006b68	9b874f93	xori	x31,x14,-1608	 x14:0x80008d44 x31=0x7fff74fc
       65235000	      6522	80006b6c	00000013	addi	x0,x0,0	  x0:0x00000000
       65245000	      6523	80006b70	01770203	lb	x4,23(x14)	 x14:0x80008d44  x4=0x00000040 PA:0x80008d5b
       65255000	      6524	80006b74	00b794b3	sll	x9,x15,x11	 x15:0x00000001 x11:0x00000400  x9=0x00000001
       65265000	      6525	80006b78	01246633	or	x12,x8,x18	  x8:0x80006aec x18:0x80009f18 x12=0x8000fffc
       65275000	      6526	80006b7c	00000013	addi	x0,x0,0	  x0:0x00000000
       65285000	      6527	80006b80	0148f4b3	and	x9,x17,x20	 x17:0x00000000 x20:0x000000f8  x9=0x00000000
       65295000	      6528	80006b84	01024e33	xor	x28,x4,x16	  x4:0x00000040 x16:0x00000010 x28=0x00000050
       65305000	      6529	80006b88	010df9b3	and	x19,x27,x16	 x27:0x00000000 x16:0x00000010 x19=0x00000000
       65315000	      6530	80006b8c	02470f83	lb	x31,36(x14)	 x14:0x80008d44 x31=0x00000053 PA:0x80008d68
       65325000	      6531	80006b90	fca71303	lh	x6,-54(x14)	 x14:0x80008d44  x6=0xfffff4f5 PA:0x80008d0e
       65335000	      6532	80006b94	0c777597	auipc	x11,0xc777	 x11=0x8c77db90
       65345000	      6533	80006b98	003fa433	slt	x8,x31,x3	 x31:0x00000053  x3:0x0003b66c  x8=0x00000001
       65355000	      6534	80006b9c	01d70e23	sb	x29,28(x14)	 x14:0x80008d44 x29:0x34c2a000 PA:0x80008d60
       65365000	      6535	80006ba0	0030eb33	or	x22,x1,x3	  x1:0x00000006  x3:0x0003b66c x22=0x0003b66e
       65375000	      6536	80006ba4	fc574603	lbu	x12,-59(x14)	 x14:0x80008d44 x12=0x000000f2 PA:0x80008d09
       65385000	      6537	80006ba8	03b70603	lb	x12,59(x14)	 x14:0x80008d44 x12=0x00000064 PA:0x80008d7f
       65395000	      6538	80006bac	43442193	slti	x3,x8,1076	  x8:0x00000001  x3=0x00000001
       65405000	      6539	80006bb0	03774d03	lbu	x26,55(x14)	 x14:0x80008d44 x26=0x00000060 PA:0x80008d7b
       65415000	      6540	80006bb4	0163dd13	srli	x26,x7,0x16	  x7:0x18000000 x26=0x00000060
       65425000	      6541	80006bb8	03005863	bge	x0,x16,80006be8	  x0:0x00000000 x16:0x00000010
       65435000	      6542	80006bbc	0158a833	slt	x16,x17,x21	 x17:0x00000000 x21:0x00000054 x16=0x00000001
       65445000	      6543	80006bc0	049e9463	bne	x29,x9,80006c08	 x29:0x34c2a000  x9:0x00000000
       65455000	      6544	00000000	00000013	addi	x0,x0,0	  x0:0x00000000
       65465000	      6545	80006c04	00000013	addi	x0,x0,0	  x0:0x00000000
       65475000	      6546	80006c08	00000013	addi	x0,x0,0	  x0:0x00000000
       65485000	      6547	80006c0c	f2a33f97	auipc	x31,0xf2a33	 x31=0x72a39c08
       65495000	      6548	80006c10	405a5713	srai	x14,x20,0x5	 x20:0x000000f8 x14=0x00000007
       65505000	      6549	80006c14	19f93093	sltiu	x1,x18,415	 x18:0x80009f18  x1=0x00000000
       65515000	      6550	80006c18	03a77263	bgeu	x14,x26,80006c3c	 x14:0x00000007 x26:0x00000060
       65525000	      6551	80006c1c	0171d693	srli	x13,x3,0x17	  x3:0x00000001 x13=0x00000000
       65535000	      6552	80006c20	8e53b737	lui	x14,0x8e53b	 x14=0x8e53b000
       65545000	      6553	80006c24	00528f33	add	x30,x5,x5	  x5:0x000002bb  x5:0x000002bb x30=0x00000576
       65555000	      6554	80006c28	0599e063	bltu	x19,x25,80006c68	 x19:0x00000000 x25:0x80006534
       65565000	      6555	00000000	00000013	addi	x0,x0,0	  x0:0x00000000
       65575000	      6556	80006c64	00000013	addi	x0,x0,0	  x0:0x00000000
       65585000	      6557	80006c68	03ce0c63	beq	x28,x28,80006ca0	 x28:0x00000050 x28:0x00000050
       65595000	      6558	00000000	00000013	addi	x0,x0,0	  x0:0x00000000
       65605000	      6559	80006c9c	00000013	addi	x0,x0,0	  x0:0x00000000
       65615000	      6560	80006ca0	016cc033	xor	x0,x25,x22	 x25:0x80006534 x22:0x0003b66e
       65625000	      6561	80006ca4	02d47663	bgeu	x8,x13,80006cd0	  x8:0x00000001 x13:0x00000000
       65635000	      6562	00000000	00000013	addi	x0,x0,0	  x0:0x00000000
       65645000	      6563	80006ccc	00000013	addi	x0,x0,0	  x0:0x00000000
       65655000	      6564	80006cd0	01131833	sll	x16,x6,x17	  x6:0xfffff4f5 x17:0x00000000 x16=0xfffff4f5
       65665000	      6565	80006cd4	0042d593	srli	x11,x5,0x4	  x5:0x000002bb x11=0x0000002b
       65675000	      6566	80006cd8	00000013	addi	x0,x0,0	  x0:0x00000000
       65685000	      6567	80006cdc	019337b3	sltu	x15,x6,x25	  x6:0xfffff4f5 x25:0x80006534 x15=0x00000000
       65695000	      6568	80006ce0	62f93c13	sltiu	x24,x18,1583	 x18:0x80009f18 x24=0x00000000
       65705000	      6569	80006ce4	05290863	beq	x18,x18,80006d34	 x18:0x80009f18 x18:0x80009f18
       65715000	      6570	00000000	00000013	addi	x0,x0,0	  x0:0x00000000
       65725000	      6571	80006d30	00000013	addi	x0,x0,0	  x0:0x00000000
       65735000	      6572	80006d34	007bc733	xor	x14,x23,x7	 x23:0x34c2a000  x7:0x18000000 x14=0x2cc2a000
       65745000	      6573	80006d38	00d77033	and	x0,x14,x13	 x14:0x2cc2a000 x13:0x00000000
       65755000	      6574	80006d3c	4a279f97	auipc	x31,0x4a279	 x31=0xca27fd38
       65765000	      6575	80006d40	d744a193	slti	x3,x9,-652	  x9:0x00000000  x3=0x00000000
       65775000	      6576	80006d44	13394413	xori	x8,x18,307	 x18:0x80009f18  x8=0x80009e2b
       65785000	      6577	80006d48	efa33a93	sltiu	x21,x6,-262	  x6:0xfffff4f5 x21=0x00000001
       65795000	      6578	80006d4c	1eeda493	slti	x9,x27,494	 x27:0x00000000  x9=0x00000001
       65805000	      6579	80006d50	0196ea63	bltu	x13,x25,80006d64	 x13:0x00000000 x25:0x80006534
       65815000	      6580	00000000	00000013	addi	x0,x0,0	  x0:0x00000000
       65825000	      6581	80006d60	00000013	addi	x0,x0,0	  x0:0x00000000
       65835000	      6582	80006d64	004c1a13	slli	x20,x24,0x4	 x24:0x00000000 x20=0x00000000
       65845000	      6583	80006d68	01855c63	bge	x10,x24,80006d80	 x10:0x80009fc4 x24:0x00000000
       65855000	      6584	80006d6c	01241433	sll	x8,x8,x18	  x8:0x80009e2b x18:0x80009f18  x8=0x2b000000
       65865000	      6585	80006d70	3983cd13	xori	x26,x7,920	  x7:0x18000000 x26=0x18000398
       65875000	      6586	80006d74	055a7263	bgeu	x20,x21,80006db8	 x20:0x00000000 x21:0x00000001
       65885000	      6587	80006d78	005c5a33	srl	x20,x24,x5	 x24:0x00000000  x5:0x000002bb x20=0x00000000
       65895000	      6588	80006d7c	40e6da13	srai	x20,x13,0xe	 x13:0x00000000 x20=0x00000000
       65905000	      6589	80006d80	af4f9bb7	lui	x23,0xaf4f9	 x23=0xaf4f9000
       65915000	      6590	80006d84	6bd3be13	sltiu	x28,x7,1725	  x7:0x18000000 x28=0x00000000
       65925000	      6591	80006d88	41bfd693	srai	x13,x31,0x1b	 x31:0xca27fd38 x13=0xfffffff9
       65935000	      6592	80006d8c	004bf6b3	and	x13,x23,x4	 x23:0xaf4f9000  x4:0x00000040 x13=0x00000000
       65945000	      6593	80006d90	40cf0433	sub	x8,x30,x12	 x30:0x00000576 x12:0x00000064  x8=0x00000512
       65955000	      6594	80006d94	f9b5cc13	xori	x24,x11,-101	 x11:0x0000002b x24=0xffffffb0
       65965000	      6595	80006d98	a4142093	slti	x1,x8,-1471	  x8:0x00000512  x1=0x00000000
       65975000	      6596	80006d9c	62c8c213	xori	x4,x17,1580	 x17:0x00000000  x4=0x0000062c
       65985000	      6597	80006da0	0037fc63	bgeu	x15,x3,80006db8	 x15:0x00000000  x3:0x00000000
       65995000	      6598	00000000	00000013	addi	x0,x0,0	  x0:0x00000000
       66005000	      6599	80006db4	00000013	addi	x0,x0,0	  x0:0x00000000
       66015000	      6600	80006db8	f712dd37	lui	x26,0xf712d	 x26=0xf712d000
       66025000	      6601	80006dbc	036e1e63	bne	x28,x22,80006df8	 x28:0x00000000 x22:0x0003b66e
       66035000	      6602	00000000	00000013	addi	x0,x0,0	  x0:0x00000000
       66045000	      6603	80006df4	00000013	addi	x0,x0,0	  x0:0x00000000
       66055000	      6604	80006df8	010f1113	slli	x2,x30,0x10	 x30:0x00000576  x2=0x05760000
       66065000	      6605	80006dfc	01fbecb3	or	x25,x23,x31	 x23:0xaf4f9000 x31:0xca27fd38 x25=0xef6ffd38
       66075000	      6606	80006e00	01708633	add	x12,x1,x23	  x1:0x00000000 x23:0xaf4f9000 x12=0xaf4f9000
       66085000	      6607	80006e04	013fc863	blt	x31,x19,80006e14	 x31:0xca27fd38 x19:0x00000000
       66095000	      6608	00000000	00000013	addi	x0,x0,0	  x0:0x00000000
       66105000	      6609	80006e10	00000013	addi	x0,x0,0	  x0:0x00000000
       66115000	      6610	80006e14	6cc56393	ori	x7,x10,1740	 x10:0x80009fc4  x7=0x80009fcc
       66125000	      6611	80006e18	8aee2713	slti	x14,x28,-1874	 x28:0x00000000 x14=0x00000000
       66135000	      6612	80006e1c	6485a817	auipc	x16,0x6485a	 x16=0xe4860e18
       66145000	      6613	80006e20	0090a2b3	slt	x5,x1,x9	  x1:0x00000000  x9:0x00000001  x5=0x00000001
       66155000	      6614	80006e24	00492403	lw	x8,4(x18)	 x18:0x80009f18  x8=0x80003198 PA:0x80009f1c
       66165000	      6615	00000000	00000013	addi	x0,x0,0	  x0:0x00000000
       66175000	      6616	80006e28	02890913	addi	x18,x18,40	 x18:0x80009f18 x18=0x80009f40
       66185000	      6617	80006e2c	00000013	addi	x0,x0,0	  x0:0x00000000
       66195000	      6618	80006e30	015cef33	or	x30,x25,x21	 x25:0xef6ffd38 x21:0x00000001 x30=0xef6ffd39
       66205000	      6619	80006e34	403f5b33	sra	x22,x30,x3	 x30:0xef6ffd39  x3:0x00000000 x22=0xef6ffd39
       66215000	      6620	80006e38	00140c93	addi	x25,x8,1	  x8:0x80003198 x25=0x80003199
       66225000	      6621	80006e3c	000c8ce7	jalr	x25,x25,0	 x25:0x80003199 x25=0x80006e3c
       66235000	      6622	00000000	00000013	addi	x0,x0,0	  x0:0x00000000
       66245000	      6623	80003198	00000013	addi	x0,x0,0	  x0:0x00000000
       66255000	      6624	8000319c	00ac57b3	srl	x15,x24,x10	 x24:0xffffffb0 x10:0x80009fc4 x15=0x0ffffffb
       66265000	      6625	800031a0	01909463	bne	x1,x25,800031a8	  x1:0x00000000 x25:0x80006e3c
       66275000	      6626	00000000	00000013	addi	x0,x0,0	  x0:0x00000000
       66285000	      6627	800031a4	00000013	addi	x0,x0,0	  x0:0x00000000
       66295000	      6628	800031a8	402880b3	sub	x1,x17,x2	 x17:0x00000000  x2:0x05760000  x1=0xfa8a0000
       66305000	      6629	800031ac	f23db013	sltiu	x0,x27,-221	 x27:0x00000000
       66315000	      6630	800031b0	409f0d33	sub	x26,x30,x9	 x30:0xef6ffd39  x9:0x00000001 x26=0xef6ffd38
       66325000	      6631	800031b4	0052a7b3	slt	x15,x5,x5	  x5:0x00000001  x5:0x00000001 x15=0x00000000
       66335000	      6632	800031b8	002fe263	bltu	x31,x2,800031bc	 x31:0xca27fd38  x2:0x05760000
       66345000	      6633	800031bc	00520263	beq	x4,x5,800031c0	  x4:0x0000062c  x5:0x00000001
       66355000	      6634	800031c0	12a3f293	andi	x5,x7,298	  x7:0x80009fcc  x5=0x00000108
       66365000	      6635	800031c4	92ab2093	slti	x1,x22,-1750	 x22:0xef6ffd39  x1=0x00000001
       66375000	      6636	800031c8	019bd263	bge	x23,x25,800031cc	 x23:0xaf4f9000 x25:0x80006e3c
       66385000	      6637	00000000	00000013	addi	x0,x0,0	  x0:0x00000000
       66395000	      6638	800031c8	00000013	addi	x0,x0,0	  x0:0x00000000
       66405000	      6639	800031cc	86f4be17	auipc	x28,0x86f4b	 x28=0x06f4e1c8
       66415000	      6640	800031d0	00492403	lw	x8,4(x18)	 x18:0x80009f40  x8=0x80003600 PA:0x80009f44
       66425000	      6641	800031d4	00799ab3	sll	x21,x19,x7	 x19:0x00000000  x7:0x80009fcc x21=0x00000000
       66435000	      6642	800031d8	00890913	addi	x18,x18,8	 x18:0x80009f40 x18=0x80009f48
       66445000	      6643	800031dc	fa178613	addi	x12,x15,-95	 x15:0x00000000 x12=0xffffffa1
       66455000	      6644	800031e0	019e87b3	add	x15,x29,x25	 x29:0x34c2a000 x25:0x80006e3c x15=0xb4c30e3c
       66465000	      6645	800031e4	0150dc13	srli	x24,x1,0x15	  x1:0x00000001 x24=0x00000000
       66475000	      6646	800031e8	00c5f8b3	and	x17,x11,x12	 x11:0x0000002b x12:0xffffffa1 x17=0x00000021
       66485000	      6647	800031ec	00140313	addi	x6,x8,1	  x8:0x80003600  x6=0x80003601
       66495000	      6648	800031f0	00030367	jalr	x6,x6,0	  x6:0x80003601  x6=0x800031f0
       66505000	      6649	00000000	00000013	addi	x0,x0,0	  x0:0x00000000
       66515000	      6650	80003600	00000013	addi	x0,x0,0	  x0:0x00000000
       66525000	      6651	80003604	0161c263	blt	x3,x22,80003608	  x3:0x00000000 x22:0xef6ffd39
       66535000	      6652	80003608	40f05993	srai	x19,x0,0xf	  x0:0x00000000 x19=0x00000000
       66545000	      6653	8000360c	944c3413	sltiu	x8,x24,-1724	 x24:0x00000000  x8=0x00000001
       66555000	      6654	80003610	02a14063	blt	x2,x10,80003630	  x2:0x05760000 x10:0x80009fc4
       66565000	      6655	80003614	09197463	bgeu	x18,x17,8000369c	 x18:0x80009f48 x17:0x00000021
       66575000	      6656	00000000	00000013	addi	x0,x0,0	  x0:0x00000000
       66585000	      6657	80003698	00000013	addi	x0,x0,0	  x0:0x00000000
       66595000	      6658	8000369c	40b788b3	sub	x17,x15,x11	 x15:0xb4c30e3c x11:0x0000002b x17=0xb4c30e11
       66605000	      6659	800036a0	015d6fb3	or	x31,x26,x21	 x26:0xef6ffd38 x21:0x00000000 x31=0xef6ffd38
       66615000	      6660	800036a4	01cf0463	beq	x30,x28,800036ac	 x30:0xef6ffd39 x28:0x06f4e1c8
       66625000	      6661	800036a8	0112e8b3	or	x17,x5,x17	  x5:0x00000108 x17:0xb4c30e11 x17=0xb4c30f19
       66635000	      6662	800036ac	41455cb3	sra	x25,x10,x20	 x10:0x80009fc4 x20:0x00000000 x25=0x80009fc4
       66645000	      6663	800036b0	01ecdd13	srli	x26,x25,0x1e	 x25:0x80009fc4 x26=0x00000002
       66655000	      6664	800036b4	03e28063	beq	x5,x30,800036d4	  x5:0x00000108 x30:0xef6ffd39
       66665000	      6665	800036b8	01980ab3	add	x21,x16,x25	 x16:0xe4860e18 x25:0x80009fc4 x21=0x6486addc
       66675000	      6666	800036bc	00000013	addi	x0,x0,0	  x0:0x00000000
       66685000	      6667	800036c0	01594c33	xor	x24,x18,x21	 x18:0x80009f48 x21:0x6486addc x24=0xe4863294
       66695000	      6668	800036c4	01461c63	bne	x12,x20,800036dc	 x12:0xffffffa1 x20:0x00000000
       66705000	      6669	00000000	00000013	addi	x0,x0,0	  x0:0x00000000
       66715000	      6670	800036d8	00000013	addi	x0,x0,0	  x0:0x00000000
       66725000	      6671	800036dc	0012e833	or	x16,x5,x1	  x5:0x00000108  x1:0x00000001 x16=0x00000109
       66735000	      6672	800036e0	00c5d9b3	srl	x19,x11,x12	 x11:0x0000002b x12:0xffffffa1 x19=0x00000015
       66745000	      6673	800036e4	00492403	lw	x8,4(x18)	 x18:0x80009f48  x8=0x80000204 PA:0x80009f4c
       66755000	      6674	800036e8	03c90913	addi	x18,x18,60	 x18:0x80009f48 x18=0x80009f84
       66765000	      6675	800036ec	00301333	sll	x6,x0,x3	  x0:0x00000000  x3:0x00000000  x6=0x00000000
       66775000	      6676	800036f0	00000013	addi	x0,x0,0	  x0:0x00000000
       66785000	      6677	800036f4	007c0633	add	x12,x24,x7	 x24:0xe4863294  x7:0x80009fcc x12=0x6486d260
       66795000	      6678	800036f8	00140793	addi	x15,x8,1	  x8:0x80000204 x15=0x80000205
       66805000	      6679	800036fc	000787e7	jalr	x15,x15,0	 x15:0x80000205 x15=0x800036fc
       66815000	      6680	00000000	00000013	addi	x0,x0,0	  x0:0x00000000
       66825000	      6681	80000204	00000013	addi	x0,x0,0	  x0:0x00000000
       66835000	      6682	80000208	010d8663	beq	x27,x16,80000214	 x27:0x00000000 x16:0x00000109
       66845000	      6683	8000020c	03df5663	bge	x30,x29,80000238	 x30:0xef6ffd39 x29:0x34c2a000
       66855000	      6684	80000210	05f2d863	bge	x5,x31,80000260	  x5:0x00000108 x31:0xef6ffd38
       66865000	      6685	00000000	00000013	addi	x0,x0,0	  x0:0x00000000
       66875000	      6686	8000025c	00000013	addi	x0,x0,0	  x0:0x00000000
       66885000	      6687	80000260	41cc5b33	sra	x22,x24,x28	 x24:0xe4863294 x28:0x06f4e1c8 x22=0xffe48632
       66895000	      6688	80000264	748f7093	andi	x1,x30,1864	 x30:0xef6ffd39  x1=0x00000508
       66905000	      6689	80000268	00dfe133	or	x2,x31,x13	 x31:0xef6ffd38 x13:0x00000000  x2=0xef6ffd38
       66915000	      6690	8000026c	911ebf13	sltiu	x30,x29,-1775	 x29:0x34c2a000 x30=0x00000001
       66925000	      6691	80000270	ff695fb7	lui	x31,0xff695	 x31=0xff695000
       66935000	      6692	80000274	b1523793	sltiu	x15,x4,-1259	  x4:0x0000062c x15=0x00000001
       66945000	      6693	80000278	026e4e63	blt	x28,x6,800002b4	 x28:0x06f4e1c8  x6:0x00000000
       66955000	      6694	8000027c	f96b1a37	lui	x20,0xf96b1	 x20=0xf96b1000
       66965000	      6695	80000280	012e8463	beq	x29,x18,80000288	 x29:0x34c2a000 x18:0x80009f84
       66975000	      6696	80000284	01f75233	srl	x4,x14,x31	 x14:0x00000000 x31:0xff695000  x4=0x00000000
       66985000	      6697	80000288	04795063	bge	x18,x7,800002c8	 x18:0x80009f84  x7:0x80009fcc
       66995000	      6698	8000028c	057d0063	beq	x26,x23,800002cc	 x26:0x00000002 x23:0xaf4f9000
       67005000	      6699	80000290	00000013	addi	x0,x0,0	  x0:0x00000000
       67015000	      6700	80000294	018eeab3	or	x21,x29,x24	 x29:0x34c2a000 x24:0xe4863294 x21=0xf4c6b294
       67025000	      6701	80000298	4129db93	srai	x23,x19,0x12	 x19:0x00000015 x23=0x00000000
       67035000	      6702	8000029c	03fef863	bgeu	x29,x31,800002cc	 x29:0x34c2a000 x31:0xff695000
       67045000	      6703	800002a0	14ca6093	ori	x1,x20,332	 x20:0xf96b1000  x1=0xf96b114c
       67055000	      6704	800002a4	0112c263	blt	x5,x17,800002a8	  x5:0x00000108 x17:0xb4c30f19
       67065000	      6705	800002a8	406607b3	sub	x15,x12,x6	 x12:0x6486d260  x6:0x00000000 x15=0x6486d260
       67075000	      6706	800002ac	01bd24b3	slt	x9,x26,x27	 x26:0x00000002 x27:0x00000000  x9=0x00000000
       67085000	      6707	800002b0	00165793	srli	x15,x12,0x1	 x12:0x6486d260 x15=0x32436930
       67095000	      6708	800002b4	01d5d263	bge	x11,x29,800002b8	 x11:0x0000002b x29:0x34c2a000
       67105000	      6709	800002b8	41b482b3	sub	x5,x9,x27	  x9:0x00000000 x27:0x00000000  x5=0x00000000
       67115000	      6710	800002bc	0133e863	bltu	x7,x19,800002cc	  x7:0x80009fcc x19:0x00000015
       67125000	      6711	800002c0	6574af93	slti	x31,x9,1623	  x9:0x00000000 x31=0x00000001
       67135000	      6712	800002c4	01d4a133	slt	x2,x9,x29	  x9:0x00000000 x29:0x34c2a000  x2=0x00000001
       67145000	      6713	800002c8	019b6033	or	x0,x22,x25	 x22:0xffe48632 x25:0x80009fc4
       67155000	      6714	800002cc	403f54b3	sra	x9,x30,x3	 x30:0x00000001  x3:0x00000000  x9=0x00000001
       67165000	      6715	800002d0	00000d97	auipc	x27,0x0	 x27=0x800002cc
       67175000	      6716	800002d4	00cd8d93	addi	x27,x27,12	 x27:0x800002cc x27=0x800002d8
       67185000	      6717	800002d8	000d8067	jalr	x0,x27,0	 x27:0x800002d8
       67195000	      6718	00000000	00000013	addi	x0,x0,0	  x0:0x00000000
       67205000	      6719	800002d8	00000013	addi	x0,x0,0	  x0:0x00000000
       67215000	      6720	800002dc	00100193	addi	x3,x0,1	  x0:0x00000000  x3=0x00000001
       67225000	      6721	800002e0	00000073	ecall	
       67235000	      6722	800002e4	0183c133	xor	x2,x7,x24	  x7:0x80009fcc x24:0xe4863294  x2=0x6486ad58
