		Time			Cycle	PC		Insn	Decoded instruction	Register and memory contents
          65000	         5	80000004	00000293	addi	x5,x0,0	  x0:0x00000000  x5=0x00000000
          75000	         6	80000008	00000313	addi	x6,x0,0	  x0:0x00000000  x6=0x00000000
          85000	         7	8000000c	00628263	beq	x5,x6,80000010	  x5:0x00000000  x6:0x00000000
          95000	         8	00000000	00000013	addi	x0,x0,0	  x0:0x00000000
         105000	         9	8000000c	00000013	addi	x0,x0,0	  x0:0x00000000
         115000	        10	80000010	00000a17	auipc	x20,0x0	 x20=0x8000000c
         125000	        11	80000014	00ca0a13	addi	x20,x20,12	 x20:0x8000000c x20=0x80000018
         135000	        12	80000018	000a0067	jalr	x0,x20,0	 x20:0x80000018
         145000	        13	00000000	00000013	addi	x0,x0,0	  x0:0x00000000
         155000	        14	80000018	00000013	addi	x0,x0,0	  x0:0x00000000
         165000	        15	8000001c	40000337	lui	x6,0x40000	  x6=0x40000000
         175000	        16	80000020	10030313	addi	x6,x6,256	  x6:0x40000000  x6=0x40000100
         185000	        17	80000024	00000013	addi	x0,x0,0	  x0:0x00000000
         195000	        18	80000028	0000a397	auipc	x7,0xa	  x7=0x8000a024
         205000	        19	8000002c	fa038393	addi	x7,x7,-96	  x7:0x8000a024  x7=0x80009fc4
         215000	        20	80000030	00007317	auipc	x6,0x7	  x6=0x8000702c
         225000	        21	80000034	60430313	addi	x6,x6,1540	  x6:0x8000702c  x6=0x80007630
         235000	        22	80000038	00136313	ori	x6,x6,1	  x6:0x80007630  x6=0x80007631
         245000	        23	8000003c	00000013	addi	x0,x0,0	  x0:0x00000000
         255000	        24	80000040	00000317	auipc	x6,0x0	  x6=0x8000003c
         265000	        25	80000044	02030313	addi	x6,x6,32	  x6:0x8000003c  x6=0x8000005c
         275000	        26	80000048	00000013	addi	x0,x0,0	  x0:0x00000000
         285000	        27	8000004c	00000013	addi	x0,x0,0	  x0:0x00000000
         295000	        28	80000050	00002337	lui	x6,0x2	  x6=0x00002000
         305000	        29	80000054	80030313	addi	x6,x6,-2048	  x6:0x00002000  x6=0x00001800
         315000	        30	80000058	00000013	addi	x0,x0,0	  x0:0x00000000
         325000	        31	8000005c	00000013	addi	x0,x0,0	  x0:0x00000000
         335000	        32	80000060	80000037	lui	x0,0x80000	
         345000	        33	80000064	00000013	addi	x0,x0,0	  x0:0x00000000
         355000	        34	80000068	f5e780b7	lui	x1,0xf5e78	  x1=0xf5e78000
         365000	        35	8000006c	c0408093	addi	x1,x1,-1020	  x1:0xf5e78000  x1=0xf5e77c04
         375000	        36	80000070	00c00113	addi	x2,x0,12	  x0:0x00000000  x2=0x0000000c
         385000	        37	80000074	800001b7	lui	x3,0x80000	  x3=0x80000000
         395000	        38	80000078	9a810237	lui	x4,0x9a810	  x4=0x9a810000
         405000	        39	8000007c	f7f20213	addi	x4,x4,-129	  x4:0x9a810000  x4=0x9a80ff7f
         415000	        40	80000080	f0ea62b7	lui	x5,0xf0ea6	  x5=0xf0ea6000
         425000	        41	80000084	cbd28293	addi	x5,x5,-835	  x5:0xf0ea6000  x5=0xf0ea5cbd
         435000	        42	80000088	00100313	addi	x6,x0,1	  x0:0x00000000  x6=0x00000001
         445000	        43	8000008c	00700493	addi	x9,x0,7	  x0:0x00000000  x9=0x00000007
         455000	        44	80000090	00000513	addi	x10,x0,0	  x0:0x00000000 x10=0x00000000
         465000	        45	80000094	f4e655b7	lui	x11,0xf4e65	 x11=0xf4e65000
         475000	        46	80000098	e1258593	addi	x11,x11,-494	 x11:0xf4e65000 x11=0xf4e64e12
         485000	        47	8000009c	00a00613	addi	x12,x0,10	  x0:0x00000000 x12=0x0000000a
         495000	        48	800000a0	800006b7	lui	x13,0x80000	 x13=0x80000000
         505000	        49	800000a4	00e00713	addi	x14,x0,14	  x0:0x00000000 x14=0x0000000e
         515000	        50	800000a8	00300793	addi	x15,x0,3	  x0:0x00000000 x15=0x00000003
         525000	        51	800000ac	80000837	lui	x16,0x80000	 x16=0x80000000
         535000	        52	800000b0	00000893	addi	x17,x0,0	  x0:0x00000000 x17=0x00000000
         545000	        53	800000b4	89b85937	lui	x18,0x89b85	 x18=0x89b85000
         555000	        54	800000b8	3e190913	addi	x18,x18,993	 x18:0x89b85000 x18=0x89b853e1
         565000	        55	800000bc	00700993	addi	x19,x0,7	  x0:0x00000000 x19=0x00000007
         575000	        56	800000c0	a15e5a37	lui	x20,0xa15e5	 x20=0xa15e5000
         585000	        57	800000c4	cb0a0a13	addi	x20,x20,-848	 x20:0xa15e5000 x20=0xa15e4cb0
         595000	        58	800000c8	00000a93	addi	x21,x0,0	  x0:0x00000000 x21=0x00000000
         605000	        59	800000cc	f4a04b37	lui	x22,0xf4a04	 x22=0xf4a04000
         615000	        60	800000d0	acab0b13	addi	x22,x22,-1334	 x22:0xf4a04000 x22=0xf4a03aca
         625000	        61	800000d4	00000b93	addi	x23,x0,0	  x0:0x00000000 x23=0x00000000
         635000	        62	800000d8	f59d8c37	lui	x24,0xf59d8	 x24=0xf59d8000
         645000	        63	800000dc	f6dc0c13	addi	x24,x24,-147	 x24:0xf59d8000 x24=0xf59d7f6d
         655000	        64	800000e0	f356ecb7	lui	x25,0xf356e	 x25=0xf356e000
         665000	        65	800000e4	e6ec8c93	addi	x25,x25,-402	 x25:0xf356e000 x25=0xf356de6e
         675000	        66	800000e8	f78e2d37	lui	x26,0xf78e2	 x26=0xf78e2000
         685000	        67	800000ec	504d0d13	addi	x26,x26,1284	 x26:0xf78e2000 x26=0xf78e2504
         695000	        68	800000f0	7fbd3db7	lui	x27,0x7fbd3	 x27=0x7fbd3000
         705000	        69	800000f4	e9bd8d93	addi	x27,x27,-357	 x27:0x7fbd3000 x27=0x7fbd2e9b
         715000	        70	800000f8	00000e13	addi	x28,x0,0	  x0:0x00000000 x28=0x00000000
         725000	        71	800000fc	29c84eb7	lui	x29,0x29c84	 x29=0x29c84000
         735000	        72	80000100	ff0e8e93	addi	x29,x29,-16	 x29:0x29c84000 x29=0x29c83ff0
         745000	        73	80000104	80000f37	lui	x30,0x80000	 x30=0x80000000
         755000	        74	80000108	f18d7fb7	lui	x31,0xf18d7	 x31=0xf18d7000
         765000	        75	8000010c	5d0f8f93	addi	x31,x31,1488	 x31:0xf18d7000 x31=0xf18d75d0
         775000	        76	80000110	0000a417	auipc	x8,0xa	  x8=0x8000a10c
         785000	        77	80000114	e7840413	addi	x8,x8,-392	  x8:0x8000a10c  x8=0x80009f84
         795000	        78	80000118	be24b037	lui	x0,0xbe24b	
         805000	        79	8000011c	409e8133	sub	x2,x29,x9	 x29:0x29c83ff0  x9:0x00000007  x2=0x29c83fe9
         815000	        80	80000120	00ccabb3	slt	x23,x25,x12	 x25:0xf356de6e x12:0x0000000a x23=0x00000001
         825000	        81	80000124	00000697	auipc	x13,0x0	 x13=0x80000120
         835000	        82	80000128	5c868693	addi	x13,x13,1480	 x13:0x80000120 x13=0x800006e8
         845000	        83	8000012c	01f14233	xor	x4,x2,x31	  x2:0x29c83fe9 x31:0xf18d75d0  x4=0xd8454a39
         855000	        84	80000130	d4268693	addi	x13,x13,-702	 x13:0x800006e8 x13=0x8000042a
         865000	        85	80000134	0843f613	andi	x12,x7,132	  x7:0x80009fc4 x12=0x00000084
         875000	        86	80000138	a6cb0d93	addi	x27,x22,-1428	 x22:0xf4a03aca x27=0xf4a03536
         885000	        87	8000013c	00abd463	bge	x23,x10,80000144	 x23:0x00000001 x10:0x00000000
         895000	        88	00000000	00000013	addi	x0,x0,0	  x0:0x00000000
         905000	        89	80000140	00000013	addi	x0,x0,0	  x0:0x00000000
         915000	        90	80000144	2bf680e7	jalr	x1,x13,703	 x13:0x8000042a  x1=0x80000144
         925000	        91	00000000	00000013	addi	x0,x0,0	  x0:0x00000000
         935000	        92	800006e8	00000013	addi	x0,x0,0	  x0:0x00000000
         945000	        93	800006ec	41c0d133	sra	x2,x1,x28	  x1:0x80000144 x28:0x00000000  x2=0x80000144
         955000	        94	800006f0	fc440413	addi	x8,x8,-60	  x8:0x80009f84  x8=0x80009f48
         965000	        95	800006f4	00142223	sw	x1,4(x8)	  x8:0x80009f48  x1:0x80000144 PA:0x80009f4c
         975000	        96	800006f8	564beb93	ori	x23,x23,1380	 x23:0x00000001 x23=0x00000565
         985000	        97	800006fc	3ed8fd13	andi	x26,x17,1005	 x17:0x00000000 x26=0x00000000
         995000	        98	80000700	fbbb3c97	auipc	x25,0xfbbb3	 x25=0x7bbb36fc
        1005000	        99	80000704	21394793	xori	x15,x18,531	 x18:0x89b853e1 x15=0x89b851f2
        1015000	       100	80000708	41f207b3	sub	x15,x4,x31	  x4:0xd8454a39 x31:0xf18d75d0 x15=0xe6b7d469
        1025000	       101	8000070c	320ccb13	xori	x22,x25,800	 x25:0x7bbb36fc x22=0x7bbb35dc
        1035000	       102	80000710	40ed0b33	sub	x22,x26,x14	 x26:0x00000000 x14:0x0000000e x22=0xfffffff2
        1045000	       103	80000714	006be6b3	or	x13,x23,x6	 x23:0x00000565  x6:0x00000001 x13=0x00000565
        1055000	       104	80000718	ddb14593	xori	x11,x2,-549	  x2:0x80000144 x11=0x7ffffc9f
        1065000	       105	8000071c	004a9a63	bne	x21,x4,80000730	 x21:0x00000000  x4:0xd8454a39
        1075000	       106	00000000	00000013	addi	x0,x0,0	  x0:0x00000000
        1085000	       107	8000072c	00000013	addi	x0,x0,0	  x0:0x00000000
        1095000	       108	80000730	d99ff0ef	jal	x1,80000730	  x1=0x80000730
        1105000	       109	00000000	00000013	addi	x0,x0,0	  x0:0x00000000
        1115000	       110	800004c4	00000013	addi	x0,x0,0	  x0:0x00000000
        1125000	       111	800004c8	4143df93	srai	x31,x7,0x14	  x7:0x80009fc4 x31=0xfffff800
        1135000	       112	800004cc	6890ec13	ori	x24,x1,1673	  x1:0x80000730 x24=0x800007b9
        1145000	       113	800004d0	00000013	addi	x0,x0,0	  x0:0x00000000
        1155000	       114	800004d4	ff840413	addi	x8,x8,-8	  x8:0x80009f48  x8=0x80009f40
        1165000	       115	800004d8	015b47b3	xor	x15,x22,x21	 x22:0xfffffff2 x21:0x00000000 x15=0xfffffff2
        1175000	       116	800004dc	00515b93	srli	x23,x2,0x5	  x2:0x80000144 x23=0x0400000a
        1185000	       117	800004e0	00142223	sw	x1,4(x8)	  x8:0x80009f40  x1:0x80000730 PA:0x80009f44
        1195000	       118	800004e4	00113b33	sltu	x22,x2,x1	  x2:0x80000144  x1:0x80000730 x22=0x00000001
        1205000	       119	800004e8	f3060817	auipc	x16,0xf3060	 x16=0x730604e4
        1215000	       120	800004ec	00478d33	add	x26,x15,x4	 x15:0xfffffff2  x4:0xd8454a39 x26=0xd8454a2b
        1225000	       121	800004f0	009b5233	srl	x4,x22,x9	 x22:0x00000001  x9:0x00000007  x4=0x00000000
        1235000	       122	800004f4	009bd893	srli	x17,x23,0x9	 x23:0x0400000a x17=0x00020000
        1245000	       123	800004f8	00000c17	auipc	x24,0x0	 x24=0x800004f4
        1255000	       124	800004fc	124c0c13	addi	x24,x24,292	 x24:0x800004f4 x24=0x80000618
        1265000	       125	80000500	6a4c6317	auipc	x6,0x6a4c6	  x6=0xea4c64fc
        1275000	       126	80000504	01f7d213	srli	x4,x15,0x1f	 x15:0xfffffff2  x4=0x00000001
        1285000	       127	80000508	4d16af93	slti	x31,x13,1233	 x13:0x00000565 x31=0x00000000
        1295000	       128	8000050c	33fc0c13	addi	x24,x24,831	 x24:0x80000618 x24=0x80000957
        1305000	       129	80000510	07933c93	sltiu	x25,x6,121	  x6:0xea4c64fc x25=0x00000000
        1315000	       130	80000514	01c9c733	xor	x14,x19,x28	 x19:0x00000007 x28:0x00000000 x14=0x00000007
        1325000	       131	80000518	00b0e663	bltu	x1,x11,80000524	  x1:0x80000730 x11:0x7ffffc9f
        1335000	       132	8000051c	099f3db7	lui	x27,0x99f3	 x27=0x099f3000
        1345000	       133	80000520	011149b3	xor	x19,x2,x17	  x2:0x80000144 x17:0x00020000 x19=0x80020144
        1355000	       134	80000524	cc2c00e7	jalr	x1,x24,-830	 x24:0x80000957  x1=0x80000524
        1365000	       135	00000000	00000013	addi	x0,x0,0	  x0:0x00000000
        1375000	       136	80000618	00000013	addi	x0,x0,0	  x0:0x00000000
        1385000	       137	8000061c	00e14663	blt	x2,x14,80000628	  x2:0x80000144 x14:0x00000007
        1395000	       138	00000000	00000013	addi	x0,x0,0	  x0:0x00000000
        1405000	       139	80000624	00000013	addi	x0,x0,0	  x0:0x00000000
        1415000	       140	80000628	fe040413	addi	x8,x8,-32	  x8:0x80009f40  x8=0x80009f20
        1425000	       141	8000062c	015329b3	slt	x19,x6,x21	  x6:0xea4c64fc x21:0x00000000 x19=0x00000001
        1435000	       142	80000630	00142223	sw	x1,4(x8)	  x8:0x80009f20  x1:0x80000524 PA:0x80009f24
        1445000	       143	80000634	e4518593	addi	x11,x3,-443	  x3:0x80000000 x11=0x7ffffe45
        1455000	       144	80000638	41965313	srai	x6,x12,0x19	 x12:0x00000084  x6=0x00000000
        1465000	       145	8000063c	a140a117	auipc	x2,0xa140a	  x2=0x2140a638
        1475000	       146	80000640	b0baf8b7	lui	x17,0xb0baf	 x17=0xb0baf000
        1485000	       147	80000644	006e5d93	srli	x27,x28,0x6	 x28:0x00000000 x27=0x00000000
        1495000	       148	80000648	41d95733	sra	x14,x18,x29	 x18:0x89b853e1 x29:0x29c83ff0 x14=0xffff89b8
        1505000	       149	8000064c	009a7f33	and	x30,x20,x9	 x20:0xa15e4cb0  x9:0x00000007 x30=0x00000000
        1515000	       150	80000650	415606b3	sub	x13,x12,x21	 x12:0x00000084 x21:0x00000000 x13=0x00000084
        1525000	       151	80000654	c83ff913	andi	x18,x31,-893	 x31:0x00000000 x18=0x00000000
        1535000	       152	80000658	0043ebb3	or	x23,x7,x4	  x7:0x80009fc4  x4:0x00000001 x23=0x80009fc5
        1545000	       153	8000065c	0bf4f913	andi	x18,x9,191	  x9:0x00000007 x18=0x00000007
        1555000	       154	80000660	61ee0793	addi	x15,x28,1566	 x28:0x00000000 x15=0x0000061e
        1565000	       155	80000664	00003517	auipc	x10,0x3	 x10=0x80003660
        1575000	       156	80000668	29850513	addi	x10,x10,664	 x10:0x80003660 x10=0x800038f8
        1585000	       157	8000066c	008dfe93	andi	x29,x27,8	 x27:0x00000000 x29=0x00000000
        1595000	       158	80000670	fb050513	addi	x10,x10,-80	 x10:0x800038f8 x10=0x800038a8
        1605000	       159	80000674	014f8133	add	x2,x31,x20	 x31:0x00000000 x20:0xa15e4cb0  x2=0xa15e4cb0
        1615000	       160	80000678	050500e7	jalr	x1,x10,80	 x10:0x800038a8  x1=0x80000678
        1625000	       161	00000000	00000013	addi	x0,x0,0	  x0:0x00000000
        1635000	       162	800038f8	00000013	addi	x0,x0,0	  x0:0x00000000
        1645000	       163	800038fc	d76f6193	ori	x3,x30,-650	 x30:0x00000000  x3=0xfffffd76
        1655000	       164	80003900	00000013	addi	x0,x0,0	  x0:0x00000000
        1665000	       165	80003904	403b5b33	sra	x22,x22,x3	 x22:0x00000001  x3:0xfffffd76 x22=0x00000000
        1675000	       166	80003908	00aa4eb3	xor	x29,x20,x10	 x20:0xa15e4cb0 x10:0x800038a8 x29=0x215e7418
        1685000	       167	8000390c	141dbe13	sltiu	x28,x27,321	 x27:0x00000000 x28=0x00000001
        1695000	       168	80003910	fc840413	addi	x8,x8,-56	  x8:0x80009f20  x8=0x80009ee8
        1705000	       169	80003914	00d7d1b3	srl	x3,x15,x13	 x15:0x0000061e x13:0x00000084  x3=0x00000061
        1715000	       170	80003918	00f274b3	and	x9,x4,x15	  x4:0x00000001 x15:0x0000061e  x9=0x00000000
        1725000	       171	8000391c	00142223	sw	x1,4(x8)	  x8:0x80009ee8  x1:0x80000678 PA:0x80009eec
        1735000	       172	80003920	00d775b3	and	x11,x14,x13	 x14:0xffff89b8 x13:0x00000084 x11=0x00000080
        1745000	       173	80003924	404bd533	sra	x10,x23,x4	 x23:0x80009fc5  x4:0x00000001 x10=0xc0004fe2
        1755000	       174	80003928	03e87b93	andi	x23,x16,62	 x16:0x730604e4 x23=0x00000024
        1765000	       175	8000392c	00005d97	auipc	x27,0x5	 x27=0x80008928
        1775000	       176	80003930	48fd8d93	addi	x27,x27,1167	 x27:0x80008928 x27=0x80008db7
        1785000	       177	80003934	008d8903	lb	x18,8(x27)	 x27:0x80008db7 x18=0x00000000 PA:0x80008dbf
        1795000	       178	80003938	fffd89a3	sb	x31,-13(x27)	 x27:0x80008db7 x31:0x00000000 PA:0x80008daa
        1805000	       179	8000393c	ff9d8b23	sb	x25,-10(x27)	 x27:0x80008db7 x25:0x00000000 PA:0x80008dad
        1815000	       180	80003940	009bcab3	xor	x21,x23,x9	 x23:0x00000024  x9:0x00000000 x21=0x00000024
        1825000	       181	80003944	01a117b3	sll	x15,x2,x26	  x2:0xa15e4cb0 x26:0xd8454a2b x15=0xf2658000
        1835000	       182	80003948	8a20d517	auipc	x10,0x8a20d	 x10=0x0a210944
        1845000	       183	8000394c	ff6dc603	lbu	x12,-10(x27)	 x27:0x80008db7 x12=0x00000000 PA:0x80008dad
        1855000	       184	80003950	851baa93	slti	x21,x23,-1967	 x23:0x00000024 x21=0x00000000
        1865000	       185	80003954	ff3d8903	lb	x18,-13(x27)	 x27:0x80008db7 x18=0x00000000 PA:0x80008daa
        1875000	       186	80003958	ffadc083	lbu	x1,-6(x27)	 x27:0x80008db7  x1=0x00000000 PA:0x80008db1
        1885000	       187	8000395c	feed8da3	sb	x14,-5(x27)	 x27:0x80008db7 x14:0xffff89b8 PA:0x80008db2
        1895000	       188	80003960	015da2a3	sw	x21,5(x27)	 x27:0x80008db7 x21:0x00000000 PA:0x80008dbc
        1905000	       189	80003964	41bb5e13	srai	x28,x22,0x1b	 x22:0x00000000 x28=0x00000000
        1915000	       190	80003968	3328f997	auipc	x19,0x3328f	 x19=0xb3292964
        1925000	       191	8000396c	00bd8683	lb	x13,11(x27)	 x27:0x80008db7 x13=0x00000000 PA:0x80008dc2
        1935000	       192	80003970	ffbd8b03	lb	x22,-5(x27)	 x27:0x80008db7 x22=0xffffffb8 PA:0x80008db2
        1945000	       193	80003974	001d90a3	sh	x1,1(x27)	 x27:0x80008db7  x1:0x00000000 PA:0x80008db8
        1955000	       194	80003978	01cd8223	sb	x28,4(x27)	 x27:0x80008db7 x28:0x00000000 PA:0x80008dbb
        1965000	       195	8000397c	97f78b93	addi	x23,x15,-1665	 x15:0xf2658000 x23=0xf265797f
        1975000	       196	80003980	d1516813	ori	x16,x2,-747	  x2:0xa15e4cb0 x16=0xfffffdb5
        1985000	       197	80003984	010237b3	sltu	x15,x4,x16	  x4:0x00000001 x16:0xfffffdb5 x15=0x00000001
        1995000	       198	80003988	006d8583	lb	x11,6(x27)	 x27:0x80008db7 x11=0x00000000 PA:0x80008dbd
        2005000	       199	8000398c	a34ff093	andi	x1,x31,-1484	 x31:0x00000000  x1=0x00000000
        2015000	       200	80003990	01ad8323	sb	x26,6(x27)	 x27:0x80008db7 x26:0xd8454a2b PA:0x80008dbd
        2025000	       201	80003994	ff3d8d23	sb	x19,-6(x27)	 x27:0x80008db7 x19:0xb3292964 PA:0x80008db1
        2035000	       202	80003998	006d8503	lb	x10,6(x27)	 x27:0x80008db7 x10=0x0000002b PA:0x80008dbd
        2045000	       203	8000399c	ff3d9003	lh	x0,-13(x27)	 x27:0x80008db7 PA:0x80008daa
        2055000	       204	800039a0	003c9233	sll	x4,x25,x3	 x25:0x00000000  x3:0x00000061  x4=0x00000000
        2065000	       205	800039a4	003d8083	lb	x1,3(x27)	 x27:0x80008db7  x1=0x00000000 PA:0x80008dba
        2075000	       206	800039a8	ffed8c23	sb	x30,-8(x27)	 x27:0x80008db7 x30:0x00000000 PA:0x80008daf
        2085000	       207	800039ac	00005097	auipc	x1,0x5	  x1=0x800089a8
        2095000	       208	800039b0	26f08093	addi	x1,x1,623	  x1:0x800089a8  x1=0x80008c17
        2105000	       209	800039b4	00b08f03	lb	x30,11(x1)	  x1:0x80008c17 x30=0x00000000 PA:0x80008c22
        2115000	       210	800039b8	00f65f13	srli	x30,x12,0xf	 x12:0x00000000 x30=0x00000000
        2125000	       211	800039bc	007c6f33	or	x30,x24,x7	 x24:0x80000957  x7:0x80009fc4 x30=0x80009fd7
        2135000	       212	800039c0	04008483	lb	x9,64(x1)	  x1:0x80008c17  x9=0x00000000 PA:0x80008c57
        2145000	       213	800039c4	01f08303	lb	x6,31(x1)	  x1:0x80008c17  x6=0x00000000 PA:0x80008c36
        2155000	       214	800039c8	1c520d93	addi	x27,x4,453	  x4:0x00000000 x27=0x000001c5
        2165000	       215	800039cc	0220a6a3	sw	x2,45(x1)	  x1:0x80008c17  x2:0xa15e4cb0 PA:0x80008c44
        2175000	       216	800039d0	02608103	lb	x2,38(x1)	  x1:0x80008c17  x2=0x00000000 PA:0x80008c3d
        2185000	       217	800039d4	03b0a0a3	sw	x27,33(x1)	  x1:0x80008c17 x27:0x000001c5 PA:0x80008c38
        2195000	       218	800039d8	005aedb3	or	x27,x21,x5	 x21:0x00000000  x5:0xf0ea5cbd x27=0xf0ea5cbd
        2205000	       219	800039dc	02408c23	sb	x4,56(x1)	  x1:0x80008c17  x4:0x00000000 PA:0x80008c4f
        2215000	       220	800039e0	0020c503	lbu	x10,2(x1)	  x1:0x80008c17 x10=0x00000000 PA:0x80008c19
        2225000	       221	800039e4	00635193	srli	x3,x6,0x6	  x6:0x00000000  x3=0x00000000
        2235000	       222	800039e8	fff084a3	sb	x31,-23(x1)	  x1:0x80008c17 x31:0x00000000 PA:0x80008c00
        2245000	       223	800039ec	ffc08683	lb	x13,-4(x1)	  x1:0x80008c17 x13=0x00000000 PA:0x80008c13
        2255000	       224	800039f0	ff709683	lh	x13,-9(x1)	  x1:0x80008c17 x13=0x00000000 PA:0x80008c0e
        2265000	       225	800039f4	0180c803	lbu	x16,24(x1)	  x1:0x80008c17 x16=0x00000000 PA:0x80008c2f
        2275000	       226	00000000	00000013	addi	x0,x0,0	  x0:0x00000000
        2285000	       227	800039f8	00481293	slli	x5,x16,0x4	 x16:0x00000000  x5=0x00000000
        2295000	       228	800039fc	000ae9b3	or	x19,x21,x0	 x21:0x00000000  x0:0x00000000 x19=0x00000000
        2305000	       229	80003a00	97288c13	addi	x24,x17,-1678	 x17:0xb0baf000 x24=0xb0bae972
        2315000	       230	80003a04	bdbd3c13	sltiu	x24,x26,-1061	 x26:0xd8454a2b x24=0x00000001
        2325000	       231	80003a08	27cc8d37	lui	x26,0x27cc8	 x26=0x27cc8000
        2335000	       232	80003a0c	03408323	sb	x20,38(x1)	  x1:0x80008c17 x20:0xa15e4cb0 PA:0x80008c3d
        2345000	       233	80003a10	018cde93	srli	x29,x25,0x18	 x25:0x00000000 x29=0x00000000
        2355000	       234	80003a14	01c09db3	sll	x27,x1,x28	  x1:0x80008c17 x28:0x00000000 x27=0x80008c17
        2365000	       235	80003a18	3f0e3c13	sltiu	x24,x28,1008	 x28:0x00000000 x24=0x00000001
        2375000	       236	80003a1c	00108b23	sb	x1,22(x1)	  x1:0x80008c17  x1:0x80008c17 PA:0x80008c2d
        2385000	       237	80003a20	fc308ea3	sb	x3,-35(x1)	  x1:0x80008c17  x3:0x00000000 PA:0x80008bf4
        2395000	       238	80003a24	00ab6d33	or	x26,x22,x10	 x22:0xffffffb8 x10:0x00000000 x26=0xffffffb8
        2405000	       239	80003a28	03f08183	lb	x3,63(x1)	  x1:0x80008c17  x3=0x00000000 PA:0x80008c56
        2415000	       240	80003a2c	00000013	addi	x0,x0,0	  x0:0x00000000
        2425000	       241	80003a30	01ebd7b3	srl	x15,x23,x30	 x23:0xf265797f x30:0x80009fd7 x15=0x000001e4
        2435000	       242	80003a34	38184917	auipc	x18,0x38184	 x18=0xb8187a30
        2445000	       243	80003a38	02308503	lb	x10,35(x1)	  x1:0x80008c17 x10=0x00000000 PA:0x80008c3a
        2455000	       244	80003a3c	ff30cf83	lbu	x31,-13(x1)	  x1:0x80008c17 x31=0x00000000 PA:0x80008c0a
        2465000	       245	80003a40	feb09f03	lh	x30,-21(x1)	  x1:0x80008c17 x30=0x00000000 PA:0x80008c02
        2475000	       246	80003a44	011a2133	slt	x2,x20,x17	 x20:0xa15e4cb0 x17:0xb0baf000  x2=0x00000001
        2485000	       247	80003a48	3b228e13	addi	x28,x5,946	  x5:0x00000000 x28=0x000003b2
        2495000	       248	80003a4c	0290a803	lw	x16,41(x1)	  x1:0x80008c17 x16=0x00000000 PA:0x80008c40
        2505000	       249	80003a50	fce09fa3	sh	x14,-33(x1)	  x1:0x80008c17 x14:0xffff89b8 PA:0x80008bf6
        2515000	       250	80003a54	00000013	addi	x0,x0,0	  x0:0x00000000
        2525000	       251	80003a58	01b8af33	slt	x30,x17,x27	 x17:0xb0baf000 x27:0x80008c17 x30=0x00000000
        2535000	       252	80003a5c	ffa0c803	lbu	x16,-6(x1)	  x1:0x80008c17 x16=0x00000000 PA:0x80008c11
        2545000	       253	80003a60	3b43e037	lui	x0,0x3b43e	
        2555000	       254	80003a64	fd10a183	lw	x3,-47(x1)	  x1:0x80008c17  x3=0x00000000 PA:0x80008be8
        2565000	       255	80003a68	ff30d983	lhu	x19,-13(x1)	  x1:0x80008c17 x19=0x00000000 PA:0x80008c0a
        2575000	       256	80003a6c	00c08ba3	sb	x12,23(x1)	  x1:0x80008c17 x12:0x00000000 PA:0x80008c2e
        2585000	       257	80003a70	00b081a3	sb	x11,3(x1)	  x1:0x80008c17 x11:0x00000000 PA:0x80008c1a
        2595000	       258	80003a74	9ef22d93	slti	x27,x4,-1553	  x4:0x00000000 x27=0x00000000
        2605000	       259	80003a78	74ee4613	xori	x12,x28,1870	 x28:0x000003b2 x12=0x000004fc
        2615000	       260	80003a7c	0049fbb3	and	x23,x19,x4	 x19:0x00000000  x4:0x00000000 x23=0x00000000
        2625000	       261	80003a80	fc7099a3	sh	x7,-45(x1)	  x1:0x80008c17  x7:0x80009fc4 PA:0x80008bea
        2635000	       262	80003a84	02c08603	lb	x12,44(x1)	  x1:0x80008c17 x12=0x00000000 PA:0x80008c43
        2645000	       263	80003a88	00000013	addi	x0,x0,0	  x0:0x00000000
        2655000	       264	80003a8c	ffc08b03	lb	x22,-4(x1)	  x1:0x80008c17 x22=0x00000000 PA:0x80008c13
        2665000	       265	80003a90	f93dd237	lui	x4,0xf93dd	  x4=0xf93dd000
        2675000	       266	80003a94	99457a93	andi	x21,x10,-1644	 x10:0x00000000 x21=0x00000000
        2685000	       267	80003a98	fff09803	lh	x16,-1(x1)	  x1:0x80008c17 x16=0x00000000 PA:0x80008c16
        2695000	       268	80003a9c	00005117	auipc	x2,0x5	  x2=0x80008a98
        2705000	       269	80003aa0	02310113	addi	x2,x2,35	  x2:0x80008a98  x2=0x80008abb
        2715000	       270	80003aa4	00000013	addi	x0,x0,0	  x0:0x00000000
        2725000	       271	80003aa8	01b114a3	sh	x27,9(x2)	  x2:0x80008abb x27:0x00000000 PA:0x80008ac4
        2735000	       272	80003aac	86463e93	sltiu	x29,x12,-1948	 x12:0x00000000 x29=0x00000001
        2745000	       273	80003ab0	407ddf13	srai	x30,x27,0x7	 x27:0x00000000 x30=0x00000000
        2755000	       274	80003ab4	06b1e917	auipc	x18,0x6b1e	 x18=0x86b21ab0
        2765000	       275	80003ab8	00c20933	add	x18,x4,x12	  x4:0xf93dd000 x12:0x00000000 x18=0xf93dd000
        2775000	       276	80003abc	fc611aa3	sh	x6,-43(x2)	  x2:0x80008abb  x6:0x00000000 PA:0x80008a90
        2785000	       277	80003ac0	1abbc093	xori	x1,x23,427	 x23:0x00000000  x1=0x000001ab
        2795000	       278	80003ac4	79f44817	auipc	x16,0x79f44	 x16=0xf9f47ac0
        2805000	       279	80003ac8	02d10623	sb	x13,44(x2)	  x2:0x80008abb x13:0x00000000 PA:0x80008ae7
        2815000	       280	80003acc	88dda8b7	lui	x17,0x88dda	 x17=0x88dda000
        2825000	       281	80003ad0	01cd2bb3	slt	x23,x26,x28	 x26:0xffffffb8 x28:0x000003b2 x23=0x00000001
        2835000	       282	80003ad4	03d10ba3	sb	x29,55(x2)	  x2:0x80008abb x29:0x00000001 PA:0x80008af2
        2845000	       283	80003ad8	ffe14a83	lbu	x21,-2(x2)	  x2:0x80008abb x21=0x00000000 PA:0x80008ab9
        2855000	       284	80003adc	00f11b83	lh	x23,15(x2)	  x2:0x80008abb x23=0x00000000 PA:0x80008aca
        2865000	       285	80003ae0	00000013	addi	x0,x0,0	  x0:0x00000000
        2875000	       286	80003ae4	1a4cab17	auipc	x22,0x1a4ca	 x22=0x9a4cdae0
        2885000	       287	80003ae8	00610983	lb	x19,6(x2)	  x2:0x80008abb x19=0x00000000 PA:0x80008ac1
        2895000	       288	80003aec	01c42233	slt	x4,x8,x28	  x8:0x80009ee8 x28:0x000003b2  x4=0x00000001
        2905000	       289	80003af0	01d88333	add	x6,x17,x29	 x17:0x88dda000 x29:0x00000001  x6=0x88dda001
        2915000	       290	80003af4	405fd5b3	sra	x11,x31,x5	 x31:0x00000000  x5:0x00000000 x11=0x00000000
        2925000	       291	80003af8	0177df33	srl	x30,x15,x23	 x15:0x000001e4 x23:0x00000000 x30=0x000001e4
        2935000	       292	80003afc	fff10323	sb	x31,-26(x2)	  x2:0x80008abb x31:0x00000000 PA:0x80008aa1
        2945000	       293	80003b00	41a5d8b3	sra	x17,x11,x26	 x11:0x00000000 x26:0xffffffb8 x17=0x00000000
        2955000	       294	80003b04	01f571b3	and	x3,x10,x31	 x10:0x00000000 x31:0x00000000  x3=0x00000000
        2965000	       295	80003b08	00ae04b3	add	x9,x28,x10	 x28:0x000003b2 x10:0x00000000  x9=0x000003b2
        2975000	       296	80003b0c	00969533	sll	x10,x13,x9	 x13:0x00000000  x9:0x000003b2 x10=0x00000000
        2985000	       297	80003b10	2483e593	ori	x11,x7,584	  x7:0x80009fc4 x11=0x80009fcc
        2995000	       298	80003b14	06293813	sltiu	x16,x18,98	 x18:0xf93dd000 x16=0x00000000
        3005000	       299	80003b18	9e3f3e37	lui	x28,0x9e3f3	 x28=0x9e3f3000
        3015000	       300	80003b1c	8e29e513	ori	x10,x19,-1822	 x19:0x00000000 x10=0xfffff8e2
        3025000	       301	80003b20	4ed63913	sltiu	x18,x12,1261	 x12:0x00000000 x18=0x00000001
        3035000	       302	80003b24	01e15293	srli	x5,x2,0x1e	  x2:0x80008abb  x5=0x00000002
        3045000	       303	80003b28	a2b34d93	xori	x27,x6,-1493	  x6:0x88dda001 x27=0x77225a2a
        3055000	       304	80003b2c	01210d03	lb	x26,18(x2)	  x2:0x80008abb x26=0x00000000 PA:0x80008acd
        3065000	       305	80003b30	00000013	addi	x0,x0,0	  x0:0x00000000
        3075000	       306	80003b34	01010203	lb	x4,16(x2)	  x2:0x80008abb  x4=0x00000000 PA:0x80008acb
        3085000	       307	80003b38	00ef10b3	sll	x1,x30,x14	 x30:0x000001e4 x14:0xffff89b8  x1=0xe4000000
        3095000	       308	80003b3c	ff4126a3	sw	x20,-19(x2)	  x2:0x80008abb x20:0xa15e4cb0 PA:0x80008aa8
        3105000	       309	80003b40	fd310e23	sb	x19,-36(x2)	  x2:0x80008abb x19:0x00000000 PA:0x80008a97
        3115000	       310	80003b44	fc010023	sb	x0,-64(x2)	  x2:0x80008abb  x0:0x00000000 PA:0x80008a7b
        3125000	       311	80003b48	00005d97	auipc	x27,0x5	 x27=0x80008b44
        3135000	       312	80003b4c	86bd8d93	addi	x27,x27,-1941	 x27:0x80008b44 x27=0x800083af
        3145000	       313	80003b50	fe0d97a3	sh	x0,-17(x27)	 x27:0x800083af  x0:0x00000000 PA:0x8000839e
        3155000	       314	80003b54	3af23593	sltiu	x11,x4,943	  x4:0x00000000 x11=0x00000001
        3165000	       315	80003b58	d2480c93	addi	x25,x16,-732	 x16:0x00000000 x25=0xfffffd24
        3175000	       316	80003b5c	a4d52b97	auipc	x23,0xa4d52	 x23=0x24d55b58
        3185000	       317	80003b60	000c6ab3	or	x21,x24,x0	 x24:0x00000001  x0:0x00000000 x21=0x00000001
        3195000	       318	80003b64	014d8123	sb	x20,2(x27)	 x27:0x800083af x20:0xa15e4cb0 PA:0x800083b1
        3205000	       319	80003b68	005da0a3	sw	x5,1(x27)	 x27:0x800083af  x5:0x00000002 PA:0x800083b0
        3215000	       320	80003b6c	029d9183	lh	x3,41(x27)	 x27:0x800083af  x3=0x00000000 PA:0x800083d8
        3225000	       321	80003b70	40ec0933	sub	x18,x24,x14	 x24:0x00000001 x14:0xffff89b8 x18=0x00007649
        3235000	       322	80003b74	fded8323	sb	x30,-58(x27)	 x27:0x800083af x30:0x000001e4 PA:0x80008375
        3245000	       323	80003b78	0171c2b3	xor	x5,x3,x23	  x3:0x00000000 x23:0x24d55b58  x5=0x24d55b58
        3255000	       324	80003b7c	00000013	addi	x0,x0,0	  x0:0x00000000
        3265000	       325	80003b80	fc8d8923	sb	x8,-46(x27)	 x27:0x800083af  x8:0x80009ee8 PA:0x80008381
        3275000	       326	80003b84	fedda583	lw	x11,-19(x27)	 x27:0x800083af x11=0x00000000 PA:0x8000839c
        3285000	       327	80003b88	fc5d8783	lb	x15,-59(x27)	 x27:0x800083af x15=0x00000000 PA:0x80008374
        3295000	       328	80003b8c	031dae83	lw	x29,49(x27)	 x27:0x800083af x29=0x00000000 PA:0x800083e0
        3305000	       329	80003b90	ff1dd103	lhu	x2,-15(x27)	 x27:0x800083af  x2=0x00000000 PA:0x800083a0
        3315000	       330	80003b94	fccd8423	sb	x12,-56(x27)	 x27:0x800083af x12:0x00000000 PA:0x80008377
        3325000	       331	80003b98	ff4d8203	lb	x4,-12(x27)	 x27:0x800083af  x4=0x00000000 PA:0x800083a3
        3335000	       332	80003b9c	fe3dc903	lbu	x18,-29(x27)	 x27:0x800083af x18=0x00000000 PA:0x80008392
        3345000	       333	80003ba0	3ba20193	addi	x3,x4,954	  x4:0x00000000  x3=0x000003ba
        3355000	       334	80003ba4	025d8283	lb	x5,37(x27)	 x27:0x800083af  x5=0x00000000 PA:0x800083d4
        3365000	       335	80003ba8	001dd003	lhu	x0,1(x27)	 x27:0x800083af PA:0x800083b0
        3375000	       336	80003bac	ff7ddc03	lhu	x24,-9(x27)	 x27:0x800083af x24=0x00000000 PA:0x800083a6
        3385000	       337	80003bb0	fd1d95a3	sh	x17,-53(x27)	 x27:0x800083af x17:0x00000000 PA:0x8000837a
        3395000	       338	80003bb4	03cda6a3	sw	x28,45(x27)	 x27:0x800083af x28:0x9e3f3000 PA:0x800083dc
        3405000	       339	80003bb8	fd5d9ea3	sh	x21,-35(x27)	 x27:0x800083af x21:0x00000001 PA:0x8000838c
        3415000	       340	80003bbc	01383833	sltu	x16,x16,x19	 x16:0x00000000 x19:0x00000000 x16=0x00000000
        3425000	       341	80003bc0	fc4d8523	sb	x4,-54(x27)	 x27:0x800083af  x4:0x00000000 PA:0x80008379
        3435000	       342	80003bc4	fe4d8203	lb	x4,-28(x27)	 x27:0x800083af  x4=0x00000000 PA:0x80008393
        3445000	       343	80003bc8	40f05e13	srai	x28,x0,0xf	  x0:0x00000000 x28=0x00000000
        3455000	       344	80003bcc	fc7dc583	lbu	x11,-57(x27)	 x27:0x800083af x11=0x00000000 PA:0x80008376
        3465000	       345	80003bd0	17584293	xori	x5,x16,373	 x16:0x00000000  x5=0x00000175
        3475000	       346	80003bd4	fd2dc203	lbu	x4,-46(x27)	 x27:0x800083af  x4=0x000000e8 PA:0x80008381
        3485000	       347	80003bd8	fc3dc183	lbu	x3,-61(x27)	 x27:0x800083af  x3=0x00000000 PA:0x80008372
        3495000	       348	80003bdc	032dcb83	lbu	x23,50(x27)	 x27:0x800083af x23=0x00000000 PA:0x800083e1
        3505000	       349	80003be0	ff9d8423	sb	x25,-24(x27)	 x27:0x800083af x25:0xfffffd24 PA:0x80008397
        3515000	       350	80003be4	fcbdd703	lhu	x14,-53(x27)	 x27:0x800083af x14=0x00000000 PA:0x8000837a
        3525000	       351	80003be8	00005117	auipc	x2,0x5	  x2=0x80008be4
        3535000	       352	80003bec	d4010113	addi	x2,x2,-704	  x2:0x80008be4  x2=0x80008924
        3545000	       353	80003bf0	24c00593	addi	x11,x0,588	  x0:0x00000000 x11=0x0000024c
        3555000	       354	80003bf4	00f10b83	lb	x23,15(x2)	  x2:0x80008924 x23=0x00000000 PA:0x80008933
        3565000	       355	80003bf8	01f106a3	sb	x31,13(x2)	  x2:0x80008924 x31:0x00000000 PA:0x80008931
        3575000	       356	80003bfc	5ac3fd93	andi	x27,x7,1452	  x7:0x80009fc4 x27=0x00000584
        3585000	       357	80003c00	42593c13	sltiu	x24,x18,1061	 x18:0x00000000 x24=0x00000001
        3595000	       358	80003c04	00000013	addi	x0,x0,0	  x0:0x00000000
        3605000	       359	80003c08	006f2233	slt	x4,x30,x6	 x30:0x000001e4  x6:0x88dda001  x4=0x00000000
        3615000	       360	80003c0c	00414083	lbu	x1,4(x2)	  x2:0x80008924  x1=0x00000000 PA:0x80008928
        3625000	       361	80003c10	fff10fa3	sb	x31,-1(x2)	  x2:0x80008924 x31:0x00000000 PA:0x80008923
        3635000	       362	80003c14	01a49493	slli	x9,x9,0x1a	  x9:0x000003b2  x9=0xc8000000
        3645000	       363	80003c18	ffd14b03	lbu	x22,-3(x2)	  x2:0x80008924 x22=0x00000000 PA:0x80008921
        3655000	       364	80003c1c	00114a83	lbu	x21,1(x2)	  x2:0x80008924 x21=0x00000000 PA:0x80008925
        3665000	       365	80003c20	01399e33	sll	x28,x19,x19	 x19:0x00000000 x19:0x00000000 x28=0x00000000
        3675000	       366	80003c24	00811d03	lh	x26,8(x2)	  x2:0x80008924 x26=0x00000000 PA:0x8000892c
        3685000	       367	80003c28	fe111d23	sh	x1,-6(x2)	  x2:0x80008924  x1:0x00000000 PA:0x8000891e
        3695000	       368	80003c2c	ff510ca3	sb	x21,-7(x2)	  x2:0x80008924 x21:0x00000000 PA:0x8000891d
        3705000	       369	80003c30	015100a3	sb	x21,1(x2)	  x2:0x80008924 x21:0x00000000 PA:0x80008925
        3715000	       370	80003c34	00914f03	lbu	x30,9(x2)	  x2:0x80008924 x30=0x00000000 PA:0x8000892d
        3725000	       371	80003c38	00a11723	sh	x10,14(x2)	  x2:0x80008924 x10:0xfffff8e2 PA:0x80008932
        3735000	       372	80003c3c	01e100a3	sb	x30,1(x2)	  x2:0x80008924 x30:0x00000000 PA:0x80008925
        3745000	       373	80003c40	ff010803	lb	x16,-16(x2)	  x2:0x80008924 x16=0x00000000 PA:0x80008914
        3755000	       374	80003c44	00214e83	lbu	x29,2(x2)	  x2:0x80008924 x29=0x00000000 PA:0x80008926
        3765000	       375	80003c48	bc872993	slti	x19,x14,-1080	 x14:0x00000000 x19=0x00000000
        3775000	       376	80003c4c	00a5d893	srli	x17,x11,0xa	 x11:0x0000024c x17=0x00000000
        3785000	       377	80003c50	00114783	lbu	x15,1(x2)	  x2:0x80008924 x15=0x00000000 PA:0x80008925
        3795000	       378	80003c54	00010083	lb	x1,0(x2)	  x2:0x80008924  x1=0x00000000 PA:0x80008924
        3805000	       379	80003c58	0576ab13	slti	x22,x13,87	 x13:0x00000000 x22=0x00000001
        3815000	       380	80003c5c	00d10583	lb	x11,13(x2)	  x2:0x80008924 x11=0x00000000 PA:0x80008931
        3825000	       381	80003c60	40de88b3	sub	x17,x29,x13	 x29:0x00000000 x13:0x00000000 x17=0x00000000
        3835000	       382	80003c64	ff215483	lhu	x9,-14(x2)	  x2:0x80008924  x9=0x00000000 PA:0x80008916
        3845000	       383	80003c68	00a10b83	lb	x23,10(x2)	  x2:0x80008924 x23=0x00000000 PA:0x8000892e
        3855000	       384	00000000	00000013	addi	x0,x0,0	  x0:0x00000000
        3865000	       385	80003c6c	ff710b03	lb	x22,-9(x2)	  x2:0x80008924 x22=0x00000000 PA:0x8000891b
        3875000	       386	80003c70	41470033	sub	x0,x14,x20	 x14:0x00000000 x20:0xa15e4cb0
        3885000	       387	80003c74	fef10ca3	sb	x15,-7(x2)	  x2:0x80008924 x15:0x00000000 PA:0x8000891d
        3895000	       388	80003c78	ff914983	lbu	x19,-7(x2)	  x2:0x80008924 x19=0x00000000 PA:0x8000891d
        3905000	       389	80003c7c	00c10423	sb	x12,8(x2)	  x2:0x80008924 x12:0x00000000 PA:0x8000892c
        3915000	       390	80003c80	ffc108a3	sb	x28,-15(x2)	  x2:0x80008924 x28:0x00000000 PA:0x80008915
        3925000	       391	80003c84	01091d13	slli	x26,x18,0x10	 x18:0x00000000 x26=0x00000000
        3935000	       392	80003c88	00381663	bne	x16,x3,80003c94	 x16:0x00000000  x3:0x00000000
        3945000	       393	80003c8c	01718263	beq	x3,x23,80003c90	  x3:0x00000000 x23:0x00000000
        3955000	       394	00000000	00000013	addi	x0,x0,0	  x0:0x00000000
        3965000	       395	80003c8c	00000013	addi	x0,x0,0	  x0:0x00000000
        3975000	       396	80003c90	01f400b3	add	x1,x8,x31	  x8:0x80009ee8 x31:0x00000000  x1=0x80009ee8
        3985000	       397	80003c94	9f46d897	auipc	x17,0x9f46d	 x17=0x1f470c90
        3995000	       398	80003c98	01d0f2b3	and	x5,x1,x29	  x1:0x80009ee8 x29:0x00000000  x5=0x00000000
        4005000	       399	80003c9c	41dade93	srai	x29,x21,0x1d	 x21:0x00000000 x29=0x00000000
        4015000	       400	80003ca0	011f5eb3	srl	x29,x30,x17	 x30:0x00000000 x17:0x1f470c90 x29=0x00000000
        4025000	       401	80003ca4	01095033	srl	x0,x18,x16	 x18:0x00000000 x16:0x00000000
        4035000	       402	80003ca8	00f30463	beq	x6,x15,80003cb0	  x6:0x88dda001 x15:0x00000000
        4045000	       403	80003cac	0102d263	bge	x5,x16,80003cb0	  x5:0x00000000 x16:0x00000000
        4055000	       404	00000000	00000013	addi	x0,x0,0	  x0:0x00000000
        4065000	       405	80003cac	00000013	addi	x0,x0,0	  x0:0x00000000
        4075000	       406	80003cb0	40e8dd93	srai	x27,x17,0xe	 x17:0x1f470c90 x27=0x00007d1c
        4085000	       407	80003cb4	018cd7b3	srl	x15,x25,x24	 x25:0xfffffd24 x24:0x00000001 x15=0x7ffffe92
        4095000	       408	80003cb8	01c4cc63	blt	x9,x28,80003cd0	  x9:0x00000000 x28:0x00000000
        4105000	       409	80003cbc	01cb41b3	xor	x3,x22,x28	 x22:0x00000000 x28:0x00000000  x3=0x00000000
        4115000	       410	80003cc0	3dcfa737	lui	x14,0x3dcfa	 x14=0x3dcfa000
        4125000	       411	80003cc4	001a1793	slli	x15,x20,0x1	 x20:0xa15e4cb0 x15=0x42bc9960
        4135000	       412	80003cc8	4014df13	srai	x30,x9,0x1	  x9:0x00000000 x30=0x00000000
        4145000	       413	80003ccc	cbc76193	ori	x3,x14,-836	 x14:0x3dcfa000  x3=0xfffffcbc
        4155000	       414	80003cd0	b552cc93	xori	x25,x5,-1195	  x5:0x00000000 x25=0xfffffb55
        4165000	       415	80003cd4	40c602b3	sub	x5,x12,x12	 x12:0x00000000 x12:0x00000000  x5=0x00000000
        4175000	       416	80003cd8	01150c63	beq	x10,x17,80003cf0	 x10:0xfffff8e2 x17:0x1f470c90
        4185000	       417	80003cdc	03ff4063	blt	x30,x31,80003cfc	 x30:0x00000000 x31:0x00000000
        4195000	       418	80003ce0	01241463	bne	x8,x18,80003ce8	  x8:0x80009ee8 x18:0x00000000
        4205000	       419	00000000	00000013	addi	x0,x0,0	  x0:0x00000000
        4215000	       420	80003ce4	00000013	addi	x0,x0,0	  x0:0x00000000
        4225000	       421	80003ce8	01a4fd33	and	x26,x9,x26	  x9:0x00000000 x26:0x00000000 x26=0x00000000
        4235000	       422	80003cec	41d75233	sra	x4,x14,x29	 x14:0x3dcfa000 x29:0x00000000  x4=0x3dcfa000
        4245000	       423	80003cf0	41e0de13	srai	x28,x1,0x1e	  x1:0x80009ee8 x28=0xfffffffe
        4255000	       424	80003cf4	002d94b3	sll	x9,x27,x2	 x27:0x00007d1c  x2:0x80008924  x9=0x0007d1c0
        4265000	       425	80003cf8	02151463	bne	x10,x1,80003d20	 x10:0xfffff8e2  x1:0x80009ee8
        4275000	       426	00000000	00000013	addi	x0,x0,0	  x0:0x00000000
        4285000	       427	80003d1c	00000013	addi	x0,x0,0	  x0:0x00000000
        4295000	       428	80003d20	00bd27b3	slt	x15,x26,x11	 x26:0x00000000 x11:0x00000000 x15=0x00000000
        4305000	       429	80003d24	68f48a93	addi	x21,x9,1679	  x9:0x0007d1c0 x21=0x0007d84f
        4315000	       430	80003d28	41562517	auipc	x10,0x41562	 x10=0xc1565d24
        4325000	       431	80003d2c	1d71a513	slti	x10,x3,471	  x3:0xfffffcbc x10=0x00000001
        4335000	       432	80003d30	019eebb3	or	x23,x29,x25	 x29:0x00000000 x25:0xfffffb55 x23=0xfffffb55
        4345000	       433	80003d34	00d5d0b3	srl	x1,x11,x13	 x11:0x00000000 x13:0x00000000  x1=0x00000000
        4355000	       434	80003d38	02726e63	bltu	x4,x7,80003d74	  x4:0x3dcfa000  x7:0x80009fc4
        4365000	       435	00000000	00000013	addi	x0,x0,0	  x0:0x00000000
        4375000	       436	80003d70	00000013	addi	x0,x0,0	  x0:0x00000000
        4385000	       437	80003d74	01cad513	srli	x10,x21,0x1c	 x21:0x0007d84f x10=0x00000000
        4395000	       438	80003d78	00318e33	add	x28,x3,x3	  x3:0xfffffcbc  x3:0xfffffcbc x28=0xfffff978
        4405000	       439	80003d7c	009142b3	xor	x5,x2,x9	  x2:0x80008924  x9:0x0007d1c0  x5=0x800758e4
        4415000	       440	80003d80	056c8863	beq	x25,x22,80003dd0	 x25:0xfffffb55 x22:0x00000000
        4425000	       441	80003d84	40fa5213	srai	x4,x20,0xf	 x20:0xa15e4cb0  x4=0xffff42bc
        4435000	       442	80003d88	41595f13	srai	x30,x18,0x15	 x18:0x00000000 x30=0x00000000
        4445000	       443	80003d8c	01189863	bne	x17,x17,80003d9c	 x17:0x1f470c90 x17:0x1f470c90
        4455000	       444	80003d90	e3913593	sltiu	x11,x2,-455	  x2:0x80008924 x11=0x00000001
        4465000	       445	80003d94	01869eb3	sll	x29,x13,x24	 x13:0x00000000 x24:0x00000001 x29=0x00000000
        4475000	       446	80003d98	401a88b3	sub	x17,x21,x1	 x21:0x0007d84f  x1:0x00000000 x17=0x0007d84f
        4485000	       447	80003d9c	02d41a63	bne	x8,x13,80003dd0	  x8:0x80009ee8 x13:0x00000000
        4495000	       448	00000000	00000013	addi	x0,x0,0	  x0:0x00000000
        4505000	       449	80003dcc	00000013	addi	x0,x0,0	  x0:0x00000000
        4515000	       450	80003dd0	03b74a63	blt	x14,x27,80003e04	 x14:0x3dcfa000 x27:0x00007d1c
        4525000	       451	80003dd4	9f8a0a93	addi	x21,x20,-1544	 x20:0xa15e4cb0 x21=0xa15e46a8
        4535000	       452	80003dd8	00000013	addi	x0,x0,0	  x0:0x00000000
        4545000	       453	80003ddc	03327a63	bgeu	x4,x19,80003e10	  x4:0xffff42bc x19:0x00000000
        4555000	       454	00000000	00000013	addi	x0,x0,0	  x0:0x00000000
        4565000	       455	80003e0c	00000013	addi	x0,x0,0	  x0:0x00000000
        4575000	       456	80003e10	0024c7b3	xor	x15,x9,x2	  x9:0x0007d1c0  x2:0x80008924 x15=0x800758e4
        4585000	       457	80003e14	01f1f863	bgeu	x3,x31,80003e24	  x3:0xfffffcbc x31:0x00000000
        4595000	       458	00000000	00000013	addi	x0,x0,0	  x0:0x00000000
        4605000	       459	80003e20	00000013	addi	x0,x0,0	  x0:0x00000000
        4615000	       460	80003e24	00000013	addi	x0,x0,0	  x0:0x00000000
        4625000	       461	80003e28	01771bb3	sll	x23,x14,x23	 x14:0x3dcfa000 x23:0xfffffb55 x23=0x00000000
        4635000	       462	80003e2c	41f35b93	srai	x23,x6,0x1f	  x6:0x88dda001 x23=0xffffffff
        4645000	       463	80003e30	01f76cb3	or	x25,x14,x31	 x14:0x3dcfa000 x31:0x00000000 x25=0x3dcfa000
        4655000	       464	80003e34	06a18e13	addi	x28,x3,106	  x3:0xfffffcbc x28=0xfffffd26
        4665000	       465	80003e38	03897463	bgeu	x18,x24,80003e60	 x18:0x00000000 x24:0x00000001
        4675000	       466	80003e3c	a09aec13	ori	x24,x21,-1527	 x21:0xa15e46a8 x24=0xfffffea9
        4685000	       467	80003e40	02827c63	bgeu	x4,x8,80003e78	  x4:0xffff42bc  x8:0x80009ee8
        4695000	       468	00000000	00000013	addi	x0,x0,0	  x0:0x00000000
        4705000	       469	80003e74	00000013	addi	x0,x0,0	  x0:0x00000000
        4715000	       470	80003e78	00016e63	bltu	x2,x0,80003e94	  x2:0x80008924  x0:0x00000000
        4725000	       471	80003e7c	00d78c63	beq	x15,x13,80003e94	 x15:0x800758e4 x13:0x00000000
        4735000	       472	80003e80	01b44a93	xori	x21,x8,27	  x8:0x80009ee8 x21=0x80009ef3
        4745000	       473	80003e84	009fe4b3	or	x9,x31,x9	 x31:0x00000000  x9:0x0007d1c0  x9=0x0007d1c0
        4755000	       474	80003e88	a6f9f613	andi	x12,x19,-1425	 x19:0x00000000 x12=0x00000000
        4765000	       475	80003e8c	01a0da93	srli	x21,x1,0x1a	  x1:0x00000000 x21=0x00000000
        4775000	       476	80003e90	01b31bb3	sll	x23,x6,x27	  x6:0x88dda001 x27:0x00007d1c x23=0x10000000
        4785000	       477	80003e94	0008c863	blt	x17,x0,80003ea4	 x17:0x0007d84f  x0:0x00000000
        4795000	       478	80003e98	01e16863	bltu	x2,x30,80003ea8	  x2:0x80008924 x30:0x00000000
        4805000	       479	80003e9c	53a2c913	xori	x18,x5,1338	  x5:0x800758e4 x18=0x80075dde
        4815000	       480	80003ea0	5b14c097	auipc	x1,0x5b14c	  x1=0xdb14fe9c
        4825000	       481	80003ea4	bce71897	auipc	x17,0xbce71	 x17=0x3ce74ea0
        4835000	       482	80003ea8	41a95533	sra	x10,x18,x26	 x18:0x80075dde x26:0x00000000 x10=0x80075dde
        4845000	       483	80003eac	00dbf9b3	and	x19,x23,x13	 x23:0x10000000 x13:0x00000000 x19=0x00000000
        4855000	       484	80003eb0	02b56063	bltu	x10,x11,80003ed0	 x10:0x80075dde x11:0x00000001
        4865000	       485	80003eb4	01367463	bgeu	x12,x19,80003ebc	 x12:0x00000000 x19:0x00000000
        4875000	       486	00000000	00000013	addi	x0,x0,0	  x0:0x00000000
        4885000	       487	80003eb8	00000013	addi	x0,x0,0	  x0:0x00000000
        4895000	       488	80003ebc	05fc1863	bne	x24,x31,80003f0c	 x24:0xfffffea9 x31:0x00000000
        4905000	       489	00000000	00000013	addi	x0,x0,0	  x0:0x00000000
        4915000	       490	80003f08	00000013	addi	x0,x0,0	  x0:0x00000000
        4925000	       491	80003f0c	40d95013	srai	x0,x18,0xd	 x18:0x80075dde
        4935000	       492	80003f10	a0572693	slti	x13,x14,-1531	 x14:0x3dcfa000 x13=0x00000000
        4945000	       493	80003f14	00000013	addi	x0,x0,0	  x0:0x00000000
        4955000	       494	80003f18	fef13d93	sltiu	x27,x2,-17	  x2:0x80008924 x27=0x00000001
        4965000	       495	80003f1c	015d7263	bgeu	x26,x21,80003f20	 x26:0x00000000 x21:0x00000000
        4975000	       496	00000000	00000013	addi	x0,x0,0	  x0:0x00000000
        4985000	       497	80003f1c	00000013	addi	x0,x0,0	  x0:0x00000000
        4995000	       498	80003f20	a41d2d93	slti	x27,x26,-1471	 x26:0x00000000 x27=0x00000000
        5005000	       499	80003f24	af20a813	slti	x16,x1,-1294	  x1:0xdb14fe9c x16=0x00000001
        5015000	       500	80003f28	03f44e63	blt	x8,x31,80003f64	  x8:0x80009ee8 x31:0x00000000
        5025000	       501	00000000	00000013	addi	x0,x0,0	  x0:0x00000000
        5035000	       502	80003f60	00000013	addi	x0,x0,0	  x0:0x00000000
        5045000	       503	80003f64	4177d0b3	sra	x1,x15,x23	 x15:0x800758e4 x23:0x10000000  x1=0x800758e4
        5055000	       504	80003f68	00c59933	sll	x18,x11,x12	 x11:0x00000001 x12:0x00000000 x18=0x00000001
        5065000	       505	80003f6c	e9bf6137	lui	x2,0xe9bf6	  x2=0xe9bf6000
        5075000	       506	80003f70	9318e9b7	lui	x19,0x9318e	 x19=0x9318e000
        5085000	       507	80003f74	0091beb3	sltu	x29,x3,x9	  x3:0xfffffcbc  x9:0x0007d1c0 x29=0x00000000
        5095000	       508	80003f78	01ec4bb3	xor	x23,x24,x30	 x24:0xfffffea9 x30:0x00000000 x23=0xfffffea9
        5105000	       509	80003f7c	01d9f663	bgeu	x19,x29,80003f88	 x19:0x9318e000 x29:0x00000000
        5115000	       510	00000000	00000013	addi	x0,x0,0	  x0:0x00000000
        5125000	       511	80003f84	00000013	addi	x0,x0,0	  x0:0x00000000
        5135000	       512	80003f88	00e06d33	or	x26,x0,x14	  x0:0x00000000 x14:0x3dcfa000 x26=0x3dcfa000
        5145000	       513	80003f8c	b0608d93	addi	x27,x1,-1274	  x1:0x800758e4 x27=0x800753ea
        5155000	       514	80003f90	00fd2cb3	slt	x25,x26,x15	 x26:0x3dcfa000 x15:0x800758e4 x25=0x00000000
        5165000	       515	80003f94	1ecbf8b7	lui	x17,0x1ecbf	 x17=0x1ecbf000
        5175000	       516	80003f98	017994b3	sll	x9,x19,x23	 x19:0x9318e000 x23:0xfffffea9  x9=0x31c00000
        5185000	       517	80003f9c	007d5d13	srli	x26,x26,0x7	 x26:0x3dcfa000 x26=0x007b9f40
        5195000	       518	80003fa0	01441c13	slli	x24,x8,0x14	  x8:0x80009ee8 x24=0xee800000
        5205000	       519	80003fa4	01139893	slli	x17,x7,0x11	  x7:0x80009fc4 x17=0x3f880000
        5215000	       520	80003fa8	01225213	srli	x4,x4,0x12	  x4:0xffff42bc  x4=0x00003fff
        5225000	       521	80003fac	00b888b3	add	x17,x17,x11	 x17:0x3f880000 x11:0x00000001 x17=0x3f880001
        5235000	       522	80003fb0	cc8f6d13	ori	x26,x30,-824	 x30:0x00000000 x26=0xfffffcc8
        5245000	       523	80003fb4	9a843113	sltiu	x2,x8,-1624	  x8:0x80009ee8  x2=0x00000001
        5255000	       524	80003fb8	bbd0b7b7	lui	x15,0xbbd0b	 x15=0xbbd0b000
        5265000	       525	80003fbc	01a8fab3	and	x21,x17,x26	 x17:0x3f880001 x26:0xfffffcc8 x21=0x3f880000
        5275000	       526	80003fc0	01ebc533	xor	x10,x23,x30	 x23:0xfffffea9 x30:0x00000000 x10=0xfffffea9
        5285000	       527	80003fc4	2b870113	addi	x2,x14,696	 x14:0x3dcfa000  x2=0x3dcfa2b8
        5295000	       528	80003fc8	f9db2b93	slti	x23,x22,-99	 x22:0x00000000 x23=0x00000000
        5305000	       529	80003fcc	00218e33	add	x28,x3,x2	  x3:0xfffffcbc  x2:0x3dcfa2b8 x28=0x3dcf9f74
        5315000	       530	80003fd0	00ac4c33	xor	x24,x24,x10	 x24:0xee800000 x10:0xfffffea9 x24=0x117ffea9
        5325000	       531	80003fd4	016bfab3	and	x21,x23,x22	 x23:0x00000000 x22:0x00000000 x21=0x00000000
        5335000	       532	80003fd8	004e6833	or	x16,x28,x4	 x28:0x3dcf9f74  x4:0x00003fff x16=0x3dcfbfff
        5345000	       533	80003fdc	897ea613	slti	x12,x29,-1897	 x29:0x00000000 x12=0x00000000
        5355000	       534	80003fe0	3a1ceb93	ori	x23,x25,929	 x25:0x00000000 x23=0x000003a1
        5365000	       535	80003fe4	e0a22db7	lui	x27,0xe0a22	 x27=0xe0a22000
        5375000	       536	80003fe8	00000013	addi	x0,x0,0	  x0:0x00000000
        5385000	       537	80003fec	017cd7b3	srl	x15,x25,x23	 x25:0x00000000 x23:0x000003a1 x15=0x00000000
        5395000	       538	80003ff0	00972fb3	slt	x31,x14,x9	 x14:0x3dcfa000  x9:0x31c00000 x31=0x00000000
        5405000	       539	80003ff4	036a5063	bge	x20,x22,80004014	 x20:0xa15e4cb0 x22:0x00000000
        5415000	       540	80003ff8	012951b3	srl	x3,x18,x18	 x18:0x00000001 x18:0x00000001  x3=0x00000000
        5425000	       541	80003ffc	31e4eb97	auipc	x23,0x31e4e	 x23=0xb1e51ff8
        5435000	       542	80004000	311a4b93	xori	x23,x20,785	 x20:0xa15e4cb0 x23=0xa15e4fa1
        5445000	       543	80004004	0085adb3	slt	x27,x11,x8	 x11:0x00000001  x8:0x80009ee8 x27=0x00000000
        5455000	       544	80004008	d7e57f37	lui	x30,0xd7e57	 x30=0xd7e57000
        5465000	       545	8000400c	00000013	addi	x0,x0,0	  x0:0x00000000
        5475000	       546	80004010	012782b3	add	x5,x15,x18	 x15:0x00000000 x18:0x00000001  x5=0x00000001
        5485000	       547	80004014	02705a63	bge	x0,x7,80004048	  x0:0x00000000  x7:0x80009fc4
        5495000	       548	00000000	00000013	addi	x0,x0,0	  x0:0x00000000
        5505000	       549	80004044	00000013	addi	x0,x0,0	  x0:0x00000000
        5515000	       550	80004048	00969233	sll	x4,x13,x9	 x13:0x00000000  x9:0x31c00000  x4=0x00000000
        5525000	       551	8000404c	008fedb3	or	x27,x31,x8	 x31:0x00000000  x8:0x80009ee8 x27=0x80009ee8
        5535000	       552	80004050	952e6493	ori	x9,x28,-1710	 x28:0x3dcf9f74  x9=0xffffff76
        5545000	       553	80004054	00b6db93	srli	x23,x13,0xb	 x13:0x00000000 x23=0x00000000
        5555000	       554	80004058	00467ab3	and	x21,x12,x4	 x12:0x00000000  x4:0x00000000 x21=0x00000000
        5565000	       555	8000405c	00938463	beq	x7,x9,80004064	  x7:0x80009fc4  x9:0xffffff76
        5575000	       556	80004060	407f5f33	sra	x30,x30,x7	 x30:0xd7e57000  x7:0x80009fc4 x30=0xfd7e5700
        5585000	       557	80004064	4c04a913	slti	x18,x9,1216	  x9:0xffffff76 x18=0x00000001
        5595000	       558	80004068	401d5893	srai	x17,x26,0x1	 x26:0xfffffcc8 x17=0xfffffe64
        5605000	       559	8000406c	00000013	addi	x0,x0,0	  x0:0x00000000
        5615000	       560	80004070	00000013	addi	x0,x0,0	  x0:0x00000000
        5625000	       561	80004074	02c9ee63	bltu	x19,x12,800040b0	 x19:0x9318e000 x12:0x00000000
        5635000	       562	80004078	9cabe813	ori	x16,x23,-1590	 x23:0x00000000 x16=0xfffff9ca
        5645000	       563	8000407c	ff5f5597	auipc	x11,0xff5f5	 x11=0x7f5f9078
        5655000	       564	80004080	412804b3	sub	x9,x16,x18	 x16:0xfffff9ca x18:0x00000001  x9=0xfffff9c9
        5665000	       565	80004084	910a9e17	auipc	x28,0x910a9	 x28=0x110ad080
        5675000	       566	80004088	00fa5993	srli	x19,x20,0xf	 x20:0xa15e4cb0 x19=0x000142bc
        5685000	       567	8000408c	01529d33	sll	x26,x5,x21	  x5:0x00000001 x21:0x00000000 x26=0x00000001
        5695000	       568	80004090	41135233	sra	x4,x6,x17	  x6:0x88dda001 x17:0xfffffe64  x4=0xf88dda00
        5705000	       569	80004094	c6f07113	andi	x2,x0,-913	  x0:0x00000000  x2=0x00000000
        5715000	       570	80004098	015a0b33	add	x22,x20,x21	 x20:0xa15e4cb0 x21:0x00000000 x22=0xa15e4cb0
        5725000	       571	8000409c	db984613	xori	x12,x16,-583	 x16:0xfffff9ca x12=0x00000473
        5735000	       572	800040a0	015beb33	or	x22,x23,x21	 x23:0x00000000 x21:0x00000000 x22=0x00000000
        5745000	       573	800040a4	c5d82193	slti	x3,x16,-931	 x16:0xfffff9ca  x3=0x00000001
        5755000	       574	800040a8	00264f33	xor	x30,x12,x2	 x12:0x00000473  x2:0x00000000 x30=0x00000473
        5765000	       575	800040ac	11079863	bne	x15,x16,800041bc	 x15:0x00000000 x16:0xfffff9ca
        5775000	       576	00000000	00000013	addi	x0,x0,0	  x0:0x00000000
        5785000	       577	800041b8	00000013	addi	x0,x0,0	  x0:0x00000000
        5795000	       578	800041bc	d46e0f13	addi	x30,x28,-698	 x28:0x110ad080 x30=0x110acdc6
        5805000	       579	800041c0	00e13b33	sltu	x22,x2,x14	  x2:0x00000000 x14:0x3dcfa000 x22=0x00000001
        5815000	       580	800041c4	03004463	blt	x0,x16,800041ec	  x0:0x00000000 x16:0xfffff9ca
        5825000	       581	800041c8	beb18913	addi	x18,x3,-1045	  x3:0x00000001 x18=0xfffffbec
        5835000	       582	800041cc	014e98b3	sll	x17,x29,x20	 x29:0x00000000 x20:0xa15e4cb0 x17=0x00000000
        5845000	       583	800041d0	01caacb3	slt	x25,x21,x28	 x21:0x00000000 x28:0x110ad080 x25=0x00000001
        5855000	       584	800041d4	0152b633	sltu	x12,x5,x21	  x5:0x00000001 x21:0x00000000 x12=0x00000000
        5865000	       585	800041d8	00184fb3	xor	x31,x16,x1	 x16:0xfffff9ca  x1:0x800758e4 x31=0x7ff8a12e
        5875000	       586	800041dc	89584d93	xori	x27,x16,-1899	 x16:0xfffff9ca x27=0x0000015f
        5885000	       587	800041e0	41620f33	sub	x30,x4,x22	  x4:0xf88dda00 x22:0x00000001 x30=0xf88dd9ff
        5895000	       588	800041e4	054c6063	bltu	x24,x20,80004224	 x24:0x117ffea9 x20:0xa15e4cb0
        5905000	       589	00000000	00000013	addi	x0,x0,0	  x0:0x00000000
        5915000	       590	80004220	00000013	addi	x0,x0,0	  x0:0x00000000
        5925000	       591	80004224	40ba59b3	sra	x19,x20,x11	 x20:0xa15e4cb0 x11:0x7f5f9078 x19=0xffffffa1
        5935000	       592	80004228	00479133	sll	x2,x15,x4	 x15:0x00000000  x4:0xf88dda00  x2=0x00000000
        5945000	       593	8000422c	57e76813	ori	x16,x14,1406	 x14:0x3dcfa000 x16=0x3dcfa57e
        5955000	       594	80004230	00f00ab3	add	x21,x0,x15	  x0:0x00000000 x15:0x00000000 x21=0x00000000
        5965000	       595	80004234	018c9293	slli	x5,x25,0x18	 x25:0x00000001  x5=0x01000000
        5975000	       596	80004238	01ad6463	bltu	x26,x26,80004240	 x26:0x00000001 x26:0x00000001
        5985000	       597	8000423c	4118de33	sra	x28,x17,x17	 x17:0x00000000 x17:0x00000000 x28=0x00000000
        5995000	       598	80004240	40225893	srai	x17,x4,0x2	  x4:0xf88dda00 x17=0xfe237680
        6005000	       599	80004244	017d0db3	add	x27,x26,x23	 x26:0x00000001 x23:0x00000000 x27=0x00000001
        6015000	       600	80004248	00309c13	slli	x24,x1,0x3	  x1:0x800758e4 x24=0x003ac720
        6025000	       601	8000424c	0258ee63	bltu	x17,x5,80004288	 x17:0xfe237680  x5:0x01000000
        6035000	       602	80004250	032ee063	bltu	x29,x18,80004270	 x29:0x00000000 x18:0xfffffbec
        6045000	       603	00000000	00000013	addi	x0,x0,0	  x0:0x00000000
        6055000	       604	8000426c	00000013	addi	x0,x0,0	  x0:0x00000000
        6065000	       605	80004270	c51fee93	ori	x29,x31,-943	 x31:0x7ff8a12e x29=0xfffffd7f
        6075000	       606	80004274	00c8e8b3	or	x17,x17,x12	 x17:0xfe237680 x12:0x00000000 x17=0xfe237680
        6085000	       607	80004278	0113a5b3	slt	x11,x7,x17	  x7:0x80009fc4 x17:0xfe237680 x11=0x00000001
        6095000	       608	8000427c	01066033	or	x0,x12,x16	 x12:0x00000000 x16:0x3dcfa57e
        6105000	       609	80004280	0420e863	bltu	x1,x2,800042d0	  x1:0x800758e4  x2:0x00000000
        6115000	       610	80004284	21a2a593	slti	x11,x5,538	  x5:0x01000000 x11=0x00000000
        6125000	       611	80004288	03bde063	bltu	x27,x27,800042a8	 x27:0x00000001 x27:0x00000001
        6135000	       612	8000428c	01e16533	or	x10,x2,x30	  x2:0x00000000 x30:0xf88dd9ff x10=0xf88dd9ff
        6145000	       613	80004290	f4878493	addi	x9,x15,-184	 x15:0x00000000  x9=0xffffff48
        6155000	       614	80004294	00000013	addi	x0,x0,0	  x0:0x00000000
        6165000	       615	80004298	010ce6b3	or	x13,x25,x16	 x25:0x00000001 x16:0x3dcfa57e x13=0x3dcfa57f
        6175000	       616	8000429c	00cd1293	slli	x5,x26,0xc	 x26:0x00000001  x5=0x00001000
        6185000	       617	800042a0	0127abb3	slt	x23,x15,x18	 x15:0x00000000 x18:0xfffffbec x23=0x00000000
        6195000	       618	800042a4	77cee513	ori	x10,x29,1916	 x29:0xfffffd7f x10=0xffffff7f
        6205000	       619	800042a8	00000013	addi	x0,x0,0	  x0:0x00000000
        6215000	       620	800042ac	00c196b3	sll	x13,x3,x12	  x3:0x00000001 x12:0x00000000 x13=0x00000001
        6225000	       621	800042b0	401b5933	sra	x18,x22,x1	 x22:0x00000001  x1:0x800758e4 x18=0x00000000
        6235000	       622	800042b4	0045e1b3	or	x3,x11,x4	 x11:0x00000000  x4:0xf88dda00  x3=0xf88dda00
        6245000	       623	800042b8	0193ad33	slt	x26,x7,x25	  x7:0x80009fc4 x25:0x00000001 x26=0x00000001
        6255000	       624	800042bc	00469e63	bne	x13,x4,800042d8	 x13:0x00000001  x4:0xf88dda00
        6265000	       625	00000000	00000013	addi	x0,x0,0	  x0:0x00000000
        6275000	       626	800042d4	00000013	addi	x0,x0,0	  x0:0x00000000
        6285000	       627	800042d8	01261193	slli	x3,x12,0x12	 x12:0x00000000  x3=0x00000000
        6295000	       628	800042dc	00c8cb33	xor	x22,x17,x12	 x17:0xfe237680 x12:0x00000000 x22=0xfe237680
        6305000	       629	800042e0	aeadab13	slti	x22,x27,-1302	 x27:0x00000001 x22=0x00000000
        6315000	       630	800042e4	00000013	addi	x0,x0,0	  x0:0x00000000
        6325000	       631	800042e8	00b22533	slt	x10,x4,x11	  x4:0xf88dda00 x11:0x00000000 x10=0x00000001
        6335000	       632	800042ec	0091eab3	or	x21,x3,x9	  x3:0x00000000  x9:0xffffff48 x21=0xffffff48
        6345000	       633	800042f0	ee1efb13	andi	x22,x29,-287	 x29:0xfffffd7f x22=0xfffffc61
        6355000	       634	800042f4	018f1213	slli	x4,x30,0x18	 x30:0xf88dd9ff  x4=0xff000000
        6365000	       635	800042f8	00ad0e33	add	x28,x26,x10	 x26:0x00000001 x10:0x00000001 x28=0x00000002
        6375000	       636	800042fc	014cdc13	srli	x24,x25,0x14	 x25:0x00000001 x24=0x00000000
        6385000	       637	80004300	40265f33	sra	x30,x12,x2	 x12:0x00000000  x2:0x00000000 x30=0x00000000
        6395000	       638	80004304	0388da63	bge	x17,x24,80004338	 x17:0xfe237680 x24:0x00000000
        6405000	       639	80004308	0162d113	srli	x2,x5,0x16	  x5:0x00001000  x2=0x00000000
        6415000	       640	8000430c	00630863	beq	x6,x6,8000431c	  x6:0x88dda001  x6:0x88dda001
        6425000	       641	00000000	00000013	addi	x0,x0,0	  x0:0x00000000
        6435000	       642	80004318	00000013	addi	x0,x0,0	  x0:0x00000000
        6445000	       643	8000431c	03b67463	bgeu	x12,x27,80004344	 x12:0x00000000 x27:0x00000001
        6455000	       644	80004320	6e958f93	addi	x31,x11,1769	 x11:0x00000000 x31=0x000006e9
        6465000	       645	80004324	5288cf93	xori	x31,x17,1320	 x17:0xfe237680 x31=0xfe2373a8
        6475000	       646	80004328	41d5d933	sra	x18,x11,x29	 x11:0x00000000 x29:0xfffffd7f x18=0x00000000
        6485000	       647	8000432c	043e0063	beq	x28,x3,8000436c	 x28:0x00000002  x3:0x00000000
        6495000	       648	80004330	40395cb3	sra	x25,x18,x3	 x18:0x00000000  x3:0x00000000 x25=0x00000000
        6505000	       649	80004334	00441213	slli	x4,x8,0x4	  x8:0x80009ee8  x4=0x0009ee80
        6515000	       650	80004338	00000013	addi	x0,x0,0	  x0:0x00000000
        6525000	       651	8000433c	01c28db3	add	x27,x5,x28	  x5:0x00001000 x28:0x00000002 x27=0x00001002
        6535000	       652	80004340	00f966b3	or	x13,x18,x15	 x18:0x00000000 x15:0x00000000 x13=0x00000000
        6545000	       653	80004344	00a8a733	slt	x14,x17,x10	 x17:0xfe237680 x10:0x00000001 x14=0x00000001
        6555000	       654	80004348	01ccbeb3	sltu	x29,x25,x28	 x25:0x00000000 x28:0x00000002 x29=0x00000001
        6565000	       655	8000434c	032a0063	beq	x20,x18,8000436c	 x20:0xa15e4cb0 x18:0x00000000
        6575000	       656	80004350	01179463	bne	x15,x17,80004358	 x15:0x00000000 x17:0xfe237680
        6585000	       657	00000000	00000013	addi	x0,x0,0	  x0:0x00000000
        6595000	       658	80004354	00000013	addi	x0,x0,0	  x0:0x00000000
        6605000	       659	80004358	d343cd93	xori	x27,x7,-716	  x7:0x80009fc4 x27=0x7fff62f0
        6615000	       660	8000435c	11667193	andi	x3,x12,278	 x12:0x00000000  x3=0x00000000
        6625000	       661	80004360	400cd133	sra	x2,x25,x0	 x25:0x00000000  x0:0x00000000  x2=0x00000000
        6635000	       662	80004364	40765093	srai	x1,x12,0x7	 x12:0x00000000  x1=0x00000000
        6645000	       663	80004368	00b01463	bne	x0,x11,80004370	  x0:0x00000000 x11:0x00000000
        6655000	       664	8000436c	01cf7b33	and	x22,x30,x28	 x30:0x00000000 x28:0x00000002 x22=0x00000000
        6665000	       665	80004370	03a68c63	beq	x13,x26,800043a8	 x13:0x00000000 x26:0x00000001
        6675000	       666	80004374	01f3b6b3	sltu	x13,x7,x31	  x7:0x80009fc4 x31:0xfe2373a8 x13=0x00000001
        6685000	       667	80004378	626ec793	xori	x15,x29,1574	 x29:0x00000001 x15=0x00000627
        6695000	       668	8000437c	b425a093	slti	x1,x11,-1214	 x11:0x00000000  x1=0x00000000
        6705000	       669	80004380	a8122913	slti	x18,x4,-1407	  x4:0x0009ee80 x18=0x00000000
        6715000	       670	80004384	01938933	add	x18,x7,x25	  x7:0x80009fc4 x25:0x00000000 x18=0x80009fc4
        6725000	       671	80004388	40e3d913	srai	x18,x7,0xe	  x7:0x80009fc4 x18=0xfffe0002
        6735000	       672	8000438c	727d2e13	slti	x28,x26,1831	 x26:0x00000001 x28=0x00000001
        6745000	       673	80004390	41ed5513	srai	x10,x26,0x1e	 x26:0x00000001 x10=0x00000000
        6755000	       674	80004394	84d2a593	slti	x11,x5,-1971	  x5:0x00001000 x11=0x00000000
        6765000	       675	80004398	00420c63	beq	x4,x4,800043b0	  x4:0x0009ee80  x4:0x0009ee80
        6775000	       676	00000000	00000013	addi	x0,x0,0	  x0:0x00000000
        6785000	       677	800043ac	00000013	addi	x0,x0,0	  x0:0x00000000
        6795000	       678	800043b0	00000013	addi	x0,x0,0	  x0:0x00000000
        6805000	       679	800043b4	aa13e893	ori	x17,x7,-1375	  x7:0x80009fc4 x17=0xffffffe5
        6815000	       680	800043b8	017cefb3	or	x31,x25,x23	 x25:0x00000000 x23:0x00000000 x31=0x00000000
        6825000	       681	800043bc	39e40c13	addi	x24,x8,926	  x8:0x80009ee8 x24=0x8000a286
        6835000	       682	800043c0	c1b52d93	slti	x27,x10,-997	 x10:0x00000000 x27=0x00000000
        6845000	       683	800043c4	014fd5b3	srl	x11,x31,x20	 x31:0x00000000 x20:0xa15e4cb0 x11=0x00000000
        6855000	       684	800043c8	21832c13	slti	x24,x6,536	  x6:0x88dda001 x24=0x00000001
        6865000	       685	800043cc	01acc1b3	xor	x3,x25,x26	 x25:0x00000000 x26:0x00000001  x3=0x00000001
        6875000	       686	800043d0	41dc5913	srai	x18,x24,0x1d	 x24:0x00000001 x18=0x00000000
        6885000	       687	800043d4	01765893	srli	x17,x12,0x17	 x12:0x00000000 x17=0x00000000
        6895000	       688	800043d8	40eed713	srai	x14,x29,0xe	 x29:0x00000001 x14=0x00000000
        6905000	       689	800043dc	ab52fb13	andi	x22,x5,-1355	  x5:0x00001000 x22=0x00001000
        6915000	       690	800043e0	01d317b3	sll	x15,x6,x29	  x6:0x88dda001 x29:0x00000001 x15=0x11bb4002
        6925000	       691	800043e4	000c3ab3	sltu	x21,x24,x0	 x24:0x00000001  x0:0x00000000 x21=0x00000000
        6935000	       692	800043e8	011e0533	add	x10,x28,x17	 x28:0x00000001 x17:0x00000000 x10=0x00000001
        6945000	       693	800043ec	90fbfd93	andi	x27,x23,-1777	 x23:0x00000000 x27=0x00000000
        6955000	       694	800043f0	02e56a63	bltu	x10,x14,80004424	 x10:0x00000001 x14:0x00000000
        6965000	       695	800043f4	0b3d2013	slti	x0,x26,179	 x26:0x00000001
        6975000	       696	800043f8	01118263	beq	x3,x17,800043fc	  x3:0x00000001 x17:0x00000000
        6985000	       697	800043fc	404d5d33	sra	x26,x26,x4	 x26:0x00000001  x4:0x0009ee80 x26=0x00000001
        6995000	       698	80004400	c9fe2537	lui	x10,0xc9fe2	 x10=0xc9fe2000
        7005000	       699	80004404	402d8333	sub	x6,x27,x2	 x27:0x00000000  x2:0x00000000  x6=0x00000000
        7015000	       700	80004408	01943db3	sltu	x27,x8,x25	  x8:0x80009ee8 x25:0x00000000 x27=0x00000000
        7025000	       701	8000440c	019a1f93	slli	x31,x20,0x19	 x20:0xa15e4cb0 x31=0x60000000
        7035000	       702	80004410	001be863	bltu	x23,x1,80004420	 x23:0x00000000  x1:0x00000000
        7045000	       703	80004414	01ec1813	slli	x16,x24,0x1e	 x24:0x00000001 x16=0x40000000
        7055000	       704	80004418	0218c463	blt	x17,x1,80004440	 x17:0x00000000  x1:0x00000000
        7065000	       705	8000441c	017e78b3	and	x17,x28,x23	 x28:0x00000001 x23:0x00000000 x17=0x00000000
        7075000	       706	80004420	04c51063	bne	x10,x12,80004460	 x10:0xc9fe2000 x12:0x00000000
        7085000	       707	00000000	00000013	addi	x0,x0,0	  x0:0x00000000
        7095000	       708	8000445c	00000013	addi	x0,x0,0	  x0:0x00000000
        7105000	       709	80004460	92cacd93	xori	x27,x21,-1748	 x21:0x00000000 x27=0xfffff92c
        7115000	       710	80004464	41180eb3	sub	x29,x16,x17	 x16:0x40000000 x17:0x00000000 x29=0x40000000
        7125000	       711	80004468	40ccd493	srai	x9,x25,0xc	 x25:0x00000000  x9=0x00000000
        7135000	       712	8000446c	015c9113	slli	x2,x25,0x15	 x25:0x00000000  x2=0x00000000
        7145000	       713	80004470	0080fc33	and	x24,x1,x8	  x1:0x00000000  x8:0x80009ee8 x24=0x00000000
        7155000	       714	80004474	01d42033	slt	x0,x8,x29	  x8:0x80009ee8 x29:0x40000000
        7165000	       715	80004478	400384b3	sub	x9,x7,x0	  x7:0x80009fc4  x0:0x00000000  x9=0x80009fc4
        7175000	       716	8000447c	401389b3	sub	x19,x7,x1	  x7:0x80009fc4  x1:0x00000000 x19=0x80009fc4
        7185000	       717	80004480	00c9abb3	slt	x23,x19,x12	 x19:0x80009fc4 x12:0x00000000 x23=0x00000001
        7195000	       718	80004484	009d9f13	slli	x30,x27,0x9	 x27:0xfffff92c x30=0xfff25800
        7205000	       719	80004488	8ee73e93	sltiu	x29,x14,-1810	 x14:0x00000000 x29=0x00000001
        7215000	       720	8000448c	03384463	blt	x16,x19,800044b4	 x16:0x40000000 x19:0x80009fc4
        7225000	       721	80004490	0143a033	slt	x0,x7,x20	  x7:0x80009fc4 x20:0xa15e4cb0
        7235000	       722	80004494	40908533	sub	x10,x1,x9	  x1:0x00000000  x9:0x80009fc4 x10=0x7fff603c
        7245000	       723	80004498	ac712993	slti	x19,x2,-1337	  x2:0x00000000 x19=0x00000000
        7255000	       724	8000449c	01c50933	add	x18,x10,x28	 x10:0x7fff603c x28:0x00000001 x18=0x7fff603d
        7265000	       725	800044a0	00cedf13	srli	x30,x29,0xc	 x29:0x00000001 x30=0x00000000
        7275000	       726	800044a4	00d162b3	or	x5,x2,x13	  x2:0x00000000 x13:0x00000001  x5=0x00000001
        7285000	       727	800044a8	00ce5863	bge	x28,x12,800044b8	 x28:0x00000001 x12:0x00000000
        7295000	       728	00000000	00000013	addi	x0,x0,0	  x0:0x00000000
        7305000	       729	800044b4	00000013	addi	x0,x0,0	  x0:0x00000000
        7315000	       730	800044b8	415d0fb3	sub	x31,x26,x21	 x26:0x00000001 x21:0x00000000 x31=0x00000001
        7325000	       731	800044bc	00000013	addi	x0,x0,0	  x0:0x00000000
        7335000	       732	800044c0	40500fb3	sub	x31,x0,x5	  x0:0x00000000  x5:0x00000001 x31=0xffffffff
        7345000	       733	800044c4	018928b3	slt	x17,x18,x24	 x18:0x7fff603d x24:0x00000000 x17=0x00000000
        7355000	       734	800044c8	84f74493	xori	x9,x14,-1969	 x14:0x00000000  x9=0xfffff84f
        7365000	       735	800044cc	2d3e3b13	sltiu	x22,x28,723	 x28:0x00000001 x22=0x00000001
        7375000	       736	800044d0	76107813	andi	x16,x0,1889	  x0:0x00000000 x16=0x00000000
        7385000	       737	800044d4	0c70c913	xori	x18,x1,199	  x1:0x00000000 x18=0x000000c7
        7395000	       738	800044d8	40c55cb3	sra	x25,x10,x12	 x10:0x7fff603c x12:0x00000000 x25=0x7fff603c
        7405000	       739	800044dc	752a0693	addi	x13,x20,1874	 x20:0xa15e4cb0 x13=0xa15e5402
        7415000	       740	800044e0	d2ba9ab7	lui	x21,0xd2ba9	 x21=0xd2ba9000
        7425000	       741	800044e4	00c4e263	bltu	x9,x12,800044e8	  x9:0xfffff84f x12:0x00000000
        7435000	       742	800044e8	021e5a63	bge	x28,x1,8000451c	 x28:0x00000001  x1:0x00000000
        7445000	       743	00000000	00000013	addi	x0,x0,0	  x0:0x00000000
        7455000	       744	80004518	00000013	addi	x0,x0,0	  x0:0x00000000
        7465000	       745	8000451c	409204b3	sub	x9,x4,x9	  x4:0x0009ee80  x9:0xfffff84f  x9=0x0009f631
        7475000	       746	80004520	97266d93	ori	x27,x12,-1678	 x12:0x00000000 x27=0xfffff972
        7485000	       747	80004524	002e6bb3	or	x23,x28,x2	 x28:0x00000001  x2:0x00000000 x23=0x00000001
        7495000	       748	80004528	5f098313	addi	x6,x19,1520	 x19:0x00000000  x6=0x000005f0
        7505000	       749	8000452c	d270b493	sltiu	x9,x1,-729	  x1:0x00000000  x9=0x00000001
        7515000	       750	80004530	d3404d93	xori	x27,x0,-716	  x0:0x00000000 x27=0xfffffd34
        7525000	       751	80004534	56bb7797	auipc	x15,0x56bb7	 x15=0xd6bbb530
        7535000	       752	80004538	01cfd7b3	srl	x15,x31,x28	 x31:0xffffffff x28:0x00000001 x15=0x7fffffff
        7545000	       753	8000453c	4133d613	srai	x12,x7,0x13	  x7:0x80009fc4 x12=0xfffff000
        7555000	       754	80004540	62d8b293	sltiu	x5,x17,1581	 x17:0x00000000  x5=0x00000001
        7565000	       755	80004544	02aafc63	bgeu	x21,x10,8000457c	 x21:0xd2ba9000 x10:0x7fff603c
        7575000	       756	00000000	00000013	addi	x0,x0,0	  x0:0x00000000
        7585000	       757	80004578	00000013	addi	x0,x0,0	  x0:0x00000000
        7595000	       758	8000457c	01741613	slli	x12,x8,0x17	  x8:0x80009ee8 x12=0x74000000
        7605000	       759	80004580	00cef1b3	and	x3,x29,x12	 x29:0x00000001 x12:0x74000000  x3=0x00000000
        7615000	       760	80004584	41535333	sra	x6,x6,x21	  x6:0x000005f0 x21:0xd2ba9000  x6=0x000005f0
        7625000	       761	80004588	199e2813	slti	x16,x28,409	 x28:0x00000001 x16=0x00000001
        7635000	       762	8000458c	00431263	bne	x6,x4,80004590	  x6:0x000005f0  x4:0x0009ee80
        7645000	       763	00000000	00000013	addi	x0,x0,0	  x0:0x00000000
        7655000	       764	8000458c	00000013	addi	x0,x0,0	  x0:0x00000000
        7665000	       765	80004590	7063c193	xori	x3,x7,1798	  x7:0x80009fc4  x3=0x800098c2
        7675000	       766	80004594	02f28063	beq	x5,x15,800045b4	  x5:0x00000001 x15:0x7fffffff
        7685000	       767	80004598	0197a1b3	slt	x3,x15,x25	 x15:0x7fffffff x25:0x7fff603c  x3=0x00000000
        7695000	       768	8000459c	006d3933	sltu	x18,x26,x6	 x26:0x00000001  x6:0x000005f0 x18=0x00000001
        7705000	       769	800045a0	e5794013	xori	x0,x18,-425	 x18:0x00000001
        7715000	       770	800045a4	0260f063	bgeu	x1,x6,800045c4	  x1:0x00000000  x6:0x000005f0
        7725000	       771	800045a8	933cf293	andi	x5,x25,-1741	 x25:0x7fff603c  x5=0x7fff6030
        7735000	       772	800045ac	409c80b3	sub	x1,x25,x9	 x25:0x7fff603c  x9:0x00000001  x1=0x7fff603b
        7745000	       773	800045b0	d2824913	xori	x18,x4,-728	  x4:0x0009ee80 x18=0xfff613a8
        7755000	       774	800045b4	401288b3	sub	x17,x5,x1	  x5:0x7fff6030  x1:0x7fff603b x17=0xfffffff5
        7765000	       775	800045b8	05276063	bltu	x14,x18,800045f8	 x14:0x00000000 x18:0xfff613a8
        7775000	       776	00000000	00000013	addi	x0,x0,0	  x0:0x00000000
        7785000	       777	800045f4	00000013	addi	x0,x0,0	  x0:0x00000000
        7795000	       778	800045f8	03954e63	blt	x10,x25,80004634	 x10:0x7fff603c x25:0x7fff603c
        7805000	       779	800045fc	41a787b3	sub	x15,x15,x26	 x15:0x7fffffff x26:0x00000001 x15=0x7ffffffe
        7815000	       780	80004600	01c15ab3	srl	x21,x2,x28	  x2:0x00000000 x28:0x00000001 x21=0x00000000
        7825000	       781	80004604	01ff64b3	or	x9,x30,x31	 x30:0x00000000 x31:0xffffffff  x9=0xffffffff
        7835000	       782	80004608	00659233	sll	x4,x11,x6	 x11:0x00000000  x6:0x000005f0  x4=0x00000000
        7845000	       783	8000460c	005b6633	or	x12,x22,x5	 x22:0x00000001  x5:0x7fff6030 x12=0x7fff6031
        7855000	       784	80004610	011246b3	xor	x13,x4,x17	  x4:0x00000000 x17:0xfffffff5 x13=0xfffffff5
        7865000	       785	80004614	04e16863	bltu	x2,x14,80004664	  x2:0x00000000 x14:0x00000000
        7875000	       786	80004618	01030fb3	add	x31,x6,x16	  x6:0x000005f0 x16:0x00000001 x31=0x000005f1
        7885000	       787	8000461c	00a93cb3	sltu	x25,x18,x10	 x18:0xfff613a8 x10:0x7fff603c x25=0x00000000
        7895000	       788	80004620	55b06113	ori	x2,x0,1371	  x0:0x00000000  x2=0x0000055b
        7905000	       789	80004624	0151f1b3	and	x3,x3,x21	  x3:0x00000000 x21:0x00000000  x3=0x00000000
        7915000	       790	80004628	00677c63	bgeu	x14,x6,80004640	 x14:0x00000000  x6:0x000005f0
        7925000	       791	8000462c	e28e4317	auipc	x6,0xe28e4	  x6=0x628e8628
        7935000	       792	80004630	00b24e63	blt	x4,x11,8000464c	  x4:0x00000000 x11:0x00000000
        7945000	       793	80004634	05570063	beq	x14,x21,80004674	 x14:0x00000000 x21:0x00000000
        7955000	       794	00000000	00000013	addi	x0,x0,0	  x0:0x00000000
        7965000	       795	80004670	00000013	addi	x0,x0,0	  x0:0x00000000
        7975000	       796	80004674	001654b3	srl	x9,x12,x1	 x12:0x7fff6031  x1:0x7fff603b  x9=0x0000000f
        7985000	       797	80004678	00f4bab3	sltu	x21,x9,x15	  x9:0x0000000f x15:0x7ffffffe x21=0x00000001
        7995000	       798	8000467c	03378c63	beq	x15,x19,800046b4	 x15:0x7ffffffe x19:0x00000000
        8005000	       799	80004680	409257b3	sra	x15,x4,x9	  x4:0x00000000  x9:0x0000000f x15=0x00000000
        8015000	       800	80004684	8c13e197	auipc	x3,0x8c13e	  x3=0x0c142680
        8025000	       801	80004688	0151d1b3	srl	x3,x3,x21	  x3:0x0c142680 x21:0x00000001  x3=0x060a1340
        8035000	       802	8000468c	0199d513	srli	x10,x19,0x19	 x19:0x00000000 x10=0x00000000
        8045000	       803	80004690	a9992d17	auipc	x26,0xa9992	 x26=0x2999668c
        8055000	       804	80004694	72d544b7	lui	x9,0x72d54	  x9=0x72d54000
        8065000	       805	80004698	4020dcb3	sra	x25,x1,x2	  x1:0x7fff603b  x2:0x0000055b x25=0x0000000f
        8075000	       806	8000469c	012e5793	srli	x15,x28,0x12	 x28:0x00000001 x15=0x00000000
        8085000	       807	800046a0	00000013	addi	x0,x0,0	  x0:0x00000000
        8095000	       808	800046a4	59686c93	ori	x25,x16,1430	 x16:0x00000001 x25=0x00000597
        8105000	       809	800046a8	1898a893	slti	x17,x17,393	 x17:0xfffffff5 x17=0x00000001
        8115000	       810	800046ac	19592013	slti	x0,x18,405	 x18:0xfff613a8
        8125000	       811	800046b0	00000013	addi	x0,x0,0	  x0:0x00000000
        8135000	       812	800046b4	018b8663	beq	x23,x24,800046c0	 x23:0x00000001 x24:0x00000000
        8145000	       813	800046b8	01410463	beq	x2,x20,800046c0	  x2:0x0000055b x20:0xa15e4cb0
        8155000	       814	800046bc	07a8ce13	xori	x28,x17,122	 x17:0x00000001 x28=0x0000007b
        8165000	       815	800046c0	00ca6263	bltu	x20,x12,800046c4	 x20:0xa15e4cb0 x12:0x7fff6031
        8175000	       816	800046c4	03a7da63	bge	x15,x26,800046f8	 x15:0x00000000 x26:0x2999668c
        8185000	       817	800046c8	c3472737	lui	x14,0xc3472	 x14=0xc3472000
        8195000	       818	800046cc	dd628e93	addi	x29,x5,-554	  x5:0x7fff6030 x29=0x7fff5e06
        8205000	       819	800046d0	00b02b33	slt	x22,x0,x11	  x0:0x00000000 x11:0x00000000 x22=0x00000000
        8215000	       820	800046d4	9284b913	sltiu	x18,x9,-1752	  x9:0x72d54000 x18=0x00000001
        8225000	       821	800046d8	03268e93	addi	x29,x13,50	 x13:0xfffffff5 x29=0x00000027
        8235000	       822	800046dc	0103c863	blt	x7,x16,800046ec	  x7:0x80009fc4 x16:0x00000001
        8245000	       823	00000000	00000013	addi	x0,x0,0	  x0:0x00000000
        8255000	       824	800046e8	00000013	addi	x0,x0,0	  x0:0x00000000
        8265000	       825	800046ec	00000013	addi	x0,x0,0	  x0:0x00000000
        8275000	       826	800046f0	40d68b33	sub	x22,x13,x13	 x13:0xfffffff5 x13:0xfffffff5 x22=0x00000000
        8285000	       827	800046f4	01e6f033	and	x0,x13,x30	 x13:0xfffffff5 x30:0x00000000
        8295000	       828	800046f8	d760b197	auipc	x3,0xd760b	  x3=0x5760f6f4
        8305000	       829	800046fc	025f0a63	beq	x30,x5,80004730	 x30:0x00000000  x5:0x7fff6030
        8315000	       830	80004700	00cd0263	beq	x26,x12,80004704	 x26:0x2999668c x12:0x7fff6031
        8325000	       831	80004704	02885463	bge	x16,x8,8000472c	 x16:0x00000001  x8:0x80009ee8
        8335000	       832	00000000	00000013	addi	x0,x0,0	  x0:0x00000000
        8345000	       833	80004728	00000013	addi	x0,x0,0	  x0:0x00000000
        8355000	       834	8000472c	00814f33	xor	x30,x2,x8	  x2:0x0000055b  x8:0x80009ee8 x30=0x80009bb3
        8365000	       835	80004730	00163533	sltu	x10,x12,x1	 x12:0x7fff6031  x1:0x7fff603b x10=0x00000001
        8375000	       836	80004734	67d291b7	lui	x3,0x67d29	  x3=0x67d29000
        8385000	       837	80004738	00a31c63	bne	x6,x10,80004750	  x6:0x628e8628 x10:0x00000001
        8395000	       838	00000000	00000013	addi	x0,x0,0	  x0:0x00000000
        8405000	       839	8000474c	00000013	addi	x0,x0,0	  x0:0x00000000
        8415000	       840	80004750	0fb1bb13	sltiu	x22,x3,251	  x3:0x67d29000 x22=0x00000000
        8425000	       841	80004754	00e7e8b3	or	x17,x15,x14	 x15:0x00000000 x14:0xc3472000 x17=0xc3472000
        8435000	       842	80004758	41a059b3	sra	x19,x0,x26	  x0:0x00000000 x26:0x2999668c x19=0x00000000
        8445000	       843	8000475c	035a1063	bne	x20,x21,8000477c	 x20:0xa15e4cb0 x21:0x00000001
        8455000	       844	00000000	00000013	addi	x0,x0,0	  x0:0x00000000
        8465000	       845	80004778	00000013	addi	x0,x0,0	  x0:0x00000000
        8475000	       846	8000477c	eab90013	addi	x0,x18,-341	 x18:0x00000001
        8485000	       847	80004780	40af54b3	sra	x9,x30,x10	 x30:0x80009bb3 x10:0x00000001  x9=0xc0004dd9
        8495000	       848	80004784	0456f063	bgeu	x13,x5,800047c4	 x13:0xfffffff5  x5:0x7fff6030
        8505000	       849	00000000	00000013	addi	x0,x0,0	  x0:0x00000000
        8515000	       850	800047c0	00000013	addi	x0,x0,0	  x0:0x00000000
        8525000	       851	800047c4	41ae06b3	sub	x13,x28,x26	 x28:0x0000007b x26:0x2999668c x13=0xd66699ef
        8535000	       852	800047c8	0067b2b3	sltu	x5,x15,x6	 x15:0x00000000  x6:0x628e8628  x5=0x00000001
        8545000	       853	800047cc	0095d713	srli	x14,x11,0x9	 x11:0x00000000 x14=0x00000000
        8555000	       854	800047d0	00000013	addi	x0,x0,0	  x0:0x00000000
        8565000	       855	800047d4	00c73c33	sltu	x24,x14,x12	 x14:0x00000000 x12:0x7fff6031 x24=0x00000001
        8575000	       856	800047d8	01881093	slli	x1,x16,0x18	 x16:0x00000001  x1=0x01000000
        8585000	       857	800047dc	46fc8793	addi	x15,x25,1135	 x25:0x00000597 x15=0x00000a06
        8595000	       858	800047e0	01f70233	add	x4,x14,x31	 x14:0x00000000 x31:0x000005f1  x4=0x000005f1
        8605000	       859	800047e4	01d67633	and	x12,x12,x29	 x12:0x7fff6031 x29:0x00000027 x12=0x00000021
        8615000	       860	800047e8	01458533	add	x10,x11,x20	 x11:0x00000000 x20:0xa15e4cb0 x10=0xa15e4cb0
        8625000	       861	800047ec	013a36b3	sltu	x13,x20,x19	 x20:0xa15e4cb0 x19:0x00000000 x13=0x00000000
        8635000	       862	800047f0	00f11263	bne	x2,x15,800047f4	  x2:0x0000055b x15:0x00000a06
        8645000	       863	00000000	00000013	addi	x0,x0,0	  x0:0x00000000
        8655000	       864	800047f0	00000013	addi	x0,x0,0	  x0:0x00000000
        8665000	       865	800047f4	006e7f33	and	x30,x28,x6	 x28:0x0000007b  x6:0x628e8628 x30=0x00000028
        8675000	       866	800047f8	02470a63	beq	x14,x4,8000482c	 x14:0x00000000  x4:0x000005f1
        8685000	       867	800047fc	01ae0c63	beq	x28,x26,80004814	 x28:0x0000007b x26:0x2999668c
        8695000	       868	80004800	017b4333	xor	x6,x22,x23	 x22:0x00000000 x23:0x00000001  x6=0x00000001
        8705000	       869	80004804	015cdf33	srl	x30,x25,x21	 x25:0x00000597 x21:0x00000001 x30=0x000002cb
        8715000	       870	80004808	011e9713	slli	x14,x29,0x11	 x29:0x00000027 x14=0x004e0000
        8725000	       871	8000480c	014f1233	sll	x4,x30,x20	 x30:0x000002cb x20:0xa15e4cb0  x4=0x02cb0000
        8735000	       872	80004810	015dc463	blt	x27,x21,80004818	 x27:0xfffffd34 x21:0x00000001
        8745000	       873	00000000	00000013	addi	x0,x0,0	  x0:0x00000000
        8755000	       874	80004814	00000013	addi	x0,x0,0	  x0:0x00000000
        8765000	       875	80004818	4aa7ae93	slti	x29,x15,1194	 x15:0x00000a06 x29=0x00000000
        8775000	       876	8000481c	414e5333	sra	x6,x28,x20	 x28:0x0000007b x20:0xa15e4cb0  x6=0x00000000
        8785000	       877	80004820	01f13db3	sltu	x27,x2,x31	  x2:0x0000055b x31:0x000005f1 x27=0x00000001
        8795000	       878	80004824	019d1113	slli	x2,x26,0x19	 x26:0x2999668c  x2=0x18000000
        8805000	       879	80004828	009cc833	xor	x16,x25,x9	 x25:0x00000597  x9:0xc0004dd9 x16=0xc000484e
        8815000	       880	8000482c	061fe993	ori	x19,x31,97	 x31:0x000005f1 x19=0x000005f1
        8825000	       881	80004830	33668c17	auipc	x24,0x33668	 x24=0xb366c82c
        8835000	       882	80004834	5ae90713	addi	x14,x18,1454	 x18:0x00000001 x14=0x000005af
        8845000	       883	80004838	00d65633	srl	x12,x12,x13	 x12:0x00000021 x13:0x00000000 x12=0x00000021
        8855000	       884	8000483c	41dcdcb3	sra	x25,x25,x29	 x25:0x00000597 x29:0x00000000 x25=0x00000597
        8865000	       885	80004840	0974a197	auipc	x3,0x974a	  x3=0x8974e83c
        8875000	       886	80004844	0310cc63	blt	x1,x17,8000487c	  x1:0x01000000 x17:0xc3472000
        8885000	       887	80004848	003990b3	sll	x1,x19,x3	 x19:0x000005f1  x3:0x8974e83c  x1=0x10000000
        8895000	       888	8000484c	05481063	bne	x16,x20,8000488c	 x16:0xc000484e x20:0xa15e4cb0
        8905000	       889	00000000	00000013	addi	x0,x0,0	  x0:0x00000000
        8915000	       890	80004888	00000013	addi	x0,x0,0	  x0:0x00000000
        8925000	       891	8000488c	00632f33	slt	x30,x6,x6	  x6:0x00000000  x6:0x00000000 x30=0x00000000
        8935000	       892	80004890	00eab8b3	sltu	x17,x21,x14	 x21:0x00000001 x14:0x000005af x17=0x00000001
        8945000	       893	80004894	01dff863	bgeu	x31,x29,800048a4	 x31:0x000005f1 x29:0x00000000
        8955000	       894	00000000	00000013	addi	x0,x0,0	  x0:0x00000000
        8965000	       895	800048a0	00000013	addi	x0,x0,0	  x0:0x00000000
        8975000	       896	800048a4	02b47a63	bgeu	x8,x11,800048d8	  x8:0x80009ee8 x11:0x00000000
        8985000	       897	00000000	00000013	addi	x0,x0,0	  x0:0x00000000
        8995000	       898	800048d4	00000013	addi	x0,x0,0	  x0:0x00000000
        9005000	       899	800048d8	403a0bb3	sub	x23,x20,x3	 x20:0xa15e4cb0  x3:0x8974e83c x23=0x17e96474
        9015000	       900	800048dc	40e5d1b3	sra	x3,x11,x14	 x11:0x00000000 x14:0x000005af  x3=0x00000000
        9025000	       901	800048e0	0463f063	bgeu	x7,x6,80004920	  x7:0x80009fc4  x6:0x00000000
        9035000	       902	00000000	00000013	addi	x0,x0,0	  x0:0x00000000
        9045000	       903	8000491c	00000013	addi	x0,x0,0	  x0:0x00000000
        9055000	       904	80004920	00132f33	slt	x30,x6,x1	  x6:0x00000000  x1:0x10000000 x30=0x00000001
        9065000	       905	80004924	02715e63	bge	x2,x7,80004960	  x2:0x18000000  x7:0x80009fc4
        9075000	       906	00000000	00000013	addi	x0,x0,0	  x0:0x00000000
        9085000	       907	8000495c	00000013	addi	x0,x0,0	  x0:0x00000000
        9095000	       908	80004960	5064e113	ori	x2,x9,1286	  x9:0xc0004dd9  x2=0xc0004ddf
        9105000	       909	80004964	01964fb3	xor	x31,x12,x25	 x12:0x00000021 x25:0x00000597 x31=0x000005b6
        9115000	       910	80004968	80c37c13	andi	x24,x6,-2036	  x6:0x00000000 x24=0x00000000
        9125000	       911	8000496c	03dd4a63	blt	x26,x29,800049a0	 x26:0x2999668c x29:0x00000000
        9135000	       912	80004970	dc4d1497	auipc	x9,0xdc4d1	  x9=0x5c4d596c
        9145000	       913	80004974	a29ac493	xori	x9,x21,-1495	 x21:0x00000001  x9=0xfffffa28
        9155000	       914	80004978	012ada93	srli	x21,x21,0x12	 x21:0x00000001 x21=0x00000000
        9165000	       915	8000497c	022a5a63	bge	x20,x2,800049b0	 x20:0xa15e4cb0  x2:0xc0004ddf
        9175000	       916	80004980	3b316f93	ori	x31,x2,947	  x2:0xc0004ddf x31=0xc0004fff
        9185000	       917	80004984	57d90d13	addi	x26,x18,1405	 x18:0x00000001 x26=0x0000057e
        9195000	       918	80004988	0374d463	bge	x9,x23,800049b0	  x9:0xfffffa28 x23:0x17e96474
        9205000	       919	8000498c	0e7ba513	slti	x10,x23,231	 x23:0x17e96474 x10=0x00000000
        9215000	       920	80004990	0170d8b3	srl	x17,x1,x23	  x1:0x10000000 x23:0x17e96474 x17=0x00000100
        9225000	       921	80004994	403580b3	sub	x1,x11,x3	 x11:0x00000000  x3:0x00000000  x1=0x00000000
        9235000	       922	80004998	007e9493	slli	x9,x29,0x7	 x29:0x00000000  x9=0x00000000
        9245000	       923	8000499c	2c7b2197	auipc	x3,0x2c7b2	  x3=0xac7b6998
        9255000	       924	800049a0	00fe9633	sll	x12,x29,x15	 x29:0x00000000 x15:0x00000a06 x12=0x00000000
        9265000	       925	800049a4	00f98463	beq	x19,x15,800049ac	 x19:0x000005f1 x15:0x00000a06
        9275000	       926	800049a8	00264e33	xor	x28,x12,x2	 x12:0x00000000  x2:0xc0004ddf x28=0xc0004ddf
        9285000	       927	800049ac	01275713	srli	x14,x14,0x12	 x14:0x000005af x14=0x00000000
        9295000	       928	800049b0	0cfca013	slti	x0,x25,207	 x25:0x00000597
        9305000	       929	800049b4	00000013	addi	x0,x0,0	  x0:0x00000000
        9315000	       930	800049b8	03fc7617	auipc	x12,0x3fc7	 x12=0x83fcb9b4
        9325000	       931	800049bc	10a54e93	xori	x29,x10,266	 x10:0x00000000 x29=0x0000010a
        9335000	       932	800049c0	ba17ff93	andi	x31,x15,-1119	 x15:0x00000a06 x31=0x00000a00
        9345000	       933	800049c4	013b7d33	and	x26,x22,x19	 x22:0x00000000 x19:0x000005f1 x26=0x00000000
        9355000	       934	800049c8	01b39633	sll	x12,x7,x27	  x7:0x80009fc4 x27:0x00000001 x12=0x00013f88
        9365000	       935	800049cc	01172e33	slt	x28,x14,x17	 x14:0x00000000 x17:0x00000100 x28=0x00000001
        9375000	       936	800049d0	01a0d733	srl	x14,x1,x26	  x1:0x00000000 x26:0x00000000 x14=0x00000000
        9385000	       937	800049d4	c40bfab7	lui	x21,0xc40bf	 x21=0xc40bf000
        9395000	       938	800049d8	3313c993	xori	x19,x7,817	  x7:0x80009fc4 x19=0x80009cf5
        9405000	       939	800049dc	62ed9197	auipc	x3,0x62ed9	  x3=0xe2edd9d8
        9415000	       940	800049e0	01065c63	bge	x12,x16,800049f8	 x12:0x00013f88 x16:0xc000484e
        9425000	       941	00000000	00000013	addi	x0,x0,0	  x0:0x00000000
        9435000	       942	800049f4	00000013	addi	x0,x0,0	  x0:0x00000000
        9445000	       943	800049f8	0036d193	srli	x3,x13,0x3	 x13:0x00000000  x3=0x00000000
        9455000	       944	800049fc	01c91013	slli	x0,x18,0x1c	 x18:0x00000001
        9465000	       945	80004a00	001f4733	xor	x14,x30,x1	 x30:0x00000001  x1:0x00000000 x14=0x00000001
        9475000	       946	80004a04	008cfe63	bgeu	x25,x8,80004a20	 x25:0x00000597  x8:0x80009ee8
        9485000	       947	80004a08	00d41233	sll	x4,x8,x13	  x8:0x80009ee8 x13:0x00000000  x4=0x80009ee8
        9495000	       948	80004a0c	50077117	auipc	x2,0x50077	  x2=0xd007ba08
        9505000	       949	80004a10	003e8233	add	x4,x29,x3	 x29:0x0000010a  x3:0x00000000  x4=0x0000010a
        9515000	       950	80004a14	0094d913	srli	x18,x9,0x9	  x9:0x00000000 x18=0x00000000
        9525000	       951	80004a18	41315533	sra	x10,x2,x19	  x2:0xd007ba08 x19:0x80009cf5 x10=0xfffffe80
        9535000	       952	80004a1c	00ded993	srli	x19,x29,0xd	 x29:0x0000010a x19=0x00000000
        9545000	       953	80004a20	01ce4663	blt	x28,x28,80004a2c	 x28:0x00000001 x28:0x00000001
        9555000	       954	80004a24	00000013	addi	x0,x0,0	  x0:0x00000000
        9565000	       955	80004a28	01e3d263	bge	x7,x30,80004a2c	  x7:0x80009fc4 x30:0x00000001
        9575000	       956	80004a2c	00a118b3	sll	x17,x2,x10	  x2:0xd007ba08 x10:0xfffffe80 x17=0xd007ba08
        9585000	       957	80004a30	017f5d13	srli	x26,x30,0x17	 x30:0x00000001 x26=0x00000000
        9595000	       958	80004a34	00442083	lw	x1,4(x8)	  x8:0x80009ee8  x1=0x80000678 PA:0x80009eec
        9605000	       959	80004a38	00d59933	sll	x18,x11,x13	 x11:0x00000000 x13:0x00000000 x18=0x00000000
        9615000	       960	80004a3c	03840413	addi	x8,x8,56	  x8:0x80009ee8  x8=0x80009f20
        9625000	       961	80004a40	016674b3	and	x9,x12,x22	 x12:0x00013f88 x22:0x00000000  x9=0x00000000
        9635000	       962	80004a44	c82ec313	xori	x6,x29,-894	 x29:0x0000010a  x6=0xfffffd88
        9645000	       963	80004a48	00008c13	addi	x24,x1,0	  x1:0x80000678 x24=0x80000678
        9655000	       964	80004a4c	000c0c67	jalr	x24,x24,0	 x24:0x80000678 x24=0x80004a4c
        9665000	       965	00000000	00000013	addi	x0,x0,0	  x0:0x00000000
        9675000	       966	80000678	00000013	addi	x0,x0,0	  x0:0x00000000
        9685000	       967	8000067c	010d7c33	and	x24,x26,x16	 x26:0x00000000 x16:0xc000484e x24=0x00000000
        9695000	       968	80000680	c6547e13	andi	x28,x8,-923	  x8:0x80009f20 x28=0x80009c20
        9705000	       969	80000684	404f5b33	sra	x22,x30,x4	 x30:0x00000001  x4:0x0000010a x22=0x00000000
        9715000	       970	80000688	ed0cc793	xori	x15,x25,-304	 x25:0x00000597 x15=0xfffffb47
        9725000	       971	8000068c	bd503b13	sltiu	x22,x0,-1067	  x0:0x00000000 x22=0x00000001
        9735000	       972	80000690	651ceb13	ori	x22,x25,1617	 x25:0x00000597 x22=0x000007d7
        9745000	       973	80000694	15b1f113	andi	x2,x3,347	  x3:0x00000000  x2=0x00000000
        9755000	       974	80000698	d5a64337	lui	x6,0xd5a64	  x6=0xd5a64000
        9765000	       975	8000069c	dfb5ce93	xori	x29,x11,-517	 x11:0x00000000 x29=0xfffffdfb
        9775000	       976	800006a0	cadff0ef	jal	x1,800006a0	  x1=0x800006a0
        9785000	       977	00000000	00000013	addi	x0,x0,0	  x0:0x00000000
        9795000	       978	80000348	00000013	addi	x0,x0,0	  x0:0x00000000
        9805000	       979	8000034c	00000013	addi	x0,x0,0	  x0:0x00000000
        9815000	       980	80000350	fc840413	addi	x8,x8,-56	  x8:0x80009f20  x8=0x80009ee8
        9825000	       981	80000354	bcf37793	andi	x15,x6,-1073	  x6:0xd5a64000 x15=0xd5a64000
        9835000	       982	80000358	400d09b3	sub	x19,x26,x0	 x26:0x00000000  x0:0x00000000 x19=0x00000000
        9845000	       983	8000035c	28603513	sltiu	x10,x0,646	  x0:0x00000000 x10=0x00000001
        9855000	       984	80000360	408756b3	sra	x13,x14,x8	 x14:0x00000001  x8:0x80009ee8 x13=0x00000000
        9865000	       985	80000364	00142223	sw	x1,4(x8)	  x8:0x80009ee8  x1:0x800006a0 PA:0x80009eec
        9875000	       986	80000368	411d5593	srai	x11,x26,0x11	 x26:0x00000000 x11=0x00000000
        9885000	       987	8000036c	0028ccb3	xor	x25,x17,x2	 x17:0xd007ba08  x2:0x00000000 x25=0xd007ba08
        9895000	       988	80000370	cfdcb113	sltiu	x2,x25,-771	 x25:0xd007ba08  x2=0x00000001
        9905000	       989	80000374	e604df97	auipc	x31,0xe604d	 x31=0x6604d370
        9915000	       990	80000378	0115bab3	sltu	x21,x11,x17	 x11:0x00000000 x17:0xd007ba08 x21=0x00000001
        9925000	       991	8000037c	01ac76b3	and	x13,x24,x26	 x24:0x00000000 x26:0x00000000 x13=0x00000000
        9935000	       992	80000380	01f738b3	sltu	x17,x14,x31	 x14:0x00000001 x31:0x6604d370 x17=0x00000001
        9945000	       993	80000384	01daca63	blt	x21,x29,80000398	 x21:0x00000001 x29:0xfffffdfb
        9955000	       994	80000388	1349b497	auipc	x9,0x1349b	  x9=0x9349b384
        9965000	       995	8000038c	412158b3	sra	x17,x2,x18	  x2:0x00000001 x18:0x00000000 x17=0x00000001
        9975000	       996	80000390	01ab2333	slt	x6,x22,x26	 x22:0x000007d7 x26:0x00000000  x6=0x00000000
        9985000	       997	80000394	03b7ab93	slti	x23,x15,59	 x15:0xd5a64000 x23=0x00000001
        9995000	       998	80000398	01f25213	srli	x4,x4,0x1f	  x4:0x0000010a  x4=0x00000000
       10005000	       999	8000039c	00c21c33	sll	x24,x4,x12	  x4:0x00000000 x12:0x00013f88 x24=0x00000000
       10015000	      1000	800003a0	01cce033	or	x0,x25,x28	 x25:0xd007ba08 x28:0x80009c20
       10025000	      1001	800003a4	5dcdf013	andi	x0,x27,1500	 x27:0x00000001
       10035000	      1002	800003a8	40740833	sub	x16,x8,x7	  x8:0x80009ee8  x7:0x80009fc4 x16=0xffffff24
       10045000	      1003	800003ac	03c5ea63	bltu	x11,x28,800003e0	 x11:0x00000000 x28:0x80009c20
       10055000	      1004	00000000	00000013	addi	x0,x0,0	  x0:0x00000000
       10065000	      1005	800003dc	00000013	addi	x0,x0,0	  x0:0x00000000
       10075000	      1006	800003e0	a9cca493	slti	x9,x25,-1380	 x25:0xd007ba08  x9=0x00000001
       10085000	      1007	800003e4	03b8c263	blt	x17,x27,80000408	 x17:0x00000001 x27:0x00000001
       10095000	      1008	800003e8	00163db3	sltu	x27,x12,x1	 x12:0x00013f88  x1:0x800006a0 x27=0x00000001
       10105000	      1009	800003ec	019a8cb3	add	x25,x21,x25	 x21:0x00000001 x25:0xd007ba08 x25=0xd007ba09
       10115000	      1010	800003f0	002575b3	and	x11,x10,x2	 x10:0x00000001  x2:0x00000001 x11=0x00000001
       10125000	      1011	800003f4	011c1e33	sll	x28,x24,x17	 x24:0x00000000 x17:0x00000001 x28=0x00000000
       10135000	      1012	800003f8	005790b3	sll	x1,x15,x5	 x15:0xd5a64000  x5:0x00000001  x1=0xab4c8000
       10145000	      1013	800003fc	fb51ca93	xori	x21,x3,-75	  x3:0x00000000 x21=0xffffffb5
       10155000	      1014	80000400	032bee63	bltu	x23,x18,8000043c	 x23:0x00000001 x18:0x00000000
       10165000	      1015	80000404	00f781b3	add	x3,x15,x15	 x15:0xd5a64000 x15:0xd5a64000  x3=0xab4c8000
       10175000	      1016	80000408	0077d513	srli	x10,x15,0x7	 x15:0xd5a64000 x10=0x01ab4c80
       10185000	      1017	8000040c	001bd313	srli	x6,x23,0x1	 x23:0x00000001  x6=0x00000000
       10195000	      1018	80000410	418956b3	sra	x13,x18,x24	 x18:0x00000000 x24:0x00000000 x13=0x00000000
       10205000	      1019	80000414	02740463	beq	x8,x7,8000043c	  x8:0x80009ee8  x7:0x80009fc4
       10215000	      1020	80000418	5f74da97	auipc	x21,0x5f74d	 x21=0xdf74d414
       10225000	      1021	8000041c	5241ab13	slti	x22,x3,1316	  x3:0xab4c8000 x22=0x00000001
       10235000	      1022	80000420	0196a933	slt	x18,x13,x25	 x13:0x00000000 x25:0xd007ba09 x18=0x00000000
       10245000	      1023	80000424	00ab4f33	xor	x30,x22,x10	 x22:0x00000001 x10:0x01ab4c80 x30=0x01ab4c81
       10255000	      1024	80000428	4958eb13	ori	x22,x17,1173	 x17:0x00000001 x22=0x00000495
       10265000	      1025	8000042c	01351633	sll	x12,x10,x19	 x10:0x01ab4c80 x19:0x00000000 x12=0x01ab4c80
       10275000	      1026	80000430	0026c733	xor	x14,x13,x2	 x13:0x00000000  x2:0x00000001 x14=0x00000001
       10285000	      1027	80000434	0012c4b3	xor	x9,x5,x1	  x5:0x00000001  x1:0xab4c8000  x9=0xab4c8001
       10295000	      1028	80000438	8adbb993	sltiu	x19,x23,-1875	 x23:0x00000001 x19=0x00000001
       10305000	      1029	8000043c	005919b3	sll	x19,x18,x5	 x18:0x00000000  x5:0x00000001 x19=0x00000000
       10315000	      1030	80000440	3b80b793	sltiu	x15,x1,952	  x1:0xab4c8000 x15=0x00000000
       10325000	      1031	80000444	013d38b3	sltu	x17,x26,x19	 x26:0x00000000 x19:0x00000000 x17=0x00000000
       10335000	      1032	80000448	004d7933	and	x18,x26,x4	 x26:0x00000000  x4:0x00000000 x18=0x00000000
       10345000	      1033	8000044c	01a8a2b3	slt	x5,x17,x26	 x17:0x00000000 x26:0x00000000  x5=0x00000000
       10355000	      1034	80000450	00a376b3	and	x13,x6,x10	  x6:0x00000000 x10:0x01ab4c80 x13=0x00000000
       10365000	      1035	80000454	01cabfb3	sltu	x31,x21,x28	 x21:0xdf74d414 x28:0x00000000 x31=0x00000000
       10375000	      1036	80000458	02a7d063	bge	x15,x10,80000478	 x15:0x00000000 x10:0x01ab4c80
       10385000	      1037	8000045c	0ac47f13	andi	x30,x8,172	  x8:0x80009ee8 x30=0x000000a8
       10395000	      1038	80000460	e65fb093	sltiu	x1,x31,-411	 x31:0x00000000  x1=0x00000001
       10405000	      1039	80000464	ba676097	auipc	x1,0xba676	  x1=0x3a676460
       10415000	      1040	80000468	02afc463	blt	x31,x10,80000490	 x31:0x00000000 x10:0x01ab4c80
       10425000	      1041	00000000	00000013	addi	x0,x0,0	  x0:0x00000000
       10435000	      1042	8000048c	00000013	addi	x0,x0,0	  x0:0x00000000
       10445000	      1043	80000490	00146733	or	x14,x8,x1	  x8:0x80009ee8  x1:0x3a676460 x14=0xba67fee8
       10455000	      1044	80000494	0168bfb3	sltu	x31,x17,x22	 x17:0x00000000 x22:0x00000495 x31=0x00000001
       10465000	      1045	80000498	01f2f463	bgeu	x5,x31,800004a0	  x5:0x00000000 x31:0x00000001
       10475000	      1046	8000049c	41d4d813	srai	x16,x9,0x1d	  x9:0xab4c8001 x16=0xfffffffd
       10485000	      1047	800004a0	05b27e13	andi	x28,x4,91	  x4:0x00000000 x28=0x00000000
       10495000	      1048	800004a4	0006f9b3	and	x19,x13,x0	 x13:0x00000000  x0:0x00000000 x19=0x00000000
       10505000	      1049	800004a8	010d05b3	add	x11,x26,x16	 x26:0x00000000 x16:0xfffffffd x11=0xfffffffd
       10515000	      1050	800004ac	00442083	lw	x1,4(x8)	  x8:0x80009ee8  x1=0x800006a0 PA:0x80009eec
       10525000	      1051	800004b0	03840413	addi	x8,x8,56	  x8:0x80009ee8  x8=0x80009f20
       10535000	      1052	800004b4	01911633	sll	x12,x2,x25	  x2:0x00000001 x25:0xd007ba09 x12=0x00000200
       10545000	      1053	800004b8	88b00f13	addi	x30,x0,-1909	  x0:0x00000000 x30=0xfffff88b
       10555000	      1054	800004bc	1f7c0293	addi	x5,x24,503	 x24:0x00000000  x5=0x000001f7
       10565000	      1055	800004c0	00108c93	addi	x25,x1,1	  x1:0x800006a0 x25=0x800006a1
       10575000	      1056	800004c4	000c8ce7	jalr	x25,x25,0	 x25:0x800006a1 x25=0x800004c4
       10585000	      1057	00000000	00000013	addi	x0,x0,0	  x0:0x00000000
       10595000	      1058	800006a0	00000013	addi	x0,x0,0	  x0:0x00000000
       10605000	      1059	800006a4	41f55993	srai	x19,x10,0x1f	 x10:0x01ab4c80 x19=0x00000000
       10615000	      1060	800006a8	4186d313	srai	x6,x13,0x18	 x13:0x00000000  x6=0x00000000
       10625000	      1061	800006ac	01e534b3	sltu	x9,x10,x30	 x10:0x01ab4c80 x30:0xfffff88b  x9=0x00000001
       10635000	      1062	800006b0	35790e93	addi	x29,x18,855	 x18:0x00000000 x29=0x00000357
       10645000	      1063	800006b4	009125b3	slt	x11,x2,x9	  x2:0x00000001  x9:0x00000001 x11=0x00000000
       10655000	      1064	800006b8	00b58463	beq	x11,x11,800006c0	 x11:0x00000000 x11:0x00000000
       10665000	      1065	00000000	00000013	addi	x0,x0,0	  x0:0x00000000
       10675000	      1066	800006bc	00000013	addi	x0,x0,0	  x0:0x00000000
       10685000	      1067	800006c0	01374833	xor	x16,x14,x19	 x14:0xba67fee8 x19:0x00000000 x16=0xba67fee8
       10695000	      1068	800006c4	402b5f93	srai	x31,x22,0x2	 x22:0x00000495 x31=0x00000125
       10705000	      1069	800006c8	01c7f7b3	and	x15,x15,x28	 x15:0x00000000 x28:0x00000000 x15=0x00000000
       10715000	      1070	800006cc	80b87293	andi	x5,x16,-2037	 x16:0xba67fee8  x5=0xba67f808
       10725000	      1071	800006d0	00442083	lw	x1,4(x8)	  x8:0x80009f20  x1=0x80000524 PA:0x80009f24
       10735000	      1072	800006d4	29b35e37	lui	x28,0x29b35	 x28=0x29b35000
       10745000	      1073	800006d8	01451713	slli	x14,x10,0x14	 x10:0x01ab4c80 x14=0xc8000000
       10755000	      1074	800006dc	02040413	addi	x8,x8,32	  x8:0x80009f20  x8=0x80009f40
       10765000	      1075	800006e0	0051af33	slt	x30,x3,x5	  x3:0xab4c8000  x5:0xba67f808 x30=0x00000001
       10775000	      1076	800006e4	00108913	addi	x18,x1,1	  x1:0x80000524 x18=0x80000525
       10785000	      1077	800006e8	00090967	jalr	x18,x18,0	 x18:0x80000525 x18=0x800006e8
       10795000	      1078	00000000	00000013	addi	x0,x0,0	  x0:0x00000000
       10805000	      1079	80000524	00000013	addi	x0,x0,0	  x0:0x00000000
       10815000	      1080	80000528	01efd113	srli	x2,x31,0x1e	 x31:0x00000125  x2=0x00000000
       10825000	      1081	8000052c	00147b33	and	x22,x8,x1	  x8:0x80009f40  x1:0x80000524 x22=0x80000500
       10835000	      1082	80000530	f0493313	sltiu	x6,x18,-252	 x18:0x800006e8  x6=0x00000001
       10845000	      1083	80000534	00005497	auipc	x9,0x5	  x9=0x80005530
       10855000	      1084	80000538	ee848493	addi	x9,x9,-280	  x9:0x80005530  x9=0x80005418
       10865000	      1085	8000053c	40b706b3	sub	x13,x14,x11	 x14:0xc8000000 x11:0x00000000 x13=0xc8000000
       10875000	      1086	80000540	c1748493	addi	x9,x9,-1001	  x9:0x80005418  x9=0x8000502f
       10885000	      1087	80000544	40d7d793	srai	x15,x15,0xd	 x15:0x00000000 x15=0x00000000
       10895000	      1088	80000548	26650d13	addi	x26,x10,614	 x10:0x01ab4c80 x26=0x01ab4ee6
       10905000	      1089	8000054c	eeea3293	sltiu	x5,x20,-274	 x20:0xa15e4cb0  x5=0x00000001
       10915000	      1090	80000550	3ea480e7	jalr	x1,x9,1002	  x9:0x8000502f  x1=0x80000550
       10925000	      1091	00000000	00000013	addi	x0,x0,0	  x0:0x00000000
       10935000	      1092	80005418	00000013	addi	x0,x0,0	  x0:0x00000000
       10945000	      1093	8000541c	002e2233	slt	x4,x28,x2	 x28:0x29b35000  x2:0x00000000  x4=0x00000000
       10955000	      1094	80005420	00567133	and	x2,x12,x5	 x12:0x00000200  x5:0x00000001  x2=0x00000000
       10965000	      1095	80005424	01ad9c33	sll	x24,x27,x26	 x27:0x00000001 x26:0x01ab4ee6 x24=0x00000040
       10975000	      1096	80005428	fd840413	addi	x8,x8,-40	  x8:0x80009f40  x8=0x80009f18
       10985000	      1097	8000542c	00142223	sw	x1,4(x8)	  x8:0x80009f18  x1:0x80000550 PA:0x80009f1c
       10995000	      1098	80005430	e63b3193	sltiu	x3,x22,-413	 x22:0x80000500  x3=0x00000001
       11005000	      1099	80005434	a548ed93	ori	x27,x17,-1452	 x17:0x00000000 x27=0xfffffa54
       11015000	      1100	80005438	b3262f93	slti	x31,x12,-1230	 x12:0x00000200 x31=0x00000000
       11025000	      1101	8000543c	0a7c0193	addi	x3,x24,167	 x24:0x00000040  x3=0x000000e7
       11035000	      1102	80005440	00003497	auipc	x9,0x3	  x9=0x8000843c
       11045000	      1103	80005444	29748493	addi	x9,x9,663	  x9:0x8000843c  x9=0x800086d3
       11055000	      1104	80005448	00f83833	sltu	x16,x16,x15	 x16:0xba67fee8 x15:0x00000000 x16=0x00000000
       11065000	      1105	8000544c	fc94cb83	lbu	x23,-55(x9)	  x9:0x800086d3 x23=0x00000000 PA:0x8000869c
       11075000	      1106	80005450	1d432593	slti	x11,x6,468	  x6:0x00000001 x11=0x00000001
       11085000	      1107	80005454	ffe491a3	sh	x30,-29(x9)	  x9:0x800086d3 x30:0x00000001 PA:0x800086b6
       11095000	      1108	80005458	012e5d13	srli	x26,x28,0x12	 x28:0x29b35000 x26=0x00000a6c
       11105000	      1109	8000545c	b299ab37	lui	x22,0xb299a	 x22=0xb299a000
       11115000	      1110	80005460	03048c03	lb	x24,48(x9)	  x9:0x800086d3 x24=0x00000000 PA:0x80008703
       11125000	      1111	80005464	003497a3	sh	x3,15(x9)	  x9:0x800086d3  x3:0x000000e7 PA:0x800086e2
       11135000	      1112	80005468	005f87b3	add	x15,x31,x5	 x31:0x00000000  x5:0x00000001 x15=0x00000001
       11145000	      1113	8000546c	000cc833	xor	x16,x25,x0	 x25:0x800004c4  x0:0x00000000 x16=0x800004c4
       11155000	      1114	80005470	41bed813	srai	x16,x29,0x1b	 x29:0x00000357 x16=0x00000000
       11165000	      1115	80005474	01e4c103	lbu	x2,30(x9)	  x9:0x800086d3  x2=0x00000000 PA:0x800086f1
       11175000	      1116	80005478	fd848303	lb	x6,-40(x9)	  x9:0x800086d3  x6=0x00000000 PA:0x800086ab
       11185000	      1117	8000547c	02b48003	lb	x0,43(x9)	  x9:0x800086d3 PA:0x800086fe
       11195000	      1118	80005480	004459b3	srl	x19,x8,x4	  x8:0x80009f18  x4:0x00000000 x19=0x80009f18
       11205000	      1119	80005484	012ba5b3	slt	x11,x23,x18	 x23:0x00000000 x18:0x800006e8 x11=0x00000000
       11215000	      1120	80005488	fcc496a3	sh	x12,-51(x9)	  x9:0x800086d3 x12:0x00000200 PA:0x800086a0
       11225000	      1121	8000548c	00000013	addi	x0,x0,0	  x0:0x00000000
       11235000	      1122	80005490	01f4db83	lhu	x23,31(x9)	  x9:0x800086d3 x23=0x00000000 PA:0x800086f2
       11245000	      1123	80005494	003a6f33	or	x30,x20,x3	 x20:0xa15e4cb0  x3:0x000000e7 x30=0xa15e4cf7
       11255000	      1124	80005498	fc0fe793	ori	x15,x31,-64	 x31:0x00000000 x15=0xffffffc0
       11265000	      1125	8000549c	00ed7333	and	x6,x26,x14	 x26:0x00000a6c x14:0xc8000000  x6=0x00000000
       11275000	      1126	800054a0	fe4494a3	sh	x4,-23(x9)	  x9:0x800086d3  x4:0x00000000 PA:0x800086bc
       11285000	      1127	800054a4	00004d17	auipc	x26,0x4	 x26=0x800094a0
       11295000	      1128	800054a8	8e0d0d13	addi	x26,x26,-1824	 x26:0x800094a0 x26=0x80008d80
       11305000	      1129	800054ac	012d71b3	and	x3,x26,x18	 x26:0x80008d80 x18:0x800006e8  x3=0x80000480
       11315000	      1130	800054b0	d0db2817	auipc	x16,0xd0db2	 x16=0x50db74ac
       11325000	      1131	800054b4	025d4d83	lbu	x27,37(x26)	 x26:0x80008d80 x27=0x00000000 PA:0x80008da5
       11335000	      1132	800054b8	b37e7637	lui	x12,0xb37e7	 x12=0xb37e7000
       11345000	      1133	800054bc	40278633	sub	x12,x15,x2	 x15:0xffffffc0  x2:0x00000000 x12=0xffffffc0
       11355000	      1134	800054c0	fb3d4783	lbu	x15,-77(x26)	 x26:0x80008d80 x15=0x00000000 PA:0x80008d33
       11365000	      1135	800054c4	000ae4b3	or	x9,x21,x0	 x21:0xdf74d414  x0:0x00000000  x9=0xdf74d414
       11375000	      1136	800054c8	f21d07a3	sb	x1,-209(x26)	 x26:0x80008d80  x1:0x80000550 PA:0x80008caf
       11385000	      1137	800054cc	fb5d0023	sb	x21,-96(x26)	 x26:0x80008d80 x21:0xdf74d414 PA:0x80008d20
       11395000	      1138	800054d0	084d4583	lbu	x11,132(x26)	 x26:0x80008d80 x11=0x00000000 PA:0x80008e04
       11405000	      1139	800054d4	f20d1523	sh	x0,-214(x26)	 x26:0x80008d80  x0:0x00000000 PA:0x80008caa
       11415000	      1140	800054d8	002ba5b3	slt	x11,x23,x2	 x23:0x00000000  x2:0x00000000 x11=0x00000000
       11425000	      1141	800054dc	04bd0283	lb	x5,75(x26)	 x26:0x80008d80  x5=0x00000000 PA:0x80008dcb
       11435000	      1142	800054e0	058d1103	lh	x2,88(x26)	 x26:0x80008d80  x2=0x00000000 PA:0x80008dd8
       11445000	      1143	800054e4	e98b4613	xori	x12,x22,-360	 x22:0xb299a000 x12=0x4d665e98
       11455000	      1144	800054e8	ffed0523	sb	x30,-22(x26)	 x26:0x80008d80 x30:0xa15e4cf7 PA:0x80008d6a
       11465000	      1145	800054ec	05ed4003	lbu	x0,94(x26)	 x26:0x80008d80 PA:0x80008dde
       11475000	      1146	800054f0	bfef0eb7	lui	x29,0xbfef0	 x29=0xbfef0000
       11485000	      1147	800054f4	806d9297	auipc	x5,0x806d9	  x5=0x006de4f0
       11495000	      1148	800054f8	0125c1b3	xor	x3,x11,x18	 x11:0x00000000 x18:0x800006e8  x3=0x800006e8
       11505000	      1149	800054fc	21ed3f93	sltiu	x31,x26,542	 x26:0x80008d80 x31=0x00000000
       11515000	      1150	80005500	0054eab3	or	x21,x9,x5	  x9:0xdf74d414  x5:0x006de4f0 x21=0xdf7df4f4
       11525000	      1151	80005504	28286737	lui	x14,0x28286	 x14=0x28286000
       11535000	      1152	80005508	f20d2883	lw	x17,-224(x26)	 x26:0x80008d80 x17=0x00000000 PA:0x80008ca0
       11545000	      1153	8000550c	412fde13	srai	x28,x31,0x12	 x31:0x00000000 x28=0x00000000
       11555000	      1154	80005510	04bd0f23	sb	x11,94(x26)	 x26:0x80008d80 x11:0x00000000 PA:0x80008dde
       11565000	      1155	80005514	00000013	addi	x0,x0,0	  x0:0x00000000
       11575000	      1156	80005518	0059e833	or	x16,x19,x5	 x19:0x80009f18  x5:0x006de4f0 x16=0x806dfff8
       11585000	      1157	8000551c	f94d1683	lh	x13,-108(x26)	 x26:0x80008d80 x13=0x00000000 PA:0x80008d14
       11595000	      1158	80005520	f9cd02a3	sb	x28,-123(x26)	 x26:0x80008d80 x28:0x00000000 PA:0x80008d05
       11605000	      1159	80005524	64605117	auipc	x2,0x64605	  x2=0xe460a520
       11615000	      1160	80005528	f1ed1b83	lh	x23,-226(x26)	 x26:0x80008d80 x23=0x00000000 PA:0x80008c9e
       11625000	      1161	8000552c	02ad5683	lhu	x13,42(x26)	 x26:0x80008d80 x13=0x00000000 PA:0x80008daa
       11635000	      1162	00000000	00000013	addi	x0,x0,0	  x0:0x00000000
       11645000	      1163	80005530	00569e93	slli	x29,x13,0x5	 x13:0x00000000 x29=0x00000000
       11655000	      1164	80005534	009c66b3	or	x13,x24,x9	 x24:0x00000000  x9:0xdf74d414 x13=0xdf74d414
       11665000	      1165	80005538	00144bb3	xor	x23,x8,x1	  x8:0x80009f18  x1:0x80000550 x23=0x00009a48
       11675000	      1166	8000553c	f00d1803	lh	x16,-256(x26)	 x26:0x80008d80 x16=0x00000000 PA:0x80008c80
       11685000	      1167	80005540	ff4d5183	lhu	x3,-12(x26)	 x26:0x80008d80  x3=0x00000000 PA:0x80008d74
       11695000	      1168	80005544	fe9d0ca3	sb	x9,-7(x26)	 x26:0x80008d80  x9:0xdf74d414 PA:0x80008d79
       11705000	      1169	80005548	097d4f03	lbu	x30,151(x26)	 x26:0x80008d80 x30=0x00000000 PA:0x80008e17
       11715000	      1170	8000554c	83a0fa97	auipc	x21,0x83a0f	 x21=0x03a14548
       11725000	      1171	80005550	014ac333	xor	x6,x21,x20	 x21:0x03a14548 x20:0xa15e4cb0  x6=0xa2ff09f8
       11735000	      1172	80005554	03ad5883	lhu	x17,58(x26)	 x26:0x80008d80 x17=0x00000000 PA:0x80008dba
       11745000	      1173	80005558	fd8d5b03	lhu	x22,-40(x26)	 x26:0x80008d80 x22=0x00000000 PA:0x80008d58
       11755000	      1174	8000555c	00e220b3	slt	x1,x4,x14	  x4:0x00000000 x14:0x28286000  x1=0x00000001
       11765000	      1175	80005560	00b7b133	sltu	x2,x15,x11	 x15:0x00000000 x11:0x00000000  x2=0x00000000
       11775000	      1176	80005564	01d21113	slli	x2,x4,0x1d	  x4:0x00000000  x2=0x00000000
       11785000	      1177	80005568	fb5d0303	lb	x6,-75(x26)	 x26:0x80008d80  x6=0x00000000 PA:0x80008d35
       11795000	      1178	8000556c	00003817	auipc	x16,0x3	 x16=0x80008568
       11805000	      1179	80005570	bb380813	addi	x16,x16,-1101	 x16:0x80008568 x16=0x8000811b
       11815000	      1180	80005574	877b7f93	andi	x31,x22,-1929	 x22:0x00000000 x31=0x00000000
       11825000	      1181	80005578	9a617713	andi	x14,x2,-1626	  x2:0x00000000 x14=0x00000000
       11835000	      1182	8000557c	013641b3	xor	x3,x12,x19	 x12:0x4d665e98 x19:0x80009f18  x3=0xcd66c180
       11845000	      1183	80005580	003d8133	add	x2,x27,x3	 x27:0x00000000  x3:0xcd66c180  x2=0xcd66c180
       11855000	      1184	80005584	fea803a3	sb	x10,-25(x16)	 x16:0x8000811b x10:0x01ab4c80 PA:0x80008102
       11865000	      1185	80005588	35256593	ori	x11,x10,850	 x10:0x01ab4c80 x11=0x01ab4fd2
       11875000	      1186	8000558c	0060fcb3	and	x25,x1,x6	  x1:0x00000001  x6:0x00000000 x25=0x00000000
       11885000	      1187	80005590	01551b93	slli	x23,x10,0x15	 x10:0x01ab4c80 x23=0x90000000
       11895000	      1188	80005594	00000013	addi	x0,x0,0	  x0:0x00000000
       11905000	      1189	80005598	f7580f83	lb	x31,-139(x16)	 x16:0x8000811b x31=0x00000000 PA:0x80008090
       11915000	      1190	8000559c	ba40ae13	slti	x28,x1,-1116	  x1:0x00000001 x28=0x00000000
       11925000	      1191	800055a0	012dfeb3	and	x29,x27,x18	 x27:0x00000000 x18:0x800006e8 x29=0x00000000
       11935000	      1192	800055a4	00845cb3	srl	x25,x8,x8	  x8:0x80009f18  x8:0x80009f18 x25=0x00000080
       11945000	      1193	800055a8	ff580ba3	sb	x21,-9(x16)	 x16:0x8000811b x21:0x03a14548 PA:0x80008112
       11955000	      1194	800055ac	0f4810a3	sh	x20,225(x16)	 x16:0x8000811b x20:0xa15e4cb0 PA:0x800081fc
       11965000	      1195	800055b0	01139d33	sll	x26,x7,x17	  x7:0x80009fc4 x17:0x00000000 x26=0x80009fc4
       11975000	      1196	800055b4	ff384703	lbu	x14,-13(x16)	 x16:0x8000811b x14=0x00000000 PA:0x8000810e
       11985000	      1197	800055b8	0141d313	srli	x6,x3,0x14	  x3:0xcd66c180  x6=0x00000cd6
       11995000	      1198	800055bc	d3e03e93	sltiu	x29,x0,-706	  x0:0x00000000 x29=0x00000001
       12005000	      1199	800055c0	f9c826a3	sw	x28,-115(x16)	 x16:0x8000811b x28:0x00000000 PA:0x800080a8
       12015000	      1200	800055c4	f3181703	lh	x14,-207(x16)	 x16:0x8000811b x14=0x00000000 PA:0x8000804c
       12025000	      1201	800055c8	f3880da3	sb	x24,-197(x16)	 x16:0x8000811b x24:0x00000000 PA:0x80008056
       12035000	      1202	800055cc	d8312a93	slti	x21,x2,-637	  x2:0xcd66c180 x21=0x00000001
       12045000	      1203	800055d0	0c582d03	lw	x26,197(x16)	 x16:0x8000811b x26=0x00000000 PA:0x800081e0
       12055000	      1204	800055d4	015741b3	xor	x3,x14,x21	 x14:0x00000000 x21:0x00000001  x3=0x00000001
       12065000	      1205	800055d8	00259e33	sll	x28,x11,x2	 x11:0x01ab4fd2  x2:0xcd66c180 x28=0x01ab4fd2
       12075000	      1206	800055dc	0b084283	lbu	x5,176(x16)	 x16:0x8000811b  x5=0x00000000 PA:0x800081cb
       12085000	      1207	800055e0	00003617	auipc	x12,0x3	 x12=0x800085dc
       12095000	      1208	800055e4	23860613	addi	x12,x12,568	 x12:0x800085dc x12=0x80008814
       12105000	      1209	800055e8	ff661f23	sh	x22,-2(x12)	 x12:0x80008814 x22:0x00000000 PA:0x80008812
       12115000	      1210	800055ec	ff460ea3	sb	x20,-3(x12)	 x12:0x80008814 x20:0xa15e4cb0 PA:0x80008811
       12125000	      1211	800055f0	01d5d5b3	srl	x11,x11,x29	 x11:0x01ab4fd2 x29:0x00000001 x11=0x00d5a7e9
       12135000	      1212	800055f4	ffb64f83	lbu	x31,-5(x12)	 x12:0x80008814 x31=0x00000000 PA:0x8000880f
       12145000	      1213	800055f8	00c61693	slli	x13,x12,0xc	 x12:0x80008814 x13=0x08814000
       12155000	      1214	800055fc	33a567b7	lui	x15,0x33a56	 x15=0x33a56000
       12165000	      1215	80005600	012c5133	srl	x2,x24,x18	 x24:0x00000000 x18:0x800006e8  x2=0x00000000
       12175000	      1216	80005604	fe160fa3	sb	x1,-1(x12)	 x12:0x80008814  x1:0x00000001 PA:0x80008813
       12185000	      1217	80005608	ff160b03	lb	x22,-15(x12)	 x12:0x80008814 x22=0x00000000 PA:0x80008805
       12195000	      1218	8000560c	41ae0233	sub	x4,x28,x26	 x28:0x01ab4fd2 x26:0x00000000  x4=0x01ab4fd2
       12205000	      1219	80005610	1c3a0793	addi	x15,x20,451	 x20:0xa15e4cb0 x15=0xa15e4e73
       12215000	      1220	80005614	40a60533	sub	x10,x12,x10	 x12:0x80008814 x10:0x01ab4c80 x10=0x7e553b94
       12225000	      1221	80005618	94613b93	sltiu	x23,x2,-1722	  x2:0x00000000 x23=0x00000001
       12235000	      1222	8000561c	0fcdba97	auipc	x21,0xfcdb	 x21=0x8fce0618
       12245000	      1223	80005620	e83c2313	slti	x6,x24,-381	 x24:0x00000000  x6=0x00000000
       12255000	      1224	80005624	4165d8b3	sra	x17,x11,x22	 x11:0x00d5a7e9 x22:0x00000000 x17=0x00d5a7e9
       12265000	      1225	80005628	01423db3	sltu	x27,x4,x20	  x4:0x01ab4fd2 x20:0xa15e4cb0 x27=0x00000001
       12275000	      1226	8000562c	ff062283	lw	x5,-16(x12)	 x12:0x80008814  x5=0x00000000 PA:0x80008804
       12285000	      1227	80005630	82aa18b7	lui	x17,0x82aa1	 x17=0x82aa1000
       12295000	      1228	80005634	40cedf13	srai	x30,x29,0xc	 x29:0x00000001 x30=0x00000000
       12305000	      1229	80005638	0129c0b3	xor	x1,x19,x18	 x19:0x80009f18 x18:0x800006e8  x1=0x000099f0
       12315000	      1230	8000563c	00a4dcb3	srl	x25,x9,x10	  x9:0xdf74d414 x10:0x7e553b94 x25=0x00000df7
       12325000	      1231	80005640	00800bb3	add	x23,x0,x8	  x0:0x00000000  x8:0x80009f18 x23=0x80009f18
       12335000	      1232	80005644	00360283	lb	x5,3(x12)	 x12:0x80008814  x5=0x00000000 PA:0x80008817
       12345000	      1233	80005648	97f3f213	andi	x4,x7,-1665	  x7:0x80009fc4  x4=0x80009944
       12355000	      1234	8000564c	00000013	addi	x0,x0,0	  x0:0x00000000
       12365000	      1235	80005650	01c75e33	srl	x28,x14,x28	 x14:0x00000000 x28:0x01ab4fd2 x28=0x00000000
       12375000	      1236	80005654	ff560a83	lb	x21,-11(x12)	 x12:0x80008814 x21=0x00000000 PA:0x80008809
       12385000	      1237	80005658	fff60283	lb	x5,-1(x12)	 x12:0x80008814  x5=0x00000001 PA:0x80008813
       12395000	      1238	8000565c	ff462a83	lw	x21,-12(x12)	 x12:0x80008814 x21=0x00000000 PA:0x80008808
       12405000	      1239	80005660	0050f533	and	x10,x1,x5	  x1:0x000099f0  x5:0x00000001 x10=0x00000000
       12415000	      1240	80005664	6fa80193	addi	x3,x16,1786	 x16:0x8000811b  x3=0x80008815
       12425000	      1241	80005668	ff164003	lbu	x0,-15(x12)	 x12:0x80008814 PA:0x80008805
       12435000	      1242	8000566c	ff760ea3	sb	x23,-3(x12)	 x12:0x80008814 x23:0x80009f18 PA:0x80008811
       12445000	      1243	80005670	00364983	lbu	x19,3(x12)	 x12:0x80008814 x19=0x00000000 PA:0x80008817
       12455000	      1244	80005674	550d9317	auipc	x6,0x550d9	  x6=0xd50de670
       12465000	      1245	80005678	ffe61b03	lh	x22,-2(x12)	 x12:0x80008814 x22=0x00000100 PA:0x80008812
       12475000	      1246	8000567c	ff164203	lbu	x4,-15(x12)	 x12:0x80008814  x4=0x00000000 PA:0x80008805
       12485000	      1247	80005680	407d0f33	sub	x30,x26,x7	 x26:0x00000000  x7:0x80009fc4 x30=0x7fff603c
       12495000	      1248	80005684	ff564783	lbu	x15,-11(x12)	 x12:0x80008814 x15=0x00000000 PA:0x80008809
       12505000	      1249	80005688	00003117	auipc	x2,0x3	  x2=0x80008684
       12515000	      1250	8000568c	77c10113	addi	x2,x2,1916	  x2:0x80008684  x2=0x80008e00
       12525000	      1251	80005690	fd812c83	lw	x25,-40(x2)	  x2:0x80008e00 x25=0x00000000 PA:0x80008dd8
       12535000	      1252	80005694	0083afb3	slt	x31,x7,x8	  x7:0x80009fc4  x8:0x80009f18 x31=0x00000000
       12545000	      1253	80005698	41ff8db3	sub	x27,x31,x31	 x31:0x00000000 x31:0x00000000 x27=0x00000000
       12555000	      1254	8000569c	0143e233	or	x4,x7,x20	  x7:0x80009fc4 x20:0xa15e4cb0  x4=0xa15edff4
       12565000	      1255	800056a0	01314d83	lbu	x27,19(x2)	  x2:0x80008e00 x27=0x00000000 PA:0x80008e13
       12575000	      1256	800056a4	014547b3	xor	x15,x10,x20	 x10:0x00000000 x20:0xa15e4cb0 x15=0xa15e4cb0
       12585000	      1257	800056a8	01710e83	lb	x29,23(x2)	  x2:0x80008e00 x29=0x00000000 PA:0x80008e17
       12595000	      1258	800056ac	0059c533	xor	x10,x19,x5	 x19:0x00000000  x5:0x00000001 x10=0x00000001
       12605000	      1259	800056b0	fe914983	lbu	x19,-23(x2)	  x2:0x80008e00 x19=0x00000000 PA:0x80008de9
       12615000	      1260	800056b4	49510193	addi	x3,x2,1173	  x2:0x80008e00  x3=0x80009295
       12625000	      1261	800056b8	fd215b83	lhu	x23,-46(x2)	  x2:0x80008e00 x23=0x00000000 PA:0x80008dd2
       12635000	      1262	800056bc	01e11313	slli	x6,x2,0x1e	  x2:0x80008e00  x6=0x00000000
       12645000	      1263	800056c0	01790f33	add	x30,x18,x23	 x18:0x800006e8 x23:0x00000000 x30=0x800006e8
       12655000	      1264	800056c4	fc311223	sh	x3,-60(x2)	  x2:0x80008e00  x3:0x80009295 PA:0x80008dc4
       12665000	      1265	800056c8	00c10fa3	sb	x12,31(x2)	  x2:0x80008e00 x12:0x80008814 PA:0x80008e1f
       12675000	      1266	800056cc	f88aa713	slti	x14,x21,-120	 x21:0x00000000 x14=0x00000000
       12685000	      1267	800056d0	ff0107a3	sb	x16,-17(x2)	  x2:0x80008e00 x16:0x8000811b PA:0x80008def
       12695000	      1268	800056d4	0002fcb3	and	x25,x5,x0	  x5:0x00000001  x0:0x00000000 x25=0x00000000
       12705000	      1269	800056d8	401b5833	sra	x16,x22,x1	 x22:0x00000100  x1:0x000099f0 x16=0x00000000
       12715000	      1270	800056dc	ffa15883	lhu	x17,-6(x2)	  x2:0x80008e00 x17=0x00000000 PA:0x80008dfa
       12725000	      1271	800056e0	05be7313	andi	x6,x28,91	 x28:0x00000000  x6=0x00000000
       12735000	      1272	800056e4	408ed333	sra	x6,x29,x8	 x29:0x00000000  x8:0x80009f18  x6=0x00000000
       12745000	      1273	800056e8	d7840617	auipc	x12,0xd7840	 x12=0x578456e4
       12755000	      1274	800056ec	01814d03	lbu	x26,24(x2)	  x2:0x80008e00 x26=0x00000000 PA:0x80008e18
       12765000	      1275	800056f0	401a5513	srai	x10,x20,0x1	 x20:0xa15e4cb0 x10=0xd0af2658
       12775000	      1276	800056f4	01811323	sh	x24,6(x2)	  x2:0x80008e00 x24:0x00000000 PA:0x80008e06
       12785000	      1277	800056f8	00614903	lbu	x18,6(x2)	  x2:0x80008e00 x18=0x00000000 PA:0x80008e06
       12795000	      1278	800056fc	41ff8cb3	sub	x25,x31,x31	 x31:0x00000000 x31:0x00000000 x25=0x00000000
       12805000	      1279	80005700	fe510e03	lb	x28,-27(x2)	  x2:0x80008e00 x28=0x00000000 PA:0x80008de5
       12815000	      1280	80005704	01510d23	sb	x21,26(x2)	  x2:0x80008e00 x21:0x00000000 PA:0x80008e1a
       12825000	      1281	80005708	00414c83	lbu	x25,4(x2)	  x2:0x80008e00 x25=0x00000000 PA:0x80008e04
       12835000	      1282	8000570c	01e98933	add	x18,x19,x30	 x19:0x00000000 x30:0x800006e8 x18=0x800006e8
       12845000	      1283	80005710	03210523	sb	x18,42(x2)	  x2:0x80008e00 x18:0x800006e8 PA:0x80008e2a
       12855000	      1284	80005714	ac2de037	lui	x0,0xac2de	
       12865000	      1285	80005718	01c26463	bltu	x4,x28,80005720	  x4:0xa15edff4 x28:0x00000000
       12875000	      1286	8000571c	80390113	addi	x2,x18,-2045	 x18:0x800006e8  x2=0x7ffffeeb
       12885000	      1287	80005720	016fbeb3	sltu	x29,x31,x22	 x31:0x00000000 x22:0x00000100 x29=0x00000001
       12895000	      1288	80005724	0039f833	and	x16,x19,x3	 x19:0x00000000  x3:0x80009295 x16=0x00000000
       12905000	      1289	80005728	01995663	bge	x18,x25,80005734	 x18:0x800006e8 x25:0x00000000
       12915000	      1290	8000572c	00e125b3	slt	x11,x2,x14	  x2:0x7ffffeeb x14:0x00000000 x11=0x00000000
       12925000	      1291	80005730	63b76593	ori	x11,x14,1595	 x14:0x00000000 x11=0x0000063b
       12935000	      1292	80005734	01a5c6b3	xor	x13,x11,x26	 x11:0x0000063b x26:0x00000000 x13=0x0000063b
       12945000	      1293	80005738	4aaf7d93	andi	x27,x30,1194	 x30:0x800006e8 x27=0x000004a8
       12955000	      1294	8000573c	40535693	srai	x13,x6,0x5	  x6:0x00000000 x13=0x00000000
       12965000	      1295	80005740	00fa85b3	add	x11,x21,x15	 x21:0x00000000 x15:0xa15e4cb0 x11=0xa15e4cb0
       12975000	      1296	80005744	01ff9663	bne	x31,x31,80005750	 x31:0x00000000 x31:0x00000000
       12985000	      1297	80005748	3bbf8e37	lui	x28,0x3bbf8	 x28=0x3bbf8000
       12995000	      1298	8000574c	00b49493	slli	x9,x9,0xb	  x9:0xdf74d414  x9=0xa6a0a000
       13005000	      1299	80005750	00137533	and	x10,x6,x1	  x6:0x00000000  x1:0x000099f0 x10=0x00000000
       13015000	      1300	80005754	41f50333	sub	x6,x10,x31	 x10:0x00000000 x31:0x00000000  x6=0x00000000
       13025000	      1301	80005758	01275713	srli	x14,x14,0x12	 x14:0x00000000 x14=0x00000000
       13035000	      1302	8000575c	04884863	blt	x16,x8,800057ac	 x16:0x00000000  x8:0x80009f18
       13045000	      1303	80005760	40cc02b3	sub	x5,x24,x12	 x24:0x00000000 x12:0x578456e4  x5=0xa87ba91c
       13055000	      1304	80005764	01a47933	and	x18,x8,x26	  x8:0x80009f18 x26:0x00000000 x18=0x00000000
       13065000	      1305	80005768	508ba613	slti	x12,x23,1288	 x23:0x00000000 x12=0x00000001
       13075000	      1306	8000576c	01f3ed33	or	x26,x7,x31	  x7:0x80009fc4 x31:0x00000000 x26=0x80009fc4
       13085000	      1307	80005770	01df2e33	slt	x28,x30,x29	 x30:0x800006e8 x29:0x00000001 x28=0x00000001
       13095000	      1308	80005774	40c7d313	srai	x6,x15,0xc	 x15:0xa15e4cb0  x6=0xfffa15e4
       13105000	      1309	80005778	07ea1fb7	lui	x31,0x7ea1	 x31=0x07ea1000
       13115000	      1310	8000577c	01a6d593	srli	x11,x13,0x1a	 x13:0x00000000 x11=0x00000000
       13125000	      1311	80005780	7b36e313	ori	x6,x13,1971	 x13:0x00000000  x6=0x000007b3
       13135000	      1312	80005784	01443333	sltu	x6,x8,x20	  x8:0x80009f18 x20:0xa15e4cb0  x6=0x00000001
       13145000	      1313	80005788	0038ed33	or	x26,x17,x3	 x17:0x00000000  x3:0x80009295 x26=0x80009295
       13155000	      1314	8000578c	40d9d993	srai	x19,x19,0xd	 x19:0x00000000 x19=0x00000000
       13165000	      1315	80005790	0422e663	bltu	x5,x2,800057dc	  x5:0xa87ba91c  x2:0x7ffffeeb
       13175000	      1316	80005794	007252b3	srl	x5,x4,x7	  x4:0xa15edff4  x7:0x80009fc4  x5=0x0a15edff
       13185000	      1317	80005798	0121f733	and	x14,x3,x18	  x3:0x80009295 x18:0x00000000 x14=0x00000000
       13195000	      1318	8000579c	00d4c233	xor	x4,x9,x13	  x9:0xa6a0a000 x13:0x00000000  x4=0xa6a0a000
       13205000	      1319	800057a0	453a3813	sltiu	x16,x20,1107	 x20:0xa15e4cb0 x16=0x00000000
       13215000	      1320	800057a4	4105db33	sra	x22,x11,x16	 x11:0x00000000 x16:0x00000000 x22=0x00000000
       13225000	      1321	800057a8	000daab3	slt	x21,x27,x0	 x27:0x000004a8  x0:0x00000000 x21=0x00000000
       13235000	      1322	800057ac	f2be0d93	addi	x27,x28,-213	 x28:0x00000001 x27=0xffffff2c
       13245000	      1323	800057b0	d1cdda97	auipc	x21,0xd1cdd	 x21=0x51ce27ac
       13255000	      1324	800057b4	013909b3	add	x19,x18,x19	 x18:0x00000000 x19:0x00000000 x19=0x00000000
       13265000	      1325	800057b8	007709b3	add	x19,x14,x7	 x14:0x00000000  x7:0x80009fc4 x19=0x80009fc4
       13275000	      1326	800057bc	00c47e63	bgeu	x8,x12,800057d8	  x8:0x80009f18 x12:0x00000001
       13285000	      1327	00000000	00000013	addi	x0,x0,0	  x0:0x00000000
       13295000	      1328	800057d4	00000013	addi	x0,x0,0	  x0:0x00000000
       13305000	      1329	800057d8	00780e63	beq	x16,x7,800057f4	 x16:0x00000000  x7:0x80009fc4
       13315000	      1330	800057dc	407d0333	sub	x6,x26,x7	 x26:0x80009295  x7:0x80009fc4  x6=0xfffff2d1
       13325000	      1331	800057e0	9679e193	ori	x3,x19,-1689	 x19:0x80009fc4  x3=0xffffffe7
       13335000	      1332	800057e4	fc920713	addi	x14,x4,-55	  x4:0xa6a0a000 x14=0xa6a09fc9
       13345000	      1333	800057e8	01151213	slli	x4,x10,0x11	 x10:0x00000000  x4=0x00000000
       13355000	      1334	800057ec	9422af93	slti	x31,x5,-1726	  x5:0x0a15edff x31=0x00000000
       13365000	      1335	800057f0	00ce54b3	srl	x9,x28,x12	 x28:0x00000001 x12:0x00000001  x9=0x00000000
       13375000	      1336	800057f4	01405ab3	srl	x21,x0,x20	  x0:0x00000000 x20:0xa15e4cb0 x21=0x00000000
       13385000	      1337	800057f8	025b7e63	bgeu	x22,x5,80005834	 x22:0x00000000  x5:0x0a15edff
       13395000	      1338	800057fc	72a67f13	andi	x30,x12,1834	 x12:0x00000001 x30=0x00000000
       13405000	      1339	80005800	004d3ab3	sltu	x21,x26,x4	 x26:0x80009295  x4:0x00000000 x21=0x00000000
       13415000	      1340	80005804	00939663	bne	x7,x9,80005810	  x7:0x80009fc4  x9:0x00000000
       13425000	      1341	00000000	00000013	addi	x0,x0,0	  x0:0x00000000
       13435000	      1342	8000580c	00000013	addi	x0,x0,0	  x0:0x00000000
       13445000	      1343	80005810	01e89033	sll	x0,x17,x30	 x17:0x00000000 x30:0x00000000
       13455000	      1344	80005814	e959e593	ori	x11,x19,-363	 x19:0x80009fc4 x11=0xffffffd5
       13465000	      1345	80005818	00b6e033	or	x0,x13,x11	 x13:0x00000000 x11:0xffffffd5
       13475000	      1346	8000581c	45116913	ori	x18,x2,1105	  x2:0x7ffffeeb x18=0x7ffffefb
       13485000	      1347	80005820	47812117	auipc	x2,0x47812	  x2=0xc781781c
       13495000	      1348	80005824	b8c8e613	ori	x12,x17,-1140	 x17:0x00000000 x12=0xfffffb8c
       13505000	      1349	80005828	010f5733	srl	x14,x30,x16	 x30:0x00000000 x16:0x00000000 x14=0x00000000
       13515000	      1350	8000582c	008dd193	srli	x3,x27,0x8	 x27:0xffffff2c  x3=0x00ffffff
       13525000	      1351	80005830	01056eb3	or	x29,x10,x16	 x10:0x00000000 x16:0x00000000 x29=0x00000000
       13535000	      1352	80005834	016322b3	slt	x5,x6,x22	  x6:0xfffff2d1 x22:0x00000000  x5=0x00000001
       13545000	      1353	80005838	003d3e33	sltu	x28,x26,x3	 x26:0x80009295  x3:0x00ffffff x28=0x00000000
       13555000	      1354	8000583c	00000013	addi	x0,x0,0	  x0:0x00000000
       13565000	      1355	80005840	02e39e63	bne	x7,x14,8000587c	  x7:0x80009fc4 x14:0x00000000
       13575000	      1356	00000000	00000013	addi	x0,x0,0	  x0:0x00000000
       13585000	      1357	80005878	00000013	addi	x0,x0,0	  x0:0x00000000
       13595000	      1358	8000587c	417054b3	sra	x9,x0,x23	  x0:0x00000000 x23:0x00000000  x9=0x00000000
       13605000	      1359	80005880	04c34463	blt	x6,x12,800058c8	  x6:0xfffff2d1 x12:0xfffffb8c
       13615000	      1360	00000000	00000013	addi	x0,x0,0	  x0:0x00000000
       13625000	      1361	800058c4	00000013	addi	x0,x0,0	  x0:0x00000000
       13635000	      1362	800058c8	41e50b33	sub	x22,x10,x30	 x10:0x00000000 x30:0x00000000 x22=0x00000000
       13645000	      1363	800058cc	04fba297	auipc	x5,0x4fba	  x5=0x84fbf8c8
       13655000	      1364	800058d0	4db86913	ori	x18,x16,1243	 x16:0x00000000 x18=0x000004db
       13665000	      1365	800058d4	0921c313	xori	x6,x3,146	  x3:0x00ffffff  x6=0x00ffff6d
       13675000	      1366	800058d8	0240d863	bge	x1,x4,80005908	  x1:0x000099f0  x4:0x00000000
       13685000	      1367	00000000	00000013	addi	x0,x0,0	  x0:0x00000000
       13695000	      1368	80005904	00000013	addi	x0,x0,0	  x0:0x00000000
       13705000	      1369	80005908	f15b9717	auipc	x14,0xf15b9	 x14=0x715be904
       13715000	      1370	8000590c	14b1fbb7	lui	x23,0x14b1f	 x23=0x14b1f000
       13725000	      1371	80005910	e4650013	addi	x0,x10,-442	 x10:0x00000000
       13735000	      1372	80005914	58cb4813	xori	x16,x22,1420	 x22:0x00000000 x16=0x0000058c
       13745000	      1373	80005918	ef0de493	ori	x9,x27,-272	 x27:0xffffff2c  x9=0xfffffffc
       13755000	      1374	8000591c	624f2597	auipc	x11,0x624f2	 x11=0xe24f7918
       13765000	      1375	80005920	01633333	sltu	x6,x6,x22	  x6:0x00ffff6d x22:0x00000000  x6=0x00000000
       13775000	      1376	80005924	40b650b3	sra	x1,x12,x11	 x12:0xfffffb8c x11:0xe24f7918  x1=0xffffffff
       13785000	      1377	80005928	5a73b797	auipc	x15,0x5a73b	 x15=0xda740924
       13795000	      1378	8000592c	00f9b1b3	sltu	x3,x19,x15	 x19:0x80009fc4 x15:0xda740924  x3=0x00000001
       13805000	      1379	80005930	00033633	sltu	x12,x6,x0	  x6:0x00000000  x0:0x00000000 x12=0x00000000
       13815000	      1380	80005934	61ea42b7	lui	x5,0x61ea4	  x5=0x61ea4000
       13825000	      1381	80005938	00b0d6b3	srl	x13,x1,x11	  x1:0xffffffff x11:0xe24f7918 x13=0x000000ff
       13835000	      1382	8000593c	3769ca93	xori	x21,x19,886	 x19:0x80009fc4 x21=0x80009cb2
       13845000	      1383	80005940	01c97a63	bgeu	x18,x28,80005954	 x18:0x000004db x28:0x00000000
       13855000	      1384	00000000	00000013	addi	x0,x0,0	  x0:0x00000000
       13865000	      1385	80005950	00000013	addi	x0,x0,0	  x0:0x00000000
       13875000	      1386	80005954	0471f263	bgeu	x3,x7,80005998	  x3:0x00000001  x7:0x80009fc4
       13885000	      1387	80005958	e227bf93	sltiu	x31,x15,-478	 x15:0xda740924 x31=0x00000001
       13895000	      1388	8000595c	0028e1b3	or	x3,x17,x2	 x17:0x00000000  x2:0xc781781c  x3=0xc781781c
       13905000	      1389	80005960	82128c13	addi	x24,x5,-2015	  x5:0x61ea4000 x24=0x61ea3821
       13915000	      1390	80005964	00c8de63	bge	x17,x12,80005980	 x17:0x00000000 x12:0x00000000
       13925000	      1391	00000000	00000013	addi	x0,x0,0	  x0:0x00000000
       13935000	      1392	8000597c	00000013	addi	x0,x0,0	  x0:0x00000000
       13945000	      1393	80005980	01509e93	slli	x29,x1,0x15	  x1:0xffffffff x29=0xffe00000
       13955000	      1394	80005984	04c2e463	bltu	x5,x12,800059cc	  x5:0x61ea4000 x12:0x00000000
       13965000	      1395	80005988	011ce733	or	x14,x25,x17	 x25:0x00000000 x17:0x00000000 x14=0x00000000
       13975000	      1396	8000598c	409a08b3	sub	x17,x20,x9	 x20:0xa15e4cb0  x9:0xfffffffc x17=0xa15e4cb4
       13985000	      1397	80005990	b8ffec93	ori	x25,x31,-1137	 x31:0x00000001 x25=0xfffffb8f
       13995000	      1398	80005994	b8006d13	ori	x26,x0,-1152	  x0:0x00000000 x26=0xfffffb80
       14005000	      1399	80005998	2396b593	sltiu	x11,x13,569	 x13:0x000000ff x11=0x00000001
       14015000	      1400	8000599c	dd77b213	sltiu	x4,x15,-553	 x15:0xda740924  x4=0x00000001
       14025000	      1401	800059a0	5314f113	andi	x2,x9,1329	  x9:0xfffffffc  x2=0x00000530
       14035000	      1402	800059a4	00640b33	add	x22,x8,x6	  x8:0x80009f18  x6:0x00000000 x22=0x80009f18
       14045000	      1403	800059a8	0074f033	and	x0,x9,x7	  x9:0xfffffffc  x7:0x80009fc4
       14055000	      1404	800059ac	01a4a7b3	slt	x15,x9,x26	  x9:0xfffffffc x26:0xfffffb80 x15=0x00000000
       14065000	      1405	800059b0	41e004b3	sub	x9,x0,x30	  x0:0x00000000 x30:0x00000000  x9=0x00000000
       14075000	      1406	800059b4	00000013	addi	x0,x0,0	  x0:0x00000000
       14085000	      1407	800059b8	000b4133	xor	x2,x22,x0	 x22:0x80009f18  x0:0x00000000  x2=0x80009f18
       14095000	      1408	800059bc	0004e933	or	x18,x9,x0	  x9:0x00000000  x0:0x00000000 x18=0x00000000
       14105000	      1409	800059c0	819fc193	xori	x3,x31,-2023	 x31:0x00000001  x3=0xfffff818
       14115000	      1410	800059c4	00000013	addi	x0,x0,0	  x0:0x00000000
       14125000	      1411	800059c8	05ab8263	beq	x23,x26,80005a0c	 x23:0x14b1f000 x26:0xfffffb80
       14135000	      1412	800059cc	01869e13	slli	x28,x13,0x18	 x13:0x000000ff x28=0xff000000
       14145000	      1413	800059d0	001ad663	bge	x21,x1,800059dc	 x21:0x80009cb2  x1:0xffffffff
       14155000	      1414	800059d4	0500c663	blt	x1,x16,80005a20	  x1:0xffffffff x16:0x0000058c
       14165000	      1415	00000000	00000013	addi	x0,x0,0	  x0:0x00000000
       14175000	      1416	80005a1c	00000013	addi	x0,x0,0	  x0:0x00000000
       14185000	      1417	80005a20	00b6aab3	slt	x21,x13,x11	 x13:0x000000ff x11:0x00000001 x21=0x00000000
       14195000	      1418	80005a24	020ee863	bltu	x29,x0,80005a54	 x29:0xffe00000  x0:0x00000000
       14205000	      1419	80005a28	f4b63137	lui	x2,0xf4b63	  x2=0xf4b63000
       14215000	      1420	80005a2c	00945913	srli	x18,x8,0x9	  x8:0x80009f18 x18=0x0040004f
       14225000	      1421	80005a30	030ed663	bge	x29,x16,80005a5c	 x29:0xffe00000 x16:0x0000058c
       14235000	      1422	80005a34	413cd4b3	sra	x9,x25,x19	 x25:0xfffffb8f x19:0x80009fc4  x9=0xffffffb8
       14245000	      1423	80005a38	012087b3	add	x15,x1,x18	  x1:0xffffffff x18:0x0040004f x15=0x0040004e
       14255000	      1424	80005a3c	412902b3	sub	x5,x18,x18	 x18:0x0040004f x18:0x0040004f  x5=0x00000000
       14265000	      1425	80005a40	00ab8863	beq	x23,x10,80005a50	 x23:0x14b1f000 x10:0x00000000
       14275000	      1426	80005a44	00052733	slt	x14,x10,x0	 x10:0x00000000  x0:0x00000000 x14=0x00000000
       14285000	      1427	80005a48	007c2cb3	slt	x25,x24,x7	 x24:0x61ea3821  x7:0x80009fc4 x25=0x00000000
       14295000	      1428	80005a4c	cac35a97	auipc	x21,0xcac35	 x21=0x4ac3aa48
       14305000	      1429	80005a50	04b4c063	blt	x9,x11,80005a90	  x9:0xffffffb8 x11:0x00000001
       14315000	      1430	00000000	00000013	addi	x0,x0,0	  x0:0x00000000
       14325000	      1431	80005a8c	00000013	addi	x0,x0,0	  x0:0x00000000
       14335000	      1432	80005a90	02b98e63	beq	x19,x11,80005acc	 x19:0x80009fc4 x11:0x00000001
       14345000	      1433	80005a94	f8af6d13	ori	x26,x30,-118	 x30:0x00000000 x26=0xffffff8a
       14355000	      1434	80005a98	0156a933	slt	x18,x13,x21	 x13:0x000000ff x21:0x4ac3aa48 x18=0x00000001
       14365000	      1435	80005a9c	01389033	sll	x0,x17,x19	 x17:0xa15e4cb4 x19:0x80009fc4
       14375000	      1436	80005aa0	01105e63	bge	x0,x17,80005abc	  x0:0x00000000 x17:0xa15e4cb4
       14385000	      1437	00000000	00000013	addi	x0,x0,0	  x0:0x00000000
       14395000	      1438	80005ab8	00000013	addi	x0,x0,0	  x0:0x00000000
       14405000	      1439	80005abc	40a484b3	sub	x9,x9,x10	  x9:0xffffffb8 x10:0x00000000  x9=0xffffffb8
       14415000	      1440	80005ac0	011bc9b3	xor	x19,x23,x17	 x23:0x14b1f000 x17:0xa15e4cb4 x19=0xb5efbcb4
       14425000	      1441	80005ac4	0076e933	or	x18,x13,x7	 x13:0x000000ff  x7:0x80009fc4 x18=0x80009fff
       14435000	      1442	80005ac8	51ecb017	auipc	x0,0x51ecb	
       14445000	      1443	80005acc	030cde63	bge	x25,x16,80005b08	 x25:0x00000000 x16:0x0000058c
       14455000	      1444	80005ad0	03480063	beq	x16,x20,80005af0	 x16:0x0000058c x20:0xa15e4cb0
       14465000	      1445	80005ad4	010ffe63	bgeu	x31,x16,80005af0	 x31:0x00000001 x16:0x0000058c
       14475000	      1446	80005ad8	03dd9e63	bne	x27,x29,80005b14	 x27:0xffffff2c x29:0xffe00000
       14485000	      1447	00000000	00000013	addi	x0,x0,0	  x0:0x00000000
       14495000	      1448	80005b10	00000013	addi	x0,x0,0	  x0:0x00000000
       14505000	      1449	80005b14	0058e4b3	or	x9,x17,x5	 x17:0xa15e4cb4  x5:0x00000000  x9=0xa15e4cb4
       14515000	      1450	80005b18	77a92913	slti	x18,x18,1914	 x18:0x80009fff x18=0x00000001
       14525000	      1451	80005b1c	01c7f663	bgeu	x15,x28,80005b28	 x15:0x0040004e x28:0xff000000
       14535000	      1452	80005b20	0439f663	bgeu	x19,x3,80005b6c	 x19:0xb5efbcb4  x3:0xfffff818
       14545000	      1453	80005b24	00291233	sll	x4,x18,x2	 x18:0x00000001  x2:0xf4b63000  x4=0x00000001
       14555000	      1454	80005b28	0acec093	xori	x1,x29,172	 x29:0xffe00000  x1=0xffe000ac
       14565000	      1455	80005b2c	6045a817	auipc	x16,0x6045a	 x16=0xe045fb28
       14575000	      1456	80005b30	e9da2d17	auipc	x26,0xe9da2	 x26=0x69da7b2c
       14585000	      1457	80005b34	04df7463	bgeu	x30,x13,80005b7c	 x30:0x00000000 x13:0x000000ff
       14595000	      1458	80005b38	02f0f063	bgeu	x1,x15,80005b58	  x1:0xffe000ac x15:0x0040004e
       14605000	      1459	00000000	00000013	addi	x0,x0,0	  x0:0x00000000
       14615000	      1460	80005b54	00000013	addi	x0,x0,0	  x0:0x00000000
       14625000	      1461	80005b58	00000013	addi	x0,x0,0	  x0:0x00000000
       14635000	      1462	80005b5c	0148f8b3	and	x17,x17,x20	 x17:0xa15e4cb4 x20:0xa15e4cb0 x17=0xa15e4cb0
       14645000	      1463	80005b60	25da7937	lui	x18,0x25da7	 x18=0x25da7000
       14655000	      1464	80005b64	40ef8eb3	sub	x29,x31,x14	 x31:0x00000001 x14:0x00000000 x29=0x00000001
       14665000	      1465	80005b68	03f04c63	blt	x0,x31,80005ba0	  x0:0x00000000 x31:0x00000001
       14675000	      1466	00000000	00000013	addi	x0,x0,0	  x0:0x00000000
       14685000	      1467	80005b9c	00000013	addi	x0,x0,0	  x0:0x00000000
       14695000	      1468	80005ba0	5d97f193	andi	x3,x15,1497	 x15:0x0040004e  x3=0x00000048
       14705000	      1469	80005ba4	003e9e63	bne	x29,x3,80005bc0	 x29:0x00000001  x3:0x00000048
       14715000	      1470	00000000	00000013	addi	x0,x0,0	  x0:0x00000000
       14725000	      1471	80005bbc	00000013	addi	x0,x0,0	  x0:0x00000000
       14735000	      1472	80005bc0	00000013	addi	x0,x0,0	  x0:0x00000000
       14745000	      1473	80005bc4	02cc9663	bne	x25,x12,80005bf0	 x25:0x00000000 x12:0x00000000
       14755000	      1474	80005bc8	00000013	addi	x0,x0,0	  x0:0x00000000
       14765000	      1475	80005bcc	0138a0b3	slt	x1,x17,x19	 x17:0xa15e4cb0 x19:0xb5efbcb4  x1=0x00000001
       14775000	      1476	80005bd0	0057fc33	and	x24,x15,x5	 x15:0x0040004e  x5:0x00000000 x24=0x00000000
       14785000	      1477	80005bd4	400d5113	srai	x2,x26,0x0	 x26:0x69da7b2c  x2=0x69da7b2c
       14795000	      1478	80005bd8	00000013	addi	x0,x0,0	  x0:0x00000000
       14805000	      1479	80005bdc	ba83e817	auipc	x16,0xba83e	 x16=0x3a843bd8
       14815000	      1480	80005be0	c5287693	andi	x13,x16,-942	 x16:0x3a843bd8 x13=0x3a843850
       14825000	      1481	80005be4	02fae663	bltu	x21,x15,80005c10	 x21:0x4ac3aa48 x15:0x0040004e
       14835000	      1482	80005be8	0057f663	bgeu	x15,x5,80005bf4	 x15:0x0040004e  x5:0x00000000
       14845000	      1483	00000000	00000013	addi	x0,x0,0	  x0:0x00000000
       14855000	      1484	80005bf0	00000013	addi	x0,x0,0	  x0:0x00000000
       14865000	      1485	80005bf4	03066e63	bltu	x12,x16,80005c30	 x12:0x00000000 x16:0x3a843bd8
       14875000	      1486	00000000	00000013	addi	x0,x0,0	  x0:0x00000000
       14885000	      1487	80005c2c	00000013	addi	x0,x0,0	  x0:0x00000000
       14895000	      1488	80005c30	bb066d13	ori	x26,x12,-1104	 x12:0x00000000 x26=0xfffffbb0
       14905000	      1489	80005c34	0070d4b3	srl	x9,x1,x7	  x1:0x00000001  x7:0x80009fc4  x9=0x00000000
       14915000	      1490	80005c38	e6b9f813	andi	x16,x19,-405	 x19:0xb5efbcb4 x16=0xb5efbc20
       14925000	      1491	80005c3c	00000013	addi	x0,x0,0	  x0:0x00000000
       14935000	      1492	80005c40	0fedaf13	slti	x30,x27,254	 x27:0xffffff2c x30=0x00000001
       14945000	      1493	80005c44	0065dd33	srl	x26,x11,x6	 x11:0x00000001  x6:0x00000000 x26=0x00000001
       14955000	      1494	80005c48	41745593	srai	x11,x8,0x17	  x8:0x80009f18 x11=0xffffff00
       14965000	      1495	80005c4c	87e17013	andi	x0,x2,-1922	  x2:0x69da7b2c
       14975000	      1496	80005c50	01228933	add	x18,x5,x18	  x5:0x00000000 x18:0x25da7000 x18=0x25da7000
       14985000	      1497	80005c54	4092d893	srai	x17,x5,0x9	  x5:0x00000000 x17=0x00000000
       14995000	      1498	80005c58	009055b3	srl	x11,x0,x9	  x0:0x00000000  x9:0x00000000 x11=0x00000000
       15005000	      1499	80005c5c	00aa5663	bge	x20,x10,80005c68	 x20:0xa15e4cb0 x10:0x00000000
       15015000	      1500	80005c60	0130c5b3	xor	x11,x1,x19	  x1:0x00000001 x19:0xb5efbcb4 x11=0xb5efbcb5
       15025000	      1501	80005c64	004e18b3	sll	x17,x28,x4	 x28:0xff000000  x4:0x00000001 x17=0xfe000000
       15035000	      1502	80005c68	0080ee63	bltu	x1,x8,80005c84	  x1:0x00000001  x8:0x80009f18
       15045000	      1503	00000000	00000013	addi	x0,x0,0	  x0:0x00000000
       15055000	      1504	80005c80	00000013	addi	x0,x0,0	  x0:0x00000000
       15065000	      1505	80005c84	01fac933	xor	x18,x21,x31	 x21:0x4ac3aa48 x31:0x00000001 x18=0x4ac3aa49
       15075000	      1506	80005c88	01e5d593	srli	x11,x11,0x1e	 x11:0xb5efbcb5 x11=0x00000002
       15085000	      1507	80005c8c	bcc86e13	ori	x28,x16,-1076	 x16:0xb5efbc20 x28=0xffffffec
       15095000	      1508	80005c90	fd392913	slti	x18,x18,-45	 x18:0x4ac3aa49 x18=0x00000000
       15105000	      1509	80005c94	038e0e63	beq	x28,x24,80005cd0	 x28:0xffffffec x24:0x00000000
       15115000	      1510	80005c98	056d8263	beq	x27,x22,80005cdc	 x27:0xffffff2c x22:0x80009f18
       15125000	      1511	80005c9c	a58eb213	sltiu	x4,x29,-1448	 x29:0x00000001  x4=0x00000001
       15135000	      1512	80005ca0	00656a63	bltu	x10,x6,80005cb4	 x10:0x00000000  x6:0x00000000
       15145000	      1513	80005ca4	01416cb3	or	x25,x2,x20	  x2:0x69da7b2c x20:0xa15e4cb0 x25=0xe9de7fbc
       15155000	      1514	80005ca8	03a66063	bltu	x12,x26,80005cc8	 x12:0x00000000 x26:0x00000001
       15165000	      1515	00000000	00000013	addi	x0,x0,0	  x0:0x00000000
       15175000	      1516	80005cc4	00000013	addi	x0,x0,0	  x0:0x00000000
       15185000	      1517	80005cc8	00000013	addi	x0,x0,0	  x0:0x00000000
       15195000	      1518	80005ccc	00a108b3	add	x17,x2,x10	  x2:0x69da7b2c x10:0x00000000 x17=0x69da7b2c
       15205000	      1519	80005cd0	8cccbe13	sltiu	x28,x25,-1844	 x25:0xe9de7fbc x28=0x00000001
       15215000	      1520	80005cd4	00c291b3	sll	x3,x5,x12	  x5:0x00000000 x12:0x00000000  x3=0x00000000
       15225000	      1521	80005cd8	89d84493	xori	x9,x16,-1891	 x16:0xb5efbc20  x9=0x4a1044bd
       15235000	      1522	80005cdc	0182d893	srli	x17,x5,0x18	  x5:0x00000000 x17=0x00000000
       15245000	      1523	80005ce0	017d7833	and	x16,x26,x23	 x26:0x00000001 x23:0x14b1f000 x16=0x00000000
       15255000	      1524	80005ce4	cf98cd93	xori	x27,x17,-775	 x17:0x00000000 x27=0xfffffcf9
       15265000	      1525	80005ce8	019f0733	add	x14,x30,x25	 x30:0x00000001 x25:0xe9de7fbc x14=0xe9de7fbd
       15275000	      1526	80005cec	41a35593	srai	x11,x6,0x1a	  x6:0x00000000 x11=0x00000000
       15285000	      1527	80005cf0	3cbe4c13	xori	x24,x28,971	 x28:0x00000001 x24=0x000003ca
       15295000	      1528	80005cf4	8ec37f13	andi	x30,x6,-1812	  x6:0x00000000 x30=0x00000000
       15305000	      1529	80005cf8	0178bb13	sltiu	x22,x17,23	 x17:0x00000000 x22=0x00000001
       15315000	      1530	80005cfc	01d44db3	xor	x27,x8,x29	  x8:0x80009f18 x29:0x00000001 x27=0x80009f19
       15325000	      1531	80005d00	01bf1f33	sll	x30,x30,x27	 x30:0x00000000 x27:0x80009f19 x30=0x00000000
       15335000	      1532	80005d04	01469913	slli	x18,x13,0x14	 x13:0x3a843850 x18=0x85000000
       15345000	      1533	80005d08	03ed9a63	bne	x27,x30,80005d3c	 x27:0x80009f19 x30:0x00000000
       15355000	      1534	00000000	00000013	addi	x0,x0,0	  x0:0x00000000
       15365000	      1535	80005d38	00000013	addi	x0,x0,0	  x0:0x00000000
       15375000	      1536	80005d3c	0186bd33	sltu	x26,x13,x24	 x13:0x3a843850 x24:0x000003ca x26=0x00000000
       15385000	      1537	80005d40	00b9a313	slti	x6,x19,11	 x19:0xb5efbcb4  x6=0x00000001
       15395000	      1538	80005d44	03717863	bgeu	x2,x23,80005d74	  x2:0x69da7b2c x23:0x14b1f000
       15405000	      1539	00000000	00000013	addi	x0,x0,0	  x0:0x00000000
       15415000	      1540	80005d70	00000013	addi	x0,x0,0	  x0:0x00000000
       15425000	      1541	80005d74	8b366a93	ori	x21,x12,-1869	 x12:0x00000000 x21=0xfffff8b3
       15435000	      1542	80005d78	411ad233	sra	x4,x21,x17	 x21:0xfffff8b3 x17:0x00000000  x4=0xfffff8b3
       15445000	      1543	80005d7c	012b1013	slli	x0,x22,0x12	 x22:0x00000001
       15455000	      1544	80005d80	00b26c33	or	x24,x4,x11	  x4:0xfffff8b3 x11:0x00000000 x24=0xfffff8b3
       15465000	      1545	80005d84	006d0663	beq	x26,x6,80005d90	 x26:0x00000000  x6:0x00000001
       15475000	      1546	80005d88	00ab6033	or	x0,x22,x10	 x22:0x00000001 x10:0x00000000
       15485000	      1547	80005d8c	fbf64293	xori	x5,x12,-65	 x12:0x00000000  x5=0xffffffbf
       15495000	      1548	80005d90	006f4e63	blt	x30,x6,80005dac	 x30:0x00000000  x6:0x00000001
       15505000	      1549	00000000	00000013	addi	x0,x0,0	  x0:0x00000000
       15515000	      1550	80005da8	00000013	addi	x0,x0,0	  x0:0x00000000
       15525000	      1551	80005dac	0315e063	bltu	x11,x17,80005dcc	 x11:0x00000000 x17:0x00000000
       15535000	      1552	80005db0	40808d33	sub	x26,x1,x8	  x1:0x00000001  x8:0x80009f18 x26=0x7fff60e9
       15545000	      1553	80005db4	8b5a3713	sltiu	x14,x20,-1867	 x20:0xa15e4cb0 x14=0x00000001
       15555000	      1554	80005db8	05216863	bltu	x2,x18,80005e08	  x2:0x69da7b2c x18:0x85000000
       15565000	      1555	00000000	00000013	addi	x0,x0,0	  x0:0x00000000
       15575000	      1556	80005e04	00000013	addi	x0,x0,0	  x0:0x00000000
       15585000	      1557	80005e08	01476863	bltu	x14,x20,80005e18	 x14:0x00000001 x20:0xa15e4cb0
       15595000	      1558	00000000	00000013	addi	x0,x0,0	  x0:0x00000000
       15605000	      1559	80005e14	00000013	addi	x0,x0,0	  x0:0x00000000
       15615000	      1560	80005e18	00215e93	srli	x29,x2,0x2	  x2:0x69da7b2c x29=0x1a769ecb
       15625000	      1561	80005e1c	00000013	addi	x0,x0,0	  x0:0x00000000
       15635000	      1562	80005e20	01fd4663	blt	x26,x31,80005e2c	 x26:0x7fff60e9 x31:0x00000001
       15645000	      1563	80005e24	0054d493	srli	x9,x9,0x5	  x9:0x4a1044bd  x9=0x02508225
       15655000	      1564	80005e28	1389f2b7	lui	x5,0x1389f	  x5=0x1389f000
       15665000	      1565	80005e2c	018eee63	bltu	x29,x24,80005e48	 x29:0x1a769ecb x24:0xfffff8b3
       15675000	      1566	00000000	00000013	addi	x0,x0,0	  x0:0x00000000
       15685000	      1567	80005e44	00000013	addi	x0,x0,0	  x0:0x00000000
       15695000	      1568	80005e48	057f1463	bne	x30,x23,80005e90	 x30:0x00000000 x23:0x14b1f000
       15705000	      1569	00000000	00000013	addi	x0,x0,0	  x0:0x00000000
       15715000	      1570	80005e8c	00000013	addi	x0,x0,0	  x0:0x00000000
       15725000	      1571	80005e90	40d505b3	sub	x11,x10,x13	 x10:0x00000000 x13:0x3a843850 x11=0xc57bc7b0
       15735000	      1572	80005e94	01af77b3	and	x15,x30,x26	 x30:0x00000000 x26:0x7fff60e9 x15=0x00000000
       15745000	      1573	80005e98	417286b3	sub	x13,x5,x23	  x5:0x1389f000 x23:0x14b1f000 x13=0xfed80000
       15755000	      1574	80005e9c	03b94e63	blt	x18,x27,80005ed8	 x18:0x85000000 x27:0x80009f19
       15765000	      1575	80005ea0	34b64113	xori	x2,x12,843	 x12:0x00000000  x2=0x0000034b
       15775000	      1576	80005ea4	00545013	srli	x0,x8,0x5	  x8:0x80009f18
       15785000	      1577	80005ea8	0097d833	srl	x16,x15,x9	 x15:0x00000000  x9:0x02508225 x16=0x00000000
       15795000	      1578	80005eac	04574263	blt	x14,x5,80005ef0	 x14:0x00000001  x5:0x1389f000
       15805000	      1579	00000000	00000013	addi	x0,x0,0	  x0:0x00000000
       15815000	      1580	80005eec	00000013	addi	x0,x0,0	  x0:0x00000000
       15825000	      1581	80005ef0	40010033	sub	x0,x2,x0	  x2:0x0000034b  x0:0x00000000
       15835000	      1582	80005ef4	010efa63	bgeu	x29,x16,80005f08	 x29:0x1a769ecb x16:0x00000000
       15845000	      1583	00000000	00000013	addi	x0,x0,0	  x0:0x00000000
       15855000	      1584	80005f04	00000013	addi	x0,x0,0	  x0:0x00000000
       15865000	      1585	80005f08	02f2da63	bge	x5,x15,80005f3c	  x5:0x1389f000 x15:0x00000000
       15875000	      1586	00000000	00000013	addi	x0,x0,0	  x0:0x00000000
       15885000	      1587	80005f38	00000013	addi	x0,x0,0	  x0:0x00000000
       15895000	      1588	80005f3c	012c2633	slt	x12,x24,x18	 x24:0xfffff8b3 x18:0x85000000 x12=0x00000000
       15905000	      1589	80005f40	3e513e13	sltiu	x28,x2,997	  x2:0x0000034b x28=0x00000001
       15915000	      1590	80005f44	7cc6f693	andi	x13,x13,1996	 x13:0xfed80000 x13=0x00000000
       15925000	      1591	80005f48	0022fd33	and	x26,x5,x2	  x5:0x1389f000  x2:0x0000034b x26=0x00000000
       15935000	      1592	80005f4c	019019b3	sll	x19,x0,x25	  x0:0x00000000 x25:0xe9de7fbc x19=0x00000000
       15945000	      1593	80005f50	011d4733	xor	x14,x26,x17	 x26:0x00000000 x17:0x00000000 x14=0x00000000
       15955000	      1594	80005f54	00b55033	srl	x0,x10,x11	 x10:0x00000000 x11:0xc57bc7b0
       15965000	      1595	80005f58	01d32cb3	slt	x25,x6,x29	  x6:0x00000001 x29:0x1a769ecb x25=0x00000001
       15975000	      1596	80005f5c	05b45263	bge	x8,x27,80005fa0	  x8:0x80009f18 x27:0x80009f19
       15985000	      1597	80005f60	57560c93	addi	x25,x12,1397	 x12:0x00000000 x25=0x00000575
       15995000	      1598	80005f64	b5740693	addi	x13,x8,-1193	  x8:0x80009f18 x13=0x80009a6f
       16005000	      1599	80005f68	41ded113	srai	x2,x29,0x1d	 x29:0x1a769ecb  x2=0x00000000
       16015000	      1600	80005f6c	d4527793	andi	x15,x4,-699	  x4:0xfffff8b3 x15=0xfffff801
       16025000	      1601	80005f70	05600063	beq	x0,x22,80005fb0	  x0:0x00000000 x22:0x00000001
       16035000	      1602	80005f74	00377e33	and	x28,x14,x3	 x14:0x00000000  x3:0x00000000 x28=0x00000000
       16045000	      1603	80005f78	00bdc333	xor	x6,x27,x11	 x27:0x80009f19 x11:0xc57bc7b0  x6=0x457b58a9
       16055000	      1604	80005f7c	045a1463	bne	x20,x5,80005fc4	 x20:0xa15e4cb0  x5:0x1389f000
       16065000	      1605	00000000	00000013	addi	x0,x0,0	  x0:0x00000000
       16075000	      1606	80005fc0	00000013	addi	x0,x0,0	  x0:0x00000000
       16085000	      1607	80005fc4	01cbdd93	srli	x27,x23,0x1c	 x23:0x14b1f000 x27=0x00000001
       16095000	      1608	80005fc8	4088de13	srai	x28,x17,0x8	 x17:0x00000000 x28=0x00000000
       16105000	      1609	80005fcc	41380333	sub	x6,x16,x19	 x16:0x00000000 x19:0x00000000  x6=0x00000000
       16115000	      1610	80005fd0	01bd4f33	xor	x30,x26,x27	 x26:0x00000000 x27:0x00000001 x30=0x00000001
       16125000	      1611	80005fd4	05668263	beq	x13,x22,80006018	 x13:0x80009a6f x22:0x00000001
       16135000	      1612	80005fd8	832bc013	xori	x0,x23,-1998	 x23:0x14b1f000
       16145000	      1613	80005fdc	00d201b3	add	x3,x4,x13	  x4:0xfffff8b3 x13:0x80009a6f  x3=0x80009322
       16155000	      1614	80005fe0	71c54893	xori	x17,x10,1820	 x10:0x00000000 x17=0x0000071c
       16165000	      1615	80005fe4	0040e733	or	x14,x1,x4	  x1:0x00000001  x4:0xfffff8b3 x14=0xfffff8b3
       16175000	      1616	80005fe8	b4952893	slti	x17,x10,-1207	 x10:0x00000000 x17=0x00000000
       16185000	      1617	80005fec	02674a63	blt	x14,x6,80006020	 x14:0xfffff8b3  x6:0x00000000
       16195000	      1618	00000000	00000013	addi	x0,x0,0	  x0:0x00000000
       16205000	      1619	8000601c	00000013	addi	x0,x0,0	  x0:0x00000000
       16215000	      1620	80006020	032c4e63	blt	x24,x18,8000605c	 x24:0xfffff8b3 x18:0x85000000
       16225000	      1621	80006024	41965c33	sra	x24,x12,x25	 x12:0x00000000 x25:0x00000575 x24=0x00000000
       16235000	      1622	80006028	7cade697	auipc	x13,0x7cade	 x13=0xfcae4024
       16245000	      1623	8000602c	bef2feb7	lui	x29,0xbef2f	 x29=0xbef2f000
       16255000	      1624	80006030	016a4033	xor	x0,x20,x22	 x20:0xa15e4cb0 x22:0x00000001
       16265000	      1625	80006034	41bd8133	sub	x2,x27,x27	 x27:0x00000001 x27:0x00000001  x2=0x00000000
       16275000	      1626	80006038	9824f293	andi	x5,x9,-1662	  x9:0x02508225  x5=0x02508000
       16285000	      1627	8000603c	1a596c13	ori	x24,x18,421	 x18:0x85000000 x24=0x850001a5
       16295000	      1628	80006040	00000013	addi	x0,x0,0	  x0:0x00000000
       16305000	      1629	80006044	41e6d333	sra	x6,x13,x30	 x13:0xfcae4024 x30:0x00000001  x6=0xfe572012
       16315000	      1630	80006048	877ec897	auipc	x17,0x877ec	 x17=0x077f2044
       16325000	      1631	8000604c	015dceb3	xor	x29,x27,x21	 x27:0x00000001 x21:0xfffff8b3 x29=0xfffff8b2
       16335000	      1632	80006050	a6882093	slti	x1,x16,-1432	 x16:0x00000000  x1=0x00000000
       16345000	      1633	80006054	00d03833	sltu	x16,x0,x13	  x0:0x00000000 x13:0xfcae4024 x16=0x00000001
       16355000	      1634	80006058	01028033	add	x0,x5,x16	  x5:0x02508000 x16:0x00000001
       16365000	      1635	8000605c	9b6d8f97	auipc	x31,0x9b6d8	 x31=0x1b6de058
       16375000	      1636	80006060	00000013	addi	x0,x0,0	  x0:0x00000000
       16385000	      1637	80006064	84f6b793	sltiu	x15,x13,-1969	 x13:0xfcae4024 x15=0x00000001
       16395000	      1638	80006068	001dffb3	and	x31,x27,x1	 x27:0x00000001  x1:0x00000000 x31=0x00000000
       16405000	      1639	8000606c	02136063	bltu	x6,x1,8000608c	  x6:0xfe572012  x1:0x00000000
       16415000	      1640	80006070	a2a9e093	ori	x1,x19,-1494	 x19:0x00000000  x1=0xfffffa2a
       16425000	      1641	80006074	03ef4663	blt	x30,x30,800060a0	 x30:0x00000001 x30:0x00000001
       16435000	      1642	80006078	41b00db3	sub	x27,x0,x27	  x0:0x00000000 x27:0x00000001 x27=0xffffffff
       16445000	      1643	8000607c	6bf18f93	addi	x31,x3,1727	  x3:0x80009322 x31=0x800099e1
       16455000	      1644	80006080	61f0de37	lui	x28,0x61f0d	 x28=0x61f0d000
       16465000	      1645	80006084	00e5da93	srli	x21,x11,0xe	 x11:0xc57bc7b0 x21=0x000315ef
       16475000	      1646	80006088	41125cb3	sra	x25,x4,x17	  x4:0xfffff8b3 x17:0x077f2044 x25=0xffffff8b
       16485000	      1647	8000608c	012b1533	sll	x10,x22,x18	 x22:0x00000001 x18:0x85000000 x10=0x00000001
       16495000	      1648	80006090	40eb5b33	sra	x22,x22,x14	 x22:0x00000001 x14:0xfffff8b3 x22=0x00000000
       16505000	      1649	80006094	05429263	bne	x5,x20,800060d8	  x5:0x02508000 x20:0xa15e4cb0
       16515000	      1650	00000000	00000013	addi	x0,x0,0	  x0:0x00000000
       16525000	      1651	800060d4	00000013	addi	x0,x0,0	  x0:0x00000000
       16535000	      1652	800060d8	01117d33	and	x26,x2,x17	  x2:0x00000000 x17:0x077f2044 x26=0x00000000
       16545000	      1653	800060dc	22f26913	ori	x18,x4,559	  x4:0xfffff8b3 x18=0xfffffabf
       16555000	      1654	800060e0	00d86db3	or	x27,x16,x13	 x16:0x00000001 x13:0xfcae4024 x27=0xfcae4025
       16565000	      1655	800060e4	00689b13	slli	x22,x17,0x6	 x17:0x077f2044 x22=0xdfc81100
       16575000	      1656	800060e8	013b7933	and	x18,x22,x19	 x22:0xdfc81100 x19:0x00000000 x18=0x00000000
       16585000	      1657	800060ec	01a8d813	srli	x16,x17,0x1a	 x17:0x077f2044 x16=0x00000001
       16595000	      1658	800060f0	7318e713	ori	x14,x17,1841	 x17:0x077f2044 x14=0x077f2775
       16605000	      1659	800060f4	010ebbb3	sltu	x23,x29,x16	 x29:0xfffff8b2 x16:0x00000001 x23=0x00000000
       16615000	      1660	800060f8	89e37193	andi	x3,x6,-1890	  x6:0xfe572012  x3=0xfe572012
       16625000	      1661	800060fc	01426b33	or	x22,x4,x20	  x4:0xfffff8b3 x20:0xa15e4cb0 x22=0xfffffcb3
       16635000	      1662	80006100	04f8f263	bgeu	x17,x15,80006144	 x17:0x077f2044 x15:0x00000001
       16645000	      1663	00000000	00000013	addi	x0,x0,0	  x0:0x00000000
       16655000	      1664	80006140	00000013	addi	x0,x0,0	  x0:0x00000000
       16665000	      1665	80006144	018b9493	slli	x9,x23,0x18	 x23:0x00000000  x9=0x00000000
       16675000	      1666	80006148	00c17bb3	and	x23,x2,x12	  x2:0x00000000 x12:0x00000000 x23=0x00000000
       16685000	      1667	8000614c	03824e63	blt	x4,x24,80006188	  x4:0xfffff8b3 x24:0x850001a5
       16695000	      1668	80006150	52f03e13	sltiu	x28,x0,1327	  x0:0x00000000 x28=0x00000001
       16705000	      1669	80006154	00197cb3	and	x25,x18,x1	 x18:0x00000000  x1:0xfffffa2a x25=0x00000000
       16715000	      1670	80006158	007ddab3	srl	x21,x27,x7	 x27:0xfcae4025  x7:0x80009fc4 x21=0x0fcae402
       16725000	      1671	8000615c	2e12ce93	xori	x29,x5,737	  x5:0x02508000 x29=0x025082e1
       16735000	      1672	80006160	ba4d6d93	ori	x27,x26,-1116	 x26:0x00000000 x27=0xfffffba4
       16745000	      1673	80006164	008048b3	xor	x17,x0,x8	  x0:0x00000000  x8:0x80009f18 x17=0x80009f18
       16755000	      1674	80006168	034e1863	bne	x28,x20,80006198	 x28:0x00000001 x20:0xa15e4cb0
       16765000	      1675	00000000	00000013	addi	x0,x0,0	  x0:0x00000000
       16775000	      1676	80006194	00000013	addi	x0,x0,0	  x0:0x00000000
       16785000	      1677	80006198	02891663	bne	x18,x8,800061c4	 x18:0x00000000  x8:0x80009f18
       16795000	      1678	00000000	00000013	addi	x0,x0,0	  x0:0x00000000
       16805000	      1679	800061c0	00000013	addi	x0,x0,0	  x0:0x00000000
       16815000	      1680	800061c4	014f4663	blt	x30,x20,800061d0	 x30:0x00000001 x20:0xa15e4cb0
       16825000	      1681	800061c8	db202893	slti	x17,x0,-590	  x0:0x00000000 x17=0x00000000
       16835000	      1682	800061cc	017e7ab3	and	x21,x28,x23	 x28:0x00000001 x23:0x00000000 x21=0x00000000
       16845000	      1683	800061d0	01924cb3	xor	x25,x4,x25	  x4:0xfffff8b3 x25:0x00000000 x25=0xfffff8b3
       16855000	      1684	800061d4	29368993	addi	x19,x13,659	 x13:0xfcae4024 x19=0xfcae42b7
       16865000	      1685	800061d8	32003893	sltiu	x17,x0,800	  x0:0x00000000 x17=0x00000001
       16875000	      1686	800061dc	40445f93	srai	x31,x8,0x4	  x8:0x80009f18 x31=0xf80009f1
       16885000	      1687	800061e0	01d99493	slli	x9,x19,0x1d	 x19:0xfcae42b7  x9=0xe0000000
       16895000	      1688	800061e4	bf436c93	ori	x25,x6,-1036	  x6:0xfe572012 x25=0xfffffbf6
       16905000	      1689	800061e8	008bd633	srl	x12,x23,x8	 x23:0x00000000  x8:0x80009f18 x12=0x00000000
       16915000	      1690	800061ec	00000013	addi	x0,x0,0	  x0:0x00000000
       16925000	      1691	800061f0	10adbb93	sltiu	x23,x27,266	 x27:0xfffffba4 x23=0x00000000
       16935000	      1692	800061f4	0f559263	bne	x11,x21,800062d8	 x11:0xc57bc7b0 x21:0x00000000
       16945000	      1693	00000000	00000013	addi	x0,x0,0	  x0:0x00000000
       16955000	      1694	800062d4	00000013	addi	x0,x0,0	  x0:0x00000000
       16965000	      1695	800062d8	00000013	addi	x0,x0,0	  x0:0x00000000
       16975000	      1696	800062dc	00000013	addi	x0,x0,0	  x0:0x00000000
       16985000	      1697	800062e0	5b1e3717	auipc	x14,0x5b1e3	 x14=0xdb1e92dc
       16995000	      1698	800062e4	b21c4a97	auipc	x21,0xb21c4	 x21=0x321ca2e0
       17005000	      1699	800062e8	409655b3	sra	x11,x12,x9	 x12:0x00000000  x9:0xe0000000 x11=0x00000000
       17015000	      1700	800062ec	034d8e63	beq	x27,x20,80006328	 x27:0xfffffba4 x20:0xa15e4cb0
       17025000	      1701	800062f0	002b0933	add	x18,x22,x2	 x22:0xfffffcb3  x2:0x00000000 x18=0xfffffcb3
       17035000	      1702	800062f4	00ea5463	bge	x20,x14,800062fc	 x20:0xa15e4cb0 x14:0xdb1e92dc
       17045000	      1703	800062f8	018739b3	sltu	x19,x14,x24	 x14:0xdb1e92dc x24:0x850001a5 x19=0x00000000
       17055000	      1704	800062fc	415b0fb3	sub	x31,x22,x21	 x22:0xfffffcb3 x21:0x321ca2e0 x31=0xcde359d3
       17065000	      1705	80006300	018ad193	srli	x3,x21,0x18	 x21:0x321ca2e0  x3=0x00000032
       17075000	      1706	80006304	0003db13	srli	x22,x7,0x0	  x7:0x80009fc4 x22=0x80009fc4
       17085000	      1707	80006308	015efa63	bgeu	x29,x21,8000631c	 x29:0x025082e1 x21:0x321ca2e0
       17095000	      1708	8000630c	10a1de63	bge	x3,x10,80006428	  x3:0x00000032 x10:0x00000001
       17105000	      1709	00000000	00000013	addi	x0,x0,0	  x0:0x00000000
       17115000	      1710	80006424	00000013	addi	x0,x0,0	  x0:0x00000000
       17125000	      1711	80006428	01ee0133	add	x2,x28,x30	 x28:0x00000001 x30:0x00000001  x2=0x00000002
       17135000	      1712	8000642c	00bd2933	slt	x18,x26,x11	 x26:0x00000000 x11:0x00000000 x18=0x00000000
       17145000	      1713	80006430	008702b3	add	x5,x14,x8	 x14:0xdb1e92dc  x8:0x80009f18  x5=0x5b1f31f4
       17155000	      1714	80006434	44e2c5b7	lui	x11,0x44e2c	 x11=0x44e2c000
       17165000	      1715	80006438	3d567f13	andi	x30,x12,981	 x12:0x00000000 x30=0x00000000
       17175000	      1716	8000643c	01d53733	sltu	x14,x10,x29	 x10:0x00000001 x29:0x025082e1 x14=0x00000001
       17185000	      1717	80006440	0355cc63	blt	x11,x21,80006478	 x11:0x44e2c000 x21:0x321ca2e0
       17195000	      1718	80006444	40205513	srai	x10,x0,0x2	  x0:0x00000000 x10=0x00000000
       17205000	      1719	80006448	04531263	bne	x6,x5,8000648c	  x6:0xfe572012  x5:0x5b1f31f4
       17215000	      1720	00000000	00000013	addi	x0,x0,0	  x0:0x00000000
       17225000	      1721	80006488	00000013	addi	x0,x0,0	  x0:0x00000000
       17235000	      1722	8000648c	01ce32b3	sltu	x5,x28,x28	 x28:0x00000001 x28:0x00000001  x5=0x00000000
       17245000	      1723	80006490	05a90463	beq	x18,x26,800064d8	 x18:0x00000000 x26:0x00000000
       17255000	      1724	00000000	00000013	addi	x0,x0,0	  x0:0x00000000
       17265000	      1725	800064d4	00000013	addi	x0,x0,0	  x0:0x00000000
       17275000	      1726	800064d8	00b34e63	blt	x6,x11,800064f4	  x6:0xfe572012 x11:0x44e2c000
       17285000	      1727	00000000	00000013	addi	x0,x0,0	  x0:0x00000000
       17295000	      1728	800064f0	00000013	addi	x0,x0,0	  x0:0x00000000
       17305000	      1729	800064f4	00aa1ab3	sll	x21,x20,x10	 x20:0xa15e4cb0 x10:0x00000000 x21=0xa15e4cb0
       17315000	      1730	800064f8	038a9063	bne	x21,x24,80006518	 x21:0xa15e4cb0 x24:0x850001a5
       17325000	      1731	00000000	00000013	addi	x0,x0,0	  x0:0x00000000
       17335000	      1732	80006514	00000013	addi	x0,x0,0	  x0:0x00000000
       17345000	      1733	80006518	04829063	bne	x5,x8,80006558	  x5:0x00000000  x8:0x80009f18
       17355000	      1734	00000000	00000013	addi	x0,x0,0	  x0:0x00000000
       17365000	      1735	80006554	00000013	addi	x0,x0,0	  x0:0x00000000
       17375000	      1736	80006558	001c9463	bne	x25,x1,80006560	 x25:0xfffffbf6  x1:0xfffffa2a
       17385000	      1737	00000000	00000013	addi	x0,x0,0	  x0:0x00000000
       17395000	      1738	8000655c	00000013	addi	x0,x0,0	  x0:0x00000000
       17405000	      1739	80006560	01f25c13	srli	x24,x4,0x1f	  x4:0xfffff8b3 x24=0x00000001
       17415000	      1740	80006564	01d56ab3	or	x21,x10,x29	 x10:0x00000000 x29:0x025082e1 x21=0x025082e1
       17425000	      1741	80006568	005c9ab3	sll	x21,x25,x5	 x25:0xfffffbf6  x5:0x00000000 x21=0xfffffbf6
       17435000	      1742	8000656c	02128663	beq	x5,x1,80006598	  x5:0x00000000  x1:0xfffffa2a
       17445000	      1743	80006570	990d0013	addi	x0,x26,-1648	 x26:0x00000000
       17455000	      1744	80006574	00000013	addi	x0,x0,0	  x0:0x00000000
       17465000	      1745	80006578	0dcb7e63	bgeu	x22,x28,80006654	 x22:0x80009fc4 x28:0x00000001
       17475000	      1746	00000000	00000013	addi	x0,x0,0	  x0:0x00000000
       17485000	      1747	80006650	00000013	addi	x0,x0,0	  x0:0x00000000
       17495000	      1748	80006654	3d98cf93	xori	x31,x17,985	 x17:0x00000001 x31=0x000003d8
       17505000	      1749	80006658	c1ac6017	auipc	x0,0xc1ac6	
       17515000	      1750	8000665c	03866e63	bltu	x12,x24,80006698	 x12:0x00000000 x24:0x00000001
       17525000	      1751	00000000	00000013	addi	x0,x0,0	  x0:0x00000000
       17535000	      1752	80006694	00000013	addi	x0,x0,0	  x0:0x00000000
       17545000	      1753	80006698	a38fa693	slti	x13,x31,-1480	 x31:0x000003d8 x13=0x00000000
       17555000	      1754	8000669c	9edcb6b7	lui	x13,0x9edcb	 x13=0x9edcb000
       17565000	      1755	800066a0	00261233	sll	x4,x12,x2	 x12:0x00000000  x2:0x00000002  x4=0x00000000
       17575000	      1756	800066a4	d5f13717	auipc	x14,0xd5f13	 x14=0x55f196a0
       17585000	      1757	800066a8	865caa93	slti	x21,x25,-1947	 x25:0xfffffbf6 x21=0x00000000
       17595000	      1758	800066ac	00f94033	xor	x0,x18,x15	 x18:0x00000000 x15:0x00000001
       17605000	      1759	800066b0	0164ccb3	xor	x25,x9,x22	  x9:0xe0000000 x22:0x80009fc4 x25=0x60009fc4
       17615000	      1760	800066b4	0068ebb3	or	x23,x17,x6	 x17:0x00000001  x6:0xfe572012 x23=0xfe572013
       17625000	      1761	800066b8	a694bd13	sltiu	x26,x9,-1431	  x9:0xe0000000 x26=0x00000001
       17635000	      1762	800066bc	04d64263	blt	x12,x13,80006700	 x12:0x00000000 x13:0x9edcb000
       17645000	      1763	800066c0	bd86e493	ori	x9,x13,-1064	 x13:0x9edcb000  x9=0xfffffbd8
       17655000	      1764	800066c4	00b354b3	srl	x9,x6,x11	  x6:0xfe572012 x11:0x44e2c000  x9=0xfe572012
       17665000	      1765	800066c8	01b29293	slli	x5,x5,0x1b	  x5:0x00000000  x5=0x00000000
       17675000	      1766	800066cc	01d1d213	srli	x4,x3,0x1d	  x3:0x00000032  x4=0x00000000
       17685000	      1767	800066d0	00ae2eb3	slt	x29,x28,x10	 x28:0x00000001 x10:0x00000000 x29=0x00000000
       17695000	      1768	800066d4	00000013	addi	x0,x0,0	  x0:0x00000000
       17705000	      1769	800066d8	01642f33	slt	x30,x8,x22	  x8:0x80009f18 x22:0x80009fc4 x30=0x00000001
       17715000	      1770	800066dc	40fa7993	andi	x19,x20,1039	 x20:0xa15e4cb0 x19=0x00000400
       17725000	      1771	800066e0	40e15333	sra	x6,x2,x14	  x2:0x00000002 x14:0x55f196a0  x6=0x00000002
       17735000	      1772	800066e4	1241e663	bltu	x3,x4,80006810	  x3:0x00000032  x4:0x00000000
       17745000	      1773	800066e8	00d8c2b3	xor	x5,x17,x13	 x17:0x00000001 x13:0x9edcb000  x5=0x9edcb001
       17755000	      1774	800066ec	75ef7d17	auipc	x26,0x75ef7	 x26=0xf5efd6e8
       17765000	      1775	800066f0	01f12e33	slt	x28,x2,x31	  x2:0x00000002 x31:0x000003d8 x28=0x00000001
       17775000	      1776	800066f4	4977f713	andi	x14,x15,1175	 x15:0x00000001 x14=0x00000001
       17785000	      1777	800066f8	004487b3	add	x15,x9,x4	  x9:0xfe572012  x4:0x00000000 x15=0xfe572012
       17795000	      1778	800066fc	0e2bc863	blt	x23,x2,800067ec	 x23:0xfe572013  x2:0x00000002
       17805000	      1779	00000000	00000013	addi	x0,x0,0	  x0:0x00000000
       17815000	      1780	800067e8	00000013	addi	x0,x0,0	  x0:0x00000000
       17825000	      1781	800067ec	04cd0863	beq	x26,x12,8000683c	 x26:0xf5efd6e8 x12:0x00000000
       17835000	      1782	800067f0	17e63f13	sltiu	x30,x12,382	 x12:0x00000000 x30=0x00000001
       17845000	      1783	800067f4	00000013	addi	x0,x0,0	  x0:0x00000000
       17855000	      1784	800067f8	00951663	bne	x10,x9,80006804	 x10:0x00000000  x9:0xfe572012
       17865000	      1785	00000000	00000013	addi	x0,x0,0	  x0:0x00000000
       17875000	      1786	80006800	00000013	addi	x0,x0,0	  x0:0x00000000
       17885000	      1787	80006804	035f4c37	lui	x24,0x35f4	 x24=0x035f4000
       17895000	      1788	80006808	f2678e93	addi	x29,x15,-218	 x15:0xfe572012 x29=0xfe571f38
       17905000	      1789	8000680c	003fad33	slt	x26,x31,x3	 x31:0x000003d8  x3:0x00000032 x26=0x00000000
       17915000	      1790	80006810	00c79713	slli	x14,x15,0xc	 x15:0xfe572012 x14=0x72012000
       17925000	      1791	80006814	b1a4cf37	lui	x30,0xb1a4c	 x30=0xb1a4c000
       17935000	      1792	80006818	00b7ce63	blt	x15,x11,80006834	 x15:0xfe572012 x11:0x44e2c000
       17945000	      1793	00000000	00000013	addi	x0,x0,0	  x0:0x00000000
       17955000	      1794	80006830	00000013	addi	x0,x0,0	  x0:0x00000000
       17965000	      1795	80006834	349e4f93	xori	x31,x28,841	 x28:0x00000001 x31=0x00000348
       17975000	      1796	80006838	005f1293	slli	x5,x30,0x5	 x30:0xb1a4c000  x5=0x34980000
       17985000	      1797	8000683c	00a54663	blt	x10,x10,80006848	 x10:0x00000000 x10:0x00000000
       17995000	      1798	80006840	00779293	slli	x5,x15,0x7	 x15:0xfe572012  x5=0x2b900900
       18005000	      1799	80006844	0585e463	bltu	x11,x24,8000688c	 x11:0x44e2c000 x24:0x035f4000
       18015000	      1800	80006848	00e05c13	srli	x24,x0,0xe	  x0:0x00000000 x24=0x00000000
       18025000	      1801	8000684c	00697ab3	and	x21,x18,x6	 x18:0x00000000  x6:0x00000002 x21=0x00000000
       18035000	      1802	80006850	002e5b93	srli	x23,x28,0x2	 x28:0x00000001 x23=0x00000000
       18045000	      1803	80006854	00b7e1b3	or	x3,x15,x11	 x15:0xfe572012 x11:0x44e2c000  x3=0xfef7e012
       18055000	      1804	80006858	00159ab3	sll	x21,x11,x1	 x11:0x44e2c000  x1:0xfffffa2a x21=0x8b000000
       18065000	      1805	8000685c	a9936d37	lui	x26,0xa9936	 x26=0xa9936000
       18075000	      1806	80006860	9ed111b7	lui	x3,0x9ed11	  x3=0x9ed11000
       18085000	      1807	80006864	b8d04f13	xori	x30,x0,-1139	  x0:0x00000000 x30=0xfffffb8d
       18095000	      1808	80006868	bda5f017	auipc	x0,0xbda5f	
       18105000	      1809	8000686c	b6751237	lui	x4,0xb6751	  x4=0xb6751000
       18115000	      1810	80006870	004686b3	add	x13,x13,x4	 x13:0x9edcb000  x4:0xb6751000 x13=0x5551c000
       18125000	      1811	80006874	9ce20613	addi	x12,x4,-1586	  x4:0xb6751000 x12=0xb67509ce
       18135000	      1812	80006878	410dd313	srai	x6,x27,0x10	 x27:0xfffffba4  x6=0xffffffff
       18145000	      1813	8000687c	00000013	addi	x0,x0,0	  x0:0x00000000
       18155000	      1814	80006880	00db7bb3	and	x23,x22,x13	 x22:0x80009fc4 x13:0x5551c000 x23=0x00008000
       18165000	      1815	80006884	019ce0b3	or	x1,x25,x25	 x25:0x60009fc4 x25:0x60009fc4  x1=0x60009fc4
       18175000	      1816	80006888	ef808993	addi	x19,x1,-264	  x1:0x60009fc4 x19=0x60009ebc
       18185000	      1817	8000688c	84b7b297	auipc	x5,0x84b7b	  x5=0x04b81888
       18195000	      1818	80006890	035dee63	bltu	x27,x21,800068cc	 x27:0xfffffba4 x21:0x8b000000
       18205000	      1819	80006894	ab783d93	sltiu	x27,x16,-1353	 x16:0x00000001 x27=0x00000001
       18215000	      1820	80006898	02255063	bge	x10,x2,800068b8	 x10:0x00000000  x2:0x00000002
       18225000	      1821	8000689c	9cb9a793	slti	x15,x19,-1589	 x19:0x60009ebc x15=0x00000000
       18235000	      1822	800068a0	006d78b3	and	x17,x26,x6	 x26:0xa9936000  x6:0xffffffff x17=0xa9936000
       18245000	      1823	800068a4	41cc01b3	sub	x3,x24,x28	 x24:0x00000000 x28:0x00000001  x3=0xffffffff
       18255000	      1824	800068a8	400e5713	srai	x14,x28,0x0	 x28:0x00000001 x14=0x00000001
       18265000	      1825	800068ac	006e1933	sll	x18,x28,x6	 x28:0x00000001  x6:0xffffffff x18=0x80000000
       18275000	      1826	800068b0	00000013	addi	x0,x0,0	  x0:0x00000000
       18285000	      1827	800068b4	01f1d933	srl	x18,x3,x31	  x3:0xffffffff x31:0x00000348 x18=0x00ffffff
       18295000	      1828	800068b8	ca643c13	sltiu	x24,x8,-858	  x8:0x80009f18 x24=0x00000001
       18305000	      1829	800068bc	00e59913	slli	x18,x11,0xe	 x11:0x44e2c000 x18=0xb0000000
       18315000	      1830	800068c0	41ac8bb3	sub	x23,x25,x26	 x25:0x60009fc4 x26:0xa9936000 x23=0xb66d3fc4
       18325000	      1831	800068c4	d316c213	xori	x4,x13,-719	 x13:0x5551c000  x4=0xaaae3d31
       18335000	      1832	800068c8	82147193	andi	x3,x8,-2015	  x8:0x80009f18  x3=0x80009800
       18345000	      1833	800068cc	00d3f6b3	and	x13,x7,x13	  x7:0x80009fc4 x13:0x5551c000 x13=0x00008000
       18355000	      1834	800068d0	00b2fa63	bgeu	x5,x11,800068e4	  x5:0x04b81888 x11:0x44e2c000
       18365000	      1835	800068d4	003a21b3	slt	x3,x20,x3	 x20:0xa15e4cb0  x3:0x80009800  x3=0x00000000
       18375000	      1836	800068d8	05afe463	bltu	x31,x26,80006920	 x31:0x00000348 x26:0xa9936000
       18385000	      1837	00000000	00000013	addi	x0,x0,0	  x0:0x00000000
       18395000	      1838	8000691c	00000013	addi	x0,x0,0	  x0:0x00000000
       18405000	      1839	80006920	02e15a63	bge	x2,x14,80006954	  x2:0x00000002 x14:0x00000001
       18415000	      1840	00000000	00000013	addi	x0,x0,0	  x0:0x00000000
       18425000	      1841	80006950	00000013	addi	x0,x0,0	  x0:0x00000000
       18435000	      1842	80006954	d8a29337	lui	x6,0xd8a29	  x6=0xd8a29000
       18445000	      1843	80006958	02865e63	bge	x12,x8,80006994	 x12:0xb67509ce  x8:0x80009f18
       18455000	      1844	00000000	00000013	addi	x0,x0,0	  x0:0x00000000
       18465000	      1845	80006990	00000013	addi	x0,x0,0	  x0:0x00000000
       18475000	      1846	80006994	01195f13	srli	x30,x18,0x11	 x18:0xb0000000 x30=0x00005800
       18485000	      1847	80006998	41b65533	sra	x10,x12,x27	 x12:0xb67509ce x27:0x00000001 x10=0xdb3a84e7
       18495000	      1848	8000699c	00d1a8b3	slt	x17,x3,x13	  x3:0x00000000 x13:0x00008000 x17=0x00000001
       18505000	      1849	800069a0	010692b3	sll	x5,x13,x16	 x13:0x00008000 x16:0x00000001  x5=0x00010000
       18515000	      1850	800069a4	88f03b13	sltiu	x22,x0,-1905	  x0:0x00000000 x22=0x00000001
       18525000	      1851	800069a8	411fd333	sra	x6,x31,x17	 x31:0x00000348 x17:0x00000001  x6=0x000001a4
       18535000	      1852	800069ac	d4192b13	slti	x22,x18,-703	 x18:0xb0000000 x22=0x00000001
       18545000	      1853	800069b0	02a1c063	blt	x3,x10,800069d0	  x3:0x00000000 x10:0xdb3a84e7
       18555000	      1854	800069b4	01b00333	add	x6,x0,x27	  x0:0x00000000 x27:0x00000001  x6=0x00000001
       18565000	      1855	800069b8	18e1cf93	xori	x31,x3,398	  x3:0x00000000 x31=0x0000018e
       18575000	      1856	800069bc	05c64263	blt	x12,x28,80006a00	 x12:0xb67509ce x28:0x00000001
       18585000	      1857	00000000	00000013	addi	x0,x0,0	  x0:0x00000000
       18595000	      1858	800069fc	00000013	addi	x0,x0,0	  x0:0x00000000
       18605000	      1859	80006a00	40e10fb3	sub	x31,x2,x14	  x2:0x00000002 x14:0x00000001 x31=0x00000001
       18615000	      1860	80006a04	b05b7b13	andi	x22,x22,-1275	 x22:0x00000001 x22=0x00000001
       18625000	      1861	80006a08	40180733	sub	x14,x16,x1	 x16:0x00000001  x1:0x60009fc4 x14=0x9fff603d
       18635000	      1862	80006a0c	0131e333	or	x6,x3,x19	  x3:0x00000000 x19:0x60009ebc  x6=0x60009ebc
       18645000	      1863	80006a10	00000013	addi	x0,x0,0	  x0:0x00000000
       18655000	      1864	80006a14	00000013	addi	x0,x0,0	  x0:0x00000000
       18665000	      1865	80006a18	79dfff93	andi	x31,x31,1949	 x31:0x00000001 x31=0x00000001
       18675000	      1866	80006a1c	003a8663	beq	x21,x3,80006a28	 x21:0x8b000000  x3:0x00000000
       18685000	      1867	80006a20	01a29233	sll	x4,x5,x26	  x5:0x00010000 x26:0xa9936000  x4=0x00010000
       18695000	      1868	80006a24	0155a033	slt	x0,x11,x21	 x11:0x44e2c000 x21:0x8b000000
       18705000	      1869	80006a28	b6ee4e37	lui	x28,0xb6ee4	 x28=0xb6ee4000
       18715000	      1870	80006a2c	fa681f17	auipc	x30,0xfa681	 x30=0x7a687a28
       18725000	      1871	80006a30	01acd933	srl	x18,x25,x26	 x25:0x60009fc4 x26:0xa9936000 x18=0x60009fc4
       18735000	      1872	80006a34	ac5b6f37	lui	x30,0xac5b6	 x30=0xac5b6000
       18745000	      1873	80006a38	aad23e13	sltiu	x28,x4,-1363	  x4:0x00010000 x28=0x00000001
       18755000	      1874	80006a3c	41d3d593	srai	x11,x7,0x1d	  x7:0x80009fc4 x11=0xfffffffc
       18765000	      1875	80006a40	0001f633	and	x12,x3,x0	  x3:0x00000000  x0:0x00000000 x12=0x00000000
       18775000	      1876	80006a44	2f134eb7	lui	x29,0x2f134	 x29=0x2f134000
       18785000	      1877	80006a48	011dd293	srli	x5,x27,0x11	 x27:0x00000001  x5=0x00000000
       18795000	      1878	80006a4c	41585e13	srai	x28,x16,0x15	 x16:0x00000001 x28=0x00000000
       18805000	      1879	80006a50	00d3d4b3	srl	x9,x7,x13	  x7:0x80009fc4 x13:0x00008000  x9=0x80009fc4
       18815000	      1880	80006a54	01ac32b3	sltu	x5,x24,x26	 x24:0x00000001 x26:0xa9936000  x5=0x00000001
       18825000	      1881	80006a58	0086f833	and	x16,x13,x8	 x13:0x00008000  x8:0x80009f18 x16=0x00008000
       18835000	      1882	80006a5c	010ffe63	bgeu	x31,x16,80006a78	 x31:0x00000001 x16:0x00008000
       18845000	      1883	80006a60	04e19463	bne	x3,x14,80006aa8	  x3:0x00000000 x14:0x9fff603d
       18855000	      1884	00000000	00000013	addi	x0,x0,0	  x0:0x00000000
       18865000	      1885	80006aa4	00000013	addi	x0,x0,0	  x0:0x00000000
       18875000	      1886	80006aa8	010ea533	slt	x10,x29,x16	 x29:0x2f134000 x16:0x00008000 x10=0x00000000
       18885000	      1887	80006aac	00a3f733	and	x14,x7,x10	  x7:0x80009fc4 x10:0x00000000 x14=0x00000000
       18895000	      1888	80006ab0	768dc493	xori	x9,x27,1896	 x27:0x00000001  x9=0x00000769
       18905000	      1889	80006ab4	02010663	beq	x2,x0,80006ae0	  x2:0x00000002  x0:0x00000000
       18915000	      1890	80006ab8	012ef633	and	x12,x29,x18	 x29:0x2f134000 x18:0x60009fc4 x12=0x20000000
       18925000	      1891	80006abc	01cf9c33	sll	x24,x31,x28	 x31:0x00000001 x28:0x00000000 x24=0x00000001
       18935000	      1892	80006ac0	00849533	sll	x10,x9,x8	  x9:0x00000769  x8:0x80009f18 x10=0x69000000
       18945000	      1893	80006ac4	4152d013	srai	x0,x5,0x15	  x5:0x00000001
       18955000	      1894	80006ac8	05844263	blt	x8,x24,80006b0c	  x8:0x80009f18 x24:0x00000001
       18965000	      1895	00000000	00000013	addi	x0,x0,0	  x0:0x00000000
       18975000	      1896	80006b08	00000013	addi	x0,x0,0	  x0:0x00000000
       18985000	      1897	80006b0c	00895213	srli	x4,x18,0x8	 x18:0x60009fc4  x4=0x0060009f
       18995000	      1898	80006b10	0117de93	srli	x29,x15,0x11	 x15:0x00000000 x29=0x00000000
       19005000	      1899	80006b14	2aecfb13	andi	x22,x25,686	 x25:0x60009fc4 x22=0x00000284
       19015000	      1900	80006b18	03f98663	beq	x19,x31,80006b44	 x19:0x60009ebc x31:0x00000001
       19025000	      1901	80006b1c	4112de93	srai	x29,x5,0x11	  x5:0x00000001 x29=0x00000000
       19035000	      1902	80006b20	a809b9b7	lui	x19,0xa809b	 x19=0xa809b000
       19045000	      1903	80006b24	008cce33	xor	x28,x25,x8	 x25:0x60009fc4  x8:0x80009f18 x28=0xe00000dc
       19055000	      1904	80006b28	014cda63	bge	x25,x20,80006b3c	 x25:0x60009fc4 x20:0xa15e4cb0
       19065000	      1905	00000000	00000013	addi	x0,x0,0	  x0:0x00000000
       19075000	      1906	80006b38	00000013	addi	x0,x0,0	  x0:0x00000000
       19085000	      1907	80006b3c	01814463	blt	x2,x24,80006b44	  x2:0x00000002 x24:0x00000001
       19095000	      1908	80006b40	4032d5b3	sra	x11,x5,x3	  x5:0x00000001  x3:0x00000000 x11=0x00000001
       19105000	      1909	80006b44	0007d7b3	srl	x15,x15,x0	 x15:0x00000000  x0:0x00000000 x15=0x00000000
       19115000	      1910	80006b48	01f3d113	srli	x2,x7,0x1f	  x7:0x80009fc4  x2=0x00000001
       19125000	      1911	80006b4c	7cea4b93	xori	x23,x20,1998	 x20:0xa15e4cb0 x23=0xa15e4b7e
       19135000	      1912	80006b50	00000013	addi	x0,x0,0	  x0:0x00000000
       19145000	      1913	80006b54	7df7c713	xori	x14,x15,2015	 x15:0x00000000 x14=0x000007df
       19155000	      1914	80006b58	0135d113	srli	x2,x11,0x13	 x11:0x00000001  x2=0x00000000
       19165000	      1915	80006b5c	ac4fc893	xori	x17,x31,-1340	 x31:0x00000001 x17=0xfffffac5
       19175000	      1916	80006b60	00f4b233	sltu	x4,x9,x15	  x9:0x00000769 x15:0x00000000  x4=0x00000000
       19185000	      1917	80006b64	01c024b3	slt	x9,x0,x28	  x0:0x00000000 x28:0xe00000dc  x9=0x00000000
       19195000	      1918	80006b68	7a40b837	lui	x16,0x7a40b	 x16=0x7a40b000
       19205000	      1919	80006b6c	009cbcb3	sltu	x25,x25,x9	 x25:0x60009fc4  x9:0x00000000 x25=0x00000000
       19215000	      1920	80006b70	00000013	addi	x0,x0,0	  x0:0x00000000
       19225000	      1921	80006b74	0076c033	xor	x0,x13,x7	 x13:0x00008000  x7:0x80009fc4
       19235000	      1922	80006b78	6fdac013	xori	x0,x21,1789	 x21:0x8b000000
       19245000	      1923	80006b7c	00056e63	bltu	x10,x0,80006b98	 x10:0x69000000  x0:0x00000000
       19255000	      1924	80006b80	00c25093	srli	x1,x4,0xc	  x4:0x00000000  x1=0x00000000
       19265000	      1925	80006b84	05fc6463	bltu	x24,x31,80006bcc	 x24:0x00000001 x31:0x00000001
       19275000	      1926	80006b88	011b09b3	add	x19,x22,x17	 x22:0x00000284 x17:0xfffffac5 x19=0xfffffd49
       19285000	      1927	80006b8c	6a61b137	lui	x2,0x6a61b	  x2=0x6a61b000
       19295000	      1928	80006b90	00197f33	and	x30,x18,x1	 x18:0x60009fc4  x1:0x00000000 x30=0x00000000
       19305000	      1929	80006b94	1c31a517	auipc	x10,0x1c31a	 x10=0x9c320b90
       19315000	      1930	80006b98	00000013	addi	x0,x0,0	  x0:0x00000000
       19325000	      1931	80006b9c	01965693	srli	x13,x12,0x19	 x12:0x20000000 x13=0x00000010
       19335000	      1932	80006ba0	01dae663	bltu	x21,x29,80006bac	 x21:0x8b000000 x29:0x00000000
       19345000	      1933	80006ba4	9862ac17	auipc	x24,0x9862a	 x24=0x18630ba0
       19355000	      1934	80006ba8	d621c893	xori	x17,x3,-670	  x3:0x00000000 x17=0xfffffd62
       19365000	      1935	80006bac	01dcaf33	slt	x30,x25,x29	 x25:0x00000000 x29:0x00000000 x30=0x00000000
       19375000	      1936	80006bb0	2ee9f497	auipc	x9,0x2ee9f	  x9=0xaeea5bac
       19385000	      1937	80006bb4	70d26913	ori	x18,x4,1805	  x4:0x00000000 x18=0x0000070d
       19395000	      1938	80006bb8	00aae9b3	or	x19,x21,x10	 x21:0x8b000000 x10:0x9c320b90 x19=0x9f320b90
       19405000	      1939	80006bbc	026b0e63	beq	x22,x6,80006bf8	 x22:0x00000284  x6:0x60009ebc
       19415000	      1940	80006bc0	001916b3	sll	x13,x18,x1	 x18:0x0000070d  x1:0x00000000 x13=0x0000070d
       19425000	      1941	80006bc4	010c75b3	and	x11,x24,x16	 x24:0x18630ba0 x16:0x7a40b000 x11=0x18400000
       19435000	      1942	80006bc8	006fe837	lui	x16,0x6fe	 x16=0x006fe000
       19445000	      1943	80006bcc	72f48513	addi	x10,x9,1839	  x9:0xaeea5bac x10=0xaeea62db
       19455000	      1944	80006bd0	03a61e63	bne	x12,x26,80006c0c	 x12:0x20000000 x26:0xa9936000
       19465000	      1945	00000000	00000013	addi	x0,x0,0	  x0:0x00000000
       19475000	      1946	80006c08	00000013	addi	x0,x0,0	  x0:0x00000000
       19485000	      1947	80006c0c	01980633	add	x12,x16,x25	 x16:0x006fe000 x25:0x00000000 x12=0x006fe000
       19495000	      1948	80006c10	d0f7b293	sltiu	x5,x15,-753	 x15:0x00000000  x5=0x00000001
       19505000	      1949	80006c14	016ff833	and	x16,x31,x22	 x31:0x00000001 x22:0x00000284 x16=0x00000000
       19515000	      1950	80006c18	81537113	andi	x2,x6,-2027	  x6:0x60009ebc  x2=0x60009814
       19525000	      1951	80006c1c	030e8e63	beq	x29,x16,80006c58	 x29:0x00000000 x16:0x00000000
       19535000	      1952	00000000	00000013	addi	x0,x0,0	  x0:0x00000000
       19545000	      1953	80006c54	00000013	addi	x0,x0,0	  x0:0x00000000
       19555000	      1954	80006c58	006d6e33	or	x28,x26,x6	 x26:0xa9936000  x6:0x60009ebc x28=0xe993febc
       19565000	      1955	80006c5c	02a57c63	bgeu	x10,x10,80006c94	 x10:0xaeea62db x10:0xaeea62db
       19575000	      1956	00000000	00000013	addi	x0,x0,0	  x0:0x00000000
       19585000	      1957	80006c90	00000013	addi	x0,x0,0	  x0:0x00000000
       19595000	      1958	80006c94	41035b13	srai	x22,x6,0x10	  x6:0x60009ebc x22=0x00006000
       19605000	      1959	80006c98	00000013	addi	x0,x0,0	  x0:0x00000000
       19615000	      1960	80006c9c	00d942b3	xor	x5,x18,x13	 x18:0x0000070d x13:0x0000070d  x5=0x00000000
       19625000	      1961	80006ca0	00442083	lw	x1,4(x8)	  x8:0x80009f18  x1=0x80000550 PA:0x80009f1c
       19635000	      1962	80006ca4	2bf50d37	lui	x26,0x2bf50	 x26=0x2bf50000
       19645000	      1963	80006ca8	006752b3	srl	x5,x14,x6	 x14:0x000007df  x6:0x60009ebc  x5=0x00000000
       19655000	      1964	80006cac	003545b3	xor	x11,x10,x3	 x10:0xaeea62db  x3:0x00000000 x11=0xaeea62db
       19665000	      1965	80006cb0	02840413	addi	x8,x8,40	  x8:0x80009f18  x8=0x80009f40
       19675000	      1966	80006cb4	d032db97	auipc	x23,0xd032d	 x23=0x50333cb0
       19685000	      1967	80006cb8	00008213	addi	x4,x1,0	  x1:0x80000550  x4=0x80000550
       19695000	      1968	80006cbc	00020267	jalr	x4,x4,0	  x4:0x80000550  x4=0x80006cbc
       19705000	      1969	00000000	00000013	addi	x0,x0,0	  x0:0x00000000
       19715000	      1970	80000550	00000013	addi	x0,x0,0	  x0:0x00000000
       19725000	      1971	80000554	01b4a6b3	slt	x13,x9,x27	  x9:0xaeea5bac x27:0x00000001 x13=0x00000001
       19735000	      1972	80000558	41d6d813	srai	x16,x13,0x1d	 x13:0x00000001 x16=0x00000000
       19745000	      1973	8000055c	65bd3c93	sltiu	x25,x26,1627	 x26:0x2bf50000 x25=0x00000000
       19755000	      1974	80000560	00000013	addi	x0,x0,0	  x0:0x00000000
       19765000	      1975	80000564	0712b213	sltiu	x4,x5,113	  x5:0x00000000  x4=0x00000001
       19775000	      1976	80000568	01841333	sll	x6,x8,x24	  x8:0x80009f40 x24:0x18630ba0  x6=0x80009f40
       19785000	      1977	8000056c	651040ef	jal	x1,8000056c	  x1=0x8000056c
       19795000	      1978	00000000	00000013	addi	x0,x0,0	  x0:0x00000000
       19805000	      1979	800053b8	00000013	addi	x0,x0,0	  x0:0x00000000
       19815000	      1980	800053bc	000dbfb3	sltu	x31,x27,x0	 x27:0x00000001  x0:0x00000000 x31=0x00000000
       19825000	      1981	800053c0	01738463	beq	x7,x23,800053c8	  x7:0x80009fc4 x23:0x50333cb0
       19835000	      1982	800053c4	00c71f33	sll	x30,x14,x12	 x14:0x000007df x12:0x006fe000 x30=0x000007df
       19845000	      1983	800053c8	fc040413	addi	x8,x8,-64	  x8:0x80009f40  x8=0x80009f00
       19855000	      1984	800053cc	00142223	sw	x1,4(x8)	  x8:0x80009f00  x1:0x8000056c PA:0x80009f04
       19865000	      1985	800053d0	e131e493	ori	x9,x3,-493	  x3:0x00000000  x9=0xfffffe13
       19875000	      1986	800053d4	0061cc33	xor	x24,x3,x6	  x3:0x00000000  x6:0x80009f40 x24=0x80009f40
       19885000	      1987	800053d8	029cf063	bgeu	x25,x9,800053f8	 x25:0x00000000  x9:0xfffffe13
       19895000	      1988	800053dc	5f366913	ori	x18,x12,1523	 x12:0x006fe000 x18=0x006fe5f3
       19905000	      1989	800053e0	3be8b993	sltiu	x19,x17,958	 x17:0xfffffd62 x19=0x00000000
       19915000	      1990	800053e4	00e4c233	xor	x4,x9,x14	  x9:0xfffffe13 x14:0x000007df  x4=0xfffff9cc
       19925000	      1991	800053e8	01db9793	slli	x15,x23,0x1d	 x23:0x50333cb0 x15=0x00000000
       19935000	      1992	800053ec	bf377913	andi	x18,x14,-1037	 x14:0x000007df x18=0x000003d3
       19945000	      1993	800053f0	00000013	addi	x0,x0,0	  x0:0x00000000
       19955000	      1994	800053f4	02012513	slti	x10,x2,32	  x2:0x60009814 x10=0x00000000
       19965000	      1995	800053f8	018c36b3	sltu	x13,x24,x24	 x24:0x80009f40 x24:0x80009f40 x13=0x00000000
       19975000	      1996	800053fc	e7f0cb13	xori	x22,x1,-385	  x1:0x8000056c x22=0x7ffffb13
       19985000	      1997	80005400	00442083	lw	x1,4(x8)	  x8:0x80009f00  x1=0x8000056c PA:0x80009f04
       19995000	      1998	80005404	00000013	addi	x0,x0,0	  x0:0x00000000
       20005000	      1999	80005408	04040413	addi	x8,x8,64	  x8:0x80009f00  x8=0x80009f40
       20015000	      2000	8000540c	1d43a293	slti	x5,x7,468	  x7:0x80009fc4  x5=0x00000001
       20025000	      2001	80005410	0135c813	xori	x16,x11,19	 x11:0xaeea62db x16=0xaeea62c8
       20035000	      2002	80005414	00008993	addi	x19,x1,0	  x1:0x8000056c x19=0x8000056c
       20045000	      2003	80005418	000989e7	jalr	x19,x19,0	 x19:0x8000056c x19=0x80005418
       20055000	      2004	00000000	00000013	addi	x0,x0,0	  x0:0x00000000
       20065000	      2005	8000056c	00000013	addi	x0,x0,0	  x0:0x00000000
       20075000	      2006	80000570	00004617	auipc	x12,0x4	 x12=0x8000456c
       20085000	      2007	80000574	4e060613	addi	x12,x12,1248	 x12:0x8000456c x12=0x80004a4c
       20095000	      2008	80000578	93e14137	lui	x2,0x93e14	  x2=0x93e14000
       20105000	      2009	8000057c	01b10333	add	x6,x2,x27	  x2:0x93e14000 x27:0x00000001  x6=0x93e14001
       20115000	      2010	80000580	000cdb13	srli	x22,x25,0x0	 x25:0x00000000 x22=0x00000000
       20125000	      2011	80000584	dc860613	addi	x12,x12,-568	 x12:0x80004a4c x12=0x80004814
       20135000	      2012	80000588	00bc9e93	slli	x29,x25,0xb	 x25:0x00000000 x29=0x00000000
       20145000	      2013	8000058c	01e15013	srli	x0,x2,0x1e	  x2:0x93e14000
       20155000	      2014	80000590	32fa0593	addi	x11,x20,815	 x20:0xa15e4cb0 x11=0xa15e4fdf
       20165000	      2015	80000594	3db30e93	addi	x29,x6,987	  x6:0x93e14001 x29=0x93e143dc
       20175000	      2016	80000598	01c6e463	bltu	x13,x28,800005a0	 x13:0x00000000 x28:0xe993febc
       20185000	      2017	00000000	00000013	addi	x0,x0,0	  x0:0x00000000
       20195000	      2018	8000059c	00000013	addi	x0,x0,0	  x0:0x00000000
       20205000	      2019	800005a0	239600e7	jalr	x1,x12,569	 x12:0x80004814  x1=0x800005a0
       20215000	      2020	00000000	00000013	addi	x0,x0,0	  x0:0x00000000
       20225000	      2021	80004a4c	00000013	addi	x0,x0,0	  x0:0x00000000
       20235000	      2022	80004a50	0ef3f613	andi	x12,x7,239	  x7:0x80009fc4 x12=0x000000c4
       20245000	      2023	80004a54	41998ab3	sub	x21,x19,x25	 x19:0x80005418 x25:0x00000000 x21=0x80005418
       20255000	      2024	80004a58	01f71713	slli	x14,x14,0x1f	 x14:0x000007df x14=0x80000000
       20265000	      2025	80004a5c	fc440413	addi	x8,x8,-60	  x8:0x80009f40  x8=0x80009f04
       20275000	      2026	80004a60	4003d993	srai	x19,x7,0x0	  x7:0x80009fc4 x19=0x80009fc4
       20285000	      2027	80004a64	45ca3993	sltiu	x19,x20,1116	 x20:0xa15e4cb0 x19=0x00000000
       20295000	      2028	80004a68	00142223	sw	x1,4(x8)	  x8:0x80009f04  x1:0x800005a0 PA:0x80009f08
       20305000	      2029	80004a6c	d10fdeb7	lui	x29,0xd10fd	 x29=0xd10fd000
       20315000	      2030	80004a70	00004117	auipc	x2,0x4	  x2=0x80008a6c
       20325000	      2031	80004a74	4d210113	addi	x2,x2,1234	  x2:0x80008a6c  x2=0x80008f3e
       20335000	      2032	80004a78	00a8d533	srl	x10,x17,x10	 x17:0xfffffd62 x10:0x00000000 x10=0xfffffd62
       20345000	      2033	80004a7c	f4714f03	lbu	x30,-185(x2)	  x2:0x80008f3e x30=0x00000000 PA:0x80008e85
       20355000	      2034	80004a80	fcd11d23	sh	x13,-38(x2)	  x2:0x80008f3e x13:0x00000000 PA:0x80008f18
       20365000	      2035	80004a84	00d8c5b3	xor	x11,x17,x13	 x17:0xfffffd62 x13:0x00000000 x11=0xfffffd62
       20375000	      2036	80004a88	30a721b7	lui	x3,0x30a72	  x3=0x30a72000
       20385000	      2037	80004a8c	41ac5033	sra	x0,x24,x26	 x24:0x80009f40 x26:0x2bf50000
       20395000	      2038	80004a90	014aa333	slt	x6,x21,x20	 x21:0x80005418 x20:0xa15e4cb0  x6=0x00000001
       20405000	      2039	80004a94	41030033	sub	x0,x6,x16	  x6:0x00000001 x16:0xaeea62c8
       20415000	      2040	80004a98	00000013	addi	x0,x0,0	  x0:0x00000000
       20425000	      2041	80004a9c	fe215803	lhu	x16,-30(x2)	  x2:0x80008f3e x16=0x00000000 PA:0x80008f20
       20435000	      2042	80004aa0	785df713	andi	x14,x27,1925	 x27:0x00000001 x14=0x00000001
       20445000	      2043	80004aa4	f5014303	lbu	x6,-176(x2)	  x2:0x80008f3e  x6=0x00000000 PA:0x80008e8e
       20455000	      2044	80004aa8	fd310203	lb	x4,-45(x2)	  x2:0x80008f3e  x4=0x00000000 PA:0x80008f11
       20465000	      2045	80004aac	3352acb7	lui	x25,0x3352a	 x25=0x3352a000
       20475000	      2046	80004ab0	8cc07193	andi	x3,x0,-1844	  x0:0x00000000  x3=0x00000000
       20485000	      2047	80004ab4	02b14603	lbu	x12,43(x2)	  x2:0x80008f3e x12=0x00000000 PA:0x80008f69
       20495000	      2048	80004ab8	07a108a3	sb	x26,113(x2)	  x2:0x80008f3e x26:0x2bf50000 PA:0x80008faf
       20505000	      2049	80004abc	f2310323	sb	x3,-218(x2)	  x2:0x80008f3e  x3:0x00000000 PA:0x80008e64
       20515000	      2050	80004ac0	f1510fa3	sb	x21,-225(x2)	  x2:0x80008f3e x21:0x80005418 PA:0x80008e5d
       20525000	      2051	80004ac4	f7c10483	lb	x9,-132(x2)	  x2:0x80008f3e  x9=0x00000000 PA:0x80008eba
       20535000	      2052	80004ac8	00a10023	sb	x10,0(x2)	  x2:0x80008f3e x10:0xfffffd62 PA:0x80008f3e
       20545000	      2053	80004acc	c2372493	slti	x9,x14,-989	 x14:0x00000001  x9=0x00000000
       20555000	      2054	80004ad0	3cf26793	ori	x15,x4,975	  x4:0x00000000 x15=0x000003cf
       20565000	      2055	80004ad4	02a11303	lh	x6,42(x2)	  x2:0x80008f3e  x6=0x00000000 PA:0x80008f68
       20575000	      2056	80004ad8	f7412d23	sw	x20,-134(x2)	  x2:0x80008f3e x20:0xa15e4cb0 PA:0x80008eb8
       20585000	      2057	80004adc	f4114503	lbu	x10,-191(x2)	  x2:0x80008f3e x10=0x00000000 PA:0x80008e7f
       20595000	      2058	80004ae0	f3710f03	lb	x30,-201(x2)	  x2:0x80008f3e x30=0x00000000 PA:0x80008e75
       20605000	      2059	80004ae4	f5711a23	sh	x23,-172(x2)	  x2:0x80008f3e x23:0x50333cb0 PA:0x80008e92
       20615000	      2060	80004ae8	f6114083	lbu	x1,-159(x2)	  x2:0x80008f3e  x1=0x00000000 PA:0x80008e9f
       20625000	      2061	00000000	00000013	addi	x0,x0,0	  x0:0x00000000
       20635000	      2062	80004aec	a6131d17	auipc	x26,0xa6131	 x26=0x26135ae8
       20645000	      2063	80004af0	d802eb17	auipc	x22,0xd802e	 x22=0x58032aec
       20655000	      2064	80004af4	011e32b3	sltu	x5,x28,x17	 x28:0xe993febc x17:0xfffffd62  x5=0x00000001
       20665000	      2065	80004af8	06f14c83	lbu	x25,111(x2)	  x2:0x80008f3e x25=0x00000000 PA:0x80008fad
       20675000	      2066	00000000	00000013	addi	x0,x0,0	  x0:0x00000000
       20685000	      2067	80004afc	00fc9b13	slli	x22,x25,0xf	 x25:0x00000000 x22=0x00000000
       20695000	      2068	80004b00	06810583	lb	x11,104(x2)	  x2:0x80008f3e x11=0x00000000 PA:0x80008fa6
       20705000	      2069	80004b04	a15a7917	auipc	x18,0xa15a7	 x18=0x215abb00
       20715000	      2070	80004b08	0a610703	lb	x14,166(x2)	  x2:0x80008f3e x14=0x00000000 PA:0x80008fe4
       20725000	      2071	80004b0c	f43103a3	sb	x3,-185(x2)	  x2:0x80008f3e  x3:0x00000000 PA:0x80008e85
       20735000	      2072	80004b10	f5ce3f13	sltiu	x30,x28,-164	 x28:0xe993febc x30=0x00000001
       20745000	      2073	80004b14	4bfecd37	lui	x26,0x4bfec	 x26=0x4bfec000
       20755000	      2074	80004b18	f1910e83	lb	x29,-231(x2)	  x2:0x80008f3e x29=0x00000000 PA:0x80008e57
       20765000	      2075	80004b1c	f2314f83	lbu	x31,-221(x2)	  x2:0x80008f3e x31=0x00000000 PA:0x80008e61
       20775000	      2076	80004b20	00221933	sll	x18,x4,x2	  x4:0x00000000  x2:0x80008f3e x18=0x00000000
       20785000	      2077	80004b24	b8f5b893	sltiu	x17,x11,-1137	 x11:0x00000000 x17=0x00000001
       20795000	      2078	80004b28	b8260993	addi	x19,x12,-1150	 x12:0x00000000 x19=0xfffffb82
       20805000	      2079	80004b2c	00612f03	lw	x30,6(x2)	  x2:0x80008f3e x30=0x00000000 PA:0x80008f44
       20815000	      2080	80004b30	f7215903	lhu	x18,-142(x2)	  x2:0x80008f3e x18=0x00000000 PA:0x80008eb0
       20825000	      2081	80004b34	f2c1ed13	ori	x26,x3,-212	  x3:0x00000000 x26=0xffffff2c
       20835000	      2082	80004b38	05514e03	lbu	x28,85(x2)	  x2:0x80008f3e x28=0x00000000 PA:0x80008f93
       20845000	      2083	80004b3c	4f8cb6b7	lui	x13,0x4f8cb	 x13=0x4f8cb000
       20855000	      2084	80004b40	caddad13	slti	x26,x27,-851	 x27:0x00000001 x26=0x00000000
       20865000	      2085	80004b44	fe414f83	lbu	x31,-28(x2)	  x2:0x80008f3e x31=0x00000000 PA:0x80008f22
       20875000	      2086	80004b48	00004297	auipc	x5,0x4	  x5=0x80008b44
       20885000	      2087	80004b4c	31e28293	addi	x5,x5,798	  x5:0x80008b44  x5=0x80008e62
       20895000	      2088	80004b50	9ea2d683	lhu	x13,-1558(x5)	  x5:0x80008e62 x13=0x00000000 PA:0x8000884c
       20905000	      2089	80004b54	cf42c603	lbu	x12,-780(x5)	  x5:0x80008e62 x12=0x00000000 PA:0x80008b56
       20915000	      2090	80004b58	ba188513	addi	x10,x17,-1119	 x17:0x00000001 x10=0xfffffba2
       20925000	      2091	80004b5c	05b28723	sb	x27,78(x5)	  x5:0x80008e62 x27:0x00000001 PA:0x80008eb0
       20935000	      2092	80004b60	cf229723	sh	x18,-786(x5)	  x5:0x80008e62 x18:0x00000000 PA:0x80008b50
       20945000	      2093	80004b64	00f416b3	sll	x13,x8,x15	  x8:0x80009f04 x15:0x000003cf x13=0x4f820000
       20955000	      2094	80004b68	e97280a3	sb	x23,-383(x5)	  x5:0x80008e62 x23:0x50333cb0 PA:0x80008ce3
       20965000	      2095	80004b6c	2a310093	addi	x1,x2,675	  x2:0x80008f3e  x1=0x800091e1
       20975000	      2096	80004b70	01fc2633	slt	x12,x24,x31	 x24:0x80009f40 x31:0x00000000 x12=0x00000001
       20985000	      2097	80004b74	e6f13b13	sltiu	x22,x2,-401	  x2:0x80008f3e x22=0x00000001
       20995000	      2098	80004b78	aad28483	lb	x9,-1363(x5)	  x5:0x80008e62  x9=0x00000000 PA:0x8000890f
       21005000	      2099	80004b7c	f922a683	lw	x13,-110(x5)	  x5:0x80008e62 x13=0x00000000 PA:0x80008df4
       21015000	      2100	80004b80	408050b3	sra	x1,x0,x8	  x0:0x00000000  x8:0x80009f04  x1=0x00000000
       21025000	      2101	80004b84	e2829e03	lh	x28,-472(x5)	  x5:0x80008e62 x28=0x00000000 PA:0x80008c8a
       21035000	      2102	80004b88	40308033	sub	x0,x1,x3	  x1:0x00000000  x3:0x00000000
       21045000	      2103	80004b8c	f3d08613	addi	x12,x1,-195	  x1:0x00000000 x12=0xffffff3d
       21055000	      2104	80004b90	c3528d03	lb	x26,-971(x5)	  x5:0x80008e62 x26=0x00000000 PA:0x80008a97
       21065000	      2105	80004b94	ce42c783	lbu	x15,-796(x5)	  x5:0x80008e62 x15=0x00000000 PA:0x80008b46
       21075000	      2106	80004b98	009184b3	add	x9,x3,x9	  x3:0x00000000  x9:0x00000000  x9=0x00000000
       21085000	      2107	80004b9c	41b25713	srai	x14,x4,0x1b	  x4:0x00000000 x14=0x00000000
       21095000	      2108	80004ba0	1d48ae93	slti	x29,x17,468	 x17:0x00000001 x29=0x00000001
       21105000	      2109	80004ba4	01a5b9b3	sltu	x19,x11,x26	 x11:0x00000000 x26:0x00000000 x19=0x00000000
       21115000	      2110	80004ba8	01d5d233	srl	x4,x11,x29	 x11:0x00000000 x29:0x00000001  x4=0x00000000
       21125000	      2111	80004bac	01c31213	slli	x4,x6,0x1c	  x6:0x00000000  x4=0x00000000
       21135000	      2112	80004bb0	018f2b33	slt	x22,x30,x24	 x30:0x00000000 x24:0x80009f40 x22=0x00000000
       21145000	      2113	80004bb4	c0428f03	lb	x30,-1020(x5)	  x5:0x80008e62 x30=0x00000000 PA:0x80008a66
       21155000	      2114	80004bb8	00f73533	sltu	x10,x14,x15	 x14:0x00000000 x15:0x00000000 x10=0x00000000
       21165000	      2115	80004bbc	b062a103	lw	x2,-1274(x5)	  x5:0x80008e62  x2=0x00000000 PA:0x80008968
       21175000	      2116	80004bc0	9cdc9eb7	lui	x29,0x9cdc9	 x29=0x9cdc9000
       21185000	      2117	80004bc4	fe473c13	sltiu	x24,x14,-28	 x14:0x00000000 x24=0x00000001
       21195000	      2118	80004bc8	db82d083	lhu	x1,-584(x5)	  x5:0x80008e62  x1=0x00000000 PA:0x80008c1a
       21205000	      2119	80004bcc	03829423	sh	x24,40(x5)	  x5:0x80008e62 x24:0x00000001 PA:0x80008e8a
       21215000	      2120	80004bd0	3ef8cc93	xori	x25,x17,1007	 x17:0x00000001 x25=0x000003ee
       21225000	      2121	80004bd4	014a59b3	srl	x19,x20,x20	 x20:0xa15e4cb0 x20:0xa15e4cb0 x19=0x0000a15e
       21235000	      2122	80004bd8	a1b69db7	lui	x27,0xa1b69	 x27=0xa1b69000
       21245000	      2123	80004bdc	0121c733	xor	x14,x3,x18	  x3:0x00000000 x18:0x00000000 x14=0x00000000
       21255000	      2124	80004be0	01a1f7b3	and	x15,x3,x26	  x3:0x00000000 x26:0x00000000 x15=0x00000000
       21265000	      2125	80004be4	00244333	xor	x6,x8,x2	  x8:0x80009f04  x2:0x00000000  x6=0x80009f04
       21275000	      2126	80004be8	ed62c803	lbu	x16,-298(x5)	  x5:0x80008e62 x16=0x00000000 PA:0x80008d38
       21285000	      2127	80004bec	00004117	auipc	x2,0x4	  x2=0x80008be8
       21295000	      2128	80004bf0	b8810113	addi	x2,x2,-1144	  x2:0x80008be8  x2=0x80008770
       21305000	      2129	80004bf4	0012a0b3	slt	x1,x5,x1	  x5:0x80008e62  x1:0x00000000  x1=0x00000001
       21315000	      2130	80004bf8	00914303	lbu	x6,9(x2)	  x2:0x80008770  x6=0x00000000 PA:0x80008779
       21325000	      2131	80004bfc	62243b93	sltiu	x23,x8,1570	  x8:0x80009f04 x23=0x00000000
       21335000	      2132	80004c00	ffe10ea3	sb	x30,-3(x2)	  x2:0x80008770 x30:0x00000000 PA:0x8000876d
       21345000	      2133	80004c04	00000013	addi	x0,x0,0	  x0:0x00000000
       21355000	      2134	80004c08	fe510e23	sb	x5,-4(x2)	  x2:0x80008770  x5:0x80008e62 PA:0x8000876c
       21365000	      2135	80004c0c	ffe10883	lb	x17,-2(x2)	  x2:0x80008770 x17=0x00000000 PA:0x8000876e
       21375000	      2136	80004c10	00000013	addi	x0,x0,0	  x0:0x00000000
       21385000	      2137	80004c14	df6e7a93	andi	x21,x28,-522	 x28:0x00000000 x21=0x00000000
       21395000	      2138	80004c18	afe5cb13	xori	x22,x11,-1282	 x11:0x00000000 x22=0xfffffafe
       21405000	      2139	80004c1c	40f15b33	sra	x22,x2,x15	  x2:0x80008770 x15:0x00000000 x22=0x80008770
       21415000	      2140	80004c20	3d9ae193	ori	x3,x21,985	 x21:0x00000000  x3=0x000003d9
       21425000	      2141	80004c24	00a10483	lb	x9,10(x2)	  x2:0x80008770  x9=0x00000000 PA:0x8000877a
       21435000	      2142	80004c28	fff14203	lbu	x4,-1(x2)	  x2:0x80008770  x4=0x00000000 PA:0x8000876f
       21445000	      2143	80004c2c	01e95e33	srl	x28,x18,x30	 x18:0x00000000 x30:0x00000000 x28=0x00000000
       21455000	      2144	80004c30	ff815503	lhu	x10,-8(x2)	  x2:0x80008770 x10=0x00000000 PA:0x80008768
       21465000	      2145	80004c34	01d5d9b3	srl	x19,x11,x29	 x11:0x00000000 x29:0x9cdc9000 x19=0x00000000
       21475000	      2146	80004c38	695b0d93	addi	x27,x22,1685	 x22:0x80008770 x27=0x80008e05
       21485000	      2147	80004c3c	ff615e83	lhu	x29,-10(x2)	  x2:0x80008770 x29=0x00000000 PA:0x80008766
       21495000	      2148	80004c40	ff714503	lbu	x10,-9(x2)	  x2:0x80008770 x10=0x00000000 PA:0x80008767
       21505000	      2149	80004c44	7c7c4997	auipc	x19,0x7c7c4	 x19=0xfc7c8c40
       21515000	      2150	80004c48	b4b26c13	ori	x24,x4,-1205	  x4:0x00000000 x24=0xfffffb4b
       21525000	      2151	80004c4c	23c8b317	auipc	x6,0x23c8b	  x6=0xa3c8fc48
       21535000	      2152	80004c50	01334833	xor	x16,x6,x19	  x6:0xa3c8fc48 x19:0xfc7c8c40 x16=0x5fb47008
       21545000	      2153	80004c54	007601b3	add	x3,x12,x7	 x12:0xffffff3d  x7:0x80009fc4  x3=0x80009f01
       21555000	      2154	80004c58	ffe15803	lhu	x16,-2(x2)	  x2:0x80008770 x16=0x00000000 PA:0x8000876e
       21565000	      2155	80004c5c	0151b733	sltu	x14,x3,x21	  x3:0x80009f01 x21:0x00000000 x14=0x00000000
       21575000	      2156	80004c60	00b10783	lb	x15,11(x2)	  x2:0x80008770 x15=0x00000000 PA:0x8000877b
       21585000	      2157	80004c64	00d14303	lbu	x6,13(x2)	  x2:0x80008770  x6=0x00000000 PA:0x8000877d
       21595000	      2158	80004c68	42e3c013	xori	x0,x7,1070	  x7:0x80009fc4
       21605000	      2159	80004c6c	401a00b3	sub	x1,x20,x1	 x20:0xa15e4cb0  x1:0x00000001  x1=0xa15e4caf
       21615000	      2160	80004c70	ff714a83	lbu	x21,-9(x2)	  x2:0x80008770 x21=0x00000000 PA:0x80008767
       21625000	      2161	80004c74	4106d013	srai	x0,x13,0x10	 x13:0x00000000
       21635000	      2162	80004c78	01015703	lhu	x14,16(x2)	  x2:0x80008770 x14=0x00000000 PA:0x80008780
       21645000	      2163	80004c7c	01e7d2b3	srl	x5,x15,x30	 x15:0x00000000 x30:0x00000000  x5=0x00000000
       21655000	      2164	80004c80	ff214483	lbu	x9,-14(x2)	  x2:0x80008770  x9=0x00000000 PA:0x80008762
       21665000	      2165	80004c84	01f10823	sb	x31,16(x2)	  x2:0x80008770 x31:0x00000000 PA:0x80008780
       21675000	      2166	80004c88	ff810ca3	sb	x24,-7(x2)	  x2:0x80008770 x24:0xfffffb4b PA:0x80008769
       21685000	      2167	80004c8c	ff110903	lb	x18,-15(x2)	  x2:0x80008770 x18=0x00000000 PA:0x80008761
       21695000	      2168	80004c90	07d52c13	slti	x24,x10,125	 x10:0x00000000 x24=0x00000001
       21705000	      2169	80004c94	00512223	sw	x5,4(x2)	  x2:0x80008770  x5:0x00000000 PA:0x80008774
       21715000	      2170	80004c98	fee10c23	sb	x14,-8(x2)	  x2:0x80008770 x14:0x00000000 PA:0x80008768
       21725000	      2171	80004c9c	40385693	srai	x13,x16,0x3	 x16:0x00000000 x13=0x00000000
       21735000	      2172	80004ca0	00c14803	lbu	x16,12(x2)	  x2:0x80008770 x16=0x00000000 PA:0x8000877c
       21745000	      2173	80004ca4	dc0f7d97	auipc	x27,0xdc0f7	 x27=0x5c0fbca0
       21755000	      2174	80004ca8	01810823	sb	x24,16(x2)	  x2:0x80008770 x24:0x00000001 PA:0x80008780
       21765000	      2175	80004cac	006104a3	sb	x6,9(x2)	  x2:0x80008770  x6:0x00000000 PA:0x80008779
       21775000	      2176	80004cb0	03584863	blt	x16,x21,80004ce0	 x16:0x00000000 x21:0x00000000
       21785000	      2177	80004cb4	40c80db3	sub	x27,x16,x12	 x16:0x00000000 x12:0xffffff3d x27=0x000000c3
       21795000	      2178	80004cb8	41c55133	sra	x2,x10,x28	 x10:0x00000000 x28:0x00000000  x2=0x00000000
       21805000	      2179	80004cbc	01cf9863	bne	x31,x28,80004ccc	 x31:0x00000000 x28:0x00000000
       21815000	      2180	80004cc0	03c16263	bltu	x2,x28,80004ce4	  x2:0x00000000 x28:0x00000000
       21825000	      2181	80004cc4	00000013	addi	x0,x0,0	  x0:0x00000000
       21835000	      2182	80004cc8	00b55233	srl	x4,x10,x11	 x10:0x00000000 x11:0x00000000  x4=0x00000000
       21845000	      2183	80004ccc	00000013	addi	x0,x0,0	  x0:0x00000000
       21855000	      2184	80004cd0	00a72633	slt	x12,x14,x10	 x14:0x00000000 x10:0x00000000 x12=0x00000000
       21865000	      2185	80004cd4	00000013	addi	x0,x0,0	  x0:0x00000000
       21875000	      2186	80004cd8	d2c43193	sltiu	x3,x8,-724	  x8:0x80009f04  x3=0x00000001
       21885000	      2187	80004cdc	01f25933	srl	x18,x4,x31	  x4:0x00000000 x31:0x00000000 x18=0x00000000
       21895000	      2188	80004ce0	00165733	srl	x14,x12,x1	 x12:0x00000000  x1:0xa15e4caf x14=0x00000000
       21905000	      2189	80004ce4	007dca63	blt	x27,x7,80004cf8	 x27:0x000000c3  x7:0x80009fc4
       21915000	      2190	80004ce8	21ea2f37	lui	x30,0x21ea2	 x30=0x21ea2000
       21925000	      2191	80004cec	fa4aad93	slti	x27,x21,-92	 x21:0x00000000 x27=0x00000000
       21935000	      2192	80004cf0	0010d9b3	srl	x19,x1,x1	  x1:0xa15e4caf  x1:0xa15e4caf x19=0x000142bc
       21945000	      2193	80004cf4	250d34b7	lui	x9,0x250d3	  x9=0x250d3000
       21955000	      2194	80004cf8	048df463	bgeu	x27,x8,80004d40	 x27:0x00000000  x8:0x80009f04
       21965000	      2195	80004cfc	3589f213	andi	x4,x19,856	 x19:0x000142bc  x4=0x00000218
       21975000	      2196	80004d00	0003d313	srli	x6,x7,0x0	  x7:0x80009fc4  x6=0x80009fc4
       21985000	      2197	80004d04	4c07af93	slti	x31,x15,1216	 x15:0x00000000 x31=0x00000001
       21995000	      2198	80004d08	01b6db93	srli	x23,x13,0x1b	 x13:0x00000000 x23=0x00000000
       22005000	      2199	80004d0c	0193d533	srl	x10,x7,x25	  x7:0x80009fc4 x25:0x000003ee x10=0x00020002
       22015000	      2200	80004d10	00dc8333	add	x6,x25,x13	 x25:0x000003ee x13:0x00000000  x6=0x000003ee
       22025000	      2201	80004d14	0308c463	blt	x17,x16,80004d3c	 x17:0x00000000 x16:0x00000000
       22035000	      2202	80004d18	008fce33	xor	x28,x31,x8	 x31:0x00000001  x8:0x80009f04 x28=0x80009f05
       22045000	      2203	80004d1c	04f28863	beq	x5,x15,80004d6c	  x5:0x00000000 x15:0x00000000
       22055000	      2204	00000000	00000013	addi	x0,x0,0	  x0:0x00000000
       22065000	      2205	80004d68	00000013	addi	x0,x0,0	  x0:0x00000000
       22075000	      2206	80004d6c	03331e63	bne	x6,x19,80004da8	  x6:0x000003ee x19:0x000142bc
       22085000	      2207	00000000	00000013	addi	x0,x0,0	  x0:0x00000000
       22095000	      2208	80004da4	00000013	addi	x0,x0,0	  x0:0x00000000
       22105000	      2209	80004da8	01381463	bne	x16,x19,80004db0	 x16:0x00000000 x19:0x000142bc
       22115000	      2210	00000000	00000013	addi	x0,x0,0	  x0:0x00000000
       22125000	      2211	80004dac	00000013	addi	x0,x0,0	  x0:0x00000000
       22135000	      2212	80004db0	03fee863	bltu	x29,x31,80004de0	 x29:0x00000000 x31:0x00000001
       22145000	      2213	00000000	00000013	addi	x0,x0,0	  x0:0x00000000
       22155000	      2214	80004ddc	00000013	addi	x0,x0,0	  x0:0x00000000
       22165000	      2215	80004de0	49d68713	addi	x14,x13,1181	 x13:0x00000000 x14=0x0000049d
       22175000	      2216	80004de4	c3f8bab7	lui	x21,0xc3f8b	 x21=0xc3f8b000
       22185000	      2217	80004de8	00000013	addi	x0,x0,0	  x0:0x00000000
       22195000	      2218	80004dec	057a1063	bne	x20,x23,80004e2c	 x20:0xa15e4cb0 x23:0x00000000
       22205000	      2219	00000000	00000013	addi	x0,x0,0	  x0:0x00000000
       22215000	      2220	80004e28	00000013	addi	x0,x0,0	  x0:0x00000000
       22225000	      2221	80004e2c	fd777593	andi	x11,x14,-41	 x14:0x0000049d x11=0x00000495
       22235000	      2222	80004e30	01d90863	beq	x18,x29,80004e40	 x18:0x00000000 x29:0x00000000
       22245000	      2223	00000000	00000013	addi	x0,x0,0	  x0:0x00000000
       22255000	      2224	80004e3c	00000013	addi	x0,x0,0	  x0:0x00000000
       22265000	      2225	80004e40	05660463	beq	x12,x22,80004e88	 x12:0x00000000 x22:0x80008770
       22275000	      2226	80004e44	40a48e33	sub	x28,x9,x10	  x9:0x250d3000 x10:0x00020002 x28=0x250b2ffe
       22285000	      2227	80004e48	0147f933	and	x18,x15,x20	 x15:0x00000000 x20:0xa15e4cb0 x18=0x00000000
       22295000	      2228	80004e4c	00000013	addi	x0,x0,0	  x0:0x00000000
       22305000	      2229	80004e50	00cd4cb3	xor	x25,x26,x12	 x26:0x00000000 x12:0x00000000 x25=0x00000000
       22315000	      2230	80004e54	af610893	addi	x17,x2,-1290	  x2:0x00000000 x17=0xfffffaf6
       22325000	      2231	80004e58	0195abb3	slt	x23,x11,x25	 x11:0x00000495 x25:0x00000000 x23=0x00000000
       22335000	      2232	80004e5c	02616463	bltu	x2,x6,80004e84	  x2:0x00000000  x6:0x000003ee
       22345000	      2233	00000000	00000013	addi	x0,x0,0	  x0:0x00000000
       22355000	      2234	80004e80	00000013	addi	x0,x0,0	  x0:0x00000000
       22365000	      2235	80004e84	003bd093	srli	x1,x23,0x3	 x23:0x00000000  x1=0x00000000
       22375000	      2236	80004e88	00fde863	bltu	x27,x15,80004e98	 x27:0x00000000 x15:0x00000000
       22385000	      2237	80004e8c	00016e33	or	x28,x2,x0	  x2:0x00000000  x0:0x00000000 x28=0x00000000
       22395000	      2238	80004e90	35570813	addi	x16,x14,853	 x14:0x0000049d x16=0x000007f2
       22405000	      2239	80004e94	4108de13	srai	x28,x17,0x10	 x17:0xfffffaf6 x28=0xffffffff
       22415000	      2240	80004e98	05fe8063	beq	x29,x31,80004ed8	 x29:0x00000000 x31:0x00000001
       22425000	      2241	80004e9c	00a5cf33	xor	x30,x11,x10	 x11:0x00000495 x10:0x00020002 x30=0x00020497
       22435000	      2242	80004ea0	01b26533	or	x10,x4,x27	  x4:0x00000218 x27:0x00000000 x10=0x00000218
       22445000	      2243	80004ea4	0194df93	srli	x31,x9,0x19	  x9:0x250d3000 x31=0x00000012
       22455000	      2244	80004ea8	51e4fbb7	lui	x23,0x51e4f	 x23=0x51e4f000
       22465000	      2245	80004eac	d6230193	addi	x3,x6,-670	  x6:0x000003ee  x3=0x00000150
       22475000	      2246	80004eb0	a9292313	slti	x6,x18,-1390	 x18:0x00000000  x6=0x00000000
       22485000	      2247	80004eb4	a5d04993	xori	x19,x0,-1443	  x0:0x00000000 x19=0xfffffa5d
       22495000	      2248	80004eb8	01b108b3	add	x17,x2,x27	  x2:0x00000000 x27:0x00000000 x17=0x00000000
       22505000	      2249	80004ebc	418f8db3	sub	x27,x31,x24	 x31:0x00000012 x24:0x00000001 x27=0x00000011
       22515000	      2250	80004ec0	4030d4b3	sra	x9,x1,x3	  x1:0x00000000  x3:0x00000150  x9=0x00000000
       22525000	      2251	80004ec4	15f57b13	andi	x22,x10,351	 x10:0x00000218 x22=0x00000018
       22535000	      2252	80004ec8	14c2e713	ori	x14,x5,332	  x5:0x00000000 x14=0x0000014c
       22545000	      2253	80004ecc	02584c63	blt	x16,x5,80004f04	 x16:0x000007f2  x5:0x00000000
       22555000	      2254	80004ed0	01895db3	srl	x27,x18,x24	 x18:0x00000000 x24:0x00000001 x27=0x00000000
       22565000	      2255	80004ed4	0f7ce293	ori	x5,x25,247	 x25:0x00000000  x5=0x000000f7
       22575000	      2256	80004ed8	40415e13	srai	x28,x2,0x4	  x2:0x00000000 x28=0x00000000
       22585000	      2257	80004edc	02f8f263	bgeu	x17,x15,80004f00	 x17:0x00000000 x15:0x00000000
       22595000	      2258	00000000	00000013	addi	x0,x0,0	  x0:0x00000000
       22605000	      2259	80004efc	00000013	addi	x0,x0,0	  x0:0x00000000
       22615000	      2260	80004f00	01f85ab3	srl	x21,x16,x31	 x16:0x000007f2 x31:0x00000012 x21=0x00000000
       22625000	      2261	80004f04	01eb3eb3	sltu	x29,x22,x30	 x22:0x00000018 x30:0x00020497 x29=0x00000001
       22635000	      2262	80004f08	00000013	addi	x0,x0,0	  x0:0x00000000
       22645000	      2263	80004f0c	006335b3	sltu	x11,x6,x6	  x6:0x00000000  x6:0x00000000 x11=0x00000000
       22655000	      2264	80004f10	c2f8b693	sltiu	x13,x17,-977	 x17:0x00000000 x13=0x00000001
       22665000	      2265	80004f14	00aeb533	sltu	x10,x29,x10	 x29:0x00000001 x10:0x00000218 x10=0x00000001
       22675000	      2266	80004f18	6feb3e13	sltiu	x28,x22,1790	 x22:0x00000018 x28=0x00000001
       22685000	      2267	80004f1c	00a95113	srli	x2,x18,0xa	 x18:0x00000000  x2=0x00000000
       22695000	      2268	80004f20	01dc4633	xor	x12,x24,x29	 x24:0x00000001 x29:0x00000001 x12=0x00000000
       22705000	      2269	80004f24	02438063	beq	x7,x4,80004f44	  x7:0x80009fc4  x4:0x00000218
       22715000	      2270	80004f28	0361e263	bltu	x3,x22,80004f4c	  x3:0x00000150 x22:0x00000018
       22725000	      2271	80004f2c	002037b3	sltu	x15,x0,x2	  x0:0x00000000  x2:0x00000000 x15=0x00000000
       22735000	      2272	80004f30	d836a993	slti	x19,x13,-637	 x13:0x00000001 x19=0x00000000
       22745000	      2273	80004f34	b0c18c93	addi	x25,x3,-1268	  x3:0x00000150 x25=0xfffffc5c
       22755000	      2274	80004f38	0176ec33	or	x24,x13,x23	 x13:0x00000001 x23:0x51e4f000 x24=0x51e4f001
       22765000	      2275	80004f3c	842ac317	auipc	x6,0x842ac	  x6=0x042b0f38
       22775000	      2276	80004f40	03dbfe63	bgeu	x23,x29,80004f7c	 x23:0x51e4f000 x29:0x00000001
       22785000	      2277	00000000	00000013	addi	x0,x0,0	  x0:0x00000000
       22795000	      2278	80004f78	00000013	addi	x0,x0,0	  x0:0x00000000
       22805000	      2279	80004f7c	00bb6663	bltu	x22,x11,80004f88	 x22:0x00000018 x11:0x00000000
       22815000	      2280	80004f80	a134fe13	andi	x28,x9,-1517	  x9:0x00000000 x28=0x00000000
       22825000	      2281	80004f84	004124b3	slt	x9,x2,x4	  x2:0x00000000  x4:0x00000218  x9=0x00000001
       22835000	      2282	80004f88	018e3cb3	sltu	x25,x28,x24	 x28:0x00000000 x24:0x51e4f001 x25=0x00000001
       22845000	      2283	80004f8c	00a25863	bge	x4,x10,80004f9c	  x4:0x00000218 x10:0x00000001
       22855000	      2284	00000000	00000013	addi	x0,x0,0	  x0:0x00000000
       22865000	      2285	80004f98	00000013	addi	x0,x0,0	  x0:0x00000000
       22875000	      2286	80004f9c	94b3ac37	lui	x24,0x94b3a	 x24=0x94b3a000
       22885000	      2287	80004fa0	018dee63	bltu	x27,x24,80004fbc	 x27:0x00000000 x24:0x94b3a000
       22895000	      2288	00000000	00000013	addi	x0,x0,0	  x0:0x00000000
       22905000	      2289	80004fb8	00000013	addi	x0,x0,0	  x0:0x00000000
       22915000	      2290	80004fbc	003b9493	slli	x9,x23,0x3	 x23:0x51e4f000  x9=0x8f278000
       22925000	      2291	80004fc0	01d7ff33	and	x30,x15,x29	 x15:0x00000000 x29:0x00000001 x30=0x00000000
       22935000	      2292	80004fc4	01a21e33	sll	x28,x4,x26	  x4:0x00000218 x26:0x00000000 x28=0x00000218
       22945000	      2293	80004fc8	41075293	srai	x5,x14,0x10	 x14:0x0000014c  x5=0x00000000
       22955000	      2294	80004fcc	03110263	beq	x2,x17,80004ff0	  x2:0x00000000 x17:0x00000000
       22965000	      2295	00000000	00000013	addi	x0,x0,0	  x0:0x00000000
       22975000	      2296	80004fec	00000013	addi	x0,x0,0	  x0:0x00000000
       22985000	      2297	80004ff0	410e0eb3	sub	x29,x28,x16	 x28:0x00000218 x16:0x000007f2 x29=0xfffffa26
       22995000	      2298	80004ff4	d5a676b7	lui	x13,0xd5a67	 x13=0xd5a67000
       23005000	      2299	80004ff8	00d54233	xor	x4,x10,x13	 x10:0x00000001 x13:0xd5a67000  x4=0xd5a67001
       23015000	      2300	80004ffc	75a7fe13	andi	x28,x15,1882	 x15:0x00000000 x28=0x00000000
       23025000	      2301	80005000	40f75c13	srai	x24,x14,0xf	 x14:0x0000014c x24=0x00000000
       23035000	      2302	80005004	01744733	xor	x14,x8,x23	  x8:0x80009f04 x23:0x51e4f000 x14=0xd1e46f04
       23045000	      2303	80005008	7a22db97	auipc	x23,0x7a22d	 x23=0xfa232004
       23055000	      2304	8000500c	41aa0333	sub	x6,x20,x26	 x20:0xa15e4cb0 x26:0x00000000  x6=0xa15e4cb0
       23065000	      2305	80005010	0100f533	and	x10,x1,x16	  x1:0x00000000 x16:0x000007f2 x10=0x00000000
       23075000	      2306	80005014	41fc0833	sub	x16,x24,x31	 x24:0x00000000 x31:0x00000012 x16=0xffffffee
       23085000	      2307	80005018	41b9d833	sra	x16,x19,x27	 x19:0x00000000 x27:0x00000000 x16=0x00000000
       23095000	      2308	8000501c	8e2bf493	andi	x9,x23,-1822	 x23:0xfa232004  x9=0xfa232000
       23105000	      2309	80005020	40f95833	sra	x16,x18,x15	 x18:0x00000000 x15:0x00000000 x16=0x00000000
       23115000	      2310	80005024	04854463	blt	x10,x8,8000506c	 x10:0x00000000  x8:0x80009f04
       23125000	      2311	80005028	01654733	xor	x14,x10,x22	 x10:0x00000000 x22:0x00000018 x14=0x00000018
       23135000	      2312	8000502c	045b0063	beq	x22,x5,8000506c	 x22:0x00000018  x5:0x00000000
       23145000	      2313	80005030	02c5e063	bltu	x11,x12,80005050	 x11:0x00000000 x12:0x00000000
       23155000	      2314	80005034	00085863	bge	x16,x0,80005044	 x16:0x00000000  x0:0x00000000
       23165000	      2315	00000000	00000013	addi	x0,x0,0	  x0:0x00000000
       23175000	      2316	80005040	00000013	addi	x0,x0,0	  x0:0x00000000
       23185000	      2317	80005044	019130b3	sltu	x1,x2,x25	  x2:0x00000000 x25:0x00000001  x1=0x00000001
       23195000	      2318	80005048	004391b3	sll	x3,x7,x4	  x7:0x80009fc4  x4:0xd5a67001  x3=0x00013f88
       23205000	      2319	8000504c	b9a3e613	ori	x12,x7,-1126	  x7:0x80009fc4 x12=0xffffffde
       23215000	      2320	80005050	00000013	addi	x0,x0,0	  x0:0x00000000
       23225000	      2321	80005054	01aede13	srli	x28,x29,0x1a	 x29:0xfffffa26 x28=0x0000003f
       23235000	      2322	80005058	02788863	beq	x17,x7,80005088	 x17:0x00000000  x7:0x80009fc4
       23245000	      2323	8000505c	70b4c113	xori	x2,x9,1803	  x9:0xfa232000  x2=0xfa23270b
       23255000	      2324	80005060	028b4c63	blt	x22,x8,80005098	 x22:0x00000018  x8:0x80009f04
       23265000	      2325	80005064	0095eb33	or	x22,x11,x9	 x11:0x00000000  x9:0xfa232000 x22=0xfa232000
       23275000	      2326	80005068	0199b0b3	sltu	x1,x19,x25	 x19:0x00000000 x25:0x00000001  x1=0x00000001
       23285000	      2327	8000506c	9dd72d13	slti	x26,x14,-1571	 x14:0x00000018 x26=0x00000000
       23295000	      2328	80005070	018842b3	xor	x5,x16,x24	 x16:0x00000000 x24:0x00000000  x5=0x00000000
       23305000	      2329	80005074	01785463	bge	x16,x23,8000507c	 x16:0x00000000 x23:0xfa232004
       23315000	      2330	00000000	00000013	addi	x0,x0,0	  x0:0x00000000
       23325000	      2331	80005078	00000013	addi	x0,x0,0	  x0:0x00000000
       23335000	      2332	8000507c	02556463	bltu	x10,x5,800050a4	 x10:0x00000000  x5:0x00000000
       23345000	      2333	80005080	01ae9e13	slli	x28,x29,0x1a	 x29:0xfffffa26 x28=0x98000000
       23355000	      2334	80005084	c9202b13	slti	x22,x0,-878	  x0:0x00000000 x22=0x00000000
       23365000	      2335	80005088	007850b3	srl	x1,x16,x7	 x16:0x00000000  x7:0x80009fc4  x1=0x00000000
       23375000	      2336	8000508c	1e298513	addi	x10,x19,482	 x19:0x00000000 x10=0x000001e2
       23385000	      2337	80005090	aa867313	andi	x6,x12,-1368	 x12:0xffffffde  x6=0xfffffa88
       23395000	      2338	80005094	01c4c333	xor	x6,x9,x28	  x9:0xfa232000 x28:0x98000000  x6=0x62232000
       23405000	      2339	80005098	01e368b3	or	x17,x6,x30	  x6:0x62232000 x30:0x00000000 x17=0x62232000
       23415000	      2340	8000509c	00545013	srli	x0,x8,0x5	  x8:0x80009f04
       23425000	      2341	800050a0	a4aa0213	addi	x4,x20,-1462	 x20:0xa15e4cb0  x4=0xa15e46fa
       23435000	      2342	800050a4	40fc8833	sub	x16,x25,x15	 x25:0x00000001 x15:0x00000000 x16=0x00000001
       23445000	      2343	800050a8	00352d33	slt	x26,x10,x3	 x10:0x000001e2  x3:0x00013f88 x26=0x00000001
       23455000	      2344	800050ac	00ce4263	blt	x28,x12,800050b0	 x28:0x98000000 x12:0xffffffde
       23465000	      2345	00000000	00000013	addi	x0,x0,0	  x0:0x00000000
       23475000	      2346	800050ac	00000013	addi	x0,x0,0	  x0:0x00000000
       23485000	      2347	800050b0	0121f0b3	and	x1,x3,x18	  x3:0x00013f88 x18:0x00000000  x1=0x00000000
       23495000	      2348	800050b4	013b95b3	sll	x11,x23,x19	 x23:0xfa232004 x19:0x00000000 x11=0xfa232004
       23505000	      2349	800050b8	01f947b3	xor	x15,x18,x31	 x18:0x00000000 x31:0x00000012 x15=0x00000012
       23515000	      2350	800050bc	05577863	bgeu	x14,x21,8000510c	 x14:0x00000018 x21:0x00000000
       23525000	      2351	00000000	00000013	addi	x0,x0,0	  x0:0x00000000
       23535000	      2352	80005108	00000013	addi	x0,x0,0	  x0:0x00000000
       23545000	      2353	8000510c	00146fb3	or	x31,x8,x1	  x8:0x80009f04  x1:0x00000000 x31=0x80009f04
       23555000	      2354	80005110	012a0033	add	x0,x20,x18	 x20:0xa15e4cb0 x18:0x00000000
       23565000	      2355	80005114	000a6ab3	or	x21,x20,x0	 x20:0xa15e4cb0  x0:0x00000000 x21=0xa15e4cb0
       23575000	      2356	80005118	736f8d13	addi	x26,x31,1846	 x31:0x80009f04 x26=0x8000a63a
       23585000	      2357	8000511c	008362b3	or	x5,x6,x8	  x6:0x62232000  x8:0x80009f04  x5=0xe223bf04
       23595000	      2358	80005120	40510333	sub	x6,x2,x5	  x2:0xfa23270b  x5:0xe223bf04  x6=0x17ff6807
       23605000	      2359	80005124	73f861b7	lui	x3,0x73f86	  x3=0x73f86000
       23615000	      2360	80005128	01d99d93	slli	x27,x19,0x1d	 x19:0x00000000 x27=0x00000000
       23625000	      2361	8000512c	d212fc97	auipc	x25,0xd212f	 x25=0x52134128
       23635000	      2362	80005130	00e89893	slli	x17,x17,0xe	 x17:0x62232000 x17=0xc8000000
       23645000	      2363	80005134	002d39b3	sltu	x19,x26,x2	 x26:0x8000a63a  x2:0xfa23270b x19=0x00000001
       23655000	      2364	80005138	006dcc63	blt	x27,x6,80005150	 x27:0x00000000  x6:0x17ff6807
       23665000	      2365	00000000	00000013	addi	x0,x0,0	  x0:0x00000000
       23675000	      2366	8000514c	00000013	addi	x0,x0,0	  x0:0x00000000
       23685000	      2367	80005150	0377d863	bge	x15,x23,80005180	 x15:0x00000012 x23:0xfa232004
       23695000	      2368	00000000	00000013	addi	x0,x0,0	  x0:0x00000000
       23705000	      2369	8000517c	00000013	addi	x0,x0,0	  x0:0x00000000
       23715000	      2370	80005180	00aefe33	and	x28,x29,x10	 x29:0xfffffa26 x10:0x000001e2 x28=0x00000022
       23725000	      2371	80005184	40875e93	srai	x29,x14,0x8	 x14:0x00000018 x29=0x00000000
       23735000	      2372	80005188	016c6733	or	x14,x24,x22	 x24:0x00000000 x22:0x00000000 x14=0x00000000
       23745000	      2373	8000518c	41b75f93	srai	x31,x14,0x1b	 x14:0x00000000 x31=0x00000000
       23755000	      2374	80005190	01248b33	add	x22,x9,x18	  x9:0xfa232000 x18:0x00000000 x22=0xfa232000
       23765000	      2375	80005194	6daca093	slti	x1,x25,1754	 x25:0x52134128  x1=0x00000000
       23775000	      2376	80005198	01469f93	slli	x31,x13,0x14	 x13:0xd5a67000 x31=0x00000000
       23785000	      2377	8000519c	00f90463	beq	x18,x15,800051a4	 x18:0x00000000 x15:0x00000012
       23795000	      2378	800051a0	4131d1b3	sra	x3,x3,x19	  x3:0x73f86000 x19:0x00000001  x3=0x39fc3000
       23805000	      2379	800051a4	00753633	sltu	x12,x10,x7	 x10:0x000001e2  x7:0x80009fc4 x12=0x00000001
       23815000	      2380	800051a8	017e9c63	bne	x29,x23,800051c0	 x29:0x00000000 x23:0xfa232004
       23825000	      2381	00000000	00000013	addi	x0,x0,0	  x0:0x00000000
       23835000	      2382	800051bc	00000013	addi	x0,x0,0	  x0:0x00000000
       23845000	      2383	800051c0	409ed193	srai	x3,x29,0x9	 x29:0x00000000  x3=0x00000000
       23855000	      2384	800051c4	012a9663	bne	x21,x18,800051d0	 x21:0xa15e4cb0 x18:0x00000000
       23865000	      2385	00000000	00000013	addi	x0,x0,0	  x0:0x00000000
       23875000	      2386	800051cc	00000013	addi	x0,x0,0	  x0:0x00000000
       23885000	      2387	800051d0	84564793	xori	x15,x12,-1979	 x12:0x00000001 x15=0xfffff844
       23895000	      2388	800051d4	0002e233	or	x4,x5,x0	  x5:0xe223bf04  x0:0x00000000  x4=0xe223bf04
       23905000	      2389	800051d8	6e467913	andi	x18,x12,1764	 x12:0x00000001 x18=0x00000000
       23915000	      2390	800051dc	007a96b3	sll	x13,x21,x7	 x21:0xa15e4cb0  x7:0x80009fc4 x13=0x15e4cb00
       23925000	      2391	800051e0	4123df93	srai	x31,x7,0x12	  x7:0x80009fc4 x31=0xffffe000
       23935000	      2392	800051e4	53618493	addi	x9,x3,1334	  x3:0x00000000  x9=0x00000536
       23945000	      2393	800051e8	40c687b3	sub	x15,x13,x12	 x13:0x15e4cb00 x12:0x00000001 x15=0x15e4caff
       23955000	      2394	800051ec	05089063	bne	x17,x16,8000522c	 x17:0xc8000000 x16:0x00000001
       23965000	      2395	00000000	00000013	addi	x0,x0,0	  x0:0x00000000
       23975000	      2396	80005228	00000013	addi	x0,x0,0	  x0:0x00000000
       23985000	      2397	8000522c	017c0b33	add	x22,x24,x23	 x24:0x00000000 x23:0xfa232004 x22=0xfa232004
       23995000	      2398	80005230	004804b3	add	x9,x16,x4	 x16:0x00000001  x4:0xe223bf04  x9=0xe223bf05
       24005000	      2399	80005234	0176ff13	andi	x30,x13,23	 x13:0x15e4cb00 x30=0x00000000
       24015000	      2400	80005238	012bd313	srli	x6,x23,0x12	 x23:0xfa232004  x6=0x00003e88
       24025000	      2401	8000523c	00125e63	bge	x4,x1,80005258	  x4:0xe223bf04  x1:0x00000000
       24035000	      2402	80005240	00f79fb3	sll	x31,x15,x15	 x15:0x15e4caff x15:0x15e4caff x31=0x80000000
       24045000	      2403	80005244	abcba2b7	lui	x5,0xabcba	  x5=0xabcba000
       24055000	      2404	80005248	00d09913	slli	x18,x1,0xd	  x1:0x00000000 x18=0x00000000
       24065000	      2405	8000524c	41148c33	sub	x24,x9,x17	  x9:0xe223bf05 x17:0xc8000000 x24=0x1a23bf05
       24075000	      2406	80005250	408384b3	sub	x9,x7,x8	  x7:0x80009fc4  x8:0x80009f04  x9=0x000000c0
       24085000	      2407	80005254	00fd6fb3	or	x31,x26,x15	 x26:0x8000a63a x15:0x15e4caff x31=0x95e4eeff
       24095000	      2408	80005258	d1f6e937	lui	x18,0xd1f6e	 x18=0xd1f6e000
       24105000	      2409	8000525c	879a7613	andi	x12,x20,-1927	 x20:0xa15e4cb0 x12=0xa15e4830
       24115000	      2410	80005260	02fb4463	blt	x22,x15,80005288	 x22:0xfa232004 x15:0x15e4caff
       24125000	      2411	00000000	00000013	addi	x0,x0,0	  x0:0x00000000
       24135000	      2412	80005284	00000013	addi	x0,x0,0	  x0:0x00000000
       24145000	      2413	80005288	41155b93	srai	x23,x10,0x11	 x10:0x000001e2 x23=0x00000000
       24155000	      2414	8000528c	e746e313	ori	x6,x13,-396	 x13:0x15e4cb00  x6=0xffffff74
       24165000	      2415	80005290	003af7b3	and	x15,x21,x3	 x21:0xa15e4cb0  x3:0x00000000 x15=0x00000000
       24175000	      2416	80005294	00d6f333	and	x6,x13,x13	 x13:0x15e4cb00 x13:0x15e4cb00  x6=0x15e4cb00
       24185000	      2417	80005298	00442083	lw	x1,4(x8)	  x8:0x80009f04  x1=0x800005a0 PA:0x80009f08
       24195000	      2418	00000000	00000013	addi	x0,x0,0	  x0:0x00000000
       24205000	      2419	8000529c	40108eb3	sub	x29,x1,x1	  x1:0x800005a0  x1:0x800005a0 x29=0x00000000
       24215000	      2420	800052a0	03c40413	addi	x8,x8,60	  x8:0x80009f04  x8=0x80009f40
       24225000	      2421	800052a4	001d7e33	and	x28,x26,x1	 x26:0x8000a63a  x1:0x800005a0 x28=0x80000420
       24235000	      2422	800052a8	016e0533	add	x10,x28,x22	 x28:0x80000420 x22:0xfa232004 x10=0x7a232424
       24245000	      2423	800052ac	00008d93	addi	x27,x1,0	  x1:0x800005a0 x27=0x800005a0
       24255000	      2424	800052b0	000d8de7	jalr	x27,x27,0	 x27:0x800005a0 x27=0x800052b0
       24265000	      2425	00000000	00000013	addi	x0,x0,0	  x0:0x00000000
       24275000	      2426	800005a0	00000013	addi	x0,x0,0	  x0:0x00000000
       24285000	      2427	800005a4	0b85ba97	auipc	x21,0xb85b	 x21=0x8b85b5a0
       24295000	      2428	800005a8	112ff717	auipc	x14,0x112ff	 x14=0x912ff5a4
       24305000	      2429	800005ac	000aa6b3	slt	x13,x21,x0	 x21:0x8b85b5a0  x0:0x00000000 x13=0x00000001
       24315000	      2430	800005b0	00d35833	srl	x16,x6,x13	  x6:0x15e4cb00 x13:0x00000001 x16=0x0af26580
       24325000	      2431	800005b4	00005f17	auipc	x30,0x5	 x30=0x800055b0
       24335000	      2432	800005b8	d00f0f13	addi	x30,x30,-768	 x30:0x800055b0 x30=0x800052b0
       24345000	      2433	800005bc	12817b13	andi	x22,x2,296	  x2:0xfa23270b x22=0x00000108
       24355000	      2434	800005c0	00000013	addi	x0,x0,0	  x0:0x00000000
       24365000	      2435	800005c4	df0f0f13	addi	x30,x30,-528	 x30:0x800052b0 x30=0x800050a0
       24375000	      2436	800005c8	01538cb3	add	x25,x7,x21	  x7:0x80009fc4 x21:0x8b85b5a0 x25=0x0b865564
       24385000	      2437	800005cc	00fc8463	beq	x25,x15,800005d4	 x25:0x0b865564 x15:0x00000000
       24395000	      2438	800005d0	7c153313	sltiu	x6,x10,1985	 x10:0x7a232424  x6=0x00000000
       24405000	      2439	800005d4	211f00e7	jalr	x1,x30,529	 x30:0x800050a0  x1=0x800005d4
       24415000	      2440	00000000	00000013	addi	x0,x0,0	  x0:0x00000000
       24425000	      2441	800052b0	00000013	addi	x0,x0,0	  x0:0x00000000
       24435000	      2442	800052b4	fc040413	addi	x8,x8,-64	  x8:0x80009f40  x8=0x80009f00
       24445000	      2443	800052b8	9ecc3313	sltiu	x6,x24,-1556	 x24:0x1a23bf05  x6=0x00000001
       24455000	      2444	800052bc	00142223	sw	x1,4(x8)	  x8:0x80009f00  x1:0x800005d4 PA:0x80009f04
       24465000	      2445	800052c0	dbbc0d93	addi	x27,x24,-581	 x24:0x1a23bf05 x27=0x1a23bcc0
       24475000	      2446	800052c4	01ad6b33	or	x22,x26,x26	 x26:0x8000a63a x26:0x8000a63a x22=0x8000a63a
       24485000	      2447	800052c8	86160e13	addi	x28,x12,-1951	 x12:0xa15e4830 x28=0xa15e4091
       24495000	      2448	800052cc	ec3bfd13	andi	x26,x23,-317	 x23:0x00000000 x26=0x00000000
       24505000	      2449	800052d0	011ab6b3	sltu	x13,x21,x17	 x21:0x8b85b5a0 x17:0xc8000000 x13=0x00000001
       24515000	      2450	800052d4	0389d863	bge	x19,x24,80005304	 x19:0x00000001 x24:0x1a23bf05
       24525000	      2451	800052d8	0ff03fb7	lui	x31,0xff03	 x31=0x0ff03000
       24535000	      2452	800052dc	aa133f13	sltiu	x30,x6,-1375	  x6:0x00000001 x30=0x00000001
       24545000	      2453	800052e0	31c0ed93	ori	x27,x1,796	  x1:0x800005d4 x27=0x800007dc
       24555000	      2454	800052e4	00ab39b3	sltu	x19,x22,x10	 x22:0x8000a63a x10:0x7a232424 x19=0x00000000
       24565000	      2455	800052e8	00db56b3	srl	x13,x22,x13	 x22:0x8000a63a x13:0x00000001 x13=0x4000531d
       24575000	      2456	800052ec	01631c63	bne	x6,x22,80005304	  x6:0x00000001 x22:0x8000a63a
       24585000	      2457	00000000	00000013	addi	x0,x0,0	  x0:0x00000000
       24595000	      2458	80005300	00000013	addi	x0,x0,0	  x0:0x00000000
       24605000	      2459	80005304	1d842037	lui	x0,0x1d842	
       24615000	      2460	80005308	00df10b3	sll	x1,x30,x13	 x30:0x00000001 x13:0x4000531d  x1=0x20000000
       24625000	      2461	8000530c	00000013	addi	x0,x0,0	  x0:0x00000000
       24635000	      2462	80005310	04baf063	bgeu	x21,x11,80005350	 x21:0x8b85b5a0 x11:0xfa232004
       24645000	      2463	80005314	02234c63	blt	x6,x2,8000534c	  x6:0x00000001  x2:0xfa23270b
       24655000	      2464	80005318	000bf6b3	and	x13,x23,x0	 x23:0x00000000  x0:0x00000000 x13=0x00000000
       24665000	      2465	8000531c	e8b65f17	auipc	x30,0xe8b65	 x30=0x68b6a318
       24675000	      2466	80005320	01f56933	or	x18,x10,x31	 x10:0x7a232424 x31:0x0ff03000 x18=0x7ff33424
       24685000	      2467	80005324	1899f717	auipc	x14,0x1899f	 x14=0x989a4320
       24695000	      2468	80005328	bb048537	lui	x10,0xbb048	 x10=0xbb048000
       24705000	      2469	8000532c	fcb51c97	auipc	x25,0xfcb51	 x25=0x7cb56328
       24715000	      2470	80005330	01298833	add	x16,x19,x18	 x19:0x00000000 x18:0x7ff33424 x16=0x7ff33424
       24725000	      2471	80005334	01363f33	sltu	x30,x12,x19	 x12:0xa15e4830 x19:0x00000000 x30=0x00000000
       24735000	      2472	80005338	017a6733	or	x14,x20,x23	 x20:0xa15e4cb0 x23:0x00000000 x14=0xa15e4cb0
       24745000	      2473	8000533c	009ee863	bltu	x29,x9,8000534c	 x29:0x00000000  x9:0x000000c0
       24755000	      2474	00000000	00000013	addi	x0,x0,0	  x0:0x00000000
       24765000	      2475	80005348	00000013	addi	x0,x0,0	  x0:0x00000000
       24775000	      2476	8000534c	0545e463	bltu	x11,x20,80005394	 x11:0xfa232004 x20:0xa15e4cb0
       24785000	      2477	80005350	00000013	addi	x0,x0,0	  x0:0x00000000
       24795000	      2478	80005354	407cd733	sra	x14,x25,x7	 x25:0x7cb56328  x7:0x80009fc4 x14=0x07cb5632
       24805000	      2479	80005358	00cb1533	sll	x10,x22,x12	 x22:0x8000a63a x12:0xa15e4830 x10=0xa63a0000
       24815000	      2480	8000535c	033a8663	beq	x21,x19,80005388	 x21:0x8b85b5a0 x19:0x00000000
       24825000	      2481	80005360	02727a63	bgeu	x4,x7,80005394	  x4:0xe223bf04  x7:0x80009fc4
       24835000	      2482	00000000	00000013	addi	x0,x0,0	  x0:0x00000000
       24845000	      2483	80005390	00000013	addi	x0,x0,0	  x0:0x00000000
       24855000	      2484	80005394	06015617	auipc	x12,0x6015	 x12=0x8601a390
       24865000	      2485	80005398	4164d5b3	sra	x11,x9,x22	  x9:0x000000c0 x22:0x8000a63a x11=0x00000000
       24875000	      2486	8000539c	00442083	lw	x1,4(x8)	  x8:0x80009f00  x1=0x800005d4 PA:0x80009f04
       24885000	      2487	800053a0	00e3d933	srl	x18,x7,x14	  x7:0x80009fc4 x14:0x07cb5632 x18=0x00002000
       24895000	      2488	800053a4	01c0db93	srli	x23,x1,0x1c	  x1:0x800005d4 x23=0x00000008
       24905000	      2489	800053a8	40eb0d33	sub	x26,x22,x14	 x22:0x8000a63a x14:0x07cb5632 x26=0x78355008
       24915000	      2490	800053ac	04040413	addi	x8,x8,64	  x8:0x80009f00  x8=0x80009f40
       24925000	      2491	800053b0	41395333	sra	x6,x18,x19	 x18:0x00002000 x19:0x00000000  x6=0x00002000
       24935000	      2492	800053b4	00008913	addi	x18,x1,0	  x1:0x800005d4 x18=0x800005d4
       24945000	      2493	800053b8	00090967	jalr	x18,x18,0	 x18:0x800005d4 x18=0x800053b8
       24955000	      2494	00000000	00000013	addi	x0,x0,0	  x0:0x00000000
       24965000	      2495	800005d4	00000013	addi	x0,x0,0	  x0:0x00000000
       24975000	      2496	800005d8	007d0db3	add	x27,x26,x7	 x26:0x78355008  x7:0x80009fc4 x27=0xf835efcc
       24985000	      2497	800005dc	e3c30913	addi	x18,x6,-452	  x6:0x00002000 x18=0x00001e3c
       24995000	      2498	800005e0	58b78593	addi	x11,x15,1419	 x15:0x00000000 x11=0x0000058b
       25005000	      2499	800005e4	0c985f97	auipc	x31,0xc985	 x31=0x8c9855e0
       25015000	      2500	800005e8	01ce6c33	or	x24,x28,x28	 x28:0xa15e4091 x28:0xa15e4091 x24=0xa15e4091
       25025000	      2501	800005ec	01b49863	bne	x9,x27,800005fc	  x9:0x000000c0 x27:0xf835efcc
       25035000	      2502	00000000	00000013	addi	x0,x0,0	  x0:0x00000000
       25045000	      2503	800005f8	00000013	addi	x0,x0,0	  x0:0x00000000
       25055000	      2504	800005fc	13917093	andi	x1,x2,313	  x2:0xfa23270b  x1=0x00000109
       25065000	      2505	80000600	005f7b33	and	x22,x30,x5	 x30:0x00000000  x5:0xabcba000 x22=0x00000000
       25075000	      2506	80000604	00442083	lw	x1,4(x8)	  x8:0x80009f40  x1=0x80000730 PA:0x80009f44
       25085000	      2507	80000608	00840413	addi	x8,x8,8	  x8:0x80009f40  x8=0x80009f48
       25095000	      2508	8000060c	00000013	addi	x0,x0,0	  x0:0x00000000
       25105000	      2509	80000610	00379013	slli	x0,x15,0x3	 x15:0x00000000
       25115000	      2510	80000614	00108c13	addi	x24,x1,1	  x1:0x80000730 x24=0x80000731
       25125000	      2511	80000618	000c0c67	jalr	x24,x24,0	 x24:0x80000731 x24=0x80000618
       25135000	      2512	00000000	00000013	addi	x0,x0,0	  x0:0x00000000
       25145000	      2513	80000730	00000013	addi	x0,x0,0	  x0:0x00000000
       25155000	      2514	80000734	00008117	auipc	x2,0x8	  x2=0x80008730
       25165000	      2515	80000738	6ff10113	addi	x2,x2,1791	  x2:0x80008730  x2=0x80008e2f
       25175000	      2516	8000073c	ca210323	sb	x2,-858(x2)	  x2:0x80008e2f  x2:0x80008e2f PA:0x80008ad5
       25185000	      2517	80000740	f6715883	lhu	x17,-153(x2)	  x2:0x80008e2f x17=0x00000000 PA:0x80008d96
       25195000	      2518	80000744	0174df93	srli	x31,x9,0x17	  x9:0x000000c0 x31=0x00000000
       25205000	      2519	80000748	40860bb3	sub	x23,x12,x8	 x12:0x8601a390  x8:0x80009f48 x23=0x06010448
       25215000	      2520	8000074c	411d5d33	sra	x26,x26,x17	 x26:0x78355008 x17:0x00000000 x26=0x78355008
       25225000	      2521	80000750	40f20db3	sub	x27,x4,x15	  x4:0xe223bf04 x15:0x00000000 x27=0xe223bf04
       25235000	      2522	80000754	01aeedb3	or	x27,x29,x26	 x29:0x00000000 x26:0x78355008 x27=0x78355008
       25245000	      2523	80000758	cc410483	lb	x9,-828(x2)	  x2:0x80008e2f  x9=0x00000000 PA:0x80008af3
       25255000	      2524	8000075c	763db793	sltiu	x15,x27,1891	 x27:0x78355008 x15=0x00000000
       25265000	      2525	80000760	01309d33	sll	x26,x1,x19	  x1:0x80000730 x19:0x00000000 x26=0x80000730
       25275000	      2526	80000764	548dcc93	xori	x25,x27,1352	 x27:0x78355008 x25=0x78355540
       25285000	      2527	80000768	5d110293	addi	x5,x2,1489	  x2:0x80008e2f  x5=0x80009400
       25295000	      2528	8000076c	2e02bc13	sltiu	x24,x5,736	  x5:0x80009400 x24=0x00000000
       25305000	      2529	80000770	4055d313	srai	x6,x11,0x5	 x11:0x0000058b  x6=0x0000002c
       25315000	      2530	80000774	00a53bb3	sltu	x23,x10,x10	 x10:0xa63a0000 x10:0xa63a0000 x23=0x00000000
       25325000	      2531	80000778	dcd12003	lw	x0,-563(x2)	  x2:0x80008e2f PA:0x80008bfc
       25335000	      2532	8000077c	15010283	lb	x5,336(x2)	  x2:0x80008e2f  x5=0x00000000 PA:0x80008f7f
       25345000	      2533	80000780	b5d10723	sb	x29,-1202(x2)	  x2:0x80008e2f x29:0x00000000 PA:0x8000897d
       25355000	      2534	80000784	0b510a23	sb	x21,180(x2)	  x2:0x80008e2f x21:0x8b85b5a0 PA:0x80008ee3
       25365000	      2535	80000788	e8f14283	lbu	x5,-369(x2)	  x2:0x80008e2f  x5=0x00000000 PA:0x80008cbe
       25375000	      2536	8000078c	1b410b83	lb	x23,436(x2)	  x2:0x80008e2f x23=0x00000000 PA:0x80008fe3
       25385000	      2537	80000790	ee9ebb93	sltiu	x23,x29,-279	 x29:0x00000000 x23=0x00000001
       25395000	      2538	80000794	e0782b93	slti	x23,x16,-505	 x16:0x7ff33424 x23=0x00000000
       25405000	      2539	80000798	104115a3	sh	x4,267(x2)	  x2:0x80008e2f  x4:0xe223bf04 PA:0x80008f3a
       25415000	      2540	8000079c	14b8cf13	xori	x30,x17,331	 x17:0x00000000 x30=0x0000014b
       25425000	      2541	800007a0	0136dc33	srl	x24,x13,x19	 x13:0x00000000 x19:0x00000000 x24=0x00000000
       25435000	      2542	800007a4	bfc7f193	andi	x3,x15,-1028	 x15:0x00000000  x3=0x00000000
       25445000	      2543	800007a8	403c5e33	sra	x28,x24,x3	 x24:0x00000000  x3:0x00000000 x28=0x00000000
       25455000	      2544	800007ac	f4511c03	lh	x24,-187(x2)	  x2:0x80008e2f x24=0x00000000 PA:0x80008d74
       25465000	      2545	800007b0	d4b15b03	lhu	x22,-693(x2)	  x2:0x80008e2f x22=0x00000000 PA:0x80008b7a
       25475000	      2546	800007b4	40945593	srai	x11,x8,0x9	  x8:0x80009f48 x11=0xffc0004f
       25485000	      2547	800007b8	c72101a3	sb	x18,-925(x2)	  x2:0x80008e2f x18:0x00001e3c PA:0x80008a92
       25495000	      2548	800007bc	d6de0593	addi	x11,x28,-659	 x28:0x00000000 x11=0xfffffd6d
       25505000	      2549	800007c0	f08115a3	sh	x8,-245(x2)	  x2:0x80008e2f  x8:0x80009f48 PA:0x80008d3a
       25515000	      2550	800007c4	00008117	auipc	x2,0x8	  x2=0x800087c0
       25525000	      2551	800007c8	bfe10113	addi	x2,x2,-1026	  x2:0x800087c0  x2=0x800083be
       25535000	      2552	800007cc	31d84f93	xori	x31,x16,797	 x16:0x7ff33424 x31=0x7ff33739
       25545000	      2553	800007d0	e06d8713	addi	x14,x27,-506	 x27:0x78355008 x14=0x78354e0e
       25555000	      2554	800007d4	00501633	sll	x12,x0,x5	  x0:0x00000000  x5:0x00000000 x12=0x00000000
       25565000	      2555	800007d8	01c495b3	sll	x11,x9,x28	  x9:0x00000000 x28:0x00000000 x11=0x00000000
       25575000	      2556	800007dc	009612b3	sll	x5,x12,x9	 x12:0x00000000  x9:0x00000000  x5=0x00000000
       25585000	      2557	800007e0	fcd10083	lb	x1,-51(x2)	  x2:0x800083be  x1=0x00000000 PA:0x8000838b
       25595000	      2558	800007e4	02d10ea3	sb	x13,61(x2)	  x2:0x800083be x13:0x00000000 PA:0x800083fb
       25605000	      2559	800007e8	d94dd0b7	lui	x1,0xd94dd	  x1=0xd94dd000
       25615000	      2560	800007ec	03314e03	lbu	x28,51(x2)	  x2:0x800083be x28=0x00000000 PA:0x800083f1
       25625000	      2561	800007f0	01d8ff33	and	x30,x17,x29	 x17:0x00000000 x29:0x00000000 x30=0x00000000
       25635000	      2562	800007f4	b26f4593	xori	x11,x30,-1242	 x30:0x00000000 x11=0xfffffb26
       25645000	      2563	800007f8	89183f13	sltiu	x30,x16,-1903	 x16:0x7ff33424 x30=0x00000001
       25655000	      2564	800007fc	fe9105a3	sb	x9,-21(x2)	  x2:0x800083be  x9:0x00000000 PA:0x800083a9
       25665000	      2565	80000800	f8f24037	lui	x0,0xf8f24	
       25675000	      2566	80000804	40545e13	srai	x28,x8,0x5	  x8:0x80009f48 x28=0xfc0004fa
       25685000	      2567	80000808	00362d33	slt	x26,x12,x3	 x12:0x00000000  x3:0x00000000 x26=0x00000000
       25695000	      2568	8000080c	003104a3	sb	x3,9(x2)	  x2:0x800083be  x3:0x00000000 PA:0x800083c7
       25705000	      2569	80000810	40afd993	srai	x19,x31,0xa	 x31:0x7ff33739 x19=0x001ffccd
       25715000	      2570	80000814	5259e613	ori	x12,x19,1317	 x19:0x001ffccd x12=0x001ffded
       25725000	      2571	80000818	00310783	lb	x15,3(x2)	  x2:0x800083be x15=0x00000000 PA:0x800083c1
       25735000	      2572	8000081c	ff010f03	lb	x30,-16(x2)	  x2:0x800083be x30=0x00000000 PA:0x800083ae
       25745000	      2573	80000820	00d1aab3	slt	x21,x3,x13	  x3:0x00000000 x13:0x00000000 x21=0x00000000
       25755000	      2574	80000824	9f88e513	ori	x10,x17,-1544	 x17:0x00000000 x10=0xfffff9f8
       25765000	      2575	80000828	fd811083	lh	x1,-40(x2)	  x2:0x800083be  x1=0x00002400 PA:0x80008396
       25775000	      2576	8000082c	00b862b3	or	x5,x16,x11	 x16:0x7ff33424 x11:0xfffffb26  x5=0xffffff26
       25785000	      2577	80000830	02810e83	lb	x29,40(x2)	  x2:0x800083be x29=0x00000000 PA:0x800083e6
       25795000	      2578	80000834	03710b83	lb	x23,55(x2)	  x2:0x800083be x23=0x00000000 PA:0x800083f5
       25805000	      2579	80000838	01900f33	add	x30,x0,x25	  x0:0x00000000 x25:0x78355540 x30=0x78355540
       25815000	      2580	8000083c	ef067e93	andi	x29,x12,-272	 x12:0x001ffded x29=0x001ffce0
       25825000	      2581	80000840	fd010783	lb	x15,-48(x2)	  x2:0x800083be x15=0x00000000 PA:0x8000838e
       25835000	      2582	80000844	4cbd6613	ori	x12,x26,1227	 x26:0x00000000 x12=0x000004cb
       25845000	      2583	80000848	fd510f83	lb	x31,-43(x2)	  x2:0x800083be x31=0x00000000 PA:0x80008393
       25855000	      2584	8000084c	03714083	lbu	x1,55(x2)	  x2:0x800083be  x1=0x00000000 PA:0x800083f5
       25865000	      2585	80000850	036107a3	sb	x22,47(x2)	  x2:0x800083be x22:0x00000000 PA:0x800083ed
       25875000	      2586	80000854	40a600b3	sub	x1,x12,x10	 x12:0x000004cb x10:0xfffff9f8  x1=0x00000ad3
       25885000	      2587	80000858	4098d493	srai	x9,x17,0x9	 x17:0x00000000  x9=0x00000000
       25895000	      2588	8000085c	23f8ed93	ori	x27,x17,575	 x17:0x00000000 x27=0x0000023f
       25905000	      2589	80000860	02911c23	sh	x9,56(x2)	  x2:0x800083be  x9:0x00000000 PA:0x800083f6
       25915000	      2590	80000864	413bd9b3	sra	x19,x23,x19	 x23:0x00000000 x19:0x001ffccd x19=0x00000000
       25925000	      2591	80000868	03114183	lbu	x3,49(x2)	  x2:0x800083be  x3=0x00000000 PA:0x800083ef
       25935000	      2592	8000086c	02114283	lbu	x5,33(x2)	  x2:0x800083be  x5=0x0000009e PA:0x800083df
       25945000	      2593	80000870	01fdc333	xor	x6,x27,x31	 x27:0x0000023f x31:0x00000000  x6=0x0000023f
       25955000	      2594	80000874	01910183	lb	x3,25(x2)	  x2:0x800083be  x3=0x00000000 PA:0x800083d7
       25965000	      2595	80000878	06b73093	sltiu	x1,x14,107	 x14:0x78354e0e  x1=0x00000000
       25975000	      2596	8000087c	409e5533	sra	x10,x28,x9	 x28:0xfc0004fa  x9:0x00000000 x10=0xfc0004fa
       25985000	      2597	80000880	fc114183	lbu	x3,-63(x2)	  x2:0x800083be  x3=0x00000000 PA:0x8000837f
       25995000	      2598	80000884	3ceb8893	addi	x17,x23,974	 x23:0x00000000 x17=0x000003ce
       26005000	      2599	80000888	03e12203	lw	x4,62(x2)	  x2:0x800083be  x4=0x00000000 PA:0x800083fc
       26015000	      2600	8000088c	00008117	auipc	x2,0x8	  x2=0x80008888
       26025000	      2601	80000890	f2610113	addi	x2,x2,-218	  x2:0x80008888  x2=0x800087ae
       26035000	      2602	80000894	013d1613	slli	x12,x26,0x13	 x26:0x00000000 x12=0x00000000
       26045000	      2603	80000898	03d14f03	lbu	x30,61(x2)	  x2:0x800087ae x30=0x00000000 PA:0x800087eb
       26055000	      2604	8000089c	051ad737	lui	x14,0x51ad	 x14=0x051ad000
       26065000	      2605	800008a0	016ba2b3	slt	x5,x23,x22	 x23:0x00000000 x22:0x00000000  x5=0x00000000
       26075000	      2606	800008a4	00b40033	add	x0,x8,x11	  x8:0x80009f48 x11:0xfffffb26
       26085000	      2607	800008a8	070df913	andi	x18,x27,112	 x27:0x0000023f x18=0x00000030
       26095000	      2608	800008ac	eecb3093	sltiu	x1,x22,-276	 x22:0x00000000  x1=0x00000001
       26105000	      2609	800008b0	00fdd893	srli	x17,x27,0xf	 x27:0x0000023f x17=0x00000000
       26115000	      2610	800008b4	014e91b3	sll	x3,x29,x20	 x29:0x001ffce0 x20:0xa15e4cb0  x3=0xfce00000
       26125000	      2611	800008b8	00211883	lh	x17,2(x2)	  x2:0x800087ae x17=0x00000000 PA:0x800087b0
       26135000	      2612	800008bc	fcc14503	lbu	x10,-52(x2)	  x2:0x800087ae x10=0x00000000 PA:0x8000877a
       26145000	      2613	800008c0	0014f233	and	x4,x9,x1	  x9:0x00000000  x1:0x00000001  x4=0x00000000
       26155000	      2614	800008c4	ff615883	lhu	x17,-10(x2)	  x2:0x800087ae x17=0x00000000 PA:0x800087a4
       26165000	      2615	800008c8	fe3104a3	sb	x3,-23(x2)	  x2:0x800087ae  x3:0xfce00000 PA:0x80008797
       26175000	      2616	800008cc	5f4e0e13	addi	x28,x28,1524	 x28:0xfc0004fa x28=0xfc000aee
       26185000	      2617	800008d0	01791213	slli	x4,x18,0x17	 x18:0x00000030  x4=0x18000000
       26195000	      2618	800008d4	ffa11823	sh	x26,-16(x2)	  x2:0x800087ae x26:0x00000000 PA:0x8000879e
       26205000	      2619	800008d8	01710a83	lb	x21,23(x2)	  x2:0x800087ae x21=0x00000000 PA:0x800087c5
       26215000	      2620	800008dc	c8540b13	addi	x22,x8,-891	  x8:0x80009f48 x22=0x80009bcd
       26225000	      2621	800008e0	fc710ba3	sb	x7,-41(x2)	  x2:0x800087ae  x7:0x80009fc4 PA:0x80008785
       26235000	      2622	800008e4	fd1104a3	sb	x17,-55(x2)	  x2:0x800087ae x17:0x00000000 PA:0x80008777
       26245000	      2623	800008e8	017916b3	sll	x13,x18,x23	 x18:0x00000030 x23:0x00000000 x13=0x00000030
       26255000	      2624	800008ec	fc815e03	lhu	x28,-56(x2)	  x2:0x800087ae x28=0x00000000 PA:0x80008776
       26265000	      2625	800008f0	fc114983	lbu	x19,-63(x2)	  x2:0x800087ae x19=0x00000000 PA:0x8000876f
       26275000	      2626	800008f4	52fb7f93	andi	x31,x22,1327	 x22:0x80009bcd x31=0x0000010d
       26285000	      2627	800008f8	40f2d2b3	sra	x5,x5,x15	  x5:0x00000000 x15:0x00000000  x5=0x00000000
       26295000	      2628	800008fc	406789b3	sub	x19,x15,x6	 x15:0x00000000  x6:0x0000023f x19=0xfffffdc1
       26305000	      2629	80000900	03e107a3	sb	x30,47(x2)	  x2:0x800087ae x30:0x00000000 PA:0x800087dd
       26315000	      2630	80000904	01d58cb3	add	x25,x11,x29	 x11:0xfffffb26 x29:0x001ffce0 x25=0x001ff806
       26325000	      2631	80000908	00fb6cb3	or	x25,x22,x15	 x22:0x80009bcd x15:0x00000000 x25=0x80009bcd
       26335000	      2632	8000090c	29b92013	slti	x0,x18,667	 x18:0x00000030
       26345000	      2633	80000910	019100a3	sb	x25,1(x2)	  x2:0x800087ae x25:0x80009bcd PA:0x800087af
       26355000	      2634	80000914	00008117	auipc	x2,0x8	  x2=0x80008910
       26365000	      2635	80000918	66310113	addi	x2,x2,1635	  x2:0x80008910  x2=0x80008f73
       26375000	      2636	8000091c	00e10483	lb	x9,14(x2)	  x2:0x80008f73  x9=0x00000000 PA:0x80008f81
       26385000	      2637	80000920	00b15583	lhu	x11,11(x2)	  x2:0x80008f73 x11=0x00000000 PA:0x80008f7e
       26395000	      2638	80000924	00414c03	lbu	x24,4(x2)	  x2:0x80008f73 x24=0x00000000 PA:0x80008f77
       26405000	      2639	00000000	00000013	addi	x0,x0,0	  x0:0x00000000
       26415000	      2640	80000928	ff810783	lb	x15,-8(x2)	  x2:0x80008f73 x15=0x00000000 PA:0x80008f6b
       26425000	      2641	8000092c	01ff6633	or	x12,x30,x31	 x30:0x00000000 x31:0x0000010d x12=0x0000010d
       26435000	      2642	80000930	912c0637	lui	x12,0x912c0	 x12=0x912c0000
       26445000	      2643	80000934	1ac4cc13	xori	x24,x9,428	  x9:0x00000000 x24=0x000001ac
       26455000	      2644	80000938	006ab1b3	sltu	x3,x21,x6	 x21:0x00000000  x6:0x0000023f  x3=0x00000001
       26465000	      2645	8000093c	00000013	addi	x0,x0,0	  x0:0x00000000
       26475000	      2646	80000940	00b11f03	lh	x30,11(x2)	  x2:0x80008f73 x30=0x00000000 PA:0x80008f7e
       26485000	      2647	80000944	ff911d83	lh	x27,-7(x2)	  x2:0x80008f73 x27=0x00000000 PA:0x80008f6c
       26495000	      2648	80000948	00d100a3	sb	x13,1(x2)	  x2:0x80008f73 x13:0x00000030 PA:0x80008f74
       26505000	      2649	8000094c	01395a93	srli	x21,x18,0x13	 x18:0x00000030 x21=0x00000000
       26515000	      2650	80000950	ff414303	lbu	x6,-12(x2)	  x2:0x80008f73  x6=0x00000000 PA:0x80008f67
       26525000	      2651	80000954	01f8bcb3	sltu	x25,x17,x31	 x17:0x00000000 x31:0x0000010d x25=0x00000001
       26535000	      2652	80000958	f5c30913	addi	x18,x6,-164	  x6:0x00000000 x18=0xffffff5c
       26545000	      2653	8000095c	00a10c83	lb	x25,10(x2)	  x2:0x80008f73 x25=0x00000000 PA:0x80008f7d
       26555000	      2654	80000960	01a20d33	add	x26,x4,x26	  x4:0x18000000 x26:0x00000000 x26=0x18000000
       26565000	      2655	80000964	00c12ab3	slt	x21,x2,x12	  x2:0x80008f73 x12:0x912c0000 x21=0x00000001
       26575000	      2656	80000968	2cf54f13	xori	x30,x10,719	 x10:0x00000000 x30=0x000002cf
       26585000	      2657	8000096c	e2ec3513	sltiu	x10,x24,-466	 x24:0x000001ac x10=0x00000001
       26595000	      2658	80000970	01c9d993	srli	x19,x19,0x1c	 x19:0xfffffdc1 x19=0x0000000f
       26605000	      2659	80000974	01457033	and	x0,x10,x20	 x10:0x00000001 x20:0xa15e4cb0
       26615000	      2660	80000978	00e1acb3	slt	x25,x3,x14	  x3:0x00000001 x14:0x051ad000 x25=0x00000001
       26625000	      2661	8000097c	01596fb3	or	x31,x18,x21	 x18:0xffffff5c x21:0x00000001 x31=0xffffff5d
       26635000	      2662	80000980	ff715303	lhu	x6,-9(x2)	  x2:0x80008f73  x6=0x00000000 PA:0x80008f6a
       26645000	      2663	80000984	40375693	srai	x13,x14,0x3	 x14:0x051ad000 x13=0x00a35a00
       26655000	      2664	80000988	00b112a3	sh	x11,5(x2)	  x2:0x80008f73 x11:0x00000000 PA:0x80008f78
       26665000	      2665	8000098c	00d4c333	xor	x6,x9,x13	  x9:0x00000000 x13:0x00a35a00  x6=0x00a35a00
       26675000	      2666	80000990	ffe14583	lbu	x11,-2(x2)	  x2:0x80008f73 x11=0x00000000 PA:0x80008f71
       26685000	      2667	80000994	ff214703	lbu	x14,-14(x2)	  x2:0x80008f73 x14=0x00000000 PA:0x80008f65
       26695000	      2668	80000998	00810b03	lb	x22,8(x2)	  x2:0x80008f73 x22=0x00000000 PA:0x80008f7b
       26705000	      2669	8000099c	00008117	auipc	x2,0x8	  x2=0x80008998
       26715000	      2670	800009a0	ca110113	addi	x2,x2,-863	  x2:0x80008998  x2=0x80008639
       26725000	      2671	800009a4	00f10503	lb	x10,15(x2)	  x2:0x80008639 x10=0x00000000 PA:0x80008648
       26735000	      2672	800009a8	fee118a3	sh	x14,-15(x2)	  x2:0x80008639 x14:0x00000000 PA:0x8000862a
       26745000	      2673	800009ac	fef10b23	sb	x15,-10(x2)	  x2:0x80008639 x15:0x00000000 PA:0x8000862f
       26755000	      2674	800009b0	00e10483	lb	x9,14(x2)	  x2:0x80008639  x9=0x00000000 PA:0x80008647
       26765000	      2675	800009b4	fef10b23	sb	x15,-10(x2)	  x2:0x80008639 x15:0x00000000 PA:0x8000862f
       26775000	      2676	800009b8	00915c03	lhu	x24,9(x2)	  x2:0x80008639 x24=0x00000000 PA:0x80008642
       26785000	      2677	00000000	00000013	addi	x0,x0,0	  x0:0x00000000
       26795000	      2678	800009bc	418450b3	sra	x1,x8,x24	  x8:0x80009f48 x24:0x00000000  x1=0x80009f48
       26805000	      2679	800009c0	00314b83	lbu	x23,3(x2)	  x2:0x80008639 x23=0x00000000 PA:0x8000863c
       26815000	      2680	800009c4	002105a3	sb	x2,11(x2)	  x2:0x80008639  x2:0x80008639 PA:0x80008644
       26825000	      2681	800009c8	00911c83	lh	x25,9(x2)	  x2:0x80008639 x25=0x00000000 PA:0x80008642
       26835000	      2682	800009cc	00cd3fb3	sltu	x31,x26,x12	 x26:0x18000000 x12:0x912c0000 x31=0x00000001
       26845000	      2683	800009d0	ffe14603	lbu	x12,-2(x2)	  x2:0x80008639 x12=0x00000000 PA:0x80008637
       26855000	      2684	800009d4	00614983	lbu	x19,6(x2)	  x2:0x80008639 x19=0x00000000 PA:0x8000863f
       26865000	      2685	800009d8	41f70db3	sub	x27,x14,x31	 x14:0x00000000 x31:0x00000001 x27=0xffffffff
       26875000	      2686	800009dc	00210803	lb	x16,2(x2)	  x2:0x80008639 x16=0x00000000 PA:0x8000863b
       26885000	      2687	800009e0	00410503	lb	x10,4(x2)	  x2:0x80008639 x10=0x00000000 PA:0x8000863d
       26895000	      2688	800009e4	00410583	lb	x11,4(x2)	  x2:0x80008639 x11=0x00000000 PA:0x8000863d
       26905000	      2689	800009e8	ff410ca3	sb	x20,-7(x2)	  x2:0x80008639 x20:0xa15e4cb0 PA:0x80008632
       26915000	      2690	800009ec	00418f33	add	x30,x3,x4	  x3:0x00000001  x4:0x18000000 x30=0x18000001
       26925000	      2691	800009f0	00010483	lb	x9,0(x2)	  x2:0x80008639  x9=0x00000000 PA:0x80008639
       26935000	      2692	800009f4	00000013	addi	x0,x0,0	  x0:0x00000000
       26945000	      2693	800009f8	01b10323	sb	x27,6(x2)	  x2:0x80008639 x27:0xffffffff PA:0x8000863f
       26955000	      2694	800009fc	fff15903	lhu	x18,-1(x2)	  x2:0x80008639 x18=0x00000000 PA:0x80008638
       26965000	      2695	80000a00	018389b3	add	x19,x7,x24	  x7:0x80009fc4 x24:0x00000000 x19=0x80009fc4
       26975000	      2696	80000a04	404e52b3	sra	x5,x28,x4	 x28:0x00000000  x4:0x18000000  x5=0x00000000
       26985000	      2697	80000a08	fe4108a3	sb	x4,-15(x2)	  x2:0x80008639  x4:0x18000000 PA:0x8000862a
       26995000	      2698	80000a0c	00014d03	lbu	x26,0(x2)	  x2:0x80008639 x26=0x00000000 PA:0x80008639
       27005000	      2699	80000a10	ff510b23	sb	x21,-10(x2)	  x2:0x80008639 x21:0x00000001 PA:0x8000862f
       27015000	      2700	80000a14	00910603	lb	x12,9(x2)	  x2:0x80008639 x12=0x00000000 PA:0x80008642
       27025000	      2701	80000a18	ffe10883	lb	x17,-2(x2)	  x2:0x80008639 x17=0x00000000 PA:0x80008637
       27035000	      2702	00000000	00000013	addi	x0,x0,0	  x0:0x00000000
       27045000	      2703	80000a1c	ff115e83	lhu	x29,-15(x2)	  x2:0x80008639 x29=0x00000000 PA:0x8000862a
       27055000	      2704	80000a20	fe0119a3	sh	x0,-13(x2)	  x2:0x80008639  x0:0x00000000 PA:0x8000862c
       27065000	      2705	80000a24	ffa10b03	lb	x22,-6(x2)	  x2:0x80008639 x22=0x00000000 PA:0x80008633
       27075000	      2706	80000a28	ffb11703	lh	x14,-5(x2)	  x2:0x80008639 x14=0x00000000 PA:0x80008634
       27085000	      2707	80000a2c	41325513	srai	x10,x4,0x13	  x4:0x18000000 x10=0x00000300
       27095000	      2708	80000a30	01f114a3	sh	x31,9(x2)	  x2:0x80008639 x31:0x00000001 PA:0x80008642
       27105000	      2709	80000a34	011bb6b3	sltu	x13,x23,x17	 x23:0x00000000 x17:0x00000000 x13=0x00000000
       27115000	      2710	80000a38	ff814903	lbu	x18,-8(x2)	  x2:0x80008639 x18=0x00000000 PA:0x80008631
       27125000	      2711	80000a3c	0112ba93	sltiu	x21,x5,17	  x5:0x00000000 x21=0x00000001
       27135000	      2712	80000a40	00214703	lbu	x14,2(x2)	  x2:0x80008639 x14=0x00000000 PA:0x8000863b
       27145000	      2713	80000a44	00008a97	auipc	x21,0x8	 x21=0x80008a40
       27155000	      2714	80000a48	1eda8a93	addi	x21,x21,493	 x21:0x80008a40 x21=0x80008c2d
       27165000	      2715	80000a4c	cc357093	andi	x1,x10,-829	 x10:0x00000300  x1=0x00000000
       27175000	      2716	80000a50	072f0213	addi	x4,x30,114	 x30:0x18000001  x4=0x18000073
       27185000	      2717	80000a54	000acc83	lbu	x25,0(x21)	 x21:0x80008c2d x25=0x00000017 PA:0x80008c2d
       27195000	      2718	80000a58	ff4a8103	lb	x2,-12(x21)	 x21:0x80008c2d  x2=0x00000000 PA:0x80008c21
       27205000	      2719	80000a5c	00ebe033	or	x0,x23,x14	 x23:0x00000000 x14:0x00000000
       27215000	      2720	80000a60	0055c233	xor	x4,x11,x5	 x11:0x00000000  x5:0x00000000  x4=0x00000000
       27225000	      2721	80000a64	ddf3e913	ori	x18,x7,-545	  x7:0x80009fc4 x18=0xffffffdf
       27235000	      2722	80000a68	00cf9bb3	sll	x23,x31,x12	 x31:0x00000001 x12:0x00000000 x23=0x00000001
       27245000	      2723	80000a6c	ff3aa283	lw	x5,-13(x21)	 x21:0x80008c2d  x5=0x00000000 PA:0x80008c20
       27255000	      2724	80000a70	019a8623	sb	x25,12(x21)	 x21:0x80008c2d x25:0x00000017 PA:0x80008c39
       27265000	      2725	80000a74	015ee133	or	x2,x29,x21	 x29:0x00000000 x21:0x80008c2d  x2=0x80008c2d
       27275000	      2726	80000a78	00d91913	slli	x18,x18,0xd	 x18:0xffffffdf x18=0xfffbe000
       27285000	      2727	80000a7c	ffcacf03	lbu	x30,-4(x21)	 x21:0x80008c2d x30=0x00000000 PA:0x80008c29
       27295000	      2728	00000000	00000013	addi	x0,x0,0	  x0:0x00000000
       27305000	      2729	80000a80	01e794b3	sll	x9,x15,x30	 x15:0x00000000 x30:0x00000000  x9=0x00000000
       27315000	      2730	80000a84	41dd0933	sub	x18,x26,x29	 x26:0x00000000 x29:0x00000000 x18=0x00000000
       27325000	      2731	80000a88	00000013	addi	x0,x0,0	  x0:0x00000000
       27335000	      2732	80000a8c	01167833	and	x16,x12,x17	 x12:0x00000000 x17:0x00000000 x16=0x00000000
       27345000	      2733	80000a90	1bea0813	addi	x16,x20,446	 x20:0xa15e4cb0 x16=0xa15e4e6e
       27355000	      2734	80000a94	002a8fb3	add	x31,x21,x2	 x21:0x80008c2d  x2:0x80008c2d x31=0x0001185a
       27365000	      2735	80000a98	01d0f7b3	and	x15,x1,x29	  x1:0x00000000 x29:0x00000000 x15=0x00000000
       27375000	      2736	80000a9c	01d921b3	slt	x3,x18,x29	 x18:0x00000000 x29:0x00000000  x3=0x00000000
       27385000	      2737	80000aa0	00ca8303	lb	x6,12(x21)	 x21:0x80008c2d  x6=0x00000017 PA:0x80008c39
       27395000	      2738	80000aa4	fe9aaba3	sw	x9,-9(x21)	 x21:0x80008c2d  x9:0x00000000 PA:0x80008c24
       27405000	      2739	80000aa8	001a9e83	lh	x29,1(x21)	 x21:0x80008c2d x29=0x00000000 PA:0x80008c2e
       27415000	      2740	00000000	00000013	addi	x0,x0,0	  x0:0x00000000
       27425000	      2741	80000aac	01da96a3	sh	x29,13(x21)	 x21:0x80008c2d x29:0x00000000 PA:0x80008c3a
       27435000	      2742	80000ab0	018e40b3	xor	x1,x28,x24	 x28:0x00000000 x24:0x00000000  x1=0x00000000
       27445000	      2743	80000ab4	0009dc93	srli	x25,x19,0x0	 x19:0x80009fc4 x25=0x80009fc4
       27455000	      2744	80000ab8	019a8223	sb	x25,4(x21)	 x21:0x80008c2d x25:0x80009fc4 PA:0x80008c31
       27465000	      2745	80000abc	0068a133	slt	x2,x17,x6	 x17:0x00000000  x6:0x00000017  x2=0x00000001
       27475000	      2746	80000ac0	017e9d13	slli	x26,x29,0x17	 x29:0x00000000 x26=0x00000000
       27485000	      2747	80000ac4	0090c8b3	xor	x17,x1,x9	  x1:0x00000000  x9:0x00000000 x17=0x00000000
       27495000	      2748	80000ac8	16a5e513	ori	x10,x11,362	 x11:0x00000000 x10=0x0000016a
       27505000	      2749	80000acc	96373093	sltiu	x1,x14,-1693	 x14:0x00000000  x1=0x00000001
       27515000	      2750	80000ad0	ff7adc83	lhu	x25,-9(x21)	 x21:0x80008c2d x25=0x00000000 PA:0x80008c24
       27525000	      2751	80000ad4	cfa1f513	andi	x10,x3,-774	  x3:0x00000000 x10=0x00000000
       27535000	      2752	80000ad8	00000013	addi	x0,x0,0	  x0:0x00000000
       27545000	      2753	80000adc	008ac903	lbu	x18,8(x21)	 x21:0x80008c2d x18=0x00000000 PA:0x80008c35
       27555000	      2754	80000ae0	ff1a8503	lb	x10,-15(x21)	 x21:0x80008c2d x10=0x00000000 PA:0x80008c1e
       27565000	      2755	80000ae4	ff7ac903	lbu	x18,-9(x21)	 x21:0x80008c2d x18=0x00000000 PA:0x80008c24
       27575000	      2756	80000ae8	00008317	auipc	x6,0x8	  x6=0x80008ae4
       27585000	      2757	80000aec	37030313	addi	x6,x6,880	  x6:0x80008ae4  x6=0x80008e54
       27595000	      2758	80000af0	007b59b3	srl	x19,x22,x7	 x22:0x00000000  x7:0x80009fc4 x19=0x00000000
       27605000	      2759	80000af4	01030123	sb	x16,2(x6)	  x6:0x80008e54 x16:0xa15e4e6e PA:0x80008e56
       27615000	      2760	80000af8	50e36d93	ori	x27,x6,1294	  x6:0x80008e54 x27=0x80008f5e
       27625000	      2761	80000afc	ff435983	lhu	x19,-12(x6)	  x6:0x80008e54 x19=0x00000000 PA:0x80008e48
       27635000	      2762	80000b00	4606ab13	slti	x22,x13,1120	 x13:0x00000000 x22=0x00000001
       27645000	      2763	80000b04	016303a3	sb	x22,7(x6)	  x6:0x80008e54 x22:0x00000001 PA:0x80008e5b
       27655000	      2764	80000b08	ffd30683	lb	x13,-3(x6)	  x6:0x80008e54 x13=0x00000000 PA:0x80008e51
       27665000	      2765	80000b0c	fe131a23	sh	x1,-12(x6)	  x6:0x80008e54  x1:0x00000001 PA:0x80008e48
       27675000	      2766	80000b10	0a724093	xori	x1,x4,167	  x4:0x00000000  x1=0x000000a7
       27685000	      2767	80000b14	00e30183	lb	x3,14(x6)	  x6:0x80008e54  x3=0x00000000 PA:0x80008e62
       27695000	      2768	80000b18	00b34483	lbu	x9,11(x6)	  x6:0x80008e54  x9=0x00000000 PA:0x80008e5f
       27705000	      2769	80000b1c	00f24233	xor	x4,x4,x15	  x4:0x00000000 x15:0x00000000  x4=0x00000000
       27715000	      2770	80000b20	00934f83	lbu	x31,9(x6)	  x6:0x80008e54 x31=0x00000018 PA:0x80008e5d
       27725000	      2771	80000b24	7a9b3113	sltiu	x2,x22,1961	 x22:0x00000001  x2=0x00000001
       27735000	      2772	80000b28	41335833	sra	x16,x6,x19	  x6:0x80008e54 x19:0x00000000 x16=0x80008e54
       27745000	      2773	80000b2c	d16f4c93	xori	x25,x30,-746	 x30:0x00000000 x25=0xfffffd16
       27755000	      2774	80000b30	40dfdf93	srai	x31,x31,0xd	 x31:0x00000018 x31=0x00000000
       27765000	      2775	80000b34	1910ec17	auipc	x24,0x1910e	 x24=0x9910eb30
       27775000	      2776	80000b38	58ec4c93	xori	x25,x24,1422	 x24:0x9910eb30 x25=0x9910eebe
       27785000	      2777	80000b3c	00e34583	lbu	x11,14(x6)	  x6:0x80008e54 x11=0x00000000 PA:0x80008e62
       27795000	      2778	80000b40	0001f533	and	x10,x3,x0	  x3:0x00000000  x0:0x00000000 x10=0x00000000
       27805000	      2779	80000b44	00000013	addi	x0,x0,0	  x0:0x00000000
       27815000	      2780	80000b48	00c35e83	lhu	x29,12(x6)	  x6:0x80008e54 x29=0x00000000 PA:0x80008e60
       27825000	      2781	80000b4c	0174c933	xor	x18,x9,x23	  x9:0x00000000 x23:0x00000001 x18=0x00000001
       27835000	      2782	80000b50	00835103	lhu	x2,8(x6)	  x6:0x80008e54  x2=0x00001800 PA:0x80008e5c
       27845000	      2783	80000b54	00734e83	lbu	x29,7(x6)	  x6:0x80008e54 x29=0x00000001 PA:0x80008e5b
       27855000	      2784	80000b58	00bde633	or	x12,x27,x11	 x27:0x80008f5e x11:0x00000000 x12=0x80008f5e
       27865000	      2785	80000b5c	01400933	add	x18,x0,x20	  x0:0x00000000 x20:0xa15e4cb0 x18=0xa15e4cb0
       27875000	      2786	80000b60	00b16ab3	or	x21,x2,x11	  x2:0x00001800 x11:0x00000000 x21=0x00001800
       27885000	      2787	80000b64	01831023	sh	x24,0(x6)	  x6:0x80008e54 x24:0x9910eb30 PA:0x80008e54
       27895000	      2788	80000b68	8e92e517	auipc	x10,0x8e92e	 x10=0x0e92eb64
       27905000	      2789	80000b6c	ff130f03	lb	x30,-15(x6)	  x6:0x80008e54 x30=0x00000000 PA:0x80008e45
       27915000	      2790	80000b70	00934d03	lbu	x26,9(x6)	  x6:0x80008e54 x26=0x00000018 PA:0x80008e5d
       27925000	      2791	80000b74	41b780b3	sub	x1,x15,x27	 x15:0x00000000 x27:0x80008f5e  x1=0x7fff70a2
       27935000	      2792	80000b78	0058fdb3	and	x27,x17,x5	 x17:0x00000000  x5:0x00000000 x27=0x00000000
       27945000	      2793	80000b7c	00b34703	lbu	x14,11(x6)	  x6:0x80008e54 x14=0x00000000 PA:0x80008e5f
       27955000	      2794	80000b80	7cb5a493	slti	x9,x11,1995	 x11:0x00000000  x9=0x00000001
       27965000	      2795	80000b84	002bed33	or	x26,x23,x2	 x23:0x00000001  x2:0x00001800 x26=0x00001801
       27975000	      2796	80000b88	01193bb3	sltu	x23,x18,x17	 x18:0xa15e4cb0 x17:0x00000000 x23=0x00000000
       27985000	      2797	80000b8c	00030023	sb	x0,0(x6)	  x6:0x80008e54  x0:0x00000000 PA:0x80008e54
       27995000	      2798	80000b90	00911d13	slli	x26,x2,0x9	  x2:0x00001800 x26=0x00300000
       28005000	      2799	80000b94	fef30823	sb	x15,-16(x6)	  x6:0x80008e54 x15:0x00000000 PA:0x80008e44
       28015000	      2800	80000b98	fe231a23	sh	x2,-12(x6)	  x6:0x80008e54  x2:0x00001800 PA:0x80008e48
       28025000	      2801	80000b9c	00b985b3	add	x11,x19,x11	 x19:0x00000000 x11:0x00000000 x11=0x00000000
       28035000	      2802	80000ba0	ff730803	lb	x16,-9(x6)	  x6:0x80008e54 x16=0x00000000 PA:0x80008e4b
       28045000	      2803	80000ba4	00890933	add	x18,x18,x8	 x18:0xa15e4cb0  x8:0x80009f48 x18=0x215eebf8
       28055000	      2804	80000ba8	5d6f4293	xori	x5,x30,1494	 x30:0x00000000  x5=0x000005d6
       28065000	      2805	80000bac	00035183	lhu	x3,0(x6)	  x6:0x80008e54  x3=0x0000eb00 PA:0x80008e54
       28075000	      2806	80000bb0	00731123	sh	x7,2(x6)	  x6:0x80008e54  x7:0x80009fc4 PA:0x80008e56
       28085000	      2807	80000bb4	00a300a3	sb	x10,1(x6)	  x6:0x80008e54 x10:0x0e92eb64 PA:0x80008e55
       28095000	      2808	80000bb8	ff831b03	lh	x22,-8(x6)	  x6:0x80008e54 x22=0x00000000 PA:0x80008e4c
       28105000	      2809	80000bbc	00f304a3	sb	x15,9(x6)	  x6:0x80008e54 x15:0x00000000 PA:0x80008e5d
       28115000	      2810	80000bc0	00334a83	lbu	x21,3(x6)	  x6:0x80008e54 x21=0x0000009f PA:0x80008e57
       28125000	      2811	80000bc4	ff630a83	lb	x21,-10(x6)	  x6:0x80008e54 x21=0x00000000 PA:0x80008e4a
       28135000	      2812	80000bc8	00530703	lb	x14,5(x6)	  x6:0x80008e54 x14=0x00000000 PA:0x80008e59
       28145000	      2813	80000bcc	00007617	auipc	x12,0x7	 x12=0x80007bc8
       28155000	      2814	80000bd0	77060613	addi	x12,x12,1904	 x12:0x80007bc8 x12=0x80008338
       28165000	      2815	80000bd4	410c0333	sub	x6,x24,x16	 x24:0x9910eb30 x16:0x00000000  x6=0x9910eb30
       28175000	      2816	80000bd8	00a6dab3	srl	x21,x13,x10	 x13:0x00000000 x10:0x0e92eb64 x21=0x00000000
       28185000	      2817	80000bdc	41a688b3	sub	x17,x13,x26	 x13:0x00000000 x26:0x00300000 x17=0xffd00000
       28195000	      2818	80000be0	acde0a93	addi	x21,x28,-1331	 x28:0x00000000 x21=0xfffffacd
       28205000	      2819	80000be4	ed160883	lb	x17,-303(x12)	 x12:0x80008338 x17=0x00000000 PA:0x80008209
       28215000	      2820	80000be8	2ef64303	lbu	x6,751(x12)	 x12:0x80008338  x6=0x00000000 PA:0x80008627
       28225000	      2821	80000bec	014c91b3	sll	x3,x25,x20	 x25:0x9910eebe x20:0xa15e4cb0  x3=0xeebe0000
       28235000	      2822	80000bf0	19d64803	lbu	x16,413(x12)	 x12:0x80008338 x16=0x00000000 PA:0x800084d5
       28245000	      2823	80000bf4	2626e817	auipc	x16,0x2626e	 x16=0xa626ebf0
       28255000	      2824	80000bf8	40d18c33	sub	x24,x3,x13	  x3:0xeebe0000 x13:0x00000000 x24=0xeebe0000
       28265000	      2825	80000bfc	4bb64983	lbu	x19,1211(x12)	 x12:0x80008338 x19=0x00000000 PA:0x800087f3
       28275000	      2826	00000000	00000013	addi	x0,x0,0	  x0:0x00000000
       28285000	      2827	80000c00	0131a4b3	slt	x9,x3,x19	  x3:0xeebe0000 x19:0x00000000  x9=0x00000001
       28295000	      2828	80000c04	389606a3	sb	x9,909(x12)	 x12:0x80008338  x9:0x00000001 PA:0x800086c5
       28305000	      2829	80000c08	265a0113	addi	x2,x20,613	 x20:0xa15e4cb0  x2=0xa15e4f15
       28315000	      2830	80000c0c	0e100537	lui	x10,0xe100	 x10=0x0e100000
       28325000	      2831	80000c10	39264503	lbu	x10,914(x12)	 x12:0x80008338 x10=0x00000000 PA:0x800086ca
       28335000	      2832	80000c14	00ea2bb3	slt	x23,x20,x14	 x20:0xa15e4cb0 x14:0x00000000 x23=0x00000001
       28345000	      2833	80000c18	50def493	andi	x9,x29,1293	 x29:0x00000001  x9=0x00000001
       28355000	      2834	80000c1c	18960f83	lb	x31,393(x12)	 x12:0x80008338 x31=0x00000000 PA:0x800084c1
       28365000	      2835	80000c20	003309b3	add	x19,x6,x3	  x6:0x00000000  x3:0xeebe0000 x19=0xeebe0000
       28375000	      2836	80000c24	43062503	lw	x10,1072(x12)	 x12:0x80008338 x10=0x00004b00 PA:0x80008768
       28385000	      2837	80000c28	019fedb3	or	x27,x31,x25	 x31:0x00000000 x25:0x9910eebe x27=0x9910eebe
       28395000	      2838	80000c2c	50c5a493	slti	x9,x11,1292	 x11:0x00000000  x9=0x00000001
       28405000	      2839	80000c30	00bb99b3	sll	x19,x23,x11	 x23:0x00000001 x11:0x00000000 x19=0x00000001
       28415000	      2840	80000c34	fdce2797	auipc	x15,0xfdce2	 x15=0x7dce2c30
       28425000	      2841	80000c38	00c82733	slt	x14,x16,x12	 x16:0xa626ebf0 x12:0x80008338 x14=0x00000000
       28435000	      2842	80000c3c	e6064983	lbu	x19,-416(x12)	 x12:0x80008338 x19=0x00000000 PA:0x80008198
       28445000	      2843	80000c40	f8c62503	lw	x10,-116(x12)	 x12:0x80008338 x10=0x00000000 PA:0x800082c4
       28455000	      2844	80000c44	00000013	addi	x0,x0,0	  x0:0x00000000
       28465000	      2845	80000c48	49543fb7	lui	x31,0x49543	 x31=0x49543000
       28475000	      2846	80000c4c	24261b83	lh	x23,578(x12)	 x12:0x80008338 x23=0x00000000 PA:0x8000857a
       28485000	      2847	80000c50	44e65f03	lhu	x30,1102(x12)	 x12:0x80008338 x30=0x00000000 PA:0x80008786
       28495000	      2848	80000c54	47b60323	sb	x27,1126(x12)	 x12:0x80008338 x27:0x9910eebe PA:0x8000879e
       28505000	      2849	80000c58	37260f03	lb	x30,882(x12)	 x12:0x80008338 x30=0x00000000 PA:0x800086aa
       28515000	      2850	80000c5c	eb461c03	lh	x24,-332(x12)	 x12:0x80008338 x24=0x00000000 PA:0x800081ec
       28525000	      2851	80000c60	01f34c33	xor	x24,x6,x31	  x6:0x00000000 x31:0x49543000 x24=0x49543000
       28535000	      2852	80000c64	386e5937	lui	x18,0x386e5	 x18=0x386e5000
       28545000	      2853	80000c68	20962623	sw	x9,524(x12)	 x12:0x80008338  x9:0x00000001 PA:0x80008544
       28555000	      2854	80000c6c	30c61823	sh	x12,784(x12)	 x12:0x80008338 x12:0x80008338 PA:0x80008648
       28565000	      2855	80000c70	3d060e83	lb	x29,976(x12)	 x12:0x80008338 x29=0x00000000 PA:0x80008708
       28575000	      2856	00000000	00000013	addi	x0,x0,0	  x0:0x00000000
       28585000	      2857	80000c74	01dbee33	or	x28,x23,x29	 x23:0x00000000 x29:0x00000000 x28=0x00000000
       28595000	      2858	80000c78	00aea7b3	slt	x15,x29,x10	 x29:0x00000000 x10:0x00000000 x15=0x00000000
       28605000	      2859	80000c7c	d8b64003	lbu	x0,-629(x12)	 x12:0x80008338 PA:0x800080c3
       28615000	      2860	80000c80	00000013	addi	x0,x0,0	  x0:0x00000000
       28625000	      2861	80000c84	06f1a013	slti	x0,x3,111	  x3:0xeebe0000
       28635000	      2862	80000c88	44860523	sb	x8,1098(x12)	 x12:0x80008338  x8:0x80009f48 PA:0x80008782
       28645000	      2863	80000c8c	dfd64e83	lbu	x29,-515(x12)	 x12:0x80008338 x29=0x00000000 PA:0x80008135
       28655000	      2864	80000c90	46462503	lw	x10,1124(x12)	 x12:0x80008338 x10=0x00be0000 PA:0x8000879c
       28665000	      2865	80000c94	01cfdf13	srli	x30,x31,0x1c	 x31:0x49543000 x30=0x00000004
       28675000	      2866	80000c98	54dc6013	ori	x0,x24,1357	 x24:0x49543000
       28685000	      2867	80000c9c	43265c83	lhu	x25,1074(x12)	 x12:0x80008338 x25=0x00000000 PA:0x8000876a
       28695000	      2868	80000ca0	004eb8b3	sltu	x17,x29,x4	 x29:0x00000000  x4:0x00000000 x17=0x00000000
       28705000	      2869	80000ca4	4a7606a3	sb	x7,1197(x12)	 x12:0x80008338  x7:0x80009fc4 PA:0x800087e5
       28715000	      2870	80000ca8	019d0133	add	x2,x26,x25	 x26:0x00300000 x25:0x00000000  x2=0x00300000
       28725000	      2871	80000cac	f4164103	lbu	x2,-191(x12)	 x12:0x80008338  x2=0x00000000 PA:0x80008279
       28735000	      2872	80000cb0	00008f97	auipc	x31,0x8	 x31=0x80008cac
       28745000	      2873	80000cb4	f4bf8f93	addi	x31,x31,-181	 x31:0x80008cac x31=0x80008bf7
       28755000	      2874	80000cb8	11352013	slti	x0,x10,275	 x10:0x00be0000
       28765000	      2875	80000cbc	fe8f8d23	sb	x8,-6(x31)	 x31:0x80008bf7  x8:0x80009f48 PA:0x80008bf1
       28775000	      2876	80000cc0	01efa4a3	sw	x30,9(x31)	 x31:0x80008bf7 x30:0x00000004 PA:0x80008c00
       28785000	      2877	80000cc4	d2c87893	andi	x17,x16,-724	 x16:0xa626ebf0 x17=0xa626e920
       28795000	      2878	80000cc8	013f8123	sb	x19,2(x31)	 x31:0x80008bf7 x19:0x00000000 PA:0x80008bf9
       28805000	      2879	80000ccc	bf7b4d17	auipc	x26,0xbf7b4	 x26=0x3f7b4cc8
       28815000	      2880	80000cd0	ff5f8c23	sb	x21,-8(x31)	 x31:0x80008bf7 x21:0xfffffacd PA:0x80008bef
       28825000	      2881	80000cd4	ff7fc203	lbu	x4,-9(x31)	 x31:0x80008bf7  x4=0x00000000 PA:0x80008bee
       28835000	      2882	80000cd8	01465633	srl	x12,x12,x20	 x12:0x80008338 x20:0xa15e4cb0 x12=0x00008000
       28845000	      2883	80000cdc	4079db93	srai	x23,x19,0x7	 x19:0x00000000 x23=0x00000000
       28855000	      2884	80000ce0	28e88b13	addi	x22,x17,654	 x17:0xa626e920 x22=0xa626ebae
       28865000	      2885	80000ce4	011a0233	add	x4,x20,x17	 x20:0xa15e4cb0 x17:0xa626e920  x4=0x478535d0
       28875000	      2886	80000ce8	0129dd13	srli	x26,x19,0x12	 x19:0x00000000 x26=0x00000000
       28885000	      2887	80000cec	01ef8823	sb	x30,16(x31)	 x31:0x80008bf7 x30:0x00000004 PA:0x80008c07
       28895000	      2888	80000cf0	000fc203	lbu	x4,0(x31)	 x31:0x80008bf7  x4=0x00000089 PA:0x80008bf7
       28905000	      2889	80000cf4	00a3b0b3	sltu	x1,x7,x10	  x7:0x80009fc4 x10:0x00be0000  x1=0x00000000
       28915000	      2890	80000cf8	ffdfa303	lw	x6,-3(x31)	 x31:0x80008bf7  x6=0x89b80000 PA:0x80008bf4
       28925000	      2891	80000cfc	41696493	ori	x9,x18,1046	 x18:0x386e5000  x9=0x386e5416
       28935000	      2892	80000d00	4173da93	srai	x21,x7,0x17	  x7:0x80009fc4 x21=0xffffff00
       28945000	      2893	80000d04	001fc503	lbu	x10,1(x31)	 x31:0x80008bf7 x10=0x00000000 PA:0x80008bf8
       28955000	      2894	00000000	00000013	addi	x0,x0,0	  x0:0x00000000
       28965000	      2895	80000d08	00afcc83	lbu	x25,10(x31)	 x31:0x80008bf7 x25=0x00000000 PA:0x80008c01
       28975000	      2896	80000d0c	a8380817	auipc	x16,0xa8380	 x16=0x28380d08
       28985000	      2897	80000d10	ffff8e03	lb	x28,-1(x31)	 x31:0x80008bf7 x28=0xffffffb8 PA:0x80008bf6
       28995000	      2898	80000d14	1a282713	slti	x14,x16,418	 x16:0x28380d08 x14=0x00000000
       29005000	      2899	80000d18	012fa0a3	sw	x18,1(x31)	 x31:0x80008bf7 x18:0x386e5000 PA:0x80008bf8
       29015000	      2900	80000d1c	00008117	auipc	x2,0x8	  x2=0x80008d18
       29025000	      2901	80000d20	26710113	addi	x2,x2,615	  x2:0x80008d18  x2=0x80008f7f
       29035000	      2902	80000d24	00c114a3	sh	x12,9(x2)	  x2:0x80008f7f x12:0x00008000 PA:0x80008f88
       29045000	      2903	80000d28	01810123	sb	x24,2(x2)	  x2:0x80008f7f x24:0x49543000 PA:0x80008f81
       29055000	      2904	80000d2c	00a14003	lbu	x0,10(x2)	  x2:0x80008f7f PA:0x80008f89
       29065000	      2905	80000d30	ffe14803	lbu	x16,-2(x2)	  x2:0x80008f7f x16=0x00000000 PA:0x80008f7d
       29075000	      2906	80000d34	91fb9217	auipc	x4,0x91fb9	  x4=0x11fb9d30
       29085000	      2907	80000d38	00c14f03	lbu	x30,12(x2)	  x2:0x80008f7f x30=0x00000000 PA:0x80008f8b
       29095000	      2908	80000d3c	ffb10303	lb	x6,-5(x2)	  x2:0x80008f7f  x6=0x00000000 PA:0x80008f7a
       29105000	      2909	80000d40	015fd313	srli	x6,x31,0x15	 x31:0x80008bf7  x6=0x00000400
       29115000	      2910	80000d44	0123a5b3	slt	x11,x7,x18	  x7:0x80009fc4 x18:0x386e5000 x11=0x00000001
       29125000	      2911	80000d48	00214c03	lbu	x24,2(x2)	  x2:0x80008f7f x24=0x00000000 PA:0x80008f81
       29135000	      2912	80000d4c	ffa10c23	sb	x26,-8(x2)	  x2:0x80008f7f x26:0x00000000 PA:0x80008f77
       29145000	      2913	80000d50	008114a3	sh	x8,9(x2)	  x2:0x80008f7f  x8:0x80009f48 PA:0x80008f88
       29155000	      2914	80000d54	003541b3	xor	x3,x10,x3	 x10:0x00000000  x3:0xeebe0000  x3=0xeebe0000
       29165000	      2915	80000d58	cbe7a6b7	lui	x13,0xcbe7a	 x13=0xcbe7a000
       29175000	      2916	80000d5c	fe9109a3	sb	x9,-13(x2)	  x2:0x80008f7f  x9:0x386e5416 PA:0x80008f72
       29185000	      2917	80000d60	40238bb3	sub	x23,x7,x2	  x7:0x80009fc4  x2:0x80008f7f x23=0x00001045
       29195000	      2918	80000d64	01378633	add	x12,x15,x19	 x15:0x00000000 x19:0x00000000 x12=0x00000000
       29205000	      2919	80000d68	ffb15803	lhu	x16,-5(x2)	  x2:0x80008f7f x16=0x00000000 PA:0x80008f7a
       29215000	      2920	80000d6c	00414f03	lbu	x30,4(x2)	  x2:0x80008f7f x30=0x00000000 PA:0x80008f83
       29225000	      2921	00000000	00000013	addi	x0,x0,0	  x0:0x00000000
       29235000	      2922	80000d70	41ea5193	srai	x3,x20,0x1e	 x20:0xa15e4cb0  x3=0xfffffffe
       29245000	      2923	80000d74	00d11eb3	sll	x29,x2,x13	  x2:0x80008f7f x13:0xcbe7a000 x29=0x80008f7f
       29255000	      2924	80000d78	000102a3	sb	x0,5(x2)	  x2:0x80008f7f  x0:0x00000000 PA:0x80008f84
       29265000	      2925	80000d7c	00810903	lb	x18,8(x2)	  x2:0x80008f7f x18=0x00000000 PA:0x80008f87
       29275000	      2926	80000d80	411ad713	srai	x14,x21,0x11	 x21:0xffffff00 x14=0xffffffff
       29285000	      2927	80000d84	00810083	lb	x1,8(x2)	  x2:0x80008f7f  x1=0x00000000 PA:0x80008f87
       29295000	      2928	80000d88	01e115a3	sh	x30,11(x2)	  x2:0x80008f7f x30:0x00000000 PA:0x80008f8a
       29305000	      2929	80000d8c	0123e633	or	x12,x7,x18	  x7:0x80009fc4 x18:0x00000000 x12=0x80009fc4
       29315000	      2930	80000d90	00512c03	lw	x24,5(x2)	  x2:0x80008f7f x24=0x00000000 PA:0x80008f84
       29325000	      2931	80000d94	ff010983	lb	x19,-16(x2)	  x2:0x80008f7f x19=0x00000000 PA:0x80008f6f
       29335000	      2932	80000d98	00ff8f33	add	x30,x31,x15	 x31:0x80008bf7 x15:0x00000000 x30=0x80008bf7
       29345000	      2933	80000d9c	fec12ea3	sw	x12,-3(x2)	  x2:0x80008f7f x12:0x80009fc4 PA:0x80008f7c
       29355000	      2934	80000da0	ca023097	auipc	x1,0xca023	  x1=0x4a023d9c
       29365000	      2935	80000da4	01d41eb3	sll	x29,x8,x29	  x8:0x80009f48 x29:0x80008f7f x29=0x00000000
       29375000	      2936	80000da8	ff311883	lh	x17,-13(x2)	  x2:0x80008f7f x17=0x00000016 PA:0x80008f72
       29385000	      2937	80000dac	ff010303	lb	x6,-16(x2)	  x2:0x80008f7f  x6=0x00000000 PA:0x80008f6f
       29395000	      2938	80000db0	c9ef3b13	sltiu	x22,x30,-866	 x30:0x80008bf7 x22=0x00000001
       29405000	      2939	80000db4	fff119a3	sh	x31,-13(x2)	  x2:0x80008f7f x31:0x80008bf7 PA:0x80008f72
       29415000	      2940	80000db8	013db833	sltu	x16,x27,x19	 x27:0x9910eebe x19:0x00000000 x16=0x00000000
       29425000	      2941	80000dbc	21770c13	addi	x24,x14,535	 x14:0xffffffff x24=0x00000216
       29435000	      2942	80000dc0	01d10523	sb	x29,10(x2)	  x2:0x80008f7f x29:0x00000000 PA:0x80008f89
       29445000	      2943	80000dc4	ffb15883	lhu	x17,-5(x2)	  x2:0x80008f7f x17=0x00000000 PA:0x80008f7a
       29455000	      2944	80000dc8	74db7593	andi	x11,x22,1869	 x22:0x00000001 x11=0x00000001
       29465000	      2945	80000dcc	ffc14e03	lbu	x28,-4(x2)	  x2:0x80008f7f x28=0x00000000 PA:0x80008f7b
       29475000	      2946	80000dd0	ff314e83	lbu	x29,-13(x2)	  x2:0x80008f7f x29=0x000000f7 PA:0x80008f72
       29485000	      2947	80000dd4	ff210a83	lb	x21,-14(x2)	  x2:0x80008f7f x21=0x00000000 PA:0x80008f71
       29495000	      2948	00000000	00000013	addi	x0,x0,0	  x0:0x00000000
       29505000	      2949	80000dd8	ff514703	lbu	x14,-11(x2)	  x2:0x80008f7f x14=0x00000030 PA:0x80008f74
       29515000	      2950	80000ddc	419a5713	srai	x14,x20,0x19	 x20:0xa15e4cb0 x14=0xffffffd0
       29525000	      2951	80000de0	ff414a83	lbu	x21,-12(x2)	  x2:0x80008f7f x21=0x0000008b PA:0x80008f73
       29535000	      2952	80000de4	00008117	auipc	x2,0x8	  x2=0x80008de0
       29545000	      2953	80000de8	11310113	addi	x2,x2,275	  x2:0x80008de0  x2=0x80008ef3
       29555000	      2954	80000dec	00e1b933	sltu	x18,x3,x14	  x3:0xfffffffe x14:0xffffffd0 x18=0x00000000
       29565000	      2955	80000df0	f5111083	lh	x1,-175(x2)	  x2:0x80008ef3  x1=0x00000000 PA:0x80008e44
       29575000	      2956	80000df4	40670b33	sub	x22,x14,x6	 x14:0xffffffd0  x6:0x00000000 x22=0xffffffd0
       29585000	      2957	80000df8	222e7713	andi	x14,x28,546	 x28:0x00000000 x14=0x00000000
       29595000	      2958	80000dfc	00000013	addi	x0,x0,0	  x0:0x00000000
       29605000	      2959	80000e00	06315e03	lhu	x28,99(x2)	  x2:0x80008ef3 x28=0x00000000 PA:0x80008f56
       29615000	      2960	80000e04	408edf33	sra	x30,x29,x8	 x29:0x000000f7  x8:0x80009f48 x30=0x00000000
       29625000	      2961	80000e08	51730b13	addi	x22,x6,1303	  x6:0x00000000 x22=0x00000517
       29635000	      2962	80000e0c	41425e93	srai	x29,x4,0x14	  x4:0x11fb9d30 x29=0x0000011f
       29645000	      2963	80000e10	00df1993	slli	x19,x30,0xd	 x30:0x00000000 x19=0x00000000
       29655000	      2964	80000e14	c1504697	auipc	x13,0xc1504	 x13=0x41504e10
       29665000	      2965	80000e18	004d75b3	and	x11,x26,x4	 x26:0x00000000  x4:0x11fb9d30 x11=0x00000000
       29675000	      2966	80000e1c	f3910923	sb	x25,-206(x2)	  x2:0x80008ef3 x25:0x00000000 PA:0x80008e25
       29685000	      2967	80000e20	00408fb3	add	x31,x1,x4	  x1:0x00000000  x4:0x11fb9d30 x31=0x11fb9d30
       29695000	      2968	80000e24	00000013	addi	x0,x0,0	  x0:0x00000000
       29705000	      2969	80000e28	012f3033	sltu	x0,x30,x18	 x30:0x00000000 x18:0x00000000
       29715000	      2970	80000e2c	04910723	sb	x9,78(x2)	  x2:0x80008ef3  x9:0x386e5416 PA:0x80008f41
       29725000	      2971	80000e30	f8a11ea3	sh	x10,-99(x2)	  x2:0x80008ef3 x10:0x00000000 PA:0x80008e90
       29735000	      2972	80000e34	371a7993	andi	x19,x20,881	 x20:0xa15e4cb0 x19=0x00000030
       29745000	      2973	80000e38	0118bdb3	sltu	x27,x17,x17	 x17:0x00000000 x17:0x00000000 x27=0x00000000
       29755000	      2974	80000e3c	01681033	sll	x0,x16,x22	 x16:0x00000000 x22:0x00000517
       29765000	      2975	80000e40	006350b3	srl	x1,x6,x6	  x6:0x00000000  x6:0x00000000  x1=0x00000000
       29775000	      2976	80000e44	05f14303	lbu	x6,95(x2)	  x2:0x80008ef3  x6=0x00000000 PA:0x80008f52
       29785000	      2977	80000e48	f7810d23	sb	x24,-134(x2)	  x2:0x80008ef3 x24:0x00000216 PA:0x80008e6d
       29795000	      2978	80000e4c	00a10a83	lb	x21,10(x2)	  x2:0x80008ef3 x21=0x00000000 PA:0x80008efd
       29805000	      2979	80000e50	01ede233	or	x4,x27,x30	 x27:0x00000000 x30:0x00000000  x4=0x00000000
       29815000	      2980	80000e54	00b354b3	srl	x9,x6,x11	  x6:0x00000000 x11:0x00000000  x9=0x00000000
       29825000	      2981	80000e58	00000013	addi	x0,x0,0	  x0:0x00000000
       29835000	      2982	80000e5c	01518c33	add	x24,x3,x21	  x3:0xfffffffe x21:0x00000000 x24=0xfffffffe
       29845000	      2983	80000e60	04814183	lbu	x3,72(x2)	  x2:0x80008ef3  x3=0x000000bf PA:0x80008f3b
       29855000	      2984	80000e64	f1414d03	lbu	x26,-236(x2)	  x2:0x80008ef3 x26=0x00000000 PA:0x80008e07
       29865000	      2985	80000e68	04014203	lbu	x4,64(x2)	  x2:0x80008ef3  x4=0x00000000 PA:0x80008f33
       29875000	      2986	80000e6c	00000013	addi	x0,x0,0	  x0:0x00000000
       29885000	      2987	80000e70	92634793	xori	x15,x6,-1754	  x6:0x00000000 x15=0xfffff926
       29895000	      2988	80000e74	ffd15783	lhu	x15,-3(x2)	  x2:0x80008ef3 x15=0x00000000 PA:0x80008ef0
       29905000	      2989	80000e78	01341d93	slli	x27,x8,0x13	  x8:0x80009f48 x27=0xfa400000
       29915000	      2990	80000e7c	f2715583	lhu	x11,-217(x2)	  x2:0x80008ef3 x11=0x00000000 PA:0x80008e1a
       29925000	      2991	00000000	00000013	addi	x0,x0,0	  x0:0x00000000
       29935000	      2992	80000e80	00b668b3	or	x17,x12,x11	 x12:0x80009fc4 x11:0x00000000 x17=0x80009fc4
       29945000	      2993	80000e84	01c741b3	xor	x3,x14,x28	 x14:0x00000000 x28:0x00000000  x3=0x00000000
       29955000	      2994	80000e88	fba10003	lb	x0,-70(x2)	  x2:0x80008ef3 PA:0x80008ead
       29965000	      2995	80000e8c	0c814c83	lbu	x25,200(x2)	  x2:0x80008ef3 x25=0x00000000 PA:0x80008fbb
       29975000	      2996	80000e90	f4310c03	lb	x24,-189(x2)	  x2:0x80008ef3 x24=0x00000000 PA:0x80008e36
       29985000	      2997	80000e94	509bb993	sltiu	x19,x23,1289	 x23:0x00001045 x19=0x00000000
       29995000	      2998	80000e98	00af5b33	srl	x22,x30,x10	 x30:0x00000000 x10:0x00000000 x22=0x00000000
       30005000	      2999	80000e9c	01f05e13	srli	x28,x0,0x1f	  x0:0x00000000 x28=0x00000000
       30015000	      3000	80000ea0	0cf110a3	sh	x15,193(x2)	  x2:0x80008ef3 x15:0x00000000 PA:0x80008fb4
       30025000	      3001	80000ea4	dc43a013	slti	x0,x7,-572	  x7:0x80009fc4
       30035000	      3002	80000ea8	04810523	sb	x8,74(x2)	  x2:0x80008ef3  x8:0x80009f48 PA:0x80008f3d
       30045000	      3003	80000eac	00007997	auipc	x19,0x7	 x19=0x80007ea8
       30055000	      3004	80000eb0	78a98993	addi	x19,x19,1930	 x19:0x80007ea8 x19=0x80008632
       30065000	      3005	80000eb4	00000013	addi	x0,x0,0	  x0:0x00000000
       30075000	      3006	80000eb8	3b79ab93	slti	x23,x19,951	 x19:0x80008632 x23=0x00000001
       30085000	      3007	80000ebc	baf98103	lb	x2,-1105(x19)	 x19:0x80008632  x2=0x00000000 PA:0x800081e1
       30095000	      3008	80000ec0	016eb333	sltu	x6,x29,x22	 x29:0x0000011f x22:0x00000000  x6=0x00000000
       30105000	      3009	80000ec4	00000013	addi	x0,x0,0	  x0:0x00000000
       30115000	      3010	80000ec8	a987c713	xori	x14,x15,-1384	 x15:0x00000000 x14=0xfffffa98
       30125000	      3011	80000ecc	b5282637	lui	x12,0xb5282	 x12=0xb5282000
       30135000	      3012	80000ed0	cd3989a3	sb	x19,-813(x19)	 x19:0x80008632 x19:0x80008632 PA:0x80008305
       30145000	      3013	80000ed4	f9698523	sb	x22,-118(x19)	 x19:0x80008632 x22:0x00000000 PA:0x800085bc
       30155000	      3014	80000ed8	bd29de03	lhu	x28,-1070(x19)	 x19:0x80008632 x28=0x00000000 PA:0x80008204
       30165000	      3015	80000edc	d729dc83	lhu	x25,-654(x19)	 x19:0x80008632 x25=0x00000000 PA:0x800083a4
       30175000	      3016	80000ee0	41fc5db3	sra	x27,x24,x31	 x24:0x00000000 x31:0x11fb9d30 x27=0x00000000
       30185000	      3017	80000ee4	f490eb93	ori	x23,x1,-183	  x1:0x00000000 x23=0xffffff49
       30195000	      3018	80000ee8	eb798aa3	sb	x23,-331(x19)	 x19:0x80008632 x23:0xffffff49 PA:0x800084e7
       30205000	      3019	80000eec	db79cc83	lbu	x25,-585(x19)	 x19:0x80008632 x25=0x00000000 PA:0x800083e9
       30215000	      3020	80000ef0	01fb65b3	or	x11,x22,x31	 x22:0x00000000 x31:0x11fb9d30 x11=0x11fb9d30
       30225000	      3021	80000ef4	54e7e713	ori	x14,x15,1358	 x15:0x00000000 x14=0x0000054e
       30235000	      3022	80000ef8	e599c103	lbu	x2,-423(x19)	 x19:0x80008632  x2=0x00000000 PA:0x8000848b
       30245000	      3023	80000efc	007ff1b3	and	x3,x31,x7	 x31:0x11fb9d30  x7:0x80009fc4  x3=0x00009d00
       30255000	      3024	80000f00	09099423	sh	x16,136(x19)	 x19:0x80008632 x16:0x00000000 PA:0x800086ba
       30265000	      3025	80000f04	008434b3	sltu	x9,x8,x8	  x8:0x80009f48  x8:0x80009f48  x9=0x00000000
       30275000	      3026	80000f08	00f98883	lb	x17,15(x19)	 x19:0x80008632 x17=0x00000000 PA:0x80008641
       30285000	      3027	80000f0c	bfc98583	lb	x11,-1028(x19)	 x19:0x80008632 x11=0x00000000 PA:0x8000822e
       30295000	      3028	80000f10	81c8e697	auipc	x13,0x81c8e	 x13=0x01c8ef0c
       30305000	      3029	80000f14	001a9b33	sll	x22,x21,x1	 x21:0x00000000  x1:0x00000000 x22=0x00000000
       30315000	      3030	80000f18	0191c2b3	xor	x5,x3,x25	  x3:0x00009d00 x25:0x00000000  x5=0x00009d00
       30325000	      3031	80000f1c	00000013	addi	x0,x0,0	  x0:0x00000000
       30335000	      3032	80000f20	ac09cc83	lbu	x25,-1344(x19)	 x19:0x80008632 x25=0x00000000 PA:0x800080f2
       30345000	      3033	80000f24	c6f980a3	sb	x15,-927(x19)	 x19:0x80008632 x15:0x00000000 PA:0x80008293
       30355000	      3034	80000f28	4a720193	addi	x3,x4,1191	  x4:0x00000000  x3=0x000004a7
       30365000	      3035	80000f2c	00000013	addi	x0,x0,0	  x0:0x00000000
       30375000	      3036	80000f30	cde9d703	lhu	x14,-802(x19)	 x19:0x80008632 x14=0x00000000 PA:0x80008310
       30385000	      3037	80000f34	16b989a3	sb	x11,371(x19)	 x19:0x80008632 x11:0x00000000 PA:0x800087a5
       30395000	      3038	80000f38	d9a98e03	lb	x28,-614(x19)	 x19:0x80008632 x28=0x00000000 PA:0x800083cc
       30405000	      3039	80000f3c	01146733	or	x14,x8,x17	  x8:0x80009f48 x17:0x00000000 x14=0x80009f48
       30415000	      3040	80000f40	003d8cb3	add	x25,x27,x3	 x27:0x00000000  x3:0x000004a7 x25=0x000004a7
       30425000	      3041	80000f44	a0f7f893	andi	x17,x15,-1521	 x15:0x00000000 x17=0x00000000
       30435000	      3042	80000f48	00000013	addi	x0,x0,0	  x0:0x00000000
       30445000	      3043	80000f4c	0e29d583	lhu	x11,226(x19)	 x19:0x80008632 x11=0x00000000 PA:0x80008714
       30455000	      3044	80000f50	a1a98003	lb	x0,-1510(x19)	 x19:0x80008632 PA:0x8000804c
       30465000	      3045	80000f54	e8c98c03	lb	x24,-372(x19)	 x19:0x80008632 x24=0x00000000 PA:0x800084be
       30475000	      3046	00000000	00000013	addi	x0,x0,0	  x0:0x00000000
       30485000	      3047	80000f58	00fc4fb3	xor	x31,x24,x15	 x24:0x00000000 x15:0x00000000 x31=0x00000000
       30495000	      3048	80000f5c	08398803	lb	x16,131(x19)	 x19:0x80008632 x16=0x00000000 PA:0x800086b5
       30505000	      3049	80000f60	75b18f93	addi	x31,x3,1883	  x3:0x000004a7 x31=0x00000c02
       30515000	      3050	80000f64	0119a0b3	slt	x1,x19,x17	 x19:0x80008632 x17:0x00000000  x1=0x00000001
       30525000	      3051	80000f68	ed06a617	auipc	x12,0xed06a	 x12=0x6d06af64
       30535000	      3052	80000f6c	f5798a83	lb	x21,-169(x19)	 x19:0x80008632 x21=0x00000000 PA:0x80008589
       30545000	      3053	80000f70	004d94b3	sll	x9,x27,x4	 x27:0x00000000  x4:0x00000000  x9=0x00000000
       30555000	      3054	80000f74	0749ce83	lbu	x29,116(x19)	 x19:0x80008632 x29=0x00000000 PA:0x800086a6
       30565000	      3055	80000f78	dcd9c283	lbu	x5,-563(x19)	 x19:0x80008632  x5=0x00000000 PA:0x800083ff
       30575000	      3056	80000f7c	01131b13	slli	x22,x6,0x11	  x6:0x00000000 x22=0x00000000
       30585000	      3057	80000f80	004d4eb3	xor	x29,x26,x4	 x26:0x00000000  x4:0x00000000 x29=0x00000000
       30595000	      3058	80000f84	ef198603	lb	x12,-271(x19)	 x19:0x80008632 x12=0x00000000 PA:0x80008523
       30605000	      3059	80000f88	00007197	auipc	x3,0x7	  x3=0x80007f84
       30615000	      3060	80000f8c	5e618193	addi	x3,x3,1510	  x3:0x80007f84  x3=0x8000856a
       30625000	      3061	80000f90	27318d83	lb	x27,627(x3)	  x3:0x8000856a x27=0x00000000 PA:0x800087dd
       30635000	      3062	80000f94	401add93	srai	x27,x21,0x1	 x21:0x00000000 x27=0x00000000
       30645000	      3063	80000f98	0aa1a583	lw	x11,170(x3)	  x3:0x8000856a x11=0x00000000 PA:0x80008614
       30655000	      3064	80000f9c	415c5c13	srai	x24,x24,0x15	 x24:0x00000000 x24=0x00000000
       30665000	      3065	80000fa0	fa21a723	sw	x2,-82(x3)	  x3:0x8000856a  x2:0x00000000 PA:0x80008518
       30675000	      3066	80000fa4	e2018f83	lb	x31,-480(x3)	  x3:0x8000856a x31=0x00000000 PA:0x8000838a
       30685000	      3067	80000fa8	c661d283	lhu	x5,-922(x3)	  x3:0x8000856a  x5=0x00000000 PA:0x800081d0
       30695000	      3068	80000fac	7f512617	auipc	x12,0x7f512	 x12=0xff512fa8
       30705000	      3069	80000fb0	2b518523	sb	x21,682(x3)	  x3:0x8000856a x21:0x00000000 PA:0x80008814
       30715000	      3070	80000fb4	b1b18f03	lb	x30,-1253(x3)	  x3:0x8000856a x30=0x00000000 PA:0x80008085
       30725000	      3071	80000fb8	d991c683	lbu	x13,-615(x3)	  x3:0x8000856a x13=0x00000000 PA:0x80008303
       30735000	      3072	80000fbc	193ead93	slti	x27,x29,403	 x29:0x00000000 x27=0x00000001
       30745000	      3073	80000fc0	a76b0213	addi	x4,x22,-1418	 x22:0x00000000  x4=0xfffffa76
       30755000	      3074	80000fc4	e341d583	lhu	x11,-460(x3)	  x3:0x8000856a x11=0x00000000 PA:0x8000839e
       30765000	      3075	80000fc8	e7118ea3	sb	x17,-387(x3)	  x3:0x8000856a x17:0x00000000 PA:0x800083e7
       30775000	      3076	80000fcc	00055713	srli	x14,x10,0x0	 x10:0x00000000 x14=0x00000000
       30785000	      3077	80000fd0	b1718803	lb	x16,-1257(x3)	  x3:0x8000856a x16=0x00000000 PA:0x80008081
       30795000	      3078	80000fd4	00babf33	sltu	x30,x21,x11	 x21:0x00000000 x11:0x00000000 x30=0x00000000
       30805000	      3079	80000fd8	012e7933	and	x18,x28,x18	 x28:0x00000000 x18:0x00000000 x18=0x00000000
       30815000	      3080	80000fdc	8ebf99b7	lui	x19,0x8ebf9	 x19=0x8ebf9000
       30825000	      3081	80000fe0	ecd18da3	sb	x13,-293(x3)	  x3:0x8000856a x13:0x00000000 PA:0x80008445
       30835000	      3082	80000fe4	faa19f23	sh	x10,-66(x3)	  x3:0x8000856a x10:0x00000000 PA:0x80008528
       30845000	      3083	80000fe8	4120d313	srai	x6,x1,0x12	  x1:0x00000001  x6=0x00000000
       30855000	      3084	80000fec	26d186a3	sb	x13,621(x3)	  x3:0x8000856a x13:0x00000000 PA:0x800087d7
       30865000	      3085	80000ff0	e7219f83	lh	x31,-398(x3)	  x3:0x8000856a x31=0x00003000 PA:0x800083dc
       30875000	      3086	80000ff4	001cebb3	or	x23,x25,x1	 x25:0x000004a7  x1:0x00000001 x23=0x000004a7
       30885000	      3087	80000ff8	00000013	addi	x0,x0,0	  x0:0x00000000
       30895000	      3088	80000ffc	d3a18103	lb	x2,-710(x3)	  x3:0x8000856a  x2=0x00000000 PA:0x800082a4
       30905000	      3089	80001000	beb18983	lb	x19,-1045(x3)	  x3:0x8000856a x19=0x00000000 PA:0x80008155
       30915000	      3090	80001004	e2518923	sb	x5,-462(x3)	  x3:0x8000856a  x5:0x00000000 PA:0x8000839c
       30925000	      3091	80001008	402f5d33	sra	x26,x30,x2	 x30:0x00000000  x2:0x00000000 x26=0x00000000
       30935000	      3092	8000100c	00d96fb3	or	x31,x18,x13	 x18:0x00000000 x13:0x00000000 x31=0x00000000
       30945000	      3093	80001010	96937213	andi	x4,x6,-1687	  x6:0x00000000  x4=0x00000000
       30955000	      3094	80001014	f5e1ab83	lw	x23,-162(x3)	  x3:0x8000856a x23=0x00000000 PA:0x800084c8
       30965000	      3095	80001018	002ddb33	srl	x22,x27,x2	 x27:0x00000001  x2:0x00000000 x22=0x00000001
       30975000	      3096	8000101c	0016f633	and	x12,x13,x1	 x13:0x00000000  x1:0x00000001 x12=0x00000000
       30985000	      3097	80001020	73ad2f97	auipc	x31,0x73ad2	 x31=0xf3ad301c
       30995000	      3098	80001024	f6818b83	lb	x23,-152(x3)	  x3:0x8000856a x23=0x00000000 PA:0x800084d2
       31005000	      3099	80001028	011c89b3	add	x19,x25,x17	 x25:0x000004a7 x17:0x00000000 x19=0x000004a7
       31015000	      3100	8000102c	d921cb03	lbu	x22,-622(x3)	  x3:0x8000856a x22=0x00000000 PA:0x800082fc
       31025000	      3101	80001030	d08187a3	sb	x8,-753(x3)	  x3:0x8000856a  x8:0x80009f48 PA:0x80008279
       31035000	      3102	80001034	deb1a323	sw	x11,-538(x3)	  x3:0x8000856a x11:0x00000000 PA:0x80008350
       31045000	      3103	80001038	00007117	auipc	x2,0x7	  x2=0x80008034
       31055000	      3104	8000103c	43310113	addi	x2,x2,1075	  x2:0x80008034  x2=0x80008467
       31065000	      3105	80001040	013d2f33	slt	x30,x26,x19	 x26:0x00000000 x19:0x000004a7 x30=0x00000001
       31075000	      3106	80001044	01733ab3	sltu	x21,x6,x23	  x6:0x00000000 x23:0x00000000 x21=0x00000000
       31085000	      3107	80001048	1d563b13	sltiu	x22,x12,469	 x12:0x00000000 x22=0x00000001
       31095000	      3108	8000104c	00be0633	add	x12,x28,x11	 x28:0x00000000 x11:0x00000000 x12=0x00000000
       31105000	      3109	80001050	005cd913	srli	x18,x25,0x5	 x25:0x000004a7 x18=0x00000025
       31115000	      3110	80001054	3b2c7b97	auipc	x23,0x3b2c7	 x23=0xbb2c8050
       31125000	      3111	80001058	3ee8cc93	xori	x25,x17,1006	 x17:0x00000000 x25=0x000003ee
       31135000	      3112	8000105c	00000013	addi	x0,x0,0	  x0:0x00000000
       31145000	      3113	80001060	00311583	lh	x11,3(x2)	  x2:0x80008467 x11=0x00000000 PA:0x8000846a
       31155000	      3114	80001064	0ba10083	lb	x1,186(x2)	  x2:0x80008467  x1=0x00000000 PA:0x80008521
       31165000	      3115	80001068	01c53db3	sltu	x27,x10,x28	 x10:0x00000000 x28:0x00000000 x27=0x00000000
       31175000	      3116	8000106c	01955793	srli	x15,x10,0x19	 x10:0x00000000 x15=0x00000000
       31185000	      3117	80001070	07110703	lb	x14,113(x2)	  x2:0x80008467 x14=0x00000000 PA:0x800084d8
       31195000	      3118	80001074	02010003	lb	x0,32(x2)	  x2:0x80008467 PA:0x80008487
       31205000	      3119	80001078	01cb8fb3	add	x31,x23,x28	 x23:0xbb2c8050 x28:0x00000000 x31=0xbb2c8050
       31215000	      3120	8000107c	409fd5b3	sra	x11,x31,x9	 x31:0xbb2c8050  x9:0x00000000 x11=0xbb2c8050
       31225000	      3121	80001080	0a715303	lhu	x6,167(x2)	  x2:0x80008467  x6=0x00000000 PA:0x8000850e
       31235000	      3122	80001084	fdd11003	lh	x0,-35(x2)	  x2:0x80008467 PA:0x80008444
       31245000	      3123	80001088	01b116a3	sh	x27,13(x2)	  x2:0x80008467 x27:0x00000000 PA:0x80008474
       31255000	      3124	8000108c	01c224b3	slt	x9,x4,x28	  x4:0x00000000 x28:0x00000000  x9=0x00000000
       31265000	      3125	80001090	0c9126a3	sw	x9,205(x2)	  x2:0x80008467  x9:0x00000000 PA:0x80008534
       31275000	      3126	80001094	feb10da3	sb	x11,-5(x2)	  x2:0x80008467 x11:0xbb2c8050 PA:0x80008462
       31285000	      3127	80001098	cc17ff93	andi	x31,x15,-831	 x15:0x00000000 x31=0x00000000
       31295000	      3128	8000109c	0cd12ea3	sw	x13,221(x2)	  x2:0x80008467 x13:0x00000000 PA:0x80008544
       31305000	      3129	800010a0	413156b3	sra	x13,x2,x19	  x2:0x80008467 x19:0x000004a7 x13=0xff000108
       31315000	      3130	800010a4	00fb1e13	slli	x28,x22,0xf	 x22:0x00000001 x28=0x00008000
       31325000	      3131	800010a8	04210483	lb	x9,66(x2)	  x2:0x80008467  x9=0x00000000 PA:0x800084a9
       31335000	      3132	800010ac	01107f33	and	x30,x0,x17	  x0:0x00000000 x17:0x00000000 x30=0x00000000
       31345000	      3133	800010b0	01cfd013	srli	x0,x31,0x1c	 x31:0x00000000
       31355000	      3134	800010b4	017139b3	sltu	x19,x2,x23	  x2:0x80008467 x23:0xbb2c8050 x19=0x00000001
       31365000	      3135	800010b8	02814483	lbu	x9,40(x2)	  x2:0x80008467  x9=0x00000000 PA:0x8000848f
       31375000	      3136	800010bc	9fee3993	sltiu	x19,x28,-1538	 x28:0x00008000 x19=0x00000001
       31385000	      3137	800010c0	0e8117a3	sh	x8,239(x2)	  x2:0x80008467  x8:0x80009f48 PA:0x80008556
       31395000	      3138	800010c4	02f14593	xori	x11,x2,47	  x2:0x80008467 x11=0x80008448
       31405000	      3139	800010c8	30c33913	sltiu	x18,x6,780	  x6:0x00000000 x18=0x00000001
       31415000	      3140	800010cc	009d1ab3	sll	x21,x26,x9	 x26:0x00000000  x9:0x00000000 x21=0x00000000
       31425000	      3141	800010d0	0110d633	srl	x12,x1,x17	  x1:0x00000000 x17:0x00000000 x12=0x00000000
       31435000	      3142	800010d4	01a2ec33	or	x24,x5,x26	  x5:0x00000000 x26:0x00000000 x24=0x00000000
       31445000	      3143	800010d8	01146033	or	x0,x8,x17	  x8:0x80009f48 x17:0x00000000
       31455000	      3144	800010dc	00000013	addi	x0,x0,0	  x0:0x00000000
       31465000	      3145	800010e0	01fc8463	beq	x25,x31,800010e8	 x25:0x000003ee x31:0x00000000
       31475000	      3146	800010e4	02e97c63	bgeu	x18,x14,8000111c	 x18:0x00000001 x14:0x00000000
       31485000	      3147	00000000	00000013	addi	x0,x0,0	  x0:0x00000000
       31495000	      3148	80001118	00000013	addi	x0,x0,0	  x0:0x00000000
       31505000	      3149	8000111c	02b28e63	beq	x5,x11,80001158	  x5:0x00000000 x11:0x80008448
       31515000	      3150	80001120	41a25db3	sra	x27,x4,x26	  x4:0x00000000 x26:0x00000000 x27=0x00000000
       31525000	      3151	80001124	19fe8d93	addi	x27,x29,415	 x29:0x00000000 x27=0x0000019f
       31535000	      3152	80001128	41c8a913	slti	x18,x17,1052	 x17:0x00000000 x18=0x00000001
       31545000	      3153	8000112c	1f060a93	addi	x21,x12,496	 x12:0x00000000 x21=0x000001f0
       31555000	      3154	80001130	015e90b3	sll	x1,x29,x21	 x29:0x00000000 x21:0x000001f0  x1=0x00000000
       31565000	      3155	80001134	1bebfc93	andi	x25,x23,446	 x23:0xbb2c8050 x25=0x00000010
       31575000	      3156	80001138	01ad9d13	slli	x26,x27,0x1a	 x27:0x0000019f x26=0x7c000000
       31585000	      3157	8000113c	03defa63	bgeu	x29,x29,80001170	 x29:0x00000000 x29:0x00000000
       31595000	      3158	00000000	00000013	addi	x0,x0,0	  x0:0x00000000
       31605000	      3159	8000116c	00000013	addi	x0,x0,0	  x0:0x00000000
       31615000	      3160	80001170	01afe593	ori	x11,x31,26	 x31:0x00000000 x11=0x0000001a
       31625000	      3161	80001174	01d6ebb3	or	x23,x13,x29	 x13:0xff000108 x29:0x00000000 x23=0xff000108
       31635000	      3162	80001178	01d27463	bgeu	x4,x29,80001180	  x4:0x00000000 x29:0x00000000
       31645000	      3163	00000000	00000013	addi	x0,x0,0	  x0:0x00000000
       31655000	      3164	8000117c	00000013	addi	x0,x0,0	  x0:0x00000000
       31665000	      3165	80001180	018dc733	xor	x14,x27,x24	 x27:0x0000019f x24:0x00000000 x14=0x0000019f
       31675000	      3166	80001184	03fd1663	bne	x26,x31,800011b0	 x26:0x7c000000 x31:0x00000000
       31685000	      3167	00000000	00000013	addi	x0,x0,0	  x0:0x00000000
       31695000	      3168	800011ac	00000013	addi	x0,x0,0	  x0:0x00000000
       31705000	      3169	800011b0	03370463	beq	x14,x19,800011d8	 x14:0x0000019f x19:0x00000001
       31715000	      3170	800011b4	26404693	xori	x13,x0,612	  x0:0x00000000 x13=0x00000264
       31725000	      3171	800011b8	0507e663	bltu	x15,x16,80001204	 x15:0x00000000 x16:0x00000000
       31735000	      3172	800011bc	00d22833	slt	x16,x4,x13	  x4:0x00000000 x13:0x00000264 x16=0x00000001
       31745000	      3173	800011c0	01db9193	slli	x3,x23,0x1d	 x23:0xff000108  x3=0x00000000
       31755000	      3174	800011c4	605f4517	auipc	x10,0x605f4	 x10=0xe05f51c0
       31765000	      3175	800011c8	40ecad13	slti	x26,x25,1038	 x25:0x00000010 x26=0x00000001
       31775000	      3176	800011cc	400c5633	sra	x12,x24,x0	 x24:0x00000000  x0:0x00000000 x12=0x00000000
       31785000	      3177	800011d0	00042733	slt	x14,x8,x0	  x8:0x80009f48  x0:0x00000000 x14=0x00000001
       31795000	      3178	800011d4	018a9693	slli	x13,x21,0x18	 x21:0x000001f0 x13=0xf0000000
       31805000	      3179	800011d8	00000013	addi	x0,x0,0	  x0:0x00000000
       31815000	      3180	800011dc	00000013	addi	x0,x0,0	  x0:0x00000000
       31825000	      3181	800011e0	04fd0463	beq	x26,x15,80001228	 x26:0x00000001 x15:0x00000000
       31835000	      3182	800011e4	fe408f13	addi	x30,x1,-28	  x1:0x00000000 x30=0xffffffe4
       31845000	      3183	800011e8	005f4c63	blt	x30,x5,80001200	 x30:0xffffffe4  x5:0x00000000
       31855000	      3184	00000000	00000013	addi	x0,x0,0	  x0:0x00000000
       31865000	      3185	800011fc	00000013	addi	x0,x0,0	  x0:0x00000000
       31875000	      3186	80001200	2899fb93	andi	x23,x19,649	 x19:0x00000001 x23=0x00000001
       31885000	      3187	80001204	03d79463	bne	x15,x29,8000122c	 x15:0x00000000 x29:0x00000000
       31895000	      3188	80001208	01b43db3	sltu	x27,x8,x27	  x8:0x80009f48 x27:0x0000019f x27=0x00000000
       31905000	      3189	8000120c	40c35533	sra	x10,x6,x12	  x6:0x00000000 x12:0x00000000 x10=0x00000000
       31915000	      3190	80001210	00000013	addi	x0,x0,0	  x0:0x00000000
       31925000	      3191	80001214	01d3dc63	bge	x7,x29,8000122c	  x7:0x80009fc4 x29:0x00000000
       31935000	      3192	80001218	00b11f33	sll	x30,x2,x11	  x2:0x80008467 x11:0x0000001a x30=0x9c000000
       31945000	      3193	8000121c	45071917	auipc	x18,0x45071	 x18=0xc5072218
       31955000	      3194	80001220	598fadb7	lui	x27,0x598fa	 x27=0x598fa000
       31965000	      3195	80001224	06e73c93	sltiu	x25,x14,110	 x14:0x00000001 x25=0x00000001
       31975000	      3196	80001228	414ddd93	srai	x27,x27,0x14	 x27:0x598fa000 x27=0x00000598
       31985000	      3197	8000122c	00c12ab3	slt	x21,x2,x12	  x2:0x80008467 x12:0x00000000 x21=0x00000001
       31995000	      3198	80001230	0f17ac13	slti	x24,x15,241	 x15:0x00000000 x24=0x00000001
       32005000	      3199	80001234	184ee793	ori	x15,x29,388	 x29:0x00000000 x15=0x00000184
       32015000	      3200	80001238	3d929197	auipc	x3,0x3d929	  x3=0xbd92a234
       32025000	      3201	8000123c	054d8663	beq	x27,x20,80001288	 x27:0x00000598 x20:0xa15e4cb0
       32035000	      3202	80001240	020d5863	bge	x26,x0,80001270	 x26:0x00000001  x0:0x00000000
       32045000	      3203	00000000	00000013	addi	x0,x0,0	  x0:0x00000000
       32055000	      3204	8000126c	00000013	addi	x0,x0,0	  x0:0x00000000
       32065000	      3205	80001270	6302cc37	lui	x24,0x6302c	 x24=0x6302c000
       32075000	      3206	80001274	012ec2b3	xor	x5,x29,x18	 x29:0x00000000 x18:0xc5072218  x5=0xc5072218
       32085000	      3207	80001278	01f67663	bgeu	x12,x31,80001284	 x12:0x00000000 x31:0x00000000
       32095000	      3208	00000000	00000013	addi	x0,x0,0	  x0:0x00000000
       32105000	      3209	80001280	00000013	addi	x0,x0,0	  x0:0x00000000
       32115000	      3210	80001284	00e42333	slt	x6,x8,x14	  x8:0x80009f48 x14:0x00000001  x6=0x00000001
       32125000	      3211	80001288	02d09c63	bne	x1,x13,800012c0	  x1:0x00000000 x13:0xf0000000
       32135000	      3212	00000000	00000013	addi	x0,x0,0	  x0:0x00000000
       32145000	      3213	800012bc	00000013	addi	x0,x0,0	  x0:0x00000000
       32155000	      3214	800012c0	411e02b3	sub	x5,x28,x17	 x28:0x00008000 x17:0x00000000  x5=0x00008000
       32165000	      3215	800012c4	00000013	addi	x0,x0,0	  x0:0x00000000
       32175000	      3216	800012c8	004ae8b3	or	x17,x21,x4	 x21:0x00000001  x4:0x00000000 x17=0x00000001
       32185000	      3217	800012cc	01b19013	slli	x0,x3,0x1b	  x3:0xbd92a234
       32195000	      3218	800012d0	05bdd863	bge	x27,x27,80001320	 x27:0x00000598 x27:0x00000598
       32205000	      3219	00000000	00000013	addi	x0,x0,0	  x0:0x00000000
       32215000	      3220	8000131c	00000013	addi	x0,x0,0	  x0:0x00000000
       32225000	      3221	80001320	0288e463	bltu	x17,x8,80001348	 x17:0x00000001  x8:0x80009f48
       32235000	      3222	00000000	00000013	addi	x0,x0,0	  x0:0x00000000
       32245000	      3223	80001344	00000013	addi	x0,x0,0	  x0:0x00000000
       32255000	      3224	80001348	00afb8b3	sltu	x17,x31,x10	 x31:0x00000000 x10:0x00000000 x17=0x00000000
       32265000	      3225	8000134c	040c1463	bne	x24,x0,80001394	 x24:0x6302c000  x0:0x00000000
       32275000	      3226	00000000	00000013	addi	x0,x0,0	  x0:0x00000000
       32285000	      3227	80001390	00000013	addi	x0,x0,0	  x0:0x00000000
       32295000	      3228	80001394	15a19e17	auipc	x28,0x15a19	 x28=0x95a1a390
       32305000	      3229	80001398	405edf93	srai	x31,x29,0x5	 x29:0x00000000 x31=0x00000000
       32315000	      3230	8000139c	0115edb3	or	x27,x11,x17	 x11:0x0000001a x17:0x00000000 x27=0x0000001a
       32325000	      3231	800013a0	01b04db3	xor	x27,x0,x27	  x0:0x00000000 x27:0x0000001a x27=0x0000001a
       32335000	      3232	800013a4	011cf8b3	and	x17,x25,x17	 x25:0x00000001 x17:0x00000000 x17=0x00000000
       32345000	      3233	800013a8	01477e33	and	x28,x14,x20	 x14:0x00000001 x20:0xa15e4cb0 x28=0x00000000
       32355000	      3234	800013ac	01967c33	and	x24,x12,x25	 x12:0x00000000 x25:0x00000001 x24=0x00000000
       32365000	      3235	800013b0	11aaa613	slti	x12,x21,282	 x21:0x00000001 x12=0x00000001
       32375000	      3236	800013b4	603ea693	slti	x13,x29,1539	 x29:0x00000000 x13=0x00000001
       32385000	      3237	800013b8	00c91b13	slli	x22,x18,0xc	 x18:0xc5072218 x22=0x72218000
       32395000	      3238	800013bc	0192b933	sltu	x18,x5,x25	  x5:0x00008000 x25:0x00000001 x18=0x00000000
       32405000	      3239	800013c0	5805cb13	xori	x22,x11,1408	 x11:0x0000001a x22=0x0000059a
       32415000	      3240	800013c4	5f4f7913	andi	x18,x30,1524	 x30:0x9c000000 x18=0x00000000
       32425000	      3241	800013c8	01189db3	sll	x27,x17,x17	 x17:0x00000000 x17:0x00000000 x27=0x00000000
       32435000	      3242	800013cc	d51b4bb7	lui	x23,0xd51b4	 x23=0xd51b4000
       32445000	      3243	800013d0	012487b3	add	x15,x9,x18	  x9:0x00000000 x18:0x00000000 x15=0x00000000
       32455000	      3244	800013d4	01c065b3	or	x11,x0,x28	  x0:0x00000000 x28:0x00000000 x11=0x00000000
       32465000	      3245	800013d8	4144de13	srai	x28,x9,0x14	  x9:0x00000000 x28=0x00000000
       32475000	      3246	800013dc	019b9a93	slli	x21,x23,0x19	 x23:0xd51b4000 x21=0x00000000
       32485000	      3247	800013e0	01c434b3	sltu	x9,x8,x28	  x8:0x80009f48 x28:0x00000000  x9=0x00000000
       32495000	      3248	800013e4	01cac263	blt	x21,x28,800013e8	 x21:0x00000000 x28:0x00000000
       32505000	      3249	800013e8	15442713	slti	x14,x8,340	  x8:0x80009f48 x14=0x00000001
       32515000	      3250	800013ec	41f005b3	sub	x11,x0,x31	  x0:0x00000000 x31:0x00000000 x11=0x00000000
       32525000	      3251	800013f0	010b6263	bltu	x22,x16,800013f4	 x22:0x0000059a x16:0x00000001
       32535000	      3252	800013f4	015a5463	bge	x20,x21,800013fc	 x20:0xa15e4cb0 x21:0x00000000
       32545000	      3253	800013f8	01c35863	bge	x6,x28,80001408	  x6:0x00000001 x28:0x00000000
       32555000	      3254	00000000	00000013	addi	x0,x0,0	  x0:0x00000000
       32565000	      3255	80001404	00000013	addi	x0,x0,0	  x0:0x00000000
       32575000	      3256	80001408	0145f933	and	x18,x11,x20	 x11:0x00000000 x20:0xa15e4cb0 x18=0x00000000
       32585000	      3257	8000140c	82600337	lui	x6,0x82600	  x6=0x82600000
       32595000	      3258	80001410	c5700493	addi	x9,x0,-937	  x0:0x00000000  x9=0xfffffc57
       32605000	      3259	80001414	01a40a63	beq	x8,x26,80001428	  x8:0x80009f48 x26:0x00000001
       32615000	      3260	80001418	02de8463	beq	x29,x13,80001440	 x29:0x00000000 x13:0x00000001
       32625000	      3261	8000141c	003cf733	and	x14,x25,x3	 x25:0x00000001  x3:0xbd92a234 x14=0x00000000
       32635000	      3262	80001420	8f518013	addi	x0,x3,-1803	  x3:0xbd92a234
       32645000	      3263	80001424	40e80e33	sub	x28,x16,x14	 x16:0x00000001 x14:0x00000000 x28=0x00000001
       32655000	      3264	80001428	20a1ff93	andi	x31,x3,522	  x3:0xbd92a234 x31=0x00000200
       32665000	      3265	8000142c	014dadb3	slt	x27,x27,x20	 x27:0x00000000 x20:0xa15e4cb0 x27=0x00000000
       32675000	      3266	80001430	4114d6b3	sra	x13,x9,x17	  x9:0xfffffc57 x17:0x00000000 x13=0xfffffc57
       32685000	      3267	80001434	01d904b3	add	x9,x18,x29	 x18:0x00000000 x29:0x00000000  x9=0x00000000
       32695000	      3268	80001438	004e9463	bne	x29,x4,80001440	 x29:0x00000000  x4:0x00000000
       32705000	      3269	8000143c	3be98b93	addi	x23,x19,958	 x19:0x00000001 x23=0x000003bf
       32715000	      3270	80001440	019dc5b3	xor	x11,x27,x25	 x27:0x00000000 x25:0x00000001 x11=0x00000001
       32725000	      3271	80001444	00000013	addi	x0,x0,0	  x0:0x00000000
       32735000	      3272	80001448	0044f5b3	and	x11,x9,x4	  x9:0x00000000  x4:0x00000000 x11=0x00000000
       32745000	      3273	8000144c	009c7cb3	and	x25,x24,x9	 x24:0x00000000  x9:0x00000000 x25=0x00000000
       32755000	      3274	80001450	03feda63	bge	x29,x31,80001484	 x29:0x00000000 x31:0x00000200
       32765000	      3275	80001454	022a0e63	beq	x20,x2,80001490	 x20:0xa15e4cb0  x2:0x80008467
       32775000	      3276	80001458	00d7bcb3	sltu	x25,x15,x13	 x15:0x00000000 x13:0xfffffc57 x25=0x00000001
       32785000	      3277	8000145c	004bde93	srli	x29,x23,0x4	 x23:0x000003bf x29=0x0000003b
       32795000	      3278	80001460	013e9933	sll	x18,x29,x19	 x29:0x0000003b x19:0x00000001 x18=0x00000076
       32805000	      3279	80001464	08736793	ori	x15,x6,135	  x6:0x82600000 x15=0x82600087
       32815000	      3280	80001468	a882e7b7	lui	x15,0xa882e	 x15=0xa882e000
       32825000	      3281	8000146c	00592733	slt	x14,x18,x5	 x18:0x00000076  x5:0x00008000 x14=0x00000001
       32835000	      3282	80001470	00d17c63	bgeu	x2,x13,80001488	  x2:0x80008467 x13:0xfffffc57
       32845000	      3283	80001474	4167d193	srai	x3,x15,0x16	 x15:0xa882e000  x3=0xfffffea2
       32855000	      3284	80001478	95364693	xori	x13,x12,-1709	 x12:0x00000001 x13=0xfffff952
       32865000	      3285	8000147c	00288c33	add	x24,x17,x2	 x17:0x00000000  x2:0x80008467 x24=0x80008467
       32875000	      3286	80001480	01191113	slli	x2,x18,0x11	 x18:0x00000076  x2=0x00ec0000
       32885000	      3287	80001484	7009fd93	andi	x27,x19,1792	 x19:0x00000001 x27=0x00000000
       32895000	      3288	80001488	9f84a597	auipc	x11,0x9f84a	 x11=0x1f84b484
       32905000	      3289	8000148c	f74c8f17	auipc	x30,0xf74c8	 x30=0x774c9488
       32915000	      3290	80001490	03c29663	bne	x5,x28,800014bc	  x5:0x00008000 x28:0x00000001
       32925000	      3291	00000000	00000013	addi	x0,x0,0	  x0:0x00000000
       32935000	      3292	800014b8	00000013	addi	x0,x0,0	  x0:0x00000000
       32945000	      3293	800014bc	df0125b7	lui	x11,0xdf012	 x11=0xdf012000
       32955000	      3294	800014c0	0194a2b3	slt	x5,x9,x25	  x9:0x00000000 x25:0x00000001  x5=0x00000001
       32965000	      3295	800014c4	4057df93	srai	x31,x15,0x5	 x15:0xa882e000 x31=0xfd441700
       32975000	      3296	800014c8	019b6b33	or	x22,x22,x25	 x22:0x0000059a x25:0x00000001 x22=0x0000059b
       32985000	      3297	800014cc	00d30863	beq	x6,x13,800014dc	  x6:0x82600000 x13:0xfffff952
       32995000	      3298	800014d0	052c9663	bne	x25,x18,8000151c	 x25:0x00000001 x18:0x00000076
       33005000	      3299	00000000	00000013	addi	x0,x0,0	  x0:0x00000000
       33015000	      3300	80001518	00000013	addi	x0,x0,0	  x0:0x00000000
       33025000	      3301	8000151c	03b04e63	blt	x0,x27,80001558	  x0:0x00000000 x27:0x00000000
       33035000	      3302	80001520	7668a193	slti	x3,x17,1894	 x17:0x00000000  x3=0x00000001
       33045000	      3303	80001524	402455b3	sra	x11,x8,x2	  x8:0x80009f48  x2:0x00ec0000 x11=0x80009f48
       33055000	      3304	80001528	d12bf713	andi	x14,x23,-750	 x23:0x000003bf x14=0x00000112
       33065000	      3305	8000152c	40d08633	sub	x12,x1,x13	  x1:0x00000000 x13:0xfffff952 x12=0x000006ae
       33075000	      3306	80001530	01b4f463	bgeu	x9,x27,80001538	  x9:0x00000000 x27:0x00000000
       33085000	      3307	00000000	00000013	addi	x0,x0,0	  x0:0x00000000
       33095000	      3308	80001534	00000013	addi	x0,x0,0	  x0:0x00000000
       33105000	      3309	80001538	af7a8993	addi	x19,x21,-1289	 x21:0x00000000 x19=0xfffffaf7
       33115000	      3310	8000153c	413dd633	sra	x12,x27,x19	 x27:0x00000000 x19:0xfffffaf7 x12=0x00000000
       33125000	      3311	80001540	b2e59617	auipc	x12,0xb2e59	 x12=0x32e5a53c
       33135000	      3312	80001544	026e5863	bge	x28,x6,80001574	 x28:0x00000001  x6:0x82600000
       33145000	      3313	00000000	00000013	addi	x0,x0,0	  x0:0x00000000
       33155000	      3314	80001570	00000013	addi	x0,x0,0	  x0:0x00000000
       33165000	      3315	80001574	01e661b3	or	x3,x12,x30	 x12:0x32e5a53c x30:0x774c9488  x3=0x77edb5bc
       33175000	      3316	80001578	004eb233	sltu	x4,x29,x4	 x29:0x0000003b  x4:0x00000000  x4=0x00000000
       33185000	      3317	8000157c	66b68f97	auipc	x31,0x66b68	 x31=0xe6b69578
       33195000	      3318	80001580	05df7063	bgeu	x30,x29,800015c0	 x30:0x774c9488 x29:0x0000003b
       33205000	      3319	00000000	00000013	addi	x0,x0,0	  x0:0x00000000
       33215000	      3320	800015bc	00000013	addi	x0,x0,0	  x0:0x00000000
       33225000	      3321	800015c0	96fe7613	andi	x12,x28,-1681	 x28:0x00000001 x12=0x00000001
       33235000	      3322	800015c4	dfa62193	slti	x3,x12,-518	 x12:0x00000001  x3=0x00000000
       33245000	      3323	800015c8	0194e7b3	or	x15,x9,x25	  x9:0x00000000 x25:0x00000001 x15=0x00000001
       33255000	      3324	800015cc	019a9e13	slli	x28,x21,0x19	 x21:0x00000000 x28=0x00000000
       33265000	      3325	800015d0	00be8cb3	add	x25,x29,x11	 x29:0x0000003b x11:0x80009f48 x25=0x80009f83
       33275000	      3326	800015d4	01b924b3	slt	x9,x18,x27	 x18:0x00000076 x27:0x00000000  x9=0x00000000
       33285000	      3327	800015d8	78c9a113	slti	x2,x19,1932	 x19:0xfffffaf7  x2=0x00000001
       33295000	      3328	800015dc	01ff5c33	srl	x24,x30,x31	 x30:0x774c9488 x31:0xe6b69578 x24=0x00000077
       33305000	      3329	800015e0	415c5db3	sra	x27,x24,x21	 x24:0x00000077 x21:0x00000000 x27=0x00000077
       33315000	      3330	800015e4	017d1793	slli	x15,x26,0x17	 x26:0x00000001 x15=0x00800000
       33325000	      3331	800015e8	00d77633	and	x12,x14,x13	 x14:0x00000112 x13:0xfffff952 x12=0x00000112
       33335000	      3332	800015ec	01af8933	add	x18,x31,x26	 x31:0xe6b69578 x26:0x00000001 x18=0xe6b69579
       33345000	      3333	800015f0	00014c33	xor	x24,x2,x0	  x2:0x00000001  x0:0x00000000 x24=0x00000001
       33355000	      3334	800015f4	00bb9f13	slli	x30,x23,0xb	 x23:0x000003bf x30=0x001df800
       33365000	      3335	800015f8	003a1f13	slli	x30,x20,0x3	 x20:0xa15e4cb0 x30=0x0af26580
       33375000	      3336	800015fc	5920c013	xori	x0,x1,1426	  x1:0x00000000
       33385000	      3337	80001600	015f2633	slt	x12,x30,x21	 x30:0x0af26580 x21:0x00000000 x12=0x00000000
       33395000	      3338	80001604	005b0db3	add	x27,x22,x5	 x22:0x0000059b  x5:0x00000001 x27=0x0000059c
       33405000	      3339	80001608	0539f263	bgeu	x19,x19,8000164c	 x19:0xfffffaf7 x19:0xfffffaf7
       33415000	      3340	00000000	00000013	addi	x0,x0,0	  x0:0x00000000
       33425000	      3341	80001648	00000013	addi	x0,x0,0	  x0:0x00000000
       33435000	      3342	8000164c	ae2d7513	andi	x10,x26,-1310	 x26:0x00000001 x10=0x00000000
       33445000	      3343	80001650	00635d13	srli	x26,x6,0x6	  x6:0x82600000 x26=0x02098000
       33455000	      3344	80001654	04c21663	bne	x4,x12,800016a0	  x4:0x00000000 x12:0x00000000
       33465000	      3345	80001658	60757217	auipc	x4,0x60757	  x4=0xe0758654
       33475000	      3346	8000165c	009e9933	sll	x18,x29,x9	 x29:0x0000003b  x9:0x00000000 x18=0x0000003b
       33485000	      3347	80001660	40db8933	sub	x18,x23,x13	 x23:0x000003bf x13:0xfffff952 x18=0x00000a6d
       33495000	      3348	80001664	40e95ab3	sra	x21,x18,x14	 x18:0x00000a6d x14:0x00000112 x21=0x00000000
       33505000	      3349	80001668	000ecb33	xor	x22,x29,x0	 x29:0x0000003b  x0:0x00000000 x22=0x0000003b
       33515000	      3350	8000166c	0210e463	bltu	x1,x1,80001694	  x1:0x00000000  x1:0x00000000
       33525000	      3351	80001670	c6246013	ori	x0,x8,-926	  x8:0x80009f48
       33535000	      3352	80001674	c5bc4037	lui	x0,0xc5bc4	
       33545000	      3353	80001678	0018beb3	sltu	x29,x17,x1	 x17:0x00000000  x1:0x00000000 x29=0x00000000
       33555000	      3354	8000167c	e2ecc493	xori	x9,x25,-466	 x25:0x80009f83  x9=0x7fff61ad
       33565000	      3355	80001680	044f6463	bltu	x30,x4,800016c8	 x30:0x0af26580  x4:0xe0758654
       33575000	      3356	00000000	00000013	addi	x0,x0,0	  x0:0x00000000
       33585000	      3357	800016c4	00000013	addi	x0,x0,0	  x0:0x00000000
       33595000	      3358	800016c8	02c49663	bne	x9,x12,800016f4	  x9:0x7fff61ad x12:0x00000000
       33605000	      3359	00000000	00000013	addi	x0,x0,0	  x0:0x00000000
       33615000	      3360	800016f0	00000013	addi	x0,x0,0	  x0:0x00000000
       33625000	      3361	800016f4	01451663	bne	x10,x20,80001700	 x10:0x00000000 x20:0xa15e4cb0
       33635000	      3362	00000000	00000013	addi	x0,x0,0	  x0:0x00000000
       33645000	      3363	800016fc	00000013	addi	x0,x0,0	  x0:0x00000000
       33655000	      3364	80001700	40c15e93	srai	x29,x2,0xc	  x2:0x00000001 x29=0x00000000
       33665000	      3365	80001704	40868533	sub	x10,x13,x8	 x13:0xfffff952  x8:0x80009f48 x10=0x7fff5a0a
       33675000	      3366	80001708	01368933	add	x18,x13,x19	 x13:0xfffff952 x19:0xfffffaf7 x18=0xfffff449
       33685000	      3367	8000170c	413f5993	srai	x19,x30,0x13	 x30:0x0af26580 x19=0x0000015e
       33695000	      3368	80001710	014c6133	or	x2,x24,x20	 x24:0x00000001 x20:0xa15e4cb0  x2=0xa15e4cb1
       33705000	      3369	80001714	40d0d633	sra	x12,x1,x13	  x1:0x00000000 x13:0xfffff952 x12=0x00000000
       33715000	      3370	80001718	01e93fb3	sltu	x31,x18,x30	 x18:0xfffff449 x30:0x0af26580 x31=0x00000000
       33725000	      3371	8000171c	0079c033	xor	x0,x19,x7	 x19:0x0000015e  x7:0x80009fc4
       33735000	      3372	80001720	310af093	andi	x1,x21,784	 x21:0x00000000  x1=0x00000000
       33745000	      3373	80001724	178c4693	xori	x13,x24,376	 x24:0x00000001 x13=0x00000179
       33755000	      3374	80001728	00f75013	srli	x0,x14,0xf	 x14:0x00000112
       33765000	      3375	8000172c	0081e1b3	or	x3,x3,x8	  x3:0x00000000  x8:0x80009f48  x3=0x80009f48
       33775000	      3376	80001730	2de58b93	addi	x23,x11,734	 x11:0x80009f48 x23=0x8000a226
       33785000	      3377	80001734	003cbab3	sltu	x21,x25,x3	 x25:0x80009f83  x3:0x80009f48 x21=0x00000000
       33795000	      3378	80001738	012246b3	xor	x13,x4,x18	  x4:0xe0758654 x18:0xfffff449 x13=0x1f8a721d
       33805000	      3379	8000173c	8f7bbb37	lui	x22,0x8f7bb	 x22=0x8f7bb000
       33815000	      3380	80001740	003c3b33	sltu	x22,x24,x3	 x24:0x00000001  x3:0x80009f48 x22=0x00000001
       33825000	      3381	80001744	01460c63	beq	x12,x20,8000175c	 x12:0x00000000 x20:0xa15e4cb0
       33835000	      3382	80001748	0109b033	sltu	x0,x19,x16	 x19:0x0000015e x16:0x00000001
       33845000	      3383	8000174c	01860c63	beq	x12,x24,80001764	 x12:0x00000000 x24:0x00000001
       33855000	      3384	80001750	01f91263	bne	x18,x31,80001754	 x18:0xfffff449 x31:0x00000000
       33865000	      3385	00000000	00000013	addi	x0,x0,0	  x0:0x00000000
       33875000	      3386	80001750	00000013	addi	x0,x0,0	  x0:0x00000000
       33885000	      3387	80001754	01af5233	srl	x4,x30,x26	 x30:0x0af26580 x26:0x02098000  x4=0x0af26580
       33895000	      3388	80001758	96d77d93	andi	x27,x14,-1683	 x14:0x00000112 x27=0x00000100
       33905000	      3389	8000175c	029c5e63	bge	x24,x9,80001798	 x24:0x00000001  x9:0x7fff61ad
       33915000	      3390	80001760	05df0863	beq	x30,x29,800017b0	 x30:0x0af26580 x29:0x00000000
       33925000	      3391	80001764	007db233	sltu	x4,x27,x7	 x27:0x00000100  x7:0x80009fc4  x4=0x00000001
       33935000	      3392	80001768	407bd613	srai	x12,x23,0x7	 x23:0x8000a226 x12=0xff000144
       33945000	      3393	8000176c	0042d863	bge	x5,x4,8000177c	  x5:0x00000001  x4:0x00000001
       33955000	      3394	00000000	00000013	addi	x0,x0,0	  x0:0x00000000
       33965000	      3395	80001778	00000013	addi	x0,x0,0	  x0:0x00000000
       33975000	      3396	8000177c	0025c463	blt	x11,x2,80001784	 x11:0x80009f48  x2:0xa15e4cb1
       33985000	      3397	00000000	00000013	addi	x0,x0,0	  x0:0x00000000
       33995000	      3398	80001780	00000013	addi	x0,x0,0	  x0:0x00000000
       34005000	      3399	80001784	03d0c463	blt	x1,x29,800017ac	  x1:0x00000000 x29:0x00000000
       34015000	      3400	80001788	00000013	addi	x0,x0,0	  x0:0x00000000
       34025000	      3401	8000178c	30dd2717	auipc	x14,0x30dd2	 x14=0xb0dd3788
       34035000	      3402	80001790	408b8633	sub	x12,x23,x8	 x23:0x8000a226  x8:0x80009f48 x12=0x000002de
       34045000	      3403	80001794	04a3f663	bgeu	x7,x10,800017e0	  x7:0x80009fc4 x10:0x7fff5a0a
       34055000	      3404	00000000	00000013	addi	x0,x0,0	  x0:0x00000000
       34065000	      3405	800017dc	00000013	addi	x0,x0,0	  x0:0x00000000
       34075000	      3406	800017e0	116b3713	sltiu	x14,x22,278	 x22:0x00000001 x14=0x00000001
       34085000	      3407	800017e4	002fecb3	or	x25,x31,x2	 x31:0x00000000  x2:0xa15e4cb1 x25=0xa15e4cb1
       34095000	      3408	800017e8	016bbdb3	sltu	x27,x23,x22	 x23:0x8000a226 x22:0x00000001 x27=0x00000000
       34105000	      3409	800017ec	ea826113	ori	x2,x4,-344	  x4:0x00000001  x2=0xfffffea9
       34115000	      3410	800017f0	0296fa63	bgeu	x13,x9,80001824	 x13:0x1f8a721d  x9:0x7fff61ad
       34125000	      3411	800017f4	01129493	slli	x9,x5,0x11	  x5:0x00000001  x9=0x00020000
       34135000	      3412	800017f8	03658e63	beq	x11,x22,80001834	 x11:0x80009f48 x22:0x00000001
       34145000	      3413	800017fc	05779063	bne	x15,x23,8000183c	 x15:0x00800000 x23:0x8000a226
       34155000	      3414	00000000	00000013	addi	x0,x0,0	  x0:0x00000000
       34165000	      3415	80001838	00000013	addi	x0,x0,0	  x0:0x00000000
       34175000	      3416	8000183c	02479463	bne	x15,x4,80001864	 x15:0x00800000  x4:0x00000001
       34185000	      3417	00000000	00000013	addi	x0,x0,0	  x0:0x00000000
       34195000	      3418	80001860	00000013	addi	x0,x0,0	  x0:0x00000000
       34205000	      3419	80001864	40ded733	sra	x14,x29,x13	 x29:0x00000000 x13:0x1f8a721d x14=0x00000000
       34215000	      3420	80001868	00fd5593	srli	x11,x26,0xf	 x26:0x02098000 x11=0x00000413
       34225000	      3421	8000186c	6fb3ae93	slti	x29,x7,1787	  x7:0x80009fc4 x29=0x00000001
       34235000	      3422	80001870	e97ce693	ori	x13,x25,-361	 x25:0xa15e4cb1 x13=0xfffffeb7
       34245000	      3423	80001874	41b2d213	srai	x4,x5,0x1b	  x5:0x00000001  x4=0x00000000
       34255000	      3424	80001878	01b45d13	srli	x26,x8,0x1b	  x8:0x80009f48 x26=0x00000010
       34265000	      3425	8000187c	ba572b93	slti	x23,x14,-1115	 x14:0x00000000 x23=0x00000000
       34275000	      3426	80001880	35ab8493	addi	x9,x23,858	 x23:0x00000000  x9=0x0000035a
       34285000	      3427	80001884	0133cc63	blt	x7,x19,8000189c	  x7:0x80009fc4 x19:0x0000015e
       34295000	      3428	00000000	00000013	addi	x0,x0,0	  x0:0x00000000
       34305000	      3429	80001898	00000013	addi	x0,x0,0	  x0:0x00000000
       34315000	      3430	8000189c	037e6c63	bltu	x28,x23,800018d4	 x28:0x00000000 x23:0x00000000
       34325000	      3431	800018a0	d5eff337	lui	x6,0xd5eff	  x6=0xd5eff000
       34335000	      3432	800018a4	3a6dbb13	sltiu	x22,x27,934	 x27:0x00000000 x22=0x00000001
       34345000	      3433	800018a8	004a0db3	add	x27,x20,x4	 x20:0xa15e4cb0  x4:0x00000000 x27=0xa15e4cb0
       34355000	      3434	800018ac	40395793	srai	x15,x18,0x3	 x18:0xfffff449 x15=0xfffffe89
       34365000	      3435	800018b0	00661e13	slli	x28,x12,0x6	 x12:0x000002de x28=0x0000b780
       34375000	      3436	800018b4	41d857b3	sra	x15,x16,x29	 x16:0x00000001 x29:0x00000001 x15=0x00000000
       34385000	      3437	800018b8	94501597	auipc	x11,0x94501	 x11=0x145028b4
       34395000	      3438	800018bc	c263a2b7	lui	x5,0xc263a	  x5=0xc263a000
       34405000	      3439	800018c0	00000013	addi	x0,x0,0	  x0:0x00000000
       34415000	      3440	800018c4	50d6e593	ori	x11,x13,1293	 x13:0xfffffeb7 x11=0xffffffbf
       34425000	      3441	800018c8	b8b5a713	slti	x14,x11,-1141	 x11:0xffffffbf x14=0x00000000
       34435000	      3442	800018cc	0029c263	blt	x19,x2,800018d0	 x19:0x0000015e  x2:0xfffffea9
       34445000	      3443	800018d0	01dd5033	srl	x0,x26,x29	 x26:0x00000010 x29:0x00000001
       34455000	      3444	800018d4	40e68033	sub	x0,x13,x14	 x13:0xfffffeb7 x14:0x00000000
       34465000	      3445	800018d8	0be13897	auipc	x17,0xbe13	 x17=0x8be148d4
       34475000	      3446	800018dc	40e85993	srai	x19,x16,0xe	 x16:0x00000001 x19=0x00000000
       34485000	      3447	800018e0	41825793	srai	x15,x4,0x18	  x4:0x00000000 x15=0x00000000
       34495000	      3448	800018e4	41447e13	andi	x28,x8,1044	  x8:0x80009f48 x28=0x00000400
       34505000	      3449	800018e8	4183df93	srai	x31,x7,0x18	  x7:0x80009fc4 x31=0xffffff80
       34515000	      3450	800018ec	c8f64f93	xori	x31,x12,-881	 x12:0x000002de x31=0xfffffe51
       34525000	      3451	800018f0	00716663	bltu	x2,x7,800018fc	  x2:0xfffffea9  x7:0x80009fc4
       34535000	      3452	800018f4	01877133	and	x2,x14,x24	 x14:0x00000000 x24:0x00000001  x2=0x00000000
       34545000	      3453	800018f8	01bc6533	or	x10,x24,x27	 x24:0x00000001 x27:0xa15e4cb0 x10=0xa15e4cb1
       34555000	      3454	800018fc	00251863	bne	x10,x2,8000190c	 x10:0xa15e4cb1  x2:0x00000000
       34565000	      3455	00000000	00000013	addi	x0,x0,0	  x0:0x00000000
       34575000	      3456	80001908	00000013	addi	x0,x0,0	  x0:0x00000000
       34585000	      3457	8000190c	0081e133	or	x2,x3,x8	  x3:0x80009f48  x8:0x80009f48  x2=0x80009f48
       34595000	      3458	80001910	9af32f93	slti	x31,x6,-1617	  x6:0xd5eff000 x31=0x00000001
       34605000	      3459	80001914	01aaac33	slt	x24,x21,x26	 x21:0x00000000 x26:0x00000010 x24=0x00000001
       34615000	      3460	80001918	c4630d93	addi	x27,x6,-954	  x6:0xd5eff000 x27=0xd5efec46
       34625000	      3461	8000191c	40915893	srai	x17,x2,0x9	  x2:0x80009f48 x17=0xffc0004f
       34635000	      3462	80001920	010c5933	srl	x18,x24,x16	 x24:0x00000001 x16:0x00000001 x18=0x00000000
       34645000	      3463	80001924	fa413313	sltiu	x6,x2,-92	  x2:0x80009f48  x6=0x00000001
       34655000	      3464	80001928	0ae87063	bgeu	x16,x14,800019c8	 x16:0x00000001 x14:0x00000000
       34665000	      3465	00000000	00000013	addi	x0,x0,0	  x0:0x00000000
       34675000	      3466	800019c4	00000013	addi	x0,x0,0	  x0:0x00000000
       34685000	      3467	800019c8	05449663	bne	x9,x20,80001a14	  x9:0x0000035a x20:0xa15e4cb0
       34695000	      3468	00000000	00000013	addi	x0,x0,0	  x0:0x00000000
       34705000	      3469	80001a10	00000013	addi	x0,x0,0	  x0:0x00000000
       34715000	      3470	80001a14	00c644b3	xor	x9,x12,x12	 x12:0x000002de x12:0x000002de  x9=0x00000000
       34725000	      3471	80001a18	013d3bb3	sltu	x23,x26,x19	 x26:0x00000010 x19:0x00000000 x23=0x00000000
       34735000	      3472	80001a1c	033bce63	blt	x23,x19,80001a58	 x23:0x00000000 x19:0x00000000
       34745000	      3473	80001a20	00e47663	bgeu	x8,x14,80001a2c	  x8:0x80009f48 x14:0x00000000
       34755000	      3474	00000000	00000013	addi	x0,x0,0	  x0:0x00000000
       34765000	      3475	80001a28	00000013	addi	x0,x0,0	  x0:0x00000000
       34775000	      3476	80001a2c	4078d4b3	sra	x9,x17,x7	 x17:0xffc0004f  x7:0x80009fc4  x9=0xfffc0004
       34785000	      3477	80001a30	00b9e863	bltu	x19,x11,80001a40	 x19:0x00000000 x11:0xffffffbf
       34795000	      3478	00000000	00000013	addi	x0,x0,0	  x0:0x00000000
       34805000	      3479	80001a3c	00000013	addi	x0,x0,0	  x0:0x00000000
       34815000	      3480	80001a40	016fd9b3	srl	x19,x31,x22	 x31:0x00000001 x22:0x00000001 x19=0x00000000
       34825000	      3481	80001a44	f96eec13	ori	x24,x29,-106	 x29:0x00000001 x24=0xffffff97
       34835000	      3482	80001a48	04325663	bge	x4,x3,80001a94	  x4:0x00000000  x3:0x80009f48
       34845000	      3483	00000000	00000013	addi	x0,x0,0	  x0:0x00000000
       34855000	      3484	80001a90	00000013	addi	x0,x0,0	  x0:0x00000000
       34865000	      3485	80001a94	f3e34893	xori	x17,x6,-194	  x6:0x00000001 x17=0xffffff3f
       34875000	      3486	80001a98	00551ab3	sll	x21,x10,x5	 x10:0xa15e4cb1  x5:0xc263a000 x21=0xa15e4cb1
       34885000	      3487	80001a9c	0178cfb3	xor	x31,x17,x23	 x17:0xffffff3f x23:0x00000000 x31=0xffffff3f
       34895000	      3488	80001aa0	b648c9b7	lui	x19,0xb648c	 x19=0xb648c000
       34905000	      3489	80001aa4	417a5db3	sra	x27,x20,x23	 x20:0xa15e4cb0 x23:0x00000000 x27=0xa15e4cb0
       34915000	      3490	80001aa8	01d88ab3	add	x21,x17,x29	 x17:0xffffff3f x29:0x00000001 x21=0xffffff40
       34925000	      3491	80001aac	00696c63	bltu	x18,x6,80001ac4	 x18:0x00000000  x6:0x00000001
       34935000	      3492	00000000	00000013	addi	x0,x0,0	  x0:0x00000000
       34945000	      3493	80001ac0	00000013	addi	x0,x0,0	  x0:0x00000000
       34955000	      3494	80001ac4	0323fe63	bgeu	x7,x18,80001b00	  x7:0x80009fc4 x18:0x00000000
       34965000	      3495	00000000	00000013	addi	x0,x0,0	  x0:0x00000000
       34975000	      3496	80001afc	00000013	addi	x0,x0,0	  x0:0x00000000
       34985000	      3497	80001b00	d5792093	slti	x1,x18,-681	 x18:0x00000000  x1=0x00000000
       34995000	      3498	80001b04	0017a933	slt	x18,x15,x1	 x15:0x00000000  x1:0x00000000 x18=0x00000000
       35005000	      3499	80001b08	014694b3	sll	x9,x13,x20	 x13:0xfffffeb7 x20:0xa15e4cb0  x9=0xfeb70000
       35015000	      3500	80001b0c	a786e213	ori	x4,x13,-1416	 x13:0xfffffeb7  x4=0xfffffeff
       35025000	      3501	80001b10	109b6193	ori	x3,x22,265	 x22:0x00000001  x3=0x00000109
       35035000	      3502	80001b14	7cf55217	auipc	x4,0x7cf55	  x4=0xfcf56b10
       35045000	      3503	80001b18	01e9db13	srli	x22,x19,0x1e	 x19:0xb648c000 x22=0x00000002
       35055000	      3504	80001b1c	006b35b3	sltu	x11,x22,x6	 x22:0x00000002  x6:0x00000001 x11=0x00000000
       35065000	      3505	80001b20	00d846b3	xor	x13,x16,x13	 x16:0x00000001 x13:0xfffffeb7 x13=0xfffffeb6
       35075000	      3506	80001b24	ea864297	auipc	x5,0xea864	  x5=0x6a865b20
       35085000	      3507	80001b28	01967133	and	x2,x12,x25	 x12:0x000002de x25:0xa15e4cb1  x2=0x00000090
       35095000	      3508	80001b2c	001e9733	sll	x14,x29,x1	 x29:0x00000001  x1:0x00000000 x14=0x00000001
       35105000	      3509	80001b30	056c9463	bne	x25,x22,80001b78	 x25:0xa15e4cb1 x22:0x00000002
       35115000	      3510	00000000	00000013	addi	x0,x0,0	  x0:0x00000000
       35125000	      3511	80001b74	00000013	addi	x0,x0,0	  x0:0x00000000
       35135000	      3512	80001b78	013c1833	sll	x16,x24,x19	 x24:0xffffff97 x19:0xb648c000 x16=0xffffff97
       35145000	      3513	80001b7c	602a8013	addi	x0,x21,1538	 x21:0xffffff40
       35155000	      3514	80001b80	52722193	slti	x3,x4,1319	  x4:0xfcf56b10  x3=0x00000001
       35165000	      3515	80001b84	003aa733	slt	x14,x21,x3	 x21:0xffffff40  x3:0x00000001 x14=0x00000001
       35175000	      3516	80001b88	412d8cb3	sub	x25,x27,x18	 x27:0xa15e4cb0 x18:0x00000000 x25=0xa15e4cb0
       35185000	      3517	80001b8c	4c474893	xori	x17,x14,1220	 x14:0x00000001 x17=0x000004c5
       35195000	      3518	80001b90	02c96e63	bltu	x18,x12,80001bcc	 x18:0x00000000 x12:0x000002de
       35205000	      3519	00000000	00000013	addi	x0,x0,0	  x0:0x00000000
       35215000	      3520	80001bc8	00000013	addi	x0,x0,0	  x0:0x00000000
       35225000	      3521	80001bcc	04790263	beq	x18,x7,80001c10	 x18:0x00000000  x7:0x80009fc4
       35235000	      3522	80001bd0	009c9a63	bne	x25,x9,80001be4	 x25:0xa15e4cb0  x9:0xfeb70000
       35245000	      3523	00000000	00000013	addi	x0,x0,0	  x0:0x00000000
       35255000	      3524	80001be0	00000013	addi	x0,x0,0	  x0:0x00000000
       35265000	      3525	80001be4	0104d013	srli	x0,x9,0x10	  x9:0xfeb70000
       35275000	      3526	80001be8	60bdec13	ori	x24,x27,1547	 x27:0xa15e4cb0 x24=0xa15e4ebb
       35285000	      3527	80001bec	00000013	addi	x0,x0,0	  x0:0x00000000
       35295000	      3528	80001bf0	05ea8863	beq	x21,x30,80001c40	 x21:0xffffff40 x30:0x0af26580
       35305000	      3529	80001bf4	f46c0697	auipc	x13,0xf46c0	 x13=0x746c1bf0
       35315000	      3530	80001bf8	4e148813	addi	x16,x9,1249	  x9:0xfeb70000 x16=0xfeb704e1
       35325000	      3531	80001bfc	00c09e13	slli	x28,x1,0xc	  x1:0x00000000 x28=0x00000000
       35335000	      3532	80001c00	01b547b3	xor	x15,x10,x27	 x10:0xa15e4cb1 x27:0xa15e4cb0 x15=0x00000001
       35345000	      3533	80001c04	00e168b3	or	x17,x2,x14	  x2:0x00000090 x14:0x00000001 x17=0x00000091
       35355000	      3534	80001c08	69eb2913	slti	x18,x22,1694	 x22:0x00000002 x18=0x00000001
       35365000	      3535	80001c0c	00c41b93	slli	x23,x8,0xc	  x8:0x80009f48 x23=0x09f48000
       35375000	      3536	80001c10	0044dcb3	srl	x25,x9,x4	  x9:0xfeb70000  x4:0xfcf56b10 x25=0x0000feb7
       35385000	      3537	80001c14	017aee33	or	x28,x21,x23	 x21:0xffffff40 x23:0x09f48000 x28=0xffffff40
       35395000	      3538	80001c18	048e0063	beq	x28,x8,80001c58	 x28:0xffffff40  x8:0x80009f48
       35405000	      3539	80001c1c	01f88863	beq	x17,x31,80001c2c	 x17:0x00000091 x31:0xffffff3f
       35415000	      3540	80001c20	019f9663	bne	x31,x25,80001c2c	 x31:0xffffff3f x25:0x0000feb7
       35425000	      3541	00000000	00000013	addi	x0,x0,0	  x0:0x00000000
       35435000	      3542	80001c28	00000013	addi	x0,x0,0	  x0:0x00000000
       35445000	      3543	80001c2c	3c29ccb7	lui	x25,0x3c29c	 x25=0x3c29c000
       35455000	      3544	80001c30	008cd863	bge	x25,x8,80001c40	 x25:0x3c29c000  x8:0x80009f48
       35465000	      3545	00000000	00000013	addi	x0,x0,0	  x0:0x00000000
       35475000	      3546	80001c3c	00000013	addi	x0,x0,0	  x0:0x00000000
       35485000	      3547	80001c40	5c618913	addi	x18,x3,1478	  x3:0x00000001 x18=0x000005c7
       35495000	      3548	80001c44	0056dd93	srli	x27,x13,0x5	 x13:0x746c1bf0 x27=0x03a360df
       35505000	      3549	80001c48	788fa893	slti	x17,x31,1928	 x31:0xffffff3f x17=0x00000001
       35515000	      3550	80001c4c	6c196693	ori	x13,x18,1729	 x18:0x000005c7 x13=0x000007c7
       35525000	      3551	80001c50	2d794797	auipc	x15,0x2d794	 x15=0xad795c4c
       35535000	      3552	80001c54	bdf83237	lui	x4,0xbdf83	  x4=0xbdf83000
       35545000	      3553	80001c58	01579a93	slli	x21,x15,0x15	 x15:0xad795c4c x21=0x89800000
       35555000	      3554	80001c5c	10dcbb93	sltiu	x23,x25,269	 x25:0x3c29c000 x23=0x00000000
       35565000	      3555	80001c60	50f2f2b7	lui	x5,0x50f2f	  x5=0x50f2f000
       35575000	      3556	80001c64	026b8c63	beq	x23,x6,80001c9c	 x23:0x00000000  x6:0x00000001
       35585000	      3557	80001c68	00381633	sll	x12,x16,x3	 x16:0xfeb704e1  x3:0x00000001 x12=0xfd6e09c2
       35595000	      3558	80001c6c	008d22b3	slt	x5,x26,x8	 x26:0x00000010  x8:0x80009f48  x5=0x00000000
       35605000	      3559	80001c70	05e9c863	blt	x19,x30,80001cc0	 x19:0xb648c000 x30:0x0af26580
       35615000	      3560	00000000	00000013	addi	x0,x0,0	  x0:0x00000000
       35625000	      3561	80001cbc	00000013	addi	x0,x0,0	  x0:0x00000000
       35635000	      3562	80001cc0	41e785b3	sub	x11,x15,x30	 x15:0xad795c4c x30:0x0af26580 x11=0xa286f6cc
       35645000	      3563	80001cc4	41e6d613	srai	x12,x13,0x1e	 x13:0x000007c7 x12=0x00000000
       35655000	      3564	80001cc8	01750263	beq	x10,x23,80001ccc	 x10:0xa15e4cb1 x23:0x00000000
       35665000	      3565	80001ccc	40eedd13	srai	x26,x29,0xe	 x29:0x00000001 x26=0x00000000
       35675000	      3566	80001cd0	0082eeb3	or	x29,x5,x8	  x5:0x00000000  x8:0x80009f48 x29=0x80009f48
       35685000	      3567	80001cd4	015de5b3	or	x11,x27,x21	 x27:0x03a360df x21:0x89800000 x11=0x8ba360df
       35695000	      3568	80001cd8	e1b83f13	sltiu	x30,x16,-485	 x16:0xfeb704e1 x30=0x00000001
       35705000	      3569	80001cdc	01657fb3	and	x31,x10,x22	 x10:0xa15e4cb1 x22:0x00000002 x31=0x00000000
       35715000	      3570	80001ce0	38e2c013	xori	x0,x5,910	  x5:0x00000000
       35725000	      3571	80001ce4	0e53ae37	lui	x28,0xe53a	 x28=0x0e53a000
       35735000	      3572	80001ce8	cb856093	ori	x1,x10,-840	 x10:0xa15e4cb1  x1=0xfffffcb9
       35745000	      3573	80001cec	03e11463	bne	x2,x30,80001d14	  x2:0x00000090 x30:0x00000001
       35755000	      3574	00000000	00000013	addi	x0,x0,0	  x0:0x00000000
       35765000	      3575	80001d10	00000013	addi	x0,x0,0	  x0:0x00000000
       35775000	      3576	80001d14	004cd613	srli	x12,x25,0x4	 x25:0x3c29c000 x12=0x03c29c00
       35785000	      3577	80001d18	c6a9b597	auipc	x11,0xc6a9b	 x11=0x46a9cd14
       35795000	      3578	80001d1c	4004de93	srai	x29,x9,0x0	  x9:0xfeb70000 x29=0xfeb70000
       35805000	      3579	80001d20	2c630237	lui	x4,0x2c630	  x4=0x2c630000
       35815000	      3580	80001d24	015564b3	or	x9,x10,x21	 x10:0xa15e4cb1 x21:0x89800000  x9=0xa9de4cb1
       35825000	      3581	80001d28	0037f7b3	and	x15,x15,x3	 x15:0xad795c4c  x3:0x00000001 x15=0x00000000
       35835000	      3582	80001d2c	01ef67b3	or	x15,x30,x30	 x30:0x00000001 x30:0x00000001 x15=0x00000001
       35845000	      3583	80001d30	9e611c97	auipc	x25,0x9e611	 x25=0x1e612d2c
       35855000	      3584	80001d34	0229c663	blt	x19,x2,80001d60	 x19:0xb648c000  x2:0x00000090
       35865000	      3585	00000000	00000013	addi	x0,x0,0	  x0:0x00000000
       35875000	      3586	80001d5c	00000013	addi	x0,x0,0	  x0:0x00000000
       35885000	      3587	80001d60	03547c63	bgeu	x8,x21,80001d98	  x8:0x80009f48 x21:0x89800000
       35895000	      3588	80001d64	106c8313	addi	x6,x25,262	 x25:0x1e612d2c  x6=0x1e612e32
       35905000	      3589	80001d68	00000013	addi	x0,x0,0	  x0:0x00000000
       35915000	      3590	80001d6c	400c07b3	sub	x15,x24,x0	 x24:0xa15e4ebb  x0:0x00000000 x15=0xa15e4ebb
       35925000	      3591	80001d70	ed6cb113	sltiu	x2,x25,-298	 x25:0x1e612d2c  x2=0x00000001
       35935000	      3592	80001d74	01c1d133	srl	x2,x3,x28	  x3:0x00000001 x28:0x0e53a000  x2=0x00000001
       35945000	      3593	80001d78	dbb86f93	ori	x31,x16,-581	 x16:0xfeb704e1 x31=0xfffffdfb
       35955000	      3594	80001d7c	413f89b3	sub	x19,x31,x19	 x31:0xfffffdfb x19:0xb648c000 x19=0x49b73dfb
       35965000	      3595	80001d80	01a98093	addi	x1,x19,26	 x19:0x49b73dfb  x1=0x49b73e15
       35975000	      3596	80001d84	0113cc63	blt	x7,x17,80001d9c	  x7:0x80009fc4 x17:0x00000001
       35985000	      3597	00000000	00000013	addi	x0,x0,0	  x0:0x00000000
       35995000	      3598	80001d98	00000013	addi	x0,x0,0	  x0:0x00000000
       36005000	      3599	80001d9c	0137f833	and	x16,x15,x19	 x15:0xa15e4ebb x19:0x49b73dfb x16=0x01160cbb
       36015000	      3600	80001da0	00ae9793	slli	x15,x29,0xa	 x29:0xfeb70000 x15=0xdc000000
       36025000	      3601	80001da4	859a2913	slti	x18,x20,-1959	 x20:0xa15e4cb0 x18=0x00000001
       36035000	      3602	80001da8	01380033	add	x0,x16,x19	 x16:0x01160cbb x19:0x49b73dfb
       36045000	      3603	80001dac	beca8d93	addi	x27,x21,-1044	 x21:0x89800000 x27=0x897ffbec
       36055000	      3604	80001db0	b853a313	slti	x6,x7,-1147	  x7:0x80009fc4  x6=0x00000001
       36065000	      3605	80001db4	017a6c33	or	x24,x20,x23	 x20:0xa15e4cb0 x23:0x00000000 x24=0xa15e4cb0
       36075000	      3606	80001db8	00f0fc63	bgeu	x1,x15,80001dd0	  x1:0x49b73e15 x15:0xdc000000
       36085000	      3607	80001dbc	40bfdc33	sra	x24,x31,x11	 x31:0xfffffdfb x11:0x46a9cd14 x24=0xffffffff
       36095000	      3608	80001dc0	00d8b633	sltu	x12,x17,x13	 x17:0x00000001 x13:0x000007c7 x12=0x00000001
       36105000	      3609	80001dc4	012ac4b3	xor	x9,x21,x18	 x21:0x89800000 x18:0x00000001  x9=0x89800001
       36115000	      3610	80001dc8	d85cfd93	andi	x27,x25,-635	 x25:0x1e612d2c x27=0x1e612d04
       36125000	      3611	80001dcc	00e18663	beq	x3,x14,80001dd8	  x3:0x00000001 x14:0x00000001
       36135000	      3612	00000000	00000013	addi	x0,x0,0	  x0:0x00000000
       36145000	      3613	80001dd4	00000013	addi	x0,x0,0	  x0:0x00000000
       36155000	      3614	80001dd8	a4647837	lui	x16,0xa4647	 x16=0xa4647000
       36165000	      3615	80001ddc	00308833	add	x16,x1,x3	  x1:0x49b73e15  x3:0x00000001 x16=0x49b73e16
       36175000	      3616	80001de0	015f9313	slli	x6,x31,0x15	 x31:0xfffffdfb  x6=0xbf600000
       36185000	      3617	80001de4	006bd5b3	srl	x11,x23,x6	 x23:0x00000000  x6:0xbf600000 x11=0x00000000
       36195000	      3618	80001de8	03e2c063	blt	x5,x30,80001e08	  x5:0x00000000 x30:0x00000001
       36205000	      3619	00000000	00000013	addi	x0,x0,0	  x0:0x00000000
       36215000	      3620	80001e04	00000013	addi	x0,x0,0	  x0:0x00000000
       36225000	      3621	80001e08	110ade97	auipc	x29,0x110ad	 x29=0x910aee04
       36235000	      3622	80001e0c	0112d133	srl	x2,x5,x17	  x5:0x00000000 x17:0x00000001  x2=0x00000000
       36245000	      3623	80001e10	9253c213	xori	x4,x7,-1755	  x7:0x80009fc4  x4=0x7fff66e1
       36255000	      3624	80001e14	400354b3	sra	x9,x6,x0	  x6:0xbf600000  x0:0x00000000  x9=0xbf600000
       36265000	      3625	80001e18	007d5cb3	srl	x25,x26,x7	 x26:0x00000000  x7:0x80009fc4 x25=0x00000000
       36275000	      3626	80001e1c	00ff9513	slli	x10,x31,0xf	 x31:0xfffffdfb x10=0xfefd8000
       36285000	      3627	80001e20	0025e863	bltu	x11,x2,80001e30	 x11:0x00000000  x2:0x00000000
       36295000	      3628	80001e24	040f0663	beq	x30,x0,80001e70	 x30:0x00000001  x0:0x00000000
       36305000	      3629	80001e28	01c844b3	xor	x9,x16,x28	 x16:0x49b73e16 x28:0x0e53a000  x9=0x47e49e16
       36315000	      3630	80001e2c	0130b833	sltu	x16,x1,x19	  x1:0x49b73e15 x19:0x49b73dfb x16=0x00000000
       36325000	      3631	80001e30	02d74663	blt	x14,x13,80001e5c	 x14:0x00000001 x13:0x000007c7
       36335000	      3632	00000000	00000013	addi	x0,x0,0	  x0:0x00000000
       36345000	      3633	80001e58	00000013	addi	x0,x0,0	  x0:0x00000000
       36355000	      3634	80001e5c	00176463	bltu	x14,x1,80001e64	 x14:0x00000001  x1:0x49b73e15
       36365000	      3635	00000000	00000013	addi	x0,x0,0	  x0:0x00000000
       36375000	      3636	80001e60	00000013	addi	x0,x0,0	  x0:0x00000000
       36385000	      3637	80001e64	01944663	blt	x8,x25,80001e70	  x8:0x80009f48 x25:0x00000000
       36395000	      3638	00000000	00000013	addi	x0,x0,0	  x0:0x00000000
       36405000	      3639	80001e6c	00000013	addi	x0,x0,0	  x0:0x00000000
       36415000	      3640	80001e70	016204b3	add	x9,x4,x22	  x4:0x7fff66e1 x22:0x00000002  x9=0x7fff66e3
       36425000	      3641	80001e74	00593713	sltiu	x14,x18,5	 x18:0x00000001 x14=0x00000001
       36435000	      3642	80001e78	03336713	ori	x14,x6,51	  x6:0xbf600000 x14=0xbf600033
       36445000	      3643	80001e7c	418a8933	sub	x18,x21,x24	 x21:0x89800000 x24:0xffffffff x18=0x89800001
       36455000	      3644	80001e80	05975463	bge	x14,x25,80001ec8	 x14:0xbf600033 x25:0x00000000
       36465000	      3645	80001e84	00000013	addi	x0,x0,0	  x0:0x00000000
       36475000	      3646	80001e88	01b4d333	srl	x6,x9,x27	  x9:0x7fff66e3 x27:0x1e612d04  x6=0x07fff66e
       36485000	      3647	80001e8c	41f3dab3	sra	x21,x7,x31	  x7:0x80009fc4 x31:0xfffffdfb x21=0xfffffff0
       36495000	      3648	80001e90	01f55f93	srli	x31,x10,0x1f	 x10:0xfefd8000 x31=0x00000001
       36505000	      3649	80001e94	02cc8e63	beq	x25,x12,80001ed0	 x25:0x00000000 x12:0x00000001
       36515000	      3650	80001e98	005f3bb3	sltu	x23,x30,x5	 x30:0x00000001  x5:0x00000000 x23=0x00000000
       36525000	      3651	80001e9c	00c8c833	xor	x16,x17,x12	 x17:0x00000001 x12:0x00000001 x16=0x00000000
       36535000	      3652	80001ea0	01b748b3	xor	x17,x14,x27	 x14:0xbf600033 x27:0x1e612d04 x17=0xa1012d37
       36545000	      3653	80001ea4	003a2d33	slt	x26,x20,x3	 x20:0xa15e4cb0  x3:0x00000001 x26=0x00000001
       36555000	      3654	80001ea8	0145f533	and	x10,x11,x20	 x11:0x00000000 x20:0xa15e4cb0 x10=0x00000000
       36565000	      3655	80001eac	b4b77793	andi	x15,x14,-1205	 x14:0xbf600033 x15=0xbf600003
       36575000	      3656	80001eb0	7dcb4693	xori	x13,x22,2012	 x22:0x00000002 x13=0x000007de
       36585000	      3657	80001eb4	40088633	sub	x12,x17,x0	 x17:0xa1012d37  x0:0x00000000 x12=0xa1012d37
       36595000	      3658	80001eb8	c4f03e93	sltiu	x29,x0,-945	  x0:0x00000000 x29=0x00000001
       36605000	      3659	80001ebc	02604e63	blt	x0,x6,80001ef8	  x0:0x00000000  x6:0x07fff66e
       36615000	      3660	00000000	00000013	addi	x0,x0,0	  x0:0x00000000
       36625000	      3661	80001ef4	00000013	addi	x0,x0,0	  x0:0x00000000
       36635000	      3662	80001ef8	41ea5c93	srai	x25,x20,0x1e	 x20:0xa15e4cb0 x25=0xfffffffe
       36645000	      3663	80001efc	66bd5fb7	lui	x31,0x66bd5	 x31=0x66bd5000
       36655000	      3664	80001f00	04c1c863	blt	x3,x12,80001f50	  x3:0x00000001 x12:0xa1012d37
       36665000	      3665	80001f04	05815263	bge	x2,x24,80001f48	  x2:0x00000000 x24:0xffffffff
       36675000	      3666	00000000	00000013	addi	x0,x0,0	  x0:0x00000000
       36685000	      3667	80001f44	00000013	addi	x0,x0,0	  x0:0x00000000
       36695000	      3668	80001f48	4114d613	srai	x12,x9,0x11	  x9:0x7fff66e3 x12=0x00003fff
       36705000	      3669	80001f4c	01167d33	and	x26,x12,x17	 x12:0x00003fff x17:0xa1012d37 x26=0x00002d37
       36715000	      3670	80001f50	01891863	bne	x18,x24,80001f60	 x18:0x89800001 x24:0xffffffff
       36725000	      3671	00000000	00000013	addi	x0,x0,0	  x0:0x00000000
       36735000	      3672	80001f5c	00000013	addi	x0,x0,0	  x0:0x00000000
       36745000	      3673	80001f60	0003d093	srli	x1,x7,0x0	  x7:0x80009fc4  x1=0x80009fc4
       36755000	      3674	80001f64	00280c63	beq	x16,x2,80001f7c	 x16:0x00000000  x2:0x00000000
       36765000	      3675	00000000	00000013	addi	x0,x0,0	  x0:0x00000000
       36775000	      3676	80001f78	00000013	addi	x0,x0,0	  x0:0x00000000
       36785000	      3677	80001f7c	01016a63	bltu	x2,x16,80001f90	  x2:0x00000000 x16:0x00000000
       36795000	      3678	80001f80	02b3a593	slti	x11,x7,43	  x7:0x80009fc4 x11=0x00000001
       36805000	      3679	80001f84	04069463	bne	x13,x0,80001fcc	 x13:0x000007de  x0:0x00000000
       36815000	      3680	00000000	00000013	addi	x0,x0,0	  x0:0x00000000
       36825000	      3681	80001fc8	00000013	addi	x0,x0,0	  x0:0x00000000
       36835000	      3682	80001fcc	05887663	bgeu	x16,x24,80002018	 x16:0x00000000 x24:0xffffffff
       36845000	      3683	80001fd0	8d5bfe13	andi	x28,x23,-1835	 x23:0x00000000 x28=0x00000000
       36855000	      3684	80001fd4	01cc6bb3	or	x23,x24,x28	 x24:0xffffffff x28:0x00000000 x23=0xffffffff
       36865000	      3685	80001fd8	00539013	slli	x0,x7,0x5	  x7:0x80009fc4
       36875000	      3686	80001fdc	000cb1b3	sltu	x3,x25,x0	 x25:0xfffffffe  x0:0x00000000  x3=0x00000000
       36885000	      3687	80001fe0	6ca1f093	andi	x1,x3,1738	  x3:0x00000000  x1=0x00000000
       36895000	      3688	80001fe4	01c04463	blt	x0,x28,80001fec	  x0:0x00000000 x28:0x00000000
       36905000	      3689	80001fe8	2b899eb7	lui	x29,0x2b899	 x29=0x2b899000
       36915000	      3690	80001fec	81530613	addi	x12,x6,-2027	  x6:0x07fff66e x12=0x07ffee83
       36925000	      3691	80001ff0	00000013	addi	x0,x0,0	  x0:0x00000000
       36935000	      3692	80001ff4	02286063	bltu	x16,x2,80002014	 x16:0x00000000  x2:0x00000000
       36945000	      3693	80001ff8	00000013	addi	x0,x0,0	  x0:0x00000000
       36955000	      3694	80001ffc	418f8033	sub	x0,x31,x24	 x31:0x66bd5000 x24:0xffffffff
       36965000	      3695	80002000	0191d733	srl	x14,x3,x25	  x3:0x00000000 x25:0xfffffffe x14=0x00000000
       36975000	      3696	80002004	0156f633	and	x12,x13,x21	 x13:0x000007de x21:0xfffffff0 x12=0x000007d0
       36985000	      3697	80002008	00000013	addi	x0,x0,0	  x0:0x00000000
       36995000	      3698	8000200c	62622d93	slti	x27,x4,1574	  x4:0x7fff66e1 x27=0x00000000
       37005000	      3699	80002010	ca8b7993	andi	x19,x22,-856	 x22:0x00000002 x19=0x00000000
       37015000	      3700	80002014	f1e0e593	ori	x11,x1,-226	  x1:0x00000000 x11=0xffffff1e
       37025000	      3701	80002018	989f2e93	slti	x29,x30,-1655	 x30:0x00000001 x29=0x00000000
       37035000	      3702	8000201c	26a40513	addi	x10,x8,618	  x8:0x80009f48 x10=0x8000a1b2
       37045000	      3703	80002020	004990b3	sll	x1,x19,x4	 x19:0x00000000  x4:0x7fff66e1  x1=0x00000000
       37055000	      3704	80002024	0034ff33	and	x30,x9,x3	  x9:0x7fff66e3  x3:0x00000000 x30=0x00000000
       37065000	      3705	80002028	dd687db7	lui	x27,0xdd687	 x27=0xdd687000
       37075000	      3706	8000202c	0199d913	srli	x18,x19,0x19	 x19:0x00000000 x18=0x00000000
       37085000	      3707	80002030	ce010613	addi	x12,x2,-800	  x2:0x00000000 x12=0xfffffce0
       37095000	      3708	80002034	02694663	blt	x18,x6,80002060	 x18:0x00000000  x6:0x07fff66e
       37105000	      3709	00000000	00000013	addi	x0,x0,0	  x0:0x00000000
       37115000	      3710	8000205c	00000013	addi	x0,x0,0	  x0:0x00000000
       37125000	      3711	80002060	93ff0893	addi	x17,x30,-1729	 x30:0x00000000 x17=0xfffff93f
       37135000	      3712	80002064	ba149897	auipc	x17,0xba149	 x17=0x3a14b060
       37145000	      3713	80002068	0565d663	bge	x11,x22,800020b4	 x11:0xffffff1e x22:0x00000002
       37155000	      3714	8000206c	015c87b3	add	x15,x25,x21	 x25:0xfffffffe x21:0xfffffff0 x15=0xffffffee
       37165000	      3715	80002070	fdf20f13	addi	x30,x4,-33	  x4:0x7fff66e1 x30=0x7fff66c0
       37175000	      3716	80002074	6f85c513	xori	x10,x11,1784	 x11:0xffffff1e x10=0xfffff9e6
       37185000	      3717	80002078	de502813	slti	x16,x0,-539	  x0:0x00000000 x16=0x00000000
       37195000	      3718	8000207c	0015ffb3	and	x31,x11,x1	 x11:0xffffff1e  x1:0x00000000 x31=0x00000000
       37205000	      3719	80002080	00c38263	beq	x7,x12,80002084	  x7:0x80009fc4 x12:0xfffffce0
       37215000	      3720	80002084	00089533	sll	x10,x17,x0	 x17:0x3a14b060  x0:0x00000000 x10=0x3a14b060
       37225000	      3721	80002088	01722fb3	slt	x31,x4,x23	  x4:0x7fff66e1 x23:0xffffffff x31=0x00000000
       37235000	      3722	8000208c	01db1213	slli	x4,x22,0x1d	 x22:0x00000002  x4=0x40000000
       37245000	      3723	80002090	4ea239b7	lui	x19,0x4ea23	 x19=0x4ea23000
       37255000	      3724	80002094	03b6ce63	blt	x13,x27,800020d0	 x13:0x000007de x27:0xdd687000
       37265000	      3725	80002098	03ec6b93	ori	x23,x24,62	 x24:0xffffffff x23=0xffffffff
       37275000	      3726	8000209c	00da7833	and	x16,x20,x13	 x20:0xa15e4cb0 x13:0x000007de x16=0x00000490
       37285000	      3727	800020a0	00000013	addi	x0,x0,0	  x0:0x00000000
       37295000	      3728	800020a4	41ff02b3	sub	x5,x30,x31	 x30:0x7fff66c0 x31:0x00000000  x5=0x7fff66c0
       37305000	      3729	800020a8	01acd533	srl	x10,x25,x26	 x25:0xfffffffe x26:0x00002d37 x10=0x000001ff
       37315000	      3730	800020ac	0055d463	bge	x11,x5,800020b4	 x11:0xffffff1e  x5:0x7fff66c0
       37325000	      3731	800020b0	40845133	sra	x2,x8,x8	  x8:0x80009f48  x8:0x80009f48  x2=0xff80009f
       37335000	      3732	800020b4	41a05993	srai	x19,x0,0x1a	  x0:0x00000000 x19=0x00000000
       37345000	      3733	800020b8	4134d533	sra	x10,x9,x19	  x9:0x7fff66e3 x19:0x00000000 x10=0x7fff66e3
       37355000	      3734	800020bc	00261d13	slli	x26,x12,0x2	 x12:0xfffffce0 x26=0xfffff380
       37365000	      3735	800020c0	015cb6b3	sltu	x13,x25,x21	 x25:0xfffffffe x21:0xfffffff0 x13=0x00000000
       37375000	      3736	800020c4	01ce9213	slli	x4,x29,0x1c	 x29:0x00000000  x4=0x00000000
       37385000	      3737	800020c8	00c9d893	srli	x17,x19,0xc	 x19:0x00000000 x17=0x00000000
       37395000	      3738	800020cc	003ec663	blt	x29,x3,800020d8	 x29:0x00000000  x3:0x00000000
       37405000	      3739	800020d0	6c1fe513	ori	x10,x31,1729	 x31:0x00000000 x10=0x000006c1
       37415000	      3740	800020d4	0073b033	sltu	x0,x7,x7	  x7:0x80009fc4  x7:0x80009fc4
       37425000	      3741	800020d8	39846813	ori	x16,x8,920	  x8:0x80009f48 x16=0x80009fd8
       37435000	      3742	800020dc	00000013	addi	x0,x0,0	  x0:0x00000000
       37445000	      3743	800020e0	7b723793	sltiu	x15,x4,1975	  x4:0x00000000 x15=0x00000001
       37455000	      3744	800020e4	8c532a93	slti	x21,x6,-1851	  x6:0x07fff66e x21=0x00000000
       37465000	      3745	800020e8	0967f813	andi	x16,x15,150	 x15:0x00000001 x16=0x00000000
       37475000	      3746	800020ec	11748713	addi	x14,x9,279	  x9:0x7fff66e3 x14=0x7fff67fa
       37485000	      3747	800020f0	000d57b3	srl	x15,x26,x0	 x26:0xfffff380  x0:0x00000000 x15=0xfffff380
       37495000	      3748	800020f4	0045a333	slt	x6,x11,x4	 x11:0xffffff1e  x4:0x00000000  x6=0x00000001
       37505000	      3749	800020f8	4160d313	srai	x6,x1,0x16	  x1:0x00000000  x6=0x00000000
       37515000	      3750	800020fc	40e2db33	sra	x22,x5,x14	  x5:0x7fff66c0 x14:0x7fff67fa x22=0x0000001f
       37525000	      3751	80002100	1e012b97	auipc	x23,0x1e012	 x23=0x9e0140fc
       37535000	      3752	80002104	00e26733	or	x14,x4,x14	  x4:0x00000000 x14:0x7fff67fa x14=0x7fff67fa
       37545000	      3753	80002108	00e305b3	add	x11,x6,x14	  x6:0x00000000 x14:0x7fff67fa x11=0x7fff67fa
       37555000	      3754	8000210c	00730f33	add	x30,x6,x7	  x6:0x00000000  x7:0x80009fc4 x30=0x80009fc4
       37565000	      3755	80002110	05918863	beq	x3,x25,80002160	  x3:0x00000000 x25:0xfffffffe
       37575000	      3756	80002114	008e34b3	sltu	x9,x28,x8	 x28:0x00000000  x8:0x80009f48  x9=0x00000001
       37585000	      3757	80002118	a1202e93	slti	x29,x0,-1518	  x0:0x00000000 x29=0x00000000
       37595000	      3758	8000211c	024bda63	bge	x23,x4,80002150	 x23:0x9e0140fc  x4:0x00000000
       37605000	      3759	80002120	004d4ab3	xor	x21,x26,x4	 x26:0xfffff380  x4:0x00000000 x21=0xfffff380
       37615000	      3760	80002124	00fed993	srli	x19,x29,0xf	 x29:0x00000000 x19=0x00000000
       37625000	      3761	80002128	01e0d9b3	srl	x19,x1,x30	  x1:0x00000000 x30:0x80009fc4 x19=0x00000000
       37635000	      3762	8000212c	00420033	add	x0,x4,x4	  x4:0x00000000  x4:0x00000000
       37645000	      3763	80002130	419e5b33	sra	x22,x28,x25	 x28:0x00000000 x25:0xfffffffe x22=0x00000000
       37655000	      3764	80002134	0032fbb3	and	x23,x5,x3	  x5:0x7fff66c0  x3:0x00000000 x23=0x00000000
       37665000	      3765	80002138	2cc5a117	auipc	x2,0x2cc5a	  x2=0xacc5c134
       37675000	      3766	8000213c	04161063	bne	x12,x1,8000217c	 x12:0xfffffce0  x1:0x00000000
       37685000	      3767	00000000	00000013	addi	x0,x0,0	  x0:0x00000000
       37695000	      3768	80002178	00000013	addi	x0,x0,0	  x0:0x00000000
       37705000	      3769	8000217c	05b94863	blt	x18,x27,800021cc	 x18:0x00000000 x27:0xdd687000
       37715000	      3770	80002180	01c9da93	srli	x21,x19,0x1c	 x19:0x00000000 x21=0x00000000
       37725000	      3771	80002184	3d1b19b7	lui	x19,0x3d1b1	 x19=0x3d1b1000
       37735000	      3772	80002188	010452b3	srl	x5,x8,x16	  x8:0x80009f48 x16:0x00000000  x5=0x80009f48
       37745000	      3773	8000218c	002315b3	sll	x11,x6,x2	  x6:0x00000000  x2:0xacc5c134 x11=0x00000000
       37755000	      3774	80002190	786acf93	xori	x31,x21,1926	 x21:0x00000000 x31=0x00000786
       37765000	      3775	80002194	0177fc63	bgeu	x15,x23,800021ac	 x15:0xfffff380 x23:0x00000000
       37775000	      3776	00000000	00000013	addi	x0,x0,0	  x0:0x00000000
       37785000	      3777	800021a8	00000013	addi	x0,x0,0	  x0:0x00000000
       37795000	      3778	800021ac	c971a493	slti	x9,x3,-873	  x3:0x00000000  x9=0x00000000
       37805000	      3779	800021b0	5841ee93	ori	x29,x3,1412	  x3:0x00000000 x29=0x00000584
       37815000	      3780	800021b4	018cf233	and	x4,x25,x24	 x25:0xfffffffe x24:0xffffffff  x4=0xfffffffe
       37825000	      3781	800021b8	02ca6863	bltu	x20,x12,800021e8	 x20:0xa15e4cb0 x12:0xfffffce0
       37835000	      3782	00000000	00000013	addi	x0,x0,0	  x0:0x00000000
       37845000	      3783	800021e4	00000013	addi	x0,x0,0	  x0:0x00000000
       37855000	      3784	800021e8	acf38113	addi	x2,x7,-1329	  x7:0x80009fc4  x2=0x80009a93
       37865000	      3785	800021ec	013107b3	add	x15,x2,x19	  x2:0x80009a93 x19:0x3d1b1000 x15=0xbd1baa93
       37875000	      3786	800021f0	a26b5017	auipc	x0,0xa26b5	
       37885000	      3787	800021f4	00875893	srli	x17,x14,0x8	 x14:0x7fff67fa x17=0x007fff67
       37895000	      3788	800021f8	03e3c063	blt	x7,x30,80002218	  x7:0x80009fc4 x30:0x80009fc4
       37905000	      3789	800021fc	00f984b3	add	x9,x19,x15	 x19:0x3d1b1000 x15:0xbd1baa93  x9=0xfa36ba93
       37915000	      3790	80002200	407781b3	sub	x3,x15,x7	 x15:0xbd1baa93  x7:0x80009fc4  x3=0x3d1b0acf
       37925000	      3791	80002204	aefd6c93	ori	x25,x26,-1297	 x26:0xfffff380 x25=0xfffffbef
       37935000	      3792	80002208	40ebdd33	sra	x26,x23,x14	 x23:0x00000000 x14:0x7fff67fa x26=0x00000000
       37945000	      3793	8000220c	41fd0b33	sub	x22,x26,x31	 x26:0x00000000 x31:0x00000786 x22=0xfffff87a
       37955000	      3794	80002210	01e1eab3	or	x21,x3,x30	  x3:0x3d1b0acf x30:0x80009fc4 x21=0xbd1b9fcf
       37965000	      3795	80002214	00000013	addi	x0,x0,0	  x0:0x00000000
       37975000	      3796	80002218	41f25ab3	sra	x21,x4,x31	  x4:0xfffffffe x31:0x00000786 x21=0xffffffff
       37985000	      3797	8000221c	0178a9b3	slt	x19,x17,x23	 x17:0x007fff67 x23:0x00000000 x19=0x00000000
       37995000	      3798	80002220	41d15e93	srai	x29,x2,0x1d	  x2:0x80009a93 x29=0xfffffffc
       38005000	      3799	80002224	013f7533	and	x10,x30,x19	 x30:0x80009fc4 x19:0x00000000 x10=0x00000000
       38015000	      3800	80002228	41f88c33	sub	x24,x17,x31	 x17:0x007fff67 x31:0x00000786 x24=0x007ff7e1
       38025000	      3801	8000222c	5bfd3e13	sltiu	x28,x26,1471	 x26:0x00000000 x28=0x00000001
       38035000	      3802	80002230	0314de63	bge	x9,x17,8000226c	  x9:0xfa36ba93 x17:0x007fff67
       38045000	      3803	80002234	01cbc4b3	xor	x9,x23,x28	 x23:0x00000000 x28:0x00000001  x9=0x00000001
       38055000	      3804	80002238	409f5913	srai	x18,x30,0x9	 x30:0x80009fc4 x18=0xffc0004f
       38065000	      3805	8000223c	00000013	addi	x0,x0,0	  x0:0x00000000
       38075000	      3806	80002240	dd29c117	auipc	x2,0xdd29c	  x2=0x5d29e23c
       38085000	      3807	80002244	00f1ee33	or	x28,x3,x15	  x3:0x3d1b0acf x15:0xbd1baa93 x28=0xbd1baadf
       38095000	      3808	80002248	5c49b093	sltiu	x1,x19,1476	 x19:0x00000000  x1=0x00000001
       38105000	      3809	8000224c	01bf41b3	xor	x3,x30,x27	 x30:0x80009fc4 x27:0xdd687000  x3=0x5d68efc4
       38115000	      3810	80002250	01261733	sll	x14,x12,x18	 x12:0xfffffce0 x18:0xffc0004f x14=0xfe700000
       38125000	      3811	80002254	0028b4b3	sltu	x9,x17,x2	 x17:0x007fff67  x2:0x5d29e23c  x9=0x00000001
       38135000	      3812	80002258	83d06713	ori	x14,x0,-1987	  x0:0x00000000 x14=0xfffff83d
       38145000	      3813	8000225c	013a14b3	sll	x9,x20,x19	 x20:0xa15e4cb0 x19:0x00000000  x9=0xa15e4cb0
       38155000	      3814	80002260	00fb5693	srli	x13,x22,0xf	 x22:0xfffff87a x13=0x0001ffff
       38165000	      3815	80002264	00b99bb3	sll	x23,x19,x11	 x19:0x00000000 x11:0x00000000 x23=0x00000000
       38175000	      3816	80002268	05875263	bge	x14,x24,800022ac	 x14:0xfffff83d x24:0x007ff7e1
       38185000	      3817	8000226c	018fd693	srli	x13,x31,0x18	 x31:0x00000786 x13=0x00000000
       38195000	      3818	80002270	8eee2c93	slti	x25,x28,-1810	 x28:0xbd1baadf x25=0x00000001
       38205000	      3819	80002274	01555ab3	srl	x21,x10,x21	 x10:0x00000000 x21:0xffffffff x21=0x00000000
       38215000	      3820	80002278	f2d58e17	auipc	x28,0xf2d58	 x28=0x72d5a274
       38225000	      3821	8000227c	777c4a93	xori	x21,x24,1911	 x24:0x007ff7e1 x21=0x007ff096
       38235000	      3822	80002280	f9104737	lui	x14,0xf9104	 x14=0xf9104000
       38245000	      3823	80002284	0112d263	bge	x5,x17,80002288	  x5:0x80009f48 x17:0x007fff67
       38255000	      3824	80002288	016dd893	srli	x17,x27,0x16	 x27:0xdd687000 x17=0x00000375
       38265000	      3825	8000228c	e25ce993	ori	x19,x25,-475	 x25:0x00000001 x19=0xfffffe25
       38275000	      3826	80002290	00ff7933	and	x18,x30,x15	 x30:0x80009fc4 x15:0xbd1baa93 x18=0x80008a80
       38285000	      3827	80002294	00365313	srli	x6,x12,0x3	 x12:0xfffffce0  x6=0x1fffff9c
       38295000	      3828	80002298	71b4fb17	auipc	x22,0x71b4f	 x22=0xf1b51294
       38305000	      3829	8000229c	01c78533	add	x10,x15,x28	 x15:0xbd1baa93 x28:0x72d5a274 x10=0x2ff14d07
       38315000	      3830	800022a0	0182fd33	and	x26,x5,x24	  x5:0x80009f48 x24:0x007ff7e1 x26=0x00009740
       38325000	      3831	800022a4	01cb6463	bltu	x22,x28,800022ac	 x22:0xf1b51294 x28:0x72d5a274
       38335000	      3832	800022a8	00089133	sll	x2,x17,x0	 x17:0x00000375  x0:0x00000000  x2=0x00000375
       38345000	      3833	800022ac	0022ae33	slt	x28,x5,x2	  x5:0x80009f48  x2:0x00000375 x28=0x00000001
       38355000	      3834	800022b0	00000013	addi	x0,x0,0	  x0:0x00000000
       38365000	      3835	800022b4	034d6463	bltu	x26,x20,800022dc	 x26:0x00009740 x20:0xa15e4cb0
       38375000	      3836	00000000	00000013	addi	x0,x0,0	  x0:0x00000000
       38385000	      3837	800022d8	00000013	addi	x0,x0,0	  x0:0x00000000
       38395000	      3838	800022dc	016d9713	slli	x14,x27,0x16	 x27:0xdd687000 x14=0x00000000
       38405000	      3839	800022e0	41445093	srai	x1,x8,0x14	  x8:0x80009f48  x1=0xfffff800
       38415000	      3840	800022e4	8a57cb93	xori	x23,x15,-1883	 x15:0xbd1baa93 x23=0x42e45236
       38425000	      3841	800022e8	0505f663	bgeu	x11,x16,80002334	 x11:0x00000000 x16:0x00000000
       38435000	      3842	00000000	00000013	addi	x0,x0,0	  x0:0x00000000
       38445000	      3843	80002330	00000013	addi	x0,x0,0	  x0:0x00000000
       38455000	      3844	80002334	0176a233	slt	x4,x13,x23	 x13:0x00000000 x23:0x42e45236  x4=0x00000001
       38465000	      3845	80002338	d707d617	auipc	x12,0xd707d	 x12=0x5707f334
       38475000	      3846	8000233c	0030fc63	bgeu	x1,x3,80002354	  x1:0xfffff800  x3:0x5d68efc4
       38485000	      3847	00000000	00000013	addi	x0,x0,0	  x0:0x00000000
       38495000	      3848	80002350	00000013	addi	x0,x0,0	  x0:0x00000000
       38505000	      3849	80002354	400fdd93	srai	x27,x31,0x0	 x31:0x00000786 x27=0x00000786
       38515000	      3850	80002358	00b19033	sll	x0,x3,x11	  x3:0x5d68efc4 x11:0x00000000
       38525000	      3851	8000235c	01b7a6b3	slt	x13,x15,x27	 x15:0xbd1baa93 x27:0x00000786 x13=0x00000001
       38535000	      3852	80002360	00ddb7b3	sltu	x15,x27,x13	 x27:0x00000786 x13:0x00000001 x15=0x00000000
       38545000	      3853	80002364	41ecd493	srai	x9,x25,0x1e	 x25:0x00000001  x9=0x00000000
       38555000	      3854	80002368	01d70e33	add	x28,x14,x29	 x14:0x00000000 x29:0xfffffffc x28=0xfffffffc
       38565000	      3855	8000236c	019b21b3	slt	x3,x22,x25	 x22:0xf1b51294 x25:0x00000001  x3=0x00000001
       38575000	      3856	80002370	02ec6a63	bltu	x24,x14,800023a4	 x24:0x007ff7e1 x14:0x00000000
       38585000	      3857	80002374	e8f5db17	auipc	x22,0xe8f5d	 x22=0x68f5f370
       38595000	      3858	80002378	41b80db3	sub	x27,x16,x27	 x16:0x00000000 x27:0x00000786 x27=0xfffff87a
       38605000	      3859	8000237c	01996cb3	or	x25,x18,x25	 x18:0x80008a80 x25:0x00000001 x25=0x80008a81
       38615000	      3860	80002380	01770663	beq	x14,x23,8000238c	 x14:0x00000000 x23:0x42e45236
       38625000	      3861	80002384	002ed9b3	srl	x19,x29,x2	 x29:0xfffffffc  x2:0x00000375 x19=0x000007ff
       38635000	      3862	80002388	cb58e113	ori	x2,x17,-843	 x17:0x00000375  x2=0xfffffff5
       38645000	      3863	8000238c	0050ed33	or	x26,x1,x5	  x1:0xfffff800  x5:0x80009f48 x26=0xffffff48
       38655000	      3864	80002390	005d1933	sll	x18,x26,x5	 x26:0xffffff48  x5:0x80009f48 x18=0xffff4800
       38665000	      3865	80002394	01069663	bne	x13,x16,800023a0	 x13:0x00000001 x16:0x00000000
       38675000	      3866	00000000	00000013	addi	x0,x0,0	  x0:0x00000000
       38685000	      3867	8000239c	00000013	addi	x0,x0,0	  x0:0x00000000
       38695000	      3868	800023a0	c939b793	sltiu	x15,x19,-877	 x19:0x000007ff x15=0x00000001
       38705000	      3869	800023a4	215ae693	ori	x13,x21,533	 x21:0x007ff096 x13=0x007ff297
       38715000	      3870	800023a8	01c1f663	bgeu	x3,x28,800023b4	  x3:0x00000001 x28:0xfffffffc
       38725000	      3871	800023ac	01552313	slti	x6,x10,21	 x10:0x2ff14d07  x6=0x00000000
       38735000	      3872	800023b0	01c12d33	slt	x26,x2,x28	  x2:0xfffffff5 x28:0xfffffffc x26=0x00000001
       38745000	      3873	800023b4	41d481b3	sub	x3,x9,x29	  x9:0x00000000 x29:0xfffffffc  x3=0x00000004
       38755000	      3874	800023b8	01c75263	bge	x14,x28,800023bc	 x14:0x00000000 x28:0xfffffffc
       38765000	      3875	00000000	00000013	addi	x0,x0,0	  x0:0x00000000
       38775000	      3876	800023b8	00000013	addi	x0,x0,0	  x0:0x00000000
       38785000	      3877	800023bc	41925213	srai	x4,x4,0x19	  x4:0x00000001  x4=0x00000000
       38795000	      3878	800023c0	41358cb3	sub	x25,x11,x19	 x11:0x00000000 x19:0x000007ff x25=0xfffff801
       38805000	      3879	800023c4	0122a933	slt	x18,x5,x18	  x5:0x80009f48 x18:0xffff4800 x18=0x00000001
       38815000	      3880	800023c8	055f1663	bne	x30,x21,80002414	 x30:0x80009fc4 x21:0x007ff096
       38825000	      3881	00000000	00000013	addi	x0,x0,0	  x0:0x00000000
       38835000	      3882	80002410	00000013	addi	x0,x0,0	  x0:0x00000000
       38845000	      3883	80002414	02571e63	bne	x14,x5,80002450	 x14:0x00000000  x5:0x80009f48
       38855000	      3884	00000000	00000013	addi	x0,x0,0	  x0:0x00000000
       38865000	      3885	8000244c	00000013	addi	x0,x0,0	  x0:0x00000000
       38875000	      3886	80002450	006f5c93	srli	x25,x30,0x6	 x30:0x80009fc4 x25=0x0200027f
       38885000	      3887	80002454	414d8e33	sub	x28,x27,x20	 x27:0xfffff87a x20:0xa15e4cb0 x28=0x5ea1abca
       38895000	      3888	80002458	2168de97	auipc	x29,0x2168d	 x29=0xa168f454
       38905000	      3889	8000245c	01da85b3	add	x11,x21,x29	 x21:0x007ff096 x29:0xa168f454 x11=0xa1e8e4ea
       38915000	      3890	80002460	213e4317	auipc	x6,0x213e4	  x6=0xa13e645c
       38925000	      3891	80002464	00441463	bne	x8,x4,8000246c	  x8:0x80009f48  x4:0x00000000
       38935000	      3892	00000000	00000013	addi	x0,x0,0	  x0:0x00000000
       38945000	      3893	80002468	00000013	addi	x0,x0,0	  x0:0x00000000
       38955000	      3894	8000246c	00bc5eb3	srl	x29,x24,x11	 x24:0x007ff7e1 x11:0xa1e8e4ea x29=0x00001ffd
       38965000	      3895	80002470	01391133	sll	x2,x18,x19	 x18:0x00000001 x19:0x000007ff  x2=0x80000000
       38975000	      3896	80002474	007e4233	xor	x4,x28,x7	 x28:0x5ea1abca  x7:0x80009fc4  x4=0xdea1340e
       38985000	      3897	80002478	0207fe63	bgeu	x15,x0,800024b4	 x15:0x00000001  x0:0x00000000
       38995000	      3898	00000000	00000013	addi	x0,x0,0	  x0:0x00000000
       39005000	      3899	800024b0	00000013	addi	x0,x0,0	  x0:0x00000000
       39015000	      3900	800024b4	006a7fb3	and	x31,x20,x6	 x20:0xa15e4cb0  x6:0xa13e645c x31=0xa11e4410
       39025000	      3901	800024b8	00fd9463	bne	x27,x15,800024c0	 x27:0xfffff87a x15:0x00000001
       39035000	      3902	00000000	00000013	addi	x0,x0,0	  x0:0x00000000
       39045000	      3903	800024bc	00000013	addi	x0,x0,0	  x0:0x00000000
       39055000	      3904	800024c0	01884f33	xor	x30,x16,x24	 x16:0x00000000 x24:0x007ff7e1 x30=0x007ff7e1
       39065000	      3905	800024c4	00a79fb3	sll	x31,x15,x10	 x15:0x00000001 x10:0x2ff14d07 x31=0x00000080
       39075000	      3906	800024c8	6a7d2f13	slti	x30,x26,1703	 x26:0x00000001 x30=0x00000001
       39085000	      3907	800024cc	611b8e13	addi	x28,x23,1553	 x23:0x42e45236 x28=0x42e45847
       39095000	      3908	800024d0	9127e713	ori	x14,x15,-1774	 x15:0x00000001 x14=0xfffff913
       39105000	      3909	800024d4	00000013	addi	x0,x0,0	  x0:0x00000000
       39115000	      3910	800024d8	01e0e5b3	or	x11,x1,x30	  x1:0xfffff800 x30:0x00000001 x11=0xfffff801
       39125000	      3911	800024dc	a492e697	auipc	x13,0xa492e	 x13=0x249304d8
       39135000	      3912	800024e0	034ad663	bge	x21,x20,8000250c	 x21:0x007ff096 x20:0xa15e4cb0
       39145000	      3913	00000000	00000013	addi	x0,x0,0	  x0:0x00000000
       39155000	      3914	80002508	00000013	addi	x0,x0,0	  x0:0x00000000
       39165000	      3915	8000250c	8dddcf97	auipc	x31,0x8dddc	 x31=0x0ddde508
       39175000	      3916	80002510	0048e333	or	x6,x17,x4	 x17:0x00000375  x4:0xdea1340e  x6=0xdea1377f
       39185000	      3917	80002514	41060c33	sub	x24,x12,x16	 x12:0x5707f334 x16:0x00000000 x24=0x5707f334
       39195000	      3918	80002518	dee4e213	ori	x4,x9,-530	  x9:0x00000000  x4=0xfffffdee
       39205000	      3919	8000251c	d36f0813	addi	x16,x30,-714	 x30:0x00000001 x16=0xfffffd37
       39215000	      3920	80002520	c35a7f17	auipc	x30,0xc35a7	 x30=0x435a951c
       39225000	      3921	80002524	a04aac17	auipc	x24,0xa04aa	 x24=0x204ac520
       39235000	      3922	80002528	009db2b3	sltu	x5,x27,x9	 x27:0xfffff87a  x9:0x00000000  x5=0x00000000
       39245000	      3923	8000252c	017a00b3	add	x1,x20,x23	 x20:0xa15e4cb0 x23:0x42e45236  x1=0xe4429ee6
       39255000	      3924	80002530	401bd9b3	sra	x19,x23,x1	 x23:0x42e45236  x1:0xe4429ee6 x19=0x010b9148
       39265000	      3925	80002534	417ad893	srai	x17,x21,0x17	 x21:0x007ff096 x17=0x00000000
       39275000	      3926	80002538	01c76c63	bltu	x14,x28,80002550	 x14:0xfffff913 x28:0x42e45847
       39285000	      3927	8000253c	00056b33	or	x22,x10,x0	 x10:0x2ff14d07  x0:0x00000000 x22=0x2ff14d07
       39295000	      3928	80002540	01c75513	srli	x10,x14,0x1c	 x14:0xfffff913 x10=0x0000000f
       39305000	      3929	80002544	00689033	sll	x0,x17,x6	 x17:0x00000000  x6:0xdea1377f
       39315000	      3930	80002548	b7ab9497	auipc	x9,0xb7ab9	  x9=0x37abb544
       39325000	      3931	8000254c	017c3833	sltu	x16,x24,x23	 x24:0x204ac520 x23:0x42e45236 x16=0x00000001
       39335000	      3932	80002550	01d1f263	bgeu	x3,x29,80002554	  x3:0x00000004 x29:0x00001ffd
       39345000	      3933	80002554	94e5ad13	slti	x26,x11,-1714	 x11:0xfffff801 x26=0x00000001
       39355000	      3934	80002558	18c87813	andi	x16,x16,396	 x16:0x00000001 x16=0x00000000
       39365000	      3935	8000255c	00da8463	beq	x21,x13,80002564	 x21:0x007ff096 x13:0x249304d8
       39375000	      3936	80002560	006b7db3	and	x27,x22,x6	 x22:0x2ff14d07  x6:0xdea1377f x27=0x0ea10507
       39385000	      3937	80002564	048d9663	bne	x27,x8,800025b0	 x27:0x0ea10507  x8:0x80009f48
       39395000	      3938	00000000	00000013	addi	x0,x0,0	  x0:0x00000000
       39405000	      3939	800025ac	00000013	addi	x0,x0,0	  x0:0x00000000
       39415000	      3940	800025b0	2e6ae0b7	lui	x1,0x2e6ae	  x1=0x2e6ae000
       39425000	      3941	800025b4	b706c893	xori	x17,x13,-1168	 x13:0x249304d8 x17=0xdb6cffa8
       39435000	      3942	800025b8	a87b8693	addi	x13,x23,-1401	 x23:0x42e45236 x13=0x42e44cbd
       39445000	      3943	800025bc	40d68e33	sub	x28,x13,x13	 x13:0x42e44cbd x13:0x42e44cbd x28=0x00000000
       39455000	      3944	800025c0	c1a5f093	andi	x1,x11,-998	 x11:0xfffff801  x1=0xfffff800
       39465000	      3945	800025c4	40158bb3	sub	x23,x11,x1	 x11:0xfffff801  x1:0xfffff800 x23=0x00000001
       39475000	      3946	800025c8	00b7a633	slt	x12,x15,x11	 x15:0x00000001 x11:0xfffff801 x12=0x00000000
       39485000	      3947	800025cc	01ee5c13	srli	x24,x28,0x1e	 x28:0x00000000 x24=0x00000000
       39495000	      3948	800025d0	2ad92193	slti	x3,x18,685	 x18:0x00000001  x3=0x00000001
       39505000	      3949	800025d4	3cf79237	lui	x4,0x3cf79	  x4=0x3cf79000
       39515000	      3950	800025d8	033c4463	blt	x24,x19,80002600	 x24:0x00000000 x19:0x010b9148
       39525000	      3951	00000000	00000013	addi	x0,x0,0	  x0:0x00000000
       39535000	      3952	800025fc	00000013	addi	x0,x0,0	  x0:0x00000000
       39545000	      3953	80002600	4f16f213	andi	x4,x13,1265	 x13:0x42e44cbd  x4=0x000004b1
       39555000	      3954	80002604	00949633	sll	x12,x9,x9	  x9:0x37abb544  x9:0x37abb544 x12=0x7abb5440
       39565000	      3955	80002608	0146d863	bge	x13,x20,80002618	 x13:0x42e44cbd x20:0xa15e4cb0
       39575000	      3956	00000000	00000013	addi	x0,x0,0	  x0:0x00000000
       39585000	      3957	80002614	00000013	addi	x0,x0,0	  x0:0x00000000
       39595000	      3958	80002618	fc869b17	auipc	x22,0xfc869	 x22=0x7c86b614
       39605000	      3959	8000261c	33d6ae97	auipc	x29,0x33d6a	 x29=0xb3d6c618
       39615000	      3960	80002620	0153dab3	srl	x21,x7,x21	  x7:0x80009fc4 x21:0x007ff096 x21=0x00000200
       39625000	      3961	80002624	00f98e33	add	x28,x19,x15	 x19:0x010b9148 x15:0x00000001 x28=0x010b9149
       39635000	      3962	80002628	40bf0fb3	sub	x31,x30,x11	 x30:0x435a951c x11:0xfffff801 x31=0x435a9d1b
       39645000	      3963	8000262c	00818db3	add	x27,x3,x8	  x3:0x00000001  x8:0x80009f48 x27=0x80009f49
       39655000	      3964	80002630	04467063	bgeu	x12,x4,80002670	 x12:0x7abb5440  x4:0x000004b1
       39665000	      3965	00000000	00000013	addi	x0,x0,0	  x0:0x00000000
       39675000	      3966	8000266c	00000013	addi	x0,x0,0	  x0:0x00000000
       39685000	      3967	80002670	00f759b3	srl	x19,x14,x15	 x14:0xfffff913 x15:0x00000001 x19=0x7ffffc89
       39695000	      3968	80002674	01e34733	xor	x14,x6,x30	  x6:0xdea1377f x30:0x435a951c x14=0x9dfba263
       39705000	      3969	80002678	3188e693	ori	x13,x17,792	 x17:0xdb6cffa8 x13=0xdb6cffb8
       39715000	      3970	8000267c	dcc64c93	xori	x25,x12,-564	 x12:0x7abb5440 x25=0x8544a98c
       39725000	      3971	80002680	f06f4e93	xori	x29,x30,-250	 x30:0x435a951c x29=0xbca56a1a
       39735000	      3972	80002684	b7c7b113	sltiu	x2,x15,-1156	 x15:0x00000001  x2=0x00000001
       39745000	      3973	80002688	00505663	bge	x0,x5,80002694	  x0:0x00000000  x5:0x00000000
       39755000	      3974	00000000	00000013	addi	x0,x0,0	  x0:0x00000000
       39765000	      3975	80002690	00000013	addi	x0,x0,0	  x0:0x00000000
       39775000	      3976	80002694	01481613	slli	x12,x16,0x14	 x16:0x00000000 x12=0x00000000
       39785000	      3977	80002698	03d47863	bgeu	x8,x29,800026c8	  x8:0x80009f48 x29:0xbca56a1a
       39795000	      3978	8000269c	40465cb3	sra	x25,x12,x4	 x12:0x00000000  x4:0x000004b1 x25=0x00000000
       39805000	      3979	800026a0	5d244693	xori	x13,x8,1490	  x8:0x80009f48 x13=0x80009a9a
       39815000	      3980	800026a4	01259133	sll	x2,x11,x18	 x11:0xfffff801 x18:0x00000001  x2=0xfffff002
       39825000	      3981	800026a8	00389833	sll	x16,x17,x3	 x17:0xdb6cffa8  x3:0x00000001 x16=0xb6d9ff50
       39835000	      3982	800026ac	018c5033	srl	x0,x24,x24	 x24:0x00000000 x24:0x00000000
       39845000	      3983	800026b0	af366213	ori	x4,x12,-1293	 x12:0x00000000  x4=0xfffffaf3
       39855000	      3984	800026b4	00a1c333	xor	x6,x3,x10	  x3:0x00000001 x10:0x0000000f  x6=0x0000000e
       39865000	      3985	800026b8	006727b3	slt	x15,x14,x6	 x14:0x9dfba263  x6:0x0000000e x15=0x00000001
       39875000	      3986	800026bc	41b08933	sub	x18,x1,x27	  x1:0xfffff800 x27:0x80009f49 x18=0x7fff58b7
       39885000	      3987	800026c0	a79349b7	lui	x19,0xa7934	 x19=0xa7934000
       39895000	      3988	800026c4	004ca933	slt	x18,x25,x4	 x25:0x00000000  x4:0xfffffaf3 x18=0x00000000
       39905000	      3989	800026c8	e69b7913	andi	x18,x22,-407	 x22:0x7c86b614 x18=0x7c86b600
       39915000	      3990	800026cc	01cbeb33	or	x22,x23,x28	 x23:0x00000001 x28:0x010b9149 x22=0x010b9149
       39925000	      3991	800026d0	f6c6c793	xori	x15,x13,-148	 x13:0x80009a9a x15=0x7fff65f6
       39935000	      3992	800026d4	3d5c6f13	ori	x30,x24,981	 x24:0x00000000 x30=0x000003d5
       39945000	      3993	800026d8	012dc663	blt	x27,x18,800026e4	 x27:0x80009f49 x18:0x7c86b600
       39955000	      3994	00000000	00000013	addi	x0,x0,0	  x0:0x00000000
       39965000	      3995	800026e0	00000013	addi	x0,x0,0	  x0:0x00000000
       39975000	      3996	800026e4	7a31e813	ori	x16,x3,1955	  x3:0x00000001 x16=0x000007a3
       39985000	      3997	800026e8	01137863	bgeu	x6,x17,800026f8	  x6:0x0000000e x17:0xdb6cffa8
       39995000	      3998	800026ec	00157bb3	and	x23,x10,x1	 x10:0x0000000f  x1:0xfffff800 x23=0x00000000
       40005000	      3999	800026f0	0399c463	blt	x19,x25,80002718	 x19:0xa7934000 x25:0x00000000
       40015000	      4000	00000000	00000013	addi	x0,x0,0	  x0:0x00000000
       40025000	      4001	80002714	00000013	addi	x0,x0,0	  x0:0x00000000
       40035000	      4002	80002718	005a1833	sll	x16,x20,x5	 x20:0xa15e4cb0  x5:0x00000000 x16=0xa15e4cb0
       40045000	      4003	8000271c	0020b0b3	sltu	x1,x1,x2	  x1:0xfffff800  x2:0xfffff002  x1=0x00000000
       40055000	      4004	80002720	00000013	addi	x0,x0,0	  x0:0x00000000
       40065000	      4005	80002724	7f4efb13	andi	x22,x29,2036	 x29:0xbca56a1a x22=0x00000210
       40075000	      4006	80002728	f305a013	slti	x0,x11,-208	 x11:0xfffff801
       40085000	      4007	8000272c	014760b3	or	x1,x14,x20	 x14:0x9dfba263 x20:0xa15e4cb0  x1=0xbdffeef3
       40095000	      4008	80002730	005a6cb3	or	x25,x20,x5	 x20:0xa15e4cb0  x5:0x00000000 x25=0xa15e4cb0
       40105000	      4009	80002734	7cd87813	andi	x16,x16,1997	 x16:0xa15e4cb0 x16=0x00000480
       40115000	      4010	80002738	3f538513	addi	x10,x7,1013	  x7:0x80009fc4 x10=0x8000a3b9
       40125000	      4011	8000273c	f715f113	andi	x2,x11,-143	 x11:0xfffff801  x2=0xfffff801
       40135000	      4012	80002740	04675663	bge	x14,x6,8000278c	 x14:0x9dfba263  x6:0x0000000e
       40145000	      4013	80002744	00000013	addi	x0,x0,0	  x0:0x00000000
       40155000	      4014	80002748	8f53e713	ori	x14,x7,-1803	  x7:0x80009fc4 x14=0xfffffff5
       40165000	      4015	8000274c	082a4113	xori	x2,x20,130	 x20:0xa15e4cb0  x2=0xa15e4c32
       40175000	      4016	80002750	0116d463	bge	x13,x17,80002758	 x13:0x80009a9a x17:0xdb6cffa8
       40185000	      4017	80002754	01890c63	beq	x18,x24,8000276c	 x18:0x7c86b600 x24:0x00000000
       40195000	      4018	80002758	016c02b3	add	x5,x24,x22	 x24:0x00000000 x22:0x00000210  x5=0x00000210
       40205000	      4019	8000275c	40040fb3	sub	x31,x8,x0	  x8:0x80009f48  x0:0x00000000 x31=0x80009f48
       40215000	      4020	80002760	01a0f2b3	and	x5,x1,x26	  x1:0xbdffeef3 x26:0x00000001  x5=0x00000001
       40225000	      4021	80002764	03cfce63	blt	x31,x28,800027a0	 x31:0x80009f48 x28:0x010b9149
       40235000	      4022	00000000	00000013	addi	x0,x0,0	  x0:0x00000000
       40245000	      4023	8000279c	00000013	addi	x0,x0,0	  x0:0x00000000
       40255000	      4024	800027a0	00aca533	slt	x10,x25,x10	 x25:0xa15e4cb0 x10:0x8000a3b9 x10=0x00000000
       40265000	      4025	800027a4	41ba5133	sra	x2,x20,x27	 x20:0xa15e4cb0 x27:0x80009f49  x2=0xffd0af26
       40275000	      4026	800027a8	d2e5fc13	andi	x24,x11,-722	 x11:0xfffff801 x24=0xfffff800
       40285000	      4027	800027ac	986d9237	lui	x4,0x986d9	  x4=0x986d9000
       40295000	      4028	800027b0	0079f8b3	and	x17,x19,x7	 x19:0xa7934000  x7:0x80009fc4 x17=0x80000000
       40305000	      4029	800027b4	a84e2793	slti	x15,x28,-1404	 x28:0x010b9149 x15=0x00000000
       40315000	      4030	800027b8	00519f13	slli	x30,x3,0x5	  x3:0x00000001 x30=0x00000020
       40325000	      4031	800027bc	016bd693	srli	x13,x23,0x16	 x23:0x00000000 x13=0x00000000
       40335000	      4032	800027c0	00338eb3	add	x29,x7,x3	  x7:0x80009fc4  x3:0x00000001 x29=0x80009fc5
       40345000	      4033	800027c4	00d6de13	srli	x28,x13,0xd	 x13:0x00000000 x28=0x00000000
       40355000	      4034	800027c8	00dc7f33	and	x30,x24,x13	 x24:0xfffff800 x13:0x00000000 x30=0x00000000
       40365000	      4035	800027cc	02ad4e63	blt	x26,x10,80002808	 x26:0x00000001 x10:0x00000000
       40375000	      4036	800027d0	40e98eb3	sub	x29,x19,x14	 x19:0xa7934000 x14:0xfffffff5 x29=0xa793400b
       40385000	      4037	800027d4	02a49a63	bne	x9,x10,80002808	  x9:0x37abb544 x10:0x00000000
       40395000	      4038	00000000	00000013	addi	x0,x0,0	  x0:0x00000000
       40405000	      4039	80002804	00000013	addi	x0,x0,0	  x0:0x00000000
       40415000	      4040	80002808	00c72033	slt	x0,x14,x12	 x14:0xfffffff5 x12:0x00000000
       40425000	      4041	8000280c	059ad263	bge	x21,x25,80002850	 x21:0x00000200 x25:0xa15e4cb0
       40435000	      4042	00000000	00000013	addi	x0,x0,0	  x0:0x00000000
       40445000	      4043	8000284c	00000013	addi	x0,x0,0	  x0:0x00000000
       40455000	      4044	80002850	01a576b3	and	x13,x10,x26	 x10:0x00000000 x26:0x00000001 x13=0x00000000
       40465000	      4045	80002854	048b4863	blt	x22,x8,800028a4	 x22:0x00000210  x8:0x80009f48
       40475000	      4046	80002858	011e5e93	srli	x29,x28,0x11	 x28:0x00000000 x29=0x00000000
       40485000	      4047	8000285c	008b9993	slli	x19,x23,0x8	 x23:0x00000000 x19=0x00000000
       40495000	      4048	80002860	0087e1b3	or	x3,x15,x8	 x15:0x00000000  x8:0x80009f48  x3=0x80009f48
       40505000	      4049	80002864	413750b3	sra	x1,x14,x19	 x14:0xfffffff5 x19:0x00000000  x1=0xfffffff5
       40515000	      4050	80002868	90045a97	auipc	x21,0x90045	 x21=0x10047864
       40525000	      4051	8000286c	04161863	bne	x12,x1,800028bc	 x12:0x00000000  x1:0xfffffff5
       40535000	      4052	00000000	00000013	addi	x0,x0,0	  x0:0x00000000
       40545000	      4053	800028b8	00000013	addi	x0,x0,0	  x0:0x00000000
       40555000	      4054	800028bc	57c1ed13	ori	x26,x3,1404	  x3:0x80009f48 x26=0x80009f7c
       40565000	      4055	800028c0	9e366113	ori	x2,x12,-1565	 x12:0x00000000  x2=0xfffff9e3
       40575000	      4056	800028c4	9933bd37	lui	x26,0x9933b	 x26=0x9933b000
       40585000	      4057	800028c8	01d7d013	srli	x0,x15,0x1d	 x15:0x00000000
       40595000	      4058	800028cc	40798533	sub	x10,x19,x7	 x19:0x00000000  x7:0x80009fc4 x10=0x7fff603c
       40605000	      4059	800028d0	400a5613	srai	x12,x20,0x0	 x20:0xa15e4cb0 x12=0xa15e4cb0
       40615000	      4060	800028d4	03806663	bltu	x0,x24,80002900	  x0:0x00000000 x24:0xfffff800
       40625000	      4061	00000000	00000013	addi	x0,x0,0	  x0:0x00000000
       40635000	      4062	800028fc	00000013	addi	x0,x0,0	  x0:0x00000000
       40645000	      4063	80002900	004a1593	slli	x11,x20,0x4	 x20:0xa15e4cb0 x11=0x15e4cb00
       40655000	      4064	80002904	40c105b3	sub	x11,x2,x12	  x2:0xfffff9e3 x12:0xa15e4cb0 x11=0x5ea1ad33
       40665000	      4065	80002908	01cadc13	srli	x24,x21,0x1c	 x21:0x10047864 x24=0x00000001
       40675000	      4066	8000290c	01dcc463	blt	x25,x29,80002914	 x25:0xa15e4cb0 x29:0x00000000
       40685000	      4067	00000000	00000013	addi	x0,x0,0	  x0:0x00000000
       40695000	      4068	80002910	00000013	addi	x0,x0,0	  x0:0x00000000
       40705000	      4069	80002914	003dc463	blt	x27,x3,8000291c	 x27:0x80009f49  x3:0x80009f48
       40715000	      4070	80002918	7775e717	auipc	x14,0x7775e	 x14=0xf7760914
       40725000	      4071	8000291c	015192b3	sll	x5,x3,x21	  x3:0x80009f48 x21:0x10047864  x5=0x0009f480
       40735000	      4072	80002920	44a10813	addi	x16,x2,1098	  x2:0xfffff9e3 x16=0xfffffe2d
       40745000	      4073	80002924	0038dd33	srl	x26,x17,x3	 x17:0x80000000  x3:0x80009f48 x26=0x00800000
       40755000	      4074	80002928	02c0ca63	blt	x1,x12,8000295c	  x1:0xfffffff5 x12:0xa15e4cb0
       40765000	      4075	8000292c	b8f8bf93	sltiu	x31,x17,-1137	 x17:0x80000000 x31=0x00000001
       40775000	      4076	80002930	00291e13	slli	x28,x18,0x2	 x18:0x7c86b600 x28=0xf21ad800
       40785000	      4077	80002934	41b90633	sub	x12,x18,x27	 x18:0x7c86b600 x27:0x80009f49 x12=0xfc8616b7
       40795000	      4078	80002938	01ae9463	bne	x29,x26,80002940	 x29:0x00000000 x26:0x00800000
       40805000	      4079	00000000	00000013	addi	x0,x0,0	  x0:0x00000000
       40815000	      4080	8000293c	00000013	addi	x0,x0,0	  x0:0x00000000
       40825000	      4081	80002940	04045063	bge	x8,x0,80002980	  x8:0x80009f48  x0:0x00000000
       40835000	      4082	80002944	0112c263	blt	x5,x17,80002948	  x5:0x0009f480 x17:0x80000000
       40845000	      4083	80002948	d1fe3593	sltiu	x11,x28,-737	 x28:0xf21ad800 x11=0x00000001
       40855000	      4084	8000294c	05600663	beq	x0,x22,80002998	  x0:0x00000000 x22:0x00000210
       40865000	      4085	80002950	003dc033	xor	x0,x27,x3	 x27:0x80009f49  x3:0x80009f48
       40875000	      4086	80002954	00cad813	srli	x16,x21,0xc	 x21:0x10047864 x16=0x00010047
       40885000	      4087	80002958	5f21e493	ori	x9,x3,1522	  x3:0x80009f48  x9=0x80009ffa
       40895000	      4088	8000295c	27d63013	sltiu	x0,x12,637	 x12:0xfc8616b7
       40905000	      4089	80002960	011edfb3	srl	x31,x29,x17	 x29:0x00000000 x17:0x80000000 x31=0x00000000
       40915000	      4090	80002964	003787b3	add	x15,x15,x3	 x15:0x00000000  x3:0x80009f48 x15=0x80009f48
       40925000	      4091	80002968	01e4da93	srli	x21,x9,0x1e	  x9:0x80009ffa x21=0x00000002
       40935000	      4092	8000296c	40655d33	sra	x26,x10,x6	 x10:0x7fff603c  x6:0x0000000e x26=0x0001fffd
       40945000	      4093	80002970	4d98bc13	sltiu	x24,x17,1241	 x17:0x80000000 x24=0x00000000
       40955000	      4094	80002974	6778e793	ori	x15,x17,1655	 x17:0x80000000 x15=0x80000677
       40965000	      4095	80002978	00078c63	beq	x15,x0,80002990	 x15:0x80000677  x0:0x00000000
       40975000	      4096	8000297c	50277213	andi	x4,x14,1282	 x14:0xf7760914  x4=0x00000100
       40985000	      4097	80002980	12494c13	xori	x24,x18,292	 x18:0x7c86b600 x24=0x7c86b724
       40995000	      4098	80002984	003ed113	srli	x2,x29,0x3	 x29:0x00000000  x2=0x00000000
       41005000	      4099	80002988	5b6a2293	slti	x5,x20,1462	 x20:0xa15e4cb0  x5=0x00000001
       41015000	      4100	8000298c	0048ff33	and	x30,x17,x4	 x17:0x80000000  x4:0x00000100 x30=0x00000000
       41025000	      4101	80002990	00dbceb3	xor	x29,x23,x13	 x23:0x00000000 x13:0x00000000 x29=0x00000000
       41035000	      4102	80002994	0029c7b3	xor	x15,x19,x2	 x19:0x00000000  x2:0x00000000 x15=0x00000000
       41045000	      4103	80002998	01dd1263	bne	x26,x29,8000299c	 x26:0x0001fffd x29:0x00000000
       41055000	      4104	00000000	00000013	addi	x0,x0,0	  x0:0x00000000
       41065000	      4105	80002998	00000013	addi	x0,x0,0	  x0:0x00000000
       41075000	      4106	8000299c	00179533	sll	x10,x15,x1	 x15:0x00000000  x1:0xfffffff5 x10=0x00000000
       41085000	      4107	800029a0	297c3793	sltiu	x15,x24,663	 x24:0x7c86b724 x15=0x00000000
       41095000	      4108	800029a4	41eb52b3	sra	x5,x22,x30	 x22:0x00000210 x30:0x00000000  x5=0x00000210
       41105000	      4109	800029a8	000465b3	or	x11,x8,x0	  x8:0x80009f48  x0:0x00000000 x11=0x80009f48
       41115000	      4110	800029ac	9f2ca193	slti	x3,x25,-1550	 x25:0xa15e4cb0  x3=0x00000001
       41125000	      4111	800029b0	00ac0663	beq	x24,x10,800029bc	 x24:0x7c86b724 x10:0x00000000
       41135000	      4112	800029b4	0140c663	blt	x1,x20,800029c0	  x1:0xfffffff5 x20:0xa15e4cb0
       41145000	      4113	800029b8	a0a46513	ori	x10,x8,-1526	  x8:0x80009f48 x10=0xffffff4a
       41155000	      4114	800029bc	4177dd33	sra	x26,x15,x23	 x15:0x00000000 x23:0x00000000 x26=0x00000000
       41165000	      4115	800029c0	2ff58913	addi	x18,x11,767	 x11:0x80009f48 x18=0x8000a247
       41175000	      4116	800029c4	98dd6313	ori	x6,x26,-1651	 x26:0x00000000  x6=0xfffff98d
       41185000	      4117	800029c8	00af4fb3	xor	x31,x30,x10	 x30:0x00000000 x10:0xffffff4a x31=0xffffff4a
       41195000	      4118	800029cc	01ff0eb3	add	x29,x30,x31	 x30:0x00000000 x31:0xffffff4a x29=0xffffff4a
       41205000	      4119	800029d0	03efd063	bge	x31,x30,800029f0	 x31:0xffffff4a x30:0x00000000
       41215000	      4120	800029d4	01bc7933	and	x18,x24,x27	 x24:0x7c86b724 x27:0x80009f49 x18=0x00009700
       41225000	      4121	800029d8	4012d9b3	sra	x19,x5,x1	  x5:0x00000210  x1:0xfffffff5 x19=0x00000000
       41235000	      4122	800029dc	017452b3	srl	x5,x8,x23	  x8:0x80009f48 x23:0x00000000  x5=0x80009f48
       41245000	      4123	800029e0	01f4d213	srli	x4,x9,0x1f	  x9:0x80009ffa  x4=0x00000001
       41255000	      4124	800029e4	00536133	or	x2,x6,x5	  x6:0xfffff98d  x5:0x80009f48  x2=0xffffffcd
       41265000	      4125	800029e8	00e1e033	or	x0,x3,x14	  x3:0x00000001 x14:0xf7760914
       41275000	      4126	800029ec	02a11463	bne	x2,x10,80002a14	  x2:0xffffffcd x10:0xffffff4a
       41285000	      4127	00000000	00000013	addi	x0,x0,0	  x0:0x00000000
       41295000	      4128	80002a10	00000013	addi	x0,x0,0	  x0:0x00000000
       41305000	      4129	80002a14	b7a8eab7	lui	x21,0xb7a8e	 x21=0xb7a8e000
       41315000	      4130	80002a18	5ab48813	addi	x16,x9,1451	  x9:0x80009ffa x16=0x8000a5a5
       41325000	      4131	80002a1c	00eecbb3	xor	x23,x29,x14	 x29:0xffffff4a x14:0xf7760914 x23=0x0889f65e
       41335000	      4132	80002a20	000028b3	slt	x17,x0,x0	  x0:0x00000000  x0:0x00000000 x17=0x00000000
       41345000	      4133	80002a24	00b938b3	sltu	x17,x18,x11	 x18:0x00009700 x11:0x80009f48 x17=0x00000001
       41355000	      4134	80002a28	01427bb3	and	x23,x4,x20	  x4:0x00000001 x20:0xa15e4cb0 x23=0x00000000
       41365000	      4135	80002a2c	40b85933	sra	x18,x16,x11	 x16:0x8000a5a5 x11:0x80009f48 x18=0xff8000a5
       41375000	      4136	80002a30	40f9deb3	sra	x29,x19,x15	 x19:0x00000000 x15:0x00000000 x29=0x00000000
       41385000	      4137	80002a34	ed348c13	addi	x24,x9,-301	  x9:0x80009ffa x24=0x80009ecd
       41395000	      4138	80002a38	00f788b3	add	x17,x15,x15	 x15:0x00000000 x15:0x00000000 x17=0x00000000
       41405000	      4139	80002a3c	002409b3	add	x19,x8,x2	  x8:0x80009f48  x2:0xffffffcd x19=0x80009f15
       41415000	      4140	80002a40	01cbf6b3	and	x13,x23,x28	 x23:0x00000000 x28:0xf21ad800 x13=0x00000000
       41425000	      4141	80002a44	009a9833	sll	x16,x21,x9	 x21:0xb7a8e000  x9:0x80009ffa x16=0x00000000
       41435000	      4142	80002a48	4efa0e13	addi	x28,x20,1263	 x20:0xa15e4cb0 x28=0xa15e519f
       41445000	      4143	80002a4c	2d903e93	sltiu	x29,x0,729	  x0:0x00000000 x29=0x00000001
       41455000	      4144	80002a50	01c75b33	srl	x22,x14,x28	 x14:0xf7760914 x28:0xa15e519f x22=0x00000001
       41465000	      4145	80002a54	0695d517	auipc	x10,0x695d	 x10=0x8695fa50
       41475000	      4146	80002a58	7bd8f213	andi	x4,x17,1981	 x17:0x00000000  x4=0x00000000
       41485000	      4147	80002a5c	04bec863	blt	x29,x11,80002aac	 x29:0x00000001 x11:0x80009f48
       41495000	      4148	80002a60	40590ab3	sub	x21,x18,x5	 x18:0xff8000a5  x5:0x80009f48 x21=0x7f7f615d
       41505000	      4149	80002a64	05191663	bne	x18,x17,80002ab0	 x18:0xff8000a5 x17:0x00000000
       41515000	      4150	00000000	00000013	addi	x0,x0,0	  x0:0x00000000
       41525000	      4151	80002aac	00000013	addi	x0,x0,0	  x0:0x00000000
       41535000	      4152	80002ab0	885cf317	auipc	x6,0x885cf	  x6=0x085d1aac
       41545000	      4153	80002ab4	00000013	addi	x0,x0,0	  x0:0x00000000
       41555000	      4154	80002ab8	66c62713	slti	x14,x12,1644	 x12:0xfc8616b7 x14=0x00000001
       41565000	      4155	80002abc	02976c63	bltu	x14,x9,80002af4	 x14:0x00000001  x9:0x80009ffa
       41575000	      4156	00000000	00000013	addi	x0,x0,0	  x0:0x00000000
       41585000	      4157	80002af0	00000013	addi	x0,x0,0	  x0:0x00000000
       41595000	      4158	80002af4	40005713	srai	x14,x0,0x0	  x0:0x00000000 x14=0x00000000
       41605000	      4159	80002af8	0242de63	bge	x5,x4,80002b34	  x5:0x80009f48  x4:0x00000000
       41615000	      4160	80002afc	001eefb3	or	x31,x29,x1	 x29:0x00000001  x1:0xfffffff5 x31=0xfffffff5
       41625000	      4161	80002b00	013b80b3	add	x1,x23,x19	 x23:0x00000000 x19:0x80009f15  x1=0x80009f15
       41635000	      4162	80002b04	3f724c93	xori	x25,x4,1015	  x4:0x00000000 x25=0x000003f7
       41645000	      4163	80002b08	d810b1b7	lui	x3,0xd810b	  x3=0xd810b000
       41655000	      4164	80002b0c	00000013	addi	x0,x0,0	  x0:0x00000000
       41665000	      4165	80002b10	40365333	sra	x6,x12,x3	 x12:0xfc8616b7  x3:0xd810b000  x6=0xfc8616b7
       41675000	      4166	80002b14	01a75913	srli	x18,x14,0x1a	 x14:0x00000000 x18=0x00000000
       41685000	      4167	80002b18	01c112b3	sll	x5,x2,x28	  x2:0xffffffcd x28:0xa15e519f  x5=0x80000000
       41695000	      4168	80002b1c	1b89c213	xori	x4,x19,440	 x19:0x80009f15  x4=0x80009ead
       41705000	      4169	80002b20	00fc7bb3	and	x23,x24,x15	 x24:0x80009ecd x15:0x00000000 x23=0x00000000
       41715000	      4170	80002b24	486cfab7	lui	x21,0x486cf	 x21=0x486cf000
       41725000	      4171	80002b28	00ad1e33	sll	x28,x26,x10	 x26:0x00000000 x10:0x8695fa50 x28=0x00000000
       41735000	      4172	80002b2c	018b9c93	slli	x25,x23,0x18	 x23:0x00000000 x25=0x00000000
       41745000	      4173	80002b30	02415c63	bge	x2,x4,80002b68	  x2:0xffffffcd  x4:0x80009ead
       41755000	      4174	00000000	00000013	addi	x0,x0,0	  x0:0x00000000
       41765000	      4175	80002b64	00000013	addi	x0,x0,0	  x0:0x00000000
       41775000	      4176	80002b68	00e8c333	xor	x6,x17,x14	 x17:0x00000000 x14:0x00000000  x6=0x00000000
       41785000	      4177	80002b6c	00a4d313	srli	x6,x9,0xa	  x9:0x80009ffa  x6=0x00200027
       41795000	      4178	80002b70	016bc663	blt	x23,x22,80002b7c	 x23:0x00000000 x22:0x00000001
       41805000	      4179	00000000	00000013	addi	x0,x0,0	  x0:0x00000000
       41815000	      4180	80002b78	00000013	addi	x0,x0,0	  x0:0x00000000
       41825000	      4181	80002b7c	40a284b3	sub	x9,x5,x10	  x5:0x80000000 x10:0x8695fa50  x9=0xf96a05b0
       41835000	      4182	80002b80	0312f063	bgeu	x5,x17,80002ba0	  x5:0x80000000 x17:0x00000000
       41845000	      4183	00000000	00000013	addi	x0,x0,0	  x0:0x00000000
       41855000	      4184	80002b9c	00000013	addi	x0,x0,0	  x0:0x00000000
       41865000	      4185	80002ba0	0b007f13	andi	x30,x0,176	  x0:0x00000000 x30=0x00000000
       41875000	      4186	80002ba4	002122b3	slt	x5,x2,x2	  x2:0xffffffcd  x2:0xffffffcd  x5=0x00000000
       41885000	      4187	80002ba8	01541813	slli	x16,x8,0x15	  x8:0x80009f48 x16=0xe9000000
       41895000	      4188	80002bac	0713b813	sltiu	x16,x7,113	  x7:0x80009fc4 x16=0x00000000
       41905000	      4189	80002bb0	007207b3	add	x15,x4,x7	  x4:0x80009ead  x7:0x80009fc4 x15=0x00013e71
       41915000	      4190	80002bb4	008dc263	blt	x27,x8,80002bb8	 x27:0x80009f49  x8:0x80009f48
       41925000	      4191	80002bb8	01538263	beq	x7,x21,80002bbc	  x7:0x80009fc4 x21:0x486cf000
       41935000	      4192	80002bbc	007e1a63	bne	x28,x7,80002bd0	 x28:0x00000000  x7:0x80009fc4
       41945000	      4193	00000000	00000013	addi	x0,x0,0	  x0:0x00000000
       41955000	      4194	80002bcc	00000013	addi	x0,x0,0	  x0:0x00000000
       41965000	      4195	80002bd0	02ff9463	bne	x31,x15,80002bf8	 x31:0xfffffff5 x15:0x00013e71
       41975000	      4196	00000000	00000013	addi	x0,x0,0	  x0:0x00000000
       41985000	      4197	80002bf4	00000013	addi	x0,x0,0	  x0:0x00000000
       41995000	      4198	80002bf8	05aa5663	bge	x20,x26,80002c44	 x20:0xa15e4cb0 x26:0x00000000
       42005000	      4199	80002bfc	00829133	sll	x2,x5,x8	  x5:0x00000000  x8:0x80009f48  x2=0x00000000
       42015000	      4200	80002c00	00092033	slt	x0,x18,x0	 x18:0x00000000  x0:0x00000000
       42025000	      4201	80002c04	057be063	bltu	x23,x23,80002c44	 x23:0x00000000 x23:0x00000000
       42035000	      4202	80002c08	01ce8bb3	add	x23,x29,x28	 x29:0x00000001 x28:0x00000000 x23=0x00000001
       42045000	      4203	80002c0c	00a4b5b3	sltu	x11,x9,x10	  x9:0xf96a05b0 x10:0x8695fa50 x11=0x00000000
       42055000	      4204	80002c10	c0f94c13	xori	x24,x18,-1009	 x18:0x00000000 x24=0xfffffc0f
       42065000	      4205	80002c14	77b42e93	slti	x29,x8,1915	  x8:0x80009f48 x29=0x00000001
       42075000	      4206	80002c18	01620f33	add	x30,x4,x22	  x4:0x80009ead x22:0x00000001 x30=0x80009eae
       42085000	      4207	80002c1c	0080a933	slt	x18,x1,x8	  x1:0x80009f15  x8:0x80009f48 x18=0x00000001
       42095000	      4208	80002c20	00b80fb3	add	x31,x16,x11	 x16:0x00000000 x11:0x00000000 x31=0x00000000
       42105000	      4209	80002c24	1c445817	auipc	x16,0x1c445	 x16=0x9c447c20
       42115000	      4210	80002c28	03a10863	beq	x2,x26,80002c58	  x2:0x00000000 x26:0x00000000
       42125000	      4211	00000000	00000013	addi	x0,x0,0	  x0:0x00000000
       42135000	      4212	80002c54	00000013	addi	x0,x0,0	  x0:0x00000000
       42145000	      4213	80002c58	05a1c863	blt	x3,x26,80002ca8	  x3:0xd810b000 x26:0x00000000
       42155000	      4214	00000000	00000013	addi	x0,x0,0	  x0:0x00000000
       42165000	      4215	80002ca4	00000013	addi	x0,x0,0	  x0:0x00000000
       42175000	      4216	80002ca8	c30bf0b7	lui	x1,0xc30bf	  x1=0xc30bf000
       42185000	      4217	80002cac	0177b9b3	sltu	x19,x15,x23	 x15:0x00013e71 x23:0x00000001 x19=0x00000000
       42195000	      4218	80002cb0	009c5f93	srli	x31,x24,0x9	 x24:0xfffffc0f x31=0x007ffffe
       42205000	      4219	80002cb4	41778233	sub	x4,x15,x23	 x15:0x00013e71 x23:0x00000001  x4=0x00013e70
       42215000	      4220	80002cb8	00ac9633	sll	x12,x25,x10	 x25:0x00000000 x10:0x8695fa50 x12=0x00000000
       42225000	      4221	80002cbc	014de2b3	or	x5,x27,x20	 x27:0x80009f49 x20:0xa15e4cb0  x5=0xa15edff9
       42235000	      4222	80002cc0	056b9663	bne	x23,x22,80002d0c	 x23:0x00000001 x22:0x00000001
       42245000	      4223	80002cc4	0544e263	bltu	x9,x20,80002d08	  x9:0xf96a05b0 x20:0xa15e4cb0
       42255000	      4224	80002cc8	01300cb3	add	x25,x0,x19	  x0:0x00000000 x19:0x00000000 x25=0x00000000
       42265000	      4225	80002ccc	947c7993	andi	x19,x24,-1721	 x24:0xfffffc0f x19=0xfffff807
       42275000	      4226	80002cd0	8623c513	xori	x10,x7,-1950	  x7:0x80009fc4 x10=0x7fff67a6
       42285000	      4227	80002cd4	d24cc013	xori	x0,x25,-732	 x25:0x00000000
       42295000	      4228	80002cd8	0282fe63	bgeu	x5,x8,80002d14	  x5:0xa15edff9  x8:0x80009f48
       42305000	      4229	00000000	00000013	addi	x0,x0,0	  x0:0x00000000
       42315000	      4230	80002d10	00000013	addi	x0,x0,0	  x0:0x00000000
       42325000	      4231	80002d14	4dc9c813	xori	x16,x19,1244	 x19:0xfffff807 x16=0xfffffcdb
       42335000	      4232	80002d18	01763f33	sltu	x30,x12,x23	 x12:0x00000000 x23:0x00000001 x30=0x00000001
       42345000	      4233	80002d1c	00e85c63	bge	x16,x14,80002d34	 x16:0xfffffcdb x14:0x00000000
       42355000	      4234	80002d20	4133d933	sra	x18,x7,x19	  x7:0x80009fc4 x19:0xfffff807 x18=0xff00013f
       42365000	      4235	80002d24	00f9d233	srl	x4,x19,x15	 x19:0xfffff807 x15:0x00013e71  x4=0x00007fff
       42375000	      4236	80002d28	014c3ab3	sltu	x21,x24,x20	 x24:0xfffffc0f x20:0xa15e4cb0 x21=0x00000000
       42385000	      4237	80002d2c	01838663	beq	x7,x24,80002d38	  x7:0x80009fc4 x24:0xfffffc0f
       42395000	      4238	80002d30	40f188b3	sub	x17,x3,x15	  x3:0xd810b000 x15:0x00013e71 x17=0xd80f718f
       42405000	      4239	80002d34	41055533	sra	x10,x10,x16	 x10:0x7fff67a6 x16:0xfffffcdb x10=0x0000000f
       42415000	      4240	80002d38	416588b3	sub	x17,x11,x22	 x11:0x00000000 x22:0x00000001 x17=0xffffffff
       42425000	      4241	80002d3c	4152d113	srai	x2,x5,0x15	  x5:0xa15edff9  x2=0xfffffd0a
       42435000	      4242	80002d40	41448db3	sub	x27,x9,x20	  x9:0xf96a05b0 x20:0xa15e4cb0 x27=0x580bb900
       42445000	      4243	80002d44	005539b3	sltu	x19,x10,x5	 x10:0x0000000f  x5:0xa15edff9 x19=0x00000001
       42455000	      4244	80002d48	3c5de713	ori	x14,x27,965	 x27:0x580bb900 x14=0x580bbbc5
       42465000	      4245	80002d4c	02c68d13	addi	x26,x13,44	 x13:0x00000000 x26=0x0000002c
       42475000	      4246	80002d50	00a01b93	slli	x23,x0,0xa	  x0:0x00000000 x23=0x00000000
       42485000	      4247	80002d54	01842fb3	slt	x31,x8,x24	  x8:0x80009f48 x24:0xfffffc0f x31=0x00000001
       42495000	      4248	80002d58	41622097	auipc	x1,0x41622	  x1=0xc1624d54
       42505000	      4249	80002d5c	0107d733	srl	x14,x15,x16	 x15:0x00013e71 x16:0xfffffcdb x14=0x00000000
       42515000	      4250	80002d60	00cadeb3	srl	x29,x21,x12	 x21:0x00000000 x12:0x00000000 x29=0x00000000
       42525000	      4251	80002d64	b1c314b7	lui	x9,0xb1c31	  x9=0xb1c31000
       42535000	      4252	80002d68	01962533	slt	x10,x12,x25	 x12:0x00000000 x25:0x00000000 x10=0x00000000
       42545000	      4253	80002d6c	04d75863	bge	x14,x13,80002dbc	 x14:0x00000000 x13:0x00000000
       42555000	      4254	00000000	00000013	addi	x0,x0,0	  x0:0x00000000
       42565000	      4255	80002db8	00000013	addi	x0,x0,0	  x0:0x00000000
       42575000	      4256	80002dbc	4090df93	srai	x31,x1,0x9	  x1:0xc1624d54 x31=0xffe0b126
       42585000	      4257	80002dc0	0103dc13	srli	x24,x7,0x10	  x7:0x80009fc4 x24=0x00008000
       42595000	      4258	80002dc4	401f5493	srai	x9,x30,0x1	 x30:0x00000001  x9=0x00000000
       42605000	      4259	80002dc8	40a78233	sub	x4,x15,x10	 x15:0x00013e71 x10:0x00000000  x4=0x00013e71
       42615000	      4260	80002dcc	63176793	ori	x15,x14,1585	 x14:0x00000000 x15=0x00000631
       42625000	      4261	80002dd0	018f06b3	add	x13,x30,x24	 x30:0x00000001 x24:0x00008000 x13=0x00008001
       42635000	      4262	80002dd4	cc698b93	addi	x23,x19,-826	 x19:0x00000001 x23=0xfffffcc7
       42645000	      4263	80002dd8	014a4733	xor	x14,x20,x20	 x20:0xa15e4cb0 x20:0xa15e4cb0 x14=0x00000000
       42655000	      4264	80002ddc	68cd4137	lui	x2,0x68cd4	  x2=0x68cd4000
       42665000	      4265	80002de0	41bb8f33	sub	x30,x23,x27	 x23:0xfffffcc7 x27:0x580bb900 x30=0xa7f443c7
       42675000	      4266	80002de4	00990463	beq	x18,x9,80002dec	 x18:0xff00013f  x9:0x00000000
       42685000	      4267	80002de8	20a5bd93	sltiu	x27,x11,522	 x11:0x00000000 x27=0x00000001
       42695000	      4268	80002dec	010bc463	blt	x23,x16,80002df4	 x23:0xfffffcc7 x16:0xfffffcdb
       42705000	      4269	00000000	00000013	addi	x0,x0,0	  x0:0x00000000
       42715000	      4270	80002df0	00000013	addi	x0,x0,0	  x0:0x00000000
       42725000	      4271	80002df4	007d5fb3	srl	x31,x26,x7	 x26:0x0000002c  x7:0x80009fc4 x31=0x00000002
       42735000	      4272	80002df8	84785137	lui	x2,0x84785	  x2=0x84785000
       42745000	      4273	80002dfc	012f5f33	srl	x30,x30,x18	 x30:0xa7f443c7 x18:0xff00013f x30=0x00000001
       42755000	      4274	80002e00	00357933	and	x18,x10,x3	 x10:0x00000000  x3:0xd810b000 x18=0x00000000
       42765000	      4275	80002e04	00c2cb33	xor	x22,x5,x12	  x5:0xa15edff9 x12:0x00000000 x22=0xa15edff9
       42775000	      4276	80002e08	41fb5593	srai	x11,x22,0x1f	 x22:0xa15edff9 x11=0xffffffff
       42785000	      4277	80002e0c	147d7c13	andi	x24,x26,327	 x26:0x0000002c x24=0x00000004
       42795000	      4278	80002e10	40915593	srai	x11,x2,0x9	  x2:0x84785000 x11=0xffc23c28
       42805000	      4279	80002e14	027c0463	beq	x24,x7,80002e3c	 x24:0x00000004  x7:0x80009fc4
       42815000	      4280	80002e18	0063e5b3	or	x11,x7,x6	  x7:0x80009fc4  x6:0x00200027 x11=0x80209fe7
       42825000	      4281	80002e1c	0018b2b3	sltu	x5,x17,x1	 x17:0xffffffff  x1:0xc1624d54  x5=0x00000000
       42835000	      4282	80002e20	00bb7cb3	and	x25,x22,x11	 x22:0xa15edff9 x11:0x80209fe7 x25=0x80009fe1
       42845000	      4283	80002e24	03ee4c63	blt	x28,x30,80002e5c	 x28:0x00000000 x30:0x00000001
       42855000	      4284	00000000	00000013	addi	x0,x0,0	  x0:0x00000000
       42865000	      4285	80002e58	00000013	addi	x0,x0,0	  x0:0x00000000
       42875000	      4286	80002e5c	00f28b33	add	x22,x5,x15	  x5:0x00000000 x15:0x00000631 x22=0x00000631
       42885000	      4287	80002e60	41addc33	sra	x24,x27,x26	 x27:0x00000001 x26:0x0000002c x24=0x00000000
       42895000	      4288	80002e64	00000013	addi	x0,x0,0	  x0:0x00000000
       42905000	      4289	80002e68	c5862e13	slti	x28,x12,-936	 x12:0x00000000 x28=0x00000000
       42915000	      4290	80002e6c	0181efb3	or	x31,x3,x24	  x3:0xd810b000 x24:0x00000000 x31=0xd810b000
       42925000	      4291	80002e70	01de5613	srli	x12,x28,0x1d	 x28:0x00000000 x12=0x00000000
       42935000	      4292	80002e74	d7048993	addi	x19,x9,-656	  x9:0x00000000 x19=0xfffffd70
       42945000	      4293	80002e78	00000013	addi	x0,x0,0	  x0:0x00000000
       42955000	      4294	80002e7c	32956513	ori	x10,x10,809	 x10:0x00000000 x10=0x00000329
       42965000	      4295	80002e80	0584b893	sltiu	x17,x9,88	  x9:0x00000000 x17=0x00000001
       42975000	      4296	80002e84	01ecda93	srli	x21,x25,0x1e	 x25:0x80009fe1 x21=0x00000002
       42985000	      4297	80002e88	0070d7b3	srl	x15,x1,x7	  x1:0xc1624d54  x7:0x80009fc4 x15=0x0c1624d5
       42995000	      4298	80002e8c	40995e33	sra	x28,x18,x9	 x18:0x00000000  x9:0x00000000 x28=0x00000000
       43005000	      4299	80002e90	009c9263	bne	x25,x9,80002e94	 x25:0x80009fe1  x9:0x00000000
       43015000	      4300	00000000	00000013	addi	x0,x0,0	  x0:0x00000000
       43025000	      4301	80002e90	00000013	addi	x0,x0,0	  x0:0x00000000
       43035000	      4302	80002e94	0145dfb3	srl	x31,x11,x20	 x11:0x80209fe7 x20:0xa15e4cb0 x31=0x00008020
       43045000	      4303	80002e98	04d71663	bne	x14,x13,80002ee4	 x14:0x00000000 x13:0x00008001
       43055000	      4304	00000000	00000013	addi	x0,x0,0	  x0:0x00000000
       43065000	      4305	80002ee0	00000013	addi	x0,x0,0	  x0:0x00000000
       43075000	      4306	80002ee4	00a65d13	srli	x26,x12,0xa	 x12:0x00000000 x26=0x00000000
       43085000	      4307	80002ee8	0062f533	and	x10,x5,x6	  x5:0x00000000  x6:0x00200027 x10=0x00000000
       43095000	      4308	80002eec	022b5863	bge	x22,x2,80002f1c	 x22:0x00000631  x2:0x84785000
       43105000	      4309	00000000	00000013	addi	x0,x0,0	  x0:0x00000000
       43115000	      4310	80002f18	00000013	addi	x0,x0,0	  x0:0x00000000
       43125000	      4311	80002f1c	013b6db3	or	x27,x22,x19	 x22:0x00000631 x19:0xfffffd70 x27=0xffffff71
       43135000	      4312	80002f20	010c2cb3	slt	x25,x24,x16	 x24:0x00000000 x16:0xfffffcdb x25=0x00000000
       43145000	      4313	80002f24	00000013	addi	x0,x0,0	  x0:0x00000000
       43155000	      4314	80002f28	40a5de13	srai	x28,x11,0xa	 x11:0x80209fe7 x28=0xffe00827
       43165000	      4315	80002f2c	00e2acb3	slt	x25,x5,x14	  x5:0x00000000 x14:0x00000000 x25=0x00000000
       43175000	      4316	80002f30	4113dcb3	sra	x25,x7,x17	  x7:0x80009fc4 x17:0x00000001 x25=0xc0004fe2
       43185000	      4317	80002f34	2a6fe713	ori	x14,x31,678	 x31:0x00008020 x14=0x000082a6
       43195000	      4318	80002f38	0008d493	srli	x9,x17,0x0	 x17:0x00000001  x9=0x00000001
       43205000	      4319	80002f3c	01d78fb3	add	x31,x15,x29	 x15:0x0c1624d5 x29:0x00000000 x31=0x0c1624d5
       43215000	      4320	80002f40	007d5713	srli	x14,x26,0x7	 x26:0x00000000 x14=0x00000000
       43225000	      4321	80002f44	dffba6b7	lui	x13,0xdffba	 x13=0xdffba000
       43235000	      4322	80002f48	40b50fb3	sub	x31,x10,x11	 x10:0x00000000 x11:0x80209fe7 x31=0x7fdf6019
       43245000	      4323	80002f4c	1b560493	addi	x9,x12,437	 x12:0x00000000  x9=0x000001b5
       43255000	      4324	80002f50	003fcb33	xor	x22,x31,x3	 x31:0x7fdf6019  x3:0xd810b000 x22=0xa7cfd019
       43265000	      4325	80002f54	0081e733	or	x14,x3,x8	  x3:0xd810b000  x8:0x80009f48 x14=0xd810bf48
       43275000	      4326	80002f58	0159dbb3	srl	x23,x19,x21	 x19:0xfffffd70 x21:0x00000002 x23=0x3fffff5c
       43285000	      4327	80002f5c	e0974b93	xori	x23,x14,-503	 x14:0xd810bf48 x23=0x27ef4141
       43295000	      4328	80002f60	404dd8b3	sra	x17,x27,x4	 x27:0xffffff71  x4:0x00013e71 x17=0xffffffff
       43305000	      4329	80002f64	aa2d4713	xori	x14,x26,-1374	 x26:0x00000000 x14=0xfffffaa2
       43315000	      4330	80002f68	f696c717	auipc	x14,0xf696c	 x14=0x7696ef64
       43325000	      4331	80002f6c	01a24fb3	xor	x31,x4,x26	  x4:0x00013e71 x26:0x00000000 x31=0x00013e71
       43335000	      4332	80002f70	01449f33	sll	x30,x9,x20	  x9:0x000001b5 x20:0xa15e4cb0 x30=0x01b50000
       43345000	      4333	80002f74	03467e63	bgeu	x12,x20,80002fb0	 x12:0x00000000 x20:0xa15e4cb0
       43355000	      4334	80002f78	01955663	bge	x10,x25,80002f84	 x10:0x00000000 x25:0xc0004fe2
       43365000	      4335	00000000	00000013	addi	x0,x0,0	  x0:0x00000000
       43375000	      4336	80002f80	00000013	addi	x0,x0,0	  x0:0x00000000
       43385000	      4337	80002f84	015ef463	bgeu	x29,x21,80002f8c	 x29:0x00000000 x21:0x00000002
       43395000	      4338	80002f88	0129f133	and	x2,x19,x18	 x19:0xfffffd70 x18:0x00000000  x2=0x00000000
       43405000	      4339	80002f8c	012c9213	slli	x4,x25,0x12	 x25:0xc0004fe2  x4=0x3f880000
       43415000	      4340	80002f90	0049beb3	sltu	x29,x19,x4	 x19:0xfffffd70  x4:0x3f880000 x29=0x00000000
       43425000	      4341	80002f94	054ec263	blt	x29,x20,80002fd8	 x29:0x00000000 x20:0xa15e4cb0
       43435000	      4342	80002f98	410c5913	srai	x18,x24,0x10	 x24:0x00000000 x18=0x00000000
       43445000	      4343	80002f9c	00243ab3	sltu	x21,x8,x2	  x8:0x80009f48  x2:0x00000000 x21=0x00000000
       43455000	      4344	80002fa0	40960e33	sub	x28,x12,x9	 x12:0x00000000  x9:0x000001b5 x28=0xfffffe4b
       43465000	      4345	80002fa4	01ef7663	bgeu	x30,x30,80002fb0	 x30:0x01b50000 x30:0x01b50000
       43475000	      4346	00000000	00000013	addi	x0,x0,0	  x0:0x00000000
       43485000	      4347	80002fac	00000013	addi	x0,x0,0	  x0:0x00000000
       43495000	      4348	80002fb0	01653333	sltu	x6,x10,x22	 x10:0x00000000 x22:0xa7cfd019  x6=0x00000001
       43505000	      4349	80002fb4	00984263	blt	x16,x9,80002fb8	 x16:0xfffffcdb  x9:0x000001b5
       43515000	      4350	00000000	00000013	addi	x0,x0,0	  x0:0x00000000
       43525000	      4351	80002fb4	00000013	addi	x0,x0,0	  x0:0x00000000
       43535000	      4352	80002fb8	0c49c663	blt	x19,x4,80003084	 x19:0xfffffd70  x4:0x3f880000
       43545000	      4353	00000000	00000013	addi	x0,x0,0	  x0:0x00000000
       43555000	      4354	80003080	00000013	addi	x0,x0,0	  x0:0x00000000
       43565000	      4355	80003084	4074dd33	sra	x26,x9,x7	  x9:0x000001b5  x7:0x80009fc4 x26=0x0000001b
       43575000	      4356	80003088	00729813	slli	x16,x5,0x7	  x5:0x00000000 x16=0x00000000
       43585000	      4357	8000308c	01b09633	sll	x12,x1,x27	  x1:0xc1624d54 x27:0xffffff71 x12=0x9aa80000
       43595000	      4358	80003090	009641b3	xor	x3,x12,x9	 x12:0x9aa80000  x9:0x000001b5  x3=0x9aa801b5
       43605000	      4359	80003094	010a5263	bge	x20,x16,80003098	 x20:0xa15e4cb0 x16:0x00000000
       43615000	      4360	80003098	b50eb613	sltiu	x12,x29,-1200	 x29:0x00000000 x12=0x00000001
       43625000	      4361	8000309c	016cfbb3	and	x23,x25,x22	 x25:0xc0004fe2 x22:0xa7cfd019 x23=0x80004000
       43635000	      4362	800030a0	04eff993	andi	x19,x31,78	 x31:0x00013e71 x19=0x00000040
       43645000	      4363	800030a4	368c4037	lui	x0,0x368c4	
       43655000	      4364	800030a8	04399663	bne	x19,x3,800030f4	 x19:0x00000040  x3:0x9aa801b5
       43665000	      4365	00000000	00000013	addi	x0,x0,0	  x0:0x00000000
       43675000	      4366	800030f0	00000013	addi	x0,x0,0	  x0:0x00000000
       43685000	      4367	800030f4	00125db3	srl	x27,x4,x1	  x4:0x3f880000  x1:0xc1624d54 x27=0x000003f8
       43695000	      4368	800030f8	00247033	and	x0,x8,x2	  x8:0x80009f48  x2:0x00000000
       43705000	      4369	800030fc	01a352b3	srl	x5,x6,x26	  x6:0x00000001 x26:0x0000001b  x5=0x00000000
       43715000	      4370	80003100	00915993	srli	x19,x2,0x9	  x2:0x00000000 x19=0x00000000
       43725000	      4371	80003104	00000013	addi	x0,x0,0	  x0:0x00000000
       43735000	      4372	80003108	01635bb3	srl	x23,x6,x22	  x6:0x00000001 x22:0xa7cfd019 x23=0x00000000
       43745000	      4373	8000310c	00224633	xor	x12,x4,x2	  x4:0x3f880000  x2:0x00000000 x12=0x3f880000
       43755000	      4374	80003110	019af633	and	x12,x21,x25	 x21:0x00000000 x25:0xc0004fe2 x12=0x00000000
       43765000	      4375	80003114	e0d7c737	lui	x14,0xe0d7c	 x14=0xe0d7c000
       43775000	      4376	80003118	01d7a233	slt	x4,x15,x29	 x15:0x0c1624d5 x29:0x00000000  x4=0x00000000
       43785000	      4377	8000311c	00000013	addi	x0,x0,0	  x0:0x00000000
       43795000	      4378	80003120	da29fb93	andi	x23,x19,-606	 x19:0x00000000 x23=0x00000000
       43805000	      4379	80003124	d56e2b13	slti	x22,x28,-682	 x28:0xfffffe4b x22=0x00000000
       43815000	      4380	80003128	a95b4b93	xori	x23,x22,-1387	 x22:0x00000000 x23=0xfffffa95
       43825000	      4381	8000312c	013f6833	or	x16,x30,x19	 x30:0x01b50000 x19:0x00000000 x16=0x01b50000
       43835000	      4382	80003130	743a7d93	andi	x27,x20,1859	 x20:0xa15e4cb0 x27=0x00000400
       43845000	      4383	80003134	01b5df13	srli	x30,x11,0x1b	 x11:0x80209fe7 x30=0x00000010
       43855000	      4384	80003138	002c67b3	or	x15,x24,x2	 x24:0x00000000  x2:0x00000000 x15=0x00000000
       43865000	      4385	8000313c	04f3c663	blt	x7,x15,80003188	  x7:0x80009fc4 x15:0x00000000
       43875000	      4386	00000000	00000013	addi	x0,x0,0	  x0:0x00000000
       43885000	      4387	80003184	00000013	addi	x0,x0,0	  x0:0x00000000
       43895000	      4388	80003188	00000013	addi	x0,x0,0	  x0:0x00000000
       43905000	      4389	8000318c	0117ceb3	xor	x29,x15,x17	 x15:0x00000000 x17:0xffffffff x29=0xffffffff
       43915000	      4390	80003190	01c68db3	add	x27,x13,x28	 x13:0xdffba000 x28:0xfffffe4b x27=0xdffb9e4b
       43925000	      4391	80003194	b84c8e93	addi	x29,x25,-1148	 x25:0xc0004fe2 x29=0xc0004b66
       43935000	      4392	80003198	0107d593	srli	x11,x15,0x10	 x15:0x00000000 x11=0x00000000
       43945000	      4393	8000319c	00000013	addi	x0,x0,0	  x0:0x00000000
       43955000	      4394	800031a0	01bcc663	blt	x25,x27,800031ac	 x25:0xc0004fe2 x27:0xdffb9e4b
       43965000	      4395	00000000	00000013	addi	x0,x0,0	  x0:0x00000000
       43975000	      4396	800031a8	00000013	addi	x0,x0,0	  x0:0x00000000
       43985000	      4397	800031ac	01fd5a93	srli	x21,x26,0x1f	 x26:0x0000001b x21=0x00000000
       43995000	      4398	800031b0	c2f4cb93	xori	x23,x9,-977	  x9:0x000001b5 x23=0xfffffd9a
       44005000	      4399	800031b4	7e378d17	auipc	x26,0x7e378	 x26=0xfe37b1b0
       44015000	      4400	800031b8	01cd9613	slli	x12,x27,0x1c	 x27:0xdffb9e4b x12=0xb0000000
       44025000	      4401	800031bc	01639e33	sll	x28,x7,x22	  x7:0x80009fc4 x22:0x00000000 x28=0x80009fc4
       44035000	      4402	800031c0	a2285897	auipc	x17,0xa2285	 x17=0x222881bc
       44045000	      4403	800031c4	e165e217	auipc	x4,0xe165e	  x4=0x616611c0
       44055000	      4404	800031c8	7ad7ac93	slti	x25,x15,1965	 x15:0x00000000 x25=0x00000001
       44065000	      4405	800031cc	28a52113	slti	x2,x10,650	 x10:0x00000000  x2=0x00000001
       44075000	      4406	800031d0	027b9e63	bne	x23,x7,8000320c	 x23:0xfffffd9a  x7:0x80009fc4
       44085000	      4407	00000000	00000013	addi	x0,x0,0	  x0:0x00000000
       44095000	      4408	80003208	00000013	addi	x0,x0,0	  x0:0x00000000
       44105000	      4409	8000320c	ac563d13	sltiu	x26,x12,-1339	 x12:0xb0000000 x26=0x00000001
       44115000	      4410	80003210	eea9f913	andi	x18,x19,-278	 x19:0x00000000 x18=0x00000000
       44125000	      4411	80003214	01f14863	blt	x2,x31,80003224	  x2:0x00000001 x31:0x00013e71
       44135000	      4412	00000000	00000013	addi	x0,x0,0	  x0:0x00000000
       44145000	      4413	80003220	00000013	addi	x0,x0,0	  x0:0x00000000
       44155000	      4414	80003224	00735f93	srli	x31,x6,0x7	  x6:0x00000001 x31=0x00000000
       44165000	      4415	80003228	01da8c63	beq	x21,x29,80003240	 x21:0x00000000 x29:0xc0004b66
       44175000	      4416	8000322c	01c27863	bgeu	x4,x28,8000323c	  x4:0x616611c0 x28:0x80009fc4
       44185000	      4417	80003230	015b52b3	srl	x5,x22,x21	 x22:0x00000000 x21:0x00000000  x5=0x00000000
       44195000	      4418	80003234	00000013	addi	x0,x0,0	  x0:0x00000000
       44205000	      4419	80003238	898b2613	slti	x12,x22,-1896	 x22:0x00000000 x12=0x00000000
       44215000	      4420	8000323c	4104de33	sra	x28,x9,x16	  x9:0x000001b5 x16:0x01b50000 x28=0x000001b5
       44225000	      4421	80003240	1298f263	bgeu	x17,x9,80003364	 x17:0x222881bc  x9:0x000001b5
       44235000	      4422	00000000	00000013	addi	x0,x0,0	  x0:0x00000000
       44245000	      4423	80003360	00000013	addi	x0,x0,0	  x0:0x00000000
       44255000	      4424	80003364	01b89533	sll	x10,x17,x27	 x17:0x222881bc x27:0xdffb9e4b x10=0x440de000
       44265000	      4425	80003368	03560637	lui	x12,0x3560	 x12=0x03560000
       44275000	      4426	8000336c	006d9fb3	sll	x31,x27,x6	 x27:0xdffb9e4b  x6:0x00000001 x31=0xbff73c96
       44285000	      4427	80003370	01e91513	slli	x10,x18,0x1e	 x18:0x00000000 x10=0x00000000
       44295000	      4428	80003374	00925093	srli	x1,x4,0x9	  x4:0x616611c0  x1=0x0030b308
       44305000	      4429	80003378	01a60c63	beq	x12,x26,80003390	 x12:0x03560000 x26:0x00000001
       44315000	      4430	8000337c	02f68663	beq	x13,x15,800033a8	 x13:0xdffba000 x15:0x00000000
       44325000	      4431	80003380	01b8dbb3	srl	x23,x17,x27	 x17:0x222881bc x27:0xdffb9e4b x23=0x00044510
       44335000	      4432	80003384	011cfeb3	and	x29,x25,x17	 x25:0x00000001 x17:0x222881bc x29=0x00000000
       44345000	      4433	80003388	41375e93	srai	x29,x14,0x13	 x14:0xe0d7c000 x29=0xfffffc1a
       44355000	      4434	8000338c	01ab5033	srl	x0,x22,x26	 x22:0x00000000 x26:0x00000001
       44365000	      4435	80003390	018f4863	blt	x30,x24,800033a0	 x30:0x00000010 x24:0x00000000
       44375000	      4436	80003394	01cf08b3	add	x17,x30,x28	 x30:0x00000010 x28:0x000001b5 x17=0x000001c5
       44385000	      4437	80003398	00000013	addi	x0,x0,0	  x0:0x00000000
       44395000	      4438	8000339c	006b8033	add	x0,x23,x6	 x23:0x00044510  x6:0x00000001
       44405000	      4439	800033a0	a7bf0693	addi	x13,x30,-1413	 x30:0x00000010 x13=0xfffffa8b
       44415000	      4440	800033a4	28fe3813	sltiu	x16,x28,655	 x28:0x000001b5 x16=0x00000001
       44425000	      4441	800033a8	00f44bb3	xor	x23,x8,x15	  x8:0x80009f48 x15:0x00000000 x23=0x80009f48
       44435000	      4442	800033ac	4014d6b3	sra	x13,x9,x1	  x9:0x000001b5  x1:0x0030b308 x13=0x00000001
       44445000	      4443	800033b0	022de493	ori	x9,x27,34	 x27:0xdffb9e4b  x9=0xdffb9e6b
       44455000	      4444	800033b4	40a0db93	srai	x23,x1,0xa	  x1:0x0030b308 x23=0x00000c2c
       44465000	      4445	800033b8	00000013	addi	x0,x0,0	  x0:0x00000000
       44475000	      4446	800033bc	000f6c63	bltu	x30,x0,800033d4	 x30:0x00000010  x0:0x00000000
       44485000	      4447	800033c0	40868cb3	sub	x25,x13,x8	 x13:0x00000001  x8:0x80009f48 x25=0x7fff60b9
       44495000	      4448	800033c4	02706663	bltu	x0,x7,800033f0	  x0:0x00000000  x7:0x80009fc4
       44505000	      4449	00000000	00000013	addi	x0,x0,0	  x0:0x00000000
       44515000	      4450	800033ec	00000013	addi	x0,x0,0	  x0:0x00000000
       44525000	      4451	800033f0	41b6d133	sra	x2,x13,x27	 x13:0x00000001 x27:0xdffb9e4b  x2=0x00000000
       44535000	      4452	800033f4	41d2dd13	srai	x26,x5,0x1d	  x5:0x00000000 x26=0x00000000
       44545000	      4453	800033f8	bfefa113	slti	x2,x31,-1026	 x31:0xbff73c96  x2=0x00000001
       44555000	      4454	800033fc	c70eef93	ori	x31,x29,-912	 x29:0xfffffc1a x31=0xfffffc7a
       44565000	      4455	80003400	5f4e7b93	andi	x23,x28,1524	 x28:0x000001b5 x23=0x000001b4
       44575000	      4456	80003404	12ce0793	addi	x15,x28,300	 x28:0x000001b5 x15=0x000002e1
       44585000	      4457	80003408	01cdcdb3	xor	x27,x27,x28	 x27:0xdffb9e4b x28:0x000001b5 x27=0xdffb9ffe
       44595000	      4458	8000340c	02a09a63	bne	x1,x10,80003440	  x1:0x0030b308 x10:0x00000000
       44605000	      4459	00000000	00000013	addi	x0,x0,0	  x0:0x00000000
       44615000	      4460	8000343c	00000013	addi	x0,x0,0	  x0:0x00000000
       44625000	      4461	80003440	00bfa2b3	slt	x5,x31,x11	 x31:0xfffffc7a x11:0x00000000  x5=0x00000001
       44635000	      4462	80003444	00001193	slli	x3,x0,0x0	  x0:0x00000000  x3=0x00000000
       44645000	      4463	80003448	6f7b8837	lui	x16,0x6f7b8	 x16=0x6f7b8000
       44655000	      4464	8000344c	4efff213	andi	x4,x31,1263	 x31:0xfffffc7a  x4=0x0000046a
       44665000	      4465	80003450	d3d39ab7	lui	x21,0xd3d39	 x21=0xd3d39000
       44675000	      4466	80003454	00e1c233	xor	x4,x3,x14	  x3:0x00000000 x14:0xe0d7c000  x4=0xe0d7c000
       44685000	      4467	80003458	b3393e13	sltiu	x28,x18,-1229	 x18:0x00000000 x28=0x00000001
       44695000	      4468	8000345c	24c511b7	lui	x3,0x24c51	  x3=0x24c51000
       44705000	      4469	80003460	059d1663	bne	x26,x25,800034ac	 x26:0x00000000 x25:0x7fff60b9
       44715000	      4470	00000000	00000013	addi	x0,x0,0	  x0:0x00000000
       44725000	      4471	800034a8	00000013	addi	x0,x0,0	  x0:0x00000000
       44735000	      4472	800034ac	019b9263	bne	x23,x25,800034b0	 x23:0x000001b4 x25:0x7fff60b9
       44745000	      4473	00000000	00000013	addi	x0,x0,0	  x0:0x00000000
       44755000	      4474	800034ac	00000013	addi	x0,x0,0	  x0:0x00000000
       44765000	      4475	800034b0	00720633	add	x12,x4,x7	  x4:0xe0d7c000  x7:0x80009fc4 x12=0x60d85fc4
       44775000	      4476	800034b4	00c829b3	slt	x19,x16,x12	 x16:0x6f7b8000 x12:0x60d85fc4 x19=0x00000000
       44785000	      4477	800034b8	e1bc4e13	xori	x28,x24,-485	 x24:0x00000000 x28=0xfffffe1b
       44795000	      4478	800034bc	d7b6e813	ori	x16,x13,-645	 x13:0x00000001 x16=0xfffffd7b
       44805000	      4479	800034c0	018c78b3	and	x17,x24,x24	 x24:0x00000000 x24:0x00000000 x17=0x00000000
       44815000	      4480	800034c4	01119913	slli	x18,x3,0x11	  x3:0x24c51000 x18=0x20000000
       44825000	      4481	800034c8	416d5e13	srai	x28,x26,0x16	 x26:0x00000000 x28=0x00000000
       44835000	      4482	800034cc	018b05b3	add	x11,x22,x24	 x22:0x00000000 x24:0x00000000 x11=0x00000000
       44845000	      4483	800034d0	00cb79b3	and	x19,x22,x12	 x22:0x00000000 x12:0x60d85fc4 x19=0x00000000
       44855000	      4484	800034d4	74156713	ori	x14,x10,1857	 x10:0x00000000 x14=0x00000741
       44865000	      4485	800034d8	0c184063	blt	x16,x1,80003598	 x16:0xfffffd7b  x1:0x0030b308
       44875000	      4486	00000000	00000013	addi	x0,x0,0	  x0:0x00000000
       44885000	      4487	80003594	00000013	addi	x0,x0,0	  x0:0x00000000
       44895000	      4488	80003598	00c83ab3	sltu	x21,x16,x12	 x16:0xfffffd7b x12:0x60d85fc4 x21=0x00000000
       44905000	      4489	8000359c	548a3b13	sltiu	x22,x20,1352	 x20:0xa15e4cb0 x22=0x00000000
       44915000	      4490	800035a0	808469b7	lui	x19,0x80846	 x19=0x80846000
       44925000	      4491	800035a4	7926c813	xori	x16,x13,1938	 x13:0x00000001 x16=0x00000793
       44935000	      4492	800035a8	4a20a717	auipc	x14,0x4a20a	 x14=0xca20d5a4
       44945000	      4493	800035ac	00000013	addi	x0,x0,0	  x0:0x00000000
       44955000	      4494	800035b0	416fdb13	srai	x22,x31,0x16	 x31:0xfffffc7a x22=0xffffffff
       44965000	      4495	800035b4	41e20233	sub	x4,x4,x30	  x4:0xe0d7c000 x30:0x00000010  x4=0xe0d7bff0
       44975000	      4496	800035b8	0204fc63	bgeu	x9,x0,800035f0	  x9:0xdffb9e6b  x0:0x00000000
       44985000	      4497	00000000	00000013	addi	x0,x0,0	  x0:0x00000000
       44995000	      4498	800035ec	00000013	addi	x0,x0,0	  x0:0x00000000
       45005000	      4499	800035f0	000ec033	xor	x0,x29,x0	 x29:0xfffffc1a  x0:0x00000000
       45015000	      4500	800035f4	41ded633	sra	x12,x29,x29	 x29:0xfffffc1a x29:0xfffffc1a x12=0xffffffff
       45025000	      4501	800035f8	0024a7b3	slt	x15,x9,x2	  x9:0xdffb9e6b  x2:0x00000001 x15=0x00000001
       45035000	      4502	800035fc	40765733	sra	x14,x12,x7	 x12:0xffffffff  x7:0x80009fc4 x14=0xffffffff
       45045000	      4503	80003600	05b7e863	bltu	x15,x27,80003650	 x15:0x00000001 x27:0xdffb9ffe
       45055000	      4504	00000000	00000013	addi	x0,x0,0	  x0:0x00000000
       45065000	      4505	8000364c	00000013	addi	x0,x0,0	  x0:0x00000000
       45075000	      4506	80003650	13376e93	ori	x29,x14,307	 x14:0xffffffff x29=0xffffffff
       45085000	      4507	80003654	010565b3	or	x11,x10,x16	 x10:0x00000000 x16:0x00000793 x11=0x00000793
       45095000	      4508	80003658	f6b5c313	xori	x6,x11,-149	 x11:0x00000793  x6=0xfffff8f8
       45105000	      4509	8000365c	00cf7c63	bgeu	x30,x12,80003674	 x30:0x00000010 x12:0xffffffff
       45115000	      4510	80003660	002c7463	bgeu	x24,x2,80003668	 x24:0x00000000  x2:0x00000001
       45125000	      4511	80003664	40c45bb3	sra	x23,x8,x12	  x8:0x80009f48 x12:0xffffffff x23=0xffffffff
       45135000	      4512	80003668	00982033	slt	x0,x16,x9	 x16:0x00000793  x9:0xdffb9e6b
       45145000	      4513	8000366c	012f5c93	srli	x25,x30,0x12	 x30:0x00000010 x25=0x00000000
       45155000	      4514	80003670	00000013	addi	x0,x0,0	  x0:0x00000000
       45165000	      4515	80003674	001269b3	or	x19,x4,x1	  x4:0xe0d7bff0  x1:0x0030b308 x19=0xe0f7bff8
       45175000	      4516	80003678	04ab1263	bne	x22,x10,800036bc	 x22:0xffffffff x10:0x00000000
       45185000	      4517	00000000	00000013	addi	x0,x0,0	  x0:0x00000000
       45195000	      4518	800036b8	00000013	addi	x0,x0,0	  x0:0x00000000
       45205000	      4519	800036bc	01d9e6b3	or	x13,x19,x29	 x19:0xe0f7bff8 x29:0xffffffff x13=0xffffffff
       45215000	      4520	800036c0	05aa8e93	addi	x29,x21,90	 x21:0x00000000 x29=0x0000005a
       45225000	      4521	800036c4	04ee8063	beq	x29,x14,80003704	 x29:0x0000005a x14:0xffffffff
       45235000	      4522	800036c8	41c15f13	srai	x30,x2,0x1c	  x2:0x00000001 x30=0x00000000
       45245000	      4523	800036cc	00000013	addi	x0,x0,0	  x0:0x00000000
       45255000	      4524	800036d0	a2a64713	xori	x14,x12,-1494	 x12:0xffffffff x14=0x000005d5
       45265000	      4525	800036d4	00000013	addi	x0,x0,0	  x0:0x00000000
       45275000	      4526	800036d8	00000013	addi	x0,x0,0	  x0:0x00000000
       45285000	      4527	800036dc	00c10db3	add	x27,x2,x12	  x2:0x00000001 x12:0xffffffff x27=0x00000000
       45295000	      4528	800036e0	b719c213	xori	x4,x19,-1167	 x19:0xe0f7bff8  x4=0x1f084489
       45305000	      4529	800036e4	03f95463	bge	x18,x31,8000370c	 x18:0x20000000 x31:0xfffffc7a
       45315000	      4530	00000000	00000013	addi	x0,x0,0	  x0:0x00000000
       45325000	      4531	80003708	00000013	addi	x0,x0,0	  x0:0x00000000
       45335000	      4532	8000370c	40fb5913	srai	x18,x22,0xf	 x22:0xffffffff x18=0xffffffff
       45345000	      4533	80003710	005b94b3	sll	x9,x23,x5	 x23:0xffffffff  x5:0x00000001  x9=0xfffffffe
       45355000	      4534	80003714	4eed4e93	xori	x29,x26,1262	 x26:0x00000000 x29=0x000004ee
       45365000	      4535	80003718	016168b3	or	x17,x2,x22	  x2:0x00000001 x22:0xffffffff x17=0xffffffff
       45375000	      4536	8000371c	41d95313	srai	x6,x18,0x1d	 x18:0xffffffff  x6=0xffffffff
       45385000	      4537	80003720	005e85b3	add	x11,x29,x5	 x29:0x000004ee  x5:0x00000001 x11=0x000004ef
       45395000	      4538	80003724	01879463	bne	x15,x24,8000372c	 x15:0x00000001 x24:0x00000000
       45405000	      4539	00000000	00000013	addi	x0,x0,0	  x0:0x00000000
       45415000	      4540	80003728	00000013	addi	x0,x0,0	  x0:0x00000000
       45425000	      4541	8000372c	01e1d793	srli	x15,x3,0x1e	  x3:0x24c51000 x15=0x00000000
       45435000	      4542	80003730	00056bb3	or	x23,x10,x0	 x10:0x00000000  x0:0x00000000 x23=0x00000000
       45445000	      4543	80003734	00532133	slt	x2,x6,x5	  x6:0xffffffff  x5:0x00000001  x2=0x00000001
       45455000	      4544	80003738	008c9c33	sll	x24,x25,x8	 x25:0x00000000  x8:0x80009f48 x24=0x00000000
       45465000	      4545	8000373c	c9940d93	addi	x27,x8,-871	  x8:0x80009f48 x27=0x80009be1
       45475000	      4546	80003740	41c100b3	sub	x1,x2,x28	  x2:0x00000001 x28:0x00000000  x1=0x00000001
       45485000	      4547	80003744	01ee5863	bge	x28,x30,80003754	 x28:0x00000000 x30:0x00000000
       45495000	      4548	00000000	00000013	addi	x0,x0,0	  x0:0x00000000
       45505000	      4549	80003750	00000013	addi	x0,x0,0	  x0:0x00000000
       45515000	      4550	80003754	01c4cd33	xor	x26,x9,x28	  x9:0xfffffffe x28:0x00000000 x26=0xfffffffe
       45525000	      4551	80003758	9987fd93	andi	x27,x15,-1640	 x15:0x00000000 x27=0x00000000
       45535000	      4552	8000375c	01825c33	srl	x24,x4,x24	  x4:0x1f084489 x24:0x00000000 x24=0x1f084489
       45545000	      4553	80003760	01529c13	slli	x24,x5,0x15	  x5:0x00000001 x24=0x00200000
       45555000	      4554	80003764	02947c63	bgeu	x8,x9,8000379c	  x8:0x80009f48  x9:0xfffffffe
       45565000	      4555	80003768	008fcd33	xor	x26,x31,x8	 x31:0xfffffc7a  x8:0x80009f48 x26=0x7fff6332
       45575000	      4556	8000376c	0de76a97	auipc	x21,0xde76	 x21=0x8de79768
       45585000	      4557	80003770	00d16463	bltu	x2,x13,80003778	  x2:0x00000001 x13:0xffffffff
       45595000	      4558	00000000	00000013	addi	x0,x0,0	  x0:0x00000000
       45605000	      4559	80003774	00000013	addi	x0,x0,0	  x0:0x00000000
       45615000	      4560	80003778	017f2333	slt	x6,x30,x23	 x30:0x00000000 x23:0x00000000  x6=0x00000000
       45625000	      4561	8000377c	41685013	srai	x0,x16,0x16	 x16:0x00000793
       45635000	      4562	80003780	03471863	bne	x14,x20,800037b0	 x14:0x000005d5 x20:0xa15e4cb0
       45645000	      4563	00000000	00000013	addi	x0,x0,0	  x0:0x00000000
       45655000	      4564	800037ac	00000013	addi	x0,x0,0	  x0:0x00000000
       45665000	      4565	800037b0	01bf9b33	sll	x22,x31,x27	 x31:0xfffffc7a x27:0x00000000 x22=0xfffffc7a
       45675000	      4566	800037b4	000dc7b3	xor	x15,x27,x0	 x27:0x00000000  x0:0x00000000 x15=0x00000000
       45685000	      4567	800037b8	016a9993	slli	x19,x21,0x16	 x21:0x8de79768 x19=0xda000000
       45695000	      4568	800037bc	a82ecc37	lui	x24,0xa82ec	 x24=0xa82ec000
       45705000	      4569	800037c0	016e14b3	sll	x9,x28,x22	 x28:0x00000000 x22:0xfffffc7a  x9=0x00000000
       45715000	      4570	800037c4	00b3c333	xor	x6,x7,x11	  x7:0x80009fc4 x11:0x000004ef  x6=0x80009b2b
       45725000	      4571	800037c8	004b61b3	or	x3,x22,x4	 x22:0xfffffc7a  x4:0x1f084489  x3=0xfffffcfb
       45735000	      4572	800037cc	cf008013	addi	x0,x1,-784	  x1:0x00000001
       45745000	      4573	800037d0	01a59f13	slli	x30,x11,0x1a	 x11:0x000004ef x30=0xbc000000
       45755000	      4574	800037d4	2f3cc613	xori	x12,x25,755	 x25:0x00000000 x12=0x000002f3
       45765000	      4575	800037d8	6fedf217	auipc	x4,0x6fedf	  x4=0xefee27d4
       45775000	      4576	800037dc	00ace663	bltu	x25,x10,800037e8	 x25:0x00000000 x10:0x00000000
       45785000	      4577	800037e0	57533e97	auipc	x29,0x57533	 x29=0xd75367dc
       45795000	      4578	800037e4	e0dd6d97	auipc	x27,0xe0dd6	 x27=0x60dd97e0
       45805000	      4579	800037e8	01b25333	srl	x6,x4,x27	  x4:0xefee27d4 x27:0x60dd97e0  x6=0xefee27d4
       45815000	      4580	800037ec	40f4d833	sra	x16,x9,x15	  x9:0x00000000 x15:0x00000000 x16=0x00000000
       45825000	      4581	800037f0	645b0613	addi	x12,x22,1605	 x22:0xfffffc7a x12=0x000002bf
       45835000	      4582	800037f4	00894a63	blt	x18,x8,80003808	 x18:0xffffffff  x8:0x80009f48
       45845000	      4583	800037f8	000b19b3	sll	x19,x22,x0	 x22:0xfffffc7a  x0:0x00000000 x19=0xfffffc7a
       45855000	      4584	800037fc	f8b27513	andi	x10,x4,-117	  x4:0xefee27d4 x10=0xefee2780
       45865000	      4585	80003800	41945713	srai	x14,x8,0x19	  x8:0x80009f48 x14=0xffffffc0
       45875000	      4586	80003804	4e9db693	sltiu	x13,x27,1257	 x27:0x60dd97e0 x13=0x00000000
       45885000	      4587	80003808	3cc98513	addi	x10,x19,972	 x19:0xfffffc7a x10=0x00000046
       45895000	      4588	8000380c	00d0db93	srli	x23,x1,0xd	  x1:0x00000001 x23=0x00000000
       45905000	      4589	80003810	00442083	lw	x1,4(x8)	  x8:0x80009f48  x1=0x80000144 PA:0x80009f4c
       45915000	      4590	80003814	6067a713	slti	x14,x15,1542	 x15:0x00000000 x14=0x00000001
       45925000	      4591	80003818	03c40413	addi	x8,x8,60	  x8:0x80009f48  x8=0x80009f84
       45935000	      4592	8000381c	e1b4f493	andi	x9,x9,-485	  x9:0x00000000  x9=0x00000000
       45945000	      4593	80003820	00008593	addi	x11,x1,0	  x1:0x80000144 x11=0x80000144
       45955000	      4594	80003824	000585e7	jalr	x11,x11,0	 x11:0x80000144 x11=0x80003824
       45965000	      4595	00000000	00000013	addi	x0,x0,0	  x0:0x00000000
       45975000	      4596	80000144	00000013	addi	x0,x0,0	  x0:0x00000000
       45985000	      4597	80000148	00008a97	auipc	x21,0x8	 x21=0x80008144
       45995000	      4598	8000014c	1e9a8a93	addi	x21,x21,489	 x21:0x80008144 x21=0x8000832d
       46005000	      4599	80000150	fe1a8523	sb	x1,-22(x21)	 x21:0x8000832d  x1:0x80000144 PA:0x80008317
       46015000	      4600	80000154	fcda9d03	lh	x26,-51(x21)	 x21:0x8000832d x26=0x00000000 PA:0x800082fa
       46025000	      4601	80000158	fdda8e23	sb	x29,-36(x21)	 x21:0x8000832d x29:0xd75367dc PA:0x80008309
       46035000	      4602	8000015c	01dbb033	sltu	x0,x23,x29	 x23:0x00000000 x29:0xd75367dc
       46045000	      4603	80000160	ffda9e03	lh	x28,-3(x21)	 x21:0x8000832d x28=0x00000000 PA:0x8000832a
       46055000	      4604	80000164	001aa5a3	sw	x1,11(x21)	 x21:0x8000832d  x1:0x80000144 PA:0x80008338
       46065000	      4605	80000168	00000013	addi	x0,x0,0	  x0:0x00000000
       46075000	      4606	8000016c	ff3a9e03	lh	x28,-13(x21)	 x21:0x8000832d x28=0x00000000 PA:0x80008320
       46085000	      4607	80000170	006a8523	sb	x6,10(x21)	 x21:0x8000832d  x6:0xefee27d4 PA:0x80008337
       46095000	      4608	80000174	ff9a88a3	sb	x25,-15(x21)	 x21:0x8000832d x25:0x00000000 PA:0x8000831e
       46105000	      4609	80000178	7207a993	slti	x19,x15,1824	 x15:0x00000000 x19=0x00000001
       46115000	      4610	8000017c	00000013	addi	x0,x0,0	  x0:0x00000000
       46125000	      4611	80000180	ffdad683	lhu	x13,-3(x21)	 x21:0x8000832d x13=0x00000000 PA:0x8000832a
       46135000	      4612	80000184	403b5c13	srai	x24,x22,0x3	 x22:0xfffffc7a x24=0xffffff8f
       46145000	      4613	80000188	ff9acf03	lbu	x30,-7(x21)	 x21:0x8000832d x30=0x00000000 PA:0x80008326
       46155000	      4614	8000018c	3a004813	xori	x16,x0,928	  x0:0x00000000 x16=0x000003a0
       46165000	      4615	80000190	75ab4093	xori	x1,x22,1882	 x22:0xfffffc7a  x1=0xfffffb20
       46175000	      4616	80000194	fc9a8723	sb	x9,-50(x21)	 x21:0x8000832d  x9:0x00000000 PA:0x800082fb
       46185000	      4617	80000198	7061b597	auipc	x11,0x7061b	 x11=0xf061b194
       46195000	      4618	8000019c	00000013	addi	x0,x0,0	  x0:0x00000000
       46205000	      4619	800001a0	022a8f03	lb	x30,34(x21)	 x21:0x8000832d x30=0x00000000 PA:0x8000834f
       46215000	      4620	800001a4	fc2a84a3	sb	x2,-55(x21)	 x21:0x8000832d  x2:0x00000001 PA:0x800082f6
       46225000	      4621	800001a8	005a9e83	lh	x29,5(x21)	 x21:0x8000832d x29=0x00000000 PA:0x80008332
       46235000	      4622	800001ac	fdea8323	sb	x30,-58(x21)	 x21:0x8000832d x30:0x00000000 PA:0x800082f3
       46245000	      4623	800001b0	fdda8f23	sb	x29,-34(x21)	 x21:0x8000832d x29:0x00000000 PA:0x8000830b
       46255000	      4624	800001b4	0c6d5997	auipc	x19,0xc6d5	 x19=0x8c6d51b0
       46265000	      4625	800001b8	009672b3	and	x5,x12,x9	 x12:0x000002bf  x9:0x00000000  x5=0x00000000
       46275000	      4626	800001bc	ffca80a3	sb	x28,-31(x21)	 x21:0x8000832d x28:0x00000000 PA:0x8000830e
       46285000	      4627	800001c0	fc2a8683	lb	x13,-62(x21)	 x21:0x8000832d x13=0x00000000 PA:0x800082ef
       46295000	      4628	800001c4	ffdacd03	lbu	x26,-3(x21)	 x21:0x8000832d x26=0x00000000 PA:0x8000832a
       46305000	      4629	800001c8	03fac083	lbu	x1,63(x21)	 x21:0x8000832d  x1=0x00000000 PA:0x8000836c
       46315000	      4630	800001cc	fdba86a3	sb	x27,-51(x21)	 x21:0x8000832d x27:0x60dd97e0 PA:0x800082fa
       46325000	      4631	800001d0	47334513	xori	x10,x6,1139	  x6:0xefee27d4 x10=0xefee23a7
       46335000	      4632	800001d4	01aac603	lbu	x12,26(x21)	 x21:0x8000832d x12=0x00000000 PA:0x80008347
       46345000	      4633	800001d8	010929b3	slt	x19,x18,x16	 x18:0xffffffff x16:0x000003a0 x19=0x00000001
       46355000	      4634	800001dc	030ac983	lbu	x19,48(x21)	 x21:0x8000832d x19=0x00000000 PA:0x8000835d
       46365000	      4635	800001e0	00e0f7b3	and	x15,x1,x14	  x1:0x00000000 x14:0x00000001 x15=0x00000000
       46375000	      4636	800001e4	6156f893	andi	x17,x13,1557	 x13:0x00000000 x17=0x00000000
       46385000	      4637	800001e8	035a8183	lb	x3,53(x21)	 x21:0x8000832d  x3=0x00000000 PA:0x80008362
       46395000	      4638	800001ec	c3d666b7	lui	x13,0xc3d66	 x13=0xc3d66000
       46405000	      4639	800001f0	4112d593	srai	x11,x5,0x11	  x5:0x00000000 x11=0x00000000
       46415000	      4640	800001f4	008a8303	lb	x6,8(x21)	 x21:0x8000832d  x6=0x00000000 PA:0x80008335
       46425000	      4641	800001f8	41a75313	srai	x6,x14,0x1a	 x14:0x00000001  x6=0x00000000
       46435000	      4642	800001fc	899a6493	ori	x9,x20,-1895	 x20:0xa15e4cb0  x9=0xfffffcb9
       46445000	      4643	80000200	019f0cb3	add	x25,x30,x25	 x30:0x00000000 x25:0x00000000 x25=0x00000000
       46455000	      4644	80000204	0c33e0b7	lui	x1,0xc33e	  x1=0x0c33e000
       46465000	      4645	80000208	00003997	auipc	x19,0x3	 x19=0x80003204
       46475000	      4646	8000020c	62098993	addi	x19,x19,1568	 x19:0x80003204 x19=0x80003824
       46485000	      4647	80000210	0106c333	xor	x6,x13,x16	 x13:0xc3d66000 x16:0x000003a0  x6=0xc3d663a0
       46495000	      4648	80000214	3c198993	addi	x19,x19,961	 x19:0x80003824 x19=0x80003be5
       46505000	      4649	80000218	01d25493	srli	x9,x4,0x1d	  x4:0xefee27d4  x9=0x00000007
       46515000	      4650	8000021c	01b06463	bltu	x0,x27,80000224	  x0:0x00000000 x27:0x60dd97e0
       46525000	      4651	00000000	00000013	addi	x0,x0,0	  x0:0x00000000
       46535000	      4652	80000220	00000013	addi	x0,x0,0	  x0:0x00000000
       46545000	      4653	80000224	c3f980e7	jalr	x1,x19,-961	 x19:0x80003be5  x1=0x80000224
       46555000	      4654	00000000	00000013	addi	x0,x0,0	  x0:0x00000000
       46565000	      4655	80003824	00000013	addi	x0,x0,0	  x0:0x00000000
       46575000	      4656	80003828	0198fe33	and	x28,x17,x25	 x17:0x00000000 x25:0x00000000 x28=0x00000000
       46585000	      4657	8000382c	00bcf463	bgeu	x25,x11,80003834	 x25:0x00000000 x11:0x00000000
       46595000	      4658	00000000	00000013	addi	x0,x0,0	  x0:0x00000000
       46605000	      4659	80003830	00000013	addi	x0,x0,0	  x0:0x00000000
       46615000	      4660	80003834	fc040413	addi	x8,x8,-64	  x8:0x80009f84  x8=0x80009f44
       46625000	      4661	80003838	00142223	sw	x1,4(x8)	  x8:0x80009f44  x1:0x80000224 PA:0x80009f48
       46635000	      4662	8000383c	014004b3	add	x9,x0,x20	  x0:0x00000000 x20:0xa15e4cb0  x9=0xa15e4cb0
       46645000	      4663	80003840	00056233	or	x4,x10,x0	 x10:0xefee23a7  x0:0x00000000  x4=0xefee23a7
       46655000	      4664	80003844	98483017	auipc	x0,0x98483	
       46665000	      4665	80003848	ffffdb17	auipc	x22,0xffffd	 x22=0x80000844
       46675000	      4666	8000384c	c80b0b13	addi	x22,x22,-896	 x22:0x80000844 x22=0x800004c4
       46685000	      4667	80003850	4030dc93	srai	x25,x1,0x3	  x1:0x80000224 x25=0xf0000044
       46695000	      4668	80003854	115b0b13	addi	x22,x22,277	 x22:0x800004c4 x22=0x800005d9
       46705000	      4669	80003858	77cf8913	addi	x18,x31,1916	 x31:0xfffffc7a x18=0x000003f6
       46715000	      4670	8000385c	01d50633	add	x12,x10,x29	 x10:0xefee23a7 x29:0x00000000 x12=0xefee23a7
       46725000	      4671	80003860	00e1f833	and	x16,x3,x14	  x3:0x00000000 x14:0x00000001 x16=0x00000000
       46735000	      4672	80003864	df122313	slti	x6,x4,-527	  x4:0xefee23a7  x6=0x00000001
       46745000	      4673	80003868	00d976b3	and	x13,x18,x13	 x18:0x000003f6 x13:0xc3d66000 x13=0x00000000
       46755000	      4674	8000386c	00b3eab3	or	x21,x7,x11	  x7:0x80009fc4 x11:0x00000000 x21=0x80009fc4
       46765000	      4675	80003870	405fd5b3	sra	x11,x31,x5	 x31:0xfffffc7a  x5:0x00000000 x11=0xfffffc7a
       46775000	      4676	80003874	7fce5637	lui	x12,0x7fce5	 x12=0x7fce5000
       46785000	      4677	80003878	01950463	beq	x10,x25,80003880	 x10:0xefee23a7 x25:0xf0000044
       46795000	      4678	8000387c	88b5ed13	ori	x26,x11,-1909	 x11:0xfffffc7a x26=0xfffffcfb
       46805000	      4679	80003880	eecb00e7	jalr	x1,x22,-276	 x22:0x800005d9  x1=0x80003880
       46815000	      4680	00000000	00000013	addi	x0,x0,0	  x0:0x00000000
       46825000	      4681	800004c4	00000013	addi	x0,x0,0	  x0:0x00000000
       46835000	      4682	800004c8	4143df93	srai	x31,x7,0x14	  x7:0x80009fc4 x31=0xfffff800
       46845000	      4683	800004cc	6890ec13	ori	x24,x1,1673	  x1:0x80003880 x24=0x80003e89
       46855000	      4684	800004d0	00000013	addi	x0,x0,0	  x0:0x00000000
       46865000	      4685	800004d4	ff840413	addi	x8,x8,-8	  x8:0x80009f44  x8=0x80009f3c
       46875000	      4686	800004d8	015b47b3	xor	x15,x22,x21	 x22:0x800005d9 x21:0x80009fc4 x15=0x00009a1d
       46885000	      4687	800004dc	00515b93	srli	x23,x2,0x5	  x2:0x00000001 x23=0x00000000
       46895000	      4688	800004e0	00142223	sw	x1,4(x8)	  x8:0x80009f3c  x1:0x80003880 PA:0x80009f40
       46905000	      4689	800004e4	00113b33	sltu	x22,x2,x1	  x2:0x00000001  x1:0x80003880 x22=0x00000001
       46915000	      4690	800004e8	f3060817	auipc	x16,0xf3060	 x16=0x730604e4
       46925000	      4691	800004ec	00478d33	add	x26,x15,x4	 x15:0x00009a1d  x4:0xefee23a7 x26=0xefeebdc4
       46935000	      4692	800004f0	009b5233	srl	x4,x22,x9	 x22:0x00000001  x9:0xa15e4cb0  x4=0x00000000
       46945000	      4693	800004f4	009bd893	srli	x17,x23,0x9	 x23:0x00000000 x17=0x00000000
       46955000	      4694	800004f8	00000c17	auipc	x24,0x0	 x24=0x800004f4
       46965000	      4695	800004fc	124c0c13	addi	x24,x24,292	 x24:0x800004f4 x24=0x80000618
       46975000	      4696	80000500	6a4c6317	auipc	x6,0x6a4c6	  x6=0xea4c64fc
       46985000	      4697	80000504	01f7d213	srli	x4,x15,0x1f	 x15:0x00009a1d  x4=0x00000000
       46995000	      4698	80000508	4d16af93	slti	x31,x13,1233	 x13:0x00000000 x31=0x00000001
       47005000	      4699	8000050c	33fc0c13	addi	x24,x24,831	 x24:0x80000618 x24=0x80000957
       47015000	      4700	80000510	07933c93	sltiu	x25,x6,121	  x6:0xea4c64fc x25=0x00000000
       47025000	      4701	80000514	01c9c733	xor	x14,x19,x28	 x19:0x80003be5 x28:0x00000000 x14=0x80003be5
       47035000	      4702	80000518	00b0e663	bltu	x1,x11,80000524	  x1:0x80003880 x11:0xfffffc7a
       47045000	      4703	00000000	00000013	addi	x0,x0,0	  x0:0x00000000
       47055000	      4704	80000520	00000013	addi	x0,x0,0	  x0:0x00000000
       47065000	      4705	80000524	cc2c00e7	jalr	x1,x24,-830	 x24:0x80000957  x1=0x80000524
       47075000	      4706	00000000	00000013	addi	x0,x0,0	  x0:0x00000000
       47085000	      4707	80000618	00000013	addi	x0,x0,0	  x0:0x00000000
       47095000	      4708	8000061c	00e14663	blt	x2,x14,80000628	  x2:0x00000001 x14:0x80003be5
       47105000	      4709	80000620	4e38ab17	auipc	x22,0x4e38a	 x22=0xce38a61c
       47115000	      4710	80000624	1efc7793	andi	x15,x24,495	 x24:0x80000957 x15=0x00000147
       47125000	      4711	80000628	fe040413	addi	x8,x8,-32	  x8:0x80009f3c  x8=0x80009f1c
       47135000	      4712	8000062c	015329b3	slt	x19,x6,x21	  x6:0xea4c64fc x21:0x80009fc4 x19=0x00000000
       47145000	      4713	80000630	00142223	sw	x1,4(x8)	  x8:0x80009f1c  x1:0x80000524 PA:0x80009f20
       47155000	      4714	80000634	e4518593	addi	x11,x3,-443	  x3:0x00000000 x11=0xfffffe45
       47165000	      4715	80000638	41965313	srai	x6,x12,0x19	 x12:0x7fce5000  x6=0x0000003f
       47175000	      4716	8000063c	a140a117	auipc	x2,0xa140a	  x2=0x2140a638
       47185000	      4717	80000640	b0baf8b7	lui	x17,0xb0baf	 x17=0xb0baf000
       47195000	      4718	80000644	006e5d93	srli	x27,x28,0x6	 x28:0x00000000 x27=0x00000000
       47205000	      4719	80000648	41d95733	sra	x14,x18,x29	 x18:0x000003f6 x29:0x00000000 x14=0x000003f6
       47215000	      4720	8000064c	009a7f33	and	x30,x20,x9	 x20:0xa15e4cb0  x9:0xa15e4cb0 x30=0xa15e4cb0
       47225000	      4721	80000650	415606b3	sub	x13,x12,x21	 x12:0x7fce5000 x21:0x80009fc4 x13=0xffcdb03c
       47235000	      4722	80000654	c83ff913	andi	x18,x31,-893	 x31:0x00000001 x18=0x00000001
       47245000	      4723	80000658	0043ebb3	or	x23,x7,x4	  x7:0x80009fc4  x4:0x00000000 x23=0x80009fc4
       47255000	      4724	8000065c	0bf4f913	andi	x18,x9,191	  x9:0xa15e4cb0 x18=0x000000b0
       47265000	      4725	80000660	61ee0793	addi	x15,x28,1566	 x28:0x00000000 x15=0x0000061e
       47275000	      4726	80000664	00003517	auipc	x10,0x3	 x10=0x80003660
       47285000	      4727	80000668	29850513	addi	x10,x10,664	 x10:0x80003660 x10=0x800038f8
       47295000	      4728	8000066c	008dfe93	andi	x29,x27,8	 x27:0x00000000 x29=0x00000000
       47305000	      4729	80000670	fb050513	addi	x10,x10,-80	 x10:0x800038f8 x10=0x800038a8
       47315000	      4730	80000674	014f8133	add	x2,x31,x20	 x31:0x00000001 x20:0xa15e4cb0  x2=0xa15e4cb1
       47325000	      4731	80000678	050500e7	jalr	x1,x10,80	 x10:0x800038a8  x1=0x80000678
       47335000	      4732	00000000	00000013	addi	x0,x0,0	  x0:0x00000000
       47345000	      4733	800038f8	00000013	addi	x0,x0,0	  x0:0x00000000
       47355000	      4734	800038fc	d76f6193	ori	x3,x30,-650	 x30:0xa15e4cb0  x3=0xfffffdf6
       47365000	      4735	80003900	00000013	addi	x0,x0,0	  x0:0x00000000
       47375000	      4736	80003904	403b5b33	sra	x22,x22,x3	 x22:0xce38a61c  x3:0xfffffdf6 x22=0xffffff38
       47385000	      4737	80003908	00aa4eb3	xor	x29,x20,x10	 x20:0xa15e4cb0 x10:0x800038a8 x29=0x215e7418
       47395000	      4738	8000390c	141dbe13	sltiu	x28,x27,321	 x27:0x00000000 x28=0x00000001
       47405000	      4739	80003910	fc840413	addi	x8,x8,-56	  x8:0x80009f1c  x8=0x80009ee4
       47415000	      4740	80003914	00d7d1b3	srl	x3,x15,x13	 x15:0x0000061e x13:0xffcdb03c  x3=0x00000000
       47425000	      4741	80003918	00f274b3	and	x9,x4,x15	  x4:0x00000000 x15:0x0000061e  x9=0x00000000
       47435000	      4742	8000391c	00142223	sw	x1,4(x8)	  x8:0x80009ee4  x1:0x80000678 PA:0x80009ee8
       47445000	      4743	80003920	00d775b3	and	x11,x14,x13	 x14:0x000003f6 x13:0xffcdb03c x11=0x00000034
       47455000	      4744	80003924	404bd533	sra	x10,x23,x4	 x23:0x80009fc4  x4:0x00000000 x10=0x80009fc4
       47465000	      4745	80003928	03e87b93	andi	x23,x16,62	 x16:0x730604e4 x23=0x00000024
       47475000	      4746	8000392c	00005d97	auipc	x27,0x5	 x27=0x80008928
       47485000	      4747	80003930	48fd8d93	addi	x27,x27,1167	 x27:0x80008928 x27=0x80008db7
       47495000	      4748	80003934	008d8903	lb	x18,8(x27)	 x27:0x80008db7 x18=0x00000000 PA:0x80008dbf
       47505000	      4749	80003938	fffd89a3	sb	x31,-13(x27)	 x27:0x80008db7 x31:0x00000001 PA:0x80008daa
       47515000	      4750	8000393c	ff9d8b23	sb	x25,-10(x27)	 x27:0x80008db7 x25:0x00000000 PA:0x80008dad
       47525000	      4751	80003940	009bcab3	xor	x21,x23,x9	 x23:0x00000024  x9:0x00000000 x21=0x00000024
       47535000	      4752	80003944	01a117b3	sll	x15,x2,x26	  x2:0xa15e4cb1 x26:0xefeebdc4 x15=0x15e4cb10
       47545000	      4753	80003948	8a20d517	auipc	x10,0x8a20d	 x10=0x0a210944
       47555000	      4754	8000394c	ff6dc603	lbu	x12,-10(x27)	 x27:0x80008db7 x12=0x00000000 PA:0x80008dad
       47565000	      4755	80003950	851baa93	slti	x21,x23,-1967	 x23:0x00000024 x21=0x00000000
       47575000	      4756	80003954	ff3d8903	lb	x18,-13(x27)	 x27:0x80008db7 x18=0x00000001 PA:0x80008daa
       47585000	      4757	80003958	ffadc083	lbu	x1,-6(x27)	 x27:0x80008db7  x1=0x00000064 PA:0x80008db1
       47595000	      4758	8000395c	feed8da3	sb	x14,-5(x27)	 x27:0x80008db7 x14:0x000003f6 PA:0x80008db2
       47605000	      4759	80003960	015da2a3	sw	x21,5(x27)	 x27:0x80008db7 x21:0x00000000 PA:0x80008dbc
       47615000	      4760	80003964	41bb5e13	srai	x28,x22,0x1b	 x22:0xffffff38 x28=0xffffffff
       47625000	      4761	80003968	3328f997	auipc	x19,0x3328f	 x19=0xb3292964
       47635000	      4762	8000396c	00bd8683	lb	x13,11(x27)	 x27:0x80008db7 x13=0x00000000 PA:0x80008dc2
       47645000	      4763	80003970	ffbd8b03	lb	x22,-5(x27)	 x27:0x80008db7 x22=0xfffffff6 PA:0x80008db2
       47655000	      4764	80003974	001d90a3	sh	x1,1(x27)	 x27:0x80008db7  x1:0x00000064 PA:0x80008db8
       47665000	      4765	80003978	01cd8223	sb	x28,4(x27)	 x27:0x80008db7 x28:0xffffffff PA:0x80008dbb
       47675000	      4766	8000397c	97f78b93	addi	x23,x15,-1665	 x15:0x15e4cb10 x23=0x15e4c48f
       47685000	      4767	80003980	d1516813	ori	x16,x2,-747	  x2:0xa15e4cb1 x16=0xfffffdb5
       47695000	      4768	80003984	010237b3	sltu	x15,x4,x16	  x4:0x00000000 x16:0xfffffdb5 x15=0x00000001
       47705000	      4769	80003988	006d8583	lb	x11,6(x27)	 x27:0x80008db7 x11=0x00000000 PA:0x80008dbd
       47715000	      4770	8000398c	a34ff093	andi	x1,x31,-1484	 x31:0x00000001  x1=0x00000000
       47725000	      4771	80003990	01ad8323	sb	x26,6(x27)	 x27:0x80008db7 x26:0xefeebdc4 PA:0x80008dbd
       47735000	      4772	80003994	ff3d8d23	sb	x19,-6(x27)	 x27:0x80008db7 x19:0xb3292964 PA:0x80008db1
       47745000	      4773	80003998	006d8503	lb	x10,6(x27)	 x27:0x80008db7 x10=0xffffffc4 PA:0x80008dbd
       47755000	      4774	8000399c	ff3d9003	lh	x0,-13(x27)	 x27:0x80008db7 PA:0x80008daa
       47765000	      4775	800039a0	003c9233	sll	x4,x25,x3	 x25:0x00000000  x3:0x00000000  x4=0x00000000
       47775000	      4776	800039a4	003d8083	lb	x1,3(x27)	 x27:0x80008db7  x1=0x00000000 PA:0x80008dba
       47785000	      4777	800039a8	ffed8c23	sb	x30,-8(x27)	 x27:0x80008db7 x30:0xa15e4cb0 PA:0x80008daf
       47795000	      4778	800039ac	00005097	auipc	x1,0x5	  x1=0x800089a8
       47805000	      4779	800039b0	26f08093	addi	x1,x1,623	  x1:0x800089a8  x1=0x80008c17
       47815000	      4780	800039b4	00b08f03	lb	x30,11(x1)	  x1:0x80008c17 x30=0x00000000 PA:0x80008c22
       47825000	      4781	800039b8	00f65f13	srli	x30,x12,0xf	 x12:0x00000000 x30=0x00000000
       47835000	      4782	800039bc	007c6f33	or	x30,x24,x7	 x24:0x80000957  x7:0x80009fc4 x30=0x80009fd7
       47845000	      4783	800039c0	04008483	lb	x9,64(x1)	  x1:0x80008c17  x9=0x00000000 PA:0x80008c57
       47855000	      4784	800039c4	01f08303	lb	x6,31(x1)	  x1:0x80008c17  x6=0x00000000 PA:0x80008c36
       47865000	      4785	800039c8	1c520d93	addi	x27,x4,453	  x4:0x00000000 x27=0x000001c5
       47875000	      4786	800039cc	0220a6a3	sw	x2,45(x1)	  x1:0x80008c17  x2:0xa15e4cb1 PA:0x80008c44
       47885000	      4787	800039d0	02608103	lb	x2,38(x1)	  x1:0x80008c17  x2=0xffffffb0 PA:0x80008c3d
       47895000	      4788	800039d4	03b0a0a3	sw	x27,33(x1)	  x1:0x80008c17 x27:0x000001c5 PA:0x80008c38
       47905000	      4789	800039d8	005aedb3	or	x27,x21,x5	 x21:0x00000000  x5:0x00000000 x27=0x00000000
       47915000	      4790	800039dc	02408c23	sb	x4,56(x1)	  x1:0x80008c17  x4:0x00000000 PA:0x80008c4f
       47925000	      4791	800039e0	0020c503	lbu	x10,2(x1)	  x1:0x80008c17 x10=0x00000000 PA:0x80008c19
       47935000	      4792	800039e4	00635193	srli	x3,x6,0x6	  x6:0x00000000  x3=0x00000000
       47945000	      4793	800039e8	fff084a3	sb	x31,-23(x1)	  x1:0x80008c17 x31:0x00000001 PA:0x80008c00
       47955000	      4794	800039ec	ffc08683	lb	x13,-4(x1)	  x1:0x80008c17 x13=0x00000000 PA:0x80008c13
       47965000	      4795	800039f0	ff709683	lh	x13,-9(x1)	  x1:0x80008c17 x13=0x00000000 PA:0x80008c0e
       47975000	      4796	800039f4	0180c803	lbu	x16,24(x1)	  x1:0x80008c17 x16=0x00000000 PA:0x80008c2f
       47985000	      4797	00000000	00000013	addi	x0,x0,0	  x0:0x00000000
       47995000	      4798	800039f8	00481293	slli	x5,x16,0x4	 x16:0x00000000  x5=0x00000000
       48005000	      4799	800039fc	000ae9b3	or	x19,x21,x0	 x21:0x00000000  x0:0x00000000 x19=0x00000000
       48015000	      4800	80003a00	97288c13	addi	x24,x17,-1678	 x17:0xb0baf000 x24=0xb0bae972
       48025000	      4801	80003a04	bdbd3c13	sltiu	x24,x26,-1061	 x26:0xefeebdc4 x24=0x00000001
       48035000	      4802	80003a08	27cc8d37	lui	x26,0x27cc8	 x26=0x27cc8000
       48045000	      4803	80003a0c	03408323	sb	x20,38(x1)	  x1:0x80008c17 x20:0xa15e4cb0 PA:0x80008c3d
       48055000	      4804	80003a10	018cde93	srli	x29,x25,0x18	 x25:0x00000000 x29=0x00000000
       48065000	      4805	80003a14	01c09db3	sll	x27,x1,x28	  x1:0x80008c17 x28:0xffffffff x27=0x80000000
       48075000	      4806	80003a18	3f0e3c13	sltiu	x24,x28,1008	 x28:0xffffffff x24=0x00000000
       48085000	      4807	80003a1c	00108b23	sb	x1,22(x1)	  x1:0x80008c17  x1:0x80008c17 PA:0x80008c2d
       48095000	      4808	80003a20	fc308ea3	sb	x3,-35(x1)	  x1:0x80008c17  x3:0x00000000 PA:0x80008bf4
       48105000	      4809	80003a24	00ab6d33	or	x26,x22,x10	 x22:0xfffffff6 x10:0x00000000 x26=0xfffffff6
       48115000	      4810	80003a28	03f08183	lb	x3,63(x1)	  x1:0x80008c17  x3=0x00000000 PA:0x80008c56
       48125000	      4811	80003a2c	00000013	addi	x0,x0,0	  x0:0x00000000
       48135000	      4812	80003a30	01ebd7b3	srl	x15,x23,x30	 x23:0x15e4c48f x30:0x80009fd7 x15=0x0000002b
       48145000	      4813	80003a34	38184917	auipc	x18,0x38184	 x18=0xb8187a30
       48155000	      4814	80003a38	02308503	lb	x10,35(x1)	  x1:0x80008c17 x10=0x00000000 PA:0x80008c3a
       48165000	      4815	80003a3c	ff30cf83	lbu	x31,-13(x1)	  x1:0x80008c17 x31=0x00000000 PA:0x80008c0a
       48175000	      4816	80003a40	feb09f03	lh	x30,-21(x1)	  x1:0x80008c17 x30=0x00000000 PA:0x80008c02
       48185000	      4817	80003a44	011a2133	slt	x2,x20,x17	 x20:0xa15e4cb0 x17:0xb0baf000  x2=0x00000001
       48195000	      4818	80003a48	3b228e13	addi	x28,x5,946	  x5:0x00000000 x28=0x000003b2
       48205000	      4819	80003a4c	0290a803	lw	x16,41(x1)	  x1:0x80008c17 x16=0x00000000 PA:0x80008c40
       48215000	      4820	80003a50	fce09fa3	sh	x14,-33(x1)	  x1:0x80008c17 x14:0x000003f6 PA:0x80008bf6
       48225000	      4821	80003a54	00000013	addi	x0,x0,0	  x0:0x00000000
       48235000	      4822	80003a58	01b8af33	slt	x30,x17,x27	 x17:0xb0baf000 x27:0x80000000 x30=0x00000000
       48245000	      4823	80003a5c	ffa0c803	lbu	x16,-6(x1)	  x1:0x80008c17 x16=0x00000000 PA:0x80008c11
       48255000	      4824	80003a60	3b43e037	lui	x0,0x3b43e	
       48265000	      4825	80003a64	fd10a183	lw	x3,-47(x1)	  x1:0x80008c17  x3=0x9fc40000 PA:0x80008be8
       48275000	      4826	80003a68	ff30d983	lhu	x19,-13(x1)	  x1:0x80008c17 x19=0x00000000 PA:0x80008c0a
       48285000	      4827	80003a6c	00c08ba3	sb	x12,23(x1)	  x1:0x80008c17 x12:0x00000000 PA:0x80008c2e
       48295000	      4828	80003a70	00b081a3	sb	x11,3(x1)	  x1:0x80008c17 x11:0x00000000 PA:0x80008c1a
       48305000	      4829	80003a74	9ef22d93	slti	x27,x4,-1553	  x4:0x00000000 x27=0x00000000
       48315000	      4830	80003a78	74ee4613	xori	x12,x28,1870	 x28:0x000003b2 x12=0x000004fc
       48325000	      4831	80003a7c	0049fbb3	and	x23,x19,x4	 x19:0x00000000  x4:0x00000000 x23=0x00000000
       48335000	      4832	80003a80	fc7099a3	sh	x7,-45(x1)	  x1:0x80008c17  x7:0x80009fc4 PA:0x80008bea
       48345000	      4833	80003a84	02c08603	lb	x12,44(x1)	  x1:0x80008c17 x12=0x00000000 PA:0x80008c43
       48355000	      4834	80003a88	00000013	addi	x0,x0,0	  x0:0x00000000
       48365000	      4835	80003a8c	ffc08b03	lb	x22,-4(x1)	  x1:0x80008c17 x22=0x00000000 PA:0x80008c13
       48375000	      4836	80003a90	f93dd237	lui	x4,0xf93dd	  x4=0xf93dd000
       48385000	      4837	80003a94	99457a93	andi	x21,x10,-1644	 x10:0x00000000 x21=0x00000000
       48395000	      4838	80003a98	fff09803	lh	x16,-1(x1)	  x1:0x80008c17 x16=0x00000000 PA:0x80008c16
       48405000	      4839	80003a9c	00005117	auipc	x2,0x5	  x2=0x80008a98
       48415000	      4840	80003aa0	02310113	addi	x2,x2,35	  x2:0x80008a98  x2=0x80008abb
       48425000	      4841	80003aa4	00000013	addi	x0,x0,0	  x0:0x00000000
       48435000	      4842	80003aa8	01b114a3	sh	x27,9(x2)	  x2:0x80008abb x27:0x00000000 PA:0x80008ac4
       48445000	      4843	80003aac	86463e93	sltiu	x29,x12,-1948	 x12:0x00000000 x29=0x00000001
       48455000	      4844	80003ab0	407ddf13	srai	x30,x27,0x7	 x27:0x00000000 x30=0x00000000
       48465000	      4845	80003ab4	06b1e917	auipc	x18,0x6b1e	 x18=0x86b21ab0
       48475000	      4846	80003ab8	00c20933	add	x18,x4,x12	  x4:0xf93dd000 x12:0x00000000 x18=0xf93dd000
       48485000	      4847	80003abc	fc611aa3	sh	x6,-43(x2)	  x2:0x80008abb  x6:0x00000000 PA:0x80008a90
       48495000	      4848	80003ac0	1abbc093	xori	x1,x23,427	 x23:0x00000000  x1=0x000001ab
       48505000	      4849	80003ac4	79f44817	auipc	x16,0x79f44	 x16=0xf9f47ac0
       48515000	      4850	80003ac8	02d10623	sb	x13,44(x2)	  x2:0x80008abb x13:0x00000000 PA:0x80008ae7
       48525000	      4851	80003acc	88dda8b7	lui	x17,0x88dda	 x17=0x88dda000
       48535000	      4852	80003ad0	01cd2bb3	slt	x23,x26,x28	 x26:0xfffffff6 x28:0x000003b2 x23=0x00000001
       48545000	      4853	80003ad4	03d10ba3	sb	x29,55(x2)	  x2:0x80008abb x29:0x00000001 PA:0x80008af2
       48555000	      4854	80003ad8	ffe14a83	lbu	x21,-2(x2)	  x2:0x80008abb x21=0x00000000 PA:0x80008ab9
       48565000	      4855	80003adc	00f11b83	lh	x23,15(x2)	  x2:0x80008abb x23=0x00000000 PA:0x80008aca
       48575000	      4856	80003ae0	00000013	addi	x0,x0,0	  x0:0x00000000
       48585000	      4857	80003ae4	1a4cab17	auipc	x22,0x1a4ca	 x22=0x9a4cdae0
       48595000	      4858	80003ae8	00610983	lb	x19,6(x2)	  x2:0x80008abb x19=0x00000000 PA:0x80008ac1
       48605000	      4859	80003aec	01c42233	slt	x4,x8,x28	  x8:0x80009ee4 x28:0x000003b2  x4=0x00000001
       48615000	      4860	80003af0	01d88333	add	x6,x17,x29	 x17:0x88dda000 x29:0x00000001  x6=0x88dda001
       48625000	      4861	80003af4	405fd5b3	sra	x11,x31,x5	 x31:0x00000000  x5:0x00000000 x11=0x00000000
       48635000	      4862	80003af8	0177df33	srl	x30,x15,x23	 x15:0x0000002b x23:0x00000000 x30=0x0000002b
       48645000	      4863	80003afc	fff10323	sb	x31,-26(x2)	  x2:0x80008abb x31:0x00000000 PA:0x80008aa1
       48655000	      4864	80003b00	41a5d8b3	sra	x17,x11,x26	 x11:0x00000000 x26:0xfffffff6 x17=0x00000000
       48665000	      4865	80003b04	01f571b3	and	x3,x10,x31	 x10:0x00000000 x31:0x00000000  x3=0x00000000
       48675000	      4866	80003b08	00ae04b3	add	x9,x28,x10	 x28:0x000003b2 x10:0x00000000  x9=0x000003b2
       48685000	      4867	80003b0c	00969533	sll	x10,x13,x9	 x13:0x00000000  x9:0x000003b2 x10=0x00000000
       48695000	      4868	80003b10	2483e593	ori	x11,x7,584	  x7:0x80009fc4 x11=0x80009fcc
       48705000	      4869	80003b14	06293813	sltiu	x16,x18,98	 x18:0xf93dd000 x16=0x00000000
       48715000	      4870	80003b18	9e3f3e37	lui	x28,0x9e3f3	 x28=0x9e3f3000
       48725000	      4871	80003b1c	8e29e513	ori	x10,x19,-1822	 x19:0x00000000 x10=0xfffff8e2
       48735000	      4872	80003b20	4ed63913	sltiu	x18,x12,1261	 x12:0x00000000 x18=0x00000001
       48745000	      4873	80003b24	01e15293	srli	x5,x2,0x1e	  x2:0x80008abb  x5=0x00000002
       48755000	      4874	80003b28	a2b34d93	xori	x27,x6,-1493	  x6:0x88dda001 x27=0x77225a2a
       48765000	      4875	80003b2c	01210d03	lb	x26,18(x2)	  x2:0x80008abb x26=0x00000000 PA:0x80008acd
       48775000	      4876	80003b30	00000013	addi	x0,x0,0	  x0:0x00000000
       48785000	      4877	80003b34	01010203	lb	x4,16(x2)	  x2:0x80008abb  x4=0x00000000 PA:0x80008acb
       48795000	      4878	80003b38	00ef10b3	sll	x1,x30,x14	 x30:0x0000002b x14:0x000003f6  x1=0x0ac00000
       48805000	      4879	80003b3c	ff4126a3	sw	x20,-19(x2)	  x2:0x80008abb x20:0xa15e4cb0 PA:0x80008aa8
       48815000	      4880	80003b40	fd310e23	sb	x19,-36(x2)	  x2:0x80008abb x19:0x00000000 PA:0x80008a97
       48825000	      4881	80003b44	fc010023	sb	x0,-64(x2)	  x2:0x80008abb  x0:0x00000000 PA:0x80008a7b
       48835000	      4882	80003b48	00005d97	auipc	x27,0x5	 x27=0x80008b44
       48845000	      4883	80003b4c	86bd8d93	addi	x27,x27,-1941	 x27:0x80008b44 x27=0x800083af
       48855000	      4884	80003b50	fe0d97a3	sh	x0,-17(x27)	 x27:0x800083af  x0:0x00000000 PA:0x8000839e
       48865000	      4885	80003b54	3af23593	sltiu	x11,x4,943	  x4:0x00000000 x11=0x00000001
       48875000	      4886	80003b58	d2480c93	addi	x25,x16,-732	 x16:0x00000000 x25=0xfffffd24
       48885000	      4887	80003b5c	a4d52b97	auipc	x23,0xa4d52	 x23=0x24d55b58
       48895000	      4888	80003b60	000c6ab3	or	x21,x24,x0	 x24:0x00000000  x0:0x00000000 x21=0x00000000
       48905000	      4889	80003b64	014d8123	sb	x20,2(x27)	 x27:0x800083af x20:0xa15e4cb0 PA:0x800083b1
       48915000	      4890	80003b68	005da0a3	sw	x5,1(x27)	 x27:0x800083af  x5:0x00000002 PA:0x800083b0
       48925000	      4891	80003b6c	029d9183	lh	x3,41(x27)	 x27:0x800083af  x3=0x00000000 PA:0x800083d8
       48935000	      4892	80003b70	40ec0933	sub	x18,x24,x14	 x24:0x00000000 x14:0x000003f6 x18=0xfffffc0a
       48945000	      4893	80003b74	fded8323	sb	x30,-58(x27)	 x27:0x800083af x30:0x0000002b PA:0x80008375
       48955000	      4894	80003b78	0171c2b3	xor	x5,x3,x23	  x3:0x00000000 x23:0x24d55b58  x5=0x24d55b58
       48965000	      4895	80003b7c	00000013	addi	x0,x0,0	  x0:0x00000000
       48975000	      4896	80003b80	fc8d8923	sb	x8,-46(x27)	 x27:0x800083af  x8:0x80009ee4 PA:0x80008381
       48985000	      4897	80003b84	fedda583	lw	x11,-19(x27)	 x27:0x800083af x11=0x00000000 PA:0x8000839c
       48995000	      4898	80003b88	fc5d8783	lb	x15,-59(x27)	 x27:0x800083af x15=0x00000000 PA:0x80008374
       49005000	      4899	80003b8c	031dae83	lw	x29,49(x27)	 x27:0x800083af x29=0x00000000 PA:0x800083e0
       49015000	      4900	80003b90	ff1dd103	lhu	x2,-15(x27)	 x27:0x800083af  x2=0x00000000 PA:0x800083a0
       49025000	      4901	80003b94	fccd8423	sb	x12,-56(x27)	 x27:0x800083af x12:0x00000000 PA:0x80008377
       49035000	      4902	80003b98	ff4d8203	lb	x4,-12(x27)	 x27:0x800083af  x4=0x00000000 PA:0x800083a3
       49045000	      4903	80003b9c	fe3dc903	lbu	x18,-29(x27)	 x27:0x800083af x18=0x00000000 PA:0x80008392
       49055000	      4904	80003ba0	3ba20193	addi	x3,x4,954	  x4:0x00000000  x3=0x000003ba
       49065000	      4905	80003ba4	025d8283	lb	x5,37(x27)	 x27:0x800083af  x5=0x00000000 PA:0x800083d4
       49075000	      4906	80003ba8	001dd003	lhu	x0,1(x27)	 x27:0x800083af PA:0x800083b0
       49085000	      4907	80003bac	ff7ddc03	lhu	x24,-9(x27)	 x27:0x800083af x24=0x00000000 PA:0x800083a6
       49095000	      4908	80003bb0	fd1d95a3	sh	x17,-53(x27)	 x27:0x800083af x17:0x00000000 PA:0x8000837a
       49105000	      4909	80003bb4	03cda6a3	sw	x28,45(x27)	 x27:0x800083af x28:0x9e3f3000 PA:0x800083dc
       49115000	      4910	80003bb8	fd5d9ea3	sh	x21,-35(x27)	 x27:0x800083af x21:0x00000000 PA:0x8000838c
       49125000	      4911	80003bbc	01383833	sltu	x16,x16,x19	 x16:0x00000000 x19:0x00000000 x16=0x00000000
       49135000	      4912	80003bc0	fc4d8523	sb	x4,-54(x27)	 x27:0x800083af  x4:0x00000000 PA:0x80008379
       49145000	      4913	80003bc4	fe4d8203	lb	x4,-28(x27)	 x27:0x800083af  x4=0x00000000 PA:0x80008393
       49155000	      4914	80003bc8	40f05e13	srai	x28,x0,0xf	  x0:0x00000000 x28=0x00000000
       49165000	      4915	80003bcc	fc7dc583	lbu	x11,-57(x27)	 x27:0x800083af x11=0x00000000 PA:0x80008376
       49175000	      4916	80003bd0	17584293	xori	x5,x16,373	 x16:0x00000000  x5=0x00000175
       49185000	      4917	80003bd4	fd2dc203	lbu	x4,-46(x27)	 x27:0x800083af  x4=0x000000e4 PA:0x80008381
       49195000	      4918	80003bd8	fc3dc183	lbu	x3,-61(x27)	 x27:0x800083af  x3=0x00000000 PA:0x80008372
       49205000	      4919	80003bdc	032dcb83	lbu	x23,50(x27)	 x27:0x800083af x23=0x00000000 PA:0x800083e1
       49215000	      4920	80003be0	ff9d8423	sb	x25,-24(x27)	 x27:0x800083af x25:0xfffffd24 PA:0x80008397
       49225000	      4921	80003be4	fcbdd703	lhu	x14,-53(x27)	 x27:0x800083af x14=0x00000000 PA:0x8000837a
       49235000	      4922	80003be8	00005117	auipc	x2,0x5	  x2=0x80008be4
       49245000	      4923	80003bec	d4010113	addi	x2,x2,-704	  x2:0x80008be4  x2=0x80008924
       49255000	      4924	80003bf0	24c00593	addi	x11,x0,588	  x0:0x00000000 x11=0x0000024c
       49265000	      4925	80003bf4	00f10b83	lb	x23,15(x2)	  x2:0x80008924 x23=0xfffffff8 PA:0x80008933
       49275000	      4926	80003bf8	01f106a3	sb	x31,13(x2)	  x2:0x80008924 x31:0x00000000 PA:0x80008931
       49285000	      4927	80003bfc	5ac3fd93	andi	x27,x7,1452	  x7:0x80009fc4 x27=0x00000584
       49295000	      4928	80003c00	42593c13	sltiu	x24,x18,1061	 x18:0x00000000 x24=0x00000001
       49305000	      4929	80003c04	00000013	addi	x0,x0,0	  x0:0x00000000
       49315000	      4930	80003c08	006f2233	slt	x4,x30,x6	 x30:0x0000002b  x6:0x88dda001  x4=0x00000000
       49325000	      4931	80003c0c	00414083	lbu	x1,4(x2)	  x2:0x80008924  x1=0x00000000 PA:0x80008928
       49335000	      4932	80003c10	fff10fa3	sb	x31,-1(x2)	  x2:0x80008924 x31:0x00000000 PA:0x80008923
       49345000	      4933	80003c14	01a49493	slli	x9,x9,0x1a	  x9:0x000003b2  x9=0xc8000000
       49355000	      4934	80003c18	ffd14b03	lbu	x22,-3(x2)	  x2:0x80008924 x22=0x00000000 PA:0x80008921
       49365000	      4935	80003c1c	00114a83	lbu	x21,1(x2)	  x2:0x80008924 x21=0x00000000 PA:0x80008925
       49375000	      4936	80003c20	01399e33	sll	x28,x19,x19	 x19:0x00000000 x19:0x00000000 x28=0x00000000
       49385000	      4937	80003c24	00811d03	lh	x26,8(x2)	  x2:0x80008924 x26=0x00000000 PA:0x8000892c
       49395000	      4938	80003c28	fe111d23	sh	x1,-6(x2)	  x2:0x80008924  x1:0x00000000 PA:0x8000891e
       49405000	      4939	80003c2c	ff510ca3	sb	x21,-7(x2)	  x2:0x80008924 x21:0x00000000 PA:0x8000891d
       49415000	      4940	80003c30	015100a3	sb	x21,1(x2)	  x2:0x80008924 x21:0x00000000 PA:0x80008925
       49425000	      4941	80003c34	00914f03	lbu	x30,9(x2)	  x2:0x80008924 x30=0x00000000 PA:0x8000892d
       49435000	      4942	80003c38	00a11723	sh	x10,14(x2)	  x2:0x80008924 x10:0xfffff8e2 PA:0x80008932
       49445000	      4943	80003c3c	01e100a3	sb	x30,1(x2)	  x2:0x80008924 x30:0x00000000 PA:0x80008925
       49455000	      4944	80003c40	ff010803	lb	x16,-16(x2)	  x2:0x80008924 x16=0x00000000 PA:0x80008914
       49465000	      4945	80003c44	00214e83	lbu	x29,2(x2)	  x2:0x80008924 x29=0x00000000 PA:0x80008926
       49475000	      4946	80003c48	bc872993	slti	x19,x14,-1080	 x14:0x00000000 x19=0x00000000
       49485000	      4947	80003c4c	00a5d893	srli	x17,x11,0xa	 x11:0x0000024c x17=0x00000000
       49495000	      4948	80003c50	00114783	lbu	x15,1(x2)	  x2:0x80008924 x15=0x00000000 PA:0x80008925
       49505000	      4949	80003c54	00010083	lb	x1,0(x2)	  x2:0x80008924  x1=0x00000000 PA:0x80008924
       49515000	      4950	80003c58	0576ab13	slti	x22,x13,87	 x13:0x00000000 x22=0x00000001
       49525000	      4951	80003c5c	00d10583	lb	x11,13(x2)	  x2:0x80008924 x11=0x00000000 PA:0x80008931
       49535000	      4952	80003c60	40de88b3	sub	x17,x29,x13	 x29:0x00000000 x13:0x00000000 x17=0x00000000
       49545000	      4953	80003c64	ff215483	lhu	x9,-14(x2)	  x2:0x80008924  x9=0x00000000 PA:0x80008916
       49555000	      4954	80003c68	00a10b83	lb	x23,10(x2)	  x2:0x80008924 x23=0x00000000 PA:0x8000892e
       49565000	      4955	00000000	00000013	addi	x0,x0,0	  x0:0x00000000
       49575000	      4956	80003c6c	ff710b03	lb	x22,-9(x2)	  x2:0x80008924 x22=0x00000000 PA:0x8000891b
       49585000	      4957	80003c70	41470033	sub	x0,x14,x20	 x14:0x00000000 x20:0xa15e4cb0
       49595000	      4958	80003c74	fef10ca3	sb	x15,-7(x2)	  x2:0x80008924 x15:0x00000000 PA:0x8000891d
       49605000	      4959	80003c78	ff914983	lbu	x19,-7(x2)	  x2:0x80008924 x19=0x00000000 PA:0x8000891d
       49615000	      4960	80003c7c	00c10423	sb	x12,8(x2)	  x2:0x80008924 x12:0x00000000 PA:0x8000892c
       49625000	      4961	80003c80	ffc108a3	sb	x28,-15(x2)	  x2:0x80008924 x28:0x00000000 PA:0x80008915
       49635000	      4962	80003c84	01091d13	slli	x26,x18,0x10	 x18:0x00000000 x26=0x00000000
       49645000	      4963	80003c88	00381663	bne	x16,x3,80003c94	 x16:0x00000000  x3:0x00000000
       49655000	      4964	80003c8c	01718263	beq	x3,x23,80003c90	  x3:0x00000000 x23:0x00000000
       49665000	      4965	00000000	00000013	addi	x0,x0,0	  x0:0x00000000
       49675000	      4966	80003c8c	00000013	addi	x0,x0,0	  x0:0x00000000
       49685000	      4967	80003c90	01f400b3	add	x1,x8,x31	  x8:0x80009ee4 x31:0x00000000  x1=0x80009ee4
       49695000	      4968	80003c94	9f46d897	auipc	x17,0x9f46d	 x17=0x1f470c90
       49705000	      4969	80003c98	01d0f2b3	and	x5,x1,x29	  x1:0x80009ee4 x29:0x00000000  x5=0x00000000
       49715000	      4970	80003c9c	41dade93	srai	x29,x21,0x1d	 x21:0x00000000 x29=0x00000000
       49725000	      4971	80003ca0	011f5eb3	srl	x29,x30,x17	 x30:0x00000000 x17:0x1f470c90 x29=0x00000000
       49735000	      4972	80003ca4	01095033	srl	x0,x18,x16	 x18:0x00000000 x16:0x00000000
       49745000	      4973	80003ca8	00f30463	beq	x6,x15,80003cb0	  x6:0x88dda001 x15:0x00000000
       49755000	      4974	80003cac	0102d263	bge	x5,x16,80003cb0	  x5:0x00000000 x16:0x00000000
       49765000	      4975	00000000	00000013	addi	x0,x0,0	  x0:0x00000000
       49775000	      4976	80003cac	00000013	addi	x0,x0,0	  x0:0x00000000
       49785000	      4977	80003cb0	40e8dd93	srai	x27,x17,0xe	 x17:0x1f470c90 x27=0x00007d1c
       49795000	      4978	80003cb4	018cd7b3	srl	x15,x25,x24	 x25:0xfffffd24 x24:0x00000001 x15=0x7ffffe92
       49805000	      4979	80003cb8	01c4cc63	blt	x9,x28,80003cd0	  x9:0x00000000 x28:0x00000000
       49815000	      4980	80003cbc	01cb41b3	xor	x3,x22,x28	 x22:0x00000000 x28:0x00000000  x3=0x00000000
       49825000	      4981	80003cc0	3dcfa737	lui	x14,0x3dcfa	 x14=0x3dcfa000
       49835000	      4982	80003cc4	001a1793	slli	x15,x20,0x1	 x20:0xa15e4cb0 x15=0x42bc9960
       49845000	      4983	80003cc8	4014df13	srai	x30,x9,0x1	  x9:0x00000000 x30=0x00000000
       49855000	      4984	80003ccc	cbc76193	ori	x3,x14,-836	 x14:0x3dcfa000  x3=0xfffffcbc
       49865000	      4985	80003cd0	b552cc93	xori	x25,x5,-1195	  x5:0x00000000 x25=0xfffffb55
       49875000	      4986	80003cd4	40c602b3	sub	x5,x12,x12	 x12:0x00000000 x12:0x00000000  x5=0x00000000
       49885000	      4987	80003cd8	01150c63	beq	x10,x17,80003cf0	 x10:0xfffff8e2 x17:0x1f470c90
       49895000	      4988	80003cdc	03ff4063	blt	x30,x31,80003cfc	 x30:0x00000000 x31:0x00000000
       49905000	      4989	80003ce0	01241463	bne	x8,x18,80003ce8	  x8:0x80009ee4 x18:0x00000000
       49915000	      4990	00000000	00000013	addi	x0,x0,0	  x0:0x00000000
       49925000	      4991	80003ce4	00000013	addi	x0,x0,0	  x0:0x00000000
       49935000	      4992	80003ce8	01a4fd33	and	x26,x9,x26	  x9:0x00000000 x26:0x00000000 x26=0x00000000
       49945000	      4993	80003cec	41d75233	sra	x4,x14,x29	 x14:0x3dcfa000 x29:0x00000000  x4=0x3dcfa000
       49955000	      4994	80003cf0	41e0de13	srai	x28,x1,0x1e	  x1:0x80009ee4 x28=0xfffffffe
       49965000	      4995	80003cf4	002d94b3	sll	x9,x27,x2	 x27:0x00007d1c  x2:0x80008924  x9=0x0007d1c0
       49975000	      4996	80003cf8	02151463	bne	x10,x1,80003d20	 x10:0xfffff8e2  x1:0x80009ee4
       49985000	      4997	00000000	00000013	addi	x0,x0,0	  x0:0x00000000
       49995000	      4998	80003d1c	00000013	addi	x0,x0,0	  x0:0x00000000
       50005000	      4999	80003d20	00bd27b3	slt	x15,x26,x11	 x26:0x00000000 x11:0x00000000 x15=0x00000000
       50015000	      5000	80003d24	68f48a93	addi	x21,x9,1679	  x9:0x0007d1c0 x21=0x0007d84f
       50025000	      5001	80003d28	41562517	auipc	x10,0x41562	 x10=0xc1565d24
       50035000	      5002	80003d2c	1d71a513	slti	x10,x3,471	  x3:0xfffffcbc x10=0x00000001
       50045000	      5003	80003d30	019eebb3	or	x23,x29,x25	 x29:0x00000000 x25:0xfffffb55 x23=0xfffffb55
       50055000	      5004	80003d34	00d5d0b3	srl	x1,x11,x13	 x11:0x00000000 x13:0x00000000  x1=0x00000000
       50065000	      5005	80003d38	02726e63	bltu	x4,x7,80003d74	  x4:0x3dcfa000  x7:0x80009fc4
       50075000	      5006	00000000	00000013	addi	x0,x0,0	  x0:0x00000000
       50085000	      5007	80003d70	00000013	addi	x0,x0,0	  x0:0x00000000
       50095000	      5008	80003d74	01cad513	srli	x10,x21,0x1c	 x21:0x0007d84f x10=0x00000000
       50105000	      5009	80003d78	00318e33	add	x28,x3,x3	  x3:0xfffffcbc  x3:0xfffffcbc x28=0xfffff978
       50115000	      5010	80003d7c	009142b3	xor	x5,x2,x9	  x2:0x80008924  x9:0x0007d1c0  x5=0x800758e4
       50125000	      5011	80003d80	056c8863	beq	x25,x22,80003dd0	 x25:0xfffffb55 x22:0x00000000
       50135000	      5012	80003d84	40fa5213	srai	x4,x20,0xf	 x20:0xa15e4cb0  x4=0xffff42bc
       50145000	      5013	80003d88	41595f13	srai	x30,x18,0x15	 x18:0x00000000 x30=0x00000000
       50155000	      5014	80003d8c	01189863	bne	x17,x17,80003d9c	 x17:0x1f470c90 x17:0x1f470c90
       50165000	      5015	80003d90	e3913593	sltiu	x11,x2,-455	  x2:0x80008924 x11=0x00000001
       50175000	      5016	80003d94	01869eb3	sll	x29,x13,x24	 x13:0x00000000 x24:0x00000001 x29=0x00000000
       50185000	      5017	80003d98	401a88b3	sub	x17,x21,x1	 x21:0x0007d84f  x1:0x00000000 x17=0x0007d84f
       50195000	      5018	80003d9c	02d41a63	bne	x8,x13,80003dd0	  x8:0x80009ee4 x13:0x00000000
       50205000	      5019	00000000	00000013	addi	x0,x0,0	  x0:0x00000000
       50215000	      5020	80003dcc	00000013	addi	x0,x0,0	  x0:0x00000000
       50225000	      5021	80003dd0	03b74a63	blt	x14,x27,80003e04	 x14:0x3dcfa000 x27:0x00007d1c
       50235000	      5022	80003dd4	9f8a0a93	addi	x21,x20,-1544	 x20:0xa15e4cb0 x21=0xa15e46a8
       50245000	      5023	80003dd8	00000013	addi	x0,x0,0	  x0:0x00000000
       50255000	      5024	80003ddc	03327a63	bgeu	x4,x19,80003e10	  x4:0xffff42bc x19:0x00000000
       50265000	      5025	00000000	00000013	addi	x0,x0,0	  x0:0x00000000
       50275000	      5026	80003e0c	00000013	addi	x0,x0,0	  x0:0x00000000
       50285000	      5027	80003e10	0024c7b3	xor	x15,x9,x2	  x9:0x0007d1c0  x2:0x80008924 x15=0x800758e4
       50295000	      5028	80003e14	01f1f863	bgeu	x3,x31,80003e24	  x3:0xfffffcbc x31:0x00000000
       50305000	      5029	00000000	00000013	addi	x0,x0,0	  x0:0x00000000
       50315000	      5030	80003e20	00000013	addi	x0,x0,0	  x0:0x00000000
       50325000	      5031	80003e24	00000013	addi	x0,x0,0	  x0:0x00000000
       50335000	      5032	80003e28	01771bb3	sll	x23,x14,x23	 x14:0x3dcfa000 x23:0xfffffb55 x23=0x00000000
       50345000	      5033	80003e2c	41f35b93	srai	x23,x6,0x1f	  x6:0x88dda001 x23=0xffffffff
       50355000	      5034	80003e30	01f76cb3	or	x25,x14,x31	 x14:0x3dcfa000 x31:0x00000000 x25=0x3dcfa000
       50365000	      5035	80003e34	06a18e13	addi	x28,x3,106	  x3:0xfffffcbc x28=0xfffffd26
       50375000	      5036	80003e38	03897463	bgeu	x18,x24,80003e60	 x18:0x00000000 x24:0x00000001
       50385000	      5037	80003e3c	a09aec13	ori	x24,x21,-1527	 x21:0xa15e46a8 x24=0xfffffea9
       50395000	      5038	80003e40	02827c63	bgeu	x4,x8,80003e78	  x4:0xffff42bc  x8:0x80009ee4
       50405000	      5039	00000000	00000013	addi	x0,x0,0	  x0:0x00000000
       50415000	      5040	80003e74	00000013	addi	x0,x0,0	  x0:0x00000000
       50425000	      5041	80003e78	00016e63	bltu	x2,x0,80003e94	  x2:0x80008924  x0:0x00000000
       50435000	      5042	80003e7c	00d78c63	beq	x15,x13,80003e94	 x15:0x800758e4 x13:0x00000000
       50445000	      5043	80003e80	01b44a93	xori	x21,x8,27	  x8:0x80009ee4 x21=0x80009eff
       50455000	      5044	80003e84	009fe4b3	or	x9,x31,x9	 x31:0x00000000  x9:0x0007d1c0  x9=0x0007d1c0
       50465000	      5045	80003e88	a6f9f613	andi	x12,x19,-1425	 x19:0x00000000 x12=0x00000000
       50475000	      5046	80003e8c	01a0da93	srli	x21,x1,0x1a	  x1:0x00000000 x21=0x00000000
       50485000	      5047	80003e90	01b31bb3	sll	x23,x6,x27	  x6:0x88dda001 x27:0x00007d1c x23=0x10000000
       50495000	      5048	80003e94	0008c863	blt	x17,x0,80003ea4	 x17:0x0007d84f  x0:0x00000000
       50505000	      5049	80003e98	01e16863	bltu	x2,x30,80003ea8	  x2:0x80008924 x30:0x00000000
       50515000	      5050	80003e9c	53a2c913	xori	x18,x5,1338	  x5:0x800758e4 x18=0x80075dde
       50525000	      5051	80003ea0	5b14c097	auipc	x1,0x5b14c	  x1=0xdb14fe9c
       50535000	      5052	80003ea4	bce71897	auipc	x17,0xbce71	 x17=0x3ce74ea0
       50545000	      5053	80003ea8	41a95533	sra	x10,x18,x26	 x18:0x80075dde x26:0x00000000 x10=0x80075dde
       50555000	      5054	80003eac	00dbf9b3	and	x19,x23,x13	 x23:0x10000000 x13:0x00000000 x19=0x00000000
       50565000	      5055	80003eb0	02b56063	bltu	x10,x11,80003ed0	 x10:0x80075dde x11:0x00000001
       50575000	      5056	80003eb4	01367463	bgeu	x12,x19,80003ebc	 x12:0x00000000 x19:0x00000000
       50585000	      5057	00000000	00000013	addi	x0,x0,0	  x0:0x00000000
       50595000	      5058	80003eb8	00000013	addi	x0,x0,0	  x0:0x00000000
       50605000	      5059	80003ebc	05fc1863	bne	x24,x31,80003f0c	 x24:0xfffffea9 x31:0x00000000
       50615000	      5060	00000000	00000013	addi	x0,x0,0	  x0:0x00000000
       50625000	      5061	80003f08	00000013	addi	x0,x0,0	  x0:0x00000000
       50635000	      5062	80003f0c	40d95013	srai	x0,x18,0xd	 x18:0x80075dde
       50645000	      5063	80003f10	a0572693	slti	x13,x14,-1531	 x14:0x3dcfa000 x13=0x00000000
       50655000	      5064	80003f14	00000013	addi	x0,x0,0	  x0:0x00000000
       50665000	      5065	80003f18	fef13d93	sltiu	x27,x2,-17	  x2:0x80008924 x27=0x00000001
       50675000	      5066	80003f1c	015d7263	bgeu	x26,x21,80003f20	 x26:0x00000000 x21:0x00000000
       50685000	      5067	00000000	00000013	addi	x0,x0,0	  x0:0x00000000
       50695000	      5068	80003f1c	00000013	addi	x0,x0,0	  x0:0x00000000
       50705000	      5069	80003f20	a41d2d93	slti	x27,x26,-1471	 x26:0x00000000 x27=0x00000000
       50715000	      5070	80003f24	af20a813	slti	x16,x1,-1294	  x1:0xdb14fe9c x16=0x00000001
       50725000	      5071	80003f28	03f44e63	blt	x8,x31,80003f64	  x8:0x80009ee4 x31:0x00000000
       50735000	      5072	00000000	00000013	addi	x0,x0,0	  x0:0x00000000
       50745000	      5073	80003f60	00000013	addi	x0,x0,0	  x0:0x00000000
       50755000	      5074	80003f64	4177d0b3	sra	x1,x15,x23	 x15:0x800758e4 x23:0x10000000  x1=0x800758e4
       50765000	      5075	80003f68	00c59933	sll	x18,x11,x12	 x11:0x00000001 x12:0x00000000 x18=0x00000001
       50775000	      5076	80003f6c	e9bf6137	lui	x2,0xe9bf6	  x2=0xe9bf6000
       50785000	      5077	80003f70	9318e9b7	lui	x19,0x9318e	 x19=0x9318e000
       50795000	      5078	80003f74	0091beb3	sltu	x29,x3,x9	  x3:0xfffffcbc  x9:0x0007d1c0 x29=0x00000000
       50805000	      5079	80003f78	01ec4bb3	xor	x23,x24,x30	 x24:0xfffffea9 x30:0x00000000 x23=0xfffffea9
       50815000	      5080	80003f7c	01d9f663	bgeu	x19,x29,80003f88	 x19:0x9318e000 x29:0x00000000
       50825000	      5081	00000000	00000013	addi	x0,x0,0	  x0:0x00000000
       50835000	      5082	80003f84	00000013	addi	x0,x0,0	  x0:0x00000000
       50845000	      5083	80003f88	00e06d33	or	x26,x0,x14	  x0:0x00000000 x14:0x3dcfa000 x26=0x3dcfa000
       50855000	      5084	80003f8c	b0608d93	addi	x27,x1,-1274	  x1:0x800758e4 x27=0x800753ea
       50865000	      5085	80003f90	00fd2cb3	slt	x25,x26,x15	 x26:0x3dcfa000 x15:0x800758e4 x25=0x00000000
       50875000	      5086	80003f94	1ecbf8b7	lui	x17,0x1ecbf	 x17=0x1ecbf000
       50885000	      5087	80003f98	017994b3	sll	x9,x19,x23	 x19:0x9318e000 x23:0xfffffea9  x9=0x31c00000
       50895000	      5088	80003f9c	007d5d13	srli	x26,x26,0x7	 x26:0x3dcfa000 x26=0x007b9f40
       50905000	      5089	80003fa0	01441c13	slli	x24,x8,0x14	  x8:0x80009ee4 x24=0xee400000
       50915000	      5090	80003fa4	01139893	slli	x17,x7,0x11	  x7:0x80009fc4 x17=0x3f880000
       50925000	      5091	80003fa8	01225213	srli	x4,x4,0x12	  x4:0xffff42bc  x4=0x00003fff
       50935000	      5092	80003fac	00b888b3	add	x17,x17,x11	 x17:0x3f880000 x11:0x00000001 x17=0x3f880001
       50945000	      5093	80003fb0	cc8f6d13	ori	x26,x30,-824	 x30:0x00000000 x26=0xfffffcc8
       50955000	      5094	80003fb4	9a843113	sltiu	x2,x8,-1624	  x8:0x80009ee4  x2=0x00000001
       50965000	      5095	80003fb8	bbd0b7b7	lui	x15,0xbbd0b	 x15=0xbbd0b000
       50975000	      5096	80003fbc	01a8fab3	and	x21,x17,x26	 x17:0x3f880001 x26:0xfffffcc8 x21=0x3f880000
       50985000	      5097	80003fc0	01ebc533	xor	x10,x23,x30	 x23:0xfffffea9 x30:0x00000000 x10=0xfffffea9
       50995000	      5098	80003fc4	2b870113	addi	x2,x14,696	 x14:0x3dcfa000  x2=0x3dcfa2b8
       51005000	      5099	80003fc8	f9db2b93	slti	x23,x22,-99	 x22:0x00000000 x23=0x00000000
       51015000	      5100	80003fcc	00218e33	add	x28,x3,x2	  x3:0xfffffcbc  x2:0x3dcfa2b8 x28=0x3dcf9f74
       51025000	      5101	80003fd0	00ac4c33	xor	x24,x24,x10	 x24:0xee400000 x10:0xfffffea9 x24=0x11bffea9
       51035000	      5102	80003fd4	016bfab3	and	x21,x23,x22	 x23:0x00000000 x22:0x00000000 x21=0x00000000
       51045000	      5103	80003fd8	004e6833	or	x16,x28,x4	 x28:0x3dcf9f74  x4:0x00003fff x16=0x3dcfbfff
       51055000	      5104	80003fdc	897ea613	slti	x12,x29,-1897	 x29:0x00000000 x12=0x00000000
       51065000	      5105	80003fe0	3a1ceb93	ori	x23,x25,929	 x25:0x00000000 x23=0x000003a1
       51075000	      5106	80003fe4	e0a22db7	lui	x27,0xe0a22	 x27=0xe0a22000
       51085000	      5107	80003fe8	00000013	addi	x0,x0,0	  x0:0x00000000
       51095000	      5108	80003fec	017cd7b3	srl	x15,x25,x23	 x25:0x00000000 x23:0x000003a1 x15=0x00000000
       51105000	      5109	80003ff0	00972fb3	slt	x31,x14,x9	 x14:0x3dcfa000  x9:0x31c00000 x31=0x00000000
       51115000	      5110	80003ff4	036a5063	bge	x20,x22,80004014	 x20:0xa15e4cb0 x22:0x00000000
       51125000	      5111	80003ff8	012951b3	srl	x3,x18,x18	 x18:0x00000001 x18:0x00000001  x3=0x00000000
       51135000	      5112	80003ffc	31e4eb97	auipc	x23,0x31e4e	 x23=0xb1e51ff8
       51145000	      5113	80004000	311a4b93	xori	x23,x20,785	 x20:0xa15e4cb0 x23=0xa15e4fa1
       51155000	      5114	80004004	0085adb3	slt	x27,x11,x8	 x11:0x00000001  x8:0x80009ee4 x27=0x00000000
       51165000	      5115	80004008	d7e57f37	lui	x30,0xd7e57	 x30=0xd7e57000
       51175000	      5116	8000400c	00000013	addi	x0,x0,0	  x0:0x00000000
       51185000	      5117	80004010	012782b3	add	x5,x15,x18	 x15:0x00000000 x18:0x00000001  x5=0x00000001
       51195000	      5118	80004014	02705a63	bge	x0,x7,80004048	  x0:0x00000000  x7:0x80009fc4
       51205000	      5119	00000000	00000013	addi	x0,x0,0	  x0:0x00000000
       51215000	      5120	80004044	00000013	addi	x0,x0,0	  x0:0x00000000
       51225000	      5121	80004048	00969233	sll	x4,x13,x9	 x13:0x00000000  x9:0x31c00000  x4=0x00000000
       51235000	      5122	8000404c	008fedb3	or	x27,x31,x8	 x31:0x00000000  x8:0x80009ee4 x27=0x80009ee4
       51245000	      5123	80004050	952e6493	ori	x9,x28,-1710	 x28:0x3dcf9f74  x9=0xffffff76
       51255000	      5124	80004054	00b6db93	srli	x23,x13,0xb	 x13:0x00000000 x23=0x00000000
       51265000	      5125	80004058	00467ab3	and	x21,x12,x4	 x12:0x00000000  x4:0x00000000 x21=0x00000000
       51275000	      5126	8000405c	00938463	beq	x7,x9,80004064	  x7:0x80009fc4  x9:0xffffff76
       51285000	      5127	80004060	407f5f33	sra	x30,x30,x7	 x30:0xd7e57000  x7:0x80009fc4 x30=0xfd7e5700
       51295000	      5128	80004064	4c04a913	slti	x18,x9,1216	  x9:0xffffff76 x18=0x00000001
       51305000	      5129	80004068	401d5893	srai	x17,x26,0x1	 x26:0xfffffcc8 x17=0xfffffe64
       51315000	      5130	8000406c	00000013	addi	x0,x0,0	  x0:0x00000000
       51325000	      5131	80004070	00000013	addi	x0,x0,0	  x0:0x00000000
       51335000	      5132	80004074	02c9ee63	bltu	x19,x12,800040b0	 x19:0x9318e000 x12:0x00000000
       51345000	      5133	80004078	9cabe813	ori	x16,x23,-1590	 x23:0x00000000 x16=0xfffff9ca
       51355000	      5134	8000407c	ff5f5597	auipc	x11,0xff5f5	 x11=0x7f5f9078
       51365000	      5135	80004080	412804b3	sub	x9,x16,x18	 x16:0xfffff9ca x18:0x00000001  x9=0xfffff9c9
       51375000	      5136	80004084	910a9e17	auipc	x28,0x910a9	 x28=0x110ad080
       51385000	      5137	80004088	00fa5993	srli	x19,x20,0xf	 x20:0xa15e4cb0 x19=0x000142bc
       51395000	      5138	8000408c	01529d33	sll	x26,x5,x21	  x5:0x00000001 x21:0x00000000 x26=0x00000001
       51405000	      5139	80004090	41135233	sra	x4,x6,x17	  x6:0x88dda001 x17:0xfffffe64  x4=0xf88dda00
       51415000	      5140	80004094	c6f07113	andi	x2,x0,-913	  x0:0x00000000  x2=0x00000000
       51425000	      5141	80004098	015a0b33	add	x22,x20,x21	 x20:0xa15e4cb0 x21:0x00000000 x22=0xa15e4cb0
       51435000	      5142	8000409c	db984613	xori	x12,x16,-583	 x16:0xfffff9ca x12=0x00000473
       51445000	      5143	800040a0	015beb33	or	x22,x23,x21	 x23:0x00000000 x21:0x00000000 x22=0x00000000
       51455000	      5144	800040a4	c5d82193	slti	x3,x16,-931	 x16:0xfffff9ca  x3=0x00000001
       51465000	      5145	800040a8	00264f33	xor	x30,x12,x2	 x12:0x00000473  x2:0x00000000 x30=0x00000473
       51475000	      5146	800040ac	11079863	bne	x15,x16,800041bc	 x15:0x00000000 x16:0xfffff9ca
       51485000	      5147	00000000	00000013	addi	x0,x0,0	  x0:0x00000000
       51495000	      5148	800041b8	00000013	addi	x0,x0,0	  x0:0x00000000
       51505000	      5149	800041bc	d46e0f13	addi	x30,x28,-698	 x28:0x110ad080 x30=0x110acdc6
       51515000	      5150	800041c0	00e13b33	sltu	x22,x2,x14	  x2:0x00000000 x14:0x3dcfa000 x22=0x00000001
       51525000	      5151	800041c4	03004463	blt	x0,x16,800041ec	  x0:0x00000000 x16:0xfffff9ca
       51535000	      5152	800041c8	beb18913	addi	x18,x3,-1045	  x3:0x00000001 x18=0xfffffbec
       51545000	      5153	800041cc	014e98b3	sll	x17,x29,x20	 x29:0x00000000 x20:0xa15e4cb0 x17=0x00000000
       51555000	      5154	800041d0	01caacb3	slt	x25,x21,x28	 x21:0x00000000 x28:0x110ad080 x25=0x00000001
       51565000	      5155	800041d4	0152b633	sltu	x12,x5,x21	  x5:0x00000001 x21:0x00000000 x12=0x00000000
       51575000	      5156	800041d8	00184fb3	xor	x31,x16,x1	 x16:0xfffff9ca  x1:0x800758e4 x31=0x7ff8a12e
       51585000	      5157	800041dc	89584d93	xori	x27,x16,-1899	 x16:0xfffff9ca x27=0x0000015f
       51595000	      5158	800041e0	41620f33	sub	x30,x4,x22	  x4:0xf88dda00 x22:0x00000001 x30=0xf88dd9ff
       51605000	      5159	800041e4	054c6063	bltu	x24,x20,80004224	 x24:0x11bffea9 x20:0xa15e4cb0
       51615000	      5160	00000000	00000013	addi	x0,x0,0	  x0:0x00000000
       51625000	      5161	80004220	00000013	addi	x0,x0,0	  x0:0x00000000
       51635000	      5162	80004224	40ba59b3	sra	x19,x20,x11	 x20:0xa15e4cb0 x11:0x7f5f9078 x19=0xffffffa1
       51645000	      5163	80004228	00479133	sll	x2,x15,x4	 x15:0x00000000  x4:0xf88dda00  x2=0x00000000
       51655000	      5164	8000422c	57e76813	ori	x16,x14,1406	 x14:0x3dcfa000 x16=0x3dcfa57e
       51665000	      5165	80004230	00f00ab3	add	x21,x0,x15	  x0:0x00000000 x15:0x00000000 x21=0x00000000
       51675000	      5166	80004234	018c9293	slli	x5,x25,0x18	 x25:0x00000001  x5=0x01000000
       51685000	      5167	80004238	01ad6463	bltu	x26,x26,80004240	 x26:0x00000001 x26:0x00000001
       51695000	      5168	8000423c	4118de33	sra	x28,x17,x17	 x17:0x00000000 x17:0x00000000 x28=0x00000000
       51705000	      5169	80004240	40225893	srai	x17,x4,0x2	  x4:0xf88dda00 x17=0xfe237680
       51715000	      5170	80004244	017d0db3	add	x27,x26,x23	 x26:0x00000001 x23:0x00000000 x27=0x00000001
       51725000	      5171	80004248	00309c13	slli	x24,x1,0x3	  x1:0x800758e4 x24=0x003ac720
       51735000	      5172	8000424c	0258ee63	bltu	x17,x5,80004288	 x17:0xfe237680  x5:0x01000000
       51745000	      5173	80004250	032ee063	bltu	x29,x18,80004270	 x29:0x00000000 x18:0xfffffbec
       51755000	      5174	00000000	00000013	addi	x0,x0,0	  x0:0x00000000
       51765000	      5175	8000426c	00000013	addi	x0,x0,0	  x0:0x00000000
       51775000	      5176	80004270	c51fee93	ori	x29,x31,-943	 x31:0x7ff8a12e x29=0xfffffd7f
       51785000	      5177	80004274	00c8e8b3	or	x17,x17,x12	 x17:0xfe237680 x12:0x00000000 x17=0xfe237680
       51795000	      5178	80004278	0113a5b3	slt	x11,x7,x17	  x7:0x80009fc4 x17:0xfe237680 x11=0x00000001
       51805000	      5179	8000427c	01066033	or	x0,x12,x16	 x12:0x00000000 x16:0x3dcfa57e
       51815000	      5180	80004280	0420e863	bltu	x1,x2,800042d0	  x1:0x800758e4  x2:0x00000000
       51825000	      5181	80004284	21a2a593	slti	x11,x5,538	  x5:0x01000000 x11=0x00000000
       51835000	      5182	80004288	03bde063	bltu	x27,x27,800042a8	 x27:0x00000001 x27:0x00000001
       51845000	      5183	8000428c	01e16533	or	x10,x2,x30	  x2:0x00000000 x30:0xf88dd9ff x10=0xf88dd9ff
       51855000	      5184	80004290	f4878493	addi	x9,x15,-184	 x15:0x00000000  x9=0xffffff48
       51865000	      5185	80004294	00000013	addi	x0,x0,0	  x0:0x00000000
       51875000	      5186	80004298	010ce6b3	or	x13,x25,x16	 x25:0x00000001 x16:0x3dcfa57e x13=0x3dcfa57f
       51885000	      5187	8000429c	00cd1293	slli	x5,x26,0xc	 x26:0x00000001  x5=0x00001000
       51895000	      5188	800042a0	0127abb3	slt	x23,x15,x18	 x15:0x00000000 x18:0xfffffbec x23=0x00000000
       51905000	      5189	800042a4	77cee513	ori	x10,x29,1916	 x29:0xfffffd7f x10=0xffffff7f
       51915000	      5190	800042a8	00000013	addi	x0,x0,0	  x0:0x00000000
       51925000	      5191	800042ac	00c196b3	sll	x13,x3,x12	  x3:0x00000001 x12:0x00000000 x13=0x00000001
       51935000	      5192	800042b0	401b5933	sra	x18,x22,x1	 x22:0x00000001  x1:0x800758e4 x18=0x00000000
       51945000	      5193	800042b4	0045e1b3	or	x3,x11,x4	 x11:0x00000000  x4:0xf88dda00  x3=0xf88dda00
       51955000	      5194	800042b8	0193ad33	slt	x26,x7,x25	  x7:0x80009fc4 x25:0x00000001 x26=0x00000001
       51965000	      5195	800042bc	00469e63	bne	x13,x4,800042d8	 x13:0x00000001  x4:0xf88dda00
       51975000	      5196	00000000	00000013	addi	x0,x0,0	  x0:0x00000000
       51985000	      5197	800042d4	00000013	addi	x0,x0,0	  x0:0x00000000
       51995000	      5198	800042d8	01261193	slli	x3,x12,0x12	 x12:0x00000000  x3=0x00000000
       52005000	      5199	800042dc	00c8cb33	xor	x22,x17,x12	 x17:0xfe237680 x12:0x00000000 x22=0xfe237680
       52015000	      5200	800042e0	aeadab13	slti	x22,x27,-1302	 x27:0x00000001 x22=0x00000000
       52025000	      5201	800042e4	00000013	addi	x0,x0,0	  x0:0x00000000
       52035000	      5202	800042e8	00b22533	slt	x10,x4,x11	  x4:0xf88dda00 x11:0x00000000 x10=0x00000001
       52045000	      5203	800042ec	0091eab3	or	x21,x3,x9	  x3:0x00000000  x9:0xffffff48 x21=0xffffff48
       52055000	      5204	800042f0	ee1efb13	andi	x22,x29,-287	 x29:0xfffffd7f x22=0xfffffc61
       52065000	      5205	800042f4	018f1213	slli	x4,x30,0x18	 x30:0xf88dd9ff  x4=0xff000000
       52075000	      5206	800042f8	00ad0e33	add	x28,x26,x10	 x26:0x00000001 x10:0x00000001 x28=0x00000002
       52085000	      5207	800042fc	014cdc13	srli	x24,x25,0x14	 x25:0x00000001 x24=0x00000000
       52095000	      5208	80004300	40265f33	sra	x30,x12,x2	 x12:0x00000000  x2:0x00000000 x30=0x00000000
       52105000	      5209	80004304	0388da63	bge	x17,x24,80004338	 x17:0xfe237680 x24:0x00000000
       52115000	      5210	80004308	0162d113	srli	x2,x5,0x16	  x5:0x00001000  x2=0x00000000
       52125000	      5211	8000430c	00630863	beq	x6,x6,8000431c	  x6:0x88dda001  x6:0x88dda001
       52135000	      5212	00000000	00000013	addi	x0,x0,0	  x0:0x00000000
       52145000	      5213	80004318	00000013	addi	x0,x0,0	  x0:0x00000000
       52155000	      5214	8000431c	03b67463	bgeu	x12,x27,80004344	 x12:0x00000000 x27:0x00000001
       52165000	      5215	80004320	6e958f93	addi	x31,x11,1769	 x11:0x00000000 x31=0x000006e9
       52175000	      5216	80004324	5288cf93	xori	x31,x17,1320	 x17:0xfe237680 x31=0xfe2373a8
       52185000	      5217	80004328	41d5d933	sra	x18,x11,x29	 x11:0x00000000 x29:0xfffffd7f x18=0x00000000
       52195000	      5218	8000432c	043e0063	beq	x28,x3,8000436c	 x28:0x00000002  x3:0x00000000
       52205000	      5219	80004330	40395cb3	sra	x25,x18,x3	 x18:0x00000000  x3:0x00000000 x25=0x00000000
       52215000	      5220	80004334	00441213	slli	x4,x8,0x4	  x8:0x80009ee4  x4=0x0009ee40
       52225000	      5221	80004338	00000013	addi	x0,x0,0	  x0:0x00000000
       52235000	      5222	8000433c	01c28db3	add	x27,x5,x28	  x5:0x00001000 x28:0x00000002 x27=0x00001002
       52245000	      5223	80004340	00f966b3	or	x13,x18,x15	 x18:0x00000000 x15:0x00000000 x13=0x00000000
       52255000	      5224	80004344	00a8a733	slt	x14,x17,x10	 x17:0xfe237680 x10:0x00000001 x14=0x00000001
       52265000	      5225	80004348	01ccbeb3	sltu	x29,x25,x28	 x25:0x00000000 x28:0x00000002 x29=0x00000001
       52275000	      5226	8000434c	032a0063	beq	x20,x18,8000436c	 x20:0xa15e4cb0 x18:0x00000000
       52285000	      5227	80004350	01179463	bne	x15,x17,80004358	 x15:0x00000000 x17:0xfe237680
       52295000	      5228	00000000	00000013	addi	x0,x0,0	  x0:0x00000000
       52305000	      5229	80004354	00000013	addi	x0,x0,0	  x0:0x00000000
       52315000	      5230	80004358	d343cd93	xori	x27,x7,-716	  x7:0x80009fc4 x27=0x7fff62f0
       52325000	      5231	8000435c	11667193	andi	x3,x12,278	 x12:0x00000000  x3=0x00000000
       52335000	      5232	80004360	400cd133	sra	x2,x25,x0	 x25:0x00000000  x0:0x00000000  x2=0x00000000
       52345000	      5233	80004364	40765093	srai	x1,x12,0x7	 x12:0x00000000  x1=0x00000000
       52355000	      5234	80004368	00b01463	bne	x0,x11,80004370	  x0:0x00000000 x11:0x00000000
       52365000	      5235	8000436c	01cf7b33	and	x22,x30,x28	 x30:0x00000000 x28:0x00000002 x22=0x00000000
       52375000	      5236	80004370	03a68c63	beq	x13,x26,800043a8	 x13:0x00000000 x26:0x00000001
       52385000	      5237	80004374	01f3b6b3	sltu	x13,x7,x31	  x7:0x80009fc4 x31:0xfe2373a8 x13=0x00000001
       52395000	      5238	80004378	626ec793	xori	x15,x29,1574	 x29:0x00000001 x15=0x00000627
       52405000	      5239	8000437c	b425a093	slti	x1,x11,-1214	 x11:0x00000000  x1=0x00000000
       52415000	      5240	80004380	a8122913	slti	x18,x4,-1407	  x4:0x0009ee40 x18=0x00000000
       52425000	      5241	80004384	01938933	add	x18,x7,x25	  x7:0x80009fc4 x25:0x00000000 x18=0x80009fc4
       52435000	      5242	80004388	40e3d913	srai	x18,x7,0xe	  x7:0x80009fc4 x18=0xfffe0002
       52445000	      5243	8000438c	727d2e13	slti	x28,x26,1831	 x26:0x00000001 x28=0x00000001
       52455000	      5244	80004390	41ed5513	srai	x10,x26,0x1e	 x26:0x00000001 x10=0x00000000
       52465000	      5245	80004394	84d2a593	slti	x11,x5,-1971	  x5:0x00001000 x11=0x00000000
       52475000	      5246	80004398	00420c63	beq	x4,x4,800043b0	  x4:0x0009ee40  x4:0x0009ee40
       52485000	      5247	00000000	00000013	addi	x0,x0,0	  x0:0x00000000
       52495000	      5248	800043ac	00000013	addi	x0,x0,0	  x0:0x00000000
       52505000	      5249	800043b0	00000013	addi	x0,x0,0	  x0:0x00000000
       52515000	      5250	800043b4	aa13e893	ori	x17,x7,-1375	  x7:0x80009fc4 x17=0xffffffe5
       52525000	      5251	800043b8	017cefb3	or	x31,x25,x23	 x25:0x00000000 x23:0x00000000 x31=0x00000000
       52535000	      5252	800043bc	39e40c13	addi	x24,x8,926	  x8:0x80009ee4 x24=0x8000a282
       52545000	      5253	800043c0	c1b52d93	slti	x27,x10,-997	 x10:0x00000000 x27=0x00000000
       52555000	      5254	800043c4	014fd5b3	srl	x11,x31,x20	 x31:0x00000000 x20:0xa15e4cb0 x11=0x00000000
       52565000	      5255	800043c8	21832c13	slti	x24,x6,536	  x6:0x88dda001 x24=0x00000001
       52575000	      5256	800043cc	01acc1b3	xor	x3,x25,x26	 x25:0x00000000 x26:0x00000001  x3=0x00000001
       52585000	      5257	800043d0	41dc5913	srai	x18,x24,0x1d	 x24:0x00000001 x18=0x00000000
       52595000	      5258	800043d4	01765893	srli	x17,x12,0x17	 x12:0x00000000 x17=0x00000000
       52605000	      5259	800043d8	40eed713	srai	x14,x29,0xe	 x29:0x00000001 x14=0x00000000
       52615000	      5260	800043dc	ab52fb13	andi	x22,x5,-1355	  x5:0x00001000 x22=0x00001000
       52625000	      5261	800043e0	01d317b3	sll	x15,x6,x29	  x6:0x88dda001 x29:0x00000001 x15=0x11bb4002
       52635000	      5262	800043e4	000c3ab3	sltu	x21,x24,x0	 x24:0x00000001  x0:0x00000000 x21=0x00000000
       52645000	      5263	800043e8	011e0533	add	x10,x28,x17	 x28:0x00000001 x17:0x00000000 x10=0x00000001
       52655000	      5264	800043ec	90fbfd93	andi	x27,x23,-1777	 x23:0x00000000 x27=0x00000000
       52665000	      5265	800043f0	02e56a63	bltu	x10,x14,80004424	 x10:0x00000001 x14:0x00000000
       52675000	      5266	800043f4	0b3d2013	slti	x0,x26,179	 x26:0x00000001
       52685000	      5267	800043f8	01118263	beq	x3,x17,800043fc	  x3:0x00000001 x17:0x00000000
       52695000	      5268	800043fc	404d5d33	sra	x26,x26,x4	 x26:0x00000001  x4:0x0009ee40 x26=0x00000001
       52705000	      5269	80004400	c9fe2537	lui	x10,0xc9fe2	 x10=0xc9fe2000
       52715000	      5270	80004404	402d8333	sub	x6,x27,x2	 x27:0x00000000  x2:0x00000000  x6=0x00000000
       52725000	      5271	80004408	01943db3	sltu	x27,x8,x25	  x8:0x80009ee4 x25:0x00000000 x27=0x00000000
       52735000	      5272	8000440c	019a1f93	slli	x31,x20,0x19	 x20:0xa15e4cb0 x31=0x60000000
       52745000	      5273	80004410	001be863	bltu	x23,x1,80004420	 x23:0x00000000  x1:0x00000000
       52755000	      5274	80004414	01ec1813	slli	x16,x24,0x1e	 x24:0x00000001 x16=0x40000000
       52765000	      5275	80004418	0218c463	blt	x17,x1,80004440	 x17:0x00000000  x1:0x00000000
       52775000	      5276	8000441c	017e78b3	and	x17,x28,x23	 x28:0x00000001 x23:0x00000000 x17=0x00000000
       52785000	      5277	80004420	04c51063	bne	x10,x12,80004460	 x10:0xc9fe2000 x12:0x00000000
       52795000	      5278	00000000	00000013	addi	x0,x0,0	  x0:0x00000000
       52805000	      5279	8000445c	00000013	addi	x0,x0,0	  x0:0x00000000
       52815000	      5280	80004460	92cacd93	xori	x27,x21,-1748	 x21:0x00000000 x27=0xfffff92c
       52825000	      5281	80004464	41180eb3	sub	x29,x16,x17	 x16:0x40000000 x17:0x00000000 x29=0x40000000
       52835000	      5282	80004468	40ccd493	srai	x9,x25,0xc	 x25:0x00000000  x9=0x00000000
       52845000	      5283	8000446c	015c9113	slli	x2,x25,0x15	 x25:0x00000000  x2=0x00000000
       52855000	      5284	80004470	0080fc33	and	x24,x1,x8	  x1:0x00000000  x8:0x80009ee4 x24=0x00000000
       52865000	      5285	80004474	01d42033	slt	x0,x8,x29	  x8:0x80009ee4 x29:0x40000000
       52875000	      5286	80004478	400384b3	sub	x9,x7,x0	  x7:0x80009fc4  x0:0x00000000  x9=0x80009fc4
       52885000	      5287	8000447c	401389b3	sub	x19,x7,x1	  x7:0x80009fc4  x1:0x00000000 x19=0x80009fc4
       52895000	      5288	80004480	00c9abb3	slt	x23,x19,x12	 x19:0x80009fc4 x12:0x00000000 x23=0x00000001
       52905000	      5289	80004484	009d9f13	slli	x30,x27,0x9	 x27:0xfffff92c x30=0xfff25800
       52915000	      5290	80004488	8ee73e93	sltiu	x29,x14,-1810	 x14:0x00000000 x29=0x00000001
       52925000	      5291	8000448c	03384463	blt	x16,x19,800044b4	 x16:0x40000000 x19:0x80009fc4
       52935000	      5292	80004490	0143a033	slt	x0,x7,x20	  x7:0x80009fc4 x20:0xa15e4cb0
       52945000	      5293	80004494	40908533	sub	x10,x1,x9	  x1:0x00000000  x9:0x80009fc4 x10=0x7fff603c
       52955000	      5294	80004498	ac712993	slti	x19,x2,-1337	  x2:0x00000000 x19=0x00000000
       52965000	      5295	8000449c	01c50933	add	x18,x10,x28	 x10:0x7fff603c x28:0x00000001 x18=0x7fff603d
       52975000	      5296	800044a0	00cedf13	srli	x30,x29,0xc	 x29:0x00000001 x30=0x00000000
       52985000	      5297	800044a4	00d162b3	or	x5,x2,x13	  x2:0x00000000 x13:0x00000001  x5=0x00000001
       52995000	      5298	800044a8	00ce5863	bge	x28,x12,800044b8	 x28:0x00000001 x12:0x00000000
       53005000	      5299	00000000	00000013	addi	x0,x0,0	  x0:0x00000000
       53015000	      5300	800044b4	00000013	addi	x0,x0,0	  x0:0x00000000
       53025000	      5301	800044b8	415d0fb3	sub	x31,x26,x21	 x26:0x00000001 x21:0x00000000 x31=0x00000001
       53035000	      5302	800044bc	00000013	addi	x0,x0,0	  x0:0x00000000
       53045000	      5303	800044c0	40500fb3	sub	x31,x0,x5	  x0:0x00000000  x5:0x00000001 x31=0xffffffff
       53055000	      5304	800044c4	018928b3	slt	x17,x18,x24	 x18:0x7fff603d x24:0x00000000 x17=0x00000000
       53065000	      5305	800044c8	84f74493	xori	x9,x14,-1969	 x14:0x00000000  x9=0xfffff84f
       53075000	      5306	800044cc	2d3e3b13	sltiu	x22,x28,723	 x28:0x00000001 x22=0x00000001
       53085000	      5307	800044d0	76107813	andi	x16,x0,1889	  x0:0x00000000 x16=0x00000000
       53095000	      5308	800044d4	0c70c913	xori	x18,x1,199	  x1:0x00000000 x18=0x000000c7
       53105000	      5309	800044d8	40c55cb3	sra	x25,x10,x12	 x10:0x7fff603c x12:0x00000000 x25=0x7fff603c
       53115000	      5310	800044dc	752a0693	addi	x13,x20,1874	 x20:0xa15e4cb0 x13=0xa15e5402
       53125000	      5311	800044e0	d2ba9ab7	lui	x21,0xd2ba9	 x21=0xd2ba9000
       53135000	      5312	800044e4	00c4e263	bltu	x9,x12,800044e8	  x9:0xfffff84f x12:0x00000000
       53145000	      5313	800044e8	021e5a63	bge	x28,x1,8000451c	 x28:0x00000001  x1:0x00000000
       53155000	      5314	00000000	00000013	addi	x0,x0,0	  x0:0x00000000
       53165000	      5315	80004518	00000013	addi	x0,x0,0	  x0:0x00000000
       53175000	      5316	8000451c	409204b3	sub	x9,x4,x9	  x4:0x0009ee40  x9:0xfffff84f  x9=0x0009f5f1
       53185000	      5317	80004520	97266d93	ori	x27,x12,-1678	 x12:0x00000000 x27=0xfffff972
       53195000	      5318	80004524	002e6bb3	or	x23,x28,x2	 x28:0x00000001  x2:0x00000000 x23=0x00000001
       53205000	      5319	80004528	5f098313	addi	x6,x19,1520	 x19:0x00000000  x6=0x000005f0
       53215000	      5320	8000452c	d270b493	sltiu	x9,x1,-729	  x1:0x00000000  x9=0x00000001
       53225000	      5321	80004530	d3404d93	xori	x27,x0,-716	  x0:0x00000000 x27=0xfffffd34
       53235000	      5322	80004534	56bb7797	auipc	x15,0x56bb7	 x15=0xd6bbb530
       53245000	      5323	80004538	01cfd7b3	srl	x15,x31,x28	 x31:0xffffffff x28:0x00000001 x15=0x7fffffff
       53255000	      5324	8000453c	4133d613	srai	x12,x7,0x13	  x7:0x80009fc4 x12=0xfffff000
       53265000	      5325	80004540	62d8b293	sltiu	x5,x17,1581	 x17:0x00000000  x5=0x00000001
       53275000	      5326	80004544	02aafc63	bgeu	x21,x10,8000457c	 x21:0xd2ba9000 x10:0x7fff603c
       53285000	      5327	00000000	00000013	addi	x0,x0,0	  x0:0x00000000
       53295000	      5328	80004578	00000013	addi	x0,x0,0	  x0:0x00000000
       53305000	      5329	8000457c	01741613	slli	x12,x8,0x17	  x8:0x80009ee4 x12=0x72000000
       53315000	      5330	80004580	00cef1b3	and	x3,x29,x12	 x29:0x00000001 x12:0x72000000  x3=0x00000000
       53325000	      5331	80004584	41535333	sra	x6,x6,x21	  x6:0x000005f0 x21:0xd2ba9000  x6=0x000005f0
       53335000	      5332	80004588	199e2813	slti	x16,x28,409	 x28:0x00000001 x16=0x00000001
       53345000	      5333	8000458c	00431263	bne	x6,x4,80004590	  x6:0x000005f0  x4:0x0009ee40
       53355000	      5334	00000000	00000013	addi	x0,x0,0	  x0:0x00000000
       53365000	      5335	8000458c	00000013	addi	x0,x0,0	  x0:0x00000000
       53375000	      5336	80004590	7063c193	xori	x3,x7,1798	  x7:0x80009fc4  x3=0x800098c2
       53385000	      5337	80004594	02f28063	beq	x5,x15,800045b4	  x5:0x00000001 x15:0x7fffffff
       53395000	      5338	80004598	0197a1b3	slt	x3,x15,x25	 x15:0x7fffffff x25:0x7fff603c  x3=0x00000000
       53405000	      5339	8000459c	006d3933	sltu	x18,x26,x6	 x26:0x00000001  x6:0x000005f0 x18=0x00000001
       53415000	      5340	800045a0	e5794013	xori	x0,x18,-425	 x18:0x00000001
       53425000	      5341	800045a4	0260f063	bgeu	x1,x6,800045c4	  x1:0x00000000  x6:0x000005f0
       53435000	      5342	800045a8	933cf293	andi	x5,x25,-1741	 x25:0x7fff603c  x5=0x7fff6030
       53445000	      5343	800045ac	409c80b3	sub	x1,x25,x9	 x25:0x7fff603c  x9:0x00000001  x1=0x7fff603b
       53455000	      5344	800045b0	d2824913	xori	x18,x4,-728	  x4:0x0009ee40 x18=0xfff61368
       53465000	      5345	800045b4	401288b3	sub	x17,x5,x1	  x5:0x7fff6030  x1:0x7fff603b x17=0xfffffff5
       53475000	      5346	800045b8	05276063	bltu	x14,x18,800045f8	 x14:0x00000000 x18:0xfff61368
       53485000	      5347	00000000	00000013	addi	x0,x0,0	  x0:0x00000000
       53495000	      5348	800045f4	00000013	addi	x0,x0,0	  x0:0x00000000
       53505000	      5349	800045f8	03954e63	blt	x10,x25,80004634	 x10:0x7fff603c x25:0x7fff603c
       53515000	      5350	800045fc	41a787b3	sub	x15,x15,x26	 x15:0x7fffffff x26:0x00000001 x15=0x7ffffffe
       53525000	      5351	80004600	01c15ab3	srl	x21,x2,x28	  x2:0x00000000 x28:0x00000001 x21=0x00000000
       53535000	      5352	80004604	01ff64b3	or	x9,x30,x31	 x30:0x00000000 x31:0xffffffff  x9=0xffffffff
       53545000	      5353	80004608	00659233	sll	x4,x11,x6	 x11:0x00000000  x6:0x000005f0  x4=0x00000000
       53555000	      5354	8000460c	005b6633	or	x12,x22,x5	 x22:0x00000001  x5:0x7fff6030 x12=0x7fff6031
       53565000	      5355	80004610	011246b3	xor	x13,x4,x17	  x4:0x00000000 x17:0xfffffff5 x13=0xfffffff5
       53575000	      5356	80004614	04e16863	bltu	x2,x14,80004664	  x2:0x00000000 x14:0x00000000
       53585000	      5357	80004618	01030fb3	add	x31,x6,x16	  x6:0x000005f0 x16:0x00000001 x31=0x000005f1
       53595000	      5358	8000461c	00a93cb3	sltu	x25,x18,x10	 x18:0xfff61368 x10:0x7fff603c x25=0x00000000
       53605000	      5359	80004620	55b06113	ori	x2,x0,1371	  x0:0x00000000  x2=0x0000055b
       53615000	      5360	80004624	0151f1b3	and	x3,x3,x21	  x3:0x00000000 x21:0x00000000  x3=0x00000000
       53625000	      5361	80004628	00677c63	bgeu	x14,x6,80004640	 x14:0x00000000  x6:0x000005f0
       53635000	      5362	8000462c	e28e4317	auipc	x6,0xe28e4	  x6=0x628e8628
       53645000	      5363	80004630	00b24e63	blt	x4,x11,8000464c	  x4:0x00000000 x11:0x00000000
       53655000	      5364	80004634	05570063	beq	x14,x21,80004674	 x14:0x00000000 x21:0x00000000
       53665000	      5365	00000000	00000013	addi	x0,x0,0	  x0:0x00000000
       53675000	      5366	80004670	00000013	addi	x0,x0,0	  x0:0x00000000
       53685000	      5367	80004674	001654b3	srl	x9,x12,x1	 x12:0x7fff6031  x1:0x7fff603b  x9=0x0000000f
       53695000	      5368	80004678	00f4bab3	sltu	x21,x9,x15	  x9:0x0000000f x15:0x7ffffffe x21=0x00000001
       53705000	      5369	8000467c	03378c63	beq	x15,x19,800046b4	 x15:0x7ffffffe x19:0x00000000
       53715000	      5370	80004680	409257b3	sra	x15,x4,x9	  x4:0x00000000  x9:0x0000000f x15=0x00000000
       53725000	      5371	80004684	8c13e197	auipc	x3,0x8c13e	  x3=0x0c142680
       53735000	      5372	80004688	0151d1b3	srl	x3,x3,x21	  x3:0x0c142680 x21:0x00000001  x3=0x060a1340
       53745000	      5373	8000468c	0199d513	srli	x10,x19,0x19	 x19:0x00000000 x10=0x00000000
       53755000	      5374	80004690	a9992d17	auipc	x26,0xa9992	 x26=0x2999668c
       53765000	      5375	80004694	72d544b7	lui	x9,0x72d54	  x9=0x72d54000
       53775000	      5376	80004698	4020dcb3	sra	x25,x1,x2	  x1:0x7fff603b  x2:0x0000055b x25=0x0000000f
       53785000	      5377	8000469c	012e5793	srli	x15,x28,0x12	 x28:0x00000001 x15=0x00000000
       53795000	      5378	800046a0	00000013	addi	x0,x0,0	  x0:0x00000000
       53805000	      5379	800046a4	59686c93	ori	x25,x16,1430	 x16:0x00000001 x25=0x00000597
       53815000	      5380	800046a8	1898a893	slti	x17,x17,393	 x17:0xfffffff5 x17=0x00000001
       53825000	      5381	800046ac	19592013	slti	x0,x18,405	 x18:0xfff61368
       53835000	      5382	800046b0	00000013	addi	x0,x0,0	  x0:0x00000000
       53845000	      5383	800046b4	018b8663	beq	x23,x24,800046c0	 x23:0x00000001 x24:0x00000000
       53855000	      5384	800046b8	01410463	beq	x2,x20,800046c0	  x2:0x0000055b x20:0xa15e4cb0
       53865000	      5385	800046bc	07a8ce13	xori	x28,x17,122	 x17:0x00000001 x28=0x0000007b
       53875000	      5386	800046c0	00ca6263	bltu	x20,x12,800046c4	 x20:0xa15e4cb0 x12:0x7fff6031
       53885000	      5387	800046c4	03a7da63	bge	x15,x26,800046f8	 x15:0x00000000 x26:0x2999668c
       53895000	      5388	800046c8	c3472737	lui	x14,0xc3472	 x14=0xc3472000
       53905000	      5389	800046cc	dd628e93	addi	x29,x5,-554	  x5:0x7fff6030 x29=0x7fff5e06
       53915000	      5390	800046d0	00b02b33	slt	x22,x0,x11	  x0:0x00000000 x11:0x00000000 x22=0x00000000
       53925000	      5391	800046d4	9284b913	sltiu	x18,x9,-1752	  x9:0x72d54000 x18=0x00000001
       53935000	      5392	800046d8	03268e93	addi	x29,x13,50	 x13:0xfffffff5 x29=0x00000027
       53945000	      5393	800046dc	0103c863	blt	x7,x16,800046ec	  x7:0x80009fc4 x16:0x00000001
       53955000	      5394	00000000	00000013	addi	x0,x0,0	  x0:0x00000000
       53965000	      5395	800046e8	00000013	addi	x0,x0,0	  x0:0x00000000
       53975000	      5396	800046ec	00000013	addi	x0,x0,0	  x0:0x00000000
       53985000	      5397	800046f0	40d68b33	sub	x22,x13,x13	 x13:0xfffffff5 x13:0xfffffff5 x22=0x00000000
       53995000	      5398	800046f4	01e6f033	and	x0,x13,x30	 x13:0xfffffff5 x30:0x00000000
       54005000	      5399	800046f8	d760b197	auipc	x3,0xd760b	  x3=0x5760f6f4
       54015000	      5400	800046fc	025f0a63	beq	x30,x5,80004730	 x30:0x00000000  x5:0x7fff6030
       54025000	      5401	80004700	00cd0263	beq	x26,x12,80004704	 x26:0x2999668c x12:0x7fff6031
       54035000	      5402	80004704	02885463	bge	x16,x8,8000472c	 x16:0x00000001  x8:0x80009ee4
       54045000	      5403	00000000	00000013	addi	x0,x0,0	  x0:0x00000000
       54055000	      5404	80004728	00000013	addi	x0,x0,0	  x0:0x00000000
       54065000	      5405	8000472c	00814f33	xor	x30,x2,x8	  x2:0x0000055b  x8:0x80009ee4 x30=0x80009bbf
       54075000	      5406	80004730	00163533	sltu	x10,x12,x1	 x12:0x7fff6031  x1:0x7fff603b x10=0x00000001
       54085000	      5407	80004734	67d291b7	lui	x3,0x67d29	  x3=0x67d29000
       54095000	      5408	80004738	00a31c63	bne	x6,x10,80004750	  x6:0x628e8628 x10:0x00000001
       54105000	      5409	00000000	00000013	addi	x0,x0,0	  x0:0x00000000
       54115000	      5410	8000474c	00000013	addi	x0,x0,0	  x0:0x00000000
       54125000	      5411	80004750	0fb1bb13	sltiu	x22,x3,251	  x3:0x67d29000 x22=0x00000000
       54135000	      5412	80004754	00e7e8b3	or	x17,x15,x14	 x15:0x00000000 x14:0xc3472000 x17=0xc3472000
       54145000	      5413	80004758	41a059b3	sra	x19,x0,x26	  x0:0x00000000 x26:0x2999668c x19=0x00000000
       54155000	      5414	8000475c	035a1063	bne	x20,x21,8000477c	 x20:0xa15e4cb0 x21:0x00000001
       54165000	      5415	00000000	00000013	addi	x0,x0,0	  x0:0x00000000
       54175000	      5416	80004778	00000013	addi	x0,x0,0	  x0:0x00000000
       54185000	      5417	8000477c	eab90013	addi	x0,x18,-341	 x18:0x00000001
       54195000	      5418	80004780	40af54b3	sra	x9,x30,x10	 x30:0x80009bbf x10:0x00000001  x9=0xc0004ddf
       54205000	      5419	80004784	0456f063	bgeu	x13,x5,800047c4	 x13:0xfffffff5  x5:0x7fff6030
       54215000	      5420	00000000	00000013	addi	x0,x0,0	  x0:0x00000000
       54225000	      5421	800047c0	00000013	addi	x0,x0,0	  x0:0x00000000
       54235000	      5422	800047c4	41ae06b3	sub	x13,x28,x26	 x28:0x0000007b x26:0x2999668c x13=0xd66699ef
       54245000	      5423	800047c8	0067b2b3	sltu	x5,x15,x6	 x15:0x00000000  x6:0x628e8628  x5=0x00000001
       54255000	      5424	800047cc	0095d713	srli	x14,x11,0x9	 x11:0x00000000 x14=0x00000000
       54265000	      5425	800047d0	00000013	addi	x0,x0,0	  x0:0x00000000
       54275000	      5426	800047d4	00c73c33	sltu	x24,x14,x12	 x14:0x00000000 x12:0x7fff6031 x24=0x00000001
       54285000	      5427	800047d8	01881093	slli	x1,x16,0x18	 x16:0x00000001  x1=0x01000000
       54295000	      5428	800047dc	46fc8793	addi	x15,x25,1135	 x25:0x00000597 x15=0x00000a06
       54305000	      5429	800047e0	01f70233	add	x4,x14,x31	 x14:0x00000000 x31:0x000005f1  x4=0x000005f1
       54315000	      5430	800047e4	01d67633	and	x12,x12,x29	 x12:0x7fff6031 x29:0x00000027 x12=0x00000021
       54325000	      5431	800047e8	01458533	add	x10,x11,x20	 x11:0x00000000 x20:0xa15e4cb0 x10=0xa15e4cb0
       54335000	      5432	800047ec	013a36b3	sltu	x13,x20,x19	 x20:0xa15e4cb0 x19:0x00000000 x13=0x00000000
       54345000	      5433	800047f0	00f11263	bne	x2,x15,800047f4	  x2:0x0000055b x15:0x00000a06
       54355000	      5434	00000000	00000013	addi	x0,x0,0	  x0:0x00000000
       54365000	      5435	800047f0	00000013	addi	x0,x0,0	  x0:0x00000000
       54375000	      5436	800047f4	006e7f33	and	x30,x28,x6	 x28:0x0000007b  x6:0x628e8628 x30=0x00000028
       54385000	      5437	800047f8	02470a63	beq	x14,x4,8000482c	 x14:0x00000000  x4:0x000005f1
       54395000	      5438	800047fc	01ae0c63	beq	x28,x26,80004814	 x28:0x0000007b x26:0x2999668c
       54405000	      5439	80004800	017b4333	xor	x6,x22,x23	 x22:0x00000000 x23:0x00000001  x6=0x00000001
       54415000	      5440	80004804	015cdf33	srl	x30,x25,x21	 x25:0x00000597 x21:0x00000001 x30=0x000002cb
       54425000	      5441	80004808	011e9713	slli	x14,x29,0x11	 x29:0x00000027 x14=0x004e0000
       54435000	      5442	8000480c	014f1233	sll	x4,x30,x20	 x30:0x000002cb x20:0xa15e4cb0  x4=0x02cb0000
       54445000	      5443	80004810	015dc463	blt	x27,x21,80004818	 x27:0xfffffd34 x21:0x00000001
       54455000	      5444	00000000	00000013	addi	x0,x0,0	  x0:0x00000000
       54465000	      5445	80004814	00000013	addi	x0,x0,0	  x0:0x00000000
       54475000	      5446	80004818	4aa7ae93	slti	x29,x15,1194	 x15:0x00000a06 x29=0x00000000
       54485000	      5447	8000481c	414e5333	sra	x6,x28,x20	 x28:0x0000007b x20:0xa15e4cb0  x6=0x00000000
       54495000	      5448	80004820	01f13db3	sltu	x27,x2,x31	  x2:0x0000055b x31:0x000005f1 x27=0x00000001
       54505000	      5449	80004824	019d1113	slli	x2,x26,0x19	 x26:0x2999668c  x2=0x18000000
       54515000	      5450	80004828	009cc833	xor	x16,x25,x9	 x25:0x00000597  x9:0xc0004ddf x16=0xc0004848
       54525000	      5451	8000482c	061fe993	ori	x19,x31,97	 x31:0x000005f1 x19=0x000005f1
       54535000	      5452	80004830	33668c17	auipc	x24,0x33668	 x24=0xb366c82c
       54545000	      5453	80004834	5ae90713	addi	x14,x18,1454	 x18:0x00000001 x14=0x000005af
       54555000	      5454	80004838	00d65633	srl	x12,x12,x13	 x12:0x00000021 x13:0x00000000 x12=0x00000021
       54565000	      5455	8000483c	41dcdcb3	sra	x25,x25,x29	 x25:0x00000597 x29:0x00000000 x25=0x00000597
       54575000	      5456	80004840	0974a197	auipc	x3,0x974a	  x3=0x8974e83c
       54585000	      5457	80004844	0310cc63	blt	x1,x17,8000487c	  x1:0x01000000 x17:0xc3472000
       54595000	      5458	80004848	003990b3	sll	x1,x19,x3	 x19:0x000005f1  x3:0x8974e83c  x1=0x10000000
       54605000	      5459	8000484c	05481063	bne	x16,x20,8000488c	 x16:0xc0004848 x20:0xa15e4cb0
       54615000	      5460	00000000	00000013	addi	x0,x0,0	  x0:0x00000000
       54625000	      5461	80004888	00000013	addi	x0,x0,0	  x0:0x00000000
       54635000	      5462	8000488c	00632f33	slt	x30,x6,x6	  x6:0x00000000  x6:0x00000000 x30=0x00000000
       54645000	      5463	80004890	00eab8b3	sltu	x17,x21,x14	 x21:0x00000001 x14:0x000005af x17=0x00000001
       54655000	      5464	80004894	01dff863	bgeu	x31,x29,800048a4	 x31:0x000005f1 x29:0x00000000
       54665000	      5465	00000000	00000013	addi	x0,x0,0	  x0:0x00000000
       54675000	      5466	800048a0	00000013	addi	x0,x0,0	  x0:0x00000000
       54685000	      5467	800048a4	02b47a63	bgeu	x8,x11,800048d8	  x8:0x80009ee4 x11:0x00000000
       54695000	      5468	00000000	00000013	addi	x0,x0,0	  x0:0x00000000
       54705000	      5469	800048d4	00000013	addi	x0,x0,0	  x0:0x00000000
       54715000	      5470	800048d8	403a0bb3	sub	x23,x20,x3	 x20:0xa15e4cb0  x3:0x8974e83c x23=0x17e96474
       54725000	      5471	800048dc	40e5d1b3	sra	x3,x11,x14	 x11:0x00000000 x14:0x000005af  x3=0x00000000
       54735000	      5472	800048e0	0463f063	bgeu	x7,x6,80004920	  x7:0x80009fc4  x6:0x00000000
       54745000	      5473	00000000	00000013	addi	x0,x0,0	  x0:0x00000000
       54755000	      5474	8000491c	00000013	addi	x0,x0,0	  x0:0x00000000
       54765000	      5475	80004920	00132f33	slt	x30,x6,x1	  x6:0x00000000  x1:0x10000000 x30=0x00000001
       54775000	      5476	80004924	02715e63	bge	x2,x7,80004960	  x2:0x18000000  x7:0x80009fc4
       54785000	      5477	00000000	00000013	addi	x0,x0,0	  x0:0x00000000
       54795000	      5478	8000495c	00000013	addi	x0,x0,0	  x0:0x00000000
       54805000	      5479	80004960	5064e113	ori	x2,x9,1286	  x9:0xc0004ddf  x2=0xc0004ddf
       54815000	      5480	80004964	01964fb3	xor	x31,x12,x25	 x12:0x00000021 x25:0x00000597 x31=0x000005b6
       54825000	      5481	80004968	80c37c13	andi	x24,x6,-2036	  x6:0x00000000 x24=0x00000000
       54835000	      5482	8000496c	03dd4a63	blt	x26,x29,800049a0	 x26:0x2999668c x29:0x00000000
       54845000	      5483	80004970	dc4d1497	auipc	x9,0xdc4d1	  x9=0x5c4d596c
       54855000	      5484	80004974	a29ac493	xori	x9,x21,-1495	 x21:0x00000001  x9=0xfffffa28
       54865000	      5485	80004978	012ada93	srli	x21,x21,0x12	 x21:0x00000001 x21=0x00000000
       54875000	      5486	8000497c	022a5a63	bge	x20,x2,800049b0	 x20:0xa15e4cb0  x2:0xc0004ddf
       54885000	      5487	80004980	3b316f93	ori	x31,x2,947	  x2:0xc0004ddf x31=0xc0004fff
       54895000	      5488	80004984	57d90d13	addi	x26,x18,1405	 x18:0x00000001 x26=0x0000057e
       54905000	      5489	80004988	0374d463	bge	x9,x23,800049b0	  x9:0xfffffa28 x23:0x17e96474
       54915000	      5490	8000498c	0e7ba513	slti	x10,x23,231	 x23:0x17e96474 x10=0x00000000
       54925000	      5491	80004990	0170d8b3	srl	x17,x1,x23	  x1:0x10000000 x23:0x17e96474 x17=0x00000100
       54935000	      5492	80004994	403580b3	sub	x1,x11,x3	 x11:0x00000000  x3:0x00000000  x1=0x00000000
       54945000	      5493	80004998	007e9493	slli	x9,x29,0x7	 x29:0x00000000  x9=0x00000000
       54955000	      5494	8000499c	2c7b2197	auipc	x3,0x2c7b2	  x3=0xac7b6998
       54965000	      5495	800049a0	00fe9633	sll	x12,x29,x15	 x29:0x00000000 x15:0x00000a06 x12=0x00000000
       54975000	      5496	800049a4	00f98463	beq	x19,x15,800049ac	 x19:0x000005f1 x15:0x00000a06
       54985000	      5497	800049a8	00264e33	xor	x28,x12,x2	 x12:0x00000000  x2:0xc0004ddf x28=0xc0004ddf
       54995000	      5498	800049ac	01275713	srli	x14,x14,0x12	 x14:0x000005af x14=0x00000000
       55005000	      5499	800049b0	0cfca013	slti	x0,x25,207	 x25:0x00000597
       55015000	      5500	800049b4	00000013	addi	x0,x0,0	  x0:0x00000000
       55025000	      5501	800049b8	03fc7617	auipc	x12,0x3fc7	 x12=0x83fcb9b4
       55035000	      5502	800049bc	10a54e93	xori	x29,x10,266	 x10:0x00000000 x29=0x0000010a
       55045000	      5503	800049c0	ba17ff93	andi	x31,x15,-1119	 x15:0x00000a06 x31=0x00000a00
       55055000	      5504	800049c4	013b7d33	and	x26,x22,x19	 x22:0x00000000 x19:0x000005f1 x26=0x00000000
       55065000	      5505	800049c8	01b39633	sll	x12,x7,x27	  x7:0x80009fc4 x27:0x00000001 x12=0x00013f88
       55075000	      5506	800049cc	01172e33	slt	x28,x14,x17	 x14:0x00000000 x17:0x00000100 x28=0x00000001
       55085000	      5507	800049d0	01a0d733	srl	x14,x1,x26	  x1:0x00000000 x26:0x00000000 x14=0x00000000
       55095000	      5508	800049d4	c40bfab7	lui	x21,0xc40bf	 x21=0xc40bf000
       55105000	      5509	800049d8	3313c993	xori	x19,x7,817	  x7:0x80009fc4 x19=0x80009cf5
       55115000	      5510	800049dc	62ed9197	auipc	x3,0x62ed9	  x3=0xe2edd9d8
       55125000	      5511	800049e0	01065c63	bge	x12,x16,800049f8	 x12:0x00013f88 x16:0xc0004848
       55135000	      5512	00000000	00000013	addi	x0,x0,0	  x0:0x00000000
       55145000	      5513	800049f4	00000013	addi	x0,x0,0	  x0:0x00000000
       55155000	      5514	800049f8	0036d193	srli	x3,x13,0x3	 x13:0x00000000  x3=0x00000000
       55165000	      5515	800049fc	01c91013	slli	x0,x18,0x1c	 x18:0x00000001
       55175000	      5516	80004a00	001f4733	xor	x14,x30,x1	 x30:0x00000001  x1:0x00000000 x14=0x00000001
       55185000	      5517	80004a04	008cfe63	bgeu	x25,x8,80004a20	 x25:0x00000597  x8:0x80009ee4
       55195000	      5518	80004a08	00d41233	sll	x4,x8,x13	  x8:0x80009ee4 x13:0x00000000  x4=0x80009ee4
       55205000	      5519	80004a0c	50077117	auipc	x2,0x50077	  x2=0xd007ba08
       55215000	      5520	80004a10	003e8233	add	x4,x29,x3	 x29:0x0000010a  x3:0x00000000  x4=0x0000010a
       55225000	      5521	80004a14	0094d913	srli	x18,x9,0x9	  x9:0x00000000 x18=0x00000000
       55235000	      5522	80004a18	41315533	sra	x10,x2,x19	  x2:0xd007ba08 x19:0x80009cf5 x10=0xfffffe80
       55245000	      5523	80004a1c	00ded993	srli	x19,x29,0xd	 x29:0x0000010a x19=0x00000000
       55255000	      5524	80004a20	01ce4663	blt	x28,x28,80004a2c	 x28:0x00000001 x28:0x00000001
       55265000	      5525	80004a24	00000013	addi	x0,x0,0	  x0:0x00000000
       55275000	      5526	80004a28	01e3d263	bge	x7,x30,80004a2c	  x7:0x80009fc4 x30:0x00000001
       55285000	      5527	80004a2c	00a118b3	sll	x17,x2,x10	  x2:0xd007ba08 x10:0xfffffe80 x17=0xd007ba08
       55295000	      5528	80004a30	017f5d13	srli	x26,x30,0x17	 x30:0x00000001 x26=0x00000000
       55305000	      5529	80004a34	00442083	lw	x1,4(x8)	  x8:0x80009ee4  x1=0x80000678 PA:0x80009ee8
       55315000	      5530	80004a38	00d59933	sll	x18,x11,x13	 x11:0x00000000 x13:0x00000000 x18=0x00000000
       55325000	      5531	80004a3c	03840413	addi	x8,x8,56	  x8:0x80009ee4  x8=0x80009f1c
       55335000	      5532	80004a40	016674b3	and	x9,x12,x22	 x12:0x00013f88 x22:0x00000000  x9=0x00000000
       55345000	      5533	80004a44	c82ec313	xori	x6,x29,-894	 x29:0x0000010a  x6=0xfffffd88
       55355000	      5534	80004a48	00008c13	addi	x24,x1,0	  x1:0x80000678 x24=0x80000678
       55365000	      5535	80004a4c	000c0c67	jalr	x24,x24,0	 x24:0x80000678 x24=0x80004a4c
       55375000	      5536	00000000	00000013	addi	x0,x0,0	  x0:0x00000000
       55385000	      5537	80000678	00000013	addi	x0,x0,0	  x0:0x00000000
       55395000	      5538	8000067c	010d7c33	and	x24,x26,x16	 x26:0x00000000 x16:0xc0004848 x24=0x00000000
       55405000	      5539	80000680	c6547e13	andi	x28,x8,-923	  x8:0x80009f1c x28=0x80009c04
       55415000	      5540	80000684	404f5b33	sra	x22,x30,x4	 x30:0x00000001  x4:0x0000010a x22=0x00000000
       55425000	      5541	80000688	ed0cc793	xori	x15,x25,-304	 x25:0x00000597 x15=0xfffffb47
       55435000	      5542	8000068c	bd503b13	sltiu	x22,x0,-1067	  x0:0x00000000 x22=0x00000001
       55445000	      5543	80000690	651ceb13	ori	x22,x25,1617	 x25:0x00000597 x22=0x000007d7
       55455000	      5544	80000694	15b1f113	andi	x2,x3,347	  x3:0x00000000  x2=0x00000000
       55465000	      5545	80000698	d5a64337	lui	x6,0xd5a64	  x6=0xd5a64000
       55475000	      5546	8000069c	dfb5ce93	xori	x29,x11,-517	 x11:0x00000000 x29=0xfffffdfb
       55485000	      5547	800006a0	cadff0ef	jal	x1,800006a0	  x1=0x800006a0
       55495000	      5548	00000000	00000013	addi	x0,x0,0	  x0:0x00000000
       55505000	      5549	80000348	00000013	addi	x0,x0,0	  x0:0x00000000
       55515000	      5550	8000034c	00000013	addi	x0,x0,0	  x0:0x00000000
       55525000	      5551	80000350	fc840413	addi	x8,x8,-56	  x8:0x80009f1c  x8=0x80009ee4
       55535000	      5552	80000354	bcf37793	andi	x15,x6,-1073	  x6:0xd5a64000 x15=0xd5a64000
       55545000	      5553	80000358	400d09b3	sub	x19,x26,x0	 x26:0x00000000  x0:0x00000000 x19=0x00000000
       55555000	      5554	8000035c	28603513	sltiu	x10,x0,646	  x0:0x00000000 x10=0x00000001
       55565000	      5555	80000360	408756b3	sra	x13,x14,x8	 x14:0x00000001  x8:0x80009ee4 x13=0x00000000
       55575000	      5556	80000364	00142223	sw	x1,4(x8)	  x8:0x80009ee4  x1:0x800006a0 PA:0x80009ee8
       55585000	      5557	80000368	411d5593	srai	x11,x26,0x11	 x26:0x00000000 x11=0x00000000
       55595000	      5558	8000036c	0028ccb3	xor	x25,x17,x2	 x17:0xd007ba08  x2:0x00000000 x25=0xd007ba08
       55605000	      5559	80000370	cfdcb113	sltiu	x2,x25,-771	 x25:0xd007ba08  x2=0x00000001
       55615000	      5560	80000374	e604df97	auipc	x31,0xe604d	 x31=0x6604d370
       55625000	      5561	80000378	0115bab3	sltu	x21,x11,x17	 x11:0x00000000 x17:0xd007ba08 x21=0x00000001
       55635000	      5562	8000037c	01ac76b3	and	x13,x24,x26	 x24:0x00000000 x26:0x00000000 x13=0x00000000
       55645000	      5563	80000380	01f738b3	sltu	x17,x14,x31	 x14:0x00000001 x31:0x6604d370 x17=0x00000001
       55655000	      5564	80000384	01daca63	blt	x21,x29,80000398	 x21:0x00000001 x29:0xfffffdfb
       55665000	      5565	80000388	1349b497	auipc	x9,0x1349b	  x9=0x9349b384
       55675000	      5566	8000038c	412158b3	sra	x17,x2,x18	  x2:0x00000001 x18:0x00000000 x17=0x00000001
       55685000	      5567	80000390	01ab2333	slt	x6,x22,x26	 x22:0x000007d7 x26:0x00000000  x6=0x00000000
       55695000	      5568	80000394	03b7ab93	slti	x23,x15,59	 x15:0xd5a64000 x23=0x00000001
       55705000	      5569	80000398	01f25213	srli	x4,x4,0x1f	  x4:0x0000010a  x4=0x00000000
       55715000	      5570	8000039c	00c21c33	sll	x24,x4,x12	  x4:0x00000000 x12:0x00013f88 x24=0x00000000
       55725000	      5571	800003a0	01cce033	or	x0,x25,x28	 x25:0xd007ba08 x28:0x80009c04
       55735000	      5572	800003a4	5dcdf013	andi	x0,x27,1500	 x27:0x00000001
       55745000	      5573	800003a8	40740833	sub	x16,x8,x7	  x8:0x80009ee4  x7:0x80009fc4 x16=0xffffff20
       55755000	      5574	800003ac	03c5ea63	bltu	x11,x28,800003e0	 x11:0x00000000 x28:0x80009c04
       55765000	      5575	00000000	00000013	addi	x0,x0,0	  x0:0x00000000
       55775000	      5576	800003dc	00000013	addi	x0,x0,0	  x0:0x00000000
       55785000	      5577	800003e0	a9cca493	slti	x9,x25,-1380	 x25:0xd007ba08  x9=0x00000001
       55795000	      5578	800003e4	03b8c263	blt	x17,x27,80000408	 x17:0x00000001 x27:0x00000001
       55805000	      5579	800003e8	00163db3	sltu	x27,x12,x1	 x12:0x00013f88  x1:0x800006a0 x27=0x00000001
       55815000	      5580	800003ec	019a8cb3	add	x25,x21,x25	 x21:0x00000001 x25:0xd007ba08 x25=0xd007ba09
       55825000	      5581	800003f0	002575b3	and	x11,x10,x2	 x10:0x00000001  x2:0x00000001 x11=0x00000001
       55835000	      5582	800003f4	011c1e33	sll	x28,x24,x17	 x24:0x00000000 x17:0x00000001 x28=0x00000000
       55845000	      5583	800003f8	005790b3	sll	x1,x15,x5	 x15:0xd5a64000  x5:0x00000001  x1=0xab4c8000
       55855000	      5584	800003fc	fb51ca93	xori	x21,x3,-75	  x3:0x00000000 x21=0xffffffb5
       55865000	      5585	80000400	032bee63	bltu	x23,x18,8000043c	 x23:0x00000001 x18:0x00000000
       55875000	      5586	80000404	00f781b3	add	x3,x15,x15	 x15:0xd5a64000 x15:0xd5a64000  x3=0xab4c8000
       55885000	      5587	80000408	0077d513	srli	x10,x15,0x7	 x15:0xd5a64000 x10=0x01ab4c80
       55895000	      5588	8000040c	001bd313	srli	x6,x23,0x1	 x23:0x00000001  x6=0x00000000
       55905000	      5589	80000410	418956b3	sra	x13,x18,x24	 x18:0x00000000 x24:0x00000000 x13=0x00000000
       55915000	      5590	80000414	02740463	beq	x8,x7,8000043c	  x8:0x80009ee4  x7:0x80009fc4
       55925000	      5591	80000418	5f74da97	auipc	x21,0x5f74d	 x21=0xdf74d414
       55935000	      5592	8000041c	5241ab13	slti	x22,x3,1316	  x3:0xab4c8000 x22=0x00000001
       55945000	      5593	80000420	0196a933	slt	x18,x13,x25	 x13:0x00000000 x25:0xd007ba09 x18=0x00000000
       55955000	      5594	80000424	00ab4f33	xor	x30,x22,x10	 x22:0x00000001 x10:0x01ab4c80 x30=0x01ab4c81
       55965000	      5595	80000428	4958eb13	ori	x22,x17,1173	 x17:0x00000001 x22=0x00000495
       55975000	      5596	8000042c	01351633	sll	x12,x10,x19	 x10:0x01ab4c80 x19:0x00000000 x12=0x01ab4c80
       55985000	      5597	80000430	0026c733	xor	x14,x13,x2	 x13:0x00000000  x2:0x00000001 x14=0x00000001
       55995000	      5598	80000434	0012c4b3	xor	x9,x5,x1	  x5:0x00000001  x1:0xab4c8000  x9=0xab4c8001
       56005000	      5599	80000438	8adbb993	sltiu	x19,x23,-1875	 x23:0x00000001 x19=0x00000001
       56015000	      5600	8000043c	005919b3	sll	x19,x18,x5	 x18:0x00000000  x5:0x00000001 x19=0x00000000
       56025000	      5601	80000440	3b80b793	sltiu	x15,x1,952	  x1:0xab4c8000 x15=0x00000000
       56035000	      5602	80000444	013d38b3	sltu	x17,x26,x19	 x26:0x00000000 x19:0x00000000 x17=0x00000000
       56045000	      5603	80000448	004d7933	and	x18,x26,x4	 x26:0x00000000  x4:0x00000000 x18=0x00000000
       56055000	      5604	8000044c	01a8a2b3	slt	x5,x17,x26	 x17:0x00000000 x26:0x00000000  x5=0x00000000
       56065000	      5605	80000450	00a376b3	and	x13,x6,x10	  x6:0x00000000 x10:0x01ab4c80 x13=0x00000000
       56075000	      5606	80000454	01cabfb3	sltu	x31,x21,x28	 x21:0xdf74d414 x28:0x00000000 x31=0x00000000
       56085000	      5607	80000458	02a7d063	bge	x15,x10,80000478	 x15:0x00000000 x10:0x01ab4c80
       56095000	      5608	8000045c	0ac47f13	andi	x30,x8,172	  x8:0x80009ee4 x30=0x000000a4
       56105000	      5609	80000460	e65fb093	sltiu	x1,x31,-411	 x31:0x00000000  x1=0x00000001
       56115000	      5610	80000464	ba676097	auipc	x1,0xba676	  x1=0x3a676460
       56125000	      5611	80000468	02afc463	blt	x31,x10,80000490	 x31:0x00000000 x10:0x01ab4c80
       56135000	      5612	00000000	00000013	addi	x0,x0,0	  x0:0x00000000
       56145000	      5613	8000048c	00000013	addi	x0,x0,0	  x0:0x00000000
       56155000	      5614	80000490	00146733	or	x14,x8,x1	  x8:0x80009ee4  x1:0x3a676460 x14=0xba67fee4
       56165000	      5615	80000494	0168bfb3	sltu	x31,x17,x22	 x17:0x00000000 x22:0x00000495 x31=0x00000001
       56175000	      5616	80000498	01f2f463	bgeu	x5,x31,800004a0	  x5:0x00000000 x31:0x00000001
       56185000	      5617	8000049c	41d4d813	srai	x16,x9,0x1d	  x9:0xab4c8001 x16=0xfffffffd
       56195000	      5618	800004a0	05b27e13	andi	x28,x4,91	  x4:0x00000000 x28=0x00000000
       56205000	      5619	800004a4	0006f9b3	and	x19,x13,x0	 x13:0x00000000  x0:0x00000000 x19=0x00000000
       56215000	      5620	800004a8	010d05b3	add	x11,x26,x16	 x26:0x00000000 x16:0xfffffffd x11=0xfffffffd
       56225000	      5621	800004ac	00442083	lw	x1,4(x8)	  x8:0x80009ee4  x1=0x800006a0 PA:0x80009ee8
       56235000	      5622	800004b0	03840413	addi	x8,x8,56	  x8:0x80009ee4  x8=0x80009f1c
       56245000	      5623	800004b4	01911633	sll	x12,x2,x25	  x2:0x00000001 x25:0xd007ba09 x12=0x00000200
       56255000	      5624	800004b8	88b00f13	addi	x30,x0,-1909	  x0:0x00000000 x30=0xfffff88b
       56265000	      5625	800004bc	1f7c0293	addi	x5,x24,503	 x24:0x00000000  x5=0x000001f7
       56275000	      5626	800004c0	00108c93	addi	x25,x1,1	  x1:0x800006a0 x25=0x800006a1
       56285000	      5627	800004c4	000c8ce7	jalr	x25,x25,0	 x25:0x800006a1 x25=0x800004c4
       56295000	      5628	00000000	00000013	addi	x0,x0,0	  x0:0x00000000
       56305000	      5629	800006a0	00000013	addi	x0,x0,0	  x0:0x00000000
       56315000	      5630	800006a4	41f55993	srai	x19,x10,0x1f	 x10:0x01ab4c80 x19=0x00000000
       56325000	      5631	800006a8	4186d313	srai	x6,x13,0x18	 x13:0x00000000  x6=0x00000000
       56335000	      5632	800006ac	01e534b3	sltu	x9,x10,x30	 x10:0x01ab4c80 x30:0xfffff88b  x9=0x00000001
       56345000	      5633	800006b0	35790e93	addi	x29,x18,855	 x18:0x00000000 x29=0x00000357
       56355000	      5634	800006b4	009125b3	slt	x11,x2,x9	  x2:0x00000001  x9:0x00000001 x11=0x00000000
       56365000	      5635	800006b8	00b58463	beq	x11,x11,800006c0	 x11:0x00000000 x11:0x00000000
       56375000	      5636	00000000	00000013	addi	x0,x0,0	  x0:0x00000000
       56385000	      5637	800006bc	00000013	addi	x0,x0,0	  x0:0x00000000
       56395000	      5638	800006c0	01374833	xor	x16,x14,x19	 x14:0xba67fee4 x19:0x00000000 x16=0xba67fee4
       56405000	      5639	800006c4	402b5f93	srai	x31,x22,0x2	 x22:0x00000495 x31=0x00000125
       56415000	      5640	800006c8	01c7f7b3	and	x15,x15,x28	 x15:0x00000000 x28:0x00000000 x15=0x00000000
       56425000	      5641	800006cc	80b87293	andi	x5,x16,-2037	 x16:0xba67fee4  x5=0xba67f800
       56435000	      5642	800006d0	00442083	lw	x1,4(x8)	  x8:0x80009f1c  x1=0x80000524 PA:0x80009f20
       56445000	      5643	800006d4	29b35e37	lui	x28,0x29b35	 x28=0x29b35000
       56455000	      5644	800006d8	01451713	slli	x14,x10,0x14	 x10:0x01ab4c80 x14=0xc8000000
       56465000	      5645	800006dc	02040413	addi	x8,x8,32	  x8:0x80009f1c  x8=0x80009f3c
       56475000	      5646	800006e0	0051af33	slt	x30,x3,x5	  x3:0xab4c8000  x5:0xba67f800 x30=0x00000001
       56485000	      5647	800006e4	00108913	addi	x18,x1,1	  x1:0x80000524 x18=0x80000525
       56495000	      5648	800006e8	00090967	jalr	x18,x18,0	 x18:0x80000525 x18=0x800006e8
       56505000	      5649	00000000	00000013	addi	x0,x0,0	  x0:0x00000000
       56515000	      5650	80000524	00000013	addi	x0,x0,0	  x0:0x00000000
       56525000	      5651	80000528	01efd113	srli	x2,x31,0x1e	 x31:0x00000125  x2=0x00000000
       56535000	      5652	8000052c	00147b33	and	x22,x8,x1	  x8:0x80009f3c  x1:0x80000524 x22=0x80000524
       56545000	      5653	80000530	f0493313	sltiu	x6,x18,-252	 x18:0x800006e8  x6=0x00000001
       56555000	      5654	80000534	00005497	auipc	x9,0x5	  x9=0x80005530
       56565000	      5655	80000538	ee848493	addi	x9,x9,-280	  x9:0x80005530  x9=0x80005418
       56575000	      5656	8000053c	40b706b3	sub	x13,x14,x11	 x14:0xc8000000 x11:0x00000000 x13=0xc8000000
       56585000	      5657	80000540	c1748493	addi	x9,x9,-1001	  x9:0x80005418  x9=0x8000502f
       56595000	      5658	80000544	40d7d793	srai	x15,x15,0xd	 x15:0x00000000 x15=0x00000000
       56605000	      5659	80000548	26650d13	addi	x26,x10,614	 x10:0x01ab4c80 x26=0x01ab4ee6
       56615000	      5660	8000054c	eeea3293	sltiu	x5,x20,-274	 x20:0xa15e4cb0  x5=0x00000001
       56625000	      5661	80000550	3ea480e7	jalr	x1,x9,1002	  x9:0x8000502f  x1=0x80000550
       56635000	      5662	00000000	00000013	addi	x0,x0,0	  x0:0x00000000
       56645000	      5663	80005418	00000013	addi	x0,x0,0	  x0:0x00000000
       56655000	      5664	8000541c	002e2233	slt	x4,x28,x2	 x28:0x29b35000  x2:0x00000000  x4=0x00000000
       56665000	      5665	80005420	00567133	and	x2,x12,x5	 x12:0x00000200  x5:0x00000001  x2=0x00000000
       56675000	      5666	80005424	01ad9c33	sll	x24,x27,x26	 x27:0x00000001 x26:0x01ab4ee6 x24=0x00000040
       56685000	      5667	80005428	fd840413	addi	x8,x8,-40	  x8:0x80009f3c  x8=0x80009f14
       56695000	      5668	8000542c	00142223	sw	x1,4(x8)	  x8:0x80009f14  x1:0x80000550 PA:0x80009f18
       56705000	      5669	80005430	e63b3193	sltiu	x3,x22,-413	 x22:0x80000524  x3=0x00000001
       56715000	      5670	80005434	a548ed93	ori	x27,x17,-1452	 x17:0x00000000 x27=0xfffffa54
       56725000	      5671	80005438	b3262f93	slti	x31,x12,-1230	 x12:0x00000200 x31=0x00000000
       56735000	      5672	8000543c	0a7c0193	addi	x3,x24,167	 x24:0x00000040  x3=0x000000e7
       56745000	      5673	80005440	00003497	auipc	x9,0x3	  x9=0x8000843c
       56755000	      5674	80005444	29748493	addi	x9,x9,663	  x9:0x8000843c  x9=0x800086d3
       56765000	      5675	80005448	00f83833	sltu	x16,x16,x15	 x16:0xba67fee4 x15:0x00000000 x16=0x00000000
       56775000	      5676	8000544c	fc94cb83	lbu	x23,-55(x9)	  x9:0x800086d3 x23=0x00000000 PA:0x8000869c
       56785000	      5677	80005450	1d432593	slti	x11,x6,468	  x6:0x00000001 x11=0x00000001
       56795000	      5678	80005454	ffe491a3	sh	x30,-29(x9)	  x9:0x800086d3 x30:0x00000001 PA:0x800086b6
       56805000	      5679	80005458	012e5d13	srli	x26,x28,0x12	 x28:0x29b35000 x26=0x00000a6c
       56815000	      5680	8000545c	b299ab37	lui	x22,0xb299a	 x22=0xb299a000
       56825000	      5681	80005460	03048c03	lb	x24,48(x9)	  x9:0x800086d3 x24=0x00000000 PA:0x80008703
       56835000	      5682	80005464	003497a3	sh	x3,15(x9)	  x9:0x800086d3  x3:0x000000e7 PA:0x800086e2
       56845000	      5683	80005468	005f87b3	add	x15,x31,x5	 x31:0x00000000  x5:0x00000001 x15=0x00000001
       56855000	      5684	8000546c	000cc833	xor	x16,x25,x0	 x25:0x800004c4  x0:0x00000000 x16=0x800004c4
       56865000	      5685	80005470	41bed813	srai	x16,x29,0x1b	 x29:0x00000357 x16=0x00000000
       56875000	      5686	80005474	01e4c103	lbu	x2,30(x9)	  x9:0x800086d3  x2=0x00000000 PA:0x800086f1
       56885000	      5687	80005478	fd848303	lb	x6,-40(x9)	  x9:0x800086d3  x6=0x00000000 PA:0x800086ab
       56895000	      5688	8000547c	02b48003	lb	x0,43(x9)	  x9:0x800086d3 PA:0x800086fe
       56905000	      5689	80005480	004459b3	srl	x19,x8,x4	  x8:0x80009f14  x4:0x00000000 x19=0x80009f14
       56915000	      5690	80005484	012ba5b3	slt	x11,x23,x18	 x23:0x00000000 x18:0x800006e8 x11=0x00000000
       56925000	      5691	80005488	fcc496a3	sh	x12,-51(x9)	  x9:0x800086d3 x12:0x00000200 PA:0x800086a0
       56935000	      5692	8000548c	00000013	addi	x0,x0,0	  x0:0x00000000
       56945000	      5693	80005490	01f4db83	lhu	x23,31(x9)	  x9:0x800086d3 x23=0x00000000 PA:0x800086f2
       56955000	      5694	80005494	003a6f33	or	x30,x20,x3	 x20:0xa15e4cb0  x3:0x000000e7 x30=0xa15e4cf7
       56965000	      5695	80005498	fc0fe793	ori	x15,x31,-64	 x31:0x00000000 x15=0xffffffc0
       56975000	      5696	8000549c	00ed7333	and	x6,x26,x14	 x26:0x00000a6c x14:0xc8000000  x6=0x00000000
       56985000	      5697	800054a0	fe4494a3	sh	x4,-23(x9)	  x9:0x800086d3  x4:0x00000000 PA:0x800086bc
       56995000	      5698	800054a4	00004d17	auipc	x26,0x4	 x26=0x800094a0
       57005000	      5699	800054a8	8e0d0d13	addi	x26,x26,-1824	 x26:0x800094a0 x26=0x80008d80
       57015000	      5700	800054ac	012d71b3	and	x3,x26,x18	 x26:0x80008d80 x18:0x800006e8  x3=0x80000480
       57025000	      5701	800054b0	d0db2817	auipc	x16,0xd0db2	 x16=0x50db74ac
       57035000	      5702	800054b4	025d4d83	lbu	x27,37(x26)	 x26:0x80008d80 x27=0x00000000 PA:0x80008da5
       57045000	      5703	800054b8	b37e7637	lui	x12,0xb37e7	 x12=0xb37e7000
       57055000	      5704	800054bc	40278633	sub	x12,x15,x2	 x15:0xffffffc0  x2:0x00000000 x12=0xffffffc0
       57065000	      5705	800054c0	fb3d4783	lbu	x15,-77(x26)	 x26:0x80008d80 x15=0x00000000 PA:0x80008d33
       57075000	      5706	800054c4	000ae4b3	or	x9,x21,x0	 x21:0xdf74d414  x0:0x00000000  x9=0xdf74d414
       57085000	      5707	800054c8	f21d07a3	sb	x1,-209(x26)	 x26:0x80008d80  x1:0x80000550 PA:0x80008caf
       57095000	      5708	800054cc	fb5d0023	sb	x21,-96(x26)	 x26:0x80008d80 x21:0xdf74d414 PA:0x80008d20
       57105000	      5709	800054d0	084d4583	lbu	x11,132(x26)	 x26:0x80008d80 x11=0x00000000 PA:0x80008e04
       57115000	      5710	800054d4	f20d1523	sh	x0,-214(x26)	 x26:0x80008d80  x0:0x00000000 PA:0x80008caa
       57125000	      5711	800054d8	002ba5b3	slt	x11,x23,x2	 x23:0x00000000  x2:0x00000000 x11=0x00000000
       57135000	      5712	800054dc	04bd0283	lb	x5,75(x26)	 x26:0x80008d80  x5=0x00000000 PA:0x80008dcb
       57145000	      5713	800054e0	058d1103	lh	x2,88(x26)	 x26:0x80008d80  x2=0x00000000 PA:0x80008dd8
       57155000	      5714	800054e4	e98b4613	xori	x12,x22,-360	 x22:0xb299a000 x12=0x4d665e98
       57165000	      5715	800054e8	ffed0523	sb	x30,-22(x26)	 x26:0x80008d80 x30:0xa15e4cf7 PA:0x80008d6a
       57175000	      5716	800054ec	05ed4003	lbu	x0,94(x26)	 x26:0x80008d80 PA:0x80008dde
       57185000	      5717	800054f0	bfef0eb7	lui	x29,0xbfef0	 x29=0xbfef0000
       57195000	      5718	800054f4	806d9297	auipc	x5,0x806d9	  x5=0x006de4f0
       57205000	      5719	800054f8	0125c1b3	xor	x3,x11,x18	 x11:0x00000000 x18:0x800006e8  x3=0x800006e8
       57215000	      5720	800054fc	21ed3f93	sltiu	x31,x26,542	 x26:0x80008d80 x31=0x00000000
       57225000	      5721	80005500	0054eab3	or	x21,x9,x5	  x9:0xdf74d414  x5:0x006de4f0 x21=0xdf7df4f4
       57235000	      5722	80005504	28286737	lui	x14,0x28286	 x14=0x28286000
       57245000	      5723	80005508	f20d2883	lw	x17,-224(x26)	 x26:0x80008d80 x17=0x00000000 PA:0x80008ca0
       57255000	      5724	8000550c	412fde13	srai	x28,x31,0x12	 x31:0x00000000 x28=0x00000000
       57265000	      5725	80005510	04bd0f23	sb	x11,94(x26)	 x26:0x80008d80 x11:0x00000000 PA:0x80008dde
       57275000	      5726	80005514	00000013	addi	x0,x0,0	  x0:0x00000000
       57285000	      5727	80005518	0059e833	or	x16,x19,x5	 x19:0x80009f14  x5:0x006de4f0 x16=0x806dfff4
       57295000	      5728	8000551c	f94d1683	lh	x13,-108(x26)	 x26:0x80008d80 x13=0x00000000 PA:0x80008d14
       57305000	      5729	80005520	f9cd02a3	sb	x28,-123(x26)	 x26:0x80008d80 x28:0x00000000 PA:0x80008d05
       57315000	      5730	80005524	64605117	auipc	x2,0x64605	  x2=0xe460a520
       57325000	      5731	80005528	f1ed1b83	lh	x23,-226(x26)	 x26:0x80008d80 x23=0x00000000 PA:0x80008c9e
       57335000	      5732	8000552c	02ad5683	lhu	x13,42(x26)	 x26:0x80008d80 x13=0x00000001 PA:0x80008daa
       57345000	      5733	00000000	00000013	addi	x0,x0,0	  x0:0x00000000
       57355000	      5734	80005530	00569e93	slli	x29,x13,0x5	 x13:0x00000001 x29=0x00000020
       57365000	      5735	80005534	009c66b3	or	x13,x24,x9	 x24:0x00000000  x9:0xdf74d414 x13=0xdf74d414
       57375000	      5736	80005538	00144bb3	xor	x23,x8,x1	  x8:0x80009f14  x1:0x80000550 x23=0x00009a44
       57385000	      5737	8000553c	f00d1803	lh	x16,-256(x26)	 x26:0x80008d80 x16=0x00000000 PA:0x80008c80
       57395000	      5738	80005540	ff4d5183	lhu	x3,-12(x26)	 x26:0x80008d80  x3=0x00000000 PA:0x80008d74
       57405000	      5739	80005544	fe9d0ca3	sb	x9,-7(x26)	 x26:0x80008d80  x9:0xdf74d414 PA:0x80008d79
       57415000	      5740	80005548	097d4f03	lbu	x30,151(x26)	 x26:0x80008d80 x30=0x00000000 PA:0x80008e17
       57425000	      5741	8000554c	83a0fa97	auipc	x21,0x83a0f	 x21=0x03a14548
       57435000	      5742	80005550	014ac333	xor	x6,x21,x20	 x21:0x03a14548 x20:0xa15e4cb0  x6=0xa2ff09f8
       57445000	      5743	80005554	03ad5883	lhu	x17,58(x26)	 x26:0x80008d80 x17=0x0000ff00 PA:0x80008dba
       57455000	      5744	80005558	fd8d5b03	lhu	x22,-40(x26)	 x26:0x80008d80 x22=0x00000000 PA:0x80008d58
       57465000	      5745	8000555c	00e220b3	slt	x1,x4,x14	  x4:0x00000000 x14:0x28286000  x1=0x00000001
       57475000	      5746	80005560	00b7b133	sltu	x2,x15,x11	 x15:0x00000000 x11:0x00000000  x2=0x00000000
       57485000	      5747	80005564	01d21113	slli	x2,x4,0x1d	  x4:0x00000000  x2=0x00000000
       57495000	      5748	80005568	fb5d0303	lb	x6,-75(x26)	 x26:0x80008d80  x6=0x00000000 PA:0x80008d35
       57505000	      5749	8000556c	00003817	auipc	x16,0x3	 x16=0x80008568
       57515000	      5750	80005570	bb380813	addi	x16,x16,-1101	 x16:0x80008568 x16=0x8000811b
       57525000	      5751	80005574	877b7f93	andi	x31,x22,-1929	 x22:0x00000000 x31=0x00000000
       57535000	      5752	80005578	9a617713	andi	x14,x2,-1626	  x2:0x00000000 x14=0x00000000
       57545000	      5753	8000557c	013641b3	xor	x3,x12,x19	 x12:0x4d665e98 x19:0x80009f14  x3=0xcd66c18c
       57555000	      5754	80005580	003d8133	add	x2,x27,x3	 x27:0x00000000  x3:0xcd66c18c  x2=0xcd66c18c
       57565000	      5755	80005584	fea803a3	sb	x10,-25(x16)	 x16:0x8000811b x10:0x01ab4c80 PA:0x80008102
       57575000	      5756	80005588	35256593	ori	x11,x10,850	 x10:0x01ab4c80 x11=0x01ab4fd2
       57585000	      5757	8000558c	0060fcb3	and	x25,x1,x6	  x1:0x00000001  x6:0x00000000 x25=0x00000000
       57595000	      5758	80005590	01551b93	slli	x23,x10,0x15	 x10:0x01ab4c80 x23=0x90000000
       57605000	      5759	80005594	00000013	addi	x0,x0,0	  x0:0x00000000
       57615000	      5760	80005598	f7580f83	lb	x31,-139(x16)	 x16:0x8000811b x31=0x00000000 PA:0x80008090
       57625000	      5761	8000559c	ba40ae13	slti	x28,x1,-1116	  x1:0x00000001 x28=0x00000000
       57635000	      5762	800055a0	012dfeb3	and	x29,x27,x18	 x27:0x00000000 x18:0x800006e8 x29=0x00000000
       57645000	      5763	800055a4	00845cb3	srl	x25,x8,x8	  x8:0x80009f14  x8:0x80009f14 x25=0x00000800
       57655000	      5764	800055a8	ff580ba3	sb	x21,-9(x16)	 x16:0x8000811b x21:0x03a14548 PA:0x80008112
       57665000	      5765	800055ac	0f4810a3	sh	x20,225(x16)	 x16:0x8000811b x20:0xa15e4cb0 PA:0x800081fc
       57675000	      5766	800055b0	01139d33	sll	x26,x7,x17	  x7:0x80009fc4 x17:0x0000ff00 x26=0x80009fc4
       57685000	      5767	800055b4	ff384703	lbu	x14,-13(x16)	 x16:0x8000811b x14=0x00000000 PA:0x8000810e
       57695000	      5768	800055b8	0141d313	srli	x6,x3,0x14	  x3:0xcd66c18c  x6=0x00000cd6
       57705000	      5769	800055bc	d3e03e93	sltiu	x29,x0,-706	  x0:0x00000000 x29=0x00000001
       57715000	      5770	800055c0	f9c826a3	sw	x28,-115(x16)	 x16:0x8000811b x28:0x00000000 PA:0x800080a8
       57725000	      5771	800055c4	f3181703	lh	x14,-207(x16)	 x16:0x8000811b x14=0x00000000 PA:0x8000804c
       57735000	      5772	800055c8	f3880da3	sb	x24,-197(x16)	 x16:0x8000811b x24:0x00000000 PA:0x80008056
       57745000	      5773	800055cc	d8312a93	slti	x21,x2,-637	  x2:0xcd66c18c x21=0x00000001
       57755000	      5774	800055d0	0c582d03	lw	x26,197(x16)	 x16:0x8000811b x26=0x00000000 PA:0x800081e0
       57765000	      5775	800055d4	015741b3	xor	x3,x14,x21	 x14:0x00000000 x21:0x00000001  x3=0x00000001
       57775000	      5776	800055d8	00259e33	sll	x28,x11,x2	 x11:0x01ab4fd2  x2:0xcd66c18c x28=0xb4fd2000
       57785000	      5777	800055dc	0b084283	lbu	x5,176(x16)	 x16:0x8000811b  x5=0x00000000 PA:0x800081cb
       57795000	      5778	800055e0	00003617	auipc	x12,0x3	 x12=0x800085dc
       57805000	      5779	800055e4	23860613	addi	x12,x12,568	 x12:0x800085dc x12=0x80008814
       57815000	      5780	800055e8	ff661f23	sh	x22,-2(x12)	 x12:0x80008814 x22:0x00000000 PA:0x80008812
       57825000	      5781	800055ec	ff460ea3	sb	x20,-3(x12)	 x12:0x80008814 x20:0xa15e4cb0 PA:0x80008811
       57835000	      5782	800055f0	01d5d5b3	srl	x11,x11,x29	 x11:0x01ab4fd2 x29:0x00000001 x11=0x00d5a7e9
       57845000	      5783	800055f4	ffb64f83	lbu	x31,-5(x12)	 x12:0x80008814 x31=0x00000000 PA:0x8000880f
       57855000	      5784	800055f8	00c61693	slli	x13,x12,0xc	 x12:0x80008814 x13=0x08814000
       57865000	      5785	800055fc	33a567b7	lui	x15,0x33a56	 x15=0x33a56000
       57875000	      5786	80005600	012c5133	srl	x2,x24,x18	 x24:0x00000000 x18:0x800006e8  x2=0x00000000
       57885000	      5787	80005604	fe160fa3	sb	x1,-1(x12)	 x12:0x80008814  x1:0x00000001 PA:0x80008813
       57895000	      5788	80005608	ff160b03	lb	x22,-15(x12)	 x12:0x80008814 x22=0x00000000 PA:0x80008805
       57905000	      5789	8000560c	41ae0233	sub	x4,x28,x26	 x28:0xb4fd2000 x26:0x00000000  x4=0xb4fd2000
       57915000	      5790	80005610	1c3a0793	addi	x15,x20,451	 x20:0xa15e4cb0 x15=0xa15e4e73
       57925000	      5791	80005614	40a60533	sub	x10,x12,x10	 x12:0x80008814 x10:0x01ab4c80 x10=0x7e553b94
       57935000	      5792	80005618	94613b93	sltiu	x23,x2,-1722	  x2:0x00000000 x23=0x00000001
       57945000	      5793	8000561c	0fcdba97	auipc	x21,0xfcdb	 x21=0x8fce0618
       57955000	      5794	80005620	e83c2313	slti	x6,x24,-381	 x24:0x00000000  x6=0x00000000
       57965000	      5795	80005624	4165d8b3	sra	x17,x11,x22	 x11:0x00d5a7e9 x22:0x00000000 x17=0x00d5a7e9
       57975000	      5796	80005628	01423db3	sltu	x27,x4,x20	  x4:0xb4fd2000 x20:0xa15e4cb0 x27=0x00000000
       57985000	      5797	8000562c	ff062283	lw	x5,-16(x12)	 x12:0x80008814  x5=0x00000000 PA:0x80008804
       57995000	      5798	80005630	82aa18b7	lui	x17,0x82aa1	 x17=0x82aa1000
       58005000	      5799	80005634	40cedf13	srai	x30,x29,0xc	 x29:0x00000001 x30=0x00000000
       58015000	      5800	80005638	0129c0b3	xor	x1,x19,x18	 x19:0x80009f14 x18:0x800006e8  x1=0x000099fc
       58025000	      5801	8000563c	00a4dcb3	srl	x25,x9,x10	  x9:0xdf74d414 x10:0x7e553b94 x25=0x00000df7
       58035000	      5802	80005640	00800bb3	add	x23,x0,x8	  x0:0x00000000  x8:0x80009f14 x23=0x80009f14
       58045000	      5803	80005644	00360283	lb	x5,3(x12)	 x12:0x80008814  x5=0x00000000 PA:0x80008817
       58055000	      5804	80005648	97f3f213	andi	x4,x7,-1665	  x7:0x80009fc4  x4=0x80009944
       58065000	      5805	8000564c	00000013	addi	x0,x0,0	  x0:0x00000000
       58075000	      5806	80005650	01c75e33	srl	x28,x14,x28	 x14:0x00000000 x28:0xb4fd2000 x28=0x00000000
       58085000	      5807	80005654	ff560a83	lb	x21,-11(x12)	 x12:0x80008814 x21=0x00000000 PA:0x80008809
       58095000	      5808	80005658	fff60283	lb	x5,-1(x12)	 x12:0x80008814  x5=0x00000001 PA:0x80008813
       58105000	      5809	8000565c	ff462a83	lw	x21,-12(x12)	 x12:0x80008814 x21=0x00000000 PA:0x80008808
       58115000	      5810	80005660	0050f533	and	x10,x1,x5	  x1:0x000099fc  x5:0x00000001 x10=0x00000000
       58125000	      5811	80005664	6fa80193	addi	x3,x16,1786	 x16:0x8000811b  x3=0x80008815
       58135000	      5812	80005668	ff164003	lbu	x0,-15(x12)	 x12:0x80008814 PA:0x80008805
       58145000	      5813	8000566c	ff760ea3	sb	x23,-3(x12)	 x12:0x80008814 x23:0x80009f14 PA:0x80008811
       58155000	      5814	80005670	00364983	lbu	x19,3(x12)	 x12:0x80008814 x19=0x00000000 PA:0x80008817
       58165000	      5815	80005674	550d9317	auipc	x6,0x550d9	  x6=0xd50de670
       58175000	      5816	80005678	ffe61b03	lh	x22,-2(x12)	 x12:0x80008814 x22=0x00000100 PA:0x80008812
       58185000	      5817	8000567c	ff164203	lbu	x4,-15(x12)	 x12:0x80008814  x4=0x00000000 PA:0x80008805
       58195000	      5818	80005680	407d0f33	sub	x30,x26,x7	 x26:0x00000000  x7:0x80009fc4 x30=0x7fff603c
       58205000	      5819	80005684	ff564783	lbu	x15,-11(x12)	 x12:0x80008814 x15=0x00000000 PA:0x80008809
       58215000	      5820	80005688	00003117	auipc	x2,0x3	  x2=0x80008684
       58225000	      5821	8000568c	77c10113	addi	x2,x2,1916	  x2:0x80008684  x2=0x80008e00
       58235000	      5822	80005690	fd812c83	lw	x25,-40(x2)	  x2:0x80008e00 x25=0x00000000 PA:0x80008dd8
       58245000	      5823	80005694	0083afb3	slt	x31,x7,x8	  x7:0x80009fc4  x8:0x80009f14 x31=0x00000000
       58255000	      5824	80005698	41ff8db3	sub	x27,x31,x31	 x31:0x00000000 x31:0x00000000 x27=0x00000000
       58265000	      5825	8000569c	0143e233	or	x4,x7,x20	  x7:0x80009fc4 x20:0xa15e4cb0  x4=0xa15edff4
       58275000	      5826	800056a0	01314d83	lbu	x27,19(x2)	  x2:0x80008e00 x27=0x00000000 PA:0x80008e13
       58285000	      5827	800056a4	014547b3	xor	x15,x10,x20	 x10:0x00000000 x20:0xa15e4cb0 x15=0xa15e4cb0
       58295000	      5828	800056a8	01710e83	lb	x29,23(x2)	  x2:0x80008e00 x29=0x00000000 PA:0x80008e17
       58305000	      5829	800056ac	0059c533	xor	x10,x19,x5	 x19:0x00000000  x5:0x00000001 x10=0x00000001
       58315000	      5830	800056b0	fe914983	lbu	x19,-23(x2)	  x2:0x80008e00 x19=0x00000000 PA:0x80008de9
       58325000	      5831	800056b4	49510193	addi	x3,x2,1173	  x2:0x80008e00  x3=0x80009295
       58335000	      5832	800056b8	fd215b83	lhu	x23,-46(x2)	  x2:0x80008e00 x23=0x00000000 PA:0x80008dd2
       58345000	      5833	800056bc	01e11313	slli	x6,x2,0x1e	  x2:0x80008e00  x6=0x00000000
       58355000	      5834	800056c0	01790f33	add	x30,x18,x23	 x18:0x800006e8 x23:0x00000000 x30=0x800006e8
       58365000	      5835	800056c4	fc311223	sh	x3,-60(x2)	  x2:0x80008e00  x3:0x80009295 PA:0x80008dc4
       58375000	      5836	800056c8	00c10fa3	sb	x12,31(x2)	  x2:0x80008e00 x12:0x80008814 PA:0x80008e1f
       58385000	      5837	800056cc	f88aa713	slti	x14,x21,-120	 x21:0x00000000 x14=0x00000000
       58395000	      5838	800056d0	ff0107a3	sb	x16,-17(x2)	  x2:0x80008e00 x16:0x8000811b PA:0x80008def
       58405000	      5839	800056d4	0002fcb3	and	x25,x5,x0	  x5:0x00000001  x0:0x00000000 x25=0x00000000
       58415000	      5840	800056d8	401b5833	sra	x16,x22,x1	 x22:0x00000100  x1:0x000099fc x16=0x00000000
       58425000	      5841	800056dc	ffa15883	lhu	x17,-6(x2)	  x2:0x80008e00 x17=0x00000000 PA:0x80008dfa
       58435000	      5842	800056e0	05be7313	andi	x6,x28,91	 x28:0x00000000  x6=0x00000000
       58445000	      5843	800056e4	408ed333	sra	x6,x29,x8	 x29:0x00000000  x8:0x80009f14  x6=0x00000000
       58455000	      5844	800056e8	d7840617	auipc	x12,0xd7840	 x12=0x578456e4
       58465000	      5845	800056ec	01814d03	lbu	x26,24(x2)	  x2:0x80008e00 x26=0x00000000 PA:0x80008e18
       58475000	      5846	800056f0	401a5513	srai	x10,x20,0x1	 x20:0xa15e4cb0 x10=0xd0af2658
       58485000	      5847	800056f4	01811323	sh	x24,6(x2)	  x2:0x80008e00 x24:0x00000000 PA:0x80008e06
       58495000	      5848	800056f8	00614903	lbu	x18,6(x2)	  x2:0x80008e00 x18=0x00000000 PA:0x80008e06
       58505000	      5849	800056fc	41ff8cb3	sub	x25,x31,x31	 x31:0x00000000 x31:0x00000000 x25=0x00000000
       58515000	      5850	80005700	fe510e03	lb	x28,-27(x2)	  x2:0x80008e00 x28=0x00000000 PA:0x80008de5
       58525000	      5851	80005704	01510d23	sb	x21,26(x2)	  x2:0x80008e00 x21:0x00000000 PA:0x80008e1a
       58535000	      5852	80005708	00414c83	lbu	x25,4(x2)	  x2:0x80008e00 x25=0x00000000 PA:0x80008e04
       58545000	      5853	8000570c	01e98933	add	x18,x19,x30	 x19:0x00000000 x30:0x800006e8 x18=0x800006e8
       58555000	      5854	80005710	03210523	sb	x18,42(x2)	  x2:0x80008e00 x18:0x800006e8 PA:0x80008e2a
       58565000	      5855	80005714	ac2de037	lui	x0,0xac2de	
       58575000	      5856	80005718	01c26463	bltu	x4,x28,80005720	  x4:0xa15edff4 x28:0x00000000
       58585000	      5857	8000571c	80390113	addi	x2,x18,-2045	 x18:0x800006e8  x2=0x7ffffeeb
       58595000	      5858	80005720	016fbeb3	sltu	x29,x31,x22	 x31:0x00000000 x22:0x00000100 x29=0x00000001
       58605000	      5859	80005724	0039f833	and	x16,x19,x3	 x19:0x00000000  x3:0x80009295 x16=0x00000000
       58615000	      5860	80005728	01995663	bge	x18,x25,80005734	 x18:0x800006e8 x25:0x00000000
       58625000	      5861	8000572c	00e125b3	slt	x11,x2,x14	  x2:0x7ffffeeb x14:0x00000000 x11=0x00000000
       58635000	      5862	80005730	63b76593	ori	x11,x14,1595	 x14:0x00000000 x11=0x0000063b
       58645000	      5863	80005734	01a5c6b3	xor	x13,x11,x26	 x11:0x0000063b x26:0x00000000 x13=0x0000063b
       58655000	      5864	80005738	4aaf7d93	andi	x27,x30,1194	 x30:0x800006e8 x27=0x000004a8
       58665000	      5865	8000573c	40535693	srai	x13,x6,0x5	  x6:0x00000000 x13=0x00000000
       58675000	      5866	80005740	00fa85b3	add	x11,x21,x15	 x21:0x00000000 x15:0xa15e4cb0 x11=0xa15e4cb0
       58685000	      5867	80005744	01ff9663	bne	x31,x31,80005750	 x31:0x00000000 x31:0x00000000
       58695000	      5868	80005748	3bbf8e37	lui	x28,0x3bbf8	 x28=0x3bbf8000
       58705000	      5869	8000574c	00b49493	slli	x9,x9,0xb	  x9:0xdf74d414  x9=0xa6a0a000
       58715000	      5870	80005750	00137533	and	x10,x6,x1	  x6:0x00000000  x1:0x000099fc x10=0x00000000
       58725000	      5871	80005754	41f50333	sub	x6,x10,x31	 x10:0x00000000 x31:0x00000000  x6=0x00000000
       58735000	      5872	80005758	01275713	srli	x14,x14,0x12	 x14:0x00000000 x14=0x00000000
       58745000	      5873	8000575c	04884863	blt	x16,x8,800057ac	 x16:0x00000000  x8:0x80009f14
       58755000	      5874	80005760	40cc02b3	sub	x5,x24,x12	 x24:0x00000000 x12:0x578456e4  x5=0xa87ba91c
       58765000	      5875	80005764	01a47933	and	x18,x8,x26	  x8:0x80009f14 x26:0x00000000 x18=0x00000000
       58775000	      5876	80005768	508ba613	slti	x12,x23,1288	 x23:0x00000000 x12=0x00000001
       58785000	      5877	8000576c	01f3ed33	or	x26,x7,x31	  x7:0x80009fc4 x31:0x00000000 x26=0x80009fc4
       58795000	      5878	80005770	01df2e33	slt	x28,x30,x29	 x30:0x800006e8 x29:0x00000001 x28=0x00000001
       58805000	      5879	80005774	40c7d313	srai	x6,x15,0xc	 x15:0xa15e4cb0  x6=0xfffa15e4
       58815000	      5880	80005778	07ea1fb7	lui	x31,0x7ea1	 x31=0x07ea1000
       58825000	      5881	8000577c	01a6d593	srli	x11,x13,0x1a	 x13:0x00000000 x11=0x00000000
       58835000	      5882	80005780	7b36e313	ori	x6,x13,1971	 x13:0x00000000  x6=0x000007b3
       58845000	      5883	80005784	01443333	sltu	x6,x8,x20	  x8:0x80009f14 x20:0xa15e4cb0  x6=0x00000001
       58855000	      5884	80005788	0038ed33	or	x26,x17,x3	 x17:0x00000000  x3:0x80009295 x26=0x80009295
       58865000	      5885	8000578c	40d9d993	srai	x19,x19,0xd	 x19:0x00000000 x19=0x00000000
       58875000	      5886	80005790	0422e663	bltu	x5,x2,800057dc	  x5:0xa87ba91c  x2:0x7ffffeeb
       58885000	      5887	80005794	007252b3	srl	x5,x4,x7	  x4:0xa15edff4  x7:0x80009fc4  x5=0x0a15edff
       58895000	      5888	80005798	0121f733	and	x14,x3,x18	  x3:0x80009295 x18:0x00000000 x14=0x00000000
       58905000	      5889	8000579c	00d4c233	xor	x4,x9,x13	  x9:0xa6a0a000 x13:0x00000000  x4=0xa6a0a000
       58915000	      5890	800057a0	453a3813	sltiu	x16,x20,1107	 x20:0xa15e4cb0 x16=0x00000000
       58925000	      5891	800057a4	4105db33	sra	x22,x11,x16	 x11:0x00000000 x16:0x00000000 x22=0x00000000
       58935000	      5892	800057a8	000daab3	slt	x21,x27,x0	 x27:0x000004a8  x0:0x00000000 x21=0x00000000
       58945000	      5893	800057ac	f2be0d93	addi	x27,x28,-213	 x28:0x00000001 x27=0xffffff2c
       58955000	      5894	800057b0	d1cdda97	auipc	x21,0xd1cdd	 x21=0x51ce27ac
       58965000	      5895	800057b4	013909b3	add	x19,x18,x19	 x18:0x00000000 x19:0x00000000 x19=0x00000000
       58975000	      5896	800057b8	007709b3	add	x19,x14,x7	 x14:0x00000000  x7:0x80009fc4 x19=0x80009fc4
       58985000	      5897	800057bc	00c47e63	bgeu	x8,x12,800057d8	  x8:0x80009f14 x12:0x00000001
       58995000	      5898	00000000	00000013	addi	x0,x0,0	  x0:0x00000000
       59005000	      5899	800057d4	00000013	addi	x0,x0,0	  x0:0x00000000
       59015000	      5900	800057d8	00780e63	beq	x16,x7,800057f4	 x16:0x00000000  x7:0x80009fc4
       59025000	      5901	800057dc	407d0333	sub	x6,x26,x7	 x26:0x80009295  x7:0x80009fc4  x6=0xfffff2d1
       59035000	      5902	800057e0	9679e193	ori	x3,x19,-1689	 x19:0x80009fc4  x3=0xffffffe7
       59045000	      5903	800057e4	fc920713	addi	x14,x4,-55	  x4:0xa6a0a000 x14=0xa6a09fc9
       59055000	      5904	800057e8	01151213	slli	x4,x10,0x11	 x10:0x00000000  x4=0x00000000
       59065000	      5905	800057ec	9422af93	slti	x31,x5,-1726	  x5:0x0a15edff x31=0x00000000
       59075000	      5906	800057f0	00ce54b3	srl	x9,x28,x12	 x28:0x00000001 x12:0x00000001  x9=0x00000000
       59085000	      5907	800057f4	01405ab3	srl	x21,x0,x20	  x0:0x00000000 x20:0xa15e4cb0 x21=0x00000000
       59095000	      5908	800057f8	025b7e63	bgeu	x22,x5,80005834	 x22:0x00000000  x5:0x0a15edff
       59105000	      5909	800057fc	72a67f13	andi	x30,x12,1834	 x12:0x00000001 x30=0x00000000
       59115000	      5910	80005800	004d3ab3	sltu	x21,x26,x4	 x26:0x80009295  x4:0x00000000 x21=0x00000000
       59125000	      5911	80005804	00939663	bne	x7,x9,80005810	  x7:0x80009fc4  x9:0x00000000
       59135000	      5912	00000000	00000013	addi	x0,x0,0	  x0:0x00000000
       59145000	      5913	8000580c	00000013	addi	x0,x0,0	  x0:0x00000000
       59155000	      5914	80005810	01e89033	sll	x0,x17,x30	 x17:0x00000000 x30:0x00000000
       59165000	      5915	80005814	e959e593	ori	x11,x19,-363	 x19:0x80009fc4 x11=0xffffffd5
       59175000	      5916	80005818	00b6e033	or	x0,x13,x11	 x13:0x00000000 x11:0xffffffd5
       59185000	      5917	8000581c	45116913	ori	x18,x2,1105	  x2:0x7ffffeeb x18=0x7ffffefb
       59195000	      5918	80005820	47812117	auipc	x2,0x47812	  x2=0xc781781c
       59205000	      5919	80005824	b8c8e613	ori	x12,x17,-1140	 x17:0x00000000 x12=0xfffffb8c
       59215000	      5920	80005828	010f5733	srl	x14,x30,x16	 x30:0x00000000 x16:0x00000000 x14=0x00000000
       59225000	      5921	8000582c	008dd193	srli	x3,x27,0x8	 x27:0xffffff2c  x3=0x00ffffff
       59235000	      5922	80005830	01056eb3	or	x29,x10,x16	 x10:0x00000000 x16:0x00000000 x29=0x00000000
       59245000	      5923	80005834	016322b3	slt	x5,x6,x22	  x6:0xfffff2d1 x22:0x00000000  x5=0x00000001
       59255000	      5924	80005838	003d3e33	sltu	x28,x26,x3	 x26:0x80009295  x3:0x00ffffff x28=0x00000000
       59265000	      5925	8000583c	00000013	addi	x0,x0,0	  x0:0x00000000
       59275000	      5926	80005840	02e39e63	bne	x7,x14,8000587c	  x7:0x80009fc4 x14:0x00000000
       59285000	      5927	00000000	00000013	addi	x0,x0,0	  x0:0x00000000
       59295000	      5928	80005878	00000013	addi	x0,x0,0	  x0:0x00000000
       59305000	      5929	8000587c	417054b3	sra	x9,x0,x23	  x0:0x00000000 x23:0x00000000  x9=0x00000000
       59315000	      5930	80005880	04c34463	blt	x6,x12,800058c8	  x6:0xfffff2d1 x12:0xfffffb8c
       59325000	      5931	00000000	00000013	addi	x0,x0,0	  x0:0x00000000
       59335000	      5932	800058c4	00000013	addi	x0,x0,0	  x0:0x00000000
       59345000	      5933	800058c8	41e50b33	sub	x22,x10,x30	 x10:0x00000000 x30:0x00000000 x22=0x00000000
       59355000	      5934	800058cc	04fba297	auipc	x5,0x4fba	  x5=0x84fbf8c8
       59365000	      5935	800058d0	4db86913	ori	x18,x16,1243	 x16:0x00000000 x18=0x000004db
       59375000	      5936	800058d4	0921c313	xori	x6,x3,146	  x3:0x00ffffff  x6=0x00ffff6d
       59385000	      5937	800058d8	0240d863	bge	x1,x4,80005908	  x1:0x000099fc  x4:0x00000000
       59395000	      5938	00000000	00000013	addi	x0,x0,0	  x0:0x00000000
       59405000	      5939	80005904	00000013	addi	x0,x0,0	  x0:0x00000000
       59415000	      5940	80005908	f15b9717	auipc	x14,0xf15b9	 x14=0x715be904
       59425000	      5941	8000590c	14b1fbb7	lui	x23,0x14b1f	 x23=0x14b1f000
       59435000	      5942	80005910	e4650013	addi	x0,x10,-442	 x10:0x00000000
       59445000	      5943	80005914	58cb4813	xori	x16,x22,1420	 x22:0x00000000 x16=0x0000058c
       59455000	      5944	80005918	ef0de493	ori	x9,x27,-272	 x27:0xffffff2c  x9=0xfffffffc
       59465000	      5945	8000591c	624f2597	auipc	x11,0x624f2	 x11=0xe24f7918
       59475000	      5946	80005920	01633333	sltu	x6,x6,x22	  x6:0x00ffff6d x22:0x00000000  x6=0x00000000
       59485000	      5947	80005924	40b650b3	sra	x1,x12,x11	 x12:0xfffffb8c x11:0xe24f7918  x1=0xffffffff
       59495000	      5948	80005928	5a73b797	auipc	x15,0x5a73b	 x15=0xda740924
       59505000	      5949	8000592c	00f9b1b3	sltu	x3,x19,x15	 x19:0x80009fc4 x15:0xda740924  x3=0x00000001
       59515000	      5950	80005930	00033633	sltu	x12,x6,x0	  x6:0x00000000  x0:0x00000000 x12=0x00000000
       59525000	      5951	80005934	61ea42b7	lui	x5,0x61ea4	  x5=0x61ea4000
       59535000	      5952	80005938	00b0d6b3	srl	x13,x1,x11	  x1:0xffffffff x11:0xe24f7918 x13=0x000000ff
       59545000	      5953	8000593c	3769ca93	xori	x21,x19,886	 x19:0x80009fc4 x21=0x80009cb2
       59555000	      5954	80005940	01c97a63	bgeu	x18,x28,80005954	 x18:0x000004db x28:0x00000000
       59565000	      5955	00000000	00000013	addi	x0,x0,0	  x0:0x00000000
       59575000	      5956	80005950	00000013	addi	x0,x0,0	  x0:0x00000000
       59585000	      5957	80005954	0471f263	bgeu	x3,x7,80005998	  x3:0x00000001  x7:0x80009fc4
       59595000	      5958	80005958	e227bf93	sltiu	x31,x15,-478	 x15:0xda740924 x31=0x00000001
       59605000	      5959	8000595c	0028e1b3	or	x3,x17,x2	 x17:0x00000000  x2:0xc781781c  x3=0xc781781c
       59615000	      5960	80005960	82128c13	addi	x24,x5,-2015	  x5:0x61ea4000 x24=0x61ea3821
       59625000	      5961	80005964	00c8de63	bge	x17,x12,80005980	 x17:0x00000000 x12:0x00000000
       59635000	      5962	00000000	00000013	addi	x0,x0,0	  x0:0x00000000
       59645000	      5963	8000597c	00000013	addi	x0,x0,0	  x0:0x00000000
       59655000	      5964	80005980	01509e93	slli	x29,x1,0x15	  x1:0xffffffff x29=0xffe00000
       59665000	      5965	80005984	04c2e463	bltu	x5,x12,800059cc	  x5:0x61ea4000 x12:0x00000000
       59675000	      5966	80005988	011ce733	or	x14,x25,x17	 x25:0x00000000 x17:0x00000000 x14=0x00000000
       59685000	      5967	8000598c	409a08b3	sub	x17,x20,x9	 x20:0xa15e4cb0  x9:0xfffffffc x17=0xa15e4cb4
       59695000	      5968	80005990	b8ffec93	ori	x25,x31,-1137	 x31:0x00000001 x25=0xfffffb8f
       59705000	      5969	80005994	b8006d13	ori	x26,x0,-1152	  x0:0x00000000 x26=0xfffffb80
       59715000	      5970	80005998	2396b593	sltiu	x11,x13,569	 x13:0x000000ff x11=0x00000001
       59725000	      5971	8000599c	dd77b213	sltiu	x4,x15,-553	 x15:0xda740924  x4=0x00000001
       59735000	      5972	800059a0	5314f113	andi	x2,x9,1329	  x9:0xfffffffc  x2=0x00000530
       59745000	      5973	800059a4	00640b33	add	x22,x8,x6	  x8:0x80009f14  x6:0x00000000 x22=0x80009f14
       59755000	      5974	800059a8	0074f033	and	x0,x9,x7	  x9:0xfffffffc  x7:0x80009fc4
       59765000	      5975	800059ac	01a4a7b3	slt	x15,x9,x26	  x9:0xfffffffc x26:0xfffffb80 x15=0x00000000
       59775000	      5976	800059b0	41e004b3	sub	x9,x0,x30	  x0:0x00000000 x30:0x00000000  x9=0x00000000
       59785000	      5977	800059b4	00000013	addi	x0,x0,0	  x0:0x00000000
       59795000	      5978	800059b8	000b4133	xor	x2,x22,x0	 x22:0x80009f14  x0:0x00000000  x2=0x80009f14
       59805000	      5979	800059bc	0004e933	or	x18,x9,x0	  x9:0x00000000  x0:0x00000000 x18=0x00000000
       59815000	      5980	800059c0	819fc193	xori	x3,x31,-2023	 x31:0x00000001  x3=0xfffff818
       59825000	      5981	800059c4	00000013	addi	x0,x0,0	  x0:0x00000000
       59835000	      5982	800059c8	05ab8263	beq	x23,x26,80005a0c	 x23:0x14b1f000 x26:0xfffffb80
       59845000	      5983	800059cc	01869e13	slli	x28,x13,0x18	 x13:0x000000ff x28=0xff000000
       59855000	      5984	800059d0	001ad663	bge	x21,x1,800059dc	 x21:0x80009cb2  x1:0xffffffff
       59865000	      5985	800059d4	0500c663	blt	x1,x16,80005a20	  x1:0xffffffff x16:0x0000058c
       59875000	      5986	00000000	00000013	addi	x0,x0,0	  x0:0x00000000
       59885000	      5987	80005a1c	00000013	addi	x0,x0,0	  x0:0x00000000
       59895000	      5988	80005a20	00b6aab3	slt	x21,x13,x11	 x13:0x000000ff x11:0x00000001 x21=0x00000000
       59905000	      5989	80005a24	020ee863	bltu	x29,x0,80005a54	 x29:0xffe00000  x0:0x00000000
       59915000	      5990	80005a28	f4b63137	lui	x2,0xf4b63	  x2=0xf4b63000
       59925000	      5991	80005a2c	00945913	srli	x18,x8,0x9	  x8:0x80009f14 x18=0x0040004f
       59935000	      5992	80005a30	030ed663	bge	x29,x16,80005a5c	 x29:0xffe00000 x16:0x0000058c
       59945000	      5993	80005a34	413cd4b3	sra	x9,x25,x19	 x25:0xfffffb8f x19:0x80009fc4  x9=0xffffffb8
       59955000	      5994	80005a38	012087b3	add	x15,x1,x18	  x1:0xffffffff x18:0x0040004f x15=0x0040004e
       59965000	      5995	80005a3c	412902b3	sub	x5,x18,x18	 x18:0x0040004f x18:0x0040004f  x5=0x00000000
       59975000	      5996	80005a40	00ab8863	beq	x23,x10,80005a50	 x23:0x14b1f000 x10:0x00000000
       59985000	      5997	80005a44	00052733	slt	x14,x10,x0	 x10:0x00000000  x0:0x00000000 x14=0x00000000
       59995000	      5998	80005a48	007c2cb3	slt	x25,x24,x7	 x24:0x61ea3821  x7:0x80009fc4 x25=0x00000000
       60005000	      5999	80005a4c	cac35a97	auipc	x21,0xcac35	 x21=0x4ac3aa48
       60015000	      6000	80005a50	04b4c063	blt	x9,x11,80005a90	  x9:0xffffffb8 x11:0x00000001
       60025000	      6001	00000000	00000013	addi	x0,x0,0	  x0:0x00000000
       60035000	      6002	80005a8c	00000013	addi	x0,x0,0	  x0:0x00000000
       60045000	      6003	80005a90	02b98e63	beq	x19,x11,80005acc	 x19:0x80009fc4 x11:0x00000001
       60055000	      6004	80005a94	f8af6d13	ori	x26,x30,-118	 x30:0x00000000 x26=0xffffff8a
       60065000	      6005	80005a98	0156a933	slt	x18,x13,x21	 x13:0x000000ff x21:0x4ac3aa48 x18=0x00000001
       60075000	      6006	80005a9c	01389033	sll	x0,x17,x19	 x17:0xa15e4cb4 x19:0x80009fc4
       60085000	      6007	80005aa0	01105e63	bge	x0,x17,80005abc	  x0:0x00000000 x17:0xa15e4cb4
       60095000	      6008	00000000	00000013	addi	x0,x0,0	  x0:0x00000000
       60105000	      6009	80005ab8	00000013	addi	x0,x0,0	  x0:0x00000000
       60115000	      6010	80005abc	40a484b3	sub	x9,x9,x10	  x9:0xffffffb8 x10:0x00000000  x9=0xffffffb8
       60125000	      6011	80005ac0	011bc9b3	xor	x19,x23,x17	 x23:0x14b1f000 x17:0xa15e4cb4 x19=0xb5efbcb4
       60135000	      6012	80005ac4	0076e933	or	x18,x13,x7	 x13:0x000000ff  x7:0x80009fc4 x18=0x80009fff
       60145000	      6013	80005ac8	51ecb017	auipc	x0,0x51ecb	
       60155000	      6014	80005acc	030cde63	bge	x25,x16,80005b08	 x25:0x00000000 x16:0x0000058c
       60165000	      6015	80005ad0	03480063	beq	x16,x20,80005af0	 x16:0x0000058c x20:0xa15e4cb0
       60175000	      6016	80005ad4	010ffe63	bgeu	x31,x16,80005af0	 x31:0x00000001 x16:0x0000058c
       60185000	      6017	80005ad8	03dd9e63	bne	x27,x29,80005b14	 x27:0xffffff2c x29:0xffe00000
       60195000	      6018	00000000	00000013	addi	x0,x0,0	  x0:0x00000000
       60205000	      6019	80005b10	00000013	addi	x0,x0,0	  x0:0x00000000
       60215000	      6020	80005b14	0058e4b3	or	x9,x17,x5	 x17:0xa15e4cb4  x5:0x00000000  x9=0xa15e4cb4
       60225000	      6021	80005b18	77a92913	slti	x18,x18,1914	 x18:0x80009fff x18=0x00000001
       60235000	      6022	80005b1c	01c7f663	bgeu	x15,x28,80005b28	 x15:0x0040004e x28:0xff000000
       60245000	      6023	80005b20	0439f663	bgeu	x19,x3,80005b6c	 x19:0xb5efbcb4  x3:0xfffff818
       60255000	      6024	80005b24	00291233	sll	x4,x18,x2	 x18:0x00000001  x2:0xf4b63000  x4=0x00000001
       60265000	      6025	80005b28	0acec093	xori	x1,x29,172	 x29:0xffe00000  x1=0xffe000ac
       60275000	      6026	80005b2c	6045a817	auipc	x16,0x6045a	 x16=0xe045fb28
       60285000	      6027	80005b30	e9da2d17	auipc	x26,0xe9da2	 x26=0x69da7b2c
       60295000	      6028	80005b34	04df7463	bgeu	x30,x13,80005b7c	 x30:0x00000000 x13:0x000000ff
       60305000	      6029	80005b38	02f0f063	bgeu	x1,x15,80005b58	  x1:0xffe000ac x15:0x0040004e
       60315000	      6030	00000000	00000013	addi	x0,x0,0	  x0:0x00000000
       60325000	      6031	80005b54	00000013	addi	x0,x0,0	  x0:0x00000000
       60335000	      6032	80005b58	00000013	addi	x0,x0,0	  x0:0x00000000
       60345000	      6033	80005b5c	0148f8b3	and	x17,x17,x20	 x17:0xa15e4cb4 x20:0xa15e4cb0 x17=0xa15e4cb0
       60355000	      6034	80005b60	25da7937	lui	x18,0x25da7	 x18=0x25da7000
       60365000	      6035	80005b64	40ef8eb3	sub	x29,x31,x14	 x31:0x00000001 x14:0x00000000 x29=0x00000001
       60375000	      6036	80005b68	03f04c63	blt	x0,x31,80005ba0	  x0:0x00000000 x31:0x00000001
       60385000	      6037	00000000	00000013	addi	x0,x0,0	  x0:0x00000000
       60395000	      6038	80005b9c	00000013	addi	x0,x0,0	  x0:0x00000000
       60405000	      6039	80005ba0	5d97f193	andi	x3,x15,1497	 x15:0x0040004e  x3=0x00000048
       60415000	      6040	80005ba4	003e9e63	bne	x29,x3,80005bc0	 x29:0x00000001  x3:0x00000048
       60425000	      6041	00000000	00000013	addi	x0,x0,0	  x0:0x00000000
       60435000	      6042	80005bbc	00000013	addi	x0,x0,0	  x0:0x00000000
       60445000	      6043	80005bc0	00000013	addi	x0,x0,0	  x0:0x00000000
       60455000	      6044	80005bc4	02cc9663	bne	x25,x12,80005bf0	 x25:0x00000000 x12:0x00000000
       60465000	      6045	80005bc8	00000013	addi	x0,x0,0	  x0:0x00000000
       60475000	      6046	80005bcc	0138a0b3	slt	x1,x17,x19	 x17:0xa15e4cb0 x19:0xb5efbcb4  x1=0x00000001
       60485000	      6047	80005bd0	0057fc33	and	x24,x15,x5	 x15:0x0040004e  x5:0x00000000 x24=0x00000000
       60495000	      6048	80005bd4	400d5113	srai	x2,x26,0x0	 x26:0x69da7b2c  x2=0x69da7b2c
       60505000	      6049	80005bd8	00000013	addi	x0,x0,0	  x0:0x00000000
       60515000	      6050	80005bdc	ba83e817	auipc	x16,0xba83e	 x16=0x3a843bd8
       60525000	      6051	80005be0	c5287693	andi	x13,x16,-942	 x16:0x3a843bd8 x13=0x3a843850
       60535000	      6052	80005be4	02fae663	bltu	x21,x15,80005c10	 x21:0x4ac3aa48 x15:0x0040004e
       60545000	      6053	80005be8	0057f663	bgeu	x15,x5,80005bf4	 x15:0x0040004e  x5:0x00000000
       60555000	      6054	00000000	00000013	addi	x0,x0,0	  x0:0x00000000
       60565000	      6055	80005bf0	00000013	addi	x0,x0,0	  x0:0x00000000
       60575000	      6056	80005bf4	03066e63	bltu	x12,x16,80005c30	 x12:0x00000000 x16:0x3a843bd8
       60585000	      6057	00000000	00000013	addi	x0,x0,0	  x0:0x00000000
       60595000	      6058	80005c2c	00000013	addi	x0,x0,0	  x0:0x00000000
       60605000	      6059	80005c30	bb066d13	ori	x26,x12,-1104	 x12:0x00000000 x26=0xfffffbb0
       60615000	      6060	80005c34	0070d4b3	srl	x9,x1,x7	  x1:0x00000001  x7:0x80009fc4  x9=0x00000000
       60625000	      6061	80005c38	e6b9f813	andi	x16,x19,-405	 x19:0xb5efbcb4 x16=0xb5efbc20
       60635000	      6062	80005c3c	00000013	addi	x0,x0,0	  x0:0x00000000
       60645000	      6063	80005c40	0fedaf13	slti	x30,x27,254	 x27:0xffffff2c x30=0x00000001
       60655000	      6064	80005c44	0065dd33	srl	x26,x11,x6	 x11:0x00000001  x6:0x00000000 x26=0x00000001
       60665000	      6065	80005c48	41745593	srai	x11,x8,0x17	  x8:0x80009f14 x11=0xffffff00
       60675000	      6066	80005c4c	87e17013	andi	x0,x2,-1922	  x2:0x69da7b2c
       60685000	      6067	80005c50	01228933	add	x18,x5,x18	  x5:0x00000000 x18:0x25da7000 x18=0x25da7000
       60695000	      6068	80005c54	4092d893	srai	x17,x5,0x9	  x5:0x00000000 x17=0x00000000
       60705000	      6069	80005c58	009055b3	srl	x11,x0,x9	  x0:0x00000000  x9:0x00000000 x11=0x00000000
       60715000	      6070	80005c5c	00aa5663	bge	x20,x10,80005c68	 x20:0xa15e4cb0 x10:0x00000000
       60725000	      6071	80005c60	0130c5b3	xor	x11,x1,x19	  x1:0x00000001 x19:0xb5efbcb4 x11=0xb5efbcb5
       60735000	      6072	80005c64	004e18b3	sll	x17,x28,x4	 x28:0xff000000  x4:0x00000001 x17=0xfe000000
       60745000	      6073	80005c68	0080ee63	bltu	x1,x8,80005c84	  x1:0x00000001  x8:0x80009f14
       60755000	      6074	00000000	00000013	addi	x0,x0,0	  x0:0x00000000
       60765000	      6075	80005c80	00000013	addi	x0,x0,0	  x0:0x00000000
       60775000	      6076	80005c84	01fac933	xor	x18,x21,x31	 x21:0x4ac3aa48 x31:0x00000001 x18=0x4ac3aa49
       60785000	      6077	80005c88	01e5d593	srli	x11,x11,0x1e	 x11:0xb5efbcb5 x11=0x00000002
       60795000	      6078	80005c8c	bcc86e13	ori	x28,x16,-1076	 x16:0xb5efbc20 x28=0xffffffec
       60805000	      6079	80005c90	fd392913	slti	x18,x18,-45	 x18:0x4ac3aa49 x18=0x00000000
       60815000	      6080	80005c94	038e0e63	beq	x28,x24,80005cd0	 x28:0xffffffec x24:0x00000000
       60825000	      6081	80005c98	056d8263	beq	x27,x22,80005cdc	 x27:0xffffff2c x22:0x80009f14
       60835000	      6082	80005c9c	a58eb213	sltiu	x4,x29,-1448	 x29:0x00000001  x4=0x00000001
       60845000	      6083	80005ca0	00656a63	bltu	x10,x6,80005cb4	 x10:0x00000000  x6:0x00000000
       60855000	      6084	80005ca4	01416cb3	or	x25,x2,x20	  x2:0x69da7b2c x20:0xa15e4cb0 x25=0xe9de7fbc
       60865000	      6085	80005ca8	03a66063	bltu	x12,x26,80005cc8	 x12:0x00000000 x26:0x00000001
       60875000	      6086	00000000	00000013	addi	x0,x0,0	  x0:0x00000000
       60885000	      6087	80005cc4	00000013	addi	x0,x0,0	  x0:0x00000000
       60895000	      6088	80005cc8	00000013	addi	x0,x0,0	  x0:0x00000000
       60905000	      6089	80005ccc	00a108b3	add	x17,x2,x10	  x2:0x69da7b2c x10:0x00000000 x17=0x69da7b2c
       60915000	      6090	80005cd0	8cccbe13	sltiu	x28,x25,-1844	 x25:0xe9de7fbc x28=0x00000001
       60925000	      6091	80005cd4	00c291b3	sll	x3,x5,x12	  x5:0x00000000 x12:0x00000000  x3=0x00000000
       60935000	      6092	80005cd8	89d84493	xori	x9,x16,-1891	 x16:0xb5efbc20  x9=0x4a1044bd
       60945000	      6093	80005cdc	0182d893	srli	x17,x5,0x18	  x5:0x00000000 x17=0x00000000
       60955000	      6094	80005ce0	017d7833	and	x16,x26,x23	 x26:0x00000001 x23:0x14b1f000 x16=0x00000000
       60965000	      6095	80005ce4	cf98cd93	xori	x27,x17,-775	 x17:0x00000000 x27=0xfffffcf9
       60975000	      6096	80005ce8	019f0733	add	x14,x30,x25	 x30:0x00000001 x25:0xe9de7fbc x14=0xe9de7fbd
       60985000	      6097	80005cec	41a35593	srai	x11,x6,0x1a	  x6:0x00000000 x11=0x00000000
       60995000	      6098	80005cf0	3cbe4c13	xori	x24,x28,971	 x28:0x00000001 x24=0x000003ca
       61005000	      6099	80005cf4	8ec37f13	andi	x30,x6,-1812	  x6:0x00000000 x30=0x00000000
       61015000	      6100	80005cf8	0178bb13	sltiu	x22,x17,23	 x17:0x00000000 x22=0x00000001
       61025000	      6101	80005cfc	01d44db3	xor	x27,x8,x29	  x8:0x80009f14 x29:0x00000001 x27=0x80009f15
       61035000	      6102	80005d00	01bf1f33	sll	x30,x30,x27	 x30:0x00000000 x27:0x80009f15 x30=0x00000000
       61045000	      6103	80005d04	01469913	slli	x18,x13,0x14	 x13:0x3a843850 x18=0x85000000
       61055000	      6104	80005d08	03ed9a63	bne	x27,x30,80005d3c	 x27:0x80009f15 x30:0x00000000
       61065000	      6105	00000000	00000013	addi	x0,x0,0	  x0:0x00000000
       61075000	      6106	80005d38	00000013	addi	x0,x0,0	  x0:0x00000000
       61085000	      6107	80005d3c	0186bd33	sltu	x26,x13,x24	 x13:0x3a843850 x24:0x000003ca x26=0x00000000
       61095000	      6108	80005d40	00b9a313	slti	x6,x19,11	 x19:0xb5efbcb4  x6=0x00000001
       61105000	      6109	80005d44	03717863	bgeu	x2,x23,80005d74	  x2:0x69da7b2c x23:0x14b1f000
       61115000	      6110	00000000	00000013	addi	x0,x0,0	  x0:0x00000000
       61125000	      6111	80005d70	00000013	addi	x0,x0,0	  x0:0x00000000
       61135000	      6112	80005d74	8b366a93	ori	x21,x12,-1869	 x12:0x00000000 x21=0xfffff8b3
       61145000	      6113	80005d78	411ad233	sra	x4,x21,x17	 x21:0xfffff8b3 x17:0x00000000  x4=0xfffff8b3
       61155000	      6114	80005d7c	012b1013	slli	x0,x22,0x12	 x22:0x00000001
       61165000	      6115	80005d80	00b26c33	or	x24,x4,x11	  x4:0xfffff8b3 x11:0x00000000 x24=0xfffff8b3
       61175000	      6116	80005d84	006d0663	beq	x26,x6,80005d90	 x26:0x00000000  x6:0x00000001
       61185000	      6117	80005d88	00ab6033	or	x0,x22,x10	 x22:0x00000001 x10:0x00000000
       61195000	      6118	80005d8c	fbf64293	xori	x5,x12,-65	 x12:0x00000000  x5=0xffffffbf
       61205000	      6119	80005d90	006f4e63	blt	x30,x6,80005dac	 x30:0x00000000  x6:0x00000001
       61215000	      6120	00000000	00000013	addi	x0,x0,0	  x0:0x00000000
       61225000	      6121	80005da8	00000013	addi	x0,x0,0	  x0:0x00000000
       61235000	      6122	80005dac	0315e063	bltu	x11,x17,80005dcc	 x11:0x00000000 x17:0x00000000
       61245000	      6123	80005db0	40808d33	sub	x26,x1,x8	  x1:0x00000001  x8:0x80009f14 x26=0x7fff60ed
       61255000	      6124	80005db4	8b5a3713	sltiu	x14,x20,-1867	 x20:0xa15e4cb0 x14=0x00000001
       61265000	      6125	80005db8	05216863	bltu	x2,x18,80005e08	  x2:0x69da7b2c x18:0x85000000
       61275000	      6126	00000000	00000013	addi	x0,x0,0	  x0:0x00000000
       61285000	      6127	80005e04	00000013	addi	x0,x0,0	  x0:0x00000000
       61295000	      6128	80005e08	01476863	bltu	x14,x20,80005e18	 x14:0x00000001 x20:0xa15e4cb0
       61305000	      6129	00000000	00000013	addi	x0,x0,0	  x0:0x00000000
       61315000	      6130	80005e14	00000013	addi	x0,x0,0	  x0:0x00000000
       61325000	      6131	80005e18	00215e93	srli	x29,x2,0x2	  x2:0x69da7b2c x29=0x1a769ecb
       61335000	      6132	80005e1c	00000013	addi	x0,x0,0	  x0:0x00000000
       61345000	      6133	80005e20	01fd4663	blt	x26,x31,80005e2c	 x26:0x7fff60ed x31:0x00000001
       61355000	      6134	80005e24	0054d493	srli	x9,x9,0x5	  x9:0x4a1044bd  x9=0x02508225
       61365000	      6135	80005e28	1389f2b7	lui	x5,0x1389f	  x5=0x1389f000
       61375000	      6136	80005e2c	018eee63	bltu	x29,x24,80005e48	 x29:0x1a769ecb x24:0xfffff8b3
       61385000	      6137	00000000	00000013	addi	x0,x0,0	  x0:0x00000000
       61395000	      6138	80005e44	00000013	addi	x0,x0,0	  x0:0x00000000
       61405000	      6139	80005e48	057f1463	bne	x30,x23,80005e90	 x30:0x00000000 x23:0x14b1f000
       61415000	      6140	00000000	00000013	addi	x0,x0,0	  x0:0x00000000
       61425000	      6141	80005e8c	00000013	addi	x0,x0,0	  x0:0x00000000
       61435000	      6142	80005e90	40d505b3	sub	x11,x10,x13	 x10:0x00000000 x13:0x3a843850 x11=0xc57bc7b0
       61445000	      6143	80005e94	01af77b3	and	x15,x30,x26	 x30:0x00000000 x26:0x7fff60ed x15=0x00000000
       61455000	      6144	80005e98	417286b3	sub	x13,x5,x23	  x5:0x1389f000 x23:0x14b1f000 x13=0xfed80000
       61465000	      6145	80005e9c	03b94e63	blt	x18,x27,80005ed8	 x18:0x85000000 x27:0x80009f15
       61475000	      6146	80005ea0	34b64113	xori	x2,x12,843	 x12:0x00000000  x2=0x0000034b
       61485000	      6147	80005ea4	00545013	srli	x0,x8,0x5	  x8:0x80009f14
       61495000	      6148	80005ea8	0097d833	srl	x16,x15,x9	 x15:0x00000000  x9:0x02508225 x16=0x00000000
       61505000	      6149	80005eac	04574263	blt	x14,x5,80005ef0	 x14:0x00000001  x5:0x1389f000
       61515000	      6150	00000000	00000013	addi	x0,x0,0	  x0:0x00000000
       61525000	      6151	80005eec	00000013	addi	x0,x0,0	  x0:0x00000000
       61535000	      6152	80005ef0	40010033	sub	x0,x2,x0	  x2:0x0000034b  x0:0x00000000
       61545000	      6153	80005ef4	010efa63	bgeu	x29,x16,80005f08	 x29:0x1a769ecb x16:0x00000000
       61555000	      6154	00000000	00000013	addi	x0,x0,0	  x0:0x00000000
       61565000	      6155	80005f04	00000013	addi	x0,x0,0	  x0:0x00000000
       61575000	      6156	80005f08	02f2da63	bge	x5,x15,80005f3c	  x5:0x1389f000 x15:0x00000000
       61585000	      6157	00000000	00000013	addi	x0,x0,0	  x0:0x00000000
       61595000	      6158	80005f38	00000013	addi	x0,x0,0	  x0:0x00000000
       61605000	      6159	80005f3c	012c2633	slt	x12,x24,x18	 x24:0xfffff8b3 x18:0x85000000 x12=0x00000000
       61615000	      6160	80005f40	3e513e13	sltiu	x28,x2,997	  x2:0x0000034b x28=0x00000001
       61625000	      6161	80005f44	7cc6f693	andi	x13,x13,1996	 x13:0xfed80000 x13=0x00000000
       61635000	      6162	80005f48	0022fd33	and	x26,x5,x2	  x5:0x1389f000  x2:0x0000034b x26=0x00000000
       61645000	      6163	80005f4c	019019b3	sll	x19,x0,x25	  x0:0x00000000 x25:0xe9de7fbc x19=0x00000000
       61655000	      6164	80005f50	011d4733	xor	x14,x26,x17	 x26:0x00000000 x17:0x00000000 x14=0x00000000
       61665000	      6165	80005f54	00b55033	srl	x0,x10,x11	 x10:0x00000000 x11:0xc57bc7b0
       61675000	      6166	80005f58	01d32cb3	slt	x25,x6,x29	  x6:0x00000001 x29:0x1a769ecb x25=0x00000001
       61685000	      6167	80005f5c	05b45263	bge	x8,x27,80005fa0	  x8:0x80009f14 x27:0x80009f15
       61695000	      6168	80005f60	57560c93	addi	x25,x12,1397	 x12:0x00000000 x25=0x00000575
       61705000	      6169	80005f64	b5740693	addi	x13,x8,-1193	  x8:0x80009f14 x13=0x80009a6b
       61715000	      6170	80005f68	41ded113	srai	x2,x29,0x1d	 x29:0x1a769ecb  x2=0x00000000
       61725000	      6171	80005f6c	d4527793	andi	x15,x4,-699	  x4:0xfffff8b3 x15=0xfffff801
       61735000	      6172	80005f70	05600063	beq	x0,x22,80005fb0	  x0:0x00000000 x22:0x00000001
       61745000	      6173	80005f74	00377e33	and	x28,x14,x3	 x14:0x00000000  x3:0x00000000 x28=0x00000000
       61755000	      6174	80005f78	00bdc333	xor	x6,x27,x11	 x27:0x80009f15 x11:0xc57bc7b0  x6=0x457b58a5
       61765000	      6175	80005f7c	045a1463	bne	x20,x5,80005fc4	 x20:0xa15e4cb0  x5:0x1389f000
       61775000	      6176	00000000	00000013	addi	x0,x0,0	  x0:0x00000000
       61785000	      6177	80005fc0	00000013	addi	x0,x0,0	  x0:0x00000000
       61795000	      6178	80005fc4	01cbdd93	srli	x27,x23,0x1c	 x23:0x14b1f000 x27=0x00000001
       61805000	      6179	80005fc8	4088de13	srai	x28,x17,0x8	 x17:0x00000000 x28=0x00000000
       61815000	      6180	80005fcc	41380333	sub	x6,x16,x19	 x16:0x00000000 x19:0x00000000  x6=0x00000000
       61825000	      6181	80005fd0	01bd4f33	xor	x30,x26,x27	 x26:0x00000000 x27:0x00000001 x30=0x00000001
       61835000	      6182	80005fd4	05668263	beq	x13,x22,80006018	 x13:0x80009a6b x22:0x00000001
       61845000	      6183	80005fd8	832bc013	xori	x0,x23,-1998	 x23:0x14b1f000
       61855000	      6184	80005fdc	00d201b3	add	x3,x4,x13	  x4:0xfffff8b3 x13:0x80009a6b  x3=0x8000931e
       61865000	      6185	80005fe0	71c54893	xori	x17,x10,1820	 x10:0x00000000 x17=0x0000071c
       61875000	      6186	80005fe4	0040e733	or	x14,x1,x4	  x1:0x00000001  x4:0xfffff8b3 x14=0xfffff8b3
       61885000	      6187	80005fe8	b4952893	slti	x17,x10,-1207	 x10:0x00000000 x17=0x00000000
       61895000	      6188	80005fec	02674a63	blt	x14,x6,80006020	 x14:0xfffff8b3  x6:0x00000000
       61905000	      6189	00000000	00000013	addi	x0,x0,0	  x0:0x00000000
       61915000	      6190	8000601c	00000013	addi	x0,x0,0	  x0:0x00000000
       61925000	      6191	80006020	032c4e63	blt	x24,x18,8000605c	 x24:0xfffff8b3 x18:0x85000000
       61935000	      6192	80006024	41965c33	sra	x24,x12,x25	 x12:0x00000000 x25:0x00000575 x24=0x00000000
       61945000	      6193	80006028	7cade697	auipc	x13,0x7cade	 x13=0xfcae4024
       61955000	      6194	8000602c	bef2feb7	lui	x29,0xbef2f	 x29=0xbef2f000
       61965000	      6195	80006030	016a4033	xor	x0,x20,x22	 x20:0xa15e4cb0 x22:0x00000001
       61975000	      6196	80006034	41bd8133	sub	x2,x27,x27	 x27:0x00000001 x27:0x00000001  x2=0x00000000
       61985000	      6197	80006038	9824f293	andi	x5,x9,-1662	  x9:0x02508225  x5=0x02508000
       61995000	      6198	8000603c	1a596c13	ori	x24,x18,421	 x18:0x85000000 x24=0x850001a5
       62005000	      6199	80006040	00000013	addi	x0,x0,0	  x0:0x00000000
       62015000	      6200	80006044	41e6d333	sra	x6,x13,x30	 x13:0xfcae4024 x30:0x00000001  x6=0xfe572012
       62025000	      6201	80006048	877ec897	auipc	x17,0x877ec	 x17=0x077f2044
       62035000	      6202	8000604c	015dceb3	xor	x29,x27,x21	 x27:0x00000001 x21:0xfffff8b3 x29=0xfffff8b2
       62045000	      6203	80006050	a6882093	slti	x1,x16,-1432	 x16:0x00000000  x1=0x00000000
       62055000	      6204	80006054	00d03833	sltu	x16,x0,x13	  x0:0x00000000 x13:0xfcae4024 x16=0x00000001
       62065000	      6205	80006058	01028033	add	x0,x5,x16	  x5:0x02508000 x16:0x00000001
       62075000	      6206	8000605c	9b6d8f97	auipc	x31,0x9b6d8	 x31=0x1b6de058
       62085000	      6207	80006060	00000013	addi	x0,x0,0	  x0:0x00000000
       62095000	      6208	80006064	84f6b793	sltiu	x15,x13,-1969	 x13:0xfcae4024 x15=0x00000001
       62105000	      6209	80006068	001dffb3	and	x31,x27,x1	 x27:0x00000001  x1:0x00000000 x31=0x00000000
       62115000	      6210	8000606c	02136063	bltu	x6,x1,8000608c	  x6:0xfe572012  x1:0x00000000
       62125000	      6211	80006070	a2a9e093	ori	x1,x19,-1494	 x19:0x00000000  x1=0xfffffa2a
       62135000	      6212	80006074	03ef4663	blt	x30,x30,800060a0	 x30:0x00000001 x30:0x00000001
       62145000	      6213	80006078	41b00db3	sub	x27,x0,x27	  x0:0x00000000 x27:0x00000001 x27=0xffffffff
       62155000	      6214	8000607c	6bf18f93	addi	x31,x3,1727	  x3:0x8000931e x31=0x800099dd
       62165000	      6215	80006080	61f0de37	lui	x28,0x61f0d	 x28=0x61f0d000
       62175000	      6216	80006084	00e5da93	srli	x21,x11,0xe	 x11:0xc57bc7b0 x21=0x000315ef
       62185000	      6217	80006088	41125cb3	sra	x25,x4,x17	  x4:0xfffff8b3 x17:0x077f2044 x25=0xffffff8b
       62195000	      6218	8000608c	012b1533	sll	x10,x22,x18	 x22:0x00000001 x18:0x85000000 x10=0x00000001
       62205000	      6219	80006090	40eb5b33	sra	x22,x22,x14	 x22:0x00000001 x14:0xfffff8b3 x22=0x00000000
       62215000	      6220	80006094	05429263	bne	x5,x20,800060d8	  x5:0x02508000 x20:0xa15e4cb0
       62225000	      6221	00000000	00000013	addi	x0,x0,0	  x0:0x00000000
       62235000	      6222	800060d4	00000013	addi	x0,x0,0	  x0:0x00000000
       62245000	      6223	800060d8	01117d33	and	x26,x2,x17	  x2:0x00000000 x17:0x077f2044 x26=0x00000000
       62255000	      6224	800060dc	22f26913	ori	x18,x4,559	  x4:0xfffff8b3 x18=0xfffffabf
       62265000	      6225	800060e0	00d86db3	or	x27,x16,x13	 x16:0x00000001 x13:0xfcae4024 x27=0xfcae4025
       62275000	      6226	800060e4	00689b13	slli	x22,x17,0x6	 x17:0x077f2044 x22=0xdfc81100
       62285000	      6227	800060e8	013b7933	and	x18,x22,x19	 x22:0xdfc81100 x19:0x00000000 x18=0x00000000
       62295000	      6228	800060ec	01a8d813	srli	x16,x17,0x1a	 x17:0x077f2044 x16=0x00000001
       62305000	      6229	800060f0	7318e713	ori	x14,x17,1841	 x17:0x077f2044 x14=0x077f2775
       62315000	      6230	800060f4	010ebbb3	sltu	x23,x29,x16	 x29:0xfffff8b2 x16:0x00000001 x23=0x00000000
       62325000	      6231	800060f8	89e37193	andi	x3,x6,-1890	  x6:0xfe572012  x3=0xfe572012
       62335000	      6232	800060fc	01426b33	or	x22,x4,x20	  x4:0xfffff8b3 x20:0xa15e4cb0 x22=0xfffffcb3
       62345000	      6233	80006100	04f8f263	bgeu	x17,x15,80006144	 x17:0x077f2044 x15:0x00000001
       62355000	      6234	00000000	00000013	addi	x0,x0,0	  x0:0x00000000
       62365000	      6235	80006140	00000013	addi	x0,x0,0	  x0:0x00000000
       62375000	      6236	80006144	018b9493	slli	x9,x23,0x18	 x23:0x00000000  x9=0x00000000
       62385000	      6237	80006148	00c17bb3	and	x23,x2,x12	  x2:0x00000000 x12:0x00000000 x23=0x00000000
       62395000	      6238	8000614c	03824e63	blt	x4,x24,80006188	  x4:0xfffff8b3 x24:0x850001a5
       62405000	      6239	80006150	52f03e13	sltiu	x28,x0,1327	  x0:0x00000000 x28=0x00000001
       62415000	      6240	80006154	00197cb3	and	x25,x18,x1	 x18:0x00000000  x1:0xfffffa2a x25=0x00000000
       62425000	      6241	80006158	007ddab3	srl	x21,x27,x7	 x27:0xfcae4025  x7:0x80009fc4 x21=0x0fcae402
       62435000	      6242	8000615c	2e12ce93	xori	x29,x5,737	  x5:0x02508000 x29=0x025082e1
       62445000	      6243	80006160	ba4d6d93	ori	x27,x26,-1116	 x26:0x00000000 x27=0xfffffba4
       62455000	      6244	80006164	008048b3	xor	x17,x0,x8	  x0:0x00000000  x8:0x80009f14 x17=0x80009f14
       62465000	      6245	80006168	034e1863	bne	x28,x20,80006198	 x28:0x00000001 x20:0xa15e4cb0
       62475000	      6246	00000000	00000013	addi	x0,x0,0	  x0:0x00000000
       62485000	      6247	80006194	00000013	addi	x0,x0,0	  x0:0x00000000
       62495000	      6248	80006198	02891663	bne	x18,x8,800061c4	 x18:0x00000000  x8:0x80009f14
       62505000	      6249	00000000	00000013	addi	x0,x0,0	  x0:0x00000000
       62515000	      6250	800061c0	00000013	addi	x0,x0,0	  x0:0x00000000
       62525000	      6251	800061c4	014f4663	blt	x30,x20,800061d0	 x30:0x00000001 x20:0xa15e4cb0
       62535000	      6252	800061c8	db202893	slti	x17,x0,-590	  x0:0x00000000 x17=0x00000000
       62545000	      6253	800061cc	017e7ab3	and	x21,x28,x23	 x28:0x00000001 x23:0x00000000 x21=0x00000000
       62555000	      6254	800061d0	01924cb3	xor	x25,x4,x25	  x4:0xfffff8b3 x25:0x00000000 x25=0xfffff8b3
       62565000	      6255	800061d4	29368993	addi	x19,x13,659	 x13:0xfcae4024 x19=0xfcae42b7
       62575000	      6256	800061d8	32003893	sltiu	x17,x0,800	  x0:0x00000000 x17=0x00000001
       62585000	      6257	800061dc	40445f93	srai	x31,x8,0x4	  x8:0x80009f14 x31=0xf80009f1
       62595000	      6258	800061e0	01d99493	slli	x9,x19,0x1d	 x19:0xfcae42b7  x9=0xe0000000
       62605000	      6259	800061e4	bf436c93	ori	x25,x6,-1036	  x6:0xfe572012 x25=0xfffffbf6
       62615000	      6260	800061e8	008bd633	srl	x12,x23,x8	 x23:0x00000000  x8:0x80009f14 x12=0x00000000
       62625000	      6261	800061ec	00000013	addi	x0,x0,0	  x0:0x00000000
       62635000	      6262	800061f0	10adbb93	sltiu	x23,x27,266	 x27:0xfffffba4 x23=0x00000000
       62645000	      6263	800061f4	0f559263	bne	x11,x21,800062d8	 x11:0xc57bc7b0 x21:0x00000000
       62655000	      6264	00000000	00000013	addi	x0,x0,0	  x0:0x00000000
       62665000	      6265	800062d4	00000013	addi	x0,x0,0	  x0:0x00000000
       62675000	      6266	800062d8	00000013	addi	x0,x0,0	  x0:0x00000000
       62685000	      6267	800062dc	00000013	addi	x0,x0,0	  x0:0x00000000
       62695000	      6268	800062e0	5b1e3717	auipc	x14,0x5b1e3	 x14=0xdb1e92dc
       62705000	      6269	800062e4	b21c4a97	auipc	x21,0xb21c4	 x21=0x321ca2e0
       62715000	      6270	800062e8	409655b3	sra	x11,x12,x9	 x12:0x00000000  x9:0xe0000000 x11=0x00000000
       62725000	      6271	800062ec	034d8e63	beq	x27,x20,80006328	 x27:0xfffffba4 x20:0xa15e4cb0
       62735000	      6272	800062f0	002b0933	add	x18,x22,x2	 x22:0xfffffcb3  x2:0x00000000 x18=0xfffffcb3
       62745000	      6273	800062f4	00ea5463	bge	x20,x14,800062fc	 x20:0xa15e4cb0 x14:0xdb1e92dc
       62755000	      6274	800062f8	018739b3	sltu	x19,x14,x24	 x14:0xdb1e92dc x24:0x850001a5 x19=0x00000000
       62765000	      6275	800062fc	415b0fb3	sub	x31,x22,x21	 x22:0xfffffcb3 x21:0x321ca2e0 x31=0xcde359d3
       62775000	      6276	80006300	018ad193	srli	x3,x21,0x18	 x21:0x321ca2e0  x3=0x00000032
       62785000	      6277	80006304	0003db13	srli	x22,x7,0x0	  x7:0x80009fc4 x22=0x80009fc4
       62795000	      6278	80006308	015efa63	bgeu	x29,x21,8000631c	 x29:0x025082e1 x21:0x321ca2e0
       62805000	      6279	8000630c	10a1de63	bge	x3,x10,80006428	  x3:0x00000032 x10:0x00000001
       62815000	      6280	00000000	00000013	addi	x0,x0,0	  x0:0x00000000
       62825000	      6281	80006424	00000013	addi	x0,x0,0	  x0:0x00000000
       62835000	      6282	80006428	01ee0133	add	x2,x28,x30	 x28:0x00000001 x30:0x00000001  x2=0x00000002
       62845000	      6283	8000642c	00bd2933	slt	x18,x26,x11	 x26:0x00000000 x11:0x00000000 x18=0x00000000
       62855000	      6284	80006430	008702b3	add	x5,x14,x8	 x14:0xdb1e92dc  x8:0x80009f14  x5=0x5b1f31f0
       62865000	      6285	80006434	44e2c5b7	lui	x11,0x44e2c	 x11=0x44e2c000
       62875000	      6286	80006438	3d567f13	andi	x30,x12,981	 x12:0x00000000 x30=0x00000000
       62885000	      6287	8000643c	01d53733	sltu	x14,x10,x29	 x10:0x00000001 x29:0x025082e1 x14=0x00000001
       62895000	      6288	80006440	0355cc63	blt	x11,x21,80006478	 x11:0x44e2c000 x21:0x321ca2e0
       62905000	      6289	80006444	40205513	srai	x10,x0,0x2	  x0:0x00000000 x10=0x00000000
       62915000	      6290	80006448	04531263	bne	x6,x5,8000648c	  x6:0xfe572012  x5:0x5b1f31f0
       62925000	      6291	00000000	00000013	addi	x0,x0,0	  x0:0x00000000
       62935000	      6292	80006488	00000013	addi	x0,x0,0	  x0:0x00000000
       62945000	      6293	8000648c	01ce32b3	sltu	x5,x28,x28	 x28:0x00000001 x28:0x00000001  x5=0x00000000
       62955000	      6294	80006490	05a90463	beq	x18,x26,800064d8	 x18:0x00000000 x26:0x00000000
       62965000	      6295	00000000	00000013	addi	x0,x0,0	  x0:0x00000000
       62975000	      6296	800064d4	00000013	addi	x0,x0,0	  x0:0x00000000
       62985000	      6297	800064d8	00b34e63	blt	x6,x11,800064f4	  x6:0xfe572012 x11:0x44e2c000
       62995000	      6298	00000000	00000013	addi	x0,x0,0	  x0:0x00000000
       63005000	      6299	800064f0	00000013	addi	x0,x0,0	  x0:0x00000000
       63015000	      6300	800064f4	00aa1ab3	sll	x21,x20,x10	 x20:0xa15e4cb0 x10:0x00000000 x21=0xa15e4cb0
       63025000	      6301	800064f8	038a9063	bne	x21,x24,80006518	 x21:0xa15e4cb0 x24:0x850001a5
       63035000	      6302	00000000	00000013	addi	x0,x0,0	  x0:0x00000000
       63045000	      6303	80006514	00000013	addi	x0,x0,0	  x0:0x00000000
       63055000	      6304	80006518	04829063	bne	x5,x8,80006558	  x5:0x00000000  x8:0x80009f14
       63065000	      6305	00000000	00000013	addi	x0,x0,0	  x0:0x00000000
       63075000	      6306	80006554	00000013	addi	x0,x0,0	  x0:0x00000000
       63085000	      6307	80006558	001c9463	bne	x25,x1,80006560	 x25:0xfffffbf6  x1:0xfffffa2a
       63095000	      6308	00000000	00000013	addi	x0,x0,0	  x0:0x00000000
       63105000	      6309	8000655c	00000013	addi	x0,x0,0	  x0:0x00000000
       63115000	      6310	80006560	01f25c13	srli	x24,x4,0x1f	  x4:0xfffff8b3 x24=0x00000001
       63125000	      6311	80006564	01d56ab3	or	x21,x10,x29	 x10:0x00000000 x29:0x025082e1 x21=0x025082e1
       63135000	      6312	80006568	005c9ab3	sll	x21,x25,x5	 x25:0xfffffbf6  x5:0x00000000 x21=0xfffffbf6
       63145000	      6313	8000656c	02128663	beq	x5,x1,80006598	  x5:0x00000000  x1:0xfffffa2a
       63155000	      6314	80006570	990d0013	addi	x0,x26,-1648	 x26:0x00000000
       63165000	      6315	80006574	00000013	addi	x0,x0,0	  x0:0x00000000
       63175000	      6316	80006578	0dcb7e63	bgeu	x22,x28,80006654	 x22:0x80009fc4 x28:0x00000001
       63185000	      6317	00000000	00000013	addi	x0,x0,0	  x0:0x00000000
       63195000	      6318	80006650	00000013	addi	x0,x0,0	  x0:0x00000000
       63205000	      6319	80006654	3d98cf93	xori	x31,x17,985	 x17:0x00000001 x31=0x000003d8
       63215000	      6320	80006658	c1ac6017	auipc	x0,0xc1ac6	
       63225000	      6321	8000665c	03866e63	bltu	x12,x24,80006698	 x12:0x00000000 x24:0x00000001
       63235000	      6322	00000000	00000013	addi	x0,x0,0	  x0:0x00000000
       63245000	      6323	80006694	00000013	addi	x0,x0,0	  x0:0x00000000
       63255000	      6324	80006698	a38fa693	slti	x13,x31,-1480	 x31:0x000003d8 x13=0x00000000
       63265000	      6325	8000669c	9edcb6b7	lui	x13,0x9edcb	 x13=0x9edcb000
       63275000	      6326	800066a0	00261233	sll	x4,x12,x2	 x12:0x00000000  x2:0x00000002  x4=0x00000000
       63285000	      6327	800066a4	d5f13717	auipc	x14,0xd5f13	 x14=0x55f196a0
       63295000	      6328	800066a8	865caa93	slti	x21,x25,-1947	 x25:0xfffffbf6 x21=0x00000000
       63305000	      6329	800066ac	00f94033	xor	x0,x18,x15	 x18:0x00000000 x15:0x00000001
       63315000	      6330	800066b0	0164ccb3	xor	x25,x9,x22	  x9:0xe0000000 x22:0x80009fc4 x25=0x60009fc4
       63325000	      6331	800066b4	0068ebb3	or	x23,x17,x6	 x17:0x00000001  x6:0xfe572012 x23=0xfe572013
       63335000	      6332	800066b8	a694bd13	sltiu	x26,x9,-1431	  x9:0xe0000000 x26=0x00000001
       63345000	      6333	800066bc	04d64263	blt	x12,x13,80006700	 x12:0x00000000 x13:0x9edcb000
       63355000	      6334	800066c0	bd86e493	ori	x9,x13,-1064	 x13:0x9edcb000  x9=0xfffffbd8
       63365000	      6335	800066c4	00b354b3	srl	x9,x6,x11	  x6:0xfe572012 x11:0x44e2c000  x9=0xfe572012
       63375000	      6336	800066c8	01b29293	slli	x5,x5,0x1b	  x5:0x00000000  x5=0x00000000
       63385000	      6337	800066cc	01d1d213	srli	x4,x3,0x1d	  x3:0x00000032  x4=0x00000000
       63395000	      6338	800066d0	00ae2eb3	slt	x29,x28,x10	 x28:0x00000001 x10:0x00000000 x29=0x00000000
       63405000	      6339	800066d4	00000013	addi	x0,x0,0	  x0:0x00000000
       63415000	      6340	800066d8	01642f33	slt	x30,x8,x22	  x8:0x80009f14 x22:0x80009fc4 x30=0x00000001
       63425000	      6341	800066dc	40fa7993	andi	x19,x20,1039	 x20:0xa15e4cb0 x19=0x00000400
       63435000	      6342	800066e0	40e15333	sra	x6,x2,x14	  x2:0x00000002 x14:0x55f196a0  x6=0x00000002
       63445000	      6343	800066e4	1241e663	bltu	x3,x4,80006810	  x3:0x00000032  x4:0x00000000
       63455000	      6344	800066e8	00d8c2b3	xor	x5,x17,x13	 x17:0x00000001 x13:0x9edcb000  x5=0x9edcb001
       63465000	      6345	800066ec	75ef7d17	auipc	x26,0x75ef7	 x26=0xf5efd6e8
       63475000	      6346	800066f0	01f12e33	slt	x28,x2,x31	  x2:0x00000002 x31:0x000003d8 x28=0x00000001
       63485000	      6347	800066f4	4977f713	andi	x14,x15,1175	 x15:0x00000001 x14=0x00000001
       63495000	      6348	800066f8	004487b3	add	x15,x9,x4	  x9:0xfe572012  x4:0x00000000 x15=0xfe572012
       63505000	      6349	800066fc	0e2bc863	blt	x23,x2,800067ec	 x23:0xfe572013  x2:0x00000002
       63515000	      6350	00000000	00000013	addi	x0,x0,0	  x0:0x00000000
       63525000	      6351	800067e8	00000013	addi	x0,x0,0	  x0:0x00000000
       63535000	      6352	800067ec	04cd0863	beq	x26,x12,8000683c	 x26:0xf5efd6e8 x12:0x00000000
       63545000	      6353	800067f0	17e63f13	sltiu	x30,x12,382	 x12:0x00000000 x30=0x00000001
       63555000	      6354	800067f4	00000013	addi	x0,x0,0	  x0:0x00000000
       63565000	      6355	800067f8	00951663	bne	x10,x9,80006804	 x10:0x00000000  x9:0xfe572012
       63575000	      6356	00000000	00000013	addi	x0,x0,0	  x0:0x00000000
       63585000	      6357	80006800	00000013	addi	x0,x0,0	  x0:0x00000000
       63595000	      6358	80006804	035f4c37	lui	x24,0x35f4	 x24=0x035f4000
       63605000	      6359	80006808	f2678e93	addi	x29,x15,-218	 x15:0xfe572012 x29=0xfe571f38
       63615000	      6360	8000680c	003fad33	slt	x26,x31,x3	 x31:0x000003d8  x3:0x00000032 x26=0x00000000
       63625000	      6361	80006810	00c79713	slli	x14,x15,0xc	 x15:0xfe572012 x14=0x72012000
       63635000	      6362	80006814	b1a4cf37	lui	x30,0xb1a4c	 x30=0xb1a4c000
       63645000	      6363	80006818	00b7ce63	blt	x15,x11,80006834	 x15:0xfe572012 x11:0x44e2c000
       63655000	      6364	00000000	00000013	addi	x0,x0,0	  x0:0x00000000
       63665000	      6365	80006830	00000013	addi	x0,x0,0	  x0:0x00000000
       63675000	      6366	80006834	349e4f93	xori	x31,x28,841	 x28:0x00000001 x31=0x00000348
       63685000	      6367	80006838	005f1293	slli	x5,x30,0x5	 x30:0xb1a4c000  x5=0x34980000
       63695000	      6368	8000683c	00a54663	blt	x10,x10,80006848	 x10:0x00000000 x10:0x00000000
       63705000	      6369	80006840	00779293	slli	x5,x15,0x7	 x15:0xfe572012  x5=0x2b900900
       63715000	      6370	80006844	0585e463	bltu	x11,x24,8000688c	 x11:0x44e2c000 x24:0x035f4000
       63725000	      6371	80006848	00e05c13	srli	x24,x0,0xe	  x0:0x00000000 x24=0x00000000
       63735000	      6372	8000684c	00697ab3	and	x21,x18,x6	 x18:0x00000000  x6:0x00000002 x21=0x00000000
       63745000	      6373	80006850	002e5b93	srli	x23,x28,0x2	 x28:0x00000001 x23=0x00000000
       63755000	      6374	80006854	00b7e1b3	or	x3,x15,x11	 x15:0xfe572012 x11:0x44e2c000  x3=0xfef7e012
       63765000	      6375	80006858	00159ab3	sll	x21,x11,x1	 x11:0x44e2c000  x1:0xfffffa2a x21=0x8b000000
       63775000	      6376	8000685c	a9936d37	lui	x26,0xa9936	 x26=0xa9936000
       63785000	      6377	80006860	9ed111b7	lui	x3,0x9ed11	  x3=0x9ed11000
       63795000	      6378	80006864	b8d04f13	xori	x30,x0,-1139	  x0:0x00000000 x30=0xfffffb8d
       63805000	      6379	80006868	bda5f017	auipc	x0,0xbda5f	
       63815000	      6380	8000686c	b6751237	lui	x4,0xb6751	  x4=0xb6751000
       63825000	      6381	80006870	004686b3	add	x13,x13,x4	 x13:0x9edcb000  x4:0xb6751000 x13=0x5551c000
       63835000	      6382	80006874	9ce20613	addi	x12,x4,-1586	  x4:0xb6751000 x12=0xb67509ce
       63845000	      6383	80006878	410dd313	srai	x6,x27,0x10	 x27:0xfffffba4  x6=0xffffffff
       63855000	      6384	8000687c	00000013	addi	x0,x0,0	  x0:0x00000000
       63865000	      6385	80006880	00db7bb3	and	x23,x22,x13	 x22:0x80009fc4 x13:0x5551c000 x23=0x00008000
       63875000	      6386	80006884	019ce0b3	or	x1,x25,x25	 x25:0x60009fc4 x25:0x60009fc4  x1=0x60009fc4
       63885000	      6387	80006888	ef808993	addi	x19,x1,-264	  x1:0x60009fc4 x19=0x60009ebc
       63895000	      6388	8000688c	84b7b297	auipc	x5,0x84b7b	  x5=0x04b81888
       63905000	      6389	80006890	035dee63	bltu	x27,x21,800068cc	 x27:0xfffffba4 x21:0x8b000000
       63915000	      6390	80006894	ab783d93	sltiu	x27,x16,-1353	 x16:0x00000001 x27=0x00000001
       63925000	      6391	80006898	02255063	bge	x10,x2,800068b8	 x10:0x00000000  x2:0x00000002
       63935000	      6392	8000689c	9cb9a793	slti	x15,x19,-1589	 x19:0x60009ebc x15=0x00000000
       63945000	      6393	800068a0	006d78b3	and	x17,x26,x6	 x26:0xa9936000  x6:0xffffffff x17=0xa9936000
       63955000	      6394	800068a4	41cc01b3	sub	x3,x24,x28	 x24:0x00000000 x28:0x00000001  x3=0xffffffff
       63965000	      6395	800068a8	400e5713	srai	x14,x28,0x0	 x28:0x00000001 x14=0x00000001
       63975000	      6396	800068ac	006e1933	sll	x18,x28,x6	 x28:0x00000001  x6:0xffffffff x18=0x80000000
       63985000	      6397	800068b0	00000013	addi	x0,x0,0	  x0:0x00000000
       63995000	      6398	800068b4	01f1d933	srl	x18,x3,x31	  x3:0xffffffff x31:0x00000348 x18=0x00ffffff
       64005000	      6399	800068b8	ca643c13	sltiu	x24,x8,-858	  x8:0x80009f14 x24=0x00000001
       64015000	      6400	800068bc	00e59913	slli	x18,x11,0xe	 x11:0x44e2c000 x18=0xb0000000
       64025000	      6401	800068c0	41ac8bb3	sub	x23,x25,x26	 x25:0x60009fc4 x26:0xa9936000 x23=0xb66d3fc4
       64035000	      6402	800068c4	d316c213	xori	x4,x13,-719	 x13:0x5551c000  x4=0xaaae3d31
       64045000	      6403	800068c8	82147193	andi	x3,x8,-2015	  x8:0x80009f14  x3=0x80009800
       64055000	      6404	800068cc	00d3f6b3	and	x13,x7,x13	  x7:0x80009fc4 x13:0x5551c000 x13=0x00008000
       64065000	      6405	800068d0	00b2fa63	bgeu	x5,x11,800068e4	  x5:0x04b81888 x11:0x44e2c000
       64075000	      6406	800068d4	003a21b3	slt	x3,x20,x3	 x20:0xa15e4cb0  x3:0x80009800  x3=0x00000000
       64085000	      6407	800068d8	05afe463	bltu	x31,x26,80006920	 x31:0x00000348 x26:0xa9936000
       64095000	      6408	00000000	00000013	addi	x0,x0,0	  x0:0x00000000
       64105000	      6409	8000691c	00000013	addi	x0,x0,0	  x0:0x00000000
       64115000	      6410	80006920	02e15a63	bge	x2,x14,80006954	  x2:0x00000002 x14:0x00000001
       64125000	      6411	00000000	00000013	addi	x0,x0,0	  x0:0x00000000
       64135000	      6412	80006950	00000013	addi	x0,x0,0	  x0:0x00000000
       64145000	      6413	80006954	d8a29337	lui	x6,0xd8a29	  x6=0xd8a29000
       64155000	      6414	80006958	02865e63	bge	x12,x8,80006994	 x12:0xb67509ce  x8:0x80009f14
       64165000	      6415	00000000	00000013	addi	x0,x0,0	  x0:0x00000000
       64175000	      6416	80006990	00000013	addi	x0,x0,0	  x0:0x00000000
       64185000	      6417	80006994	01195f13	srli	x30,x18,0x11	 x18:0xb0000000 x30=0x00005800
       64195000	      6418	80006998	41b65533	sra	x10,x12,x27	 x12:0xb67509ce x27:0x00000001 x10=0xdb3a84e7
       64205000	      6419	8000699c	00d1a8b3	slt	x17,x3,x13	  x3:0x00000000 x13:0x00008000 x17=0x00000001
       64215000	      6420	800069a0	010692b3	sll	x5,x13,x16	 x13:0x00008000 x16:0x00000001  x5=0x00010000
       64225000	      6421	800069a4	88f03b13	sltiu	x22,x0,-1905	  x0:0x00000000 x22=0x00000001
       64235000	      6422	800069a8	411fd333	sra	x6,x31,x17	 x31:0x00000348 x17:0x00000001  x6=0x000001a4
       64245000	      6423	800069ac	d4192b13	slti	x22,x18,-703	 x18:0xb0000000 x22=0x00000001
       64255000	      6424	800069b0	02a1c063	blt	x3,x10,800069d0	  x3:0x00000000 x10:0xdb3a84e7
       64265000	      6425	800069b4	01b00333	add	x6,x0,x27	  x0:0x00000000 x27:0x00000001  x6=0x00000001
       64275000	      6426	800069b8	18e1cf93	xori	x31,x3,398	  x3:0x00000000 x31=0x0000018e
       64285000	      6427	800069bc	05c64263	blt	x12,x28,80006a00	 x12:0xb67509ce x28:0x00000001
       64295000	      6428	00000000	00000013	addi	x0,x0,0	  x0:0x00000000
       64305000	      6429	800069fc	00000013	addi	x0,x0,0	  x0:0x00000000
       64315000	      6430	80006a00	40e10fb3	sub	x31,x2,x14	  x2:0x00000002 x14:0x00000001 x31=0x00000001
       64325000	      6431	80006a04	b05b7b13	andi	x22,x22,-1275	 x22:0x00000001 x22=0x00000001
       64335000	      6432	80006a08	40180733	sub	x14,x16,x1	 x16:0x00000001  x1:0x60009fc4 x14=0x9fff603d
       64345000	      6433	80006a0c	0131e333	or	x6,x3,x19	  x3:0x00000000 x19:0x60009ebc  x6=0x60009ebc
       64355000	      6434	80006a10	00000013	addi	x0,x0,0	  x0:0x00000000
       64365000	      6435	80006a14	00000013	addi	x0,x0,0	  x0:0x00000000
       64375000	      6436	80006a18	79dfff93	andi	x31,x31,1949	 x31:0x00000001 x31=0x00000001
       64385000	      6437	80006a1c	003a8663	beq	x21,x3,80006a28	 x21:0x8b000000  x3:0x00000000
       64395000	      6438	80006a20	01a29233	sll	x4,x5,x26	  x5:0x00010000 x26:0xa9936000  x4=0x00010000
       64405000	      6439	80006a24	0155a033	slt	x0,x11,x21	 x11:0x44e2c000 x21:0x8b000000
       64415000	      6440	80006a28	b6ee4e37	lui	x28,0xb6ee4	 x28=0xb6ee4000
       64425000	      6441	80006a2c	fa681f17	auipc	x30,0xfa681	 x30=0x7a687a28
       64435000	      6442	80006a30	01acd933	srl	x18,x25,x26	 x25:0x60009fc4 x26:0xa9936000 x18=0x60009fc4
       64445000	      6443	80006a34	ac5b6f37	lui	x30,0xac5b6	 x30=0xac5b6000
       64455000	      6444	80006a38	aad23e13	sltiu	x28,x4,-1363	  x4:0x00010000 x28=0x00000001
       64465000	      6445	80006a3c	41d3d593	srai	x11,x7,0x1d	  x7:0x80009fc4 x11=0xfffffffc
       64475000	      6446	80006a40	0001f633	and	x12,x3,x0	  x3:0x00000000  x0:0x00000000 x12=0x00000000
       64485000	      6447	80006a44	2f134eb7	lui	x29,0x2f134	 x29=0x2f134000
       64495000	      6448	80006a48	011dd293	srli	x5,x27,0x11	 x27:0x00000001  x5=0x00000000
       64505000	      6449	80006a4c	41585e13	srai	x28,x16,0x15	 x16:0x00000001 x28=0x00000000
       64515000	      6450	80006a50	00d3d4b3	srl	x9,x7,x13	  x7:0x80009fc4 x13:0x00008000  x9=0x80009fc4
       64525000	      6451	80006a54	01ac32b3	sltu	x5,x24,x26	 x24:0x00000001 x26:0xa9936000  x5=0x00000001
       64535000	      6452	80006a58	0086f833	and	x16,x13,x8	 x13:0x00008000  x8:0x80009f14 x16=0x00008000
       64545000	      6453	80006a5c	010ffe63	bgeu	x31,x16,80006a78	 x31:0x00000001 x16:0x00008000
       64555000	      6454	80006a60	04e19463	bne	x3,x14,80006aa8	  x3:0x00000000 x14:0x9fff603d
       64565000	      6455	00000000	00000013	addi	x0,x0,0	  x0:0x00000000
       64575000	      6456	80006aa4	00000013	addi	x0,x0,0	  x0:0x00000000
       64585000	      6457	80006aa8	010ea533	slt	x10,x29,x16	 x29:0x2f134000 x16:0x00008000 x10=0x00000000
       64595000	      6458	80006aac	00a3f733	and	x14,x7,x10	  x7:0x80009fc4 x10:0x00000000 x14=0x00000000
       64605000	      6459	80006ab0	768dc493	xori	x9,x27,1896	 x27:0x00000001  x9=0x00000769
       64615000	      6460	80006ab4	02010663	beq	x2,x0,80006ae0	  x2:0x00000002  x0:0x00000000
       64625000	      6461	80006ab8	012ef633	and	x12,x29,x18	 x29:0x2f134000 x18:0x60009fc4 x12=0x20000000
       64635000	      6462	80006abc	01cf9c33	sll	x24,x31,x28	 x31:0x00000001 x28:0x00000000 x24=0x00000001
       64645000	      6463	80006ac0	00849533	sll	x10,x9,x8	  x9:0x00000769  x8:0x80009f14 x10=0x76900000
       64655000	      6464	80006ac4	4152d013	srai	x0,x5,0x15	  x5:0x00000001
       64665000	      6465	80006ac8	05844263	blt	x8,x24,80006b0c	  x8:0x80009f14 x24:0x00000001
       64675000	      6466	00000000	00000013	addi	x0,x0,0	  x0:0x00000000
       64685000	      6467	80006b08	00000013	addi	x0,x0,0	  x0:0x00000000
       64695000	      6468	80006b0c	00895213	srli	x4,x18,0x8	 x18:0x60009fc4  x4=0x0060009f
       64705000	      6469	80006b10	0117de93	srli	x29,x15,0x11	 x15:0x00000000 x29=0x00000000
       64715000	      6470	80006b14	2aecfb13	andi	x22,x25,686	 x25:0x60009fc4 x22=0x00000284
       64725000	      6471	80006b18	03f98663	beq	x19,x31,80006b44	 x19:0x60009ebc x31:0x00000001
       64735000	      6472	80006b1c	4112de93	srai	x29,x5,0x11	  x5:0x00000001 x29=0x00000000
       64745000	      6473	80006b20	a809b9b7	lui	x19,0xa809b	 x19=0xa809b000
       64755000	      6474	80006b24	008cce33	xor	x28,x25,x8	 x25:0x60009fc4  x8:0x80009f14 x28=0xe00000d0
       64765000	      6475	80006b28	014cda63	bge	x25,x20,80006b3c	 x25:0x60009fc4 x20:0xa15e4cb0
       64775000	      6476	00000000	00000013	addi	x0,x0,0	  x0:0x00000000
       64785000	      6477	80006b38	00000013	addi	x0,x0,0	  x0:0x00000000
       64795000	      6478	80006b3c	01814463	blt	x2,x24,80006b44	  x2:0x00000002 x24:0x00000001
       64805000	      6479	80006b40	4032d5b3	sra	x11,x5,x3	  x5:0x00000001  x3:0x00000000 x11=0x00000001
       64815000	      6480	80006b44	0007d7b3	srl	x15,x15,x0	 x15:0x00000000  x0:0x00000000 x15=0x00000000
       64825000	      6481	80006b48	01f3d113	srli	x2,x7,0x1f	  x7:0x80009fc4  x2=0x00000001
       64835000	      6482	80006b4c	7cea4b93	xori	x23,x20,1998	 x20:0xa15e4cb0 x23=0xa15e4b7e
       64845000	      6483	80006b50	00000013	addi	x0,x0,0	  x0:0x00000000
       64855000	      6484	80006b54	7df7c713	xori	x14,x15,2015	 x15:0x00000000 x14=0x000007df
       64865000	      6485	80006b58	0135d113	srli	x2,x11,0x13	 x11:0x00000001  x2=0x00000000
       64875000	      6486	80006b5c	ac4fc893	xori	x17,x31,-1340	 x31:0x00000001 x17=0xfffffac5
       64885000	      6487	80006b60	00f4b233	sltu	x4,x9,x15	  x9:0x00000769 x15:0x00000000  x4=0x00000000
       64895000	      6488	80006b64	01c024b3	slt	x9,x0,x28	  x0:0x00000000 x28:0xe00000d0  x9=0x00000000
       64905000	      6489	80006b68	7a40b837	lui	x16,0x7a40b	 x16=0x7a40b000
       64915000	      6490	80006b6c	009cbcb3	sltu	x25,x25,x9	 x25:0x60009fc4  x9:0x00000000 x25=0x00000000
       64925000	      6491	80006b70	00000013	addi	x0,x0,0	  x0:0x00000000
       64935000	      6492	80006b74	0076c033	xor	x0,x13,x7	 x13:0x00008000  x7:0x80009fc4
       64945000	      6493	80006b78	6fdac013	xori	x0,x21,1789	 x21:0x8b000000
       64955000	      6494	80006b7c	00056e63	bltu	x10,x0,80006b98	 x10:0x76900000  x0:0x00000000
       64965000	      6495	80006b80	00c25093	srli	x1,x4,0xc	  x4:0x00000000  x1=0x00000000
       64975000	      6496	80006b84	05fc6463	bltu	x24,x31,80006bcc	 x24:0x00000001 x31:0x00000001
       64985000	      6497	80006b88	011b09b3	add	x19,x22,x17	 x22:0x00000284 x17:0xfffffac5 x19=0xfffffd49
       64995000	      6498	80006b8c	6a61b137	lui	x2,0x6a61b	  x2=0x6a61b000
       65005000	      6499	80006b90	00197f33	and	x30,x18,x1	 x18:0x60009fc4  x1:0x00000000 x30=0x00000000
       65015000	      6500	80006b94	1c31a517	auipc	x10,0x1c31a	 x10=0x9c320b90
       65025000	      6501	80006b98	00000013	addi	x0,x0,0	  x0:0x00000000
       65035000	      6502	80006b9c	01965693	srli	x13,x12,0x19	 x12:0x20000000 x13=0x00000010
       65045000	      6503	80006ba0	01dae663	bltu	x21,x29,80006bac	 x21:0x8b000000 x29:0x00000000
       65055000	      6504	80006ba4	9862ac17	auipc	x24,0x9862a	 x24=0x18630ba0
       65065000	      6505	80006ba8	d621c893	xori	x17,x3,-670	  x3:0x00000000 x17=0xfffffd62
       65075000	      6506	80006bac	01dcaf33	slt	x30,x25,x29	 x25:0x00000000 x29:0x00000000 x30=0x00000000
       65085000	      6507	80006bb0	2ee9f497	auipc	x9,0x2ee9f	  x9=0xaeea5bac
       65095000	      6508	80006bb4	70d26913	ori	x18,x4,1805	  x4:0x00000000 x18=0x0000070d
       65105000	      6509	80006bb8	00aae9b3	or	x19,x21,x10	 x21:0x8b000000 x10:0x9c320b90 x19=0x9f320b90
       65115000	      6510	80006bbc	026b0e63	beq	x22,x6,80006bf8	 x22:0x00000284  x6:0x60009ebc
       65125000	      6511	80006bc0	001916b3	sll	x13,x18,x1	 x18:0x0000070d  x1:0x00000000 x13=0x0000070d
       65135000	      6512	80006bc4	010c75b3	and	x11,x24,x16	 x24:0x18630ba0 x16:0x7a40b000 x11=0x18400000
       65145000	      6513	80006bc8	006fe837	lui	x16,0x6fe	 x16=0x006fe000
       65155000	      6514	80006bcc	72f48513	addi	x10,x9,1839	  x9:0xaeea5bac x10=0xaeea62db
       65165000	      6515	80006bd0	03a61e63	bne	x12,x26,80006c0c	 x12:0x20000000 x26:0xa9936000
       65175000	      6516	00000000	00000013	addi	x0,x0,0	  x0:0x00000000
       65185000	      6517	80006c08	00000013	addi	x0,x0,0	  x0:0x00000000
       65195000	      6518	80006c0c	01980633	add	x12,x16,x25	 x16:0x006fe000 x25:0x00000000 x12=0x006fe000
       65205000	      6519	80006c10	d0f7b293	sltiu	x5,x15,-753	 x15:0x00000000  x5=0x00000001
       65215000	      6520	80006c14	016ff833	and	x16,x31,x22	 x31:0x00000001 x22:0x00000284 x16=0x00000000
       65225000	      6521	80006c18	81537113	andi	x2,x6,-2027	  x6:0x60009ebc  x2=0x60009814
       65235000	      6522	80006c1c	030e8e63	beq	x29,x16,80006c58	 x29:0x00000000 x16:0x00000000
       65245000	      6523	00000000	00000013	addi	x0,x0,0	  x0:0x00000000
       65255000	      6524	80006c54	00000013	addi	x0,x0,0	  x0:0x00000000
       65265000	      6525	80006c58	006d6e33	or	x28,x26,x6	 x26:0xa9936000  x6:0x60009ebc x28=0xe993febc
       65275000	      6526	80006c5c	02a57c63	bgeu	x10,x10,80006c94	 x10:0xaeea62db x10:0xaeea62db
       65285000	      6527	00000000	00000013	addi	x0,x0,0	  x0:0x00000000
       65295000	      6528	80006c90	00000013	addi	x0,x0,0	  x0:0x00000000
       65305000	      6529	80006c94	41035b13	srai	x22,x6,0x10	  x6:0x60009ebc x22=0x00006000
       65315000	      6530	80006c98	00000013	addi	x0,x0,0	  x0:0x00000000
       65325000	      6531	80006c9c	00d942b3	xor	x5,x18,x13	 x18:0x0000070d x13:0x0000070d  x5=0x00000000
       65335000	      6532	80006ca0	00442083	lw	x1,4(x8)	  x8:0x80009f14  x1=0x80000550 PA:0x80009f18
       65345000	      6533	80006ca4	2bf50d37	lui	x26,0x2bf50	 x26=0x2bf50000
       65355000	      6534	80006ca8	006752b3	srl	x5,x14,x6	 x14:0x000007df  x6:0x60009ebc  x5=0x00000000
       65365000	      6535	80006cac	003545b3	xor	x11,x10,x3	 x10:0xaeea62db  x3:0x00000000 x11=0xaeea62db
       65375000	      6536	80006cb0	02840413	addi	x8,x8,40	  x8:0x80009f14  x8=0x80009f3c
       65385000	      6537	80006cb4	d032db97	auipc	x23,0xd032d	 x23=0x50333cb0
       65395000	      6538	80006cb8	00008213	addi	x4,x1,0	  x1:0x80000550  x4=0x80000550
       65405000	      6539	80006cbc	00020267	jalr	x4,x4,0	  x4:0x80000550  x4=0x80006cbc
       65415000	      6540	00000000	00000013	addi	x0,x0,0	  x0:0x00000000
       65425000	      6541	80000550	00000013	addi	x0,x0,0	  x0:0x00000000
       65435000	      6542	80000554	01b4a6b3	slt	x13,x9,x27	  x9:0xaeea5bac x27:0x00000001 x13=0x00000001
       65445000	      6543	80000558	41d6d813	srai	x16,x13,0x1d	 x13:0x00000001 x16=0x00000000
       65455000	      6544	8000055c	65bd3c93	sltiu	x25,x26,1627	 x26:0x2bf50000 x25=0x00000000
       65465000	      6545	80000560	00000013	addi	x0,x0,0	  x0:0x00000000
       65475000	      6546	80000564	0712b213	sltiu	x4,x5,113	  x5:0x00000000  x4=0x00000001
       65485000	      6547	80000568	01841333	sll	x6,x8,x24	  x8:0x80009f3c x24:0x18630ba0  x6=0x80009f3c
       65495000	      6548	8000056c	651040ef	jal	x1,8000056c	  x1=0x8000056c
       65505000	      6549	00000000	00000013	addi	x0,x0,0	  x0:0x00000000
       65515000	      6550	800053b8	00000013	addi	x0,x0,0	  x0:0x00000000
       65525000	      6551	800053bc	000dbfb3	sltu	x31,x27,x0	 x27:0x00000001  x0:0x00000000 x31=0x00000000
       65535000	      6552	800053c0	01738463	beq	x7,x23,800053c8	  x7:0x80009fc4 x23:0x50333cb0
       65545000	      6553	800053c4	00c71f33	sll	x30,x14,x12	 x14:0x000007df x12:0x006fe000 x30=0x000007df
       65555000	      6554	800053c8	fc040413	addi	x8,x8,-64	  x8:0x80009f3c  x8=0x80009efc
       65565000	      6555	800053cc	00142223	sw	x1,4(x8)	  x8:0x80009efc  x1:0x8000056c PA:0x80009f00
       65575000	      6556	800053d0	e131e493	ori	x9,x3,-493	  x3:0x00000000  x9=0xfffffe13
       65585000	      6557	800053d4	0061cc33	xor	x24,x3,x6	  x3:0x00000000  x6:0x80009f3c x24=0x80009f3c
       65595000	      6558	800053d8	029cf063	bgeu	x25,x9,800053f8	 x25:0x00000000  x9:0xfffffe13
       65605000	      6559	800053dc	5f366913	ori	x18,x12,1523	 x12:0x006fe000 x18=0x006fe5f3
       65615000	      6560	800053e0	3be8b993	sltiu	x19,x17,958	 x17:0xfffffd62 x19=0x00000000
       65625000	      6561	800053e4	00e4c233	xor	x4,x9,x14	  x9:0xfffffe13 x14:0x000007df  x4=0xfffff9cc
       65635000	      6562	800053e8	01db9793	slli	x15,x23,0x1d	 x23:0x50333cb0 x15=0x00000000
       65645000	      6563	800053ec	bf377913	andi	x18,x14,-1037	 x14:0x000007df x18=0x000003d3
       65655000	      6564	800053f0	00000013	addi	x0,x0,0	  x0:0x00000000
       65665000	      6565	800053f4	02012513	slti	x10,x2,32	  x2:0x60009814 x10=0x00000000
       65675000	      6566	800053f8	018c36b3	sltu	x13,x24,x24	 x24:0x80009f3c x24:0x80009f3c x13=0x00000000
       65685000	      6567	800053fc	e7f0cb13	xori	x22,x1,-385	  x1:0x8000056c x22=0x7ffffb13
       65695000	      6568	80005400	00442083	lw	x1,4(x8)	  x8:0x80009efc  x1=0x8000056c PA:0x80009f00
       65705000	      6569	80005404	00000013	addi	x0,x0,0	  x0:0x00000000
       65715000	      6570	80005408	04040413	addi	x8,x8,64	  x8:0x80009efc  x8=0x80009f3c
       65725000	      6571	8000540c	1d43a293	slti	x5,x7,468	  x7:0x80009fc4  x5=0x00000001
       65735000	      6572	80005410	0135c813	xori	x16,x11,19	 x11:0xaeea62db x16=0xaeea62c8
       65745000	      6573	80005414	00008993	addi	x19,x1,0	  x1:0x8000056c x19=0x8000056c
       65755000	      6574	80005418	000989e7	jalr	x19,x19,0	 x19:0x8000056c x19=0x80005418
       65765000	      6575	00000000	00000013	addi	x0,x0,0	  x0:0x00000000
       65775000	      6576	8000056c	00000013	addi	x0,x0,0	  x0:0x00000000
       65785000	      6577	80000570	00004617	auipc	x12,0x4	 x12=0x8000456c
       65795000	      6578	80000574	4e060613	addi	x12,x12,1248	 x12:0x8000456c x12=0x80004a4c
       65805000	      6579	80000578	93e14137	lui	x2,0x93e14	  x2=0x93e14000
       65815000	      6580	8000057c	01b10333	add	x6,x2,x27	  x2:0x93e14000 x27:0x00000001  x6=0x93e14001
       65825000	      6581	80000580	000cdb13	srli	x22,x25,0x0	 x25:0x00000000 x22=0x00000000
       65835000	      6582	80000584	dc860613	addi	x12,x12,-568	 x12:0x80004a4c x12=0x80004814
       65845000	      6583	80000588	00bc9e93	slli	x29,x25,0xb	 x25:0x00000000 x29=0x00000000
       65855000	      6584	8000058c	01e15013	srli	x0,x2,0x1e	  x2:0x93e14000
       65865000	      6585	80000590	32fa0593	addi	x11,x20,815	 x20:0xa15e4cb0 x11=0xa15e4fdf
       65875000	      6586	80000594	3db30e93	addi	x29,x6,987	  x6:0x93e14001 x29=0x93e143dc
       65885000	      6587	80000598	01c6e463	bltu	x13,x28,800005a0	 x13:0x00000000 x28:0xe993febc
       65895000	      6588	00000000	00000013	addi	x0,x0,0	  x0:0x00000000
       65905000	      6589	8000059c	00000013	addi	x0,x0,0	  x0:0x00000000
       65915000	      6590	800005a0	239600e7	jalr	x1,x12,569	 x12:0x80004814  x1=0x800005a0
       65925000	      6591	00000000	00000013	addi	x0,x0,0	  x0:0x00000000
       65935000	      6592	80004a4c	00000013	addi	x0,x0,0	  x0:0x00000000
       65945000	      6593	80004a50	0ef3f613	andi	x12,x7,239	  x7:0x80009fc4 x12=0x000000c4
       65955000	      6594	80004a54	41998ab3	sub	x21,x19,x25	 x19:0x80005418 x25:0x00000000 x21=0x80005418
       65965000	      6595	80004a58	01f71713	slli	x14,x14,0x1f	 x14:0x000007df x14=0x80000000
       65975000	      6596	80004a5c	fc440413	addi	x8,x8,-60	  x8:0x80009f3c  x8=0x80009f00
       65985000	      6597	80004a60	4003d993	srai	x19,x7,0x0	  x7:0x80009fc4 x19=0x80009fc4
       65995000	      6598	80004a64	45ca3993	sltiu	x19,x20,1116	 x20:0xa15e4cb0 x19=0x00000000
       66005000	      6599	80004a68	00142223	sw	x1,4(x8)	  x8:0x80009f00  x1:0x800005a0 PA:0x80009f04
       66015000	      6600	80004a6c	d10fdeb7	lui	x29,0xd10fd	 x29=0xd10fd000
       66025000	      6601	80004a70	00004117	auipc	x2,0x4	  x2=0x80008a6c
       66035000	      6602	80004a74	4d210113	addi	x2,x2,1234	  x2:0x80008a6c  x2=0x80008f3e
       66045000	      6603	80004a78	00a8d533	srl	x10,x17,x10	 x17:0xfffffd62 x10:0x00000000 x10=0xfffffd62
       66055000	      6604	80004a7c	f4714f03	lbu	x30,-185(x2)	  x2:0x80008f3e x30=0x00000000 PA:0x80008e85
       66065000	      6605	80004a80	fcd11d23	sh	x13,-38(x2)	  x2:0x80008f3e x13:0x00000000 PA:0x80008f18
       66075000	      6606	80004a84	00d8c5b3	xor	x11,x17,x13	 x17:0xfffffd62 x13:0x00000000 x11=0xfffffd62
       66085000	      6607	80004a88	30a721b7	lui	x3,0x30a72	  x3=0x30a72000
       66095000	      6608	80004a8c	41ac5033	sra	x0,x24,x26	 x24:0x80009f3c x26:0x2bf50000
       66105000	      6609	80004a90	014aa333	slt	x6,x21,x20	 x21:0x80005418 x20:0xa15e4cb0  x6=0x00000001
       66115000	      6610	80004a94	41030033	sub	x0,x6,x16	  x6:0x00000001 x16:0xaeea62c8
       66125000	      6611	80004a98	00000013	addi	x0,x0,0	  x0:0x00000000
       66135000	      6612	80004a9c	fe215803	lhu	x16,-30(x2)	  x2:0x80008f3e x16=0x00000000 PA:0x80008f20
       66145000	      6613	80004aa0	785df713	andi	x14,x27,1925	 x27:0x00000001 x14=0x00000001
       66155000	      6614	80004aa4	f5014303	lbu	x6,-176(x2)	  x2:0x80008f3e  x6=0x00000000 PA:0x80008e8e
       66165000	      6615	80004aa8	fd310203	lb	x4,-45(x2)	  x2:0x80008f3e  x4=0x00000000 PA:0x80008f11
       66175000	      6616	80004aac	3352acb7	lui	x25,0x3352a	 x25=0x3352a000
       66185000	      6617	80004ab0	8cc07193	andi	x3,x0,-1844	  x0:0x00000000  x3=0x00000000
       66195000	      6618	80004ab4	02b14603	lbu	x12,43(x2)	  x2:0x80008f3e x12=0x00000000 PA:0x80008f69
       66205000	      6619	80004ab8	07a108a3	sb	x26,113(x2)	  x2:0x80008f3e x26:0x2bf50000 PA:0x80008faf
       66215000	      6620	80004abc	f2310323	sb	x3,-218(x2)	  x2:0x80008f3e  x3:0x00000000 PA:0x80008e64
       66225000	      6621	80004ac0	f1510fa3	sb	x21,-225(x2)	  x2:0x80008f3e x21:0x80005418 PA:0x80008e5d
       66235000	      6622	80004ac4	f7c10483	lb	x9,-132(x2)	  x2:0x80008f3e  x9=0x0000005e PA:0x80008eba
       66245000	      6623	80004ac8	00a10023	sb	x10,0(x2)	  x2:0x80008f3e x10:0xfffffd62 PA:0x80008f3e
       66255000	      6624	80004acc	c2372493	slti	x9,x14,-989	 x14:0x00000001  x9=0x00000000
       66265000	      6625	80004ad0	3cf26793	ori	x15,x4,975	  x4:0x00000000 x15=0x000003cf
       66275000	      6626	80004ad4	02a11303	lh	x6,42(x2)	  x2:0x80008f3e  x6=0x00000000 PA:0x80008f68
       66285000	      6627	80004ad8	f7412d23	sw	x20,-134(x2)	  x2:0x80008f3e x20:0xa15e4cb0 PA:0x80008eb8
       66295000	      6628	80004adc	f4114503	lbu	x10,-191(x2)	  x2:0x80008f3e x10=0x00000000 PA:0x80008e7f
       66305000	      6629	80004ae0	f3710f03	lb	x30,-201(x2)	  x2:0x80008f3e x30=0x00000000 PA:0x80008e75
       66315000	      6630	80004ae4	f5711a23	sh	x23,-172(x2)	  x2:0x80008f3e x23:0x50333cb0 PA:0x80008e92
       66325000	      6631	80004ae8	f6114083	lbu	x1,-159(x2)	  x2:0x80008f3e  x1=0x00000000 PA:0x80008e9f
       66335000	      6632	00000000	00000013	addi	x0,x0,0	  x0:0x00000000
       66345000	      6633	80004aec	a6131d17	auipc	x26,0xa6131	 x26=0x26135ae8
       66355000	      6634	80004af0	d802eb17	auipc	x22,0xd802e	 x22=0x58032aec
       66365000	      6635	80004af4	011e32b3	sltu	x5,x28,x17	 x28:0xe993febc x17:0xfffffd62  x5=0x00000001
       66375000	      6636	80004af8	06f14c83	lbu	x25,111(x2)	  x2:0x80008f3e x25=0x00000000 PA:0x80008fad
       66385000	      6637	00000000	00000013	addi	x0,x0,0	  x0:0x00000000
       66395000	      6638	80004afc	00fc9b13	slli	x22,x25,0xf	 x25:0x00000000 x22=0x00000000
       66405000	      6639	80004b00	06810583	lb	x11,104(x2)	  x2:0x80008f3e x11=0x00000000 PA:0x80008fa6
       66415000	      6640	80004b04	a15a7917	auipc	x18,0xa15a7	 x18=0x215abb00
       66425000	      6641	80004b08	0a610703	lb	x14,166(x2)	  x2:0x80008f3e x14=0x00000000 PA:0x80008fe4
       66435000	      6642	80004b0c	f43103a3	sb	x3,-185(x2)	  x2:0x80008f3e  x3:0x00000000 PA:0x80008e85
       66445000	      6643	80004b10	f5ce3f13	sltiu	x30,x28,-164	 x28:0xe993febc x30=0x00000001
       66455000	      6644	80004b14	4bfecd37	lui	x26,0x4bfec	 x26=0x4bfec000
       66465000	      6645	80004b18	f1910e83	lb	x29,-231(x2)	  x2:0x80008f3e x29=0xffffff9f PA:0x80008e57
       66475000	      6646	80004b1c	f2314f83	lbu	x31,-221(x2)	  x2:0x80008f3e x31=0x00000000 PA:0x80008e61
       66485000	      6647	80004b20	00221933	sll	x18,x4,x2	  x4:0x00000000  x2:0x80008f3e x18=0x00000000
       66495000	      6648	80004b24	b8f5b893	sltiu	x17,x11,-1137	 x11:0x00000000 x17=0x00000001
       66505000	      6649	80004b28	b8260993	addi	x19,x12,-1150	 x12:0x00000000 x19=0xfffffb82
       66515000	      6650	80004b2c	00612f03	lw	x30,6(x2)	  x2:0x80008f3e x30=0x00000000 PA:0x80008f44
       66525000	      6651	80004b30	f7215903	lhu	x18,-142(x2)	  x2:0x80008f3e x18=0x00000001 PA:0x80008eb0
       66535000	      6652	80004b34	f2c1ed13	ori	x26,x3,-212	  x3:0x00000000 x26=0xffffff2c
       66545000	      6653	80004b38	05514e03	lbu	x28,85(x2)	  x2:0x80008f3e x28=0x00000000 PA:0x80008f93
       66555000	      6654	80004b3c	4f8cb6b7	lui	x13,0x4f8cb	 x13=0x4f8cb000
       66565000	      6655	80004b40	caddad13	slti	x26,x27,-851	 x27:0x00000001 x26=0x00000000
       66575000	      6656	80004b44	fe414f83	lbu	x31,-28(x2)	  x2:0x80008f3e x31=0x00000000 PA:0x80008f22
       66585000	      6657	80004b48	00004297	auipc	x5,0x4	  x5=0x80008b44
       66595000	      6658	80004b4c	31e28293	addi	x5,x5,798	  x5:0x80008b44  x5=0x80008e62
       66605000	      6659	80004b50	9ea2d683	lhu	x13,-1558(x5)	  x5:0x80008e62 x13=0x00000000 PA:0x8000884c
       66615000	      6660	80004b54	cf42c603	lbu	x12,-780(x5)	  x5:0x80008e62 x12=0x00000000 PA:0x80008b56
       66625000	      6661	80004b58	ba188513	addi	x10,x17,-1119	 x17:0x00000001 x10=0xfffffba2
       66635000	      6662	80004b5c	05b28723	sb	x27,78(x5)	  x5:0x80008e62 x27:0x00000001 PA:0x80008eb0
       66645000	      6663	80004b60	cf229723	sh	x18,-786(x5)	  x5:0x80008e62 x18:0x00000001 PA:0x80008b50
       66655000	      6664	80004b64	00f416b3	sll	x13,x8,x15	  x8:0x80009f00 x15:0x000003cf x13=0x4f800000
       66665000	      6665	80004b68	e97280a3	sb	x23,-383(x5)	  x5:0x80008e62 x23:0x50333cb0 PA:0x80008ce3
       66675000	      6666	80004b6c	2a310093	addi	x1,x2,675	  x2:0x80008f3e  x1=0x800091e1
       66685000	      6667	80004b70	01fc2633	slt	x12,x24,x31	 x24:0x80009f3c x31:0x00000000 x12=0x00000001
       66695000	      6668	80004b74	e6f13b13	sltiu	x22,x2,-401	  x2:0x80008f3e x22=0x00000001
       66705000	      6669	80004b78	aad28483	lb	x9,-1363(x5)	  x5:0x80008e62  x9=0x00000000 PA:0x8000890f
       66715000	      6670	80004b7c	f922a683	lw	x13,-110(x5)	  x5:0x80008e62 x13=0x00000000 PA:0x80008df4
       66725000	      6671	80004b80	408050b3	sra	x1,x0,x8	  x0:0x00000000  x8:0x80009f00  x1=0x00000000
       66735000	      6672	80004b84	e2829e03	lh	x28,-472(x5)	  x5:0x80008e62 x28=0x00000000 PA:0x80008c8a
       66745000	      6673	80004b88	40308033	sub	x0,x1,x3	  x1:0x00000000  x3:0x00000000
       66755000	      6674	80004b8c	f3d08613	addi	x12,x1,-195	  x1:0x00000000 x12=0xffffff3d
       66765000	      6675	80004b90	c3528d03	lb	x26,-971(x5)	  x5:0x80008e62 x26=0x00000000 PA:0x80008a97
       66775000	      6676	80004b94	ce42c783	lbu	x15,-796(x5)	  x5:0x80008e62 x15=0x00000000 PA:0x80008b46
       66785000	      6677	80004b98	009184b3	add	x9,x3,x9	  x3:0x00000000  x9:0x00000000  x9=0x00000000
       66795000	      6678	80004b9c	41b25713	srai	x14,x4,0x1b	  x4:0x00000000 x14=0x00000000
       66805000	      6679	80004ba0	1d48ae93	slti	x29,x17,468	 x17:0x00000001 x29=0x00000001
       66815000	      6680	80004ba4	01a5b9b3	sltu	x19,x11,x26	 x11:0x00000000 x26:0x00000000 x19=0x00000000
       66825000	      6681	80004ba8	01d5d233	srl	x4,x11,x29	 x11:0x00000000 x29:0x00000001  x4=0x00000000
       66835000	      6682	80004bac	01c31213	slli	x4,x6,0x1c	  x6:0x00000000  x4=0x00000000
       66845000	      6683	80004bb0	018f2b33	slt	x22,x30,x24	 x30:0x00000000 x24:0x80009f3c x22=0x00000000
       66855000	      6684	80004bb4	c0428f03	lb	x30,-1020(x5)	  x5:0x80008e62 x30=0x00000000 PA:0x80008a66
       66865000	      6685	80004bb8	00f73533	sltu	x10,x14,x15	 x14:0x00000000 x15:0x00000000 x10=0x00000000
       66875000	      6686	80004bbc	b062a103	lw	x2,-1274(x5)	  x5:0x80008e62  x2=0x00000000 PA:0x80008968
       66885000	      6687	80004bc0	9cdc9eb7	lui	x29,0x9cdc9	 x29=0x9cdc9000
       66895000	      6688	80004bc4	fe473c13	sltiu	x24,x14,-28	 x14:0x00000000 x24=0x00000001
       66905000	      6689	80004bc8	db82d083	lhu	x1,-584(x5)	  x5:0x80008e62  x1=0x00000000 PA:0x80008c1a
       66915000	      6690	80004bcc	03829423	sh	x24,40(x5)	  x5:0x80008e62 x24:0x00000001 PA:0x80008e8a
       66925000	      6691	80004bd0	3ef8cc93	xori	x25,x17,1007	 x17:0x00000001 x25=0x000003ee
       66935000	      6692	80004bd4	014a59b3	srl	x19,x20,x20	 x20:0xa15e4cb0 x20:0xa15e4cb0 x19=0x0000a15e
       66945000	      6693	80004bd8	a1b69db7	lui	x27,0xa1b69	 x27=0xa1b69000
       66955000	      6694	80004bdc	0121c733	xor	x14,x3,x18	  x3:0x00000000 x18:0x00000001 x14=0x00000001
       66965000	      6695	80004be0	01a1f7b3	and	x15,x3,x26	  x3:0x00000000 x26:0x00000000 x15=0x00000000
       66975000	      6696	80004be4	00244333	xor	x6,x8,x2	  x8:0x80009f00  x2:0x00000000  x6=0x80009f00
       66985000	      6697	80004be8	ed62c803	lbu	x16,-298(x5)	  x5:0x80008e62 x16=0x00000000 PA:0x80008d38
       66995000	      6698	80004bec	00004117	auipc	x2,0x4	  x2=0x80008be8
       67005000	      6699	80004bf0	b8810113	addi	x2,x2,-1144	  x2:0x80008be8  x2=0x80008770
       67015000	      6700	80004bf4	0012a0b3	slt	x1,x5,x1	  x5:0x80008e62  x1:0x00000000  x1=0x00000001
       67025000	      6701	80004bf8	00914303	lbu	x6,9(x2)	  x2:0x80008770  x6=0x00000000 PA:0x80008779
       67035000	      6702	80004bfc	62243b93	sltiu	x23,x8,1570	  x8:0x80009f00 x23=0x00000000
       67045000	      6703	80004c00	ffe10ea3	sb	x30,-3(x2)	  x2:0x80008770 x30:0x00000000 PA:0x8000876d
       67055000	      6704	80004c04	00000013	addi	x0,x0,0	  x0:0x00000000
       67065000	      6705	80004c08	fe510e23	sb	x5,-4(x2)	  x2:0x80008770  x5:0x80008e62 PA:0x8000876c
       67075000	      6706	80004c0c	ffe10883	lb	x17,-2(x2)	  x2:0x80008770 x17=0x00000000 PA:0x8000876e
       67085000	      6707	80004c10	00000013	addi	x0,x0,0	  x0:0x00000000
       67095000	      6708	80004c14	df6e7a93	andi	x21,x28,-522	 x28:0x00000000 x21=0x00000000
       67105000	      6709	80004c18	afe5cb13	xori	x22,x11,-1282	 x11:0x00000000 x22=0xfffffafe
       67115000	      6710	80004c1c	40f15b33	sra	x22,x2,x15	  x2:0x80008770 x15:0x00000000 x22=0x80008770
       67125000	      6711	80004c20	3d9ae193	ori	x3,x21,985	 x21:0x00000000  x3=0x000003d9
       67135000	      6712	80004c24	00a10483	lb	x9,10(x2)	  x2:0x80008770  x9=0x00000000 PA:0x8000877a
       67145000	      6713	80004c28	fff14203	lbu	x4,-1(x2)	  x2:0x80008770  x4=0x00000000 PA:0x8000876f
       67155000	      6714	80004c2c	01e95e33	srl	x28,x18,x30	 x18:0x00000001 x30:0x00000000 x28=0x00000001
       67165000	      6715	80004c30	ff815503	lhu	x10,-8(x2)	  x2:0x80008770 x10=0x00004b00 PA:0x80008768
       67175000	      6716	80004c34	01d5d9b3	srl	x19,x11,x29	 x11:0x00000000 x29:0x9cdc9000 x19=0x00000000
       67185000	      6717	80004c38	695b0d93	addi	x27,x22,1685	 x22:0x80008770 x27=0x80008e05
       67195000	      6718	80004c3c	ff615e83	lhu	x29,-10(x2)	  x2:0x80008770 x29=0x00000000 PA:0x80008766
       67205000	      6719	80004c40	ff714503	lbu	x10,-9(x2)	  x2:0x80008770 x10=0x00000000 PA:0x80008767
       67215000	      6720	80004c44	7c7c4997	auipc	x19,0x7c7c4	 x19=0xfc7c8c40
       67225000	      6721	80004c48	b4b26c13	ori	x24,x4,-1205	  x4:0x00000000 x24=0xfffffb4b
       67235000	      6722	80004c4c	23c8b317	auipc	x6,0x23c8b	  x6=0xa3c8fc48
       67245000	      6723	80004c50	01334833	xor	x16,x6,x19	  x6:0xa3c8fc48 x19:0xfc7c8c40 x16=0x5fb47008
       67255000	      6724	80004c54	007601b3	add	x3,x12,x7	 x12:0xffffff3d  x7:0x80009fc4  x3=0x80009f01
       67265000	      6725	80004c58	ffe15803	lhu	x16,-2(x2)	  x2:0x80008770 x16=0x00000000 PA:0x8000876e
       67275000	      6726	80004c5c	0151b733	sltu	x14,x3,x21	  x3:0x80009f01 x21:0x00000000 x14=0x00000000
       67285000	      6727	80004c60	00b10783	lb	x15,11(x2)	  x2:0x80008770 x15=0x00000000 PA:0x8000877b
       67295000	      6728	80004c64	00d14303	lbu	x6,13(x2)	  x2:0x80008770  x6=0x00000000 PA:0x8000877d
       67305000	      6729	80004c68	42e3c013	xori	x0,x7,1070	  x7:0x80009fc4
       67315000	      6730	80004c6c	401a00b3	sub	x1,x20,x1	 x20:0xa15e4cb0  x1:0x00000001  x1=0xa15e4caf
       67325000	      6731	80004c70	ff714a83	lbu	x21,-9(x2)	  x2:0x80008770 x21=0x00000000 PA:0x80008767
       67335000	      6732	80004c74	4106d013	srai	x0,x13,0x10	 x13:0x00000000
       67345000	      6733	80004c78	01015703	lhu	x14,16(x2)	  x2:0x80008770 x14=0x00000001 PA:0x80008780
       67355000	      6734	80004c7c	01e7d2b3	srl	x5,x15,x30	 x15:0x00000000 x30:0x00000000  x5=0x00000000
       67365000	      6735	80004c80	ff214483	lbu	x9,-14(x2)	  x2:0x80008770  x9=0x00000000 PA:0x80008762
       67375000	      6736	80004c84	01f10823	sb	x31,16(x2)	  x2:0x80008770 x31:0x00000000 PA:0x80008780
       67385000	      6737	80004c88	ff810ca3	sb	x24,-7(x2)	  x2:0x80008770 x24:0xfffffb4b PA:0x80008769
       67395000	      6738	80004c8c	ff110903	lb	x18,-15(x2)	  x2:0x80008770 x18=0x00000000 PA:0x80008761
       67405000	      6739	80004c90	07d52c13	slti	x24,x10,125	 x10:0x00000000 x24=0x00000001
       67415000	      6740	80004c94	00512223	sw	x5,4(x2)	  x2:0x80008770  x5:0x00000000 PA:0x80008774
       67425000	      6741	80004c98	fee10c23	sb	x14,-8(x2)	  x2:0x80008770 x14:0x00000001 PA:0x80008768
       67435000	      6742	80004c9c	40385693	srai	x13,x16,0x3	 x16:0x00000000 x13=0x00000000
       67445000	      6743	80004ca0	00c14803	lbu	x16,12(x2)	  x2:0x80008770 x16=0x00000000 PA:0x8000877c
       67455000	      6744	80004ca4	dc0f7d97	auipc	x27,0xdc0f7	 x27=0x5c0fbca0
       67465000	      6745	80004ca8	01810823	sb	x24,16(x2)	  x2:0x80008770 x24:0x00000001 PA:0x80008780
       67475000	      6746	80004cac	006104a3	sb	x6,9(x2)	  x2:0x80008770  x6:0x00000000 PA:0x80008779
       67485000	      6747	80004cb0	03584863	blt	x16,x21,80004ce0	 x16:0x00000000 x21:0x00000000
       67495000	      6748	80004cb4	40c80db3	sub	x27,x16,x12	 x16:0x00000000 x12:0xffffff3d x27=0x000000c3
       67505000	      6749	80004cb8	41c55133	sra	x2,x10,x28	 x10:0x00000000 x28:0x00000001  x2=0x00000000
       67515000	      6750	80004cbc	01cf9863	bne	x31,x28,80004ccc	 x31:0x00000000 x28:0x00000001
       67525000	      6751	00000000	00000013	addi	x0,x0,0	  x0:0x00000000
       67535000	      6752	80004cc8	00000013	addi	x0,x0,0	  x0:0x00000000
       67545000	      6753	80004ccc	00000013	addi	x0,x0,0	  x0:0x00000000
       67555000	      6754	80004cd0	00a72633	slt	x12,x14,x10	 x14:0x00000001 x10:0x00000000 x12=0x00000000
       67565000	      6755	80004cd4	00000013	addi	x0,x0,0	  x0:0x00000000
       67575000	      6756	80004cd8	d2c43193	sltiu	x3,x8,-724	  x8:0x80009f00  x3=0x00000001
       67585000	      6757	80004cdc	01f25933	srl	x18,x4,x31	  x4:0x00000000 x31:0x00000000 x18=0x00000000
       67595000	      6758	80004ce0	00165733	srl	x14,x12,x1	 x12:0x00000000  x1:0xa15e4caf x14=0x00000000
       67605000	      6759	80004ce4	007dca63	blt	x27,x7,80004cf8	 x27:0x000000c3  x7:0x80009fc4
       67615000	      6760	80004ce8	21ea2f37	lui	x30,0x21ea2	 x30=0x21ea2000
       67625000	      6761	80004cec	fa4aad93	slti	x27,x21,-92	 x21:0x00000000 x27=0x00000000
       67635000	      6762	80004cf0	0010d9b3	srl	x19,x1,x1	  x1:0xa15e4caf  x1:0xa15e4caf x19=0x000142bc
       67645000	      6763	80004cf4	250d34b7	lui	x9,0x250d3	  x9=0x250d3000
       67655000	      6764	80004cf8	048df463	bgeu	x27,x8,80004d40	 x27:0x00000000  x8:0x80009f00
       67665000	      6765	80004cfc	3589f213	andi	x4,x19,856	 x19:0x000142bc  x4=0x00000218
       67675000	      6766	80004d00	0003d313	srli	x6,x7,0x0	  x7:0x80009fc4  x6=0x80009fc4
       67685000	      6767	80004d04	4c07af93	slti	x31,x15,1216	 x15:0x00000000 x31=0x00000001
       67695000	      6768	80004d08	01b6db93	srli	x23,x13,0x1b	 x13:0x00000000 x23=0x00000000
       67705000	      6769	80004d0c	0193d533	srl	x10,x7,x25	  x7:0x80009fc4 x25:0x000003ee x10=0x00020002
       67715000	      6770	80004d10	00dc8333	add	x6,x25,x13	 x25:0x000003ee x13:0x00000000  x6=0x000003ee
       67725000	      6771	80004d14	0308c463	blt	x17,x16,80004d3c	 x17:0x00000000 x16:0x00000000
       67735000	      6772	80004d18	008fce33	xor	x28,x31,x8	 x31:0x00000001  x8:0x80009f00 x28=0x80009f01
       67745000	      6773	80004d1c	04f28863	beq	x5,x15,80004d6c	  x5:0x00000000 x15:0x00000000
       67755000	      6774	00000000	00000013	addi	x0,x0,0	  x0:0x00000000
       67765000	      6775	80004d68	00000013	addi	x0,x0,0	  x0:0x00000000
       67775000	      6776	80004d6c	03331e63	bne	x6,x19,80004da8	  x6:0x000003ee x19:0x000142bc
       67785000	      6777	00000000	00000013	addi	x0,x0,0	  x0:0x00000000
       67795000	      6778	80004da4	00000013	addi	x0,x0,0	  x0:0x00000000
       67805000	      6779	80004da8	01381463	bne	x16,x19,80004db0	 x16:0x00000000 x19:0x000142bc
       67815000	      6780	00000000	00000013	addi	x0,x0,0	  x0:0x00000000
       67825000	      6781	80004dac	00000013	addi	x0,x0,0	  x0:0x00000000
       67835000	      6782	80004db0	03fee863	bltu	x29,x31,80004de0	 x29:0x00000000 x31:0x00000001
       67845000	      6783	00000000	00000013	addi	x0,x0,0	  x0:0x00000000
       67855000	      6784	80004ddc	00000013	addi	x0,x0,0	  x0:0x00000000
       67865000	      6785	80004de0	49d68713	addi	x14,x13,1181	 x13:0x00000000 x14=0x0000049d
       67875000	      6786	80004de4	c3f8bab7	lui	x21,0xc3f8b	 x21=0xc3f8b000
       67885000	      6787	80004de8	00000013	addi	x0,x0,0	  x0:0x00000000
       67895000	      6788	80004dec	057a1063	bne	x20,x23,80004e2c	 x20:0xa15e4cb0 x23:0x00000000
       67905000	      6789	00000000	00000013	addi	x0,x0,0	  x0:0x00000000
       67915000	      6790	80004e28	00000013	addi	x0,x0,0	  x0:0x00000000
       67925000	      6791	80004e2c	fd777593	andi	x11,x14,-41	 x14:0x0000049d x11=0x00000495
       67935000	      6792	80004e30	01d90863	beq	x18,x29,80004e40	 x18:0x00000000 x29:0x00000000
       67945000	      6793	00000000	00000013	addi	x0,x0,0	  x0:0x00000000
       67955000	      6794	80004e3c	00000013	addi	x0,x0,0	  x0:0x00000000
       67965000	      6795	80004e40	05660463	beq	x12,x22,80004e88	 x12:0x00000000 x22:0x80008770
       67975000	      6796	80004e44	40a48e33	sub	x28,x9,x10	  x9:0x250d3000 x10:0x00020002 x28=0x250b2ffe
       67985000	      6797	80004e48	0147f933	and	x18,x15,x20	 x15:0x00000000 x20:0xa15e4cb0 x18=0x00000000
       67995000	      6798	80004e4c	00000013	addi	x0,x0,0	  x0:0x00000000
       68005000	      6799	80004e50	00cd4cb3	xor	x25,x26,x12	 x26:0x00000000 x12:0x00000000 x25=0x00000000
       68015000	      6800	80004e54	af610893	addi	x17,x2,-1290	  x2:0x00000000 x17=0xfffffaf6
       68025000	      6801	80004e58	0195abb3	slt	x23,x11,x25	 x11:0x00000495 x25:0x00000000 x23=0x00000000
       68035000	      6802	80004e5c	02616463	bltu	x2,x6,80004e84	  x2:0x00000000  x6:0x000003ee
       68045000	      6803	00000000	00000013	addi	x0,x0,0	  x0:0x00000000
       68055000	      6804	80004e80	00000013	addi	x0,x0,0	  x0:0x00000000
       68065000	      6805	80004e84	003bd093	srli	x1,x23,0x3	 x23:0x00000000  x1=0x00000000
       68075000	      6806	80004e88	00fde863	bltu	x27,x15,80004e98	 x27:0x00000000 x15:0x00000000
       68085000	      6807	80004e8c	00016e33	or	x28,x2,x0	  x2:0x00000000  x0:0x00000000 x28=0x00000000
       68095000	      6808	80004e90	35570813	addi	x16,x14,853	 x14:0x0000049d x16=0x000007f2
       68105000	      6809	80004e94	4108de13	srai	x28,x17,0x10	 x17:0xfffffaf6 x28=0xffffffff
       68115000	      6810	80004e98	05fe8063	beq	x29,x31,80004ed8	 x29:0x00000000 x31:0x00000001
       68125000	      6811	80004e9c	00a5cf33	xor	x30,x11,x10	 x11:0x00000495 x10:0x00020002 x30=0x00020497
       68135000	      6812	80004ea0	01b26533	or	x10,x4,x27	  x4:0x00000218 x27:0x00000000 x10=0x00000218
       68145000	      6813	80004ea4	0194df93	srli	x31,x9,0x19	  x9:0x250d3000 x31=0x00000012
       68155000	      6814	80004ea8	51e4fbb7	lui	x23,0x51e4f	 x23=0x51e4f000
       68165000	      6815	80004eac	d6230193	addi	x3,x6,-670	  x6:0x000003ee  x3=0x00000150
       68175000	      6816	80004eb0	a9292313	slti	x6,x18,-1390	 x18:0x00000000  x6=0x00000000
       68185000	      6817	80004eb4	a5d04993	xori	x19,x0,-1443	  x0:0x00000000 x19=0xfffffa5d
       68195000	      6818	80004eb8	01b108b3	add	x17,x2,x27	  x2:0x00000000 x27:0x00000000 x17=0x00000000
       68205000	      6819	80004ebc	418f8db3	sub	x27,x31,x24	 x31:0x00000012 x24:0x00000001 x27=0x00000011
       68215000	      6820	80004ec0	4030d4b3	sra	x9,x1,x3	  x1:0x00000000  x3:0x00000150  x9=0x00000000
       68225000	      6821	80004ec4	15f57b13	andi	x22,x10,351	 x10:0x00000218 x22=0x00000018
       68235000	      6822	80004ec8	14c2e713	ori	x14,x5,332	  x5:0x00000000 x14=0x0000014c
       68245000	      6823	80004ecc	02584c63	blt	x16,x5,80004f04	 x16:0x000007f2  x5:0x00000000
       68255000	      6824	80004ed0	01895db3	srl	x27,x18,x24	 x18:0x00000000 x24:0x00000001 x27=0x00000000
       68265000	      6825	80004ed4	0f7ce293	ori	x5,x25,247	 x25:0x00000000  x5=0x000000f7
       68275000	      6826	80004ed8	40415e13	srai	x28,x2,0x4	  x2:0x00000000 x28=0x00000000
       68285000	      6827	80004edc	02f8f263	bgeu	x17,x15,80004f00	 x17:0x00000000 x15:0x00000000
       68295000	      6828	00000000	00000013	addi	x0,x0,0	  x0:0x00000000
       68305000	      6829	80004efc	00000013	addi	x0,x0,0	  x0:0x00000000
       68315000	      6830	80004f00	01f85ab3	srl	x21,x16,x31	 x16:0x000007f2 x31:0x00000012 x21=0x00000000
       68325000	      6831	80004f04	01eb3eb3	sltu	x29,x22,x30	 x22:0x00000018 x30:0x00020497 x29=0x00000001
       68335000	      6832	80004f08	00000013	addi	x0,x0,0	  x0:0x00000000
       68345000	      6833	80004f0c	006335b3	sltu	x11,x6,x6	  x6:0x00000000  x6:0x00000000 x11=0x00000000
       68355000	      6834	80004f10	c2f8b693	sltiu	x13,x17,-977	 x17:0x00000000 x13=0x00000001
       68365000	      6835	80004f14	00aeb533	sltu	x10,x29,x10	 x29:0x00000001 x10:0x00000218 x10=0x00000001
       68375000	      6836	80004f18	6feb3e13	sltiu	x28,x22,1790	 x22:0x00000018 x28=0x00000001
       68385000	      6837	80004f1c	00a95113	srli	x2,x18,0xa	 x18:0x00000000  x2=0x00000000
       68395000	      6838	80004f20	01dc4633	xor	x12,x24,x29	 x24:0x00000001 x29:0x00000001 x12=0x00000000
       68405000	      6839	80004f24	02438063	beq	x7,x4,80004f44	  x7:0x80009fc4  x4:0x00000218
       68415000	      6840	80004f28	0361e263	bltu	x3,x22,80004f4c	  x3:0x00000150 x22:0x00000018
       68425000	      6841	80004f2c	002037b3	sltu	x15,x0,x2	  x0:0x00000000  x2:0x00000000 x15=0x00000000
       68435000	      6842	80004f30	d836a993	slti	x19,x13,-637	 x13:0x00000001 x19=0x00000000
       68445000	      6843	80004f34	b0c18c93	addi	x25,x3,-1268	  x3:0x00000150 x25=0xfffffc5c
       68455000	      6844	80004f38	0176ec33	or	x24,x13,x23	 x13:0x00000001 x23:0x51e4f000 x24=0x51e4f001
       68465000	      6845	80004f3c	842ac317	auipc	x6,0x842ac	  x6=0x042b0f38
       68475000	      6846	80004f40	03dbfe63	bgeu	x23,x29,80004f7c	 x23:0x51e4f000 x29:0x00000001
       68485000	      6847	00000000	00000013	addi	x0,x0,0	  x0:0x00000000
       68495000	      6848	80004f78	00000013	addi	x0,x0,0	  x0:0x00000000
       68505000	      6849	80004f7c	00bb6663	bltu	x22,x11,80004f88	 x22:0x00000018 x11:0x00000000
       68515000	      6850	80004f80	a134fe13	andi	x28,x9,-1517	  x9:0x00000000 x28=0x00000000
       68525000	      6851	80004f84	004124b3	slt	x9,x2,x4	  x2:0x00000000  x4:0x00000218  x9=0x00000001
       68535000	      6852	80004f88	018e3cb3	sltu	x25,x28,x24	 x28:0x00000000 x24:0x51e4f001 x25=0x00000001
       68545000	      6853	80004f8c	00a25863	bge	x4,x10,80004f9c	  x4:0x00000218 x10:0x00000001
       68555000	      6854	00000000	00000013	addi	x0,x0,0	  x0:0x00000000
       68565000	      6855	80004f98	00000013	addi	x0,x0,0	  x0:0x00000000
       68575000	      6856	80004f9c	94b3ac37	lui	x24,0x94b3a	 x24=0x94b3a000
       68585000	      6857	80004fa0	018dee63	bltu	x27,x24,80004fbc	 x27:0x00000000 x24:0x94b3a000
       68595000	      6858	00000000	00000013	addi	x0,x0,0	  x0:0x00000000
       68605000	      6859	80004fb8	00000013	addi	x0,x0,0	  x0:0x00000000
       68615000	      6860	80004fbc	003b9493	slli	x9,x23,0x3	 x23:0x51e4f000  x9=0x8f278000
       68625000	      6861	80004fc0	01d7ff33	and	x30,x15,x29	 x15:0x00000000 x29:0x00000001 x30=0x00000000
       68635000	      6862	80004fc4	01a21e33	sll	x28,x4,x26	  x4:0x00000218 x26:0x00000000 x28=0x00000218
       68645000	      6863	80004fc8	41075293	srai	x5,x14,0x10	 x14:0x0000014c  x5=0x00000000
       68655000	      6864	80004fcc	03110263	beq	x2,x17,80004ff0	  x2:0x00000000 x17:0x00000000
       68665000	      6865	00000000	00000013	addi	x0,x0,0	  x0:0x00000000
       68675000	      6866	80004fec	00000013	addi	x0,x0,0	  x0:0x00000000
       68685000	      6867	80004ff0	410e0eb3	sub	x29,x28,x16	 x28:0x00000218 x16:0x000007f2 x29=0xfffffa26
       68695000	      6868	80004ff4	d5a676b7	lui	x13,0xd5a67	 x13=0xd5a67000
       68705000	      6869	80004ff8	00d54233	xor	x4,x10,x13	 x10:0x00000001 x13:0xd5a67000  x4=0xd5a67001
       68715000	      6870	80004ffc	75a7fe13	andi	x28,x15,1882	 x15:0x00000000 x28=0x00000000
       68725000	      6871	80005000	40f75c13	srai	x24,x14,0xf	 x14:0x0000014c x24=0x00000000
       68735000	      6872	80005004	01744733	xor	x14,x8,x23	  x8:0x80009f00 x23:0x51e4f000 x14=0xd1e46f00
       68745000	      6873	80005008	7a22db97	auipc	x23,0x7a22d	 x23=0xfa232004
       68755000	      6874	8000500c	41aa0333	sub	x6,x20,x26	 x20:0xa15e4cb0 x26:0x00000000  x6=0xa15e4cb0
       68765000	      6875	80005010	0100f533	and	x10,x1,x16	  x1:0x00000000 x16:0x000007f2 x10=0x00000000
       68775000	      6876	80005014	41fc0833	sub	x16,x24,x31	 x24:0x00000000 x31:0x00000012 x16=0xffffffee
       68785000	      6877	80005018	41b9d833	sra	x16,x19,x27	 x19:0x00000000 x27:0x00000000 x16=0x00000000
       68795000	      6878	8000501c	8e2bf493	andi	x9,x23,-1822	 x23:0xfa232004  x9=0xfa232000
       68805000	      6879	80005020	40f95833	sra	x16,x18,x15	 x18:0x00000000 x15:0x00000000 x16=0x00000000
       68815000	      6880	80005024	04854463	blt	x10,x8,8000506c	 x10:0x00000000  x8:0x80009f00
       68825000	      6881	80005028	01654733	xor	x14,x10,x22	 x10:0x00000000 x22:0x00000018 x14=0x00000018
       68835000	      6882	8000502c	045b0063	beq	x22,x5,8000506c	 x22:0x00000018  x5:0x00000000
       68845000	      6883	80005030	02c5e063	bltu	x11,x12,80005050	 x11:0x00000000 x12:0x00000000
       68855000	      6884	80005034	00085863	bge	x16,x0,80005044	 x16:0x00000000  x0:0x00000000
       68865000	      6885	00000000	00000013	addi	x0,x0,0	  x0:0x00000000
       68875000	      6886	80005040	00000013	addi	x0,x0,0	  x0:0x00000000
       68885000	      6887	80005044	019130b3	sltu	x1,x2,x25	  x2:0x00000000 x25:0x00000001  x1=0x00000001
       68895000	      6888	80005048	004391b3	sll	x3,x7,x4	  x7:0x80009fc4  x4:0xd5a67001  x3=0x00013f88
       68905000	      6889	8000504c	b9a3e613	ori	x12,x7,-1126	  x7:0x80009fc4 x12=0xffffffde
       68915000	      6890	80005050	00000013	addi	x0,x0,0	  x0:0x00000000
       68925000	      6891	80005054	01aede13	srli	x28,x29,0x1a	 x29:0xfffffa26 x28=0x0000003f
       68935000	      6892	80005058	02788863	beq	x17,x7,80005088	 x17:0x00000000  x7:0x80009fc4
       68945000	      6893	8000505c	70b4c113	xori	x2,x9,1803	  x9:0xfa232000  x2=0xfa23270b
       68955000	      6894	80005060	028b4c63	blt	x22,x8,80005098	 x22:0x00000018  x8:0x80009f00
       68965000	      6895	80005064	0095eb33	or	x22,x11,x9	 x11:0x00000000  x9:0xfa232000 x22=0xfa232000
       68975000	      6896	80005068	0199b0b3	sltu	x1,x19,x25	 x19:0x00000000 x25:0x00000001  x1=0x00000001
       68985000	      6897	8000506c	9dd72d13	slti	x26,x14,-1571	 x14:0x00000018 x26=0x00000000
       68995000	      6898	80005070	018842b3	xor	x5,x16,x24	 x16:0x00000000 x24:0x00000000  x5=0x00000000
       69005000	      6899	80005074	01785463	bge	x16,x23,8000507c	 x16:0x00000000 x23:0xfa232004
       69015000	      6900	00000000	00000013	addi	x0,x0,0	  x0:0x00000000
       69025000	      6901	80005078	00000013	addi	x0,x0,0	  x0:0x00000000
       69035000	      6902	8000507c	02556463	bltu	x10,x5,800050a4	 x10:0x00000000  x5:0x00000000
       69045000	      6903	80005080	01ae9e13	slli	x28,x29,0x1a	 x29:0xfffffa26 x28=0x98000000
       69055000	      6904	80005084	c9202b13	slti	x22,x0,-878	  x0:0x00000000 x22=0x00000000
       69065000	      6905	80005088	007850b3	srl	x1,x16,x7	 x16:0x00000000  x7:0x80009fc4  x1=0x00000000
       69075000	      6906	8000508c	1e298513	addi	x10,x19,482	 x19:0x00000000 x10=0x000001e2
       69085000	      6907	80005090	aa867313	andi	x6,x12,-1368	 x12:0xffffffde  x6=0xfffffa88
       69095000	      6908	80005094	01c4c333	xor	x6,x9,x28	  x9:0xfa232000 x28:0x98000000  x6=0x62232000
       69105000	      6909	80005098	01e368b3	or	x17,x6,x30	  x6:0x62232000 x30:0x00000000 x17=0x62232000
       69115000	      6910	8000509c	00545013	srli	x0,x8,0x5	  x8:0x80009f00
       69125000	      6911	800050a0	a4aa0213	addi	x4,x20,-1462	 x20:0xa15e4cb0  x4=0xa15e46fa
       69135000	      6912	800050a4	40fc8833	sub	x16,x25,x15	 x25:0x00000001 x15:0x00000000 x16=0x00000001
       69145000	      6913	800050a8	00352d33	slt	x26,x10,x3	 x10:0x000001e2  x3:0x00013f88 x26=0x00000001
       69155000	      6914	800050ac	00ce4263	blt	x28,x12,800050b0	 x28:0x98000000 x12:0xffffffde
       69165000	      6915	00000000	00000013	addi	x0,x0,0	  x0:0x00000000
       69175000	      6916	800050ac	00000013	addi	x0,x0,0	  x0:0x00000000
       69185000	      6917	800050b0	0121f0b3	and	x1,x3,x18	  x3:0x00013f88 x18:0x00000000  x1=0x00000000
       69195000	      6918	800050b4	013b95b3	sll	x11,x23,x19	 x23:0xfa232004 x19:0x00000000 x11=0xfa232004
       69205000	      6919	800050b8	01f947b3	xor	x15,x18,x31	 x18:0x00000000 x31:0x00000012 x15=0x00000012
       69215000	      6920	800050bc	05577863	bgeu	x14,x21,8000510c	 x14:0x00000018 x21:0x00000000
       69225000	      6921	00000000	00000013	addi	x0,x0,0	  x0:0x00000000
       69235000	      6922	80005108	00000013	addi	x0,x0,0	  x0:0x00000000
       69245000	      6923	8000510c	00146fb3	or	x31,x8,x1	  x8:0x80009f00  x1:0x00000000 x31=0x80009f00
       69255000	      6924	80005110	012a0033	add	x0,x20,x18	 x20:0xa15e4cb0 x18:0x00000000
       69265000	      6925	80005114	000a6ab3	or	x21,x20,x0	 x20:0xa15e4cb0  x0:0x00000000 x21=0xa15e4cb0
       69275000	      6926	80005118	736f8d13	addi	x26,x31,1846	 x31:0x80009f00 x26=0x8000a636
       69285000	      6927	8000511c	008362b3	or	x5,x6,x8	  x6:0x62232000  x8:0x80009f00  x5=0xe223bf00
       69295000	      6928	80005120	40510333	sub	x6,x2,x5	  x2:0xfa23270b  x5:0xe223bf00  x6=0x17ff680b
       69305000	      6929	80005124	73f861b7	lui	x3,0x73f86	  x3=0x73f86000
       69315000	      6930	80005128	01d99d93	slli	x27,x19,0x1d	 x19:0x00000000 x27=0x00000000
       69325000	      6931	8000512c	d212fc97	auipc	x25,0xd212f	 x25=0x52134128
       69335000	      6932	80005130	00e89893	slli	x17,x17,0xe	 x17:0x62232000 x17=0xc8000000
       69345000	      6933	80005134	002d39b3	sltu	x19,x26,x2	 x26:0x8000a636  x2:0xfa23270b x19=0x00000001
       69355000	      6934	80005138	006dcc63	blt	x27,x6,80005150	 x27:0x00000000  x6:0x17ff680b
       69365000	      6935	00000000	00000013	addi	x0,x0,0	  x0:0x00000000
       69375000	      6936	8000514c	00000013	addi	x0,x0,0	  x0:0x00000000
       69385000	      6937	80005150	0377d863	bge	x15,x23,80005180	 x15:0x00000012 x23:0xfa232004
       69395000	      6938	00000000	00000013	addi	x0,x0,0	  x0:0x00000000
       69405000	      6939	8000517c	00000013	addi	x0,x0,0	  x0:0x00000000
       69415000	      6940	80005180	00aefe33	and	x28,x29,x10	 x29:0xfffffa26 x10:0x000001e2 x28=0x00000022
       69425000	      6941	80005184	40875e93	srai	x29,x14,0x8	 x14:0x00000018 x29=0x00000000
       69435000	      6942	80005188	016c6733	or	x14,x24,x22	 x24:0x00000000 x22:0x00000000 x14=0x00000000
       69445000	      6943	8000518c	41b75f93	srai	x31,x14,0x1b	 x14:0x00000000 x31=0x00000000
       69455000	      6944	80005190	01248b33	add	x22,x9,x18	  x9:0xfa232000 x18:0x00000000 x22=0xfa232000
       69465000	      6945	80005194	6daca093	slti	x1,x25,1754	 x25:0x52134128  x1=0x00000000
       69475000	      6946	80005198	01469f93	slli	x31,x13,0x14	 x13:0xd5a67000 x31=0x00000000
       69485000	      6947	8000519c	00f90463	beq	x18,x15,800051a4	 x18:0x00000000 x15:0x00000012
       69495000	      6948	800051a0	4131d1b3	sra	x3,x3,x19	  x3:0x73f86000 x19:0x00000001  x3=0x39fc3000
       69505000	      6949	800051a4	00753633	sltu	x12,x10,x7	 x10:0x000001e2  x7:0x80009fc4 x12=0x00000001
       69515000	      6950	800051a8	017e9c63	bne	x29,x23,800051c0	 x29:0x00000000 x23:0xfa232004
       69525000	      6951	00000000	00000013	addi	x0,x0,0	  x0:0x00000000
       69535000	      6952	800051bc	00000013	addi	x0,x0,0	  x0:0x00000000
       69545000	      6953	800051c0	409ed193	srai	x3,x29,0x9	 x29:0x00000000  x3=0x00000000
       69555000	      6954	800051c4	012a9663	bne	x21,x18,800051d0	 x21:0xa15e4cb0 x18:0x00000000
       69565000	      6955	00000000	00000013	addi	x0,x0,0	  x0:0x00000000
       69575000	      6956	800051cc	00000013	addi	x0,x0,0	  x0:0x00000000
       69585000	      6957	800051d0	84564793	xori	x15,x12,-1979	 x12:0x00000001 x15=0xfffff844
       69595000	      6958	800051d4	0002e233	or	x4,x5,x0	  x5:0xe223bf00  x0:0x00000000  x4=0xe223bf00
       69605000	      6959	800051d8	6e467913	andi	x18,x12,1764	 x12:0x00000001 x18=0x00000000
       69615000	      6960	800051dc	007a96b3	sll	x13,x21,x7	 x21:0xa15e4cb0  x7:0x80009fc4 x13=0x15e4cb00
       69625000	      6961	800051e0	4123df93	srai	x31,x7,0x12	  x7:0x80009fc4 x31=0xffffe000
       69635000	      6962	800051e4	53618493	addi	x9,x3,1334	  x3:0x00000000  x9=0x00000536
       69645000	      6963	800051e8	40c687b3	sub	x15,x13,x12	 x13:0x15e4cb00 x12:0x00000001 x15=0x15e4caff
       69655000	      6964	800051ec	05089063	bne	x17,x16,8000522c	 x17:0xc8000000 x16:0x00000001
       69665000	      6965	00000000	00000013	addi	x0,x0,0	  x0:0x00000000
       69675000	      6966	80005228	00000013	addi	x0,x0,0	  x0:0x00000000
       69685000	      6967	8000522c	017c0b33	add	x22,x24,x23	 x24:0x00000000 x23:0xfa232004 x22=0xfa232004
       69695000	      6968	80005230	004804b3	add	x9,x16,x4	 x16:0x00000001  x4:0xe223bf00  x9=0xe223bf01
       69705000	      6969	80005234	0176ff13	andi	x30,x13,23	 x13:0x15e4cb00 x30=0x00000000
       69715000	      6970	80005238	012bd313	srli	x6,x23,0x12	 x23:0xfa232004  x6=0x00003e88
       69725000	      6971	8000523c	00125e63	bge	x4,x1,80005258	  x4:0xe223bf00  x1:0x00000000
       69735000	      6972	80005240	00f79fb3	sll	x31,x15,x15	 x15:0x15e4caff x15:0x15e4caff x31=0x80000000
       69745000	      6973	80005244	abcba2b7	lui	x5,0xabcba	  x5=0xabcba000
       69755000	      6974	80005248	00d09913	slli	x18,x1,0xd	  x1:0x00000000 x18=0x00000000
       69765000	      6975	8000524c	41148c33	sub	x24,x9,x17	  x9:0xe223bf01 x17:0xc8000000 x24=0x1a23bf01
       69775000	      6976	80005250	408384b3	sub	x9,x7,x8	  x7:0x80009fc4  x8:0x80009f00  x9=0x000000c4
       69785000	      6977	80005254	00fd6fb3	or	x31,x26,x15	 x26:0x8000a636 x15:0x15e4caff x31=0x95e4eeff
       69795000	      6978	80005258	d1f6e937	lui	x18,0xd1f6e	 x18=0xd1f6e000
       69805000	      6979	8000525c	879a7613	andi	x12,x20,-1927	 x20:0xa15e4cb0 x12=0xa15e4830
       69815000	      6980	80005260	02fb4463	blt	x22,x15,80005288	 x22:0xfa232004 x15:0x15e4caff
       69825000	      6981	00000000	00000013	addi	x0,x0,0	  x0:0x00000000
       69835000	      6982	80005284	00000013	addi	x0,x0,0	  x0:0x00000000
       69845000	      6983	80005288	41155b93	srai	x23,x10,0x11	 x10:0x000001e2 x23=0x00000000
       69855000	      6984	8000528c	e746e313	ori	x6,x13,-396	 x13:0x15e4cb00  x6=0xffffff74
       69865000	      6985	80005290	003af7b3	and	x15,x21,x3	 x21:0xa15e4cb0  x3:0x00000000 x15=0x00000000
       69875000	      6986	80005294	00d6f333	and	x6,x13,x13	 x13:0x15e4cb00 x13:0x15e4cb00  x6=0x15e4cb00
       69885000	      6987	80005298	00442083	lw	x1,4(x8)	  x8:0x80009f00  x1=0x800005a0 PA:0x80009f04
       69895000	      6988	00000000	00000013	addi	x0,x0,0	  x0:0x00000000
       69905000	      6989	8000529c	40108eb3	sub	x29,x1,x1	  x1:0x800005a0  x1:0x800005a0 x29=0x00000000
       69915000	      6990	800052a0	03c40413	addi	x8,x8,60	  x8:0x80009f00  x8=0x80009f3c
       69925000	      6991	800052a4	001d7e33	and	x28,x26,x1	 x26:0x8000a636  x1:0x800005a0 x28=0x80000420
       69935000	      6992	800052a8	016e0533	add	x10,x28,x22	 x28:0x80000420 x22:0xfa232004 x10=0x7a232424
       69945000	      6993	800052ac	00008d93	addi	x27,x1,0	  x1:0x800005a0 x27=0x800005a0
       69955000	      6994	800052b0	000d8de7	jalr	x27,x27,0	 x27:0x800005a0 x27=0x800052b0
       69965000	      6995	00000000	00000013	addi	x0,x0,0	  x0:0x00000000
       69975000	      6996	800005a0	00000013	addi	x0,x0,0	  x0:0x00000000
       69985000	      6997	800005a4	0b85ba97	auipc	x21,0xb85b	 x21=0x8b85b5a0
       69995000	      6998	800005a8	112ff717	auipc	x14,0x112ff	 x14=0x912ff5a4
       70005000	      6999	800005ac	000aa6b3	slt	x13,x21,x0	 x21:0x8b85b5a0  x0:0x00000000 x13=0x00000001
       70015000	      7000	800005b0	00d35833	srl	x16,x6,x13	  x6:0x15e4cb00 x13:0x00000001 x16=0x0af26580
       70025000	      7001	800005b4	00005f17	auipc	x30,0x5	 x30=0x800055b0
       70035000	      7002	800005b8	d00f0f13	addi	x30,x30,-768	 x30:0x800055b0 x30=0x800052b0
       70045000	      7003	800005bc	12817b13	andi	x22,x2,296	  x2:0xfa23270b x22=0x00000108
       70055000	      7004	800005c0	00000013	addi	x0,x0,0	  x0:0x00000000
       70065000	      7005	800005c4	df0f0f13	addi	x30,x30,-528	 x30:0x800052b0 x30=0x800050a0
       70075000	      7006	800005c8	01538cb3	add	x25,x7,x21	  x7:0x80009fc4 x21:0x8b85b5a0 x25=0x0b865564
       70085000	      7007	800005cc	00fc8463	beq	x25,x15,800005d4	 x25:0x0b865564 x15:0x00000000
       70095000	      7008	800005d0	7c153313	sltiu	x6,x10,1985	 x10:0x7a232424  x6=0x00000000
       70105000	      7009	800005d4	211f00e7	jalr	x1,x30,529	 x30:0x800050a0  x1=0x800005d4
       70115000	      7010	00000000	00000013	addi	x0,x0,0	  x0:0x00000000
       70125000	      7011	800052b0	00000013	addi	x0,x0,0	  x0:0x00000000
       70135000	      7012	800052b4	fc040413	addi	x8,x8,-64	  x8:0x80009f3c  x8=0x80009efc
       70145000	      7013	800052b8	9ecc3313	sltiu	x6,x24,-1556	 x24:0x1a23bf01  x6=0x00000001
       70155000	      7014	800052bc	00142223	sw	x1,4(x8)	  x8:0x80009efc  x1:0x800005d4 PA:0x80009f00
       70165000	      7015	800052c0	dbbc0d93	addi	x27,x24,-581	 x24:0x1a23bf01 x27=0x1a23bcbc
       70175000	      7016	800052c4	01ad6b33	or	x22,x26,x26	 x26:0x8000a636 x26:0x8000a636 x22=0x8000a636
       70185000	      7017	800052c8	86160e13	addi	x28,x12,-1951	 x12:0xa15e4830 x28=0xa15e4091
       70195000	      7018	800052cc	ec3bfd13	andi	x26,x23,-317	 x23:0x00000000 x26=0x00000000
       70205000	      7019	800052d0	011ab6b3	sltu	x13,x21,x17	 x21:0x8b85b5a0 x17:0xc8000000 x13=0x00000001
       70215000	      7020	800052d4	0389d863	bge	x19,x24,80005304	 x19:0x00000001 x24:0x1a23bf01
       70225000	      7021	800052d8	0ff03fb7	lui	x31,0xff03	 x31=0x0ff03000
       70235000	      7022	800052dc	aa133f13	sltiu	x30,x6,-1375	  x6:0x00000001 x30=0x00000001
       70245000	      7023	800052e0	31c0ed93	ori	x27,x1,796	  x1:0x800005d4 x27=0x800007dc
       70255000	      7024	800052e4	00ab39b3	sltu	x19,x22,x10	 x22:0x8000a636 x10:0x7a232424 x19=0x00000000
       70265000	      7025	800052e8	00db56b3	srl	x13,x22,x13	 x22:0x8000a636 x13:0x00000001 x13=0x4000531b
       70275000	      7026	800052ec	01631c63	bne	x6,x22,80005304	  x6:0x00000001 x22:0x8000a636
       70285000	      7027	00000000	00000013	addi	x0,x0,0	  x0:0x00000000
       70295000	      7028	80005300	00000013	addi	x0,x0,0	  x0:0x00000000
       70305000	      7029	80005304	1d842037	lui	x0,0x1d842	
       70315000	      7030	80005308	00df10b3	sll	x1,x30,x13	 x30:0x00000001 x13:0x4000531b  x1=0x08000000
       70325000	      7031	8000530c	00000013	addi	x0,x0,0	  x0:0x00000000
       70335000	      7032	80005310	04baf063	bgeu	x21,x11,80005350	 x21:0x8b85b5a0 x11:0xfa232004
       70345000	      7033	80005314	02234c63	blt	x6,x2,8000534c	  x6:0x00000001  x2:0xfa23270b
       70355000	      7034	80005318	000bf6b3	and	x13,x23,x0	 x23:0x00000000  x0:0x00000000 x13=0x00000000
       70365000	      7035	8000531c	e8b65f17	auipc	x30,0xe8b65	 x30=0x68b6a318
       70375000	      7036	80005320	01f56933	or	x18,x10,x31	 x10:0x7a232424 x31:0x0ff03000 x18=0x7ff33424
       70385000	      7037	80005324	1899f717	auipc	x14,0x1899f	 x14=0x989a4320
       70395000	      7038	80005328	bb048537	lui	x10,0xbb048	 x10=0xbb048000
       70405000	      7039	8000532c	fcb51c97	auipc	x25,0xfcb51	 x25=0x7cb56328
       70415000	      7040	80005330	01298833	add	x16,x19,x18	 x19:0x00000000 x18:0x7ff33424 x16=0x7ff33424
       70425000	      7041	80005334	01363f33	sltu	x30,x12,x19	 x12:0xa15e4830 x19:0x00000000 x30=0x00000000
       70435000	      7042	80005338	017a6733	or	x14,x20,x23	 x20:0xa15e4cb0 x23:0x00000000 x14=0xa15e4cb0
       70445000	      7043	8000533c	009ee863	bltu	x29,x9,8000534c	 x29:0x00000000  x9:0x000000c4
       70455000	      7044	00000000	00000013	addi	x0,x0,0	  x0:0x00000000
       70465000	      7045	80005348	00000013	addi	x0,x0,0	  x0:0x00000000
       70475000	      7046	8000534c	0545e463	bltu	x11,x20,80005394	 x11:0xfa232004 x20:0xa15e4cb0
       70485000	      7047	80005350	00000013	addi	x0,x0,0	  x0:0x00000000
       70495000	      7048	80005354	407cd733	sra	x14,x25,x7	 x25:0x7cb56328  x7:0x80009fc4 x14=0x07cb5632
       70505000	      7049	80005358	00cb1533	sll	x10,x22,x12	 x22:0x8000a636 x12:0xa15e4830 x10=0xa6360000
       70515000	      7050	8000535c	033a8663	beq	x21,x19,80005388	 x21:0x8b85b5a0 x19:0x00000000
       70525000	      7051	80005360	02727a63	bgeu	x4,x7,80005394	  x4:0xe223bf00  x7:0x80009fc4
       70535000	      7052	00000000	00000013	addi	x0,x0,0	  x0:0x00000000
       70545000	      7053	80005390	00000013	addi	x0,x0,0	  x0:0x00000000
       70555000	      7054	80005394	06015617	auipc	x12,0x6015	 x12=0x8601a390
       70565000	      7055	80005398	4164d5b3	sra	x11,x9,x22	  x9:0x000000c4 x22:0x8000a636 x11=0x00000000
       70575000	      7056	8000539c	00442083	lw	x1,4(x8)	  x8:0x80009efc  x1=0x800005d4 PA:0x80009f00
       70585000	      7057	800053a0	00e3d933	srl	x18,x7,x14	  x7:0x80009fc4 x14:0x07cb5632 x18=0x00002000
       70595000	      7058	800053a4	01c0db93	srli	x23,x1,0x1c	  x1:0x800005d4 x23=0x00000008
       70605000	      7059	800053a8	40eb0d33	sub	x26,x22,x14	 x22:0x8000a636 x14:0x07cb5632 x26=0x78355004
       70615000	      7060	800053ac	04040413	addi	x8,x8,64	  x8:0x80009efc  x8=0x80009f3c
       70625000	      7061	800053b0	41395333	sra	x6,x18,x19	 x18:0x00002000 x19:0x00000000  x6=0x00002000
       70635000	      7062	800053b4	00008913	addi	x18,x1,0	  x1:0x800005d4 x18=0x800005d4
       70645000	      7063	800053b8	00090967	jalr	x18,x18,0	 x18:0x800005d4 x18=0x800053b8
       70655000	      7064	00000000	00000013	addi	x0,x0,0	  x0:0x00000000
       70665000	      7065	800005d4	00000013	addi	x0,x0,0	  x0:0x00000000
       70675000	      7066	800005d8	007d0db3	add	x27,x26,x7	 x26:0x78355004  x7:0x80009fc4 x27=0xf835efc8
       70685000	      7067	800005dc	e3c30913	addi	x18,x6,-452	  x6:0x00002000 x18=0x00001e3c
       70695000	      7068	800005e0	58b78593	addi	x11,x15,1419	 x15:0x00000000 x11=0x0000058b
       70705000	      7069	800005e4	0c985f97	auipc	x31,0xc985	 x31=0x8c9855e0
       70715000	      7070	800005e8	01ce6c33	or	x24,x28,x28	 x28:0xa15e4091 x28:0xa15e4091 x24=0xa15e4091
       70725000	      7071	800005ec	01b49863	bne	x9,x27,800005fc	  x9:0x000000c4 x27:0xf835efc8
       70735000	      7072	00000000	00000013	addi	x0,x0,0	  x0:0x00000000
       70745000	      7073	800005f8	00000013	addi	x0,x0,0	  x0:0x00000000
       70755000	      7074	800005fc	13917093	andi	x1,x2,313	  x2:0xfa23270b  x1=0x00000109
       70765000	      7075	80000600	005f7b33	and	x22,x30,x5	 x30:0x00000000  x5:0xabcba000 x22=0x00000000
       70775000	      7076	80000604	00442083	lw	x1,4(x8)	  x8:0x80009f3c  x1=0x80003880 PA:0x80009f40
       70785000	      7077	80000608	00840413	addi	x8,x8,8	  x8:0x80009f3c  x8=0x80009f44
       70795000	      7078	8000060c	00000013	addi	x0,x0,0	  x0:0x00000000
       70805000	      7079	80000610	00379013	slli	x0,x15,0x3	 x15:0x00000000
       70815000	      7080	80000614	00108c13	addi	x24,x1,1	  x1:0x80003880 x24=0x80003881
       70825000	      7081	80000618	000c0c67	jalr	x24,x24,0	 x24:0x80003881 x24=0x80000618
       70835000	      7082	00000000	00000013	addi	x0,x0,0	  x0:0x00000000
       70845000	      7083	80003880	00000013	addi	x0,x0,0	  x0:0x00000000
       70855000	      7084	80003884	00673633	sltu	x12,x14,x6	 x14:0x07cb5632  x6:0x00002000 x12=0x00000000
       70865000	      7085	80003888	06a48313	addi	x6,x9,106	  x9:0x000000c4  x6=0x0000012e
       70875000	      7086	8000388c	00459833	sll	x16,x11,x4	 x11:0x0000058b  x4:0xe223bf00 x16=0x0000058b
       70885000	      7087	80003890	d0aa1517	auipc	x10,0xd0aa1	 x10=0x50aa488c
       70895000	      7088	80003894	01d67cb3	and	x25,x12,x29	 x12:0x00000000 x29:0x00000000 x25=0x00000000
       70905000	      7089	80003898	010146b3	xor	x13,x2,x16	  x2:0xfa23270b x16:0x0000058b x13=0xfa232280
       70915000	      7090	8000389c	03ba7463	bgeu	x20,x27,800038c4	 x20:0xa15e4cb0 x27:0xf835efc8
       70925000	      7091	800038a0	412050b3	sra	x1,x0,x18	  x0:0x00000000 x18:0x00001e3c  x1=0x00000000
       70935000	      7092	800038a4	41565ab3	sra	x21,x12,x21	 x12:0x00000000 x21:0x8b85b5a0 x21=0x00000000
       70945000	      7093	800038a8	013f4e63	blt	x30,x19,800038c4	 x30:0x00000000 x19:0x00000000
       70955000	      7094	800038ac	01ab4e63	blt	x22,x26,800038c8	 x22:0x00000000 x26:0x78355004
       70965000	      7095	00000000	00000013	addi	x0,x0,0	  x0:0x00000000
       70975000	      7096	800038c4	00000013	addi	x0,x0,0	  x0:0x00000000
       70985000	      7097	800038c8	9572a593	slti	x11,x5,-1705	  x5:0xabcba000 x11=0x00000001
       70995000	      7098	800038cc	00442083	lw	x1,4(x8)	  x8:0x80009f44  x1=0x80000224 PA:0x80009f48
       71005000	      7099	800038d0	04040413	addi	x8,x8,64	  x8:0x80009f44  x8=0x80009f84
       71015000	      7100	800038d4	01b19e33	sll	x28,x3,x27	  x3:0x00000000 x27:0xf835efc8 x28=0x00000000
       71025000	      7101	800038d8	9f152493	slti	x9,x10,-1551	 x10:0x50aa488c  x9=0x00000000
       71035000	      7102	800038dc	00e7ecb3	or	x25,x15,x14	 x15:0x00000000 x14:0x07cb5632 x25=0x07cb5632
       71045000	      7103	800038e0	e3d88e93	addi	x29,x17,-451	 x17:0xc8000000 x29=0xc7fffe3d
       71055000	      7104	800038e4	01454d33	xor	x26,x10,x20	 x10:0x50aa488c x20:0xa15e4cb0 x26=0xf1f4043c
       71065000	      7105	800038e8	dff2e293	ori	x5,x5,-513	  x5:0xabcba000  x5=0xfffffdff
       71075000	      7106	800038ec	01969993	slli	x19,x13,0x19	 x13:0xfa232280 x19=0x00000000
       71085000	      7107	800038f0	004be7b3	or	x15,x23,x4	 x23:0x00000008  x4:0xe223bf00 x15=0xe223bf08
       71095000	      7108	800038f4	00008293	addi	x5,x1,0	  x1:0x80000224  x5=0x80000224
       71105000	      7109	800038f8	000282e7	jalr	x5,x5,0	  x5:0x80000224  x5=0x800038f8
       71115000	      7110	00000000	00000013	addi	x0,x0,0	  x0:0x00000000
       71125000	      7111	80000224	00000013	addi	x0,x0,0	  x0:0x00000000
       71135000	      7112	80000228	69ced6b7	lui	x13,0x69ced	 x13=0x69ced000
       71145000	      7113	8000022c	43333913	sltiu	x18,x6,1075	  x6:0x0000012e x18=0x00000001
       71155000	      7114	80000230	8fa98713	addi	x14,x19,-1798	 x19:0x00000000 x14=0xfffff8fa
       71165000	      7115	80000234	51293f13	sltiu	x30,x18,1298	 x18:0x00000001 x30=0x00000001
       71175000	      7116	80000238	002255b3	srl	x11,x4,x2	  x4:0xe223bf00  x2:0xfa23270b x11=0x001c4477
       71185000	      7117	8000023c	01291913	slli	x18,x18,0x12	 x18:0x00000001 x18=0x00040000
       71195000	      7118	80000240	009f1033	sll	x0,x30,x9	 x30:0x00000001  x9:0x00000000
       71205000	      7119	80000244	00d369b3	or	x19,x6,x13	  x6:0x0000012e x13:0x69ced000 x19=0x69ced12e
       71215000	      7120	80000248	40140b33	sub	x22,x8,x1	  x8:0x80009f84  x1:0x80000224 x22=0x00009d60
       71225000	      7121	8000024c	004df233	and	x4,x27,x4	 x27:0xf835efc8  x4:0xe223bf00  x4=0xe021af00
       71235000	      7122	80000250	007f85b3	add	x11,x31,x7	 x31:0x8c9855e0  x7:0x80009fc4 x11=0x0c98f5a4
       71245000	      7123	80000254	00d00033	add	x0,x0,x13	  x0:0x00000000 x13:0x69ced000
       71255000	      7124	80000258	00542c33	slt	x24,x8,x5	  x8:0x80009f84  x5:0x800038f8 x24=0x00000000
       71265000	      7125	8000025c	00fc52b3	srl	x5,x24,x15	 x24:0x00000000 x15:0xe223bf08  x5=0x00000000
       71275000	      7126	80000260	00aa9833	sll	x16,x21,x10	 x21:0x00000000 x10:0x50aa488c x16=0x00000000
       71285000	      7127	80000264	00d24233	xor	x4,x4,x13	  x4:0xe021af00 x13:0x69ced000  x4=0x89ef7f00
       71295000	      7128	80000268	0074e933	or	x18,x9,x7	  x9:0x00000000  x7:0x80009fc4 x18=0x80009fc4
       71305000	      7129	8000026c	d7646813	ori	x16,x8,-650	  x8:0x80009f84 x16=0xfffffff6
       71315000	      7130	80000270	0013dc33	srl	x24,x7,x1	  x7:0x80009fc4  x1:0x80000224 x24=0x080009fc
       71325000	      7131	80000274	05a1d663	bge	x3,x26,800002c0	  x3:0x00000000 x26:0xf1f4043c
       71335000	      7132	00000000	00000013	addi	x0,x0,0	  x0:0x00000000
       71345000	      7133	800002bc	00000013	addi	x0,x0,0	  x0:0x00000000
       71355000	      7134	800002c0	82044213	xori	x4,x8,-2016	  x8:0x80009f84  x4=0x7fff67a4
       71365000	      7135	800002c4	018ad513	srli	x10,x21,0x18	 x21:0x00000000 x10=0x00000000
       71375000	      7136	800002c8	ea7c6d97	auipc	x27,0xea7c6	 x27=0x6a7c62c4
       71385000	      7137	800002cc	a92a65b7	lui	x11,0xa92a6	 x11=0xa92a6000
       71395000	      7138	800002d0	415ed133	sra	x2,x29,x21	 x29:0xc7fffe3d x21:0x00000000  x2=0xc7fffe3d
       71405000	      7139	800002d4	00000013	addi	x0,x0,0	  x0:0x00000000
       71415000	      7140	800002d8	000348b3	xor	x17,x6,x0	  x6:0x0000012e  x0:0x00000000 x17=0x0000012e
       71425000	      7141	800002dc	01d05db3	srl	x27,x0,x29	  x0:0x00000000 x29:0xc7fffe3d x27=0x00000000
       71435000	      7142	800002e0	40c75c13	srai	x24,x14,0xc	 x14:0xfffff8fa x24=0xffffffff
       71445000	      7143	800002e4	00c918b3	sll	x17,x18,x12	 x18:0x80009fc4 x12:0x00000000 x17=0x80009fc4
       71455000	      7144	800002e8	00b81db3	sll	x27,x16,x11	 x16:0xfffffff6 x11:0xa92a6000 x27=0xfffffff6
       71465000	      7145	800002ec	01b931b3	sltu	x3,x18,x27	 x18:0x80009fc4 x27:0xfffffff6  x3=0x00000001
       71475000	      7146	800002f0	00da9193	slli	x3,x21,0xd	 x21:0x00000000  x3=0x00000000
       71485000	      7147	800002f4	00000013	addi	x0,x0,0	  x0:0x00000000
       71495000	      7148	800002f8	6da3ab13	slti	x22,x7,1754	  x7:0x80009fc4 x22=0x00000001
       71505000	      7149	800002fc	c4db3593	sltiu	x11,x22,-947	 x22:0x00000001 x11=0x00000001
       71515000	      7150	80000300	01af9133	sll	x2,x31,x26	 x31:0x8c9855e0 x26:0xf1f4043c  x2=0x00000000
       71525000	      7151	80000304	61bf7213	andi	x4,x30,1563	 x30:0x00000001  x4=0x00000001
       71535000	      7152	80000308	0116fe63	bgeu	x13,x17,80000324	 x13:0x69ced000 x17:0x80009fc4
       71545000	      7153	8000030c	007fee63	bltu	x31,x7,80000328	 x31:0x8c9855e0  x7:0x80009fc4
       71555000	      7154	80000310	00c3d493	srli	x9,x7,0xc	  x7:0x80009fc4  x9=0x00080009
       71565000	      7155	80000314	d9e62193	slti	x3,x12,-610	 x12:0x00000000  x3=0x00000000
       71575000	      7156	80000318	40d9df93	srai	x31,x19,0xd	 x19:0x69ced12e x31=0x00034e76
       71585000	      7157	8000031c	013e6cb3	or	x25,x28,x19	 x28:0x00000000 x19:0x69ced12e x25=0x69ced12e
       71595000	      7158	80000320	00809a63	bne	x1,x8,80000334	  x1:0x80000224  x8:0x80009f84
       71605000	      7159	00000000	00000013	addi	x0,x0,0	  x0:0x00000000
       71615000	      7160	80000330	00000013	addi	x0,x0,0	  x0:0x00000000
       71625000	      7161	80000334	c54c0593	addi	x11,x24,-940	 x24:0xffffffff x11=0xfffffc53
       71635000	      7162	80000338	00000a17	auipc	x20,0x0	 x20=0x80000334
       71645000	      7163	8000033c	00ca0a13	addi	x20,x20,12	 x20:0x80000334 x20=0x80000340
       71655000	      7164	80000340	000a0067	jalr	x0,x20,0	 x20:0x80000340
       71665000	      7165	00000000	00000013	addi	x0,x0,0	  x0:0x00000000
       71675000	      7166	80000340	00000013	addi	x0,x0,0	  x0:0x00000000
       71685000	      7167	80000344	00100193	addi	x3,x0,1	  x0:0x00000000  x3=0x00000001
       71695000	      7168	80000348	00000073	ecall	
       71705000	      7169	8000034c	00000013	addi	x0,x0,0	  x0:0x00000000
