		Time			Cycle	PC		Insn	Decoded instruction	Register and memory contents
          65000	         5	80000004	00000293	addi	x5,x0,0	  x0:0x00000000  x5=0x00000000
          75000	         6	80000008	00000313	addi	x6,x0,0	  x0:0x00000000  x6=0x00000000
          85000	         7	8000000c	00628263	beq	x5,x6,80000010	  x5:0x00000000  x6:0x00000000
          95000	         8	00000000	00000013	addi	x0,x0,0	  x0:0x00000000
         105000	         9	8000000c	00000013	addi	x0,x0,0	  x0:0x00000000
         115000	        10	80000010	00000797	auipc	x15,0x0	 x15=0x8000000c
         125000	        11	80000014	00c78793	addi	x15,x15,12	 x15:0x8000000c x15=0x80000018
         135000	        12	80000018	00078067	jalr	x0,x15,0	 x15:0x80000018
         145000	        13	00000000	00000013	addi	x0,x0,0	  x0:0x00000000
         155000	        14	80000018	00000013	addi	x0,x0,0	  x0:0x00000000
         165000	        15	8000001c	40000fb7	lui	x31,0x40000	 x31=0x40000000
         175000	        16	80000020	100f8f93	addi	x31,x31,256	 x31:0x40000000 x31=0x40000100
         185000	        17	80000024	00000013	addi	x0,x0,0	  x0:0x00000000
         195000	        18	80000028	0000a417	auipc	x8,0xa	  x8=0x8000a024
         205000	        19	8000002c	fa040413	addi	x8,x8,-96	  x8:0x8000a024  x8=0x80009fc4
         215000	        20	80000030	00007f97	auipc	x31,0x7	 x31=0x8000702c
         225000	        21	80000034	5d4f8f93	addi	x31,x31,1492	 x31:0x8000702c x31=0x80007600
         235000	        22	80000038	001fef93	ori	x31,x31,1	 x31:0x80007600 x31=0x80007601
         245000	        23	8000003c	00000013	addi	x0,x0,0	  x0:0x00000000
         255000	        24	80000040	00000f97	auipc	x31,0x0	 x31=0x8000003c
         265000	        25	80000044	020f8f93	addi	x31,x31,32	 x31:0x8000003c x31=0x8000005c
         275000	        26	80000048	00000013	addi	x0,x0,0	  x0:0x00000000
         285000	        27	8000004c	00000013	addi	x0,x0,0	  x0:0x00000000
         295000	        28	80000050	00002fb7	lui	x31,0x2	 x31=0x00002000
         305000	        29	80000054	800f8f93	addi	x31,x31,-2048	 x31:0x00002000 x31=0x00001800
         315000	        30	80000058	00000013	addi	x0,x0,0	  x0:0x00000000
         325000	        31	8000005c	00000013	addi	x0,x0,0	  x0:0x00000000
         335000	        32	80000060	00000013	addi	x0,x0,0	  x0:0x00000000
         345000	        33	80000064	00300093	addi	x1,x0,3	  x0:0x00000000  x1=0x00000003
         355000	        34	80000068	00000113	addi	x2,x0,0	  x0:0x00000000  x2=0x00000000
         365000	        35	8000006c	f769e1b7	lui	x3,0xf769e	  x3=0xf769e000
         375000	        36	80000070	48318193	addi	x3,x3,1155	  x3:0xf769e000  x3=0xf769e483
         385000	        37	80000074	80000237	lui	x4,0x80000	  x4=0x80000000
         395000	        38	80000078	d926e2b7	lui	x5,0xd926e	  x5=0xd926e000
         405000	        39	8000007c	bb928293	addi	x5,x5,-1095	  x5:0xd926e000  x5=0xd926dbb9
         415000	        40	80000080	f4759337	lui	x6,0xf4759	  x6=0xf4759000
         425000	        41	80000084	62730313	addi	x6,x6,1575	  x6:0xf4759000  x6=0xf4759627
         435000	        42	80000088	00000393	addi	x7,x0,0	  x0:0x00000000  x7=0x00000000
         445000	        43	8000008c	800004b7	lui	x9,0x80000	  x9=0x80000000
         455000	        44	80000090	00000513	addi	x10,x0,0	  x0:0x00000000 x10=0x00000000
         465000	        45	80000094	800005b7	lui	x11,0x80000	 x11=0x80000000
         475000	        46	80000098	80000637	lui	x12,0x80000	 x12=0x80000000
         485000	        47	8000009c	2397b6b7	lui	x13,0x2397b	 x13=0x2397b000
         495000	        48	800000a0	b1668693	addi	x13,x13,-1258	 x13:0x2397b000 x13=0x2397ab16
         505000	        49	800000a4	80000737	lui	x14,0x80000	 x14=0x80000000
         515000	        50	800000a8	00000793	addi	x15,x0,0	  x0:0x00000000 x15=0x00000000
         525000	        51	800000ac	00000813	addi	x16,x0,0	  x0:0x00000000 x16=0x00000000
         535000	        52	800000b0	00000893	addi	x17,x0,0	  x0:0x00000000 x17=0x00000000
         545000	        53	800000b4	00500913	addi	x18,x0,5	  x0:0x00000000 x18=0x00000005
         555000	        54	800000b8	800009b7	lui	x19,0x80000	 x19=0x80000000
         565000	        55	800000bc	00000a13	addi	x20,x0,0	  x0:0x00000000 x20=0x00000000
         575000	        56	800000c0	80000ab7	lui	x21,0x80000	 x21=0x80000000
         585000	        57	800000c4	fb2e5b37	lui	x22,0xfb2e5	 x22=0xfb2e5000
         595000	        58	800000c8	146b0b13	addi	x22,x22,326	 x22:0xfb2e5000 x22=0xfb2e5146
         605000	        59	800000cc	00000b93	addi	x23,x0,0	  x0:0x00000000 x23=0x00000000
         615000	        60	800000d0	f9212c37	lui	x24,0xf9212	 x24=0xf9212000
         625000	        61	800000d4	dd5c0c13	addi	x24,x24,-555	 x24:0xf9212000 x24=0xf9211dd5
         635000	        62	800000d8	00e00c93	addi	x25,x0,14	  x0:0x00000000 x25=0x0000000e
         645000	        63	800000dc	f3355d37	lui	x26,0xf3355	 x26=0xf3355000
         655000	        64	800000e0	6fad0d13	addi	x26,x26,1786	 x26:0xf3355000 x26=0xf33556fa
         665000	        65	800000e4	00d00d93	addi	x27,x0,13	  x0:0x00000000 x27=0x0000000d
         675000	        66	800000e8	61189e37	lui	x28,0x61189	 x28=0x61189000
         685000	        67	800000ec	93be0e13	addi	x28,x28,-1733	 x28:0x61189000 x28=0x6118893b
         695000	        68	800000f0	00300f13	addi	x30,x0,3	  x0:0x00000000 x30=0x00000003
         705000	        69	800000f4	f7a32fb7	lui	x31,0xf7a32	 x31=0xf7a32000
         715000	        70	800000f8	807f8f93	addi	x31,x31,-2041	 x31:0xf7a32000 x31=0xf7a31807
         725000	        71	800000fc	0000ae97	auipc	x29,0xa	 x29=0x8000a0f8
         735000	        72	80000100	e8ce8e93	addi	x29,x29,-372	 x29:0x8000a0f8 x29=0x80009f84
         745000	        73	80000104	00006897	auipc	x17,0x6	 x17=0x80006100
         755000	        74	80000108	d3888893	addi	x17,x17,-712	 x17:0x80006100 x17=0x80005e38
         765000	        75	8000010c	2d646813	ori	x16,x8,726	  x8:0x80009fc4 x16=0x80009fd6
         775000	        76	80000110	eef88893	addi	x17,x17,-273	 x17:0x80005e38 x17=0x80005d27
         785000	        77	80000114	00365a33	srl	x20,x12,x3	 x12:0x80000000  x3:0xf769e483 x20=0x10000000
         795000	        78	80000118	401b5c13	srai	x24,x22,0x1	 x22:0xfb2e5146 x24=0xfd9728a3
         805000	        79	8000011c	41c9dd13	srai	x26,x19,0x1c	 x19:0x80000000 x26=0xfffffff8
         815000	        80	80000120	00ed7333	and	x6,x26,x14	 x26:0xfffffff8 x14:0x80000000  x6=0x80000000
         825000	        81	80000124	11288f67	jalr	x30,x17,274	 x17:0x80005d27 x30=0x80000124
         835000	        82	00000000	00000013	addi	x0,x0,0	  x0:0x00000000
         845000	        83	80005e38	00000013	addi	x0,x0,0	  x0:0x00000000
         855000	        84	80005e3c	4114da13	srai	x20,x9,0x11	  x9:0x80000000 x20=0xffffc000
         865000	        85	80005e40	fc0e8e93	addi	x29,x29,-64	 x29:0x80009f84 x29=0x80009f44
         875000	        86	80005e44	01eea223	sw	x30,4(x29)	 x29:0x80009f44 x30:0x80000124 PA:0x80009f48
         885000	        87	80005e48	84966993	ori	x19,x12,-1975	 x12:0x80000000 x19=0xfffff849
         895000	        88	80005e4c	408bd113	srai	x2,x23,0x8	 x23:0x00000000  x2=0x00000000
         905000	        89	80005e50	00002b97	auipc	x23,0x2	 x23=0x80007e4c
         915000	        90	80005e54	629b8b93	addi	x23,x23,1577	 x23:0x80007e4c x23=0x80008475
         925000	        91	80005e58	fe8b8383	lb	x7,-24(x23)	 x23:0x80008475  x7=0x00000000 PA:0x8000845d
         935000	        92	80005e5c	00000013	addi	x0,x0,0	  x0:0x00000000
         945000	        93	80005e60	2e9b8f83	lb	x31,745(x23)	 x23:0x80008475 x31=0x00000000 PA:0x8000875e
         955000	        94	80005e64	01ecfdb3	and	x27,x25,x30	 x25:0x0000000e x30:0x80000124 x27=0x00000004
         965000	        95	80005e68	01795e33	srl	x28,x18,x23	 x18:0x00000005 x23:0x80008475 x28=0x00000000
         975000	        96	80005e6c	e8bb8123	sb	x11,-382(x23)	 x23:0x80008475 x11:0x80000000 PA:0x800082f7
         985000	        97	80005e70	d9e2b013	sltiu	x0,x5,-610	  x5:0xd926dbb9
         995000	        98	80005e74	014c7c33	and	x24,x24,x20	 x24:0xfd9728a3 x20:0xffffc000 x24=0xfd970000
        1005000	        99	80005e78	2c3b8703	lb	x14,707(x23)	 x23:0x80008475 x14=0x00000000 PA:0x80008738
        1015000	       100	80005e7c	073b8823	sb	x19,112(x23)	 x23:0x80008475 x19:0xfffff849 PA:0x800084e5
        1025000	       101	80005e80	00689a93	slli	x21,x17,0x6	 x17:0x80005d27 x21=0x001749c0
        1035000	       102	80005e84	d4eb8883	lb	x17,-690(x23)	 x23:0x80008475 x17=0x00000000 PA:0x800081c3
        1045000	       103	80005e88	00723db3	sltu	x27,x4,x7	  x4:0x80000000  x7:0x00000000 x27=0x00000000
        1055000	       104	80005e8c	128b8483	lb	x9,296(x23)	 x23:0x80008475  x9=0x00000000 PA:0x8000859d
        1065000	       105	80005e90	693fc913	xori	x18,x31,1683	 x31:0x00000000 x18=0x00000693
        1075000	       106	80005e94	19ab8e03	lb	x28,410(x23)	 x23:0x80008475 x28=0x00000000 PA:0x8000860f
        1085000	       107	80005e98	d96b8c23	sb	x22,-616(x23)	 x23:0x80008475 x22:0xfb2e5146 PA:0x8000820d
        1095000	       108	80005e9c	c9823613	sltiu	x12,x4,-872	  x4:0x80000000 x12=0x00000001
        1105000	       109	80005ea0	fe0b8083	lb	x1,-32(x23)	 x23:0x80008475  x1=0x00000000 PA:0x80008455
        1115000	       110	80005ea4	0d8b8e23	sb	x24,220(x23)	 x23:0x80008475 x24:0xfd970000 PA:0x80008551
        1125000	       111	80005ea8	1698c013	xori	x0,x17,361	 x17:0x00000000
        1135000	       112	80005eac	c27b8a23	sb	x7,-972(x23)	 x23:0x80008475  x7:0x00000000 PA:0x800080a9
        1145000	       113	80005eb0	00f09093	slli	x1,x1,0xf	  x1:0x00000000  x1=0x00000000
        1155000	       114	80005eb4	bd4b8d03	lb	x26,-1068(x23)	 x23:0x80008475 x26=0x00000000 PA:0x80008049
        1165000	       115	80005eb8	40aad293	srai	x5,x21,0xa	 x21:0x001749c0  x5=0x000005d2
        1175000	       116	80005ebc	df8bc993	xori	x19,x23,-520	 x23:0x80008475 x19=0x7fff798d
        1185000	       117	80005ec0	0e3b8b23	sb	x3,246(x23)	 x23:0x80008475  x3:0xf769e483 PA:0x8000856b
        1195000	       118	80005ec4	02dbcd83	lbu	x27,45(x23)	 x23:0x80008475 x27=0x00000000 PA:0x800084a2
        1205000	       119	80005ec8	09cb8fa3	sb	x28,159(x23)	 x23:0x80008475 x28:0x00000000 PA:0x80008514
        1215000	       120	80005ecc	01d75c13	srli	x24,x14,0x1d	 x14:0x00000000 x24=0x00000000
        1225000	       121	80005ed0	fe0bc683	lbu	x13,-32(x23)	 x23:0x80008475 x13=0x00000000 PA:0x80008455
        1235000	       122	80005ed4	37ebc483	lbu	x9,894(x23)	 x23:0x80008475  x9=0x00000000 PA:0x800087f3
        1245000	       123	80005ed8	40ab0233	sub	x4,x22,x10	 x22:0xfb2e5146 x10:0x00000000  x4=0xfb2e5146
        1255000	       124	80005edc	01064833	xor	x16,x12,x16	 x12:0x00000001 x16:0x80009fd6 x16=0x80009fd7
        1265000	       125	80005ee0	ea7b9203	lh	x4,-345(x23)	 x23:0x80008475  x4=0x00000000 PA:0x8000831c
        1275000	       126	80005ee4	e872cc13	xori	x24,x5,-377	  x5:0x000005d2 x24=0xfffffb55
        1285000	       127	80005ee8	deab8c83	lb	x25,-534(x23)	 x23:0x80008475 x25=0x00000000 PA:0x8000825f
        1295000	       128	80005eec	72aaa893	slti	x17,x21,1834	 x21:0x001749c0 x17=0x00000000
        1305000	       129	80005ef0	13fb8c23	sb	x31,312(x23)	 x23:0x80008475 x31:0x00000000 PA:0x800085ad
        1315000	       130	80005ef4	41220cb3	sub	x25,x4,x18	  x4:0x00000000 x18:0x00000693 x25=0xfffff96d
        1325000	       131	80005ef8	332bc303	lbu	x6,818(x23)	 x23:0x80008475  x6=0x00000000 PA:0x800087a7
        1335000	       132	80005efc	001bcab3	xor	x21,x23,x1	 x23:0x80008475  x1:0x00000000 x21=0x80008475
        1345000	       133	80005f00	00000013	addi	x0,x0,0	  x0:0x00000000
        1355000	       134	80005f04	73783d13	sltiu	x26,x16,1847	 x16:0x80009fd7 x26=0x00000000
        1365000	       135	80005f08	e8eb8023	sb	x14,-384(x23)	 x23:0x80008475 x14:0x00000000 PA:0x800082f5
        1375000	       136	80005f0c	c98b8983	lb	x19,-872(x23)	 x23:0x80008475 x19=0x00000000 PA:0x8000810d
        1385000	       137	80005f10	ea9b8f83	lb	x31,-343(x23)	 x23:0x80008475 x31=0x00000000 PA:0x8000831e
        1395000	       138	80005f14	008f7733	and	x14,x30,x8	 x30:0x80000124  x8:0x80009fc4 x14=0x80000104
        1405000	       139	80005f18	cb9b9003	lh	x0,-839(x23)	 x23:0x80008475 PA:0x8000812e
        1415000	       140	80005f1c	00002c97	auipc	x25,0x2	 x25=0x80007f18
        1425000	       141	80005f20	581c8c93	addi	x25,x25,1409	 x25:0x80007f18 x25=0x80008499
        1435000	       142	80005f24	0030a133	slt	x2,x1,x3	  x1:0x00000000  x3:0xf769e483  x2=0x00000000
        1445000	       143	80005f28	cefc8703	lb	x14,-785(x25)	 x25:0x80008499 x14=0x00000000 PA:0x80008188
        1455000	       144	80005f2c	99a5e593	ori	x11,x11,-1638	 x11:0x80000000 x11=0xfffff99a
        1465000	       145	80005f30	1b2c8883	lb	x17,434(x25)	 x25:0x80008499 x17=0x00000000 PA:0x8000864b
        1475000	       146	80005f34	ee03e093	ori	x1,x7,-288	  x7:0x00000000  x1=0xfffffee0
        1485000	       147	80005f38	18bca603	lw	x12,395(x25)	 x25:0x80008499 x12=0x00000000 PA:0x80008624
        1495000	       148	80005f3c	453e6913	ori	x18,x28,1107	 x28:0x00000000 x18=0x00000453
        1505000	       149	80005f40	138ca9a3	sw	x24,307(x25)	 x25:0x80008499 x24:0xfffffb55 PA:0x800085cc
        1515000	       150	80005f44	00a6c033	xor	x0,x13,x10	 x13:0x00000000 x10:0x00000000
        1525000	       151	80005f48	0068e533	or	x10,x17,x6	 x17:0x00000000  x6:0x00000000 x10=0x00000000
        1535000	       152	80005f4c	004256b3	srl	x13,x4,x4	  x4:0x00000000  x4:0x00000000 x13=0x00000000
        1545000	       153	80005f50	f5cccc03	lbu	x24,-164(x25)	 x25:0x80008499 x24=0x00000000 PA:0x800083f5
        1555000	       154	80005f54	8318c113	xori	x2,x17,-1999	 x17:0x00000000  x2=0xfffff831
        1565000	       155	80005f58	019cb133	sltu	x2,x25,x25	 x25:0x80008499 x25:0x80008499  x2=0x00000000
        1575000	       156	80005f5c	41cb8f33	sub	x30,x23,x28	 x23:0x80008475 x28:0x00000000 x30=0x80008475
        1585000	       157	80005f60	00d89333	sll	x6,x17,x13	 x17:0x00000000 x13:0x00000000  x6=0x00000000
        1595000	       158	80005f64	eaecca03	lbu	x20,-338(x25)	 x25:0x80008499 x20=0x00000000 PA:0x80008347
        1605000	       159	80005f68	e31c9e03	lh	x28,-463(x25)	 x25:0x80008499 x28=0x00000000 PA:0x800082ca
        1615000	       160	80005f6c	d3ecc803	lbu	x16,-706(x25)	 x25:0x80008499 x16=0x00000000 PA:0x800081d7
        1625000	       161	00000000	00000013	addi	x0,x0,0	  x0:0x00000000
        1635000	       162	80005f70	350c8183	lb	x3,848(x25)	 x25:0x80008499  x3=0x00000000 PA:0x800087e9
        1645000	       163	80005f74	288c8f83	lb	x31,648(x25)	 x25:0x80008499 x31=0x00000000 PA:0x80008721
        1655000	       164	80005f78	666bcb13	xori	x22,x23,1638	 x23:0x80008475 x22=0x80008213
        1665000	       165	80005f7c	0c8c8223	sb	x8,196(x25)	 x25:0x80008499  x8:0x80009fc4 PA:0x8000855d
        1675000	       166	80005f80	2cf22293	slti	x5,x4,719	  x4:0x00000000  x5=0x00000001
        1685000	       167	80005f84	1cecc583	lbu	x11,462(x25)	 x25:0x80008499 x11=0x00000000 PA:0x80008667
        1695000	       168	80005f88	00801c33	sll	x24,x0,x8	  x0:0x00000000  x8:0x80009fc4 x24=0x00000000
        1705000	       169	80005f8c	1e2cc483	lbu	x9,482(x25)	 x25:0x80008499  x9=0x00000000 PA:0x8000867b
        1715000	       170	80005f90	ccbcae03	lw	x28,-821(x25)	 x25:0x80008499 x28=0x00000000 PA:0x80008164
        1725000	       171	80005f94	01e31533	sll	x10,x6,x30	  x6:0x00000000 x30:0x80008475 x10=0x00000000
        1735000	       172	80005f98	e6ea2893	slti	x17,x20,-402	 x20:0x00000000 x17=0x00000000
        1745000	       173	80005f9c	1f8c8423	sb	x24,488(x25)	 x25:0x80008499 x24:0x00000000 PA:0x80008681
        1755000	       174	80005fa0	bd3c91a3	sh	x19,-1085(x25)	 x25:0x80008499 x19:0x00000000 PA:0x8000805c
        1765000	       175	80005fa4	252ca1a3	sw	x18,579(x25)	 x25:0x80008499 x18:0x00000453 PA:0x800086dc
        1775000	       176	80005fa8	de27c293	xori	x5,x15,-542	 x15:0x00000000  x5=0xfffffde2
        1785000	       177	80005fac	f95c8f83	lb	x31,-107(x25)	 x25:0x80008499 x31=0x00000000 PA:0x8000842e
        1795000	       178	80005fb0	f0bcd703	lhu	x14,-245(x25)	 x25:0x80008499 x14=0x00000000 PA:0x800083a4
        1805000	       179	80005fb4	097cdb03	lhu	x22,151(x25)	 x25:0x80008499 x22=0x00000000 PA:0x80008530
        1815000	       180	80005fb8	242cc983	lbu	x19,578(x25)	 x25:0x80008499 x19=0x00000000 PA:0x800086db
        1825000	       181	80005fbc	2acc8023	sb	x12,672(x25)	 x25:0x80008499 x12:0x00000000 PA:0x80008739
        1835000	       182	80005fc0	01b93a33	sltu	x20,x18,x27	 x18:0x00000453 x27:0x00000000 x20=0x00000000
        1845000	       183	80005fc4	f9fc86a3	sb	x31,-115(x25)	 x25:0x80008499 x31:0x00000000 PA:0x80008426
        1855000	       184	80005fc8	5af37093	andi	x1,x6,1455	  x6:0x00000000  x1=0x00000000
        1865000	       185	80005fcc	c78ccf03	lbu	x30,-904(x25)	 x25:0x80008499 x30=0x00000000 PA:0x80008111
        1875000	       186	80005fd0	dadcde03	lhu	x28,-595(x25)	 x25:0x80008499 x28=0x00000000 PA:0x80008246
        1885000	       187	80005fd4	daec87a3	sb	x14,-593(x25)	 x25:0x80008499 x14:0x00000000 PA:0x80008248
        1895000	       188	80005fd8	00a97c33	and	x24,x18,x10	 x18:0x00000453 x10:0x00000000 x24=0x00000000
        1905000	       189	80005fdc	01564bb3	xor	x23,x12,x21	 x12:0x00000000 x21:0x80008475 x23=0x80008475
        1915000	       190	80005fe0	af79cf93	xori	x31,x19,-1289	 x19:0x00000000 x31=0xfffffaf7
        1925000	       191	80005fe4	56a7ff97	auipc	x31,0x56a7f	 x31=0xd6a84fe0
        1935000	       192	80005fe8	0086ba33	sltu	x20,x13,x8	 x13:0x00000000  x8:0x80009fc4 x20=0x00000001
        1945000	       193	80005fec	d5671637	lui	x12,0xd5671	 x12=0xd5671000
        1955000	       194	80005ff0	03660463	beq	x12,x22,80006018	 x12:0xd5671000 x22:0x00000000
        1965000	       195	80005ff4	00000013	addi	x0,x0,0	  x0:0x00000000
        1975000	       196	80005ff8	007fb833	sltu	x16,x31,x7	 x31:0xd6a84fe0  x7:0x00000000 x16=0x00000000
        1985000	       197	80005ffc	00b13233	sltu	x4,x2,x11	  x2:0x00000000 x11:0x00000000  x4=0x00000000
        1995000	       198	80006000	00769463	bne	x13,x7,80006008	 x13:0x00000000  x7:0x00000000
        2005000	       199	80006004	95510913	addi	x18,x2,-1707	  x2:0x00000000 x18=0xfffff955
        2015000	       200	80006008	40d88f33	sub	x30,x17,x13	 x17:0x00000000 x13:0x00000000 x30=0x00000000
        2025000	       201	8000600c	01ab1863	bne	x22,x26,8000601c	 x22:0x00000000 x26:0x00000000
        2035000	       202	80006010	00d79f13	slli	x30,x15,0xd	 x15:0x00000000 x30=0x00000000
        2045000	       203	80006014	567b1597	auipc	x11,0x567b1	 x11=0xd67b7010
        2055000	       204	80006018	034ef263	bgeu	x29,x20,8000603c	 x29:0x80009f44 x20:0x00000001
        2065000	       205	00000000	00000013	addi	x0,x0,0	  x0:0x00000000
        2075000	       206	80006038	00000013	addi	x0,x0,0	  x0:0x00000000
        2085000	       207	8000603c	011526b3	slt	x13,x10,x17	 x10:0x00000000 x17:0x00000000 x13=0x00000000
        2095000	       208	80006040	0033fab3	and	x21,x7,x3	  x7:0x00000000  x3:0x00000000 x21=0x00000000
        2105000	       209	80006044	0011d4b3	srl	x9,x3,x1	  x3:0x00000000  x1:0x00000000  x9=0x00000000
        2115000	       210	80006048	00f17833	and	x16,x2,x15	  x2:0x00000000 x15:0x00000000 x16=0x00000000
        2125000	       211	8000604c	bb81a293	slti	x5,x3,-1096	  x3:0x00000000  x5=0x00000000
        2135000	       212	80006050	05bf7063	bgeu	x30,x27,80006090	 x30:0x00000000 x27:0x00000000
        2145000	       213	00000000	00000013	addi	x0,x0,0	  x0:0x00000000
        2155000	       214	8000608c	00000013	addi	x0,x0,0	  x0:0x00000000
        2165000	       215	80006090	41045493	srai	x9,x8,0x10	  x8:0x80009fc4  x9=0xffff8000
        2175000	       216	80006094	7a197613	andi	x12,x18,1953	 x18:0xfffff955 x12=0x00000101
        2185000	       217	80006098	027fe0b7	lui	x1,0x27fe	  x1=0x027fe000
        2195000	       218	8000609c	058d8663	beq	x27,x24,800060e8	 x27:0x00000000 x24:0x00000000
        2205000	       219	00000000	00000013	addi	x0,x0,0	  x0:0x00000000
        2215000	       220	800060e4	00000013	addi	x0,x0,0	  x0:0x00000000
        2225000	       221	800060e8	00a375b3	and	x11,x6,x10	  x6:0x00000000 x10:0x00000000 x11=0x00000000
        2235000	       222	800060ec	9b43c913	xori	x18,x7,-1612	  x7:0x00000000 x18=0xfffff9b4
        2245000	       223	800060f0	697bf517	auipc	x10,0x697bf	 x10=0xe97c50ec
        2255000	       224	800060f4	40645a13	srai	x20,x8,0x6	  x8:0x80009fc4 x20=0xfe00027f
        2265000	       225	800060f8	41b0d133	sra	x2,x1,x27	  x1:0x027fe000 x27:0x00000000  x2=0x027fe000
        2275000	       226	800060fc	01575e63	bge	x14,x21,80006118	 x14:0x00000000 x21:0x00000000
        2285000	       227	00000000	00000013	addi	x0,x0,0	  x0:0x00000000
        2295000	       228	80006114	00000013	addi	x0,x0,0	  x0:0x00000000
        2305000	       229	80006118	414ed013	srai	x0,x29,0x14	 x29:0x80009f44
        2315000	       230	8000611c	41295293	srai	x5,x18,0x12	 x18:0xfffff9b4  x5=0xffffffff
        2325000	       231	80006120	418fdcb3	sra	x25,x31,x24	 x31:0xd6a84fe0 x24:0x00000000 x25=0xd6a84fe0
        2335000	       232	80006124	01cfdb93	srli	x23,x31,0x1c	 x31:0xd6a84fe0 x23=0x0000000d
        2345000	       233	80006128	8965ed13	ori	x26,x11,-1898	 x11:0x00000000 x26=0xfffff896
        2355000	       234	8000612c	65de2ab7	lui	x21,0x65de2	 x21=0x65de2000
        2365000	       235	80006130	0979da97	auipc	x21,0x979d	 x21=0x897a312c
        2375000	       236	80006134	006d5813	srli	x16,x26,0x6	 x26:0xfffff896 x16=0x03ffffe2
        2385000	       237	80006138	010c1633	sll	x12,x24,x16	 x24:0x00000000 x16:0x03ffffe2 x12=0x00000000
        2395000	       238	8000613c	ed46bf13	sltiu	x30,x13,-300	 x13:0x00000000 x30=0x00000001
        2405000	       239	80006140	000a48b3	xor	x17,x20,x0	 x20:0xfe00027f  x0:0x00000000 x17=0xfe00027f
        2415000	       240	80006144	684de8b7	lui	x17,0x684de	 x17=0x684de000
        2425000	       241	80006148	008cce33	xor	x28,x25,x8	 x25:0xd6a84fe0  x8:0x80009fc4 x28=0x56a8d024
        2435000	       242	8000614c	01b84933	xor	x18,x16,x27	 x16:0x03ffffe2 x27:0x00000000 x18=0x03ffffe2
        2445000	       243	80006150	3f993713	sltiu	x14,x18,1017	 x18:0x03ffffe2 x14=0x00000000
        2455000	       244	80006154	028a1a63	bne	x20,x8,80006188	 x20:0xfe00027f  x8:0x80009fc4
        2465000	       245	00000000	00000013	addi	x0,x0,0	  x0:0x00000000
        2475000	       246	80006184	00000013	addi	x0,x0,0	  x0:0x00000000
        2485000	       247	80006188	41765593	srai	x11,x12,0x17	 x12:0x00000000 x11=0x00000000
        2495000	       248	8000618c	40d8dd93	srai	x27,x17,0xd	 x17:0x684de000 x27=0x0003426f
        2505000	       249	80006190	fc4df5b7	lui	x11,0xfc4df	 x11=0xfc4df000
        2515000	       250	80006194	007248b3	xor	x17,x4,x7	  x4:0x00000000  x7:0x00000000 x17=0x00000000
        2525000	       251	80006198	011ed3b3	srl	x7,x29,x17	 x29:0x80009f44 x17:0x00000000  x7=0x80009f44
        2535000	       252	8000619c	fa824c13	xori	x24,x4,-88	  x4:0x00000000 x24=0xffffffa8
        2545000	       253	800061a0	3d5c5217	auipc	x4,0x3d5c5	  x4=0xbd5cb19c
        2555000	       254	800061a4	01d25513	srli	x10,x4,0x1d	  x4:0xbd5cb19c x10=0x00000005
        2565000	       255	800061a8	0060a2b3	slt	x5,x1,x6	  x1:0x027fe000  x6:0x00000000  x5=0x00000000
        2575000	       256	800061ac	40845b33	sra	x22,x8,x8	  x8:0x80009fc4  x8:0x80009fc4 x22=0xf80009fc
        2585000	       257	800061b0	01fe4663	blt	x28,x31,800061bc	 x28:0x56a8d024 x31:0xd6a84fe0
        2595000	       258	800061b4	022e5263	bge	x28,x2,800061d8	 x28:0x56a8d024  x2:0x027fe000
        2605000	       259	00000000	00000013	addi	x0,x0,0	  x0:0x00000000
        2615000	       260	800061d4	00000013	addi	x0,x0,0	  x0:0x00000000
        2625000	       261	800061d8	014c9893	slli	x17,x25,0x14	 x25:0xd6a84fe0 x17=0xfe000000
        2635000	       262	800061dc	014a4ab3	xor	x21,x20,x20	 x20:0xfe00027f x20:0xfe00027f x21=0x00000000
        2645000	       263	800061e0	01829b93	slli	x23,x5,0x18	  x5:0x00000000 x23=0x00000000
        2655000	       264	800061e4	002e3fb3	sltu	x31,x28,x2	 x28:0x56a8d024  x2:0x027fe000 x31=0x00000000
        2665000	       265	800061e8	15070a13	addi	x20,x14,336	 x14:0x00000000 x20=0x00000150
        2675000	       266	800061ec	d4030493	addi	x9,x6,-704	  x6:0x00000000  x9=0xfffffd40
        2685000	       267	800061f0	305cf513	andi	x10,x25,773	 x25:0xd6a84fe0 x10=0x00000300
        2695000	       268	800061f4	b007c593	xori	x11,x15,-1280	 x15:0x00000000 x11=0xfffffb00
        2705000	       269	800061f8	035b6663	bltu	x22,x21,80006224	 x22:0xf80009fc x21:0x00000000
        2715000	       270	800061fc	03e19a63	bne	x3,x30,80006230	  x3:0x00000000 x30:0x00000001
        2725000	       271	00000000	00000013	addi	x0,x0,0	  x0:0x00000000
        2735000	       272	8000622c	00000013	addi	x0,x0,0	  x0:0x00000000
        2745000	       273	80006230	003a34b3	sltu	x9,x20,x3	 x20:0x00000150  x3:0x00000000  x9=0x00000000
        2755000	       274	80006234	00000013	addi	x0,x0,0	  x0:0x00000000
        2765000	       275	80006238	312c4913	xori	x18,x24,786	 x24:0xffffffa8 x18=0xfffffcba
        2775000	       276	8000623c	00d0f0b3	and	x1,x1,x13	  x1:0x027fe000 x13:0x00000000  x1=0x00000000
        2785000	       277	80006240	005fdd93	srli	x27,x31,0x5	 x31:0x00000000 x27=0x00000000
        2795000	       278	80006244	2d30a037	lui	x0,0x2d30a	
        2805000	       279	80006248	012e0d33	add	x26,x28,x18	 x28:0x56a8d024 x18:0xfffffcba x26=0x56a8ccde
        2815000	       280	8000624c	40b9dc13	srai	x24,x19,0xb	 x19:0x00000000 x24=0x00000000
        2825000	       281	80006250	0540c063	blt	x1,x20,80006290	  x1:0x00000000 x20:0x00000150
        2835000	       282	00000000	00000013	addi	x0,x0,0	  x0:0x00000000
        2845000	       283	8000628c	00000013	addi	x0,x0,0	  x0:0x00000000
        2855000	       284	80006290	00de7db3	and	x27,x28,x13	 x28:0x56a8d024 x13:0x00000000 x27=0x00000000
        2865000	       285	80006294	66cffc17	auipc	x24,0x66cff	 x24=0xe6d05290
        2875000	       286	80006298	41205cb3	sra	x25,x0,x18	  x0:0x00000000 x18:0xfffffcba x25=0x00000000
        2885000	       287	8000629c	26042617	auipc	x12,0x26042	 x12=0xa6048298
        2895000	       288	800062a0	739a6e13	ori	x28,x20,1849	 x20:0x00000150 x28=0x00000779
        2905000	       289	800062a4	41d65db3	sra	x27,x12,x29	 x12:0xa6048298 x29:0x80009f44 x27=0xfa604829
        2915000	       290	800062a8	78b4a913	slti	x18,x9,1931	  x9:0x00000000 x18=0x00000001
        2925000	       291	800062ac	014fd733	srl	x14,x31,x20	 x31:0x00000000 x20:0x00000150 x14=0x00000000
        2935000	       292	800062b0	033fc663	blt	x31,x19,800062dc	 x31:0x00000000 x19:0x00000000
        2945000	       293	800062b4	01c693b3	sll	x7,x13,x28	 x13:0x00000000 x28:0x00000779  x7=0x00000000
        2955000	       294	800062b8	01d339b3	sltu	x19,x6,x29	  x6:0x00000000 x29:0x80009f44 x19=0x00000001
        2965000	       295	800062bc	0166d663	bge	x13,x22,800062c8	 x13:0x00000000 x22:0xf80009fc
        2975000	       296	00000000	00000013	addi	x0,x0,0	  x0:0x00000000
        2985000	       297	800062c4	00000013	addi	x0,x0,0	  x0:0x00000000
        2995000	       298	800062c8	001e5693	srli	x13,x28,0x1	 x28:0x00000779 x13=0x000003bc
        3005000	       299	800062cc	412b5f93	srai	x31,x22,0x12	 x22:0xf80009fc x31=0xfffffe00
        3015000	       300	800062d0	016cb0b3	sltu	x1,x25,x22	 x25:0x00000000 x22:0xf80009fc  x1=0x00000001
        3025000	       301	800062d4	01b09c13	slli	x24,x1,0x1b	  x1:0x00000001 x24=0x08000000
        3035000	       302	800062d8	0026ebb3	or	x23,x13,x2	 x13:0x000003bc  x2:0x027fe000 x23=0x027fe3bc
        3045000	       303	800062dc	0134edb3	or	x27,x9,x19	  x9:0x00000000 x19:0x00000001 x27=0x00000001
        3055000	       304	800062e0	40a38233	sub	x4,x7,x10	  x7:0x00000000 x10:0x00000300  x4=0xfffffd00
        3065000	       305	800062e4	01cfda33	srl	x20,x31,x28	 x31:0xfffffe00 x28:0x00000779 x20=0x0000007f
        3075000	       306	800062e8	402b05b3	sub	x11,x22,x2	 x22:0xf80009fc  x2:0x027fe000 x11=0xf58029fc
        3085000	       307	800062ec	9a743293	sltiu	x5,x8,-1625	  x8:0x80009fc4  x5=0x00000001
        3095000	       308	800062f0	0f795c63	bge	x18,x23,800063e8	 x18:0x00000001 x23:0x027fe3bc
        3105000	       309	800062f4	402c84b3	sub	x9,x25,x2	 x25:0x00000000  x2:0x027fe000  x9=0xfd802000
        3115000	       310	800062f8	0f87f863	bgeu	x15,x24,800063e8	 x15:0x00000000 x24:0x08000000
        3125000	       311	800062fc	ebe8c213	xori	x4,x17,-322	 x17:0xfe000000  x4=0x01fffebe
        3135000	       312	80006300	0e970e63	beq	x14,x9,800063fc	 x14:0x00000000  x9:0xfd802000
        3145000	       313	80006304	407fd3b3	sra	x7,x31,x7	 x31:0xfffffe00  x7:0x00000000  x7=0xfffffe00
        3155000	       314	80006308	0ff7ec63	bltu	x15,x31,80006400	 x15:0x00000000 x31:0xfffffe00
        3165000	       315	00000000	00000013	addi	x0,x0,0	  x0:0x00000000
        3175000	       316	800063fc	00000013	addi	x0,x0,0	  x0:0x00000000
        3185000	       317	80006400	05a09a63	bne	x1,x26,80006454	  x1:0x00000001 x26:0x56a8ccde
        3195000	       318	00000000	00000013	addi	x0,x0,0	  x0:0x00000000
        3205000	       319	80006450	00000013	addi	x0,x0,0	  x0:0x00000000
        3215000	       320	80006454	fdc13993	sltiu	x19,x2,-36	  x2:0x027fe000 x19=0x00000001
        3225000	       321	80006458	01111133	sll	x2,x2,x17	  x2:0x027fe000 x17:0xfe000000  x2=0x027fe000
        3235000	       322	8000645c	006908b3	add	x17,x18,x6	 x18:0x00000001  x6:0x00000000 x17=0x00000001
        3245000	       323	80006460	417c8d33	sub	x26,x25,x23	 x25:0x00000000 x23:0x027fe3bc x26=0xfd801c44
        3255000	       324	80006464	38bf0913	addi	x18,x30,907	 x30:0x00000001 x18=0x0000038c
        3265000	       325	80006468	00ce7db3	and	x27,x28,x12	 x28:0x00000779 x12:0xa6048298 x27=0x00000218
        3275000	       326	8000646c	00000013	addi	x0,x0,0	  x0:0x00000000
        3285000	       327	80006470	0d3d3313	sltiu	x6,x26,211	 x26:0xfd801c44  x6=0x00000000
        3295000	       328	80006474	40555913	srai	x18,x10,0x5	 x10:0x00000300 x18=0x00000018
        3305000	       329	80006478	01fa1333	sll	x6,x20,x31	 x20:0x0000007f x31:0xfffffe00  x6=0x0000007f
        3315000	       330	8000647c	418204b3	sub	x9,x4,x24	  x4:0x01fffebe x24:0x08000000  x9=0xf9fffebe
        3325000	       331	80006480	007bdd93	srli	x27,x23,0x7	 x23:0x027fe3bc x27=0x0004ffc7
        3335000	       332	80006484	fa998517	auipc	x10,0xfa998	 x10=0x7a99e480
        3345000	       333	80006488	d99b52b7	lui	x5,0xd99b5	  x5=0xd99b5000
        3355000	       334	8000648c	03017663	bgeu	x2,x16,800064b8	  x2:0x027fe000 x16:0x03ffffe2
        3365000	       335	80006490	01b25693	srli	x13,x4,0x1b	  x4:0x01fffebe x13=0x00000000
        3375000	       336	80006494	41a6d133	sra	x2,x13,x26	 x13:0x00000000 x26:0xfd801c44  x2=0x00000000
        3385000	       337	80006498	01b744b3	xor	x9,x14,x27	 x14:0x00000000 x27:0x0004ffc7  x9=0x0004ffc7
        3395000	       338	8000649c	40e88d33	sub	x26,x17,x14	 x17:0x00000001 x14:0x00000000 x26=0x00000001
        3405000	       339	800064a0	4184d993	srai	x19,x9,0x18	  x9:0x0004ffc7 x19=0x00000000
        3415000	       340	800064a4	00645a13	srli	x20,x8,0x6	  x8:0x80009fc4 x20=0x0200027f
        3425000	       341	800064a8	b3970293	addi	x5,x14,-1223	 x14:0x00000000  x5=0xfffffb39
        3435000	       342	800064ac	f5caa113	slti	x2,x21,-164	 x21:0x00000000  x2=0x00000000
        3445000	       343	800064b0	f59eb637	lui	x12,0xf59eb	 x12=0xf59eb000
        3455000	       344	800064b4	04b05063	bge	x0,x11,800064f4	  x0:0x00000000 x11:0xf58029fc
        3465000	       345	00000000	00000013	addi	x0,x0,0	  x0:0x00000000
        3475000	       346	800064f0	00000013	addi	x0,x0,0	  x0:0x00000000
        3485000	       347	800064f4	2c0a8f93	addi	x31,x21,704	 x21:0x00000000 x31=0x000002c0
        3495000	       348	800064f8	00d83f17	auipc	x30,0xd83	 x30=0x80d894f4
        3505000	       349	800064fc	417c0333	sub	x6,x24,x23	 x24:0x08000000 x23:0x027fe3bc  x6=0x05801c44
        3515000	       350	80006500	0218d863	bge	x17,x1,80006530	 x17:0x00000001  x1:0x00000001
        3525000	       351	00000000	00000013	addi	x0,x0,0	  x0:0x00000000
        3535000	       352	8000652c	00000013	addi	x0,x0,0	  x0:0x00000000
        3545000	       353	80006530	01fdd113	srli	x2,x27,0x1f	 x27:0x0004ffc7  x2=0x00000000
        3555000	       354	80006534	0492f063	bgeu	x5,x9,80006574	  x5:0xfffffb39  x9:0x0004ffc7
        3565000	       355	00000000	00000013	addi	x0,x0,0	  x0:0x00000000
        3575000	       356	80006570	00000013	addi	x0,x0,0	  x0:0x00000000
        3585000	       357	80006574	01b765b3	or	x11,x14,x27	 x14:0x00000000 x27:0x0004ffc7 x11=0x0004ffc7
        3595000	       358	80006578	7804bf93	sltiu	x31,x9,1920	  x9:0x0004ffc7 x31=0x00000000
        3605000	       359	8000657c	03854863	blt	x10,x24,800065ac	 x10:0x7a99e480 x24:0x08000000
        3615000	       360	80006580	4195d2b3	sra	x5,x11,x25	 x11:0x0004ffc7 x25:0x00000000  x5=0x0004ffc7
        3625000	       361	80006584	00efed33	or	x26,x31,x14	 x31:0x00000000 x14:0x00000000 x26=0x00000000
        3635000	       362	80006588	4015d813	srai	x16,x11,0x1	 x11:0x0004ffc7 x16=0x00027fe3
        3645000	       363	8000658c	01e892b3	sll	x5,x17,x30	 x17:0x00000001 x30:0x80d894f4  x5=0x00100000
        3655000	       364	80006590	7b7e0e13	addi	x28,x28,1975	 x28:0x00000779 x28=0x00000f30
        3665000	       365	80006594	03dfe663	bltu	x31,x29,800065c0	 x31:0x00000000 x29:0x80009f44
        3675000	       366	00000000	00000013	addi	x0,x0,0	  x0:0x00000000
        3685000	       367	800065bc	00000013	addi	x0,x0,0	  x0:0x00000000
        3695000	       368	800065c0	01198e33	add	x28,x19,x17	 x19:0x00000000 x17:0x00000001 x28=0x00000001
        3705000	       369	800065c4	00924933	xor	x18,x4,x9	  x4:0x01fffebe  x9:0x0004ffc7 x18=0x01fb0179
        3715000	       370	800065c8	00d68b33	add	x22,x13,x13	 x13:0x00000000 x13:0x00000000 x22=0x00000000
        3725000	       371	800065cc	41d35a13	srai	x20,x6,0x1d	  x6:0x05801c44 x20=0x00000000
        3735000	       372	800065d0	00229293	slli	x5,x5,0x2	  x5:0x00100000  x5=0x00400000
        3745000	       373	800065d4	c2d1f993	andi	x19,x3,-979	  x3:0x00000000 x19=0x00000000
        3755000	       374	800065d8	404d5033	sra	x0,x26,x4	 x26:0x00000000  x4:0x01fffebe
        3765000	       375	800065dc	05518c63	beq	x3,x21,80006634	  x3:0x00000000 x21:0x00000000
        3775000	       376	00000000	00000013	addi	x0,x0,0	  x0:0x00000000
        3785000	       377	80006630	00000013	addi	x0,x0,0	  x0:0x00000000
        3795000	       378	80006634	01cd8663	beq	x27,x28,80006640	 x27:0x0004ffc7 x28:0x00000001
        3805000	       379	80006638	010b9113	slli	x2,x23,0x10	 x23:0x027fe3bc  x2=0xe3bc0000
        3815000	       380	8000663c	40d68733	sub	x14,x13,x13	 x13:0x00000000 x13:0x00000000 x14=0x00000000
        3825000	       381	80006640	00000013	addi	x0,x0,0	  x0:0x00000000
        3835000	       382	80006644	00609c33	sll	x24,x1,x6	  x1:0x00000001  x6:0x05801c44 x24=0x00000010
        3845000	       383	80006648	026e1263	bne	x28,x6,8000666c	 x28:0x00000001  x6:0x05801c44
        3855000	       384	00000000	00000013	addi	x0,x0,0	  x0:0x00000000
        3865000	       385	80006668	00000013	addi	x0,x0,0	  x0:0x00000000
        3875000	       386	8000666c	055d6863	bltu	x26,x21,800066bc	 x26:0x00000000 x21:0x00000000
        3885000	       387	80006670	01475213	srli	x4,x14,0x14	 x14:0x00000000  x4=0x00000000
        3895000	       388	80006674	004aa0b3	slt	x1,x21,x4	 x21:0x00000000  x4:0x00000000  x1=0x00000000
        3905000	       389	80006678	5b70cf13	xori	x30,x1,1463	  x1:0x00000000 x30=0x000005b7
        3915000	       390	8000667c	e9526f13	ori	x30,x4,-363	  x4:0x00000000 x30=0xfffffe95
        3925000	       391	80006680	40c00233	sub	x4,x0,x12	  x0:0x00000000 x12:0xf59eb000  x4=0x0a615000
        3935000	       392	80006684	00000013	addi	x0,x0,0	  x0:0x00000000
        3945000	       393	80006688	00000013	addi	x0,x0,0	  x0:0x00000000
        3955000	       394	8000668c	017fc0b3	xor	x1,x31,x23	 x31:0x00000000 x23:0x027fe3bc  x1=0x027fe3bc
        3965000	       395	80006690	00000013	addi	x0,x0,0	  x0:0x00000000
        3975000	       396	80006694	01230333	add	x6,x6,x18	  x6:0x05801c44 x18:0x01fb0179  x6=0x077b1dbd
        3985000	       397	80006698	00799033	sll	x0,x19,x7	 x19:0x00000000  x7:0xfffffe00
        3995000	       398	8000669c	9f6f2813	slti	x16,x30,-1546	 x30:0xfffffe95 x16=0x00000000
        4005000	       399	800066a0	5b4ff593	andi	x11,x31,1460	 x31:0x00000000 x11=0x00000000
        4015000	       400	800066a4	0219f463	bgeu	x19,x1,800066cc	 x19:0x00000000  x1:0x027fe3bc
        4025000	       401	800066a8	017c1c33	sll	x24,x24,x23	 x24:0x00000010 x23:0x027fe3bc x24=0x00000000
        4035000	       402	800066ac	019630b3	sltu	x1,x12,x25	 x12:0xf59eb000 x25:0x00000000  x1=0x00000000
        4045000	       403	800066b0	05c8e063	bltu	x17,x28,800066f0	 x17:0x00000001 x28:0x00000001
        4055000	       404	800066b4	012b8037	lui	x0,0x12b8	
        4065000	       405	800066b8	8baf9fb7	lui	x31,0x8baf9	 x31=0x8baf9000
        4075000	       406	800066bc	59ba9ab7	lui	x21,0x59ba9	 x21=0x59ba9000
        4085000	       407	800066c0	03949663	bne	x9,x25,800066ec	  x9:0x0004ffc7 x25:0x00000000
        4095000	       408	00000000	00000013	addi	x0,x0,0	  x0:0x00000000
        4105000	       409	800066e8	00000013	addi	x0,x0,0	  x0:0x00000000
        4115000	       410	800066ec	01c71b33	sll	x22,x14,x28	 x14:0x00000000 x28:0x00000001 x22=0x00000000
        4125000	       411	800066f0	0084d5b3	srl	x11,x9,x8	  x9:0x0004ffc7  x8:0x80009fc4 x11=0x00004ffc
        4135000	       412	800066f4	01b7e863	bltu	x15,x27,80006704	 x15:0x00000000 x27:0x0004ffc7
        4145000	       413	00000000	00000013	addi	x0,x0,0	  x0:0x00000000
        4155000	       414	80006700	00000013	addi	x0,x0,0	  x0:0x00000000
        4165000	       415	80006704	40a9db93	srai	x23,x19,0xa	 x19:0x00000000 x23=0x00000000
        4175000	       416	80006708	004eaf03	lw	x30,4(x29)	 x29:0x80009f44 x30=0x80000124 PA:0x80009f48
        4185000	       417	8000670c	01a25913	srli	x18,x4,0x1a	  x4:0x0a615000 x18=0x00000002
        4195000	       418	80006710	3fa76313	ori	x6,x14,1018	 x14:0x00000000  x6=0x000003fa
        4205000	       419	80006714	040e8e93	addi	x29,x29,64	 x29:0x80009f44 x29=0x80009f84
        4215000	       420	80006718	e5067493	andi	x9,x12,-432	 x12:0xf59eb000  x9=0xf59eb000
        4225000	       421	8000671c	000f0993	addi	x19,x30,0	 x30:0x80000124 x19=0x80000124
        4235000	       422	80006720	000989e7	jalr	x19,x19,0	 x19:0x80000124 x19=0x80006720
        4245000	       423	00000000	00000013	addi	x0,x0,0	  x0:0x00000000
        4255000	       424	80000124	00000013	addi	x0,x0,0	  x0:0x00000000
        4265000	       425	80000128	00008397	auipc	x7,0x8	  x7=0x80008124
        4275000	       426	8000012c	6df38393	addi	x7,x7,1759	  x7:0x80008124  x7=0x80008803
        4285000	       427	80000130	ff43c303	lbu	x6,-12(x7)	  x7:0x80008803  x6=0x00000000 PA:0x800087f7
        4295000	       428	80000134	40b0d5b3	sra	x11,x1,x11	  x1:0x00000000 x11:0x00004ffc x11=0x00000000
        4305000	       429	80000138	013394a3	sh	x19,9(x7)	  x7:0x80008803 x19:0x80006720 PA:0x8000880c
        4315000	       430	8000013c	01279833	sll	x16,x15,x18	 x15:0x00000000 x18:0x00000002 x16=0x00000000
        4325000	       431	80000140	9b306d13	ori	x26,x0,-1613	  x0:0x00000000 x26=0xfffff9b3
        4335000	       432	80000144	fe73aca3	sw	x7,-7(x7)	  x7:0x80008803  x7:0x80008803 PA:0x800087fc
        4345000	       433	80000148	01172833	slt	x16,x14,x17	 x14:0x00000000 x17:0x00000001 x16=0x00000001
        4355000	       434	8000014c	00191033	sll	x0,x18,x1	 x18:0x00000002  x1:0x00000000
        4365000	       435	80000150	ffd39c03	lh	x24,-3(x7)	  x7:0x80008803 x24=0x00000000 PA:0x80008800
        4375000	       436	80000154	e02ffd93	andi	x27,x31,-510	 x31:0x8baf9000 x27=0x8baf9000
        4385000	       437	80000158	01330bb3	add	x23,x6,x19	  x6:0x00000000 x19:0x80006720 x23=0x80006720
        4395000	       438	8000015c	00b3d683	lhu	x13,11(x7)	  x7:0x80008803 x13=0x00000000 PA:0x8000880e
        4405000	       439	80000160	fff39103	lh	x2,-1(x7)	  x7:0x80008803  x2=0x00000000 PA:0x80008802
        4415000	       440	80000164	004dee33	or	x28,x27,x4	 x27:0x8baf9000  x4:0x0a615000 x28=0x8befd000
        4425000	       441	80000168	3de890b7	lui	x1,0x3de89	  x1=0x3de89000
        4435000	       442	8000016c	ffd389a3	sb	x29,-13(x7)	  x7:0x80008803 x29:0x80009f84 PA:0x800087f6
        4445000	       443	80000170	ff038583	lb	x11,-16(x7)	  x7:0x80008803 x11=0x00000000 PA:0x800087f3
        4455000	       444	80000174	00538523	sb	x5,10(x7)	  x7:0x80008803  x5:0x00400000 PA:0x8000880d
        4465000	       445	80000178	ff83c903	lbu	x18,-8(x7)	  x7:0x80008803 x18=0x00000000 PA:0x800087fb
        4475000	       446	8000017c	ffd3d903	lhu	x18,-3(x7)	  x7:0x80008803 x18=0x00000000 PA:0x80008800
        4485000	       447	80000180	12bf2d93	slti	x27,x30,299	 x30:0x80000124 x27=0x00000001
        4495000	       448	80000184	00000013	addi	x0,x0,0	  x0:0x00000000
        4505000	       449	80000188	8e514b13	xori	x22,x2,-1819	  x2:0x00000000 x22=0xfffff8e5
        4515000	       450	8000018c	00038c03	lb	x24,0(x7)	  x7:0x80008803 x24=0x00000000 PA:0x80008803
        4525000	       451	80000190	0073d183	lhu	x3,7(x7)	  x7:0x80008803  x3=0x00000000 PA:0x8000880a
        4535000	       452	80000194	41f25233	sra	x4,x4,x31	  x4:0x0a615000 x31:0x8baf9000  x4=0x0a615000
        4545000	       453	80000198	001d6733	or	x14,x26,x1	 x26:0xfffff9b3  x1:0x3de89000 x14=0xfffff9b3
        4555000	       454	8000019c	01938823	sb	x25,16(x7)	  x7:0x80008803 x25:0x00000000 PA:0x80008813
        4565000	       455	800001a0	fe639fa3	sh	x6,-1(x7)	  x7:0x80008803  x6:0x00000000 PA:0x80008802
        4575000	       456	800001a4	ff138f83	lb	x31,-15(x7)	  x7:0x80008803 x31=0x00000000 PA:0x800087f4
        4585000	       457	800001a8	01d268b3	or	x17,x4,x29	  x4:0x0a615000 x29:0x80009f84 x17=0x8a61df84
        4595000	       458	800001ac	00638723	sb	x6,14(x7)	  x7:0x80008803  x6:0x00000000 PA:0x80008811
        4605000	       459	800001b0	ff638923	sb	x22,-14(x7)	  x7:0x80008803 x22:0xfffff8e5 PA:0x800087f5
        4615000	       460	800001b4	ffb3c503	lbu	x10,-5(x7)	  x7:0x80008803 x10=0x00000000 PA:0x800087fe
        4625000	       461	800001b8	0063c903	lbu	x18,6(x7)	  x7:0x80008803 x18=0x00000000 PA:0x80008809
        4635000	       462	800001bc	00d49033	sll	x0,x9,x13	  x9:0xf59eb000 x13:0x00000000
        4645000	       463	800001c0	40565293	srai	x5,x12,0x5	 x12:0xf59eb000  x5=0xffacf580
        4655000	       464	800001c4	01888333	add	x6,x17,x24	 x17:0x8a61df84 x24:0x00000000  x6=0x8a61df84
        4665000	       465	800001c8	407d8db3	sub	x27,x27,x7	 x27:0x00000001  x7:0x80008803 x27=0x7fff77fe
        4675000	       466	800001cc	3be5ad13	slti	x26,x11,958	 x11:0x00000000 x26=0x00000001
        4685000	       467	800001d0	00739d03	lh	x26,7(x7)	  x7:0x80008803 x26=0x00000000 PA:0x8000880a
        4695000	       468	800001d4	00009217	auipc	x4,0x9	  x4=0x800091d0
        4705000	       469	800001d8	ba020213	addi	x4,x4,-1120	  x4:0x800091d0  x4=0x80008d70
        4715000	       470	800001dc	ff324383	lbu	x7,-13(x4)	  x4:0x80008d70  x7=0x00000000 PA:0x80008d63
        4725000	       471	800001e0	01a206a3	sb	x26,13(x4)	  x4:0x80008d70 x26:0x00000000 PA:0x80008d7d
        4735000	       472	800001e4	fe221d23	sh	x2,-6(x4)	  x4:0x80008d70  x2:0x00000000 PA:0x80008d6a
        4745000	       473	800001e8	0179ce33	xor	x28,x19,x23	 x19:0x80006720 x23:0x80006720 x28=0x00000000
        4755000	       474	800001ec	00420483	lb	x9,4(x4)	  x4:0x80008d70  x9=0x00000000 PA:0x80008d74
        4765000	       475	800001f0	ffd24503	lbu	x10,-3(x4)	  x4:0x80008d70 x10=0x00000000 PA:0x80008d6d
        4775000	       476	800001f4	016664b3	or	x9,x12,x22	 x12:0xf59eb000 x22:0xfffff8e5  x9=0xfffff8e5
        4785000	       477	800001f8	ff221923	sh	x18,-14(x4)	  x4:0x80008d70 x18:0x00000000 PA:0x80008d62
        4795000	       478	800001fc	ff025303	lhu	x6,-16(x4)	  x4:0x80008d70  x6=0x00000000 PA:0x80008d60
        4805000	       479	80000200	ff924983	lbu	x19,-7(x4)	  x4:0x80008d70 x19=0x00000000 PA:0x80008d69
        4815000	       480	80000204	015203a3	sb	x21,7(x4)	  x4:0x80008d70 x21:0x59ba9000 PA:0x80008d77
        4825000	       481	80000208	41f25ab3	sra	x21,x4,x31	  x4:0x80008d70 x31:0x00000000 x21=0x80008d70
        4835000	       482	8000020c	00f24f83	lbu	x31,15(x4)	  x4:0x80008d70 x31=0x00000000 PA:0x80008d7f
        4845000	       483	80000210	00720f83	lb	x31,7(x4)	  x4:0x80008d70 x31=0x00000000 PA:0x80008d77
        4855000	       484	80000214	00224103	lbu	x2,2(x4)	  x4:0x80008d70  x2=0x00000000 PA:0x80008d72
        4865000	       485	80000218	fe620c23	sb	x6,-8(x4)	  x4:0x80008d70  x6:0x00000000 PA:0x80008d68
        4875000	       486	8000021c	ffe21383	lh	x7,-2(x4)	  x4:0x80008d70  x7=0x00000000 PA:0x80008d6e
        4885000	       487	80000220	ff124c03	lbu	x24,-15(x4)	  x4:0x80008d70 x24=0x00000000 PA:0x80008d61
        4895000	       488	80000224	01f20423	sb	x31,8(x4)	  x4:0x80008d70 x31:0x00000000 PA:0x80008d78
        4905000	       489	80000228	019901b3	add	x3,x18,x25	 x18:0x00000000 x25:0x00000000  x3=0x00000000
        4915000	       490	8000022c	ffa21b23	sh	x26,-10(x4)	  x4:0x80008d70 x26:0x00000000 PA:0x80008d66
        4925000	       491	80000230	00f20383	lb	x7,15(x4)	  x4:0x80008d70  x7=0x00000000 PA:0x80008d7f
        4935000	       492	80000234	fff24b03	lbu	x22,-1(x4)	  x4:0x80008d70 x22=0x00000000 PA:0x80008d6f
        4945000	       493	80000238	00624d83	lbu	x27,6(x4)	  x4:0x80008d70 x27=0x00000000 PA:0x80008d76
        4955000	       494	8000023c	40a7d5b3	sra	x11,x15,x10	 x15:0x00000000 x10:0x00000000 x11=0x00000000
        4965000	       495	80000240	d928ff93	andi	x31,x17,-622	 x17:0x8a61df84 x31=0x8a61dd80
        4975000	       496	80000244	fe720d23	sb	x7,-6(x4)	  x4:0x80008d70  x7:0x00000000 PA:0x80008d6a
        4985000	       497	80000248	001a9513	slli	x10,x21,0x1	 x21:0x80008d70 x10=0x00011ae0
        4995000	       498	8000024c	01e45db3	srl	x27,x8,x30	  x8:0x80009fc4 x30:0x80000124 x27=0x080009fc
        5005000	       499	80000250	01627333	and	x6,x4,x22	  x4:0x80008d70 x22:0x00000000  x6=0x00000000
        5015000	       500	80000254	01b380b3	add	x1,x7,x27	  x7:0x00000000 x27:0x080009fc  x1=0x080009fc
        5025000	       501	80000258	00220723	sb	x2,14(x4)	  x4:0x80008d70  x2:0x00000000 PA:0x80008d7e
        5035000	       502	8000025c	00a78463	beq	x15,x10,80000264	 x15:0x00000000 x10:0x00011ae0
        5045000	       503	80000260	01725cb3	srl	x25,x4,x23	  x4:0x80008d70 x23:0x80006720 x25=0x80008d70
        5055000	       504	80000264	01875913	srli	x18,x14,0x18	 x14:0xfffff9b3 x18=0x000000ff
        5065000	       505	80000268	62eec093	xori	x1,x29,1582	 x29:0x80009f84  x1=0x800099aa
        5075000	       506	8000026c	01ab5733	srl	x14,x22,x26	 x22:0x00000000 x26:0x00000000 x14=0x00000000
        5085000	       507	80000270	010bd0b3	srl	x1,x23,x16	 x23:0x80006720 x16:0x00000001  x1=0x40003390
        5095000	       508	80000274	01567263	bgeu	x12,x21,80000278	 x12:0xf59eb000 x21:0x80008d70
        5105000	       509	00000000	00000013	addi	x0,x0,0	  x0:0x00000000
        5115000	       510	80000274	00000013	addi	x0,x0,0	  x0:0x00000000
        5125000	       511	80000278	00cda6b3	slt	x13,x27,x12	 x27:0x080009fc x12:0xf59eb000 x13=0x00000000
        5135000	       512	8000027c	01e55233	srl	x4,x10,x30	 x10:0x00011ae0 x30:0x80000124  x4=0x000011ae
        5145000	       513	80000280	01bb7733	and	x14,x22,x27	 x22:0x00000000 x27:0x080009fc x14=0x00000000
        5155000	       514	80000284	400f52b3	sra	x5,x30,x0	 x30:0x80000124  x0:0x00000000  x5=0x80000124
        5165000	       515	80000288	16de4a97	auipc	x21,0x16de4	 x21=0x96de4284
        5175000	       516	8000028c	0054e863	bltu	x9,x5,8000029c	  x9:0xfffff8e5  x5:0x80000124
        5185000	       517	80000290	02b1f463	bgeu	x3,x11,800002b8	  x3:0x00000000 x11:0x00000000
        5195000	       518	00000000	00000013	addi	x0,x0,0	  x0:0x00000000
        5205000	       519	800002b4	00000013	addi	x0,x0,0	  x0:0x00000000
        5215000	       520	800002b8	d4cafd93	andi	x27,x21,-692	 x21:0x96de4284 x27=0x96de4004
        5225000	       521	800002bc	5a83f117	auipc	x2,0x5a83f	  x2=0xda83f2b8
        5235000	       522	800002c0	01118cb3	add	x25,x3,x17	  x3:0x00000000 x17:0x8a61df84 x25=0x8a61df84
        5245000	       523	800002c4	40ed5313	srai	x6,x26,0xe	 x26:0x00000000  x6=0x00000000
        5255000	       524	800002c8	02305063	bge	x0,x3,800002e8	  x0:0x00000000  x3:0x00000000
        5265000	       525	00000000	00000013	addi	x0,x0,0	  x0:0x00000000
        5275000	       526	800002e4	00000013	addi	x0,x0,0	  x0:0x00000000
        5285000	       527	800002e8	00f89fb3	sll	x31,x17,x15	 x17:0x8a61df84 x15:0x00000000 x31=0x8a61df84
        5295000	       528	800002ec	713fb993	sltiu	x19,x31,1811	 x31:0x8a61df84 x19=0x00000000
        5305000	       529	800002f0	01584263	blt	x16,x21,800002f4	 x16:0x00000001 x21:0x96de4284
        5315000	       530	800002f4	0054ff33	and	x30,x9,x5	  x9:0xfffff8e5  x5:0x80000124 x30=0x80000024
        5325000	       531	800002f8	ea8cddb7	lui	x27,0xea8cd	 x27=0xea8cd000
        5335000	       532	800002fc	0507e663	bltu	x15,x16,80000348	 x15:0x00000000 x16:0x00000001
        5345000	       533	00000000	00000013	addi	x0,x0,0	  x0:0x00000000
        5355000	       534	80000344	00000013	addi	x0,x0,0	  x0:0x00000000
        5365000	       535	80000348	01dcc663	blt	x25,x29,80000354	 x25:0x8a61df84 x29:0x80009f84
        5375000	       536	8000034c	031a5263	bge	x20,x17,80000370	 x20:0x00000000 x17:0x8a61df84
        5385000	       537	00000000	00000013	addi	x0,x0,0	  x0:0x00000000
        5395000	       538	8000036c	00000013	addi	x0,x0,0	  x0:0x00000000
        5405000	       539	80000370	40c4d513	srai	x10,x9,0xc	  x9:0xfffff8e5 x10=0xffffffff
        5415000	       540	80000374	46c0fe13	andi	x28,x1,1132	  x1:0x40003390 x28=0x00000000
        5425000	       541	80000378	04fa7063	bgeu	x20,x15,800003b8	 x20:0x00000000 x15:0x00000000
        5435000	       542	00000000	00000013	addi	x0,x0,0	  x0:0x00000000
        5445000	       543	800003b4	00000013	addi	x0,x0,0	  x0:0x00000000
        5455000	       544	800003b8	413209b3	sub	x19,x4,x19	  x4:0x000011ae x19:0x00000000 x19=0x000011ae
        5465000	       545	800003bc	0035d8b3	srl	x17,x11,x3	 x11:0x00000000  x3:0x00000000 x17=0x00000000
        5475000	       546	800003c0	0047edb3	or	x27,x15,x4	 x15:0x00000000  x4:0x000011ae x27=0x000011ae
        5485000	       547	800003c4	00530913	addi	x18,x6,5	  x6:0x00000000 x18=0x00000005
        5495000	       548	800003c8	00db92b3	sll	x5,x23,x13	 x23:0x80006720 x13:0x00000000  x5=0x80006720
        5505000	       549	800003cc	f8683b13	sltiu	x22,x16,-122	 x16:0x00000001 x22=0x00000001
        5515000	       550	800003d0	00c77ab3	and	x21,x14,x12	 x14:0x00000000 x12:0xf59eb000 x21=0x00000000
        5525000	       551	800003d4	0529c463	blt	x19,x18,8000041c	 x19:0x000011ae x18:0x00000005
        5535000	       552	800003d8	2c47cd13	xori	x26,x15,708	 x15:0x00000000 x26=0x000002c4
        5545000	       553	800003dc	ba243293	sltiu	x5,x8,-1118	  x8:0x80009fc4  x5=0x00000001
        5555000	       554	800003e0	01b71813	slli	x16,x14,0x1b	 x14:0x00000000 x16=0x00000000
        5565000	       555	800003e4	00cad663	bge	x21,x12,800003f0	 x21:0x00000000 x12:0xf59eb000
        5575000	       556	00000000	00000013	addi	x0,x0,0	  x0:0x00000000
        5585000	       557	800003ec	00000013	addi	x0,x0,0	  x0:0x00000000
        5595000	       558	800003f0	412203b3	sub	x7,x4,x18	  x4:0x000011ae x18:0x00000005  x7=0x000011a9
        5605000	       559	800003f4	05aa5063	bge	x20,x26,80000434	 x20:0x00000000 x26:0x000002c4
        5615000	       560	800003f8	01e99f93	slli	x31,x19,0x1e	 x19:0x000011ae x31=0x80000000
        5625000	       561	800003fc	00298e33	add	x28,x19,x2	 x19:0x000011ae  x2:0xda83f2b8 x28=0xda840466
        5635000	       562	80000400	05921463	bne	x4,x25,80000448	  x4:0x000011ae x25:0x8a61df84
        5645000	       563	00000000	00000013	addi	x0,x0,0	  x0:0x00000000
        5655000	       564	80000444	00000013	addi	x0,x0,0	  x0:0x00000000
        5665000	       565	80000448	003d7e33	and	x28,x26,x3	 x26:0x000002c4  x3:0x00000000 x28=0x00000000
        5675000	       566	8000044c	40aa0e33	sub	x28,x20,x10	 x20:0x00000000 x10:0xffffffff x28=0x00000001
        5685000	       567	80000450	002fd593	srli	x11,x31,0x2	 x31:0x80000000 x11=0x20000000
        5695000	       568	80000454	01289a33	sll	x20,x17,x18	 x17:0x00000000 x18:0x00000005 x20=0x00000000
        5705000	       569	80000458	24aaab13	slti	x22,x21,586	 x21:0x00000000 x22=0x00000001
        5715000	       570	8000045c	9ee18617	auipc	x12,0x9ee18	 x12=0x1ee18458
        5725000	       571	80000460	0066aab3	slt	x21,x13,x6	 x13:0x00000000  x6:0x00000000 x21=0x00000000
        5735000	       572	80000464	02264263	blt	x12,x2,80000488	 x12:0x1ee18458  x2:0xda83f2b8
        5745000	       573	80000468	000b2a33	slt	x20,x22,x0	 x22:0x00000001  x0:0x00000000 x20=0x00000000
        5755000	       574	8000046c	80b94613	xori	x12,x18,-2037	 x18:0x00000005 x12=0xfffff80e
        5765000	       575	80000470	410956b3	sra	x13,x18,x16	 x18:0x00000005 x16:0x00000000 x13=0x00000005
        5775000	       576	80000474	8134bc93	sltiu	x25,x9,-2029	  x9:0xfffff8e5 x25=0x00000000
        5785000	       577	80000478	025d1463	bne	x26,x5,800004a0	 x26:0x000002c4  x5:0x00000001
        5795000	       578	00000000	00000013	addi	x0,x0,0	  x0:0x00000000
        5805000	       579	8000049c	00000013	addi	x0,x0,0	  x0:0x00000000
        5815000	       580	800004a0	82d20513	addi	x10,x4,-2003	  x4:0x000011ae x10=0x000009db
        5825000	       581	800004a4	03315e63	bge	x2,x19,800004e0	  x2:0xda83f2b8 x19:0x000011ae
        5835000	       582	800004a8	6bf20493	addi	x9,x4,1727	  x4:0x000011ae  x9=0x0000186d
        5845000	       583	800004ac	418edd33	sra	x26,x29,x24	 x29:0x80009f84 x24:0x00000000 x26=0x80009f84
        5855000	       584	800004b0	01ba4933	xor	x18,x20,x27	 x20:0x00000000 x27:0x000011ae x18=0x000011ae
        5865000	       585	800004b4	012f5833	srl	x16,x30,x18	 x30:0x80000024 x18:0x000011ae x16=0x00020000
        5875000	       586	800004b8	00004097	auipc	x1,0x4	  x1=0x800044b4
        5885000	       587	800004bc	0bc08093	addi	x1,x1,188	  x1:0x800044b4  x1=0x80004570
        5895000	       588	800004c0	389da613	slti	x12,x27,905	 x27:0x000011ae x12=0x00000000
        5905000	       589	800004c4	13e08093	addi	x1,x1,318	  x1:0x80004570  x1=0x800046ae
        5915000	       590	800004c8	00825733	srl	x14,x4,x8	  x4:0x000011ae  x8:0x80009fc4 x14=0x0000011a
        5925000	       591	800004cc	00b6fd33	and	x26,x13,x11	 x13:0x00000005 x11:0x20000000 x26=0x00000000
        5935000	       592	800004d0	a8128c93	addi	x25,x5,-1407	  x5:0x00000001 x25=0xfffffa82
        5945000	       593	800004d4	015201b3	add	x3,x4,x21	  x4:0x000011ae x21:0x00000000  x3=0x000011ae
        5955000	       594	800004d8	ec208f67	jalr	x30,x1,-318	  x1:0x800046ae x30=0x800004d8
        5965000	       595	00000000	00000013	addi	x0,x0,0	  x0:0x00000000
        5975000	       596	80004570	00000013	addi	x0,x0,0	  x0:0x00000000
        5985000	       597	80004574	0072e263	bltu	x5,x7,80004578	  x5:0x00000001  x7:0x000011a9
        5995000	       598	00000000	00000013	addi	x0,x0,0	  x0:0x00000000
        6005000	       599	80004574	00000013	addi	x0,x0,0	  x0:0x00000000
        6015000	       600	80004578	fe8e8e93	addi	x29,x29,-24	 x29:0x80009f84 x29=0x80009f6c
        6025000	       601	8000457c	01eea223	sw	x30,4(x29)	 x29:0x80009f6c x30:0x800004d8 PA:0x80009f70
        6035000	       602	80004580	40b48333	sub	x6,x9,x11	  x9:0x0000186d x11:0x20000000  x6=0xe000186d
        6045000	       603	80004584	05c42493	slti	x9,x8,92	  x8:0x80009fc4  x9=0x00000001
        6055000	       604	80004588	41d2cc13	xori	x24,x5,1053	  x5:0x00000001 x24=0x0000041c
        6065000	       605	8000458c	6fd5c893	xori	x17,x11,1789	 x11:0x20000000 x17=0x200006fd
        6075000	       606	80004590	55e37093	andi	x1,x6,1374	  x6:0xe000186d  x1=0x0000004c
        6085000	       607	80004594	9906b893	sltiu	x17,x13,-1648	 x13:0x00000005 x17=0x00000001
        6095000	       608	80004598	3fe4d097	auipc	x1,0x3fe4d	  x1=0xbfe51594
        6105000	       609	8000459c	00000013	addi	x0,x0,0	  x0:0x00000000
        6115000	       610	800045a0	0046e6b3	or	x13,x13,x4	 x13:0x00000005  x4:0x000011ae x13=0x000011af
        6125000	       611	800045a4	01170133	add	x2,x14,x17	 x14:0x0000011a x17:0x00000001  x2=0x0000011b
        6135000	       612	800045a8	06d04293	xori	x5,x0,109	  x0:0x00000000  x5=0x0000006d
        6145000	       613	800045ac	00a54a33	xor	x20,x10,x10	 x10:0x000009db x10:0x000009db x20=0x00000000
        6155000	       614	800045b0	7fc01f6f	jal	x30,800045b0	 x30=0x800045b0
        6165000	       615	00000000	00000013	addi	x0,x0,0	  x0:0x00000000
        6175000	       616	80005da8	00000013	addi	x0,x0,0	  x0:0x00000000
        6185000	       617	80005dac	008c61b3	or	x3,x24,x8	 x24:0x0000041c  x8:0x80009fc4  x3=0x80009fdc
        6195000	       618	80005db0	fe4e8e93	addi	x29,x29,-28	 x29:0x80009f6c x29=0x80009f50
        6205000	       619	80005db4	01009813	slli	x16,x1,0x10	  x1:0xbfe51594 x16=0x15940000
        6215000	       620	80005db8	205a8593	addi	x11,x21,517	 x21:0x00000000 x11=0x00000205
        6225000	       621	80005dbc	01cbd093	srli	x1,x23,0x1c	 x23:0x80006720  x1=0x00000008
        6235000	       622	80005dc0	0a6b7813	andi	x16,x22,166	 x22:0x00000001 x16=0x00000000
        6245000	       623	80005dc4	01eea223	sw	x30,4(x29)	 x29:0x80009f50 x30:0x800045b0 PA:0x80009f54
        6255000	       624	80005dc8	00dc1d33	sll	x26,x24,x13	 x24:0x0000041c x13:0x000011af x26=0x020e0000
        6265000	       625	80005dcc	00000013	addi	x0,x0,0	  x0:0x00000000
        6275000	       626	80005dd0	8443d317	auipc	x6,0x8443d	  x6=0x04442dcc
        6285000	       627	80005dd4	00866133	or	x2,x12,x8	 x12:0x00000000  x8:0x80009fc4  x2=0x80009fc4
        6295000	       628	80005dd8	01c76233	or	x4,x14,x28	 x14:0x0000011a x28:0x00000001  x4=0x0000011b
        6305000	       629	80005ddc	00f4f033	and	x0,x9,x15	  x9:0x00000001 x15:0x00000000
        6315000	       630	80005de0	03458863	beq	x11,x20,80005e10	 x11:0x00000205 x20:0x00000000
        6325000	       631	80005de4	9f552b13	slti	x22,x10,-1547	 x10:0x000009db x22=0x00000000
        6335000	       632	80005de8	00e8cf33	xor	x30,x17,x14	 x17:0x00000001 x14:0x0000011a x30=0x0000011b
        6345000	       633	80005dec	00d95a63	bge	x18,x13,80005e00	 x18:0x000011ae x13:0x000011af
        6355000	       634	80005df0	9ae54513	xori	x10,x10,-1618	 x10:0x000009db x10=0xfffff075
        6365000	       635	80005df4	008c8e63	beq	x25,x8,80005e10	 x25:0xfffffa82  x8:0x80009fc4
        6375000	       636	80005df8	41e888b3	sub	x17,x17,x30	 x17:0x00000001 x30:0x0000011b x17=0xfffffee6
        6385000	       637	80005dfc	001e43b3	xor	x7,x28,x1	 x28:0x00000001  x1:0x00000008  x7=0x00000009
        6395000	       638	80005e00	e2957293	andi	x5,x10,-471	 x10:0xfffff075  x5=0xfffff021
        6405000	       639	80005e04	006489b3	add	x19,x9,x6	  x9:0x00000001  x6:0x04442dcc x19=0x04442dcd
        6415000	       640	80005e08	40235293	srai	x5,x6,0x2	  x6:0x04442dcc  x5=0x01110b73
        6425000	       641	80005e0c	00000013	addi	x0,x0,0	  x0:0x00000000
        6435000	       642	80005e10	01491fb3	sll	x31,x18,x20	 x18:0x000011ae x20:0x00000000 x31=0x000011ae
        6445000	       643	80005e14	d5552e13	slti	x28,x10,-683	 x10:0xfffff075 x28=0x00000001
        6455000	       644	80005e18	01671bb3	sll	x23,x14,x22	 x14:0x0000011a x22:0x00000000 x23=0x0000011a
        6465000	       645	80005e1c	40b8d893	srai	x17,x17,0xb	 x17:0xfffffee6 x17=0xffffffff
        6475000	       646	80005e20	013cccb3	xor	x25,x25,x19	 x25:0xfffffa82 x19:0x04442dcd x25=0xfbbbd74f
        6485000	       647	80005e24	004eaf03	lw	x30,4(x29)	 x29:0x80009f50 x30=0x800045b0 PA:0x80009f54
        6495000	       648	80005e28	01a5ba33	sltu	x20,x11,x26	 x11:0x00000205 x26:0x020e0000 x20=0x00000001
        6505000	       649	80005e2c	01ce8e93	addi	x29,x29,28	 x29:0x80009f50 x29=0x80009f6c
        6515000	       650	80005e30	2820fc13	andi	x24,x1,642	  x1:0x00000008 x24=0x00000000
        6525000	       651	80005e34	001f0d93	addi	x27,x30,1	 x30:0x800045b0 x27=0x800045b1
        6535000	       652	80005e38	000d8de7	jalr	x27,x27,0	 x27:0x800045b1 x27=0x80005e38
        6545000	       653	00000000	00000013	addi	x0,x0,0	  x0:0x00000000
        6555000	       654	800045b0	00000013	addi	x0,x0,0	  x0:0x00000000
        6565000	       655	800045b4	00005897	auipc	x17,0x5	 x17=0x800095b0
        6575000	       656	800045b8	8d788893	addi	x17,x17,-1833	 x17:0x800095b0 x17=0x80008e87
        6585000	       657	800045bc	ff389b03	lh	x22,-13(x17)	 x17:0x80008e87 x22=0x00000000 PA:0x80008e7a
        6595000	       658	800045c0	00a72233	slt	x4,x14,x10	 x14:0x0000011a x10:0xfffff075  x4=0x00000000
        6605000	       659	800045c4	ff588683	lb	x13,-11(x17)	 x17:0x80008e87 x13=0x00000000 PA:0x80008e7c
        6615000	       660	800045c8	fff89d03	lh	x26,-1(x17)	 x17:0x80008e87 x26=0x00000000 PA:0x80008e86
        6625000	       661	800045cc	0218cb83	lbu	x23,33(x17)	 x17:0x80008e87 x23=0x00000000 PA:0x80008ea8
        6635000	       662	800045d0	00e85c93	srli	x25,x16,0xe	 x16:0x00000000 x25=0x00000000
        6645000	       663	800045d4	006b1213	slli	x4,x22,0x6	 x22:0x00000000  x4=0x00000000
        6655000	       664	800045d8	40de01b3	sub	x3,x28,x13	 x28:0x00000001 x13:0x00000000  x3=0x00000001
        6665000	       665	800045dc	30fb7093	andi	x1,x22,783	 x22:0x00000000  x1=0x00000000
        6675000	       666	800045e0	005fa733	slt	x14,x31,x5	 x31:0x000011ae  x5:0x01110b73 x14=0x00000001
        6685000	       667	800045e4	60a40e17	auipc	x28,0x60a40	 x28=0xe0a445e0
        6695000	       668	800045e8	0098af03	lw	x30,9(x17)	 x17:0x80008e87 x30=0x00000000 PA:0x80008e90
        6705000	       669	800045ec	01d804b3	add	x9,x16,x29	 x16:0x00000000 x29:0x80009f6c  x9=0x80009f6c
        6715000	       670	800045f0	fde88803	lb	x16,-34(x17)	 x17:0x80008e87 x16=0x00000000 PA:0x80008e65
        6725000	       671	00000000	00000013	addi	x0,x0,0	  x0:0x00000000
        6735000	       672	800045f4	01047fb3	and	x31,x8,x16	  x8:0x80009fc4 x16:0x00000000 x31=0x00000000
        6745000	       673	800045f8	014b4933	xor	x18,x22,x20	 x22:0x00000000 x20:0x00000001 x18=0x00000001
        6755000	       674	800045fc	70be4313	xori	x6,x28,1803	 x28:0xe0a445e0  x6=0xe0a442eb
        6765000	       675	80004600	01288503	lb	x10,18(x17)	 x17:0x80008e87 x10=0x00000000 PA:0x80008e99
        6775000	       676	80004604	01ee5713	srli	x14,x28,0x1e	 x28:0xe0a445e0 x14=0x00000003
        6785000	       677	80004608	002dee33	or	x28,x27,x2	 x27:0x80005e38  x2:0x80009fc4 x28=0x8000dffc
        6795000	       678	8000460c	00000013	addi	x0,x0,0	  x0:0x00000000
        6805000	       679	80004610	00414fb3	xor	x31,x2,x4	  x2:0x80009fc4  x4:0x00000000 x31=0x80009fc4
        6815000	       680	80004614	010d5f93	srli	x31,x26,0x10	 x26:0x00000000 x31=0x00000000
        6825000	       681	80004618	02488c83	lb	x25,36(x17)	 x17:0x80008e87 x25=0x00000000 PA:0x80008eab
        6835000	       682	8000461c	00000013	addi	x0,x0,0	  x0:0x00000000
        6845000	       683	80004620	03b8da83	lhu	x21,59(x17)	 x17:0x80008e87 x21=0x00000000 PA:0x80008ec2
        6855000	       684	80004624	fdd889a3	sb	x29,-45(x17)	 x17:0x80008e87 x29:0x80009f6c PA:0x80008e5a
        6865000	       685	80004628	fe188da3	sb	x1,-5(x17)	 x17:0x80008e87  x1:0x00000000 PA:0x80008e82
        6875000	       686	8000462c	fc28a2a3	sw	x2,-59(x17)	 x17:0x80008e87  x2:0x80009fc4 PA:0x80008e4c
        6885000	       687	80004630	0186dab3	srl	x21,x13,x24	 x13:0x00000000 x24:0x00000000 x21=0x00000000
        6895000	       688	80004634	03a88a23	sb	x26,52(x17)	 x17:0x80008e87 x26:0x00000000 PA:0x80008ebb
        6905000	       689	80004638	5cabf993	andi	x19,x23,1482	 x23:0x00000000 x19=0x00000000
        6915000	       690	8000463c	0218d983	lhu	x19,33(x17)	 x17:0x80008e87 x19=0x00000000 PA:0x80008ea8
        6925000	       691	80004640	41155fb3	sra	x31,x10,x17	 x10:0x00000000 x17:0x80008e87 x31=0x00000000
        6935000	       692	80004644	0461bc13	sltiu	x24,x3,70	  x3:0x00000001 x24=0x00000001
        6945000	       693	80004648	fef8db83	lhu	x23,-17(x17)	 x17:0x80008e87 x23=0x00000000 PA:0x80008e76
        6955000	       694	8000464c	fe688803	lb	x16,-26(x17)	 x17:0x80008e87 x16=0x00000000 PA:0x80008e6d
        6965000	       695	80004650	fe68c383	lbu	x7,-26(x17)	 x17:0x80008e87  x7=0x00000000 PA:0x80008e6d
        6975000	       696	80004654	fc38d583	lhu	x11,-61(x17)	 x17:0x80008e87 x11=0x00000000 PA:0x80008e4a
        6985000	       697	80004658	012410b3	sll	x1,x8,x18	  x8:0x80009fc4 x18:0x00000001  x1=0x00013f88
        6995000	       698	8000465c	fee886a3	sb	x14,-19(x17)	 x17:0x80008e87 x14:0x00000003 PA:0x80008e74
        7005000	       699	80004660	00389b83	lh	x23,3(x17)	 x17:0x80008e87 x23=0x00000000 PA:0x80008e8a
        7015000	       700	80004664	41830cb3	sub	x25,x6,x24	  x6:0xe0a442eb x24:0x00000001 x25=0xe0a442ea
        7025000	       701	80004668	fda88d83	lb	x27,-38(x17)	 x17:0x80008e87 x27=0x00000000 PA:0x80008e61
        7035000	       702	8000466c	ffc8c003	lbu	x0,-4(x17)	 x17:0x80008e87 PA:0x80008e83
        7045000	       703	80004670	fcb89d83	lh	x27,-53(x17)	 x17:0x80008e87 x27=0x00000000 PA:0x80008e52
        7055000	       704	80004674	00004497	auipc	x9,0x4	  x9=0x80008670
        7065000	       705	80004678	79d48493	addi	x9,x9,1949	  x9:0x80008670  x9=0x80008e0d
        7075000	       706	8000467c	32e0f037	lui	x0,0x32e0f	
        7085000	       707	80004680	014e19b3	sll	x19,x28,x20	 x28:0x8000dffc x20:0x00000001 x19=0x0001bff8
        7095000	       708	80004684	ff44c983	lbu	x19,-12(x9)	  x9:0x80008e0d x19=0x00000000 PA:0x80008e01
        7105000	       709	80004688	01949603	lh	x12,25(x9)	  x9:0x80008e0d x12=0x00000000 PA:0x80008e26
        7115000	       710	8000468c	400d5113	srai	x2,x26,0x0	 x26:0x00000000  x2=0x00000000
        7125000	       711	80004690	02448c23	sb	x4,56(x9)	  x9:0x80008e0d  x4:0x00000000 PA:0x80008e45
        7135000	       712	80004694	fee48b83	lb	x23,-18(x9)	  x9:0x80008e0d x23=0x00000000 PA:0x80008dfb
        7145000	       713	80004698	005efd33	and	x26,x29,x5	 x29:0x80009f6c  x5:0x01110b73 x26=0x00000b60
        7155000	       714	8000469c	ff848083	lb	x1,-8(x9)	  x9:0x80008e0d  x1=0x00000000 PA:0x80008e05
        7165000	       715	800046a0	01048283	lb	x5,16(x9)	  x9:0x80008e0d  x5=0x00000000 PA:0x80008e1d
        7175000	       716	800046a4	fec48a03	lb	x20,-20(x9)	  x9:0x80008e0d x20=0x00000000 PA:0x80008df9
        7185000	       717	800046a8	01c63bb3	sltu	x23,x12,x28	 x12:0x00000000 x28:0x8000dffc x23=0x00000001
        7195000	       718	800046ac	ffd48703	lb	x14,-3(x9)	  x9:0x80008e0d x14=0x00000000 PA:0x80008e0a
        7205000	       719	800046b0	bcddbf93	sltiu	x31,x27,-1075	 x27:0x00000000 x31=0x00000001
        7215000	       720	800046b4	0164c183	lbu	x3,22(x9)	  x9:0x80008e0d  x3=0x00000000 PA:0x80008e23
        7225000	       721	800046b8	fcd4cc03	lbu	x24,-51(x9)	  x9:0x80008e0d x24=0x00000000 PA:0x80008dda
        7235000	       722	800046bc	01554f33	xor	x30,x10,x21	 x10:0x00000000 x21:0x00000000 x30=0x00000000
        7245000	       723	800046c0	0324c103	lbu	x2,50(x9)	  x9:0x80008e0d  x2=0x00000000 PA:0x80008e3f
        7255000	       724	00000000	00000013	addi	x0,x0,0	  x0:0x00000000
        7265000	       725	800046c4	aff10b93	addi	x23,x2,-1281	  x2:0x00000000 x23=0xfffffaff
        7275000	       726	800046c8	fc64a9a3	sw	x6,-45(x9)	  x9:0x80008e0d  x6:0xe0a442eb PA:0x80008de0
        7285000	       727	800046cc	02948c23	sb	x9,56(x9)	  x9:0x80008e0d  x9:0x80008e0d PA:0x80008e45
        7295000	       728	800046d0	01bebcb3	sltu	x25,x29,x27	 x29:0x80009f6c x27:0x00000000 x25=0x00000000
        7305000	       729	800046d4	02549f83	lh	x31,37(x9)	  x9:0x80008e0d x31=0x00000000 PA:0x80008e32
        7315000	       730	800046d8	783a6913	ori	x18,x20,1923	 x20:0x00000000 x18=0x00000783
        7325000	       731	800046dc	01648623	sb	x22,12(x9)	  x9:0x80008e0d x22:0x00000000 PA:0x80008e19
        7335000	       732	800046e0	e9583813	sltiu	x16,x16,-363	 x16:0x00000000 x16=0x00000001
        7345000	       733	800046e4	02348b83	lb	x23,35(x9)	  x9:0x80008e0d x23=0x00000000 PA:0x80008e30
        7355000	       734	800046e8	40b6da13	srai	x20,x13,0xb	 x13:0x00000000 x20=0x00000000
        7365000	       735	800046ec	00000013	addi	x0,x0,0	  x0:0x00000000
        7375000	       736	800046f0	fcc4cc03	lbu	x24,-52(x9)	  x9:0x80008e0d x24=0x00000000 PA:0x80008dd9
        7385000	       737	800046f4	00048203	lb	x4,0(x9)	  x9:0x80008e0d  x4=0x00000000 PA:0x80008e0d
        7395000	       738	800046f8	000b1bb3	sll	x23,x22,x0	 x22:0x00000000  x0:0x00000000 x23=0x00000000
        7405000	       739	800046fc	33fc2b93	slti	x23,x24,831	 x24:0x00000000 x23=0x00000001
        7415000	       740	80004700	01a732b3	sltu	x5,x14,x26	 x14:0x00000000 x26:0x00000b60  x5=0x00000001
        7425000	       741	80004704	03a4c703	lbu	x14,58(x9)	  x9:0x80008e0d x14=0x00000000 PA:0x80008e47
        7435000	       742	80004708	5b8b1d17	auipc	x26,0x5b8b1	 x26=0xdb8b5704
        7445000	       743	8000470c	00000013	addi	x0,x0,0	  x0:0x00000000
        7455000	       744	80004710	03248903	lb	x18,50(x9)	  x9:0x80008e0d x18=0x00000000 PA:0x80008e3f
        7465000	       745	80004714	035489a3	sb	x21,51(x9)	  x9:0x80008e0d x21:0x00000000 PA:0x80008e40
        7475000	       746	80004718	de1b7897	auipc	x17,0xde1b7	 x17=0x5e1bb714
        7485000	       747	8000471c	03e48f23	sb	x30,62(x9)	  x9:0x80008e0d x30:0x00000000 PA:0x80008e4b
        7495000	       748	80004720	bbe3ed13	ori	x26,x7,-1090	  x7:0x00000000 x26=0xfffffbbe
        7505000	       749	80004724	0364cd83	lbu	x27,54(x9)	  x9:0x80008e0d x27=0x00000000 PA:0x80008e43
        7515000	       750	80004728	7a392b93	slti	x23,x18,1955	 x18:0x00000000 x23=0x00000001
        7525000	       751	8000472c	329e8f93	addi	x31,x29,809	 x29:0x80009f6c x31=0x8000a295
        7535000	       752	80004730	01e1b233	sltu	x4,x3,x30	  x3:0x00000000 x30:0x00000000  x4=0x00000000
        7545000	       753	80004734	00a4a3a3	sw	x10,7(x9)	  x9:0x80008e0d x10:0x00000000 PA:0x80008e14
        7555000	       754	80004738	03148323	sb	x17,38(x9)	  x9:0x80008e0d x17:0x5e1bb714 PA:0x80008e33
        7565000	       755	8000473c	00c3be33	sltu	x28,x7,x12	  x7:0x00000000 x12:0x00000000 x28=0x00000000
        7575000	       756	80004740	f5f73b93	sltiu	x23,x14,-161	 x14:0x00000000 x23=0x00000001
        7585000	       757	80004744	0178f133	and	x2,x17,x23	 x17:0x5e1bb714 x23:0x00000001  x2=0x00000000
        7595000	       758	80004748	0274ad83	lw	x27,39(x9)	  x9:0x80008e0d x27=0x00000000 PA:0x80008e34
        7605000	       759	8000474c	02448083	lb	x1,36(x9)	  x9:0x80008e0d  x1=0x00000000 PA:0x80008e31
        7615000	       760	80004750	02348223	sb	x3,36(x9)	  x9:0x80008e0d  x3:0x00000000 PA:0x80008e31
        7625000	       761	80004754	00448903	lb	x18,4(x9)	  x9:0x80008e0d x18=0x00000000 PA:0x80008e11
        7635000	       762	80004758	00004617	auipc	x12,0x4	 x12=0x80008754
        7645000	       763	8000475c	4a660613	addi	x12,x12,1190	 x12:0x80008754 x12=0x80008bfa
        7655000	       764	80004760	0016a3b3	slt	x7,x13,x1	 x13:0x00000000  x1:0x00000000  x7=0x00000000
        7665000	       765	80004764	015ec8b3	xor	x17,x29,x21	 x29:0x80009f6c x21:0x00000000 x17=0x80009f6c
        7675000	       766	80004768	0126e033	or	x0,x13,x18	 x13:0x00000000 x18:0x00000000
        7685000	       767	8000476c	9be8c213	xori	x4,x17,-1602	 x17:0x80009f6c  x4=0x7fff66d2
        7695000	       768	80004770	41c3d9b3	sra	x19,x7,x28	  x7:0x00000000 x28:0x00000000 x19=0x00000000
        7705000	       769	80004774	10661023	sh	x6,256(x12)	 x12:0x80008bfa  x6:0xe0a442eb PA:0x80008cfa
        7715000	       770	80004778	00061183	lh	x3,0(x12)	 x12:0x80008bfa  x3=0x00000000 PA:0x80008bfa
        7725000	       771	8000477c	088d8813	addi	x16,x27,136	 x27:0x00000000 x16=0x00000088
        7735000	       772	80004780	f3662883	lw	x17,-202(x12)	 x12:0x80008bfa x17=0x00000000 PA:0x80008b30
        7745000	       773	80004784	4099d333	sra	x6,x19,x9	 x19:0x00000000  x9:0x80008e0d  x6=0x00000000
        7755000	       774	80004788	00e78a33	add	x20,x15,x14	 x15:0x00000000 x14:0x00000000 x20=0x00000000
        7765000	       775	8000478c	01ecc233	xor	x4,x25,x30	 x25:0x00000000 x30:0x00000000  x4=0x00000000
        7775000	       776	80004790	368d6037	lui	x0,0x368d6	
        7785000	       777	80004794	ffe65903	lhu	x18,-2(x12)	 x12:0x80008bfa x18=0x00000000 PA:0x80008bf8
        7795000	       778	80004798	f4613937	lui	x18,0xf4613	 x18=0xf4613000
        7805000	       779	8000479c	acad0313	addi	x6,x26,-1334	 x26:0xfffffbbe  x6=0xfffff688
        7815000	       780	800047a0	00577833	and	x16,x14,x5	 x14:0x00000000  x5:0x00000001 x16=0x00000000
        7825000	       781	800047a4	fcf64b83	lbu	x23,-49(x12)	 x12:0x80008bfa x23=0x00000000 PA:0x80008bc9
        7835000	       782	800047a8	f5364003	lbu	x0,-173(x12)	 x12:0x80008bfa PA:0x80008b4d
        7845000	       783	800047ac	f5c64583	lbu	x11,-164(x12)	 x12:0x80008bfa x11=0x00000000 PA:0x80008b56
        7855000	       784	800047b0	0da60d23	sb	x26,218(x12)	 x12:0x80008bfa x26:0xfffffbbe PA:0x80008cd4
        7865000	       785	800047b4	fdf60903	lb	x18,-33(x12)	 x12:0x80008bfa x18=0x00000000 PA:0x80008bd9
        7875000	       786	800047b8	4026df33	sra	x30,x13,x2	 x13:0x00000000  x2:0x00000000 x30=0x00000000
        7885000	       787	800047bc	01bf5f13	srli	x30,x30,0x1b	 x30:0x00000000 x30=0x00000000
        7895000	       788	800047c0	ab908d13	addi	x26,x1,-1351	  x1:0x00000000 x26=0xfffffab9
        7905000	       789	800047c4	42a9cd93	xori	x27,x19,1066	 x19:0x00000000 x27=0x0000042a
        7915000	       790	800047c8	01401e13	slli	x28,x0,0x14	  x0:0x00000000 x28=0x00000000
        7925000	       791	800047cc	4fd4f817	auipc	x16,0x4fd4f	 x16=0xcfd537c8
        7935000	       792	800047d0	fd560683	lb	x13,-43(x12)	 x12:0x80008bfa x13=0x00000000 PA:0x80008bcf
        7945000	       793	800047d4	f1461383	lh	x7,-236(x12)	 x12:0x80008bfa  x7=0x00000000 PA:0x80008b0e
        7955000	       794	800047d8	018680b3	add	x1,x13,x24	 x13:0x00000000 x24:0x00000000  x1=0x00000000
        7965000	       795	800047dc	001d9bb3	sll	x23,x27,x1	 x27:0x0000042a  x1:0x00000000 x23=0x0000042a
        7975000	       796	800047e0	011094b3	sll	x9,x1,x17	  x1:0x00000000 x17:0x00000000  x9=0x00000000
        7985000	       797	800047e4	0b960503	lb	x10,185(x12)	 x12:0x80008bfa x10=0x00000000 PA:0x80008cb3
        7995000	       798	800047e8	01560d83	lb	x27,21(x12)	 x12:0x80008bfa x27=0x00000000 PA:0x80008c0f
        8005000	       799	800047ec	40e486b3	sub	x13,x9,x14	  x9:0x00000000 x14:0x00000000 x13=0x00000000
        8015000	       800	800047f0	01536d33	or	x26,x6,x21	  x6:0xfffff688 x21:0x00000000 x26=0xfffff688
        8025000	       801	800047f4	09af6293	ori	x5,x30,154	 x30:0x00000000  x5=0x0000009a
        8035000	       802	800047f8	40708cb3	sub	x25,x1,x7	  x1:0x00000000  x7:0x00000000 x25=0x00000000
        8045000	       803	800047fc	f1064983	lbu	x19,-240(x12)	 x12:0x80008bfa x19=0x00000000 PA:0x80008b0a
        8055000	       804	00000000	00000013	addi	x0,x0,0	  x0:0x00000000
        8065000	       805	80004800	fd364c83	lbu	x25,-45(x12)	 x12:0x80008bfa x25=0x00000000 PA:0x80008bcd
        8075000	       806	80004804	e2860213	addi	x4,x12,-472	 x12:0x80008bfa  x4=0x80008a22
        8085000	       807	80004808	f09608a3	sb	x9,-239(x12)	 x12:0x80008bfa  x9:0x00000000 PA:0x80008b0b
        8095000	       808	8000480c	08964e03	lbu	x28,137(x12)	 x12:0x80008bfa x28=0x00000000 PA:0x80008c83
        8105000	       809	80004810	00004597	auipc	x11,0x4	 x11=0x8000880c
        8115000	       810	80004814	2a558593	addi	x11,x11,677	 x11:0x8000880c x11=0x80008ab1
        8125000	       811	80004818	fdb5cb83	lbu	x23,-37(x11)	 x11:0x80008ab1 x23=0x00000000 PA:0x80008a8c
        8135000	       812	8000481c	012c6f33	or	x30,x24,x18	 x24:0x00000000 x18:0x00000000 x30=0x00000000
        8145000	       813	80004820	01596ab3	or	x21,x18,x21	 x18:0x00000000 x21:0x00000000 x21=0x00000000
        8155000	       814	80004824	02c5c983	lbu	x19,44(x11)	 x11:0x80008ab1 x19=0x00000000 PA:0x80008add
        8165000	       815	80004828	00258823	sb	x2,16(x11)	 x11:0x80008ab1  x2:0x00000000 PA:0x80008ac1
        8175000	       816	8000482c	e0122fb7	lui	x31,0xe0122	 x31=0xe0122000
        8185000	       817	80004830	01e58a83	lb	x21,30(x11)	 x11:0x80008ab1 x21=0x00000000 PA:0x80008acf
        8195000	       818	80004834	02d59103	lh	x2,45(x11)	 x11:0x80008ab1  x2=0x00000000 PA:0x80008ade
        8205000	       819	80004838	00458923	sb	x4,18(x11)	 x11:0x80008ab1  x4:0x80008a22 PA:0x80008ac3
        8215000	       820	8000483c	fe758023	sb	x7,-32(x11)	 x11:0x80008ab1  x7:0x00000000 PA:0x80008a91
        8225000	       821	80004840	00000013	addi	x0,x0,0	  x0:0x00000000
        8235000	       822	80004844	01996533	or	x10,x18,x25	 x18:0x00000000 x25:0x00000000 x10=0x00000000
        8245000	       823	80004848	02f58623	sb	x15,44(x11)	 x11:0x80008ab1 x15:0x00000000 PA:0x80008add
        8255000	       824	8000484c	0165bbb3	sltu	x23,x11,x22	 x11:0x80008ab1 x22:0x00000000 x23=0x00000000
        8265000	       825	80004850	03a58523	sb	x26,42(x11)	 x11:0x80008ab1 x26:0xfffff688 PA:0x80008adb
        8275000	       826	80004854	00f58123	sb	x15,2(x11)	 x11:0x80008ab1 x15:0x00000000 PA:0x80008ab3
        8285000	       827	80004858	ff158a23	sb	x17,-12(x11)	 x11:0x80008ab1 x17:0x00000000 PA:0x80008aa5
        8295000	       828	8000485c	05358023	sb	x19,64(x11)	 x11:0x80008ab1 x19:0x00000000 PA:0x80008af1
        8305000	       829	80004860	00989693	slli	x13,x17,0x9	 x17:0x00000000 x13=0x00000000
        8315000	       830	80004864	01758d03	lb	x26,23(x11)	 x11:0x80008ab1 x26=0x00000000 PA:0x80008ac8
        8325000	       831	80004868	011a76b3	and	x13,x20,x17	 x20:0x00000000 x17:0x00000000 x13=0x00000000
        8335000	       832	8000486c	1f1d2013	slti	x0,x26,497	 x26:0x00000000
        8345000	       833	80004870	01d59883	lh	x17,29(x11)	 x11:0x80008ab1 x17=0x00000000 PA:0x80008ace
        8355000	       834	80004874	03058a83	lb	x21,48(x11)	 x11:0x80008ab1 x21=0x00000000 PA:0x80008ae1
        8365000	       835	80004878	e0d1b493	sltiu	x9,x3,-499	  x3:0x00000000  x9=0x00000001
        8375000	       836	8000487c	0315c383	lbu	x7,49(x11)	 x11:0x80008ab1  x7=0x00000000 PA:0x80008ae2
        8385000	       837	80004880	01159103	lh	x2,17(x11)	 x11:0x80008ab1  x2=0x00002200 PA:0x80008ac2
        8395000	       838	80004884	6f0593b7	lui	x7,0x6f059	  x7=0x6f059000
        8405000	       839	80004888	01a5c303	lbu	x6,26(x11)	 x11:0x80008ab1  x6=0x00000000 PA:0x80008acb
        8415000	       840	8000488c	00158083	lb	x1,1(x11)	 x11:0x80008ab1  x1=0x00000000 PA:0x80008ab2
        8425000	       841	80004890	00000013	addi	x0,x0,0	  x0:0x00000000
        8435000	       842	80004894	02e5afa3	sw	x14,63(x11)	 x11:0x80008ab1 x14:0x00000000 PA:0x80008af0
        8445000	       843	80004898	d681c693	xori	x13,x3,-664	  x3:0x00000000 x13=0xfffffd68
        8455000	       844	8000489c	fd558483	lb	x9,-43(x11)	 x11:0x80008ab1  x9=0x00000000 PA:0x80008a86
        8465000	       845	800048a0	00b5df83	lhu	x31,11(x11)	 x11:0x80008ab1 x31=0x00000000 PA:0x80008abc
        8475000	       846	800048a4	fec58f23	sb	x12,-2(x11)	 x11:0x80008ab1 x12:0x80008bfa PA:0x80008aaf
        8485000	       847	800048a8	ff15dc03	lhu	x24,-15(x11)	 x11:0x80008ab1 x24=0x00000000 PA:0x80008aa2
        8495000	       848	800048ac	027589a3	sb	x7,51(x11)	 x11:0x80008ab1  x7:0x6f059000 PA:0x80008ae4
        8505000	       849	800048b0	01bd32b3	sltu	x5,x26,x27	 x26:0x00000000 x27:0x00000000  x5=0x00000000
        8515000	       850	800048b4	00d62d33	slt	x26,x12,x13	 x12:0x80008bfa x13:0xfffffd68 x26=0x00000001
        8525000	       851	800048b8	01a5c203	lbu	x4,26(x11)	 x11:0x80008ab1  x4=0x00000000 PA:0x80008acb
        8535000	       852	800048bc	00004117	auipc	x2,0x4	  x2=0x800088b8
        8545000	       853	800048c0	47010113	addi	x2,x2,1136	  x2:0x800088b8  x2=0x80008d28
        8555000	       854	800048c4	01122a33	slt	x20,x4,x17	  x4:0x00000000 x17:0x00000000 x20=0x00000000
        8565000	       855	800048c8	4168dc33	sra	x24,x17,x22	 x17:0x00000000 x22:0x00000000 x24=0x00000000
        8575000	       856	800048cc	00f14083	lbu	x1,15(x2)	  x2:0x80008d28  x1=0x00000000 PA:0x80008d37
        8585000	       857	800048d0	ff710b83	lb	x23,-9(x2)	  x2:0x80008d28 x23=0x00000000 PA:0x80008d1f
        8595000	       858	800048d4	002e32b3	sltu	x5,x28,x2	 x28:0x00000000  x2:0x80008d28  x5=0x00000001
        8605000	       859	800048d8	39a05217	auipc	x4,0x39a05	  x4=0xb9a098d4
        8615000	       860	800048dc	000101a3	sb	x0,3(x2)	  x2:0x80008d28  x0:0x00000000 PA:0x80008d2b
        8625000	       861	800048e0	1d3a6193	ori	x3,x20,467	 x20:0x00000000  x3=0x000001d3
        8635000	       862	800048e4	00000013	addi	x0,x0,0	  x0:0x00000000
        8645000	       863	800048e8	d4944ab7	lui	x21,0xd4944	 x21=0xd4944000
        8655000	       864	800048ec	01651d13	slli	x26,x10,0x16	 x10:0x00000000 x26=0x00000000
        8665000	       865	800048f0	9e400f93	addi	x31,x0,-1564	  x0:0x00000000 x31=0xfffff9e4
        8675000	       866	800048f4	01fb3fb3	sltu	x31,x22,x31	 x22:0x00000000 x31:0xfffff9e4 x31=0x00000001
        8685000	       867	800048f8	400cdcb3	sra	x25,x25,x0	 x25:0x00000000  x0:0x00000000 x25=0x00000000
        8695000	       868	800048fc	00f14803	lbu	x16,15(x2)	  x2:0x80008d28 x16=0x00000000 PA:0x80008d37
        8705000	       869	80004900	405c0f33	sub	x30,x24,x5	 x24:0x00000000  x5:0x00000001 x30=0xffffffff
        8715000	       870	80004904	014814b3	sll	x9,x16,x20	 x16:0x00000000 x20:0x00000000  x9=0x00000000
        8725000	       871	80004908	4083da93	srai	x21,x7,0x8	  x7:0x6f059000 x21=0x006f0590
        8735000	       872	8000490c	01d82733	slt	x14,x16,x29	 x16:0x00000000 x29:0x80009f6c x14=0x00000000
        8745000	       873	80004910	409c5e33	sra	x28,x24,x9	 x24:0x00000000  x9:0x00000000 x28=0x00000000
        8755000	       874	80004914	00f51a33	sll	x20,x10,x15	 x10:0x00000000 x15:0x00000000 x20=0x00000000
        8765000	       875	80004918	00510683	lb	x13,5(x2)	  x2:0x80008d28 x13=0x00000000 PA:0x80008d2d
        8775000	       876	8000491c	9be0d497	auipc	x9,0x9be0d	  x9=0x1be11918
        8785000	       877	80004920	00d9d4b3	srl	x9,x19,x13	 x19:0x00000000 x13:0x00000000  x9=0x00000000
        8795000	       878	80004924	c4402013	slti	x0,x0,-956	  x0:0x00000000
        8805000	       879	80004928	41345013	srai	x0,x8,0x13	  x8:0x80009fc4
        8815000	       880	8000492c	ffc14583	lbu	x11,-4(x2)	  x2:0x80008d28 x11=0x00000000 PA:0x80008d24
        8825000	       881	80004930	00215583	lhu	x11,2(x2)	  x2:0x80008d28 x11=0x00000000 PA:0x80008d2a
        8835000	       882	80004934	dc9d8193	addi	x3,x27,-567	 x27:0x00000000  x3=0xfffffdc9
        8845000	       883	80004938	fe010da3	sb	x0,-5(x2)	  x2:0x80008d28  x0:0x00000000 PA:0x80008d23
        8855000	       884	8000493c	ffb14c83	lbu	x25,-5(x2)	  x2:0x80008d28 x25=0x00000000 PA:0x80008d23
        8865000	       885	80004940	18f7ff13	andi	x30,x15,399	 x15:0x00000000 x30=0x00000000
        8875000	       886	80004944	0042ccb3	xor	x25,x5,x4	  x5:0x00000001  x4:0xb9a098d4 x25=0xb9a098d5
        8885000	       887	80004948	fe412a23	sw	x4,-12(x2)	  x2:0x80008d28  x4:0xb9a098d4 PA:0x80008d1c
        8895000	       888	8000494c	ffa10fa3	sb	x26,-1(x2)	  x2:0x80008d28 x26:0x00000000 PA:0x80008d27
        8905000	       889	80004950	ffa10da3	sb	x26,-5(x2)	  x2:0x80008d28 x26:0x00000000 PA:0x80008d23
        8915000	       890	80004954	00004117	auipc	x2,0x4	  x2=0x80008950
        8925000	       891	80004958	21910113	addi	x2,x2,537	  x2:0x80008950  x2=0x80008b69
        8935000	       892	8000495c	40e151b3	sra	x3,x2,x14	  x2:0x80008b69 x14:0x00000000  x3=0x80008b69
        8945000	       893	80004960	4015dcb3	sra	x25,x11,x1	 x11:0x00000000  x1:0x00000000 x25=0x00000000
        8955000	       894	80004964	fc610f03	lb	x30,-58(x2)	  x2:0x80008b69 x30=0x00000000 PA:0x80008b2f
        8965000	       895	80004968	fca10683	lb	x13,-54(x2)	  x2:0x80008b69 x13=0x00000000 PA:0x80008b33
        8975000	       896	8000496c	41bc0e33	sub	x28,x24,x27	 x24:0x00000000 x27:0x00000000 x28=0x00000000
        8985000	       897	80004970	c708e713	ori	x14,x17,-912	 x17:0x00000000 x14=0xfffffc70
        8995000	       898	80004974	ddec3693	sltiu	x13,x24,-546	 x24:0x00000000 x13=0x00000001
        9005000	       899	80004978	40b5d0b3	sra	x1,x11,x11	 x11:0x00000000 x11:0x00000000  x1=0x00000000
        9015000	       900	8000497c	2edb3d13	sltiu	x26,x22,749	 x22:0x00000000 x26=0x00000001
        9025000	       901	80004980	01410a23	sb	x20,20(x2)	  x2:0x80008b69 x20:0x00000000 PA:0x80008b7d
        9035000	       902	80004984	01465c93	srli	x25,x12,0x14	 x12:0x80008bfa x25=0x00000800
        9045000	       903	80004988	03210b23	sb	x18,54(x2)	  x2:0x80008b69 x18:0x00000000 PA:0x80008b9f
        9055000	       904	8000498c	0090d9b3	srl	x19,x1,x9	  x1:0x00000000  x9:0x00000000 x19=0x00000000
        9065000	       905	80004990	fc314203	lbu	x4,-61(x2)	  x2:0x80008b69  x4=0x00000000 PA:0x80008b2c
        9075000	       906	80004994	01c14003	lbu	x0,28(x2)	  x2:0x80008b69 PA:0x80008b85
        9085000	       907	80004998	00343d33	sltu	x26,x8,x3	  x8:0x80009fc4  x3:0x80008b69 x26=0x00000000
        9095000	       908	8000499c	86262513	slti	x10,x12,-1950	 x12:0x80008bfa x10=0x00000001
        9105000	       909	800049a0	fc510c23	sb	x5,-40(x2)	  x2:0x80008b69  x5:0x00000001 PA:0x80008b41
        9115000	       910	800049a4	def51197	auipc	x3,0xdef51	  x3=0x5ef559a0
        9125000	       911	800049a8	01629c93	slli	x25,x5,0x16	  x5:0x00000001 x25=0x00400000
        9135000	       912	800049ac	f3702393	slti	x7,x0,-201	  x0:0x00000000  x7=0x00000000
        9145000	       913	800049b0	a9ce8893	addi	x17,x29,-1380	 x29:0x80009f6c x17=0x80009a08
        9155000	       914	800049b4	013ee233	or	x4,x29,x19	 x29:0x80009f6c x19:0x00000000  x4=0x80009f6c
        9165000	       915	800049b8	00000013	addi	x0,x0,0	  x0:0x00000000
        9175000	       916	800049bc	00258ab3	add	x21,x11,x2	 x11:0x00000000  x2:0x80008b69 x21=0x80008b69
        9185000	       917	800049c0	409adb33	sra	x22,x21,x9	 x21:0x80008b69  x9:0x00000000 x22=0x80008b69
        9195000	       918	800049c4	00000013	addi	x0,x0,0	  x0:0x00000000
        9205000	       919	800049c8	4b28a493	slti	x9,x17,1202	 x17:0x80009a08  x9=0x00000001
        9215000	       920	800049cc	8a9b8913	addi	x18,x23,-1879	 x23:0x00000000 x18=0xfffff8a9
        9225000	       921	800049d0	016116a3	sh	x22,13(x2)	  x2:0x80008b69 x22:0x80008b69 PA:0x80008b76
        9235000	       922	800049d4	40ac8033	sub	x0,x25,x10	 x25:0x00400000 x10:0x00000001
        9245000	       923	800049d8	01a65893	srli	x17,x12,0x1a	 x12:0x80008bfa x17=0x00000020
        9255000	       924	800049dc	02514483	lbu	x9,37(x2)	  x2:0x80008b69  x9=0x00000000 PA:0x80008b8e
        9265000	       925	800049e0	00514f33	xor	x30,x2,x5	  x2:0x80008b69  x5:0x00000001 x30=0x80008b68
        9275000	       926	800049e4	00810003	lb	x0,8(x2)	  x2:0x80008b69 PA:0x80008b71
        9285000	       927	800049e8	03014383	lbu	x7,48(x2)	  x2:0x80008b69  x7=0x00000000 PA:0x80008b99
        9295000	       928	800049ec	03511ca3	sh	x21,57(x2)	  x2:0x80008b69 x21:0x80008b69 PA:0x80008ba2
        9305000	       929	800049f0	fc915d83	lhu	x27,-55(x2)	  x2:0x80008b69 x27=0x00000000 PA:0x80008b32
        9315000	       930	800049f4	40dbd993	srai	x19,x23,0xd	 x23:0x00000000 x19=0x00000000
        9325000	       931	800049f8	fcb11a03	lh	x20,-53(x2)	  x2:0x80008b69 x20=0x00000000 PA:0x80008b34
        9335000	       932	800049fc	01f3e733	or	x14,x7,x31	  x7:0x00000000 x31:0x00000001 x14=0x00000001
        9345000	       933	80004a00	e481aa13	slti	x20,x3,-440	  x3:0x5ef559a0 x20=0x00000000
        9355000	       934	80004a04	c70e8c93	addi	x25,x29,-912	 x29:0x80009f6c x25=0x80009bdc
        9365000	       935	80004a08	00710b33	add	x22,x2,x7	  x2:0x80008b69  x7:0x00000000 x22=0x80008b69
        9375000	       936	80004a0c	00434633	xor	x12,x6,x4	  x6:0x00000000  x4:0x80009f6c x12=0x80009f6c
        9385000	       937	80004a10	b674f593	andi	x11,x9,-1177	  x9:0x00000000 x11=0x00000000
        9395000	       938	80004a14	1916af37	lui	x30,0x1916a	 x30=0x1916a000
        9405000	       939	80004a18	41c45c33	sra	x24,x8,x28	  x8:0x80009fc4 x28:0x00000000 x24=0x80009fc4
        9415000	       940	80004a1c	009014b3	sll	x9,x0,x9	  x0:0x00000000  x9:0x00000000  x9=0x00000000
        9425000	       941	80004a20	02f25663	bge	x4,x15,80004a4c	  x4:0x80009f6c x15:0x00000000
        9435000	       942	80004a24	97a24293	xori	x5,x4,-1670	  x4:0x80009f6c  x5=0x7fff6616
        9445000	       943	80004a28	01731333	sll	x6,x6,x23	  x6:0x00000000 x23:0x00000000  x6=0x00000000
        9455000	       944	80004a2c	594a6e13	ori	x28,x20,1428	 x20:0x00000000 x28=0x00000594
        9465000	       945	80004a30	00491513	slli	x10,x18,0x4	 x18:0xfffff8a9 x10=0xffff8a90
        9475000	       946	80004a34	d7a6ba93	sltiu	x21,x13,-646	 x13:0x00000001 x21=0x00000001
        9485000	       947	80004a38	41dad933	sra	x18,x21,x29	 x21:0x00000001 x29:0x80009f6c x18=0x00000000
        9495000	       948	80004a3c	41430b33	sub	x22,x6,x20	  x6:0x00000000 x20:0x00000000 x22=0x00000000
        9505000	       949	80004a40	00000013	addi	x0,x0,0	  x0:0x00000000
        9515000	       950	80004a44	5b01f913	andi	x18,x3,1456	  x3:0x5ef559a0 x18=0x000001a0
        9525000	       951	80004a48	01065093	srli	x1,x12,0x10	 x12:0x80009f6c  x1=0x00008000
        9535000	       952	80004a4c	41c08bb3	sub	x23,x1,x28	  x1:0x00008000 x28:0x00000594 x23=0x00007a6c
        9545000	       953	80004a50	151df337	lui	x6,0x151df	  x6=0x151df000
        9555000	       954	80004a54	00b526b3	slt	x13,x10,x11	 x10:0xffff8a90 x11:0x00000000 x13=0x00000001
        9565000	       955	80004a58	022d7c63	bgeu	x26,x2,80004a90	 x26:0x00000000  x2:0x80008b69
        9575000	       956	80004a5c	41648233	sub	x4,x9,x22	  x9:0x00000000 x22:0x00000000  x4=0x00000000
        9585000	       957	80004a60	008e1633	sll	x12,x28,x8	 x28:0x00000594  x8:0x80009fc4 x12=0x00005940
        9595000	       958	80004a64	053b1397	auipc	x7,0x53b1	  x7=0x853b5a60
        9605000	       959	80004a68	04b48063	beq	x9,x11,80004aa8	  x9:0x00000000 x11:0x00000000
        9615000	       960	00000000	00000013	addi	x0,x0,0	  x0:0x00000000
        9625000	       961	80004aa4	00000013	addi	x0,x0,0	  x0:0x00000000
        9635000	       962	80004aa8	ca1cff13	andi	x30,x25,-863	 x25:0x80009bdc x30=0x80009880
        9645000	       963	80004aac	e7b5a4b7	lui	x9,0xe7b5a	  x9=0xe7b5a000
        9655000	       964	80004ab0	01364663	blt	x12,x19,80004abc	 x12:0x00005940 x19:0x00000000
        9665000	       965	80004ab4	01f7c8b3	xor	x17,x15,x31	 x15:0x00000000 x31:0x00000001 x17=0x00000001
        9675000	       966	80004ab8	3d574f93	xori	x31,x14,981	 x14:0x00000001 x31=0x000003d4
        9685000	       967	80004abc	aa786513	ori	x10,x16,-1369	 x16:0x00000000 x10=0xfffffaa7
        9695000	       968	80004ac0	02ec6293	ori	x5,x24,46	 x24:0x80009fc4  x5=0x80009fee
        9705000	       969	80004ac4	41b45c13	srai	x24,x8,0x1b	  x8:0x80009fc4 x24=0xfffffff0
        9715000	       970	80004ac8	00000013	addi	x0,x0,0	  x0:0x00000000
        9725000	       971	80004acc	9f954c17	auipc	x24,0x9f954	 x24=0x1f958ac8
        9735000	       972	80004ad0	0264ec63	bltu	x9,x6,80004b08	  x9:0xe7b5a000  x6:0x151df000
        9745000	       973	80004ad4	02a1de63	bge	x3,x10,80004b10	  x3:0x5ef559a0 x10:0xfffffaa7
        9755000	       974	00000000	00000013	addi	x0,x0,0	  x0:0x00000000
        9765000	       975	80004b0c	00000013	addi	x0,x0,0	  x0:0x00000000
        9775000	       976	80004b10	012025b3	slt	x11,x0,x18	  x0:0x00000000 x18:0x000001a0 x11=0x00000001
        9785000	       977	80004b14	01fd1a63	bne	x26,x31,80004b28	 x26:0x00000000 x31:0x000003d4
        9795000	       978	00000000	00000013	addi	x0,x0,0	  x0:0x00000000
        9805000	       979	80004b24	00000013	addi	x0,x0,0	  x0:0x00000000
        9815000	       980	80004b28	00f5e463	bltu	x11,x15,80004b30	 x11:0x00000001 x15:0x00000000
        9825000	       981	80004b2c	01fb8a63	beq	x23,x31,80004b40	 x23:0x00007a6c x31:0x000003d4
        9835000	       982	80004b30	032c4c63	blt	x24,x18,80004b68	 x24:0x1f958ac8 x18:0x000001a0
        9845000	       983	80004b34	00e12533	slt	x10,x2,x14	  x2:0x80008b69 x14:0x00000001 x10=0x00000001
        9855000	       984	80004b38	405386b3	sub	x13,x7,x5	  x7:0x853b5a60  x5:0x80009fee x13=0x053aba72
        9865000	       985	80004b3c	001d6bb3	or	x23,x26,x1	 x26:0x00000000  x1:0x00008000 x23=0x00008000
        9875000	       986	80004b40	00000013	addi	x0,x0,0	  x0:0x00000000
        9885000	       987	80004b44	fc106b13	ori	x22,x0,-63	  x0:0x00000000 x22=0xffffffc1
        9895000	       988	80004b48	8cd1c3b7	lui	x7,0x8cd1c	  x7=0x8cd1c000
        9905000	       989	80004b4c	018c4263	blt	x24,x24,80004b50	 x24:0x1f958ac8 x24:0x1f958ac8
        9915000	       990	80004b50	016ddf93	srli	x31,x27,0x16	 x27:0x00000000 x31=0x00000000
        9925000	       991	80004b54	8b81c817	auipc	x16,0x8b81c	 x16=0x0b820b50
        9935000	       992	80004b58	b1716a13	ori	x20,x2,-1257	  x2:0x80008b69 x20=0xfffffb7f
        9945000	       993	80004b5c	014b4a63	blt	x22,x20,80004b70	 x22:0xffffffc1 x20:0xfffffb7f
        9955000	       994	80004b60	d0c90c13	addi	x24,x18,-756	 x18:0x000001a0 x24=0xfffffeac
        9965000	       995	80004b64	004301b3	add	x3,x6,x4	  x6:0x151df000  x4:0x00000000  x3=0x151df000
        9975000	       996	80004b68	41fc59b3	sra	x19,x24,x31	 x24:0xfffffeac x31:0x00000000 x19=0xfffffeac
        9985000	       997	80004b6c	0578e263	bltu	x17,x23,80004bb0	 x17:0x00000001 x23:0x00008000
        9995000	       998	00000000	00000013	addi	x0,x0,0	  x0:0x00000000
       10005000	       999	80004bac	00000013	addi	x0,x0,0	  x0:0x00000000
       10015000	      1000	80004bb0	02feec63	bltu	x29,x15,80004be8	 x29:0x80009f6c x15:0x00000000
       10025000	      1001	80004bb4	4951c693	xori	x13,x3,1173	  x3:0x151df000 x13=0x151df495
       10035000	      1002	80004bb8	02eb8463	beq	x23,x14,80004be0	 x23:0x00008000 x14:0x00000001
       10045000	      1003	80004bbc	40885f13	srai	x30,x16,0x8	 x16:0x0b820b50 x30=0x000b820b
       10055000	      1004	80004bc0	015af733	and	x14,x21,x21	 x21:0x00000001 x21:0x00000001 x14=0x00000001
       10065000	      1005	80004bc4	ce8ff693	andi	x13,x31,-792	 x31:0x00000000 x13=0x00000000
       10075000	      1006	80004bc8	408ad113	srai	x2,x21,0x8	 x21:0x00000001  x2=0x00000000
       10085000	      1007	80004bcc	00a540b3	xor	x1,x10,x10	 x10:0x00000001 x10:0x00000001  x1=0x00000000
       10095000	      1008	80004bd0	406b0c33	sub	x24,x22,x6	 x22:0xffffffc1  x6:0x151df000 x24=0xeae20fc1
       10105000	      1009	80004bd4	00000013	addi	x0,x0,0	  x0:0x00000000
       10115000	      1010	80004bd8	82dd7613	andi	x12,x26,-2003	 x26:0x00000000 x12=0x00000000
       10125000	      1011	80004bdc	04b26063	bltu	x4,x11,80004c1c	  x4:0x00000000 x11:0x00000001
       10135000	      1012	00000000	00000013	addi	x0,x0,0	  x0:0x00000000
       10145000	      1013	80004c18	00000013	addi	x0,x0,0	  x0:0x00000000
       10155000	      1014	80004c1c	3d4cc717	auipc	x14,0x3d4cc	 x14=0xbd4d0c18
       10165000	      1015	80004c20	40820833	sub	x16,x4,x8	  x4:0x00000000  x8:0x80009fc4 x16=0x7fff603c
       10175000	      1016	80004c24	4098dd33	sra	x26,x17,x9	 x17:0x00000001  x9:0xe7b5a000 x26=0x00000001
       10185000	      1017	80004c28	0020ca63	blt	x1,x2,80004c3c	  x1:0x00000000  x2:0x00000000
       10195000	      1018	80004c2c	05f27663	bgeu	x4,x31,80004c78	  x4:0x00000000 x31:0x00000000
       10205000	      1019	00000000	00000013	addi	x0,x0,0	  x0:0x00000000
       10215000	      1020	80004c74	00000013	addi	x0,x0,0	  x0:0x00000000
       10225000	      1021	80004c78	403602b3	sub	x5,x12,x3	 x12:0x00000000  x3:0x151df000  x5=0xeae21000
       10235000	      1022	80004c7c	05211063	bne	x2,x18,80004cbc	  x2:0x00000000 x18:0x000001a0
       10245000	      1023	00000000	00000013	addi	x0,x0,0	  x0:0x00000000
       10255000	      1024	80004cb8	00000013	addi	x0,x0,0	  x0:0x00000000
       10265000	      1025	80004cbc	000d9c13	slli	x24,x27,0x0	 x27:0x00000000 x24=0x00000000
       10275000	      1026	80004cc0	051f8663	beq	x31,x17,80004d0c	 x31:0x00000000 x17:0x00000001
       10285000	      1027	80004cc4	b8807f37	lui	x30,0xb8807	 x30=0xb8807000
       10295000	      1028	80004cc8	05f10063	beq	x2,x31,80004d08	  x2:0x00000000 x31:0x00000000
       10305000	      1029	00000000	00000013	addi	x0,x0,0	  x0:0x00000000
       10315000	      1030	80004d04	00000013	addi	x0,x0,0	  x0:0x00000000
       10325000	      1031	80004d08	40335d13	srai	x26,x6,0x3	  x6:0x151df000 x26=0x02a3be00
       10335000	      1032	80004d0c	0114e9b3	or	x19,x9,x17	  x9:0xe7b5a000 x17:0x00000001 x19=0xe7b5a001
       10345000	      1033	80004d10	54e1d697	auipc	x13,0x54e1d	 x13=0xd4e21d0c
       10355000	      1034	80004d14	2a0f0d93	addi	x27,x30,672	 x30:0xb8807000 x27=0xb88072a0
       10365000	      1035	80004d18	013eff33	and	x30,x29,x19	 x29:0x80009f6c x19:0xe7b5a001 x30=0x80008000
       10375000	      1036	80004d1c	00000013	addi	x0,x0,0	  x0:0x00000000
       10385000	      1037	80004d20	00000013	addi	x0,x0,0	  x0:0x00000000
       10395000	      1038	80004d24	00499e33	sll	x28,x19,x4	 x19:0xe7b5a001  x4:0x00000000 x28=0xe7b5a001
       10405000	      1039	80004d28	019395b3	sll	x11,x7,x25	  x7:0x8cd1c000 x25:0x80009bdc x11=0x00000000
       10415000	      1040	80004d2c	015facb3	slt	x25,x31,x21	 x31:0x00000000 x21:0x00000001 x25=0x00000001
       10425000	      1041	80004d30	91efb893	sltiu	x17,x31,-1762	 x31:0x00000000 x17=0x00000001
       10435000	      1042	80004d34	00000013	addi	x0,x0,0	  x0:0x00000000
       10445000	      1043	80004d38	01b232b3	sltu	x5,x4,x27	  x4:0x00000000 x27:0xb88072a0  x5=0x00000001
       10455000	      1044	80004d3c	40a7d0b3	sra	x1,x15,x10	 x15:0x00000000 x10:0x00000001  x1=0x00000000
       10465000	      1045	80004d40	410cd993	srai	x19,x25,0x10	 x25:0x00000001 x19=0x00000000
       10475000	      1046	80004d44	00ea5513	srli	x10,x20,0xe	 x20:0xfffffb7f x10=0x0003ffff
       10485000	      1047	80004d48	03bdcc63	blt	x27,x27,80004d80	 x27:0xb88072a0 x27:0xb88072a0
       10495000	      1048	80004d4c	013dc333	xor	x6,x27,x19	 x27:0xb88072a0 x19:0x00000000  x6=0xb88072a0
       10505000	      1049	80004d50	d8a07217	auipc	x4,0xd8a07	  x4=0x58a0bd4c
       10515000	      1050	80004d54	4038d293	srai	x5,x17,0x3	 x17:0x00000001  x5=0x00000000
       10525000	      1051	80004d58	019eea63	bltu	x29,x25,80004d6c	 x29:0x80009f6c x25:0x00000001
       10535000	      1052	80004d5c	c3c56b13	ori	x22,x10,-964	 x10:0x0003ffff x22=0xffffffff
       10545000	      1053	80004d60	41e30933	sub	x18,x6,x30	  x6:0xb88072a0 x30:0x80008000 x18=0x387ff2a0
       10555000	      1054	80004d64	f3d20513	addi	x10,x4,-195	  x4:0x58a0bd4c x10=0x58a0bc89
       10565000	      1055	80004d68	001ef4b3	and	x9,x29,x1	 x29:0x80009f6c  x1:0x00000000  x9=0x00000000
       10575000	      1056	80004d6c	409ada33	sra	x20,x21,x9	 x21:0x00000001  x9:0x00000000 x20=0x00000001
       10585000	      1057	80004d70	00000013	addi	x0,x0,0	  x0:0x00000000
       10595000	      1058	80004d74	64fb7293	andi	x5,x22,1615	 x22:0xffffffff  x5=0x0000064f
       10605000	      1059	80004d78	00379b33	sll	x22,x15,x3	 x15:0x00000000  x3:0x151df000 x22=0x00000000
       10615000	      1060	80004d7c	01743bb3	sltu	x23,x8,x23	  x8:0x80009fc4 x23:0x00008000 x23=0x00000000
       10625000	      1061	80004d80	cdd3cf93	xori	x31,x7,-803	  x7:0x8cd1c000 x31=0x732e3cdd
       10635000	      1062	80004d84	035f0e63	beq	x30,x21,80004dc0	 x30:0x80008000 x21:0x00000001
       10645000	      1063	80004d88	027cf063	bgeu	x25,x7,80004da8	 x25:0x00000001  x7:0x8cd1c000
       10655000	      1064	80004d8c	415b5733	sra	x14,x22,x21	 x22:0x00000000 x21:0x00000001 x14=0x00000000
       10665000	      1065	80004d90	00acd263	bge	x25,x10,80004d94	 x25:0x00000001 x10:0x58a0bc89
       10675000	      1066	80004d94	00307663	bgeu	x0,x3,80004da0	  x0:0x00000000  x3:0x151df000
       10685000	      1067	80004d98	01361133	sll	x2,x12,x19	 x12:0x00000000 x19:0x00000000  x2=0x00000000
       10695000	      1068	80004d9c	3d0a0917	auipc	x18,0x3d0a0	 x18=0xbd0a4d98
       10705000	      1069	80004da0	416e5333	sra	x6,x28,x22	 x28:0xe7b5a001 x22:0x00000000  x6=0xe7b5a001
       10715000	      1070	80004da4	004a7cb3	and	x25,x20,x4	 x20:0x00000001  x4:0x58a0bd4c x25=0x00000000
       10725000	      1071	80004da8	4565f517	auipc	x10,0x4565f	 x10=0xc5663da4
       10735000	      1072	80004dac	411f5813	srai	x16,x30,0x11	 x30:0x80008000 x16=0xffffc000
       10745000	      1073	80004db0	c281be13	sltiu	x28,x3,-984	  x3:0x151df000 x28=0x00000001
       10755000	      1074	80004db4	80bbf713	andi	x14,x23,-2037	 x23:0x00000000 x14=0x00000000
       10765000	      1075	80004db8	41075733	sra	x14,x14,x16	 x14:0x00000000 x16:0xffffc000 x14=0x00000000
       10775000	      1076	80004dbc	5ecdf993	andi	x19,x27,1516	 x27:0xb88072a0 x19=0x000000a0
       10785000	      1077	80004dc0	0068c4b3	xor	x9,x17,x6	 x17:0x00000001  x6:0xe7b5a001  x9=0xe7b5a000
       10795000	      1078	80004dc4	549db013	sltiu	x0,x27,1353	 x27:0xb88072a0
       10805000	      1079	80004dc8	02db1263	bne	x22,x13,80004dec	 x22:0x00000000 x13:0xd4e21d0c
       10815000	      1080	00000000	00000013	addi	x0,x0,0	  x0:0x00000000
       10825000	      1081	80004de8	00000013	addi	x0,x0,0	  x0:0x00000000
       10835000	      1082	80004dec	01131933	sll	x18,x6,x17	  x6:0xe7b5a001 x17:0x00000001 x18=0xcf6b4002
       10845000	      1083	80004df0	01ae99b3	sll	x19,x29,x26	 x29:0x80009f6c x26:0x02a3be00 x19=0x80009f6c
       10855000	      1084	80004df4	631f4313	xori	x6,x30,1585	 x30:0x80008000  x6=0x80008631
       10865000	      1085	80004df8	019cf933	and	x18,x25,x25	 x25:0x00000000 x25:0x00000000 x18=0x00000000
       10875000	      1086	80004dfc	03c98c63	beq	x19,x28,80004e34	 x19:0x80009f6c x28:0x00000001
       10885000	      1087	80004e00	0196c133	xor	x2,x13,x25	 x13:0xd4e21d0c x25:0x00000000  x2=0xd4e21d0c
       10895000	      1088	80004e04	010d2233	slt	x4,x26,x16	 x26:0x02a3be00 x16:0xffffc000  x4=0x00000000
       10905000	      1089	80004e08	000c94b3	sll	x9,x25,x0	 x25:0x00000000  x0:0x00000000  x9=0x00000000
       10915000	      1090	80004e0c	01008263	beq	x1,x16,80004e10	  x1:0x00000000 x16:0xffffc000
       10925000	      1091	80004e10	01bc7263	bgeu	x24,x27,80004e14	 x24:0x00000000 x27:0xb88072a0
       10935000	      1092	80004e14	00362b33	slt	x22,x12,x3	 x12:0x00000000  x3:0x151df000 x22=0x00000001
       10945000	      1093	80004e18	63489cb7	lui	x25,0x63489	 x25=0x63489000
       10955000	      1094	80004e1c	00e16533	or	x10,x2,x14	  x2:0xd4e21d0c x14:0x00000000 x10=0xd4e21d0c
       10965000	      1095	80004e20	00c15113	srli	x2,x2,0xc	  x2:0xd4e21d0c  x2=0x000d4e21
       10975000	      1096	80004e24	009dddb3	srl	x27,x27,x9	 x27:0xb88072a0  x9:0x00000000 x27=0xb88072a0
       10985000	      1097	80004e28	9fb62513	slti	x10,x12,-1541	 x12:0x00000000 x10=0x00000000
       10995000	      1098	80004e2c	5f26a817	auipc	x16,0x5f26a	 x16=0xdf26ee28
       11005000	      1099	80004e30	01049333	sll	x6,x9,x16	  x9:0x00000000 x16:0xdf26ee28  x6=0x00000000
       11015000	      1100	80004e34	f2ae2b13	slti	x22,x28,-214	 x28:0x00000001 x22=0x00000000
       11025000	      1101	80004e38	00ea2c33	slt	x24,x20,x14	 x20:0x00000001 x14:0x00000000 x24=0x00000000
       11035000	      1102	80004e3c	00dcd593	srli	x11,x25,0xd	 x25:0x63489000 x11=0x00031a44
       11045000	      1103	80004e40	00282bb3	slt	x23,x16,x2	 x16:0xdf26ee28  x2:0x000d4e21 x23=0x00000001
       11055000	      1104	80004e44	01351a63	bne	x10,x19,80004e58	 x10:0x00000000 x19:0x80009f6c
       11065000	      1105	00000000	00000013	addi	x0,x0,0	  x0:0x00000000
       11075000	      1106	80004e54	00000013	addi	x0,x0,0	  x0:0x00000000
       11085000	      1107	80004e58	02659c63	bne	x11,x6,80004e90	 x11:0x00031a44  x6:0x00000000
       11095000	      1108	00000000	00000013	addi	x0,x0,0	  x0:0x00000000
       11105000	      1109	80004e8c	00000013	addi	x0,x0,0	  x0:0x00000000
       11115000	      1110	80004e90	ea637d93	andi	x27,x6,-346	  x6:0x00000000 x27=0x00000000
       11125000	      1111	80004e94	418c5813	srai	x16,x24,0x18	 x24:0x00000000 x16=0x00000000
       11135000	      1112	80004e98	aa736713	ori	x14,x6,-1369	  x6:0x00000000 x14=0xfffffaa7
       11145000	      1113	80004e9c	43727e13	andi	x28,x4,1079	  x4:0x00000000 x28=0x00000000
       11155000	      1114	80004ea0	5168b597	auipc	x11,0x5168b	 x11=0xd168fe9c
       11165000	      1115	80004ea4	000f0bb3	add	x23,x30,x0	 x30:0x80008000  x0:0x00000000 x23=0x80008000
       11175000	      1116	80004ea8	00b99293	slli	x5,x19,0xb	 x19:0x80009f6c  x5=0x04fb6000
       11185000	      1117	80004eac	1a86aa93	slti	x21,x13,424	 x13:0xd4e21d0c x21=0x00000001
       11195000	      1118	80004eb0	00114a63	blt	x2,x1,80004ec4	  x2:0x000d4e21  x1:0x00000000
       11205000	      1119	80004eb4	01299863	bne	x19,x18,80004ec4	 x19:0x80009f6c x18:0x00000000
       11215000	      1120	00000000	00000013	addi	x0,x0,0	  x0:0x00000000
       11225000	      1121	80004ec0	00000013	addi	x0,x0,0	  x0:0x00000000
       11235000	      1122	80004ec4	00000013	addi	x0,x0,0	  x0:0x00000000
       11245000	      1123	80004ec8	3db80e13	addi	x28,x16,987	 x16:0x00000000 x28=0x000003db
       11255000	      1124	80004ecc	014c7a33	and	x20,x24,x20	 x24:0x00000000 x20:0x00000001 x20=0x00000000
       11265000	      1125	80004ed0	00cfde13	srli	x28,x31,0xc	 x31:0x732e3cdd x28=0x000732e3
       11275000	      1126	80004ed4	00c08c33	add	x24,x1,x12	  x1:0x00000000 x12:0x00000000 x24=0x00000000
       11285000	      1127	80004ed8	01555533	srl	x10,x10,x21	 x10:0x00000000 x21:0x00000001 x10=0x00000000
       11295000	      1128	80004edc	000abc33	sltu	x24,x21,x0	 x21:0x00000001  x0:0x00000000 x24=0x00000000
       11305000	      1129	80004ee0	1644c817	auipc	x16,0x1644c	 x16=0x96450edc
       11315000	      1130	80004ee4	00591263	bne	x18,x5,80004ee8	 x18:0x00000000  x5:0x04fb6000
       11325000	      1131	00000000	00000013	addi	x0,x0,0	  x0:0x00000000
       11335000	      1132	80004ee4	00000013	addi	x0,x0,0	  x0:0x00000000
       11345000	      1133	80004ee8	0009e663	bltu	x19,x0,80004ef4	 x19:0x80009f6c  x0:0x00000000
       11355000	      1134	80004eec	01f22fb3	slt	x31,x4,x31	  x4:0x00000000 x31:0x732e3cdd x31=0x00000001
       11365000	      1135	80004ef0	024bd063	bge	x23,x4,80004f10	 x23:0x80008000  x4:0x00000000
       11375000	      1136	80004ef4	b8127313	andi	x6,x4,-1151	  x4:0x00000000  x6=0x00000000
       11385000	      1137	80004ef8	fc6f7a17	auipc	x20,0xfc6f7	 x20=0x7c6fbef4
       11395000	      1138	80004efc	00c0f333	and	x6,x1,x12	  x1:0x00000000 x12:0x00000000  x6=0x00000000
       11405000	      1139	80004f00	02a9dc63	bge	x19,x10,80004f38	 x19:0x80009f6c x10:0x00000000
       11415000	      1140	80004f04	2c0b6f93	ori	x31,x22,704	 x22:0x00000000 x31=0x000002c0
       11425000	      1141	80004f08	241b0c93	addi	x25,x22,577	 x22:0x00000000 x25=0x00000241
       11435000	      1142	80004f0c	2cd2fd13	andi	x26,x5,717	  x5:0x04fb6000 x26=0x00000000
       11445000	      1143	80004f10	019b14b3	sll	x9,x22,x25	 x22:0x00000000 x25:0x00000241  x9=0x00000000
       11455000	      1144	80004f14	050bc063	blt	x23,x16,80004f54	 x23:0x80008000 x16:0x96450edc
       11465000	      1145	00000000	00000013	addi	x0,x0,0	  x0:0x00000000
       11475000	      1146	80004f50	00000013	addi	x0,x0,0	  x0:0x00000000
       11485000	      1147	80004f54	bc70a713	slti	x14,x1,-1081	  x1:0x00000000 x14=0x00000000
       11495000	      1148	80004f58	02907e63	bgeu	x0,x9,80004f94	  x0:0x00000000  x9:0x00000000
       11505000	      1149	00000000	00000013	addi	x0,x0,0	  x0:0x00000000
       11515000	      1150	80004f90	00000013	addi	x0,x0,0	  x0:0x00000000
       11525000	      1151	80004f94	0184d8b3	srl	x17,x9,x24	  x9:0x00000000 x24:0x00000000 x17=0x00000000
       11535000	      1152	80004f98	00c38a33	add	x20,x7,x12	  x7:0x8cd1c000 x12:0x00000000 x20=0x8cd1c000
       11545000	      1153	80004f9c	00003c97	auipc	x25,0x3	 x25=0x80007f98
       11555000	      1154	80004fa0	5f9c8c93	addi	x25,x25,1529	 x25:0x80007f98 x25=0x80008591
       11565000	      1155	80004fa4	00451013	slli	x0,x10,0x4	 x10:0x00000000
       11575000	      1156	80004fa8	0114a1b3	slt	x3,x9,x17	  x9:0x00000000 x17:0x00000000  x3=0x00000000
       11585000	      1157	80004fac	008c8423	sb	x8,8(x25)	 x25:0x80008591  x8:0x80009fc4 PA:0x80008599
       11595000	      1158	80004fb0	41105d33	sra	x26,x0,x17	  x0:0x00000000 x17:0x00000000 x26=0x00000000
       11605000	      1159	80004fb4	002c8603	lb	x12,2(x25)	 x25:0x80008591 x12=0x00000000 PA:0x80008593
       11615000	      1160	80004fb8	00dcde03	lhu	x28,13(x25)	 x25:0x80008591 x28=0x00000000 PA:0x8000859e
       11625000	      1161	80004fbc	84796313	ori	x6,x18,-1977	 x18:0x00000000  x6=0xfffff847
       11635000	      1162	80004fc0	01f38933	add	x18,x7,x31	  x7:0x8cd1c000 x31:0x000002c0 x18=0x8cd1c2c0
       11645000	      1163	80004fc4	003c8823	sb	x3,16(x25)	 x25:0x80008591  x3:0x00000000 PA:0x800085a1
       11655000	      1164	80004fc8	40015293	srai	x5,x2,0x0	  x2:0x000d4e21  x5=0x000d4e21
       11665000	      1165	80004fcc	01947a33	and	x20,x8,x25	  x8:0x80009fc4 x25:0x80008591 x20=0x80008580
       11675000	      1166	80004fd0	feecafa3	sw	x14,-1(x25)	 x25:0x80008591 x14:0x00000000 PA:0x80008590
       11685000	      1167	80004fd4	6d9ded97	auipc	x27,0x6d9de	 x27=0xed9e2fd0
       11695000	      1168	80004fd8	414254b3	sra	x9,x4,x20	  x4:0x00000000 x20:0x80008580  x9=0x00000000
       11705000	      1169	80004fdc	febc8c23	sb	x11,-8(x25)	 x25:0x80008591 x11:0xd168fe9c PA:0x80008589
       11715000	      1170	80004fe0	ff9cd003	lhu	x0,-7(x25)	 x25:0x80008591 PA:0x8000858a
       11725000	      1171	80004fe4	010cc683	lbu	x13,16(x25)	 x25:0x80008591 x13=0x00000000 PA:0x800085a1
       11735000	      1172	80004fe8	0157f3b3	and	x7,x15,x21	 x15:0x00000000 x21:0x00000001  x7=0x00000000
       11745000	      1173	80004fec	d493fc13	andi	x24,x7,-695	  x7:0x00000000 x24=0x00000000
       11755000	      1174	80004ff0	01c73b33	sltu	x22,x14,x28	 x14:0x00000000 x28:0x00000000 x22=0x00000000
       11765000	      1175	80004ff4	fe9c8fa3	sb	x9,-1(x25)	 x25:0x80008591  x9:0x00000000 PA:0x80008590
       11775000	      1176	80004ff8	02ab2093	slti	x1,x22,42	 x22:0x00000000  x1=0x00000001
       11785000	      1177	80004ffc	f574c193	xori	x3,x9,-169	  x9:0x00000000  x3=0xffffff57
       11795000	      1178	80005000	0196adb3	slt	x27,x13,x25	 x13:0x00000000 x25:0x80008591 x27=0x00000000
       11805000	      1179	80005004	01f7abb3	slt	x23,x15,x31	 x15:0x00000000 x31:0x000002c0 x23=0x00000001
       11815000	      1180	80005008	00dcd003	lhu	x0,13(x25)	 x25:0x80008591 PA:0x8000859e
       11825000	      1181	8000500c	8d966bb7	lui	x23,0x8d966	 x23=0x8d966000
       11835000	      1182	80005010	913e8f93	addi	x31,x29,-1773	 x29:0x80009f6c x31=0x8000987f
       11845000	      1183	80005014	ff5c8b03	lb	x22,-11(x25)	 x25:0x80008591 x22=0x00000000 PA:0x80008586
       11855000	      1184	80005018	6740d037	lui	x0,0x6740d	
       11865000	      1185	8000501c	044a0063	beq	x20,x4,8000505c	 x20:0x80008580  x4:0x00000000
       11875000	      1186	80005020	03986c63	bltu	x16,x25,80005058	 x16:0x96450edc x25:0x80008591
       11885000	      1187	80005024	7dd38213	addi	x4,x7,2013	  x7:0x00000000  x4=0x000007dd
       11895000	      1188	80005028	00a30533	add	x10,x6,x10	  x6:0xfffff847 x10:0x00000000 x10=0xfffff847
       11905000	      1189	8000502c	00000013	addi	x0,x0,0	  x0:0x00000000
       11915000	      1190	80005030	c270f593	andi	x11,x1,-985	  x1:0x00000001 x11=0x00000001
       11925000	      1191	80005034	dbdfa213	slti	x4,x31,-579	 x31:0x8000987f  x4=0x00000001
       11935000	      1192	80005038	40fbd813	srai	x16,x23,0xf	 x23:0x8d966000 x16=0xffff1b2c
       11945000	      1193	8000503c	03104c63	blt	x0,x17,80005074	  x0:0x00000000 x17:0x00000000
       11955000	      1194	80005040	2bfd3637	lui	x12,0x2bfd3	 x12=0x2bfd3000
       11965000	      1195	80005044	013de8b3	or	x17,x27,x19	 x27:0x00000000 x19:0x80009f6c x17=0x80009f6c
       11975000	      1196	80005048	0248fa63	bgeu	x17,x4,8000507c	 x17:0x80009f6c  x4:0x00000001
       11985000	      1197	00000000	00000013	addi	x0,x0,0	  x0:0x00000000
       11995000	      1198	80005078	00000013	addi	x0,x0,0	  x0:0x00000000
       12005000	      1199	8000507c	d0f4ea13	ori	x20,x9,-753	  x9:0x00000000 x20=0xfffffd0f
       12015000	      1200	80005080	166c2313	slti	x6,x24,358	 x24:0x00000000  x6=0x00000001
       12025000	      1201	80005084	00000013	addi	x0,x0,0	  x0:0x00000000
       12035000	      1202	80005088	01baca63	blt	x21,x27,8000509c	 x21:0x00000001 x27:0x00000000
       12045000	      1203	8000508c	03109263	bne	x1,x17,800050b0	  x1:0x00000001 x17:0x80009f6c
       12055000	      1204	00000000	00000013	addi	x0,x0,0	  x0:0x00000000
       12065000	      1205	800050ac	00000013	addi	x0,x0,0	  x0:0x00000000
       12075000	      1206	800050b0	00b8d513	srli	x10,x17,0xb	 x17:0x80009f6c x10=0x00100013
       12085000	      1207	800050b4	03718263	beq	x3,x23,800050d8	  x3:0xffffff57 x23:0x8d966000
       12095000	      1208	800050b8	0033dc93	srli	x25,x7,0x3	  x7:0x00000000 x25=0x00000000
       12105000	      1209	800050bc	f875f313	andi	x6,x11,-121	 x11:0x00000001  x6=0x00000001
       12115000	      1210	800050c0	f3d1c9b7	lui	x19,0xf3d1c	 x19=0xf3d1c000
       12125000	      1211	800050c4	05bd9263	bne	x27,x27,80005108	 x27:0x00000000 x27:0x00000000
       12135000	      1212	800050c8	4091df13	srai	x30,x3,0x9	  x3:0xffffff57 x30=0xffffffff
       12145000	      1213	800050cc	00397b33	and	x22,x18,x3	 x18:0x8cd1c2c0  x3:0xffffff57 x22=0x8cd1c240
       12155000	      1214	800050d0	01316463	bltu	x2,x19,800050d8	  x2:0x000d4e21 x19:0xf3d1c000
       12165000	      1215	00000000	00000013	addi	x0,x0,0	  x0:0x00000000
       12175000	      1216	800050d4	00000013	addi	x0,x0,0	  x0:0x00000000
       12185000	      1217	800050d8	011b54b3	srl	x9,x22,x17	 x22:0x8cd1c240 x17:0x80009f6c  x9=0x0008cd1c
       12195000	      1218	800050dc	0148c033	xor	x0,x17,x20	 x17:0x80009f6c x20:0xfffffd0f
       12205000	      1219	800050e0	0161c933	xor	x18,x3,x22	  x3:0xffffff57 x22:0x8cd1c240 x18=0x732e3d17
       12215000	      1220	800050e4	eef562b7	lui	x5,0xeef56	  x5=0xeef56000
       12225000	      1221	800050e8	01021c13	slli	x24,x4,0x10	  x4:0x00000001 x24=0x00010000
       12235000	      1222	800050ec	70128e13	addi	x28,x5,1793	  x5:0xeef56000 x28=0xeef56701
       12245000	      1223	800050f0	01174263	blt	x14,x17,800050f4	 x14:0x00000000 x17:0x80009f6c
       12255000	      1224	800050f4	008170b3	and	x1,x2,x8	  x2:0x000d4e21  x8:0x80009fc4  x1=0x00000e00
       12265000	      1225	800050f8	417d5633	sra	x12,x26,x23	 x26:0x00000000 x23:0x8d966000 x12=0x00000000
       12275000	      1226	800050fc	9c352513	slti	x10,x10,-1597	 x10:0x00100013 x10=0x00000000
       12285000	      1227	80005100	2fcf2b37	lui	x22,0x2fcf2	 x22=0x2fcf2000
       12295000	      1228	80005104	008751b3	srl	x3,x14,x8	 x14:0x00000000  x8:0x80009fc4  x3=0x00000000
       12305000	      1229	80005108	01cd8633	add	x12,x27,x28	 x27:0x00000000 x28:0xeef56701 x12=0xeef56701
       12315000	      1230	8000510c	40c78133	sub	x2,x15,x12	 x15:0x00000000 x12:0xeef56701  x2=0x110a98ff
       12325000	      1231	80005110	2ca23393	sltiu	x7,x4,714	  x4:0x00000001  x7=0x00000001
       12335000	      1232	80005114	41c5d233	sra	x4,x11,x28	 x11:0x00000001 x28:0xeef56701  x4=0x00000000
       12345000	      1233	80005118	3b89a9b7	lui	x19,0x3b89a	 x19=0x3b89a000
       12355000	      1234	8000511c	0030be33	sltu	x28,x1,x3	  x1:0x00000e00  x3:0x00000000 x28=0x00000000
       12365000	      1235	80005120	0045b533	sltu	x10,x11,x4	 x11:0x00000001  x4:0x00000000 x10=0x00000000
       12375000	      1236	80005124	00a63d33	sltu	x26,x12,x10	 x12:0xeef56701 x10:0x00000000 x26=0x00000000
       12385000	      1237	80005128	02be7663	bgeu	x28,x11,80005154	 x28:0x00000000 x11:0x00000001
       12395000	      1238	8000512c	000d9c13	slli	x24,x27,0x0	 x27:0x00000000 x24=0x00000000
       12405000	      1239	80005130	00265693	srli	x13,x12,0x2	 x12:0xeef56701 x13=0x3bbd59c0
       12415000	      1240	80005134	94da6193	ori	x3,x20,-1715	 x20:0xfffffd0f  x3=0xfffffd4f
       12425000	      1241	80005138	016e6233	or	x4,x28,x22	 x28:0x00000000 x22:0x2fcf2000  x4=0x2fcf2000
       12435000	      1242	8000513c	01035733	srl	x14,x6,x16	  x6:0x00000001 x16:0xffff1b2c x14=0x00000000
       12445000	      1243	80005140	00000013	addi	x0,x0,0	  x0:0x00000000
       12455000	      1244	80005144	01d9e8b3	or	x17,x19,x29	 x19:0x3b89a000 x29:0x80009f6c x17=0xbb89bf6c
       12465000	      1245	80005148	00000013	addi	x0,x0,0	  x0:0x00000000
       12475000	      1246	8000514c	00145293	srli	x5,x8,0x1	  x8:0x80009fc4  x5=0x40004fe2
       12485000	      1247	80005150	01bb6db3	or	x27,x22,x27	 x22:0x2fcf2000 x27:0x00000000 x27=0x2fcf2000
       12495000	      1248	80005154	17bf4f13	xori	x30,x30,379	 x30:0xffffffff x30=0xfffffe84
       12505000	      1249	80005158	00261263	bne	x12,x2,8000515c	 x12:0xeef56701  x2:0x110a98ff
       12515000	      1250	00000000	00000013	addi	x0,x0,0	  x0:0x00000000
       12525000	      1251	80005158	00000013	addi	x0,x0,0	  x0:0x00000000
       12535000	      1252	8000515c	b64d0393	addi	x7,x26,-1180	 x26:0x00000000  x7=0xfffffb64
       12545000	      1253	80005160	01e21b93	slli	x23,x4,0x1e	  x4:0x2fcf2000 x23=0x00000000
       12555000	      1254	80005164	9d21a493	slti	x9,x3,-1582	  x3:0xfffffd4f  x9=0x00000000
       12565000	      1255	80005168	06272f93	slti	x31,x14,98	 x14:0x00000000 x31=0x00000001
       12575000	      1256	8000516c	038d0a63	beq	x26,x24,800051a0	 x26:0x00000000 x24:0x00000000
       12585000	      1257	00000000	00000013	addi	x0,x0,0	  x0:0x00000000
       12595000	      1258	8000519c	00000013	addi	x0,x0,0	  x0:0x00000000
       12605000	      1259	800051a0	00903833	sltu	x16,x0,x9	  x0:0x00000000  x9:0x00000000 x16=0x00000000
       12615000	      1260	800051a4	03b51c63	bne	x10,x27,800051dc	 x10:0x00000000 x27:0x2fcf2000
       12625000	      1261	00000000	00000013	addi	x0,x0,0	  x0:0x00000000
       12635000	      1262	800051d8	00000013	addi	x0,x0,0	  x0:0x00000000
       12645000	      1263	800051dc	00059e63	bne	x11,x0,800051f8	 x11:0x00000001  x0:0x00000000
       12655000	      1264	00000000	00000013	addi	x0,x0,0	  x0:0x00000000
       12665000	      1265	800051f4	00000013	addi	x0,x0,0	  x0:0x00000000
       12675000	      1266	800051f8	3b41a913	slti	x18,x3,948	  x3:0xfffffd4f x18=0x00000001
       12685000	      1267	800051fc	0103ff33	and	x30,x7,x16	  x7:0xfffffb64 x16:0x00000000 x30=0x00000000
       12695000	      1268	80005200	405ad3b3	sra	x7,x21,x5	 x21:0x00000001  x5:0x40004fe2  x7=0x00000000
       12705000	      1269	80005204	00000013	addi	x0,x0,0	  x0:0x00000000
       12715000	      1270	80005208	0138e033	or	x0,x17,x19	 x17:0xbb89bf6c x19:0x3b89a000
       12725000	      1271	8000520c	00e823b3	slt	x7,x16,x14	 x16:0x00000000 x14:0x00000000  x7=0x00000000
       12735000	      1272	80005210	05ddc063	blt	x27,x29,80005250	 x27:0x2fcf2000 x29:0x80009f6c
       12745000	      1273	80005214	03485263	bge	x16,x20,80005238	 x16:0x00000000 x20:0xfffffd0f
       12755000	      1274	00000000	00000013	addi	x0,x0,0	  x0:0x00000000
       12765000	      1275	80005234	00000013	addi	x0,x0,0	  x0:0x00000000
       12775000	      1276	80005238	002a4cb3	xor	x25,x20,x2	 x20:0xfffffd0f  x2:0x110a98ff x25=0xeef565f0
       12785000	      1277	8000523c	00976133	or	x2,x14,x9	 x14:0x00000000  x9:0x00000000  x2=0x00000000
       12795000	      1278	80005240	32fd3693	sltiu	x13,x26,815	 x26:0x00000000 x13=0x00000001
       12805000	      1279	80005244	2ef46f93	ori	x31,x8,751	  x8:0x80009fc4 x31=0x80009fef
       12815000	      1280	80005248	51424d13	xori	x26,x4,1300	  x4:0x2fcf2000 x26=0x2fcf2514
       12825000	      1281	8000524c	40268533	sub	x10,x13,x2	 x13:0x00000001  x2:0x00000000 x10=0x00000001
       12835000	      1282	80005250	01c0cdb3	xor	x27,x1,x28	  x1:0x00000e00 x28:0x00000000 x27=0x00000e00
       12845000	      1283	80005254	0f754b93	xori	x23,x10,247	 x10:0x00000001 x23=0x000000f6
       12855000	      1284	80005258	0050bc33	sltu	x24,x1,x5	  x1:0x00000e00  x5:0x40004fe2 x24=0x00000001
       12865000	      1285	8000525c	03b77e63	bgeu	x14,x27,80005298	 x14:0x00000000 x27:0x00000e00
       12875000	      1286	80005260	40ce5b13	srai	x22,x28,0xc	 x28:0x00000000 x22=0x00000000
       12885000	      1287	80005264	009ef3b3	and	x7,x29,x9	 x29:0x80009f6c  x9:0x00000000  x7=0x00000000
       12895000	      1288	80005268	40e28db3	sub	x27,x5,x14	  x5:0x40004fe2 x14:0x00000000 x27=0x40004fe2
       12905000	      1289	8000526c	017ff133	and	x2,x31,x23	 x31:0x80009fef x23:0x000000f6  x2=0x000000e6
       12915000	      1290	80005270	f72eb393	sltiu	x7,x29,-142	 x29:0x80009f6c  x7=0x00000001
       12925000	      1291	80005274	001e3033	sltu	x0,x28,x1	 x28:0x00000000  x1:0x00000e00
       12935000	      1292	80005278	028e8c63	beq	x29,x8,800052b0	 x29:0x80009f6c  x8:0x80009fc4
       12945000	      1293	8000527c	5b013993	sltiu	x19,x2,1456	  x2:0x000000e6 x19=0x00000001
       12955000	      1294	80005280	02addc63	bge	x27,x10,800052b8	 x27:0x40004fe2 x10:0x00000001
       12965000	      1295	00000000	00000013	addi	x0,x0,0	  x0:0x00000000
       12975000	      1296	800052b4	00000013	addi	x0,x0,0	  x0:0x00000000
       12985000	      1297	800052b8	40c88033	sub	x0,x17,x12	 x17:0xbb89bf6c x12:0xeef56701
       12995000	      1298	800052bc	012d1a63	bne	x26,x18,800052d0	 x26:0x2fcf2514 x18:0x00000001
       13005000	      1299	00000000	00000013	addi	x0,x0,0	  x0:0x00000000
       13015000	      1300	800052cc	00000013	addi	x0,x0,0	  x0:0x00000000
       13025000	      1301	800052d0	023dee63	bltu	x27,x3,8000530c	 x27:0x40004fe2  x3:0xfffffd4f
       13035000	      1302	00000000	00000013	addi	x0,x0,0	  x0:0x00000000
       13045000	      1303	80005308	00000013	addi	x0,x0,0	  x0:0x00000000
       13055000	      1304	8000530c	d05df893	andi	x17,x27,-763	 x27:0x40004fe2 x17=0x40004d00
       13065000	      1305	80005310	40df5513	srai	x10,x30,0xd	 x30:0x00000000 x10=0x00000000
       13075000	      1306	80005314	0183da63	bge	x7,x24,80005328	  x7:0x00000001 x24:0x00000001
       13085000	      1307	00000000	00000013	addi	x0,x0,0	  x0:0x00000000
       13095000	      1308	80005324	00000013	addi	x0,x0,0	  x0:0x00000000
       13105000	      1309	80005328	d523e993	ori	x19,x7,-686	  x7:0x00000001 x19=0xfffffd53
       13115000	      1310	8000532c	41675833	sra	x16,x14,x22	 x14:0x00000000 x22:0x00000000 x16=0x00000000
       13125000	      1311	80005330	02887463	bgeu	x16,x8,80005358	 x16:0x00000000  x8:0x80009fc4
       13135000	      1312	80005334	00a276b3	and	x13,x4,x10	  x4:0x2fcf2000 x10:0x00000000 x13=0x00000000
       13145000	      1313	80005338	00695e13	srli	x28,x18,0x6	 x18:0x00000001 x28=0x00000000
       13155000	      1314	8000533c	01d85463	bge	x16,x29,80005344	 x16:0x00000000 x29:0x80009f6c
       13165000	      1315	00000000	00000013	addi	x0,x0,0	  x0:0x00000000
       13175000	      1316	80005340	00000013	addi	x0,x0,0	  x0:0x00000000
       13185000	      1317	80005344	0030bdb3	sltu	x27,x1,x3	  x1:0x00000e00  x3:0xfffffd4f x27=0x00000001
       13195000	      1318	80005348	d1857513	andi	x10,x10,-744	 x10:0x00000000 x10=0x00000000
       13205000	      1319	8000534c	05fb1663	bne	x22,x31,80005398	 x22:0x00000000 x31:0x80009fef
       13215000	      1320	00000000	00000013	addi	x0,x0,0	  x0:0x00000000
       13225000	      1321	80005394	00000013	addi	x0,x0,0	  x0:0x00000000
       13235000	      1322	80005398	00b89c33	sll	x24,x17,x11	 x17:0x40004d00 x11:0x00000001 x24=0x80009a00
       13245000	      1323	8000539c	0006bdb3	sltu	x27,x13,x0	 x13:0x00000000  x0:0x00000000 x27=0x00000000
       13255000	      1324	800053a0	01d84833	xor	x16,x16,x29	 x16:0x00000000 x29:0x80009f6c x16=0x80009f6c
       13265000	      1325	800053a4	00000013	addi	x0,x0,0	  x0:0x00000000
       13275000	      1326	800053a8	00b90bb3	add	x23,x18,x11	 x18:0x00000001 x11:0x00000001 x23=0x00000002
       13285000	      1327	800053ac	00000013	addi	x0,x0,0	  x0:0x00000000
       13295000	      1328	800053b0	39e6ac37	lui	x24,0x39e6a	 x24=0x39e6a000
       13305000	      1329	800053b4	410d5033	sra	x0,x26,x16	 x26:0x2fcf2514 x16:0x80009f6c
       13315000	      1330	800053b8	00000013	addi	x0,x0,0	  x0:0x00000000
       13325000	      1331	800053bc	00b71a63	bne	x14,x11,800053d0	 x14:0x00000000 x11:0x00000001
       13335000	      1332	00000000	00000013	addi	x0,x0,0	  x0:0x00000000
       13345000	      1333	800053cc	00000013	addi	x0,x0,0	  x0:0x00000000
       13355000	      1334	800053d0	5c0ded13	ori	x26,x27,1472	 x27:0x00000000 x26=0x000005c0
       13365000	      1335	800053d4	002d4933	xor	x18,x26,x2	 x26:0x000005c0  x2:0x000000e6 x18=0x00000526
       13375000	      1336	800053d8	40ae5393	srai	x7,x28,0xa	 x28:0x00000000  x7=0x00000000
       13385000	      1337	800053dc	018a7f33	and	x30,x20,x24	 x20:0xfffffd0f x24:0x39e6a000 x30=0x39e6a000
       13395000	      1338	800053e0	88ea9997	auipc	x19,0x88ea9	 x19=0x08eae3dc
       13405000	      1339	800053e4	41c48db3	sub	x27,x9,x28	  x9:0x00000000 x28:0x00000000 x27=0x00000000
       13415000	      1340	800053e8	03e19063	bne	x3,x30,80005408	  x3:0xfffffd4f x30:0x39e6a000
       13425000	      1341	00000000	00000013	addi	x0,x0,0	  x0:0x00000000
       13435000	      1342	80005404	00000013	addi	x0,x0,0	  x0:0x00000000
       13445000	      1343	80005408	001b1493	slli	x9,x22,0x1	 x22:0x00000000  x9=0x00000000
       13455000	      1344	8000540c	01eae0b3	or	x1,x21,x30	 x21:0x00000001 x30:0x39e6a000  x1=0x39e6a001
       13465000	      1345	80005410	a3af4913	xori	x18,x30,-1478	 x30:0x39e6a000 x18=0xc6195a3a
       13475000	      1346	80005414	00137263	bgeu	x6,x1,80005418	  x6:0x00000001  x1:0x39e6a001
       13485000	      1347	80005418	04625063	bge	x4,x6,80005458	  x4:0x2fcf2000  x6:0x00000001
       13495000	      1348	00000000	00000013	addi	x0,x0,0	  x0:0x00000000
       13505000	      1349	80005454	00000013	addi	x0,x0,0	  x0:0x00000000
       13515000	      1350	80005458	871c7593	andi	x11,x24,-1935	 x24:0x39e6a000 x11=0x39e6a000
       13525000	      1351	8000545c	00c21293	slli	x5,x4,0xc	  x4:0x2fcf2000  x5=0xf2000000
       13535000	      1352	80005460	0054e9b3	or	x19,x9,x5	  x9:0x00000000  x5:0xf2000000 x19=0xf2000000
       13545000	      1353	80005464	01e85593	srli	x11,x16,0x1e	 x16:0x80009f6c x11=0x00000002
       13555000	      1354	80005468	00580263	beq	x16,x5,8000546c	 x16:0x80009f6c  x5:0xf2000000
       13565000	      1355	8000546c	79bac497	auipc	x9,0x79bac	  x9=0xf9bb1468
       13575000	      1356	80005470	00000013	addi	x0,x0,0	  x0:0x00000000
       13585000	      1357	80005474	01f290b3	sll	x1,x5,x31	  x5:0xf2000000 x31:0x80009fef  x1=0x00000000
       13595000	      1358	80005478	5d444213	xori	x4,x8,1492	  x8:0x80009fc4  x4=0x80009a10
       13605000	      1359	8000547c	038ade63	bge	x21,x24,800054b8	 x21:0x00000001 x24:0x39e6a000
       13615000	      1360	80005480	021b6c63	bltu	x22,x1,800054b8	 x22:0x00000000  x1:0x00000000
       13625000	      1361	80005484	b07fcd37	lui	x26,0xb07fc	 x26=0xb07fc000
       13635000	      1362	80005488	4c40f817	auipc	x16,0x4c40f	 x16=0xcc414484
       13645000	      1363	8000548c	0092e833	or	x16,x5,x9	  x5:0xf2000000  x9:0xf9bb1468 x16=0xfbbb1468
       13655000	      1364	80005490	418d88b3	sub	x17,x27,x24	 x27:0x00000000 x24:0x39e6a000 x17=0xc6196000
       13665000	      1365	80005494	41f05693	srai	x13,x0,0x1f	  x0:0x00000000 x13=0x00000000
       13675000	      1366	80005498	9c5eaf93	slti	x31,x29,-1595	 x29:0x80009f6c x31=0x00000001
       13685000	      1367	8000549c	fb34a693	slti	x13,x9,-77	  x9:0xf9bb1468 x13=0x00000001
       13695000	      1368	800054a0	4046d933	sra	x18,x13,x4	 x13:0x00000001  x4:0x80009a10 x18=0x00000000
       13705000	      1369	800054a4	b3d8f193	andi	x3,x17,-1219	 x17:0xc6196000  x3=0xc6196000
       13715000	      1370	800054a8	03de9c63	bne	x29,x29,800054e0	 x29:0x80009f6c x29:0x80009f6c
       13725000	      1371	800054ac	5806e493	ori	x9,x13,1408	 x13:0x00000001  x9=0x00000581
       13735000	      1372	800054b0	01ea62b3	or	x5,x20,x30	 x20:0xfffffd0f x30:0x39e6a000  x5=0xfffffd0f
       13745000	      1373	800054b4	01281513	slli	x10,x16,0x12	 x16:0xfbbb1468 x10=0x51a00000
       13755000	      1374	800054b8	4057d033	sra	x0,x15,x5	 x15:0x00000000  x5:0xfffffd0f
       13765000	      1375	800054bc	017052b3	srl	x5,x0,x23	  x0:0x00000000 x23:0x00000002  x5=0x00000000
       13775000	      1376	800054c0	2df3fb93	andi	x23,x7,735	  x7:0x00000000 x23=0x00000000
       13785000	      1377	800054c4	41628b33	sub	x22,x5,x22	  x5:0x00000000 x22:0x00000000 x22=0x00000000
       13795000	      1378	800054c8	33cfec93	ori	x25,x31,828	 x31:0x00000001 x25=0x0000033d
       13805000	      1379	800054cc	07194463	blt	x18,x17,80005534	 x18:0x00000000 x17:0xc6196000
       13815000	      1380	800054d0	01d37463	bgeu	x6,x29,800054d8	  x6:0x00000001 x29:0x80009f6c
       13825000	      1381	800054d4	00ecfab3	and	x21,x25,x14	 x25:0x0000033d x14:0x00000000 x21=0x00000000
       13835000	      1382	800054d8	001d6a63	bltu	x26,x1,800054ec	 x26:0xb07fc000  x1:0x00000000
       13845000	      1383	800054dc	7b324813	xori	x16,x4,1971	  x4:0x80009a10 x16=0x80009da3
       13855000	      1384	800054e0	40885393	srai	x7,x16,0x8	 x16:0x80009da3  x7=0xff80009d
       13865000	      1385	800054e4	0025d333	srl	x6,x11,x2	 x11:0x00000002  x2:0x000000e6  x6=0x00000000
       13875000	      1386	800054e8	01dec3b3	xor	x7,x29,x29	 x29:0x80009f6c x29:0x80009f6c  x7=0x00000000
       13885000	      1387	800054ec	00a48333	add	x6,x9,x10	  x9:0x00000581 x10:0x51a00000  x6=0x51a00581
       13895000	      1388	800054f0	0168dbb3	srl	x23,x17,x22	 x17:0xc6196000 x22:0x00000000 x23=0xc6196000
       13905000	      1389	800054f4	00001297	auipc	x5,0x1	  x5=0x800064f0
       13915000	      1390	800054f8	80828293	addi	x5,x5,-2040	  x5:0x800064f0  x5=0x80005cf8
       13925000	      1391	800054fc	c3428293	addi	x5,x5,-972	  x5:0x80005cf8  x5=0x8000592c
       13935000	      1392	80005500	01477bb3	and	x23,x14,x20	 x14:0x00000000 x20:0xfffffd0f x23=0x00000000
       13945000	      1393	80005504	00115a63	bge	x2,x1,80005518	  x2:0x000000e6  x1:0x00000000
       13955000	      1394	00000000	00000013	addi	x0,x0,0	  x0:0x00000000
       13965000	      1395	80005514	00000013	addi	x0,x0,0	  x0:0x00000000
       13975000	      1396	80005518	3cc28f67	jalr	x30,x5,972	  x5:0x8000592c x30=0x80005518
       13985000	      1397	00000000	00000013	addi	x0,x0,0	  x0:0x00000000
       13995000	      1398	80005cf8	00000013	addi	x0,x0,0	  x0:0x00000000
       14005000	      1399	80005cfc	0113a9b3	slt	x19,x7,x17	  x7:0x00000000 x17:0xc6196000 x19=0x00000000
       14015000	      1400	80005d00	ff4e8e93	addi	x29,x29,-12	 x29:0x80009f6c x29=0x80009f60
       14025000	      1401	80005d04	01931213	slli	x4,x6,0x19	  x6:0x51a00581  x4=0x02000000
       14035000	      1402	80005d08	00481b33	sll	x22,x16,x4	 x16:0x80009da3  x4:0x02000000 x22=0x80009da3
       14045000	      1403	80005d0c	00129033	sll	x0,x5,x1	  x5:0x8000592c  x1:0x00000000
       14055000	      1404	80005d10	00566033	or	x0,x12,x5	 x12:0xeef56701  x5:0x8000592c
       14065000	      1405	80005d14	01eea223	sw	x30,4(x29)	 x29:0x80009f60 x30:0x80005518 PA:0x80009f64
       14075000	      1406	80005d18	545fd6b7	lui	x13,0x545fd	 x13=0x545fd000
       14085000	      1407	80005d1c	00351b93	slli	x23,x10,0x3	 x10:0x51a00000 x23=0x8d000000
       14095000	      1408	80005d20	41e88c33	sub	x24,x17,x30	 x17:0xc6196000 x30:0x80005518 x24=0x46190ae8
       14105000	      1409	80005d24	be5e4e13	xori	x28,x28,-1051	 x28:0x00000000 x28=0xfffffbe5
       14115000	      1410	80005d28	68ed8213	addi	x4,x27,1678	 x27:0x00000000  x4=0x0000068e
       14125000	      1411	80005d2c	01c15113	srli	x2,x2,0x1c	  x2:0x000000e6  x2=0x00000000
       14135000	      1412	80005d30	679322b7	lui	x5,0x67932	  x5=0x67932000
       14145000	      1413	80005d34	6ffe0613	addi	x12,x28,1791	 x28:0xfffffbe5 x12=0x000002e4
       14155000	      1414	80005d38	402b0713	addi	x14,x22,1026	 x22:0x80009da3 x14=0x8000a1a5
       14165000	      1415	80005d3c	00000013	addi	x0,x0,0	  x0:0x00000000
       14175000	      1416	80005d40	00e60463	beq	x12,x14,80005d48	 x12:0x000002e4 x14:0x8000a1a5
       14185000	      1417	80005d44	0036b6b3	sltu	x13,x13,x3	 x13:0x545fd000  x3:0xc6196000 x13=0x00000001
       14195000	      1418	80005d48	01a24fb3	xor	x31,x4,x26	  x4:0x0000068e x26:0xb07fc000 x31=0xb07fc68e
       14205000	      1419	80005d4c	01625263	bge	x4,x22,80005d50	  x4:0x0000068e x22:0x80009da3
       14215000	      1420	00000000	00000013	addi	x0,x0,0	  x0:0x00000000
       14225000	      1421	80005d4c	00000013	addi	x0,x0,0	  x0:0x00000000
       14235000	      1422	80005d50	4d362b17	auipc	x22,0x4d362	 x22=0xcd367d4c
       14245000	      1423	80005d54	00bc46b3	xor	x13,x24,x11	 x24:0x46190ae8 x11:0x00000002 x13=0x46190aea
       14255000	      1424	80005d58	bf963013	sltiu	x0,x12,-1031	 x12:0x000002e4
       14265000	      1425	80005d5c	03236263	bltu	x6,x18,80005d80	  x6:0x51a00581 x18:0x00000000
       14275000	      1426	80005d60	40f40033	sub	x0,x8,x15	  x8:0x80009fc4 x15:0x00000000
       14285000	      1427	80005d64	22bdb213	sltiu	x4,x27,555	 x27:0x00000000  x4=0x00000001
       14295000	      1428	80005d68	00000013	addi	x0,x0,0	  x0:0x00000000
       14305000	      1429	80005d6c	41835833	sra	x16,x6,x24	  x6:0x51a00581 x24:0x46190ae8 x16=0x0051a005
       14315000	      1430	80005d70	008158b3	srl	x17,x2,x8	  x2:0x00000000  x8:0x80009fc4 x17=0x00000000
       14325000	      1431	80005d74	00cc2333	slt	x6,x24,x12	 x24:0x46190ae8 x12:0x000002e4  x6=0x00000000
       14335000	      1432	80005d78	00d94733	xor	x14,x18,x13	 x18:0x00000000 x13:0x46190aea x14=0x46190aea
       14345000	      1433	80005d7c	00000013	addi	x0,x0,0	  x0:0x00000000
       14355000	      1434	80005d80	00161933	sll	x18,x12,x1	 x12:0x000002e4  x1:0x00000000 x18=0x000002e4
       14365000	      1435	80005d84	004eaf03	lw	x30,4(x29)	 x29:0x80009f60 x30=0x80005518 PA:0x80009f64
       14375000	      1436	80005d88	d7c3ec13	ori	x24,x7,-644	  x7:0x00000000 x24=0xfffffd7c
       14385000	      1437	80005d8c	4a1d4693	xori	x13,x26,1185	 x26:0xb07fc000 x13=0xb07fc4a1
       14395000	      1438	80005d90	002ae5b3	or	x11,x21,x2	 x21:0x00000000  x2:0x00000000 x11=0x00000000
       14405000	      1439	80005d94	00ce8e93	addi	x29,x29,12	 x29:0x80009f60 x29=0x80009f6c
       14415000	      1440	80005d98	b611e493	ori	x9,x3,-1183	  x3:0xc6196000  x9=0xfffffb61
       14425000	      1441	80005d9c	01e188b3	add	x17,x3,x30	  x3:0xc6196000 x30:0x80005518 x17=0x4619b518
       14435000	      1442	80005da0	a27a4d93	xori	x27,x20,-1497	 x20:0xfffffd0f x27=0x00000728
       14445000	      1443	80005da4	000f0f93	addi	x31,x30,0	 x30:0x80005518 x31=0x80005518
       14455000	      1444	80005da8	000f8fe7	jalr	x31,x31,0	 x31:0x80005518 x31=0x80005da8
       14465000	      1445	00000000	00000013	addi	x0,x0,0	  x0:0x00000000
       14475000	      1446	80005518	00000013	addi	x0,x0,0	  x0:0x00000000
       14485000	      1447	8000551c	0154c133	xor	x2,x9,x21	  x9:0xfffffb61 x21:0x00000000  x2=0xfffffb61
       14495000	      1448	80005520	07812993	slti	x19,x2,120	  x2:0xfffffb61 x19=0x00000001
       14505000	      1449	80005524	004ad893	srli	x17,x21,0x4	 x21:0x00000000 x17=0x00000000
       14515000	      1450	80005528	00ba4a33	xor	x20,x20,x11	 x20:0xfffffd0f x11:0x00000000 x20=0xfffffd0f
       14525000	      1451	8000552c	1dd18293	addi	x5,x3,477	  x3:0xc6196000  x5=0xc61961dd
       14535000	      1452	80005530	0054d863	bge	x9,x5,80005540	  x9:0xfffffb61  x5:0xc61961dd
       14545000	      1453	00000000	00000013	addi	x0,x0,0	  x0:0x00000000
       14555000	      1454	8000553c	00000013	addi	x0,x0,0	  x0:0x00000000
       14565000	      1455	80005540	004cc0b3	xor	x1,x25,x4	 x25:0x0000033d  x4:0x00000001  x1=0x0000033c
       14575000	      1456	80005544	0081e4b3	or	x9,x3,x8	  x3:0xc6196000  x8:0x80009fc4  x9=0xc619ffc4
       14585000	      1457	80005548	01e28b33	add	x22,x5,x30	  x5:0xc61961dd x30:0x80005518 x22=0x4619b6f5
       14595000	      1458	8000554c	03ae6263	bltu	x28,x26,80005570	 x28:0xfffffbe5 x26:0xb07fc000
       14605000	      1459	80005550	01072db3	slt	x27,x14,x16	 x14:0x46190aea x16:0x0051a005 x27=0x00000000
       14615000	      1460	80005554	417fd0b3	sra	x1,x31,x23	 x31:0x80005da8 x23:0x8d000000  x1=0x80005da8
       14625000	      1461	80005558	175e2b13	slti	x22,x28,373	 x28:0xfffffbe5 x22=0x00000001
       14635000	      1462	8000555c	003ef233	and	x4,x29,x3	 x29:0x80009f6c  x3:0xc6196000  x4=0x80000000
       14645000	      1463	80005560	efcccb93	xori	x23,x25,-260	 x25:0x0000033d x23=0xfffffdc1
       14655000	      1464	80005564	00000013	addi	x0,x0,0	  x0:0x00000000
       14665000	      1465	80005568	01c98333	add	x6,x19,x28	 x19:0x00000001 x28:0xfffffbe5  x6=0xfffffbe6
       14675000	      1466	8000556c	30817f93	andi	x31,x2,776	  x2:0xfffffb61 x31=0x00000300
       14685000	      1467	80005570	017b1d33	sll	x26,x22,x23	 x22:0x00000001 x23:0xfffffdc1 x26=0x00000002
       14695000	      1468	80005574	d791a513	slti	x10,x3,-647	  x3:0xc6196000 x10=0x00000001
       14705000	      1469	80005578	01b3fe63	bgeu	x7,x27,80005594	  x7:0x00000000 x27:0x00000000
       14715000	      1470	00000000	00000013	addi	x0,x0,0	  x0:0x00000000
       14725000	      1471	80005590	00000013	addi	x0,x0,0	  x0:0x00000000
       14735000	      1472	80005594	00136263	bltu	x6,x1,80005598	  x6:0xfffffbe6  x1:0x80005da8
       14745000	      1473	80005598	03af8c63	beq	x31,x26,800055d0	 x31:0x00000300 x26:0x00000002
       14755000	      1474	8000559c	400850b3	sra	x1,x16,x0	 x16:0x0051a005  x0:0x00000000  x1=0x0051a005
       14765000	      1475	800055a0	051b8663	beq	x23,x17,800055ec	 x23:0xfffffdc1 x17:0x00000000
       14775000	      1476	800055a4	031c4a63	blt	x24,x17,800055d8	 x24:0xfffffd7c x17:0x00000000
       14785000	      1477	00000000	00000013	addi	x0,x0,0	  x0:0x00000000
       14795000	      1478	800055d4	00000013	addi	x0,x0,0	  x0:0x00000000
       14805000	      1479	800055d8	01ad34b3	sltu	x9,x26,x26	 x26:0x00000002 x26:0x00000002  x9=0x00000000
       14815000	      1480	800055dc	05e77263	bgeu	x14,x30,80005620	 x14:0x46190aea x30:0x80005518
       14825000	      1481	800055e0	009ed093	srli	x1,x29,0x9	 x29:0x80009f6c  x1=0x0040004f
       14835000	      1482	800055e4	00c0c263	blt	x1,x12,800055e8	  x1:0x0040004f x12:0x000002e4
       14845000	      1483	800055e8	419382b3	sub	x5,x7,x25	  x7:0x00000000 x25:0x0000033d  x5=0xfffffcc3
       14855000	      1484	800055ec	020f0263	beq	x30,x0,80005610	 x30:0x80005518  x0:0x00000000
       14865000	      1485	800055f0	03caf663	bgeu	x21,x28,8000561c	 x21:0x00000000 x28:0xfffffbe5
       14875000	      1486	800055f4	0166d213	srli	x4,x13,0x16	 x13:0xb07fc4a1  x4=0x000002c1
       14885000	      1487	800055f8	017f1c13	slli	x24,x30,0x17	 x30:0x80005518 x24=0x8c000000
       14895000	      1488	800055fc	bfd43f13	sltiu	x30,x8,-1027	  x8:0x80009fc4 x30=0x00000001
       14905000	      1489	80005600	01ce2bb3	slt	x23,x28,x28	 x28:0xfffffbe5 x28:0xfffffbe5 x23=0x00000000
       14915000	      1490	80005604	008c28b3	slt	x17,x24,x8	 x24:0x8c000000  x8:0x80009fc4 x17=0x00000000
       14925000	      1491	80005608	409fd293	srai	x5,x31,0x9	 x31:0x00000300  x5=0x00000001
       14935000	      1492	8000560c	8d1cf313	andi	x6,x25,-1839	 x25:0x0000033d  x6=0x00000011
       14945000	      1493	80005610	025a6463	bltu	x20,x5,80005638	 x20:0xfffffd0f  x5:0x00000001
       14955000	      1494	80005614	007e5b93	srli	x23,x28,0x7	 x28:0xfffffbe5 x23=0x01fffff7
       14965000	      1495	80005618	046fe663	bltu	x31,x6,80005664	 x31:0x00000300  x6:0x00000011
       14975000	      1496	8000561c	6018e993	ori	x19,x17,1537	 x17:0x00000000 x19=0x00000601
       14985000	      1497	80005620	00000013	addi	x0,x0,0	  x0:0x00000000
       14995000	      1498	80005624	4668c113	xori	x2,x17,1126	 x17:0x00000000  x2=0x00000466
       15005000	      1499	80005628	a245f1b7	lui	x3,0xa245f	  x3=0xa245f000
       15015000	      1500	8000562c	042d7063	bgeu	x26,x2,8000566c	 x26:0x00000002  x2:0x00000466
       15025000	      1501	80005630	1b424113	xori	x2,x4,436	  x4:0x000002c1  x2=0x00000375
       15035000	      1502	80005634	414b8b33	sub	x22,x23,x20	 x23:0x01fffff7 x20:0xfffffd0f x22=0x020002e8
       15045000	      1503	80005638	df4eed93	ori	x27,x29,-524	 x29:0x80009f6c x27=0xfffffffc
       15055000	      1504	8000563c	01c88133	add	x2,x17,x28	 x17:0x00000000 x28:0xfffffbe5  x2=0xfffffbe5
       15065000	      1505	80005640	014afa33	and	x20,x21,x20	 x21:0x00000000 x20:0xfffffd0f x20=0x00000000
       15075000	      1506	80005644	03336c63	bltu	x6,x19,8000567c	  x6:0x00000011 x19:0x00000601
       15085000	      1507	00000000	00000013	addi	x0,x0,0	  x0:0x00000000
       15095000	      1508	80005678	00000013	addi	x0,x0,0	  x0:0x00000000
       15105000	      1509	8000567c	03809463	bne	x1,x24,800056a4	  x1:0x0040004f x24:0x8c000000
       15115000	      1510	00000000	00000013	addi	x0,x0,0	  x0:0x00000000
       15125000	      1511	800056a0	00000013	addi	x0,x0,0	  x0:0x00000000
       15135000	      1512	800056a4	8290a393	slti	x7,x1,-2007	  x1:0x0040004f  x7=0x00000000
       15145000	      1513	800056a8	017e49b3	xor	x19,x28,x23	 x28:0xfffffbe5 x23:0x01fffff7 x19=0xfe000412
       15155000	      1514	800056ac	014079b3	and	x19,x0,x20	  x0:0x00000000 x20:0x00000000 x19=0x00000000
       15165000	      1515	800056b0	005e80b3	add	x1,x29,x5	 x29:0x80009f6c  x5:0x00000001  x1=0x80009f6d
       15175000	      1516	800056b4	406fdc13	srai	x24,x31,0x6	 x31:0x00000300 x24=0x0000000c
       15185000	      1517	800056b8	41a8df13	srai	x30,x17,0x1a	 x17:0x00000000 x30=0x00000000
       15195000	      1518	800056bc	0186d513	srli	x10,x13,0x18	 x13:0xb07fc4a1 x10=0x000000b0
       15205000	      1519	800056c0	0039dc93	srli	x25,x19,0x3	 x19:0x00000000 x25=0x00000000
       15215000	      1520	800056c4	003c4a63	blt	x24,x3,800056d8	 x24:0x0000000c  x3:0xa245f000
       15225000	      1521	800056c8	00521493	slli	x9,x4,0x5	  x4:0x000002c1  x9=0x00005820
       15235000	      1522	800056cc	dd6b4013	xori	x0,x22,-554	 x22:0x020002e8
       15245000	      1523	800056d0	414a05b3	sub	x11,x20,x20	 x20:0x00000000 x20:0x00000000 x11=0x00000000
       15255000	      1524	800056d4	c782e213	ori	x4,x5,-904	  x5:0x00000001  x4=0xfffffc79
       15265000	      1525	800056d8	00a614b3	sll	x9,x12,x10	 x12:0x000002e4 x10:0x000000b0  x9=0x02e40000
       15275000	      1526	800056dc	ecd2f213	andi	x4,x5,-307	  x5:0x00000001  x4=0x00000001
       15285000	      1527	800056e0	2a642a13	slti	x20,x8,678	  x8:0x80009fc4 x20=0x00000001
       15295000	      1528	800056e4	165b3a93	sltiu	x21,x22,357	 x22:0x020002e8 x21=0x00000000
       15305000	      1529	800056e8	11b8f593	andi	x11,x17,283	 x17:0x00000000 x11=0x00000000
       15315000	      1530	800056ec	011e9a63	bne	x29,x17,80005700	 x29:0x80009f6c x17:0x00000000
       15325000	      1531	00000000	00000013	addi	x0,x0,0	  x0:0x00000000
       15335000	      1532	800056fc	00000013	addi	x0,x0,0	  x0:0x00000000
       15345000	      1533	80005700	450fa517	auipc	x10,0x450fa	 x10=0xc50ff6fc
       15355000	      1534	80005704	01aeefb3	or	x31,x29,x26	 x29:0x80009f6c x26:0x00000002 x31=0x80009f6e
       15365000	      1535	80005708	a542a613	slti	x12,x5,-1452	  x5:0x00000001 x12=0x00000000
       15375000	      1536	8000570c	00003f17	auipc	x30,0x3	 x30=0x80008708
       15385000	      1537	80005710	d16f0f13	addi	x30,x30,-746	 x30:0x80008708 x30=0x8000841e
       15395000	      1538	80005714	0011dbb3	srl	x23,x3,x1	  x3:0xa245f000  x1:0x80009f6d x23=0x0005122f
       15405000	      1539	80005718	005f0423	sb	x5,8(x30)	 x30:0x8000841e  x5:0x00000001 PA:0x80008426
       15415000	      1540	8000571c	ffdf4903	lbu	x18,-3(x30)	 x30:0x8000841e x18=0x00000000 PA:0x8000841b
       15425000	      1541	80005720	01ff04a3	sb	x31,9(x30)	 x30:0x8000841e x31:0x80009f6e PA:0x80008427
       15435000	      1542	80005724	ffaf1183	lh	x3,-6(x30)	 x30:0x8000841e  x3=0x00000000 PA:0x80008418
       15445000	      1543	80005728	000f2523	sw	x0,10(x30)	 x30:0x8000841e  x0:0x00000000 PA:0x80008428
       15455000	      1544	8000572c	006f06a3	sb	x6,13(x30)	 x30:0x8000841e  x6:0x00000011 PA:0x8000842b
       15465000	      1545	80005730	002461b3	or	x3,x8,x2	  x8:0x80009fc4  x2:0xfffffbe5  x3=0xffffffe5
       15475000	      1546	80005734	00f26d33	or	x26,x4,x15	  x4:0x00000001 x15:0x00000000 x26=0x00000001
       15485000	      1547	80005738	ffaf2203	lw	x4,-6(x30)	 x30:0x8000841e  x4=0x00000000 PA:0x80008418
       15495000	      1548	8000573c	01cf1323	sh	x28,6(x30)	 x30:0x8000841e x28:0xfffffbe5 PA:0x80008424
       15505000	      1549	80005740	ff0f0103	lb	x2,-16(x30)	 x30:0x8000841e  x2=0x00000000 PA:0x8000840e
       15515000	      1550	80005744	00fca9b3	slt	x19,x25,x15	 x25:0x00000000 x15:0x00000000 x19=0x00000000
       15525000	      1551	80005748	e84b4313	xori	x6,x22,-380	 x22:0x020002e8  x6=0xfdfffc6c
       15535000	      1552	8000574c	00ef1a83	lh	x21,14(x30)	 x30:0x8000841e x21=0x00000000 PA:0x8000842c
       15545000	      1553	80005750	919ce693	ori	x13,x25,-1767	 x25:0x00000000 x13=0xfffff919
       15555000	      1554	80005754	011dcb33	xor	x22,x27,x17	 x27:0xfffffffc x17:0x00000000 x22=0xfffffffc
       15565000	      1555	80005758	002ebe33	sltu	x28,x29,x2	 x29:0x80009f6c  x2:0x00000000 x28=0x00000000
       15575000	      1556	8000575c	003f4383	lbu	x7,3(x30)	 x30:0x8000841e  x7=0x00000000 PA:0x80008421
       15585000	      1557	80005760	0190afb3	slt	x31,x1,x25	  x1:0x80009f6d x25:0x00000000 x31=0x00000001
       15595000	      1558	80005764	00ff0023	sb	x15,0(x30)	 x30:0x8000841e x15:0x00000000 PA:0x8000841e
       15605000	      1559	80005768	000f4f83	lbu	x31,0(x30)	 x30:0x8000841e x31=0x00000000 PA:0x8000841e
       15615000	      1560	8000576c	003f4a83	lbu	x21,3(x30)	 x30:0x8000841e x21=0x00000000 PA:0x80008421
       15625000	      1561	80005770	fe6f0fa3	sb	x6,-1(x30)	 x30:0x8000841e  x6:0xfdfffc6c PA:0x8000841d
       15635000	      1562	80005774	ff6f2b23	sw	x22,-10(x30)	 x30:0x8000841e x22:0xfffffffc PA:0x80008414
       15645000	      1563	80005778	ff5f0083	lb	x1,-11(x30)	 x30:0x8000841e  x1=0x00000000 PA:0x80008413
       15655000	      1564	8000577c	000f5003	lhu	x0,0(x30)	 x30:0x8000841e PA:0x8000841e
       15665000	      1565	80005780	00ed8533	add	x10,x27,x14	 x27:0xfffffffc x14:0x46190aea x10=0x46190ae6
       15675000	      1566	80005784	2a4ffb13	andi	x22,x31,676	 x31:0x00000000 x22=0x00000000
       15685000	      1567	80005788	00af0c03	lb	x24,10(x30)	 x30:0x8000841e x24=0x00000000 PA:0x80008428
       15695000	      1568	8000578c	40b58cb3	sub	x25,x11,x11	 x11:0x00000000 x11:0x00000000 x25=0x00000000
       15705000	      1569	80005790	01df5533	srl	x10,x30,x29	 x30:0x8000841e x29:0x80009f6c x10=0x00080008
       15715000	      1570	80005794	016b5d13	srli	x26,x22,0x16	 x22:0x00000000 x26=0x00000000
       15725000	      1571	80005798	1d72c813	xori	x16,x5,471	  x5:0x00000001 x16=0x000001d6
       15735000	      1572	8000579c	464cf593	andi	x11,x25,1124	 x25:0x00000000 x11=0x00000000
       15745000	      1573	800057a0	007f4103	lbu	x2,7(x30)	 x30:0x8000841e  x2=0x000000fb PA:0x80008425
       15755000	      1574	800057a4	00dbcbb3	xor	x23,x23,x13	 x23:0x0005122f x13:0xfffff919 x23=0xfffaeb36
       15765000	      1575	800057a8	d9378b93	addi	x23,x15,-621	 x15:0x00000000 x23=0xfffffd93
       15775000	      1576	800057ac	fecf0ca3	sb	x12,-7(x30)	 x30:0x8000841e x12:0x00000000 PA:0x80008417
       15785000	      1577	800057b0	01569633	sll	x12,x13,x21	 x13:0xfffff919 x21:0x00000000 x12=0xfffff919
       15795000	      1578	800057b4	000f1903	lh	x18,0(x30)	 x30:0x8000841e x18=0x00000000 PA:0x8000841e
       15805000	      1579	800057b8	0198f833	and	x16,x17,x25	 x17:0x00000000 x25:0x00000000 x16=0x00000000
       15815000	      1580	800057bc	00e8ad33	slt	x26,x17,x14	 x17:0x00000000 x14:0x46190aea x26=0x00000001
       15825000	      1581	800057c0	7f69e993	ori	x19,x19,2038	 x19:0x00000000 x19=0x000007f6
       15835000	      1582	800057c4	8d7caf93	slti	x31,x25,-1833	 x25:0x00000000 x31=0x00000000
       15845000	      1583	800057c8	011f00b3	add	x1,x30,x17	 x30:0x8000841e x17:0x00000000  x1=0x8000841e
       15855000	      1584	800057cc	09c70b13	addi	x22,x14,156	 x14:0x46190aea x22=0x46190b86
       15865000	      1585	800057d0	6bc63b13	sltiu	x22,x12,1724	 x12:0xfffff919 x22=0x00000000
       15875000	      1586	800057d4	40c1d533	sra	x10,x3,x12	  x3:0xffffffe5 x12:0xfffff919 x10=0xffffffff
       15885000	      1587	800057d8	00000013	addi	x0,x0,0	  x0:0x00000000
       15895000	      1588	800057dc	007a9a63	bne	x21,x7,800057f0	 x21:0x00000000  x7:0x00000000
       15905000	      1589	800057e0	0050a513	slti	x10,x1,5	  x1:0x8000841e x10=0x00000001
       15915000	      1590	800057e4	00af42b3	xor	x5,x30,x10	 x30:0x8000841e x10:0x00000001  x5=0x8000841f
       15925000	      1591	800057e8	005f5a93	srli	x21,x30,0x5	 x30:0x8000841e x21=0x04000420
       15935000	      1592	800057ec	01040263	beq	x8,x16,800057f0	  x8:0x80009fc4 x16:0x00000000
       15945000	      1593	800057f0	002049b3	xor	x19,x0,x2	  x0:0x00000000  x2:0x000000fb x19=0x000000fb
       15955000	      1594	800057f4	00644a63	blt	x8,x6,80005808	  x8:0x80009fc4  x6:0xfdfffc6c
       15965000	      1595	00000000	00000013	addi	x0,x0,0	  x0:0x00000000
       15975000	      1596	80005804	00000013	addi	x0,x0,0	  x0:0x00000000
       15985000	      1597	80005808	3080eb93	ori	x23,x1,776	  x1:0x8000841e x23=0x8000871e
       15995000	      1598	8000580c	af673897	auipc	x17,0xaf673	 x17=0x2f678808
       16005000	      1599	80005810	f4eda393	slti	x7,x27,-178	 x27:0xfffffffc  x7=0x00000000
       16015000	      1600	80005814	04b15063	bge	x2,x11,80005854	  x2:0x000000fb x11:0x00000000
       16025000	      1601	00000000	00000013	addi	x0,x0,0	  x0:0x00000000
       16035000	      1602	80005850	00000013	addi	x0,x0,0	  x0:0x00000000
       16045000	      1603	80005854	c32da4b7	lui	x9,0xc32da	  x9=0xc32da000
       16055000	      1604	80005858	3eeb7c13	andi	x24,x22,1006	 x22:0x00000000 x24=0x00000000
       16065000	      1605	8000585c	e87172b7	lui	x5,0xe8717	  x5=0xe8717000
       16075000	      1606	80005860	f294b313	sltiu	x6,x9,-215	  x9:0xc32da000  x6=0x00000001
       16085000	      1607	80005864	0173f633	and	x12,x7,x23	  x7:0x00000000 x23:0x8000871e x12=0x00000000
       16095000	      1608	80005868	408a5313	srai	x6,x20,0x8	 x20:0x00000001  x6=0x00000000
       16105000	      1609	8000586c	01689e63	bne	x17,x22,80005888	 x17:0x2f678808 x22:0x00000000
       16115000	      1610	00000000	00000013	addi	x0,x0,0	  x0:0x00000000
       16125000	      1611	80005884	00000013	addi	x0,x0,0	  x0:0x00000000
       16135000	      1612	80005888	413a0133	sub	x2,x20,x19	 x20:0x00000001 x19:0x000000fb  x2=0xffffff06
       16145000	      1613	8000588c	00c1fab3	and	x21,x3,x12	  x3:0xffffffe5 x12:0x00000000 x21=0x00000000
       16155000	      1614	80005890	4191de33	sra	x28,x3,x25	  x3:0xffffffe5 x25:0x00000000 x28=0xffffffe5
       16165000	      1615	80005894	400b5193	srai	x3,x22,0x0	 x22:0x00000000  x3=0x00000000
       16175000	      1616	80005898	40fad633	sra	x12,x21,x15	 x21:0x00000000 x15:0x00000000 x12=0x00000000
       16185000	      1617	8000589c	01d23ab3	sltu	x21,x4,x29	  x4:0x00000000 x29:0x80009f6c x21=0x00000001
       16195000	      1618	800058a0	05fdf663	bgeu	x27,x31,800058ec	 x27:0xfffffffc x31:0x00000000
       16205000	      1619	00000000	00000013	addi	x0,x0,0	  x0:0x00000000
       16215000	      1620	800058e8	00000013	addi	x0,x0,0	  x0:0x00000000
       16225000	      1621	800058ec	9d779db7	lui	x27,0x9d779	 x27=0x9d779000
       16235000	      1622	800058f0	00e8d263	bge	x17,x14,800058f4	 x17:0x2f678808 x14:0x46190aea
       16245000	      1623	800058f4	00ead263	bge	x21,x14,800058f8	 x21:0x00000001 x14:0x46190aea
       16255000	      1624	800058f8	0e4aa693	slti	x13,x21,228	 x21:0x00000001 x13=0x00000001
       16265000	      1625	800058fc	3477f137	lui	x2,0x3477f	  x2=0x3477f000
       16275000	      1626	80005900	03170c63	beq	x14,x17,80005938	 x14:0x46190aea x17:0x2f678808
       16285000	      1627	80005904	41aadc33	sra	x24,x21,x26	 x21:0x00000001 x26:0x00000001 x24=0x00000000
       16295000	      1628	80005908	40edd033	sra	x0,x27,x14	 x27:0x9d779000 x14:0x46190aea
       16305000	      1629	8000590c	00f14c13	xori	x24,x2,15	  x2:0x3477f000 x24=0x3477f00f
       16315000	      1630	80005910	00af5593	srli	x11,x30,0xa	 x30:0x8000841e x11=0x00200021
       16325000	      1631	80005914	0135a8b3	slt	x17,x11,x19	 x11:0x00200021 x19:0x000000fb x17=0x00000000
       16335000	      1632	80005918	00997233	and	x4,x18,x9	 x18:0x00000000  x9:0xc32da000  x4=0x00000000
       16345000	      1633	8000591c	01ce71b3	and	x3,x28,x28	 x28:0xffffffe5 x28:0xffffffe5  x3=0xffffffe5
       16355000	      1634	80005920	0122d663	bge	x5,x18,8000592c	  x5:0xe8717000 x18:0x00000000
       16365000	      1635	80005924	65357393	andi	x7,x10,1619	 x10:0x00000001  x7=0x00000001
       16375000	      1636	80005928	0280e463	bltu	x1,x8,80005950	  x1:0x8000841e  x8:0x80009fc4
       16385000	      1637	00000000	00000013	addi	x0,x0,0	  x0:0x00000000
       16395000	      1638	8000594c	00000013	addi	x0,x0,0	  x0:0x00000000
       16405000	      1639	80005950	0118e033	or	x0,x17,x17	 x17:0x00000000 x17:0x00000000
       16415000	      1640	80005954	005ca5b3	slt	x11,x25,x5	 x25:0x00000000  x5:0xe8717000 x11=0x00000000
       16425000	      1641	80005958	02eb6063	bltu	x22,x14,80005978	 x22:0x00000000 x14:0x46190aea
       16435000	      1642	00000000	00000013	addi	x0,x0,0	  x0:0x00000000
       16445000	      1643	80005974	00000013	addi	x0,x0,0	  x0:0x00000000
       16455000	      1644	80005978	01479293	slli	x5,x15,0x14	 x15:0x00000000  x5=0x00000000
       16465000	      1645	8000597c	54cd7493	andi	x9,x26,1356	 x26:0x00000001  x9=0x00000000
       16475000	      1646	80005980	db57ed13	ori	x26,x15,-587	 x15:0x00000000 x26=0xfffffdb5
       16485000	      1647	80005984	03194c63	blt	x18,x17,800059bc	 x18:0x00000000 x17:0x00000000
       16495000	      1648	80005988	f826d197	auipc	x3,0xf826d	  x3=0x78272984
       16505000	      1649	8000598c	005825b3	slt	x11,x16,x5	 x16:0x00000000  x5:0x00000000 x11=0x00000000
       16515000	      1650	80005990	29160913	addi	x18,x12,657	 x12:0x00000000 x18=0x00000291
       16525000	      1651	80005994	f14a7ab7	lui	x21,0xf14a7	 x21=0xf14a7000
       16535000	      1652	80005998	0179f9b3	and	x19,x19,x23	 x19:0x000000fb x23:0x8000871e x19=0x0000001a
       16545000	      1653	8000599c	488dcc93	xori	x25,x27,1160	 x27:0x9d779000 x25=0x9d779488
       16555000	      1654	800059a0	01cf9813	slli	x16,x31,0x1c	 x31:0x00000000 x16=0x00000000
       16565000	      1655	800059a4	01eccc33	xor	x24,x25,x30	 x25:0x9d779488 x30:0x8000841e x24=0x1d771096
       16575000	      1656	800059a8	03d6f663	bgeu	x13,x29,800059d4	 x13:0x00000001 x29:0x80009f6c
       16585000	      1657	800059ac	0065c333	xor	x6,x11,x6	 x11:0x00000000  x6:0x00000000  x6=0x00000000
       16595000	      1658	800059b0	0191f9b3	and	x19,x3,x25	  x3:0x78272984 x25:0x9d779488 x19=0x18270080
       16605000	      1659	800059b4	050e4663	blt	x28,x16,80005a00	 x28:0xffffffe5 x16:0x00000000
       16615000	      1660	00000000	00000013	addi	x0,x0,0	  x0:0x00000000
       16625000	      1661	800059fc	00000013	addi	x0,x0,0	  x0:0x00000000
       16635000	      1662	80005a00	009cbdb3	sltu	x27,x25,x9	 x25:0x9d779488  x9:0x00000000 x27=0x00000000
       16645000	      1663	80005a04	00ca6d33	or	x26,x20,x12	 x20:0x00000001 x12:0x00000000 x26=0x00000001
       16655000	      1664	80005a08	00e55893	srli	x17,x10,0xe	 x10:0x00000001 x17=0x00000000
       16665000	      1665	80005a0c	01fd5e13	srli	x28,x26,0x1f	 x26:0x00000001 x28=0x00000000
       16675000	      1666	80005a10	5e118697	auipc	x13,0x5e118	 x13=0xde11da0c
       16685000	      1667	80005a14	006b1c33	sll	x24,x22,x6	 x22:0x00000000  x6:0x00000000 x24=0x00000000
       16695000	      1668	80005a18	007bd6b3	srl	x13,x23,x7	 x23:0x8000871e  x7:0x00000001 x13=0x4000438f
       16705000	      1669	80005a1c	406c0cb3	sub	x25,x24,x6	 x24:0x00000000  x6:0x00000000 x25=0x00000000
       16715000	      1670	80005a20	249c4013	xori	x0,x24,585	 x24:0x00000000
       16725000	      1671	80005a24	00000013	addi	x0,x0,0	  x0:0x00000000
       16735000	      1672	80005a28	04335063	bge	x6,x3,80005a68	  x6:0x00000000  x3:0x78272984
       16745000	      1673	80005a2c	01b29bb3	sll	x23,x5,x27	  x5:0x00000000 x27:0x00000000 x23=0x00000000
       16755000	      1674	80005a30	0c99a317	auipc	x6,0xc99a	  x6=0x8c99fa2c
       16765000	      1675	80005a34	9e180093	addi	x1,x16,-1567	 x16:0x00000000  x1=0xfffff9e1
       16775000	      1676	80005a38	009ed513	srli	x10,x29,0x9	 x29:0x80009f6c x10=0x0040004f
       16785000	      1677	80005a3c	01fcf2b3	and	x5,x25,x31	 x25:0x00000000 x31:0x00000000  x5=0x00000000
       16795000	      1678	80005a40	02f34463	blt	x6,x15,80005a68	  x6:0x8c99fa2c x15:0x00000000
       16805000	      1679	00000000	00000013	addi	x0,x0,0	  x0:0x00000000
       16815000	      1680	80005a64	00000013	addi	x0,x0,0	  x0:0x00000000
       16825000	      1681	80005a68	01d7e263	bltu	x15,x29,80005a6c	 x15:0x00000000 x29:0x80009f6c
       16835000	      1682	00000000	00000013	addi	x0,x0,0	  x0:0x00000000
       16845000	      1683	80005a68	00000013	addi	x0,x0,0	  x0:0x00000000
       16855000	      1684	80005a6c	00b5bfb3	sltu	x31,x11,x11	 x11:0x00000000 x11:0x00000000 x31=0x00000000
       16865000	      1685	80005a70	c38d0293	addi	x5,x26,-968	 x26:0x00000001  x5=0xfffffc39
       16875000	      1686	80005a74	00b59813	slli	x16,x11,0xb	 x11:0x00000000 x16=0x00000000
       16885000	      1687	80005a78	00dc6333	or	x6,x24,x13	 x24:0x00000000 x13:0x4000438f  x6=0x4000438f
       16895000	      1688	80005a7c	40b859b3	sra	x19,x16,x11	 x16:0x00000000 x11:0x00000000 x19=0x00000000
       16905000	      1689	80005a80	01373333	sltu	x6,x14,x19	 x14:0x46190aea x19:0x00000000  x6=0x00000000
       16915000	      1690	80005a84	404b5933	sra	x18,x22,x4	 x22:0x00000000  x4:0x00000000 x18=0x00000000
       16925000	      1691	80005a88	0180c833	xor	x16,x1,x24	  x1:0xfffff9e1 x24:0x00000000 x16=0xfffff9e1
       16935000	      1692	80005a8c	00f3b0b3	sltu	x1,x7,x15	  x7:0x00000001 x15:0x00000000  x1=0x00000000
       16945000	      1693	80005a90	41358db3	sub	x27,x11,x19	 x11:0x00000000 x19:0x00000000 x27=0x00000000
       16955000	      1694	80005a94	03707463	bgeu	x0,x23,80005abc	  x0:0x00000000 x23:0x00000000
       16965000	      1695	00000000	00000013	addi	x0,x0,0	  x0:0x00000000
       16975000	      1696	80005ab8	00000013	addi	x0,x0,0	  x0:0x00000000
       16985000	      1697	80005abc	03297813	andi	x16,x18,50	 x18:0x00000000 x16=0x00000000
       16995000	      1698	80005ac0	01ed5d93	srli	x27,x26,0x1e	 x26:0x00000001 x27=0x00000000
       17005000	      1699	80005ac4	018f05b3	add	x11,x30,x24	 x30:0x8000841e x24:0x00000000 x11=0x8000841e
       17015000	      1700	80005ac8	8b137393	andi	x7,x6,-1871	  x6:0x00000000  x7=0x00000000
       17025000	      1701	80005acc	00000013	addi	x0,x0,0	  x0:0x00000000
       17035000	      1702	80005ad0	ff6ad517	auipc	x10,0xff6ad	 x10=0x7f6b2acc
       17045000	      1703	80005ad4	d5aee297	auipc	x5,0xd5aee	  x5=0x55af3ad0
       17055000	      1704	80005ad8	53d6aa13	slti	x20,x13,1341	 x13:0x4000438f x20=0x00000000
       17065000	      1705	80005adc	3bb35fb7	lui	x31,0x3bb35	 x31=0x3bb35000
       17075000	      1706	80005ae0	01240e33	add	x28,x8,x18	  x8:0x80009fc4 x18:0x00000000 x28=0x80009fc4
       17085000	      1707	80005ae4	401305b3	sub	x11,x6,x1	  x6:0x00000000  x1:0x00000000 x11=0x00000000
       17095000	      1708	80005ae8	00000013	addi	x0,x0,0	  x0:0x00000000
       17105000	      1709	80005aec	ffbb4a93	xori	x21,x22,-5	 x22:0x00000000 x21=0xfffffffb
       17115000	      1710	80005af0	00e3e5b3	or	x11,x7,x14	  x7:0x00000000 x14:0x46190aea x11=0x46190aea
       17125000	      1711	80005af4	025efa63	bgeu	x29,x5,80005b28	 x29:0x80009f6c  x5:0x55af3ad0
       17135000	      1712	00000000	00000013	addi	x0,x0,0	  x0:0x00000000
       17145000	      1713	80005b24	00000013	addi	x0,x0,0	  x0:0x00000000
       17155000	      1714	80005b28	00ce5213	srli	x4,x28,0xc	 x28:0x80009fc4  x4=0x00080009
       17165000	      1715	80005b2c	7f783613	sltiu	x12,x16,2039	 x16:0x00000000 x12=0x00000001
       17175000	      1716	80005b30	00000013	addi	x0,x0,0	  x0:0x00000000
       17185000	      1717	80005b34	d6f8c693	xori	x13,x17,-657	 x17:0x00000000 x13=0xfffffd6f
       17195000	      1718	80005b38	074c2693	slti	x13,x24,116	 x24:0x00000000 x13=0x00000001
       17205000	      1719	80005b3c	b8205317	auipc	x6,0xb8205	  x6=0x3820ab38
       17215000	      1720	80005b40	379e1117	auipc	x2,0x379e1	  x2=0xb79e6b3c
       17225000	      1721	80005b44	19300c17	auipc	x24,0x19300	 x24=0x99305b40
       17235000	      1722	80005b48	07810a13	addi	x20,x2,120	  x2:0xb79e6b3c x20=0xb79e6bb4
       17245000	      1723	80005b4c	93bb6db7	lui	x27,0x93bb6	 x27=0x93bb6000
       17255000	      1724	80005b50	0586e663	bltu	x13,x24,80005b9c	 x13:0x00000001 x24:0x99305b40
       17265000	      1725	00000000	00000013	addi	x0,x0,0	  x0:0x00000000
       17275000	      1726	80005b98	00000013	addi	x0,x0,0	  x0:0x00000000
       17285000	      1727	80005b9c	008d8733	add	x14,x27,x8	 x27:0x93bb6000  x8:0x80009fc4 x14=0x13bbffc4
       17295000	      1728	80005ba0	bac42693	slti	x13,x8,-1108	  x8:0x80009fc4 x13=0x00000001
       17305000	      1729	80005ba4	017e42b3	xor	x5,x28,x23	 x28:0x80009fc4 x23:0x00000000  x5=0x80009fc4
       17315000	      1730	80005ba8	01cb0033	add	x0,x22,x28	 x22:0x00000000 x28:0x80009fc4
       17325000	      1731	80005bac	00fb9193	slli	x3,x23,0xf	 x23:0x00000000  x3=0x00000000
       17335000	      1732	80005bb0	02c00063	beq	x0,x12,80005bd0	  x0:0x00000000 x12:0x00000001
       17345000	      1733	80005bb4	a0044c13	xori	x24,x8,-1536	  x8:0x80009fc4 x24=0x7fff65c4
       17355000	      1734	80005bb8	00901c33	sll	x24,x0,x9	  x0:0x00000000  x9:0x00000000 x24=0x00000000
       17365000	      1735	80005bbc	0054db13	srli	x22,x9,0x5	  x9:0x00000000 x22=0x00000000
       17375000	      1736	80005bc0	c008b013	sltiu	x0,x17,-1024	 x17:0x00000000
       17385000	      1737	80005bc4	2d1e6a93	ori	x21,x28,721	 x28:0x80009fc4 x21=0x80009fd5
       17395000	      1738	80005bc8	01581463	bne	x16,x21,80005bd0	 x16:0x00000000 x21:0x80009fd5
       17405000	      1739	00000000	00000013	addi	x0,x0,0	  x0:0x00000000
       17415000	      1740	80005bcc	00000013	addi	x0,x0,0	  x0:0x00000000
       17425000	      1741	80005bd0	40b45293	srai	x5,x8,0xb	  x8:0x80009fc4  x5=0xfff00013
       17435000	      1742	80005bd4	0018d313	srli	x6,x17,0x1	 x17:0x00000000  x6=0x00000000
       17445000	      1743	80005bd8	004eaf03	lw	x30,4(x29)	 x29:0x80009f6c x30=0x800004d8 PA:0x80009f70
       17455000	      1744	80005bdc	00f5cb33	xor	x22,x11,x15	 x11:0x46190aea x15:0x00000000 x22=0x46190aea
       17465000	      1745	80005be0	016fd193	srli	x3,x31,0x16	 x31:0x3bb35000  x3=0x000000ee
       17475000	      1746	80005be4	2417fab7	lui	x21,0x2417f	 x21=0x2417f000
       17485000	      1747	80005be8	01851633	sll	x12,x10,x24	 x10:0x7f6b2acc x24:0x00000000 x12=0x7f6b2acc
       17495000	      1748	80005bec	40f6d833	sra	x16,x13,x15	 x13:0x00000001 x15:0x00000000 x16=0x00000001
       17505000	      1749	80005bf0	018e8e93	addi	x29,x29,24	 x29:0x80009f6c x29=0x80009f84
       17515000	      1750	80005bf4	01414d33	xor	x26,x2,x20	  x2:0xb79e6b3c x20:0xb79e6bb4 x26=0x00000088
       17525000	      1751	80005bf8	04a6bd13	sltiu	x26,x13,74	 x13:0x00000001 x26=0x00000001
       17535000	      1752	80005bfc	010d54b3	srl	x9,x26,x16	 x26:0x00000001 x16:0x00000001  x9=0x00000000
       17545000	      1753	80005c00	000f0393	addi	x7,x30,0	 x30:0x800004d8  x7=0x800004d8
       17555000	      1754	80005c04	000383e7	jalr	x7,x7,0	  x7:0x800004d8  x7=0x80005c04
       17565000	      1755	00000000	00000013	addi	x0,x0,0	  x0:0x00000000
       17575000	      1756	800004d8	00000013	addi	x0,x0,0	  x0:0x00000000
       17585000	      1757	800004dc	01c35713	srli	x14,x6,0x1c	  x6:0x00000000 x14=0x00000000
       17595000	      1758	800004e0	01b561b3	or	x3,x10,x27	 x10:0x7f6b2acc x27:0x93bb6000  x3=0xfffb6acc
       17605000	      1759	800004e4	11308113	addi	x2,x1,275	  x1:0x00000000  x2=0x00000113
       17615000	      1760	800004e8	01cbfe33	and	x28,x23,x28	 x23:0x00000000 x28:0x80009fc4 x28=0x00000000
       17625000	      1761	800004ec	01fd0133	add	x2,x26,x31	 x26:0x00000001 x31:0x3bb35000  x2=0x3bb35001
       17635000	      1762	800004f0	00bb7d33	and	x26,x22,x11	 x22:0x46190aea x11:0x46190aea x26=0x46190aea
       17645000	      1763	800004f4	9f4fd937	lui	x18,0x9f4fd	 x18=0x9f4fd000
       17655000	      1764	800004f8	a8febd17	auipc	x26,0xa8feb	 x26=0x28feb4f4
       17665000	      1765	800004fc	01ed5f33	srl	x30,x26,x30	 x26:0x28feb4f4 x30:0x800004d8 x30=0x00000028
       17675000	      1766	80000500	641cbc93	sltiu	x25,x25,1601	 x25:0x00000000 x25=0x00000001
       17685000	      1767	80000504	045a5463	bge	x20,x5,8000054c	 x20:0xb79e6bb4  x5:0xfff00013
       17695000	      1768	80000508	0121e6b3	or	x13,x3,x18	  x3:0xfffb6acc x18:0x9f4fd000 x13=0xfffffacc
       17705000	      1769	8000050c	01b97033	and	x0,x18,x27	 x18:0x9f4fd000 x27:0x93bb6000
       17715000	      1770	80000510	00c27263	bgeu	x4,x12,80000514	  x4:0x00080009 x12:0x7f6b2acc
       17725000	      1771	80000514	00191e13	slli	x28,x18,0x1	 x18:0x9f4fd000 x28=0x3e9fa000
       17735000	      1772	80000518	63fbe637	lui	x12,0x63fbe	 x12=0x63fbe000
       17745000	      1773	8000051c	0187a0b3	slt	x1,x15,x24	 x15:0x00000000 x24:0x00000000  x1=0x00000000
       17755000	      1774	80000520	00283c33	sltu	x24,x16,x2	 x16:0x00000001  x2:0x3bb35001 x24=0x00000001
       17765000	      1775	80000524	ed89ab93	slti	x23,x19,-296	 x19:0x00000000 x23=0x00000000
       17775000	      1776	80000528	1491ef93	ori	x31,x3,329	  x3:0xfffb6acc x31=0xfffb6bcd
       17785000	      1777	8000052c	00000013	addi	x0,x0,0	  x0:0x00000000
       17795000	      1778	80000530	00000013	addi	x0,x0,0	  x0:0x00000000
       17805000	      1779	80000534	01a75a33	srl	x20,x14,x26	 x14:0x00000000 x26:0x28feb4f4 x20=0x00000000
       17815000	      1780	80000538	41218ab3	sub	x21,x3,x18	  x3:0xfffb6acc x18:0x9f4fd000 x21=0x60ab9acc
       17825000	      1781	8000053c	01b64663	blt	x12,x27,80000548	 x12:0x63fbe000 x27:0x93bb6000
       17835000	      1782	80000540	011e5663	bge	x28,x17,8000054c	 x28:0x3e9fa000 x17:0x00000000
       17845000	      1783	00000000	00000013	addi	x0,x0,0	  x0:0x00000000
       17855000	      1784	80000548	00000013	addi	x0,x0,0	  x0:0x00000000
       17865000	      1785	8000054c	01a63cb3	sltu	x25,x12,x26	 x12:0x63fbe000 x26:0x28feb4f4 x25=0x00000000
       17875000	      1786	80000550	dbd03093	sltiu	x1,x0,-579	  x0:0x00000000  x1=0x00000001
       17885000	      1787	80000554	00bb4263	blt	x22,x11,80000558	 x22:0x46190aea x11:0x46190aea
       17895000	      1788	80000558	015ab733	sltu	x14,x21,x21	 x21:0x60ab9acc x21:0x60ab9acc x14=0x00000000
       17905000	      1789	8000055c	0014b8b3	sltu	x17,x9,x1	  x9:0x00000000  x1:0x00000001 x17=0x00000001
       17915000	      1790	80000560	00716f33	or	x30,x2,x7	  x2:0x3bb35001  x7:0x80005c04 x30=0xbbb35c05
       17925000	      1791	80000564	00d0dcb3	srl	x25,x1,x13	  x1:0x00000001 x13:0xfffffacc x25=0x00000000
       17935000	      1792	80000568	00993bb3	sltu	x23,x18,x9	 x18:0x9f4fd000  x9:0x00000000 x23=0x00000000
       17945000	      1793	8000056c	f2650093	addi	x1,x10,-218	 x10:0x7f6b2acc  x1=0x7f6b29f2
       17955000	      1794	80000570	0c55cc93	xori	x25,x11,197	 x11:0x46190aea x25=0x46190a2f
       17965000	      1795	80000574	00000013	addi	x0,x0,0	  x0:0x00000000
       17975000	      1796	80000578	41fedf33	sra	x30,x29,x31	 x29:0x80009f84 x31:0xfffb6bcd x30=0xfffc0004
       17985000	      1797	8000057c	002b7ab3	and	x21,x22,x2	 x22:0x46190aea  x2:0x3bb35001 x21=0x02110000
       17995000	      1798	80000580	016e5833	srl	x16,x28,x22	 x28:0x3e9fa000 x22:0x46190aea x16=0x000fa7e8
       18005000	      1799	80000584	0070d5b3	srl	x11,x1,x7	  x1:0x7f6b29f2  x7:0x80005c04 x11=0x07f6b29f
       18015000	      1800	80000588	017ad633	srl	x12,x21,x23	 x21:0x02110000 x23:0x00000000 x12=0x02110000
       18025000	      1801	8000058c	006b1ab3	sll	x21,x22,x6	 x22:0x46190aea  x6:0x00000000 x21=0x46190aea
       18035000	      1802	80000590	fe2cfa13	andi	x20,x25,-30	 x25:0x46190a2f x20=0x46190a22
       18045000	      1803	80000594	aac7a093	slti	x1,x15,-1364	 x15:0x00000000  x1=0x00000000
       18055000	      1804	80000598	36772517	auipc	x10,0x36772	 x10=0xb6772594
       18065000	      1805	8000059c	006a5233	srl	x4,x20,x6	 x20:0x46190a22  x6:0x00000000  x4=0x46190a22
       18075000	      1806	800005a0	02016463	bltu	x2,x0,800005c8	  x2:0x3bb35001  x0:0x00000000
       18085000	      1807	800005a4	4048d113	srai	x2,x17,0x4	 x17:0x00000001  x2=0x00000000
       18095000	      1808	800005a8	05240063	beq	x8,x18,800005e8	  x8:0x80009fc4 x18:0x9f4fd000
       18105000	      1809	800005ac	64007f13	andi	x30,x0,1600	  x0:0x00000000 x30=0x00000000
       18115000	      1810	800005b0	01d21cb3	sll	x25,x4,x29	  x4:0x46190a22 x29:0x80009f84 x25=0x6190a220
       18125000	      1811	800005b4	ecad2b93	slti	x23,x26,-310	 x26:0x28feb4f4 x23=0x00000000
       18135000	      1812	800005b8	000bedb3	or	x27,x23,x0	 x23:0x00000000  x0:0x00000000 x27=0x00000000
       18145000	      1813	800005bc	7759b213	sltiu	x4,x19,1909	 x19:0x00000000  x4=0x00000001
       18155000	      1814	800005c0	00615393	srli	x7,x2,0x6	  x2:0x00000000  x7=0x00000000
       18165000	      1815	800005c4	40f0d093	srai	x1,x1,0xf	  x1:0x00000000  x1=0x00000000
       18175000	      1816	800005c8	013f83b3	add	x7,x31,x19	 x31:0xfffb6bcd x19:0x00000000  x7=0xfffb6bcd
       18185000	      1817	800005cc	92a9c013	xori	x0,x19,-1750	 x19:0x00000000
       18195000	      1818	800005d0	0092e3b3	or	x7,x5,x9	  x5:0xfff00013  x9:0x00000000  x7=0xfff00013
       18205000	      1819	800005d4	62f52d93	slti	x27,x10,1583	 x10:0xb6772594 x27=0x00000001
       18215000	      1820	800005d8	00000013	addi	x0,x0,0	  x0:0x00000000
       18225000	      1821	800005dc	0173d713	srli	x14,x7,0x17	  x7:0xfff00013 x14=0x000001ff
       18235000	      1822	800005e0	003bd8b3	srl	x17,x23,x3	 x23:0x00000000  x3:0xfffb6acc x17=0x00000000
       18245000	      1823	800005e4	00e30263	beq	x6,x14,800005e8	  x6:0x00000000 x14:0x000001ff
       18255000	      1824	800005e8	02acc463	blt	x25,x10,80000610	 x25:0x6190a220 x10:0xb6772594
       18265000	      1825	800005ec	5a270013	addi	x0,x14,1442	 x14:0x000001ff
       18275000	      1826	800005f0	00791db3	sll	x27,x18,x7	 x18:0x9f4fd000  x7:0xfff00013 x27=0x80000000
       18285000	      1827	800005f4	01207033	and	x0,x0,x18	  x0:0x00000000 x18:0x9f4fd000
       18295000	      1828	800005f8	240a4137	lui	x2,0x240a4	  x2=0x240a4000
       18305000	      1829	800005fc	031b0263	beq	x22,x17,80000620	 x22:0x46190aea x17:0x00000000
       18315000	      1830	80000600	ae58b093	sltiu	x1,x17,-1307	 x17:0x00000000  x1=0x00000001
       18325000	      1831	80000604	01b646b3	xor	x13,x12,x27	 x12:0x02110000 x27:0x80000000 x13=0x82110000
       18335000	      1832	80000608	04205663	bge	x0,x2,80000654	  x0:0x00000000  x2:0x240a4000
       18345000	      1833	8000060c	005c6463	bltu	x24,x5,80000614	 x24:0x00000001  x5:0xfff00013
       18355000	      1834	00000000	00000013	addi	x0,x0,0	  x0:0x00000000
       18365000	      1835	80000610	00000013	addi	x0,x0,0	  x0:0x00000000
       18375000	      1836	80000614	e4fa3f13	sltiu	x30,x20,-433	 x20:0x46190a22 x30=0x00000001
       18385000	      1837	80000618	01425d33	srl	x26,x4,x20	  x4:0x00000001 x20:0x46190a22 x26=0x00000000
       18395000	      1838	8000061c	56d68913	addi	x18,x13,1389	 x13:0x82110000 x18=0x8211056d
       18405000	      1839	80000620	00000013	addi	x0,x0,0	  x0:0x00000000
       18415000	      1840	80000624	35c374b7	lui	x9,0x35c37	  x9=0x35c37000
       18425000	      1841	80000628	03b2cc63	blt	x5,x27,80000660	  x5:0xfff00013 x27:0x80000000
       18435000	      1842	8000062c	52f74313	xori	x6,x14,1327	 x14:0x000001ff  x6=0x000004d0
       18445000	      1843	80000630	0507c863	blt	x15,x16,80000680	 x15:0x00000000 x16:0x000fa7e8
       18455000	      1844	00000000	00000013	addi	x0,x0,0	  x0:0x00000000
       18465000	      1845	8000067c	00000013	addi	x0,x0,0	  x0:0x00000000
       18475000	      1846	80000680	01c31813	slli	x16,x6,0x1c	  x6:0x000004d0 x16=0x00000000
       18485000	      1847	80000684	05144063	blt	x8,x17,800006c4	  x8:0x80009fc4 x17:0x00000000
       18495000	      1848	00000000	00000013	addi	x0,x0,0	  x0:0x00000000
       18505000	      1849	800006c0	00000013	addi	x0,x0,0	  x0:0x00000000
       18515000	      1850	800006c4	418b0133	sub	x2,x22,x24	 x22:0x46190aea x24:0x00000001  x2=0x46190ae9
       18525000	      1851	800006c8	4075dfb3	sra	x31,x11,x7	 x11:0x07f6b29f  x7:0xfff00013 x31=0x000000fe
       18535000	      1852	800006cc	02710263	beq	x2,x7,800006f0	  x2:0x46190ae9  x7:0xfff00013
       18545000	      1853	800006d0	0184f5b3	and	x11,x9,x24	  x9:0x35c37000 x24:0x00000001 x11=0x00000000
       18555000	      1854	800006d4	02957c63	bgeu	x10,x9,8000070c	 x10:0xb6772594  x9:0x35c37000
       18565000	      1855	00000000	00000013	addi	x0,x0,0	  x0:0x00000000
       18575000	      1856	80000708	00000013	addi	x0,x0,0	  x0:0x00000000
       18585000	      1857	8000070c	01428733	add	x14,x5,x20	  x5:0xfff00013 x20:0x46190a22 x14=0x46090a35
       18595000	      1858	80000710	0021fe33	and	x28,x3,x2	  x3:0xfffb6acc  x2:0x46190ae9 x28=0x46190ac8
       18605000	      1859	80000714	40265833	sra	x16,x12,x2	 x12:0x02110000  x2:0x46190ae9 x16=0x00010880
       18615000	      1860	80000718	72fa2293	slti	x5,x20,1839	 x20:0x46190a22  x5=0x00000000
       18625000	      1861	8000071c	01635a13	srli	x20,x6,0x16	  x6:0x000004d0 x20=0x00000000
       18635000	      1862	80000720	00c61a13	slli	x20,x12,0xc	 x12:0x02110000 x20=0x10000000
       18645000	      1863	80000724	9ed4ce17	auipc	x28,0x9ed4c	 x28=0x1ed4c720
       18655000	      1864	80000728	0125ee33	or	x28,x11,x18	 x11:0x00000000 x18:0x8211056d x28=0x8211056d
       18665000	      1865	8000072c	f20faf13	slti	x30,x31,-224	 x31:0x000000fe x30=0x00000000
       18675000	      1866	80000730	65f1c013	xori	x0,x3,1631	  x3:0xfffb6acc
       18685000	      1867	80000734	00b25b13	srli	x22,x4,0xb	  x4:0x00000001 x22=0x00000000
       18695000	      1868	80000738	415e89b3	sub	x19,x29,x21	 x29:0x80009f84 x21:0x46190aea x19=0x39e7949a
       18705000	      1869	8000073c	005cdc93	srli	x25,x25,0x5	 x25:0x6190a220 x25=0x030c8511
       18715000	      1870	80000740	05418063	beq	x3,x20,80000780	  x3:0xfffb6acc x20:0x10000000
       18725000	      1871	80000744	74c66113	ori	x2,x12,1868	 x12:0x02110000  x2=0x0211074c
       18735000	      1872	80000748	230a4913	xori	x18,x20,560	 x20:0x10000000 x18=0x10000230
       18745000	      1873	8000074c	00f25c13	srli	x24,x4,0xf	  x4:0x00000001 x24=0x00000000
       18755000	      1874	80000750	07eebc13	sltiu	x24,x29,126	 x29:0x80009f84 x24=0x00000000
       18765000	      1875	80000754	01c24863	blt	x4,x28,80000764	  x4:0x00000001 x28:0x8211056d
       18775000	      1876	80000758	014e70b3	and	x1,x28,x20	 x28:0x8211056d x20:0x10000000  x1=0x00000000
       18785000	      1877	8000075c	b65a2d17	auipc	x26,0xb65a2	 x26=0x365a2758
       18795000	      1878	80000760	00f20e63	beq	x4,x15,8000077c	  x4:0x00000001 x15:0x00000000
       18805000	      1879	80000764	0148e1b3	or	x3,x17,x20	 x17:0x00000000 x20:0x10000000  x3=0x10000000
       18815000	      1880	80000768	03f41463	bne	x8,x31,80000790	  x8:0x80009fc4 x31:0x000000fe
       18825000	      1881	00000000	00000013	addi	x0,x0,0	  x0:0x00000000
       18835000	      1882	8000078c	00000013	addi	x0,x0,0	  x0:0x00000000
       18845000	      1883	80000790	01545693	srli	x13,x8,0x15	  x8:0x80009fc4 x13=0x00000400
       18855000	      1884	80000794	047ed263	bge	x29,x7,800007d8	 x29:0x80009f84  x7:0xfff00013
       18865000	      1885	80000798	01b79033	sll	x0,x15,x27	 x15:0x00000000 x27:0x80000000
       18875000	      1886	8000079c	e437cb13	xori	x22,x15,-445	 x15:0x00000000 x22=0xfffffe43
       18885000	      1887	800007a0	010eda93	srli	x21,x29,0x10	 x29:0x80009f84 x21=0x00008000
       18895000	      1888	800007a4	002eb633	sltu	x12,x29,x2	 x29:0x80009f84  x2:0x0211074c x12=0x00000000
       18905000	      1889	800007a8	01cfdb93	srli	x23,x31,0x1c	 x31:0x000000fe x23=0x00000000
       18915000	      1890	800007ac	00c28233	add	x4,x5,x12	  x5:0x00000000 x12:0x00000000  x4=0x00000000
       18925000	      1891	800007b0	6a0d3013	sltiu	x0,x26,1696	 x26:0x365a2758
       18935000	      1892	800007b4	00005717	auipc	x14,0x5	 x14=0x800057b0
       18945000	      1893	800007b8	45470713	addi	x14,x14,1108	 x14:0x800057b0 x14=0x80005c04
       18955000	      1894	800007bc	01a75493	srli	x9,x14,0x1a	 x14:0x80005c04  x9=0x00000020
       18965000	      1895	800007c0	41595493	srai	x9,x18,0x15	 x18:0x10000230  x9=0x00000080
       18975000	      1896	800007c4	07370713	addi	x14,x14,115	 x14:0x80005c04 x14=0x80005c77
       18985000	      1897	800007c8	00000013	addi	x0,x0,0	  x0:0x00000000
       18995000	      1898	800007cc	a15d7313	andi	x6,x26,-1515	 x26:0x365a2758  x6=0x365a2210
       19005000	      1899	800007d0	00217033	and	x0,x2,x2	  x2:0x0211074c  x2:0x0211074c
       19015000	      1900	800007d4	f8d70f67	jalr	x30,x14,-115	 x14:0x80005c77 x30=0x800007d4
       19025000	      1901	00000000	00000013	addi	x0,x0,0	  x0:0x00000000
       19035000	      1902	80005c04	00000013	addi	x0,x0,0	  x0:0x00000000
       19045000	      1903	80005c08	09943613	sltiu	x12,x8,153	  x8:0x80009fc4 x12=0x00000000
       19055000	      1904	80005c0c	40bd5213	srai	x4,x26,0xb	 x26:0x365a2758  x4=0x0006cb44
       19065000	      1905	80005c10	1a7def93	ori	x31,x27,423	 x27:0x80000000 x31=0x800001a7
       19075000	      1906	80005c14	01041863	bne	x8,x16,80005c24	  x8:0x80009fc4 x16:0x00010880
       19085000	      1907	00000000	00000013	addi	x0,x0,0	  x0:0x00000000
       19095000	      1908	80005c20	00000013	addi	x0,x0,0	  x0:0x00000000
       19105000	      1909	80005c24	fece8e93	addi	x29,x29,-20	 x29:0x80009f84 x29=0x80009f70
       19115000	      1910	80005c28	00000013	addi	x0,x0,0	  x0:0x00000000
       19125000	      1911	80005c2c	01eea223	sw	x30,4(x29)	 x29:0x80009f70 x30:0x800007d4 PA:0x80009f74
       19135000	      1912	80005c30	016ec533	xor	x10,x29,x22	 x29:0x80009f70 x22:0xfffffe43 x10=0x7fff6133
       19145000	      1913	80005c34	00c21033	sll	x0,x4,x12	  x4:0x0006cb44 x12:0x00000000
       19155000	      1914	80005c38	4157d213	srai	x4,x15,0x15	 x15:0x00000000  x4=0x00000000
       19165000	      1915	80005c3c	04998e13	addi	x28,x19,73	 x19:0x39e7949a x28=0x39e794e3
       19175000	      1916	80005c40	4145d993	srai	x19,x11,0x14	 x11:0x00000000 x19=0x00000000
       19185000	      1917	80005c44	b802b1b7	lui	x3,0xb802b	  x3=0xb802b000
       19195000	      1918	80005c48	89a50a93	addi	x21,x10,-1894	 x10:0x7fff6133 x21=0x7fff59cd
       19205000	      1919	80005c4c	01a566b3	or	x13,x10,x26	 x10:0x7fff6133 x26:0x365a2758 x13=0x7fff677b
       19215000	      1920	80005c50	01c94733	xor	x14,x18,x28	 x18:0x10000230 x28:0x39e794e3 x14=0x29e796d3
       19225000	      1921	80005c54	01c63ab3	sltu	x21,x12,x28	 x12:0x00000000 x28:0x39e794e3 x21=0x00000001
       19235000	      1922	80005c58	2cd00f6f	jal	x30,80005c58	 x30=0x80005c58
       19245000	      1923	00000000	00000013	addi	x0,x0,0	  x0:0x00000000
       19255000	      1924	80006720	00000013	addi	x0,x0,0	  x0:0x00000000
       19265000	      1925	80006724	012ec263	blt	x29,x18,80006728	 x29:0x80009f70 x18:0x10000230
       19275000	      1926	00000000	00000013	addi	x0,x0,0	  x0:0x00000000
       19285000	      1927	80006724	00000013	addi	x0,x0,0	  x0:0x00000000
       19295000	      1928	80006728	fd4e8e93	addi	x29,x29,-44	 x29:0x80009f70 x29=0x80009f44
       19305000	      1929	8000672c	37713a37	lui	x20,0x37713	 x20=0x37713000
       19315000	      1930	80006730	01ead693	srli	x13,x21,0x1e	 x21:0x00000001 x13=0x00000000
       19325000	      1931	80006734	017cb8b3	sltu	x17,x25,x23	 x25:0x030c8511 x23:0x00000000 x17=0x00000000
       19335000	      1932	80006738	0167b0b3	sltu	x1,x15,x22	 x15:0x00000000 x22:0xfffffe43  x1=0x00000001
       19345000	      1933	8000673c	8b9b5a17	auipc	x20,0x8b9b5	 x20=0x0b9bb738
       19355000	      1934	80006740	01eea223	sw	x30,4(x29)	 x29:0x80009f44 x30:0x80005c58 PA:0x80009f48
       19365000	      1935	80006744	00165d93	srli	x27,x12,0x1	 x12:0x00000000 x27=0x00000000
       19375000	      1936	80006748	0070c0b3	xor	x1,x1,x7	  x1:0x00000001  x7:0xfff00013  x1=0xfff00012
       19385000	      1937	8000674c	18a58713	addi	x14,x11,394	 x11:0x00000000 x14=0x0000018a
       19395000	      1938	80006750	01424db3	xor	x27,x4,x20	  x4:0x00000000 x20:0x0b9bb738 x27=0x0b9bb738
       19405000	      1939	80006754	000b0663	beq	x22,x0,80006760	 x22:0xfffffe43  x0:0x00000000
       19415000	      1940	80006758	003bc8b3	xor	x17,x23,x3	 x23:0x00000000  x3:0xb802b000 x17=0xb802b000
       19425000	      1941	8000675c	1f4cfa13	andi	x20,x25,500	 x25:0x030c8511 x20=0x00000110
       19435000	      1942	80006760	00d4e5b3	or	x11,x9,x13	  x9:0x00000080 x13:0x00000000 x11=0x00000080
       19445000	      1943	80006764	00000013	addi	x0,x0,0	  x0:0x00000000
       19455000	      1944	80006768	1f5a8813	addi	x16,x21,501	 x21:0x00000001 x16=0x000001f6
       19465000	      1945	8000676c	0134b6b3	sltu	x13,x9,x19	  x9:0x00000080 x19:0x00000000 x13=0x00000000
       19475000	      1946	80006770	060bb693	sltiu	x13,x23,96	 x23:0x00000000 x13=0x00000001
       19485000	      1947	80006774	4ebc1717	auipc	x14,0x4ebc1	 x14=0xcebc7770
       19495000	      1948	80006778	01307233	and	x4,x0,x19	  x0:0x00000000 x19:0x00000000  x4=0x00000000
       19505000	      1949	8000677c	ab60b193	sltiu	x3,x1,-1354	  x1:0xfff00012  x3=0x00000001
       19515000	      1950	80006780	0581e663	bltu	x3,x24,800067cc	  x3:0x00000001 x24:0x00000000
       19525000	      1951	80006784	412cd613	srai	x12,x25,0x12	 x25:0x030c8511 x12=0x000000c3
       19535000	      1952	80006788	010f5593	srli	x11,x30,0x10	 x30:0x80005c58 x11=0x00008000
       19545000	      1953	8000678c	012c5613	srli	x12,x24,0x12	 x24:0x00000000 x12=0x00000000
       19555000	      1954	80006790	00d8d293	srli	x5,x17,0xd	 x17:0xb802b000  x5=0x0005c015
       19565000	      1955	80006794	da6eab17	auipc	x22,0xda6ea	 x22=0x5a6f0790
       19575000	      1956	80006798	04278263	beq	x15,x2,800067dc	 x15:0x00000000  x2:0x0211074c
       19585000	      1957	8000679c	84cd7537	lui	x10,0x84cd7	 x10=0x84cd7000
       19595000	      1958	800067a0	01b462b3	or	x5,x8,x27	  x8:0x80009fc4 x27:0x0b9bb738  x5=0x8b9bbffc
       19605000	      1959	800067a4	00255bb3	srl	x23,x10,x2	 x10:0x84cd7000  x2:0x0211074c x23=0x00084cd7
       19615000	      1960	800067a8	00ebca33	xor	x20,x23,x14	 x23:0x00084cd7 x14:0xcebc7770 x20=0xceb43ba7
       19625000	      1961	800067ac	19150b13	addi	x22,x10,401	 x10:0x84cd7000 x22=0x84cd7191
       19635000	      1962	800067b0	fd9acf93	xori	x31,x21,-39	 x21:0x00000001 x31=0xffffffd8
       19645000	      1963	800067b4	75ade393	ori	x7,x27,1882	 x27:0x0b9bb738  x7=0x0b9bb77a
       19655000	      1964	800067b8	00503c33	sltu	x24,x0,x5	  x0:0x00000000  x5:0x8b9bbffc x24=0x00000001
       19665000	      1965	800067bc	0109d4b3	srl	x9,x19,x16	 x19:0x00000000 x16:0x000001f6  x9=0x00000000
       19675000	      1966	800067c0	41fc5293	srai	x5,x24,0x1f	 x24:0x00000001  x5=0x00000000
       19685000	      1967	800067c4	03d19463	bne	x3,x29,800067ec	  x3:0x00000001 x29:0x80009f44
       19695000	      1968	00000000	00000013	addi	x0,x0,0	  x0:0x00000000
       19705000	      1969	800067e8	00000013	addi	x0,x0,0	  x0:0x00000000
       19715000	      1970	800067ec	0158dd93	srli	x27,x17,0x15	 x17:0xb802b000 x27=0x000005c0
       19725000	      1971	800067f0	00002117	auipc	x2,0x2	  x2=0x800087ec
       19735000	      1972	800067f4	f7c10113	addi	x2,x2,-132	  x2:0x800087ec  x2=0x80008768
       19745000	      1973	800067f8	a5211f23	sh	x18,-1442(x2)	  x2:0x80008768 x18:0x10000230 PA:0x800081c6
       19755000	      1974	800067fc	b9012183	lw	x3,-1136(x2)	  x2:0x80008768  x3=0x00000000 PA:0x800082f8
       19765000	      1975	80006800	e7914703	lbu	x14,-391(x2)	  x2:0x80008768 x14=0x00000000 PA:0x800085e1
       19775000	      1976	80006804	139f7617	auipc	x12,0x139f7	 x12=0x939fd800
       19785000	      1977	80006808	c07104a3	sb	x7,-1015(x2)	  x2:0x80008768  x7:0x0b9bb77a PA:0x80008371
       19795000	      1978	8000680c	401d01b3	sub	x3,x26,x1	 x26:0x365a2758  x1:0xfff00012  x3=0x366a2746
       19805000	      1979	80006810	adc10fa3	sb	x28,-1313(x2)	  x2:0x80008768 x28:0x39e794e3 PA:0x80008247
       19815000	      1980	80006814	00db1993	slli	x19,x22,0xd	 x22:0x84cd7191 x19=0xae322000
       19825000	      1981	80006818	003945b3	xor	x11,x18,x3	 x18:0x10000230  x3:0x366a2746 x11=0x266a2576
       19835000	      1982	8000681c	bf710483	lb	x9,-1033(x2)	  x2:0x80008768  x9=0x00000000 PA:0x8000835f
       19845000	      1983	80006820	b3914683	lbu	x13,-1223(x2)	  x2:0x80008768 x13=0x00000000 PA:0x800082a1
       19855000	      1984	80006824	4e5fb393	sltiu	x7,x31,1253	 x31:0xffffffd8  x7=0x00000000
       19865000	      1985	80006828	99415383	lhu	x7,-1644(x2)	  x2:0x80008768  x7=0x00000000 PA:0x800080fc
       19875000	      1986	8000682c	ef5107a3	sb	x21,-273(x2)	  x2:0x80008768 x21:0x00000001 PA:0x80008657
       19885000	      1987	80006830	00000013	addi	x0,x0,0	  x0:0x00000000
       19895000	      1988	80006834	40b5d513	srai	x10,x11,0xb	 x11:0x266a2576 x10=0x0004cd44
       19905000	      1989	80006838	efd11e23	sh	x29,-260(x2)	  x2:0x80008768 x29:0x80009f44 PA:0x80008664
       19915000	      1990	8000683c	ef610aa3	sb	x22,-267(x2)	  x2:0x80008768 x22:0x84cd7191 PA:0x8000865d
       19925000	      1991	80006840	01b10083	lb	x1,27(x2)	  x2:0x80008768  x1=0x00000000 PA:0x80008783
       19935000	      1992	80006844	bce10da3	sb	x14,-1061(x2)	  x2:0x80008768 x14:0x00000000 PA:0x80008343
       19945000	      1993	80006848	00ce7733	and	x14,x28,x12	 x28:0x39e794e3 x12:0x939fd800 x14=0x11879000
       19955000	      1994	8000684c	cda15503	lhu	x10,-806(x2)	  x2:0x80008768 x10=0x00000000 PA:0x80008442
       19965000	      1995	80006850	bcf14c83	lbu	x25,-1073(x2)	  x2:0x80008768 x25=0x00000000 PA:0x80008337
       19975000	      1996	80006854	bbe15283	lhu	x5,-1090(x2)	  x2:0x80008768  x5=0x00000000 PA:0x80008326
       19985000	      1997	80006858	e1311023	sh	x19,-512(x2)	  x2:0x80008768 x19:0xae322000 PA:0x80008568
       19995000	      1998	8000685c	b3810d03	lb	x26,-1224(x2)	  x2:0x80008768 x26=0x00000000 PA:0x800082a0
       20005000	      1999	80006860	001de8b3	or	x17,x27,x1	 x27:0x000005c0  x1:0x00000000 x17=0x000005c0
       20015000	      2000	80006864	22c53293	sltiu	x5,x10,556	 x10:0x00000000  x5=0x00000001
       20025000	      2001	80006868	00340bb3	add	x23,x8,x3	  x8:0x80009fc4  x3:0x366a2746 x23=0xb66ac70a
       20035000	      2002	8000686c	40a7d833	sra	x16,x15,x10	 x15:0x00000000 x10:0x00000000 x16=0x00000000
       20045000	      2003	80006870	d5014f83	lbu	x31,-688(x2)	  x2:0x80008768 x31=0x00000000 PA:0x800084b8
       20055000	      2004	80006874	aa110083	lb	x1,-1375(x2)	  x2:0x80008768  x1=0x00000000 PA:0x80008209
       20065000	      2005	80006878	c7510683	lb	x13,-907(x2)	  x2:0x80008768 x13=0x00000000 PA:0x800083dd
       20075000	      2006	8000687c	04ae8663	beq	x29,x10,800068c8	 x29:0x80009f44 x10:0x00000000
       20085000	      2007	80006880	01bd5d13	srli	x26,x26,0x1b	 x26:0x00000000 x26=0x00000000
       20095000	      2008	80006884	0075b733	sltu	x14,x11,x7	 x11:0x266a2576  x7:0x00000000 x14=0x00000000
       20105000	      2009	80006888	01a86133	or	x2,x16,x26	 x16:0x00000000 x26:0x00000000  x2=0x00000000
       20115000	      2010	8000688c	02ad7463	bgeu	x26,x10,800068b4	 x26:0x00000000 x10:0x00000000
       20125000	      2011	00000000	00000013	addi	x0,x0,0	  x0:0x00000000
       20135000	      2012	800068b0	00000013	addi	x0,x0,0	  x0:0x00000000
       20145000	      2013	800068b4	0192bcb3	sltu	x25,x5,x25	  x5:0x00000001 x25:0x00000000 x25=0x00000000
       20155000	      2014	800068b8	9b214313	xori	x6,x2,-1614	  x2:0x00000000  x6=0xfffff9b2
       20165000	      2015	800068bc	015f9593	slli	x11,x31,0x15	 x31:0x00000000 x11=0x00000000
       20175000	      2016	800068c0	00d30e63	beq	x6,x13,800068dc	  x6:0xfffff9b2 x13:0x00000000
       20185000	      2017	800068c4	0087d833	srl	x16,x15,x8	 x15:0x00000000  x8:0x80009fc4 x16=0x00000000
       20195000	      2018	800068c8	418edbb3	sra	x23,x29,x24	 x29:0x80009f44 x24:0x00000001 x23=0xc0004fa2
       20205000	      2019	800068cc	05776c13	ori	x24,x14,87	 x14:0x00000000 x24=0x00000057
       20215000	      2020	800068d0	00c09a33	sll	x20,x1,x12	  x1:0x00000000 x12:0x939fd800 x20=0x00000000
       20225000	      2021	800068d4	bba7cf13	xori	x30,x15,-1094	 x15:0x00000000 x30=0xfffffbba
       20235000	      2022	800068d8	0354c863	blt	x9,x21,80006908	  x9:0x00000000 x21:0x00000001
       20245000	      2023	00000000	00000013	addi	x0,x0,0	  x0:0x00000000
       20255000	      2024	80006904	00000013	addi	x0,x0,0	  x0:0x00000000
       20265000	      2025	80006908	019d54b3	srl	x9,x26,x25	 x26:0x00000000 x25:0x00000000  x9=0x00000000
       20275000	      2026	8000690c	0189ffb3	and	x31,x19,x24	 x19:0xae322000 x24:0x00000057 x31=0x00000000
       20285000	      2027	80006910	028b0863	beq	x22,x8,80006940	 x22:0x84cd7191  x8:0x80009fc4
       20295000	      2028	80006914	01195cb3	srl	x25,x18,x17	 x18:0x10000230 x17:0x000005c0 x25=0x10000230
       20305000	      2029	80006918	0149fbb3	and	x23,x19,x20	 x19:0xae322000 x20:0x00000000 x23=0x00000000
       20315000	      2030	8000691c	7ec7e813	ori	x16,x15,2028	 x15:0x00000000 x16=0x000007ec
       20325000	      2031	80006920	01959913	slli	x18,x11,0x19	 x11:0x00000000 x18=0x00000000
       20335000	      2032	80006924	40eb51b3	sra	x3,x22,x14	 x22:0x84cd7191 x14:0x00000000  x3=0x84cd7191
       20345000	      2033	80006928	01d4cc63	blt	x9,x29,80006940	  x9:0x00000000 x29:0x80009f44
       20355000	      2034	8000692c	8d5f78b7	lui	x17,0x8d5f7	 x17=0x8d5f7000
       20365000	      2035	80006930	029f4c63	blt	x30,x9,80006968	 x30:0xfffffbba  x9:0x00000000
       20375000	      2036	00000000	00000013	addi	x0,x0,0	  x0:0x00000000
       20385000	      2037	80006964	00000013	addi	x0,x0,0	  x0:0x00000000
       20395000	      2038	80006968	019bdd13	srli	x26,x23,0x19	 x23:0x00000000 x26=0x00000000
       20405000	      2039	8000696c	cc842b13	slti	x22,x8,-824	  x8:0x80009fc4 x22=0x00000001
       20415000	      2040	80006970	005cee63	bltu	x25,x5,8000698c	 x25:0x10000230  x5:0x00000001
       20425000	      2041	80006974	01a61d13	slli	x26,x12,0x1a	 x12:0x939fd800 x26=0x00000000
       20435000	      2042	80006978	1c62b237	lui	x4,0x1c62b	  x4=0x1c62b000
       20445000	      2043	8000697c	00c002b3	add	x5,x0,x12	  x0:0x00000000 x12:0x939fd800  x5=0x939fd800
       20455000	      2044	80006980	012b1a93	slli	x21,x22,0x12	 x22:0x00000001 x21=0x00040000
       20465000	      2045	80006984	027ff817	auipc	x16,0x27ff	 x16=0x82805980
       20475000	      2046	80006988	240f3293	sltiu	x5,x30,576	 x30:0xfffffbba  x5=0x00000000
       20485000	      2047	8000698c	0273c817	auipc	x16,0x273c	 x16=0x82742988
       20495000	      2048	80006990	0cdc6463	bltu	x24,x13,80006a58	 x24:0x00000057 x13:0x00000000
       20505000	      2049	80006994	0577d917	auipc	x18,0x577d	 x18=0x85783990
       20515000	      2050	80006998	01485893	srli	x17,x16,0x14	 x16:0x82742988 x17=0x00000827
       20525000	      2051	8000699c	b5dac037	lui	x0,0xb5dac	
       20535000	      2052	800069a0	6c0d7913	andi	x18,x26,1728	 x26:0x00000000 x18=0x00000000
       20545000	      2053	800069a4	9fa57113	andi	x2,x10,-1542	 x10:0x00000000  x2=0x00000000
       20555000	      2054	800069a8	50fb5897	auipc	x17,0x50fb5	 x17=0xd0fbb9a4
       20565000	      2055	800069ac	0075b6b3	sltu	x13,x11,x7	 x11:0x00000000  x7:0x00000000 x13=0x00000000
       20575000	      2056	800069b0	41545213	srai	x4,x8,0x15	  x8:0x80009fc4  x4=0xfffffc00
       20585000	      2057	800069b4	08b9da63	bge	x19,x11,80006a48	 x19:0xae322000 x11:0x00000000
       20595000	      2058	800069b8	00002117	auipc	x2,0x2	  x2=0x800089b4
       20605000	      2059	800069bc	eaa10113	addi	x2,x2,-342	  x2:0x800089b4  x2=0x8000885e
       20615000	      2060	800069c0	01b3bf33	sltu	x30,x7,x27	  x7:0x00000000 x27:0x000005c0 x30=0x00000001
       20625000	      2061	800069c4	ff414503	lbu	x10,-12(x2)	  x2:0x8000885e x10=0x00000000 PA:0x80008852
       20635000	      2062	800069c8	01d24d33	xor	x26,x4,x29	  x4:0xfffffc00 x29:0x80009f44 x26=0x7fff6344
       20645000	      2063	800069cc	00a103a3	sb	x10,7(x2)	  x2:0x8000885e x10:0x00000000 PA:0x80008865
       20655000	      2064	800069d0	00a12323	sw	x10,6(x2)	  x2:0x8000885e x10:0x00000000 PA:0x80008864
       20665000	      2065	800069d4	ff610aa3	sb	x22,-11(x2)	  x2:0x8000885e x22:0x00000001 PA:0x80008853
       20675000	      2066	800069d8	0d8af813	andi	x16,x21,216	 x21:0x00040000 x16=0x00000000
       20685000	      2067	800069dc	ff814a03	lbu	x20,-8(x2)	  x2:0x8000885e x20=0x00000000 PA:0x80008856
       20695000	      2068	800069e0	ff015c03	lhu	x24,-16(x2)	  x2:0x8000885e x24=0x00000000 PA:0x8000884e
       20705000	      2069	800069e4	00714c03	lbu	x24,7(x2)	  x2:0x8000885e x24=0x00000000 PA:0x80008865
       20715000	      2070	800069e8	00b14283	lbu	x5,11(x2)	  x2:0x8000885e  x5=0x00000000 PA:0x80008869
       20725000	      2071	800069ec	01711423	sh	x23,8(x2)	  x2:0x8000885e x23:0x00000000 PA:0x80008866
       20735000	      2072	800069f0	2fb63a13	sltiu	x20,x12,763	 x12:0x939fd800 x20=0x00000000
       20745000	      2073	800069f4	001b9513	slli	x10,x23,0x1	 x23:0x00000000 x10=0x00000000
       20755000	      2074	800069f8	2c842517	auipc	x10,0x2c842	 x10=0xac8489f4
       20765000	      2075	800069fc	40ff04b3	sub	x9,x30,x15	 x30:0x00000001 x15:0x00000000  x9=0x00000001
       20775000	      2076	80006a00	ffb14983	lbu	x19,-5(x2)	  x2:0x8000885e x19=0x00000000 PA:0x80008859
       20785000	      2077	80006a04	ff710c23	sb	x23,-8(x2)	  x2:0x8000885e x23:0x00000000 PA:0x80008856
       20795000	      2078	80006a08	000a91b3	sll	x3,x21,x0	 x21:0x00040000  x0:0x00000000  x3=0x00040000
       20805000	      2079	80006a0c	005103a3	sb	x5,7(x2)	  x2:0x8000885e  x5:0x00000000 PA:0x80008865
       20815000	      2080	80006a10	00e11083	lh	x1,14(x2)	  x2:0x8000885e  x1=0x00000000 PA:0x8000886c
       20825000	      2081	80006a14	00bce6b3	or	x13,x25,x11	 x25:0x10000230 x11:0x00000000 x13=0x10000230
       20835000	      2082	80006a18	000d1d33	sll	x26,x26,x0	 x26:0x7fff6344  x0:0x00000000 x26=0x7fff6344
       20845000	      2083	80006a1c	002105a3	sb	x2,11(x2)	  x2:0x8000885e  x2:0x8000885e PA:0x80008869
       20855000	      2084	80006a20	56ec3097	auipc	x1,0x56ec3	  x1=0xd6ec9a1c
       20865000	      2085	80006a24	ff610f23	sb	x22,-2(x2)	  x2:0x8000885e x22:0x00000001 PA:0x8000885c
       20875000	      2086	80006a28	00a298b3	sll	x17,x5,x10	  x5:0x00000000 x10:0xac8489f4 x17=0x00000000
       20885000	      2087	80006a2c	00c15d83	lhu	x27,12(x2)	  x2:0x8000885e x27=0x00000000 PA:0x8000886a
       20895000	      2088	80006a30	00155d33	srl	x26,x10,x1	 x10:0xac8489f4  x1:0xd6ec9a1c x26=0x0000000a
       20905000	      2089	80006a34	4c780393	addi	x7,x16,1223	 x16:0x00000000  x7=0x000004c7
       20915000	      2090	80006a38	04c80463	beq	x16,x12,80006a80	 x16:0x00000000 x12:0x939fd800
       20925000	      2091	80006a3c	01771c63	bne	x14,x23,80006a54	 x14:0x00000000 x23:0x00000000
       20935000	      2092	80006a40	00ae8a63	beq	x29,x10,80006a54	 x29:0x80009f44 x10:0xac8489f4
       20945000	      2093	80006a44	055e6663	bltu	x28,x21,80006a90	 x28:0x39e794e3 x21:0x00040000
       20955000	      2094	80006a48	00db9b13	slli	x22,x23,0xd	 x23:0x00000000 x22=0x00000000
       20965000	      2095	80006a4c	9c646293	ori	x5,x8,-1594	  x8:0x80009fc4  x5=0xffffffc6
       20975000	      2096	80006a50	01b81db3	sll	x27,x16,x27	 x16:0x00000000 x27:0x00000000 x27=0x00000000
       20985000	      2097	80006a54	01caf9b3	and	x19,x21,x28	 x21:0x00040000 x28:0x39e794e3 x19=0x00040000
       20995000	      2098	80006a58	8a722bb7	lui	x23,0x8a722	 x23=0x8a722000
       21005000	      2099	80006a5c	00dd8a63	beq	x27,x13,80006a70	 x27:0x00000000 x13:0x10000230
       21015000	      2100	80006a60	4068d013	srai	x0,x17,0x6	 x17:0x00000000
       21025000	      2101	80006a64	000cbdb3	sltu	x27,x25,x0	 x25:0x10000230  x0:0x00000000 x27=0x00000000
       21035000	      2102	80006a68	00000013	addi	x0,x0,0	  x0:0x00000000
       21045000	      2103	80006a6c	016765b3	or	x11,x14,x22	 x14:0x00000000 x22:0x00000000 x11=0x00000000
       21055000	      2104	80006a70	46d6f9b7	lui	x19,0x46d6f	 x19=0x46d6f000
       21065000	      2105	80006a74	00c09213	slli	x4,x1,0xc	  x1:0xd6ec9a1c  x4=0xc9a1c000
       21075000	      2106	80006a78	b4504193	xori	x3,x0,-1211	  x0:0x00000000  x3=0xfffffb45
       21085000	      2107	80006a7c	01a42f33	slt	x30,x8,x26	  x8:0x80009fc4 x26:0x0000000a x30=0x00000001
       21095000	      2108	80006a80	7743bb13	sltiu	x22,x7,1908	  x7:0x000004c7 x22=0x00000001
       21105000	      2109	80006a84	004bc263	blt	x23,x4,80006a88	 x23:0x8a722000  x4:0xc9a1c000
       21115000	      2110	00000000	00000013	addi	x0,x0,0	  x0:0x00000000
       21125000	      2111	80006a84	00000013	addi	x0,x0,0	  x0:0x00000000
       21135000	      2112	80006a88	40ff8b33	sub	x22,x31,x15	 x31:0x00000000 x15:0x00000000 x22=0x00000000
       21145000	      2113	80006a8c	00000013	addi	x0,x0,0	  x0:0x00000000
       21155000	      2114	80006a90	3e04ef13	ori	x30,x9,992	  x9:0x00000001 x30=0x000003e1
       21165000	      2115	80006a94	007ed693	srli	x13,x29,0x7	 x29:0x80009f44 x13=0x0100013e
       21175000	      2116	80006a98	017e2fb3	slt	x31,x28,x23	 x28:0x39e794e3 x23:0x8a722000 x31=0x00000000
       21185000	      2117	80006a9c	49f6bd93	sltiu	x27,x13,1183	 x13:0x0100013e x27=0x00000000
       21195000	      2118	80006aa0	32f24093	xori	x1,x4,815	  x4:0xc9a1c000  x1=0xc9a1c32f
       21205000	      2119	80006aa4	40fbda13	srai	x20,x23,0xf	 x23:0x8a722000 x20=0xffff14e4
       21215000	      2120	80006aa8	aa57b293	sltiu	x5,x15,-1371	 x15:0x00000000  x5=0x00000001
       21225000	      2121	80006aac	02d78c63	beq	x15,x13,80006ae4	 x15:0x00000000 x13:0x0100013e
       21235000	      2122	80006ab0	0e90cb93	xori	x23,x1,233	  x1:0xc9a1c32f x23=0xc9a1c3c6
       21245000	      2123	80006ab4	0064c733	xor	x14,x9,x6	  x9:0x00000001  x6:0xfffff9b2 x14=0xfffff9b3
       21255000	      2124	80006ab8	014a8e33	add	x28,x21,x20	 x21:0x00040000 x20:0xffff14e4 x28=0x000314e4
       21265000	      2125	80006abc	00ab7233	and	x4,x22,x10	 x22:0x00000000 x10:0xac8489f4  x4=0x00000000
       21275000	      2126	80006ac0	00681db3	sll	x27,x16,x6	 x16:0x00000000  x6:0xfffff9b2 x27=0x00000000
       21285000	      2127	80006ac4	b9c86213	ori	x4,x16,-1124	 x16:0x00000000  x4=0xfffffb9c
       21295000	      2128	80006ac8	9e185317	auipc	x6,0x9e185	  x6=0x1e18bac4
       21305000	      2129	80006acc	b7dc3237	lui	x4,0xb7dc3	  x4=0xb7dc3000
       21315000	      2130	80006ad0	002d4f33	xor	x30,x26,x2	 x26:0x0000000a  x2:0x8000885e x30=0x80008854
       21325000	      2131	80006ad4	ffe53c93	sltiu	x25,x10,-2	 x10:0xac8489f4 x25=0x00000001
       21335000	      2132	80006ad8	02940463	beq	x8,x9,80006b00	  x8:0x80009fc4  x9:0x00000001
       21345000	      2133	80006adc	00000013	addi	x0,x0,0	  x0:0x00000000
       21355000	      2134	80006ae0	002ea1b3	slt	x3,x29,x2	 x29:0x80009f44  x2:0x8000885e  x3=0x00000000
       21365000	      2135	80006ae4	03888863	beq	x17,x24,80006b14	 x17:0x00000000 x24:0x00000000
       21375000	      2136	00000000	00000013	addi	x0,x0,0	  x0:0x00000000
       21385000	      2137	80006b10	00000013	addi	x0,x0,0	  x0:0x00000000
       21395000	      2138	80006b14	d9dd7f97	auipc	x31,0xd9dd7	 x31=0x59dddb10
       21405000	      2139	80006b18	28f63217	auipc	x4,0x28f63	  x4=0xa8f69b14
       21415000	      2140	80006b1c	0379fc63	bgeu	x19,x23,80006b54	 x19:0x46d6f000 x23:0xc9a1c3c6
       21425000	      2141	80006b20	18372813	slti	x16,x14,387	 x14:0xfffff9b3 x16=0x00000001
       21435000	      2142	80006b24	03f26c63	bltu	x4,x31,80006b5c	  x4:0xa8f69b14 x31:0x59dddb10
       21445000	      2143	80006b28	02e3f063	bgeu	x7,x14,80006b48	  x7:0x000004c7 x14:0xfffff9b3
       21455000	      2144	80006b2c	403e0db3	sub	x27,x28,x3	 x28:0x000314e4  x3:0x00000000 x27=0x000314e4
       21465000	      2145	80006b30	0129dd33	srl	x26,x19,x18	 x19:0x46d6f000 x18:0x00000000 x26=0x46d6f000
       21475000	      2146	80006b34	03491463	bne	x18,x20,80006b5c	 x18:0x00000000 x20:0xffff14e4
       21485000	      2147	00000000	00000013	addi	x0,x0,0	  x0:0x00000000
       21495000	      2148	80006b58	00000013	addi	x0,x0,0	  x0:0x00000000
       21505000	      2149	80006b5c	00081713	slli	x14,x16,0x0	 x16:0x00000001 x14=0x00000001
       21515000	      2150	80006b60	40745fb3	sra	x31,x8,x7	  x8:0x80009fc4  x7:0x000004c7 x31=0xff00013f
       21525000	      2151	80006b64	00000013	addi	x0,x0,0	  x0:0x00000000
       21535000	      2152	80006b68	018ba9b3	slt	x19,x23,x24	 x23:0xc9a1c3c6 x24:0x00000000 x19=0x00000001
       21545000	      2153	80006b6c	05dc3493	sltiu	x9,x24,93	 x24:0x00000000  x9=0x00000001
       21555000	      2154	80006b70	00fbdb13	srli	x22,x23,0xf	 x23:0xc9a1c3c6 x22=0x00019343
       21565000	      2155	80006b74	01f0c663	blt	x1,x31,80006b80	  x1:0xc9a1c32f x31:0xff00013f
       21575000	      2156	00000000	00000013	addi	x0,x0,0	  x0:0x00000000
       21585000	      2157	80006b7c	00000013	addi	x0,x0,0	  x0:0x00000000
       21595000	      2158	80006b80	0177ee63	bltu	x15,x23,80006b9c	 x15:0x00000000 x23:0xc9a1c3c6
       21605000	      2159	00000000	00000013	addi	x0,x0,0	  x0:0x00000000
       21615000	      2160	80006b98	00000013	addi	x0,x0,0	  x0:0x00000000
       21625000	      2161	80006b9c	005ef5b3	and	x11,x29,x5	 x29:0x80009f44  x5:0x00000001 x11=0x00000000
       21635000	      2162	80006ba0	62b9bd13	sltiu	x26,x19,1579	 x19:0x00000001 x26=0x00000001
       21645000	      2163	80006ba4	00cda3b3	slt	x7,x27,x12	 x27:0x000314e4 x12:0x939fd800  x7=0x00000000
       21655000	      2164	80006ba8	01cc3a33	sltu	x20,x24,x28	 x24:0x00000000 x28:0x000314e4 x20=0x00000001
       21665000	      2165	80006bac	0531d663	bge	x3,x19,80006bf8	  x3:0x00000000 x19:0x00000001
       21675000	      2166	80006bb0	b6b7c113	xori	x2,x15,-1173	 x15:0x00000000  x2=0xfffffb6b
       21685000	      2167	80006bb4	05249263	bne	x9,x18,80006bf8	  x9:0x00000001 x18:0x00000000
       21695000	      2168	00000000	00000013	addi	x0,x0,0	  x0:0x00000000
       21705000	      2169	80006bf4	00000013	addi	x0,x0,0	  x0:0x00000000
       21715000	      2170	80006bf8	02297263	bgeu	x18,x2,80006c1c	 x18:0x00000000  x2:0xfffffb6b
       21725000	      2171	80006bfc	0148df93	srli	x31,x17,0x14	 x17:0x00000000 x31=0x00000000
       21735000	      2172	80006c00	41f7d0b3	sra	x1,x15,x31	 x15:0x00000000 x31:0x00000000  x1=0x00000000
       21745000	      2173	80006c04	04afd663	bge	x31,x10,80006c50	 x31:0x00000000 x10:0xac8489f4
       21755000	      2174	00000000	00000013	addi	x0,x0,0	  x0:0x00000000
       21765000	      2175	80006c4c	00000013	addi	x0,x0,0	  x0:0x00000000
       21775000	      2176	80006c50	008513b3	sll	x7,x10,x8	 x10:0xac8489f4  x8:0x80009fc4  x7=0xc8489f40
       21785000	      2177	80006c54	40a1dc13	srai	x24,x3,0xa	  x3:0x00000000 x24=0x00000000
       21795000	      2178	80006c58	92488e13	addi	x28,x17,-1756	 x17:0x00000000 x28=0xfffff924
       21805000	      2179	80006c5c	00000013	addi	x0,x0,0	  x0:0x00000000
       21815000	      2180	80006c60	249c9217	auipc	x4,0x249c9	  x4=0xa49cfc5c
       21825000	      2181	80006c64	00000013	addi	x0,x0,0	  x0:0x00000000
       21835000	      2182	80006c68	004eaf03	lw	x30,4(x29)	 x29:0x80009f44 x30=0x80005c58 PA:0x80009f48
       21845000	      2183	80006c6c	4fb3d897	auipc	x17,0x4fb3d	 x17=0xcfb43c68
       21855000	      2184	80006c70	005dc133	xor	x2,x27,x5	 x27:0x000314e4  x5:0x00000001  x2=0x000314e5
       21865000	      2185	80006c74	02ce8e93	addi	x29,x29,44	 x29:0x80009f44 x29=0x80009f70
       21875000	      2186	80006c78	006b9813	slli	x16,x23,0x6	 x23:0xc9a1c3c6 x16=0x6870f180
       21885000	      2187	80006c7c	01f69893	slli	x17,x13,0x1f	 x13:0x0100013e x17=0x00000000
       21895000	      2188	80006c80	41188933	sub	x18,x17,x17	 x17:0x00000000 x17:0x00000000 x18=0x00000000
       21905000	      2189	80006c84	001f0293	addi	x5,x30,1	 x30:0x80005c58  x5=0x80005c59
       21915000	      2190	80006c88	000282e7	jalr	x5,x5,0	  x5:0x80005c59  x5=0x80006c88
       21925000	      2191	00000000	00000013	addi	x0,x0,0	  x0:0x00000000
       21935000	      2192	80005c58	00000013	addi	x0,x0,0	  x0:0x00000000
       21945000	      2193	80005c5c	4066d333	sra	x6,x13,x6	 x13:0x0100013e  x6:0x1e18bac4  x6=0x00100013
       21955000	      2194	80005c60	a05deb93	ori	x23,x27,-1531	 x27:0x000314e4 x23=0xfffffee5
       21965000	      2195	80005c64	4082dab3	sra	x21,x5,x8	  x5:0x80006c88  x8:0x80009fc4 x21=0xf80006c8
       21975000	      2196	80005c68	00000013	addi	x0,x0,0	  x0:0x00000000
       21985000	      2197	80005c6c	01a3d5b3	srl	x11,x7,x26	  x7:0xc8489f40 x26:0x00000001 x11=0x64244fa0
       21995000	      2198	80005c70	1730ac13	slti	x24,x1,371	  x1:0x00000000 x24=0x00000001
       22005000	      2199	80005c74	01af5293	srli	x5,x30,0x1a	 x30:0x80005c58  x5=0x00000020
       22015000	      2200	80005c78	5894a393	slti	x7,x9,1417	  x9:0x00000001  x7=0x00000001
       22025000	      2201	80005c7c	0012e663	bltu	x5,x1,80005c88	  x5:0x00000020  x1:0x00000000
       22035000	      2202	80005c80	dab13d93	sltiu	x27,x2,-597	  x2:0x000314e5 x27=0x00000001
       22045000	      2203	80005c84	40e35613	srai	x12,x6,0xe	  x6:0x00100013 x12=0x00000040
       22055000	      2204	80005c88	91cfbf6f	jal	x30,80005c88	 x30=0x80005c88
       22065000	      2205	00000000	00000013	addi	x0,x0,0	  x0:0x00000000
       22075000	      2206	80000da0	00000013	addi	x0,x0,0	  x0:0x00000000
       22085000	      2207	80000da4	0023fb33	and	x22,x7,x2	  x7:0x00000001  x2:0x000314e5 x22=0x00000001
       22095000	      2208	80000da8	01185263	bge	x16,x17,80000dac	 x16:0x6870f180 x17:0x00000000
       22105000	      2209	00000000	00000013	addi	x0,x0,0	  x0:0x00000000
       22115000	      2210	80000da8	00000013	addi	x0,x0,0	  x0:0x00000000
       22125000	      2211	80000dac	ff8e8e93	addi	x29,x29,-8	 x29:0x80009f70 x29=0x80009f68
       22135000	      2212	80000db0	402d0ab3	sub	x21,x26,x2	 x26:0x00000001  x2:0x000314e5 x21=0xfffceb1c
       22145000	      2213	80000db4	00e13d33	sltu	x26,x2,x14	  x2:0x000314e5 x14:0x00000001 x26=0x00000000
       22155000	      2214	80000db8	40228bb3	sub	x23,x5,x2	  x5:0x00000020  x2:0x000314e5 x23=0xfffceb3b
       22165000	      2215	80000dbc	40d3d5b3	sra	x11,x7,x13	  x7:0x00000001 x13:0x0100013e x11=0x00000000
       22175000	      2216	80000dc0	36daa593	slti	x11,x21,877	 x21:0xfffceb1c x11=0x00000001
       22185000	      2217	80000dc4	01eea223	sw	x30,4(x29)	 x29:0x80009f68 x30:0x80005c88 PA:0x80009f6c
       22195000	      2218	80000dc8	00029a33	sll	x20,x5,x0	  x5:0x00000020  x0:0x00000000 x20=0x00000020
       22205000	      2219	80000dcc	66c2b0b7	lui	x1,0x66c2b	  x1=0x66c2b000
       22215000	      2220	80000dd0	89d4c713	xori	x14,x9,-1891	  x9:0x00000001 x14=0xfffff89c
       22225000	      2221	80000dd4	002138b3	sltu	x17,x2,x2	  x2:0x000314e5  x2:0x000314e5 x17=0x00000000
       22235000	      2222	80000dd8	04ee6863	bltu	x28,x14,80000e28	 x28:0xfffff924 x14:0xfffff89c
       22245000	      2223	80000ddc	00af7233	and	x4,x30,x10	 x30:0x80005c88 x10:0xac8489f4  x4=0x80000880
       22255000	      2224	80000de0	01f21c13	slli	x24,x4,0x1f	  x4:0x80000880 x24=0x00000000
       22265000	      2225	80000de4	00000013	addi	x0,x0,0	  x0:0x00000000
       22275000	      2226	80000de8	4b0c6c93	ori	x25,x24,1200	 x24:0x00000000 x25=0x000004b0
       22285000	      2227	80000dec	01e5f933	and	x18,x11,x30	 x11:0x00000001 x30:0x80005c88 x18=0x00000000
       22295000	      2228	80000df0	93e9c213	xori	x4,x19,-1730	 x19:0x00000001  x4=0xfffff93f
       22305000	      2229	80000df4	000fe3b3	or	x7,x31,x0	 x31:0x00000000  x0:0x00000000  x7=0x00000000
       22315000	      2230	80000df8	1a813197	auipc	x3,0x1a813	  x3=0x9a813df4
       22325000	      2231	80000dfc	00000013	addi	x0,x0,0	  x0:0x00000000
       22335000	      2232	80000e00	59e68d93	addi	x27,x13,1438	 x13:0x0100013e x27=0x010006dc
       22345000	      2233	80000e04	41ca5fb3	sra	x31,x20,x28	 x20:0x00000020 x28:0xfffff924 x31=0x00000002
       22355000	      2234	80000e08	d4ec4c13	xori	x24,x24,-690	 x24:0x00000000 x24=0xfffffd4e
       22365000	      2235	80000e0c	01f73533	sltu	x10,x14,x31	 x14:0xfffff89c x31:0x00000002 x10=0x00000000
       22375000	      2236	80000e10	003078b3	and	x17,x0,x3	  x0:0x00000000  x3:0x9a813df4 x17=0x00000000
       22385000	      2237	80000e14	b317f717	auipc	x14,0xb317f	 x14=0x3317fe10
       22395000	      2238	80000e18	01702e33	slt	x28,x0,x23	  x0:0x00000000 x23:0xfffceb3b x28=0x00000000
       22405000	      2239	80000e1c	01ca40b3	xor	x1,x20,x28	 x20:0x00000020 x28:0x00000000  x1=0x00000020
       22415000	      2240	80000e20	025dd663	bge	x27,x5,80000e4c	 x27:0x010006dc  x5:0x00000020
       22425000	      2241	00000000	00000013	addi	x0,x0,0	  x0:0x00000000
       22435000	      2242	80000e48	00000013	addi	x0,x0,0	  x0:0x00000000
       22445000	      2243	80000e4c	01165a33	srl	x20,x12,x17	 x12:0x00000040 x17:0x00000000 x20=0x00000040
       22455000	      2244	80000e50	17d7bd13	sltiu	x26,x15,381	 x15:0x00000000 x26=0x00000001
       22465000	      2245	80000e54	00d0d663	bge	x1,x13,80000e60	  x1:0x00000020 x13:0x0100013e
       22475000	      2246	80000e58	233bbf13	sltiu	x30,x23,563	 x23:0xfffceb3b x30=0x00000000
       22485000	      2247	80000e5c	0052ee63	bltu	x5,x5,80000e78	  x5:0x00000020  x5:0x00000020
       22495000	      2248	80000e60	417554b3	sra	x9,x10,x23	 x10:0x00000000 x23:0xfffceb3b  x9=0x00000000
       22505000	      2249	80000e64	10a97463	bgeu	x18,x10,80000f6c	 x18:0x00000000 x10:0x00000000
       22515000	      2250	00000000	00000013	addi	x0,x0,0	  x0:0x00000000
       22525000	      2251	80000f68	00000013	addi	x0,x0,0	  x0:0x00000000
       22535000	      2252	80000f6c	40c78a33	sub	x20,x15,x12	 x15:0x00000000 x12:0x00000040 x20=0xffffffc0
       22545000	      2253	80000f70	a5b53293	sltiu	x5,x10,-1445	 x10:0x00000000  x5=0x00000001
       22555000	      2254	80000f74	01dfd213	srli	x4,x31,0x1d	 x31:0x00000002  x4=0x00000000
       22565000	      2255	80000f78	40a78633	sub	x12,x15,x10	 x15:0x00000000 x10:0x00000000 x12=0x00000000
       22575000	      2256	80000f7c	0194dc13	srli	x24,x9,0x19	  x9:0x00000000 x24=0x00000000
       22585000	      2257	80000f80	790cba13	sltiu	x20,x25,1936	 x25:0x000004b0 x20=0x00000001
       22595000	      2258	80000f84	013e46b3	xor	x13,x28,x19	 x28:0x00000000 x19:0x00000001 x13=0x00000001
       22605000	      2259	80000f88	b486fa13	andi	x20,x13,-1208	 x13:0x00000001 x20=0x00000000
       22615000	      2260	80000f8c	254b2593	slti	x11,x22,596	 x22:0x00000001 x11=0x00000001
       22625000	      2261	80000f90	001ec333	xor	x6,x29,x1	 x29:0x80009f68  x1:0x00000020  x6=0x80009f48
       22635000	      2262	80000f94	01f142b3	xor	x5,x2,x31	  x2:0x000314e5 x31:0x00000002  x5=0x000314e7
       22645000	      2263	80000f98	41855733	sra	x14,x10,x24	 x10:0x00000000 x24:0x00000000 x14=0x00000000
       22655000	      2264	80000f9c	031e6863	bltu	x28,x17,80000fcc	 x28:0x00000000 x17:0x00000000
       22665000	      2265	80000fa0	01e26b33	or	x22,x4,x30	  x4:0x00000000 x30:0x00000000 x22=0x00000000
       22675000	      2266	80000fa4	b4cd4713	xori	x14,x26,-1204	 x26:0x00000001 x14=0xfffffb4d
       22685000	      2267	80000fa8	00000013	addi	x0,x0,0	  x0:0x00000000
       22695000	      2268	80000fac	af303037	lui	x0,0xaf303	
       22705000	      2269	80000fb0	000a8a33	add	x20,x21,x0	 x21:0xfffceb1c  x0:0x00000000 x20=0xfffceb1c
       22715000	      2270	80000fb4	01ab0463	beq	x22,x26,80000fbc	 x22:0x00000000 x26:0x00000001
       22725000	      2271	80000fb8	0066b833	sltu	x16,x13,x6	 x13:0x00000001  x6:0x80009f48 x16=0x00000001
       22735000	      2272	80000fbc	9a93ca13	xori	x20,x7,-1623	  x7:0x00000000 x20=0xfffff9a9
       22745000	      2273	80000fc0	050b8063	beq	x23,x16,80001000	 x23:0xfffceb3b x16:0x00000001
       22755000	      2274	80000fc4	01ec6fb3	or	x31,x24,x30	 x24:0x00000000 x30:0x00000000 x31=0x00000000
       22765000	      2275	80000fc8	41308633	sub	x12,x1,x19	  x1:0x00000020 x19:0x00000001 x12=0x0000001f
       22775000	      2276	80000fcc	3d496b37	lui	x22,0x3d496	 x22=0x3d496000
       22785000	      2277	80000fd0	05024463	blt	x4,x16,80001018	  x4:0x00000000 x16:0x00000001
       22795000	      2278	00000000	00000013	addi	x0,x0,0	  x0:0x00000000
       22805000	      2279	80001014	00000013	addi	x0,x0,0	  x0:0x00000000
       22815000	      2280	80001018	40788733	sub	x14,x17,x7	 x17:0x00000000  x7:0x00000000 x14=0x00000000
       22825000	      2281	8000101c	00c5a1b3	slt	x3,x11,x12	 x11:0x00000001 x12:0x0000001f  x3=0x00000001
       22835000	      2282	80001020	0136cf33	xor	x30,x13,x19	 x13:0x00000001 x19:0x00000001 x30=0x00000000
       22845000	      2283	80001024	85dc3093	sltiu	x1,x24,-1955	 x24:0x00000000  x1=0x00000001
       22855000	      2284	80001028	00411a63	bne	x2,x4,8000103c	  x2:0x000314e5  x4:0x00000000
       22865000	      2285	00000000	00000013	addi	x0,x0,0	  x0:0x00000000
       22875000	      2286	80001038	00000013	addi	x0,x0,0	  x0:0x00000000
       22885000	      2287	8000103c	4846f8b7	lui	x17,0x4846f	 x17=0x4846f000
       22895000	      2288	80001040	efbe4493	xori	x9,x28,-261	 x28:0x00000000  x9=0xfffffefb
       22905000	      2289	80001044	00396fb3	or	x31,x18,x3	 x18:0x00000000  x3:0x00000001 x31=0x00000001
       22915000	      2290	80001048	01cd68b3	or	x17,x26,x28	 x26:0x00000001 x28:0x00000000 x17=0x00000001
       22925000	      2291	8000104c	39662c93	slti	x25,x12,918	 x12:0x0000001f x25=0x00000001
       22935000	      2292	80001050	00464c63	blt	x12,x4,80001068	 x12:0x0000001f  x4:0x00000000
       22945000	      2293	80001054	41cb03b3	sub	x7,x22,x28	 x22:0x3d496000 x28:0x00000000  x7=0x3d496000
       22955000	      2294	80001058	0434c863	blt	x9,x3,800010a8	  x9:0xfffffefb  x3:0x00000001
       22965000	      2295	00000000	00000013	addi	x0,x0,0	  x0:0x00000000
       22975000	      2296	800010a4	00000013	addi	x0,x0,0	  x0:0x00000000
       22985000	      2297	800010a8	01786f33	or	x30,x16,x23	 x16:0x00000001 x23:0xfffceb3b x30=0xfffceb3b
       22995000	      2298	800010ac	013222b3	slt	x5,x4,x19	  x4:0x00000000 x19:0x00000001  x5=0x00000001
       23005000	      2299	800010b0	40dad4b3	sra	x9,x21,x13	 x21:0xfffceb1c x13:0x00000001  x9=0xfffe758e
       23015000	      2300	800010b4	00d2e293	ori	x5,x5,13	  x5:0x00000001  x5=0x0000000d
       23025000	      2301	800010b8	41fc0033	sub	x0,x24,x31	 x24:0x00000000 x31:0x00000001
       23035000	      2302	800010bc	00b39f13	slli	x30,x7,0xb	  x7:0x3d496000 x30=0x4b000000
       23045000	      2303	800010c0	00000013	addi	x0,x0,0	  x0:0x00000000
       23055000	      2304	800010c4	56b1a193	slti	x3,x3,1387	  x3:0x00000001  x3=0x00000001
       23065000	      2305	800010c8	011fd263	bge	x31,x17,800010cc	 x31:0x00000001 x17:0x00000001
       23075000	      2306	00000000	00000013	addi	x0,x0,0	  x0:0x00000000
       23085000	      2307	800010c8	00000013	addi	x0,x0,0	  x0:0x00000000
       23095000	      2308	800010cc	00792633	slt	x12,x18,x7	 x18:0x00000000  x7:0x3d496000 x12=0x00000001
       23105000	      2309	800010d0	b9b5e713	ori	x14,x11,-1125	 x11:0x00000001 x14=0xfffffb9b
       23115000	      2310	800010d4	00c01813	slli	x16,x0,0xc	  x0:0x00000000 x16=0x00000000
       23125000	      2311	800010d8	00655d13	srli	x26,x10,0x6	 x10:0x00000000 x26=0x00000000
       23135000	      2312	800010dc	79117393	andi	x7,x2,1937	  x2:0x000314e5  x7=0x00000481
       23145000	      2313	800010e0	0118fe63	bgeu	x17,x17,800010fc	 x17:0x00000001 x17:0x00000001
       23155000	      2314	00000000	00000013	addi	x0,x0,0	  x0:0x00000000
       23165000	      2315	800010f8	00000013	addi	x0,x0,0	  x0:0x00000000
       23175000	      2316	800010fc	00fc5933	srl	x18,x24,x15	 x24:0x00000000 x15:0x00000000 x18=0x00000000
       23185000	      2317	80001100	004fb333	sltu	x6,x31,x4	 x31:0x00000001  x4:0x00000000  x6=0x00000000
       23195000	      2318	80001104	9cbc8d13	addi	x26,x25,-1589	 x25:0x00000001 x26=0xfffff9cc
       23205000	      2319	80001108	01c8fa33	and	x20,x17,x28	 x17:0x00000001 x28:0x00000000 x20=0x00000000
       23215000	      2320	8000110c	004eaf03	lw	x30,4(x29)	 x29:0x80009f68 x30=0x80005c88 PA:0x80009f6c
       23225000	      2321	80001110	00fa9613	slli	x12,x21,0xf	 x21:0xfffceb1c x12=0x758e0000
       23235000	      2322	80001114	78440913	addi	x18,x8,1924	  x8:0x80009fc4 x18=0x8000a748
       23245000	      2323	80001118	008e8e93	addi	x29,x29,8	 x29:0x80009f68 x29=0x80009f70
       23255000	      2324	8000111c	ff534c13	xori	x24,x6,-11	  x6:0x00000000 x24=0xfffffff5
       23265000	      2325	80001120	01c51b93	slli	x23,x10,0x1c	 x10:0x00000000 x23=0x00000000
       23275000	      2326	80001124	46794813	xori	x16,x18,1127	 x18:0x8000a748 x16=0x8000a32f
       23285000	      2327	80001128	000f0f93	addi	x31,x30,0	 x30:0x80005c88 x31=0x80005c88
       23295000	      2328	8000112c	000f8fe7	jalr	x31,x31,0	 x31:0x80005c88 x31=0x8000112c
       23305000	      2329	00000000	00000013	addi	x0,x0,0	  x0:0x00000000
       23315000	      2330	80005c88	00000013	addi	x0,x0,0	  x0:0x00000000
       23325000	      2331	80005c8c	404bd833	sra	x16,x23,x4	 x23:0x00000000  x4:0x00000000 x16=0x00000000
       23335000	      2332	80005c90	90318713	addi	x14,x3,-1789	  x3:0x00000001 x14=0xfffff904
       23345000	      2333	80005c94	4165d8b3	sra	x17,x11,x22	 x11:0x00000001 x22:0x3d496000 x17=0x00000001
       23355000	      2334	80005c98	bd5c7213	andi	x4,x24,-1067	 x24:0xfffffff5  x4=0xfffffbd5
       23365000	      2335	80005c9c	0146e9b3	or	x19,x13,x20	 x13:0x00000001 x20:0x00000000 x19=0x00000001
       23375000	      2336	80005ca0	014d8c33	add	x24,x27,x20	 x27:0x010006dc x20:0x00000000 x24=0x010006dc
       23385000	      2337	80005ca4	b29fcf6f	jal	x30,80005ca4	 x30=0x80005ca4
       23395000	      2338	00000000	00000013	addi	x0,x0,0	  x0:0x00000000
       23405000	      2339	800027c8	00000013	addi	x0,x0,0	  x0:0x00000000
       23415000	      2340	800027cc	e7c48813	addi	x16,x9,-388	  x9:0xfffe758e x16=0xfffe740a
       23425000	      2341	800027d0	fd8e8e93	addi	x29,x29,-40	 x29:0x80009f70 x29=0x80009f48
       23435000	      2342	800027d4	01b250b3	srl	x1,x4,x27	  x4:0xfffffbd5 x27:0x010006dc  x1=0x0000000f
       23445000	      2343	800027d8	01eea223	sw	x30,4(x29)	 x29:0x80009f48 x30:0x80005ca4 PA:0x80009f4c
       23455000	      2344	800027dc	003029b3	slt	x19,x0,x3	  x0:0x00000000  x3:0x00000001 x19=0x00000001
       23465000	      2345	800027e0	00006b17	auipc	x22,0x6	 x22=0x800087dc
       23475000	      2346	800027e4	466b0b13	addi	x22,x22,1126	 x22:0x800087dc x22=0x80008c42
       23485000	      2347	800027e8	00969213	slli	x4,x13,0x9	 x13:0x00000001  x4=0x00000200
       23495000	      2348	800027ec	fb4b0d83	lb	x27,-76(x22)	 x22:0x80008c42 x27=0x00000000 PA:0x80008bf6
       23505000	      2349	800027f0	00000013	addi	x0,x0,0	  x0:0x00000000
       23515000	      2350	800027f4	411508b3	sub	x17,x10,x17	 x10:0x00000000 x17:0x00000001 x17=0xffffffff
       23525000	      2351	800027f8	fdab1d03	lh	x26,-38(x22)	 x22:0x80008c42 x26=0x00000000 PA:0x80008c1c
       23535000	      2352	800027fc	063b0d83	lb	x27,99(x22)	 x22:0x80008c42 x27=0x00000000 PA:0x80008ca5
       23545000	      2353	00000000	00000013	addi	x0,x0,0	  x0:0x00000000
       23555000	      2354	80002800	01be5193	srli	x3,x28,0x1b	 x28:0x00000000  x3=0x00000000
       23565000	      2355	80002804	40aad833	sra	x16,x21,x10	 x21:0xfffceb1c x10:0x00000000 x16=0xfffceb1c
       23575000	      2356	80002808	00e52cb3	slt	x25,x10,x14	 x10:0x00000000 x14:0xfffff904 x25=0x00000000
       23585000	      2357	8000280c	f0a829b7	lui	x19,0xf0a82	 x19=0xf0a82000
       23595000	      2358	80002810	085b0983	lb	x19,133(x22)	 x22:0x80008c42 x19=0x00000000 PA:0x80008cc7
       23605000	      2359	80002814	01d71193	slli	x3,x14,0x1d	 x14:0xfffff904  x3=0x80000000
       23615000	      2360	80002818	01e64733	xor	x14,x12,x30	 x12:0x758e0000 x30:0x80005ca4 x14=0xf58e5ca4
       23625000	      2361	8000281c	01b406b3	add	x13,x8,x27	  x8:0x80009fc4 x27:0x00000000 x13=0x80009fc4
       23635000	      2362	80002820	060b1083	lh	x1,96(x22)	 x22:0x80008c42  x1=0x00000000 PA:0x80008ca2
       23645000	      2363	80002824	0034ee33	or	x28,x9,x3	  x9:0xfffe758e  x3:0x80000000 x28=0xfffe758e
       23655000	      2364	80002828	0feb2283	lw	x5,254(x22)	 x22:0x80008c42  x5=0x00000000 PA:0x80008d40
       23665000	      2365	8000282c	011b4c83	lbu	x25,17(x22)	 x22:0x80008c42 x25=0x00000000 PA:0x80008c53
       23675000	      2366	80002830	f3fb4c83	lbu	x25,-193(x22)	 x22:0x80008c42 x25=0x00000000 PA:0x80008b81
       23685000	      2367	80002834	0d1b4603	lbu	x12,209(x22)	 x22:0x80008c42 x12=0x00000000 PA:0x80008d13
       23695000	      2368	80002838	01545733	srl	x14,x8,x21	  x8:0x80009fc4 x21:0xfffceb1c x14=0x00000008
       23705000	      2369	8000283c	f9eb4c03	lbu	x24,-98(x22)	 x22:0x80008c42 x24=0x00000000 PA:0x80008be0
       23715000	      2370	80002840	f0fb0703	lb	x14,-241(x22)	 x22:0x80008c42 x14=0x00000000 PA:0x80008b51
       23725000	      2371	80002844	f3fb0a83	lb	x21,-193(x22)	 x22:0x80008c42 x21=0x00000000 PA:0x80008b81
       23735000	      2372	80002848	ffbb0503	lb	x10,-5(x22)	 x22:0x80008c42 x10=0x00000000 PA:0x80008c3d
       23745000	      2373	8000284c	000f5593	srli	x11,x30,0x0	 x30:0x80005ca4 x11=0x80005ca4
       23755000	      2374	80002850	f53b1423	sh	x19,-184(x22)	 x22:0x80008c42 x19:0x00000000 PA:0x80008b8a
       23765000	      2375	80002854	00006117	auipc	x2,0x6	  x2=0x80008850
       23775000	      2376	80002858	d8b10113	addi	x2,x2,-629	  x2:0x80008850  x2=0x800085db
       23785000	      2377	8000285c	ff410c03	lb	x24,-12(x2)	  x2:0x800085db x24=0xffffffff PA:0x800085cf
       23795000	      2378	80002860	00c10423	sb	x12,8(x2)	  x2:0x800085db x12:0x00000000 PA:0x800085e3
       23805000	      2379	80002864	ff814b83	lbu	x23,-8(x2)	  x2:0x800085db x23=0x00000000 PA:0x800085d3
       23815000	      2380	80002868	00810183	lb	x3,8(x2)	  x2:0x800085db  x3=0x00000000 PA:0x800085e3
       23825000	      2381	8000286c	00b4de33	srl	x28,x9,x11	  x9:0xfffe758e x11:0x80005ca4 x28=0x0fffe758
       23835000	      2382	80002870	ffc14883	lbu	x17,-4(x2)	  x2:0x800085db x17=0x00000000 PA:0x800085d7
       23845000	      2383	80002874	019ecbb3	xor	x23,x29,x25	 x29:0x80009f48 x25:0x00000000 x23=0x80009f48
       23855000	      2384	80002878	011df733	and	x14,x27,x17	 x27:0x00000000 x17:0x00000000 x14=0x00000000
       23865000	      2385	8000287c	01e63bb3	sltu	x23,x12,x30	 x12:0x00000000 x30:0x80005ca4 x23=0x00000001
       23875000	      2386	80002880	00c102a3	sb	x12,5(x2)	  x2:0x800085db x12:0x00000000 PA:0x800085e0
       23885000	      2387	80002884	ff910483	lb	x9,-7(x2)	  x2:0x800085db  x9=0x00000000 PA:0x800085d4
       23895000	      2388	80002888	ff111da3	sh	x17,-5(x2)	  x2:0x800085db x17:0x00000000 PA:0x800085d6
       23905000	      2389	8000288c	005ca033	slt	x0,x25,x5	 x25:0x00000000  x5:0x00000000
       23915000	      2390	80002890	06eda513	slti	x10,x27,110	 x27:0x00000000 x10=0x00000001
       23925000	      2391	80002894	00000013	addi	x0,x0,0	  x0:0x00000000
       23935000	      2392	80002898	ff710c03	lb	x24,-9(x2)	  x2:0x800085db x24=0x00000000 PA:0x800085d2
       23945000	      2393	8000289c	00995093	srli	x1,x18,0x9	 x18:0x8000a748  x1=0x00400053
       23955000	      2394	800028a0	ff512303	lw	x6,-11(x2)	  x2:0x800085db  x6=0x00000000 PA:0x800085d0
       23965000	      2395	800028a4	ff410ea3	sb	x20,-3(x2)	  x2:0x800085db x20:0x00000000 PA:0x800085d8
       23975000	      2396	800028a8	403389b3	sub	x19,x7,x3	  x7:0x00000481  x3:0x00000000 x19=0x00000481
       23985000	      2397	800028ac	ffe14803	lbu	x16,-2(x2)	  x2:0x800085db x16=0x00000000 PA:0x800085d9
       23995000	      2398	800028b0	00ef0e33	add	x28,x30,x14	 x30:0x80005ca4 x14:0x00000000 x28=0x80005ca4
       24005000	      2399	800028b4	40695613	srai	x12,x18,0x6	 x18:0x8000a748 x12=0xfe00029d
       24015000	      2400	800028b8	00714d83	lbu	x27,7(x2)	  x2:0x800085db x27=0x00000000 PA:0x800085e2
       24025000	      2401	800028bc	ff710c23	sb	x23,-8(x2)	  x2:0x800085db x23:0x00000001 PA:0x800085d3
       24035000	      2402	800028c0	ff214d83	lbu	x27,-14(x2)	  x2:0x800085db x27=0x000000fb PA:0x800085cd
       24045000	      2403	800028c4	00bc46b3	xor	x13,x24,x11	 x24:0x00000000 x11:0x80005ca4 x13=0x80005ca4
       24055000	      2404	800028c8	00f11703	lh	x14,15(x2)	  x2:0x800085db x14=0x00000000 PA:0x800085ea
       24065000	      2405	800028cc	00d45a93	srli	x21,x8,0xd	  x8:0x80009fc4 x21=0x00040004
       24075000	      2406	800028d0	000117a3	sh	x0,15(x2)	  x2:0x800085db  x0:0x00000000 PA:0x800085ea
       24085000	      2407	800028d4	eb3d7537	lui	x10,0xeb3d7	 x10=0xeb3d7000
       24095000	      2408	800028d8	ffd14003	lbu	x0,-3(x2)	  x2:0x800085db PA:0x800085d8
       24105000	      2409	800028dc	01398e33	add	x28,x19,x19	 x19:0x00000481 x19:0x00000481 x28=0x00000902
       24115000	      2410	800028e0	fe610d23	sb	x6,-6(x2)	  x2:0x800085db  x6:0x00000000 PA:0x800085d5
       24125000	      2411	800028e4	ffa14183	lbu	x3,-6(x2)	  x2:0x800085db  x3=0x00000000 PA:0x800085d5
       24135000	      2412	800028e8	ff010c03	lb	x24,-16(x2)	  x2:0x800085db x24=0x00000000 PA:0x800085cb
       24145000	      2413	800028ec	fe911ea3	sh	x9,-3(x2)	  x2:0x800085db  x9:0x00000000 PA:0x800085d8
       24155000	      2414	800028f0	f6b90913	addi	x18,x18,-149	 x18:0x8000a748 x18=0x8000a6b3
       24165000	      2415	800028f4	fff10b23	sb	x31,-10(x2)	  x2:0x800085db x31:0x8000112c PA:0x800085d1
       24175000	      2416	800028f8	00006a17	auipc	x20,0x6	 x20=0x800088f4
       24185000	      2417	800028fc	972a0a13	addi	x20,x20,-1678	 x20:0x800088f4 x20=0x80008266
       24195000	      2418	80002900	2e8a0023	sb	x8,736(x20)	 x20:0x80008266  x8:0x80009fc4 PA:0x80008546
       24205000	      2419	80002904	01405d33	srl	x26,x0,x20	  x0:0x00000000 x20:0x80008266 x26=0x00000000
       24215000	      2420	80002908	41998533	sub	x10,x19,x25	 x19:0x00000481 x25:0x00000000 x10=0x00000481
       24225000	      2421	8000290c	0172b913	sltiu	x18,x5,23	  x5:0x00000000 x18=0x00000001
       24235000	      2422	80002910	01955813	srli	x16,x10,0x19	 x10:0x00000481 x16=0x00000000
       24245000	      2423	80002914	010c1113	slli	x2,x24,0x10	 x24:0x00000000  x2=0x00000000
       24255000	      2424	80002918	225a0583	lb	x11,549(x20)	 x20:0x80008266 x11=0x00000000 PA:0x8000848b
       24265000	      2425	8000291c	000e3b33	sltu	x22,x28,x0	 x28:0x00000902  x0:0x00000000 x22=0x00000000
       24275000	      2426	80002920	c88e8f13	addi	x30,x29,-888	 x29:0x80009f48 x30=0x80009bd0
       24285000	      2427	80002924	4038da93	srai	x21,x17,0x3	 x17:0x00000000 x21=0x00000000
       24295000	      2428	80002928	506a1883	lh	x17,1286(x20)	 x20:0x80008266 x17=0x00000000 PA:0x8000876c
       24305000	      2429	8000292c	04aa0283	lb	x5,74(x20)	 x20:0x80008266  x5=0x00000000 PA:0x800082b0
       24315000	      2430	80002930	123a4883	lbu	x17,291(x20)	 x20:0x80008266 x17=0x00000000 PA:0x80008389
       24325000	      2431	80002934	196a2483	lw	x9,406(x20)	 x20:0x80008266  x9=0x00000000 PA:0x800083fc
       24335000	      2432	80002938	508a1c23	sh	x8,1304(x20)	 x20:0x80008266  x8:0x80009fc4 PA:0x8000877e
       24345000	      2433	8000293c	00000013	addi	x0,x0,0	  x0:0x00000000
       24355000	      2434	80002940	ef062813	slti	x16,x12,-272	 x12:0xfe00029d x16=0x00000001
       24365000	      2435	80002944	00d3be33	sltu	x28,x7,x13	  x7:0x00000481 x13:0x80005ca4 x28=0x00000001
       24375000	      2436	80002948	7ad68313	addi	x6,x13,1965	 x13:0x80005ca4  x6=0x80006451
       24385000	      2437	8000294c	665843b7	lui	x7,0x66584	  x7=0x66584000
       24395000	      2438	80002950	c8102293	slti	x5,x0,-895	  x0:0x00000000  x5=0x00000000
       24405000	      2439	80002954	f53a0b03	lb	x22,-173(x20)	 x20:0x80008266 x22=0x00000000 PA:0x800081b9
       24415000	      2440	00000000	00000013	addi	x0,x0,0	  x0:0x00000000
       24425000	      2441	80002958	516a2883	lw	x17,1302(x20)	 x20:0x80008266 x17=0x9fc40000 PA:0x8000877c
       24435000	      2442	8000295c	e95a2b23	sw	x21,-362(x20)	 x20:0x80008266 x21:0x00000000 PA:0x800080fc
       24445000	      2443	80002960	0b2a5c83	lhu	x25,178(x20)	 x20:0x80008266 x25=0x00000000 PA:0x80008318
       24455000	      2444	80002964	7de48213	addi	x4,x9,2014	  x9:0x00000000  x4=0x000007de
       24465000	      2445	80002968	c0cb2393	slti	x7,x22,-1012	 x22:0x00000000  x7=0x00000000
       24475000	      2446	8000296c	eeba4283	lbu	x5,-277(x20)	 x20:0x80008266  x5=0x00000000 PA:0x80008151
       24485000	      2447	80002970	0e76cb13	xori	x22,x13,231	 x13:0x80005ca4 x22=0x80005c43
       24495000	      2448	80002974	0e2a5f03	lhu	x30,226(x20)	 x20:0x80008266 x30=0x00000000 PA:0x80008348
       24505000	      2449	80002978	4017d693	srai	x13,x15,0x1	 x15:0x00000000 x13=0x00000000
       24515000	      2450	8000297c	573a1423	sh	x19,1384(x20)	 x20:0x80008266 x19:0x00000481 PA:0x800087ce
       24525000	      2451	80002980	d46dc613	xori	x12,x27,-698	 x27:0x000000fb x12=0xfffffdbd
       24535000	      2452	80002984	413e80b3	sub	x1,x29,x19	 x29:0x80009f48 x19:0x00000481  x1=0x80009ac7
       24545000	      2453	80002988	315a4083	lbu	x1,789(x20)	 x20:0x80008266  x1=0x00000000 PA:0x8000857b
       24555000	      2454	8000298c	99e42113	slti	x2,x8,-1634	  x8:0x80009fc4  x2=0x00000001
       24565000	      2455	80002990	ad420293	addi	x5,x4,-1324	  x4:0x000007de  x5=0x000002b2
       24575000	      2456	80002994	2b8e2317	auipc	x6,0x2b8e2	  x6=0xab8e4990
       24585000	      2457	80002998	015e29b3	slt	x19,x28,x21	 x28:0x00000001 x21:0x00000000 x19=0x00000000
       24595000	      2458	8000299c	04fa0903	lb	x18,79(x20)	 x20:0x80008266 x18=0x00000000 PA:0x800082b5
       24605000	      2459	800029a0	fa0a0fa3	sb	x0,-65(x20)	 x20:0x80008266  x0:0x00000000 PA:0x80008225
       24615000	      2460	800029a4	02ba1323	sh	x11,38(x20)	 x20:0x80008266 x11:0x00000000 PA:0x8000828c
       24625000	      2461	800029a8	effa08a3	sb	x31,-271(x20)	 x20:0x80008266 x31:0x8000112c PA:0x80008157
       24635000	      2462	800029ac	01ef5333	srl	x6,x30,x30	 x30:0x00000000 x30:0x00000000  x6=0x00000000
       24645000	      2463	800029b0	273a2f23	sw	x19,638(x20)	 x20:0x80008266 x19:0x00000000 PA:0x800084e4
       24655000	      2464	800029b4	563a00a3	sb	x3,1377(x20)	 x20:0x80008266  x3:0x00000000 PA:0x800087c7
       24665000	      2465	800029b8	e69a02a3	sb	x9,-411(x20)	 x20:0x80008266  x9:0x00000000 PA:0x800080cb
       24675000	      2466	800029bc	00199493	slli	x9,x19,0x1	 x19:0x00000000  x9=0x00000000
       24685000	      2467	800029c0	00447fb3	and	x31,x8,x4	  x8:0x80009fc4  x4:0x000007de x31=0x000007c4
       24695000	      2468	800029c4	01ffd293	srli	x5,x31,0x1f	 x31:0x000007c4  x5=0x00000000
       24705000	      2469	800029c8	7187a693	slti	x13,x15,1816	 x15:0x00000000 x13=0x00000001
       24715000	      2470	800029cc	f319ed37	lui	x26,0xf319e	 x26=0xf319e000
       24725000	      2471	800029d0	252a5503	lhu	x10,594(x20)	 x20:0x80008266 x10=0x00000000 PA:0x800084b8
       24735000	      2472	800029d4	00006817	auipc	x16,0x6	 x16=0x800089d0
       24745000	      2473	800029d8	53a80813	addi	x16,x16,1338	 x16:0x800089d0 x16=0x80008f0a
       24755000	      2474	800029dc	41a3dfb3	sra	x31,x7,x26	  x7:0x00000000 x26:0xf319e000 x31=0x00000000
       24765000	      2475	800029e0	025803a3	sb	x5,39(x16)	 x16:0x80008f0a  x5:0x00000000 PA:0x80008f31
       24775000	      2476	800029e4	015b5c93	srli	x25,x22,0x15	 x22:0x80005c43 x25=0x00000400
       24785000	      2477	800029e8	2f6de717	auipc	x14,0x2f6de	 x14=0xaf6e09e4
       24795000	      2478	800029ec	03980883	lb	x17,57(x16)	 x16:0x80008f0a x17=0x00000000 PA:0x80008f43
       24805000	      2479	00000000	00000013	addi	x0,x0,0	  x0:0x00000000
       24815000	      2480	800029f0	40188733	sub	x14,x17,x1	 x17:0x00000000  x1:0x00000000 x14=0x00000000
       24825000	      2481	800029f4	001b2533	slt	x10,x22,x1	 x22:0x80005c43  x1:0x00000000 x10=0x00000001
       24835000	      2482	800029f8	411604b7	lui	x9,0x41160	  x9=0x41160000
       24845000	      2483	800029fc	ffc84003	lbu	x0,-4(x16)	 x16:0x80008f0a PA:0x80008f06
       24855000	      2484	80002a00	00180c03	lb	x24,1(x16)	 x16:0x80008f0a x24=0x00000000 PA:0x80008f0b
       24865000	      2485	80002a04	fc184a03	lbu	x20,-63(x16)	 x16:0x80008f0a x20=0x00000000 PA:0x80008ecb
       24875000	      2486	80002a08	930dc993	xori	x19,x27,-1744	 x27:0x000000fb x19=0xfffff9cb
       24885000	      2487	80002a0c	02cc7c37	lui	x24,0x2cc7	 x24=0x02cc7000
       24895000	      2488	80002a10	40420533	sub	x10,x4,x4	  x4:0x000007de  x4:0x000007de x10=0x00000000
       24905000	      2489	80002a14	afd98f13	addi	x30,x19,-1283	 x19:0xfffff9cb x30=0xfffff4c8
       24915000	      2490	80002a18	01d9b533	sltu	x10,x19,x29	 x19:0xfffff9cb x29:0x80009f48 x10=0x00000000
       24925000	      2491	80002a1c	010c05b3	add	x11,x24,x16	 x24:0x02cc7000 x16:0x80008f0a x11=0x82ccff0a
       24935000	      2492	80002a20	002d0733	add	x14,x26,x2	 x26:0xf319e000  x2:0x00000001 x14=0xf319e001
       24945000	      2493	80002a24	00b80ea3	sb	x11,29(x16)	 x16:0x80008f0a x11:0x82ccff0a PA:0x80008f27
       24955000	      2494	80002a28	01c84903	lbu	x18,28(x16)	 x16:0x80008f0a x18=0x00000000 PA:0x80008f26
       24965000	      2495	80002a2c	5a02ccb7	lui	x25,0x5a02c	 x25=0x5a02c000
       24975000	      2496	80002a30	02b80fa3	sb	x11,63(x16)	 x16:0x80008f0a x11:0x82ccff0a PA:0x80008f49
       24985000	      2497	80002a34	4001d233	sra	x4,x3,x0	  x3:0x00000000  x0:0x00000000  x4=0x00000000
       24995000	      2498	80002a38	fe084603	lbu	x12,-32(x16)	 x16:0x80008f0a x12=0x00000000 PA:0x80008eea
       25005000	      2499	80002a3c	41175133	sra	x2,x14,x17	 x14:0xf319e001 x17:0x00000000  x2=0xf319e001
       25015000	      2500	80002a40	00981723	sh	x9,14(x16)	 x16:0x80008f0a  x9:0x41160000 PA:0x80008f18
       25025000	      2501	80002a44	4f7feb93	ori	x23,x31,1271	 x31:0x00000000 x23=0x000004f7
       25035000	      2502	80002a48	f17b3a13	sltiu	x20,x22,-233	 x22:0x80005c43 x20=0x00000001
       25045000	      2503	80002a4c	013d6a33	or	x20,x26,x19	 x26:0xf319e000 x19:0xfffff9cb x20=0xfffff9cb
       25055000	      2504	80002a50	00975113	srli	x2,x14,0x9	 x14:0xf319e001  x2=0x00798cf0
       25065000	      2505	80002a54	00ae5c93	srli	x25,x28,0xa	 x28:0x00000001 x25=0x00000000
       25075000	      2506	80002a58	006693b3	sll	x7,x13,x6	 x13:0x00000001  x6:0x00000000  x7=0x00000001
       25085000	      2507	80002a5c	40b0d313	srai	x6,x1,0xb	  x1:0x00000000  x6=0x00000000
       25095000	      2508	80002a60	417b5fb3	sra	x31,x22,x23	 x22:0x80005c43 x23:0x000004f7 x31=0xffffff00
       25105000	      2509	80002a64	00270cb3	add	x25,x14,x2	 x14:0xf319e001  x2:0x00798cf0 x25=0xf3936cf1
       25115000	      2510	80002a68	03e80703	lb	x14,62(x16)	 x16:0x80008f0a x14=0x00000000 PA:0x80008f48
       25125000	      2511	80002a6c	ea554a93	xori	x21,x10,-347	 x10:0x00000000 x21=0xfffffea5
       25135000	      2512	80002a70	21f0d2b7	lui	x5,0x21f0d	  x5=0x21f0d000
       25145000	      2513	80002a74	01c81983	lh	x19,28(x16)	 x16:0x80008f0a x19=0x00000a00 PA:0x80008f26
       25155000	      2514	80002a78	00006117	auipc	x2,0x6	  x2=0x80008a74
       25165000	      2515	80002a7c	50f10113	addi	x2,x2,1295	  x2:0x80008a74  x2=0x80008f83
       25175000	      2516	80002a80	002e0033	add	x0,x28,x2	 x28:0x00000001  x2:0x80008f83
       25185000	      2517	80002a84	00684833	xor	x16,x16,x6	 x16:0x80008f0a  x6:0x00000000 x16=0x80008f0a
       25195000	      2518	80002a88	00806ab3	or	x21,x0,x8	  x0:0x00000000  x8:0x80009fc4 x21=0x80009fc4
       25205000	      2519	80002a8c	d6f5c893	xori	x17,x11,-657	 x11:0x82ccff0a x17=0x7d330265
       25215000	      2520	80002a90	00451a33	sll	x20,x10,x4	 x10:0x00000000  x4:0x00000000 x20=0x00000000
       25225000	      2521	80002a94	3dfd0013	addi	x0,x26,991	 x26:0xf319e000
       25235000	      2522	80002a98	fd110fa3	sb	x17,-33(x2)	  x2:0x80008f83 x17:0x7d330265 PA:0x80008f62
       25245000	      2523	80002a9c	b9ce7893	andi	x17,x28,-1124	 x28:0x00000001 x17=0x00000000
       25255000	      2524	80002aa0	fc614f83	lbu	x31,-58(x2)	  x2:0x80008f83 x31=0x0000000a PA:0x80008f49
       25265000	      2525	80002aa4	feee6293	ori	x5,x28,-18	 x28:0x00000001  x5=0xffffffef
       25275000	      2526	80002aa8	41c25b13	srai	x22,x4,0x1c	  x4:0x00000000 x22=0x00000000
       25285000	      2527	80002aac	03214583	lbu	x11,50(x2)	  x2:0x80008f83 x11=0x00000000 PA:0x80008fb5
       25295000	      2528	80002ab0	01d12303	lw	x6,29(x2)	  x2:0x80008f83  x6=0x00000000 PA:0x80008fa0
       25305000	      2529	80002ab4	016ed713	srli	x14,x29,0x16	 x29:0x80009f48 x14=0x00000200
       25315000	      2530	80002ab8	00c14303	lbu	x6,12(x2)	  x2:0x80008f83  x6=0x00000000 PA:0x80008f8f
       25325000	      2531	80002abc	048d3f93	sltiu	x31,x26,72	 x26:0xf319e000 x31=0x00000000
       25335000	      2532	80002ac0	bae97a93	andi	x21,x18,-1106	 x18:0x00000000 x21=0x00000000
       25345000	      2533	80002ac4	00000013	addi	x0,x0,0	  x0:0x00000000
       25355000	      2534	80002ac8	01110923	sb	x17,18(x2)	  x2:0x80008f83 x17:0x00000000 PA:0x80008f95
       25365000	      2535	80002acc	bd4a8593	addi	x11,x21,-1068	 x21:0x00000000 x11=0xfffffbd4
       25375000	      2536	80002ad0	02d10e23	sb	x13,60(x2)	  x2:0x80008f83 x13:0x00000001 PA:0x80008fbf
       25385000	      2537	80002ad4	00e14083	lbu	x1,14(x2)	  x2:0x80008f83  x1=0x00000000 PA:0x80008f91
       25395000	      2538	80002ad8	fe310423	sb	x3,-24(x2)	  x2:0x80008f83  x3:0x00000000 PA:0x80008f6b
       25405000	      2539	80002adc	00f01193	slli	x3,x0,0xf	  x0:0x00000000  x3=0x00000000
       25415000	      2540	80002ae0	0fc1b313	sltiu	x6,x3,252	  x3:0x00000000  x6=0x00000001
       25425000	      2541	80002ae4	40e25833	sra	x16,x4,x14	  x4:0x00000000 x14:0x00000200 x16=0x00000000
       25435000	      2542	80002ae8	013b5513	srli	x10,x22,0x13	 x22:0x00000000 x10=0x00000000
       25445000	      2543	80002aec	02610f23	sb	x6,62(x2)	  x2:0x80008f83  x6:0x00000001 PA:0x80008fc1
       25455000	      2544	80002af0	a7a83213	sltiu	x4,x16,-1414	 x16:0x00000000  x4=0x00000001
       25465000	      2545	80002af4	415f02b3	sub	x5,x30,x21	 x30:0xfffff4c8 x21:0x00000000  x5=0xfffff4c8
       25475000	      2546	80002af8	8baf3493	sltiu	x9,x30,-1862	 x30:0xfffff4c8  x9=0x00000001
       25485000	      2547	80002afc	fc014703	lbu	x14,-64(x2)	  x2:0x80008f83 x14=0x00000000 PA:0x80008f43
       25495000	      2548	80002b00	fdc10d03	lb	x26,-36(x2)	  x2:0x80008f83 x26=0x00000000 PA:0x80008f5f
       25505000	      2549	80002b04	0140e2b3	or	x5,x1,x20	  x1:0x00000000 x20:0x00000000  x5=0x00000000
       25515000	      2550	80002b08	11857293	andi	x5,x10,280	 x10:0x00000000  x5=0x00000000
       25525000	      2551	80002b0c	014bfc33	and	x24,x23,x20	 x23:0x000004f7 x20:0x00000000 x24=0x00000000
       25535000	      2552	80002b10	fcab7a13	andi	x20,x22,-54	 x22:0x00000000 x20=0x00000000
       25545000	      2553	80002b14	5eee4713	xori	x14,x28,1518	 x28:0x00000001 x14=0x000005ef
       25555000	      2554	80002b18	4b87aa37	lui	x20,0x4b87a	 x20=0x4b87a000
       25565000	      2555	80002b1c	40c3d313	srai	x6,x7,0xc	  x7:0x00000001  x6=0x00000000
       25575000	      2556	80002b20	00121a33	sll	x20,x4,x1	  x4:0x00000001  x1:0x00000000 x20=0x00000001
       25585000	      2557	80002b24	02814f83	lbu	x31,40(x2)	  x2:0x80008f83 x31=0x00000000 PA:0x80008fab
       25595000	      2558	80002b28	01110a23	sb	x17,20(x2)	  x2:0x80008f83 x17:0x00000000 PA:0x80008f97
       25605000	      2559	80002b2c	00006c97	auipc	x25,0x6	 x25=0x80008b28
       25615000	      2560	80002b30	f60c8c93	addi	x25,x25,-160	 x25:0x80008b28 x25=0x80008a88
       25625000	      2561	80002b34	013c8a23	sb	x19,20(x25)	 x25:0x80008a88 x19:0x00000a00 PA:0x80008a9c
       25635000	      2562	80002b38	03acc903	lbu	x18,58(x25)	 x25:0x80008a88 x18=0x00000000 PA:0x80008ac2
       25645000	      2563	80002b3c	016cd483	lhu	x9,22(x25)	 x25:0x80008a88  x9=0x00000000 PA:0x80008a9e
       25655000	      2564	00000000	00000013	addi	x0,x0,0	  x0:0x00000000
       25665000	      2565	80002b40	fe9cc803	lbu	x16,-23(x25)	 x25:0x80008a88 x16=0x00000000 PA:0x80008a71
       25675000	      2566	80002b44	feac8383	lb	x7,-22(x25)	 x25:0x80008a88  x7=0x00000000 PA:0x80008a72
       25685000	      2567	80002b48	ff5c9923	sh	x21,-14(x25)	 x25:0x80008a88 x21:0x00000000 PA:0x80008a7a
       25695000	      2568	80002b4c	01559813	slli	x16,x11,0x15	 x11:0xfffffbd4 x16=0x7a800000
       25705000	      2569	80002b50	fe8ccb03	lbu	x22,-24(x25)	 x25:0x80008a88 x22=0x00000000 PA:0x80008a70
       25715000	      2570	80002b54	ff4c9623	sh	x20,-20(x25)	 x25:0x80008a88 x20:0x00000001 PA:0x80008a74
       25725000	      2571	80002b58	fefc8c03	lb	x24,-17(x25)	 x25:0x80008a88 x24=0x00000000 PA:0x80008a77
       25735000	      2572	80002b5c	00b85b33	srl	x22,x16,x11	 x16:0x7a800000 x11:0xfffffbd4 x22=0x000007a8
       25745000	      2573	80002b60	018c8723	sb	x24,14(x25)	 x25:0x80008a88 x24:0x00000000 PA:0x80008a96
       25755000	      2574	80002b64	fcfcc583	lbu	x11,-49(x25)	 x25:0x80008a88 x11=0x00000000 PA:0x80008a57
       25765000	      2575	00000000	00000013	addi	x0,x0,0	  x0:0x00000000
       25775000	      2576	80002b68	02bc8ea3	sb	x11,61(x25)	 x25:0x80008a88 x11:0x00000000 PA:0x80008ac5
       25785000	      2577	80002b6c	fedc8ca3	sb	x13,-7(x25)	 x25:0x80008a88 x13:0x00000001 PA:0x80008a81
       25795000	      2578	80002b70	0b76c613	xori	x12,x13,183	 x13:0x00000001 x12=0x000000b6
       25805000	      2579	80002b74	ff3cc283	lbu	x5,-13(x25)	 x25:0x80008a88  x5=0x00000000 PA:0x80008a7b
       25815000	      2580	80002b78	ff7cca83	lbu	x21,-9(x25)	 x25:0x80008a88 x21=0x00000000 PA:0x80008a7f
       25825000	      2581	80002b7c	024c85a3	sb	x4,43(x25)	 x25:0x80008a88  x4:0x00000001 PA:0x80008ab3
       25835000	      2582	80002b80	7e10c837	lui	x16,0x7e10c	 x16=0x7e10c000
       25845000	      2583	80002b84	03dc9823	sh	x29,48(x25)	 x25:0x80008a88 x29:0x80009f48 PA:0x80008ab8
       25855000	      2584	80002b88	00d32bb3	slt	x23,x6,x13	  x6:0x00000000 x13:0x00000001 x23=0x00000001
       25865000	      2585	80002b8c	ff3cc503	lbu	x10,-13(x25)	 x25:0x80008a88 x10=0x00000000 PA:0x80008a7b
       25875000	      2586	80002b90	018f70b3	and	x1,x30,x24	 x30:0xfffff4c8 x24:0x00000000  x1=0x00000000
       25885000	      2587	80002b94	68b1b113	sltiu	x2,x3,1675	  x3:0x00000000  x2=0x00000001
       25895000	      2588	80002b98	fc0c87a3	sb	x0,-49(x25)	 x25:0x80008a88  x0:0x00000000 PA:0x80008a57
       25905000	      2589	80002b9c	7d34fa93	andi	x21,x9,2003	  x9:0x00000000 x21=0x00000000
       25915000	      2590	80002ba0	24943617	auipc	x12,0x24943	 x12=0xa4945b9c
       25925000	      2591	80002ba4	037cca03	lbu	x20,55(x25)	 x25:0x80008a88 x20=0x00000000 PA:0x80008abf
       25935000	      2592	80002ba8	48487613	andi	x12,x16,1156	 x16:0x7e10c000 x12=0x00000000
       25945000	      2593	80002bac	018e4233	xor	x4,x28,x24	 x28:0x00000001 x24:0x00000000  x4=0x00000001
       25955000	      2594	80002bb0	fe3ccb03	lbu	x22,-29(x25)	 x25:0x80008a88 x22=0x00000000 PA:0x80008a6b
       25965000	      2595	80002bb4	a290a093	slti	x1,x1,-1495	  x1:0x00000000  x1=0x00000000
       25975000	      2596	80002bb8	fdecc383	lbu	x7,-34(x25)	 x25:0x80008a88  x7=0x00000000 PA:0x80008a66
       25985000	      2597	80002bbc	532f8f97	auipc	x31,0x532f8	 x31=0xd32fabb8
       25995000	      2598	80002bc0	00519f13	slli	x30,x3,0x5	  x3:0x00000000 x30=0x00000000
       26005000	      2599	80002bc4	00dc86a3	sb	x13,13(x25)	 x25:0x80008a88 x13:0x00000001 PA:0x80008a95
       26015000	      2600	80002bc8	fcfc8b03	lb	x22,-49(x25)	 x25:0x80008a88 x22=0x00000000 PA:0x80008a57
       26025000	      2601	80002bcc	00006117	auipc	x2,0x6	  x2=0x80008bc8
       26035000	      2602	80002bd0	b4010113	addi	x2,x2,-1216	  x2:0x80008bc8  x2=0x80008708
       26045000	      2603	80002bd4	011e5a93	srli	x21,x28,0x11	 x28:0x00000001 x21=0x00000000
       26055000	      2604	80002bd8	d7c10ba3	sb	x28,-649(x2)	  x2:0x80008708 x28:0x00000001 PA:0x8000847f
       26065000	      2605	80002bdc	fc810483	lb	x9,-56(x2)	  x2:0x80008708  x9=0x00000000 PA:0x800086d0
       26075000	      2606	80002be0	ded10983	lb	x19,-531(x2)	  x2:0x80008708 x19=0x00000000 PA:0x800084f5
       26085000	      2607	80002be4	dec11203	lh	x4,-532(x2)	  x2:0x80008708  x4=0x00000000 PA:0x800084f4
       26095000	      2608	80002be8	c1210583	lb	x11,-1006(x2)	  x2:0x80008708 x11=0x00000000 PA:0x8000831a
       26105000	      2609	80002bec	f2610c83	lb	x25,-218(x2)	  x2:0x80008708 x25=0x00000000 PA:0x8000862e
       26115000	      2610	80002bf0	d3f10383	lb	x7,-705(x2)	  x2:0x80008708  x7=0x00000000 PA:0x80008447
       26125000	      2611	80002bf4	01ae1633	sll	x12,x28,x26	 x28:0x00000001 x26:0x00000000 x12=0x00000001
       26135000	      2612	80002bf8	00d7c633	xor	x12,x15,x13	 x15:0x00000000 x13:0x00000001 x12=0x00000001
       26145000	      2613	80002bfc	004c2d33	slt	x26,x24,x4	 x24:0x00000000  x4:0x00000000 x26=0x00000000
       26155000	      2614	80002c00	0f823f93	sltiu	x31,x4,248	  x4:0x00000000 x31=0x00000001
       26165000	      2615	80002c04	19ac7513	andi	x10,x24,410	 x24:0x00000000 x10=0x00000000
       26175000	      2616	80002c08	03210b03	lb	x22,50(x2)	  x2:0x80008708 x22=0x00000000 PA:0x8000873a
       26185000	      2617	80002c0c	011aa1b3	slt	x3,x21,x17	 x21:0x00000000 x17:0x00000000  x3=0x00000000
       26195000	      2618	80002c10	04714583	lbu	x11,71(x2)	  x2:0x80008708 x11=0x00000000 PA:0x8000874f
       26205000	      2619	80002c14	437c3393	sltiu	x7,x24,1079	 x24:0x00000000  x7=0x00000001
       26215000	      2620	80002c18	01481313	slli	x6,x16,0x14	 x16:0x7e10c000  x6=0x00000000
       26225000	      2621	80002c1c	98011183	lh	x3,-1664(x2)	  x2:0x80008708  x3=0x00000000 PA:0x80008088
       26235000	      2622	80002c20	dd314903	lbu	x18,-557(x2)	  x2:0x80008708 x18=0x00000000 PA:0x800084db
       26245000	      2623	80002c24	42e1bc13	sltiu	x24,x3,1070	  x3:0x00000000 x24=0x00000001
       26255000	      2624	80002c28	0134f2b3	and	x5,x9,x19	  x9:0x00000000 x19:0x00000000  x5=0x00000000
       26265000	      2625	80002c2c	213c2c17	auipc	x24,0x213c2	 x24=0xa13c4c28
       26275000	      2626	80002c30	00d10303	lb	x6,13(x2)	  x2:0x80008708  x6=0x00000000 PA:0x80008715
       26285000	      2627	80002c34	c6b10383	lb	x7,-917(x2)	  x2:0x80008708  x7=0x00000000 PA:0x80008373
       26295000	      2628	80002c38	dbc12483	lw	x9,-580(x2)	  x2:0x80008708  x9=0x00000000 PA:0x800084c4
       26305000	      2629	80002c3c	00afb8b3	sltu	x17,x31,x10	 x31:0x00000001 x10:0x00000000 x17=0x00000000
       26315000	      2630	80002c40	07114e03	lbu	x28,113(x2)	  x2:0x80008708 x28=0x00000000 PA:0x80008779
       26325000	      2631	80002c44	e8110703	lb	x14,-383(x2)	  x2:0x80008708 x14=0xffffff9c PA:0x80008589
       26335000	      2632	80002c48	006d2833	slt	x16,x26,x6	 x26:0x00000000  x6:0x00000000 x16=0x00000000
       26345000	      2633	80002c4c	b5c15383	lhu	x7,-1188(x2)	  x2:0x80008708  x7=0x00000000 PA:0x80008264
       26355000	      2634	80002c50	01c8d4b3	srl	x9,x17,x28	 x17:0x00000000 x28:0x00000000  x9=0x00000000
       26365000	      2635	80002c54	0195a1b3	slt	x3,x11,x25	 x11:0x00000000 x25:0x00000000  x3=0x00000000
       26375000	      2636	80002c58	e4411903	lh	x18,-444(x2)	  x2:0x80008708 x18=0x00000000 PA:0x8000854c
       26385000	      2637	80002c5c	f8d14383	lbu	x7,-115(x2)	  x2:0x80008708  x7=0x00000000 PA:0x80008695
       26395000	      2638	80002c60	00605d93	srli	x27,x0,0x6	  x0:0x00000000 x27=0x00000000
       26405000	      2639	80002c64	c0f10323	sb	x15,-1018(x2)	  x2:0x80008708 x15:0x00000000 PA:0x8000830e
       26415000	      2640	80002c68	84a80737	lui	x14,0x84a80	 x14=0x84a80000
       26425000	      2641	80002c6c	d2015283	lhu	x5,-736(x2)	  x2:0x80008708  x5=0x00000000 PA:0x80008428
       26435000	      2642	00000000	00000013	addi	x0,x0,0	  x0:0x00000000
       26445000	      2643	80002c70	d0512823	sw	x5,-752(x2)	  x2:0x80008708  x5:0x00000000 PA:0x80008418
       26455000	      2644	80002c74	e1510623	sb	x21,-500(x2)	  x2:0x80008708 x21:0x00000000 PA:0x80008514
       26465000	      2645	80002c78	018d41b3	xor	x3,x26,x24	 x26:0x00000000 x24:0xa13c4c28  x3=0xa13c4c28
       26475000	      2646	80002c7c	0167f6b3	and	x13,x15,x22	 x15:0x00000000 x22:0x00000000 x13=0x00000000
       26485000	      2647	80002c80	90306493	ori	x9,x0,-1789	  x0:0x00000000  x9=0xfffff903
       26495000	      2648	80002c84	ddf14b03	lbu	x22,-545(x2)	  x2:0x80008708 x22=0x00000000 PA:0x800084e7
       26505000	      2649	80002c88	d34101a3	sb	x20,-733(x2)	  x2:0x80008708 x20:0x00000000 PA:0x8000842b
       26515000	      2650	80002c8c	41e8dc13	srai	x24,x17,0x1e	 x17:0x00000000 x24=0x00000000
       26525000	      2651	80002c90	f1011703	lh	x14,-240(x2)	  x2:0x80008708 x14=0x00000000 PA:0x80008618
       26535000	      2652	80002c94	a1714983	lbu	x19,-1513(x2)	  x2:0x80008708 x19=0x00000000 PA:0x8000811f
       26545000	      2653	80002c98	0f8100a3	sb	x24,225(x2)	  x2:0x80008708 x24:0x00000000 PA:0x800087e9
       26555000	      2654	80002c9c	c4b10303	lb	x6,-949(x2)	  x2:0x80008708  x6=0x00000000 PA:0x80008353
       26565000	      2655	80002ca0	99b14383	lbu	x7,-1637(x2)	  x2:0x80008708  x7=0x00000000 PA:0x800080a3
       26575000	      2656	80002ca4	00006117	auipc	x2,0x6	  x2=0x80008ca0
       26585000	      2657	80002ca8	c6410113	addi	x2,x2,-924	  x2:0x80008ca0  x2=0x80008904
       26595000	      2658	80002cac	46814503	lbu	x10,1128(x2)	  x2:0x80008904 x10=0x00000000 PA:0x80008d6c
       26605000	      2659	80002cb0	3be11003	lh	x0,958(x2)	  x2:0x80008904 PA:0x80008cc2
       26615000	      2660	80002cb4	717cac13	slti	x24,x25,1815	 x25:0x00000000 x24=0x00000001
       26625000	      2661	80002cb8	f5711923	sh	x23,-174(x2)	  x2:0x80008904 x23:0x00000001 PA:0x80008856
       26635000	      2662	80002cbc	7b906613	ori	x12,x0,1977	  x0:0x00000000 x12=0x000007b9
       26645000	      2663	80002cc0	00000013	addi	x0,x0,0	  x0:0x00000000
       26655000	      2664	80002cc4	10c4ab37	lui	x22,0x10c4a	 x22=0x10c4a000
       26665000	      2665	80002cc8	f2215083	lhu	x1,-222(x2)	  x2:0x80008904  x1=0x00000000 PA:0x80008826
       26675000	      2666	80002ccc	00485633	srl	x12,x16,x4	 x16:0x00000000  x4:0x00000000 x12=0x00000000
       26685000	      2667	80002cd0	01f25613	srli	x12,x4,0x1f	  x4:0x00000000 x12=0x00000000
       26695000	      2668	80002cd4	004ea633	slt	x12,x29,x4	 x29:0x80009f48  x4:0x00000000 x12=0x00000001
       26705000	      2669	80002cd8	33110183	lb	x3,817(x2)	  x2:0x80008904  x3=0x00000000 PA:0x80008c35
       26715000	      2670	80002cdc	01d82333	slt	x6,x16,x29	 x16:0x00000000 x29:0x80009f48  x6=0x00000000
       26725000	      2671	80002ce0	23411a03	lh	x20,564(x2)	  x2:0x80008904 x20=0x00000000 PA:0x80008b38
       26735000	      2672	80002ce4	7bdee013	ori	x0,x29,1981	 x29:0x80009f48
       26745000	      2673	80002ce8	769ffd93	andi	x27,x31,1897	 x31:0x00000001 x27=0x00000001
       26755000	      2674	80002cec	00f8ca33	xor	x20,x17,x15	 x17:0x00000000 x15:0x00000000 x20=0x00000000
       26765000	      2675	80002cf0	fe110e03	lb	x28,-31(x2)	  x2:0x80008904 x28=0x00000000 PA:0x800088e5
       26775000	      2676	80002cf4	b27eb317	auipc	x6,0xb27eb	  x6=0x327edcf0
       26785000	      2677	80002cf8	f3615f03	lhu	x30,-202(x2)	  x2:0x80008904 x30=0x00000000 PA:0x8000883a
       26795000	      2678	80002cfc	016c1f13	slli	x30,x24,0x16	 x24:0x00000001 x30=0x00400000
       26805000	      2679	80002d00	5fe10803	lb	x16,1534(x2)	  x2:0x80008904 x16=0x00000000 PA:0x80008f02
       26815000	      2680	80002d04	aab13d93	sltiu	x27,x2,-1365	  x2:0x80008904 x27=0x00000001
       26825000	      2681	80002d08	41d455b3	sra	x11,x8,x29	  x8:0x80009fc4 x29:0x80009f48 x11=0xff80009f
       26835000	      2682	80002d0c	f3910283	lb	x5,-199(x2)	  x2:0x80008904  x5=0x00000000 PA:0x8000883d
       26845000	      2683	80002d10	53710603	lb	x12,1335(x2)	  x2:0x80008904 x12=0x00000000 PA:0x80008e3b
       26855000	      2684	80002d14	00a7ab33	slt	x22,x15,x10	 x15:0x00000000 x10:0x00000000 x22=0x00000000
       26865000	      2685	80002d18	f4910f03	lb	x30,-183(x2)	  x2:0x80008904 x30=0x00000000 PA:0x8000884d
       26875000	      2686	80002d1c	416c8c33	sub	x24,x25,x22	 x25:0x00000000 x22:0x00000000 x24=0x00000000
       26885000	      2687	80002d20	5d811423	sh	x24,1480(x2)	  x2:0x80008904 x24:0x00000000 PA:0x80008ecc
       26895000	      2688	80002d24	00434933	xor	x18,x6,x4	  x6:0x327edcf0  x4:0x00000000 x18=0x327edcf0
       26905000	      2689	80002d28	5c510583	lb	x11,1477(x2)	  x2:0x80008904 x11=0x00000000 PA:0x80008ec9
       26915000	      2690	80002d2c	4a714303	lbu	x6,1191(x2)	  x2:0x80008904  x6=0x00000000 PA:0x80008dab
       26925000	      2691	80002d30	20b10423	sb	x11,520(x2)	  x2:0x80008904 x11:0x00000000 PA:0x80008b0c
       26935000	      2692	80002d34	48a14a03	lbu	x20,1162(x2)	  x2:0x80008904 x20=0x00000000 PA:0x80008d8e
       26945000	      2693	80002d38	04b10a83	lb	x21,75(x2)	  x2:0x80008904 x21=0x00000000 PA:0x8000894f
       26955000	      2694	80002d3c	31d105a3	sb	x29,779(x2)	  x2:0x80008904 x29:0x80009f48 PA:0x80008c0f
       26965000	      2695	80002d40	00005117	auipc	x2,0x5	  x2=0x80007d3c
       26975000	      2696	80002d44	46710113	addi	x2,x2,1127	  x2:0x80007d3c  x2=0x800081a3
       26985000	      2697	80002d48	0ab15703	lhu	x14,171(x2)	  x2:0x800081a3 x14=0x00000000 PA:0x8000824e
       26995000	      2698	80002d4c	09014603	lbu	x12,144(x2)	  x2:0x800081a3 x12=0x00000000 PA:0x80008233
       27005000	      2699	80002d50	018fd833	srl	x16,x31,x24	 x31:0x00000001 x24:0x00000000 x16=0x00000001
       27015000	      2700	80002d54	ff112483	lw	x9,-15(x2)	  x2:0x800081a3  x9=0x00000000 PA:0x80008194
       27025000	      2701	80002d58	00000013	addi	x0,x0,0	  x0:0x00000000
       27035000	      2702	80002d5c	01039813	slli	x16,x7,0x10	  x7:0x00000000 x16=0x00000000
       27045000	      2703	80002d60	01ffa9b3	slt	x19,x31,x31	 x31:0x00000001 x31:0x00000001 x19=0x00000000
       27055000	      2704	80002d64	02d12d03	lw	x26,45(x2)	  x2:0x800081a3 x26=0x00000000 PA:0x800081d0
       27065000	      2705	80002d68	ff8113a3	sh	x24,-25(x2)	  x2:0x800081a3 x24:0x00000000 PA:0x8000818a
       27075000	      2706	80002d6c	f0410f23	sb	x4,-226(x2)	  x2:0x800081a3  x4:0x00000000 PA:0x800080c1
       27085000	      2707	80002d70	411d8e33	sub	x28,x27,x17	 x27:0x00000001 x17:0x00000000 x28=0x00000001
       27095000	      2708	80002d74	07711803	lh	x16,119(x2)	  x2:0x800081a3 x16=0x00000000 PA:0x8000821a
       27105000	      2709	80002d78	0d915f03	lhu	x30,217(x2)	  x2:0x800081a3 x30=0x00000000 PA:0x8000827c
       27115000	      2710	80002d7c	0139ebb3	or	x23,x19,x19	 x19:0x00000000 x19:0x00000000 x23=0x00000000
       27125000	      2711	80002d80	00b10323	sb	x11,6(x2)	  x2:0x800081a3 x11:0x00000000 PA:0x800081a9
       27135000	      2712	80002d84	e97b2493	slti	x9,x22,-361	 x22:0x00000000  x9=0x00000000
       27145000	      2713	80002d88	00b11d03	lh	x26,11(x2)	  x2:0x800081a3 x26=0x00000000 PA:0x800081ae
       27155000	      2714	80002d8c	ff510ba3	sb	x21,-9(x2)	  x2:0x800081a3 x21:0x00000000 PA:0x8000819a
       27165000	      2715	80002d90	3d903a13	sltiu	x20,x0,985	  x0:0x00000000 x20=0x00000001
       27175000	      2716	80002d94	0cc10503	lb	x10,204(x2)	  x2:0x800081a3 x10=0x00000000 PA:0x8000826f
       27185000	      2717	80002d98	4079d393	srai	x7,x19,0x7	 x19:0x00000000  x7=0x00000000
       27195000	      2718	80002d9c	0118b2b3	sltu	x5,x17,x17	 x17:0x00000000 x17:0x00000000  x5=0x00000000
       27205000	      2719	80002da0	473dc613	xori	x12,x27,1139	 x27:0x00000001 x12=0x00000472
       27215000	      2720	80002da4	00cce8b3	or	x17,x25,x12	 x25:0x00000000 x12:0x00000472 x17=0x00000472
       27225000	      2721	80002da8	00000013	addi	x0,x0,0	  x0:0x00000000
       27235000	      2722	80002dac	00ff4b33	xor	x22,x30,x15	 x30:0x00000000 x15:0x00000000 x22=0x00000000
       27245000	      2723	80002db0	02012aa3	sw	x0,53(x2)	  x2:0x800081a3  x0:0x00000000 PA:0x800081d8
       27255000	      2724	80002db4	1db56d13	ori	x26,x10,475	 x10:0x00000000 x26=0x000001db
       27265000	      2725	80002db8	00cc5a13	srli	x20,x24,0xc	 x24:0x00000000 x20=0x00000000
       27275000	      2726	80002dbc	40245d33	sra	x26,x8,x2	  x8:0x80009fc4  x2:0x800081a3 x26=0xf00013f8
       27285000	      2727	80002dc0	07114983	lbu	x19,113(x2)	  x2:0x800081a3 x19=0x00000000 PA:0x80008214
       27295000	      2728	80002dc4	f95a3ab7	lui	x21,0xf95a3	 x21=0xf95a3000
       27305000	      2729	80002dc8	40a65d13	srai	x26,x12,0xa	 x12:0x00000472 x26=0x00000001
       27315000	      2730	80002dcc	f7e14d03	lbu	x26,-130(x2)	  x2:0x800081a3 x26=0x00000000 PA:0x80008121
       27325000	      2731	80002dd0	f8910983	lb	x19,-119(x2)	  x2:0x800081a3 x19=0x00000000 PA:0x8000812c
       27335000	      2732	80002dd4	09811aa3	sh	x24,149(x2)	  x2:0x800081a3 x24:0x00000000 PA:0x80008238
       27345000	      2733	80002dd8	40195313	srai	x6,x18,0x1	 x18:0x327edcf0  x6=0x193f6e78
       27355000	      2734	80002ddc	0197b733	sltu	x14,x15,x25	 x15:0x00000000 x25:0x00000000 x14=0x00000000
       27365000	      2735	80002de0	05d50093	addi	x1,x10,93	 x10:0x00000000  x1=0x0000005d
       27375000	      2736	80002de4	02210d83	lb	x27,34(x2)	  x2:0x800081a3 x27=0x00000000 PA:0x800081c5
       27385000	      2737	80002de8	fee14b83	lbu	x23,-18(x2)	  x2:0x800081a3 x23=0x00000000 PA:0x80008191
       27395000	      2738	80002dec	549eb913	sltiu	x18,x29,1353	 x29:0x80009f48 x18=0x00000000
       27405000	      2739	80002df0	01c40fb3	add	x31,x8,x28	  x8:0x80009fc4 x28:0x00000001 x31=0x80009fc5
       27415000	      2740	80002df4	0065c663	blt	x11,x6,80002e00	 x11:0x00000000  x6:0x193f6e78
       27425000	      2741	00000000	00000013	addi	x0,x0,0	  x0:0x00000000
       27435000	      2742	80002dfc	00000013	addi	x0,x0,0	  x0:0x00000000
       27445000	      2743	80002e00	415050b3	sra	x1,x0,x21	  x0:0x00000000 x21:0xf95a3000  x1=0x00000000
       27455000	      2744	80002e04	00a59013	slli	x0,x11,0xa	 x11:0x00000000
       27465000	      2745	80002e08	00caf863	bgeu	x21,x12,80002e18	 x21:0xf95a3000 x12:0x00000472
       27475000	      2746	00000000	00000013	addi	x0,x0,0	  x0:0x00000000
       27485000	      2747	80002e14	00000013	addi	x0,x0,0	  x0:0x00000000
       27495000	      2748	80002e18	01e76663	bltu	x14,x30,80002e24	 x14:0x00000000 x30:0x00000000
       27505000	      2749	80002e1c	1a9dc493	xori	x9,x27,425	 x27:0x00000000  x9=0x000001a9
       27515000	      2750	80002e20	04d35663	bge	x6,x13,80002e6c	  x6:0x193f6e78 x13:0x00000000
       27525000	      2751	00000000	00000013	addi	x0,x0,0	  x0:0x00000000
       27535000	      2752	80002e68	00000013	addi	x0,x0,0	  x0:0x00000000
       27545000	      2753	80002e6c	409f05b3	sub	x11,x30,x9	 x30:0x00000000  x9:0x000001a9 x11=0xfffffe57
       27555000	      2754	80002e70	01470e33	add	x28,x14,x20	 x14:0x00000000 x20:0x00000000 x28=0x00000000
       27565000	      2755	80002e74	03e95863	bge	x18,x30,80002ea4	 x18:0x00000000 x30:0x00000000
       27575000	      2756	00000000	00000013	addi	x0,x0,0	  x0:0x00000000
       27585000	      2757	80002ea0	00000013	addi	x0,x0,0	  x0:0x00000000
       27595000	      2758	80002ea4	01949c33	sll	x24,x9,x25	  x9:0x000001a9 x25:0x00000000 x24=0x000001a9
       27605000	      2759	80002ea8	341cc037	lui	x0,0x341cc	
       27615000	      2760	80002eac	730da213	slti	x4,x27,1840	 x27:0x00000000  x4=0x00000001
       27625000	      2761	80002eb0	4186d713	srai	x14,x13,0x18	 x13:0x00000000 x14=0x00000000
       27635000	      2762	80002eb4	11c9af17	auipc	x30,0x11c9a	 x30=0x91c9ceb0
       27645000	      2763	80002eb8	05a88063	beq	x17,x26,80002ef8	 x17:0x00000472 x26:0x00000000
       27655000	      2764	80002ebc	02224463	blt	x4,x2,80002ee4	  x4:0x00000001  x2:0x800081a3
       27665000	      2765	80002ec0	7a882093	slti	x1,x16,1960	 x16:0x00000000  x1=0x00000001
       27675000	      2766	80002ec4	893c7913	andi	x18,x24,-1901	 x24:0x000001a9 x18=0x00000081
       27685000	      2767	80002ec8	4187d313	srai	x6,x15,0x18	 x15:0x00000000  x6=0x00000000
       27695000	      2768	80002ecc	c99cdab7	lui	x21,0xc99cd	 x21=0xc99cd000
       27705000	      2769	80002ed0	00ac7933	and	x18,x24,x10	 x24:0x000001a9 x10:0x00000000 x18=0x00000000
       27715000	      2770	80002ed4	bc786293	ori	x5,x16,-1081	 x16:0x00000000  x5=0xfffffbc7
       27725000	      2771	80002ed8	0152af33	slt	x30,x5,x21	  x5:0xfffffbc7 x21:0xc99cd000 x30=0x00000000
       27735000	      2772	80002edc	612c7c97	auipc	x25,0x612c7	 x25=0xe12c9ed8
       27745000	      2773	80002ee0	0175d0b3	srl	x1,x11,x23	 x11:0xfffffe57 x23:0x00000000  x1=0xfffffe57
       27755000	      2774	80002ee4	ad3789b7	lui	x19,0xad378	 x19=0xad378000
       27765000	      2775	80002ee8	00000013	addi	x0,x0,0	  x0:0x00000000
       27775000	      2776	80002eec	015f4463	blt	x30,x21,80002ef4	 x30:0x00000000 x21:0xc99cd000
       27785000	      2777	80002ef0	bb42ba13	sltiu	x20,x5,-1100	  x5:0xfffffbc7 x20=0x00000000
       27795000	      2778	80002ef4	40d988b3	sub	x17,x19,x13	 x19:0xad378000 x13:0x00000000 x17=0xad378000
       27805000	      2779	80002ef8	01ac6ab3	or	x21,x24,x26	 x24:0x000001a9 x26:0x00000000 x21=0x000001a9
       27815000	      2780	80002efc	01cade63	bge	x21,x28,80002f18	 x21:0x000001a9 x28:0x00000000
       27825000	      2781	00000000	00000013	addi	x0,x0,0	  x0:0x00000000
       27835000	      2782	80002f14	00000013	addi	x0,x0,0	  x0:0x00000000
       27845000	      2783	80002f18	00635113	srli	x2,x6,0x6	  x6:0x00000000  x2=0x00000000
       27855000	      2784	80002f1c	41d15213	srai	x4,x2,0x1d	  x2:0x00000000  x4=0x00000000
       27865000	      2785	80002f20	029e7063	bgeu	x28,x9,80002f40	 x28:0x00000000  x9:0x000001a9
       27875000	      2786	80002f24	7463f6b7	lui	x13,0x7463f	 x13=0x7463f000
       27885000	      2787	80002f28	5679e393	ori	x7,x19,1383	 x19:0xad378000  x7=0xad378567
       27895000	      2788	80002f2c	004f7933	and	x18,x30,x4	 x30:0x00000000  x4:0x00000000 x18=0x00000000
       27905000	      2789	80002f30	016a6f33	or	x30,x20,x22	 x20:0x00000000 x22:0x00000000 x30=0x00000000
       27915000	      2790	80002f34	400eda93	srai	x21,x29,0x0	 x29:0x80009f48 x21=0x80009f48
       27925000	      2791	80002f38	019e1a93	slli	x21,x28,0x19	 x28:0x00000000 x21=0x00000000
       27935000	      2792	80002f3c	18e3e893	ori	x17,x7,398	  x7:0xad378567 x17=0xad3785ef
       27945000	      2793	80002f40	6365e113	ori	x2,x11,1590	 x11:0xfffffe57  x2=0xfffffe77
       27955000	      2794	80002f44	aa079d37	lui	x26,0xaa079	 x26=0xaa079000
       27965000	      2795	80002f48	acab0693	addi	x13,x22,-1334	 x22:0x00000000 x13=0xfffffaca
       27975000	      2796	80002f4c	87a1cb13	xori	x22,x3,-1926	  x3:0x00000000 x22=0xfffff87a
       27985000	      2797	80002f50	022d8e63	beq	x27,x2,80002f8c	 x27:0x00000000  x2:0xfffffe77
       27995000	      2798	80002f54	01129e13	slli	x28,x5,0x11	  x5:0xfffffbc7 x28=0xf78e0000
       28005000	      2799	80002f58	4174d8b3	sra	x17,x9,x23	  x9:0x000001a9 x23:0x00000000 x17=0x000001a9
       28015000	      2800	80002f5c	00e54e33	xor	x28,x10,x14	 x10:0x00000000 x14:0x00000000 x28=0x00000000
       28025000	      2801	80002f60	0155cd33	xor	x26,x11,x21	 x11:0xfffffe57 x21:0x00000000 x26=0xfffffe57
       28035000	      2802	80002f64	2f214613	xori	x12,x2,754	  x2:0xfffffe77 x12=0xfffffc85
       28045000	      2803	80002f68	013776b3	and	x13,x14,x19	 x14:0x00000000 x19:0xad378000 x13=0x00000000
       28055000	      2804	80002f6c	0046f1b3	and	x3,x13,x4	 x13:0x00000000  x4:0x00000000  x3=0x00000000
       28065000	      2805	80002f70	41fed8b3	sra	x17,x29,x31	 x29:0x80009f48 x31:0x80009fc5 x17=0xfc0004fa
       28075000	      2806	80002f74	530eb013	sltiu	x0,x29,1328	 x29:0x80009f48
       28085000	      2807	80002f78	00000013	addi	x0,x0,0	  x0:0x00000000
       28095000	      2808	80002f7c	0044a133	slt	x2,x9,x4	  x9:0x000001a9  x4:0x00000000  x2=0x00000000
       28105000	      2809	80002f80	00000013	addi	x0,x0,0	  x0:0x00000000
       28115000	      2810	80002f84	01902c33	slt	x24,x0,x25	  x0:0x00000000 x25:0xe12c9ed8 x24=0x00000000
       28125000	      2811	80002f88	00000013	addi	x0,x0,0	  x0:0x00000000
       28135000	      2812	80002f8c	90304337	lui	x6,0x90304	  x6=0x90304000
       28145000	      2813	80002f90	000a7833	and	x16,x20,x0	 x20:0x00000000  x0:0x00000000 x16=0x00000000
       28155000	      2814	80002f94	3b977013	andi	x0,x14,953	 x14:0x00000000
       28165000	      2815	80002f98	403cd613	srai	x12,x25,0x3	 x25:0xe12c9ed8 x12=0xfc2593db
       28175000	      2816	80002f9c	401fd293	srai	x5,x31,0x1	 x31:0x80009fc5  x5=0xc0004fe2
       28185000	      2817	80002fa0	00d2acb3	slt	x25,x5,x13	  x5:0xc0004fe2 x13:0x00000000 x25=0x00000001
       28195000	      2818	80002fa4	025d5263	bge	x26,x5,80002fc8	 x26:0xfffffe57  x5:0xc0004fe2
       28205000	      2819	00000000	00000013	addi	x0,x0,0	  x0:0x00000000
       28215000	      2820	80002fc4	00000013	addi	x0,x0,0	  x0:0x00000000
       28225000	      2821	80002fc8	00b95193	srli	x3,x18,0xb	 x18:0x00000000  x3=0x00000000
       28235000	      2822	80002fcc	00521b33	sll	x22,x4,x5	  x4:0x00000000  x5:0xc0004fe2 x22=0x00000000
       28245000	      2823	80002fd0	00899bb3	sll	x23,x19,x8	 x19:0xad378000  x8:0x80009fc4 x23=0xd3780000
       28255000	      2824	80002fd4	413755b3	sra	x11,x14,x19	 x14:0x00000000 x19:0xad378000 x11=0x00000000
       28265000	      2825	80002fd8	f3be4a13	xori	x20,x28,-197	 x28:0x00000000 x20=0xffffff3b
       28275000	      2826	80002fdc	01c29013	slli	x0,x5,0x1c	  x5:0xc0004fe2
       28285000	      2827	80002fe0	01d6e463	bltu	x13,x29,80002fe8	 x13:0x00000000 x29:0x80009f48
       28295000	      2828	00000000	00000013	addi	x0,x0,0	  x0:0x00000000
       28305000	      2829	80002fe4	00000013	addi	x0,x0,0	  x0:0x00000000
       28315000	      2830	80002fe8	41f950b3	sra	x1,x18,x31	 x18:0x00000000 x31:0x80009fc5  x1=0x00000000
       28325000	      2831	80002fec	0150d513	srli	x10,x1,0x15	  x1:0x00000000 x10=0x00000000
       28335000	      2832	80002ff0	01b2ec63	bltu	x5,x27,80003008	  x5:0xc0004fe2 x27:0x00000000
       28345000	      2833	80002ff4	03666863	bltu	x12,x22,80003024	 x12:0xfc2593db x22:0x00000000
       28355000	      2834	80002ff8	64694013	xori	x0,x18,1606	 x18:0x00000000
       28365000	      2835	80002ffc	41078ab3	sub	x21,x15,x16	 x15:0x00000000 x16:0x00000000 x21=0x00000000
       28375000	      2836	80003000	6bcbca13	xori	x20,x23,1724	 x23:0xd3780000 x20=0xd37806bc
       28385000	      2837	80003004	03209863	bne	x1,x18,80003034	  x1:0x00000000 x18:0x00000000
       28395000	      2838	80003008	38ba7293	andi	x5,x20,907	 x20:0xd37806bc  x5=0x00000288
       28405000	      2839	8000300c	40dd0c33	sub	x24,x26,x13	 x26:0xfffffe57 x13:0x00000000 x24=0xfffffe57
       28415000	      2840	80003010	0374e863	bltu	x9,x23,80003040	  x9:0x000001a9 x23:0xd3780000
       28425000	      2841	00000000	00000013	addi	x0,x0,0	  x0:0x00000000
       28435000	      2842	8000303c	00000013	addi	x0,x0,0	  x0:0x00000000
       28445000	      2843	80003040	01b208b3	add	x17,x4,x27	  x4:0x00000000 x27:0x00000000 x17=0x00000000
       28455000	      2844	80003044	00d0cc33	xor	x24,x1,x13	  x1:0x00000000 x13:0x00000000 x24=0x00000000
       28465000	      2845	80003048	673a0593	addi	x11,x20,1651	 x20:0xd37806bc x11=0xd3780d2f
       28475000	      2846	8000304c	01d4ff33	and	x30,x9,x29	  x9:0x000001a9 x29:0x80009f48 x30=0x00000108
       28485000	      2847	80003050	40905a93	srai	x21,x0,0x9	  x0:0x00000000 x21=0x00000000
       28495000	      2848	80003054	83942c93	slti	x25,x8,-1991	  x8:0x80009fc4 x25=0x00000001
       28505000	      2849	80003058	bd272013	slti	x0,x14,-1070	 x14:0x00000000
       28515000	      2850	8000305c	7c1c6613	ori	x12,x24,1985	 x24:0x00000000 x12=0x000007c1
       28525000	      2851	80003060	d0e17d13	andi	x26,x2,-754	  x2:0x00000000 x26=0x00000000
       28535000	      2852	80003064	c0d44c13	xori	x24,x8,-1011	  x8:0x80009fc4 x24=0x7fff63c9
       28545000	      2853	80003068	00f4dd93	srli	x27,x9,0xf	  x9:0x000001a9 x27=0x00000000
       28555000	      2854	8000306c	00e16db3	or	x27,x2,x14	  x2:0x00000000 x14:0x00000000 x27=0x00000000
       28565000	      2855	80003070	2da52537	lui	x10,0x2da52	 x10=0x2da52000
       28575000	      2856	80003074	4091d713	srai	x14,x3,0x9	  x3:0x00000000 x14=0x00000000
       28585000	      2857	80003078	004f9a13	slli	x20,x31,0x4	 x31:0x80009fc5 x20=0x0009fc50
       28595000	      2858	8000307c	00a31513	slli	x10,x6,0xa	  x6:0x90304000 x10=0xc1000000
       28605000	      2859	80003080	74568837	lui	x16,0x74568	 x16=0x74568000
       28615000	      2860	80003084	00000013	addi	x0,x0,0	  x0:0x00000000
       28625000	      2861	80003088	00594d33	xor	x26,x18,x5	 x18:0x00000000  x5:0x00000288 x26=0x00000288
       28635000	      2862	8000308c	0092c663	blt	x5,x9,80003098	  x5:0x00000288  x9:0x000001a9
       28645000	      2863	80003090	81ca3c17	auipc	x24,0x81ca3	 x24=0x01ca608c
       28655000	      2864	80003094	01de9293	slli	x5,x29,0x1d	 x29:0x80009f48  x5=0x00000000
       28665000	      2865	80003098	00ea5f13	srli	x30,x20,0xe	 x20:0x0009fc50 x30=0x00000027
       28675000	      2866	8000309c	2ebca293	slti	x5,x25,747	 x25:0x00000001  x5=0x00000001
       28685000	      2867	800030a0	0152d9b3	srl	x19,x5,x21	  x5:0x00000001 x21:0x00000000 x19=0x00000001
       28695000	      2868	800030a4	14f58997	auipc	x19,0x14f58	 x19=0x94f5b0a0
       28705000	      2869	800030a8	00000013	addi	x0,x0,0	  x0:0x00000000
       28715000	      2870	800030ac	01174db3	xor	x27,x14,x17	 x14:0x00000000 x17:0x00000000 x27=0x00000000
       28725000	      2871	800030b0	01709a63	bne	x1,x23,800030c4	  x1:0x00000000 x23:0xd3780000
       28735000	      2872	00000000	00000013	addi	x0,x0,0	  x0:0x00000000
       28745000	      2873	800030c0	00000013	addi	x0,x0,0	  x0:0x00000000
       28755000	      2874	800030c4	00000013	addi	x0,x0,0	  x0:0x00000000
       28765000	      2875	800030c8	f7bf8f13	addi	x30,x31,-133	 x31:0x80009fc5 x30=0x80009f40
       28775000	      2876	800030cc	2ebe2613	slti	x12,x28,747	 x28:0x00000000 x12=0x00000001
       28785000	      2877	800030d0	28bee593	ori	x11,x29,651	 x29:0x80009f48 x11=0x80009fcb
       28795000	      2878	800030d4	90a8ed17	auipc	x26,0x90a8e	 x26=0x10a910d0
       28805000	      2879	800030d8	cba12613	slti	x12,x2,-838	  x2:0x00000000 x12=0x00000000
       28815000	      2880	800030dc	5f426613	ori	x12,x4,1524	  x4:0x00000000 x12=0x000005f4
       28825000	      2881	800030e0	16a8b713	sltiu	x14,x17,362	 x17:0x00000000 x14=0x00000001
       28835000	      2882	800030e4	00b123b3	slt	x7,x2,x11	  x2:0x00000000 x11:0x80009fcb  x7=0x00000000
       28845000	      2883	800030e8	7be0f893	andi	x17,x1,1982	  x1:0x00000000 x17=0x00000000
       28855000	      2884	800030ec	00615213	srli	x4,x2,0x6	  x2:0x00000000  x4=0x00000000
       28865000	      2885	800030f0	3ba26293	ori	x5,x4,954	  x4:0x00000000  x5=0x000003ba
       28875000	      2886	800030f4	408a8833	sub	x16,x21,x8	 x21:0x00000000  x8:0x80009fc4 x16=0x7fff603c
       28885000	      2887	800030f8	006c83b3	add	x7,x25,x6	 x25:0x00000001  x6:0x90304000  x7=0x90304001
       28895000	      2888	800030fc	c1cab393	sltiu	x7,x21,-996	 x21:0x00000000  x7=0x00000001
       28905000	      2889	80003100	01d75513	srli	x10,x14,0x1d	 x14:0x00000001 x10=0x00000000
       28915000	      2890	80003104	00006697	auipc	x13,0x6	 x13=0x80009100
       28925000	      2891	80003108	de068693	addi	x13,x13,-544	 x13:0x80009100 x13=0x80008ee0
       28935000	      2892	8000310c	41eede13	srai	x28,x29,0x1e	 x29:0x80009f48 x28=0xfffffffe
       28945000	      2893	80003110	03e68223	sb	x30,36(x13)	 x13:0x80008ee0 x30:0x80009f40 PA:0x80008f04
       28955000	      2894	80003114	fc268c83	lb	x25,-62(x13)	 x13:0x80008ee0 x25=0x00000000 PA:0x80008ea2
       28965000	      2895	80003118	85026913	ori	x18,x4,-1968	  x4:0x00000000 x18=0xfffff850
       28975000	      2896	8000311c	fc86cb03	lbu	x22,-56(x13)	 x13:0x80008ee0 x22=0x00000000 PA:0x80008ea8
       28985000	      2897	80003120	ff06c183	lbu	x3,-16(x13)	 x13:0x80008ee0  x3=0x00000000 PA:0x80008ed0
       28995000	      2898	80003124	00ad8933	add	x18,x27,x10	 x27:0x00000000 x10:0x00000000 x18=0x00000000
       29005000	      2899	80003128	01fc2a33	slt	x20,x24,x31	 x24:0x01ca608c x31:0x80009fc5 x20=0x00000000
       29015000	      2900	8000312c	4af7fe13	andi	x28,x15,1199	 x15:0x00000000 x28=0x00000000
       29025000	      2901	80003130	00000013	addi	x0,x0,0	  x0:0x00000000
       29035000	      2902	80003134	0016c5b3	xor	x11,x13,x1	 x13:0x80008ee0  x1:0x00000000 x11=0x80008ee0
       29045000	      2903	80003138	0051d293	srli	x5,x3,0x5	  x3:0x00000000  x5=0x00000000
       29055000	      2904	8000313c	fc26c983	lbu	x19,-62(x13)	 x13:0x80008ee0 x19=0x00000000 PA:0x80008ea2
       29065000	      2905	80003140	002b00b3	add	x1,x22,x2	 x22:0x00000000  x2:0x00000000  x1=0x00000000
       29075000	      2906	80003144	00000013	addi	x0,x0,0	  x0:0x00000000
       29085000	      2907	80003148	010680a3	sb	x16,1(x13)	 x13:0x80008ee0 x16:0x7fff603c PA:0x80008ee1
       29095000	      2908	8000314c	03768aa3	sb	x23,53(x13)	 x13:0x80008ee0 x23:0xd3780000 PA:0x80008f15
       29105000	      2909	80003150	01f6c203	lbu	x4,31(x13)	 x13:0x80008ee0  x4=0x00000000 PA:0x80008eff
       29115000	      2910	00000000	00000013	addi	x0,x0,0	  x0:0x00000000
       29125000	      2911	80003154	00405113	srli	x2,x0,0x4	  x0:0x00000000  x2=0x00000000
       29135000	      2912	80003158	fdc68c03	lb	x24,-36(x13)	 x13:0x80008ee0 x24=0x00000000 PA:0x80008ebc
       29145000	      2913	8000315c	414cd1b3	sra	x3,x25,x20	 x25:0x00000000 x20:0x00000000  x3=0x00000000
       29155000	      2914	80003160	41d4d133	sra	x2,x9,x29	  x9:0x000001a9 x29:0x80009f48  x2=0x00000001
       29165000	      2915	80003164	0cb5b393	sltiu	x7,x11,203	 x11:0x80008ee0  x7=0x00000000
       29175000	      2916	80003168	01286033	or	x0,x16,x18	 x16:0x7fff603c x18:0x00000000
       29185000	      2917	8000316c	40605613	srai	x12,x0,0x6	  x0:0x00000000 x12=0x00000000
       29195000	      2918	80003170	0086c983	lbu	x19,8(x13)	 x13:0x80008ee0 x19=0x00000000 PA:0x80008ee8
       29205000	      2919	00000000	00000013	addi	x0,x0,0	  x0:0x00000000
       29215000	      2920	80003174	01309233	sll	x4,x1,x19	  x1:0x00000000 x19:0x00000000  x4=0x00000000
       29225000	      2921	80003178	00000013	addi	x0,x0,0	  x0:0x00000000
       29235000	      2922	8000317c	ff2681a3	sb	x18,-29(x13)	 x13:0x80008ee0 x18:0x00000000 PA:0x80008ec3
       29245000	      2923	80003180	00000013	addi	x0,x0,0	  x0:0x00000000
       29255000	      2924	80003184	00be9f93	slli	x31,x29,0xb	 x29:0x80009f48 x31=0x04fa4000
       29265000	      2925	80003188	be676fb7	lui	x31,0xbe676	 x31=0xbe676000
       29275000	      2926	8000318c	fe96ca03	lbu	x20,-23(x13)	 x13:0x80008ee0 x20=0x00000000 PA:0x80008ec9
       29285000	      2927	80003190	7c552bb7	lui	x23,0x7c552	 x23=0x7c552000
       29295000	      2928	80003194	00b4cab3	xor	x21,x9,x11	  x9:0x000001a9 x11:0x80008ee0 x21=0x80008f49
       29305000	      2929	80003198	3131dc17	auipc	x24,0x3131d	 x24=0xb1320194
       29315000	      2930	8000319c	ea53b313	sltiu	x6,x7,-347	  x7:0x00000000  x6=0x00000001
       29325000	      2931	800031a0	35eb8b93	addi	x23,x23,862	 x23:0x7c552000 x23=0x7c55235e
       29335000	      2932	800031a4	f75acd13	xori	x26,x21,-139	 x21:0x80008f49 x26=0x7fff703c
       29345000	      2933	800031a8	016f1513	slli	x10,x30,0x16	 x30:0x80009f40 x10=0xd0000000
       29355000	      2934	800031ac	00268c83	lb	x25,2(x13)	 x13:0x80008ee0 x25=0x00000000 PA:0x80008ee2
       29365000	      2935	800031b0	ee2e3c97	auipc	x25,0xee2e3	 x25=0x6e2e61ac
       29375000	      2936	800031b4	27ef2fb7	lui	x31,0x27ef2	 x31=0x27ef2000
       29385000	      2937	800031b8	02545263	bge	x8,x5,800031dc	  x8:0x80009fc4  x5:0x00000000
       29395000	      2938	800031bc	01627463	bgeu	x4,x22,800031c4	  x4:0x00000000 x22:0x00000000
       29405000	      2939	00000000	00000013	addi	x0,x0,0	  x0:0x00000000
       29415000	      2940	800031c0	00000013	addi	x0,x0,0	  x0:0x00000000
       29425000	      2941	800031c4	8c5b4a93	xori	x21,x22,-1851	 x22:0x00000000 x21=0xfffff8c5
       29435000	      2942	800031c8	35f22593	slti	x11,x4,863	  x4:0x00000000 x11=0x00000001
       29445000	      2943	800031cc	00c3a6b3	slt	x13,x7,x12	  x7:0x00000000 x12:0x00000000 x13=0x00000000
       29455000	      2944	800031d0	407ed533	sra	x10,x29,x7	 x29:0x80009f48  x7:0x00000000 x10=0x80009f48
       29465000	      2945	800031d4	0371dc63	bge	x3,x23,8000320c	  x3:0x00000000 x23:0x7c55235e
       29475000	      2946	800031d8	009a7663	bgeu	x20,x9,800031e4	 x20:0x00000000  x9:0x000001a9
       29485000	      2947	800031dc	a02b2b93	slti	x23,x22,-1534	 x22:0x00000000 x23=0x00000000
       29495000	      2948	800031e0	01a80a63	beq	x16,x26,800031f4	 x16:0x7fff603c x26:0x7fff703c
       29505000	      2949	800031e4	0359e463	bltu	x19,x21,8000320c	 x19:0x00000000 x21:0xfffff8c5
       29515000	      2950	00000000	00000013	addi	x0,x0,0	  x0:0x00000000
       29525000	      2951	80003208	00000013	addi	x0,x0,0	  x0:0x00000000
       29535000	      2952	8000320c	00a48c63	beq	x9,x10,80003224	  x9:0x000001a9 x10:0x80009f48
       29545000	      2953	80003210	00c39f33	sll	x30,x7,x12	  x7:0x00000000 x12:0x00000000 x30=0x00000000
       29555000	      2954	80003214	01597b33	and	x22,x18,x21	 x18:0x00000000 x21:0xfffff8c5 x22=0x00000000
       29565000	      2955	80003218	03c8e863	bltu	x17,x28,80003248	 x17:0x00000000 x28:0x00000000
       29575000	      2956	8000321c	00000013	addi	x0,x0,0	  x0:0x00000000
       29585000	      2957	80003220	010a34b3	sltu	x9,x20,x16	 x20:0x00000000 x16:0x7fff603c  x9=0x00000001
       29595000	      2958	80003224	01144463	blt	x8,x17,8000322c	  x8:0x80009fc4 x17:0x00000000
       29605000	      2959	00000000	00000013	addi	x0,x0,0	  x0:0x00000000
       29615000	      2960	80003228	00000013	addi	x0,x0,0	  x0:0x00000000
       29625000	      2961	8000322c	0306fe63	bgeu	x13,x16,80003268	 x13:0x00000000 x16:0x7fff603c
       29635000	      2962	80003230	022b4863	blt	x22,x2,80003260	 x22:0x00000000  x2:0x00000001
       29645000	      2963	00000000	00000013	addi	x0,x0,0	  x0:0x00000000
       29655000	      2964	8000325c	00000013	addi	x0,x0,0	  x0:0x00000000
       29665000	      2965	80003260	006c1713	slli	x14,x24,0x6	 x24:0xb1320194 x14=0x4c806500
       29675000	      2966	80003264	001ce1b3	or	x3,x25,x1	 x25:0x6e2e61ac  x1:0x00000000  x3=0x6e2e61ac
       29685000	      2967	80003268	01012193	slti	x3,x2,16	  x2:0x00000001  x3=0x00000001
       29695000	      2968	8000326c	00000013	addi	x0,x0,0	  x0:0x00000000
       29705000	      2969	80003270	406d0333	sub	x6,x26,x6	 x26:0x7fff703c  x6:0x00000001  x6=0x7fff703b
       29715000	      2970	80003274	f50b6693	ori	x13,x22,-176	 x22:0x00000000 x13=0xffffff50
       29725000	      2971	80003278	3fd0ef93	ori	x31,x1,1021	  x1:0x00000000 x31=0x000003fd
       29735000	      2972	8000327c	b674fb13	andi	x22,x9,-1177	  x9:0x00000001 x22=0x00000001
       29745000	      2973	80003280	0006c5b3	xor	x11,x13,x0	 x13:0xffffff50  x0:0x00000000 x11=0xffffff50
       29755000	      2974	80003284	01364ab3	xor	x21,x12,x19	 x12:0x00000000 x19:0x00000000 x21=0x00000000
       29765000	      2975	80003288	0313e863	bltu	x7,x17,800032b8	  x7:0x00000000 x17:0x00000000
       29775000	      2976	8000328c	d41ebd13	sltiu	x26,x29,-703	 x29:0x80009f48 x26=0x00000001
       29785000	      2977	80003290	0233dc63	bge	x7,x3,800032c8	  x7:0x00000000  x3:0x00000001
       29795000	      2978	80003294	01b34133	xor	x2,x6,x27	  x6:0x7fff703b x27:0x00000000  x2=0x7fff703b
       29805000	      2979	80003298	4155dbb3	sra	x23,x11,x21	 x11:0xffffff50 x21:0x00000000 x23=0xffffff50
       29815000	      2980	8000329c	028ac063	blt	x21,x8,800032bc	 x21:0x00000000  x8:0x80009fc4
       29825000	      2981	800032a0	01dd9013	slli	x0,x27,0x1d	 x27:0x00000000
       29835000	      2982	800032a4	57104897	auipc	x17,0x57104	 x17=0xd71072a0
       29845000	      2983	800032a8	bd99f013	andi	x0,x19,-1063	 x19:0x00000000
       29855000	      2984	800032ac	05a08063	beq	x1,x26,800032ec	  x1:0x00000000 x26:0x00000001
       29865000	      2985	800032b0	41dd5913	srai	x18,x26,0x1d	 x26:0x00000001 x18=0x00000000
       29875000	      2986	800032b4	012a0b33	add	x22,x20,x18	 x20:0x00000000 x18:0x00000000 x22=0x00000000
       29885000	      2987	800032b8	01fed463	bge	x29,x31,800032c0	 x29:0x80009f48 x31:0x000003fd
       29895000	      2988	800032bc	00e6d463	bge	x13,x14,800032c4	 x13:0xffffff50 x14:0x4c806500
       29905000	      2989	800032c0	f4412517	auipc	x10,0xf4412	 x10=0x744152bc
       29915000	      2990	800032c4	2f106b93	ori	x23,x0,753	  x0:0x00000000 x23=0x000002f1
       29925000	      2991	800032c8	01689833	sll	x16,x17,x22	 x17:0xd71072a0 x22:0x00000000 x16=0xd71072a0
       29935000	      2992	800032cc	019cd013	srli	x0,x25,0x19	 x25:0x6e2e61ac
       29945000	      2993	800032d0	00e99633	sll	x12,x19,x14	 x19:0x00000000 x14:0x4c806500 x12=0x00000000
       29955000	      2994	800032d4	013fb1b3	sltu	x3,x31,x19	 x31:0x000003fd x19:0x00000000  x3=0x00000000
       29965000	      2995	800032d8	0169b9b3	sltu	x19,x19,x22	 x19:0x00000000 x22:0x00000000 x19=0x00000000
       29975000	      2996	800032dc	01000bb3	add	x23,x0,x16	  x0:0x00000000 x16:0xd71072a0 x23=0xd71072a0
       29985000	      2997	800032e0	4a217813	andi	x16,x2,1186	  x2:0x7fff703b x16=0x00000022
       29995000	      2998	800032e4	00000013	addi	x0,x0,0	  x0:0x00000000
       30005000	      2999	800032e8	5389b293	sltiu	x5,x19,1336	 x19:0x00000000  x5=0x00000001
       30015000	      3000	800032ec	00628a63	beq	x5,x6,80003300	  x5:0x00000001  x6:0x7fff703b
       30025000	      3001	800032f0	01e4d863	bge	x9,x30,80003300	  x9:0x00000001 x30:0x00000000
       30035000	      3002	00000000	00000013	addi	x0,x0,0	  x0:0x00000000
       30045000	      3003	800032fc	00000013	addi	x0,x0,0	  x0:0x00000000
       30055000	      3004	80003300	02b6e263	bltu	x13,x11,80003324	 x13:0xffffff50 x11:0xffffff50
       30065000	      3005	80003304	41a85e33	sra	x28,x16,x26	 x16:0x00000022 x26:0x00000001 x28=0x00000011
       30075000	      3006	80003308	03aa1863	bne	x20,x26,80003338	 x20:0x00000000 x26:0x00000001
       30085000	      3007	00000000	00000013	addi	x0,x0,0	  x0:0x00000000
       30095000	      3008	80003334	00000013	addi	x0,x0,0	  x0:0x00000000
       30105000	      3009	80003338	40c08933	sub	x18,x1,x12	  x1:0x00000000 x12:0x00000000 x18=0x00000000
       30115000	      3010	8000333c	25de6f93	ori	x31,x28,605	 x28:0x00000011 x31=0x0000025d
       30125000	      3011	80003340	0012b933	sltu	x18,x5,x1	  x5:0x00000001  x1:0x00000000 x18=0x00000000
       30135000	      3012	80003344	01da2633	slt	x12,x20,x29	 x20:0x00000000 x29:0x80009f48 x12=0x00000000
       30145000	      3013	80003348	01e2c6b3	xor	x13,x5,x30	  x5:0x00000001 x30:0x00000000 x13=0x00000001
       30155000	      3014	8000334c	00691093	slli	x1,x18,0x6	 x18:0x00000000  x1=0x00000000
       30165000	      3015	80003350	40b98833	sub	x16,x19,x11	 x19:0x00000000 x11:0xffffff50 x16=0x000000b0
       30175000	      3016	80003354	03c18863	beq	x3,x28,80003384	  x3:0x00000000 x28:0x00000011
       30185000	      3017	80003358	4191d933	sra	x18,x3,x25	  x3:0x00000000 x25:0x6e2e61ac x18=0x00000000
       30195000	      3018	8000335c	f86dc593	xori	x11,x27,-122	 x27:0x00000000 x11=0xffffff86
       30205000	      3019	80003360	00000013	addi	x0,x0,0	  x0:0x00000000
       30215000	      3020	80003364	01701db3	sll	x27,x0,x23	  x0:0x00000000 x23:0xd71072a0 x27=0x00000000
       30225000	      3021	80003368	00620833	add	x16,x4,x6	  x4:0x00000000  x6:0x7fff703b x16=0x7fff703b
       30235000	      3022	8000336c	0137fb33	and	x22,x15,x19	 x15:0x00000000 x19:0x00000000 x22=0x00000000
       30245000	      3023	80003370	03c01063	bne	x0,x28,80003390	  x0:0x00000000 x28:0x00000011
       30255000	      3024	00000000	00000013	addi	x0,x0,0	  x0:0x00000000
       30265000	      3025	8000338c	00000013	addi	x0,x0,0	  x0:0x00000000
       30275000	      3026	80003390	00000013	addi	x0,x0,0	  x0:0x00000000
       30285000	      3027	80003394	00d8c463	blt	x17,x13,8000339c	 x17:0xd71072a0 x13:0x00000001
       30295000	      3028	00000000	00000013	addi	x0,x0,0	  x0:0x00000000
       30305000	      3029	80003398	00000013	addi	x0,x0,0	  x0:0x00000000
       30315000	      3030	8000339c	4169d2b3	sra	x5,x19,x22	 x19:0x00000000 x22:0x00000000  x5=0x00000000
       30325000	      3031	800033a0	043be063	bltu	x23,x3,800033e0	 x23:0xd71072a0  x3:0x00000000
       30335000	      3032	800033a4	bee0a013	slti	x0,x1,-1042	  x1:0x00000000
       30345000	      3033	800033a8	18510f97	auipc	x31,0x18510	 x31=0x985133a4
       30355000	      3034	800033ac	01cdccb3	xor	x25,x27,x28	 x27:0x00000000 x28:0x00000011 x25=0x00000011
       30365000	      3035	800033b0	a5e02593	slti	x11,x0,-1442	  x0:0x00000000 x11=0x00000000
       30375000	      3036	800033b4	6eb6cd13	xori	x26,x13,1771	 x13:0x00000001 x26=0x000006ea
       30385000	      3037	800033b8	011e73b3	and	x7,x28,x17	 x28:0x00000011 x17:0xd71072a0  x7=0x00000000
       30395000	      3038	800033bc	01415a63	bge	x2,x20,800033d0	  x2:0x7fff703b x20:0x00000000
       30405000	      3039	00000000	00000013	addi	x0,x0,0	  x0:0x00000000
       30415000	      3040	800033cc	00000013	addi	x0,x0,0	  x0:0x00000000
       30425000	      3041	800033d0	408300b3	sub	x1,x6,x8	  x6:0x7fff703b  x8:0x80009fc4  x1=0xfffed077
       30435000	      3042	800033d4	9a286913	ori	x18,x16,-1630	 x16:0x7fff703b x18=0xfffff9bb
       30445000	      3043	800033d8	01e485b3	add	x11,x9,x30	  x9:0x00000001 x30:0x00000000 x11=0x00000001
       30455000	      3044	800033dc	060ca993	slti	x19,x25,96	 x25:0x00000011 x19=0x00000001
       30465000	      3045	800033e0	0211e863	bltu	x3,x1,80003410	  x3:0x00000000  x1:0xfffed077
       30475000	      3046	00000000	00000013	addi	x0,x0,0	  x0:0x00000000
       30485000	      3047	8000340c	00000013	addi	x0,x0,0	  x0:0x00000000
       30495000	      3048	80003410	00e0da33	srl	x20,x1,x14	  x1:0xfffed077 x14:0x4c806500 x20=0xfffed077
       30505000	      3049	80003414	a78a7c37	lui	x24,0xa78a7	 x24=0xa78a7000
       30515000	      3050	80003418	01f2ea63	bltu	x5,x31,8000342c	  x5:0x00000000 x31:0x985133a4
       30525000	      3051	00000000	00000013	addi	x0,x0,0	  x0:0x00000000
       30535000	      3052	80003428	00000013	addi	x0,x0,0	  x0:0x00000000
       30545000	      3053	8000342c	017bdc33	srl	x24,x23,x23	 x23:0xd71072a0 x23:0xd71072a0 x24=0xd71072a0
       30555000	      3054	80003430	0940f813	andi	x16,x1,148	  x1:0xfffed077 x16=0x00000014
       30565000	      3055	80003434	05b00263	beq	x0,x27,80003478	  x0:0x00000000 x27:0x00000000
       30575000	      3056	00000000	00000013	addi	x0,x0,0	  x0:0x00000000
       30585000	      3057	80003474	00000013	addi	x0,x0,0	  x0:0x00000000
       30595000	      3058	80003478	38f95017	auipc	x0,0x38f95	
       30605000	      3059	8000347c	406dd693	srai	x13,x27,0x6	 x27:0x00000000 x13=0x00000000
       30615000	      3060	80003480	01506fb3	or	x31,x0,x21	  x0:0x00000000 x21:0x00000000 x31=0x00000000
       30625000	      3061	80003484	00000013	addi	x0,x0,0	  x0:0x00000000
       30635000	      3062	80003488	00974463	blt	x14,x9,80003490	 x14:0x4c806500  x9:0x00000001
       30645000	      3063	8000348c	76f5c313	xori	x6,x11,1903	 x11:0x00000001  x6=0x0000076e
       30655000	      3064	80003490	41b5de13	srai	x28,x11,0x1b	 x11:0x00000001 x28=0x00000000
       30665000	      3065	80003494	00000013	addi	x0,x0,0	  x0:0x00000000
       30675000	      3066	80003498	d5349017	auipc	x0,0xd5349	
       30685000	      3067	8000349c	01ed64b3	or	x9,x26,x30	 x26:0x000006ea x30:0x00000000  x9=0x000006ea
       30695000	      3068	800034a0	403bd893	srai	x17,x23,0x3	 x23:0xd71072a0 x17=0xfae20e54
       30705000	      3069	800034a4	01919d33	sll	x26,x3,x25	  x3:0x00000000 x25:0x00000011 x26=0x00000000
       30715000	      3070	800034a8	0124b5b3	sltu	x11,x9,x18	  x9:0x000006ea x18:0xfffff9bb x11=0x00000001
       30725000	      3071	800034ac	00bf45b3	xor	x11,x30,x11	 x30:0x00000000 x11:0x00000001 x11=0x00000001
       30735000	      3072	800034b0	409dd6b3	sra	x13,x27,x9	 x27:0x00000000  x9:0x000006ea x13=0x00000000
       30745000	      3073	800034b4	00fbdc63	bge	x23,x15,800034cc	 x23:0xd71072a0 x15:0x00000000
       30755000	      3074	800034b8	0128f033	and	x0,x17,x18	 x17:0xfae20e54 x18:0xfffff9bb
       30765000	      3075	800034bc	7184c713	xori	x14,x9,1816	  x9:0x000006ea x14=0x000001f2
       30775000	      3076	800034c0	018b9333	sll	x6,x23,x24	 x23:0xd71072a0 x24:0xd71072a0  x6=0xd71072a0
       30785000	      3077	800034c4	00fcddb3	srl	x27,x25,x15	 x25:0x00000011 x15:0x00000000 x27=0x00000011
       30795000	      3078	800034c8	003bc933	xor	x18,x23,x3	 x23:0xd71072a0  x3:0x00000000 x18=0xd71072a0
       30805000	      3079	800034cc	03737263	bgeu	x6,x23,800034f0	  x6:0xd71072a0 x23:0xd71072a0
       30815000	      3080	00000000	00000013	addi	x0,x0,0	  x0:0x00000000
       30825000	      3081	800034ec	00000013	addi	x0,x0,0	  x0:0x00000000
       30835000	      3082	800034f0	006de463	bltu	x27,x6,800034f8	 x27:0x00000011  x6:0xd71072a0
       30845000	      3083	00000000	00000013	addi	x0,x0,0	  x0:0x00000000
       30855000	      3084	800034f4	00000013	addi	x0,x0,0	  x0:0x00000000
       30865000	      3085	800034f8	00b6d6b3	srl	x13,x13,x11	 x13:0x00000000 x11:0x00000001 x13=0x00000000
       30875000	      3086	800034fc	407855b3	sra	x11,x16,x7	 x16:0x00000014  x7:0x00000000 x11=0x00000014
       30885000	      3087	80003500	1c764213	xori	x4,x12,455	 x12:0x00000000  x4=0x000001c7
       30895000	      3088	80003504	00c684b3	add	x9,x13,x12	 x13:0x00000000 x12:0x00000000  x9=0x00000000
       30905000	      3089	80003508	003b1013	slli	x0,x22,0x3	 x22:0x00000000
       30915000	      3090	8000350c	02c37863	bgeu	x6,x12,8000353c	  x6:0xd71072a0 x12:0x00000000
       30925000	      3091	00000000	00000013	addi	x0,x0,0	  x0:0x00000000
       30935000	      3092	80003538	00000013	addi	x0,x0,0	  x0:0x00000000
       30945000	      3093	8000353c	00051f33	sll	x30,x10,x0	 x10:0x744152bc  x0:0x00000000 x30=0x744152bc
       30955000	      3094	80003540	00ac5893	srli	x17,x24,0xa	 x24:0xd71072a0 x17=0x0035c41c
       30965000	      3095	80003544	017611b3	sll	x3,x12,x23	 x12:0x00000000 x23:0xd71072a0  x3=0x00000000
       30975000	      3096	80003548	01836463	bltu	x6,x24,80003550	  x6:0xd71072a0 x24:0xd71072a0
       30985000	      3097	8000354c	409d0233	sub	x4,x26,x9	 x26:0x00000000  x9:0x00000000  x4=0x00000000
       30995000	      3098	80003550	02bee463	bltu	x29,x11,80003578	 x29:0x80009f48 x11:0x00000014
       31005000	      3099	80003554	0098db33	srl	x22,x17,x9	 x17:0x0035c41c  x9:0x00000000 x22=0x0035c41c
       31015000	      3100	80003558	404e84b3	sub	x9,x29,x4	 x29:0x80009f48  x4:0x00000000  x9=0x80009f48
       31025000	      3101	8000355c	41605333	sra	x6,x0,x22	  x0:0x00000000 x22:0x0035c41c  x6=0x00000000
       31035000	      3102	80003560	01dea733	slt	x14,x29,x29	 x29:0x80009f48 x29:0x80009f48 x14=0x00000000
       31045000	      3103	80003564	02ffee63	bltu	x31,x15,800035a0	 x31:0x00000000 x15:0x00000000
       31055000	      3104	80003568	01af1f93	slli	x31,x30,0x1a	 x30:0x744152bc x31=0xf0000000
       31065000	      3105	8000356c	0033ad33	slt	x26,x7,x3	  x7:0x00000000  x3:0x00000000 x26=0x00000000
       31075000	      3106	80003570	01176a33	or	x20,x14,x17	 x14:0x00000000 x17:0x0035c41c x20=0x0035c41c
       31085000	      3107	80003574	e46c2d13	slti	x26,x24,-442	 x24:0xd71072a0 x26=0x00000001
       31095000	      3108	80003578	419cd833	sra	x16,x25,x25	 x25:0x00000011 x25:0x00000011 x16=0x00000000
       31105000	      3109	8000357c	01409f13	slli	x30,x1,0x14	  x1:0xfffed077 x30=0x07700000
       31115000	      3110	80003580	efd9b4b7	lui	x9,0xefd9b	  x9=0xefd9b000
       31125000	      3111	80003584	03dc6863	bltu	x24,x29,800035b4	 x24:0xd71072a0 x29:0x80009f48
       31135000	      3112	80003588	fabe5837	lui	x16,0xfabe5	 x16=0xfabe5000
       31145000	      3113	8000358c	00675c63	bge	x14,x6,800035a4	 x14:0x00000000  x6:0x00000000
       31155000	      3114	00000000	00000013	addi	x0,x0,0	  x0:0x00000000
       31165000	      3115	800035a0	00000013	addi	x0,x0,0	  x0:0x00000000
       31175000	      3116	800035a4	ddb56493	ori	x9,x10,-549	 x10:0x744152bc  x9=0xffffffff
       31185000	      3117	800035a8	40df0b33	sub	x22,x30,x13	 x30:0x07700000 x13:0x00000000 x22=0x07700000
       31195000	      3118	800035ac	03335863	bge	x6,x19,800035dc	  x6:0x00000000 x19:0x00000001
       31205000	      3119	800035b0	01e62233	slt	x4,x12,x30	 x12:0x00000000 x30:0x07700000  x4=0x00000001
       31215000	      3120	800035b4	0015da33	srl	x20,x11,x1	 x11:0x00000014  x1:0xfffed077 x20=0x00000000
       31225000	      3121	800035b8	037b4c63	blt	x22,x23,800035f0	 x22:0x07700000 x23:0xd71072a0
       31235000	      3122	800035bc	00535e13	srli	x28,x6,0x5	  x6:0x00000000 x28=0x00000000
       31245000	      3123	800035c0	b43d0c13	addi	x24,x26,-1213	 x26:0x00000001 x24=0xfffffb44
       31255000	      3124	800035c4	0184fe33	and	x28,x9,x24	  x9:0xffffffff x24:0xfffffb44 x28=0xfffffb44
       31265000	      3125	800035c8	00e1b2b3	sltu	x5,x3,x14	  x3:0x00000000 x14:0x00000000  x5=0x00000000
       31275000	      3126	800035cc	04301663	bne	x0,x3,80003618	  x0:0x00000000  x3:0x00000000
       31285000	      3127	800035d0	0139e663	bltu	x19,x19,800035dc	 x19:0x00000001 x19:0x00000001
       31295000	      3128	800035d4	01131463	bne	x6,x17,800035dc	  x6:0x00000000 x17:0x0035c41c
       31305000	      3129	00000000	00000013	addi	x0,x0,0	  x0:0x00000000
       31315000	      3130	800035d8	00000013	addi	x0,x0,0	  x0:0x00000000
       31325000	      3131	800035dc	8fb90f13	addi	x30,x18,-1797	 x18:0xd71072a0 x30=0xd7106b9b
       31335000	      3132	800035e0	4119d913	srai	x18,x19,0x11	 x19:0x00000001 x18=0x00000000
       31345000	      3133	800035e4	4043dcb3	sra	x25,x7,x4	  x7:0x00000000  x4:0x00000001 x25=0x00000000
       31355000	      3134	800035e8	00aefa63	bgeu	x29,x10,800035fc	 x29:0x80009f48 x10:0x744152bc
       31365000	      3135	00000000	00000013	addi	x0,x0,0	  x0:0x00000000
       31375000	      3136	800035f8	00000013	addi	x0,x0,0	  x0:0x00000000
       31385000	      3137	800035fc	025bec63	bltu	x23,x5,80003634	 x23:0xd71072a0  x5:0x00000000
       31395000	      3138	80003600	00d88a63	beq	x17,x13,80003614	 x17:0x0035c41c x13:0x00000000
       31405000	      3139	80003604	0046d233	srl	x4,x13,x4	 x13:0x00000000  x4:0x00000001  x4=0x00000000
       31415000	      3140	80003608	00000013	addi	x0,x0,0	  x0:0x00000000
       31425000	      3141	8000360c	7b505b37	lui	x22,0x7b505	 x22=0x7b505000
       31435000	      3142	80003610	78663e13	sltiu	x28,x12,1926	 x12:0x00000000 x28=0x00000001
       31445000	      3143	80003614	0173f463	bgeu	x7,x23,8000361c	  x7:0x00000000 x23:0xd71072a0
       31455000	      3144	80003618	aee8e813	ori	x16,x17,-1298	 x17:0x0035c41c x16=0xfffffefe
       31465000	      3145	8000361c	004bc8b3	xor	x17,x23,x4	 x23:0xd71072a0  x4:0x00000000 x17=0xd71072a0
       31475000	      3146	80003620	00f68733	add	x14,x13,x15	 x13:0x00000000 x15:0x00000000 x14=0x00000000
       31485000	      3147	80003624	05ccd063	bge	x25,x28,80003664	 x25:0x00000000 x28:0x00000001
       31495000	      3148	80003628	6fc0c193	xori	x3,x1,1788	  x1:0xfffed077  x3=0xfffed68b
       31505000	      3149	8000362c	004d4863	blt	x26,x4,8000363c	 x26:0x00000001  x4:0x00000000
       31515000	      3150	80003630	006ed463	bge	x29,x6,80003638	 x29:0x80009f48  x6:0x00000000
       31525000	      3151	80003634	41e85333	sra	x6,x16,x30	 x16:0xfffffefe x30:0xd7106b9b  x6=0xffffffff
       31535000	      3152	80003638	01d69393	slli	x7,x13,0x1d	 x13:0x00000000  x7=0x00000000
       31545000	      3153	8000363c	aa703113	sltiu	x2,x0,-1369	  x0:0x00000000  x2=0x00000001
       31555000	      3154	80003640	e1268e13	addi	x28,x13,-494	 x13:0x00000000 x28=0xfffffe12
       31565000	      3155	80003644	9eea00b7	lui	x1,0x9eea0	  x1=0x9eea0000
       31575000	      3156	80003648	03dbe863	bltu	x23,x29,80003678	 x23:0xd71072a0 x29:0x80009f48
       31585000	      3157	8000364c	001d0e63	beq	x26,x1,80003668	 x26:0x00000001  x1:0x9eea0000
       31595000	      3158	80003650	00000013	addi	x0,x0,0	  x0:0x00000000
       31605000	      3159	80003654	017c9833	sll	x16,x25,x23	 x25:0x00000000 x23:0xd71072a0 x16=0x00000000
       31615000	      3160	80003658	00dad993	srli	x19,x21,0xd	 x21:0x00000000 x19=0x00000000
       31625000	      3161	8000365c	016d86b3	add	x13,x27,x22	 x27:0x00000011 x22:0x7b505000 x13=0x7b505011
       31635000	      3162	80003660	41655593	srai	x11,x10,0x16	 x10:0x744152bc x11=0x000001d1
       31645000	      3163	80003664	0399f263	bgeu	x19,x25,80003688	 x19:0x00000000 x25:0x00000000
       31655000	      3164	00000000	00000013	addi	x0,x0,0	  x0:0x00000000
       31665000	      3165	80003684	00000013	addi	x0,x0,0	  x0:0x00000000
       31675000	      3166	80003688	ea3a8113	addi	x2,x21,-349	 x21:0x00000000  x2=0xfffffea3
       31685000	      3167	8000368c	00949663	bne	x9,x9,80003698	  x9:0xffffffff  x9:0xffffffff
       31695000	      3168	80003690	02a38863	beq	x7,x10,800036c0	  x7:0x00000000 x10:0x744152bc
       31705000	      3169	80003694	0165aa33	slt	x20,x11,x22	 x11:0x000001d1 x22:0x7b505000 x20=0x00000001
       31715000	      3170	80003698	b1d99737	lui	x14,0xb1d99	 x14=0xb1d99000
       31725000	      3171	8000369c	00b0fa63	bgeu	x1,x11,800036b0	  x1:0x9eea0000 x11:0x000001d1
       31735000	      3172	00000000	00000013	addi	x0,x0,0	  x0:0x00000000
       31745000	      3173	800036ac	00000013	addi	x0,x0,0	  x0:0x00000000
       31755000	      3174	800036b0	01c01463	bne	x0,x28,800036b8	  x0:0x00000000 x28:0xfffffe12
       31765000	      3175	00000000	00000013	addi	x0,x0,0	  x0:0x00000000
       31775000	      3176	800036b4	00000013	addi	x0,x0,0	  x0:0x00000000
       31785000	      3177	800036b8	08e24613	xori	x12,x4,142	  x4:0x00000000 x12=0x0000008e
       31795000	      3178	800036bc	02a31863	bne	x6,x10,800036ec	  x6:0xffffffff x10:0x744152bc
       31805000	      3179	00000000	00000013	addi	x0,x0,0	  x0:0x00000000
       31815000	      3180	800036e8	00000013	addi	x0,x0,0	  x0:0x00000000
       31825000	      3181	800036ec	00649913	slli	x18,x9,0x6	  x9:0xffffffff x18=0xffffffc0
       31835000	      3182	800036f0	03cd7263	bgeu	x26,x28,80003714	 x26:0x00000001 x28:0xfffffe12
       31845000	      3183	800036f4	01027033	and	x0,x4,x16	  x4:0x00000000 x16:0x00000000
       31855000	      3184	800036f8	41ed0533	sub	x10,x26,x30	 x26:0x00000001 x30:0xd7106b9b x10=0x28ef9466
       31865000	      3185	800036fc	019b5013	srli	x0,x22,0x19	 x22:0x7b505000
       31875000	      3186	80003700	00d7e1b3	or	x3,x15,x13	 x15:0x00000000 x13:0x7b505011  x3=0x7b505011
       31885000	      3187	80003704	01404bb3	xor	x23,x0,x20	  x0:0x00000000 x20:0x00000001 x23=0x00000001
       31895000	      3188	80003708	0176b533	sltu	x10,x13,x23	 x13:0x7b505011 x23:0x00000001 x10=0x00000000
       31905000	      3189	8000370c	9842bb93	sltiu	x23,x5,-1660	  x5:0x00000000 x23=0x00000001
       31915000	      3190	80003710	003dddb3	srl	x27,x27,x3	 x27:0x00000011  x3:0x7b505011 x27=0x00000000
       31925000	      3191	80003714	003929b3	slt	x19,x18,x3	 x18:0xffffffc0  x3:0x7b505011 x19=0x00000001
       31935000	      3192	80003718	00be1913	slli	x18,x28,0xb	 x28:0xfffffe12 x18=0xfff09000
       31945000	      3193	8000371c	3f617993	andi	x19,x2,1014	  x2:0xfffffea3 x19=0x000002a2
       31955000	      3194	80003720	407a89b3	sub	x19,x21,x7	 x21:0x00000000  x7:0x00000000 x19=0x00000000
       31965000	      3195	80003724	00618463	beq	x3,x6,8000372c	  x3:0x7b505011  x6:0xffffffff
       31975000	      3196	80003728	00277463	bgeu	x14,x2,80003730	 x14:0xb1d99000  x2:0xfffffea3
       31985000	      3197	8000372c	41480a33	sub	x20,x16,x20	 x16:0x00000000 x20:0x00000001 x20=0xffffffff
       31995000	      3198	80003730	0627c813	xori	x16,x15,98	 x15:0x00000000 x16=0x00000062
       32005000	      3199	80003734	a2f86c93	ori	x25,x16,-1489	 x16:0x00000062 x25=0xfffffa6f
       32015000	      3200	80003738	94126593	ori	x11,x4,-1727	  x4:0x00000000 x11=0xfffff941
       32025000	      3201	8000373c	00a99713	slli	x14,x19,0xa	 x19:0x00000000 x14=0x00000000
       32035000	      3202	80003740	009a5e13	srli	x28,x20,0x9	 x20:0xffffffff x28=0x007fffff
       32045000	      3203	80003744	a6a7dc17	auipc	x24,0xa6a7d	 x24=0x26a80740
       32055000	      3204	80003748	015e89b3	add	x19,x29,x21	 x29:0x80009f48 x21:0x00000000 x19=0x80009f48
       32065000	      3205	8000374c	014480b3	add	x1,x9,x20	  x9:0xffffffff x20:0xffffffff  x1=0xfffffffe
       32075000	      3206	80003750	0125e0b3	or	x1,x11,x18	 x11:0xfffff941 x18:0xfff09000  x1=0xfffff941
       32085000	      3207	80003754	00000013	addi	x0,x0,0	  x0:0x00000000
       32095000	      3208	80003758	00fdd863	bge	x27,x15,80003768	 x27:0x00000000 x15:0x00000000
       32105000	      3209	00000000	00000013	addi	x0,x0,0	  x0:0x00000000
       32115000	      3210	80003764	00000013	addi	x0,x0,0	  x0:0x00000000
       32125000	      3211	80003768	415100b3	sub	x1,x2,x21	  x2:0xfffffea3 x21:0x00000000  x1=0xfffffea3
       32135000	      3212	8000376c	2c2c8817	auipc	x16,0x2c2c8	 x16=0xac2cb768
       32145000	      3213	80003770	01a2ca33	xor	x20,x5,x26	  x5:0x00000000 x26:0x00000001 x20=0x00000001
       32155000	      3214	80003774	41945cb3	sra	x25,x8,x25	  x8:0x80009fc4 x25:0xfffffa6f x25=0xffff0001
       32165000	      3215	80003778	4025d533	sra	x10,x11,x2	 x11:0xfffff941  x2:0xfffffea3 x10=0xffffff28
       32175000	      3216	8000377c	bba64193	xori	x3,x12,-1094	 x12:0x0000008e  x3=0xfffffb34
       32185000	      3217	80003780	015d0cb3	add	x25,x26,x21	 x26:0x00000001 x21:0x00000000 x25=0x00000001
       32195000	      3218	80003784	b1137b93	andi	x23,x6,-1263	  x6:0xffffffff x23=0xfffffb11
       32205000	      3219	80003788	0119b233	sltu	x4,x19,x17	 x19:0x80009f48 x17:0xd71072a0  x4=0x00000001
       32215000	      3220	8000378c	f1a50337	lui	x6,0xf1a50	  x6=0xf1a50000
       32225000	      3221	80003790	00b86233	or	x4,x16,x11	 x16:0xac2cb768 x11:0xfffff941  x4=0xffffff69
       32235000	      3222	80003794	00d6e1b3	or	x3,x13,x13	 x13:0x7b505011 x13:0x7b505011  x3=0x7b505011
       32245000	      3223	80003798	015f5293	srli	x5,x30,0x15	 x30:0xd7106b9b  x5=0x000006b8
       32255000	      3224	8000379c	0189bab3	sltu	x21,x19,x24	 x19:0x80009f48 x24:0x26a80740 x21=0x00000000
       32265000	      3225	800037a0	d7830217	auipc	x4,0xd7830	  x4=0x5783379c
       32275000	      3226	800037a4	00be9533	sll	x10,x29,x11	 x29:0x80009f48 x11:0xfffff941 x10=0x00013e90
       32285000	      3227	800037a8	00465a33	srl	x20,x12,x4	 x12:0x0000008e  x4:0x5783379c x20=0x00000000
       32295000	      3228	800037ac	005665b3	or	x11,x12,x5	 x12:0x0000008e  x5:0x000006b8 x11=0x000006be
       32305000	      3229	800037b0	001a6a33	or	x20,x20,x1	 x20:0x00000000  x1:0xfffffea3 x20=0xfffffea3
       32315000	      3230	800037b4	018faf33	slt	x30,x31,x24	 x31:0xf0000000 x24:0x26a80740 x30=0x00000001
       32325000	      3231	800037b8	4052ddb3	sra	x27,x5,x5	  x5:0x000006b8  x5:0x000006b8 x27=0x00000000
       32335000	      3232	800037bc	01a6df33	srl	x30,x13,x26	 x13:0x7b505011 x26:0x00000001 x30=0x3da82808
       32345000	      3233	800037c0	02146063	bltu	x8,x1,800037e0	  x8:0x80009fc4  x1:0xfffffea3
       32355000	      3234	00000000	00000013	addi	x0,x0,0	  x0:0x00000000
       32365000	      3235	800037dc	00000013	addi	x0,x0,0	  x0:0x00000000
       32375000	      3236	800037e0	0160ccb3	xor	x25,x1,x22	  x1:0xfffffea3 x22:0x7b505000 x25=0x84afaea3
       32385000	      3237	800037e4	017c1b33	sll	x22,x24,x23	 x24:0x26a80740 x23:0xfffffb11 x22=0x0e800000
       32395000	      3238	800037e8	01b67ab3	and	x21,x12,x27	 x12:0x0000008e x27:0x00000000 x21=0x00000000
       32405000	      3239	800037ec	020a9863	bne	x21,x0,8000381c	 x21:0x00000000  x0:0x00000000
       32415000	      3240	800037f0	00087463	bgeu	x16,x0,800037f8	 x16:0xac2cb768  x0:0x00000000
       32425000	      3241	00000000	00000013	addi	x0,x0,0	  x0:0x00000000
       32435000	      3242	800037f4	00000013	addi	x0,x0,0	  x0:0x00000000
       32445000	      3243	800037f8	90eab493	sltiu	x9,x21,-1778	 x21:0x00000000  x9=0x00000001
       32455000	      3244	800037fc	68edaf93	slti	x31,x27,1678	 x27:0x00000000 x31=0x00000001
       32465000	      3245	80003800	010cb8b3	sltu	x17,x25,x16	 x25:0x84afaea3 x16:0xac2cb768 x17=0x00000001
       32475000	      3246	80003804	01a67bb3	and	x23,x12,x26	 x12:0x0000008e x26:0x00000001 x23=0x00000000
       32485000	      3247	80003808	cef63913	sltiu	x18,x12,-785	 x12:0x0000008e x18=0x00000001
       32495000	      3248	8000380c	01e8d193	srli	x3,x17,0x1e	 x17:0x00000001  x3=0x00000000
       32505000	      3249	80003810	40bb0db3	sub	x27,x22,x11	 x22:0x0e800000 x11:0x000006be x27=0x0e7ff942
       32515000	      3250	80003814	414850b3	sra	x1,x16,x20	 x16:0xac2cb768 x20:0xfffffea3  x1=0xf58596ed
       32525000	      3251	80003818	05094663	blt	x18,x16,80003864	 x18:0x00000001 x16:0xac2cb768
       32535000	      3252	8000381c	3db9c493	xori	x9,x19,987	 x19:0x80009f48  x9=0x80009c93
       32545000	      3253	80003820	00f27b33	and	x22,x4,x15	  x4:0x5783379c x15:0x00000000 x22=0x00000000
       32555000	      3254	80003824	0182acb3	slt	x25,x5,x24	  x5:0x000006b8 x24:0x26a80740 x25=0x00000001
       32565000	      3255	80003828	41be5c33	sra	x24,x28,x27	 x28:0x007fffff x27:0x0e7ff942 x24=0x001fffff
       32575000	      3256	8000382c	feb1b813	sltiu	x16,x3,-21	  x3:0x00000000 x16=0x00000001
       32585000	      3257	80003830	aa28f393	andi	x7,x17,-1374	 x17:0x00000001  x7=0x00000000
       32595000	      3258	80003834	4167fa93	andi	x21,x15,1046	 x15:0x00000000 x21=0x00000000
       32605000	      3259	80003838	0040fab3	and	x21,x1,x4	  x1:0xf58596ed  x4:0x5783379c x21=0x5581168c
       32615000	      3260	8000383c	016b33b3	sltu	x7,x22,x22	 x22:0x00000000 x22:0x00000000  x7=0x00000000
       32625000	      3261	80003840	f54bff93	andi	x31,x23,-172	 x23:0x00000000 x31=0x00000000
       32635000	      3262	80003844	02f74863	blt	x14,x15,80003874	 x14:0x00000000 x15:0x00000000
       32645000	      3263	80003848	005a0533	add	x10,x20,x5	 x20:0xfffffea3  x5:0x000006b8 x10=0x0000055b
       32655000	      3264	8000384c	00f15e33	srl	x28,x2,x15	  x2:0xfffffea3 x15:0x00000000 x28=0xfffffea3
       32665000	      3265	80003850	00000013	addi	x0,x0,0	  x0:0x00000000
       32675000	      3266	80003854	03a50263	beq	x10,x26,80003878	 x10:0x0000055b x26:0x00000001
       32685000	      3267	80003858	01e35a33	srl	x20,x6,x30	  x6:0xf1a50000 x30:0x3da82808 x20=0x00f1a500
       32695000	      3268	8000385c	03d35e63	bge	x6,x29,80003898	  x6:0xf1a50000 x29:0x80009f48
       32705000	      3269	00000000	00000013	addi	x0,x0,0	  x0:0x00000000
       32715000	      3270	80003894	00000013	addi	x0,x0,0	  x0:0x00000000
       32725000	      3271	80003898	01dd9c33	sll	x24,x27,x29	 x27:0x0e7ff942 x29:0x80009f48 x24=0x7ff94200
       32735000	      3272	8000389c	38aaac13	slti	x24,x21,906	 x21:0x5581168c x24=0x00000000
       32745000	      3273	800038a0	015af863	bgeu	x21,x21,800038b0	 x21:0x5581168c x21:0x5581168c
       32755000	      3274	00000000	00000013	addi	x0,x0,0	  x0:0x00000000
       32765000	      3275	800038ac	00000013	addi	x0,x0,0	  x0:0x00000000
       32775000	      3276	800038b0	04a48063	beq	x9,x10,800038f0	  x9:0x80009c93 x10:0x0000055b
       32785000	      3277	800038b4	12667213	andi	x4,x12,294	 x12:0x0000008e  x4=0x00000006
       32795000	      3278	800038b8	6eb40c93	addi	x25,x8,1771	  x8:0x80009fc4 x25=0x8000a6af
       32805000	      3279	800038bc	20272293	slti	x5,x14,514	 x14:0x00000000  x5=0x00000001
       32815000	      3280	800038c0	749e4c93	xori	x25,x28,1865	 x28:0xfffffea3 x25=0xfffff9ea
       32825000	      3281	800038c4	01a716b3	sll	x13,x14,x26	 x14:0x00000000 x26:0x00000001 x13=0x00000000
       32835000	      3282	800038c8	00c41933	sll	x18,x8,x12	  x8:0x80009fc4 x12:0x0000008e x18=0x27f10000
       32845000	      3283	800038cc	41930b33	sub	x22,x6,x25	  x6:0xf1a50000 x25:0xfffff9ea x22=0xf1a50616
       32855000	      3284	800038d0	da75c297	auipc	x5,0xda75c	  x5=0x5a75f8cc
       32865000	      3285	800038d4	01a31a63	bne	x6,x26,800038e8	  x6:0xf1a50000 x26:0x00000001
       32875000	      3286	00000000	00000013	addi	x0,x0,0	  x0:0x00000000
       32885000	      3287	800038e4	00000013	addi	x0,x0,0	  x0:0x00000000
       32895000	      3288	800038e8	02985263	bge	x16,x9,8000390c	 x16:0x00000001  x9:0x80009c93
       32905000	      3289	00000000	00000013	addi	x0,x0,0	  x0:0x00000000
       32915000	      3290	80003908	00000013	addi	x0,x0,0	  x0:0x00000000
       32925000	      3291	8000390c	01d39113	slli	x2,x7,0x1d	  x7:0x00000000  x2=0x00000000
       32935000	      3292	80003910	7060be37	lui	x28,0x7060b	 x28=0x7060b000
       32945000	      3293	80003914	0144dc33	srl	x24,x9,x20	  x9:0x80009c93 x20:0x00f1a500 x24=0x80009c93
       32955000	      3294	80003918	01eb5013	srli	x0,x22,0x1e	 x22:0xf1a50616
       32965000	      3295	8000391c	41790033	sub	x0,x18,x23	 x18:0x27f10000 x23:0x00000000
       32975000	      3296	80003920	009eb533	sltu	x10,x29,x9	 x29:0x80009f48  x9:0x80009c93 x10=0x00000000
       32985000	      3297	80003924	013c5a63	bge	x24,x19,80003938	 x24:0x80009c93 x19:0x80009f48
       32995000	      3298	80003928	020c6863	bltu	x24,x0,80003958	 x24:0x80009c93  x0:0x00000000
       33005000	      3299	8000392c	caddc213	xori	x4,x27,-851	 x27:0x0e7ff942  x4=0xf18005ef
       33015000	      3300	80003930	04e0f263	bgeu	x1,x14,80003974	  x1:0xf58596ed x14:0x00000000
       33025000	      3301	00000000	00000013	addi	x0,x0,0	  x0:0x00000000
       33035000	      3302	80003970	00000013	addi	x0,x0,0	  x0:0x00000000
       33045000	      3303	80003974	01b109b3	add	x19,x2,x27	  x2:0x00000000 x27:0x0e7ff942 x19=0x0e7ff942
       33055000	      3304	80003978	01d36ab3	or	x21,x6,x29	  x6:0xf1a50000 x29:0x80009f48 x21=0xf1a59f48
       33065000	      3305	8000397c	012134b7	lui	x9,0x1213	  x9=0x01213000
       33075000	      3306	80003980	02f39863	bne	x7,x15,800039b0	  x7:0x00000000 x15:0x00000000
       33085000	      3307	80003984	01842833	slt	x16,x8,x24	  x8:0x80009fc4 x24:0x80009c93 x16=0x00000000
       33095000	      3308	80003988	005ed2b3	srl	x5,x29,x5	 x29:0x80009f48  x5:0x5a75f8cc  x5=0x00080009
       33105000	      3309	8000398c	4076dd13	srai	x26,x13,0x7	 x13:0x00000000 x26=0x00000000
       33115000	      3310	80003990	410cdc93	srai	x25,x25,0x10	 x25:0xfffff9ea x25=0xffffffff
       33125000	      3311	80003994	41850333	sub	x6,x10,x24	 x10:0x00000000 x24:0x80009c93  x6=0x7fff636d
       33135000	      3312	80003998	90dce213	ori	x4,x25,-1779	 x25:0xffffffff  x4=0xffffffff
       33145000	      3313	8000399c	01bf9f13	slli	x30,x31,0x1b	 x31:0x00000000 x30=0x00000000
       33155000	      3314	800039a0	01d86db3	or	x27,x16,x29	 x16:0x00000000 x29:0x80009f48 x27=0x80009f48
       33165000	      3315	800039a4	40af54b3	sra	x9,x30,x10	 x30:0x00000000 x10:0x00000000  x9=0x00000000
       33175000	      3316	800039a8	01680463	beq	x16,x22,800039b0	 x16:0x00000000 x22:0xf1a50616
       33185000	      3317	800039ac	419d6493	ori	x9,x26,1049	 x26:0x00000000  x9=0x00000419
       33195000	      3318	800039b0	01f5d463	bge	x11,x31,800039b8	 x11:0x000006be x31:0x00000000
       33205000	      3319	00000000	00000013	addi	x0,x0,0	  x0:0x00000000
       33215000	      3320	800039b4	00000013	addi	x0,x0,0	  x0:0x00000000
       33225000	      3321	800039b8	00d084b3	add	x9,x1,x13	  x1:0xf58596ed x13:0x00000000  x9=0xf58596ed
       33235000	      3322	800039bc	00bf3633	sltu	x12,x30,x11	 x30:0x00000000 x11:0x000006be x12=0x00000001
       33245000	      3323	800039c0	01d1df13	srli	x30,x3,0x1d	  x3:0x00000000 x30=0x00000000
       33255000	      3324	800039c4	5b987a13	andi	x20,x16,1465	 x16:0x00000000 x20=0x00000000
       33265000	      3325	800039c8	005815b3	sll	x11,x16,x5	 x16:0x00000000  x5:0x00080009 x11=0x00000000
       33275000	      3326	800039cc	568a4493	xori	x9,x20,1384	 x20:0x00000000  x9=0x00000568
       33285000	      3327	800039d0	01603d33	sltu	x26,x0,x22	  x0:0x00000000 x22:0xf1a50616 x26=0x00000001
       33295000	      3328	800039d4	6531a217	auipc	x4,0x6531a	  x4=0xe531d9d0
       33305000	      3329	800039d8	01cb2e33	slt	x28,x22,x28	 x22:0xf1a50616 x28:0x7060b000 x28=0x00000001
       33315000	      3330	800039dc	00b29c13	slli	x24,x5,0xb	  x5:0x00080009 x24=0x40004800
       33325000	      3331	800039e0	00000013	addi	x0,x0,0	  x0:0x00000000
       33335000	      3332	800039e4	005d5693	srli	x13,x26,0x5	 x26:0x00000001 x13=0x00000000
       33345000	      3333	800039e8	be3fe913	ori	x18,x31,-1053	 x31:0x00000000 x18=0xfffffbe3
       33355000	      3334	800039ec	01dca713	slti	x14,x25,29	 x25:0xffffffff x14=0x00000001
       33365000	      3335	800039f0	2fcba213	slti	x4,x23,764	 x23:0x00000000  x4=0x00000001
       33375000	      3336	800039f4	01bc6e33	or	x28,x24,x27	 x24:0x40004800 x27:0x80009f48 x28=0xc000df48
       33385000	      3337	800039f8	40bc5893	srai	x17,x24,0xb	 x24:0x40004800 x17=0x00080009
       33395000	      3338	800039fc	02dac263	blt	x21,x13,80003a20	 x21:0xf1a59f48 x13:0x00000000
       33405000	      3339	00000000	00000013	addi	x0,x0,0	  x0:0x00000000
       33415000	      3340	80003a1c	00000013	addi	x0,x0,0	  x0:0x00000000
       33425000	      3341	80003a20	01ba5093	srli	x1,x20,0x1b	 x20:0x00000000  x1=0x00000000
       33435000	      3342	80003a24	18804d13	xori	x26,x0,392	  x0:0x00000000 x26=0x00000188
       33445000	      3343	80003a28	00ed5a33	srl	x20,x26,x14	 x26:0x00000188 x14:0x00000001 x20=0x000000c4
       33455000	      3344	80003a2c	0170ee33	or	x28,x1,x23	  x1:0x00000000 x23:0x00000000 x28=0x00000000
       33465000	      3345	80003a30	00b21d13	slli	x26,x4,0xb	  x4:0x00000001 x26=0x00000800
       33475000	      3346	80003a34	0e170463	beq	x14,x1,80003b1c	 x14:0x00000001  x1:0x00000000
       33485000	      3347	80003a38	4120d493	srai	x9,x1,0x12	  x1:0x00000000  x9=0x00000000
       33495000	      3348	80003a3c	01dd1f93	slli	x31,x26,0x1d	 x26:0x00000800 x31=0x00000000
       33505000	      3349	80003a40	30044fb7	lui	x31,0x30044	 x31=0x30044000
       33515000	      3350	80003a44	0effc063	blt	x31,x15,80003b24	 x31:0x30044000 x15:0x00000000
       33525000	      3351	80003a48	00b05893	srli	x17,x0,0xb	  x0:0x00000000 x17=0x00000000
       33535000	      3352	80003a4c	3c722813	slti	x16,x4,967	  x4:0x00000001 x16=0x00000001
       33545000	      3353	80003a50	0fd59463	bne	x11,x29,80003b38	 x11:0x00000000 x29:0x80009f48
       33555000	      3354	00000000	00000013	addi	x0,x0,0	  x0:0x00000000
       33565000	      3355	80003b34	00000013	addi	x0,x0,0	  x0:0x00000000
       33575000	      3356	80003b38	01ba6463	bltu	x20,x27,80003b40	 x20:0x000000c4 x27:0x80009f48
       33585000	      3357	00000000	00000013	addi	x0,x0,0	  x0:0x00000000
       33595000	      3358	80003b3c	00000013	addi	x0,x0,0	  x0:0x00000000
       33605000	      3359	80003b40	41b5d013	srai	x0,x11,0x1b	 x11:0x00000000
       33615000	      3360	80003b44	46d0be13	sltiu	x28,x1,1133	  x1:0x00000000 x28=0x00000001
       33625000	      3361	80003b48	0071ebb3	or	x23,x3,x7	  x3:0x00000000  x7:0x00000000 x23=0x00000000
       33635000	      3362	80003b4c	0121d193	srli	x3,x3,0x12	  x3:0x00000000  x3=0x00000000
       33645000	      3363	80003b50	937d7713	andi	x14,x26,-1737	 x26:0x00000800 x14=0x00000800
       33655000	      3364	80003b54	5013f493	andi	x9,x7,1281	  x7:0x00000000  x9=0x00000000
       33665000	      3365	80003b58	00c31e13	slli	x28,x6,0xc	  x6:0x7fff636d x28=0xf636d000
       33675000	      3366	80003b5c	4c914a93	xori	x21,x2,1225	  x2:0x00000000 x21=0x000004c9
       33685000	      3367	80003b60	01275a63	bge	x14,x18,80003b74	 x14:0x00000800 x18:0xfffffbe3
       33695000	      3368	00000000	00000013	addi	x0,x0,0	  x0:0x00000000
       33705000	      3369	80003b70	00000013	addi	x0,x0,0	  x0:0x00000000
       33715000	      3370	80003b74	00e08db3	add	x27,x1,x14	  x1:0x00000000 x14:0x00000800 x27=0x00000800
       33725000	      3371	80003b78	41697713	andi	x14,x18,1046	 x18:0xfffffbe3 x14=0x00000002
       33735000	      3372	80003b7c	01e54fb3	xor	x31,x10,x30	 x10:0x00000000 x30:0x00000000 x31=0x00000000
       33745000	      3373	80003b80	00f115b3	sll	x11,x2,x15	  x2:0x00000000 x15:0x00000000 x11=0x00000000
       33755000	      3374	80003b84	01994e63	blt	x18,x25,80003ba0	 x18:0xfffffbe3 x25:0xffffffff
       33765000	      3375	00000000	00000013	addi	x0,x0,0	  x0:0x00000000
       33775000	      3376	80003b9c	00000013	addi	x0,x0,0	  x0:0x00000000
       33785000	      3377	80003ba0	40efd713	srai	x14,x31,0xe	 x31:0x00000000 x14=0x00000000
       33795000	      3378	80003ba4	40b85533	sra	x10,x16,x11	 x16:0x00000001 x11:0x00000000 x10=0x00000001
       33805000	      3379	80003ba8	40615f93	srai	x31,x2,0x6	  x2:0x00000000 x31=0x00000000
       33815000	      3380	80003bac	a3fd0013	addi	x0,x26,-1473	 x26:0x00000800
       33825000	      3381	80003bb0	43441017	auipc	x0,0x43441	
       33835000	      3382	80003bb4	942f3213	sltiu	x4,x30,-1726	 x30:0x00000000  x4=0x00000001
       33845000	      3383	80003bb8	e8d3bcb7	lui	x25,0xe8d3b	 x25=0xe8d3b000
       33855000	      3384	80003bbc	038dfc63	bgeu	x27,x24,80003bf4	 x27:0x00000800 x24:0x40004800
       33865000	      3385	80003bc0	7689ac93	slti	x25,x19,1896	 x19:0x0e7ff942 x25=0x00000000
       33875000	      3386	80003bc4	02687863	bgeu	x16,x6,80003bf4	 x16:0x00000001  x6:0x7fff636d
       33885000	      3387	80003bc8	00f5a4b3	slt	x9,x11,x15	 x11:0x00000000 x15:0x00000000  x9=0x00000000
       33895000	      3388	80003bcc	5933f017	auipc	x0,0x5933f	
       33905000	      3389	80003bd0	05dabc93	sltiu	x25,x21,93	 x21:0x000004c9 x25=0x00000000
       33915000	      3390	80003bd4	a6754997	auipc	x19,0xa6754	 x19=0x26757bd0
       33925000	      3391	80003bd8	41430f33	sub	x30,x6,x20	  x6:0x7fff636d x20:0x000000c4 x30=0x7fff62a9
       33935000	      3392	80003bdc	c9ce3497	auipc	x9,0xc9ce3	  x9=0x49ce6bd8
       33945000	      3393	80003be0	00241133	sll	x2,x8,x2	  x8:0x80009fc4  x2:0x00000000  x2=0x80009fc4
       33955000	      3394	80003be4	e2464713	xori	x14,x12,-476	 x12:0x00000001 x14=0xfffffe25
       33965000	      3395	80003be8	178ccb97	auipc	x23,0x178cc	 x23=0x978cfbe4
       33975000	      3396	80003bec	0174f663	bgeu	x9,x23,80003bf8	  x9:0x49ce6bd8 x23:0x978cfbe4
       33985000	      3397	80003bf0	01a08733	add	x14,x1,x26	  x1:0x00000000 x26:0x00000800 x14=0x00000800
       33995000	      3398	80003bf4	01751863	bne	x10,x23,80003c04	 x10:0x00000001 x23:0x978cfbe4
       34005000	      3399	00000000	00000013	addi	x0,x0,0	  x0:0x00000000
       34015000	      3400	80003c00	00000013	addi	x0,x0,0	  x0:0x00000000
       34025000	      3401	80003c04	daa27e13	andi	x28,x4,-598	  x4:0x00000001 x28=0x00000000
       34035000	      3402	80003c08	01dfbd33	sltu	x26,x31,x29	 x31:0x00000000 x29:0x80009f48 x26=0x00000001
       34045000	      3403	80003c0c	001c0c63	beq	x24,x1,80003c24	 x24:0x40004800  x1:0x00000000
       34055000	      3404	80003c10	00000013	addi	x0,x0,0	  x0:0x00000000
       34065000	      3405	80003c14	006cdf93	srli	x31,x25,0x6	 x25:0x00000000 x31=0x00000000
       34075000	      3406	80003c18	00935b93	srli	x23,x6,0x9	  x6:0x7fff636d x23=0x003fffb1
       34085000	      3407	80003c1c	ff2be393	ori	x7,x23,-14	 x23:0x003fffb1  x7=0xfffffff3
       34095000	      3408	80003c20	03847c63	bgeu	x8,x24,80003c58	  x8:0x80009fc4 x24:0x40004800
       34105000	      3409	00000000	00000013	addi	x0,x0,0	  x0:0x00000000
       34115000	      3410	80003c54	00000013	addi	x0,x0,0	  x0:0x00000000
       34125000	      3411	80003c58	05aae263	bltu	x21,x26,80003c9c	 x21:0x000004c9 x26:0x00000001
       34135000	      3412	80003c5c	40cf5f13	srai	x30,x30,0xc	 x30:0x7fff62a9 x30=0x0007fff6
       34145000	      3413	80003c60	01dae533	or	x10,x21,x29	 x21:0x000004c9 x29:0x80009f48 x10=0x80009fc9
       34155000	      3414	80003c64	f0acf493	andi	x9,x25,-246	 x25:0x00000000  x9=0x00000000
       34165000	      3415	80003c68	01b27a63	bgeu	x4,x27,80003c7c	  x4:0x00000001 x27:0x00000800
       34175000	      3416	80003c6c	00a70463	beq	x14,x10,80003c74	 x14:0x00000800 x10:0x80009fc9
       34185000	      3417	80003c70	037f1863	bne	x30,x23,80003ca0	 x30:0x0007fff6 x23:0x003fffb1
       34195000	      3418	00000000	00000013	addi	x0,x0,0	  x0:0x00000000
       34205000	      3419	80003c9c	00000013	addi	x0,x0,0	  x0:0x00000000
       34215000	      3420	80003ca0	02454863	blt	x10,x4,80003cd0	 x10:0x80009fc9  x4:0x00000001
       34225000	      3421	00000000	00000013	addi	x0,x0,0	  x0:0x00000000
       34235000	      3422	80003ccc	00000013	addi	x0,x0,0	  x0:0x00000000
       34245000	      3423	80003cd0	01b2b233	sltu	x4,x5,x27	  x5:0x00080009 x27:0x00000800  x4=0x00000000
       34255000	      3424	80003cd4	41055cb3	sra	x25,x10,x16	 x10:0x80009fc9 x16:0x00000001 x25=0xc0004fe4
       34265000	      3425	80003cd8	4196d633	sra	x12,x13,x25	 x13:0x00000000 x25:0xc0004fe4 x12=0x00000000
       34275000	      3426	80003cdc	005dd533	srl	x10,x27,x5	 x27:0x00000800  x5:0x00080009 x10=0x00000004
       34285000	      3427	80003ce0	0303d863	bge	x7,x16,80003d10	  x7:0xfffffff3 x16:0x00000001
       34295000	      3428	80003ce4	007b0463	beq	x22,x7,80003cec	 x22:0xf1a50616  x7:0xfffffff3
       34305000	      3429	80003ce8	40985a33	sra	x20,x16,x9	 x16:0x00000001  x9:0x00000000 x20=0x00000001
       34315000	      3430	80003cec	015f9133	sll	x2,x31,x21	 x31:0x00000000 x21:0x000004c9  x2=0x00000000
       34325000	      3431	80003cf0	27d37913	andi	x18,x6,637	  x6:0x7fff636d x18=0x0000026d
       34335000	      3432	80003cf4	00872733	slt	x14,x14,x8	 x14:0x00000800  x8:0x80009fc4 x14=0x00000000
       34345000	      3433	80003cf8	000262b3	or	x5,x4,x0	  x4:0x00000000  x0:0x00000000  x5=0x00000000
       34355000	      3434	80003cfc	01451463	bne	x10,x20,80003d04	 x10:0x00000004 x20:0x00000001
       34365000	      3435	00000000	00000013	addi	x0,x0,0	  x0:0x00000000
       34375000	      3436	80003d00	00000013	addi	x0,x0,0	  x0:0x00000000
       34385000	      3437	80003d04	01356c63	bltu	x10,x19,80003d1c	 x10:0x00000004 x19:0x26757bd0
       34395000	      3438	00000000	00000013	addi	x0,x0,0	  x0:0x00000000
       34405000	      3439	80003d18	00000013	addi	x0,x0,0	  x0:0x00000000
       34415000	      3440	80003d1c	03661863	bne	x12,x22,80003d4c	 x12:0x00000000 x22:0xf1a50616
       34425000	      3441	00000000	00000013	addi	x0,x0,0	  x0:0x00000000
       34435000	      3442	80003d48	00000013	addi	x0,x0,0	  x0:0x00000000
       34445000	      3443	80003d4c	01d1b0b3	sltu	x1,x3,x29	  x3:0x00000000 x29:0x80009f48  x1=0x00000001
       34455000	      3444	80003d50	1b93b293	sltiu	x5,x7,441	  x7:0xfffffff3  x5=0x00000000
       34465000	      3445	80003d54	034ce263	bltu	x25,x20,80003d78	 x25:0xc0004fe4 x20:0x00000001
       34475000	      3446	80003d58	0448f063	bgeu	x17,x4,80003d98	 x17:0x00000000  x4:0x00000000
       34485000	      3447	00000000	00000013	addi	x0,x0,0	  x0:0x00000000
       34495000	      3448	80003d94	00000013	addi	x0,x0,0	  x0:0x00000000
       34505000	      3449	80003d98	95cf33b7	lui	x7,0x95cf3	  x7=0x95cf3000
       34515000	      3450	80003d9c	ab608193	addi	x3,x1,-1354	  x1:0x00000001  x3=0xfffffab7
       34525000	      3451	80003da0	41bd5913	srai	x18,x26,0x1b	 x26:0x00000001 x18=0x00000000
       34535000	      3452	80003da4	01dfe463	bltu	x31,x29,80003dac	 x31:0x00000000 x29:0x80009f48
       34545000	      3453	00000000	00000013	addi	x0,x0,0	  x0:0x00000000
       34555000	      3454	80003da8	00000013	addi	x0,x0,0	  x0:0x00000000
       34565000	      3455	80003dac	0077bb33	sltu	x22,x15,x7	 x15:0x00000000  x7:0x95cf3000 x22=0x00000001
       34575000	      3456	80003db0	00d955b3	srl	x11,x18,x13	 x18:0x00000000 x13:0x00000000 x11=0x00000000
       34585000	      3457	80003db4	012c6233	or	x4,x24,x18	 x24:0x40004800 x18:0x00000000  x4=0x40004800
       34595000	      3458	80003db8	0a8f2a13	slti	x20,x30,168	 x30:0x0007fff6 x20=0x00000000
       34605000	      3459	80003dbc	0118d693	srli	x13,x17,0x11	 x17:0x00000000 x13=0x00000000
       34615000	      3460	80003dc0	00a23233	sltu	x4,x4,x10	  x4:0x40004800 x10:0x00000004  x4=0x00000000
       34625000	      3461	80003dc4	01bb76b3	and	x13,x22,x27	 x22:0x00000001 x27:0x00000800 x13=0x00000000
       34635000	      3462	80003dc8	00f1b733	sltu	x14,x3,x15	  x3:0xfffffab7 x15:0x00000000 x14=0x00000000
       34645000	      3463	80003dcc	00949293	slli	x5,x9,0x9	  x9:0x00000000  x5=0x00000000
       34655000	      3464	80003dd0	00733333	sltu	x6,x6,x7	  x6:0x7fff636d  x7:0x95cf3000  x6=0x00000001
       34665000	      3465	80003dd4	417d8333	sub	x6,x27,x23	 x27:0x00000800 x23:0x003fffb1  x6=0xffc0084f
       34675000	      3466	80003dd8	bcb82297	auipc	x5,0xbcb82	  x5=0x3cb85dd4
       34685000	      3467	80003ddc	01fc1ab3	sll	x21,x24,x31	 x24:0x40004800 x31:0x00000000 x21=0x40004800
       34695000	      3468	80003de0	00274833	xor	x16,x14,x2	 x14:0x00000000  x2:0x00000000 x16=0x00000000
       34705000	      3469	80003de4	0062b2b3	sltu	x5,x5,x6	  x5:0x3cb85dd4  x6:0xffc0084f  x5=0x00000001
       34715000	      3470	80003de8	02a66063	bltu	x12,x10,80003e08	 x12:0x00000000 x10:0x00000004
       34725000	      3471	00000000	00000013	addi	x0,x0,0	  x0:0x00000000
       34735000	      3472	80003e04	00000013	addi	x0,x0,0	  x0:0x00000000
       34745000	      3473	80003e08	8d3e6c93	ori	x25,x28,-1837	 x28:0x00000000 x25=0xfffff8d3
       34755000	      3474	80003e0c	021acc63	blt	x21,x1,80003e44	 x21:0x40004800  x1:0x00000001
       34765000	      3475	80003e10	59683a97	auipc	x21,0x59683	 x21=0xd9686e0c
       34775000	      3476	80003e14	01d4c463	blt	x9,x29,80003e1c	  x9:0x00000000 x29:0x80009f48
       34785000	      3477	80003e18	00406e33	or	x28,x0,x4	  x0:0x00000000  x4:0x00000000 x28=0x00000000
       34795000	      3478	80003e1c	38722213	slti	x4,x4,903	  x4:0x00000000  x4=0x00000001
       34805000	      3479	80003e20	41a3d633	sra	x12,x7,x26	  x7:0x95cf3000 x26:0x00000001 x12=0xcae79800
       34815000	      3480	80003e24	417e8633	sub	x12,x29,x23	 x29:0x80009f48 x23:0x003fffb1 x12=0x7fc09f97
       34825000	      3481	80003e28	00685013	srli	x0,x16,0x6	 x16:0x00000000
       34835000	      3482	80003e2c	029a8863	beq	x21,x9,80003e5c	 x21:0xd9686e0c  x9:0x00000000
       34845000	      3483	80003e30	0013d5b3	srl	x11,x7,x1	  x7:0x95cf3000  x1:0x00000001 x11=0x4ae79800
       34855000	      3484	80003e34	00e56a33	or	x20,x10,x14	 x10:0x00000004 x14:0x00000000 x20=0x00000004
       34865000	      3485	80003e38	03c9c463	blt	x19,x28,80003e60	 x19:0x26757bd0 x28:0x00000000
       34875000	      3486	80003e3c	b0a17293	andi	x5,x2,-1270	  x2:0x00000000  x5=0x00000000
       34885000	      3487	80003e40	40ca0033	sub	x0,x20,x12	 x20:0x00000004 x12:0x7fc09f97
       34895000	      3488	80003e44	00da1463	bne	x20,x13,80003e4c	 x20:0x00000004 x13:0x00000000
       34905000	      3489	00000000	00000013	addi	x0,x0,0	  x0:0x00000000
       34915000	      3490	80003e48	00000013	addi	x0,x0,0	  x0:0x00000000
       34925000	      3491	80003e4c	01f5d663	bge	x11,x31,80003e58	 x11:0x4ae79800 x31:0x00000000
       34935000	      3492	00000000	00000013	addi	x0,x0,0	  x0:0x00000000
       34945000	      3493	80003e54	00000013	addi	x0,x0,0	  x0:0x00000000
       34955000	      3494	80003e58	41ae53b3	sra	x7,x28,x26	 x28:0x00000000 x26:0x00000001  x7=0x00000000
       34965000	      3495	80003e5c	cc0fac17	auipc	x24,0xcc0fa	 x24=0x4c0fde58
       34975000	      3496	80003e60	008f9a33	sll	x20,x31,x8	 x31:0x00000000  x8:0x80009fc4 x20=0x00000000
       34985000	      3497	80003e64	01f57ab3	and	x21,x10,x31	 x10:0x00000004 x31:0x00000000 x21=0x00000000
       34995000	      3498	80003e68	0187fa63	bgeu	x15,x24,80003e7c	 x15:0x00000000 x24:0x4c0fde58
       35005000	      3499	80003e6c	4f39ea93	ori	x21,x19,1267	 x19:0x26757bd0 x21=0x26757ff3
       35015000	      3500	80003e70	0090b2b3	sltu	x5,x1,x9	  x1:0x00000001  x9:0x00000000  x5=0x00000000
       35025000	      3501	80003e74	0066e933	or	x18,x13,x6	 x13:0x00000000  x6:0xffc0084f x18=0xffc0084f
       35035000	      3502	80003e78	03a2d263	bge	x5,x26,80003e9c	  x5:0x00000000 x26:0x00000001
       35045000	      3503	80003e7c	04ab9263	bne	x23,x10,80003ec0	 x23:0x003fffb1 x10:0x00000004
       35055000	      3504	00000000	00000013	addi	x0,x0,0	  x0:0x00000000
       35065000	      3505	80003ebc	00000013	addi	x0,x0,0	  x0:0x00000000
       35075000	      3506	80003ec0	001ec733	xor	x14,x29,x1	 x29:0x80009f48  x1:0x00000001 x14=0x80009f49
       35085000	      3507	80003ec4	013b9a63	bne	x23,x19,80003ed8	 x23:0x003fffb1 x19:0x26757bd0
       35095000	      3508	00000000	00000013	addi	x0,x0,0	  x0:0x00000000
       35105000	      3509	80003ed4	00000013	addi	x0,x0,0	  x0:0x00000000
       35115000	      3510	80003ed8	402452b3	sra	x5,x8,x2	  x8:0x80009fc4  x2:0x00000000  x5=0x80009fc4
       35125000	      3511	80003edc	01680a63	beq	x16,x22,80003ef0	 x16:0x00000000 x22:0x00000001
       35135000	      3512	80003ee0	00b88463	beq	x17,x11,80003ee8	 x17:0x00000000 x11:0x4ae79800
       35145000	      3513	80003ee4	01eff1b3	and	x3,x31,x30	 x31:0x00000000 x30:0x0007fff6  x3=0x00000000
       35155000	      3514	80003ee8	e2cd0e37	lui	x28,0xe2cd0	 x28=0xe2cd0000
       35165000	      3515	80003eec	013f9313	slli	x6,x31,0x13	 x31:0x00000000  x6=0x00000000
       35175000	      3516	80003ef0	00488133	add	x2,x17,x4	 x17:0x00000000  x4:0x00000001  x2=0x00000001
       35185000	      3517	80003ef4	e26a9617	auipc	x12,0xe26a9	 x12=0x626acef0
       35195000	      3518	80003ef8	39b27693	andi	x13,x4,923	  x4:0x00000001 x13=0x00000001
       35205000	      3519	80003efc	afd6f4b7	lui	x9,0xafd6f	  x9=0xafd6f000
       35215000	      3520	80003f00	00000013	addi	x0,x0,0	  x0:0x00000000
       35225000	      3521	80003f04	00ffea63	bltu	x31,x15,80003f18	 x31:0x00000000 x15:0x00000000
       35235000	      3522	80003f08	02100863	beq	x0,x1,80003f38	  x0:0x00000000  x1:0x00000001
       35245000	      3523	80003f0c	00000013	addi	x0,x0,0	  x0:0x00000000
       35255000	      3524	80003f10	00077c63	bgeu	x14,x0,80003f28	 x14:0x80009f49  x0:0x00000000
       35265000	      3525	00000000	00000013	addi	x0,x0,0	  x0:0x00000000
       35275000	      3526	80003f24	00000013	addi	x0,x0,0	  x0:0x00000000
       35285000	      3527	80003f28	41940933	sub	x18,x8,x25	  x8:0x80009fc4 x25:0xfffff8d3 x18=0x8000a6f1
       35295000	      3528	80003f2c	00000013	addi	x0,x0,0	  x0:0x00000000
       35305000	      3529	80003f30	00000013	addi	x0,x0,0	  x0:0x00000000
       35315000	      3530	80003f34	012a9893	slli	x17,x21,0x12	 x21:0x26757ff3 x17=0xffcc0000
       35325000	      3531	80003f38	01d8d213	srli	x4,x17,0x1d	 x17:0xffcc0000  x4=0x00000007
       35335000	      3532	80003f3c	e9f465b7	lui	x11,0xe9f46	 x11=0xe9f46000
       35345000	      3533	80003f40	609af213	andi	x4,x21,1545	 x21:0x26757ff3  x4=0x00000601
       35355000	      3534	80003f44	00000013	addi	x0,x0,0	  x0:0x00000000
       35365000	      3535	80003f48	c8bef193	andi	x3,x29,-885	 x29:0x80009f48  x3=0x80009c08
       35375000	      3536	80003f4c	5968a193	slti	x3,x17,1430	 x17:0xffcc0000  x3=0x00000001
       35385000	      3537	80003f50	0018e133	or	x2,x17,x1	 x17:0xffcc0000  x1:0x00000001  x2=0xffcc0001
       35395000	      3538	80003f54	034e9863	bne	x29,x20,80003f84	 x29:0x80009f48 x20:0x00000000
       35405000	      3539	00000000	00000013	addi	x0,x0,0	  x0:0x00000000
       35415000	      3540	80003f80	00000013	addi	x0,x0,0	  x0:0x00000000
       35425000	      3541	80003f84	b093a493	slti	x9,x7,-1271	  x7:0x00000000  x9=0x00000000
       35435000	      3542	80003f88	4bbf8297	auipc	x5,0x4bbf8	  x5=0xcbbfbf84
       35445000	      3543	80003f8c	01a05093	srli	x1,x0,0x1a	  x0:0x00000000  x1=0x00000000
       35455000	      3544	80003f90	31ed7593	andi	x11,x26,798	 x26:0x00000001 x11=0x00000000
       35465000	      3545	80003f94	39b4b693	sltiu	x13,x9,923	  x9:0x00000000 x13=0x00000001
       35475000	      3546	80003f98	00c08a33	add	x20,x1,x12	  x1:0x00000000 x12:0x626acef0 x20=0x626acef0
       35485000	      3547	80003f9c	011383b3	add	x7,x7,x17	  x7:0x00000000 x17:0xffcc0000  x7=0xffcc0000
       35495000	      3548	80003fa0	0152f663	bgeu	x5,x21,80003fac	  x5:0xcbbfbf84 x21:0x26757ff3
       35505000	      3549	00000000	00000013	addi	x0,x0,0	  x0:0x00000000
       35515000	      3550	80003fa8	00000013	addi	x0,x0,0	  x0:0x00000000
       35525000	      3551	80003fac	00769613	slli	x12,x13,0x7	 x13:0x00000001 x12=0x00000080
       35535000	      3552	80003fb0	02628c63	beq	x5,x6,80003fe8	  x5:0xcbbfbf84  x6:0x00000000
       35545000	      3553	80003fb4	035a9263	bne	x21,x21,80003fd8	 x21:0x26757ff3 x21:0x26757ff3
       35555000	      3554	80003fb8	020dd863	bge	x27,x0,80003fe8	 x27:0x00000800  x0:0x00000000
       35565000	      3555	00000000	00000013	addi	x0,x0,0	  x0:0x00000000
       35575000	      3556	80003fe4	00000013	addi	x0,x0,0	  x0:0x00000000
       35585000	      3557	80003fe8	ea77b1b7	lui	x3,0xea77b	  x3=0xea77b000
       35595000	      3558	80003fec	007e9863	bne	x29,x7,80003ffc	 x29:0x80009f48  x7:0xffcc0000
       35605000	      3559	00000000	00000013	addi	x0,x0,0	  x0:0x00000000
       35615000	      3560	80003ff8	00000013	addi	x0,x0,0	  x0:0x00000000
       35625000	      3561	80003ffc	dcbfff13	andi	x30,x31,-565	 x31:0x00000000 x30=0x00000000
       35635000	      3562	80004000	41ad5333	sra	x6,x26,x26	 x26:0x00000001 x26:0x00000001  x6=0x00000000
       35645000	      3563	80004004	00980cb3	add	x25,x16,x9	 x16:0x00000000  x9:0x00000000 x25=0x00000000
       35655000	      3564	80004008	005dab33	slt	x22,x27,x5	 x27:0x00000800  x5:0xcbbfbf84 x22=0x00000000
       35665000	      3565	8000400c	00df9933	sll	x18,x31,x13	 x31:0x00000000 x13:0x00000001 x18=0x00000000
       35675000	      3566	80004010	01d400b3	add	x1,x8,x29	  x8:0x80009fc4 x29:0x80009f48  x1=0x00013f0c
       35685000	      3567	80004014	4a454293	xori	x5,x10,1188	 x10:0x00000004  x5=0x000004a0
       35695000	      3568	80004018	41c20c33	sub	x24,x4,x28	  x4:0x00000601 x28:0xe2cd0000 x24=0x1d330601
       35705000	      3569	8000401c	4186d1b3	sra	x3,x13,x24	 x13:0x00000001 x24:0x1d330601  x3=0x00000000
       35715000	      3570	80004020	013bc863	blt	x23,x19,80004030	 x23:0x003fffb1 x19:0x26757bd0
       35725000	      3571	00000000	00000013	addi	x0,x0,0	  x0:0x00000000
       35735000	      3572	8000402c	00000013	addi	x0,x0,0	  x0:0x00000000
       35745000	      3573	80004030	00f9f463	bgeu	x19,x15,80004038	 x19:0x26757bd0 x15:0x00000000
       35755000	      3574	00000000	00000013	addi	x0,x0,0	  x0:0x00000000
       35765000	      3575	80004034	00000013	addi	x0,x0,0	  x0:0x00000000
       35775000	      3576	80004038	e29efc13	andi	x24,x29,-471	 x29:0x80009f48 x24=0x80009e08
       35785000	      3577	8000403c	010e1233	sll	x4,x28,x16	 x28:0xe2cd0000 x16:0x00000000  x4=0xe2cd0000
       35795000	      3578	80004040	00eede63	bge	x29,x14,8000405c	 x29:0x80009f48 x14:0x80009f49
       35805000	      3579	80004044	a31946b7	lui	x13,0xa3194	 x13=0xa3194000
       35815000	      3580	80004048	00dd4cb3	xor	x25,x26,x13	 x26:0x00000001 x13:0xa3194000 x25=0xa3194001
       35825000	      3581	8000404c	00da1b93	slli	x23,x20,0xd	 x20:0x626acef0 x23=0x59de0000
       35835000	      3582	80004050	03e78c63	beq	x15,x30,80004088	 x15:0x00000000 x30:0x00000000
       35845000	      3583	00000000	00000013	addi	x0,x0,0	  x0:0x00000000
       35855000	      3584	80004084	00000013	addi	x0,x0,0	  x0:0x00000000
       35865000	      3585	80004088	009bb8b3	sltu	x17,x23,x9	 x23:0x59de0000  x9:0x00000000 x17=0x00000000
       35875000	      3586	8000408c	0001bd33	sltu	x26,x3,x0	  x3:0x00000000  x0:0x00000000 x26=0x00000000
       35885000	      3587	80004090	0301f863	bgeu	x3,x16,800040c0	  x3:0x00000000 x16:0x00000000
       35895000	      3588	00000000	00000013	addi	x0,x0,0	  x0:0x00000000
       35905000	      3589	800040bc	00000013	addi	x0,x0,0	  x0:0x00000000
       35915000	      3590	800040c0	005498b3	sll	x17,x9,x5	  x9:0x00000000  x5:0x000004a0 x17=0x00000000
       35925000	      3591	800040c4	01588fb3	add	x31,x17,x21	 x17:0x00000000 x21:0x26757ff3 x31=0x26757ff3
       35935000	      3592	800040c8	01b17463	bgeu	x2,x27,800040d0	  x2:0xffcc0001 x27:0x00000800
       35945000	      3593	00000000	00000013	addi	x0,x0,0	  x0:0x00000000
       35955000	      3594	800040cc	00000013	addi	x0,x0,0	  x0:0x00000000
       35965000	      3595	800040d0	00ade863	bltu	x27,x10,800040e0	 x27:0x00000800 x10:0x00000004
       35975000	      3596	800040d4	1a6ba593	slti	x11,x23,422	 x23:0x59de0000 x11=0x00000000
       35985000	      3597	800040d8	000d69b3	or	x19,x26,x0	 x26:0x00000000  x0:0x00000000 x19=0x00000000
       35995000	      3598	800040dc	6181fab7	lui	x21,0x6181f	 x21=0x6181f000
       36005000	      3599	800040e0	40bf5a93	srai	x21,x30,0xb	 x30:0x00000000 x21=0x00000000
       36015000	      3600	800040e4	03b91e63	bne	x18,x27,80004120	 x18:0x00000000 x27:0x00000800
       36025000	      3601	00000000	00000013	addi	x0,x0,0	  x0:0x00000000
       36035000	      3602	8000411c	00000013	addi	x0,x0,0	  x0:0x00000000
       36045000	      3603	80004120	01d11a93	slli	x21,x2,0x1d	  x2:0xffcc0001 x21=0x20000000
       36055000	      3604	80004124	00c1b633	sltu	x12,x3,x12	  x3:0x00000000 x12:0x00000080 x12=0x00000001
       36065000	      3605	80004128	01f2f4b3	and	x9,x5,x31	  x5:0x000004a0 x31:0x26757ff3  x9=0x000004a0
       36075000	      3606	8000412c	01ba42b3	xor	x5,x20,x27	 x20:0x626acef0 x27:0x00000800  x5=0x626ac6f0
       36085000	      3607	80004130	f0aa4c13	xori	x24,x20,-246	 x20:0x626acef0 x24=0x9d9531fa
       36095000	      3608	80004134	01127c63	bgeu	x4,x17,8000414c	  x4:0xe2cd0000 x17:0x00000000
       36105000	      3609	00000000	00000013	addi	x0,x0,0	  x0:0x00000000
       36115000	      3610	80004148	00000013	addi	x0,x0,0	  x0:0x00000000
       36125000	      3611	8000414c	009c8033	add	x0,x25,x9	 x25:0xa3194001  x9:0x000004a0
       36135000	      3612	80004150	017c9e33	sll	x28,x25,x23	 x25:0xa3194001 x23:0x59de0000 x28=0xa3194001
       36145000	      3613	80004154	038ccc63	blt	x25,x24,8000418c	 x25:0xa3194001 x24:0x9d9531fa
       36155000	      3614	80004158	00639a63	bne	x7,x6,8000416c	  x7:0xffcc0000  x6:0x00000000
       36165000	      3615	00000000	00000013	addi	x0,x0,0	  x0:0x00000000
       36175000	      3616	80004168	00000013	addi	x0,x0,0	  x0:0x00000000
       36185000	      3617	8000416c	9b874137	lui	x2,0x9b874	  x2=0x9b874000
       36195000	      3618	80004170	0021bf33	sltu	x30,x3,x2	  x3:0x00000000  x2:0x9b874000 x30=0x00000001
       36205000	      3619	80004174	007599b3	sll	x19,x11,x7	 x11:0x00000000  x7:0xffcc0000 x19=0x00000000
       36215000	      3620	80004178	4124d1b3	sra	x3,x9,x18	  x9:0x000004a0 x18:0x00000000  x3=0x000004a0
       36225000	      3621	8000417c	54d24113	xori	x2,x4,1357	  x4:0xe2cd0000  x2=0xe2cd054d
       36235000	      3622	80004180	00a85e63	bge	x16,x10,8000419c	 x16:0x00000000 x10:0x00000004
       36245000	      3623	80004184	412505b3	sub	x11,x10,x18	 x10:0x00000004 x18:0x00000000 x11=0x00000004
       36255000	      3624	80004188	004c1313	slli	x6,x24,0x4	 x24:0x9d9531fa  x6=0xd9531fa0
       36265000	      3625	8000418c	41cc01b3	sub	x3,x24,x28	 x24:0x9d9531fa x28:0xa3194001  x3=0xfa7bf1f9
       36275000	      3626	80004190	ca196393	ori	x7,x18,-863	 x18:0x00000000  x7=0xfffffca1
       36285000	      3627	80004194	40255633	sra	x12,x10,x2	 x10:0x00000004  x2:0xe2cd054d x12=0x00000000
       36295000	      3628	80004198	00794333	xor	x6,x18,x7	 x18:0x00000000  x7:0xfffffca1  x6=0xfffffca1
       36305000	      3629	8000419c	00e6d663	bge	x13,x14,800041a8	 x13:0xa3194000 x14:0x80009f49
       36315000	      3630	00000000	00000013	addi	x0,x0,0	  x0:0x00000000
       36325000	      3631	800041a4	00000013	addi	x0,x0,0	  x0:0x00000000
       36335000	      3632	800041a8	01f7c463	blt	x15,x31,800041b0	 x15:0x00000000 x31:0x26757ff3
       36345000	      3633	00000000	00000013	addi	x0,x0,0	  x0:0x00000000
       36355000	      3634	800041ac	00000013	addi	x0,x0,0	  x0:0x00000000
       36365000	      3635	800041b0	01554663	blt	x10,x21,800041bc	 x10:0x00000004 x21:0x20000000
       36375000	      3636	00000000	00000013	addi	x0,x0,0	  x0:0x00000000
       36385000	      3637	800041b8	00000013	addi	x0,x0,0	  x0:0x00000000
       36395000	      3638	800041bc	4066d013	srai	x0,x13,0x6	 x13:0xa3194000
       36405000	      3639	800041c0	00bdedb3	or	x27,x27,x11	 x27:0x00000800 x11:0x00000004 x27=0x00000804
       36415000	      3640	800041c4	26457917	auipc	x18,0x26457	 x18=0xa645b1c0
       36425000	      3641	800041c8	84068717	auipc	x14,0x84068	 x14=0x0406c1c4
       36435000	      3642	800041cc	03e44863	blt	x8,x30,800041fc	  x8:0x80009fc4 x30:0x00000001
       36445000	      3643	00000000	00000013	addi	x0,x0,0	  x0:0x00000000
       36455000	      3644	800041f8	00000013	addi	x0,x0,0	  x0:0x00000000
       36465000	      3645	800041fc	04ed5263	bge	x26,x14,80004240	 x26:0x00000000 x14:0x0406c1c4
       36475000	      3646	80004200	02747863	bgeu	x8,x7,80004230	  x8:0x80009fc4  x7:0xfffffca1
       36485000	      3647	80004204	41dc5513	srai	x10,x24,0x1d	 x24:0x9d9531fa x10=0xfffffffc
       36495000	      3648	80004208	01bd3f33	sltu	x30,x26,x27	 x26:0x00000000 x27:0x00000804 x30=0x00000001
       36505000	      3649	8000420c	00f4ac33	slt	x24,x9,x15	  x9:0x000004a0 x15:0x00000000 x24=0x00000000
       36515000	      3650	80004210	010ce233	or	x4,x25,x16	 x25:0xa3194001 x16:0x00000000  x4=0xa3194001
       36525000	      3651	80004214	41a0d8b3	sra	x17,x1,x26	  x1:0x00013f0c x26:0x00000000 x17=0x00013f0c
       36535000	      3652	80004218	002b1463	bne	x22,x2,80004220	 x22:0x00000000  x2:0xe2cd054d
       36545000	      3653	00000000	00000013	addi	x0,x0,0	  x0:0x00000000
       36555000	      3654	8000421c	00000013	addi	x0,x0,0	  x0:0x00000000
       36565000	      3655	80004220	79fc8213	addi	x4,x25,1951	 x25:0xa3194001  x4=0xa31947a0
       36575000	      3656	80004224	0075f4b3	and	x9,x11,x7	 x11:0x00000004  x7:0xfffffca1  x9=0x00000000
       36585000	      3657	80004228	0182d213	srli	x4,x5,0x18	  x5:0x626ac6f0  x4=0x00000062
       36595000	      3658	8000422c	6a17f913	andi	x18,x15,1697	 x15:0x00000000 x18=0x00000000
       36605000	      3659	80004230	b2bbf993	andi	x19,x23,-1237	 x23:0x59de0000 x19=0x59de0000
       36615000	      3660	80004234	00c54a63	blt	x10,x12,80004248	 x10:0xfffffffc x12:0x00000000
       36625000	      3661	00000000	00000013	addi	x0,x0,0	  x0:0x00000000
       36635000	      3662	80004244	00000013	addi	x0,x0,0	  x0:0x00000000
       36645000	      3663	80004248	011bb0b3	sltu	x1,x23,x17	 x23:0x59de0000 x17:0x00013f0c  x1=0x00000000
       36655000	      3664	8000424c	004f1a63	bne	x30,x4,80004260	 x30:0x00000001  x4:0x00000062
       36665000	      3665	00000000	00000013	addi	x0,x0,0	  x0:0x00000000
       36675000	      3666	8000425c	00000013	addi	x0,x0,0	  x0:0x00000000
       36685000	      3667	80004260	025ce063	bltu	x25,x5,80004280	 x25:0xa3194001  x5:0x626ac6f0
       36695000	      3668	80004264	00000013	addi	x0,x0,0	  x0:0x00000000
       36705000	      3669	80004268	00915d93	srli	x27,x2,0x9	  x2:0xe2cd054d x27=0x00716682
       36715000	      3670	8000426c	40da00b3	sub	x1,x20,x13	 x20:0x626acef0 x13:0xa3194000  x1=0xbf518ef0
       36725000	      3671	80004270	00f508b3	add	x17,x10,x15	 x10:0xfffffffc x15:0x00000000 x17=0xfffffffc
       36735000	      3672	80004274	904be713	ori	x14,x23,-1788	 x23:0x59de0000 x14=0xfffff904
       36745000	      3673	80004278	01483ab3	sltu	x21,x16,x20	 x16:0x00000000 x20:0x626acef0 x21=0x00000001
       36755000	      3674	8000427c	033b5863	bge	x22,x19,800042ac	 x22:0x00000000 x19:0x59de0000
       36765000	      3675	80004280	4174ce13	xori	x28,x9,1047	  x9:0x00000000 x28=0x00000417
       36775000	      3676	80004284	01d1b633	sltu	x12,x3,x29	  x3:0xfa7bf1f9 x29:0x80009f48 x12=0x00000000
       36785000	      3677	80004288	01ace463	bltu	x25,x26,80004290	 x25:0xa3194001 x26:0x00000000
       36795000	      3678	8000428c	01e29663	bne	x5,x30,80004298	  x5:0x626ac6f0 x30:0x00000001
       36805000	      3679	00000000	00000013	addi	x0,x0,0	  x0:0x00000000
       36815000	      3680	80004294	00000013	addi	x0,x0,0	  x0:0x00000000
       36825000	      3681	80004298	effeb213	sltiu	x4,x29,-257	 x29:0x80009f48  x4=0x00000001
       36835000	      3682	8000429c	00b01e13	slli	x28,x0,0xb	  x0:0x00000000 x28=0x00000000
       36845000	      3683	800042a0	00000013	addi	x0,x0,0	  x0:0x00000000
       36855000	      3684	800042a4	0222ec63	bltu	x5,x2,800042dc	  x5:0x626ac6f0  x2:0xe2cd054d
       36865000	      3685	00000000	00000013	addi	x0,x0,0	  x0:0x00000000
       36875000	      3686	800042d8	00000013	addi	x0,x0,0	  x0:0x00000000
       36885000	      3687	800042dc	00000013	addi	x0,x0,0	  x0:0x00000000
       36895000	      3688	800042e0	409b88b3	sub	x17,x23,x9	 x23:0x59de0000  x9:0x00000000 x17=0x59de0000
       36905000	      3689	800042e4	369d4b37	lui	x22,0x369d4	 x22=0x369d4000
       36915000	      3690	800042e8	008ce663	bltu	x25,x8,800042f4	 x25:0xa3194001  x8:0x80009fc4
       36925000	      3691	800042ec	d3c0ab13	slti	x22,x1,-708	  x1:0xbf518ef0 x22=0x00000001
       36935000	      3692	800042f0	92c86c93	ori	x25,x16,-1748	 x16:0x00000000 x25=0xfffff92c
       36945000	      3693	800042f4	00cd5863	bge	x26,x12,80004304	 x26:0x00000000 x12:0x00000000
       36955000	      3694	00000000	00000013	addi	x0,x0,0	  x0:0x00000000
       36965000	      3695	80004300	00000013	addi	x0,x0,0	  x0:0x00000000
       36975000	      3696	80004304	00000013	addi	x0,x0,0	  x0:0x00000000
       36985000	      3697	80004308	00a06b33	or	x22,x0,x10	  x0:0x00000000 x10:0xfffffffc x22=0xfffffffc
       36995000	      3698	8000430c	33d18293	addi	x5,x3,829	  x3:0xfa7bf1f9  x5=0xfa7bf536
       37005000	      3699	80004310	02f2fc63	bgeu	x5,x15,80004348	  x5:0xfa7bf536 x15:0x00000000
       37015000	      3700	00000000	00000013	addi	x0,x0,0	  x0:0x00000000
       37025000	      3701	80004344	00000013	addi	x0,x0,0	  x0:0x00000000
       37035000	      3702	80004348	00f7edb3	or	x27,x15,x15	 x15:0x00000000 x15:0x00000000 x27=0x00000000
       37045000	      3703	8000434c	0511d063	bge	x3,x17,8000438c	  x3:0xfa7bf1f9 x17:0x59de0000
       37055000	      3704	80004350	dc822713	slti	x14,x4,-568	  x4:0x00000001 x14=0x00000000
       37065000	      3705	80004354	02e7c863	blt	x15,x14,80004384	 x15:0x00000000 x14:0x00000000
       37075000	      3706	80004358	016a1ab3	sll	x21,x20,x22	 x20:0x626acef0 x22:0xfffffffc x21=0x00000000
       37085000	      3707	8000435c	360ae513	ori	x10,x21,864	 x21:0x00000000 x10=0x00000360
       37095000	      3708	80004360	52818937	lui	x18,0x52818	 x18=0x52818000
       37105000	      3709	80004364	001e23b3	slt	x7,x28,x1	 x28:0x00000000  x1:0xbf518ef0  x7=0x00000000
       37115000	      3710	80004368	014c5b17	auipc	x22,0x14c5	 x22=0x814c9364
       37125000	      3711	8000436c	5390ae13	slti	x28,x1,1337	  x1:0xbf518ef0 x28=0x00000001
       37135000	      3712	80004370	03ba0463	beq	x20,x27,80004398	 x20:0x626acef0 x27:0x00000000
       37145000	      3713	80004374	01431133	sll	x2,x6,x20	  x6:0xfffffca1 x20:0x626acef0  x2=0xfca10000
       37155000	      3714	80004378	01a30d33	add	x26,x6,x26	  x6:0xfffffca1 x26:0x00000000 x26=0xfffffca1
       37165000	      3715	8000437c	41ec0933	sub	x18,x24,x30	 x24:0x00000000 x30:0x00000001 x18=0xffffffff
       37175000	      3716	80004380	002dfa33	and	x20,x27,x2	 x27:0x00000000  x2:0xfca10000 x20=0x00000000
       37185000	      3717	80004384	01ec4533	xor	x10,x24,x30	 x24:0x00000000 x30:0x00000001 x10=0x00000001
       37195000	      3718	80004388	00f44463	blt	x8,x15,80004390	  x8:0x80009fc4 x15:0x00000000
       37205000	      3719	00000000	00000013	addi	x0,x0,0	  x0:0x00000000
       37215000	      3720	8000438c	00000013	addi	x0,x0,0	  x0:0x00000000
       37225000	      3721	80004390	003f9b13	slli	x22,x31,0x3	 x31:0x26757ff3 x22=0x33abff98
       37235000	      3722	80004394	408bdf13	srai	x30,x23,0x8	 x23:0x59de0000 x30=0x0059de00
       37245000	      3723	80004398	41bd88b3	sub	x17,x27,x27	 x27:0x00000000 x27:0x00000000 x17=0x00000000
       37255000	      3724	8000439c	00367333	and	x6,x12,x3	 x12:0x00000000  x3:0xfa7bf1f9  x6=0x00000000
       37265000	      3725	800043a0	b0baba93	sltiu	x21,x21,-1269	 x21:0x00000000 x21=0x00000001
       37275000	      3726	800043a4	81d62693	slti	x13,x12,-2019	 x12:0x00000000 x13=0x00000000
       37285000	      3727	800043a8	40d70233	sub	x4,x14,x13	 x14:0x00000000 x13:0x00000000  x4=0x00000000
       37295000	      3728	800043ac	00216c33	or	x24,x2,x2	  x2:0xfca10000  x2:0xfca10000 x24=0xfca10000
       37305000	      3729	800043b0	d26af9b7	lui	x19,0xd26af	 x19=0xd26af000
       37315000	      3730	800043b4	01bcd613	srli	x12,x25,0x1b	 x25:0xfffff92c x12=0x0000001f
       37325000	      3731	800043b8	00af1cb3	sll	x25,x30,x10	 x30:0x0059de00 x10:0x00000001 x25=0x00b3bc00
       37335000	      3732	800043bc	878e3537	lui	x10,0x878e3	 x10=0x878e3000
       37345000	      3733	800043c0	00f382b3	add	x5,x7,x15	  x7:0x00000000 x15:0x00000000  x5=0x00000000
       37355000	      3734	800043c4	a2c6b193	sltiu	x3,x13,-1492	 x13:0x00000000  x3=0x00000001
       37365000	      3735	800043c8	01984c33	xor	x24,x16,x25	 x16:0x00000000 x25:0x00b3bc00 x24=0x00b3bc00
       37375000	      3736	800043cc	01945293	srli	x5,x8,0x19	  x8:0x80009fc4  x5=0x00000040
       37385000	      3737	800043d0	003d9293	slli	x5,x27,0x3	 x27:0x00000000  x5=0x00000000
       37395000	      3738	800043d4	01b5d693	srli	x13,x11,0x1b	 x11:0x00000004 x13=0x00000000
       37405000	      3739	800043d8	5d5c6713	ori	x14,x24,1493	 x24:0x00b3bc00 x14=0x00b3bdd5
       37415000	      3740	800043dc	00b19463	bne	x3,x11,800043e4	  x3:0x00000001 x11:0x00000004
       37425000	      3741	00000000	00000013	addi	x0,x0,0	  x0:0x00000000
       37435000	      3742	800043e0	00000013	addi	x0,x0,0	  x0:0x00000000
       37445000	      3743	800043e4	01181c63	bne	x16,x17,800043fc	 x16:0x00000000 x17:0x00000000
       37455000	      3744	800043e8	1c30c113	xori	x2,x1,451	  x1:0xbf518ef0  x2=0xbf518f33
       37465000	      3745	800043ec	0064bab3	sltu	x21,x9,x6	  x9:0x00000000  x6:0x00000000 x21=0x00000000
       37475000	      3746	800043f0	01ef7033	and	x0,x30,x30	 x30:0x0059de00 x30:0x0059de00
       37485000	      3747	800043f4	01eb51b3	srl	x3,x22,x30	 x22:0x33abff98 x30:0x0059de00  x3=0x33abff98
       37495000	      3748	800043f8	f10711b7	lui	x3,0xf1071	  x3=0xf1071000
       37505000	      3749	800043fc	9b0eff93	andi	x31,x29,-1616	 x29:0x80009f48 x31=0x80009900
       37515000	      3750	80004400	0157d493	srli	x9,x15,0x15	 x15:0x00000000  x9=0x00000000
       37525000	      3751	80004404	7f64f093	andi	x1,x9,2038	  x9:0x00000000  x1=0x00000000
       37535000	      3752	80004408	006b7863	bgeu	x22,x6,80004418	 x22:0x33abff98  x6:0x00000000
       37545000	      3753	00000000	00000013	addi	x0,x0,0	  x0:0x00000000
       37555000	      3754	80004414	00000013	addi	x0,x0,0	  x0:0x00000000
       37565000	      3755	80004418	01705463	bge	x0,x23,80004420	  x0:0x00000000 x23:0x59de0000
       37575000	      3756	8000441c	03a24263	blt	x4,x26,80004440	  x4:0x00000000 x26:0xfffffca1
       37585000	      3757	80004420	013d3cb3	sltu	x25,x26,x19	 x26:0xfffffca1 x19:0xd26af000 x25=0x00000000
       37595000	      3758	80004424	5f9a4613	xori	x12,x20,1529	 x20:0x00000000 x12=0x000005f9
       37605000	      3759	80004428	01941133	sll	x2,x8,x25	  x8:0x80009fc4 x25:0x00000000  x2=0x80009fc4
       37615000	      3760	8000442c	00e79a33	sll	x20,x15,x14	 x15:0x00000000 x14:0x00b3bdd5 x20=0x00000000
       37625000	      3761	80004430	05f79263	bne	x15,x31,80004474	 x15:0x00000000 x31:0x80009900
       37635000	      3762	00000000	00000013	addi	x0,x0,0	  x0:0x00000000
       37645000	      3763	80004470	00000013	addi	x0,x0,0	  x0:0x00000000
       37655000	      3764	80004474	01168333	add	x6,x13,x17	 x13:0x00000000 x17:0x00000000  x6=0x00000000
       37665000	      3765	80004478	01931533	sll	x10,x6,x25	  x6:0x00000000 x25:0x00000000 x10=0x00000000
       37675000	      3766	8000447c	40948033	sub	x0,x9,x9	  x9:0x00000000  x9:0x00000000
       37685000	      3767	80004480	f6d9bb13	sltiu	x22,x19,-147	 x19:0xd26af000 x22=0x00000001
       37695000	      3768	80004484	4d390913	addi	x18,x18,1235	 x18:0xffffffff x18=0x000004d2
       37705000	      3769	80004488	ec20e993	ori	x19,x1,-318	  x1:0x00000000 x19=0xfffffec2
       37715000	      3770	8000448c	41168633	sub	x12,x13,x17	 x13:0x00000000 x17:0x00000000 x12=0x00000000
       37725000	      3771	80004490	e1b14b93	xori	x23,x2,-485	  x2:0x80009fc4 x23=0x7fff61df
       37735000	      3772	80004494	012c5d13	srli	x26,x24,0x12	 x24:0x00b3bc00 x26=0x0000002c
       37745000	      3773	80004498	6338e493	ori	x9,x17,1587	 x17:0x00000000  x9=0x00000633
       37755000	      3774	8000449c	40935f13	srai	x30,x6,0x9	  x6:0x00000000 x30=0x00000000
       37765000	      3775	800044a0	0022da63	bge	x5,x2,800044b4	  x5:0x00000000  x2:0x80009fc4
       37775000	      3776	00000000	00000013	addi	x0,x0,0	  x0:0x00000000
       37785000	      3777	800044b0	00000013	addi	x0,x0,0	  x0:0x00000000
       37795000	      3778	800044b4	026d5863	bge	x26,x6,800044e4	 x26:0x0000002c  x6:0x00000000
       37805000	      3779	00000000	00000013	addi	x0,x0,0	  x0:0x00000000
       37815000	      3780	800044e0	00000013	addi	x0,x0,0	  x0:0x00000000
       37825000	      3781	800044e4	0188a9b3	slt	x19,x17,x24	 x17:0x00000000 x24:0x00b3bc00 x19=0x00000001
       37835000	      3782	800044e8	65362893	slti	x17,x12,1619	 x12:0x00000000 x17=0x00000001
       37845000	      3783	800044ec	013045b3	xor	x11,x0,x19	  x0:0x00000000 x19:0x00000001 x11=0x00000001
       37855000	      3784	800044f0	01d8e463	bltu	x17,x29,800044f8	 x17:0x00000001 x29:0x80009f48
       37865000	      3785	00000000	00000013	addi	x0,x0,0	  x0:0x00000000
       37875000	      3786	800044f4	00000013	addi	x0,x0,0	  x0:0x00000000
       37885000	      3787	800044f8	6fd3e893	ori	x17,x7,1789	  x7:0x00000000 x17=0x000006fd
       37895000	      3788	800044fc	018fc133	xor	x2,x31,x24	 x31:0x80009900 x24:0x00b3bc00  x2=0x80b32500
       37905000	      3789	80004500	03558863	beq	x11,x21,80004530	 x11:0x00000001 x21:0x00000000
       37915000	      3790	80004504	af1bf597	auipc	x11,0xaf1bf	 x11=0x2f1c3500
       37925000	      3791	80004508	00071e63	bne	x14,x0,80004524	 x14:0x00b3bdd5  x0:0x00000000
       37935000	      3792	00000000	00000013	addi	x0,x0,0	  x0:0x00000000
       37945000	      3793	80004520	00000013	addi	x0,x0,0	  x0:0x00000000
       37955000	      3794	80004524	33b18a93	addi	x21,x3,827	  x3:0xf1071000 x21=0xf107133b
       37965000	      3795	80004528	0119da93	srli	x21,x19,0x11	 x19:0x00000001 x21=0x00000000
       37975000	      3796	8000452c	02e8d063	bge	x17,x14,8000454c	 x17:0x000006fd x14:0x00b3bdd5
       37985000	      3797	80004530	01355463	bge	x10,x19,80004538	 x10:0x00000000 x19:0x00000001
       37995000	      3798	80004534	00918cb3	add	x25,x3,x9	  x3:0xf1071000  x9:0x00000633 x25=0xf1071633
       38005000	      3799	80004538	0079f133	and	x2,x19,x7	 x19:0x00000001  x7:0x00000000  x2=0x00000000
       38015000	      3800	8000453c	01e12233	slt	x4,x2,x30	  x2:0x00000000 x30:0x00000000  x4=0x00000000
       38025000	      3801	80004540	2ee18993	addi	x19,x3,750	  x3:0xf1071000 x19=0xf10712ee
       38035000	      3802	80004544	2093dab7	lui	x21,0x2093d	 x21=0x2093d000
       38045000	      3803	80004548	00595813	srli	x16,x18,0x5	 x18:0x000004d2 x16=0x00000026
       38055000	      3804	8000454c	00cb92b3	sll	x5,x23,x12	 x23:0x7fff61df x12:0x00000000  x5=0x7fff61df
       38065000	      3805	80004550	004eaf03	lw	x30,4(x29)	 x29:0x80009f48 x30=0x80005ca4 PA:0x80009f4c
       38075000	      3806	80004554	028e8e93	addi	x29,x29,40	 x29:0x80009f48 x29=0x80009f70
       38085000	      3807	80004558	00000013	addi	x0,x0,0	  x0:0x00000000
       38095000	      3808	8000455c	00000013	addi	x0,x0,0	  x0:0x00000000
       38105000	      3809	80004560	0145a833	slt	x16,x11,x20	 x11:0x2f1c3500 x20:0x00000000 x16=0x00000000
       38115000	      3810	80004564	b29a7193	andi	x3,x20,-1239	 x20:0x00000000  x3=0x00000000
       38125000	      3811	80004568	ed4cc393	xori	x7,x25,-300	 x25:0xf1071633  x7=0x0ef8e8e7
       38135000	      3812	8000456c	000f0d93	addi	x27,x30,0	 x30:0x80005ca4 x27=0x80005ca4
       38145000	      3813	80004570	000d8de7	jalr	x27,x27,0	 x27:0x80005ca4 x27=0x80004570
       38155000	      3814	00000000	00000013	addi	x0,x0,0	  x0:0x00000000
       38165000	      3815	80005ca4	00000013	addi	x0,x0,0	  x0:0x00000000
       38175000	      3816	80005ca8	00587d33	and	x26,x16,x5	 x16:0x00000000  x5:0x7fff61df x26=0x00000000
       38185000	      3817	80005cac	0963ba13	sltiu	x20,x7,150	  x7:0x0ef8e8e7 x20=0x00000000
       38195000	      3818	80005cb0	51d18513	addi	x10,x3,1309	  x3:0x00000000 x10=0x0000051d
       38205000	      3819	80005cb4	00527263	bgeu	x4,x5,80005cb8	  x4:0x00000000  x5:0x7fff61df
       38215000	      3820	80005cb8	03d48263	beq	x9,x29,80005cdc	  x9:0x00000633 x29:0x80009f70
       38225000	      3821	80005cbc	03768063	beq	x13,x23,80005cdc	 x13:0x00000000 x23:0x7fff61df
       38235000	      3822	80005cc0	00db5913	srli	x18,x22,0xd	 x22:0x00000001 x18=0x00000000
       38245000	      3823	80005cc4	1f2a4b93	xori	x23,x20,498	 x20:0x00000000 x23=0x000001f2
       38255000	      3824	80005cc8	4125da13	srai	x20,x11,0x12	 x11:0x2f1c3500 x20=0x00000bc7
       38265000	      3825	80005ccc	00e59a33	sll	x20,x11,x14	 x11:0x2f1c3500 x14:0x00b3bdd5 x20=0xa0000000
       38275000	      3826	80005cd0	01b04663	blt	x0,x27,80005cdc	  x0:0x00000000 x27:0x80004570
       38285000	      3827	80005cd4	40c18733	sub	x14,x3,x12	  x3:0x00000000 x12:0x00000000 x14=0x00000000
       38295000	      3828	80005cd8	015ce833	or	x16,x25,x21	 x25:0xf1071633 x21:0x2093d000 x16=0xf197d633
       38305000	      3829	80005cdc	40d10333	sub	x6,x2,x13	  x2:0x00000000 x13:0x00000000  x6=0x00000000
       38315000	      3830	80005ce0	004eaf03	lw	x30,4(x29)	 x29:0x80009f70 x30=0x800007d4 PA:0x80009f74
       38325000	      3831	80005ce4	c94fa493	slti	x9,x31,-876	 x31:0x80009900  x9=0x00000001
       38335000	      3832	80005ce8	014e8e93	addi	x29,x29,20	 x29:0x80009f70 x29=0x80009f84
       38345000	      3833	80005cec	40205593	srai	x11,x0,0x2	  x0:0x00000000 x11=0x00000000
       38355000	      3834	80005cf0	00a55993	srli	x19,x10,0xa	 x10:0x0000051d x19=0x00000001
       38365000	      3835	80005cf4	000f0093	addi	x1,x30,0	 x30:0x800007d4  x1=0x800007d4
       38375000	      3836	80005cf8	000080e7	jalr	x1,x1,0	  x1:0x800007d4  x1=0x80005cf8
       38385000	      3837	00000000	00000013	addi	x0,x0,0	  x0:0x00000000
       38395000	      3838	800007d4	00000013	addi	x0,x0,0	  x0:0x00000000
       38405000	      3839	800007d8	01dcd633	srl	x12,x25,x29	 x25:0xf1071633 x29:0x80009f84 x12=0x0f107163
       38415000	      3840	800007dc	41ce53b3	sra	x7,x28,x28	 x28:0x00000001 x28:0x00000001  x7=0x00000000
       38425000	      3841	800007e0	757b7c13	andi	x24,x22,1879	 x22:0x00000001 x24=0x00000001
       38435000	      3842	800007e4	dfa00a13	addi	x20,x0,-518	  x0:0x00000000 x20=0xfffffdfa
       38445000	      3843	800007e8	00016bb3	or	x23,x2,x0	  x2:0x00000000  x0:0x00000000 x23=0x00000000
       38455000	      3844	800007ec	00000013	addi	x0,x0,0	  x0:0x00000000
       38465000	      3845	800007f0	40bb5f13	srai	x30,x22,0xb	 x22:0x00000001 x30=0x00000000
       38475000	      3846	800007f4	4148d913	srai	x18,x17,0x14	 x17:0x000006fd x18=0x00000000
       38485000	      3847	800007f8	00601f13	slli	x30,x0,0x6	  x0:0x00000000 x30=0x00000000
       38495000	      3848	800007fc	1806c837	lui	x16,0x1806c	 x16=0x1806c000
       38505000	      3849	80000800	00c3f833	and	x16,x7,x12	  x7:0x00000000 x12:0x0f107163 x16=0x00000000
       38515000	      3850	80000804	87ada913	slti	x18,x27,-1926	 x27:0x80004570 x18=0x00000001
       38525000	      3851	80000808	04540863	beq	x8,x5,80000858	  x8:0x80009fc4  x5:0x7fff61df
       38535000	      3852	8000080c	62878313	addi	x6,x15,1576	 x15:0x00000000  x6=0x00000628
       38545000	      3853	80000810	1d498397	auipc	x7,0x1d498	  x7=0x9d49880c
       38555000	      3854	80000814	bc16e493	ori	x9,x13,-1087	 x13:0x00000000  x9=0xfffffbc1
       38565000	      3855	80000818	32a73f37	lui	x30,0x32a73	 x30=0x32a73000
       38575000	      3856	8000081c	6659e713	ori	x14,x19,1637	 x19:0x00000001 x14=0x00000665
       38585000	      3857	80000820	991de613	ori	x12,x27,-1647	 x27:0x80004570 x12=0xfffffdf1
       38595000	      3858	80000824	6b484b13	xori	x22,x16,1716	 x16:0x00000000 x22=0x000006b4
       38605000	      3859	80000828	0012e833	or	x16,x5,x1	  x5:0x7fff61df  x1:0x80005cf8 x16=0xffff7dff
       38615000	      3860	8000082c	013ed633	srl	x12,x29,x19	 x29:0x80009f84 x19:0x00000001 x12=0x40004fc2
       38625000	      3861	80000830	050c8063	beq	x25,x16,80000870	 x25:0xf1071633 x16:0xffff7dff
       38635000	      3862	80000834	5ce14a97	auipc	x21,0x5ce14	 x21=0xdce14830
       38645000	      3863	80000838	00a19713	slli	x14,x3,0xa	  x3:0x00000000 x14=0x00000000
       38655000	      3864	8000083c	027dc063	blt	x27,x7,8000085c	 x27:0x80004570  x7:0x9d49880c
       38665000	      3865	00000000	00000013	addi	x0,x0,0	  x0:0x00000000
       38675000	      3866	80000858	00000013	addi	x0,x0,0	  x0:0x00000000
       38685000	      3867	8000085c	9a414713	xori	x14,x2,-1628	  x2:0x00000000 x14=0xfffff9a4
       38695000	      3868	80000860	40c30cb3	sub	x25,x6,x12	  x6:0x00000628 x12:0x40004fc2 x25=0xbfffb666
       38705000	      3869	80000864	04630663	beq	x6,x6,800008b0	  x6:0x00000628  x6:0x00000628
       38715000	      3870	00000000	00000013	addi	x0,x0,0	  x0:0x00000000
       38725000	      3871	800008ac	00000013	addi	x0,x0,0	  x0:0x00000000
       38735000	      3872	800008b0	2cf9f313	andi	x6,x19,719	 x19:0x00000001  x6=0x00000001
       38745000	      3873	800008b4	0e74da63	bge	x9,x7,800009a8	  x9:0xfffffbc1  x7:0x9d49880c
       38755000	      3874	00000000	00000013	addi	x0,x0,0	  x0:0x00000000
       38765000	      3875	800009a4	00000013	addi	x0,x0,0	  x0:0x00000000
       38775000	      3876	800009a8	0136d6b3	srl	x13,x13,x19	 x13:0x00000000 x19:0x00000001 x13=0x00000000
       38785000	      3877	800009ac	00a5ff33	and	x30,x11,x10	 x11:0x00000000 x10:0x0000051d x30=0x00000000
       38795000	      3878	800009b0	04cd5263	bge	x26,x12,800009f4	 x26:0x00000000 x12:0x40004fc2
       38805000	      3879	800009b4	baa58013	addi	x0,x11,-1110	 x11:0x00000000
       38815000	      3880	800009b8	a8052893	slti	x17,x10,-1408	 x10:0x0000051d x17=0x00000000
       38825000	      3881	800009bc	416c8833	sub	x16,x25,x22	 x25:0xbfffb666 x22:0x000006b4 x16=0xbfffafb2
       38835000	      3882	800009c0	6c6dca93	xori	x21,x27,1734	 x27:0x80004570 x21=0x800043b6
       38845000	      3883	800009c4	037cc463	blt	x25,x23,800009ec	 x25:0xbfffb666 x23:0x00000000
       38855000	      3884	00000000	00000013	addi	x0,x0,0	  x0:0x00000000
       38865000	      3885	800009e8	00000013	addi	x0,x0,0	  x0:0x00000000
       38875000	      3886	800009ec	190b8f17	auipc	x30,0x190b8	 x30=0x990b89e8
       38885000	      3887	800009f0	04c26063	bltu	x4,x12,80000a30	  x4:0x00000000 x12:0x40004fc2
       38895000	      3888	00000000	00000013	addi	x0,x0,0	  x0:0x00000000
       38905000	      3889	80000a2c	00000013	addi	x0,x0,0	  x0:0x00000000
       38915000	      3890	80000a30	417a05b3	sub	x11,x20,x23	 x20:0xfffffdfa x23:0x00000000 x11=0xfffffdfa
       38925000	      3891	80000a34	00710533	add	x10,x2,x7	  x2:0x00000000  x7:0x9d49880c x10=0x9d49880c
       38935000	      3892	80000a38	ea726b13	ori	x22,x4,-345	  x4:0x00000000 x22=0xfffffea7
       38945000	      3893	80000a3c	01e143b3	xor	x7,x2,x30	  x2:0x00000000 x30:0x990b89e8  x7=0x990b89e8
       38955000	      3894	80000a40	403b08b3	sub	x17,x22,x3	 x22:0xfffffea7  x3:0x00000000 x17=0xfffffea7
       38965000	      3895	80000a44	00000013	addi	x0,x0,0	  x0:0x00000000
       38975000	      3896	80000a48	00b25e33	srl	x28,x4,x11	  x4:0x00000000 x11:0xfffffdfa x28=0x00000000
       38985000	      3897	80000a4c	40638a33	sub	x20,x7,x6	  x7:0x990b89e8  x6:0x00000001 x20=0x990b89e7
       38995000	      3898	80000a50	31fa6217	auipc	x4,0x31fa6	  x4=0xb1fa6a4c
       39005000	      3899	80000a54	01386133	or	x2,x16,x19	 x16:0xbfffafb2 x19:0x00000001  x2=0xbfffafb3
       39015000	      3900	80000a58	00a37663	bgeu	x6,x10,80000a64	  x6:0x00000001 x10:0x9d49880c
       39025000	      3901	80000a5c	00000013	addi	x0,x0,0	  x0:0x00000000
       39035000	      3902	80000a60	01f15993	srli	x19,x2,0x1f	  x2:0xbfffafb3 x19=0x00000001
       39045000	      3903	80000a64	00a4f663	bgeu	x9,x10,80000a70	  x9:0xfffffbc1 x10:0x9d49880c
       39055000	      3904	00000000	00000013	addi	x0,x0,0	  x0:0x00000000
       39065000	      3905	80000a6c	00000013	addi	x0,x0,0	  x0:0x00000000
       39075000	      3906	80000a70	005dbd33	sltu	x26,x27,x5	 x27:0x80004570  x5:0x7fff61df x26=0x00000000
       39085000	      3907	80000a74	00000797	auipc	x15,0x0	 x15=0x80000a70
       39095000	      3908	80000a78	00c78793	addi	x15,x15,12	 x15:0x80000a70 x15=0x80000a7c
       39105000	      3909	80000a7c	00078067	jalr	x0,x15,0	 x15:0x80000a7c
       39115000	      3910	00000000	00000013	addi	x0,x0,0	  x0:0x00000000
       39125000	      3911	80000a7c	00000013	addi	x0,x0,0	  x0:0x00000000
       39135000	      3912	80000a80	00100193	addi	x3,x0,1	  x0:0x00000000  x3=0x00000001
       39145000	      3913	80000a84	00000073	ecall	
       39155000	      3914	80000a88	41665933	sra	x18,x12,x22	 x12:0x40004fc2 x22:0xfffffea7 x18=0x0080009f
