		Time			Cycle	PC		Insn	Decoded instruction	Register and memory contents
          65000	         5	80000004	00000293	addi	x5,x0,0	  x0:0x00000000  x5=0x00000000
          75000	         6	80000008	00000313	addi	x6,x0,0	  x0:0x00000000  x6=0x00000000
          85000	         7	8000000c	00628263	beq	x5,x6,80000010	  x5:0x00000000  x6:0x00000000
          95000	         8	00000000	00000013	addi	x0,x0,0	  x0:0x00000000
         105000	         9	8000000c	00000013	addi	x0,x0,0	  x0:0x00000000
         115000	        10	80000010	00000317	auipc	x6,0x0	  x6=0x8000000c
         125000	        11	80000014	00c30313	addi	x6,x6,12	  x6:0x8000000c  x6=0x80000018
         135000	        12	80000018	00030067	jalr	x0,x6,0	  x6:0x80000018
         145000	        13	00000000	00000013	addi	x0,x0,0	  x0:0x00000000
         155000	        14	80000018	00000013	addi	x0,x0,0	  x0:0x00000000
         165000	        15	8000001c	40000bb7	lui	x23,0x40000	 x23=0x40000000
         175000	        16	80000020	100b8b93	addi	x23,x23,256	 x23:0x40000000 x23=0x40000100
         185000	        17	80000024	00000013	addi	x0,x0,0	  x0:0x00000000
         195000	        18	80000028	0000a417	auipc	x8,0xa	  x8=0x8000a024
         205000	        19	8000002c	fa040413	addi	x8,x8,-96	  x8:0x8000a024  x8=0x80009fc4
         215000	        20	80000030	00007b97	auipc	x23,0x7	 x23=0x8000702c
         225000	        21	80000034	adcb8b93	addi	x23,x23,-1316	 x23:0x8000702c x23=0x80006b08
         235000	        22	80000038	000beb93	ori	x23,x23,0	 x23:0x80006b08 x23=0x80006b08
         245000	        23	8000003c	00000013	addi	x0,x0,0	  x0:0x00000000
         255000	        24	80000040	00000b97	auipc	x23,0x0	 x23=0x8000003c
         265000	        25	80000044	020b8b93	addi	x23,x23,32	 x23:0x8000003c x23=0x8000005c
         275000	        26	80000048	00000013	addi	x0,x0,0	  x0:0x00000000
         285000	        27	8000004c	00000013	addi	x0,x0,0	  x0:0x00000000
         295000	        28	80000050	00002bb7	lui	x23,0x2	 x23=0x00002000
         305000	        29	80000054	800b8b93	addi	x23,x23,-2048	 x23:0x00002000 x23=0x00001800
         315000	        30	80000058	00000013	addi	x0,x0,0	  x0:0x00000000
         325000	        31	8000005c	00000013	addi	x0,x0,0	  x0:0x00000000
         335000	        32	80000060	00e00013	addi	x0,x0,14	  x0:0x00000000
         345000	        33	80000064	da2620b7	lui	x1,0xda262	  x1=0xda262000
         355000	        34	80000068	58208093	addi	x1,x1,1410	  x1:0xda262000  x1=0xda262582
         365000	        35	8000006c	00600113	addi	x2,x0,6	  x0:0x00000000  x2=0x00000006
         375000	        36	80000070	fc9fb1b7	lui	x3,0xfc9fb	  x3=0xfc9fb000
         385000	        37	80000074	9f418193	addi	x3,x3,-1548	  x3:0xfc9fb000  x3=0xfc9fa9f4
         395000	        38	80000078	80000237	lui	x4,0x80000	  x4=0x80000000
         405000	        39	8000007c	182742b7	lui	x5,0x18274	  x5=0x18274000
         415000	        40	80000080	d9b28293	addi	x5,x5,-613	  x5:0x18274000  x5=0x18273d9b
         425000	        41	80000084	00e00313	addi	x6,x0,14	  x0:0x00000000  x6=0x0000000e
         435000	        42	80000088	00000393	addi	x7,x0,0	  x0:0x00000000  x7=0x00000000
         445000	        43	8000008c	800004b7	lui	x9,0x80000	  x9=0x80000000
         455000	        44	80000090	00000513	addi	x10,x0,0	  x0:0x00000000 x10=0x00000000
         465000	        45	80000094	00000593	addi	x11,x0,0	  x0:0x00000000 x11=0x00000000
         475000	        46	80000098	f3b77637	lui	x12,0xf3b77	 x12=0xf3b77000
         485000	        47	8000009c	f5760613	addi	x12,x12,-169	 x12:0xf3b77000 x12=0xf3b76f57
         495000	        48	800000a0	800006b7	lui	x13,0x80000	 x13=0x80000000
         505000	        49	800000a4	00000713	addi	x14,x0,0	  x0:0x00000000 x14=0x00000000
         515000	        50	800000a8	00e00793	addi	x15,x0,14	  x0:0x00000000 x15=0x0000000e
         525000	        51	800000ac	fde89837	lui	x16,0xfde89	 x16=0xfde89000
         535000	        52	800000b0	5af80813	addi	x16,x16,1455	 x16:0xfde89000 x16=0xfde895af
         545000	        53	800000b4	2d1ef8b7	lui	x17,0x2d1ef	 x17=0x2d1ef000
         555000	        54	800000b8	fb988893	addi	x17,x17,-71	 x17:0x2d1ef000 x17=0x2d1eefb9
         565000	        55	800000bc	01dc9937	lui	x18,0x1dc9	 x18=0x01dc9000
         575000	        56	800000c0	a5e90913	addi	x18,x18,-1442	 x18:0x01dc9000 x18=0x01dc8a5e
         585000	        57	800000c4	800009b7	lui	x19,0x80000	 x19=0x80000000
         595000	        58	800000c8	80000ab7	lui	x21,0x80000	 x21=0x80000000
         605000	        59	800000cc	9b120b37	lui	x22,0x9b120	 x22=0x9b120000
         615000	        60	800000d0	543b0b13	addi	x22,x22,1347	 x22:0x9b120000 x22=0x9b120543
         625000	        61	800000d4	fa1d4bb7	lui	x23,0xfa1d4	 x23=0xfa1d4000
         635000	        62	800000d8	ebab8b93	addi	x23,x23,-326	 x23:0xfa1d4000 x23=0xfa1d3eba
         645000	        63	800000dc	80000c37	lui	x24,0x80000	 x24=0x80000000
         655000	        64	800000e0	00000c93	addi	x25,x0,0	  x0:0x00000000 x25=0x00000000
         665000	        65	800000e4	00000d13	addi	x26,x0,0	  x0:0x00000000 x26=0x00000000
         675000	        66	800000e8	f8c1cdb7	lui	x27,0xf8c1c	 x27=0xf8c1c000
         685000	        67	800000ec	92cd8d93	addi	x27,x27,-1748	 x27:0xf8c1c000 x27=0xf8c1b92c
         695000	        68	800000f0	80000e37	lui	x28,0x80000	 x28=0x80000000
         705000	        69	800000f4	fcc99eb7	lui	x29,0xfcc99	 x29=0xfcc99000
         715000	        70	800000f8	5dae8e93	addi	x29,x29,1498	 x29:0xfcc99000 x29=0xfcc995da
         725000	        71	800000fc	fb51df37	lui	x30,0xfb51d	 x30=0xfb51d000
         735000	        72	80000100	c08f0f13	addi	x30,x30,-1016	 x30:0xfb51d000 x30=0xfb51cc08
         745000	        73	80000104	80000fb7	lui	x31,0x80000	 x31=0x80000000
         755000	        74	80000108	0000aa17	auipc	x20,0xa	 x20=0x8000a104
         765000	        75	8000010c	e80a0a13	addi	x20,x20,-384	 x20:0x8000a104 x20=0x80009f84
         775000	        76	80000110	019c6c33	or	x24,x24,x25	 x24:0x80000000 x25:0x00000000 x24=0x80000000
         785000	        77	80000114	01619c13	slli	x24,x3,0x16	  x3:0xfc9fa9f4 x24=0x7d000000
         795000	        78	80000118	00000013	addi	x0,x0,0	  x0:0x00000000
         805000	        79	8000011c	0058b233	sltu	x4,x17,x5	 x17:0x2d1eefb9  x5:0x18273d9b  x4=0x00000000
         815000	        80	80000120	00006617	auipc	x12,0x6	 x12=0x8000611c
         825000	        81	80000124	fdc60613	addi	x12,x12,-36	 x12:0x8000611c x12=0x800060f8
         835000	        82	80000128	6e756017	auipc	x0,0x6e756	
         845000	        83	8000012c	002ab1b3	sltu	x3,x21,x2	 x21:0x80000000  x2:0x00000006  x3=0x00000000
         855000	        84	80000130	416ed113	srai	x2,x29,0x16	 x29:0xfcc995da  x2=0xfffffff3
         865000	        85	80000134	d4a60613	addi	x12,x12,-694	 x12:0x800060f8 x12=0x80005e42
         875000	        86	80000138	00989d93	slli	x27,x17,0x9	 x17:0x2d1eefb9 x27=0x3ddf7200
         885000	        87	8000013c	2b7600e7	jalr	x1,x12,695	 x12:0x80005e42  x1=0x8000013c
         895000	        88	00000000	00000013	addi	x0,x0,0	  x0:0x00000000
         905000	        89	800060f8	00000013	addi	x0,x0,0	  x0:0x00000000
         915000	        90	800060fc	01bc8eb3	add	x29,x25,x27	 x25:0x00000000 x27:0x3ddf7200 x29=0x3ddf7200
         925000	        91	80006100	00a41463	bne	x8,x10,80006108	  x8:0x80009fc4 x10:0x00000000
         935000	        92	00000000	00000013	addi	x0,x0,0	  x0:0x00000000
         945000	        93	80006104	00000013	addi	x0,x0,0	  x0:0x00000000
         955000	        94	80006108	fcca0a13	addi	x20,x20,-52	 x20:0x80009f84 x20=0x80009f50
         965000	        95	8000610c	40830033	sub	x0,x6,x8	  x6:0x0000000e  x8:0x80009fc4
         975000	        96	80006110	001a2223	sw	x1,4(x20)	 x20:0x80009f50  x1:0x8000013c PA:0x80009f54
         985000	        97	80006114	01a26833	or	x16,x4,x26	  x4:0x00000000 x26:0x00000000 x16=0x00000000
         995000	        98	80006118	00b65793	srli	x15,x12,0xb	 x12:0x80005e42 x15=0x0010000b
        1005000	        99	8000611c	7f7ee093	ori	x1,x29,2039	 x29:0x3ddf7200  x1=0x3ddf77f7
        1015000	       100	80006120	01cefc63	bgeu	x29,x28,80006138	 x29:0x3ddf7200 x28:0x80000000
        1025000	       101	80006124	01945913	srli	x18,x8,0x19	  x8:0x80009fc4 x18=0x00000040
        1035000	       102	80006128	00582b33	slt	x22,x16,x5	 x16:0x00000000  x5:0x18273d9b x22=0x00000001
        1045000	       103	8000612c	01a71f13	slli	x30,x14,0x1a	 x14:0x00000000 x30=0x00000000
        1055000	       104	80006130	410b5793	srai	x15,x22,0x10	 x22:0x00000001 x15=0x00000000
        1065000	       105	80006134	fa988693	addi	x13,x17,-87	 x17:0x2d1eefb9 x13=0x2d1eef62
        1075000	       106	80006138	998fa0ef	jal	x1,80006138	  x1=0x80006138
        1085000	       107	00000000	00000013	addi	x0,x0,0	  x0:0x00000000
        1095000	       108	800002cc	00000013	addi	x0,x0,0	  x0:0x00000000
        1105000	       109	800002d0	40000eb3	sub	x29,x0,x0	  x0:0x00000000  x0:0x00000000 x29=0x00000000
        1115000	       110	800002d4	01154263	blt	x10,x17,800002d8	 x10:0x00000000 x17:0x2d1eefb9
        1125000	       111	00000000	00000013	addi	x0,x0,0	  x0:0x00000000
        1135000	       112	800002d4	00000013	addi	x0,x0,0	  x0:0x00000000
        1145000	       113	800002d8	fcca0a13	addi	x20,x20,-52	 x20:0x80009f50 x20=0x80009f1c
        1155000	       114	800002dc	422aa017	auipc	x0,0x422aa	
        1165000	       115	800002e0	001a2223	sw	x1,4(x20)	 x20:0x80009f1c  x1:0x80006138 PA:0x80009f20
        1175000	       116	800002e4	95e3e293	ori	x5,x7,-1698	  x7:0x00000000  x5=0xfffff95e
        1185000	       117	800002e8	01471733	sll	x14,x14,x20	 x14:0x00000000 x20:0x80009f1c x14=0x00000000
        1195000	       118	800002ec	7aa1ac13	slti	x24,x3,1962	  x3:0x00000000 x24=0x00000001
        1205000	       119	800002f0	01f03133	sltu	x2,x0,x31	  x0:0x00000000 x31:0x80000000  x2=0x00000001
        1215000	       120	800002f4	014d9663	bne	x27,x20,80000300	 x27:0x3ddf7200 x20:0x80009f1c
        1225000	       121	00000000	00000013	addi	x0,x0,0	  x0:0x00000000
        1235000	       122	800002fc	00000013	addi	x0,x0,0	  x0:0x00000000
        1245000	       123	80000300	07064263	blt	x12,x16,80000364	 x12:0x80005e42 x16:0x00000000
        1255000	       124	00000000	00000013	addi	x0,x0,0	  x0:0x00000000
        1265000	       125	80000360	00000013	addi	x0,x0,0	  x0:0x00000000
        1275000	       126	80000364	99493d93	sltiu	x27,x18,-1644	 x18:0x00000040 x27=0x00000001
        1285000	       127	80000368	418b0133	sub	x2,x22,x24	 x22:0x00000001 x24:0x00000001  x2=0x00000000
        1295000	       128	8000036c	402a0133	sub	x2,x20,x2	 x20:0x80009f1c  x2:0x00000000  x2=0x80009f1c
        1305000	       129	80000370	b4187c93	andi	x25,x16,-1215	 x16:0x00000000 x25=0x00000000
        1315000	       130	80000374	01e60033	add	x0,x12,x30	 x12:0x80005e42 x30:0x00000000
        1325000	       131	80000378	5ed9c213	xori	x4,x19,1517	 x19:0x80000000  x4=0x800005ed
        1335000	       132	8000037c	01a11913	slli	x18,x2,0x1a	  x2:0x80009f1c x18=0x70000000
        1345000	       133	80000380	008bb7b3	sltu	x15,x23,x8	 x23:0xfa1d3eba  x8:0x80009fc4 x15=0x00000000
        1355000	       134	80000384	00000013	addi	x0,x0,0	  x0:0x00000000
        1365000	       135	80000388	4160dd13	srai	x26,x1,0x16	  x1:0x80006138 x26=0xfffffe00
        1375000	       136	8000038c	000ad033	srl	x0,x21,x0	 x21:0x80000000  x0:0x00000000
        1385000	       137	80000390	01f65d13	srli	x26,x12,0x1f	 x12:0x80005e42 x26=0x00000001
        1395000	       138	80000394	011e56b3	srl	x13,x28,x17	 x28:0x80000000 x17:0x2d1eefb9 x13=0x00000040
        1405000	       139	80000398	40015113	srai	x2,x2,0x0	  x2:0x80009f1c  x2=0x80009f1c
        1415000	       140	8000039c	004a2083	lw	x1,4(x20)	 x20:0x80009f1c  x1=0x80006138 PA:0x80009f20
        1425000	       141	800003a0	ea0f8c93	addi	x25,x31,-352	 x31:0x80000000 x25=0x7ffffea0
        1435000	       142	800003a4	034a0a13	addi	x20,x20,52	 x20:0x80009f1c x20=0x80009f50
        1445000	       143	800003a8	c45f4193	xori	x3,x30,-955	 x30:0x00000000  x3=0xfffffc45
        1455000	       144	800003ac	01fd1e33	sll	x28,x26,x31	 x26:0x00000001 x31:0x80000000 x28=0x00000001
        1465000	       145	800003b0	00008113	addi	x2,x1,0	  x1:0x80006138  x2=0x80006138
        1475000	       146	800003b4	00010167	jalr	x2,x2,0	  x2:0x80006138  x2=0x800003b4
        1485000	       147	00000000	00000013	addi	x0,x0,0	  x0:0x00000000
        1495000	       148	80006138	00000013	addi	x0,x0,0	  x0:0x00000000
        1505000	       149	8000613c	00002597	auipc	x11,0x2	 x11=0x80008138
        1515000	       150	80006140	53258593	addi	x11,x11,1330	 x11:0x80008138 x11=0x8000866a
        1525000	       151	80006144	0355ab93	slti	x23,x11,53	 x11:0x8000866a x23=0x00000001
        1535000	       152	80006148	010d54b3	srl	x9,x26,x16	 x26:0x00000001 x16:0x00000000  x9=0x00000001
        1545000	       153	8000614c	017580a3	sb	x23,1(x11)	 x11:0x8000866a x23:0x00000001 PA:0x8000866b
        1555000	       154	80006150	01ba3c33	sltu	x24,x20,x27	 x20:0x80009f50 x27:0x00000001 x24=0x00000000
        1565000	       155	80006154	0085ad23	sw	x8,26(x11)	 x11:0x8000866a  x8:0x80009fc4 PA:0x80008684
        1575000	       156	80006158	7c2c7713	andi	x14,x24,1986	 x24:0x00000000 x14=0x00000000
        1585000	       157	8000615c	fe859003	lh	x0,-24(x11)	 x11:0x8000866a PA:0x80008652
        1595000	       158	80006160	b0390b93	addi	x23,x18,-1277	 x18:0x70000000 x23=0x6ffffb03
        1605000	       159	80006164	fd05db03	lhu	x22,-48(x11)	 x11:0x8000866a x22=0x0000f0f1 PA:0x8000863a
        1615000	       160	80006168	8449c713	xori	x14,x19,-1980	 x19:0x80000000 x14=0x7ffff844
        1625000	       161	8000616c	549c7493	andi	x9,x24,1353	 x24:0x00000000  x9=0x00000000
        1635000	       162	80006170	00e0a533	slt	x10,x1,x14	  x1:0x80006138 x14:0x7ffff844 x10=0x00000001
        1645000	       163	80006174	1a473113	sltiu	x2,x14,420	 x14:0x7ffff844  x2=0x00000000
        1655000	       164	80006178	fd459703	lh	x14,-44(x11)	 x11:0x8000866a x14=0xfffff4f5 PA:0x8000863e
        1665000	       165	8000617c	012a5913	srli	x18,x20,0x12	 x20:0x80009f50 x18=0x00002000
        1675000	       166	80006180	01e5ad83	lw	x27,30(x11)	 x11:0x8000866a x27=0x40414243 PA:0x80008688
        1685000	       167	80006184	b2560693	addi	x13,x12,-1243	 x12:0x80005e42 x13=0x80005967
        1695000	       168	80006188	01923e33	sltu	x28,x4,x25	  x4:0x800005ed x25:0x7ffffea0 x28=0x00000000
        1705000	       169	8000618c	c7679197	auipc	x3,0xc7679	  x3=0x4767f188
        1715000	       170	80006190	fd159823	sh	x17,-48(x11)	 x11:0x8000866a x17:0x2d1eefb9 PA:0x8000863a
        1725000	       171	80006194	015514b3	sll	x9,x10,x21	 x10:0x00000001 x21:0x80000000  x9=0x00000001
        1735000	       172	80006198	00bb1d33	sll	x26,x22,x11	 x22:0x0000f0f1 x11:0x8000866a x26=0x03c3c400
        1745000	       173	8000619c	01f5c783	lbu	x15,31(x11)	 x11:0x8000866a x15=0x00000042 PA:0x80008689
        1755000	       174	00000000	00000013	addi	x0,x0,0	  x0:0x00000000
        1765000	       175	800061a0	00f58483	lb	x9,15(x11)	 x11:0x8000866a  x9=0x00000032 PA:0x80008679
        1775000	       176	800061a4	00a2adb3	slt	x27,x5,x10	  x5:0xfffff95e x10:0x00000001 x27=0x00000001
        1785000	       177	800061a8	02758103	lb	x2,39(x11)	 x11:0x8000866a  x2=0x0000004a PA:0x80008691
        1795000	       178	00000000	00000013	addi	x0,x0,0	  x0:0x00000000
        1805000	       179	800061ac	fc25ab23	sw	x2,-42(x11)	 x11:0x8000866a  x2:0x0000004a PA:0x80008640
        1815000	       180	800061b0	00a77e33	and	x28,x14,x10	 x14:0xfffff4f5 x10:0x00000001 x28=0x00000001
        1825000	       181	800061b4	ff758203	lb	x4,-9(x11)	 x11:0x8000866a  x4=0x0000001a PA:0x80008661
        1835000	       182	800061b8	ff158d83	lb	x27,-15(x11)	 x11:0x8000866a x27=0x00000010 PA:0x8000865b
        1845000	       183	800061bc	18892e93	slti	x29,x18,392	 x18:0x00002000 x29=0x00000000
        1855000	       184	800061c0	02b5c183	lbu	x3,43(x11)	 x11:0x8000866a  x3=0x0000004e PA:0x80008695
        1865000	       185	800061c4	8b8041b7	lui	x3,0x8b804	  x3=0x8b804000
        1875000	       186	800061c8	206cff13	andi	x30,x25,518	 x25:0x7ffffea0 x30=0x00000200
        1885000	       187	800061cc	9a612813	slti	x16,x2,-1626	  x2:0x0000004a x16=0x00000000
        1895000	       188	800061d0	fd059a23	sh	x16,-44(x11)	 x11:0x8000866a x16:0x00000000 PA:0x8000863e
        1905000	       189	800061d4	fc558523	sb	x5,-54(x11)	 x11:0x8000866a  x5:0xfffff95e PA:0x80008634
        1915000	       190	800061d8	00002e17	auipc	x28,0x2	 x28=0x800081d4
        1925000	       191	800061dc	43ae0e13	addi	x28,x28,1082	 x28:0x800081d4 x28=0x8000860e
        1935000	       192	800061e0	d8240213	addi	x4,x8,-638	  x8:0x80009fc4  x4=0x80009d46
        1945000	       193	800061e4	17407d13	andi	x26,x0,372	  x0:0x00000000 x26=0x00000000
        1955000	       194	800061e8	0ffe2f23	sw	x31,254(x28)	 x28:0x8000860e x31:0x80000000 PA:0x8000870c
        1965000	       195	800061ec	f15e0703	lb	x14,-235(x28)	 x28:0x8000860e x14=0xffffffd8 PA:0x80008523
        1975000	       196	800061f0	00000013	addi	x0,x0,0	  x0:0x00000000
        1985000	       197	800061f4	0d5e4783	lbu	x15,213(x28)	 x28:0x8000860e x15=0x00000098 PA:0x800086e3
        1995000	       198	800061f8	019e0683	lb	x13,25(x28)	 x28:0x8000860e x13=0xffffffdc PA:0x80008627
        2005000	       199	800061fc	01c96633	or	x12,x18,x28	 x18:0x00002000 x28:0x8000860e x12=0x8000a60e
        2015000	       200	80006200	f5ee2183	lw	x3,-162(x28)	 x28:0x8000860e  x3=0x24252627 PA:0x8000856c
        2025000	       201	80006204	0166f3b3	and	x7,x13,x22	 x13:0xffffffdc x22:0x0000f0f1  x7=0x0000f0d0
        2035000	       202	80006208	9e9fb017	auipc	x0,0x9e9fb	
        2045000	       203	8000620c	04ae03a3	sb	x10,71(x28)	 x28:0x8000860e x10:0x00000001 PA:0x80008655
        2055000	       204	80006210	062e2f83	lw	x31,98(x28)	 x28:0x8000860e x31=0x28292a2b PA:0x80008670
        2065000	       205	80006214	f83e4483	lbu	x9,-125(x28)	 x28:0x8000860e  x9=0x0000004a PA:0x80008591
        2075000	       206	80006218	f12e4a83	lbu	x21,-238(x28)	 x28:0x8000860e x21=0x000000db PA:0x80008520
        2085000	       207	8000621c	f53e1e23	sh	x19,-164(x28)	 x28:0x8000860e x19:0x80000000 PA:0x8000856a
        2095000	       208	80006220	f50e0b23	sb	x16,-170(x28)	 x28:0x8000860e x16:0x00000000 PA:0x80008564
        2105000	       209	80006224	00bcdb33	srl	x22,x25,x11	 x25:0x7ffffea0 x11:0x8000866a x22=0x001fffff
        2115000	       210	80006228	0bee5983	lhu	x19,190(x28)	 x28:0x8000860e x19=0x00008687 PA:0x800086cc
        2125000	       211	8000622c	00ee92b3	sll	x5,x29,x14	 x29:0x00000000 x14:0xffffffd8  x5=0x00000000
        2135000	       212	80006230	413e5193	srai	x3,x28,0x13	 x28:0x8000860e  x3=0xfffff000
        2145000	       213	80006234	003fed33	or	x26,x31,x3	 x31:0x28292a2b  x3:0xfffff000 x26=0xfffffa2b
        2155000	       214	80006238	01e93bb3	sltu	x23,x18,x30	 x18:0x00002000 x30:0x00000200 x23=0x00000000
        2165000	       215	8000623c	019c4b33	xor	x22,x24,x25	 x24:0x00000000 x25:0x7ffffea0 x22=0x7ffffea0
        2175000	       216	80006240	0c1e1423	sh	x1,200(x28)	 x28:0x8000860e  x1:0x80006138 PA:0x800086d6
        2185000	       217	80006244	00fce533	or	x10,x25,x15	 x25:0x7ffffea0 x15:0x00000098 x10=0x7ffffeb8
        2195000	       218	80006248	fa1e4583	lbu	x11,-95(x28)	 x28:0x8000860e x11=0x00000064 PA:0x800085af
        2205000	       219	8000624c	f76e2883	lw	x17,-138(x28)	 x28:0x8000860e x17=0x3c3d3e3f PA:0x80008584
        2215000	       220	80006250	032e1803	lh	x16,50(x28)	 x28:0x8000860e x16=0x0000004a PA:0x80008640
        2225000	       221	80006254	018cfdb3	and	x27,x25,x24	 x25:0x7ffffea0 x24:0x00000000 x27=0x00000000
        2235000	       222	80006258	035e2d23	sw	x21,58(x28)	 x28:0x8000860e x21:0x000000db PA:0x80008648
        2245000	       223	8000625c	7c13e597	auipc	x11,0x7c13e	 x11=0xfc144258
        2255000	       224	80006260	004649b3	xor	x19,x12,x4	 x12:0x8000a60e  x4:0x80009d46 x19=0x00003b48
        2265000	       225	80006264	0c2e0223	sb	x2,196(x28)	 x28:0x8000860e  x2:0x0000004a PA:0x800086d2
        2275000	       226	80006268	00000013	addi	x0,x0,0	  x0:0x00000000
        2285000	       227	8000626c	413eda93	srai	x21,x29,0x13	 x29:0x00000000 x21=0x00000000
        2295000	       228	80006270	f6be0783	lb	x15,-149(x28)	 x28:0x8000860e x15=0x00000032 PA:0x80008579
        2305000	       229	80006274	00afbbb3	sltu	x23,x31,x10	 x31:0x28292a2b x10:0x7ffffeb8 x23=0x00000001
        2315000	       230	80006278	0eee09a3	sb	x14,243(x28)	 x28:0x8000860e x14:0xffffffd8 PA:0x80008701
        2325000	       231	8000627c	41ec51b3	sra	x3,x24,x30	 x24:0x00000000 x30:0x00000200  x3=0x00000000
        2335000	       232	80006280	41de5eb3	sra	x29,x28,x29	 x28:0x8000860e x29:0x00000000 x29=0x8000860e
        2345000	       233	80006284	49d98293	addi	x5,x19,1181	 x19:0x00003b48  x5=0x00003fe5
        2355000	       234	80006288	fffe0323	sb	x31,-26(x28)	 x28:0x8000860e x31:0x28292a2b PA:0x800085f4
        2365000	       235	8000628c	f23e0883	lb	x17,-221(x28)	 x28:0x8000860e x17=0xffffffea PA:0x80008531
        2375000	       236	80006290	002444b3	xor	x9,x8,x2	  x8:0x80009fc4  x2:0x0000004a  x9=0x80009f8e
        2385000	       237	80006294	007276b3	and	x13,x4,x7	  x4:0x80009d46  x7:0x0000f0d0 x13=0x00009040
        2395000	       238	80006298	f75e0d03	lb	x26,-139(x28)	 x28:0x8000860e x26=0x00000038 PA:0x80008583
        2405000	       239	8000629c	f6de05a3	sb	x13,-149(x28)	 x28:0x8000860e x13:0x00009040 PA:0x80008579
        2415000	       240	800062a0	00eba0b3	slt	x1,x23,x14	 x23:0x00000001 x14:0xffffffd8  x1=0x00000000
        2425000	       241	800062a4	01d11033	sll	x0,x2,x29	  x2:0x0000004a x29:0x8000860e
        2435000	       242	800062a8	4c9fee93	ori	x29,x31,1225	 x31:0x28292a2b x29=0x28292eeb
        2445000	       243	800062ac	00cd9463	bne	x27,x12,800062b4	 x27:0x00000000 x12:0x8000a60e
        2455000	       244	00000000	00000013	addi	x0,x0,0	  x0:0x00000000
        2465000	       245	800062b0	00000013	addi	x0,x0,0	  x0:0x00000000
        2475000	       246	800062b4	01a29613	slli	x12,x5,0x1a	  x5:0x00003fe5 x12=0x94000000
        2485000	       247	800062b8	7eb28913	addi	x18,x5,2027	  x5:0x00003fe5 x18=0x000047d0
        2495000	       248	800062bc	05b49463	bne	x9,x27,80006304	  x9:0x80009f8e x27:0x00000000
        2505000	       249	00000000	00000013	addi	x0,x0,0	  x0:0x00000000
        2515000	       250	80006300	00000013	addi	x0,x0,0	  x0:0x00000000
        2525000	       251	80006304	035e0a63	beq	x28,x21,80006338	 x28:0x8000860e x21:0x00000000
        2535000	       252	80006308	408850b3	sra	x1,x16,x8	 x16:0x0000004a  x8:0x80009fc4  x1=0x00000004
        2545000	       253	8000630c	00000013	addi	x0,x0,0	  x0:0x00000000
        2555000	       254	80006310	40a10db3	sub	x27,x2,x10	  x2:0x0000004a x10:0x7ffffeb8 x27=0x80000192
        2565000	       255	80006314	00a91663	bne	x18,x10,80006320	 x18:0x000047d0 x10:0x7ffffeb8
        2575000	       256	00000000	00000013	addi	x0,x0,0	  x0:0x00000000
        2585000	       257	8000631c	00000013	addi	x0,x0,0	  x0:0x00000000
        2595000	       258	80006320	4d7a8f13	addi	x30,x21,1239	 x21:0x00000000 x30=0x000004d7
        2605000	       259	80006324	010a9733	sll	x14,x21,x16	 x21:0x00000000 x16:0x0000004a x14=0x00000000
        2615000	       260	80006328	41e05513	srai	x10,x0,0x1e	  x0:0x00000000 x10=0x00000000
        2625000	       261	8000632c	00e81513	slli	x10,x16,0xe	 x16:0x0000004a x10=0x00128000
        2635000	       262	80006330	00a21c33	sll	x24,x4,x10	  x4:0x80009d46 x10:0x00128000 x24=0x80009d46
        2645000	       263	80006334	4059ddb3	sra	x27,x19,x5	 x19:0x00003b48  x5:0x00003fe5 x27=0x000001da
        2655000	       264	80006338	01d998b3	sll	x17,x19,x29	 x19:0x00003b48 x29:0x28292eeb x17=0x01da4000
        2665000	       265	8000633c	408ade13	srai	x28,x21,0x8	 x21:0x00000000 x28=0x00000000
        2675000	       266	80006340	0112fdb3	and	x27,x5,x17	  x5:0x00003fe5 x17:0x01da4000 x27=0x00000000
        2685000	       267	80006344	008bd193	srli	x3,x23,0x8	 x23:0x00000001  x3=0x00000000
        2695000	       268	80006348	1626f793	andi	x15,x13,354	 x13:0x00009040 x15=0x00000040
        2705000	       269	8000634c	01b660b3	or	x1,x12,x27	 x12:0x94000000 x27:0x00000000  x1=0x94000000
        2715000	       270	80006350	bb55b613	sltiu	x12,x11,-1099	 x11:0xfc144258 x12=0x00000001
        2725000	       271	80006354	412254b3	sra	x9,x4,x18	  x4:0x80009d46 x18:0x000047d0  x9=0xffff8000
        2735000	       272	80006358	002e14b3	sll	x9,x28,x2	 x28:0x00000000  x2:0x0000004a  x9=0x00000000
        2745000	       273	8000635c	007ea933	slt	x18,x29,x7	 x29:0x28292eeb  x7:0x0000f0d0 x18=0x00000000
        2755000	       274	80006360	02040863	beq	x8,x0,80006390	  x8:0x80009fc4  x0:0x00000000
        2765000	       275	80006364	0132de63	bge	x5,x19,80006380	  x5:0x00003fe5 x19:0x00003b48
        2775000	       276	00000000	00000013	addi	x0,x0,0	  x0:0x00000000
        2785000	       277	8000637c	00000013	addi	x0,x0,0	  x0:0x00000000
        2795000	       278	80006380	41195d93	srai	x27,x18,0x11	 x18:0x00000000 x27=0x00000000
        2805000	       279	80006384	034dfe63	bgeu	x27,x20,800063c0	 x27:0x00000000 x20:0x80009f50
        2815000	       280	80006388	00000013	addi	x0,x0,0	  x0:0x00000000
        2825000	       281	8000638c	00e1dd93	srli	x27,x3,0xe	  x3:0x00000000 x27=0x00000000
        2835000	       282	80006390	00938bb3	add	x23,x7,x9	  x7:0x0000f0d0  x9:0x00000000 x23=0x0000f0d0
        2845000	       283	80006394	01927c33	and	x24,x4,x25	  x4:0x80009d46 x25:0x7ffffea0 x24=0x00009c00
        2855000	       284	80006398	2ebeac13	slti	x24,x29,747	 x29:0x28292eeb x24=0x00000000
        2865000	       285	8000639c	5fe42a93	slti	x21,x8,1534	  x8:0x80009fc4 x21=0x00000001
        2875000	       286	800063a0	21816b37	lui	x22,0x21816	 x22=0x21816000
        2885000	       287	800063a4	40df0633	sub	x12,x30,x13	 x30:0x000004d7 x13:0x00009040 x12=0xffff7497
        2895000	       288	800063a8	c8e4bc13	sltiu	x24,x9,-882	  x9:0x00000000 x24=0x00000001
        2905000	       289	800063ac	006c1793	slli	x15,x24,0x6	 x24:0x00000001 x15=0x00000040
        2915000	       290	800063b0	03e46463	bltu	x8,x30,800063d8	  x8:0x80009fc4 x30:0x000004d7
        2925000	       291	800063b4	00276663	bltu	x14,x2,800063c0	 x14:0x00000000  x2:0x0000004a
        2935000	       292	00000000	00000013	addi	x0,x0,0	  x0:0x00000000
        2945000	       293	800063bc	00000013	addi	x0,x0,0	  x0:0x00000000
        2955000	       294	800063c0	006052b3	srl	x5,x0,x6	  x0:0x00000000  x6:0x0000000e  x5=0x00000000
        2965000	       295	800063c4	014fcab3	xor	x21,x31,x20	 x31:0x28292a2b x20:0x80009f50 x21=0xa829b57b
        2975000	       296	800063c8	40bc5f13	srai	x30,x24,0xb	 x24:0x00000001 x30=0x00000000
        2985000	       297	800063cc	051b7463	bgeu	x22,x17,80006414	 x22:0x21816000 x17:0x01da4000
        2995000	       298	00000000	00000013	addi	x0,x0,0	  x0:0x00000000
        3005000	       299	80006410	00000013	addi	x0,x0,0	  x0:0x00000000
        3015000	       300	80006414	01dcd913	srli	x18,x25,0x1d	 x25:0x7ffffea0 x18=0x00000003
        3025000	       301	80006418	02520e63	beq	x4,x5,80006454	  x4:0x80009d46  x5:0x00000000
        3035000	       302	8000641c	00c05fb3	srl	x31,x0,x12	  x0:0x00000000 x12:0xffff7497 x31=0x00000000
        3045000	       303	80006420	40a1d393	srai	x7,x3,0xa	  x3:0x00000000  x7=0x00000000
        3055000	       304	80006424	03e40e63	beq	x8,x30,80006460	  x8:0x80009fc4 x30:0x00000000
        3065000	       305	80006428	41fa5633	sra	x12,x20,x31	 x20:0x80009f50 x31:0x00000000 x12=0x80009f50
        3075000	       306	8000642c	04857663	bgeu	x10,x8,80006478	 x10:0x00128000  x8:0x80009fc4
        3085000	       307	80006430	0b72c893	xori	x17,x5,183	  x5:0x00000000 x17=0x000000b7
        3095000	       308	80006434	037cf463	bgeu	x25,x23,8000645c	 x25:0x7ffffea0 x23:0x0000f0d0
        3105000	       309	00000000	00000013	addi	x0,x0,0	  x0:0x00000000
        3115000	       310	80006458	00000013	addi	x0,x0,0	  x0:0x00000000
        3125000	       311	8000645c	01ca9f93	slli	x31,x21,0x1c	 x21:0xa829b57b x31=0xb0000000
        3135000	       312	80006460	40f5df33	sra	x30,x11,x15	 x11:0xfc144258 x15:0x00000040 x30=0xfc144258
        3145000	       313	80006464	002837b3	sltu	x15,x16,x2	 x16:0x0000004a  x2:0x0000004a x15=0x00000000
        3155000	       314	80006468	a518efb7	lui	x31,0xa518e	 x31=0xa518e000
        3165000	       315	8000646c	40e951b3	sra	x3,x18,x14	 x18:0x00000003 x14:0x00000000  x3=0x00000003
        3175000	       316	80006470	93d06d97	auipc	x27,0x93d06	 x27=0x13d0c46c
        3185000	       317	80006474	00b29bb3	sll	x23,x5,x11	  x5:0x00000000 x11:0xfc144258 x23=0x00000000
        3195000	       318	80006478	03d3de63	bge	x7,x29,800064b4	  x7:0x00000000 x29:0x28292eeb
        3205000	       319	8000647c	011d4633	xor	x12,x26,x17	 x26:0x00000038 x17:0x000000b7 x12=0x0000008f
        3215000	       320	80006480	007de863	bltu	x27,x7,80006490	 x27:0x13d0c46c  x7:0x00000000
        3225000	       321	80006484	40bb0db3	sub	x27,x22,x11	 x22:0x21816000 x11:0xfc144258 x27=0x256d1da8
        3235000	       322	80006488	01ee9cb3	sll	x25,x29,x30	 x29:0x28292eeb x30:0xfc144258 x25=0xeb000000
        3245000	       323	8000648c	045ef663	bgeu	x29,x5,800064d8	 x29:0x28292eeb  x5:0x00000000
        3255000	       324	00000000	00000013	addi	x0,x0,0	  x0:0x00000000
        3265000	       325	800064d4	00000013	addi	x0,x0,0	  x0:0x00000000
        3275000	       326	800064d8	00147e63	bgeu	x8,x1,800064f4	  x8:0x80009fc4  x1:0x94000000
        3285000	       327	800064dc	01e55533	srl	x10,x10,x30	 x10:0x00128000 x30:0xfc144258 x10=0x00000000
        3295000	       328	800064e0	00340933	add	x18,x8,x3	  x8:0x80009fc4  x3:0x00000003 x18=0x80009fc7
        3305000	       329	800064e4	f5db6c13	ori	x24,x22,-163	 x22:0x21816000 x24=0xffffff5d
        3315000	       330	800064e8	41d007b3	sub	x15,x0,x29	  x0:0x00000000 x29:0x28292eeb x15=0xd7d6d115
        3325000	       331	800064ec	00d2bb33	sltu	x22,x5,x13	  x5:0x00000000 x13:0x00009040 x22=0x00000001
        3335000	       332	800064f0	00000013	addi	x0,x0,0	  x0:0x00000000
        3345000	       333	800064f4	012d1863	bne	x26,x18,80006504	 x26:0x00000038 x18:0x80009fc7
        3355000	       334	00000000	00000013	addi	x0,x0,0	  x0:0x00000000
        3365000	       335	80006500	00000013	addi	x0,x0,0	  x0:0x00000000
        3375000	       336	80006504	01e60f33	add	x30,x12,x30	 x12:0x0000008f x30:0xfc144258 x30=0xfc1442e7
        3385000	       337	80006508	0273d463	bge	x7,x7,80006530	  x7:0x00000000  x7:0x00000000
        3395000	       338	00000000	00000013	addi	x0,x0,0	  x0:0x00000000
        3405000	       339	8000652c	00000013	addi	x0,x0,0	  x0:0x00000000
        3415000	       340	80006530	04618463	beq	x3,x6,80006578	  x3:0x00000003  x6:0x0000000e
        3425000	       341	80006534	008a93b3	sll	x7,x21,x8	 x21:0xa829b57b  x8:0x80009fc4  x7=0x829b57b0
        3435000	       342	80006538	014e5133	srl	x2,x28,x20	 x28:0x00000000 x20:0x80009f50  x2=0x00000000
        3445000	       343	8000653c	4090d633	sra	x12,x1,x9	  x1:0x94000000  x9:0x00000000 x12=0x94000000
        3455000	       344	80006540	4f7c6913	ori	x18,x24,1271	 x24:0xffffff5d x18=0xffffffff
        3465000	       345	80006544	29c73e93	sltiu	x29,x14,668	 x14:0x00000000 x29=0x00000001
        3475000	       346	80006548	0033bab3	sltu	x21,x7,x3	  x7:0x829b57b0  x3:0x00000003 x21=0x00000000
        3485000	       347	8000654c	018b52b3	srl	x5,x22,x24	 x22:0x00000001 x24:0xffffff5d  x5=0x00000000
        3495000	       348	80006550	013277b3	and	x15,x4,x19	  x4:0x80009d46 x19:0x00003b48 x15=0x00001940
        3505000	       349	80006554	01dcd663	bge	x25,x29,80006560	 x25:0xeb000000 x29:0x00000001
        3515000	       350	80006558	020c6863	bltu	x24,x0,80006588	 x24:0xffffff5d  x0:0x00000000
        3525000	       351	8000655c	d972b013	sltiu	x0,x5,-617	  x5:0x00000000
        3535000	       352	80006560	0088d0b3	srl	x1,x17,x8	 x17:0x000000b7  x8:0x80009fc4  x1=0x0000000b
        3545000	       353	80006564	40e159b3	sra	x19,x2,x14	  x2:0x00000000 x14:0x00000000 x19=0x00000000
        3555000	       354	80006568	41e75393	srai	x7,x14,0x1e	 x14:0x00000000  x7=0x00000000
        3565000	       355	8000656c	013d5e13	srli	x28,x26,0x13	 x26:0x00000038 x28=0x00000000
        3575000	       356	80006570	61adc393	xori	x7,x27,1562	 x27:0x256d1da8  x7=0x256d1bb2
        3585000	       357	80006574	01ecab33	slt	x22,x25,x30	 x25:0xeb000000 x30:0xfc1442e7 x22=0x00000001
        3595000	       358	80006578	417b5e93	srai	x29,x22,0x17	 x22:0x00000001 x29=0x00000000
        3605000	       359	8000657c	00b68933	add	x18,x13,x11	 x13:0x00009040 x11:0xfc144258 x18=0xfc14d298
        3615000	       360	80006580	04241463	bne	x8,x2,800065c8	  x8:0x80009fc4  x2:0x00000000
        3625000	       361	00000000	00000013	addi	x0,x0,0	  x0:0x00000000
        3635000	       362	800065c4	00000013	addi	x0,x0,0	  x0:0x00000000
        3645000	       363	800065c8	408d5b93	srai	x23,x26,0x8	 x26:0x00000038 x23=0x00000000
        3655000	       364	800065cc	016c8bb3	add	x23,x25,x22	 x25:0xeb000000 x22:0x00000001 x23=0xeb000001
        3665000	       365	800065d0	407e8233	sub	x4,x29,x7	 x29:0x00000000  x7:0x256d1bb2  x4=0xda92e44e
        3675000	       366	800065d4	0194c0b3	xor	x1,x9,x25	  x9:0x00000000 x25:0xeb000000  x1=0xeb000000
        3685000	       367	800065d8	00000013	addi	x0,x0,0	  x0:0x00000000
        3695000	       368	800065dc	012713b3	sll	x7,x14,x18	 x14:0x00000000 x18:0xfc14d298  x7=0x00000000
        3705000	       369	800065e0	00da5513	srli	x10,x20,0xd	 x20:0x80009f50 x10=0x00040004
        3715000	       370	800065e4	00753c33	sltu	x24,x10,x7	 x10:0x00040004  x7:0x00000000 x24=0x00000000
        3725000	       371	800065e8	0023f463	bgeu	x7,x2,800065f0	  x7:0x00000000  x2:0x00000000
        3735000	       372	00000000	00000013	addi	x0,x0,0	  x0:0x00000000
        3745000	       373	800065ec	00000013	addi	x0,x0,0	  x0:0x00000000
        3755000	       374	800065f0	008d6f33	or	x30,x26,x8	 x26:0x00000038  x8:0x80009fc4 x30=0x80009ffc
        3765000	       375	800065f4	01994863	blt	x18,x25,80006604	 x18:0xfc14d298 x25:0xeb000000
        3775000	       376	800065f8	016ecfb3	xor	x31,x29,x22	 x29:0x00000000 x22:0x00000001 x31=0x00000001
        3785000	       377	800065fc	c55d3937	lui	x18,0xc55d3	 x18=0xc55d3000
        3795000	       378	80006600	65ec6813	ori	x16,x24,1630	 x24:0x00000000 x16=0x0000065e
        3805000	       379	80006604	a28ba493	slti	x9,x23,-1496	 x23:0xeb000001  x9=0x00000001
        3815000	       380	80006608	a0cb7513	andi	x10,x22,-1524	 x22:0x00000001 x10=0x00000000
        3825000	       381	8000660c	008d5113	srli	x2,x26,0x8	 x26:0x00000038  x2=0x00000000
        3835000	       382	80006610	b70be213	ori	x4,x23,-1168	 x23:0xeb000001  x4=0xfffffb71
        3845000	       383	80006614	007b4733	xor	x14,x22,x7	 x22:0x00000001  x7:0x00000000 x14=0x00000001
        3855000	       384	80006618	00f21d17	auipc	x26,0xf21	 x26=0x80f27614
        3865000	       385	8000661c	40dfd993	srai	x19,x31,0xd	 x31:0x00000001 x19=0x00000000
        3875000	       386	80006620	010254b3	srl	x9,x4,x16	  x4:0xfffffb71 x16:0x0000065e  x9=0x00000003
        3885000	       387	80006624	403ddd33	sra	x26,x27,x3	 x27:0x256d1da8  x3:0x00000003 x26=0x04ada3b5
        3895000	       388	80006628	01d4dc33	srl	x24,x9,x29	  x9:0x00000003 x29:0x00000000 x24=0x00000003
        3905000	       389	8000662c	03349e63	bne	x9,x19,80006668	  x9:0x00000003 x19:0x00000000
        3915000	       390	00000000	00000013	addi	x0,x0,0	  x0:0x00000000
        3925000	       391	80006664	00000013	addi	x0,x0,0	  x0:0x00000000
        3935000	       392	80006668	00d82bb3	slt	x23,x16,x13	 x16:0x0000065e x13:0x00009040 x23=0x00000001
        3945000	       393	8000666c	00ccde63	bge	x25,x12,80006688	 x25:0xeb000000 x12:0x94000000
        3955000	       394	00000000	00000013	addi	x0,x0,0	  x0:0x00000000
        3965000	       395	80006684	00000013	addi	x0,x0,0	  x0:0x00000000
        3975000	       396	80006688	41d8d213	srai	x4,x17,0x1d	 x17:0x000000b7  x4=0x00000000
        3985000	       397	8000668c	006fec33	or	x24,x31,x6	 x31:0x00000001  x6:0x0000000e x24=0x0000000f
        3995000	       398	80006690	83c62013	slti	x0,x12,-1988	 x12:0x94000000
        4005000	       399	80006694	dc754993	xori	x19,x10,-569	 x10:0x00000000 x19=0xfffffdc7
        4015000	       400	80006698	40b10ab3	sub	x21,x2,x11	  x2:0x00000000 x11:0xfc144258 x21=0x03ebbda8
        4025000	       401	8000669c	0147a4b3	slt	x9,x15,x20	 x15:0x00001940 x20:0x80009f50  x9=0x00000000
        4035000	       402	800066a0	ac47cf93	xori	x31,x15,-1340	 x15:0x00001940 x31=0xffffe384
        4045000	       403	800066a4	00bc8a63	beq	x25,x11,800066b8	 x25:0xeb000000 x11:0xfc144258
        4055000	       404	800066a8	027cd463	bge	x25,x7,800066d0	 x25:0xeb000000  x7:0x00000000
        4065000	       405	800066ac	00000013	addi	x0,x0,0	  x0:0x00000000
        4075000	       406	800066b0	01f0a533	slt	x10,x1,x31	  x1:0xeb000000 x31:0xffffe384 x10=0x00000001
        4085000	       407	800066b4	021be663	bltu	x23,x1,800066e0	 x23:0x00000001  x1:0xeb000000
        4095000	       408	00000000	00000013	addi	x0,x0,0	  x0:0x00000000
        4105000	       409	800066dc	00000013	addi	x0,x0,0	  x0:0x00000000
        4115000	       410	800066e0	00098863	beq	x19,x0,800066f0	 x19:0xfffffdc7  x0:0x00000000
        4125000	       411	800066e4	04f36463	bltu	x6,x15,8000672c	  x6:0x0000000e x15:0x00001940
        4135000	       412	00000000	00000013	addi	x0,x0,0	  x0:0x00000000
        4145000	       413	80006728	00000013	addi	x0,x0,0	  x0:0x00000000
        4155000	       414	8000672c	9f10ff13	andi	x30,x1,-1551	  x1:0xeb000000 x30=0xeb000000
        4165000	       415	80006730	013d20b3	slt	x1,x26,x19	 x26:0x04ada3b5 x19:0xfffffdc7  x1=0x00000000
        4175000	       416	80006734	008c8eb3	add	x29,x25,x8	 x25:0xeb000000  x8:0x80009fc4 x29=0x6b009fc4
        4185000	       417	80006738	00000013	addi	x0,x0,0	  x0:0x00000000
        4195000	       418	8000673c	00000013	addi	x0,x0,0	  x0:0x00000000
        4205000	       419	80006740	2d7dee13	ori	x28,x27,727	 x27:0x256d1da8 x28=0x256d1fff
        4215000	       420	80006744	01904663	blt	x0,x25,80006750	  x0:0x00000000 x25:0xeb000000
        4225000	       421	80006748	002e8b33	add	x22,x29,x2	 x29:0x6b009fc4  x2:0x00000000 x22=0x6b009fc4
        4235000	       422	8000674c	05adf463	bgeu	x27,x26,80006794	 x27:0x256d1da8 x26:0x04ada3b5
        4245000	       423	00000000	00000013	addi	x0,x0,0	  x0:0x00000000
        4255000	       424	80006790	00000013	addi	x0,x0,0	  x0:0x00000000
        4265000	       425	80006794	00000013	addi	x0,x0,0	  x0:0x00000000
        4275000	       426	80006798	40fdd7b3	sra	x15,x27,x15	 x27:0x256d1da8 x15:0x00001940 x15=0x256d1da8
        4285000	       427	8000679c	41b4d093	srai	x1,x9,0x1b	  x9:0x00000000  x1=0x00000000
        4295000	       428	800067a0	9da9b613	sltiu	x12,x19,-1574	 x19:0xfffffdc7 x12=0x00000000
        4305000	       429	800067a4	018e1513	slli	x10,x28,0x18	 x28:0x256d1fff x10=0xff000000
        4315000	       430	800067a8	00d22cb3	slt	x25,x4,x13	  x4:0x00000000 x13:0x00009040 x25=0x00000001
        4325000	       431	800067ac	000895b3	sll	x11,x17,x0	 x17:0x000000b7  x0:0x00000000 x11=0x000000b7
        4335000	       432	800067b0	4072df93	srai	x31,x5,0x7	  x5:0x00000000 x31=0x00000000
        4345000	       433	800067b4	00cca5b3	slt	x11,x25,x12	 x25:0x00000001 x12:0x00000000 x11=0x00000000
        4355000	       434	800067b8	0036db13	srli	x22,x13,0x3	 x13:0x00009040 x22=0x00001208
        4365000	       435	800067bc	f3c14b93	xori	x23,x2,-196	  x2:0x00000000 x23=0xffffff3c
        4375000	       436	800067c0	01ea0263	beq	x20,x30,800067c4	 x20:0x80009f50 x30:0xeb000000
        4385000	       437	800067c4	02fd1e63	bne	x26,x15,80006800	 x26:0x04ada3b5 x15:0x256d1da8
        4395000	       438	00000000	00000013	addi	x0,x0,0	  x0:0x00000000
        4405000	       439	800067fc	00000013	addi	x0,x0,0	  x0:0x00000000
        4415000	       440	80006800	57e42513	slti	x10,x8,1406	  x8:0x80009fc4 x10=0x00000001
        4425000	       441	80006804	0118a693	slti	x13,x17,17	 x17:0x000000b7 x13=0x00000000
        4435000	       442	80006808	8e353593	sltiu	x11,x10,-1821	 x10:0x00000001 x11=0x00000001
        4445000	       443	8000680c	00c211b3	sll	x3,x4,x12	  x4:0x00000000 x12:0x00000000  x3=0x00000000
        4455000	       444	80006810	0158e463	bltu	x17,x21,80006818	 x17:0x000000b7 x21:0x03ebbda8
        4465000	       445	00000000	00000013	addi	x0,x0,0	  x0:0x00000000
        4475000	       446	80006814	00000013	addi	x0,x0,0	  x0:0x00000000
        4485000	       447	80006818	41358033	sub	x0,x11,x19	 x11:0x00000001 x19:0xfffffdc7
        4495000	       448	8000681c	00ab7863	bgeu	x22,x10,8000682c	 x22:0x00001208 x10:0x00000001
        4505000	       449	00000000	00000013	addi	x0,x0,0	  x0:0x00000000
        4515000	       450	80006828	00000013	addi	x0,x0,0	  x0:0x00000000
        4525000	       451	8000682c	873cc913	xori	x18,x25,-1933	 x25:0x00000001 x18=0xfffff872
        4535000	       452	80006830	40e6dbb3	sra	x23,x13,x14	 x13:0x00000000 x14:0x00000001 x23=0x00000000
        4545000	       453	80006834	4085dc13	srai	x24,x11,0x8	 x11:0x00000001 x24=0x00000000
        4555000	       454	80006838	fc738f13	addi	x30,x7,-57	  x7:0x00000000 x30=0xffffffc7
        4565000	       455	8000683c	00879e93	slli	x29,x15,0x8	 x15:0x256d1da8 x29=0x6d1da800
        4575000	       456	80006840	00019a63	bne	x3,x0,80006854	  x3:0x00000000  x0:0x00000000
        4585000	       457	80006844	028ca6b7	lui	x13,0x28ca	 x13=0x028ca000
        4595000	       458	80006848	41f7d133	sra	x2,x15,x31	 x15:0x256d1da8 x31:0x00000000  x2=0x256d1da8
        4605000	       459	8000684c	00f64a63	blt	x12,x15,80006860	 x12:0x00000000 x15:0x256d1da8
        4615000	       460	00000000	00000013	addi	x0,x0,0	  x0:0x00000000
        4625000	       461	8000685c	00000013	addi	x0,x0,0	  x0:0x00000000
        4635000	       462	80006860	57334a93	xori	x21,x6,1395	  x6:0x0000000e x21=0x0000057d
        4645000	       463	80006864	501b06b7	lui	x13,0x501b0	 x13=0x501b0000
        4655000	       464	80006868	c9d8e4b7	lui	x9,0xc9d8e	  x9=0xc9d8e000
        4665000	       465	8000686c	408f5093	srai	x1,x30,0x8	 x30:0xffffffc7  x1=0xffffffff
        4675000	       466	80006870	0120d393	srli	x7,x1,0x12	  x1:0xffffffff  x7=0x00003fff
        4685000	       467	80006874	40e90bb3	sub	x23,x18,x14	 x18:0xfffff872 x14:0x00000001 x23=0xfffff871
        4695000	       468	80006878	01337e63	bgeu	x6,x19,80006894	  x6:0x0000000e x19:0xfffffdc7
        4705000	       469	8000687c	00e001b3	add	x3,x0,x14	  x0:0x00000000 x14:0x00000001  x3=0x00000001
        4715000	       470	80006880	0324d463	bge	x9,x18,800068a8	  x9:0xc9d8e000 x18:0xfffff872
        4725000	       471	80006884	00025c33	srl	x24,x4,x0	  x4:0x00000000  x0:0x00000000 x24=0x00000000
        4735000	       472	80006888	003b5cb3	srl	x25,x22,x3	 x22:0x00001208  x3:0x00000001 x25=0x00000904
        4745000	       473	8000688c	02fdda63	bge	x27,x15,800068c0	 x27:0x256d1da8 x15:0x256d1da8
        4755000	       474	00000000	00000013	addi	x0,x0,0	  x0:0x00000000
        4765000	       475	800068bc	00000013	addi	x0,x0,0	  x0:0x00000000
        4775000	       476	800068c0	081a6c93	ori	x25,x20,129	 x20:0x80009f50 x25=0x80009fd1
        4785000	       477	800068c4	1a4cec13	ori	x24,x25,420	 x25:0x80009fd1 x24=0x80009ff5
        4795000	       478	800068c8	00a1d263	bge	x3,x10,800068cc	  x3:0x00000001 x10:0x00000001
        4805000	       479	00000000	00000013	addi	x0,x0,0	  x0:0x00000000
        4815000	       480	800068c8	00000013	addi	x0,x0,0	  x0:0x00000000
        4825000	       481	800068cc	89fa1917	auipc	x18,0x89fa1	 x18=0x09fa78c8
        4835000	       482	800068d0	0193b9b3	sltu	x19,x7,x25	  x7:0x00003fff x25:0x80009fd1 x19=0x00000001
        4845000	       483	800068d4	00b38b33	add	x22,x7,x11	  x7:0x00003fff x11:0x00000001 x22=0x00004000
        4855000	       484	800068d8	00491c93	slli	x25,x18,0x4	 x18:0x09fa78c8 x25=0x9fa78c80
        4865000	       485	800068dc	0018db13	srli	x22,x17,0x1	 x17:0x000000b7 x22=0x0000005b
        4875000	       486	800068e0	027f4463	blt	x30,x7,80006908	 x30:0xffffffc7  x7:0x00003fff
        4885000	       487	00000000	00000013	addi	x0,x0,0	  x0:0x00000000
        4895000	       488	80006904	00000013	addi	x0,x0,0	  x0:0x00000000
        4905000	       489	80006908	0087d833	srl	x16,x15,x8	 x15:0x256d1da8  x8:0x80009fc4 x16=0x0256d1da
        4915000	       490	8000690c	068f5237	lui	x4,0x68f5	  x4=0x068f5000
        4925000	       491	80006910	00000013	addi	x0,x0,0	  x0:0x00000000
        4935000	       492	80006914	0075d663	bge	x11,x7,80006920	 x11:0x00000001  x7:0x00003fff
        4945000	       493	80006918	00926c33	or	x24,x4,x9	  x4:0x068f5000  x9:0xc9d8e000 x24=0xcfdff000
        4955000	       494	8000691c	0062df33	srl	x30,x5,x6	  x5:0x00000000  x6:0x0000000e x30=0x00000000
        4965000	       495	80006920	01cb8133	add	x2,x23,x28	 x23:0xfffff871 x28:0x256d1fff  x2=0x256d1870
        4975000	       496	80006924	a200a013	slti	x0,x1,-1504	  x1:0xffffffff
        4985000	       497	80006928	4031d113	srai	x2,x3,0x3	  x3:0x00000001  x2=0x00000000
        4995000	       498	8000692c	8a860293	addi	x5,x12,-1880	 x12:0x00000000  x5=0xfffff8a8
        5005000	       499	80006930	8ef67013	andi	x0,x12,-1809	 x12:0x00000000
        5015000	       500	80006934	00be9ab3	sll	x21,x29,x11	 x29:0x6d1da800 x11:0x00000001 x21=0xda3b5000
        5025000	       501	80006938	016bcdb3	xor	x27,x23,x22	 x23:0xfffff871 x22:0x0000005b x27=0xfffff82a
        5035000	       502	8000693c	0136b1b3	sltu	x3,x13,x19	 x13:0x501b0000 x19:0x00000001  x3=0x00000000
        5045000	       503	80006940	55f9cc13	xori	x24,x19,1375	 x19:0x00000001 x24=0x0000055e
        5055000	       504	80006944	002d7733	and	x14,x26,x2	 x26:0x04ada3b5  x2:0x00000000 x14=0x00000000
        5065000	       505	80006948	00001a97	auipc	x21,0x1	 x21=0x80007944
        5075000	       506	8000694c	765a8a93	addi	x21,x21,1893	 x21:0x80007944 x21=0x800080a9
        5085000	       507	80006950	feea8823	sb	x14,-16(x21)	 x21:0x800080a9 x14:0x00000000 PA:0x80008099
        5095000	       508	80006954	ff4a8483	lb	x9,-12(x21)	 x21:0x800080a9  x9=0x00000056 PA:0x8000809d
        5105000	       509	80006958	01ca8123	sb	x28,2(x21)	 x21:0x800080a9 x28:0x256d1fff PA:0x800080ab
        5115000	       510	8000695c	009355b3	srl	x11,x6,x9	  x6:0x0000000e  x9:0x00000056 x11=0x00000000
        5125000	       511	80006960	41a681b3	sub	x3,x13,x26	 x13:0x501b0000 x26:0x04ada3b5  x3=0x4b6d5c4b
        5135000	       512	80006964	00da8803	lb	x16,13(x21)	 x21:0x800080a9 x16=0x0000006d PA:0x800080b6
        5145000	       513	80006968	005a95a3	sh	x5,11(x21)	 x21:0x800080a9  x5:0xfffff8a8 PA:0x800080b4
        5155000	       514	8000696c	01fa8523	sb	x31,10(x21)	 x21:0x800080a9 x31:0x00000000 PA:0x800080b3
        5165000	       515	80006970	0077bbb3	sltu	x23,x15,x7	 x15:0x256d1da8  x7:0x00003fff x23=0x00000000
        5175000	       516	80006974	68631db7	lui	x27,0x68631	 x27=0x68631000
        5185000	       517	80006978	00000013	addi	x0,x0,0	  x0:0x00000000
        5195000	       518	8000697c	ffdad883	lhu	x17,-3(x21)	 x21:0x800080a9 x17=0x00005c5d PA:0x800080a6
        5205000	       519	80006980	00ea8d83	lb	x27,14(x21)	 x21:0x800080a9 x27=0x0000006c PA:0x800080b7
        5215000	       520	80006984	ffca8b23	sb	x28,-10(x21)	 x21:0x800080a9 x28:0x256d1fff PA:0x8000809f
        5225000	       521	80006988	feca8e23	sb	x12,-4(x21)	 x21:0x800080a9 x12:0x00000000 PA:0x800080a5
        5235000	       522	8000698c	9bf54e93	xori	x29,x10,-1601	 x10:0x00000001 x29=0xfffff9be
        5245000	       523	80006990	0066d4b3	srl	x9,x13,x6	 x13:0x501b0000  x6:0x0000000e  x9=0x0001406c
        5255000	       524	80006994	012d4933	xor	x18,x26,x18	 x26:0x04ada3b5 x18:0x09fa78c8 x18=0x0d57db7d
        5265000	       525	80006998	56da8b93	addi	x23,x21,1389	 x21:0x800080a9 x23=0x80008616
        5275000	       526	8000699c	00b6a233	slt	x4,x13,x11	 x13:0x501b0000 x11:0x00000000  x4=0x00000000
        5285000	       527	800069a0	00ba83a3	sb	x11,7(x21)	 x21:0x800080a9 x11:0x00000000 PA:0x800080b0
        5295000	       528	800069a4	009a9103	lh	x2,9(x21)	 x21:0x800080a9  x2=0x00000069 PA:0x800080b2
        5305000	       529	800069a8	ace33793	sltiu	x15,x6,-1330	  x6:0x0000000e x15=0x00000001
        5315000	       530	800069ac	00cac203	lbu	x4,12(x21)	 x21:0x800080a9  x4=0x000000f8 PA:0x800080b5
        5325000	       531	800069b0	ff9a8c23	sb	x25,-8(x21)	 x21:0x800080a9 x25:0x9fa78c80 PA:0x800080a1
        5335000	       532	800069b4	01944233	xor	x4,x8,x25	  x8:0x80009fc4 x25:0x9fa78c80  x4=0x1fa71344
        5345000	       533	800069b8	00661693	slli	x13,x12,0x6	 x12:0x00000000 x13=0x00000000
        5355000	       534	800069bc	11a58493	addi	x9,x11,282	 x11:0x00000000  x9=0x0000011a
        5365000	       535	800069c0	010a8823	sb	x16,16(x21)	 x21:0x800080a9 x16:0x0000006d PA:0x800080b9
        5375000	       536	800069c4	ff2a8883	lb	x17,-14(x21)	 x21:0x800080a9 x17=0x00000050 PA:0x8000809b
        5385000	       537	800069c8	008a94a3	sh	x8,9(x21)	 x21:0x800080a9  x8:0x80009fc4 PA:0x800080b2
        5395000	       538	800069cc	013a8723	sb	x19,14(x21)	 x21:0x800080a9 x19:0x00000001 PA:0x800080b7
        5405000	       539	800069d0	ff0a8e03	lb	x28,-16(x21)	 x21:0x800080a9 x28=0x00000000 PA:0x80008099
        5415000	       540	800069d4	00000013	addi	x0,x0,0	  x0:0x00000000
        5425000	       541	800069d8	00badd83	lhu	x27,11(x21)	 x21:0x800080a9 x27=0x0000f8a8 PA:0x800080b4
        5435000	       542	800069dc	016a95a3	sh	x22,11(x21)	 x21:0x800080a9 x22:0x0000005b PA:0x800080b4
        5445000	       543	800069e0	ff8a8783	lb	x15,-8(x21)	 x21:0x800080a9 x15=0xffffff80 PA:0x800080a1
        5455000	       544	800069e4	ffeac003	lbu	x0,-2(x21)	 x21:0x800080a9 PA:0x800080a7
        5465000	       545	800069e8	00241033	sll	x0,x8,x2	  x8:0x80009fc4  x2:0x00000069
        5475000	       546	800069ec	01aa94a3	sh	x26,9(x21)	 x21:0x800080a9 x26:0x04ada3b5 PA:0x800080b2
        5485000	       547	800069f0	007a9503	lh	x10,7(x21)	 x21:0x800080a9 x10=0x00006a00 PA:0x800080b0
        5495000	       548	800069f4	00921f93	slli	x31,x4,0x9	  x4:0x1fa71344 x31=0x4e268800
        5505000	       549	800069f8	006a8603	lb	x12,6(x21)	 x21:0x800080a9 x12=0x00000064 PA:0x800080af
        5515000	       550	800069fc	01ca8523	sb	x28,10(x21)	 x21:0x800080a9 x28:0x00000000 PA:0x800080b3
        5525000	       551	80006a00	41b70d33	sub	x26,x14,x27	 x14:0x00000000 x27:0x0000f8a8 x26=0xffff0758
        5535000	       552	80006a04	002a8203	lb	x4,2(x21)	 x21:0x800080a9  x4=0xffffffff PA:0x800080ab
        5545000	       553	80006a08	40ae5793	srai	x15,x28,0xa	 x28:0x00000000 x15=0x00000000
        5555000	       554	80006a0c	00ca8d03	lb	x26,12(x21)	 x21:0x800080a9 x26=0x00000000 PA:0x800080b5
        5565000	       555	80006a10	00645e63	bge	x8,x6,80006a2c	  x8:0x80009fc4  x6:0x0000000e
        5575000	       556	80006a14	00a670b3	and	x1,x12,x10	 x12:0x00000064 x10:0x00006a00  x1=0x00000000
        5585000	       557	80006a18	01bef463	bgeu	x29,x27,80006a20	 x29:0xfffff9be x27:0x0000f8a8
        5595000	       558	00000000	00000013	addi	x0,x0,0	  x0:0x00000000
        5605000	       559	80006a1c	00000013	addi	x0,x0,0	  x0:0x00000000
        5615000	       560	80006a20	007f5c93	srli	x25,x30,0x7	 x30:0x00000000 x25=0x00000000
        5625000	       561	80006a24	00000013	addi	x0,x0,0	  x0:0x00000000
        5635000	       562	80006a28	01c34e33	xor	x28,x6,x28	  x6:0x0000000e x28:0x00000000 x28=0x0000000e
        5645000	       563	80006a2c	41cc83b3	sub	x7,x25,x28	 x25:0x00000000 x28:0x0000000e  x7=0xfffffff2
        5655000	       564	80006a30	0002a8b3	slt	x17,x5,x0	  x5:0xfffff8a8  x0:0x00000000 x17=0x00000001
        5665000	       565	80006a34	41c982b3	sub	x5,x19,x28	 x19:0x00000001 x28:0x0000000e  x5=0xfffffff3
        5675000	       566	80006a38	04da1463	bne	x20,x13,80006a80	 x20:0x80009f50 x13:0x00000000
        5685000	       567	00000000	00000013	addi	x0,x0,0	  x0:0x00000000
        5695000	       568	80006a7c	00000013	addi	x0,x0,0	  x0:0x00000000
        5705000	       569	80006a80	01f9ce63	blt	x19,x31,80006a9c	 x19:0x00000001 x31:0x4e268800
        5715000	       570	00000000	00000013	addi	x0,x0,0	  x0:0x00000000
        5725000	       571	80006a98	00000013	addi	x0,x0,0	  x0:0x00000000
        5735000	       572	80006a9c	a8cefa93	andi	x21,x29,-1396	 x29:0xfffff9be x21=0xfffff88c
        5745000	       573	80006aa0	d8d3f037	lui	x0,0xd8d3f	
        5755000	       574	80006aa4	011ae863	bltu	x21,x17,80006ab4	 x21:0xfffff88c x17:0x00000001
        5765000	       575	80006aa8	010cfbb3	and	x23,x25,x16	 x25:0x00000000 x16:0x0000006d x23=0x00000000
        5775000	       576	80006aac	01afd533	srl	x10,x31,x26	 x31:0x4e268800 x26:0x00000000 x10=0x4e268800
        5785000	       577	80006ab0	01015713	srli	x14,x2,0x10	  x2:0x00000069 x14=0x00000000
        5795000	       578	80006ab4	01d25513	srli	x10,x4,0x1d	  x4:0xffffffff x10=0x00000007
        5805000	       579	80006ab8	008d1393	slli	x7,x26,0x8	 x26:0x00000000  x7=0x00000000
        5815000	       580	80006abc	00cd9593	slli	x11,x27,0xc	 x27:0x0000f8a8 x11=0x0f8a8000
        5825000	       581	80006ac0	c3daf497	auipc	x9,0xc3daf	  x9=0x43db5abc
        5835000	       582	80006ac4	0016dc93	srli	x25,x13,0x1	 x13:0x00000000 x25=0x00000000
        5845000	       583	80006ac8	410d88b3	sub	x17,x27,x16	 x27:0x0000f8a8 x16:0x0000006d x17=0x0000f83b
        5855000	       584	80006acc	004a2083	lw	x1,4(x20)	 x20:0x80009f50  x1=0x8000013c PA:0x80009f54
        5865000	       585	80006ad0	abaa4e93	xori	x29,x20,-1350	 x20:0x80009f50 x29=0x7fff65ea
        5875000	       586	80006ad4	40d10b33	sub	x22,x2,x13	  x2:0x00000069 x13:0x00000000 x22=0x00000069
        5885000	       587	80006ad8	e83e6d13	ori	x26,x28,-381	 x28:0x0000000e x26=0xfffffe8f
        5895000	       588	80006adc	6a80fc97	auipc	x25,0x6a80f	 x25=0xea815ad8
        5905000	       589	80006ae0	00000013	addi	x0,x0,0	  x0:0x00000000
        5915000	       590	80006ae4	29097617	auipc	x12,0x29097	 x12=0xa909dae0
        5925000	       591	80006ae8	034a0a13	addi	x20,x20,52	 x20:0x80009f50 x20=0x80009f84
        5935000	       592	80006aec	0cd0a293	slti	x5,x1,205	  x1:0x8000013c  x5=0x00000001
        5945000	       593	80006af0	000b9f33	sll	x30,x23,x0	 x23:0x00000000  x0:0x00000000 x30=0x00000000
        5955000	       594	80006af4	00108893	addi	x17,x1,1	  x1:0x8000013c x17=0x8000013d
        5965000	       595	80006af8	000888e7	jalr	x17,x17,0	 x17:0x8000013d x17=0x80006af8
        5975000	       596	00000000	00000013	addi	x0,x0,0	  x0:0x00000000
        5985000	       597	8000013c	00000013	addi	x0,x0,0	  x0:0x00000000
        5995000	       598	80000140	00009917	auipc	x18,0x9	 x18=0x8000913c
        6005000	       599	80000144	d7a90913	addi	x18,x18,-646	 x18:0x8000913c x18=0x80008eb6
        6015000	       600	80000148	01369d33	sll	x26,x13,x19	 x13:0x00000000 x19:0x00000001 x26=0x00000000
        6025000	       601	8000014c	01c56633	or	x12,x10,x28	 x10:0x00000007 x28:0x0000000e x12=0x0000000f
        6035000	       602	80000150	06594103	lbu	x2,101(x18)	 x18:0x80008eb6  x2=0x00000000 PA:0x80008f1b
        6045000	       603	80000154	cb280c93	addi	x25,x16,-846	 x16:0x0000006d x25=0xfffffd1f
        6055000	       604	80000158	0b690523	sb	x22,170(x18)	 x18:0x80008eb6 x22:0x00000069 PA:0x80008f60
        6065000	       605	8000015c	01b49593	slli	x11,x9,0x1b	  x9:0x43db5abc x11=0xe0000000
        6075000	       606	80000160	40d28633	sub	x12,x5,x13	  x5:0x00000001 x13:0x00000000 x12=0x00000001
        6085000	       607	80000164	17d6e593	ori	x11,x13,381	 x13:0x00000000 x11=0x0000017d
        6095000	       608	80000168	00419813	slli	x16,x3,0x4	  x3:0x4b6d5c4b x16=0xb6d5c4b0
        6105000	       609	8000016c	00989e33	sll	x28,x17,x9	 x17:0x80006af8  x9:0x43db5abc x28=0x80000000
        6115000	       610	80000170	9033ec93	ori	x25,x7,-1789	  x7:0x00000000 x25=0xfffff903
        6125000	       611	80000174	0c090fa3	sb	x0,223(x18)	 x18:0x80008eb6  x0:0x00000000 PA:0x80008f95
        6135000	       612	80000178	0d090103	lb	x2,208(x18)	 x18:0x80008eb6  x2=0x0000006d PA:0x80008f86
        6145000	       613	8000017c	00b46e33	or	x28,x8,x11	  x8:0x80009fc4 x11:0x0000017d x28=0x80009ffd
        6155000	       614	80000180	01694d03	lbu	x26,22(x18)	 x18:0x80008eb6 x26=0x000000b7 PA:0x80008ecc
        6165000	       615	80000184	d6bf4fb7	lui	x31,0xd6bf4	 x31=0xd6bf4000
        6175000	       616	80000188	408d8d33	sub	x26,x27,x8	 x27:0x0000f8a8  x8:0x80009fc4 x26=0x800058e4
        6185000	       617	8000018c	0006d693	srli	x13,x13,0x0	 x13:0x00000000 x13=0x00000000
        6195000	       618	80000190	08490ea3	sb	x4,157(x18)	 x18:0x80008eb6  x4:0xffffffff PA:0x80008f53
        6205000	       619	80000194	00000013	addi	x0,x0,0	  x0:0x00000000
        6215000	       620	80000198	fb295803	lhu	x16,-78(x18)	 x18:0x80008eb6 x16=0x00005253 PA:0x80008e68
        6225000	       621	8000019c	f74906a3	sb	x20,-147(x18)	 x18:0x80008eb6 x20:0x80009f84 PA:0x80008e23
        6235000	       622	800001a0	0b990783	lb	x15,185(x18)	 x18:0x80008eb6 x15=0x00000054 PA:0x80008f6f
        6245000	       623	800001a4	08294603	lbu	x12,130(x18)	 x18:0x80008eb6 x12=0x00000023 PA:0x80008f38
        6255000	       624	800001a8	8c0fbd13	sltiu	x26,x31,-1856	 x31:0xd6bf4000 x26=0x00000001
        6265000	       625	800001ac	07a91523	sh	x26,106(x18)	 x18:0x80008eb6 x26:0x00000001 PA:0x80008f20
        6275000	       626	800001b0	b5b96b93	ori	x23,x18,-1189	 x18:0x80008eb6 x23=0xffffffff
        6285000	       627	800001b4	f27904a3	sb	x7,-215(x18)	 x18:0x80008eb6  x7:0x00000000 PA:0x80008ddf
        6295000	       628	800001b8	73ed0293	addi	x5,x26,1854	 x26:0x00000001  x5=0x0000073f
        6305000	       629	800001bc	f2890003	lb	x0,-216(x18)	 x18:0x80008eb6 PA:0x80008dde
        6315000	       630	800001c0	00ad9493	slli	x9,x27,0xa	 x27:0x0000f8a8  x9=0x03e2a000
        6325000	       631	800001c4	06694e83	lbu	x29,102(x18)	 x18:0x80008eb6 x29=0x00000007 PA:0x80008f1c
        6335000	       632	00000000	00000013	addi	x0,x0,0	  x0:0x00000000
        6345000	       633	800001c8	81d24ab7	lui	x21,0x81d24	 x21=0x81d24000
        6355000	       634	800001cc	0b8900a3	sb	x24,161(x18)	 x18:0x80008eb6 x24:0x0000055e PA:0x80008f57
        6365000	       635	800001d0	4119d9b3	sra	x19,x19,x17	 x19:0x00000001 x17:0x80006af8 x19=0x00000000
        6375000	       636	800001d4	01394083	lbu	x1,19(x18)	 x18:0x80008eb6  x1=0x000000b2 PA:0x80008ec9
        6385000	       637	800001d8	07591f23	sh	x21,126(x18)	 x18:0x80008eb6 x21:0x81d24000 PA:0x80008f34
        6395000	       638	800001dc	fad94783	lbu	x15,-83(x18)	 x18:0x80008eb6 x15=0x00000048 PA:0x80008e63
        6405000	       639	800001e0	01ac1033	sll	x0,x24,x26	 x24:0x0000055e x26:0x00000001
        6415000	       640	800001e4	0f3902a3	sb	x19,229(x18)	 x18:0x80008eb6 x19:0x00000000 PA:0x80008f9b
        6425000	       641	800001e8	e30c7b93	andi	x23,x24,-464	 x24:0x0000055e x23=0x00000410
        6435000	       642	800001ec	03b90063	beq	x18,x27,8000020c	 x18:0x80008eb6 x27:0x0000f8a8
        6445000	       643	800001f0	05dc0263	beq	x24,x29,80000234	 x24:0x0000055e x29:0x00000007
        6455000	       644	800001f4	01bb9e93	slli	x29,x23,0x1b	 x23:0x00000410 x29=0x80000000
        6465000	       645	800001f8	01809c63	bne	x1,x24,80000210	  x1:0x000000b2 x24:0x0000055e
        6475000	       646	00000000	00000013	addi	x0,x0,0	  x0:0x00000000
        6485000	       647	8000020c	00000013	addi	x0,x0,0	  x0:0x00000000
        6495000	       648	80000210	00691b93	slli	x23,x18,0x6	 x18:0x80008eb6 x23=0x0023ad80
        6505000	       649	80000214	09288263	beq	x17,x18,80000298	 x17:0x80006af8 x18:0x80008eb6
        6515000	       650	80000218	00000013	addi	x0,x0,0	  x0:0x00000000
        6525000	       651	8000021c	0157c463	blt	x15,x21,80000224	 x15:0x00000048 x21:0x81d24000
        6535000	       652	80000220	02ea8863	beq	x21,x14,80000250	 x21:0x81d24000 x14:0x00000000
        6545000	       653	80000224	03d2f863	bgeu	x5,x29,80000254	  x5:0x0000073f x29:0x80000000
        6555000	       654	80000228	32c22913	slti	x18,x4,812	  x4:0xffffffff x18=0x00000001
        6565000	       655	8000022c	715f8e93	addi	x29,x31,1813	 x31:0xd6bf4000 x29=0xd6bf4715
        6575000	       656	80000230	01c73133	sltu	x2,x14,x28	 x14:0x00000000 x28:0x80009ffd  x2=0x00000001
        6585000	       657	80000234	4171d113	srai	x2,x3,0x17	  x3:0x4b6d5c4b  x2=0x00000096
        6595000	       658	80000238	902b0e93	addi	x29,x22,-1790	 x22:0x00000069 x29=0xfffff96b
        6605000	       659	8000023c	01d648b3	xor	x17,x12,x29	 x12:0x00000023 x29:0xfffff96b x17=0xfffff948
        6615000	       660	80000240	00453033	sltu	x0,x10,x4	 x10:0x00000007  x4:0xffffffff
        6625000	       661	80000244	01400f33	add	x30,x0,x20	  x0:0x00000000 x20:0x80009f84 x30=0x80009f84
        6635000	       662	80000248	013d7263	bgeu	x26,x19,8000024c	 x26:0x00000001 x19:0x00000000
        6645000	       663	00000000	00000013	addi	x0,x0,0	  x0:0x00000000
        6655000	       664	80000248	00000013	addi	x0,x0,0	  x0:0x00000000
        6665000	       665	8000024c	00ed6933	or	x18,x26,x14	 x26:0x00000001 x14:0x00000000 x18=0x00000001
        6675000	       666	80000250	79f22e97	auipc	x29,0x79f22	 x29=0xf9f2224c
        6685000	       667	80000254	39d42493	slti	x9,x8,925	  x8:0x80009fc4  x9=0x00000001
        6695000	       668	80000258	0e5dc513	xori	x10,x27,229	 x27:0x0000f8a8 x10=0x0000f84d
        6705000	       669	8000025c	00dd5eb3	srl	x29,x26,x13	 x26:0x00000001 x13:0x00000000 x29=0x00000001
        6715000	       670	80000260	41955793	srai	x15,x10,0x19	 x10:0x0000f84d x15=0x00000000
        6725000	       671	80000264	91796593	ori	x11,x18,-1769	 x18:0x00000001 x11=0xfffff917
        6735000	       672	80000268	c29f0713	addi	x14,x30,-983	 x30:0x80009f84 x14=0x80009bad
        6745000	       673	8000026c	01287db3	and	x27,x16,x18	 x16:0x00005253 x18:0x00000001 x27=0x00000001
        6755000	       674	80000270	40cc8e33	sub	x28,x25,x12	 x25:0xfffff903 x12:0x00000023 x28=0xfffff8e0
        6765000	       675	80000274	01869393	slli	x7,x13,0x18	 x13:0x00000000  x7=0x00000000
        6775000	       676	80000278	00000617	auipc	x12,0x0	 x12=0x80000274
        6785000	       677	8000027c	2d460613	addi	x12,x12,724	 x12:0x80000274 x12=0x80000548
        6795000	       678	80000280	00d0ef33	or	x30,x1,x13	  x1:0x000000b2 x13:0x00000000 x30=0x000000b2
        6805000	       679	80000284	426f0593	addi	x11,x30,1062	 x30:0x000000b2 x11=0x000004d8
        6815000	       680	80000288	c5e60613	addi	x12,x12,-930	 x12:0x80000548 x12=0x800001a6
        6825000	       681	8000028c	00000013	addi	x0,x0,0	  x0:0x00000000
        6835000	       682	80000290	3a2600e7	jalr	x1,x12,930	 x12:0x800001a6  x1=0x80000290
        6845000	       683	00000000	00000013	addi	x0,x0,0	  x0:0x00000000
        6855000	       684	80000548	00000013	addi	x0,x0,0	  x0:0x00000000
        6865000	       685	8000054c	653bae93	slti	x29,x23,1619	 x23:0x0023ad80 x29=0x00000000
        6875000	       686	80000550	a8e67793	andi	x15,x12,-1394	 x12:0x800001a6 x15=0x80000086
        6885000	       687	80000554	400d8b33	sub	x22,x27,x0	 x27:0x00000001  x0:0x00000000 x22=0x00000001
        6895000	       688	80000558	fe0a0a13	addi	x20,x20,-32	 x20:0x80009f84 x20=0x80009f64
        6905000	       689	8000055c	001a2223	sw	x1,4(x20)	 x20:0x80009f64  x1:0x80000290 PA:0x80009f68
        6915000	       690	80000560	41acd293	srai	x5,x25,0x1a	 x25:0xfffff903  x5=0xffffffff
        6925000	       691	80000564	00008097	auipc	x1,0x8	  x1=0x80008560
        6935000	       692	80000568	45f08093	addi	x1,x1,1119	  x1:0x80008560  x1=0x800089bf
        6945000	       693	8000056c	01d0d203	lhu	x4,29(x1)	  x1:0x800089bf  x4=0x0000c6c7 PA:0x800089dc
        6955000	       694	80000570	03208d83	lb	x27,50(x1)	  x1:0x800089bf x27=0xffffffda PA:0x800089f1
        6965000	       695	80000574	ff709903	lh	x18,-9(x1)	  x1:0x800089bf x18=0xffff9c9d PA:0x800089b6
        6975000	       696	80000578	a8377393	andi	x7,x14,-1405	 x14:0x80009bad  x7=0x80009a81
        6985000	       697	8000057c	ff10cc03	lbu	x24,-15(x1)	  x1:0x800089bf x24=0x0000009b PA:0x800089b0
        6995000	       698	80000580	00000013	addi	x0,x0,0	  x0:0x00000000
        7005000	       699	80000584	007c28b3	slt	x17,x24,x7	 x24:0x0000009b  x7:0x80009a81 x17=0x00000000
        7015000	       700	80000588	fee0c003	lbu	x0,-18(x1)	  x1:0x800089bf PA:0x800089ad
        7025000	       701	8000058c	41e7df33	sra	x30,x15,x30	 x15:0x80000086 x30:0x000000b2 x30=0xffffe000
        7035000	       702	80000590	fa6d2393	slti	x7,x26,-90	 x26:0x00000001  x7=0x00000000
        7045000	       703	80000594	02708123	sb	x7,34(x1)	  x1:0x800089bf  x7:0x00000000 PA:0x800089e1
        7055000	       704	80000598	fc308623	sb	x3,-52(x1)	  x1:0x800089bf  x3:0x4b6d5c4b PA:0x8000898b
        7065000	       705	8000059c	fcd08f23	sb	x13,-34(x1)	  x1:0x800089bf x13:0x00000000 PA:0x8000899d
        7075000	       706	800005a0	0171d5b3	srl	x11,x3,x23	  x3:0x4b6d5c4b x23:0x0023ad80 x11=0x4b6d5c4b
        7085000	       707	800005a4	fd408523	sb	x20,-54(x1)	  x1:0x800089bf x20:0x80009f64 PA:0x80008989
        7095000	       708	800005a8	01834233	xor	x4,x6,x24	  x6:0x0000000e x24:0x0000009b  x4=0x00000095
        7105000	       709	800005ac	03a0c983	lbu	x19,58(x1)	  x1:0x800089bf x19=0x000000e2 PA:0x800089f9
        7115000	       710	800005b0	03c0c483	lbu	x9,60(x1)	  x1:0x800089bf  x9=0x000000e0 PA:0x800089fb
        7125000	       711	800005b4	fd908503	lb	x10,-39(x1)	  x1:0x800089bf x10=0xffffff83 PA:0x80008998
        7135000	       712	800005b8	01bcb8b3	sltu	x17,x25,x27	 x25:0xfffff903 x27:0xffffffda x17=0x00000001
        7145000	       713	800005bc	01ba5f13	srli	x30,x20,0x1b	 x20:0x80009f64 x30=0x00000010
        7155000	       714	800005c0	007073b3	and	x7,x0,x7	  x0:0x00000000  x7:0x00000000  x7=0x00000000
        7165000	       715	800005c4	00308b23	sb	x3,22(x1)	  x1:0x800089bf  x3:0x4b6d5c4b PA:0x800089d5
        7175000	       716	800005c8	00009517	auipc	x10,0x9	 x10=0x800095c4
        7185000	       717	800005cc	98950513	addi	x10,x10,-1655	 x10:0x800095c4 x10=0x80008f4d
        7195000	       718	800005d0	00ed9033	sll	x0,x27,x14	 x27:0xffffffda x14:0x80009bad
        7205000	       719	800005d4	1209ad13	slti	x26,x19,288	 x19:0x000000e2 x26=0x00000001
        7215000	       720	800005d8	d1f50903	lb	x18,-737(x10)	 x10:0x80008f4d x18=0x00000057 PA:0x80008c6c
        7225000	       721	800005dc	f1550323	sb	x21,-250(x10)	 x10:0x80008f4d x21:0x81d24000 PA:0x80008e53
        7235000	       722	800005e0	a52503a3	sb	x18,-1465(x10)	 x10:0x80008f4d x18:0x00000057 PA:0x80008994
        7245000	       723	800005e4	00bcaab3	slt	x21,x25,x11	 x25:0xfffff903 x11:0x4b6d5c4b x21=0x00000001
        7255000	       724	800005e8	99e50d23	sb	x30,-1638(x10)	 x10:0x80008f4d x30:0x00000010 PA:0x800088e7
        7265000	       725	800005ec	a9d54103	lbu	x2,-1379(x10)	 x10:0x80008f4d  x2=0x000000d1 PA:0x800089ea
        7275000	       726	800005f0	00036db3	or	x27,x6,x0	  x6:0x0000000e  x0:0x00000000 x27=0x0000000e
        7285000	       727	800005f4	4fde8393	addi	x7,x29,1277	 x29:0x00000000  x7=0x000004fd
        7295000	       728	800005f8	47754d13	xori	x26,x10,1143	 x10:0x80008f4d x26=0x80008b3a
        7305000	       729	800005fc	a9a50603	lb	x12,-1382(x10)	 x10:0x80008f4d x12=0xffffffcc PA:0x800089e7
        7315000	       730	80000600	00e974b3	and	x9,x18,x14	 x18:0x00000057 x14:0x80009bad  x9=0x00000005
        7325000	       731	80000604	03a50483	lb	x9,58(x10)	 x10:0x80008f4d  x9=0x0000006c PA:0x80008f87
        7335000	       732	80000608	be751f03	lh	x30,-1049(x10)	 x10:0x80008f4d x30=0x00001e1f PA:0x80008b34
        7345000	       733	8000060c	de854003	lbu	x0,-536(x10)	 x10:0x80008f4d PA:0x80008d35
        7355000	       734	80000610	c5c50b03	lb	x22,-932(x10)	 x10:0x80008f4d x22=0xffffff92 PA:0x80008ba9
        7365000	       735	80000614	014c15b3	sll	x11,x24,x20	 x24:0x0000009b x20:0x80009f64 x11=0x000009b0
        7375000	       736	80000618	d1b29c17	auipc	x24,0xd1b29	 x24=0x51b29614
        7385000	       737	8000061c	007a5833	srl	x16,x20,x7	 x20:0x80009f64  x7:0x000004fd x16=0x00000004
        7395000	       738	80000620	007befb3	or	x31,x23,x7	 x23:0x0023ad80  x7:0x000004fd x31=0x0023adfd
        7405000	       739	80000624	20ccfd13	andi	x26,x25,524	 x25:0xfffff903 x26=0x00000000
        7415000	       740	80000628	92654103	lbu	x2,-1754(x10)	 x10:0x80008f4d  x2=0x00000058 PA:0x80008873
        7425000	       741	8000062c	231cee13	ori	x28,x25,561	 x25:0xfffff903 x28=0xfffffb33
        7435000	       742	80000630	017dd733	srl	x14,x27,x23	 x27:0x0000000e x23:0x0023ad80 x14=0x0000000e
        7445000	       743	80000634	0032a033	slt	x0,x5,x3	  x5:0xffffffff  x3:0x4b6d5c4b
        7455000	       744	80000638	91d77f97	auipc	x31,0x91d77	 x31=0x11d77634
        7465000	       745	8000063c	eb042e13	slti	x28,x8,-336	  x8:0x80009fc4 x28=0x00000001
        7475000	       746	80000640	0133d613	srli	x12,x7,0x13	  x7:0x000004fd x12=0x00000000
        7485000	       747	80000644	00000013	addi	x0,x0,0	  x0:0x00000000
        7495000	       748	80000648	406d8c33	sub	x24,x27,x6	 x27:0x0000000e  x6:0x0000000e x24=0x00000000
        7505000	       749	8000064c	f2950983	lb	x19,-215(x10)	 x10:0x80008f4d x19=0x0000005d PA:0x80008e76
        7515000	       750	80000650	4ff60d93	addi	x27,x12,1279	 x12:0x00000000 x27=0x000004ff
        7525000	       751	80000654	4b312913	slti	x18,x2,1203	  x2:0x00000058 x18=0x00000001
        7535000	       752	80000658	fc352fa3	sw	x3,-33(x10)	 x10:0x80008f4d  x3:0x4b6d5c4b PA:0x80008f2c
        7545000	       753	8000065c	019192b3	sll	x5,x3,x25	  x3:0x4b6d5c4b x25:0xfffff903  x5=0x5b6ae258
        7555000	       754	80000660	6317d617	auipc	x12,0x6317d	 x12=0xe317d65c
        7565000	       755	80000664	012b7133	and	x2,x22,x18	 x22:0xffffff92 x18:0x00000001  x2=0x00000000
        7575000	       756	80000668	f5450283	lb	x5,-172(x10)	 x10:0x80008f4d  x5=0xffffff8a PA:0x80008ea1
        7585000	       757	8000066c	52723993	sltiu	x19,x4,1319	  x4:0x00000095 x19=0x00000001
        7595000	       758	80000670	c2e54983	lbu	x19,-978(x10)	 x10:0x80008f4d x19=0x00000060 PA:0x80008b7b
        7605000	       759	80000674	00008617	auipc	x12,0x8	 x12=0x80008670
        7615000	       760	80000678	e8560613	addi	x12,x12,-379	 x12:0x80008670 x12=0x800084f5
        7625000	       761	8000067c	006e96b3	sll	x13,x29,x6	 x29:0x00000000  x6:0x0000000e x13=0x00000000
        7635000	       762	80000680	0ea602a3	sb	x10,229(x12)	 x12:0x800084f5 x10:0x80008f4d PA:0x800085da
        7645000	       763	80000684	f4a64b83	lbu	x23,-182(x12)	 x12:0x800084f5 x23=0x000000f4 PA:0x8000843f
        7655000	       764	80000688	00ce8733	add	x14,x29,x12	 x29:0x00000000 x12:0x800084f5 x14=0x800084f5
        7665000	       765	8000068c	40c55133	sra	x2,x10,x12	 x10:0x80008f4d x12:0x800084f5  x2=0xfffffc00
        7675000	       766	80000690	f7360b03	lb	x22,-141(x12)	 x12:0x800084f5 x22=0x00000023 PA:0x80008468
        7685000	       767	80000694	b6508093	addi	x1,x1,-1179	  x1:0x800089bf  x1=0x80008524
        7695000	       768	80000698	017afbb3	and	x23,x21,x23	 x21:0x00000001 x23:0x000000f4 x23=0x00000000
        7705000	       769	8000069c	11d60023	sb	x29,256(x12)	 x12:0x800084f5 x29:0x00000000 PA:0x800085f5
        7715000	       770	800006a0	01f1a2b3	slt	x5,x3,x31	  x3:0x4b6d5c4b x31:0x11d77634  x5=0x00000000
        7725000	       771	800006a4	83cec693	xori	x13,x29,-1988	 x29:0x00000000 x13=0xfffff83c
        7735000	       772	800006a8	01164583	lbu	x11,17(x12)	 x12:0x800084f5 x11=0x000000bd PA:0x80008506
        7745000	       773	800006ac	40d05f93	srai	x31,x0,0xd	  x0:0x00000000 x31=0x00000000
        7755000	       774	800006b0	04f62da3	sw	x15,91(x12)	 x12:0x800084f5 x15:0x80000086 PA:0x80008550
        7765000	       775	800006b4	40fb5c13	srai	x24,x22,0xf	 x22:0x00000023 x24=0x00000000
        7775000	       776	800006b8	fa460a83	lb	x21,-92(x12)	 x12:0x800084f5 x21=0x00000052 PA:0x80008499
        7785000	       777	800006bc	01445793	srli	x15,x8,0x14	  x8:0x80009fc4 x15=0x00000800
        7795000	       778	800006c0	015fdcb3	srl	x25,x31,x21	 x31:0x00000000 x21:0x00000052 x25=0x00000000
        7805000	       779	800006c4	f2561ea3	sh	x5,-195(x12)	 x12:0x800084f5  x5:0x00000000 PA:0x80008432
        7815000	       780	800006c8	0b660583	lb	x11,182(x12)	 x12:0x800084f5 x11=0x00000060 PA:0x800085ab
        7825000	       781	800006cc	f46629a3	sw	x6,-173(x12)	 x12:0x800084f5  x6:0x0000000e PA:0x80008448
        7835000	       782	800006d0	06c64583	lbu	x11,108(x12)	 x12:0x800084f5 x11=0x0000001a PA:0x80008561
        7845000	       783	800006d4	fc960ca3	sb	x9,-39(x12)	 x12:0x800084f5  x9:0x0000006c PA:0x800084ce
        7855000	       784	800006d8	01325113	srli	x2,x4,0x13	  x4:0x00000095  x2=0x00000000
        7865000	       785	800006dc	01c8d013	srli	x0,x17,0x1c	 x17:0x00000001
        7875000	       786	800006e0	02864c83	lbu	x25,40(x12)	 x12:0x800084f5 x25=0x000000d6 PA:0x8000851d
        7885000	       787	800006e4	0d160923	sb	x17,210(x12)	 x12:0x800084f5 x17:0x00000001 PA:0x800085c7
        7895000	       788	800006e8	01d5d093	srli	x1,x11,0x1d	 x11:0x0000001a  x1=0x00000000
        7905000	       789	800006ec	01e18e33	add	x28,x3,x30	  x3:0x4b6d5c4b x30:0x00001e1f x28=0x4b6d7a6a
        7915000	       790	800006f0	a8313b97	auipc	x23,0xa8313	 x23=0x283136ec
        7925000	       791	800006f4	01ebe033	or	x0,x23,x30	 x23:0x283136ec x30:0x00001e1f
        7935000	       792	800006f8	01684233	xor	x4,x16,x22	 x16:0x00000004 x22:0x00000023  x4=0x00000027
        7945000	       793	800006fc	0e560783	lb	x15,229(x12)	 x12:0x800084f5 x15=0x0000004d PA:0x800085da
        7955000	       794	80000700	fe864e03	lbu	x28,-24(x12)	 x12:0x800084f5 x28=0x00000096 PA:0x800084dd
        7965000	       795	80000704	01ef1893	slli	x17,x30,0x1e	 x30:0x00001e1f x17=0xc0000000
        7975000	       796	80000708	00000013	addi	x0,x0,0	  x0:0x00000000
        7985000	       797	8000070c	03a64003	lbu	x0,58(x12)	 x12:0x800084f5 PA:0x8000852f
        7995000	       798	80000710	c45d7913	andi	x18,x26,-955	 x26:0x00000000 x18=0x00000000
        8005000	       799	80000714	415f80b3	sub	x1,x31,x21	 x31:0x00000000 x21:0x00000052  x1=0xffffffae
        8015000	       800	80000718	0fdc2193	slti	x3,x24,253	 x24:0x00000000  x3=0x00000001
        8025000	       801	8000071c	f0a64503	lbu	x10,-246(x12)	 x12:0x800084f5 x10=0x000000b4 PA:0x800083ff
        8035000	       802	80000720	004b1eb3	sll	x29,x22,x4	 x22:0x00000023  x4:0x00000027 x29=0x00001180
        8045000	       803	80000724	25fe7093	andi	x1,x28,607	 x28:0x00000096  x1=0x00000016
        8055000	       804	80000728	fcd65d03	lhu	x26,-51(x12)	 x12:0x800084f5 x26=0x00007879 PA:0x800084c2
        8065000	       805	8000072c	00008117	auipc	x2,0x8	  x2=0x80008728
        8075000	       806	80000730	50e10113	addi	x2,x2,1294	  x2:0x80008728  x2=0x80008c36
        8085000	       807	80000734	003e3ab3	sltu	x21,x28,x3	 x28:0x00000096  x3:0x00000001 x21=0x00000000
        8095000	       808	80000738	ffb10a83	lb	x21,-5(x2)	  x2:0x80008c36 x21=0x0000001a PA:0x80008c31
        8105000	       809	8000073c	fe510b83	lb	x23,-27(x2)	  x2:0x80008c36 x23=0x00000000 PA:0x80008c1b
        8115000	       810	80000740	003587b3	add	x15,x11,x3	 x11:0x0000001a  x3:0x00000001 x15=0x0000001b
        8125000	       811	80000744	01c10203	lb	x4,28(x2)	  x2:0x80008c36  x4=0x00000039 PA:0x80008c52
        8135000	       812	80000748	009bd4b3	srl	x9,x23,x9	 x23:0x00000000  x9:0x0000006c  x9=0x00000000
        8145000	       813	8000074c	ff514a83	lbu	x21,-11(x2)	  x2:0x80008c36 x21=0x00000010 PA:0x80008c2b
        8155000	       814	00000000	00000013	addi	x0,x0,0	  x0:0x00000000
        8165000	       815	80000750	03514c03	lbu	x24,53(x2)	  x2:0x80008c36 x24=0x00000050 PA:0x80008c6b
        8175000	       816	80000754	fec10c83	lb	x25,-20(x2)	  x2:0x80008c36 x25=0x00000009 PA:0x80008c22
        8185000	       817	80000758	02710a23	sb	x7,52(x2)	  x2:0x80008c36  x7:0x000004fd PA:0x80008c6a
        8195000	       818	8000075c	02610a83	lb	x21,38(x2)	  x2:0x80008c36 x21=0x00000047 PA:0x80008c5c
        8205000	       819	80000760	e3ae2013	slti	x0,x28,-454	 x28:0x00000096
        8215000	       820	80000764	4301e637	lui	x12,0x4301e	 x12=0x4301e000
        8225000	       821	80000768	fd212503	lw	x10,-46(x2)	  x2:0x80008c36 x10=0xf0f1f2f3 PA:0x80008c08
        8235000	       822	8000076c	015fff33	and	x30,x31,x21	 x31:0x00000000 x21:0x00000047 x30=0x00000000
        8245000	       823	80000770	74c1b593	sltiu	x11,x3,1868	  x3:0x00000001 x11=0x00000001
        8255000	       824	80000774	018ade13	srli	x28,x21,0x18	 x21:0x00000047 x28=0x00000000
        8265000	       825	80000778	6aadbd93	sltiu	x27,x27,1706	 x27:0x000004ff x27=0x00000001
        8275000	       826	8000077c	40c8ddb3	sra	x27,x17,x12	 x17:0xc0000000 x12:0x4301e000 x27=0xc0000000
        8285000	       827	80000780	01f09713	slli	x14,x1,0x1f	  x1:0x00000016 x14=0x00000000
        8295000	       828	80000784	001b9d93	slli	x27,x23,0x1	 x23:0x00000000 x27=0x00000000
        8305000	       829	80000788	fd514f03	lbu	x30,-43(x2)	  x2:0x80008c36 x30=0x000000f0 PA:0x80008c0b
        8315000	       830	8000078c	fe010ca3	sb	x0,-7(x2)	  x2:0x80008c36  x0:0x00000000 PA:0x80008c2f
        8325000	       831	80000790	03e14183	lbu	x3,62(x2)	  x2:0x80008c36  x3=0x0000005f PA:0x80008c74
        8335000	       832	80000794	00ca93b3	sll	x7,x21,x12	 x21:0x00000047 x12:0x4301e000  x7=0x00000047
        8345000	       833	80000798	02814983	lbu	x19,40(x2)	  x2:0x80008c36 x19=0x00000045 PA:0x80008c5e
        8355000	       834	8000079c	e6348397	auipc	x7,0xe6348	  x7=0x66348798
        8365000	       835	800007a0	ff110aa3	sb	x17,-11(x2)	  x2:0x80008c36 x17:0xc0000000 PA:0x80008c2b
        8375000	       836	800007a4	00c15583	lhu	x11,12(x2)	  x2:0x80008c36 x11=0x00002829 PA:0x80008c42
        8385000	       837	800007a8	014259b3	srl	x19,x4,x20	  x4:0x00000039 x20:0x80009f64 x19=0x00000003
        8395000	       838	800007ac	01312923	sw	x19,18(x2)	  x2:0x80008c36 x19:0x00000003 PA:0x80008c48
        8405000	       839	800007b0	004c27b3	slt	x15,x24,x4	 x24:0x00000050  x4:0x00000039 x15=0x00000000
        8415000	       840	800007b4	fdf10983	lb	x19,-33(x2)	  x2:0x80008c36 x19=0xfffffffe PA:0x80008c15
        8425000	       841	800007b8	00008997	auipc	x19,0x8	 x19=0x800087b4
        8435000	       842	800007bc	bc298993	addi	x19,x19,-1086	 x19:0x800087b4 x19=0x80008376
        8445000	       843	800007c0	802bfa93	andi	x21,x23,-2046	 x23:0x00000000 x21=0x00000000
        8455000	       844	800007c4	ffe9ca83	lbu	x21,-2(x19)	 x19:0x80008376 x21=0x0000002f PA:0x80008374
        8465000	       845	800007c8	00497f33	and	x30,x18,x4	 x18:0x00000000  x4:0x00000039 x30=0x00000000
        8475000	       846	800007cc	ff798d23	sb	x23,-6(x19)	 x19:0x80008376 x23:0x00000000 PA:0x80008370
        8485000	       847	800007d0	00000013	addi	x0,x0,0	  x0:0x00000000
        8495000	       848	800007d4	010ad393	srli	x7,x21,0x10	 x21:0x0000002f  x7=0x00000000
        8505000	       849	800007d8	ff09c903	lbu	x18,-16(x19)	 x19:0x80008376 x18=0x0000001d PA:0x80008366
        8515000	       850	800007dc	fe799823	sh	x7,-16(x19)	 x19:0x80008376  x7:0x00000000 PA:0x80008366
        8525000	       851	800007e0	fe99a923	sw	x9,-14(x19)	 x19:0x80008376  x9:0x00000000 PA:0x80008368
        8535000	       852	800007e4	ff598683	lb	x13,-11(x19)	 x19:0x80008376 x13=0x00000000 PA:0x8000836b
        8545000	       853	800007e8	ad42ed17	auipc	x26,0xad42e	 x26=0x2d42e7e4
        8555000	       854	800007ec	0059ca83	lbu	x21,5(x19)	 x19:0x80008376 x21=0x00000030 PA:0x8000837b
        8565000	       855	800007f0	ff198783	lb	x15,-15(x19)	 x19:0x80008376 x15=0x00000000 PA:0x80008367
        8575000	       856	800007f4	ff398703	lb	x14,-13(x19)	 x19:0x80008376 x14=0x00000000 PA:0x80008369
        8585000	       857	800007f8	01d6e8b3	or	x17,x13,x29	 x13:0x00000000 x29:0x00001180 x17=0x00001180
        8595000	       858	800007fc	00ef6033	or	x0,x30,x14	 x30:0x00000000 x14:0x00000000
        8605000	       859	80000800	00df67b3	or	x15,x30,x13	 x30:0x00000000 x13:0x00000000 x15=0x00000000
        8615000	       860	80000804	ff99c883	lbu	x17,-7(x19)	 x19:0x80008376 x17=0x00000024 PA:0x8000836f
        8625000	       861	80000808	ff79c583	lbu	x11,-9(x19)	 x19:0x80008376 x11=0x00000026 PA:0x8000836d
        8635000	       862	8000080c	ff998a23	sb	x25,-12(x19)	 x19:0x80008376 x25:0x00000009 PA:0x8000836a
        8645000	       863	80000810	00f35cb3	srl	x25,x6,x15	  x6:0x0000000e x15:0x00000000 x25=0x0000000e
        8655000	       864	80000814	00d98683	lb	x13,13(x19)	 x19:0x80008376 x13=0x00000038 PA:0x80008383
        8665000	       865	80000818	ff499e03	lh	x28,-12(x19)	 x19:0x80008376 x28=0x00000009 PA:0x8000836a
        8675000	       866	8000081c	ffd9cf03	lbu	x30,-3(x19)	 x19:0x80008376 x30=0x00000028 PA:0x80008373
        8685000	       867	00000000	00000013	addi	x0,x0,0	  x0:0x00000000
        8695000	       868	80000820	ffe9d203	lhu	x4,-2(x19)	 x19:0x80008376  x4=0x00002e2f PA:0x80008374
        8705000	       869	80000824	00c99b03	lh	x22,12(x19)	 x19:0x80008376 x22=0x00003839 PA:0x80008382
        8715000	       870	80000828	ffe99783	lh	x15,-2(x19)	 x19:0x80008376 x15=0x00002e2f PA:0x80008374
        8725000	       871	8000082c	ffc989a3	sb	x28,-13(x19)	 x19:0x80008376 x28:0x00000009 PA:0x80008369
        8735000	       872	80000830	753a7813	andi	x16,x20,1875	 x20:0x80009f64 x16=0x00000740
        8745000	       873	80000834	17b0a713	slti	x14,x1,379	  x1:0x00000016 x14=0x00000001
        8755000	       874	80000838	00d98883	lb	x17,13(x19)	 x19:0x80008376 x17=0x00000038 PA:0x80008383
        8765000	       875	8000083c	c67eac93	slti	x25,x29,-921	 x29:0x00001180 x25=0x00000000
        8775000	       876	80000840	fe999923	sh	x9,-14(x19)	 x19:0x80008376  x9:0x00000000 PA:0x80008368
        8785000	       877	80000844	00c0e833	or	x16,x1,x12	  x1:0x00000016 x12:0x4301e000 x16=0x4301e016
        8795000	       878	80000848	0008dd13	srli	x26,x17,0x0	 x17:0x00000038 x26=0x00000038
        8805000	       879	8000084c	419ed1b3	sra	x3,x29,x25	 x29:0x00001180 x25:0x00000000  x3=0x00001180
        8815000	       880	80000850	b71bb893	sltiu	x17,x23,-1167	 x23:0x00000000 x17=0x00000001
        8825000	       881	80000854	010cb7b3	sltu	x15,x25,x16	 x25:0x00000000 x16:0x4301e016 x15=0x00000001
        8835000	       882	80000858	015d47b3	xor	x15,x26,x21	 x26:0x00000038 x21:0x00000030 x15=0x00000008
        8845000	       883	8000085c	0589d863	bge	x19,x24,800008ac	 x19:0x80008376 x24:0x00000050
        8855000	       884	80000860	00375e33	srl	x28,x14,x3	 x14:0x00000001  x3:0x00001180 x28=0x00000001
        8865000	       885	80000864	be7cec13	ori	x24,x25,-1049	 x25:0x00000000 x24=0xfffffbe7
        8875000	       886	80000868	003866b3	or	x13,x16,x3	 x16:0x4301e016  x3:0x00001180 x13=0x4301f196
        8885000	       887	8000086c	015626b3	slt	x13,x12,x21	 x12:0x4301e000 x21:0x00000030 x13=0x00000000
        8895000	       888	80000870	018298b3	sll	x17,x5,x24	  x5:0x00000000 x24:0xfffffbe7 x17=0x00000000
        8905000	       889	80000874	19aa0493	addi	x9,x20,410	 x20:0x80009f64  x9=0x8000a0fe
        8915000	       890	80000878	00b64633	xor	x12,x12,x11	 x12:0x4301e000 x11:0x00000026 x12=0x4301e026
        8925000	       891	8000087c	41eb5f93	srai	x31,x22,0x1e	 x22:0x00003839 x31=0x00000000
        8935000	       892	80000880	02087263	bgeu	x16,x0,800008a4	 x16:0x4301e016  x0:0x00000000
        8945000	       893	00000000	00000013	addi	x0,x0,0	  x0:0x00000000
        8955000	       894	800008a0	00000013	addi	x0,x0,0	  x0:0x00000000
        8965000	       895	800008a4	406e03b3	sub	x7,x28,x6	 x28:0x00000001  x6:0x0000000e  x7=0xfffffff3
        8975000	       896	800008a8	0105f263	bgeu	x11,x16,800008ac	 x11:0x00000026 x16:0x4301e016
        8985000	       897	800008ac	010bacb3	slt	x25,x23,x16	 x23:0x00000000 x16:0x4301e016 x25=0x00000001
        8995000	       898	800008b0	013ff663	bgeu	x31,x19,800008bc	 x31:0x00000000 x19:0x80008376
        9005000	       899	800008b4	fb4d2013	slti	x0,x26,-76	 x26:0x00000038
        9015000	       900	800008b8	01efb2b3	sltu	x5,x31,x30	 x31:0x00000000 x30:0x00000028  x5=0x00000001
        9025000	       901	800008bc	01e95ab3	srl	x21,x18,x30	 x18:0x0000001d x30:0x00000028 x21=0x00000000
        9035000	       902	800008c0	057ef063	bgeu	x29,x23,80000900	 x29:0x00001180 x23:0x00000000
        9045000	       903	00000000	00000013	addi	x0,x0,0	  x0:0x00000000
        9055000	       904	800008fc	00000013	addi	x0,x0,0	  x0:0x00000000
        9065000	       905	80000900	01bc86b3	add	x13,x25,x27	 x25:0x00000001 x27:0x00000000 x13=0x00000001
        9075000	       906	80000904	0166eb33	or	x22,x13,x22	 x13:0x00000001 x22:0x00003839 x22=0x00003839
        9085000	       907	80000908	01630633	add	x12,x6,x22	  x6:0x0000000e x22:0x00003839 x12=0x00003847
        9095000	       908	8000090c	014dc863	blt	x27,x20,8000091c	 x27:0x00000000 x20:0x80009f64
        9105000	       909	80000910	000d9513	slli	x10,x27,0x0	 x27:0x00000000 x10=0x00000000
        9115000	       910	80000914	018e4f33	xor	x30,x28,x24	 x28:0x00000001 x24:0xfffffbe7 x30=0xfffffbe6
        9125000	       911	80000918	00000013	addi	x0,x0,0	  x0:0x00000000
        9135000	       912	8000091c	017f5463	bge	x30,x23,80000924	 x30:0xfffffbe6 x23:0x00000000
        9145000	       913	80000920	0dd7ebb7	lui	x23,0xdd7e	 x23=0x0dd7e000
        9155000	       914	80000924	0192f033	and	x0,x5,x25	  x5:0x00000001 x25:0x00000001
        9165000	       915	80000928	40b95f13	srai	x30,x18,0xb	 x18:0x0000001d x30=0x00000000
        9175000	       916	8000092c	00e5b8b3	sltu	x17,x11,x14	 x11:0x00000026 x14:0x00000001 x17=0x00000000
        9185000	       917	80000930	017c0ab3	add	x21,x24,x23	 x24:0xfffffbe7 x23:0x0dd7e000 x21=0x0dd7dbe7
        9195000	       918	80000934	01a682b3	add	x5,x13,x26	 x13:0x00000001 x26:0x00000038  x5=0x00000039
        9205000	       919	80000938	008de7b3	or	x15,x27,x8	 x27:0x00000000  x8:0x80009fc4 x15=0x80009fc4
        9215000	       920	8000093c	01919b13	slli	x22,x3,0x19	  x3:0x00001180 x22=0x00000000
        9225000	       921	80000940	00410533	add	x10,x2,x4	  x2:0x80008c36  x4:0x00002e2f x10=0x8000ba65
        9235000	       922	80000944	40a682b3	sub	x5,x13,x10	 x13:0x00000001 x10:0x8000ba65  x5=0x7fff459c
        9245000	       923	80000948	0180e663	bltu	x1,x24,80000954	  x1:0x00000016 x24:0xfffffbe7
        9255000	       924	00000000	00000013	addi	x0,x0,0	  x0:0x00000000
        9265000	       925	80000950	00000013	addi	x0,x0,0	  x0:0x00000000
        9275000	       926	80000954	0044ffb3	and	x31,x9,x4	  x9:0x8000a0fe  x4:0x00002e2f x31=0x0000202e
        9285000	       927	80000958	00a05bb3	srl	x23,x0,x10	  x0:0x00000000 x10:0x8000ba65 x23=0x00000000
        9295000	       928	8000095c	71e5bc93	sltiu	x25,x11,1822	 x11:0x00000026 x25=0x00000001
        9305000	       929	80000960	43fe0693	addi	x13,x28,1087	 x28:0x00000001 x13=0x00000440
        9315000	       930	80000964	001a9f93	slli	x31,x21,0x1	 x21:0x0dd7dbe7 x31=0x1bafb7ce
        9325000	       931	80000968	6a1c6693	ori	x13,x24,1697	 x24:0xfffffbe7 x13=0xffffffe7
        9335000	       932	8000096c	0175d693	srli	x13,x11,0x17	 x11:0x00000026 x13=0x00000000
        9345000	       933	80000970	00999663	bne	x19,x9,8000097c	 x19:0x80008376  x9:0x8000a0fe
        9355000	       934	00000000	00000013	addi	x0,x0,0	  x0:0x00000000
        9365000	       935	80000978	00000013	addi	x0,x0,0	  x0:0x00000000
        9375000	       936	8000097c	002f64b3	or	x9,x30,x2	 x30:0x00000000  x2:0x80008c36  x9=0x80008c36
        9385000	       937	80000980	61f3e113	ori	x2,x7,1567	  x7:0xfffffff3  x2=0xffffffff
        9395000	       938	80000984	a5183ab7	lui	x21,0xa5183	 x21=0xa5183000
        9405000	       939	80000988	05d68863	beq	x13,x29,800009d8	 x13:0x00000000 x29:0x00001180
        9415000	       940	8000098c	00be10b3	sll	x1,x28,x11	 x28:0x00000001 x11:0x00000026  x1=0x00000040
        9425000	       941	80000990	00000013	addi	x0,x0,0	  x0:0x00000000
        9435000	       942	80000994	4fcf4d93	xori	x27,x30,1276	 x30:0x00000000 x27=0x000004fc
        9445000	       943	80000998	4194deb3	sra	x29,x9,x25	  x9:0x80008c36 x25:0x00000001 x29=0xc000461b
        9455000	       944	8000099c	01e470b3	and	x1,x8,x30	  x8:0x80009fc4 x30:0x00000000  x1=0x00000000
        9465000	       945	800009a0	0dba78b7	lui	x17,0xdba7	 x17=0x0dba7000
        9475000	       946	800009a4	00000013	addi	x0,x0,0	  x0:0x00000000
        9485000	       947	800009a8	ec01c613	xori	x12,x3,-320	  x3:0x00001180 x12=0xffffef40
        9495000	       948	800009ac	01ebbeb3	sltu	x29,x23,x30	 x23:0x00000000 x30:0x00000000 x29=0x00000000
        9505000	       949	800009b0	35b8ff93	andi	x31,x17,859	 x17:0x0dba7000 x31=0x00000000
        9515000	       950	800009b4	0513f463	bgeu	x7,x17,800009fc	  x7:0xfffffff3 x17:0x0dba7000
        9525000	       951	00000000	00000013	addi	x0,x0,0	  x0:0x00000000
        9535000	       952	800009f8	00000013	addi	x0,x0,0	  x0:0x00000000
        9545000	       953	800009fc	00c1a733	slt	x14,x3,x12	  x3:0x00001180 x12:0xffffef40 x14=0x00000000
        9555000	       954	80000a00	db53dfb7	lui	x31,0xdb53d	 x31=0xdb53d000
        9565000	       955	80000a04	07f08a63	beq	x1,x31,80000a78	  x1:0x00000000 x31:0xdb53d000
        9575000	       956	80000a08	41468233	sub	x4,x13,x20	 x13:0x00000000 x20:0x80009f64  x4=0x7fff609c
        9585000	       957	80000a0c	006858b3	srl	x17,x16,x6	 x16:0x4301e016  x6:0x0000000e x17=0x00010c07
        9595000	       958	80000a10	00000013	addi	x0,x0,0	  x0:0x00000000
        9605000	       959	80000a14	445e6713	ori	x14,x28,1093	 x28:0x00000001 x14=0x00000445
        9615000	       960	80000a18	00e3d793	srli	x15,x7,0xe	  x7:0xfffffff3 x15=0x0003ffff
        9625000	       961	80000a1c	f78aca97	auipc	x21,0xf78ac	 x21=0x778aca18
        9635000	       962	80000a20	01d49993	slli	x19,x9,0x1d	  x9:0x80008c36 x19=0xc0000000
        9645000	       963	80000a24	00d65713	srli	x14,x12,0xd	 x12:0xffffef40 x14=0x0007ffff
        9655000	       964	80000a28	001c1493	slli	x9,x24,0x1	 x24:0xfffffbe7  x9=0xfffff7ce
        9665000	       965	80000a2c	01859893	slli	x17,x11,0x18	 x11:0x00000026 x17=0x26000000
        9675000	       966	80000a30	00da0633	add	x12,x20,x13	 x20:0x80009f64 x13:0x00000000 x12=0x80009f64
        9685000	       967	80000a34	062efa63	bgeu	x29,x2,80000aa8	 x29:0x00000000  x2:0xffffffff
        9695000	       968	80000a38	22d46393	ori	x7,x8,557	  x8:0x80009fc4  x7=0x80009fed
        9705000	       969	80000a3c	017e60b3	or	x1,x28,x23	 x28:0x00000001 x23:0x00000000  x1=0x00000001
        9715000	       970	80000a40	01e3dc93	srli	x25,x7,0x1e	  x7:0x80009fed x25=0x00000002
        9725000	       971	80000a44	00003497	auipc	x9,0x3	  x9=0x80003a40
        9735000	       972	80000a48	f1848493	addi	x9,x9,-232	  x9:0x80003a40  x9=0x80003958
        9745000	       973	80000a4c	019c9633	sll	x12,x25,x25	 x25:0x00000002 x25:0x00000002 x12=0x00000008
        9755000	       974	80000a50	01275113	srli	x2,x14,0x12	 x14:0x0007ffff  x2=0x00000001
        9765000	       975	80000a54	23248493	addi	x9,x9,562	  x9:0x80003958  x9=0x80003b8a
        9775000	       976	80000a58	97be4893	xori	x17,x28,-1669	 x28:0x00000001 x17=0xfffff97a
        9785000	       977	80000a5c	43beb513	sltiu	x10,x29,1083	 x29:0x00000000 x10=0x00000001
        9795000	       978	80000a60	009fc7b3	xor	x15,x31,x9	 x31:0xdb53d000  x9:0x80003b8a x15=0x5b53eb8a
        9805000	       979	80000a64	6d227393	andi	x7,x4,1746	  x4:0x7fff609c  x7=0x00000090
        9815000	       980	80000a68	01a0d533	srl	x10,x1,x26	  x1:0x00000001 x26:0x00000038 x10=0x00000000
        9825000	       981	80000a6c	dcf480e7	jalr	x1,x9,-561	  x9:0x80003b8a  x1=0x80000a6c
        9835000	       982	00000000	00000013	addi	x0,x0,0	  x0:0x00000000
        9845000	       983	80003958	00000013	addi	x0,x0,0	  x0:0x00000000
        9855000	       984	8000395c	0114b033	sltu	x0,x9,x17	  x9:0x80003b8a x17:0xfffff97a
        9865000	       985	80003960	41e8db13	srai	x22,x17,0x1e	 x17:0xfffff97a x22=0xffffffff
        9875000	       986	80003964	013a7e33	and	x28,x20,x19	 x20:0x80009f64 x19:0xc0000000 x28=0x80000000
        9885000	       987	80003968	00816463	bltu	x2,x8,80003970	  x2:0x00000001  x8:0x80009fc4
        9895000	       988	00000000	00000013	addi	x0,x0,0	  x0:0x00000000
        9905000	       989	8000396c	00000013	addi	x0,x0,0	  x0:0x00000000
        9915000	       990	80003970	fe0a0a13	addi	x20,x20,-32	 x20:0x80009f64 x20=0x80009f44
        9925000	       991	80003974	0010b5b3	sltu	x11,x1,x1	  x1:0x80000a6c  x1:0x80000a6c x11=0x00000000
        9935000	       992	80003978	00000013	addi	x0,x0,0	  x0:0x00000000
        9945000	       993	8000397c	005fd113	srli	x2,x31,0x5	 x31:0xdb53d000  x2=0x06da9e80
        9955000	       994	80003980	6892f813	andi	x16,x5,1673	  x5:0x7fff459c x16=0x00000488
        9965000	       995	80003984	66046893	ori	x17,x8,1632	  x8:0x80009fc4 x17=0x80009fe4
        9975000	       996	80003988	001a2223	sw	x1,4(x20)	 x20:0x80009f44  x1:0x80000a6c PA:0x80009f48
        9985000	       997	8000398c	01bcee33	or	x28,x25,x27	 x25:0x00000002 x27:0x000004fc x28=0x000004fe
        9995000	       998	80003990	00005c97	auipc	x25,0x5	 x25=0x8000898c
       10005000	       999	80003994	9ccc8c93	addi	x25,x25,-1588	 x25:0x8000898c x25=0x80008358
       10015000	      1000	80003998	0152d893	srli	x17,x5,0x15	  x5:0x7fff459c x17=0x000003ff
       10025000	      1001	8000399c	4031fa97	auipc	x21,0x4031f	 x21=0xc0322998
       10035000	      1002	800039a0	00000013	addi	x0,x0,0	  x0:0x00000000
       10045000	      1003	800039a4	0169bab3	sltu	x21,x19,x22	 x19:0xc0000000 x22:0xffffffff x21=0x00000001
       10055000	      1004	800039a8	e5926d97	auipc	x27,0xe5926	 x27=0x659299a4
       10065000	      1005	800039ac	f8e44793	xori	x15,x8,-114	  x8:0x80009fc4 x15=0x7fff604a
       10075000	      1006	800039b0	0e3d8113	addi	x2,x27,227	 x27:0x659299a4  x2=0x65929a87
       10085000	      1007	800039b4	006b1e13	slli	x28,x22,0x6	 x22:0xffffffff x28=0xffffffc0
       10095000	      1008	800039b8	040ca783	lw	x15,64(x25)	 x25:0x80008358 x15=0x50515253 PA:0x80008398
       10105000	      1009	800039bc	45d9fa97	auipc	x21,0x45d9f	 x21=0xc5da29b8
       10115000	      1010	800039c0	00bfcc33	xor	x24,x31,x11	 x31:0xdb53d000 x11:0x00000000 x24=0xdb53d000
       10125000	      1011	800039c4	09fc83a3	sb	x31,135(x25)	 x25:0x80008358 x31:0xdb53d000 PA:0x800083df
       10135000	      1012	800039c8	009bd833	srl	x16,x23,x9	 x23:0x00000000  x9:0x80003b8a x16=0x00000000
       10145000	      1013	800039cc	031cc583	lbu	x11,49(x25)	 x25:0x80008358 x11=0x00000042 PA:0x80008389
       10155000	      1014	800039d0	fd2c9d83	lh	x27,-46(x25)	 x25:0x80008358 x27=0xffffe0e1 PA:0x8000832a
       10165000	      1015	800039d4	f5ccc503	lbu	x10,-164(x25)	 x25:0x80008358 x10=0x0000006f PA:0x800082b4
       10175000	      1016	800039d8	5a24ba93	sltiu	x21,x9,1442	  x9:0x80003b8a x21=0x00000000
       10185000	      1017	800039dc	f11cc903	lbu	x18,-239(x25)	 x25:0x80008358 x18=0x00000022 PA:0x80008269
       10195000	      1018	800039e0	3aa0bd13	sltiu	x26,x1,938	  x1:0x80000a6c x26=0x00000000
       10205000	      1019	800039e4	9a6aadb7	lui	x27,0x9a6aa	 x27=0x9a6aa000
       10215000	      1020	800039e8	019fa6b3	slt	x13,x31,x25	 x31:0xdb53d000 x25:0x80008358 x13=0x00000000
       10225000	      1021	800039ec	f8dc8503	lb	x10,-115(x25)	 x25:0x80008358 x10=0xffffff9e PA:0x800082e5
       10235000	      1022	800039f0	01e928b3	slt	x17,x18,x30	 x18:0x00000022 x30:0x00000000 x17=0x00000000
       10245000	      1023	800039f4	f22cc583	lbu	x11,-222(x25)	 x25:0x80008358 x11=0x00000031 PA:0x8000827a
       10255000	      1024	800039f8	025c8b03	lb	x22,37(x25)	 x25:0x80008358 x22=0x00000036 PA:0x8000837d
       10265000	      1025	800039fc	0c7ccd83	lbu	x27,199(x25)	 x25:0x80008358 x27=0x000000d4 PA:0x8000841f
       10275000	      1026	80003a00	015100b3	add	x1,x2,x21	  x2:0x65929a87 x21:0x00000000  x1=0x65929a87
       10285000	      1027	80003a04	f3bcc583	lbu	x11,-197(x25)	 x25:0x80008358 x11=0x00000048 PA:0x80008293
       10295000	      1028	80003a08	f70c8d03	lb	x26,-144(x25)	 x25:0x80008358 x26=0xffffff83 PA:0x800082c8
       10305000	      1029	80003a0c	f87cc183	lbu	x3,-121(x25)	 x25:0x80008358  x3=0x00000094 PA:0x800082df
       10315000	      1030	80003a10	801ea193	slti	x3,x29,-2047	 x29:0x00000000  x3=0x00000000
       10325000	      1031	80003a14	0027fd33	and	x26,x15,x2	 x15:0x50515253  x2:0x65929a87 x26=0x40101203
       10335000	      1032	80003a18	e9006193	ori	x3,x0,-368	  x0:0x00000000  x3=0xfffffe90
       10345000	      1033	80003a1c	0164cd33	xor	x26,x9,x22	  x9:0x80003b8a x22:0x00000036 x26=0x80003bbc
       10355000	      1034	80003a20	01058933	add	x18,x11,x16	 x11:0x00000048 x16:0x00000000 x18=0x00000048
       10365000	      1035	80003a24	fb1c8623	sb	x17,-84(x25)	 x25:0x80008358 x17:0x00000000 PA:0x80008304
       10375000	      1036	80003a28	41325633	sra	x12,x4,x19	  x4:0x7fff609c x19:0xc0000000 x12=0x7fff609c
       10385000	      1037	80003a2c	00dc8ba3	sb	x13,23(x25)	 x25:0x80008358 x13:0x00000000 PA:0x8000836f
       10395000	      1038	80003a30	0a5c8683	lb	x13,165(x25)	 x25:0x80008358 x13=0xffffffb6 PA:0x800083fd
       10405000	      1039	80003a34	013d8f33	add	x30,x27,x19	 x27:0x000000d4 x19:0xc0000000 x30=0xc00000d4
       10415000	      1040	80003a38	fe4c8903	lb	x18,-28(x25)	 x25:0x80008358 x18=0xfffffff7 PA:0x8000833c
       10425000	      1041	80003a3c	018b3fb3	sltu	x31,x22,x24	 x22:0x00000036 x24:0xdb53d000 x31=0x00000001
       10435000	      1042	80003a40	01999d33	sll	x26,x19,x25	 x19:0xc0000000 x25:0x80008358 x26=0x00000000
       10445000	      1043	80003a44	f2cc8883	lb	x17,-212(x25)	 x25:0x80008358 x17=0x0000003f PA:0x80008284
       10455000	      1044	80003a48	fcfccd83	lbu	x27,-49(x25)	 x25:0x80008358 x27=0x000000dc PA:0x80008327
       10465000	      1045	80003a4c	03ac9603	lh	x12,58(x25)	 x25:0x80008358 x12=0x00004849 PA:0x80008392
       10475000	      1046	80003a50	0152da93	srli	x21,x5,0x15	  x5:0x7fff459c x21=0x000003ff
       10485000	      1047	80003a54	00d7c3b3	xor	x7,x15,x13	 x15:0x50515253 x13:0xffffffb6  x7=0xafaeade5
       10495000	      1048	80003a58	f9bc8ca3	sb	x27,-103(x25)	 x25:0x80008358 x27:0x000000dc PA:0x800082f1
       10505000	      1049	80003a5c	fc3c85a3	sb	x3,-53(x25)	 x25:0x80008358  x3:0xfffffe90 PA:0x80008323
       10515000	      1050	80003a60	00005117	auipc	x2,0x5	  x2=0x80008a5c
       10525000	      1051	80003a64	a7a10113	addi	x2,x2,-1414	  x2:0x80008a5c  x2=0x800084d6
       10535000	      1052	80003a68	00000013	addi	x0,x0,0	  x0:0x00000000
       10545000	      1053	80003a6c	e80106a3	sb	x0,-371(x2)	  x2:0x800084d6  x0:0x00000000 PA:0x80008363
       10555000	      1054	80003a70	15914283	lbu	x5,345(x2)	  x2:0x800084d6  x5=0x000000e4 PA:0x8000862f
       10565000	      1055	80003a74	00000013	addi	x0,x0,0	  x0:0x00000000
       10575000	      1056	80003a78	00566c33	or	x24,x12,x5	 x12:0x00004849  x5:0x000000e4 x24=0x000048ed
       10585000	      1057	80003a7c	e2c11723	sh	x12,-466(x2)	  x2:0x800084d6 x12:0x00004849 PA:0x80008304
       10595000	      1058	80003a80	400dd9b3	sra	x19,x27,x0	 x27:0x000000dc  x0:0x00000000 x19=0x000000dc
       10605000	      1059	80003a84	06d10903	lb	x18,109(x2)	  x2:0x800084d6 x18=0xfffffff8 PA:0x80008543
       10615000	      1060	80003a88	204104a3	sb	x4,521(x2)	  x2:0x800084d6  x4:0x7fff609c PA:0x800086df
       10625000	      1061	80003a8c	132105a3	sb	x18,299(x2)	  x2:0x800084d6 x18:0xfffffff8 PA:0x80008601
       10635000	      1062	80003a90	419e8ab3	sub	x21,x29,x25	 x29:0x00000000 x25:0x80008358 x21=0x7fff7ca8
       10645000	      1063	80003a94	fd314983	lbu	x19,-45(x2)	  x2:0x800084d6 x19=0x00000062 PA:0x800084a9
       10655000	      1064	80003a98	00000013	addi	x0,x0,0	  x0:0x00000000
       10665000	      1065	80003a9c	ef514e03	lbu	x28,-267(x2)	  x2:0x800084d6 x28=0x00000080 PA:0x800083cb
       10675000	      1066	80003aa0	ec657693	andi	x13,x10,-314	 x10:0xffffff9e x13=0xfffffe86
       10685000	      1067	80003aa4	521eddb7	lui	x27,0x521ed	 x27=0x521ed000
       10695000	      1068	80003aa8	4187d213	srai	x4,x15,0x18	 x15:0x50515253  x4=0x00000050
       10705000	      1069	80003aac	e4b10aa3	sb	x11,-427(x2)	  x2:0x800084d6 x11:0x00000048 PA:0x8000832b
       10715000	      1070	80003ab0	40790f33	sub	x30,x18,x7	 x18:0xfffffff8  x7:0xafaeade5 x30=0x50515213
       10725000	      1071	80003ab4	1bc10203	lb	x4,444(x2)	  x2:0x800084d6  x4=0x00000049 PA:0x80008692
       10735000	      1072	80003ab8	56de4a97	auipc	x21,0x56de4	 x21=0xd6de7ab4
       10745000	      1073	80003abc	ff514483	lbu	x9,-11(x2)	  x2:0x800084d6  x9=0x00000080 PA:0x800084cb
       10755000	      1074	80003ac0	fde14283	lbu	x5,-34(x2)	  x2:0x800084d6  x5=0x0000006f PA:0x800084b4
       10765000	      1075	80003ac4	24e8f593	andi	x11,x17,590	 x17:0x0000003f x11=0x0000000e
       10775000	      1076	80003ac8	012532b3	sltu	x5,x10,x18	 x10:0xffffff9e x18:0xfffffff8  x5=0x00000001
       10785000	      1077	80003acc	005345b3	xor	x11,x6,x5	  x6:0x0000000e  x5:0x00000001 x11=0x0000000f
       10795000	      1078	80003ad0	fdf14e03	lbu	x28,-33(x2)	  x2:0x800084d6 x28=0x0000006e PA:0x800084b5
       10805000	      1079	80003ad4	c0da4397	auipc	x7,0xc0da4	  x7=0x40da7ad0
       10815000	      1080	80003ad8	c5f14003	lbu	x0,-929(x2)	  x2:0x800084d6 PA:0x80008135
       10825000	      1081	80003adc	2e512f23	sw	x5,766(x2)	  x2:0x800084d6  x5:0x00000001 PA:0x800087d4
       10835000	      1082	80003ae0	00005e97	auipc	x29,0x5	 x29=0x80008adc
       10845000	      1083	80003ae4	3e8e8e93	addi	x29,x29,1000	 x29:0x80008adc x29=0x80008ec4
       10855000	      1084	80003ae8	f8ced383	lhu	x7,-116(x29)	 x29:0x80008ec4  x7=0x00003a3b PA:0x80008e50
       10865000	      1085	80003aec	6caa2637	lui	x12,0x6caa2	 x12=0x6caa2000
       10875000	      1086	80003af0	e585a5b7	lui	x11,0xe585a	 x11=0xe585a000
       10885000	      1087	80003af4	02ae9723	sh	x10,46(x29)	 x29:0x80008ec4 x10:0xffffff9e PA:0x80008ef2
       10895000	      1088	80003af8	4037d6b3	sra	x13,x15,x3	 x15:0x50515253  x3:0xfffffe90 x13=0x00005051
       10905000	      1089	80003afc	400d82b3	sub	x5,x27,x0	 x27:0x521ed000  x0:0x00000000  x5=0x521ed000
       10915000	      1090	80003b00	f2ce81a3	sb	x12,-221(x29)	 x29:0x80008ec4 x12:0x6caa2000 PA:0x80008de7
       10925000	      1091	80003b04	02ced603	lhu	x12,44(x29)	 x29:0x80008ec4 x12=0x0000dadb PA:0x80008ef0
       10935000	      1092	80003b08	fdde8d03	lb	x26,-35(x29)	 x29:0x80008ec4 x26=0xffffff8a PA:0x80008ea1
       10945000	      1093	80003b0c	07ce9f83	lh	x31,124(x29)	 x29:0x80008ec4 x31=0x00002a2b PA:0x80008f40
       10955000	      1094	80003b10	98b8d937	lui	x18,0x98b8d	 x18=0x98b8d000
       10965000	      1095	80003b14	fa8ed483	lhu	x9,-88(x29)	 x29:0x80008ec4  x9=0x00005657 PA:0x80008e6c
       10975000	      1096	80003b18	095ec003	lbu	x0,149(x29)	 x29:0x80008ec4 PA:0x80008f59
       10985000	      1097	80003b1c	c4596613	ori	x12,x18,-955	 x18:0x98b8d000 x12=0xfffffc45
       10995000	      1098	80003b20	019e8a23	sb	x25,20(x29)	 x29:0x80008ec4 x25:0x80008358 PA:0x80008ed8
       11005000	      1099	80003b24	007f1f33	sll	x30,x30,x7	 x30:0x50515213  x7:0x00003a3b x30=0x98000000
       11015000	      1100	80003b28	095e8983	lb	x19,149(x29)	 x29:0x80008ec4 x19=0x00000042 PA:0x80008f59
       11025000	      1101	80003b2c	40a05913	srai	x18,x0,0xa	  x0:0x00000000 x18=0x00000000
       11035000	      1102	80003b30	0f3e9623	sh	x19,236(x29)	 x29:0x80008ec4 x19:0x00000042 PA:0x80008fb0
       11045000	      1103	80003b34	04cec983	lbu	x19,76(x29)	 x29:0x80008ec4 x19=0x000000fb PA:0x80008f10
       11055000	      1104	80003b38	fad1e093	ori	x1,x3,-83	  x3:0xfffffe90  x1=0xffffffbd
       11065000	      1105	80003b3c	056ecf03	lbu	x30,86(x29)	 x29:0x80008ec4 x30=0x00000001 PA:0x80008f1a
       11075000	      1106	80003b40	377a2d93	slti	x27,x20,887	 x20:0x80009f44 x27=0x00000001
       11085000	      1107	80003b44	fcfe9e23	sh	x15,-36(x29)	 x29:0x80008ec4 x15:0x50515253 PA:0x80008ea0
       11095000	      1108	80003b48	080ec203	lbu	x4,128(x29)	 x29:0x80008ec4  x4=0x0000002f PA:0x80008f44
       11105000	      1109	80003b4c	031e9123	sh	x17,34(x29)	 x29:0x80008ec4 x17:0x0000003f PA:0x80008ee6
       11115000	      1110	80003b50	5ae36613	ori	x12,x6,1454	  x6:0x0000000e x12=0x000005ae
       11125000	      1111	80003b54	f00ea423	sw	x0,-248(x29)	 x29:0x80008ec4  x0:0x00000000 PA:0x80008dcc
       11135000	      1112	80003b58	001d20b3	slt	x1,x26,x1	 x26:0xffffff8a  x1:0xffffffbd  x1=0x00000001
       11145000	      1113	80003b5c	022e9803	lh	x16,34(x29)	 x29:0x80008ec4 x16=0x0000003f PA:0x80008ee6
       11155000	      1114	80003b60	f9eecc83	lbu	x25,-98(x29)	 x29:0x80008ec4 x25=0x00000049 PA:0x80008e62
       11165000	      1115	80003b64	00b2acb3	slt	x25,x5,x11	  x5:0x521ed000 x11:0xe585a000 x25=0x00000000
       11175000	      1116	80003b68	fc21e693	ori	x13,x3,-62	  x3:0xfffffe90 x13=0xffffffd2
       11185000	      1117	80003b6c	f48ed983	lhu	x19,-184(x29)	 x29:0x80008ec4 x19=0x0000f6f7 PA:0x80008e0c
       11195000	      1118	80003b70	fdbe9623	sh	x27,-52(x29)	 x29:0x80008ec4 x27:0x00000001 PA:0x80008e90
       11205000	      1119	80003b74	010c1793	slli	x15,x24,0x10	 x24:0x000048ed x15=0x48ed0000
       11215000	      1120	80003b78	016fc733	xor	x14,x31,x22	 x31:0x00002a2b x22:0x00000036 x14=0x00002a1d
       11225000	      1121	80003b7c	f4ce8a83	lb	x21,-180(x29)	 x29:0x80008ec4 x21=0xfffffffb PA:0x80008e10
       11235000	      1122	80003b80	08fec603	lbu	x12,143(x29)	 x29:0x80008ec4 x12=0x000000ff PA:0x80008f53
       11245000	      1123	80003b84	01951613	slli	x12,x10,0x19	 x10:0xffffff9e x12=0x3c000000
       11255000	      1124	80003b88	feee8aa3	sb	x14,-11(x29)	 x29:0x80008ec4 x14:0x00002a1d PA:0x80008eb9
       11265000	      1125	80003b8c	0cee82a3	sb	x14,197(x29)	 x29:0x80008ec4 x14:0x00002a1d PA:0x80008f89
       11275000	      1126	80003b90	070e8ea3	sb	x16,125(x29)	 x29:0x80008ec4 x16:0x0000003f PA:0x80008f41
       11285000	      1127	80003b94	f3fec283	lbu	x5,-193(x29)	 x29:0x80008ec4  x5=0x000000e8 PA:0x80008e03
       11295000	      1128	80003b98	00005117	auipc	x2,0x5	  x2=0x80008b94
       11305000	      1129	80003b9c	c3310113	addi	x2,x2,-973	  x2:0x80008b94  x2=0x800087c7
       11315000	      1130	80003ba0	009a38b3	sltu	x17,x20,x9	 x20:0x80009f44  x9:0x00005657 x17=0x00000000
       11325000	      1131	80003ba4	fc410fa3	sb	x4,-33(x2)	  x2:0x800087c7  x4:0x0000002f PA:0x800087a6
       11335000	      1132	80003ba8	05b64b93	xori	x23,x12,91	 x12:0x3c000000 x23=0x3c00005b
       11345000	      1133	80003bac	f0a126a3	sw	x10,-243(x2)	  x2:0x800087c7 x10:0xffffff9e PA:0x800086d4
       11355000	      1134	80003bb0	f0a10f03	lb	x30,-246(x2)	  x2:0x800087c7 x30=0xffffff8a PA:0x800086d1
       11365000	      1135	80003bb4	01566233	or	x4,x12,x21	 x12:0x3c000000 x21:0xfffffffb  x4=0xfffffffb
       11375000	      1136	80003bb8	0176d533	srl	x10,x13,x23	 x13:0xffffffd2 x23:0x3c00005b x10=0x0000001f
       11385000	      1137	80003bbc	01d13533	sltu	x10,x2,x29	  x2:0x800087c7 x29:0x80008ec4 x10=0x00000001
       11395000	      1138	80003bc0	f3510c03	lb	x24,-203(x2)	  x2:0x800087c7 x24=0xffffffb7 PA:0x800086fc
       11405000	      1139	80003bc4	f8010ca3	sb	x0,-103(x2)	  x2:0x800087c7  x0:0x00000000 PA:0x80008760
       11415000	      1140	80003bc8	f5b11c83	lh	x25,-165(x2)	  x2:0x800087c7 x25=0xffffd8d9 PA:0x80008722
       11425000	      1141	80003bcc	0121e733	or	x14,x3,x18	  x3:0xfffffe90 x18:0x00000000 x14=0xfffffe90
       11435000	      1142	80003bd0	f3314983	lbu	x19,-205(x2)	  x2:0x800087c7 x19=0x000000b1 PA:0x800086fa
       11445000	      1143	80003bd4	00586bb3	or	x23,x16,x5	 x16:0x0000003f  x5:0x000000e8 x23=0x000000ff
       11455000	      1144	80003bd8	01cfd013	srli	x0,x31,0x1c	 x31:0x00002a2b
       11465000	      1145	80003bdc	00d2c3b3	xor	x7,x5,x13	  x5:0x000000e8 x13:0xffffffd2  x7=0xffffff3a
       11475000	      1146	80003be0	fe311203	lh	x4,-29(x2)	  x2:0x800087c7  x4=0x00006061 PA:0x800087aa
       11485000	      1147	80003be4	01b8d8b3	srl	x17,x17,x27	 x17:0x00000000 x27:0x00000001 x17=0x00000000
       11495000	      1148	80003be8	04810283	lb	x5,72(x2)	  x2:0x800087c7  x5=0xffffffc4 PA:0x8000880f
       11505000	      1149	80003bec	c78db693	sltiu	x13,x27,-904	 x27:0x00000001 x13=0x00000001
       11515000	      1150	80003bf0	becd0193	addi	x3,x26,-1044	 x26:0xffffff8a  x3=0xfffffb76
       11525000	      1151	80003bf4	018a1533	sll	x10,x20,x24	 x20:0x80009f44 x24:0xffffffb7 x10=0xa2000000
       11535000	      1152	80003bf8	fb311803	lh	x16,-77(x2)	  x2:0x800087c7 x16=0x00003031 PA:0x8000877a
       11545000	      1153	80003bfc	02b15203	lhu	x4,43(x2)	  x2:0x800087c7  x4=0x0000a8a9 PA:0x800087f2
       11555000	      1154	80003c00	003286b3	add	x13,x5,x3	  x5:0xffffffc4  x3:0xfffffb76 x13=0xfffffb3a
       11565000	      1155	80003c04	00000013	addi	x0,x0,0	  x0:0x00000000
       11575000	      1156	80003c08	01d15203	lhu	x4,29(x2)	  x2:0x800087c7  x4=0x00009e9f PA:0x800087e4
       11585000	      1157	80003c0c	00fa81b3	add	x3,x21,x15	 x21:0xfffffffb x15:0x48ed0000  x3=0x48ecfffb
       11595000	      1158	80003c10	00000013	addi	x0,x0,0	  x0:0x00000000
       11605000	      1159	80003c14	f6d12203	lw	x4,-147(x2)	  x2:0x800087c7  x4=0xecedeeef PA:0x80008734
       11615000	      1160	80003c18	00b14b83	lbu	x23,11(x2)	  x2:0x800087c7 x23=0x00000089 PA:0x800087d2
       11625000	      1161	80003c1c	01508ab3	add	x21,x1,x21	  x1:0x00000001 x21:0xfffffffb x21=0xfffffffc
       11635000	      1162	80003c20	40bc8bb3	sub	x23,x25,x11	 x25:0xffffd8d9 x11:0xe585a000 x23=0x1a7a38d9
       11645000	      1163	80003c24	5e57ac13	slti	x24,x15,1509	 x15:0x48ed0000 x24=0x00000000
       11655000	      1164	80003c28	40d20233	sub	x4,x4,x13	  x4:0xecedeeef x13:0xfffffb3a  x4=0xecedf3b5
       11665000	      1165	80003c2c	3c7e4193	xori	x3,x28,967	 x28:0x0000006e  x3=0x000003a9
       11675000	      1166	80003c30	01010383	lb	x7,16(x2)	  x2:0x800087c7  x7=0x00000000 PA:0x800087d7
       11685000	      1167	80003c34	0032e4b3	or	x9,x5,x3	  x5:0xffffffc4  x3:0x000003a9  x9=0xffffffed
       11695000	      1168	80003c38	03a119a3	sh	x26,51(x2)	  x2:0x800087c7 x26:0xffffff8a PA:0x800087fa
       11705000	      1169	80003c3c	03114683	lbu	x13,49(x2)	  x2:0x800087c7 x13=0x000000b3 PA:0x800087f8
       11715000	      1170	80003c40	8a008eb7	lui	x29,0x8a008	 x29=0x8a008000
       11725000	      1171	80003c44	00f10203	lb	x4,15(x2)	  x2:0x800087c7  x4=0x00000000 PA:0x800087d6
       11735000	      1172	80003c48	f8311803	lh	x16,-125(x2)	  x2:0x800087c7 x16=0x00000001 PA:0x8000874a
       11745000	      1173	80003c4c	00005897	auipc	x17,0x5	 x17=0x80008c48
       11755000	      1174	80003c50	8a088893	addi	x17,x17,-1888	 x17:0x80008c48 x17=0x800084e8
       11765000	      1175	80003c54	6ef13813	sltiu	x16,x2,1775	  x2:0x800087c7 x16=0x00000000
       11775000	      1176	80003c58	1ea8c503	lbu	x10,490(x17)	 x17:0x800084e8 x10=0x0000004a PA:0x800086d2
       11785000	      1177	80003c5c	18b88b83	lb	x23,395(x17)	 x17:0x800084e8 x23=0x00000028 PA:0x80008673
       11795000	      1178	80003c60	eee88383	lb	x7,-274(x17)	 x17:0x800084e8  x7=0xffffff8d PA:0x800083d6
       11805000	      1179	80003c64	dad8c503	lbu	x10,-595(x17)	 x17:0x800084e8 x10=0x0000004e PA:0x80008295
       11815000	      1180	80003c68	01581e33	sll	x28,x16,x21	 x16:0x00000000 x21:0xfffffffc x28=0x00000000
       11825000	      1181	80003c6c	0968cd03	lbu	x26,150(x17)	 x17:0x800084e8 x26=0x00000035 PA:0x8000857e
       11835000	      1182	80003c70	09488603	lb	x12,148(x17)	 x17:0x800084e8 x12=0x00000037 PA:0x8000857c
       11845000	      1183	80003c74	6c1bcb93	xori	x23,x23,1729	 x23:0x00000028 x23=0x000006e9
       11855000	      1184	80003c78	7a4bbc93	sltiu	x25,x23,1956	 x23:0x000006e9 x25=0x00000001
       11865000	      1185	80003c7c	014fd2b3	srl	x5,x31,x20	 x31:0x00002a2b x20:0x80009f44  x5=0x000002a2
       11875000	      1186	80003c80	963c12b7	lui	x5,0x963c1	  x5=0x963c1000
       11885000	      1187	80003c84	d2289103	lh	x2,-734(x17)	 x17:0x800084e8  x2=0xffffc0c1 PA:0x8000820a
       11895000	      1188	80003c88	d5d89823	sh	x29,-688(x17)	 x17:0x800084e8 x29:0x8a008000 PA:0x80008238
       11905000	      1189	80003c8c	1a18cb83	lbu	x23,417(x17)	 x17:0x800084e8 x23=0x00000042 PA:0x80008689
       11915000	      1190	80003c90	c0d8c903	lbu	x18,-1011(x17)	 x17:0x800084e8 x18=0x000000ae PA:0x800080f5
       11925000	      1191	00000000	00000013	addi	x0,x0,0	  x0:0x00000000
       11935000	      1192	80003c94	09288383	lb	x7,146(x17)	 x17:0x800084e8  x7=0x00000031 PA:0x8000857a
       11945000	      1193	00000000	00000013	addi	x0,x0,0	  x0:0x00000000
       11955000	      1194	80003c98	1678c603	lbu	x12,359(x17)	 x17:0x800084e8 x12=0x00000004 PA:0x8000864f
       11965000	      1195	80003c9c	1748d683	lhu	x13,372(x17)	 x17:0x800084e8 x13=0x00001617 PA:0x8000865c
       11975000	      1196	80003ca0	19588383	lb	x7,405(x17)	 x17:0x800084e8  x7=0x00000036 PA:0x8000867d
       11985000	      1197	80003ca4	016979b3	and	x19,x18,x22	 x18:0x000000ae x22:0x00000036 x19=0x00000026
       11995000	      1198	80003ca8	d988a223	sw	x24,-636(x17)	 x17:0x800084e8 x24:0x00000000 PA:0x8000826c
       12005000	      1199	80003cac	01e60233	add	x4,x12,x30	 x12:0x00000004 x30:0xffffff8a  x4=0xffffff8e
       12015000	      1200	80003cb0	f298ce83	lbu	x29,-215(x17)	 x17:0x800084e8 x29=0x000000ca PA:0x80008411
       12025000	      1201	80003cb4	e4c8c203	lbu	x4,-436(x17)	 x17:0x800084e8  x4=0x000000ef PA:0x80008334
       12035000	      1202	80003cb8	fd489a83	lh	x21,-44(x17)	 x17:0x800084e8 x21=0x00007677 PA:0x800084bc
       12045000	      1203	80003cbc	e1e89983	lh	x19,-482(x17)	 x17:0x800084e8 x19=0xffffbcbd PA:0x80008306
       12055000	      1204	80003cc0	18d88a23	sb	x13,404(x17)	 x17:0x800084e8 x13:0x00001617 PA:0x8000867c
       12065000	      1205	80003cc4	be988983	lb	x19,-1047(x17)	 x17:0x800084e8 x19=0xffffff8a PA:0x800080d1
       12075000	      1206	80003cc8	1ce88003	lb	x0,462(x17)	 x17:0x800084e8 PA:0x800086b6
       12085000	      1207	80003ccc	d1d4bf93	sltiu	x31,x9,-739	  x9:0xffffffed x31=0x00000000
       12095000	      1208	80003cd0	ebe88e23	sb	x30,-324(x17)	 x17:0x800084e8 x30:0xffffff8a PA:0x800083a4
       12105000	      1209	80003cd4	e4289103	lh	x2,-446(x17)	 x17:0x800084e8  x2=0x000048e1 PA:0x8000832a
       12115000	      1210	80003cd8	c3088fa3	sb	x16,-961(x17)	 x17:0x800084e8 x16:0x00000000 PA:0x80008127
       12125000	      1211	80003cdc	15689583	lh	x11,342(x17)	 x17:0x800084e8 x11=0x00000000 PA:0x8000863e
       12135000	      1212	80003ce0	ef0e4d37	lui	x26,0xef0e4	 x26=0xef0e4000
       12145000	      1213	80003ce4	dca89823	sh	x10,-560(x17)	 x17:0x800084e8 x10:0x0000004e PA:0x800082b8
       12155000	      1214	80003ce8	405e87b3	sub	x15,x29,x5	 x29:0x000000ca  x5:0x963c1000 x15=0x69c3f0ca
       12165000	      1215	80003cec	e1a88503	lb	x10,-486(x17)	 x17:0x800084e8 x10=0xffffffb9 PA:0x80008302
       12175000	      1216	80003cf0	0388ac23	sw	x24,56(x17)	 x17:0x800084e8 x24:0x00000000 PA:0x80008520
       12185000	      1217	80003cf4	00004117	auipc	x2,0x4	  x2=0x80007cf0
       12195000	      1218	80003cf8	3e210113	addi	x2,x2,994	  x2:0x80007cf0  x2=0x800080d2
       12205000	      1219	80003cfc	fee11d83	lh	x27,-18(x2)	  x2:0x800080d2 x27=0x00007a7b PA:0x800080c0
       12215000	      1220	80003d00	f3c58937	lui	x18,0xf3c58	 x18=0xf3c58000
       12225000	      1221	80003d04	f9e12203	lw	x4,-98(x2)	  x2:0x800080d2  x4=0x28292a2b PA:0x80008070
       12235000	      1222	80003d08	09b10a83	lb	x21,155(x2)	  x2:0x800080d2 x21=0x00000026 PA:0x8000816d
       12245000	      1223	80003d0c	08411823	sh	x4,144(x2)	  x2:0x800080d2  x4:0x28292a2b PA:0x80008162
       12255000	      1224	80003d10	01352833	slt	x16,x10,x19	 x10:0xffffffb9 x19:0xffffff8a x16=0x00000000
       12265000	      1225	80003d14	4032dd13	srai	x26,x5,0x3	  x5:0x963c1000 x26=0xf2c78200
       12275000	      1226	80003d18	0fc15203	lhu	x4,252(x2)	  x2:0x800080d2  x4=0x00008485 PA:0x800081ce
       12285000	      1227	80003d1c	fb1104a3	sb	x17,-87(x2)	  x2:0x800080d2 x17:0x800084e8 PA:0x8000807b
       12295000	      1228	80003d20	014b1993	slli	x19,x22,0x14	 x22:0x00000036 x19=0x03600000
       12305000	      1229	80003d24	fcf14b03	lbu	x22,-49(x2)	  x2:0x800080d2 x22=0x00000080 PA:0x800080a1
       12315000	      1230	80003d28	fa814703	lbu	x14,-88(x2)	  x2:0x800080d2 x14=0x00000031 PA:0x8000807a
       12325000	      1231	80003d2c	00815003	lhu	x0,8(x2)	  x2:0x800080d2 PA:0x800080da
       12335000	      1232	80003d30	f8f10023	sb	x15,-128(x2)	  x2:0x800080d2 x15:0x69c3f0ca PA:0x80008052
       12345000	      1233	80003d34	04510583	lb	x11,69(x2)	  x2:0x800080d2 x11=0xffffffcc PA:0x80008117
       12355000	      1234	80003d38	05d14683	lbu	x13,93(x2)	  x2:0x800080d2 x13=0x000000e4 PA:0x8000812f
       12365000	      1235	80003d3c	005e1bb3	sll	x23,x28,x5	 x28:0x00000000  x5:0x963c1000 x23=0x00000000
       12375000	      1236	80003d40	02b10e03	lb	x28,43(x2)	  x2:0x800080d2 x28=0xffffffb6 PA:0x800080fd
       12385000	      1237	80003d44	05814f83	lbu	x31,88(x2)	  x2:0x800080d2 x31=0x000000e1 PA:0x8000812a
       12395000	      1238	00000000	00000013	addi	x0,x0,0	  x0:0x00000000
       12405000	      1239	80003d48	c7fef813	andi	x16,x29,-897	 x29:0x000000ca x16=0x0000004a
       12415000	      1240	80003d4c	09310983	lb	x19,147(x2)	  x2:0x800080d2 x19=0x0000001e PA:0x80008165
       12425000	      1241	80003d50	401c83b3	sub	x7,x25,x1	 x25:0x00000001  x1:0x00000001  x7=0x00000000
       12435000	      1242	80003d54	f9c10ca3	sb	x28,-103(x2)	  x2:0x800080d2 x28:0xffffffb6 PA:0x8000806b
       12445000	      1243	80003d58	00000013	addi	x0,x0,0	  x0:0x00000000
       12455000	      1244	80003d5c	0e310f83	lb	x31,227(x2)	  x2:0x800080d2 x31=0x0000006e PA:0x800081b5
       12465000	      1245	80003d60	06910483	lb	x9,105(x2)	  x2:0x800080d2  x9=0xfffffff0 PA:0x8000813b
       12475000	      1246	80003d64	39c9a497	auipc	x9,0x39c9a	  x9=0xb9c9dd60
       12485000	      1247	80003d68	41895b13	srai	x22,x18,0x18	 x18:0xf3c58000 x22=0xfffffff3
       12495000	      1248	80003d6c	00d11b23	sh	x13,22(x2)	  x2:0x800080d2 x13:0x000000e4 PA:0x800080e8
       12505000	      1249	80003d70	01a14d03	lbu	x26,26(x2)	  x2:0x800080d2 x26=0x000000a7 PA:0x800080ec
       12515000	      1250	80003d74	02b14183	lbu	x3,43(x2)	  x2:0x800080d2  x3=0x000000b6 PA:0x800080fd
       12525000	      1251	80003d78	00004f17	auipc	x30,0x4	 x30=0x80007d74
       12535000	      1252	80003d7c	5eff0f13	addi	x30,x30,1519	 x30:0x80007d74 x30=0x80008363
       12545000	      1253	80003d80	00df4503	lbu	x10,13(x30)	 x30:0x80008363 x10=0x00000000 PA:0x80008370
       12555000	      1254	80003d84	01f19b33	sll	x22,x3,x31	  x3:0x000000b6 x31:0x0000006e x22=0x002d8000
       12565000	      1255	80003d88	013f0023	sb	x19,0(x30)	 x30:0x80008363 x19:0x0000001e PA:0x80008363
       12575000	      1256	80003d8c	010f0603	lb	x12,16(x30)	 x30:0x80008363 x12=0x00000028 PA:0x80008373
       12585000	      1257	80003d90	fdff0983	lb	x19,-33(x30)	 x30:0x80008363 x19=0xfffffff9 PA:0x80008342
       12595000	      1258	80003d94	ade54f93	xori	x31,x10,-1314	 x10:0x00000000 x31=0xfffffade
       12605000	      1259	80003d98	febf0d23	sb	x11,-6(x30)	 x30:0x80008363 x11:0xffffffcc PA:0x8000835d
       12615000	      1260	80003d9c	ffbf4c83	lbu	x25,-5(x30)	 x30:0x80008363 x25=0x00000015 PA:0x8000835e
       12625000	      1261	80003da0	412addb3	sra	x27,x21,x18	 x21:0x00000026 x18:0xf3c58000 x27=0x00000026
       12635000	      1262	80003da4	00af4783	lbu	x15,10(x30)	 x30:0x80008363 x15=0x00000026 PA:0x8000836d
       12645000	      1263	80003da8	41548ab3	sub	x21,x9,x21	  x9:0xb9c9dd60 x21:0x00000026 x21=0xb9c9dd3a
       12655000	      1264	80003dac	f2d63393	sltiu	x7,x12,-211	 x12:0x00000028  x7=0x00000001
       12665000	      1265	80003db0	028f0e83	lb	x29,40(x30)	 x30:0x80008363 x29=0x00000040 PA:0x8000838b
       12675000	      1266	80003db4	019fdbb3	srl	x23,x31,x25	 x31:0xfffffade x25:0x00000015 x23=0x000007ff
       12685000	      1267	80003db8	9fda2713	slti	x14,x20,-1539	 x20:0x80009f44 x14=0x00000001
       12695000	      1268	80003dbc	febf5f83	lhu	x31,-21(x30)	 x30:0x80008363 x31=0x00000405 PA:0x8000834e
       12705000	      1269	80003dc0	419bdeb3	sra	x29,x23,x25	 x23:0x000007ff x25:0x00000015 x29=0x00000000
       12715000	      1270	80003dc4	01d20bb3	add	x23,x4,x29	  x4:0x00008485 x29:0x00000000 x23=0x00008485
       12725000	      1271	80003dc8	003f5703	lhu	x14,3(x30)	 x30:0x80008363 x14=0x00000000 PA:0x80008366
       12735000	      1272	80003dcc	ff5f24a3	sw	x21,-23(x30)	 x30:0x80008363 x21:0xb9c9dd3a PA:0x8000834c
       12745000	      1273	80003dd0	ffaf0b23	sb	x26,-10(x30)	 x30:0x80008363 x26:0x000000a7 PA:0x80008359
       12755000	      1274	80003dd4	fcaf0283	lb	x5,-54(x30)	 x30:0x80008363  x5=0xffffffe6 PA:0x8000832d
       12765000	      1275	80003dd8	03ef0983	lb	x19,62(x30)	 x30:0x80008363 x19=0x0000005a PA:0x800083a1
       12775000	      1276	80003ddc	fddf0123	sb	x29,-62(x30)	 x30:0x80008363 x29:0x00000000 PA:0x80008325
       12785000	      1277	80003de0	00c15733	srl	x14,x2,x12	  x2:0x800080d2 x12:0x00000028 x14=0x00800080
       12795000	      1278	80003de4	00000013	addi	x0,x0,0	  x0:0x00000000
       12805000	      1279	80003de8	9a0c2513	slti	x10,x24,-1632	 x24:0x00000000 x10=0x00000000
       12815000	      1280	80003dec	fc9f2903	lw	x18,-55(x30)	 x30:0x80008363 x18=0xe4e5e6e7 PA:0x8000832c
       12825000	      1281	80003df0	00000013	addi	x0,x0,0	  x0:0x00000000
       12835000	      1282	80003df4	fd7f4203	lbu	x4,-41(x30)	 x30:0x80008363  x4=0x000000f1 PA:0x8000833a
       12845000	      1283	80003df8	fd0f4b83	lbu	x23,-48(x30)	 x30:0x80008363 x23=0x000000e8 PA:0x80008333
       12855000	      1284	80003dfc	005f0623	sb	x5,12(x30)	 x30:0x80008363  x5:0xffffffe6 PA:0x8000836f
       12865000	      1285	80003e00	007f17a3	sh	x7,15(x30)	 x30:0x80008363  x7:0x00000001 PA:0x80008372
       12875000	      1286	80003e04	d97f4197	auipc	x3,0xd97f4	  x3=0x597f7e00
       12885000	      1287	80003e08	47177093	andi	x1,x14,1137	 x14:0x00800080  x1=0x00000000
       12895000	      1288	80003e0c	008c13b3	sll	x7,x24,x8	 x24:0x00000000  x8:0x80009fc4  x7=0x00000000
       12905000	      1289	80003e10	03bf4103	lbu	x2,59(x30)	 x30:0x80008363  x2=0x00000055 PA:0x8000839e
       12915000	      1290	00000000	00000013	addi	x0,x0,0	  x0:0x00000000
       12925000	      1291	80003e14	01c165b3	or	x11,x2,x28	  x2:0x00000055 x28:0xffffffb6 x11=0xfffffff7
       12935000	      1292	80003e18	ffff5883	lhu	x17,-1(x30)	 x30:0x80008363 x17=0x00001e19 PA:0x80008362
       12945000	      1293	80003e1c	029f1283	lh	x5,41(x30)	 x30:0x80008363  x5=0x00004647 PA:0x8000838c
       12955000	      1294	80003e20	01bf0903	lb	x18,27(x30)	 x30:0x80008363 x18=0x00000035 PA:0x8000837e
       12965000	      1295	80003e24	040f4e03	lbu	x28,64(x30)	 x30:0x80008363 x28=0x00000058 PA:0x800083a3
       12975000	      1296	80003e28	00000013	addi	x0,x0,0	  x0:0x00000000
       12985000	      1297	80003e2c	40b7d4b3	sra	x9,x15,x11	 x15:0x00000026 x11:0xfffffff7  x9=0x00000000
       12995000	      1298	80003e30	ef720113	addi	x2,x4,-265	  x4:0x000000f1  x2=0xffffffe8
       13005000	      1299	80003e34	ff0f0083	lb	x1,-16(x30)	 x30:0x80008363  x1=0x00000008 PA:0x80008353
       13015000	      1300	80003e38	ff5f16a3	sh	x21,-19(x30)	 x30:0x80008363 x21:0xb9c9dd3a PA:0x80008350
       13025000	      1301	80003e3c	001db6b3	sltu	x13,x27,x1	 x27:0x00000026  x1:0x00000008 x13=0x00000000
       13035000	      1302	80003e40	01bef9b3	and	x19,x29,x27	 x29:0x00000000 x27:0x00000026 x19=0x00000000
       13045000	      1303	80003e44	00d980b3	add	x1,x19,x13	 x19:0x00000000 x13:0x00000000  x1=0x00000000
       13055000	      1304	80003e48	fe0f0103	lb	x2,-32(x30)	 x30:0x80008363  x2=0xfffffff8 PA:0x80008343
       13065000	      1305	80003e4c	0126e633	or	x12,x13,x18	 x13:0x00000000 x18:0x00000035 x12=0x00000035
       13075000	      1306	80003e50	557dec13	ori	x24,x27,1367	 x27:0x00000026 x24=0x00000577
       13085000	      1307	80003e54	0123b3b3	sltu	x7,x7,x18	  x7:0x00000000 x18:0x00000035  x7=0x00000001
       13095000	      1308	80003e58	fe9f2e83	lw	x29,-23(x30)	 x30:0x80008363 x29=0xb9c9dd3a PA:0x8000834c
       13105000	      1309	80003e5c	b57c0f93	addi	x31,x24,-1193	 x24:0x00000577 x31=0x000000ce
       13115000	      1310	80003e60	a2e3fe93	andi	x29,x7,-1490	  x7:0x00000001 x29=0x00000000
       13125000	      1311	80003e64	00b59793	slli	x15,x11,0xb	 x11:0xfffffff7 x15=0xffffb800
       13135000	      1312	80003e68	40d06513	ori	x10,x0,1037	  x0:0x00000000 x10=0x0000040d
       13145000	      1313	80003e6c	4d88a0b7	lui	x1,0x4d88a	  x1=0x4d88a000
       13155000	      1314	80003e70	0177deb3	srl	x29,x15,x23	 x15:0xffffb800 x23:0x000000e8 x29=0x00ffffb8
       13165000	      1315	80003e74	028a7a63	bgeu	x20,x8,80003ea8	 x20:0x80009f44  x8:0x80009fc4
       13175000	      1316	80003e78	414bd0b3	sra	x1,x23,x20	 x23:0x000000e8 x20:0x80009f44  x1=0x0000000e
       13185000	      1317	80003e7c	38ca3393	sltiu	x7,x20,908	 x20:0x80009f44  x7=0x00000000
       13195000	      1318	80003e80	00000013	addi	x0,x0,0	  x0:0x00000000
       13205000	      1319	80003e84	01e15a63	bge	x2,x30,80003e98	  x2:0xfffffff8 x30:0x80008363
       13215000	      1320	00000000	00000013	addi	x0,x0,0	  x0:0x00000000
       13225000	      1321	80003e94	00000013	addi	x0,x0,0	  x0:0x00000000
       13235000	      1322	80003e98	003952b3	srl	x5,x18,x3	 x18:0x00000035  x3:0x597f7e00  x5=0x00000035
       13245000	      1323	80003e9c	4be08693	addi	x13,x1,1214	  x1:0x0000000e x13=0x000004cc
       13255000	      1324	80003ea0	01b8a133	slt	x2,x17,x27	 x17:0x00001e19 x27:0x00000026  x2=0x00000000
       13265000	      1325	80003ea4	00000013	addi	x0,x0,0	  x0:0x00000000
       13275000	      1326	80003ea8	01ae2cb3	slt	x25,x28,x26	 x28:0x00000058 x26:0x000000a7 x25=0x00000001
       13285000	      1327	80003eac	400a59b3	sra	x19,x20,x0	 x20:0x80009f44  x0:0x00000000 x19=0x80009f44
       13295000	      1328	80003eb0	d9cca813	slti	x16,x25,-612	 x25:0x00000001 x16=0x00000000
       13305000	      1329	80003eb4	01ec03b3	add	x7,x24,x30	 x24:0x00000577 x30:0x80008363  x7=0x800088da
       13315000	      1330	80003eb8	03c69a63	bne	x13,x28,80003eec	 x13:0x000004cc x28:0x00000058
       13325000	      1331	00000000	00000013	addi	x0,x0,0	  x0:0x00000000
       13335000	      1332	80003ee8	00000013	addi	x0,x0,0	  x0:0x00000000
       13345000	      1333	80003eec	543aec93	ori	x25,x21,1347	 x21:0xb9c9dd3a x25=0xb9c9dd7b
       13355000	      1334	80003ef0	04aa6063	bltu	x20,x10,80003f30	 x20:0x80009f44 x10:0x0000040d
       13365000	      1335	80003ef4	40fd04b3	sub	x9,x26,x15	 x26:0x000000a7 x15:0xffffb800  x9=0x000048a7
       13375000	      1336	80003ef8	00869e13	slli	x28,x13,0x8	 x13:0x000004cc x28=0x0004cc00
       13385000	      1337	80003efc	00265293	srli	x5,x12,0x2	 x12:0x00000035  x5=0x0000000d
       13395000	      1338	80003f00	00000013	addi	x0,x0,0	  x0:0x00000000
       13405000	      1339	80003f04	ec3c3793	sltiu	x15,x24,-317	 x24:0x00000577 x15=0x00000001
       13415000	      1340	80003f08	d1dae793	ori	x15,x21,-739	 x21:0xb9c9dd3a x15=0xfffffd3f
       13425000	      1341	80003f0c	00125913	srli	x18,x4,0x1	  x4:0x000000f1 x18=0x00000078
       13435000	      1342	80003f10	411daab7	lui	x21,0x411da	 x21=0x411da000
       13445000	      1343	80003f14	b39e8693	addi	x13,x29,-1223	 x29:0x00ffffb8 x13=0x00fffaf1
       13455000	      1344	80003f18	76e23713	sltiu	x14,x4,1902	  x4:0x000000f1 x14=0x00000001
       13465000	      1345	80003f1c	058a6063	bltu	x20,x24,80003f5c	 x20:0x80009f44 x24:0x00000577
       13475000	      1346	80003f20	002d9833	sll	x16,x27,x2	 x27:0x00000026  x2:0x00000000 x16=0x00000026
       13485000	      1347	80003f24	011e8233	add	x4,x29,x17	 x29:0x00ffffb8 x17:0x00001e19  x4=0x01001dd1
       13495000	      1348	80003f28	00ca0c33	add	x24,x20,x12	 x20:0x80009f44 x12:0x00000035 x24=0x80009f79
       13505000	      1349	80003f2c	010d8033	add	x0,x27,x16	 x27:0x00000026 x16:0x00000026
       13515000	      1350	80003f30	014a5863	bge	x20,x20,80003f40	 x20:0x80009f44 x20:0x80009f44
       13525000	      1351	00000000	00000013	addi	x0,x0,0	  x0:0x00000000
       13535000	      1352	80003f3c	00000013	addi	x0,x0,0	  x0:0x00000000
       13545000	      1353	80003f40	00a87933	and	x18,x16,x10	 x16:0x00000026 x10:0x0000040d x18=0x00000004
       13555000	      1354	80003f44	036fc863	blt	x31,x22,80003f74	 x31:0x000000ce x22:0x002d8000
       13565000	      1355	00000000	00000013	addi	x0,x0,0	  x0:0x00000000
       13575000	      1356	80003f70	00000013	addi	x0,x0,0	  x0:0x00000000
       13585000	      1357	80003f74	0112b7b3	sltu	x15,x5,x17	  x5:0x0000000d x17:0x00001e19 x15=0x00000001
       13595000	      1358	80003f78	00b17463	bgeu	x2,x11,80003f80	  x2:0x00000000 x11:0xfffffff7
       13605000	      1359	80003f7c	db03b193	sltiu	x3,x7,-592	  x7:0x800088da  x3=0x00000001
       13615000	      1360	80003f80	00a0c463	blt	x1,x10,80003f88	  x1:0x0000000e x10:0x0000040d
       13625000	      1361	00000000	00000013	addi	x0,x0,0	  x0:0x00000000
       13635000	      1362	80003f84	00000013	addi	x0,x0,0	  x0:0x00000000
       13645000	      1363	80003f88	41c8d793	srai	x15,x17,0x1c	 x17:0x00001e19 x15=0x00000000
       13655000	      1364	80003f8c	011fa233	slt	x4,x31,x17	 x31:0x000000ce x17:0x00001e19  x4=0x00000001
       13665000	      1365	80003f90	40c38c33	sub	x24,x7,x12	  x7:0x800088da x12:0x00000035 x24=0x800088a5
       13675000	      1366	80003f94	00a1dd33	srl	x26,x3,x10	  x3:0x00000001 x10:0x0000040d x26=0x00000000
       13685000	      1367	80003f98	03094a63	blt	x18,x16,80003fcc	 x18:0x00000004 x16:0x00000026
       13695000	      1368	00000000	00000013	addi	x0,x0,0	  x0:0x00000000
       13705000	      1369	80003fc8	00000013	addi	x0,x0,0	  x0:0x00000000
       13715000	      1370	80003fcc	9cf33593	sltiu	x11,x6,-1585	  x6:0x0000000e x11=0x00000001
       13725000	      1371	80003fd0	1a81bd93	sltiu	x27,x3,424	  x3:0x00000001 x27=0x00000001
       13735000	      1372	80003fd4	65ec6113	ori	x2,x24,1630	 x24:0x800088a5  x2=0x80008eff
       13745000	      1373	80003fd8	003aecb3	or	x25,x21,x3	 x21:0x411da000  x3:0x00000001 x25=0x411da001
       13755000	      1374	80003fdc	0fdd29b7	lui	x19,0xfdd2	 x19=0x0fdd2000
       13765000	      1375	80003fe0	014ed533	srl	x10,x29,x20	 x29:0x00ffffb8 x20:0x80009f44 x10=0x000ffffb
       13775000	      1376	80003fe4	aebaf493	andi	x9,x21,-1301	 x21:0x411da000  x9=0x411da000
       13785000	      1377	80003fe8	00dd8733	add	x14,x27,x13	 x27:0x00000001 x13:0x00fffaf1 x14=0x00fffaf2
       13795000	      1378	80003fec	00a9de93	srli	x29,x19,0xa	 x19:0x0fdd2000 x29=0x0003f748
       13805000	      1379	80003ff0	01d25c13	srli	x24,x4,0x1d	  x4:0x00000001 x24=0x00000000
       13815000	      1380	80003ff4	018d20b3	slt	x1,x26,x24	 x26:0x00000000 x24:0x00000000  x1=0x00000000
       13825000	      1381	80003ff8	483c2513	slti	x10,x24,1155	 x24:0x00000000 x10=0x00000001
       13835000	      1382	80003ffc	3db83697	auipc	x13,0x3db83	 x13=0xbdb86ff8
       13845000	      1383	80004000	64b40d93	addi	x27,x8,1611	  x8:0x80009fc4 x27=0x8000a60f
       13855000	      1384	80004004	00bf1793	slli	x15,x30,0xb	 x30:0x80008363 x15=0x041b1800
       13865000	      1385	80004008	0057b5b3	sltu	x11,x15,x5	 x15:0x041b1800  x5:0x0000000d x11=0x00000000
       13875000	      1386	8000400c	05664663	blt	x12,x22,80004058	 x12:0x00000035 x22:0x002d8000
       13885000	      1387	00000000	00000013	addi	x0,x0,0	  x0:0x00000000
       13895000	      1388	80004054	00000013	addi	x0,x0,0	  x0:0x00000000
       13905000	      1389	80004058	0100fe33	and	x28,x1,x16	  x1:0x00000000 x16:0x00000026 x28=0x00000000
       13915000	      1390	8000405c	00d7df13	srli	x30,x15,0xd	 x15:0x041b1800 x30=0x000020d8
       13925000	      1391	80004060	04b91663	bne	x18,x11,800040ac	 x18:0x00000004 x11:0x00000000
       13935000	      1392	00000000	00000013	addi	x0,x0,0	  x0:0x00000000
       13945000	      1393	800040a8	00000013	addi	x0,x0,0	  x0:0x00000000
       13955000	      1394	800040ac	03dd7e63	bgeu	x26,x29,800040e8	 x26:0x00000000 x29:0x0003f748
       13965000	      1395	800040b0	58527513	andi	x10,x4,1413	  x4:0x00000001 x10=0x00000001
       13975000	      1396	800040b4	57a9e0b7	lui	x1,0x57a9e	  x1=0x57a9e000
       13985000	      1397	800040b8	001dcd33	xor	x26,x27,x1	 x27:0x8000a60f  x1:0x57a9e000 x26=0xd7a9460f
       13995000	      1398	800040bc	409fdb13	srai	x22,x31,0x9	 x31:0x000000ce x22=0x00000000
       14005000	      1399	800040c0	8c6ee693	ori	x13,x29,-1850	 x29:0x0003f748 x13=0xffffffce
       14015000	      1400	800040c4	01b37533	and	x10,x6,x27	  x6:0x0000000e x27:0x8000a60f x10=0x0000000e
       14025000	      1401	800040c8	0401d063	bge	x3,x0,80004108	  x3:0x00000001  x0:0x00000000
       14035000	      1402	00000000	00000013	addi	x0,x0,0	  x0:0x00000000
       14045000	      1403	80004104	00000013	addi	x0,x0,0	  x0:0x00000000
       14055000	      1404	80004108	01da33b3	sltu	x7,x20,x29	 x20:0x80009f44 x29:0x0003f748  x7=0x00000000
       14065000	      1405	8000410c	10e8da63	bge	x17,x14,80004220	 x17:0x00001e19 x14:0x00fffaf2
       14075000	      1406	80004110	91812b13	slti	x22,x2,-1768	  x2:0x80008eff x22=0x00000001
       14085000	      1407	80004114	014bc0b3	xor	x1,x23,x20	 x23:0x000000e8 x20:0x80009f44  x1=0x80009fac
       14095000	      1408	80004118	5613b013	sltiu	x0,x7,1377	  x7:0x00000000
       14105000	      1409	8000411c	016afeb3	and	x29,x21,x22	 x21:0x411da000 x22:0x00000001 x29=0x00000000
       14115000	      1410	80004120	00000013	addi	x0,x0,0	  x0:0x00000000
       14125000	      1411	80004124	0d55f093	andi	x1,x11,213	 x11:0x00000000  x1=0x00000000
       14135000	      1412	80004128	00005597	auipc	x11,0x5	 x11=0x80009124
       14145000	      1413	8000412c	de858593	addi	x11,x11,-536	 x11:0x80009124 x11=0x80008f0c
       14155000	      1414	80004130	00a71e93	slli	x29,x14,0xa	 x14:0x00fffaf2 x29=0xffebc800
       14165000	      1415	80004134	ffc58ea3	sb	x28,-3(x11)	 x11:0x80008f0c x28:0x00000000 PA:0x80008f09
       14175000	      1416	80004138	0045af83	lw	x31,4(x11)	 x11:0x80008f0c x31=0xf8f9fafb PA:0x80008f10
       14185000	      1417	8000413c	0093bbb3	sltu	x23,x7,x9	  x7:0x00000000  x9:0x411da000 x23=0x00000001
       14195000	      1418	80004140	00000013	addi	x0,x0,0	  x0:0x00000000
       14205000	      1419	80004144	4eb2b937	lui	x18,0x4eb2b	 x18=0x4eb2b000
       14215000	      1420	80004148	01695733	srl	x14,x18,x22	 x18:0x4eb2b000 x22:0x00000001 x14=0x27595800
       14225000	      1421	8000414c	019f00b3	add	x1,x30,x25	 x30:0x000020d8 x25:0x411da001  x1=0x411dc0d9
       14235000	      1422	80004150	ffd58383	lb	x7,-3(x11)	 x11:0x80008f0c  x7=0x00000000 PA:0x80008f09
       14245000	      1423	80004154	00259003	lh	x0,2(x11)	 x11:0x80008f0c PA:0x80008f0e
       14255000	      1424	80004158	0055c203	lbu	x4,5(x11)	 x11:0x80008f0c  x4=0x000000fa PA:0x80008f11
       14265000	      1425	8000415c	01158323	sb	x17,6(x11)	 x11:0x80008f0c x17:0x00001e19 PA:0x80008f12
       14275000	      1426	80004160	ff258783	lb	x15,-14(x11)	 x11:0x80008f0c x15=0xffffffe5 PA:0x80008efe
       14285000	      1427	80004164	ff158903	lb	x18,-15(x11)	 x11:0x80008f0c x18=0xffffffe6 PA:0x80008efd
       14295000	      1428	80004168	01158723	sb	x17,14(x11)	 x11:0x80008f0c x17:0x00001e19 PA:0x80008f1a
       14305000	      1429	8000416c	00000013	addi	x0,x0,0	  x0:0x00000000
       14315000	      1430	80004170	ffb5ca83	lbu	x21,-5(x11)	 x11:0x80008f0c x21=0x000000ec PA:0x80008f07
       14325000	      1431	80004174	bd493193	sltiu	x3,x18,-1068	 x18:0xffffffe6  x3=0x00000000
       14335000	      1432	80004178	00459203	lh	x4,4(x11)	 x11:0x80008f0c  x4=0xfffffafb PA:0x80008f10
       14345000	      1433	8000417c	ff658183	lb	x3,-10(x11)	 x11:0x80008f0c  x3=0xffffffe9 PA:0x80008f02
       14355000	      1434	00000000	00000013	addi	x0,x0,0	  x0:0x00000000
       14365000	      1435	80004180	0035ca83	lbu	x21,3(x11)	 x11:0x80008f0c x21=0x000000f4 PA:0x80008f0f
       14375000	      1436	80004184	ff45ce83	lbu	x29,-12(x11)	 x11:0x80008f0c x29=0x000000eb PA:0x80008f00
       14385000	      1437	80004188	01b16e33	or	x28,x2,x27	  x2:0x80008eff x27:0x8000a60f x28=0x8000aeff
       14395000	      1438	8000418c	00c5a203	lw	x4,12(x11)	 x11:0x80008f0c  x4=0x00190203 PA:0x80008f18
       14405000	      1439	80004190	0135a223	sw	x19,4(x11)	 x11:0x80008f0c x19:0x0fdd2000 PA:0x80008f10
       14415000	      1440	80004194	ffb58083	lb	x1,-5(x11)	 x11:0x80008f0c  x1=0xffffffec PA:0x80008f07
       14425000	      1441	80004198	00059103	lh	x2,0(x11)	 x11:0x80008f0c  x2=0xfffff6f7 PA:0x80008f0c
       14435000	      1442	8000419c	00958f83	lb	x31,9(x11)	 x11:0x80008f0c x31=0xfffffffe PA:0x80008f15
       14445000	      1443	800041a0	82163013	sltiu	x0,x12,-2015	 x12:0x00000035
       14455000	      1444	800041a4	015bd533	srl	x10,x23,x21	 x23:0x00000001 x21:0x000000f4 x10=0x00000000
       14465000	      1445	800041a8	ffa5d383	lhu	x7,-6(x11)	 x11:0x80008f0c  x7=0x0000eced PA:0x80008f06
       14475000	      1446	800041ac	004bdc13	srli	x24,x23,0x4	 x23:0x00000001 x24=0x00000000
       14485000	      1447	800041b0	00d583a3	sb	x13,7(x11)	 x11:0x80008f0c x13:0xffffffce PA:0x80008f13
       14495000	      1448	800041b4	0171b033	sltu	x0,x3,x23	  x3:0xffffffe9 x23:0x00000001
       14505000	      1449	800041b8	fed58fa3	sb	x13,-1(x11)	 x11:0x80008f0c x13:0xffffffce PA:0x80008f0b
       14515000	      1450	800041bc	018dd493	srli	x9,x27,0x18	 x27:0x8000a60f  x9=0x00000080
       14525000	      1451	800041c0	9181c493	xori	x9,x3,-1768	  x3:0xffffffe9  x9=0x000006f1
       14535000	      1452	800041c4	ff659e03	lh	x28,-10(x11)	 x11:0x80008f0c x28=0xffffe8e9 PA:0x80008f02
       14545000	      1453	800041c8	00659603	lh	x12,6(x11)	 x11:0x80008f0c x12=0xffffcedd PA:0x80008f12
       14555000	      1454	800041cc	15faf813	andi	x16,x21,351	 x21:0x000000f4 x16=0x00000054
       14565000	      1455	800041d0	fe159e23	sh	x1,-4(x11)	 x11:0x80008f0c  x1:0xffffffec PA:0x80008f08
       14575000	      1456	800041d4	ffd58883	lb	x17,-3(x11)	 x11:0x80008f0c x17=0xffffffff PA:0x80008f09
       14585000	      1457	800041d8	fe258823	sb	x2,-16(x11)	 x11:0x80008f0c  x2:0xfffff6f7 PA:0x80008efc
       14595000	      1458	800041dc	01b59813	slli	x16,x11,0x1b	 x11:0x80008f0c x16=0x60000000
       14605000	      1459	800041e0	00059f83	lh	x31,0(x11)	 x11:0x80008f0c x31=0xfffff6f7 PA:0x80008f0c
       14615000	      1460	800041e4	0055c203	lbu	x4,5(x11)	 x11:0x80008f0c  x4=0x00000020 PA:0x80008f11
       14625000	      1461	800041e8	fe259823	sh	x2,-16(x11)	 x11:0x80008f0c  x2:0xfffff6f7 PA:0x80008efc
       14635000	      1462	800041ec	01971293	slli	x5,x14,0x19	 x14:0x27595800  x5=0x00000000
       14645000	      1463	800041f0	04d89663	bne	x17,x13,8000423c	 x17:0xffffffff x13:0xffffffce
       14655000	      1464	00000000	00000013	addi	x0,x0,0	  x0:0x00000000
       14665000	      1465	80004238	00000013	addi	x0,x0,0	  x0:0x00000000
       14675000	      1466	8000423c	013eeb33	or	x22,x29,x19	 x29:0x000000eb x19:0x0fdd2000 x22=0x0fdd20eb
       14685000	      1467	80004240	400e85b3	sub	x11,x29,x0	 x29:0x000000eb  x0:0x00000000 x11=0x000000eb
       14695000	      1468	80004244	0081d8b3	srl	x17,x3,x8	  x3:0xffffffe9  x8:0x80009fc4 x17=0x0ffffffe
       14705000	      1469	80004248	00f40733	add	x14,x8,x15	  x8:0x80009fc4 x15:0xffffffe5 x14=0x80009fa9
       14715000	      1470	8000424c	52882f37	lui	x30,0x52882	 x30=0x52882000
       14725000	      1471	80004250	1f536037	lui	x0,0x1f536	
       14735000	      1472	80004254	04184063	blt	x16,x1,80004294	 x16:0x60000000  x1:0xffffffec
       14745000	      1473	80004258	009d1463	bne	x26,x9,80004260	 x26:0xd7a9460f  x9:0x000006f1
       14755000	      1474	00000000	00000013	addi	x0,x0,0	  x0:0x00000000
       14765000	      1475	8000425c	00000013	addi	x0,x0,0	  x0:0x00000000
       14775000	      1476	80004260	010a89b3	add	x19,x21,x16	 x21:0x000000f4 x16:0x60000000 x19=0x600000f4
       14785000	      1477	80004264	41cb5ab3	sra	x21,x22,x28	 x22:0x0fdd20eb x28:0xffffe8e9 x21=0x0007ee90
       14795000	      1478	80004268	037f7e63	bgeu	x30,x23,800042a4	 x30:0x52882000 x23:0x00000001
       14805000	      1479	00000000	00000013	addi	x0,x0,0	  x0:0x00000000
       14815000	      1480	800042a0	00000013	addi	x0,x0,0	  x0:0x00000000
       14825000	      1481	800042a4	0daf4513	xori	x10,x30,218	 x30:0x52882000 x10=0x528820da
       14835000	      1482	800042a8	3ea33793	sltiu	x15,x6,1002	  x6:0x0000000e x15=0x00000001
       14845000	      1483	800042ac	36948393	addi	x7,x9,873	  x9:0x000006f1  x7=0x00000a5a
       14855000	      1484	800042b0	00331393	slli	x7,x6,0x3	  x6:0x0000000e  x7=0x00000070
       14865000	      1485	800042b4	131f8293	addi	x5,x31,305	 x31:0xfffff6f7  x5=0xfffff828
       14875000	      1486	800042b8	04ff7063	bgeu	x30,x15,800042f8	 x30:0x52882000 x15:0x00000001
       14885000	      1487	00000000	00000013	addi	x0,x0,0	  x0:0x00000000
       14895000	      1488	800042f4	00000013	addi	x0,x0,0	  x0:0x00000000
       14905000	      1489	800042f8	01dca9b3	slt	x19,x25,x29	 x25:0x411da001 x29:0x000000eb x19=0x00000000
       14915000	      1490	800042fc	41f9dc13	srai	x24,x19,0x1f	 x19:0x00000000 x24=0x00000000
       14925000	      1491	80004300	00203033	sltu	x0,x0,x2	  x0:0x00000000  x2:0xfffff6f7
       14935000	      1492	80004304	41195b33	sra	x22,x18,x17	 x18:0xffffffe6 x17:0x0ffffffe x22=0xffffffff
       14945000	      1493	80004308	014bf993	andi	x19,x23,20	 x23:0x00000001 x19=0x00000000
       14955000	      1494	8000430c	01aab9b3	sltu	x19,x21,x26	 x21:0x0007ee90 x26:0xd7a9460f x19=0x00000001
       14965000	      1495	80004310	401d5713	srai	x14,x26,0x1	 x26:0xd7a9460f x14=0xebd4a307
       14975000	      1496	80004314	004cd233	srl	x4,x25,x4	 x25:0x411da001  x4:0x00000020  x4=0x411da001
       14985000	      1497	80004318	49dbcb93	xori	x23,x23,1181	 x23:0x00000001 x23=0x0000049c
       14995000	      1498	8000431c	00004697	auipc	x13,0x4	 x13=0x80008318
       15005000	      1499	80004320	64068693	addi	x13,x13,1600	 x13:0x80008318 x13=0x80008958
       15015000	      1500	80004324	0076c383	lbu	x7,7(x13)	 x13:0x80008958  x7=0x00000044 PA:0x8000895f
       15025000	      1501	80004328	3ceda293	slti	x5,x27,974	 x27:0x8000a60f  x5=0x00000001
       15035000	      1502	8000432c	ff669103	lh	x2,-10(x13)	 x13:0x80008958  x2=0x00003435 PA:0x8000894e
       15045000	      1503	80004330	00968283	lb	x5,9(x13)	 x13:0x80008958  x5=0x0000004a PA:0x80008961
       15055000	      1504	80004334	0096cf83	lbu	x31,9(x13)	 x13:0x80008958 x31=0x0000004a PA:0x80008961
       15065000	      1505	80004338	3a088713	addi	x14,x17,928	 x17:0x0ffffffe x14=0x1000039e
       15075000	      1506	8000433c	0086a803	lw	x16,8(x13)	 x13:0x80008958 x16=0x48494a4b PA:0x80008960
       15085000	      1507	80004340	26f23937	lui	x18,0x26f23	 x18=0x26f23000
       15095000	      1508	80004344	ff16c783	lbu	x15,-15(x13)	 x13:0x80008958 x15=0x00000032 PA:0x80008949
       15105000	      1509	80004348	ff66ce83	lbu	x29,-10(x13)	 x13:0x80008958 x29=0x00000035 PA:0x8000894e
       15115000	      1510	8000434c	00a51f93	slli	x31,x10,0xa	 x10:0x528820da x31=0x20836800
       15125000	      1511	80004350	00168183	lb	x3,1(x13)	 x13:0x80008958  x3=0x00000042 PA:0x80008959
       15135000	      1512	80004354	9ffe0b13	addi	x22,x28,-1537	 x28:0xffffe8e9 x22=0xffffe2e8
       15145000	      1513	80004358	00c59d13	slli	x26,x11,0xc	 x11:0x000000eb x26=0x000eb000
       15155000	      1514	8000435c	00c68783	lb	x15,12(x13)	 x13:0x80008958 x15=0x0000004f PA:0x80008964
       15165000	      1515	80004360	01f69523	sh	x31,10(x13)	 x13:0x80008958 x31:0x20836800 PA:0x80008962
       15175000	      1516	80004364	00c6d583	lhu	x11,12(x13)	 x13:0x80008958 x11=0x00004e4f PA:0x80008964
       15185000	      1517	80004368	00868823	sb	x8,16(x13)	 x13:0x80008958  x8:0x80009fc4 PA:0x80008968
       15195000	      1518	8000436c	fe268ea3	sb	x2,-3(x13)	 x13:0x80008958  x2:0x00003435 PA:0x80008955
       15205000	      1519	80004370	fff6c083	lbu	x1,-1(x13)	 x13:0x80008958  x1=0x0000003c PA:0x80008957
       15215000	      1520	80004374	41305293	srai	x5,x0,0x13	  x0:0x00000000  x5=0x00000000
       15225000	      1521	80004378	01968123	sb	x25,2(x13)	 x13:0x80008958 x25:0x411da001 PA:0x8000895a
       15235000	      1522	8000437c	00f6c183	lbu	x3,15(x13)	 x13:0x80008958  x3=0x0000004c PA:0x80008967
       15245000	      1523	80004380	36216013	ori	x0,x2,866	  x2:0x00003435
       15255000	      1524	80004384	ff56ce03	lbu	x28,-11(x13)	 x13:0x80008958 x28=0x00000036 PA:0x8000894d
       15265000	      1525	80004388	40f1d093	srai	x1,x3,0xf	  x3:0x0000004c  x1=0x00000000
       15275000	      1526	8000438c	01ef5ab3	srl	x21,x30,x30	 x30:0x52882000 x30:0x52882000 x21=0x52882000
       15285000	      1527	80004390	d048e637	lui	x12,0xd048e	 x12=0xd048e000
       15295000	      1528	80004394	0036cb83	lbu	x23,3(x13)	 x13:0x80008958 x23=0x00000040 PA:0x8000895b
       15305000	      1529	80004398	ff86c283	lbu	x5,-8(x13)	 x13:0x80008958  x5=0x0000003b PA:0x80008950
       15315000	      1530	8000439c	cf71fc93	andi	x25,x3,-777	  x3:0x0000004c x25=0x00000044
       15325000	      1531	800043a0	40fd5c33	sra	x24,x26,x15	 x26:0x000eb000 x15:0x0000004f x24=0x0000001d
       15335000	      1532	800043a4	00069583	lh	x11,0(x13)	 x13:0x80008958 x11=0x00004243 PA:0x80008958
       15345000	      1533	800043a8	cc610593	addi	x11,x2,-826	  x2:0x00003435 x11=0x000030fb
       15355000	      1534	800043ac	0016cb03	lbu	x22,1(x13)	 x13:0x80008958 x22=0x00000042 PA:0x80008959
       15365000	      1535	800043b0	01527933	and	x18,x4,x21	  x4:0x411da001 x21:0x52882000 x18=0x40082000
       15375000	      1536	800043b4	0056cb03	lbu	x22,5(x13)	 x13:0x80008958 x22=0x00000046 PA:0x8000895d
       15385000	      1537	800043b8	006525b3	slt	x11,x10,x6	 x10:0x528820da  x6:0x0000000e x11=0x00000000
       15395000	      1538	800043bc	467e4eb7	lui	x29,0x467e4	 x29=0x467e4000
       15405000	      1539	800043c0	0168bd33	sltu	x26,x17,x22	 x17:0x0ffffffe x22:0x00000046 x26=0x00000000
       15415000	      1540	800043c4	00f45133	srl	x2,x8,x15	  x8:0x80009fc4 x15:0x0000004f  x2=0x00010001
       15425000	      1541	800043c8	05b20063	beq	x4,x27,80004408	  x4:0x411da001 x27:0x8000a60f
       15435000	      1542	800043cc	3184f793	andi	x15,x9,792	  x9:0x000006f1 x15=0x00000210
       15445000	      1543	800043d0	050f1263	bne	x30,x16,80004414	 x30:0x52882000 x16:0x48494a4b
       15455000	      1544	00000000	00000013	addi	x0,x0,0	  x0:0x00000000
       15465000	      1545	80004410	00000013	addi	x0,x0,0	  x0:0x00000000
       15475000	      1546	80004414	018cfc63	bgeu	x25,x24,8000442c	 x25:0x00000044 x24:0x0000001d
       15485000	      1547	00000000	00000013	addi	x0,x0,0	  x0:0x00000000
       15495000	      1548	80004428	00000013	addi	x0,x0,0	  x0:0x00000000
       15505000	      1549	8000442c	00000013	addi	x0,x0,0	  x0:0x00000000
       15515000	      1550	80004430	000394b3	sll	x9,x7,x0	  x7:0x00000044  x0:0x00000000  x9=0x00000044
       15525000	      1551	80004434	f4942513	slti	x10,x8,-183	  x8:0x80009fc4 x10=0x00000001
       15535000	      1552	80004438	01deabb3	slt	x23,x29,x29	 x29:0x467e4000 x29:0x467e4000 x23=0x00000000
       15545000	      1553	8000443c	01c5ee33	or	x28,x11,x28	 x11:0x00000000 x28:0x00000036 x28=0x00000036
       15555000	      1554	80004440	01f59e33	sll	x28,x11,x31	 x11:0x00000000 x31:0x20836800 x28=0x00000000
       15565000	      1555	80004444	010ade13	srli	x28,x21,0x10	 x21:0x52882000 x28=0x00005288
       15575000	      1556	80004448	af036513	ori	x10,x6,-1296	  x6:0x0000000e x10=0xfffffafe
       15585000	      1557	8000444c	face2f93	slti	x31,x28,-84	 x28:0x00005288 x31=0x00000000
       15595000	      1558	80004450	00000013	addi	x0,x0,0	  x0:0x00000000
       15605000	      1559	80004454	40420d33	sub	x26,x4,x4	  x4:0x411da001  x4:0x411da001 x26=0x00000000
       15615000	      1560	80004458	01370d33	add	x26,x14,x19	 x14:0x1000039e x19:0x00000001 x26=0x1000039f
       15625000	      1561	8000445c	010884b3	add	x9,x17,x16	 x17:0x0ffffffe x16:0x48494a4b  x9=0x58494a49
       15635000	      1562	80004460	00dc4bb3	xor	x23,x24,x13	 x24:0x0000001d x13:0x80008958 x23=0x80008945
       15645000	      1563	80004464	01b721b3	slt	x3,x14,x27	 x14:0x1000039e x27:0x8000a60f  x3=0x00000000
       15655000	      1564	80004468	407d5d33	sra	x26,x26,x7	 x26:0x1000039f  x7:0x00000044 x26=0x01000039
       15665000	      1565	8000446c	01841e93	slli	x29,x8,0x18	  x8:0x80009fc4 x29=0xc4000000
       15675000	      1566	80004470	0445f663	bgeu	x11,x4,800044bc	 x11:0x00000000  x4:0x411da001
       15685000	      1567	80004474	d80965b7	lui	x11,0xd8096	 x11=0xd8096000
       15695000	      1568	80004478	00248e33	add	x28,x9,x2	  x9:0x58494a49  x2:0x00010001 x28=0x584a4a4a
       15705000	      1569	8000447c	3530bc13	sltiu	x24,x1,851	  x1:0x00000000 x24=0x00000001
       15715000	      1570	80004480	41375c93	srai	x25,x14,0x13	 x14:0x1000039e x25=0x00000200
       15725000	      1571	80004484	01b30e63	beq	x6,x27,800044a0	  x6:0x0000000e x27:0x8000a60f
       15735000	      1572	80004488	9386ab93	slti	x23,x13,-1736	 x13:0x80008958 x23=0x00000001
       15745000	      1573	8000448c	00000013	addi	x0,x0,0	  x0:0x00000000
       15755000	      1574	80004490	41b1dfb3	sra	x31,x3,x27	  x3:0x00000000 x27:0x8000a60f x31=0x00000000
       15765000	      1575	80004494	00ee9e93	slli	x29,x29,0xe	 x29:0xc4000000 x29=0x00000000
       15775000	      1576	80004498	03b3f463	bgeu	x7,x27,800044c0	  x7:0x00000044 x27:0x8000a60f
       15785000	      1577	8000449c	02b1cc63	blt	x3,x11,800044d4	  x3:0x00000000 x11:0xd8096000
       15795000	      1578	800044a0	01627a63	bgeu	x4,x22,800044b4	  x4:0x411da001 x22:0x00000046
       15805000	      1579	00000000	00000013	addi	x0,x0,0	  x0:0x00000000
       15815000	      1580	800044b0	00000013	addi	x0,x0,0	  x0:0x00000000
       15825000	      1581	800044b4	c4b37913	andi	x18,x6,-949	  x6:0x0000000e x18=0x0000000a
       15835000	      1582	800044b8	000718b3	sll	x17,x14,x0	 x14:0x1000039e  x0:0x00000000 x17=0x1000039e
       15845000	      1583	800044bc	02e53817	auipc	x16,0x2e53	 x16=0x82e574b8
       15855000	      1584	800044c0	20bca693	slti	x13,x25,523	 x25:0x00000200 x13=0x00000001
       15865000	      1585	800044c4	00c203b3	add	x7,x4,x12	  x4:0x411da001 x12:0xd048e000  x7=0x11668001
       15875000	      1586	800044c8	010b5f13	srli	x30,x22,0x10	 x22:0x00000046 x30=0x00000000
       15885000	      1587	800044cc	017c3633	sltu	x12,x24,x23	 x24:0x00000001 x23:0x00000001 x12=0x00000000
       15895000	      1588	800044d0	01aa6033	or	x0,x20,x26	 x20:0x80009f44 x26:0x01000039
       15905000	      1589	800044d4	00fa04b3	add	x9,x20,x15	 x20:0x80009f44 x15:0x00000210  x9=0x8000a154
       15915000	      1590	800044d8	00ad4a63	blt	x26,x10,800044ec	 x26:0x01000039 x10:0xfffffafe
       15925000	      1591	800044dc	04189063	bne	x17,x1,8000451c	 x17:0x1000039e  x1:0x00000000
       15935000	      1592	00000000	00000013	addi	x0,x0,0	  x0:0x00000000
       15945000	      1593	80004518	00000013	addi	x0,x0,0	  x0:0x00000000
       15955000	      1594	8000451c	3effee93	ori	x29,x31,1007	 x31:0x00000000 x29=0x000003ef
       15965000	      1595	80004520	0148e033	or	x0,x17,x20	 x17:0x1000039e x20:0x80009f44
       15975000	      1596	80004524	2aba6113	ori	x2,x20,683	 x20:0x80009f44  x2=0x80009fef
       15985000	      1597	80004528	0092bc33	sltu	x24,x5,x9	  x5:0x0000003b  x9:0x8000a154 x24=0x00000001
       15995000	      1598	8000452c	bdfef693	andi	x13,x29,-1057	 x29:0x000003ef x13=0x000003cf
       16005000	      1599	80004530	87a9cb93	xori	x23,x19,-1926	 x19:0x00000001 x23=0xfffff87b
       16015000	      1600	80004534	00fab5b3	sltu	x11,x21,x15	 x21:0x52882000 x15:0x00000210 x11=0x00000000
       16025000	      1601	80004538	00681a93	slli	x21,x16,0x6	 x16:0x82e574b8 x21=0xb95d2e00
       16035000	      1602	8000453c	40ee59b3	sra	x19,x28,x14	 x28:0x584a4a4a x14:0x1000039e x19=0x00000001
       16045000	      1603	80004540	41575693	srai	x13,x14,0x15	 x14:0x1000039e x13=0x00000080
       16055000	      1604	80004544	41995cb3	sra	x25,x18,x25	 x18:0x0000000a x25:0x00000200 x25=0x0000000a
       16065000	      1605	80004548	01284733	xor	x14,x16,x18	 x16:0x82e574b8 x18:0x0000000a x14=0x82e574b2
       16075000	      1606	8000454c	01ad5bb3	srl	x23,x26,x26	 x26:0x01000039 x26:0x01000039 x23=0x00000000
       16085000	      1607	80004550	40240c33	sub	x24,x8,x2	  x8:0x80009fc4  x2:0x80009fef x24=0xffffffd5
       16095000	      1608	80004554	30413ab7	lui	x21,0x30413	 x21=0x30413000
       16105000	      1609	80004558	00000013	addi	x0,x0,0	  x0:0x00000000
       16115000	      1610	8000455c	0153db13	srli	x22,x7,0x15	  x7:0x11668001 x22=0x0000008b
       16125000	      1611	80004560	01cad633	srl	x12,x21,x28	 x21:0x30413000 x28:0x584a4a4a x12=0x000c104c
       16135000	      1612	80004564	e36698b7	lui	x17,0xe3669	 x17=0xe3669000
       16145000	      1613	80004568	41a35913	srai	x18,x6,0x1a	  x6:0x0000000e x18=0x00000000
       16155000	      1614	8000456c	016fc933	xor	x18,x31,x22	 x31:0x00000000 x22:0x0000008b x18=0x0000008b
       16165000	      1615	80004570	01cc69b3	or	x19,x24,x28	 x24:0xffffffd5 x28:0x584a4a4a x19=0xffffffdf
       16175000	      1616	80004574	a8b62813	slti	x16,x12,-1397	 x12:0x000c104c x16=0x00000000
       16185000	      1617	80004578	016b4bb3	xor	x23,x22,x22	 x22:0x0000008b x22:0x0000008b x23=0x00000000
       16195000	      1618	8000457c	057b0663	beq	x22,x23,800045c8	 x22:0x0000008b x23:0x00000000
       16205000	      1619	80004580	00bb9d33	sll	x26,x23,x11	 x23:0x00000000 x11:0x00000000 x26=0x00000000
       16215000	      1620	80004584	014f14b3	sll	x9,x30,x20	 x30:0x00000000 x20:0x80009f44  x9=0x00000000
       16225000	      1621	80004588	00ca1863	bne	x20,x12,80004598	 x20:0x80009f44 x12:0x000c104c
       16235000	      1622	00000000	00000013	addi	x0,x0,0	  x0:0x00000000
       16245000	      1623	80004594	00000013	addi	x0,x0,0	  x0:0x00000000
       16255000	      1624	80004598	00114133	xor	x2,x2,x1	  x2:0x80009fef  x1:0x00000000  x2=0x80009fef
       16265000	      1625	8000459c	29f96f13	ori	x30,x18,671	 x18:0x0000008b x30=0x0000029f
       16275000	      1626	800045a0	01a99513	slli	x10,x19,0x1a	 x19:0xffffffdf x10=0x7c000000
       16285000	      1627	800045a4	b49f7493	andi	x9,x30,-1207	 x30:0x0000029f  x9=0x00000209
       16295000	      1628	800045a8	00945e93	srli	x29,x8,0x9	  x8:0x80009fc4 x29=0x0040004f
       16305000	      1629	800045ac	c1f67e13	andi	x28,x12,-993	 x12:0x000c104c x28=0x000c100c
       16315000	      1630	800045b0	0017de33	srl	x28,x15,x1	 x15:0x00000210  x1:0x00000000 x28=0x00000210
       16325000	      1631	800045b4	25760693	addi	x13,x12,599	 x12:0x000c104c x13=0x000c12a3
       16335000	      1632	800045b8	01a54833	xor	x16,x10,x26	 x10:0x7c000000 x26:0x00000000 x16=0x7c000000
       16345000	      1633	800045bc	041d6063	bltu	x26,x1,800045fc	 x26:0x00000000  x1:0x00000000
       16355000	      1634	800045c0	0cda8613	addi	x12,x21,205	 x21:0x30413000 x12=0x304130cd
       16365000	      1635	800045c4	006a6663	bltu	x20,x6,800045d0	 x20:0x80009f44  x6:0x0000000e
       16375000	      1636	800045c8	6aa7c093	xori	x1,x15,1706	 x15:0x00000210  x1=0x000004ba
       16385000	      1637	800045cc	8e047913	andi	x18,x8,-1824	  x8:0x80009fc4 x18=0x800098c0
       16395000	      1638	800045d0	00029893	slli	x17,x5,0x0	  x5:0x0000003b x17=0x0000003b
       16405000	      1639	800045d4	0070deb3	srl	x29,x1,x7	  x1:0x000004ba  x7:0x11668001 x29=0x0000025d
       16415000	      1640	800045d8	2e5c6393	ori	x7,x24,741	 x24:0xffffffd5  x7=0xfffffff5
       16425000	      1641	800045dc	002e1e93	slli	x29,x28,0x2	 x28:0x00000210 x29=0x00000840
       16435000	      1642	800045e0	0a5e6d13	ori	x26,x28,165	 x28:0x00000210 x26=0x000002b5
       16445000	      1643	800045e4	01d3a633	slt	x12,x7,x29	  x7:0xfffffff5 x29:0x00000840 x12=0x00000001
       16455000	      1644	800045e8	002acfb3	xor	x31,x21,x2	 x21:0x30413000  x2:0x80009fef x31=0xb041afef
       16465000	      1645	800045ec	02224863	blt	x4,x2,8000461c	  x4:0x411da001  x2:0x80009fef
       16475000	      1646	800045f0	41c18d33	sub	x26,x3,x28	  x3:0x00000000 x28:0x00000210 x26=0xfffffdf0
       16485000	      1647	800045f4	415bdab3	sra	x21,x23,x21	 x23:0x00000000 x21:0x30413000 x21=0x00000000
       16495000	      1648	800045f8	01ba1c63	bne	x20,x27,80004610	 x20:0x80009f44 x27:0x8000a60f
       16505000	      1649	00000000	00000013	addi	x0,x0,0	  x0:0x00000000
       16515000	      1650	8000460c	00000013	addi	x0,x0,0	  x0:0x00000000
       16525000	      1651	80004610	017fbcb3	sltu	x25,x31,x23	 x31:0xb041afef x23:0x00000000 x25=0x00000000
       16535000	      1652	80004614	0238fe63	bgeu	x17,x3,80004650	 x17:0x0000003b  x3:0x00000000
       16545000	      1653	00000000	00000013	addi	x0,x0,0	  x0:0x00000000
       16555000	      1654	8000464c	00000013	addi	x0,x0,0	  x0:0x00000000
       16565000	      1655	80004650	049ad063	bge	x21,x9,80004690	 x21:0x00000000  x9:0x00000209
       16575000	      1656	80004654	f3042193	slti	x3,x8,-208	  x8:0x80009fc4  x3=0x00000001
       16585000	      1657	80004658	284a9e97	auipc	x29,0x284a9	 x29=0xa84ad654
       16595000	      1658	8000465c	6ae72693	slti	x13,x14,1710	 x14:0x82e574b2 x13=0x00000001
       16605000	      1659	80004660	40580833	sub	x16,x16,x5	 x16:0x7c000000  x5:0x0000003b x16=0x7bffffc5
       16615000	      1660	80004664	01235263	bge	x6,x18,80004668	  x6:0x0000000e x18:0x800098c0
       16625000	      1661	00000000	00000013	addi	x0,x0,0	  x0:0x00000000
       16635000	      1662	80004664	00000013	addi	x0,x0,0	  x0:0x00000000
       16645000	      1663	80004668	004502b3	add	x5,x10,x4	 x10:0x7c000000  x4:0x411da001  x5=0xbd1da001
       16655000	      1664	8000466c	ef55a113	slti	x2,x11,-267	 x11:0x00000000  x2=0x00000000
       16665000	      1665	80004670	01ea38b3	sltu	x17,x20,x30	 x20:0x80009f44 x30:0x0000029f x17=0x00000000
       16675000	      1666	80004674	00000013	addi	x0,x0,0	  x0:0x00000000
       16685000	      1667	80004678	058a0d37	lui	x26,0x58a0	 x26=0x058a0000
       16695000	      1668	8000467c	0162dfb3	srl	x31,x5,x22	  x5:0xbd1da001 x22:0x0000008b x31=0x0017a3b4
       16705000	      1669	80004680	01aedb13	srli	x22,x29,0x1a	 x29:0xa84ad654 x22=0x0000002a
       16715000	      1670	80004684	00ef15b3	sll	x11,x30,x14	 x30:0x0000029f x14:0x82e574b2 x11=0x0a7c0000
       16725000	      1671	80004688	04d50063	beq	x10,x13,800046c8	 x10:0x7c000000 x13:0x00000001
       16735000	      1672	8000468c	16abe393	ori	x7,x23,362	 x23:0x00000000  x7=0x0000016a
       16745000	      1673	80004690	520da693	slti	x13,x27,1312	 x27:0x8000a60f x13=0x00000001
       16755000	      1674	80004694	00fa1a63	bne	x20,x15,800046a8	 x20:0x80009f44 x15:0x00000210
       16765000	      1675	00000000	00000013	addi	x0,x0,0	  x0:0x00000000
       16775000	      1676	800046a4	00000013	addi	x0,x0,0	  x0:0x00000000
       16785000	      1677	800046a8	009a0833	add	x16,x20,x9	 x20:0x80009f44  x9:0x00000209 x16=0x8000a14d
       16795000	      1678	800046ac	215cb593	sltiu	x11,x25,533	 x25:0x00000000 x11=0x00000001
       16805000	      1679	800046b0	0198d093	srli	x1,x17,0x19	 x17:0x00000000  x1=0x00000000
       16815000	      1680	800046b4	cfd3a693	slti	x13,x7,-771	  x7:0x0000016a x13=0x00000000
       16825000	      1681	800046b8	01715013	srli	x0,x2,0x17	  x2:0x00000000
       16835000	      1682	800046bc	006f9bb3	sll	x23,x31,x6	 x31:0x0017a3b4  x6:0x0000000e x23=0xe8ed0000
       16845000	      1683	800046c0	0127fa63	bgeu	x15,x18,800046d4	 x15:0x00000210 x18:0x800098c0
       16855000	      1684	800046c4	b5407193	andi	x3,x0,-1196	  x0:0x00000000  x3=0x00000000
       16865000	      1685	800046c8	04fc8663	beq	x25,x15,80004714	 x25:0x00000000 x15:0x00000210
       16875000	      1686	800046cc	8a1ac713	xori	x14,x21,-1887	 x21:0x00000000 x14=0xfffff8a1
       16885000	      1687	800046d0	01dacbb3	xor	x23,x21,x29	 x21:0x00000000 x29:0xa84ad654 x23=0xa84ad654
       16895000	      1688	800046d4	016899b3	sll	x19,x17,x22	 x17:0x00000000 x22:0x0000002a x19=0x00000000
       16905000	      1689	800046d8	01379733	sll	x14,x15,x19	 x15:0x00000210 x19:0x00000000 x14=0x00000210
       16915000	      1690	800046dc	40f18c33	sub	x24,x3,x15	  x3:0x00000000 x15:0x00000210 x24=0xfffffdf0
       16925000	      1691	800046e0	0053dcb3	srl	x25,x7,x5	  x7:0x0000016a  x5:0xbd1da001 x25=0x000000b5
       16935000	      1692	800046e4	01ed89b3	add	x19,x27,x30	 x27:0x8000a60f x30:0x0000029f x19=0x8000a8ae
       16945000	      1693	800046e8	018c1c63	bne	x24,x24,80004700	 x24:0xfffffdf0 x24:0xfffffdf0
       16955000	      1694	800046ec	012efe63	bgeu	x29,x18,80004708	 x29:0xa84ad654 x18:0x800098c0
       16965000	      1695	00000000	00000013	addi	x0,x0,0	  x0:0x00000000
       16975000	      1696	80004704	00000013	addi	x0,x0,0	  x0:0x00000000
       16985000	      1697	80004708	414ed6b3	sra	x13,x29,x20	 x29:0xa84ad654 x20:0x80009f44 x13=0xfa84ad65
       16995000	      1698	8000470c	00000013	addi	x0,x0,0	  x0:0x00000000
       17005000	      1699	80004710	550708b7	lui	x17,0x55070	 x17=0x55070000
       17015000	      1700	80004714	00818633	add	x12,x3,x8	  x3:0x00000000  x8:0x80009fc4 x12=0x80009fc4
       17025000	      1701	80004718	00ada233	slt	x4,x27,x10	 x27:0x8000a60f x10:0x7c000000  x4=0x00000001
       17035000	      1702	8000471c	408f5633	sra	x12,x30,x8	 x30:0x0000029f  x8:0x80009fc4 x12=0x00000029
       17045000	      1703	80004720	0585f863	bgeu	x11,x24,80004770	 x11:0x00000001 x24:0xfffffdf0
       17055000	      1704	80004724	411b8fb3	sub	x31,x23,x17	 x23:0xa84ad654 x17:0x55070000 x31=0x5343d654
       17065000	      1705	80004728	00c16ab3	or	x21,x2,x12	  x2:0x00000000 x12:0x00000029 x21=0x00000029
       17075000	      1706	8000472c	00000013	addi	x0,x0,0	  x0:0x00000000
       17085000	      1707	80004730	4042dd13	srai	x26,x5,0x4	  x5:0xbd1da001 x26=0xfbd1da00
       17095000	      1708	80004734	923de793	ori	x15,x27,-1757	 x27:0x8000a60f x15=0xffffff2f
       17105000	      1709	80004738	40c007b3	sub	x15,x0,x12	  x0:0x00000000 x12:0x00000029 x15=0xffffffd7
       17115000	      1710	8000473c	04bcd263	bge	x25,x11,80004780	 x25:0x000000b5 x11:0x00000001
       17125000	      1711	00000000	00000013	addi	x0,x0,0	  x0:0x00000000
       17135000	      1712	8000477c	00000013	addi	x0,x0,0	  x0:0x00000000
       17145000	      1713	80004780	01ded693	srli	x13,x29,0x1d	 x29:0xa84ad654 x13=0x00000005
       17155000	      1714	80004784	002280b3	add	x1,x5,x2	  x5:0xbd1da001  x2:0x00000000  x1=0xbd1da001
       17165000	      1715	80004788	00bd6463	bltu	x26,x11,80004790	 x26:0xfbd1da00 x11:0x00000001
       17175000	      1716	8000478c	0045be33	sltu	x28,x11,x4	 x11:0x00000001  x4:0x00000001 x28=0x00000000
       17185000	      1717	80004790	00000013	addi	x0,x0,0	  x0:0x00000000
       17195000	      1718	80004794	85a28e13	addi	x28,x5,-1958	  x5:0xbd1da001 x28=0xbd1d985b
       17205000	      1719	80004798	0f851e63	bne	x10,x24,80004894	 x10:0x7c000000 x24:0xfffffdf0
       17215000	      1720	00000000	00000013	addi	x0,x0,0	  x0:0x00000000
       17225000	      1721	80004890	00000013	addi	x0,x0,0	  x0:0x00000000
       17235000	      1722	80004894	008a8c63	beq	x21,x8,800048ac	 x21:0x00000029  x8:0x80009fc4
       17245000	      1723	80004898	05b1d663	bge	x3,x27,800048e4	  x3:0x00000000 x27:0x8000a60f
       17255000	      1724	00000000	00000013	addi	x0,x0,0	  x0:0x00000000
       17265000	      1725	800048e0	00000013	addi	x0,x0,0	  x0:0x00000000
       17275000	      1726	800048e4	00e0dbb3	srl	x23,x1,x14	  x1:0xbd1da001 x14:0x00000210 x23=0x0000bd1d
       17285000	      1727	800048e8	0487e063	bltu	x15,x8,80004928	 x15:0xffffffd7  x8:0x80009fc4
       17295000	      1728	800048ec	40fd5533	sra	x10,x26,x15	 x26:0xfbd1da00 x15:0xffffffd7 x10=0xfffffff7
       17305000	      1729	800048f0	3d252593	slti	x11,x10,978	 x10:0xfffffff7 x11=0x00000001
       17315000	      1730	800048f4	7239f117	auipc	x2,0x7239f	  x2=0xf23a38f0
       17325000	      1731	800048f8	056a8663	beq	x21,x22,80004944	 x21:0x00000029 x22:0x0000002a
       17335000	      1732	800048fc	00264233	xor	x4,x12,x2	 x12:0x00000029  x2:0xf23a38f0  x4=0xf23a38d9
       17345000	      1733	80004900	01cf5233	srl	x4,x30,x28	 x30:0x0000029f x28:0xbd1d985b  x4=0x00000000
       17355000	      1734	80004904	00c29863	bne	x5,x12,80004914	  x5:0xbd1da001 x12:0x00000029
       17365000	      1735	00000000	00000013	addi	x0,x0,0	  x0:0x00000000
       17375000	      1736	80004910	00000013	addi	x0,x0,0	  x0:0x00000000
       17385000	      1737	80004914	01147e33	and	x28,x8,x17	  x8:0x80009fc4 x17:0x55070000 x28=0x00000000
       17395000	      1738	80004918	40a18db3	sub	x27,x3,x10	  x3:0x00000000 x10:0xfffffff7 x27=0x00000009
       17405000	      1739	8000491c	014cce63	blt	x25,x20,80004938	 x25:0x000000b5 x20:0x80009f44
       17415000	      1740	80004920	011d88b3	add	x17,x27,x17	 x27:0x00000009 x17:0x55070000 x17=0x55070009
       17425000	      1741	80004924	005d5a63	bge	x26,x5,80004938	 x26:0xfbd1da00  x5:0xbd1da001
       17435000	      1742	00000000	00000013	addi	x0,x0,0	  x0:0x00000000
       17445000	      1743	80004934	00000013	addi	x0,x0,0	  x0:0x00000000
       17455000	      1744	80004938	05beeb93	ori	x23,x29,91	 x29:0xa84ad654 x23=0xa84ad65f
       17465000	      1745	8000493c	40b85ab3	sra	x21,x16,x11	 x16:0x8000a14d x11:0x00000001 x21=0xc00050a6
       17475000	      1746	80004940	01b206b3	add	x13,x4,x27	  x4:0x00000000 x27:0x00000009 x13=0x00000009
       17485000	      1747	80004944	2daf2d13	slti	x26,x30,730	 x30:0x0000029f x26=0x00000001
       17495000	      1748	80004948	c661f693	andi	x13,x3,-922	  x3:0x00000000 x13=0x00000000
       17505000	      1749	8000494c	00d246b3	xor	x13,x4,x13	  x4:0x00000000 x13:0x00000000 x13=0x00000000
       17515000	      1750	80004950	017208b3	add	x17,x4,x23	  x4:0x00000000 x23:0xa84ad65f x17=0xa84ad65f
       17525000	      1751	80004954	01f7c5b3	xor	x11,x15,x31	 x15:0xffffffd7 x31:0x5343d654 x11=0xacbc2983
       17535000	      1752	80004958	00104c33	xor	x24,x0,x1	  x0:0x00000000  x1:0xbd1da001 x24=0xbd1da001
       17545000	      1753	8000495c	94820e93	addi	x29,x4,-1720	  x4:0x00000000 x29=0xfffff948
       17555000	      1754	80004960	00e611b3	sll	x3,x12,x14	 x12:0x00000029 x14:0x00000210  x3=0x00290000
       17565000	      1755	80004964	b7c7c913	xori	x18,x15,-1156	 x15:0xffffffd7 x18=0x000004ab
       17575000	      1756	80004968	05069063	bne	x13,x16,800049a8	 x13:0x00000000 x16:0x8000a14d
       17585000	      1757	00000000	00000013	addi	x0,x0,0	  x0:0x00000000
       17595000	      1758	800049a4	00000013	addi	x0,x0,0	  x0:0x00000000
       17605000	      1759	800049a8	404d57b3	sra	x15,x26,x4	 x26:0x00000001  x4:0x00000000 x15=0x00000001
       17615000	      1760	800049ac	415ed793	srai	x15,x29,0x15	 x29:0xfffff948 x15=0xffffffff
       17625000	      1761	800049b0	03411c63	bne	x2,x20,800049e8	  x2:0xf23a38f0 x20:0x80009f44
       17635000	      1762	00000000	00000013	addi	x0,x0,0	  x0:0x00000000
       17645000	      1763	800049e4	00000013	addi	x0,x0,0	  x0:0x00000000
       17655000	      1764	800049e8	e92349b7	lui	x19,0xe9234	 x19=0xe9234000
       17665000	      1765	800049ec	163f2d13	slti	x26,x30,355	 x30:0x0000029f x26=0x00000000
       17675000	      1766	800049f0	49687693	andi	x13,x16,1174	 x16:0x8000a14d x13=0x00000004
       17685000	      1767	800049f4	01764a63	blt	x12,x23,80004a08	 x12:0x00000029 x23:0xa84ad65f
       17695000	      1768	800049f8	0156deb3	srl	x29,x13,x21	 x13:0x00000004 x21:0xc00050a6 x29=0x00000000
       17705000	      1769	800049fc	041d6863	bltu	x26,x1,80004a4c	 x26:0x00000000  x1:0xbd1da001
       17715000	      1770	00000000	00000013	addi	x0,x0,0	  x0:0x00000000
       17725000	      1771	80004a48	00000013	addi	x0,x0,0	  x0:0x00000000
       17735000	      1772	80004a4c	13764613	xori	x12,x12,311	 x12:0x00000029 x12=0x0000011e
       17745000	      1773	80004a50	0096ad33	slt	x26,x13,x9	 x13:0x00000004  x9:0x00000209 x26=0x00000001
       17755000	      1774	80004a54	008e4c33	xor	x24,x28,x8	 x28:0x00000000  x8:0x80009fc4 x24=0x80009fc4
       17765000	      1775	80004a58	00141463	bne	x8,x1,80004a60	  x8:0x80009fc4  x1:0xbd1da001
       17775000	      1776	00000000	00000013	addi	x0,x0,0	  x0:0x00000000
       17785000	      1777	80004a5c	00000013	addi	x0,x0,0	  x0:0x00000000
       17795000	      1778	80004a60	054ae063	bltu	x21,x20,80004aa0	 x21:0xc00050a6 x20:0x80009f44
       17805000	      1779	80004a64	01a01093	slli	x1,x0,0x1a	  x0:0x00000000  x1=0x00000000
       17815000	      1780	80004a68	01487fb3	and	x31,x16,x20	 x16:0x8000a14d x20:0x80009f44 x31=0x80008144
       17825000	      1781	80004a6c	01e993b3	sll	x7,x19,x30	 x19:0xe9234000 x30:0x0000029f  x7=0x00000000
       17835000	      1782	80004a70	0032fc63	bgeu	x5,x3,80004a88	  x5:0xbd1da001  x3:0x00290000
       17845000	      1783	00000000	00000013	addi	x0,x0,0	  x0:0x00000000
       17855000	      1784	80004a84	00000013	addi	x0,x0,0	  x0:0x00000000
       17865000	      1785	80004a88	00000013	addi	x0,x0,0	  x0:0x00000000
       17875000	      1786	80004a8c	00000013	addi	x0,x0,0	  x0:0x00000000
       17885000	      1787	80004a90	40a70933	sub	x18,x14,x10	 x14:0x00000210 x10:0xfffffff7 x18=0x00000219
       17895000	      1788	80004a94	01ead533	srl	x10,x21,x30	 x21:0xc00050a6 x30:0x0000029f x10=0x00000001
       17905000	      1789	80004a98	ae0c2293	slti	x5,x24,-1312	 x24:0x80009fc4  x5=0x00000001
       17915000	      1790	80004a9c	40e558b3	sra	x17,x10,x14	 x10:0x00000001 x14:0x00000210 x17=0x00000000
       17925000	      1791	80004aa0	00ee0663	beq	x28,x14,80004aac	 x28:0x00000000 x14:0x00000210
       17935000	      1792	80004aa4	001b5f93	srli	x31,x22,0x1	 x22:0x0000002a x31=0x00000015
       17945000	      1793	80004aa8	00000013	addi	x0,x0,0	  x0:0x00000000
       17955000	      1794	80004aac	012c9713	slli	x14,x25,0x12	 x25:0x000000b5 x14=0x02d40000
       17965000	      1795	80004ab0	026a4e63	blt	x20,x6,80004aec	 x20:0x80009f44  x6:0x0000000e
       17975000	      1796	00000000	00000013	addi	x0,x0,0	  x0:0x00000000
       17985000	      1797	80004ae8	00000013	addi	x0,x0,0	  x0:0x00000000
       17995000	      1798	80004aec	407dd193	srai	x3,x27,0x7	 x27:0x00000009  x3=0x00000000
       18005000	      1799	80004af0	1f48cd17	auipc	x26,0x1f48c	 x26=0x9f490aec
       18015000	      1800	80004af4	005a7233	and	x4,x20,x5	 x20:0x80009f44  x5:0x00000001  x4=0x00000000
       18025000	      1801	80004af8	415ed113	srai	x2,x29,0x15	 x29:0x00000000  x2=0x00000000
       18035000	      1802	80004afc	003892b3	sll	x5,x17,x3	 x17:0x00000000  x3:0x00000000  x5=0x00000000
       18045000	      1803	80004b00	00047fb3	and	x31,x8,x0	  x8:0x80009fc4  x0:0x00000000 x31=0x00000000
       18055000	      1804	80004b04	01fa1f13	slli	x30,x20,0x1f	 x20:0x80009f44 x30=0x00000000
       18065000	      1805	80004b08	02959a63	bne	x11,x9,80004b3c	 x11:0xacbc2983  x9:0x00000209
       18075000	      1806	00000000	00000013	addi	x0,x0,0	  x0:0x00000000
       18085000	      1807	80004b38	00000013	addi	x0,x0,0	  x0:0x00000000
       18095000	      1808	80004b3c	00000013	addi	x0,x0,0	  x0:0x00000000
       18105000	      1809	80004b40	010891b3	sll	x3,x17,x16	 x17:0x00000000 x16:0x8000a14d  x3=0x00000000
       18115000	      1810	80004b44	400f5f13	srai	x30,x30,0x0	 x30:0x00000000 x30=0x00000000
       18125000	      1811	80004b48	fcb16637	lui	x12,0xfcb16	 x12=0xfcb16000
       18135000	      1812	80004b4c	01b61c63	bne	x12,x27,80004b64	 x12:0xfcb16000 x27:0x00000009
       18145000	      1813	00000000	00000013	addi	x0,x0,0	  x0:0x00000000
       18155000	      1814	80004b60	00000013	addi	x0,x0,0	  x0:0x00000000
       18165000	      1815	80004b64	90e7c013	xori	x0,x15,-1778	 x15:0xffffffff
       18175000	      1816	80004b68	018f7d33	and	x26,x30,x24	 x30:0x00000000 x24:0x80009fc4 x26=0x00000000
       18185000	      1817	80004b6c	4145dfb3	sra	x31,x11,x20	 x11:0xacbc2983 x20:0x80009f44 x31=0xfacbc298
       18195000	      1818	80004b70	01bf9e13	slli	x28,x31,0x1b	 x31:0xfacbc298 x28=0xc0000000
       18205000	      1819	80004b74	0185ad33	slt	x26,x11,x24	 x11:0xacbc2983 x24:0x80009fc4 x26=0x00000000
       18215000	      1820	80004b78	3f7f6993	ori	x19,x30,1015	 x30:0x00000000 x19=0x000003f7
       18225000	      1821	80004b7c	24830693	addi	x13,x6,584	  x6:0x0000000e x13=0x00000256
       18235000	      1822	80004b80	0342c063	blt	x5,x20,80004ba0	  x5:0x00000000 x20:0x80009f44
       18245000	      1823	80004b84	e1c9a513	slti	x10,x19,-484	 x19:0x000003f7 x10=0x00000000
       18255000	      1824	80004b88	00ff5793	srli	x15,x30,0xf	 x30:0x00000000 x15=0x00000000
       18265000	      1825	80004b8c	0040f8b3	and	x17,x1,x4	  x1:0x00000000  x4:0x00000000 x17=0x00000000
       18275000	      1826	80004b90	02086c63	bltu	x16,x0,80004bc8	 x16:0x8000a14d  x0:0x00000000
       18285000	      1827	80004b94	36212e93	slti	x29,x2,866	  x2:0x00000000 x29=0x00000001
       18295000	      1828	80004b98	ef80ec93	ori	x25,x1,-264	  x1:0x00000000 x25=0xfffffef8
       18305000	      1829	80004b9c	f6347a93	andi	x21,x8,-157	  x8:0x80009fc4 x21=0x80009f40
       18315000	      1830	80004ba0	00cf5393	srli	x7,x30,0xc	 x30:0x00000000  x7=0x00000000
       18325000	      1831	80004ba4	01145913	srli	x18,x8,0x11	  x8:0x80009fc4 x18=0x00004000
       18335000	      1832	80004ba8	01865813	srli	x16,x12,0x18	 x12:0xfcb16000 x16=0x000000fc
       18345000	      1833	80004bac	03150e63	beq	x10,x17,80004be8	 x10:0x00000000 x17:0x00000000
       18355000	      1834	00000000	00000013	addi	x0,x0,0	  x0:0x00000000
       18365000	      1835	80004be4	00000013	addi	x0,x0,0	  x0:0x00000000
       18375000	      1836	80004be8	dc90f793	andi	x15,x1,-567	  x1:0x00000000 x15=0x00000000
       18385000	      1837	80004bec	0057da93	srli	x21,x15,0x5	 x15:0x00000000 x21=0x00000000
       18395000	      1838	80004bf0	40ffd133	sra	x2,x31,x15	 x31:0xfacbc298 x15:0x00000000  x2=0xfacbc298
       18405000	      1839	80004bf4	0116b8b3	sltu	x17,x13,x17	 x13:0x00000256 x17:0x00000000 x17=0x00000000
       18415000	      1840	80004bf8	00f85c33	srl	x24,x16,x15	 x16:0x000000fc x15:0x00000000 x24=0x000000fc
       18425000	      1841	80004bfc	01129e93	slli	x29,x5,0x11	  x5:0x00000000 x29=0x00000000
       18435000	      1842	80004c00	002553b3	srl	x7,x10,x2	 x10:0x00000000  x2:0xfacbc298  x7=0x00000000
       18445000	      1843	80004c04	23c08d37	lui	x26,0x23c08	 x26=0x23c08000
       18455000	      1844	80004c08	1816bd13	sltiu	x26,x13,385	 x13:0x00000256 x26=0x00000000
       18465000	      1845	80004c0c	fbc66893	ori	x17,x12,-68	 x12:0xfcb16000 x17=0xffffffbc
       18475000	      1846	80004c10	01cb1533	sll	x10,x22,x28	 x22:0x0000002a x28:0xc0000000 x10=0x0000002a
       18485000	      1847	80004c14	ff38bc93	sltiu	x25,x17,-13	 x17:0xffffffbc x25=0x00000001
       18495000	      1848	80004c18	05a97863	bgeu	x18,x26,80004c68	 x18:0x00004000 x26:0x00000000
       18505000	      1849	00000000	00000013	addi	x0,x0,0	  x0:0x00000000
       18515000	      1850	80004c64	00000013	addi	x0,x0,0	  x0:0x00000000
       18525000	      1851	80004c68	241c3913	sltiu	x18,x24,577	 x24:0x000000fc x18=0x00000001
       18535000	      1852	80004c6c	00bcdf13	srli	x30,x25,0xb	 x25:0x00000001 x30=0x00000000
       18545000	      1853	80004c70	d5ca2f97	auipc	x31,0xd5ca2	 x31=0x55ca6c6c
       18555000	      1854	80004c74	04800063	beq	x0,x8,80004cb4	  x0:0x00000000  x8:0x80009fc4
       18565000	      1855	80004c78	00000013	addi	x0,x0,0	  x0:0x00000000
       18575000	      1856	80004c7c	00000013	addi	x0,x0,0	  x0:0x00000000
       18585000	      1857	80004c80	fd3bb293	sltiu	x5,x23,-45	 x23:0xa84ad65f  x5=0x00000001
       18595000	      1858	80004c84	1b9aa913	slti	x18,x21,441	 x21:0x00000000 x18=0x00000001
       18605000	      1859	80004c88	03e1c463	blt	x3,x30,80004cb0	  x3:0x00000000 x30:0x00000000
       18615000	      1860	80004c8c	b0947513	andi	x10,x8,-1271	  x8:0x80009fc4 x10=0x80009b00
       18625000	      1861	80004c90	006fc2b3	xor	x5,x31,x6	 x31:0x55ca6c6c  x6:0x0000000e  x5=0x55ca6c62
       18635000	      1862	80004c94	a8e84493	xori	x9,x16,-1394	 x16:0x000000fc  x9=0xfffffa72
       18645000	      1863	80004c98	0055bf33	sltu	x30,x11,x5	 x11:0xacbc2983  x5:0x55ca6c62 x30=0x00000000
       18655000	      1864	80004c9c	01c25463	bge	x4,x28,80004ca4	  x4:0x00000000 x28:0xc0000000
       18665000	      1865	00000000	00000013	addi	x0,x0,0	  x0:0x00000000
       18675000	      1866	80004ca0	00000013	addi	x0,x0,0	  x0:0x00000000
       18685000	      1867	80004ca4	011df863	bgeu	x27,x17,80004cb4	 x27:0x00000009 x17:0xffffffbc
       18695000	      1868	80004ca8	91629b97	auipc	x23,0x91629	 x23=0x1162dca4
       18705000	      1869	80004cac	019d6b33	or	x22,x26,x25	 x26:0x00000000 x25:0x00000001 x22=0x00000001
       18715000	      1870	80004cb0	01aa5a93	srli	x21,x20,0x1a	 x20:0x80009f44 x21=0x00000020
       18725000	      1871	80004cb4	4ecc5c17	auipc	x24,0x4ecc5	 x24=0xcecc9cb0
       18735000	      1872	80004cb8	005c0fb3	add	x31,x24,x5	 x24:0xcecc9cb0  x5:0x55ca6c62 x31=0x24970912
       18745000	      1873	80004cbc	01145733	srl	x14,x8,x17	  x8:0x80009fc4 x17:0xffffffbc x14=0x00000008
       18755000	      1874	80004cc0	01ef4ab3	xor	x21,x30,x30	 x30:0x00000000 x30:0x00000000 x21=0x00000000
       18765000	      1875	80004cc4	97bc8997	auipc	x19,0x97bc8	 x19=0x17bcccc0
       18775000	      1876	80004cc8	017035b3	sltu	x11,x0,x23	  x0:0x00000000 x23:0x1162dca4 x11=0x00000001
       18785000	      1877	80004ccc	0416f663	bgeu	x13,x1,80004d18	 x13:0x00000256  x1:0x00000000
       18795000	      1878	00000000	00000013	addi	x0,x0,0	  x0:0x00000000
       18805000	      1879	80004d14	00000013	addi	x0,x0,0	  x0:0x00000000
       18815000	      1880	80004d18	01590a63	beq	x18,x21,80004d2c	 x18:0x00000001 x21:0x00000000
       18825000	      1881	80004d1c	afbab093	sltiu	x1,x21,-1285	 x21:0x00000000  x1=0x00000001
       18835000	      1882	80004d20	00487ab3	and	x21,x16,x4	 x16:0x000000fc  x4:0x00000000 x21=0x00000000
       18845000	      1883	80004d24	409f03b3	sub	x7,x30,x9	 x30:0x00000000  x9:0xfffffa72  x7=0x0000058e
       18855000	      1884	80004d28	013826b3	slt	x13,x16,x19	 x16:0x000000fc x19:0x17bcccc0 x13=0x00000001
       18865000	      1885	80004d2c	0088d393	srli	x7,x17,0x8	 x17:0xffffffbc  x7=0x00ffffff
       18875000	      1886	80004d30	0174af33	slt	x30,x9,x23	  x9:0xfffffa72 x23:0x1162dca4 x30=0x00000001
       18885000	      1887	80004d34	01336263	bltu	x6,x19,80004d38	  x6:0x0000000e x19:0x17bcccc0
       18895000	      1888	00000000	00000013	addi	x0,x0,0	  x0:0x00000000
       18905000	      1889	80004d34	00000013	addi	x0,x0,0	  x0:0x00000000
       18915000	      1890	80004d38	01af6463	bltu	x30,x26,80004d40	 x30:0x00000001 x26:0x00000000
       18925000	      1891	80004d3c	4811bf13	sltiu	x30,x3,1153	  x3:0x00000000 x30=0x00000001
       18935000	      1892	80004d40	00000013	addi	x0,x0,0	  x0:0x00000000
       18945000	      1893	80004d44	016b8a63	beq	x23,x22,80004d58	 x23:0x1162dca4 x22:0x00000001
       18955000	      1894	80004d48	00000013	addi	x0,x0,0	  x0:0x00000000
       18965000	      1895	80004d4c	0001f0b3	and	x1,x3,x0	  x3:0x00000000  x0:0x00000000  x1=0x00000000
       18975000	      1896	80004d50	aaf2a813	slti	x16,x5,-1361	  x5:0x55ca6c62 x16=0x00000000
       18985000	      1897	80004d54	00540fb3	add	x31,x8,x5	  x8:0x80009fc4  x5:0x55ca6c62 x31=0xd5cb0c26
       18995000	      1898	80004d58	0101d513	srli	x10,x3,0x10	  x3:0x00000000 x10=0x00000000
       19005000	      1899	80004d5c	02dc1a63	bne	x24,x13,80004d90	 x24:0xcecc9cb0 x13:0x00000001
       19015000	      1900	00000000	00000013	addi	x0,x0,0	  x0:0x00000000
       19025000	      1901	80004d8c	00000013	addi	x0,x0,0	  x0:0x00000000
       19035000	      1902	80004d90	0041d613	srli	x12,x3,0x4	  x3:0x00000000 x12=0x00000000
       19045000	      1903	80004d94	00f655b3	srl	x11,x12,x15	 x12:0x00000000 x15:0x00000000 x11=0x00000000
       19055000	      1904	80004d98	04fd5063	bge	x26,x15,80004dd8	 x26:0x00000000 x15:0x00000000
       19065000	      1905	00000000	00000013	addi	x0,x0,0	  x0:0x00000000
       19075000	      1906	80004dd4	00000013	addi	x0,x0,0	  x0:0x00000000
       19085000	      1907	80004dd8	c4a04493	xori	x9,x0,-950	  x0:0x00000000  x9=0xfffffc4a
       19095000	      1908	80004ddc	7d7abc13	sltiu	x24,x21,2007	 x21:0x00000000 x24=0x00000001
       19105000	      1909	80004de0	001466b3	or	x13,x8,x1	  x8:0x80009fc4  x1:0x00000000 x13=0x80009fc4
       19115000	      1910	80004de4	00000013	addi	x0,x0,0	  x0:0x00000000
       19125000	      1911	80004de8	007cf233	and	x4,x25,x7	 x25:0x00000001  x7:0x00ffffff  x4=0x00000001
       19135000	      1912	80004dec	0161c933	xor	x18,x3,x22	  x3:0x00000000 x22:0x00000001 x18=0x00000001
       19145000	      1913	80004df0	15536613	ori	x12,x6,341	  x6:0x0000000e x12=0x0000015f
       19155000	      1914	80004df4	16fe7d93	andi	x27,x28,367	 x28:0xc0000000 x27=0x00000000
       19165000	      1915	80004df8	0079bdb3	sltu	x27,x19,x7	 x19:0x17bcccc0  x7:0x00ffffff x27=0x00000000
       19175000	      1916	80004dfc	b5a68c93	addi	x25,x13,-1190	 x13:0x80009fc4 x25=0x80009b1e
       19185000	      1917	80004e00	001666b3	or	x13,x12,x1	 x12:0x0000015f  x1:0x00000000 x13=0x0000015f
       19195000	      1918	80004e04	011c5e13	srli	x28,x24,0x11	 x24:0x00000001 x28=0x00000000
       19205000	      1919	80004e08	013f3db3	sltu	x27,x30,x19	 x30:0x00000001 x19:0x17bcccc0 x27=0x00000001
       19215000	      1920	80004e0c	01fa1c93	slli	x25,x20,0x1f	 x20:0x80009f44 x25=0x00000000
       19225000	      1921	80004e10	d3830613	addi	x12,x6,-712	  x6:0x0000000e x12=0xfffffd46
       19235000	      1922	80004e14	026d5a63	bge	x26,x6,80004e48	 x26:0x00000000  x6:0x0000000e
       19245000	      1923	80004e18	01221713	slli	x14,x4,0x12	  x4:0x00000001 x14=0x00040000
       19255000	      1924	80004e1c	467ac113	xori	x2,x21,1127	 x21:0x00000000  x2=0x00000467
       19265000	      1925	80004e20	01a69cb3	sll	x25,x13,x26	 x13:0x0000015f x26:0x00000000 x25=0x0000015f
       19275000	      1926	80004e24	009c7833	and	x16,x24,x9	 x24:0x00000001  x9:0xfffffc4a x16=0x00000000
       19285000	      1927	80004e28	00df5193	srli	x3,x30,0xd	 x30:0x00000001  x3=0x00000000
       19295000	      1928	80004e2c	00000013	addi	x0,x0,0	  x0:0x00000000
       19305000	      1929	80004e30	00397c33	and	x24,x18,x3	 x18:0x00000001  x3:0x00000000 x24=0x00000000
       19315000	      1930	80004e34	2151f513	andi	x10,x3,533	  x3:0x00000000 x10=0x00000000
       19325000	      1931	80004e38	005bd613	srli	x12,x23,0x5	 x23:0x1162dca4 x12=0x008b16e5
       19335000	      1932	80004e3c	04ca6663	bltu	x20,x12,80004e88	 x20:0x80009f44 x12:0x008b16e5
       19345000	      1933	80004e40	01da5cb3	srl	x25,x20,x29	 x20:0x80009f44 x29:0x00000000 x25=0x80009f44
       19355000	      1934	80004e44	040b7063	bgeu	x22,x0,80004e84	 x22:0x00000001  x0:0x00000000
       19365000	      1935	00000000	00000013	addi	x0,x0,0	  x0:0x00000000
       19375000	      1936	80004e80	00000013	addi	x0,x0,0	  x0:0x00000000
       19385000	      1937	80004e84	00ec0863	beq	x24,x14,80004e94	 x24:0x00000000 x14:0x00040000
       19395000	      1938	80004e88	000623b3	slt	x7,x12,x0	 x12:0x008b16e5  x0:0x00000000  x7=0x00000000
       19405000	      1939	80004e8c	b9d97113	andi	x2,x18,-1123	 x18:0x00000001  x2=0x00000001
       19415000	      1940	80004e90	e96bc113	xori	x2,x23,-362	 x23:0x1162dca4  x2=0xee9d2232
       19425000	      1941	80004e94	01369e63	bne	x13,x19,80004eb0	 x13:0x0000015f x19:0x17bcccc0
       19435000	      1942	00000000	00000013	addi	x0,x0,0	  x0:0x00000000
       19445000	      1943	80004eac	00000013	addi	x0,x0,0	  x0:0x00000000
       19455000	      1944	80004eb0	4099d693	srai	x13,x19,0x9	 x19:0x17bcccc0 x13=0x000bde66
       19465000	      1945	80004eb4	9c183b13	sltiu	x22,x16,-1599	 x16:0x00000000 x22=0x00000001
       19475000	      1946	80004eb8	01911d33	sll	x26,x2,x25	  x2:0xee9d2232 x25:0x80009f44 x26=0xe9d22320
       19485000	      1947	80004ebc	00d57a63	bgeu	x10,x13,80004ed0	 x10:0x00000000 x13:0x000bde66
       19495000	      1948	80004ec0	02e80c63	beq	x16,x14,80004ef8	 x16:0x00000000 x14:0x00040000
       19505000	      1949	80004ec4	039d1a63	bne	x26,x25,80004ef8	 x26:0xe9d22320 x25:0x80009f44
       19515000	      1950	00000000	00000013	addi	x0,x0,0	  x0:0x00000000
       19525000	      1951	80004ef4	00000013	addi	x0,x0,0	  x0:0x00000000
       19535000	      1952	80004ef8	00f35c63	bge	x6,x15,80004f10	  x6:0x0000000e x15:0x00000000
       19545000	      1953	00000000	00000013	addi	x0,x0,0	  x0:0x00000000
       19555000	      1954	80004f0c	00000013	addi	x0,x0,0	  x0:0x00000000
       19565000	      1955	80004f10	05070063	beq	x14,x16,80004f50	 x14:0x00040000 x16:0x00000000
       19575000	      1956	80004f14	ca9b2817	auipc	x16,0xca9b2	 x16=0x4a9b6f10
       19585000	      1957	80004f18	00fa1213	slli	x4,x20,0xf	 x20:0x80009f44  x4=0x4fa20000
       19595000	      1958	80004f1c	1b01ff13	andi	x30,x3,432	  x3:0x00000000 x30=0x00000000
       19605000	      1959	80004f20	00000013	addi	x0,x0,0	  x0:0x00000000
       19615000	      1960	80004f24	5fb8f213	andi	x4,x17,1531	 x17:0xffffffbc  x4=0x000005b8
       19625000	      1961	80004f28	009849b3	xor	x19,x16,x9	 x16:0x4a9b6f10  x9:0xfffffc4a x19=0xb564935a
       19635000	      1962	80004f2c	01609d93	slli	x27,x1,0x16	  x1:0x00000000 x27=0x00000000
       19645000	      1963	80004f30	00708033	add	x0,x1,x7	  x1:0x00000000  x7:0x00000000
       19655000	      1964	80004f34	9a67c397	auipc	x7,0x9a67c	  x7=0x1a680f30
       19665000	      1965	80004f38	00338fb3	add	x31,x7,x3	  x7:0x1a680f30  x3:0x00000000 x31=0x1a680f30
       19675000	      1966	80004f3c	015cd813	srli	x16,x25,0x15	 x25:0x80009f44 x16=0x00000400
       19685000	      1967	80004f40	41d3dd93	srai	x27,x7,0x1d	  x7:0x1a680f30 x27=0x00000000
       19695000	      1968	80004f44	01be0c63	beq	x28,x27,80004f5c	 x28:0x00000000 x27:0x00000000
       19705000	      1969	00000000	00000013	addi	x0,x0,0	  x0:0x00000000
       19715000	      1970	80004f58	00000013	addi	x0,x0,0	  x0:0x00000000
       19725000	      1971	80004f5c	00000013	addi	x0,x0,0	  x0:0x00000000
       19735000	      1972	80004f60	ed211217	auipc	x4,0xed211	  x4=0x6d215f5c
       19745000	      1973	80004f64	00f91463	bne	x18,x15,80004f6c	 x18:0x00000001 x15:0x00000000
       19755000	      1974	00000000	00000013	addi	x0,x0,0	  x0:0x00000000
       19765000	      1975	80004f68	00000013	addi	x0,x0,0	  x0:0x00000000
       19775000	      1976	80004f6c	004f8cb3	add	x25,x31,x4	 x31:0x1a680f30  x4:0x6d215f5c x25=0x87896e8c
       19785000	      1977	80004f70	003d5a63	bge	x26,x3,80004f84	 x26:0xe9d22320  x3:0x00000000
       19795000	      1978	80004f74	6a4c0393	addi	x7,x24,1700	 x24:0x00000000  x7=0x000006a4
       19805000	      1979	80004f78	bd59e697	auipc	x13,0xbd59e	 x13=0x3d5a2f74
       19815000	      1980	80004f7c	01968db3	add	x27,x13,x25	 x13:0x3d5a2f74 x25:0x87896e8c x27=0xc4e39e00
       19825000	      1981	80004f80	40a108b3	sub	x17,x2,x10	  x2:0xee9d2232 x10:0x00000000 x17=0xee9d2232
       19835000	      1982	80004f84	00fce1b3	or	x3,x25,x15	 x25:0x87896e8c x15:0x00000000  x3=0x87896e8c
       19845000	      1983	80004f88	b7fda213	slti	x4,x27,-1153	 x27:0xc4e39e00  x4=0x00000001
       19855000	      1984	80004f8c	57518993	addi	x19,x3,1397	  x3:0x87896e8c x19=0x87897401
       19865000	      1985	80004f90	38e4b293	sltiu	x5,x9,910	  x9:0xfffffc4a  x5=0x00000000
       19875000	      1986	80004f94	ce907393	andi	x7,x0,-791	  x0:0x00000000  x7=0x00000000
       19885000	      1987	80004f98	10ebef93	ori	x31,x23,270	 x23:0x1162dca4 x31=0x1162ddae
       19895000	      1988	80004f9c	01c49a63	bne	x9,x28,80004fb0	  x9:0xfffffc4a x28:0x00000000
       19905000	      1989	00000000	00000013	addi	x0,x0,0	  x0:0x00000000
       19915000	      1990	80004fac	00000013	addi	x0,x0,0	  x0:0x00000000
       19925000	      1991	80004fb0	41e9d6b3	sra	x13,x19,x30	 x19:0x87897401 x30:0x00000000 x13=0x87897401
       19935000	      1992	80004fb4	40070cb3	sub	x25,x14,x0	 x14:0x00040000  x0:0x00000000 x25=0x00040000
       19945000	      1993	80004fb8	01bb1033	sll	x0,x22,x27	 x22:0x00000001 x27:0xc4e39e00
       19955000	      1994	80004fbc	0432c063	blt	x5,x3,80004ffc	  x5:0x00000000  x3:0x87896e8c
       19965000	      1995	80004fc0	04c6e863	bltu	x13,x12,80005010	 x13:0x87897401 x12:0x008b16e5
       19975000	      1996	80004fc4	820c7597	auipc	x11,0x820c7	 x11=0x020cbfc0
       19985000	      1997	80004fc8	01d529b3	slt	x19,x10,x29	 x10:0x00000000 x29:0x00000000 x19=0x00000000
       19995000	      1998	80004fcc	e84cec17	auipc	x24,0xe84ce	 x24=0x684d2fc8
       20005000	      1999	80004fd0	01ddfcb3	and	x25,x27,x29	 x27:0xc4e39e00 x29:0x00000000 x25=0x00000000
       20015000	      2000	80004fd4	01b1d463	bge	x3,x27,80004fdc	  x3:0x87896e8c x27:0xc4e39e00
       20025000	      2001	80004fd8	002570b3	and	x1,x10,x2	 x10:0x00000000  x2:0xee9d2232  x1=0x00000000
       20035000	      2002	80004fdc	00ca21b3	slt	x3,x20,x12	 x20:0x80009f44 x12:0x008b16e5  x3=0x00000001
       20045000	      2003	80004fe0	00b9f263	bgeu	x19,x11,80004fe4	 x19:0x00000000 x11:0x020cbfc0
       20055000	      2004	80004fe4	00000013	addi	x0,x0,0	  x0:0x00000000
       20065000	      2005	80004fe8	41d305b3	sub	x11,x6,x29	  x6:0x0000000e x29:0x00000000 x11=0x0000000e
       20075000	      2006	80004fec	2ecf6813	ori	x16,x30,748	 x30:0x00000000 x16=0x000002ec
       20085000	      2007	80004ff0	e37b0037	lui	x0,0xe37b0	
       20095000	      2008	80004ff4	2c937b13	andi	x22,x6,713	  x6:0x0000000e x22=0x00000008
       20105000	      2009	80004ff8	00de91b3	sll	x3,x29,x13	 x29:0x00000000 x13:0x87897401  x3=0x00000000
       20115000	      2010	80004ffc	3855c497	auipc	x9,0x3855c	  x9=0xb8560ff8
       20125000	      2011	80005000	02ec6063	bltu	x24,x14,80005020	 x24:0x684d2fc8 x14:0x00040000
       20135000	      2012	80005004	3553b913	sltiu	x18,x7,853	  x7:0x00000000 x18=0x00000001
       20145000	      2013	80005008	01df8933	add	x18,x31,x29	 x31:0x1162ddae x29:0x00000000 x18=0x1162ddae
       20155000	      2014	8000500c	400a5b93	srai	x23,x20,0x0	 x20:0x80009f44 x23=0x80009f44
       20165000	      2015	80005010	e0018493	addi	x9,x3,-512	  x3:0x00000000  x9=0xfffffe00
       20175000	      2016	80005014	01c2f533	and	x10,x5,x28	  x5:0x00000000 x28:0x00000000 x10=0x00000000
       20185000	      2017	80005018	b37049b7	lui	x19,0xb3704	 x19=0xb3704000
       20195000	      2018	8000501c	b2b56cb7	lui	x25,0xb2b56	 x25=0xb2b56000
       20205000	      2019	80005020	047d1663	bne	x26,x7,8000506c	 x26:0xe9d22320  x7:0x00000000
       20215000	      2020	00000000	00000013	addi	x0,x0,0	  x0:0x00000000
       20225000	      2021	80005068	00000013	addi	x0,x0,0	  x0:0x00000000
       20235000	      2022	8000506c	02557e63	bgeu	x10,x5,800050a8	 x10:0x00000000  x5:0x00000000
       20245000	      2023	00000000	00000013	addi	x0,x0,0	  x0:0x00000000
       20255000	      2024	800050a4	00000013	addi	x0,x0,0	  x0:0x00000000
       20265000	      2025	800050a8	005a6db3	or	x27,x20,x5	 x20:0x80009f44  x5:0x00000000 x27=0x80009f44
       20275000	      2026	800050ac	47e52e93	slti	x29,x10,1150	 x10:0x00000000 x29=0x00000001
       20285000	      2027	800050b0	beb9f193	andi	x3,x19,-1045	 x19:0xb3704000  x3=0xb3704000
       20295000	      2028	800050b4	01c3f033	and	x0,x7,x28	  x7:0x00000000 x28:0x00000000
       20305000	      2029	800050b8	03104a63	blt	x0,x17,800050ec	  x0:0x00000000 x17:0xee9d2232
       20315000	      2030	800050bc	40865233	sra	x4,x12,x8	 x12:0x008b16e5  x8:0x80009fc4  x4=0x0008b16e
       20325000	      2031	800050c0	01123933	sltu	x18,x4,x17	  x4:0x0008b16e x17:0xee9d2232 x18=0x00000001
       20335000	      2032	800050c4	01364463	blt	x12,x19,800050cc	 x12:0x008b16e5 x19:0xb3704000
       20345000	      2033	800050c8	014f5c63	bge	x30,x20,800050e0	 x30:0x00000000 x20:0x80009f44
       20355000	      2034	00000000	00000013	addi	x0,x0,0	  x0:0x00000000
       20365000	      2035	800050dc	00000013	addi	x0,x0,0	  x0:0x00000000
       20375000	      2036	800050e0	11c33cb7	lui	x25,0x11c33	 x25=0x11c33000
       20385000	      2037	800050e4	410e0b33	sub	x22,x28,x16	 x28:0x00000000 x16:0x000002ec x22=0xfffffd14
       20395000	      2038	800050e8	672da713	slti	x14,x27,1650	 x27:0x80009f44 x14=0x00000001
       20405000	      2039	800050ec	0238cc63	blt	x17,x3,80005124	 x17:0xee9d2232  x3:0xb3704000
       20415000	      2040	800050f0	afd23d13	sltiu	x26,x4,-1283	  x4:0x0008b16e x26=0x00000001
       20425000	      2041	800050f4	01a180b3	add	x1,x3,x26	  x3:0xb3704000 x26:0x00000001  x1=0xb3704001
       20435000	      2042	800050f8	0595d663	bge	x11,x25,80005144	 x11:0x0000000e x25:0x11c33000
       20445000	      2043	800050fc	02568a63	beq	x13,x5,80005130	 x13:0x87897401  x5:0x00000000
       20455000	      2044	80005100	00b65c63	bge	x12,x11,80005118	 x12:0x008b16e5 x11:0x0000000e
       20465000	      2045	00000000	00000013	addi	x0,x0,0	  x0:0x00000000
       20475000	      2046	80005114	00000013	addi	x0,x0,0	  x0:0x00000000
       20485000	      2047	80005118	40f9d633	sra	x12,x19,x15	 x19:0xb3704000 x15:0x00000000 x12=0xb3704000
       20495000	      2048	8000511c	00accc63	blt	x25,x10,80005134	 x25:0x11c33000 x10:0x00000000
       20505000	      2049	80005120	01fe5133	srl	x2,x28,x31	 x28:0x00000000 x31:0x1162ddae  x2=0x00000000
       20515000	      2050	80005124	0142d993	srli	x19,x5,0x14	  x5:0x00000000 x19=0x00000000
       20525000	      2051	80005128	04284263	blt	x16,x2,8000516c	 x16:0x000002ec  x2:0x00000000
       20535000	      2052	8000512c	00fb34b3	sltu	x9,x22,x15	 x22:0xfffffd14 x15:0x00000000  x9=0x00000000
       20545000	      2053	80005130	00411a63	bne	x2,x4,80005144	  x2:0x00000000  x4:0x0008b16e
       20555000	      2054	00000000	00000013	addi	x0,x0,0	  x0:0x00000000
       20565000	      2055	80005140	00000013	addi	x0,x0,0	  x0:0x00000000
       20575000	      2056	80005144	09e1c9b7	lui	x19,0x9e1c	 x19=0x09e1c000
       20585000	      2057	80005148	a5a3c093	xori	x1,x7,-1446	  x7:0x00000000  x1=0xfffffa5a
       20595000	      2058	8000514c	40895bb3	sra	x23,x18,x8	 x18:0x00000001  x8:0x80009fc4 x23=0x00000000
       20605000	      2059	80005150	953cc613	xori	x12,x25,-1709	 x25:0x11c33000 x12=0xee3cc953
       20615000	      2060	80005154	406e8933	sub	x18,x29,x6	 x29:0x00000001  x6:0x0000000e x18=0xfffffff3
       20625000	      2061	80005158	01ff26b3	slt	x13,x30,x31	 x30:0x00000000 x31:0x1162ddae x13=0x00000001
       20635000	      2062	8000515c	05a40063	beq	x8,x26,8000519c	  x8:0x80009fc4 x26:0x00000001
       20645000	      2063	80005160	01703833	sltu	x16,x0,x23	  x0:0x00000000 x23:0x00000000 x16=0x00000000
       20655000	      2064	80005164	01387db3	and	x27,x16,x19	 x16:0x00000000 x19:0x09e1c000 x27=0x00000000
       20665000	      2065	80005168	41b85b93	srai	x23,x16,0x1b	 x16:0x00000000 x23=0x00000000
       20675000	      2066	8000516c	0176ce63	blt	x13,x23,80005188	 x13:0x00000001 x23:0x00000000
       20685000	      2067	80005170	ab2a7093	andi	x1,x20,-1358	 x20:0x80009f44  x1=0x80009a00
       20695000	      2068	80005174	ed732b97	auipc	x23,0xed732	 x23=0x6d737170
       20705000	      2069	80005178	01efa833	slt	x16,x31,x30	 x31:0x1162ddae x30:0x00000000 x16=0x00000000
       20715000	      2070	8000517c	2c7c4913	xori	x18,x24,711	 x24:0x684d2fc8 x18=0x684d2d0f
       20725000	      2071	80005180	6b84a0b7	lui	x1,0x6b84a	  x1=0x6b84a000
       20735000	      2072	80005184	ad457293	andi	x5,x10,-1324	 x10:0x00000000  x5=0x00000000
       20745000	      2073	80005188	058ce063	bltu	x25,x24,800051c8	 x25:0x11c33000 x24:0x684d2fc8
       20755000	      2074	00000000	00000013	addi	x0,x0,0	  x0:0x00000000
       20765000	      2075	800051c4	00000013	addi	x0,x0,0	  x0:0x00000000
       20775000	      2076	800051c8	008ff863	bgeu	x31,x8,800051d8	 x31:0x1162ddae  x8:0x80009fc4
       20785000	      2077	800051cc	be0c8193	addi	x3,x25,-1056	 x25:0x11c33000  x3=0x11c32be0
       20795000	      2078	800051d0	41260633	sub	x12,x12,x18	 x12:0xee3cc953 x18:0x684d2d0f x12=0x85ef9c44
       20805000	      2079	800051d4	40b30f33	sub	x30,x6,x11	  x6:0x0000000e x11:0x0000000e x30=0x00000000
       20815000	      2080	800051d8	01029533	sll	x10,x5,x16	  x5:0x00000000 x16:0x00000000 x10=0x00000000
       20825000	      2081	800051dc	01ee4663	blt	x28,x30,800051e8	 x28:0x00000000 x30:0x00000000
       20835000	      2082	800051e0	03f8e463	bltu	x17,x31,80005208	 x17:0xee9d2232 x31:0x1162ddae
       20845000	      2083	800051e4	c832bd17	auipc	x26,0xc832b	 x26=0x483301e0
       20855000	      2084	800051e8	01404263	blt	x0,x20,800051ec	  x0:0x00000000 x20:0x80009f44
       20865000	      2085	800051ec	0066b4b3	sltu	x9,x13,x6	 x13:0x00000001  x6:0x0000000e  x9=0x00000001
       20875000	      2086	800051f0	057c6793	ori	x15,x24,87	 x24:0x684d2fc8 x15=0x684d2fdf
       20885000	      2087	800051f4	c6245717	auipc	x14,0xc6245	 x14=0x4624a1f0
       20895000	      2088	800051f8	ff88a513	slti	x10,x17,-8	 x17:0xee9d2232 x10=0x00000001
       20905000	      2089	800051fc	01f7fd33	and	x26,x15,x31	 x15:0x684d2fdf x31:0x1162ddae x26=0x00400d8e
       20915000	      2090	80005200	001a2bb3	slt	x23,x20,x1	 x20:0x80009f44  x1:0x6b84a000 x23=0x00000001
       20925000	      2091	80005204	003434b3	sltu	x9,x8,x3	  x8:0x80009fc4  x3:0x11c32be0  x9=0x00000000
       20935000	      2092	80005208	0123b1b3	sltu	x3,x7,x18	  x7:0x00000000 x18:0x684d2d0f  x3=0x00000001
       20945000	      2093	8000520c	04bec063	blt	x29,x11,8000524c	 x29:0x00000001 x11:0x0000000e
       20955000	      2094	00000000	00000013	addi	x0,x0,0	  x0:0x00000000
       20965000	      2095	80005248	00000013	addi	x0,x0,0	  x0:0x00000000
       20975000	      2096	8000524c	940b76b7	lui	x13,0x940b7	 x13=0x940b7000
       20985000	      2097	80005250	009f25b3	slt	x11,x30,x9	 x30:0x00000000  x9:0x00000000 x11=0x00000000
       20995000	      2098	80005254	0024ddb3	srl	x27,x9,x2	  x9:0x00000000  x2:0x00000000 x27=0x00000000
       21005000	      2099	80005258	b56bef13	ori	x30,x23,-1194	 x23:0x00000001 x30=0xfffffb57
       21015000	      2100	8000525c	0008d9b3	srl	x19,x17,x0	 x17:0xee9d2232  x0:0x00000000 x19=0xee9d2232
       21025000	      2101	80005260	02382993	slti	x19,x16,35	 x16:0x00000000 x19=0x00000001
       21035000	      2102	80005264	00852033	slt	x0,x10,x8	 x10:0x00000001  x8:0x80009fc4
       21045000	      2103	80005268	026b9063	bne	x23,x6,80005288	 x23:0x00000001  x6:0x0000000e
       21055000	      2104	00000000	00000013	addi	x0,x0,0	  x0:0x00000000
       21065000	      2105	80005284	00000013	addi	x0,x0,0	  x0:0x00000000
       21075000	      2106	80005288	00606c33	or	x24,x0,x6	  x0:0x00000000  x6:0x0000000e x24=0x0000000e
       21085000	      2107	8000528c	01e2d2b3	srl	x5,x5,x30	  x5:0x00000000 x30:0xfffffb57  x5=0x00000000
       21095000	      2108	80005290	014a74b3	and	x9,x20,x20	 x20:0x80009f44 x20:0x80009f44  x9=0x80009f44
       21105000	      2109	80005294	00000013	addi	x0,x0,0	  x0:0x00000000
       21115000	      2110	80005298	005e41b3	xor	x3,x28,x5	 x28:0x00000000  x5:0x00000000  x3=0x00000000
       21125000	      2111	8000529c	02455e63	bge	x10,x4,800052d8	 x10:0x00000001  x4:0x0008b16e
       21135000	      2112	800052a0	87aa65b7	lui	x11,0x87aa6	 x11=0x87aa6000
       21145000	      2113	800052a4	e12d4b13	xori	x22,x26,-494	 x26:0x00400d8e x22=0xffbff39c
       21155000	      2114	800052a8	00f748b3	xor	x17,x14,x15	 x14:0x4624a1f0 x15:0x684d2fdf x17=0x2e698e2f
       21165000	      2115	800052ac	012a9633	sll	x12,x21,x18	 x21:0x00000000 x18:0x684d2d0f x12=0x00000000
       21175000	      2116	800052b0	016d2db3	slt	x27,x26,x22	 x26:0x00400d8e x22:0xffbff39c x27=0x00000000
       21185000	      2117	800052b4	0054b7b3	sltu	x15,x9,x5	  x9:0x80009f44  x5:0x00000000 x15=0x00000000
       21195000	      2118	800052b8	000579b3	and	x19,x10,x0	 x10:0x00000001  x0:0x00000000 x19=0x00000000
       21205000	      2119	800052bc	b3de0513	addi	x10,x28,-1219	 x28:0x00000000 x10=0xfffffb3d
       21215000	      2120	800052c0	01b2b533	sltu	x10,x5,x27	  x5:0x00000000 x27:0x00000000 x10=0x00000000
       21225000	      2121	800052c4	e3386493	ori	x9,x16,-461	 x16:0x00000000  x9=0xfffffe33
       21235000	      2122	800052c8	00081993	slli	x19,x16,0x0	 x16:0x00000000 x19=0x00000000
       21245000	      2123	800052cc	3c5b4d17	auipc	x26,0x3c5b4	 x26=0xbc5b92c8
       21255000	      2124	800052d0	01e71d13	slli	x26,x14,0x1e	 x14:0x4624a1f0 x26=0x00000000
       21265000	      2125	800052d4	012025b3	slt	x11,x0,x18	  x0:0x00000000 x18:0x684d2d0f x11=0x00000001
       21275000	      2126	800052d8	017fb093	sltiu	x1,x31,23	 x31:0x1162ddae  x1=0x00000000
       21285000	      2127	800052dc	2ced8993	addi	x19,x27,718	 x27:0x00000000 x19=0x000002ce
       21295000	      2128	800052e0	03acfa63	bgeu	x25,x26,80005314	 x25:0x11c33000 x26:0x00000000
       21305000	      2129	00000000	00000013	addi	x0,x0,0	  x0:0x00000000
       21315000	      2130	80005310	00000013	addi	x0,x0,0	  x0:0x00000000
       21325000	      2131	80005314	019d24b3	slt	x9,x26,x25	 x26:0x00000000 x25:0x11c33000  x9=0x00000001
       21335000	      2132	80005318	013f7463	bgeu	x30,x19,80005320	 x30:0xfffffb57 x19:0x000002ce
       21345000	      2133	00000000	00000013	addi	x0,x0,0	  x0:0x00000000
       21355000	      2134	8000531c	00000013	addi	x0,x0,0	  x0:0x00000000
       21365000	      2135	80005320	00c79933	sll	x18,x15,x12	 x15:0x00000000 x12:0x00000000 x18=0x00000000
       21375000	      2136	80005324	4027dcb3	sra	x25,x15,x2	 x15:0x00000000  x2:0x00000000 x25=0x00000000
       21385000	      2137	80005328	01045013	srli	x0,x8,0x10	  x8:0x80009fc4
       21395000	      2138	8000532c	012dbcb3	sltu	x25,x27,x18	 x27:0x00000000 x18:0x00000000 x25=0x00000000
       21405000	      2139	80005330	cc87c493	xori	x9,x15,-824	 x15:0x00000000  x9=0xfffffcc8
       21415000	      2140	80005334	204e3493	sltiu	x9,x28,516	 x28:0x00000000  x9=0x00000001
       21425000	      2141	80005338	0c3c0893	addi	x17,x24,195	 x24:0x0000000e x17=0x000000d1
       21435000	      2142	8000533c	b54ae393	ori	x7,x21,-1196	 x21:0x00000000  x7=0xfffffb54
       21445000	      2143	80005340	f4fdbd13	sltiu	x26,x27,-177	 x27:0x00000000 x26=0x00000001
       21455000	      2144	80005344	e0c18e93	addi	x29,x3,-500	  x3:0x00000000 x29=0xfffffe0c
       21465000	      2145	80005348	04a5d063	bge	x11,x10,80005388	 x11:0x00000001 x10:0x00000000
       21475000	      2146	00000000	00000013	addi	x0,x0,0	  x0:0x00000000
       21485000	      2147	80005384	00000013	addi	x0,x0,0	  x0:0x00000000
       21495000	      2148	80005388	73aaa493	slti	x9,x21,1850	 x21:0x00000000  x9=0x00000001
       21505000	      2149	8000538c	8e060d13	addi	x26,x12,-1824	 x12:0x00000000 x26=0xfffff8e0
       21515000	      2150	80005390	39156537	lui	x10,0x39156	 x10=0x39156000
       21525000	      2151	80005394	419ed813	srai	x16,x29,0x19	 x29:0xfffffe0c x16=0xffffffff
       21535000	      2152	80005398	5ba38693	addi	x13,x7,1466	  x7:0xfffffb54 x13=0x0000010e
       21545000	      2153	8000539c	00000013	addi	x0,x0,0	  x0:0x00000000
       21555000	      2154	800053a0	b3842637	lui	x12,0xb3842	 x12=0xb3842000
       21565000	      2155	800053a4	011c7133	and	x2,x24,x17	 x24:0x0000000e x17:0x000000d1  x2=0x00000000
       21575000	      2156	800053a8	0157d633	srl	x12,x15,x21	 x15:0x00000000 x21:0x00000000 x12=0x00000000
       21585000	      2157	800053ac	41a2d693	srai	x13,x5,0x1a	  x5:0x00000000 x13=0x00000000
       21595000	      2158	800053b0	01fa0b33	add	x22,x20,x31	 x20:0x80009f44 x31:0x1162ddae x22=0x91637cf2
       21605000	      2159	800053b4	be842993	slti	x19,x8,-1048	  x8:0x80009fc4 x19=0x00000001
       21615000	      2160	800053b8	eb27bc93	sltiu	x25,x15,-334	 x15:0x00000000 x25=0x00000001
       21625000	      2161	800053bc	01118c33	add	x24,x3,x17	  x3:0x00000000 x17:0x000000d1 x24=0x000000d1
       21635000	      2162	800053c0	0167b1b3	sltu	x3,x15,x22	 x15:0x00000000 x22:0x91637cf2  x3=0x00000001
       21645000	      2163	800053c4	3e122913	slti	x18,x4,993	  x4:0x0008b16e x18=0x00000000
       21655000	      2164	800053c8	00071693	slli	x13,x14,0x0	 x14:0x4624a1f0 x13=0x4624a1f0
       21665000	      2165	800053cc	b59dea93	ori	x21,x27,-1191	 x27:0x00000000 x21=0xfffffb59
       21675000	      2166	800053d0	0228d463	bge	x17,x2,800053f8	 x17:0x000000d1  x2:0x00000000
       21685000	      2167	00000000	00000013	addi	x0,x0,0	  x0:0x00000000
       21695000	      2168	800053f4	00000013	addi	x0,x0,0	  x0:0x00000000
       21705000	      2169	800053f8	01dd6f33	or	x30,x26,x29	 x26:0xfffff8e0 x29:0xfffffe0c x30=0xfffffeec
       21715000	      2170	800053fc	04b26063	bltu	x4,x11,8000543c	  x4:0x0008b16e x11:0x00000001
       21725000	      2171	80005400	019f5db3	srl	x27,x30,x25	 x30:0xfffffeec x25:0x00000001 x27=0x7fffff76
       21735000	      2172	80005404	7125ee13	ori	x28,x11,1810	 x11:0x00000001 x28=0x00000713
       21745000	      2173	80005408	009a0933	add	x18,x20,x9	 x20:0x80009f44  x9:0x00000001 x18=0x80009f45
       21755000	      2174	8000540c	04da8063	beq	x21,x13,8000544c	 x21:0xfffffb59 x13:0x4624a1f0
       21765000	      2175	80005410	0159d533	srl	x10,x19,x21	 x19:0x00000001 x21:0xfffffb59 x10=0x00000000
       21775000	      2176	80005414	019c0a63	beq	x24,x25,80005428	 x24:0x000000d1 x25:0x00000001
       21785000	      2177	80005418	00630463	beq	x6,x6,80005420	  x6:0x0000000e  x6:0x0000000e
       21795000	      2178	00000000	00000013	addi	x0,x0,0	  x0:0x00000000
       21805000	      2179	8000541c	00000013	addi	x0,x0,0	  x0:0x00000000
       21815000	      2180	80005420	416e5693	srai	x13,x28,0x16	 x28:0x00000713 x13=0x00000000
       21825000	      2181	80005424	874d8093	addi	x1,x27,-1932	 x27:0x7fffff76  x1=0x7ffff7ea
       21835000	      2182	80005428	ac3718b7	lui	x17,0xac371	 x17=0xac371000
       21845000	      2183	8000542c	00f21493	slli	x9,x4,0xf	  x4:0x0008b16e  x9=0x58b70000
       21855000	      2184	80005430	01ba1813	slli	x16,x20,0x1b	 x20:0x80009f44 x16=0x20000000
       21865000	      2185	80005434	40a1d993	srai	x19,x3,0xa	  x3:0x00000001 x19=0x00000000
       21875000	      2186	80005438	8eb0c393	xori	x7,x1,-1813	  x1:0x7ffff7ea  x7=0x80000f01
       21885000	      2187	8000543c	ab087e93	andi	x29,x16,-1360	 x16:0x20000000 x29=0x20000000
       21895000	      2188	80005440	01495713	srli	x14,x18,0x14	 x18:0x80009f45 x14=0x00000800
       21905000	      2189	80005444	39b3b737	lui	x14,0x39b3b	 x14=0x39b3b000
       21915000	      2190	80005448	405cdd33	sra	x26,x25,x5	 x25:0x00000001  x5:0x00000000 x26=0x00000001
       21925000	      2191	8000544c	5e6c4213	xori	x4,x24,1510	 x24:0x000000d1  x4=0x00000537
       21935000	      2192	80005450	956f7993	andi	x19,x30,-1706	 x30:0xfffffeec x19=0xfffff844
       21945000	      2193	80005454	f9d5cb13	xori	x22,x11,-99	 x11:0x00000001 x22=0xffffff9c
       21955000	      2194	80005458	002f5113	srli	x2,x30,0x2	 x30:0xfffffeec  x2=0x3fffffbb
       21965000	      2195	8000545c	00b1a633	slt	x12,x3,x11	  x3:0x00000001 x11:0x00000001 x12=0x00000000
       21975000	      2196	80005460	9536f293	andi	x5,x13,-1709	 x13:0x00000000  x5=0x00000000
       21985000	      2197	80005464	019e79b3	and	x19,x28,x25	 x28:0x00000713 x25:0x00000001 x19=0x00000001
       21995000	      2198	80005468	41b65013	srai	x0,x12,0x1b	 x12:0x00000000
       22005000	      2199	8000546c	00760c33	add	x24,x12,x7	 x12:0x00000000  x7:0x80000f01 x24=0x80000f01
       22015000	      2200	80005470	41a5d593	srai	x11,x11,0x1a	 x11:0x00000001 x11=0x00000000
       22025000	      2201	80005474	414f5ab3	sra	x21,x30,x20	 x30:0xfffffeec x20:0x80009f44 x21=0xffffffee
       22035000	      2202	80005478	01cc0db3	add	x27,x24,x28	 x24:0x80000f01 x28:0x00000713 x27=0x80001614
       22045000	      2203	8000547c	fd187713	andi	x14,x16,-47	 x16:0x20000000 x14=0x20000000
       22055000	      2204	80005480	069000ef	jal	x1,80005480	  x1=0x80005480
       22065000	      2205	00000000	00000013	addi	x0,x0,0	  x0:0x00000000
       22075000	      2206	80005ce4	00000013	addi	x0,x0,0	  x0:0x00000000
       22085000	      2207	80005ce8	41f3d593	srai	x11,x7,0x1f	  x7:0x80000f01 x11=0xffffffff
       22095000	      2208	80005cec	fc0a0a13	addi	x20,x20,-64	 x20:0x80009f44 x20=0x80009f04
       22105000	      2209	80005cf0	9cb42217	auipc	x4,0x9cb42	  x4=0x1cb47cec
       22115000	      2210	80005cf4	001a2223	sw	x1,4(x20)	 x20:0x80009f04  x1:0x80005480 PA:0x80009f08
       22125000	      2211	80005cf8	00b51833	sll	x16,x10,x11	 x10:0x00000000 x11:0xffffffff x16=0x00000000
       22135000	      2212	80005cfc	419f5db3	sra	x27,x30,x25	 x30:0xfffffeec x25:0x00000001 x27=0xffffff76
       22145000	      2213	80005d00	002114b3	sll	x9,x2,x2	  x2:0x3fffffbb  x2:0x3fffffbb  x9=0xd8000000
       22155000	      2214	80005d04	9ba08737	lui	x14,0x9ba08	 x14=0x9ba08000
       22165000	      2215	80005d08	a35bae13	slti	x28,x23,-1483	 x23:0x00000001 x28=0x00000000
       22175000	      2216	80005d0c	0087f3b3	and	x7,x15,x8	 x15:0x00000000  x8:0x80009fc4  x7=0x00000000
       22185000	      2217	80005d10	eb5f7913	andi	x18,x30,-331	 x30:0xfffffeec x18=0xfffffea4
       22195000	      2218	80005d14	00bb9e33	sll	x28,x23,x11	 x23:0x00000001 x11:0xffffffff x28=0x80000000
       22205000	      2219	80005d18	0136fc63	bgeu	x13,x19,80005d30	 x13:0x00000000 x19:0x00000001
       22215000	      2220	80005d1c	003e19b3	sll	x19,x28,x3	 x28:0x80000000  x3:0x00000001 x19=0x00000000
       22225000	      2221	80005d20	00000013	addi	x0,x0,0	  x0:0x00000000
       22235000	      2222	80005d24	00ab70b3	and	x1,x22,x10	 x22:0xffffff9c x10:0x00000000  x1=0x00000000
       22245000	      2223	80005d28	9705a093	slti	x1,x11,-1680	 x11:0xffffffff  x1=0x00000000
       22255000	      2224	80005d2c	6d7cb213	sltiu	x4,x25,1751	 x25:0x00000001  x4=0x00000001
       22265000	      2225	80005d30	881ff0ef	jal	x1,80005d30	  x1=0x80005d30
       22275000	      2226	00000000	00000013	addi	x0,x0,0	  x0:0x00000000
       22285000	      2227	800055ac	00000013	addi	x0,x0,0	  x0:0x00000000
       22295000	      2228	800055b0	c8a0e213	ori	x4,x1,-886	  x1:0x80005d30  x4=0xfffffdba
       22305000	      2229	800055b4	615b0b13	addi	x22,x22,1557	 x22:0xffffff9c x22=0x000005b1
       22315000	      2230	800055b8	011b8eb3	add	x29,x23,x17	 x23:0x00000001 x17:0xac371000 x29=0xac371001
       22325000	      2231	800055bc	015369b3	or	x19,x6,x21	  x6:0x0000000e x21:0xffffffee x19=0xffffffee
       22335000	      2232	800055c0	fc0a0a13	addi	x20,x20,-64	 x20:0x80009f04 x20=0x80009ec4
       22345000	      2233	800055c4	001a2223	sw	x1,4(x20)	 x20:0x80009ec4  x1:0x80005d30 PA:0x80009ec8
       22355000	      2234	800055c8	01ffe6b3	or	x13,x31,x31	 x31:0x1162ddae x31:0x1162ddae x13=0x1162ddae
       22365000	      2235	800055cc	01ca7d33	and	x26,x20,x28	 x20:0x80009ec4 x28:0x80000000 x26=0x80000000
       22375000	      2236	800055d0	00003b17	auipc	x22,0x3	 x22=0x800085cc
       22385000	      2237	800055d4	f8cb0b13	addi	x22,x22,-116	 x22:0x800085cc x22=0x80008558
       22395000	      2238	800055d8	8a404793	xori	x15,x0,-1884	  x0:0x00000000 x15=0xfffff8a4
       22405000	      2239	800055dc	002a7033	and	x0,x20,x2	 x20:0x80009ec4  x2:0x3fffffbb
       22415000	      2240	800055e0	fd5b4903	lbu	x18,-43(x22)	 x22:0x80008558 x18=0x000000e6 PA:0x8000852d
       22425000	      2241	800055e4	f21b0f23	sb	x1,-194(x22)	 x22:0x80008558  x1:0x80005d30 PA:0x80008496
       22435000	      2242	800055e8	02eb0483	lb	x9,46(x22)	 x22:0x80008558  x9=0x0000003d PA:0x80008586
       22445000	      2243	800055ec	f6db4d03	lbu	x26,-147(x22)	 x22:0x80008558 x26=0x0000007e PA:0x800084c5
       22455000	      2244	800055f0	01e63e33	sltu	x28,x12,x30	 x12:0x00000000 x30:0xfffffeec x28=0x00000001
       22465000	      2245	800055f4	0037e7b3	or	x15,x15,x3	 x15:0xfffff8a4  x3:0x00000001 x15=0xfffff8a5
       22475000	      2246	800055f8	a89ac813	xori	x16,x21,-1399	 x21:0xffffffee x16=0x00000567
       22485000	      2247	800055fc	1851e093	ori	x1,x3,389	  x3:0x00000001  x1=0x00000185
       22495000	      2248	80005600	00db0703	lb	x14,13(x22)	 x22:0x80008558 x14=0x0000001e PA:0x80008565
       22505000	      2249	80005604	01ae93b3	sll	x7,x29,x26	 x29:0xac371001 x26:0x0000007e  x7=0x40000000
       22515000	      2250	80005608	099b4483	lbu	x9,153(x22)	 x22:0x80008558  x9=0x000000aa PA:0x800085f1
       22525000	      2251	8000560c	0fbb0d03	lb	x26,251(x22)	 x22:0x80008558 x26=0x00000008 PA:0x80008653
       22535000	      2252	80005610	f86b5e83	lhu	x29,-122(x22)	 x22:0x80008558 x29=0x00009495 PA:0x800084de
       22545000	      2253	80005614	feab4803	lbu	x16,-22(x22)	 x22:0x80008558 x16=0x000000f9 PA:0x80008542
       22555000	      2254	80005618	007d4d33	xor	x26,x26,x7	 x26:0x00000008  x7:0x40000000 x26=0x40000008
       22565000	      2255	8000561c	0a3b0023	sb	x3,160(x22)	 x22:0x80008558  x3:0x00000001 PA:0x800085f8
       22575000	      2256	80005620	00000013	addi	x0,x0,0	  x0:0x00000000
       22585000	      2257	80005624	f49b4383	lbu	x7,-183(x22)	 x22:0x80008558  x7=0x0000005a PA:0x800084a1
       22595000	      2258	80005628	01150733	add	x14,x10,x17	 x10:0x00000000 x17:0xac371000 x14=0xac371000
       22605000	      2259	8000562c	f8cb0b83	lb	x23,-116(x22)	 x22:0x80008558 x23=0xffffff9f PA:0x800084e4
       22615000	      2260	80005630	00dfedb3	or	x27,x31,x13	 x31:0x1162ddae x13:0x1162ddae x27=0x1162ddae
       22625000	      2261	80005634	00650f33	add	x30,x10,x6	 x10:0x00000000  x6:0x0000000e x30=0x0000000e
       22635000	      2262	80005638	0afb4083	lbu	x1,175(x22)	 x22:0x80008558  x1=0x000000bc PA:0x80008607
       22645000	      2263	8000563c	079b05a3	sb	x25,107(x22)	 x22:0x80008558 x25:0x00000001 PA:0x800085c3
       22655000	      2264	80005640	af51ad93	slti	x27,x3,-1291	  x3:0x00000001 x27=0x00000000
       22665000	      2265	80005644	11cd6193	ori	x3,x26,284	 x26:0x40000008  x3=0x4000011c
       22675000	      2266	80005648	418ed3b3	sra	x7,x29,x24	 x29:0x00009495 x24:0x80000f01  x7=0x00004a4a
       22685000	      2267	8000564c	041b4483	lbu	x9,65(x22)	 x22:0x80008558  x9=0x00000052 PA:0x80008599
       22695000	      2268	80005650	0c4b0aa3	sb	x4,213(x22)	 x22:0x80008558  x4:0xfffffdba PA:0x8000862d
       22705000	      2269	80005654	064b0da3	sb	x4,123(x22)	 x22:0x80008558  x4:0xfffffdba PA:0x800085d3
       22715000	      2270	80005658	f75b4483	lbu	x9,-139(x22)	 x22:0x80008558  x9=0x00000086 PA:0x800084cd
       22725000	      2271	00000000	00000013	addi	x0,x0,0	  x0:0x00000000
       22735000	      2272	8000565c	0c9b4f83	lbu	x31,201(x22)	 x22:0x80008558 x31=0x000000da PA:0x80008621
       22745000	      2273	80005660	018d2033	slt	x0,x26,x24	 x26:0x40000008 x24:0x80000f01
       22755000	      2274	80005664	71a56813	ori	x16,x10,1818	 x10:0x00000000 x16=0x0000071a
       22765000	      2275	80005668	f19b0f03	lb	x30,-231(x22)	 x22:0x80008558 x30=0x0000002a PA:0x80008471
       22775000	      2276	00000000	00000013	addi	x0,x0,0	  x0:0x00000000
       22785000	      2277	8000566c	ffeb0523	sb	x30,-22(x22)	 x22:0x80008558 x30:0x0000002a PA:0x80008542
       22795000	      2278	80005670	015b4983	lbu	x19,21(x22)	 x22:0x80008558 x19=0x00000026 PA:0x8000856d
       22805000	      2279	80005674	01d5d613	srli	x12,x11,0x1d	 x11:0xffffffff x12=0x00000007
       22815000	      2280	80005678	f09b4583	lbu	x11,-247(x22)	 x22:0x80008558 x11=0x0000001a PA:0x80008461
       22825000	      2281	8000567c	023b0503	lb	x10,35(x22)	 x22:0x80008558 x10=0x00000030 PA:0x8000857b
       22835000	      2282	80005680	350f8793	addi	x15,x31,848	 x31:0x000000da x15=0x0000042a
       22845000	      2283	80005684	3a6fe937	lui	x18,0x3a6fe	 x18=0x3a6fe000
       22855000	      2284	80005688	f47b0103	lb	x2,-185(x22)	 x22:0x80008558  x2=0x00000054 PA:0x8000849f
       22865000	      2285	8000568c	00003117	auipc	x2,0x3	  x2=0x80008688
       22875000	      2286	80005690	0c310113	addi	x2,x2,195	  x2:0x80008688  x2=0x8000874b
       22885000	      2287	80005694	645c2693	slti	x13,x24,1605	 x24:0x80000f01 x13=0x00000001
       22895000	      2288	80005698	fe110f23	sb	x1,-2(x2)	  x2:0x8000874b  x1:0x000000bc PA:0x80008749
       22905000	      2289	8000569c	ffd10ca3	sb	x29,-7(x2)	  x2:0x8000874b x29:0x00009495 PA:0x80008744
       22915000	      2290	800056a0	01f10823	sb	x31,16(x2)	  x2:0x8000874b x31:0x000000da PA:0x8000875b
       22925000	      2291	800056a4	00214c03	lbu	x24,2(x2)	  x2:0x8000874b x24=0x00000006 PA:0x8000874d
       22935000	      2292	800056a8	01e67b33	and	x22,x12,x30	 x12:0x00000007 x30:0x0000002a x22=0x00000002
       22945000	      2293	800056ac	00410c03	lb	x24,4(x2)	  x2:0x8000874b x24=0x00000004 PA:0x8000874f
       22955000	      2294	800056b0	016106a3	sb	x22,13(x2)	  x2:0x8000874b x22:0x00000002 PA:0x80008758
       22965000	      2295	800056b4	ffe10b23	sb	x30,-10(x2)	  x2:0x8000874b x30:0x0000002a PA:0x80008741
       22975000	      2296	800056b8	1fc8ad93	slti	x27,x17,508	 x17:0xac371000 x27=0x00000001
       22985000	      2297	800056bc	41998933	sub	x18,x19,x25	 x19:0x00000026 x25:0x00000001 x18=0x00000025
       22995000	      2298	800056c0	fea10fa3	sb	x10,-1(x2)	  x2:0x8000874b x10:0x00000030 PA:0x8000874a
       23005000	      2299	800056c4	00110183	lb	x3,1(x2)	  x2:0x8000874b  x3=0x00000007 PA:0x8000874c
       23015000	      2300	800056c8	0169d213	srli	x4,x19,0x16	 x19:0x00000026  x4=0x00000000
       23025000	      2301	800056cc	c7353d17	auipc	x26,0xc7353	 x26=0x473586c8
       23035000	      2302	800056d0	00d14683	lbu	x13,13(x2)	  x2:0x8000874b x13=0x00000002 PA:0x80008758
       23045000	      2303	800056d4	00014b83	lbu	x23,0(x2)	  x2:0x8000874b x23=0x00000000 PA:0x8000874b
       23055000	      2304	800056d8	00210383	lb	x7,2(x2)	  x2:0x8000874b  x7=0x00000006 PA:0x8000874d
       23065000	      2305	800056dc	ff010703	lb	x14,-16(x2)	  x2:0x8000874b x14=0xfffffff0 PA:0x8000873b
       23075000	      2306	800056e0	fe1108a3	sb	x1,-15(x2)	  x2:0x8000874b  x1:0x000000bc PA:0x8000873c
       23085000	      2307	800056e4	ff115283	lhu	x5,-15(x2)	  x2:0x8000874b  x5=0x0000f6bc PA:0x8000873c
       23095000	      2308	800056e8	018f9713	slli	x14,x31,0x18	 x31:0x000000da x14=0xda000000
       23105000	      2309	800056ec	012aa1b3	slt	x3,x21,x18	 x21:0xffffffee x18:0x00000025  x3=0x00000001
       23115000	      2310	800056f0	ff610da3	sb	x22,-5(x2)	  x2:0x8000874b x22:0x00000002 PA:0x80008746
       23125000	      2311	800056f4	a0a6a393	slti	x7,x13,-1526	 x13:0x00000002  x7=0x00000000
       23135000	      2312	800056f8	00e10823	sb	x14,16(x2)	  x2:0x8000874b x14:0xda000000 PA:0x8000875b
       23145000	      2313	800056fc	00831733	sll	x14,x6,x8	  x6:0x0000000e  x8:0x80009fc4 x14=0x000000e0
       23155000	      2314	80005700	406e5d13	srai	x26,x28,0x6	 x28:0x00000001 x26=0x00000000
       23165000	      2315	80005704	00ccb6b3	sltu	x13,x25,x12	 x25:0x00000001 x12:0x00000007 x13=0x00000001
       23175000	      2316	80005708	0187ad33	slt	x26,x15,x24	 x15:0x0000042a x24:0x00000004 x26=0x00000000
       23185000	      2317	8000570c	ffb11c03	lh	x24,-5(x2)	  x2:0x8000874b x24=0xfffffc02 PA:0x80008746
       23195000	      2318	80005710	5afd6bb7	lui	x23,0x5afd6	 x23=0x5afd6000
       23205000	      2319	80005714	c78ead93	slti	x27,x29,-904	 x29:0x00009495 x27=0x00000000
       23215000	      2320	80005718	00de58b3	srl	x17,x28,x13	 x28:0x00000001 x13:0x00000001 x17=0x00000000
       23225000	      2321	8000571c	00379193	slli	x3,x15,0x3	 x15:0x0000042a  x3=0x00002150
       23235000	      2322	80005720	002fce33	xor	x28,x31,x2	 x31:0x000000da  x2:0x8000874b x28=0x80008791
       23245000	      2323	80005724	02ec6e63	bltu	x24,x14,80005760	 x24:0xfffffc02 x14:0x000000e0
       23255000	      2324	80005728	01cd0663	beq	x26,x28,80005734	 x26:0x00000000 x28:0x80008791
       23265000	      2325	8000572c	71637293	andi	x5,x6,1814	  x6:0x0000000e  x5=0x00000006
       23275000	      2326	80005730	0219f063	bgeu	x19,x1,80005750	 x19:0x00000026  x1:0x000000bc
       23285000	      2327	80005734	028ec863	blt	x29,x8,80005764	 x29:0x00009495  x8:0x80009fc4
       23295000	      2328	80005738	4035d293	srai	x5,x11,0x3	 x11:0x0000001a  x5=0x00000003
       23305000	      2329	8000573c	0039c7b3	xor	x15,x19,x3	 x19:0x00000026  x3:0x00002150 x15=0x00002176
       23315000	      2330	80005740	23d0c613	xori	x12,x1,573	  x1:0x000000bc x12=0x00000281
       23325000	      2331	80005744	02b37863	bgeu	x6,x11,80005774	  x6:0x0000000e x11:0x0000001a
       23335000	      2332	80005748	03775663	bge	x14,x23,80005774	 x14:0x000000e0 x23:0x5afd6000
       23345000	      2333	8000574c	28959cb7	lui	x25,0x28959	 x25=0x28959000
       23355000	      2334	80005750	e9037fb7	lui	x31,0xe9037	 x31=0xe9037000
       23365000	      2335	80005754	5d81e493	ori	x9,x3,1496	  x3:0x00002150  x9=0x000025d8
       23375000	      2336	80005758	0193de63	bge	x7,x25,80005774	  x7:0x00000000 x25:0x28959000
       23385000	      2337	8000575c	418755b3	sra	x11,x14,x24	 x14:0x000000e0 x24:0xfffffc02 x11=0x00000038
       23395000	      2338	80005760	405d85b3	sub	x11,x27,x5	 x27:0x00000000  x5:0x00000003 x11=0xfffffffd
       23405000	      2339	80005764	75554e13	xori	x28,x10,1877	 x10:0x00000030 x28=0x00000765
       23415000	      2340	80005768	003e1863	bne	x28,x3,80005778	 x28:0x00000765  x3:0x00002150
       23425000	      2341	00000000	00000013	addi	x0,x0,0	  x0:0x00000000
       23435000	      2342	80005774	00000013	addi	x0,x0,0	  x0:0x00000000
       23445000	      2343	80005778	05e4d863	bge	x9,x30,800057c8	  x9:0x000025d8 x30:0x0000002a
       23455000	      2344	00000000	00000013	addi	x0,x0,0	  x0:0x00000000
       23465000	      2345	800057c4	00000013	addi	x0,x0,0	  x0:0x00000000
       23475000	      2346	800057c8	511fa913	slti	x18,x31,1297	 x31:0xe9037000 x18=0x00000001
       23485000	      2347	800057cc	00f454b3	srl	x9,x8,x15	  x8:0x80009fc4 x15:0x00002176  x9=0x00000200
       23495000	      2348	800057d0	00d21e63	bne	x4,x13,800057ec	  x4:0x00000000 x13:0x00000001
       23505000	      2349	00000000	00000013	addi	x0,x0,0	  x0:0x00000000
       23515000	      2350	800057e8	00000013	addi	x0,x0,0	  x0:0x00000000
       23525000	      2351	800057ec	0505e263	bltu	x11,x16,80005830	 x11:0xfffffffd x16:0x0000071a
       23535000	      2352	800057f0	8aa54213	xori	x4,x10,-1878	 x10:0x00000030  x4=0xfffff89a
       23545000	      2353	800057f4	005ee733	or	x14,x29,x5	 x29:0x00009495  x5:0x00000003 x14=0x00009497
       23555000	      2354	800057f8	ab41f213	andi	x4,x3,-1356	  x3:0x00002150  x4=0x00002010
       23565000	      2355	800057fc	01059863	bne	x11,x16,8000580c	 x11:0xfffffffd x16:0x0000071a
       23575000	      2356	00000000	00000013	addi	x0,x0,0	  x0:0x00000000
       23585000	      2357	80005808	00000013	addi	x0,x0,0	  x0:0x00000000
       23595000	      2358	8000580c	00662533	slt	x10,x12,x6	 x12:0x00000281  x6:0x0000000e x10=0x00000000
       23605000	      2359	80005810	00000013	addi	x0,x0,0	  x0:0x00000000
       23615000	      2360	80005814	49646d93	ori	x27,x8,1174	  x8:0x80009fc4 x27=0x80009fd6
       23625000	      2361	80005818	00d21663	bne	x4,x13,80005824	  x4:0x00002010 x13:0x00000001
       23635000	      2362	00000000	00000013	addi	x0,x0,0	  x0:0x00000000
       23645000	      2363	80005820	00000013	addi	x0,x0,0	  x0:0x00000000
       23655000	      2364	80005824	0149d733	srl	x14,x19,x20	 x19:0x00000026 x20:0x80009ec4 x14=0x00000002
       23665000	      2365	80005828	41605293	srai	x5,x0,0x16	  x0:0x00000000  x5=0x00000000
       23675000	      2366	8000582c	018fe863	bltu	x31,x24,8000583c	 x31:0xe9037000 x24:0xfffffc02
       23685000	      2367	00000000	00000013	addi	x0,x0,0	  x0:0x00000000
       23695000	      2368	80005838	00000013	addi	x0,x0,0	  x0:0x00000000
       23705000	      2369	8000583c	02e26e63	bltu	x4,x14,80005878	  x4:0x00002010 x14:0x00000002
       23715000	      2370	80005840	5dd8b093	sltiu	x1,x17,1501	 x17:0x00000000  x1=0x00000001
       23725000	      2371	80005844	05dcc863	blt	x25,x29,80005894	 x25:0x28959000 x29:0x00009495
       23735000	      2372	80005848	087aef13	ori	x30,x21,135	 x21:0xffffffee x30=0xffffffef
       23745000	      2373	8000584c	01abde63	bge	x23,x26,80005868	 x23:0x5afd6000 x26:0x00000000
       23755000	      2374	00000000	00000013	addi	x0,x0,0	  x0:0x00000000
       23765000	      2375	80005864	00000013	addi	x0,x0,0	  x0:0x00000000
       23775000	      2376	80005868	002e7d33	and	x26,x28,x2	 x28:0x00000765  x2:0x8000874b x26=0x00000741
       23785000	      2377	8000586c	0458d063	bge	x17,x5,800058ac	 x17:0x00000000  x5:0x00000000
       23795000	      2378	00000000	00000013	addi	x0,x0,0	  x0:0x00000000
       23805000	      2379	800058a8	00000013	addi	x0,x0,0	  x0:0x00000000
       23815000	      2380	800058ac	01549e63	bne	x9,x21,800058c8	  x9:0x00000200 x21:0xffffffee
       23825000	      2381	00000000	00000013	addi	x0,x0,0	  x0:0x00000000
       23835000	      2382	800058c4	00000013	addi	x0,x0,0	  x0:0x00000000
       23845000	      2383	800058c8	06ef1663	bne	x30,x14,80005934	 x30:0xffffffef x14:0x00000002
       23855000	      2384	00000000	00000013	addi	x0,x0,0	  x0:0x00000000
       23865000	      2385	80005930	00000013	addi	x0,x0,0	  x0:0x00000000
       23875000	      2386	80005934	01a94863	blt	x18,x26,80005944	 x18:0x00000001 x26:0x00000741
       23885000	      2387	00000000	00000013	addi	x0,x0,0	  x0:0x00000000
       23895000	      2388	80005940	00000013	addi	x0,x0,0	  x0:0x00000000
       23905000	      2389	80005944	01ea4ab3	xor	x21,x20,x30	 x20:0x80009ec4 x30:0xffffffef x21=0x7fff612b
       23915000	      2390	80005948	03107063	bgeu	x0,x17,80005968	  x0:0x00000000 x17:0x00000000
       23925000	      2391	00000000	00000013	addi	x0,x0,0	  x0:0x00000000
       23935000	      2392	80005964	00000013	addi	x0,x0,0	  x0:0x00000000
       23945000	      2393	80005968	006bca63	blt	x23,x6,8000597c	 x23:0x5afd6000  x6:0x0000000e
       23955000	      2394	8000596c	00bc52b3	srl	x5,x24,x11	 x24:0xfffffc02 x11:0xfffffffd  x5=0x00000007
       23965000	      2395	80005970	02f28863	beq	x5,x15,800059a0	  x5:0x00000007 x15:0x00002176
       23975000	      2396	80005974	01d14a63	blt	x2,x29,80005988	  x2:0x8000874b x29:0x00009495
       23985000	      2397	00000000	00000013	addi	x0,x0,0	  x0:0x00000000
       23995000	      2398	80005984	00000013	addi	x0,x0,0	  x0:0x00000000
       24005000	      2399	80005988	00000013	addi	x0,x0,0	  x0:0x00000000
       24015000	      2400	8000598c	aed31917	auipc	x18,0xaed31	 x18=0x2ed36988
       24025000	      2401	80005990	00ff6c63	bltu	x30,x15,800059a8	 x30:0xffffffef x15:0x00002176
       24035000	      2402	80005994	05b78863	beq	x15,x27,800059e4	 x15:0x00002176 x27:0x80009fd6
       24045000	      2403	80005998	2f058c93	addi	x25,x11,752	 x11:0xfffffffd x25=0x000002ed
       24055000	      2404	8000599c	01e9e133	or	x2,x19,x30	 x19:0x00000026 x30:0xffffffef  x2=0xffffffef
       24065000	      2405	800059a0	02aac663	blt	x21,x10,800059cc	 x21:0x7fff612b x10:0x00000000
       24075000	      2406	800059a4	005dc033	xor	x0,x27,x5	 x27:0x80009fd6  x5:0x00000007
       24085000	      2407	800059a8	04e2f063	bgeu	x5,x14,800059e8	  x5:0x00000007 x14:0x00000002
       24095000	      2408	00000000	00000013	addi	x0,x0,0	  x0:0x00000000
       24105000	      2409	800059e4	00000013	addi	x0,x0,0	  x0:0x00000000
       24115000	      2410	800059e8	002d1cb3	sll	x25,x26,x2	 x26:0x00000741  x2:0xffffffef x25=0x03a08000
       24125000	      2411	800059ec	019a7c33	and	x24,x20,x25	 x20:0x80009ec4 x25:0x03a08000 x24=0x00008000
       24135000	      2412	800059f0	00f6a3b3	slt	x7,x13,x15	 x13:0x00000001 x15:0x00002176  x7=0x00000001
       24145000	      2413	800059f4	045ad863	bge	x21,x5,80005a44	 x21:0x7fff612b  x5:0x00000007
       24155000	      2414	00000000	00000013	addi	x0,x0,0	  x0:0x00000000
       24165000	      2415	80005a40	00000013	addi	x0,x0,0	  x0:0x00000000
       24175000	      2416	80005a44	01d01e63	bne	x0,x29,80005a60	  x0:0x00000000 x29:0x00009495
       24185000	      2417	00000000	00000013	addi	x0,x0,0	  x0:0x00000000
       24195000	      2418	80005a5c	00000013	addi	x0,x0,0	  x0:0x00000000
       24205000	      2419	80005a60	12683f97	auipc	x31,0x12683	 x31=0x92688a5c
       24215000	      2420	80005a64	d9d97393	andi	x7,x18,-611	 x18:0x2ed36988  x7=0x2ed36988
       24225000	      2421	80005a68	01b29663	bne	x5,x27,80005a74	  x5:0x00000007 x27:0x80009fd6
       24235000	      2422	00000000	00000013	addi	x0,x0,0	  x0:0x00000000
       24245000	      2423	80005a70	00000013	addi	x0,x0,0	  x0:0x00000000
       24255000	      2424	80005a74	41718e33	sub	x28,x3,x23	  x3:0x00002150 x23:0x5afd6000 x28=0xa502c150
       24265000	      2425	80005a78	40c007b3	sub	x15,x0,x12	  x0:0x00000000 x12:0x00000281 x15=0xfffffd7f
       24275000	      2426	80005a7c	001b9f13	slli	x30,x23,0x1	 x23:0x5afd6000 x30=0xb5fac000
       24285000	      2427	80005a80	e23c0c37	lui	x24,0xe23c0	 x24=0xe23c0000
       24295000	      2428	80005a84	026bd863	bge	x23,x6,80005ab4	 x23:0x5afd6000  x6:0x0000000e
       24305000	      2429	00000000	00000013	addi	x0,x0,0	  x0:0x00000000
       24315000	      2430	80005ab0	00000013	addi	x0,x0,0	  x0:0x00000000
       24325000	      2431	80005ab4	0192f2b3	and	x5,x5,x25	  x5:0x00000007 x25:0x03a08000  x5=0x00000000
       24335000	      2432	80005ab8	0480d263	bge	x1,x8,80005afc	  x1:0x00000001  x8:0x80009fc4
       24345000	      2433	00000000	00000013	addi	x0,x0,0	  x0:0x00000000
       24355000	      2434	80005af8	00000013	addi	x0,x0,0	  x0:0x00000000
       24365000	      2435	80005afc	b511a813	slti	x16,x3,-1199	  x3:0x00002150 x16=0x00000000
       24375000	      2436	80005b00	d698c293	xori	x5,x17,-663	 x17:0x00000000  x5=0xfffffd69
       24385000	      2437	80005b04	053d8863	beq	x27,x19,80005b54	 x27:0x80009fd6 x19:0x00000026
       24395000	      2438	80005b08	409e8633	sub	x12,x29,x9	 x29:0x00009495  x9:0x00000200 x12=0x00009295
       24405000	      2439	80005b0c	4d967a93	andi	x21,x12,1241	 x12:0x00009295 x21=0x00000091
       24415000	      2440	80005b10	00b9a233	slt	x4,x19,x11	 x19:0x00000026 x11:0xfffffffd  x4=0x00000000
       24425000	      2441	80005b14	01f12bb3	slt	x23,x2,x31	  x2:0xffffffef x31:0x92688a5c x23=0x00000000
       24435000	      2442	80005b18	8122cb93	xori	x23,x5,-2030	  x5:0xfffffd69 x23=0x0000057b
       24445000	      2443	80005b1c	035fd063	bge	x31,x21,80005b3c	 x31:0x92688a5c x21:0x00000091
       24455000	      2444	80005b20	0094d9b3	srl	x19,x9,x9	  x9:0x00000200  x9:0x00000200 x19=0x00000200
       24465000	      2445	80005b24	00116663	bltu	x2,x1,80005b30	  x2:0xffffffef  x1:0x00000001
       24475000	      2446	80005b28	01563533	sltu	x10,x12,x21	 x12:0x00009295 x21:0x00000091 x10=0x00000000
       24485000	      2447	80005b2c	78b80793	addi	x15,x16,1931	 x16:0x00000000 x15=0x0000078b
       24495000	      2448	80005b30	4151d093	srai	x1,x3,0x15	  x3:0x00002150  x1=0x00000000
       24505000	      2449	80005b34	d93bc213	xori	x4,x23,-621	 x23:0x0000057b  x4=0xfffff8e8
       24515000	      2450	80005b38	01fdce63	blt	x27,x31,80005b54	 x27:0x80009fd6 x31:0x92688a5c
       24525000	      2451	00000000	00000013	addi	x0,x0,0	  x0:0x00000000
       24535000	      2452	80005b50	00000013	addi	x0,x0,0	  x0:0x00000000
       24545000	      2453	80005b54	014dd633	srl	x12,x27,x20	 x27:0x80009fd6 x20:0x80009ec4 x12=0x080009fd
       24555000	      2454	80005b58	05664663	blt	x12,x22,80005ba4	 x12:0x080009fd x22:0x00000002
       24565000	      2455	80005b5c	c5c65c37	lui	x24,0xc5c65	 x24=0xc5c65000
       24575000	      2456	80005b60	01108bb3	add	x23,x1,x17	  x1:0x00000000 x17:0x00000000 x23=0x00000000
       24585000	      2457	80005b64	01270c63	beq	x14,x18,80005b7c	 x14:0x00000002 x18:0x2ed36988
       24595000	      2458	80005b68	00984e33	xor	x28,x16,x9	 x16:0x00000000  x9:0x00000200 x28=0x00000200
       24605000	      2459	80005b6c	0067e863	bltu	x15,x6,80005b7c	 x15:0x0000078b  x6:0x0000000e
       24615000	      2460	80005b70	01855a93	srli	x21,x10,0x18	 x10:0x00000000 x21=0x00000000
       24625000	      2461	80005b74	42384893	xori	x17,x16,1059	 x16:0x00000000 x17=0x00000423
       24635000	      2462	80005b78	414d5613	srai	x12,x26,0x14	 x26:0x00000741 x12=0x00000000
       24645000	      2463	80005b7c	40670833	sub	x16,x14,x6	 x14:0x00000002  x6:0x0000000e x16=0xfffffff4
       24655000	      2464	80005b80	00a68633	add	x12,x13,x10	 x13:0x00000001 x10:0x00000000 x12=0x00000001
       24665000	      2465	80005b84	417382b3	sub	x5,x7,x23	  x7:0x2ed36988 x23:0x00000000  x5=0x2ed36988
       24675000	      2466	80005b88	fa4fa713	slti	x14,x31,-92	 x31:0x92688a5c x14=0x00000001
       24685000	      2467	80005b8c	00000013	addi	x0,x0,0	  x0:0x00000000
       24695000	      2468	80005b90	25cc3c13	sltiu	x24,x24,604	 x24:0xc5c65000 x24=0x00000000
       24705000	      2469	80005b94	008cb5b3	sltu	x11,x25,x8	 x25:0x03a08000  x8:0x80009fc4 x11=0x00000001
       24715000	      2470	80005b98	01aa65b3	or	x11,x20,x26	 x20:0x80009ec4 x26:0x00000741 x11=0x80009fc5
       24725000	      2471	80005b9c	ad894d97	auipc	x27,0xad894	 x27=0x2d899b98
       24735000	      2472	80005ba0	2da59817	auipc	x16,0x2da59	 x16=0xada5eb9c
       24745000	      2473	80005ba4	01072933	slt	x18,x14,x16	 x14:0x00000001 x16:0xada5eb9c x18=0x00000000
       24755000	      2474	80005ba8	3f333b93	sltiu	x23,x6,1011	  x6:0x0000000e x23=0x00000001
       24765000	      2475	80005bac	e275ad93	slti	x27,x11,-473	 x11:0x80009fc5 x27=0x00000001
       24775000	      2476	80005bb0	10bbca93	xori	x21,x23,267	 x23:0x00000001 x21=0x0000010a
       24785000	      2477	80005bb4	02339e63	bne	x7,x3,80005bf0	  x7:0x2ed36988  x3:0x00002150
       24795000	      2478	00000000	00000013	addi	x0,x0,0	  x0:0x00000000
       24805000	      2479	80005bec	00000013	addi	x0,x0,0	  x0:0x00000000
       24815000	      2480	80005bf0	0287c863	blt	x15,x8,80005c20	 x15:0x0000078b  x8:0x80009fc4
       24825000	      2481	80005bf4	03527663	bgeu	x4,x21,80005c20	  x4:0xfffff8e8 x21:0x0000010a
       24835000	      2482	00000000	00000013	addi	x0,x0,0	  x0:0x00000000
       24845000	      2483	80005c1c	00000013	addi	x0,x0,0	  x0:0x00000000
       24855000	      2484	80005c20	00039213	slli	x4,x7,0x0	  x7:0x2ed36988  x4=0x2ed36988
       24865000	      2485	80005c24	01f0dc33	srl	x24,x1,x31	  x1:0x00000000 x31:0x92688a5c x24=0x00000000
       24875000	      2486	80005c28	4086d0b3	sra	x1,x13,x8	 x13:0x00000001  x8:0x80009fc4  x1=0x00000000
       24885000	      2487	80005c2c	40f15233	sra	x4,x2,x15	  x2:0xffffffef x15:0x0000078b  x4=0xffffffff
       24895000	      2488	80005c30	02a57663	bgeu	x10,x10,80005c5c	 x10:0x00000000 x10:0x00000000
       24905000	      2489	00000000	00000013	addi	x0,x0,0	  x0:0x00000000
       24915000	      2490	80005c58	00000013	addi	x0,x0,0	  x0:0x00000000
       24925000	      2491	80005c5c	050c1063	bne	x24,x16,80005c9c	 x24:0x00000000 x16:0xada5eb9c
       24935000	      2492	00000000	00000013	addi	x0,x0,0	  x0:0x00000000
       24945000	      2493	80005c98	00000013	addi	x0,x0,0	  x0:0x00000000
       24955000	      2494	80005c9c	e893bc93	sltiu	x25,x7,-375	  x7:0x2ed36988 x25=0x00000001
       24965000	      2495	80005ca0	016d0e63	beq	x26,x22,80005cbc	 x26:0x00000741 x22:0x00000002
       24975000	      2496	80005ca4	00b926b3	slt	x13,x18,x11	 x18:0x00000000 x11:0x80009fc5 x13=0x00000000
       24985000	      2497	80005ca8	5f845997	auipc	x19,0x5f845	 x19=0xdf84aca4
       24995000	      2498	80005cac	1f31f3b7	lui	x7,0x1f31f	  x7=0x1f31f000
       25005000	      2499	80005cb0	00000013	addi	x0,x0,0	  x0:0x00000000
       25015000	      2500	80005cb4	00b86463	bltu	x16,x11,80005cbc	 x16:0xada5eb9c x11:0x80009fc5
       25025000	      2501	80005cb8	41c05393	srai	x7,x0,0x1c	  x0:0x00000000  x7=0x00000000
       25035000	      2502	80005cbc	6f24c613	xori	x12,x9,1778	  x9:0x00000200 x12=0x000004f2
       25045000	      2503	80005cc0	419e55b3	sra	x11,x28,x25	 x28:0x00000200 x25:0x00000001 x11=0x00000100
       25055000	      2504	80005cc4	004a2083	lw	x1,4(x20)	 x20:0x80009ec4  x1=0x80005d30 PA:0x80009ec8
       25065000	      2505	80005cc8	4081d393	srai	x7,x3,0x8	  x3:0x00002150  x7=0x00000021
       25075000	      2506	80005ccc	040a0a13	addi	x20,x20,64	 x20:0x80009ec4 x20=0x80009f04
       25085000	      2507	80005cd0	000b28b3	slt	x17,x22,x0	 x22:0x00000002  x0:0x00000000 x17=0x00000000
       25095000	      2508	80005cd4	01272eb3	slt	x29,x14,x18	 x14:0x00000001 x18:0x00000000 x29=0x00000000
       25105000	      2509	80005cd8	c1dfe813	ori	x16,x31,-995	 x31:0x92688a5c x16=0xfffffe5d
       25115000	      2510	80005cdc	40fbd2b3	sra	x5,x23,x15	 x23:0x00000001 x15:0x0000078b  x5=0x00000000
       25125000	      2511	80005ce0	00108893	addi	x17,x1,1	  x1:0x80005d30 x17=0x80005d31
       25135000	      2512	80005ce4	000888e7	jalr	x17,x17,0	 x17:0x80005d31 x17=0x80005ce4
       25145000	      2513	00000000	00000013	addi	x0,x0,0	  x0:0x00000000
       25155000	      2514	80005d30	00000013	addi	x0,x0,0	  x0:0x00000000
       25165000	      2515	80005d34	008e8eb3	add	x29,x29,x8	 x29:0x00000000  x8:0x80009fc4 x29=0x80009fc4
       25175000	      2516	80005d38	0367d463	bge	x15,x22,80005d60	 x15:0x0000078b x22:0x00000002
       25185000	      2517	00000000	00000013	addi	x0,x0,0	  x0:0x00000000
       25195000	      2518	80005d5c	00000013	addi	x0,x0,0	  x0:0x00000000
       25205000	      2519	80005d60	851ff0ef	jal	x1,80005d60	  x1=0x80005d60
       25215000	      2520	00000000	00000013	addi	x0,x0,0	  x0:0x00000000
       25225000	      2521	800055ac	00000013	addi	x0,x0,0	  x0:0x00000000
       25235000	      2522	800055b0	c8a0e213	ori	x4,x1,-886	  x1:0x80005d60  x4=0xfffffdea
       25245000	      2523	800055b4	615b0b13	addi	x22,x22,1557	 x22:0x00000002 x22=0x00000617
       25255000	      2524	800055b8	011b8eb3	add	x29,x23,x17	 x23:0x00000001 x17:0x80005ce4 x29=0x80005ce5
       25265000	      2525	800055bc	015369b3	or	x19,x6,x21	  x6:0x0000000e x21:0x0000010a x19=0x0000010e
       25275000	      2526	800055c0	fc0a0a13	addi	x20,x20,-64	 x20:0x80009f04 x20=0x80009ec4
       25285000	      2527	800055c4	001a2223	sw	x1,4(x20)	 x20:0x80009ec4  x1:0x80005d60 PA:0x80009ec8
       25295000	      2528	800055c8	01ffe6b3	or	x13,x31,x31	 x31:0x92688a5c x31:0x92688a5c x13=0x92688a5c
       25305000	      2529	800055cc	01ca7d33	and	x26,x20,x28	 x20:0x80009ec4 x28:0x00000200 x26=0x00000200
       25315000	      2530	800055d0	00003b17	auipc	x22,0x3	 x22=0x800085cc
       25325000	      2531	800055d4	f8cb0b13	addi	x22,x22,-116	 x22:0x800085cc x22=0x80008558
       25335000	      2532	800055d8	8a404793	xori	x15,x0,-1884	  x0:0x00000000 x15=0xfffff8a4
       25345000	      2533	800055dc	002a7033	and	x0,x20,x2	 x20:0x80009ec4  x2:0xffffffef
       25355000	      2534	800055e0	fd5b4903	lbu	x18,-43(x22)	 x22:0x80008558 x18=0x000000e6 PA:0x8000852d
       25365000	      2535	800055e4	f21b0f23	sb	x1,-194(x22)	 x22:0x80008558  x1:0x80005d60 PA:0x80008496
       25375000	      2536	800055e8	02eb0483	lb	x9,46(x22)	 x22:0x80008558  x9=0x0000003d PA:0x80008586
       25385000	      2537	800055ec	f6db4d03	lbu	x26,-147(x22)	 x22:0x80008558 x26=0x0000007e PA:0x800084c5
       25395000	      2538	800055f0	01e63e33	sltu	x28,x12,x30	 x12:0x000004f2 x30:0xb5fac000 x28=0x00000001
       25405000	      2539	800055f4	0037e7b3	or	x15,x15,x3	 x15:0xfffff8a4  x3:0x00002150 x15=0xfffff9f4
       25415000	      2540	800055f8	a89ac813	xori	x16,x21,-1399	 x21:0x0000010a x16=0xfffffb83
       25425000	      2541	800055fc	1851e093	ori	x1,x3,389	  x3:0x00002150  x1=0x000021d5
       25435000	      2542	80005600	00db0703	lb	x14,13(x22)	 x22:0x80008558 x14=0x0000001e PA:0x80008565
       25445000	      2543	80005604	01ae93b3	sll	x7,x29,x26	 x29:0x80005ce5 x26:0x0000007e  x7=0x40000000
       25455000	      2544	80005608	099b4483	lbu	x9,153(x22)	 x22:0x80008558  x9=0x000000aa PA:0x800085f1
       25465000	      2545	8000560c	0fbb0d03	lb	x26,251(x22)	 x22:0x80008558 x26=0x00000008 PA:0x80008653
       25475000	      2546	80005610	f86b5e83	lhu	x29,-122(x22)	 x22:0x80008558 x29=0x00009495 PA:0x800084de
       25485000	      2547	80005614	feab4803	lbu	x16,-22(x22)	 x22:0x80008558 x16=0x0000002a PA:0x80008542
       25495000	      2548	80005618	007d4d33	xor	x26,x26,x7	 x26:0x00000008  x7:0x40000000 x26=0x40000008
       25505000	      2549	8000561c	0a3b0023	sb	x3,160(x22)	 x22:0x80008558  x3:0x00002150 PA:0x800085f8
       25515000	      2550	80005620	00000013	addi	x0,x0,0	  x0:0x00000000
       25525000	      2551	80005624	f49b4383	lbu	x7,-183(x22)	 x22:0x80008558  x7=0x0000005a PA:0x800084a1
       25535000	      2552	80005628	01150733	add	x14,x10,x17	 x10:0x00000000 x17:0x80005ce4 x14=0x80005ce4
       25545000	      2553	8000562c	f8cb0b83	lb	x23,-116(x22)	 x22:0x80008558 x23=0xffffff9f PA:0x800084e4
       25555000	      2554	80005630	00dfedb3	or	x27,x31,x13	 x31:0x92688a5c x13:0x92688a5c x27=0x92688a5c
       25565000	      2555	80005634	00650f33	add	x30,x10,x6	 x10:0x00000000  x6:0x0000000e x30=0x0000000e
       25575000	      2556	80005638	0afb4083	lbu	x1,175(x22)	 x22:0x80008558  x1=0x000000bc PA:0x80008607
       25585000	      2557	8000563c	079b05a3	sb	x25,107(x22)	 x22:0x80008558 x25:0x00000001 PA:0x800085c3
       25595000	      2558	80005640	af51ad93	slti	x27,x3,-1291	  x3:0x00002150 x27=0x00000000
       25605000	      2559	80005644	11cd6193	ori	x3,x26,284	 x26:0x40000008  x3=0x4000011c
       25615000	      2560	80005648	418ed3b3	sra	x7,x29,x24	 x29:0x00009495 x24:0x00000000  x7=0x00009495
       25625000	      2561	8000564c	041b4483	lbu	x9,65(x22)	 x22:0x80008558  x9=0x00000052 PA:0x80008599
       25635000	      2562	80005650	0c4b0aa3	sb	x4,213(x22)	 x22:0x80008558  x4:0xfffffdea PA:0x8000862d
       25645000	      2563	80005654	064b0da3	sb	x4,123(x22)	 x22:0x80008558  x4:0xfffffdea PA:0x800085d3
       25655000	      2564	80005658	f75b4483	lbu	x9,-139(x22)	 x22:0x80008558  x9=0x00000086 PA:0x800084cd
       25665000	      2565	00000000	00000013	addi	x0,x0,0	  x0:0x00000000
       25675000	      2566	8000565c	0c9b4f83	lbu	x31,201(x22)	 x22:0x80008558 x31=0x000000da PA:0x80008621
       25685000	      2567	80005660	018d2033	slt	x0,x26,x24	 x26:0x40000008 x24:0x00000000
       25695000	      2568	80005664	71a56813	ori	x16,x10,1818	 x10:0x00000000 x16=0x0000071a
       25705000	      2569	80005668	f19b0f03	lb	x30,-231(x22)	 x22:0x80008558 x30=0x0000002a PA:0x80008471
       25715000	      2570	00000000	00000013	addi	x0,x0,0	  x0:0x00000000
       25725000	      2571	8000566c	ffeb0523	sb	x30,-22(x22)	 x22:0x80008558 x30:0x0000002a PA:0x80008542
       25735000	      2572	80005670	015b4983	lbu	x19,21(x22)	 x22:0x80008558 x19=0x00000026 PA:0x8000856d
       25745000	      2573	80005674	01d5d613	srli	x12,x11,0x1d	 x11:0x00000100 x12=0x00000000
       25755000	      2574	80005678	f09b4583	lbu	x11,-247(x22)	 x22:0x80008558 x11=0x0000001a PA:0x80008461
       25765000	      2575	8000567c	023b0503	lb	x10,35(x22)	 x22:0x80008558 x10=0x00000030 PA:0x8000857b
       25775000	      2576	80005680	350f8793	addi	x15,x31,848	 x31:0x000000da x15=0x0000042a
       25785000	      2577	80005684	3a6fe937	lui	x18,0x3a6fe	 x18=0x3a6fe000
       25795000	      2578	80005688	f47b0103	lb	x2,-185(x22)	 x22:0x80008558  x2=0x00000054 PA:0x8000849f
       25805000	      2579	8000568c	00003117	auipc	x2,0x3	  x2=0x80008688
       25815000	      2580	80005690	0c310113	addi	x2,x2,195	  x2:0x80008688  x2=0x8000874b
       25825000	      2581	80005694	645c2693	slti	x13,x24,1605	 x24:0x00000000 x13=0x00000001
       25835000	      2582	80005698	fe110f23	sb	x1,-2(x2)	  x2:0x8000874b  x1:0x000000bc PA:0x80008749
       25845000	      2583	8000569c	ffd10ca3	sb	x29,-7(x2)	  x2:0x8000874b x29:0x00009495 PA:0x80008744
       25855000	      2584	800056a0	01f10823	sb	x31,16(x2)	  x2:0x8000874b x31:0x000000da PA:0x8000875b
       25865000	      2585	800056a4	00214c03	lbu	x24,2(x2)	  x2:0x8000874b x24=0x00000006 PA:0x8000874d
       25875000	      2586	800056a8	01e67b33	and	x22,x12,x30	 x12:0x00000000 x30:0x0000002a x22=0x00000000
       25885000	      2587	800056ac	00410c03	lb	x24,4(x2)	  x2:0x8000874b x24=0x00000004 PA:0x8000874f
       25895000	      2588	800056b0	016106a3	sb	x22,13(x2)	  x2:0x8000874b x22:0x00000000 PA:0x80008758
       25905000	      2589	800056b4	ffe10b23	sb	x30,-10(x2)	  x2:0x8000874b x30:0x0000002a PA:0x80008741
       25915000	      2590	800056b8	1fc8ad93	slti	x27,x17,508	 x17:0x80005ce4 x27=0x00000001
       25925000	      2591	800056bc	41998933	sub	x18,x19,x25	 x19:0x00000026 x25:0x00000001 x18=0x00000025
       25935000	      2592	800056c0	fea10fa3	sb	x10,-1(x2)	  x2:0x8000874b x10:0x00000030 PA:0x8000874a
       25945000	      2593	800056c4	00110183	lb	x3,1(x2)	  x2:0x8000874b  x3=0x00000007 PA:0x8000874c
       25955000	      2594	800056c8	0169d213	srli	x4,x19,0x16	 x19:0x00000026  x4=0x00000000
       25965000	      2595	800056cc	c7353d17	auipc	x26,0xc7353	 x26=0x473586c8
       25975000	      2596	800056d0	00d14683	lbu	x13,13(x2)	  x2:0x8000874b x13=0x00000000 PA:0x80008758
       25985000	      2597	800056d4	00014b83	lbu	x23,0(x2)	  x2:0x8000874b x23=0x00000000 PA:0x8000874b
       25995000	      2598	800056d8	00210383	lb	x7,2(x2)	  x2:0x8000874b  x7=0x00000006 PA:0x8000874d
       26005000	      2599	800056dc	ff010703	lb	x14,-16(x2)	  x2:0x8000874b x14=0xfffffff0 PA:0x8000873b
       26015000	      2600	800056e0	fe1108a3	sb	x1,-15(x2)	  x2:0x8000874b  x1:0x000000bc PA:0x8000873c
       26025000	      2601	800056e4	ff115283	lhu	x5,-15(x2)	  x2:0x8000874b  x5=0x0000f6bc PA:0x8000873c
       26035000	      2602	800056e8	018f9713	slli	x14,x31,0x18	 x31:0x000000da x14=0xda000000
       26045000	      2603	800056ec	012aa1b3	slt	x3,x21,x18	 x21:0x0000010a x18:0x00000025  x3=0x00000000
       26055000	      2604	800056f0	ff610da3	sb	x22,-5(x2)	  x2:0x8000874b x22:0x00000000 PA:0x80008746
       26065000	      2605	800056f4	a0a6a393	slti	x7,x13,-1526	 x13:0x00000000  x7=0x00000000
       26075000	      2606	800056f8	00e10823	sb	x14,16(x2)	  x2:0x8000874b x14:0xda000000 PA:0x8000875b
       26085000	      2607	800056fc	00831733	sll	x14,x6,x8	  x6:0x0000000e  x8:0x80009fc4 x14=0x000000e0
       26095000	      2608	80005700	406e5d13	srai	x26,x28,0x6	 x28:0x00000001 x26=0x00000000
       26105000	      2609	80005704	00ccb6b3	sltu	x13,x25,x12	 x25:0x00000001 x12:0x00000000 x13=0x00000000
       26115000	      2610	80005708	0187ad33	slt	x26,x15,x24	 x15:0x0000042a x24:0x00000004 x26=0x00000000
       26125000	      2611	8000570c	ffb11c03	lh	x24,-5(x2)	  x2:0x8000874b x24=0xfffffc00 PA:0x80008746
       26135000	      2612	80005710	5afd6bb7	lui	x23,0x5afd6	 x23=0x5afd6000
       26145000	      2613	80005714	c78ead93	slti	x27,x29,-904	 x29:0x00009495 x27=0x00000000
       26155000	      2614	80005718	00de58b3	srl	x17,x28,x13	 x28:0x00000001 x13:0x00000000 x17=0x00000001
       26165000	      2615	8000571c	00379193	slli	x3,x15,0x3	 x15:0x0000042a  x3=0x00002150
       26175000	      2616	80005720	002fce33	xor	x28,x31,x2	 x31:0x000000da  x2:0x8000874b x28=0x80008791
       26185000	      2617	80005724	02ec6e63	bltu	x24,x14,80005760	 x24:0xfffffc00 x14:0x000000e0
       26195000	      2618	80005728	01cd0663	beq	x26,x28,80005734	 x26:0x00000000 x28:0x80008791
       26205000	      2619	8000572c	71637293	andi	x5,x6,1814	  x6:0x0000000e  x5=0x00000006
       26215000	      2620	80005730	0219f063	bgeu	x19,x1,80005750	 x19:0x00000026  x1:0x000000bc
       26225000	      2621	80005734	028ec863	blt	x29,x8,80005764	 x29:0x00009495  x8:0x80009fc4
       26235000	      2622	80005738	4035d293	srai	x5,x11,0x3	 x11:0x0000001a  x5=0x00000003
       26245000	      2623	8000573c	0039c7b3	xor	x15,x19,x3	 x19:0x00000026  x3:0x00002150 x15=0x00002176
       26255000	      2624	80005740	23d0c613	xori	x12,x1,573	  x1:0x000000bc x12=0x00000281
       26265000	      2625	80005744	02b37863	bgeu	x6,x11,80005774	  x6:0x0000000e x11:0x0000001a
       26275000	      2626	80005748	03775663	bge	x14,x23,80005774	 x14:0x000000e0 x23:0x5afd6000
       26285000	      2627	8000574c	28959cb7	lui	x25,0x28959	 x25=0x28959000
       26295000	      2628	80005750	e9037fb7	lui	x31,0xe9037	 x31=0xe9037000
       26305000	      2629	80005754	5d81e493	ori	x9,x3,1496	  x3:0x00002150  x9=0x000025d8
       26315000	      2630	80005758	0193de63	bge	x7,x25,80005774	  x7:0x00000000 x25:0x28959000
       26325000	      2631	8000575c	418755b3	sra	x11,x14,x24	 x14:0x000000e0 x24:0xfffffc00 x11=0x000000e0
       26335000	      2632	80005760	405d85b3	sub	x11,x27,x5	 x27:0x00000000  x5:0x00000003 x11=0xfffffffd
       26345000	      2633	80005764	75554e13	xori	x28,x10,1877	 x10:0x00000030 x28=0x00000765
       26355000	      2634	80005768	003e1863	bne	x28,x3,80005778	 x28:0x00000765  x3:0x00002150
       26365000	      2635	00000000	00000013	addi	x0,x0,0	  x0:0x00000000
       26375000	      2636	80005774	00000013	addi	x0,x0,0	  x0:0x00000000
       26385000	      2637	80005778	05e4d863	bge	x9,x30,800057c8	  x9:0x000025d8 x30:0x0000002a
       26395000	      2638	00000000	00000013	addi	x0,x0,0	  x0:0x00000000
       26405000	      2639	800057c4	00000013	addi	x0,x0,0	  x0:0x00000000
       26415000	      2640	800057c8	511fa913	slti	x18,x31,1297	 x31:0xe9037000 x18=0x00000001
       26425000	      2641	800057cc	00f454b3	srl	x9,x8,x15	  x8:0x80009fc4 x15:0x00002176  x9=0x00000200
       26435000	      2642	800057d0	00d21e63	bne	x4,x13,800057ec	  x4:0x00000000 x13:0x00000000
       26445000	      2643	800057d4	00215663	bge	x2,x2,800057e0	  x2:0x8000874b  x2:0x8000874b
       26455000	      2644	00000000	00000013	addi	x0,x0,0	  x0:0x00000000
       26465000	      2645	800057dc	00000013	addi	x0,x0,0	  x0:0x00000000
       26475000	      2646	800057e0	40c0d013	srai	x0,x1,0xc	  x1:0x000000bc
       26485000	      2647	800057e4	00e15e33	srl	x28,x2,x14	  x2:0x8000874b x14:0x000000e0 x28=0x8000874b
       26495000	      2648	800057e8	01bc7c63	bgeu	x24,x27,80005800	 x24:0xfffffc00 x27:0x00000000
       26505000	      2649	00000000	00000013	addi	x0,x0,0	  x0:0x00000000
       26515000	      2650	800057fc	00000013	addi	x0,x0,0	  x0:0x00000000
       26525000	      2651	80005800	418486b3	sub	x13,x9,x24	  x9:0x00000200 x24:0xfffffc00 x13=0x00000600
       26535000	      2652	80005804	d77b0993	addi	x19,x22,-649	 x22:0x00000000 x19=0xfffffd77
       26545000	      2653	80005808	01a628b3	slt	x17,x12,x26	 x12:0x00000281 x26:0x00000000 x17=0x00000000
       26555000	      2654	8000580c	00662533	slt	x10,x12,x6	 x12:0x00000281  x6:0x0000000e x10=0x00000000
       26565000	      2655	80005810	00000013	addi	x0,x0,0	  x0:0x00000000
       26575000	      2656	80005814	49646d93	ori	x27,x8,1174	  x8:0x80009fc4 x27=0x80009fd6
       26585000	      2657	80005818	00d21663	bne	x4,x13,80005824	  x4:0x00000000 x13:0x00000600
       26595000	      2658	00000000	00000013	addi	x0,x0,0	  x0:0x00000000
       26605000	      2659	80005820	00000013	addi	x0,x0,0	  x0:0x00000000
       26615000	      2660	80005824	0149d733	srl	x14,x19,x20	 x19:0xfffffd77 x20:0x80009ec4 x14=0x0fffffd7
       26625000	      2661	80005828	41605293	srai	x5,x0,0x16	  x0:0x00000000  x5=0x00000000
       26635000	      2662	8000582c	018fe863	bltu	x31,x24,8000583c	 x31:0xe9037000 x24:0xfffffc00
       26645000	      2663	00000000	00000013	addi	x0,x0,0	  x0:0x00000000
       26655000	      2664	80005838	00000013	addi	x0,x0,0	  x0:0x00000000
       26665000	      2665	8000583c	02e26e63	bltu	x4,x14,80005878	  x4:0x00000000 x14:0x0fffffd7
       26675000	      2666	00000000	00000013	addi	x0,x0,0	  x0:0x00000000
       26685000	      2667	80005874	00000013	addi	x0,x0,0	  x0:0x00000000
       26695000	      2668	80005878	00f86cb3	or	x25,x16,x15	 x16:0x0000071a x15:0x00002176 x25=0x0000277e
       26705000	      2669	8000587c	00d15233	srl	x4,x2,x13	  x2:0x8000874b x13:0x00000600  x4=0x8000874b
       26715000	      2670	80005880	b129c213	xori	x4,x19,-1262	 x19:0xfffffd77  x4=0x00000665
       26725000	      2671	80005884	0090a033	slt	x0,x1,x9	  x1:0x000000bc  x9:0x00000200
       26735000	      2672	80005888	03ba1063	bne	x20,x27,800058a8	 x20:0x80009ec4 x27:0x80009fd6
       26745000	      2673	00000000	00000013	addi	x0,x0,0	  x0:0x00000000
       26755000	      2674	800058a4	00000013	addi	x0,x0,0	  x0:0x00000000
       26765000	      2675	800058a8	ceba7713	andi	x14,x20,-789	 x20:0x80009ec4 x14=0x80009cc0
       26775000	      2676	800058ac	01549e63	bne	x9,x21,800058c8	  x9:0x00000200 x21:0x0000010a
       26785000	      2677	00000000	00000013	addi	x0,x0,0	  x0:0x00000000
       26795000	      2678	800058c4	00000013	addi	x0,x0,0	  x0:0x00000000
       26805000	      2679	800058c8	06ef1663	bne	x30,x14,80005934	 x30:0x0000002a x14:0x80009cc0
       26815000	      2680	00000000	00000013	addi	x0,x0,0	  x0:0x00000000
       26825000	      2681	80005930	00000013	addi	x0,x0,0	  x0:0x00000000
       26835000	      2682	80005934	01a94863	blt	x18,x26,80005944	 x18:0x00000001 x26:0x00000000
       26845000	      2683	80005938	4f760a93	addi	x21,x12,1271	 x12:0x00000281 x21=0x00000778
       26855000	      2684	8000593c	40088fb3	sub	x31,x17,x0	 x17:0x00000000  x0:0x00000000 x31=0x00000000
       26865000	      2685	80005940	40bb8bb3	sub	x23,x23,x11	 x23:0x5afd6000 x11:0xfffffffd x23=0x5afd6003
       26875000	      2686	80005944	01ea4ab3	xor	x21,x20,x30	 x20:0x80009ec4 x30:0x0000002a x21=0x80009eee
       26885000	      2687	80005948	03107063	bgeu	x0,x17,80005968	  x0:0x00000000 x17:0x00000000
       26895000	      2688	00000000	00000013	addi	x0,x0,0	  x0:0x00000000
       26905000	      2689	80005964	00000013	addi	x0,x0,0	  x0:0x00000000
       26915000	      2690	80005968	006bca63	blt	x23,x6,8000597c	 x23:0x5afd6003  x6:0x0000000e
       26925000	      2691	8000596c	00bc52b3	srl	x5,x24,x11	 x24:0xfffffc00 x11:0xfffffffd  x5=0x00000007
       26935000	      2692	80005970	02f28863	beq	x5,x15,800059a0	  x5:0x00000007 x15:0x00002176
       26945000	      2693	80005974	01d14a63	blt	x2,x29,80005988	  x2:0x8000874b x29:0x00009495
       26955000	      2694	00000000	00000013	addi	x0,x0,0	  x0:0x00000000
       26965000	      2695	80005984	00000013	addi	x0,x0,0	  x0:0x00000000
       26975000	      2696	80005988	00000013	addi	x0,x0,0	  x0:0x00000000
       26985000	      2697	8000598c	aed31917	auipc	x18,0xaed31	 x18=0x2ed36988
       26995000	      2698	80005990	00ff6c63	bltu	x30,x15,800059a8	 x30:0x0000002a x15:0x00002176
       27005000	      2699	00000000	00000013	addi	x0,x0,0	  x0:0x00000000
       27015000	      2700	800059a4	00000013	addi	x0,x0,0	  x0:0x00000000
       27025000	      2701	800059a8	04e2f063	bgeu	x5,x14,800059e8	  x5:0x00000007 x14:0x80009cc0
       27035000	      2702	800059ac	b9bb13b7	lui	x7,0xb9bb1	  x7=0xb9bb1000
       27045000	      2703	800059b0	01980e63	beq	x16,x25,800059cc	 x16:0x0000071a x25:0x0000277e
       27055000	      2704	800059b4	4097db93	srai	x23,x15,0x9	 x15:0x00002176 x23=0x00000010
       27065000	      2705	800059b8	9ee07f93	andi	x31,x0,-1554	  x0:0x00000000 x31=0x00000000
       27075000	      2706	800059bc	00097e63	bgeu	x18,x0,800059d8	 x18:0x2ed36988  x0:0x00000000
       27085000	      2707	00000000	00000013	addi	x0,x0,0	  x0:0x00000000
       27095000	      2708	800059d4	00000013	addi	x0,x0,0	  x0:0x00000000
       27105000	      2709	800059d8	00cb2eb3	slt	x29,x22,x12	 x22:0x00000000 x12:0x00000281 x29=0x00000001
       27115000	      2710	800059dc	418a8133	sub	x2,x21,x24	 x21:0x80009eee x24:0xfffffc00  x2=0x8000a2ee
       27125000	      2711	800059e0	01473b33	sltu	x22,x14,x20	 x14:0x80009cc0 x20:0x80009ec4 x22=0x00000001
       27135000	      2712	800059e4	0170db33	srl	x22,x1,x23	  x1:0x000000bc x23:0x00000010 x22=0x00000000
       27145000	      2713	800059e8	002d1cb3	sll	x25,x26,x2	 x26:0x00000000  x2:0x8000a2ee x25=0x00000000
       27155000	      2714	800059ec	019a7c33	and	x24,x20,x25	 x20:0x80009ec4 x25:0x00000000 x24=0x00000000
       27165000	      2715	800059f0	00f6a3b3	slt	x7,x13,x15	 x13:0x00000600 x15:0x00002176  x7=0x00000001
       27175000	      2716	800059f4	045ad863	bge	x21,x5,80005a44	 x21:0x80009eee  x5:0x00000007
       27185000	      2717	800059f8	000669b3	or	x19,x12,x0	 x12:0x00000281  x0:0x00000000 x19=0x00000281
       27195000	      2718	800059fc	01b645b3	xor	x11,x12,x27	 x12:0x00000281 x27:0x80009fd6 x11=0x80009d57
       27205000	      2719	80005a00	035a4063	blt	x20,x21,80005a20	 x20:0x80009ec4 x21:0x80009eee
       27215000	      2720	00000000	00000013	addi	x0,x0,0	  x0:0x00000000
       27225000	      2721	80005a1c	00000013	addi	x0,x0,0	  x0:0x00000000
       27235000	      2722	80005a20	7923b993	sltiu	x19,x7,1938	  x7:0x00000001 x19=0x00000001
       27245000	      2723	80005a24	88147a93	andi	x21,x8,-1919	  x8:0x80009fc4 x21=0x80009880
       27255000	      2724	80005a28	1283be17	auipc	x28,0x1283b	 x28=0x92840a24
       27265000	      2725	80005a2c	4d54e093	ori	x1,x9,1237	  x9:0x00000200  x1=0x000006d5
       27275000	      2726	80005a30	a45ce113	ori	x2,x25,-1467	 x25:0x00000000  x2=0xfffffa45
       27285000	      2727	80005a34	01402f33	slt	x30,x0,x20	  x0:0x00000000 x20:0x80009ec4 x30=0x00000000
       27295000	      2728	80005a38	014800b3	add	x1,x16,x20	 x16:0x0000071a x20:0x80009ec4  x1=0x8000a5de
       27305000	      2729	80005a3c	04a07063	bgeu	x0,x10,80005a7c	  x0:0x00000000 x10:0x00000000
       27315000	      2730	00000000	00000013	addi	x0,x0,0	  x0:0x00000000
       27325000	      2731	80005a78	00000013	addi	x0,x0,0	  x0:0x00000000
       27335000	      2732	80005a7c	001b9f13	slli	x30,x23,0x1	 x23:0x00000010 x30=0x00000020
       27345000	      2733	80005a80	e23c0c37	lui	x24,0xe23c0	 x24=0xe23c0000
       27355000	      2734	80005a84	026bd863	bge	x23,x6,80005ab4	 x23:0x00000010  x6:0x0000000e
       27365000	      2735	00000000	00000013	addi	x0,x0,0	  x0:0x00000000
       27375000	      2736	80005ab0	00000013	addi	x0,x0,0	  x0:0x00000000
       27385000	      2737	80005ab4	0192f2b3	and	x5,x5,x25	  x5:0x00000007 x25:0x00000000  x5=0x00000000
       27395000	      2738	80005ab8	0480d263	bge	x1,x8,80005afc	  x1:0x8000a5de  x8:0x80009fc4
       27405000	      2739	00000000	00000013	addi	x0,x0,0	  x0:0x00000000
       27415000	      2740	80005af8	00000013	addi	x0,x0,0	  x0:0x00000000
       27425000	      2741	80005afc	b511a813	slti	x16,x3,-1199	  x3:0x00002150 x16=0x00000000
       27435000	      2742	80005b00	d698c293	xori	x5,x17,-663	 x17:0x00000000  x5=0xfffffd69
       27445000	      2743	80005b04	053d8863	beq	x27,x19,80005b54	 x27:0x80009fd6 x19:0x00000001
       27455000	      2744	80005b08	409e8633	sub	x12,x29,x9	 x29:0x00000001  x9:0x00000200 x12=0xfffffe01
       27465000	      2745	80005b0c	4d967a93	andi	x21,x12,1241	 x12:0xfffffe01 x21=0x00000401
       27475000	      2746	80005b10	00b9a233	slt	x4,x19,x11	 x19:0x00000001 x11:0x80009d57  x4=0x00000000
       27485000	      2747	80005b14	01f12bb3	slt	x23,x2,x31	  x2:0xfffffa45 x31:0x00000000 x23=0x00000001
       27495000	      2748	80005b18	8122cb93	xori	x23,x5,-2030	  x5:0xfffffd69 x23=0x0000057b
       27505000	      2749	80005b1c	035fd063	bge	x31,x21,80005b3c	 x31:0x00000000 x21:0x00000401
       27515000	      2750	80005b20	0094d9b3	srl	x19,x9,x9	  x9:0x00000200  x9:0x00000200 x19=0x00000200
       27525000	      2751	80005b24	00116663	bltu	x2,x1,80005b30	  x2:0xfffffa45  x1:0x8000a5de
       27535000	      2752	80005b28	01563533	sltu	x10,x12,x21	 x12:0xfffffe01 x21:0x00000401 x10=0x00000000
       27545000	      2753	80005b2c	78b80793	addi	x15,x16,1931	 x16:0x00000000 x15=0x0000078b
       27555000	      2754	80005b30	4151d093	srai	x1,x3,0x15	  x3:0x00002150  x1=0x00000000
       27565000	      2755	80005b34	d93bc213	xori	x4,x23,-621	 x23:0x0000057b  x4=0xfffff8e8
       27575000	      2756	80005b38	01fdce63	blt	x27,x31,80005b54	 x27:0x80009fd6 x31:0x00000000
       27585000	      2757	00000000	00000013	addi	x0,x0,0	  x0:0x00000000
       27595000	      2758	80005b50	00000013	addi	x0,x0,0	  x0:0x00000000
       27605000	      2759	80005b54	014dd633	srl	x12,x27,x20	 x27:0x80009fd6 x20:0x80009ec4 x12=0x080009fd
       27615000	      2760	80005b58	05664663	blt	x12,x22,80005ba4	 x12:0x080009fd x22:0x00000000
       27625000	      2761	80005b5c	c5c65c37	lui	x24,0xc5c65	 x24=0xc5c65000
       27635000	      2762	80005b60	01108bb3	add	x23,x1,x17	  x1:0x00000000 x17:0x00000000 x23=0x00000000
       27645000	      2763	80005b64	01270c63	beq	x14,x18,80005b7c	 x14:0x80009cc0 x18:0x2ed36988
       27655000	      2764	80005b68	00984e33	xor	x28,x16,x9	 x16:0x00000000  x9:0x00000200 x28=0x00000200
       27665000	      2765	80005b6c	0067e863	bltu	x15,x6,80005b7c	 x15:0x0000078b  x6:0x0000000e
       27675000	      2766	80005b70	01855a93	srli	x21,x10,0x18	 x10:0x00000000 x21=0x00000000
       27685000	      2767	80005b74	42384893	xori	x17,x16,1059	 x16:0x00000000 x17=0x00000423
       27695000	      2768	80005b78	414d5613	srai	x12,x26,0x14	 x26:0x00000000 x12=0x00000000
       27705000	      2769	80005b7c	40670833	sub	x16,x14,x6	 x14:0x80009cc0  x6:0x0000000e x16=0x80009cb2
       27715000	      2770	80005b80	00a68633	add	x12,x13,x10	 x13:0x00000600 x10:0x00000000 x12=0x00000600
       27725000	      2771	80005b84	417382b3	sub	x5,x7,x23	  x7:0x00000001 x23:0x00000000  x5=0x00000001
       27735000	      2772	80005b88	fa4fa713	slti	x14,x31,-92	 x31:0x00000000 x14=0x00000000
       27745000	      2773	80005b8c	00000013	addi	x0,x0,0	  x0:0x00000000
       27755000	      2774	80005b90	25cc3c13	sltiu	x24,x24,604	 x24:0xc5c65000 x24=0x00000000
       27765000	      2775	80005b94	008cb5b3	sltu	x11,x25,x8	 x25:0x00000000  x8:0x80009fc4 x11=0x00000001
       27775000	      2776	80005b98	01aa65b3	or	x11,x20,x26	 x20:0x80009ec4 x26:0x00000000 x11=0x80009ec4
       27785000	      2777	80005b9c	ad894d97	auipc	x27,0xad894	 x27=0x2d899b98
       27795000	      2778	80005ba0	2da59817	auipc	x16,0x2da59	 x16=0xada5eb9c
       27805000	      2779	80005ba4	01072933	slt	x18,x14,x16	 x14:0x00000000 x16:0xada5eb9c x18=0x00000000
       27815000	      2780	80005ba8	3f333b93	sltiu	x23,x6,1011	  x6:0x0000000e x23=0x00000001
       27825000	      2781	80005bac	e275ad93	slti	x27,x11,-473	 x11:0x80009ec4 x27=0x00000001
       27835000	      2782	80005bb0	10bbca93	xori	x21,x23,267	 x23:0x00000001 x21=0x0000010a
       27845000	      2783	80005bb4	02339e63	bne	x7,x3,80005bf0	  x7:0x00000001  x3:0x00002150
       27855000	      2784	00000000	00000013	addi	x0,x0,0	  x0:0x00000000
       27865000	      2785	80005bec	00000013	addi	x0,x0,0	  x0:0x00000000
       27875000	      2786	80005bf0	0287c863	blt	x15,x8,80005c20	 x15:0x0000078b  x8:0x80009fc4
       27885000	      2787	80005bf4	03527663	bgeu	x4,x21,80005c20	  x4:0xfffff8e8 x21:0x0000010a
       27895000	      2788	00000000	00000013	addi	x0,x0,0	  x0:0x00000000
       27905000	      2789	80005c1c	00000013	addi	x0,x0,0	  x0:0x00000000
       27915000	      2790	80005c20	00039213	slli	x4,x7,0x0	  x7:0x00000001  x4=0x00000001
       27925000	      2791	80005c24	01f0dc33	srl	x24,x1,x31	  x1:0x00000000 x31:0x00000000 x24=0x00000000
       27935000	      2792	80005c28	4086d0b3	sra	x1,x13,x8	 x13:0x00000600  x8:0x80009fc4  x1=0x00000060
       27945000	      2793	80005c2c	40f15233	sra	x4,x2,x15	  x2:0xfffffa45 x15:0x0000078b  x4=0xffffffff
       27955000	      2794	80005c30	02a57663	bgeu	x10,x10,80005c5c	 x10:0x00000000 x10:0x00000000
       27965000	      2795	00000000	00000013	addi	x0,x0,0	  x0:0x00000000
       27975000	      2796	80005c58	00000013	addi	x0,x0,0	  x0:0x00000000
       27985000	      2797	80005c5c	050c1063	bne	x24,x16,80005c9c	 x24:0x00000000 x16:0xada5eb9c
       27995000	      2798	00000000	00000013	addi	x0,x0,0	  x0:0x00000000
       28005000	      2799	80005c98	00000013	addi	x0,x0,0	  x0:0x00000000
       28015000	      2800	80005c9c	e893bc93	sltiu	x25,x7,-375	  x7:0x00000001 x25=0x00000001
       28025000	      2801	80005ca0	016d0e63	beq	x26,x22,80005cbc	 x26:0x00000000 x22:0x00000000
       28035000	      2802	00000000	00000013	addi	x0,x0,0	  x0:0x00000000
       28045000	      2803	80005cb8	00000013	addi	x0,x0,0	  x0:0x00000000
       28055000	      2804	80005cbc	6f24c613	xori	x12,x9,1778	  x9:0x00000200 x12=0x000004f2
       28065000	      2805	80005cc0	419e55b3	sra	x11,x28,x25	 x28:0x00000200 x25:0x00000001 x11=0x00000100
       28075000	      2806	80005cc4	004a2083	lw	x1,4(x20)	 x20:0x80009ec4  x1=0x80005d60 PA:0x80009ec8
       28085000	      2807	80005cc8	4081d393	srai	x7,x3,0x8	  x3:0x00002150  x7=0x00000021
       28095000	      2808	80005ccc	040a0a13	addi	x20,x20,64	 x20:0x80009ec4 x20=0x80009f04
       28105000	      2809	80005cd0	000b28b3	slt	x17,x22,x0	 x22:0x00000000  x0:0x00000000 x17=0x00000000
       28115000	      2810	80005cd4	01272eb3	slt	x29,x14,x18	 x14:0x00000000 x18:0x00000000 x29=0x00000000
       28125000	      2811	80005cd8	c1dfe813	ori	x16,x31,-995	 x31:0x00000000 x16=0xfffffc1d
       28135000	      2812	80005cdc	40fbd2b3	sra	x5,x23,x15	 x23:0x00000001 x15:0x0000078b  x5=0x00000000
       28145000	      2813	80005ce0	00108893	addi	x17,x1,1	  x1:0x80005d60 x17=0x80005d61
       28155000	      2814	80005ce4	000888e7	jalr	x17,x17,0	 x17:0x80005d61 x17=0x80005ce4
       28165000	      2815	00000000	00000013	addi	x0,x0,0	  x0:0x00000000
       28175000	      2816	80005d60	00000013	addi	x0,x0,0	  x0:0x00000000
       28185000	      2817	80005d64	00bc5913	srli	x18,x24,0xb	 x24:0x00000000 x18=0x00000000
       28195000	      2818	80005d68	416dd933	sra	x18,x27,x22	 x27:0x00000001 x22:0x00000000 x18=0x00000001
       28205000	      2819	80005d6c	41b6d713	srai	x14,x13,0x1b	 x13:0x00000600 x14=0x00000000
       28215000	      2820	80005d70	0f0bfd13	andi	x26,x23,240	 x23:0x00000001 x26=0x00000000
       28225000	      2821	80005d74	64747813	andi	x16,x8,1607	  x8:0x80009fc4 x16=0x00000644
       28235000	      2822	80005d78	01dc89b3	add	x19,x25,x29	 x25:0x00000001 x29:0x00000000 x19=0x00000001
       28245000	      2823	80005d7c	017985b3	add	x11,x19,x23	 x19:0x00000001 x23:0x00000001 x11=0x00000002
       28255000	      2824	80005d80	013af633	and	x12,x21,x19	 x21:0x0000010a x19:0x00000001 x12=0x00000000
       28265000	      2825	80005d84	a79fb0ef	jal	x1,80005d84	  x1=0x80005d84
       28275000	      2826	00000000	00000013	addi	x0,x0,0	  x0:0x00000000
       28285000	      2827	800017f8	00000013	addi	x0,x0,0	  x0:0x00000000
       28295000	      2828	800017fc	00000013	addi	x0,x0,0	  x0:0x00000000
       28305000	      2829	80001800	00000013	addi	x0,x0,0	  x0:0x00000000
       28315000	      2830	80001804	01476263	bltu	x14,x20,80001808	 x14:0x00000000 x20:0x80009f04
       28325000	      2831	00000000	00000013	addi	x0,x0,0	  x0:0x00000000
       28335000	      2832	80001804	00000013	addi	x0,x0,0	  x0:0x00000000
       28345000	      2833	80001808	fcca0a13	addi	x20,x20,-52	 x20:0x80009f04 x20=0x80009ed0
       28355000	      2834	8000180c	00c843b3	xor	x7,x16,x12	 x16:0x00000644 x12:0x00000000  x7=0x00000644
       28365000	      2835	80001810	00bb2f33	slt	x30,x22,x11	 x22:0x00000000 x11:0x00000002 x30=0x00000001
       28375000	      2836	80001814	001a2223	sw	x1,4(x20)	 x20:0x80009ed0  x1:0x80005d84 PA:0x80009ed4
       28385000	      2837	80001818	401ad9b3	sra	x19,x21,x1	 x21:0x0000010a  x1:0x80005d84 x19=0x00000010
       28395000	      2838	8000181c	01475fb3	srl	x31,x14,x20	 x14:0x00000000 x20:0x80009ed0 x31=0x00000000
       28405000	      2839	80001820	82a5eb17	auipc	x22,0x82a5e	 x22=0x02a5f81c
       28415000	      2840	80001824	41ec5833	sra	x16,x24,x30	 x24:0x00000000 x30:0x00000001 x16=0x00000000
       28425000	      2841	80001828	661af913	andi	x18,x21,1633	 x21:0x0000010a x18=0x00000000
       28435000	      2842	8000182c	00007497	auipc	x9,0x7	  x9=0x80008828
       28445000	      2843	80001830	bc148493	addi	x9,x9,-1087	  x9:0x80008828  x9=0x800083e9
       28455000	      2844	80001834	d4a4c983	lbu	x19,-694(x9)	  x9:0x800083e9 x19=0x000000e8 PA:0x80008133
       28465000	      2845	80001838	20e87613	andi	x12,x16,526	 x16:0x00000000 x12=0x00000000
       28475000	      2846	8000183c	1ac4c883	lbu	x17,428(x9)	  x9:0x800083e9 x17=0x0000004e PA:0x80008595
       28485000	      2847	80001840	14a4cb83	lbu	x23,330(x9)	  x9:0x800083e9 x23=0x000000e8 PA:0x80008533
       28495000	      2848	80001844	185484a3	sb	x5,393(x9)	  x9:0x800083e9  x5:0x00000000 PA:0x80008572
       28505000	      2849	80001848	f2c4c883	lbu	x17,-212(x9)	  x9:0x800083e9 x17=0x000000ce PA:0x80008315
       28515000	      2850	8000184c	0e248083	lb	x1,226(x9)	  x9:0x800083e9  x1=0xffffff80 PA:0x800084cb
       28525000	      2851	80001850	d5b4d783	lhu	x15,-677(x9)	  x9:0x800083e9 x15=0x0000feff PA:0x80008144
       28535000	      2852	80001854	3ce48583	lb	x11,974(x9)	  x9:0x800083e9 x11=0x0000006c PA:0x800087b7
       28545000	      2853	80001858	f884cf03	lbu	x30,-120(x9)	  x9:0x800083e9 x30=0x0000002a PA:0x80008371
       28555000	      2854	8000185c	3e24c803	lbu	x16,994(x9)	  x9:0x800083e9 x16=0x00000080 PA:0x800087cb
       28565000	      2855	80001860	32a48283	lb	x5,810(x9)	  x9:0x800083e9  x5=0xffffffc8 PA:0x80008713
       28575000	      2856	80001864	23848e83	lb	x29,568(x9)	  x9:0x800083e9 x29=0xffffffda PA:0x80008621
       28585000	      2857	80001868	006cbeb3	sltu	x29,x25,x6	 x25:0x00000001  x6:0x0000000e x29=0x00000001
       28595000	      2858	8000186c	405cd5b3	sra	x11,x25,x5	 x25:0x00000001  x5:0xffffffc8 x11=0x00000000
       28605000	      2859	80001870	0042ceb3	xor	x29,x5,x4	  x5:0xffffffc8  x4:0xffffffff x29=0x00000037
       28615000	      2860	80001874	c7148823	sb	x17,-912(x9)	  x9:0x800083e9 x17:0x000000ce PA:0x80008059
       28625000	      2861	80001878	3ee48723	sb	x14,1006(x9)	  x9:0x800083e9 x14:0x00000000 PA:0x800087d7
       28635000	      2862	8000187c	2a948e83	lb	x29,681(x9)	  x9:0x800083e9 x29=0x00000049 PA:0x80008692
       28645000	      2863	80001880	407351b3	sra	x3,x6,x7	  x6:0x0000000e  x7:0x00000644  x3=0x00000000
       28655000	      2864	80001884	1f549e03	lh	x28,501(x9)	  x9:0x800083e9 x28=0xffff9495 PA:0x800085de
       28665000	      2865	80001888	04848723	sb	x8,78(x9)	  x9:0x800083e9  x8:0x80009fc4 PA:0x80008437
       28675000	      2866	8000188c	36c494a3	sh	x12,873(x9)	  x9:0x800083e9 x12:0x00000000 PA:0x80008752
       28685000	      2867	80001890	b77b1eb7	lui	x29,0xb77b1	 x29=0xb77b1000
       28695000	      2868	80001894	09803813	sltiu	x16,x0,152	  x0:0x00000000 x16=0x00000001
       28705000	      2869	80001898	e60490a3	sh	x0,-415(x9)	  x9:0x800083e9  x0:0x00000000 PA:0x8000824a
       28715000	      2870	8000189c	1434aa83	lw	x21,323(x9)	  x9:0x800083e9 x21=0xe4e5e6e7 PA:0x8000852c
       28725000	      2871	800018a0	06b66393	ori	x7,x12,107	 x12:0x00000000  x7=0x0000006b
       28735000	      2872	800018a4	1584c003	lbu	x0,344(x9)	  x9:0x800083e9 PA:0x80008541
       28745000	      2873	800018a8	0197be33	sltu	x28,x15,x25	 x15:0x0000feff x25:0x00000001 x28=0x00000000
       28755000	      2874	800018ac	30310d93	addi	x27,x2,771	  x2:0xfffffa45 x27=0xfffffd48
       28765000	      2875	800018b0	3434d383	lhu	x7,835(x9)	  x9:0x800083e9  x7=0x0000e6e7 PA:0x8000872c
       28775000	      2876	800018b4	00007217	auipc	x4,0x7	  x4=0x800088b0
       28785000	      2877	800018b8	3ba20213	addi	x4,x4,954	  x4:0x800088b0  x4=0x80008c6a
       28795000	      2878	800018bc	03225683	lhu	x13,50(x4)	  x4:0x80008c6a x13=0x00008687 PA:0x80008c9c
       28805000	      2879	800018c0	01924503	lbu	x10,25(x4)	  x4:0x80008c6a x10=0x00000068 PA:0x80008c83
       28815000	      2880	800018c4	fc320583	lb	x11,-61(x4)	  x4:0x80008c6a x11=0x00000016 PA:0x80008c2d
       28825000	      2881	800018c8	02d24d83	lbu	x27,45(x4)	  x4:0x80008c6a x27=0x0000007c PA:0x80008c97
       28835000	      2882	800018cc	0142d2b3	srl	x5,x5,x20	  x5:0xffffffc8 x20:0x80009ed0  x5=0x0000ffff
       28845000	      2883	800018d0	00000013	addi	x0,x0,0	  x0:0x00000000
       28855000	      2884	800018d4	00320523	sb	x3,10(x4)	  x4:0x80008c6a  x3:0x00000000 PA:0x80008c74
       28865000	      2885	800018d8	0183dd13	srli	x26,x7,0x18	  x7:0x0000e6e7 x26=0x00000000
       28875000	      2886	800018dc	35473397	auipc	x7,0x35473	  x7=0xb54748d8
       28885000	      2887	800018e0	fdb20da3	sb	x27,-37(x4)	  x4:0x80008c6a x27:0x0000007c PA:0x80008c45
       28895000	      2888	800018e4	fca22323	sw	x10,-58(x4)	  x4:0x80008c6a x10:0x00000068 PA:0x80008c30
       28905000	      2889	800018e8	01699933	sll	x18,x19,x22	 x19:0x000000e8 x22:0x02a5f81c x18=0x80000000
       28915000	      2890	800018ec	637509b7	lui	x19,0x63750	 x19=0x63750000
       28925000	      2891	800018f0	004ce1b3	or	x3,x25,x4	 x25:0x00000001  x4:0x80008c6a  x3=0x80008c6b
       28935000	      2892	800018f4	00a15613	srli	x12,x2,0xa	  x2:0xfffffa45 x12=0x003ffffe
       28945000	      2893	800018f8	01479113	slli	x2,x15,0x14	 x15:0x0000feff  x2=0xeff00000
       28955000	      2894	800018fc	7bca3193	sltiu	x3,x20,1980	 x20:0x80009ed0  x3=0x00000000
       28965000	      2895	80001900	4065d893	srai	x17,x11,0x6	 x11:0x00000016 x17=0x00000000
       28975000	      2896	80001904	fe120fa3	sb	x1,-1(x4)	  x4:0x80008c6a  x1:0xffffff80 PA:0x80008c69
       28985000	      2897	80001908	7dd3a993	slti	x19,x7,2013	  x7:0xb54748d8 x19=0x00000001
       28995000	      2898	8000190c	ff320683	lb	x13,-13(x4)	  x4:0x80008c6a x13=0x00000046 PA:0x80008c5d
       29005000	      2899	80001910	01324683	lbu	x13,19(x4)	  x4:0x80008c6a x13=0x00000066 PA:0x80008c7d
       29015000	      2900	80001914	01b24b83	lbu	x23,27(x4)	  x4:0x80008c6a x23=0x0000006e PA:0x80008c85
       29025000	      2901	80001918	00142cb3	slt	x25,x8,x1	  x8:0x80009fc4  x1:0xffffff80 x25=0x00000001
       29035000	      2902	8000191c	00a09ab3	sll	x21,x1,x10	  x1:0xffffff80 x10:0x00000068 x21=0xffff8000
       29045000	      2903	80001920	00d4d113	srli	x2,x9,0xd	  x9:0x800083e9  x2=0x00040004
       29055000	      2904	80001924	034206a3	sb	x20,45(x4)	  x4:0x80008c6a x20:0x80009ed0 PA:0x80008c97
       29065000	      2905	80001928	00007b17	auipc	x22,0x7	 x22=0x80008924
       29075000	      2906	8000192c	5e2b0b13	addi	x22,x22,1506	 x22:0x80008924 x22=0x80008f06
       29085000	      2907	80001930	984b0e23	sb	x4,-1636(x22)	 x22:0x80008f06  x4:0x80008c6a PA:0x800088a2
       29095000	      2908	80001934	40685893	srai	x17,x16,0x6	 x16:0x00000001 x17=0x00000000
       29105000	      2909	80001938	13822213	slti	x4,x4,312	  x4:0x80008c6a  x4=0x00000001
       29115000	      2910	8000193c	66313d13	sltiu	x26,x2,1635	  x2:0x00040004 x26=0x00000000
       29125000	      2911	80001940	979b1223	sh	x25,-1692(x22)	 x22:0x80008f06 x25:0x00000001 PA:0x8000886a
       29135000	      2912	80001944	a1db4b83	lbu	x23,-1507(x22)	 x22:0x80008f06 x23=0x00000008 PA:0x80008923
       29145000	      2913	80001948	a46b5a83	lhu	x21,-1466(x22)	 x22:0x80008f06 x21=0x00003637 PA:0x8000894c
       29155000	      2914	8000194c	f7bd6537	lui	x10,0xf7bd6	 x10=0xf7bd6000
       29165000	      2915	80001950	a081b993	sltiu	x19,x3,-1528	  x3:0x00000000 x19=0x00000001
       29175000	      2916	80001954	1b7a0013	addi	x0,x20,439	 x20:0x80009ed0
       29185000	      2917	80001958	cc8b1603	lh	x12,-824(x22)	 x22:0x80008f06 x12=0xffffb4b5 PA:0x80008bce
       29195000	      2918	8000195c	01e89213	slli	x4,x17,0x1e	 x17:0x00000000  x4=0x00000000
       29205000	      2919	80001960	961b4703	lbu	x14,-1695(x22)	 x22:0x80008f06 x14=0x0000004c PA:0x80008867
       29215000	      2920	80001964	01bbd5b3	srl	x11,x23,x27	 x23:0x00000008 x27:0x0000007c x11=0x00000000
       29225000	      2921	80001968	a05b4d03	lbu	x26,-1531(x22)	 x22:0x80008f06 x26=0x000000f0 PA:0x8000890b
       29235000	      2922	8000196c	cabb0a83	lb	x21,-853(x22)	 x22:0x80008f06 x21=0xffffff9a PA:0x80008bb1
       29245000	      2923	80001970	003f9e33	sll	x28,x31,x3	 x31:0x00000000  x3:0x00000000 x28=0x00000000
       29255000	      2924	80001974	01d85a93	srli	x21,x16,0x1d	 x16:0x00000001 x21=0x00000000
       29265000	      2925	80001978	017c32b3	sltu	x5,x24,x23	 x24:0x00000000 x23:0x00000008  x5=0x00000001
       29275000	      2926	8000197c	ab07e493	ori	x9,x15,-1360	 x15:0x0000feff  x9=0xfffffeff
       29285000	      2927	80001980	ce0b5803	lhu	x16,-800(x22)	 x22:0x80008f06 x16=0x0000cccd PA:0x80008be6
       29295000	      2928	80001984	0b27cc13	xori	x24,x15,178	 x15:0x0000feff x24=0x0000fe4d
       29305000	      2929	80001988	07fb4483	lbu	x9,127(x22)	 x22:0x80008f06  x9=0x0000006e PA:0x80008f85
       29315000	      2930	8000198c	7bf08713	addi	x14,x1,1983	  x1:0xffffff80 x14=0x0000073f
       29325000	      2931	80001990	00000013	addi	x0,x0,0	  x0:0x00000000
       29335000	      2932	80001994	cd7b4483	lbu	x9,-809(x22)	 x22:0x80008f06  x9=0x000000c6 PA:0x80008bdd
       29345000	      2933	80001998	00db1023	sh	x13,0(x22)	 x22:0x80008f06 x13:0x00000066 PA:0x80008f06
       29355000	      2934	8000199c	419907b3	sub	x15,x18,x25	 x18:0x80000000 x25:0x00000001 x15=0x7fffffff
       29365000	      2935	800019a0	41465193	srai	x3,x12,0x14	 x12:0xffffb4b5  x3=0xffffffff
       29375000	      2936	800019a4	ce4b0f23	sb	x4,-770(x22)	 x22:0x80008f06  x4:0x00000000 PA:0x80008c04
       29385000	      2937	800019a8	e5eb4283	lbu	x5,-418(x22)	 x22:0x80008f06  x5=0x0000004f PA:0x80008d64
       29395000	      2938	800019ac	977b1a23	sh	x23,-1676(x22)	 x22:0x80008f06 x23:0x00000008 PA:0x8000887a
       29405000	      2939	800019b0	00007a97	auipc	x21,0x7	 x21=0x800089ac
       29415000	      2940	800019b4	b2aa8a93	addi	x21,x21,-1238	 x21:0x800089ac x21=0x800084d6
       29425000	      2941	800019b8	96b53c17	auipc	x24,0x96b53	 x24=0x16b549b4
       29435000	      2942	800019bc	ff8a88a3	sb	x24,-15(x21)	 x21:0x800084d6 x24:0x16b549b4 PA:0x800084c7
       29445000	      2943	800019c0	19632f13	slti	x30,x6,406	  x6:0x0000000e x30=0x00000001
       29455000	      2944	800019c4	fffa8b03	lb	x22,-1(x21)	 x21:0x800084d6 x22=0xffffff8e PA:0x800084d5
       29465000	      2945	800019c8	001a8503	lb	x10,1(x21)	 x21:0x800084d6 x10=0xffffff8c PA:0x800084d7
       29475000	      2946	800019cc	ff2a8883	lb	x17,-14(x21)	 x21:0x800084d6 x17=0xffffff83 PA:0x800084c8
       29485000	      2947	800019d0	fffa8903	lb	x18,-1(x21)	 x21:0x800084d6 x18=0xffffff8e PA:0x800084d5
       29495000	      2948	800019d4	008c28b3	slt	x17,x24,x8	 x24:0x16b549b4  x8:0x80009fc4 x17=0x00000000
       29505000	      2949	800019d8	00ca8883	lb	x17,12(x21)	 x21:0x800084d6 x17=0xffffff99 PA:0x800084e2
       29515000	      2950	800019dc	400c05b3	sub	x11,x24,x0	 x24:0x16b549b4  x0:0x00000000 x11=0x16b549b4
       29525000	      2951	800019e0	ff6a8883	lb	x17,-10(x21)	 x21:0x800084d6 x17=0xffffff87 PA:0x800084cc
       29535000	      2952	800019e4	01eed393	srli	x7,x29,0x1e	 x29:0xb77b1000  x7=0x00000002
       29545000	      2953	800019e8	ff5acc03	lbu	x24,-11(x21)	 x21:0x800084d6 x24=0x00000080 PA:0x800084cb
       29555000	      2954	800019ec	8848a693	slti	x13,x17,-1916	 x17:0xffffff87 x13=0x00000000
       29565000	      2955	800019f0	01cab3b3	sltu	x7,x21,x28	 x21:0x800084d6 x28:0x00000000  x7=0x00000000
       29575000	      2956	800019f4	feba8aa3	sb	x11,-11(x21)	 x21:0x800084d6 x11:0x16b549b4 PA:0x800084cb
       29585000	      2957	800019f8	dfe13013	sltiu	x0,x2,-514	  x2:0x00040004
       29595000	      2958	800019fc	ffca9103	lh	x2,-4(x21)	 x21:0x800084d6  x2=0xffff8889 PA:0x800084d2
       29605000	      2959	80001a00	7f8dcb13	xori	x22,x27,2040	 x27:0x0000007c x22=0x00000784
       29615000	      2960	80001a04	8a590693	addi	x13,x18,-1883	 x18:0xffffff8e x13=0xfffff833
       29625000	      2961	80001a08	871bc913	xori	x18,x23,-1935	 x23:0x00000008 x18=0xfffff879
       29635000	      2962	80001a0c	fce83713	sltiu	x14,x16,-50	 x16:0x0000cccd x14=0x00000001
       29645000	      2963	80001a10	005a8383	lb	x7,5(x21)	 x21:0x800084d6  x7=0xffffff90 PA:0x800084db
       29655000	      2964	80001a14	01aa8223	sb	x26,4(x21)	 x21:0x800084d6 x26:0x000000f0 PA:0x800084da
       29665000	      2965	80001a18	01154833	xor	x16,x10,x17	 x10:0xffffff8c x17:0xffffff87 x16=0x0000000b
       29675000	      2966	80001a1c	012a8723	sb	x18,14(x21)	 x21:0x800084d6 x18:0xfffff879 PA:0x800084e4
       29685000	      2967	80001a20	63b397b7	lui	x15,0x63b39	 x15=0x63b39000
       29695000	      2968	80001a24	3e8d0993	addi	x19,x26,1000	 x26:0x000000f0 x19=0x000004d8
       29705000	      2969	80001a28	54b8c897	auipc	x17,0x54b8c	 x17=0xd4b8da24
       29715000	      2970	80001a2c	289de493	ori	x9,x27,649	 x27:0x0000007c  x9=0x000002fd
       29725000	      2971	80001a30	ff4a89a3	sb	x20,-13(x21)	 x21:0x800084d6 x20:0x80009ed0 PA:0x800084c9
       29735000	      2972	80001a34	00000013	addi	x0,x0,0	  x0:0x00000000
       29745000	      2973	80001a38	ff3ac283	lbu	x5,-13(x21)	 x21:0x800084d6  x5=0x000000d0 PA:0x800084c9
       29755000	      2974	80001a3c	ffaa8b23	sb	x26,-10(x21)	 x21:0x800084d6 x26:0x000000f0 PA:0x800084cc
       29765000	      2975	80001a40	418fd893	srai	x17,x31,0x18	 x31:0x00000000 x17=0x00000000
       29775000	      2976	80001a44	1176ae93	slti	x29,x13,279	 x13:0xfffff833 x29=0x00000001
       29785000	      2977	80001a48	f8597113	andi	x2,x18,-123	 x18:0xfffff879  x2=0xfffff801
       29795000	      2978	80001a4c	401b5233	sra	x4,x22,x1	 x22:0x00000784  x1:0xffffff80  x4=0x00000784
       29805000	      2979	80001a50	00eacc83	lbu	x25,14(x21)	 x21:0x800084d6 x25=0x00000079 PA:0x800084e4
       29815000	      2980	80001a54	ffaa9883	lh	x17,-6(x21)	 x21:0x800084d6 x17=0xffff8a8b PA:0x800084d0
       29825000	      2981	80001a58	33049697	auipc	x13,0x33049	 x13=0xb304aa54
       29835000	      2982	80001a5c	01050f33	add	x30,x10,x16	 x10:0xffffff8c x16:0x0000000b x30=0xffffff97
       29845000	      2983	80001a60	ff8a9c03	lh	x24,-8(x21)	 x21:0x800084d6 x24=0xffff846c PA:0x800084ce
       29855000	      2984	80001a64	00aace83	lbu	x29,10(x21)	 x21:0x800084d6 x29=0x0000009b PA:0x800084e0
       29865000	      2985	80001a68	017cfeb3	and	x29,x25,x23	 x25:0x00000079 x23:0x00000008 x29=0x00000008
       29875000	      2986	80001a6c	2cbe7037	lui	x0,0x2cbe7	
       29885000	      2987	80001a70	01d4cd33	xor	x26,x9,x29	  x9:0x000002fd x29:0x00000008 x26=0x000002f5
       29895000	      2988	80001a74	000e7e33	and	x28,x28,x0	 x28:0x00000000  x0:0x00000000 x28=0x00000000
       29905000	      2989	80001a78	41760b33	sub	x22,x12,x23	 x12:0xffffb4b5 x23:0x00000008 x22=0xffffb4ad
       29915000	      2990	80001a7c	002ad203	lhu	x4,2(x21)	 x21:0x800084d6  x4=0x00009293 PA:0x800084d8
       29925000	      2991	80001a80	00007a97	auipc	x21,0x7	 x21=0x80008a7c
       29935000	      2992	80001a84	31da8a93	addi	x21,x21,797	 x21:0x80008a7c x21=0x80008d99
       29945000	      2993	80001a88	41af5d13	srai	x26,x30,0x1a	 x30:0xffffff97 x26=0xffffffff
       29955000	      2994	80001a8c	057a9d83	lh	x27,87(x21)	 x21:0x80008d99 x27=0xffffdadb PA:0x80008df0
       29965000	      2995	00000000	00000013	addi	x0,x0,0	  x0:0x00000000
       29975000	      2996	80001a90	41bf5b33	sra	x22,x30,x27	 x30:0xffffff97 x27:0xffffdadb x22=0xffffffff
       29985000	      2997	80001a94	0cda8b03	lb	x22,205(x21)	 x21:0x80008d99 x22=0x0000004d PA:0x80008e66
       29995000	      2998	80001a98	986e6113	ori	x2,x28,-1658	 x28:0x00000000  x2=0xfffff986
       30005000	      2999	80001a9c	f7d70593	addi	x11,x14,-131	 x14:0x00000001 x11=0xffffff7e
       30015000	      3000	80001aa0	26bc3e93	sltiu	x29,x24,619	 x24:0xffff846c x29=0x00000000
       30025000	      3001	80001aa4	f14ac003	lbu	x0,-236(x21)	 x21:0x80008d99 PA:0x80008cad
       30035000	      3002	80001aa8	fe3a8d23	sb	x3,-6(x21)	 x21:0x80008d99  x3:0xffffffff PA:0x80008d93
       30045000	      3003	80001aac	f4e0e113	ori	x2,x1,-178	  x1:0xffffff80  x2=0xffffffce
       30055000	      3004	80001ab0	41035fb3	sra	x31,x6,x16	  x6:0x0000000e x16:0x0000000b x31=0x00000000
       30065000	      3005	80001ab4	7b95c637	lui	x12,0x7b95c	 x12=0x7b95c000
       30075000	      3006	80001ab8	f9badd03	lhu	x26,-101(x21)	 x21:0x80008d99 x26=0x00001e1f PA:0x80008d34
       30085000	      3007	80001abc	073a8a23	sb	x19,116(x21)	 x21:0x80008d99 x19:0x000004d8 PA:0x80008e0d
       30095000	      3008	80001ac0	014a9cb3	sll	x25,x21,x20	 x21:0x80008d99 x20:0x80009ed0 x25=0x8d990000
       30105000	      3009	80001ac4	ff5a8d23	sb	x21,-6(x21)	 x21:0x80008d99 x21:0x80008d99 PA:0x80008d93
       30115000	      3010	80001ac8	00ebfcb3	and	x25,x23,x14	 x23:0x00000008 x14:0x00000001 x25=0x00000000
       30125000	      3011	80001acc	056a94a3	sh	x22,73(x21)	 x21:0x80008d99 x22:0x0000004d PA:0x80008de2
       30135000	      3012	80001ad0	0c1a8823	sb	x1,208(x21)	 x21:0x80008d99  x1:0xffffff80 PA:0x80008e69
       30145000	      3013	80001ad4	008d5213	srli	x4,x26,0x8	 x26:0x00001e1f  x4=0x0000001e
       30155000	      3014	80001ad8	fc1a8e83	lb	x29,-63(x21)	 x21:0x80008d99 x29=0x00000041 PA:0x80008d5a
       30165000	      3015	00000000	00000013	addi	x0,x0,0	  x0:0x00000000
       30175000	      3016	80001adc	c3de6393	ori	x7,x28,-963	 x28:0x00000000  x7=0xfffffc3d
       30185000	      3017	80001ae0	048a8b23	sb	x8,86(x21)	 x21:0x80008d99  x8:0x80009fc4 PA:0x80008def
       30195000	      3018	80001ae4	00d4a2b3	slt	x5,x9,x13	  x9:0x000002fd x13:0xb304aa54  x5=0x00000000
       30205000	      3019	80001ae8	0f8a84a3	sb	x24,233(x21)	 x21:0x80008d99 x24:0xffff846c PA:0x80008e82
       30215000	      3020	80001aec	002ecfb3	xor	x31,x29,x2	 x29:0x00000041  x2:0xffffffce x31=0xffffff8f
       30225000	      3021	80001af0	40bfd633	sra	x12,x31,x11	 x31:0xffffff8f x11:0xffffff7e x12=0xffffffff
       30235000	      3022	80001af4	fe5ad883	lhu	x17,-27(x21)	 x21:0x80008d99 x17=0x00006465 PA:0x80008d7e
       30245000	      3023	80001af8	0b9ac483	lbu	x9,185(x21)	 x21:0x80008d99  x9=0x00000039 PA:0x80008e52
       30255000	      3024	80001afc	fd7ad583	lhu	x11,-41(x21)	 x21:0x80008d99 x11=0x00005a5b PA:0x80008d70
       30265000	      3025	80001b00	01bf13b3	sll	x7,x30,x27	 x30:0xffffff97 x27:0xffffdadb  x7=0xb8000000
       30275000	      3026	80001b04	010315b3	sll	x11,x6,x16	  x6:0x0000000e x16:0x0000000b x11=0x00007000
       30285000	      3027	80001b08	40990b33	sub	x22,x18,x9	 x18:0xfffff879  x9:0x00000039 x22=0xfffff840
       30295000	      3028	80001b0c	41dc8eb3	sub	x29,x25,x29	 x25:0x00000000 x29:0x00000041 x29=0xffffffbf
       30305000	      3029	80001b10	fdfa9e03	lh	x28,-33(x21)	 x21:0x80008d99 x28=0x00006263 PA:0x80008d78
       30315000	      3030	80001b14	0f9ef713	andi	x14,x29,249	 x29:0xffffffbf x14=0x000000b9
       30325000	      3031	80001b18	589f4613	xori	x12,x30,1417	 x30:0xffffff97 x12=0xfffffa1e
       30335000	      3032	80001b1c	01b35013	srli	x0,x6,0x1b	  x6:0x0000000e
       30345000	      3033	80001b20	099a9483	lh	x9,153(x21)	 x21:0x80008d99  x9=0x00001819 PA:0x80008e32
       30355000	      3034	80001b24	fcfaa803	lw	x16,-49(x21)	 x21:0x80008d99 x16=0x50515253 PA:0x80008d68
       30365000	      3035	80001b28	063ad903	lhu	x18,99(x21)	 x21:0x80008d99 x18=0x0000e6e7 PA:0x80008dfc
       30375000	      3036	80001b2c	000de5b3	or	x11,x27,x0	 x27:0xffffdadb  x0:0x00000000 x11=0xffffdadb
       30385000	      3037	80001b30	40e30833	sub	x16,x6,x14	  x6:0x0000000e x14:0x000000b9 x16=0xffffff55
       30395000	      3038	80001b34	0f9a91a3	sh	x25,227(x21)	 x21:0x80008d99 x25:0x00000000 PA:0x80008e7c
       30405000	      3039	80001b38	00000013	addi	x0,x0,0	  x0:0x00000000
       30415000	      3040	80001b3c	017aa003	lw	x0,23(x21)	 x21:0x80008d99 PA:0x80008db0
       30425000	      3041	80001b40	f63a8fa3	sb	x3,-129(x21)	 x21:0x80008d99  x3:0xffffffff PA:0x80008d18
       30435000	      3042	80001b44	f28a88a3	sb	x8,-207(x21)	 x21:0x80008d99  x8:0x80009fc4 PA:0x80008cca
       30445000	      3043	80001b48	008acc03	lbu	x24,8(x21)	 x21:0x80008d99 x24=0x0000008a PA:0x80008da1
       30455000	      3044	80001b4c	033ad783	lhu	x15,51(x21)	 x21:0x80008d99 x15=0x00000000 PA:0x80008dcc
       30465000	      3045	80001b50	5c874613	xori	x12,x14,1480	 x14:0x000000b9 x12=0x00000571
       30475000	      3046	80001b54	015d9513	slli	x10,x27,0x15	 x27:0xffffdadb x10=0x5b600000
       30485000	      3047	80001b58	00c74933	xor	x18,x14,x12	 x14:0x000000b9 x12:0x00000571 x18=0x000005c8
       30495000	      3048	80001b5c	01dd5d93	srli	x27,x26,0x1d	 x26:0x00001e1f x27=0x00000000
       30505000	      3049	80001b60	05ba8323	sb	x27,70(x21)	 x21:0x80008d99 x27:0x00000000 PA:0x80008ddf
       30515000	      3050	80001b64	031a8ca3	sb	x17,57(x21)	 x21:0x80008d99 x17:0x00006465 PA:0x80008dd2
       30525000	      3051	80001b68	00007117	auipc	x2,0x7	  x2=0x80008b64
       30535000	      3052	80001b6c	fbb10113	addi	x2,x2,-69	  x2:0x80008b64  x2=0x80008b1f
       30545000	      3053	80001b70	e2c8a793	slti	x15,x17,-468	 x17:0x00006465 x15=0x00000000
       30555000	      3054	80001b74	f3710083	lb	x1,-201(x2)	  x2:0x80008b1f  x1=0x0000003d PA:0x80008a56
       30565000	      3055	80001b78	f3910883	lb	x17,-199(x2)	  x2:0x80008b1f x17=0x00000043 PA:0x80008a58
       30575000	      3056	80001b7c	c690ad13	slti	x26,x1,-919	  x1:0x0000003d x26=0x00000000
       30585000	      3057	80001b80	02414183	lbu	x3,36(x2)	  x2:0x80008b1f  x3=0x00000028 PA:0x80008b43
       30595000	      3058	80001b84	fa810f83	lb	x31,-88(x2)	  x2:0x80008b1f x31=0xffffffac PA:0x80008ac7
       30605000	      3059	80001b88	0db10203	lb	x4,219(x2)	  x2:0x80008b1f  x4=0xffffffe1 PA:0x80008bfa
       30615000	      3060	80001b8c	41b6db93	srai	x23,x13,0x1b	 x13:0xb304aa54 x23=0xfffffff6
       30625000	      3061	80001b90	015c6933	or	x18,x24,x21	 x24:0x0000008a x21:0x80008d99 x18=0x80008d9b
       30635000	      3062	80001b94	07714d03	lbu	x26,119(x2)	  x2:0x80008b1f x26=0x0000007d PA:0x80008b96
       30645000	      3063	80001b98	07f10603	lb	x12,127(x2)	  x2:0x80008b1f x12=0xffffff85 PA:0x80008b9e
       30655000	      3064	80001b9c	0dc14703	lbu	x14,220(x2)	  x2:0x80008b1f x14=0x000000e0 PA:0x80008bfb
       30665000	      3065	80001ba0	f1414503	lbu	x10,-236(x2)	  x2:0x80008b1f x10=0x00000018 PA:0x80008a33
       30675000	      3066	80001ba4	00000013	addi	x0,x0,0	  x0:0x00000000
       30685000	      3067	80001ba8	01911683	lh	x13,25(x2)	  x2:0x80008b1f x13=0x00002223 PA:0x80008b38
       30695000	      3068	80001bac	fc710c83	lb	x25,-57(x2)	  x2:0x80008b1f x25=0xffffffcd PA:0x80008ae6
       30705000	      3069	80001bb0	09a14a83	lbu	x21,154(x2)	  x2:0x80008b1f x21=0x000000a2 PA:0x80008bb9
       30715000	      3070	80001bb4	4137d993	srai	x19,x15,0x13	 x15:0x00000000 x19=0x00000000
       30725000	      3071	80001bb8	04f11ba3	sh	x15,87(x2)	  x2:0x80008b1f x15:0x00000000 PA:0x80008b76
       30735000	      3072	80001bbc	0db10983	lb	x19,219(x2)	  x2:0x80008b1f x19=0xffffffe1 PA:0x80008bfa
       30745000	      3073	00000000	00000013	addi	x0,x0,0	  x0:0x00000000
       30755000	      3074	80001bc0	0f315883	lhu	x17,243(x2)	  x2:0x80008b1f x17=0x0000f8f9 PA:0x80008c12
       30765000	      3075	80001bc4	f1d126a3	sw	x29,-243(x2)	  x2:0x80008b1f x29:0xffffffbf PA:0x80008a2c
       30775000	      3076	80001bc8	fad15703	lhu	x14,-83(x2)	  x2:0x80008b1f x14=0x0000b6b7 PA:0x80008acc
       30785000	      3077	80001bcc	06014d83	lbu	x27,96(x2)	  x2:0x80008b1f x27=0x00000064 PA:0x80008b7f
       30795000	      3078	80001bd0	02111183	lh	x3,33(x2)	  x2:0x80008b1f  x3=0x00002a2b PA:0x80008b40
       30805000	      3079	00000000	00000013	addi	x0,x0,0	  x0:0x00000000
       30815000	      3080	80001bd4	00369fb3	sll	x31,x13,x3	 x13:0x00002223  x3:0x00002a2b x31=0x01111800
       30825000	      3081	80001bd8	fbd10223	sb	x29,-92(x2)	  x2:0x80008b1f x29:0xffffffbf PA:0x80008ac3
       30835000	      3082	80001bdc	fe5112a3	sh	x5,-27(x2)	  x2:0x80008b1f  x5:0x00000000 PA:0x80008b04
       30845000	      3083	80001be0	4190d393	srai	x7,x1,0x19	  x1:0x0000003d  x7=0x00000000
       30855000	      3084	80001be4	06510223	sb	x5,100(x2)	  x2:0x80008b1f  x5:0x00000000 PA:0x80008b83
       30865000	      3085	80001be8	0c715703	lhu	x14,199(x2)	  x2:0x80008b1f x14=0x0000cccd PA:0x80008be6
       30875000	      3086	80001bec	0e810ba3	sb	x8,247(x2)	  x2:0x80008b1f  x8:0x80009fc4 PA:0x80008c16
       30885000	      3087	80001bf0	0c7111a3	sh	x7,195(x2)	  x2:0x80008b1f  x7:0x00000000 PA:0x80008be2
       30895000	      3088	80001bf4	01f7c2b3	xor	x5,x15,x31	 x15:0x00000000 x31:0x01111800  x5=0x01111800
       30905000	      3089	80001bf8	fa715d83	lhu	x27,-89(x2)	  x2:0x80008b1f x27=0x0000acad PA:0x80008ac6
       30915000	      3090	80001bfc	00071233	sll	x4,x14,x0	 x14:0x0000cccd  x0:0x00000000  x4=0x0000cccd
       30925000	      3091	80001c00	40e45633	sra	x12,x8,x14	  x8:0x80009fc4 x14:0x0000cccd x12=0xfffc0004
       30935000	      3092	80001c04	fa314503	lbu	x10,-93(x2)	  x2:0x80008b1f x10=0x000000a9 PA:0x80008ac2
       30945000	      3093	80001c08	00006697	auipc	x13,0x6	 x13=0x80007c04
       30955000	      3094	80001c0c	79868693	addi	x13,x13,1944	 x13:0x80007c04 x13=0x8000839c
       30965000	      3095	80001c10	366f7b93	andi	x23,x30,870	 x30:0xffffff97 x23=0x00000306
       30975000	      3096	80001c14	6e72af13	slti	x30,x5,1767	  x5:0x01111800 x30=0x00000000
       30985000	      3097	80001c18	40205a93	srai	x21,x0,0x2	  x0:0x00000000 x21=0x00000000
       30995000	      3098	80001c1c	005c2733	slt	x14,x24,x5	 x24:0x0000008a  x5:0x01111800 x14=0x00000001
       31005000	      3099	80001c20	017b8933	add	x18,x23,x23	 x23:0x00000306 x23:0x00000306 x18=0x0000060c
       31015000	      3100	80001c24	31769923	sh	x23,786(x13)	 x13:0x8000839c x23:0x00000306 PA:0x800086ae
       31025000	      3101	80001c28	d7d6ae23	sw	x29,-644(x13)	 x13:0x8000839c x29:0xffffffbf PA:0x80008118
       31035000	      3102	80001c2c	00f6ca83	lbu	x21,15(x13)	 x13:0x8000839c x21=0x00000060 PA:0x800083ab
       31045000	      3103	80001c30	2c269b83	lh	x23,706(x13)	 x13:0x8000839c x23=0x00001415 PA:0x8000865e
       31055000	      3104	80001c34	ee868d83	lb	x27,-280(x13)	 x13:0x8000839c x27=0x0000003f PA:0x80008284
       31065000	      3105	80001c38	018a8b33	add	x22,x21,x24	 x21:0x00000060 x24:0x0000008a x22=0x000000ea
       31075000	      3106	80001c3c	68bb3c13	sltiu	x24,x22,1675	 x22:0x000000ea x24=0x00000001
       31085000	      3107	80001c40	11306c93	ori	x25,x0,275	  x0:0x00000000 x25=0x00000113
       31095000	      3108	80001c44	00000013	addi	x0,x0,0	  x0:0x00000000
       31105000	      3109	80001c48	59452d93	slti	x27,x10,1428	 x10:0x000000a9 x27=0x00000001
       31115000	      3110	80001c4c	dd968983	lb	x19,-551(x13)	 x13:0x8000839c x19=0x0000002e PA:0x80008175
       31125000	      3111	80001c50	f9f68aa3	sb	x31,-107(x13)	 x13:0x8000839c x31:0x01111800 PA:0x80008331
       31135000	      3112	80001c54	f1568b03	lb	x22,-235(x13)	 x13:0x8000839c x22=0x0000006a PA:0x800082b1
       31145000	      3113	80001c58	11168fa3	sb	x17,287(x13)	 x13:0x8000839c x17:0x0000f8f9 PA:0x800084bb
       31155000	      3114	80001c5c	01f2ad33	slt	x26,x5,x31	  x5:0x01111800 x31:0x01111800 x26=0x00000000
       31165000	      3115	80001c60	01024db3	xor	x27,x4,x16	  x4:0x0000cccd x16:0xffffff55 x27=0xffff3398
       31175000	      3116	80001c64	00000013	addi	x0,x0,0	  x0:0x00000000
       31185000	      3117	80001c68	778a0013	addi	x0,x20,1912	 x20:0x80009ed0
       31195000	      3118	80001c6c	39d83293	sltiu	x5,x16,925	 x16:0xffffff55  x5=0x00000000
       31205000	      3119	80001c70	00cd33b3	sltu	x7,x26,x12	 x26:0x00000000 x12:0xfffc0004  x7=0x00000001
       31215000	      3120	80001c74	0120deb3	srl	x29,x1,x18	  x1:0x0000003d x18:0x0000060c x29=0x00000000
       31225000	      3121	80001c78	01349db3	sll	x27,x9,x19	  x9:0x00001819 x19:0x0000002e x27=0x06064000
       31235000	      3122	80001c7c	25810393	addi	x7,x2,600	  x2:0x80008b1f  x7=0x80008d77
       31245000	      3123	80001c80	00fc0ab3	add	x21,x24,x15	 x24:0x00000001 x15:0x00000000 x21=0x00000001
       31255000	      3124	80001c84	7fdb9ab7	lui	x21,0x7fdb9	 x21=0x7fdb9000
       31265000	      3125	80001c88	99786c93	ori	x25,x16,-1641	 x16:0xffffff55 x25=0xffffffd7
       31275000	      3126	80001c8c	f296c783	lbu	x15,-215(x13)	 x13:0x8000839c x15=0x0000007e PA:0x800082c5
       31285000	      3127	80001c90	a116af93	slti	x31,x13,-1519	 x13:0x8000839c x31=0x00000001
       31295000	      3128	80001c94	007217b3	sll	x15,x4,x7	  x4:0x0000cccd  x7:0x80008d77 x15=0x66800000
       31305000	      3129	80001c98	ff268b83	lb	x23,-14(x13)	 x13:0x8000839c x23=0x00000045 PA:0x8000838e
       31315000	      3130	80001c9c	00007d97	auipc	x27,0x7	 x27=0x80008c98
       31325000	      3131	80001ca0	0fdd8d93	addi	x27,x27,253	 x27:0x80008c98 x27=0x80008d95
       31335000	      3132	80001ca4	01651933	sll	x18,x10,x22	 x10:0x000000a9 x22:0x0000006a x18=0x0002a400
       31345000	      3133	80001ca8	08cd8823	sb	x12,144(x27)	 x27:0x80008d95 x12:0xfffc0004 PA:0x80008e25
       31355000	      3134	80001cac	1a4dc903	lbu	x18,420(x27)	 x27:0x80008d95 x18=0x00000022 PA:0x80008f39
       31365000	      3135	80001cb0	b98d91a3	sh	x24,-1149(x27)	 x27:0x80008d95 x24:0x00000001 PA:0x80008918
       31375000	      3136	80001cb4	dead8283	lb	x5,-534(x27)	 x27:0x80008d95  x5=0x00000064 PA:0x80008b7f
       31385000	      3137	80001cb8	1f4d94a3	sh	x20,489(x27)	 x27:0x80008d95 x20:0x80009ed0 PA:0x80008f7e
       31395000	      3138	80001cbc	0130f5b3	and	x11,x1,x19	  x1:0x0000003d x19:0x0000002e x11=0x0000002c
       31405000	      3139	80001cc0	012f9493	slli	x9,x31,0x12	 x31:0x00000001  x9=0x00040000
       31415000	      3140	80001cc4	c14dc283	lbu	x5,-1004(x27)	 x27:0x80008d95  x5=0x00000092 PA:0x800089a9
       31425000	      3141	80001cc8	40b859b3	sra	x19,x16,x11	 x16:0xffffff55 x11:0x0000002c x19=0xffffffff
       31435000	      3142	80001ccc	565e6f13	ori	x30,x28,1381	 x28:0x00006263 x30=0x00006767
       31445000	      3143	80001cd0	e5453497	auipc	x9,0xe5453	  x9=0x65454ccc
       31455000	      3144	80001cd4	00f03633	sltu	x12,x0,x15	  x0:0x00000000 x15:0x66800000 x12=0x00000001
       31465000	      3145	80001cd8	40b3d993	srai	x19,x7,0xb	  x7:0x80008d77 x19=0xfff00011
       31475000	      3146	80001cdc	ec3d9703	lh	x14,-317(x27)	 x27:0x80008d95 x14=0x00004243 PA:0x80008c58
       31485000	      3147	80001ce0	002d9013	slli	x0,x27,0x2	 x27:0x80008d95
       31495000	      3148	80001ce4	00061193	slli	x3,x12,0x0	 x12:0x00000001  x3=0x00000001
       31505000	      3149	80001ce8	4086dd13	srai	x26,x13,0x8	 x13:0x8000839c x26=0xff800083
       31515000	      3150	80001cec	f49dcf83	lbu	x31,-183(x27)	 x27:0x80008d95 x31=0x000000c5 PA:0x80008cde
       31525000	      3151	80001cf0	e16dc383	lbu	x7,-490(x27)	 x27:0x80008d95  x7=0x00000090 PA:0x80008bab
       31535000	      3152	00000000	00000013	addi	x0,x0,0	  x0:0x00000000
       31545000	      3153	80001cf4	ce7dae03	lw	x28,-793(x27)	 x27:0x80008d95 x28=0x64656667 PA:0x80008a7c
       31555000	      3154	80001cf8	f32d8383	lb	x7,-206(x27)	 x27:0x80008d95  x7=0xffffffac PA:0x80008cc7
       31565000	      3155	80001cfc	013f2933	slt	x18,x30,x19	 x30:0x00006767 x19:0xfff00011 x18=0x00000000
       31575000	      3156	80001d00	b9edc383	lbu	x7,-1122(x27)	 x27:0x80008d95  x7=0x00000018 PA:0x80008933
       31585000	      3157	80001d04	01775813	srli	x16,x14,0x17	 x14:0x00004243 x16=0x00000000
       31595000	      3158	80001d08	00000013	addi	x0,x0,0	  x0:0x00000000
       31605000	      3159	80001d0c	192dcf83	lbu	x31,402(x27)	 x27:0x80008d95 x31=0x0000000c PA:0x80008f27
       31615000	      3160	80001d10	013dc803	lbu	x16,19(x27)	 x27:0x80008d95 x16=0x00000093 PA:0x80008da8
       31625000	      3161	80001d14	b1ed8803	lb	x16,-1250(x27)	 x27:0x80008d95 x16=0xffffff98 PA:0x800088b3
       31635000	      3162	80001d18	41db5f93	srai	x31,x22,0x1d	 x22:0x0000006a x31=0x00000000
       31645000	      3163	80001d1c	00000013	addi	x0,x0,0	  x0:0x00000000
       31655000	      3164	80001d20	45c94393	xori	x7,x18,1116	 x18:0x00000000  x7=0x0000045c
       31665000	      3165	80001d24	030aea63	bltu	x21,x16,80001d58	 x21:0x7fdb9000 x16:0xffffff98
       31675000	      3166	00000000	00000013	addi	x0,x0,0	  x0:0x00000000
       31685000	      3167	80001d54	00000013	addi	x0,x0,0	  x0:0x00000000
       31695000	      3168	80001d58	01e68863	beq	x13,x30,80001d68	 x13:0x8000839c x30:0x00006767
       31705000	      3169	80001d5c	00fbe0b3	or	x1,x23,x15	 x23:0x00000045 x15:0x66800000  x1=0x66800045
       31715000	      3170	80001d60	0079de93	srli	x29,x19,0x7	 x19:0xfff00011 x29=0x01ffe000
       31725000	      3171	80001d64	01d158b3	srl	x17,x2,x29	  x2:0x80008b1f x29:0x01ffe000 x17=0x80008b1f
       31735000	      3172	80001d68	9f043493	sltiu	x9,x8,-1552	  x8:0x80009fc4  x9=0x00000001
       31745000	      3173	80001d6c	00aede63	bge	x29,x10,80001d88	 x29:0x01ffe000 x10:0x000000a9
       31755000	      3174	00000000	00000013	addi	x0,x0,0	  x0:0x00000000
       31765000	      3175	80001d84	00000013	addi	x0,x0,0	  x0:0x00000000
       31775000	      3176	80001d88	00883db3	sltu	x27,x16,x8	 x16:0xffffff98  x8:0x80009fc4 x27=0x00000000
       31785000	      3177	80001d8c	3947eb93	ori	x23,x15,916	 x15:0x66800000 x23=0x66800394
       31795000	      3178	80001d90	053a4663	blt	x20,x19,80001ddc	 x20:0x80009ed0 x19:0xfff00011
       31805000	      3179	00000000	00000013	addi	x0,x0,0	  x0:0x00000000
       31815000	      3180	80001dd8	00000013	addi	x0,x0,0	  x0:0x00000000
       31825000	      3181	80001ddc	bcc07813	andi	x16,x0,-1076	  x0:0x00000000 x16=0x00000000
       31835000	      3182	80001de0	2b524993	xori	x19,x4,693	  x4:0x0000cccd x19=0x0000ce78
       31845000	      3183	80001de4	9861ea93	ori	x21,x3,-1658	  x3:0x00000001 x21=0xfffff987
       31855000	      3184	80001de8	011ad233	srl	x4,x21,x17	 x21:0xfffff987 x17:0x80008b1f  x4=0x00000001
       31865000	      3185	80001dec	41ec8133	sub	x2,x25,x30	 x25:0xffffffd7 x30:0x00006767  x2=0xffff9870
       31875000	      3186	80001df0	047c6263	bltu	x24,x7,80001e34	 x24:0x00000001  x7:0x0000045c
       31885000	      3187	00000000	00000013	addi	x0,x0,0	  x0:0x00000000
       31895000	      3188	80001e30	00000013	addi	x0,x0,0	  x0:0x00000000
       31905000	      3189	80001e34	19597813	andi	x16,x18,405	 x18:0x00000000 x16=0x00000000
       31915000	      3190	80001e38	00abee33	or	x28,x23,x10	 x23:0x66800394 x10:0x000000a9 x28=0x668003bd
       31925000	      3191	80001e3c	003003b3	add	x7,x0,x3	  x0:0x00000000  x3:0x00000001  x7=0x00000001
       31935000	      3192	80001e40	009b9613	slli	x12,x23,0x9	 x23:0x66800394 x12=0x00072800
       31945000	      3193	80001e44	009d65b3	or	x11,x26,x9	 x26:0xff800083  x9:0x00000001 x11=0xff800083
       31955000	      3194	80001e48	acb508b7	lui	x17,0xacb50	 x17=0xacb50000
       31965000	      3195	80001e4c	0297e063	bltu	x15,x9,80001e6c	 x15:0x66800000  x9:0x00000001
       31975000	      3196	80001e50	01629863	bne	x5,x22,80001e60	  x5:0x00000092 x22:0x0000006a
       31985000	      3197	00000000	00000013	addi	x0,x0,0	  x0:0x00000000
       31995000	      3198	80001e5c	00000013	addi	x0,x0,0	  x0:0x00000000
       32005000	      3199	80001e60	404d5733	sra	x14,x26,x4	 x26:0xff800083  x4:0x00000001 x14=0xffc00041
       32015000	      3200	80001e64	00311bb3	sll	x23,x2,x3	  x2:0xffff9870  x3:0x00000001 x23=0xffff30e0
       32025000	      3201	80001e68	01aa4e63	blt	x20,x26,80001e84	 x20:0x80009ed0 x26:0xff800083
       32035000	      3202	00000000	00000013	addi	x0,x0,0	  x0:0x00000000
       32045000	      3203	80001e80	00000013	addi	x0,x0,0	  x0:0x00000000
       32055000	      3204	80001e84	ee813393	sltiu	x7,x2,-280	  x2:0xffff9870  x7=0x00000001
       32065000	      3205	80001e88	03eee863	bltu	x29,x30,80001eb8	 x29:0x01ffe000 x30:0x00006767
       32075000	      3206	80001e8c	40b38533	sub	x10,x7,x11	  x7:0x00000001 x11:0xff800083 x10=0x007fff7e
       32085000	      3207	80001e90	41d4d113	srai	x2,x9,0x1d	  x9:0x00000001  x2=0x00000000
       32095000	      3208	80001e94	018fe233	or	x4,x31,x24	 x31:0x00000000 x24:0x00000001  x4=0x00000001
       32105000	      3209	80001e98	00c9c133	xor	x2,x19,x12	 x19:0x0000ce78 x12:0x00072800  x2=0x0007e678
       32115000	      3210	80001e9c	cebea917	auipc	x18,0xcebea	 x18=0x4ebebe98
       32125000	      3211	80001ea0	010d3db3	sltu	x27,x26,x16	 x26:0xff800083 x16:0x00000000 x27=0x00000000
       32135000	      3212	80001ea4	4b820513	addi	x10,x4,1208	  x4:0x00000001 x10=0x000004b9
       32145000	      3213	80001ea8	1f507137	lui	x2,0x1f507	  x2=0x1f507000
       32155000	      3214	80001eac	40df5013	srai	x0,x30,0xd	 x30:0x00006767
       32165000	      3215	80001eb0	03b87063	bgeu	x16,x27,80001ed0	 x16:0x00000000 x27:0x00000000
       32175000	      3216	00000000	00000013	addi	x0,x0,0	  x0:0x00000000
       32185000	      3217	80001ecc	00000013	addi	x0,x0,0	  x0:0x00000000
       32195000	      3218	80001ed0	014a0863	beq	x20,x20,80001ee0	 x20:0x80009ed0 x20:0x80009ed0
       32205000	      3219	00000000	00000013	addi	x0,x0,0	  x0:0x00000000
       32215000	      3220	80001edc	00000013	addi	x0,x0,0	  x0:0x00000000
       32225000	      3221	80001ee0	02da7063	bgeu	x20,x13,80001f00	 x20:0x80009ed0 x13:0x8000839c
       32235000	      3222	00000000	00000013	addi	x0,x0,0	  x0:0x00000000
       32245000	      3223	80001efc	00000013	addi	x0,x0,0	  x0:0x00000000
       32255000	      3224	80001f00	5bcc3697	auipc	x13,0x5bcc3	 x13=0xdbcc4efc
       32265000	      3225	80001f04	ce738793	addi	x15,x7,-793	  x7:0x00000001 x15=0xfffffce8
       32275000	      3226	80001f08	41bd5e33	sra	x28,x26,x27	 x26:0xff800083 x27:0x00000000 x28=0xff800083
       32285000	      3227	80001f0c	f41b0893	addi	x17,x22,-191	 x22:0x0000006a x17=0xffffffab
       32295000	      3228	80001f10	003c6e63	bltu	x24,x3,80001f2c	 x24:0x00000001  x3:0x00000001
       32305000	      3229	80001f14	01505513	srli	x10,x0,0x15	  x0:0x00000000 x10=0x00000000
       32315000	      3230	80001f18	01b64263	blt	x12,x27,80001f1c	 x12:0x00072800 x27:0x00000000
       32325000	      3231	80001f1c	01a21713	slli	x14,x4,0x1a	  x4:0x00000001 x14=0x04000000
       32335000	      3232	80001f20	00e09033	sll	x0,x1,x14	  x1:0x66800045 x14:0x04000000
       32345000	      3233	80001f24	025e2113	slti	x2,x28,37	 x28:0xff800083  x2=0x00000001
       32355000	      3234	80001f28	00000013	addi	x0,x0,0	  x0:0x00000000
       32365000	      3235	80001f2c	01215463	bge	x2,x18,80001f34	  x2:0x00000001 x18:0x4ebebe98
       32375000	      3236	80001f30	650e5197	auipc	x3,0x650e5	  x3=0xe50e6f2c
       32385000	      3237	80001f34	02cc7c63	bgeu	x24,x12,80001f6c	 x24:0x00000001 x12:0x00072800
       32395000	      3238	80001f38	046ed263	bge	x29,x6,80001f7c	 x29:0x01ffe000  x6:0x0000000e
       32405000	      3239	00000000	00000013	addi	x0,x0,0	  x0:0x00000000
       32415000	      3240	80001f78	00000013	addi	x0,x0,0	  x0:0x00000000
       32425000	      3241	80001f7c	40a5d033	sra	x0,x11,x10	 x11:0xff800083 x10:0x00000000
       32435000	      3242	80001f80	a1af3713	sltiu	x14,x30,-1510	 x30:0x00006767 x14=0x00000001
       32445000	      3243	80001f84	ece87d13	andi	x26,x16,-306	 x16:0x00000000 x26=0x00000000
       32455000	      3244	80001f88	40320933	sub	x18,x4,x3	  x4:0x00000001  x3:0xe50e6f2c x18=0x1af190d5
       32465000	      3245	80001f8c	00bed193	srli	x3,x29,0xb	 x29:0x01ffe000  x3=0x00003ffc
       32475000	      3246	80001f90	af495d37	lui	x26,0xaf495	 x26=0xaf495000
       32485000	      3247	80001f94	00000013	addi	x0,x0,0	  x0:0x00000000
       32495000	      3248	80001f98	40c40eb3	sub	x29,x8,x12	  x8:0x80009fc4 x12:0x00072800 x29=0x7ff977c4
       32505000	      3249	80001f9c	7db27713	andi	x14,x4,2011	  x4:0x00000001 x14=0x00000001
       32515000	      3250	80001fa0	01c84733	xor	x14,x16,x28	 x16:0x00000000 x28:0xff800083 x14=0xff800083
       32525000	      3251	80001fa4	0045da93	srli	x21,x11,0x4	 x11:0xff800083 x21=0x0ff80008
       32535000	      3252	80001fa8	00eb1493	slli	x9,x22,0xe	 x22:0x0000006a  x9=0x001a8000
       32545000	      3253	80001fac	0008d463	bge	x17,x0,80001fb4	 x17:0xffffffab  x0:0x00000000
       32555000	      3254	80001fb0	04de6463	bltu	x28,x13,80001ff8	 x28:0xff800083 x13:0xdbcc4efc
       32565000	      3255	80001fb4	a9966e93	ori	x29,x12,-1383	 x12:0x00072800 x29=0xfffffa99
       32575000	      3256	80001fb8	00951893	slli	x17,x10,0x9	 x10:0x00000000 x17=0x00000000
       32585000	      3257	80001fbc	84a97193	andi	x3,x18,-1974	 x18:0x1af190d5  x3=0x1af19040
       32595000	      3258	80001fc0	00f58e63	beq	x11,x15,80001fdc	 x11:0xff800083 x15:0xfffffce8
       32605000	      3259	80001fc4	019dc863	blt	x27,x25,80001fd4	 x27:0x00000000 x25:0xffffffd7
       32615000	      3260	80001fc8	03698063	beq	x19,x22,80001fe8	 x19:0x0000ce78 x22:0x0000006a
       32625000	      3261	80001fcc	00da7db3	and	x27,x20,x13	 x20:0x80009ed0 x13:0xdbcc4efc x27=0x80000ed0
       32635000	      3262	80001fd0	0167c0b3	xor	x1,x15,x22	 x15:0xfffffce8 x22:0x0000006a  x1=0xfffffc82
       32645000	      3263	80001fd4	00aaa8b3	slt	x17,x21,x10	 x21:0x0ff80008 x10:0x00000000 x17=0x00000000
       32655000	      3264	80001fd8	40ec5293	srai	x5,x24,0xe	 x24:0x00000001  x5=0x00000000
       32665000	      3265	80001fdc	028ace63	blt	x21,x8,80002018	 x21:0x0ff80008  x8:0x80009fc4
       32675000	      3266	80001fe0	01d21e93	slli	x29,x4,0x1d	  x4:0x00000001 x29=0x20000000
       32685000	      3267	80001fe4	0b550e17	auipc	x28,0xb550	 x28=0x8b551fe0
       32695000	      3268	80001fe8	00326133	or	x2,x4,x3	  x4:0x00000001  x3:0x1af19040  x2=0x1af19041
       32705000	      3269	80001fec	0169fb13	andi	x22,x19,22	 x19:0x0000ce78 x22=0x00000010
       32715000	      3270	80001ff0	010972b3	and	x5,x18,x16	 x18:0x1af190d5 x16:0x00000000  x5=0x00000000
       32725000	      3271	80001ff4	0261d063	bge	x3,x6,80002014	  x3:0x1af19040  x6:0x0000000e
       32735000	      3272	00000000	00000013	addi	x0,x0,0	  x0:0x00000000
       32745000	      3273	80002010	00000013	addi	x0,x0,0	  x0:0x00000000
       32755000	      3274	80002014	e5fb8137	lui	x2,0xe5fb8	  x2=0xe5fb8000
       32765000	      3275	80002018	017abdb3	sltu	x27,x21,x23	 x21:0x0ff80008 x23:0xffff30e0 x27=0x00000001
       32775000	      3276	8000201c	4e318b13	addi	x22,x3,1251	  x3:0x1af19040 x22=0x1af19523
       32785000	      3277	80002020	056f8063	beq	x31,x22,80002060	 x31:0x00000000 x22:0x1af19523
       32795000	      3278	80002024	405106b3	sub	x13,x2,x5	  x2:0xe5fb8000  x5:0x00000000 x13=0xe5fb8000
       32805000	      3279	80002028	00c16863	bltu	x2,x12,80002038	  x2:0xe5fb8000 x12:0x00072800
       32815000	      3280	8000202c	627e7a93	andi	x21,x28,1575	 x28:0x8b551fe0 x21=0x00000620
       32825000	      3281	80002030	40fb53b3	sra	x7,x22,x15	 x22:0x1af19523 x15:0xfffffce8  x7=0x001af195
       32835000	      3282	80002034	00985e93	srli	x29,x16,0x9	 x16:0x00000000 x29=0x00000000
       32845000	      3283	80002038	01ec83b3	add	x7,x25,x30	 x25:0xffffffd7 x30:0x00006767  x7=0x0000673e
       32855000	      3284	8000203c	00000013	addi	x0,x0,0	  x0:0x00000000
       32865000	      3285	80002040	408653b3	sra	x7,x12,x8	 x12:0x00072800  x8:0x80009fc4  x7=0x00007280
       32875000	      3286	80002044	04181263	bne	x16,x1,80002088	 x16:0x00000000  x1:0xfffffc82
       32885000	      3287	00000000	00000013	addi	x0,x0,0	  x0:0x00000000
       32895000	      3288	80002084	00000013	addi	x0,x0,0	  x0:0x00000000
       32905000	      3289	80002088	46e3fd93	andi	x27,x7,1134	  x7:0x00007280 x27=0x00000000
       32915000	      3290	8000208c	03235063	bge	x6,x18,800020ac	  x6:0x0000000e x18:0x1af190d5
       32925000	      3291	80002090	d45e8bb7	lui	x23,0xd45e8	 x23=0xd45e8000
       32935000	      3292	80002094	00000013	addi	x0,x0,0	  x0:0x00000000
       32945000	      3293	80002098	41d60933	sub	x18,x12,x29	 x12:0x00072800 x29:0x00000000 x18=0x00072800
       32955000	      3294	8000209c	00623d33	sltu	x26,x4,x6	  x4:0x00000001  x6:0x0000000e x26=0x00000001
       32965000	      3295	800020a0	033cc863	blt	x25,x19,800020d0	 x25:0xffffffd7 x19:0x0000ce78
       32975000	      3296	00000000	00000013	addi	x0,x0,0	  x0:0x00000000
       32985000	      3297	800020cc	00000013	addi	x0,x0,0	  x0:0x00000000
       32995000	      3298	800020d0	01042133	slt	x2,x8,x16	  x8:0x80009fc4 x16:0x00000000  x2=0x00000001
       33005000	      3299	800020d4	91602013	slti	x0,x0,-1770	  x0:0x00000000
       33015000	      3300	800020d8	41478133	sub	x2,x15,x20	 x15:0xfffffce8 x20:0x80009ed0  x2=0x7fff5e18
       33025000	      3301	800020dc	0474d263	bge	x9,x7,80002120	  x9:0x001a8000  x7:0x00007280
       33035000	      3302	00000000	00000013	addi	x0,x0,0	  x0:0x00000000
       33045000	      3303	8000211c	00000013	addi	x0,x0,0	  x0:0x00000000
       33055000	      3304	80002120	414ad533	sra	x10,x21,x20	 x21:0x00000620 x20:0x80009ed0 x10=0x00000000
       33065000	      3305	80002124	02214e63	blt	x2,x2,80002160	  x2:0x7fff5e18  x2:0x7fff5e18
       33075000	      3306	80002128	0181af33	slt	x30,x3,x24	  x3:0x1af19040 x24:0x00000001 x30=0x00000000
       33085000	      3307	8000212c	41ab5833	sra	x16,x22,x26	 x22:0x1af19523 x26:0x00000001 x16=0x0d78ca91
       33095000	      3308	80002130	03f9e863	bltu	x19,x31,80002160	 x19:0x0000ce78 x31:0x00000000
       33105000	      3309	80002134	402b05b3	sub	x11,x22,x2	 x22:0x1af19523  x2:0x7fff5e18 x11=0x9af2370b
       33115000	      3310	80002138	d2857d13	andi	x26,x10,-728	 x10:0x00000000 x26=0x00000000
       33125000	      3311	8000213c	414cde93	srai	x29,x25,0x14	 x25:0xffffffd7 x29=0xffffffff
       33135000	      3312	80002140	006e4863	blt	x28,x6,80002150	 x28:0x8b551fe0  x6:0x0000000e
       33145000	      3313	00000000	00000013	addi	x0,x0,0	  x0:0x00000000
       33155000	      3314	8000214c	00000013	addi	x0,x0,0	  x0:0x00000000
       33165000	      3315	80002150	4199de33	sra	x28,x19,x25	 x19:0x0000ce78 x25:0xffffffd7 x28=0x00000000
       33175000	      3316	80002154	01793eb3	sltu	x29,x18,x23	 x18:0x00072800 x23:0xd45e8000 x29=0x00000001
       33185000	      3317	80002158	00b61213	slli	x4,x12,0xb	 x12:0x00072800  x4=0x39400000
       33195000	      3318	8000215c	01317b33	and	x22,x2,x19	  x2:0x7fff5e18 x19:0x0000ce78 x22=0x00004e18
       33205000	      3319	80002160	9a092913	slti	x18,x18,-1632	 x18:0x00072800 x18=0x00000000
       33215000	      3320	80002164	03e25c63	bge	x4,x30,8000219c	  x4:0x39400000 x30:0x00000000
       33225000	      3321	00000000	00000013	addi	x0,x0,0	  x0:0x00000000
       33235000	      3322	80002198	00000013	addi	x0,x0,0	  x0:0x00000000
       33245000	      3323	8000219c	40a355b3	sra	x11,x6,x10	  x6:0x0000000e x10:0x00000000 x11=0x0000000e
       33255000	      3324	800021a0	010b0863	beq	x22,x16,800021b0	 x22:0x00004e18 x16:0x0d78ca91
       33265000	      3325	800021a4	9c1b2893	slti	x17,x22,-1599	 x22:0x00004e18 x17=0x00000000
       33275000	      3326	800021a8	01894233	xor	x4,x18,x24	 x18:0x00000000 x24:0x00000001  x4=0x00000001
       33285000	      3327	800021ac	2a333513	sltiu	x10,x6,675	  x6:0x0000000e x10=0x00000001
       33295000	      3328	800021b0	a16bb513	sltiu	x10,x23,-1514	 x23:0xd45e8000 x10=0x00000001
       33305000	      3329	800021b4	03046a63	bltu	x8,x16,800021e8	  x8:0x80009fc4 x16:0x0d78ca91
       33315000	      3330	800021b8	00f1c233	xor	x4,x3,x15	  x3:0x1af19040 x15:0xfffffce8  x4=0xe50e6ca8
       33325000	      3331	800021bc	0056c1b3	xor	x3,x13,x5	 x13:0xe5fb8000  x5:0x00000000  x3=0xe5fb8000
       33335000	      3332	800021c0	006b04b3	add	x9,x22,x6	 x22:0x00004e18  x6:0x0000000e  x9=0x00004e26
       33345000	      3333	800021c4	979ee113	ori	x2,x29,-1671	 x29:0x00000001  x2=0xfffff979
       33355000	      3334	800021c8	c968b513	sltiu	x10,x17,-874	 x17:0x00000000 x10=0x00000001
       33365000	      3335	800021cc	01f5c463	blt	x11,x31,800021d4	 x11:0x0000000e x31:0x00000000
       33375000	      3336	800021d0	01df9d33	sll	x26,x31,x29	 x31:0x00000000 x29:0x00000001 x26=0x00000000
       33385000	      3337	800021d4	71d24f17	auipc	x30,0x71d24	 x30=0xf1d261d0
       33395000	      3338	800021d8	00281e63	bne	x16,x2,800021f4	 x16:0x0d78ca91  x2:0xfffff979
       33405000	      3339	00000000	00000013	addi	x0,x0,0	  x0:0x00000000
       33415000	      3340	800021f0	00000013	addi	x0,x0,0	  x0:0x00000000
       33425000	      3341	800021f4	019c26b3	slt	x13,x24,x25	 x24:0x00000001 x25:0xffffffd7 x13=0x00000000
       33435000	      3342	800021f8	01c53e33	sltu	x28,x10,x28	 x10:0x00000001 x28:0x00000000 x28=0x00000000
       33445000	      3343	800021fc	41a10cb3	sub	x25,x2,x26	  x2:0xfffff979 x26:0x00000000 x25=0xfffff979
       33455000	      3344	80002200	05811463	bne	x2,x24,80002248	  x2:0xfffff979 x24:0x00000001
       33465000	      3345	00000000	00000013	addi	x0,x0,0	  x0:0x00000000
       33475000	      3346	80002244	00000013	addi	x0,x0,0	  x0:0x00000000
       33485000	      3347	80002248	485bbe93	sltiu	x29,x23,1157	 x23:0xd45e8000 x29=0x00000000
       33495000	      3348	8000224c	0143a3b3	slt	x7,x7,x20	  x7:0x00007280 x20:0x80009ed0  x7=0x00000000
       33505000	      3349	80002250	0893be93	sltiu	x29,x7,137	  x7:0x00000000 x29=0x00000001
       33515000	      3350	80002254	00171b13	slli	x22,x14,0x1	 x14:0xff800083 x22=0xff000106
       33525000	      3351	80002258	c418eb13	ori	x22,x17,-959	 x17:0x00000000 x22=0xfffffc41
       33535000	      3352	8000225c	0e24cdb7	lui	x27,0xe24c	 x27=0x0e24c000
       33545000	      3353	80002260	c18fe193	ori	x3,x31,-1000	 x31:0x00000000  x3=0xfffffc18
       33555000	      3354	80002264	644efb93	andi	x23,x29,1604	 x29:0x00000001 x23=0x00000000
       33565000	      3355	80002268	0476d063	bge	x13,x7,800022a8	 x13:0x00000000  x7:0x00000000
       33575000	      3356	00000000	00000013	addi	x0,x0,0	  x0:0x00000000
       33585000	      3357	800022a4	00000013	addi	x0,x0,0	  x0:0x00000000
       33595000	      3358	800022a8	41f3d813	srai	x16,x7,0x1f	  x7:0x00000000 x16=0x00000000
       33605000	      3359	800022ac	0197aab3	slt	x21,x15,x25	 x15:0xfffffce8 x25:0xfffff979 x21=0x00000000
       33615000	      3360	800022b0	04187263	bgeu	x16,x1,800022f4	 x16:0x00000000  x1:0xfffffc82
       33625000	      3361	800022b4	01c3beb3	sltu	x29,x7,x28	  x7:0x00000000 x28:0x00000000 x29=0x00000000
       33635000	      3362	800022b8	00d95e63	bge	x18,x13,800022d4	 x18:0x00000000 x13:0x00000000
       33645000	      3363	00000000	00000013	addi	x0,x0,0	  x0:0x00000000
       33655000	      3364	800022d0	00000013	addi	x0,x0,0	  x0:0x00000000
       33665000	      3365	800022d4	3b8c4b93	xori	x23,x24,952	 x24:0x00000001 x23=0x000003b9
       33675000	      3366	800022d8	01059263	bne	x11,x16,800022dc	 x11:0x0000000e x16:0x00000000
       33685000	      3367	00000000	00000013	addi	x0,x0,0	  x0:0x00000000
       33695000	      3368	800022d8	00000013	addi	x0,x0,0	  x0:0x00000000
       33705000	      3369	800022dc	01bf4863	blt	x30,x27,800022ec	 x30:0xf1d261d0 x27:0x0e24c000
       33715000	      3370	00000000	00000013	addi	x0,x0,0	  x0:0x00000000
       33725000	      3371	800022e8	00000013	addi	x0,x0,0	  x0:0x00000000
       33735000	      3372	800022ec	dad37e17	auipc	x28,0xdad37	 x28=0x5ad392e8
       33745000	      3373	800022f0	008956b3	srl	x13,x18,x8	 x18:0x00000000  x8:0x80009fc4 x13=0x00000000
       33755000	      3374	800022f4	01610233	add	x4,x2,x22	  x2:0xfffff979 x22:0xfffffc41  x4=0xfffff5ba
       33765000	      3375	800022f8	016bde63	bge	x23,x22,80002314	 x23:0x000003b9 x22:0xfffffc41
       33775000	      3376	00000000	00000013	addi	x0,x0,0	  x0:0x00000000
       33785000	      3377	80002310	00000013	addi	x0,x0,0	  x0:0x00000000
       33795000	      3378	80002314	20636913	ori	x18,x6,518	  x6:0x0000000e x18=0x0000020e
       33805000	      3379	80002318	01a9e8b3	or	x17,x19,x26	 x19:0x0000ce78 x26:0x00000000 x17=0x0000ce78
       33815000	      3380	8000231c	029ff463	bgeu	x31,x9,80002344	 x31:0x00000000  x9:0x00004e26
       33825000	      3381	80002320	00f443b3	xor	x7,x8,x15	  x8:0x80009fc4 x15:0xfffffce8  x7=0x7fff632c
       33835000	      3382	80002324	c45ce913	ori	x18,x25,-955	 x25:0xfffff979 x18=0xfffffd7d
       33845000	      3383	80002328	005cd293	srli	x5,x25,0x5	 x25:0xfffff979  x5=0x07ffffcb
       33855000	      3384	8000232c	01c004b3	add	x9,x0,x28	  x0:0x00000000 x28:0x5ad392e8  x9=0x5ad392e8
       33865000	      3385	80002330	00da9a63	bne	x21,x13,80002344	 x21:0x00000000 x13:0x00000000
       33875000	      3386	80002334	04bdd263	bge	x27,x11,80002378	 x27:0x0e24c000 x11:0x0000000e
       33885000	      3387	00000000	00000013	addi	x0,x0,0	  x0:0x00000000
       33895000	      3388	80002374	00000013	addi	x0,x0,0	  x0:0x00000000
       33905000	      3389	80002378	03164063	blt	x12,x17,80002398	 x12:0x00072800 x17:0x0000ce78
       33915000	      3390	8000237c	ee796b13	ori	x22,x18,-281	 x18:0xfffffd7d x22=0xffffffff
       33925000	      3391	80002380	024a8a63	beq	x21,x4,800023b4	 x21:0x00000000  x4:0xfffff5ba
       33935000	      3392	80002384	0143d213	srli	x4,x7,0x14	  x7:0x7fff632c  x4=0x000007ff
       33945000	      3393	80002388	a494f993	andi	x19,x9,-1463	  x9:0x5ad392e8 x19=0x5ad39248
       33955000	      3394	8000238c	0174a1b3	slt	x3,x9,x23	  x9:0x5ad392e8 x23:0x000003b9  x3=0x00000000
       33965000	      3395	80002390	05cf6263	bltu	x30,x28,800023d4	 x30:0xf1d261d0 x28:0x5ad392e8
       33975000	      3396	80002394	417956b3	sra	x13,x18,x23	 x18:0xfffffd7d x23:0x000003b9 x13=0xffffffff
       33985000	      3397	80002398	0202cc63	blt	x5,x0,800023d0	  x5:0x07ffffcb  x0:0x00000000
       33995000	      3398	8000239c	41c7d813	srai	x16,x15,0x1c	 x15:0xfffffce8 x16=0xffffffff
       34005000	      3399	800023a0	03435063	bge	x6,x20,800023c0	  x6:0x0000000e x20:0x80009ed0
       34015000	      3400	00000000	00000013	addi	x0,x0,0	  x0:0x00000000
       34025000	      3401	800023bc	00000013	addi	x0,x0,0	  x0:0x00000000
       34035000	      3402	800023c0	010f5cb3	srl	x25,x30,x16	 x30:0xf1d261d0 x16:0xffffffff x25=0x00000001
       34045000	      3403	800023c4	00e60e63	beq	x12,x14,800023e0	 x12:0x00072800 x14:0xff800083
       34055000	      3404	800023c8	00000013	addi	x0,x0,0	  x0:0x00000000
       34065000	      3405	800023cc	05a6d063	bge	x13,x26,8000240c	 x13:0xffffffff x26:0x00000000
       34075000	      3406	800023d0	008a1d33	sll	x26,x20,x8	 x20:0x80009ed0  x8:0x80009fc4 x26=0x0009ed00
       34085000	      3407	800023d4	01a11863	bne	x2,x26,800023e4	  x2:0xfffff979 x26:0x0009ed00
       34095000	      3408	00000000	00000013	addi	x0,x0,0	  x0:0x00000000
       34105000	      3409	800023e0	00000013	addi	x0,x0,0	  x0:0x00000000
       34115000	      3410	800023e4	02abd863	bge	x23,x10,80002414	 x23:0x000003b9 x10:0x00000001
       34125000	      3411	00000000	00000013	addi	x0,x0,0	  x0:0x00000000
       34135000	      3412	80002410	00000013	addi	x0,x0,0	  x0:0x00000000
       34145000	      3413	80002414	03a7d063	bge	x15,x26,80002434	 x15:0xfffffce8 x26:0x0009ed00
       34155000	      3414	80002418	008d4f33	xor	x30,x26,x8	 x26:0x0009ed00  x8:0x80009fc4 x30=0x800972c4
       34165000	      3415	8000241c	00cf4c33	xor	x24,x30,x12	 x30:0x800972c4 x12:0x00072800 x24=0x800e5ac4
       34175000	      3416	80002420	01026833	or	x16,x4,x16	  x4:0x000007ff x16:0xffffffff x16=0xffffffff
       34185000	      3417	80002424	4198dcb3	sra	x25,x17,x25	 x17:0x0000ce78 x25:0x00000001 x25=0x0000673c
       34195000	      3418	80002428	c03600b7	lui	x1,0xc0360	  x1=0xc0360000
       34205000	      3419	8000242c	40505013	srai	x0,x0,0x5	  x0:0x00000000
       34215000	      3420	80002430	41c7d613	srai	x12,x15,0x1c	 x15:0xfffffce8 x12=0xffffffff
       34225000	      3421	80002434	40f650b3	sra	x1,x12,x15	 x12:0xffffffff x15:0xfffffce8  x1=0xffffffff
       34235000	      3422	80002438	00711863	bne	x2,x7,80002448	  x2:0xfffff979  x7:0x7fff632c
       34245000	      3423	00000000	00000013	addi	x0,x0,0	  x0:0x00000000
       34255000	      3424	80002444	00000013	addi	x0,x0,0	  x0:0x00000000
       34265000	      3425	80002448	111bf813	andi	x16,x23,273	 x23:0x000003b9 x16=0x00000111
       34275000	      3426	8000244c	d6067d13	andi	x26,x12,-672	 x12:0xffffffff x26=0xfffffd60
       34285000	      3427	80002450	00641733	sll	x14,x8,x6	  x8:0x80009fc4  x6:0x0000000e x14=0x27f10000
       34295000	      3428	80002454	018b09b3	add	x19,x22,x24	 x22:0xffffffff x24:0x800e5ac4 x19=0x800e5ac3
       34305000	      3429	80002458	00df5f33	srl	x30,x30,x13	 x30:0x800972c4 x13:0xffffffff x30=0x00000001
       34315000	      3430	8000245c	b3dec993	xori	x19,x29,-1219	 x29:0x00000000 x19=0xfffffb3d
       34325000	      3431	80002460	029c5663	bge	x24,x9,8000248c	 x24:0x800e5ac4  x9:0x5ad392e8
       34335000	      3432	80002464	00e982b3	add	x5,x19,x14	 x19:0xfffffb3d x14:0x27f10000  x5=0x27f0fb3d
       34345000	      3433	80002468	00467633	and	x12,x12,x4	 x12:0xffffffff  x4:0x000007ff x12=0x000007ff
       34355000	      3434	8000246c	015518b3	sll	x17,x10,x21	 x10:0x00000001 x21:0x00000000 x17=0x00000001
       34365000	      3435	80002470	01de36b3	sltu	x13,x28,x29	 x28:0x5ad392e8 x29:0x00000000 x13=0x00000000
       34375000	      3436	80002474	41245d13	srai	x26,x8,0x12	  x8:0x80009fc4 x26=0xffffe000
       34385000	      3437	80002478	fad90093	addi	x1,x18,-83	 x18:0xfffffd7d  x1=0xfffffd2a
       34395000	      3438	8000247c	019e5213	srli	x4,x28,0x19	 x28:0x5ad392e8  x4=0x0000002d
       34405000	      3439	80002480	005a5113	srli	x2,x20,0x5	 x20:0x80009ed0  x2=0x040004f6
       34415000	      3440	80002484	018f38b3	sltu	x17,x30,x24	 x30:0x00000001 x24:0x800e5ac4 x17=0x00000001
       34425000	      3441	80002488	00c7de63	bge	x15,x12,800024a4	 x15:0xfffffce8 x12:0x000007ff
       34435000	      3442	8000248c	0094d8b3	srl	x17,x9,x9	  x9:0x5ad392e8  x9:0x5ad392e8 x17=0x005ad392
       34445000	      3443	80002490	038cc063	blt	x25,x24,800024b0	 x25:0x0000673c x24:0x800e5ac4
       34455000	      3444	80002494	0001dcb3	srl	x25,x3,x0	  x3:0x00000000  x0:0x00000000 x25=0x00000000
       34465000	      3445	80002498	1bc0a593	slti	x11,x1,444	  x1:0xfffffd2a x11=0x00000001
       34475000	      3446	8000249c	0443e663	bltu	x7,x4,800024e8	  x7:0x7fff632c  x4:0x0000002d
       34485000	      3447	800024a0	011724b3	slt	x9,x14,x17	 x14:0x27f10000 x17:0x005ad392  x9=0x00000000
       34495000	      3448	800024a4	014abeb3	sltu	x29,x21,x20	 x21:0x00000000 x20:0x80009ed0 x29=0x00000001
       34505000	      3449	800024a8	01d3de63	bge	x7,x29,800024c4	  x7:0x7fff632c x29:0x00000001
       34515000	      3450	00000000	00000013	addi	x0,x0,0	  x0:0x00000000
       34525000	      3451	800024c0	00000013	addi	x0,x0,0	  x0:0x00000000
       34535000	      3452	800024c4	a1b4a613	slti	x12,x9,-1509	  x9:0x00000000 x12=0x00000000
       34545000	      3453	800024c8	0166bf33	sltu	x30,x13,x22	 x13:0x00000000 x22:0xffffffff x30=0x00000001
       34555000	      3454	800024cc	b9500993	addi	x19,x0,-1131	  x0:0x00000000 x19=0xfffffb95
       34565000	      3455	800024d0	004b7933	and	x18,x22,x4	 x22:0xffffffff  x4:0x0000002d x18=0x0000002d
       34575000	      3456	800024d4	058b5263	bge	x22,x24,80002518	 x22:0xffffffff x24:0x800e5ac4
       34585000	      3457	00000000	00000013	addi	x0,x0,0	  x0:0x00000000
       34595000	      3458	80002514	00000013	addi	x0,x0,0	  x0:0x00000000
       34605000	      3459	80002518	00000013	addi	x0,x0,0	  x0:0x00000000
       34615000	      3460	8000251c	0294c063	blt	x9,x9,8000253c	  x9:0x00000000  x9:0x00000000
       34625000	      3461	80002520	0037c5b3	xor	x11,x15,x3	 x15:0xfffffce8  x3:0x00000000 x11=0xfffffce8
       34635000	      3462	80002524	00000013	addi	x0,x0,0	  x0:0x00000000
       34645000	      3463	80002528	01649533	sll	x10,x9,x22	  x9:0x00000000 x22:0xffffffff x10=0x00000000
       34655000	      3464	8000252c	5e3c4f13	xori	x30,x24,1507	 x24:0x800e5ac4 x30=0x800e5f27
       34665000	      3465	80002530	00000013	addi	x0,x0,0	  x0:0x00000000
       34675000	      3466	80002534	00ee7833	and	x16,x28,x14	 x28:0x5ad392e8 x14:0x27f10000 x16=0x02d10000
       34685000	      3467	80002538	01e329b3	slt	x19,x6,x30	  x6:0x0000000e x30:0x800e5f27 x19=0x00000000
       34695000	      3468	8000253c	0053ab33	slt	x22,x7,x5	  x7:0x7fff632c  x5:0x27f0fb3d x22=0x00000000
       34705000	      3469	80002540	05bb6063	bltu	x22,x27,80002580	 x22:0x00000000 x27:0x0e24c000
       34715000	      3470	00000000	00000013	addi	x0,x0,0	  x0:0x00000000
       34725000	      3471	8000257c	00000013	addi	x0,x0,0	  x0:0x00000000
       34735000	      3472	80002580	016d1a93	slli	x21,x26,0x16	 x26:0xffffe000 x21=0x00000000
       34745000	      3473	80002584	41045f33	sra	x30,x8,x16	  x8:0x80009fc4 x16:0x02d10000 x30=0x80009fc4
       34755000	      3474	80002588	b64efe37	lui	x28,0xb64ef	 x28=0xb64ef000
       34765000	      3475	8000258c	01b07e63	bgeu	x0,x27,800025a8	  x0:0x00000000 x27:0x0e24c000
       34775000	      3476	80002590	008d83b3	add	x7,x27,x8	 x27:0x0e24c000  x8:0x80009fc4  x7=0x8e255fc4
       34785000	      3477	80002594	01c79693	slli	x13,x15,0x1c	 x15:0xfffffce8 x13=0x80000000
       34795000	      3478	80002598	413f0c33	sub	x24,x30,x19	 x30:0x80009fc4 x19:0x00000000 x24=0x80009fc4
       34805000	      3479	8000259c	d6f44813	xori	x16,x8,-657	  x8:0x80009fc4 x16=0x7fff62ab
       34815000	      3480	800025a0	5d87f0b7	lui	x1,0x5d87f	  x1=0x5d87f000
       34825000	      3481	800025a4	72000293	addi	x5,x0,1824	  x0:0x00000000  x5=0x00000720
       34835000	      3482	800025a8	418a5d13	srai	x26,x20,0x18	 x20:0x80009ed0 x26=0xffffff80
       34845000	      3483	800025ac	01895863	bge	x18,x24,800025bc	 x18:0x0000002d x24:0x80009fc4
       34855000	      3484	00000000	00000013	addi	x0,x0,0	  x0:0x00000000
       34865000	      3485	800025b8	00000013	addi	x0,x0,0	  x0:0x00000000
       34875000	      3486	800025bc	030c5063	bge	x24,x16,800025dc	 x24:0x80009fc4 x16:0x7fff62ab
       34885000	      3487	800025c0	407559b3	sra	x19,x10,x7	 x10:0x00000000  x7:0x8e255fc4 x19=0x00000000
       34895000	      3488	800025c4	61f08517	auipc	x10,0x61f08	 x10=0xe1f0a5c0
       34905000	      3489	800025c8	0509d263	bge	x19,x16,8000260c	 x19:0x00000000 x16:0x7fff62ab
       34915000	      3490	800025cc	40d18ab3	sub	x21,x3,x13	  x3:0x00000000 x13:0x80000000 x21=0x80000000
       34925000	      3491	800025d0	017d9fb3	sll	x31,x27,x23	 x27:0x0e24c000 x23:0x000003b9 x31=0x00000000
       34935000	      3492	800025d4	0187b5b3	sltu	x11,x15,x24	 x15:0xfffffce8 x24:0x80009fc4 x11=0x00000000
       34945000	      3493	800025d8	01171b13	slli	x22,x14,0x11	 x14:0x27f10000 x22=0x00000000
       34955000	      3494	800025dc	018dfdb3	and	x27,x27,x24	 x27:0x0e24c000 x24:0x80009fc4 x27=0x00008000
       34965000	      3495	800025e0	0574d663	bge	x9,x23,8000262c	  x9:0x00000000 x23:0x000003b9
       34975000	      3496	800025e4	046ec463	blt	x29,x6,8000262c	 x29:0x00000001  x6:0x0000000e
       34985000	      3497	00000000	00000013	addi	x0,x0,0	  x0:0x00000000
       34995000	      3498	80002628	00000013	addi	x0,x0,0	  x0:0x00000000
       35005000	      3499	8000262c	006b9233	sll	x4,x23,x6	 x23:0x000003b9  x6:0x0000000e  x4=0x00ee4000
       35015000	      3500	80002630	ed68e5b7	lui	x11,0xed68e	 x11=0xed68e000
       35025000	      3501	80002634	40a65213	srai	x4,x12,0xa	 x12:0x00000000  x4=0x00000000
       35035000	      3502	80002638	0073ed33	or	x26,x7,x7	  x7:0x8e255fc4  x7:0x8e255fc4 x26=0x8e255fc4
       35045000	      3503	8000263c	0147e833	or	x16,x15,x20	 x15:0xfffffce8 x20:0x80009ed0 x16=0xfffffef8
       35055000	      3504	80002640	008b5993	srli	x19,x22,0x8	 x22:0x00000000 x19=0x00000000
       35065000	      3505	80002644	0180bb33	sltu	x22,x1,x24	  x1:0x5d87f000 x24:0x80009fc4 x22=0x00000001
       35075000	      3506	80002648	c1a20913	addi	x18,x4,-998	  x4:0x00000000 x18=0xfffffc1a
       35085000	      3507	8000264c	0155db93	srli	x23,x11,0x15	 x11:0xed68e000 x23=0x0000076b
       35095000	      3508	80002650	00e317b3	sll	x15,x6,x14	  x6:0x0000000e x14:0x27f10000 x15=0x0000000e
       35105000	      3509	80002654	01fad9b3	srl	x19,x21,x31	 x21:0x80000000 x31:0x00000000 x19=0x80000000
       35115000	      3510	80002658	03386c63	bltu	x16,x19,80002690	 x16:0xfffffef8 x19:0x80000000
       35125000	      3511	8000265c	00f95863	bge	x18,x15,8000266c	 x18:0xfffffc1a x15:0x0000000e
       35135000	      3512	80002660	21e43513	sltiu	x10,x8,542	  x8:0x80009fc4 x10=0x00000000
       35145000	      3513	80002664	00000013	addi	x0,x0,0	  x0:0x00000000
       35155000	      3514	80002668	faa5ed13	ori	x26,x11,-86	 x11:0xed68e000 x26=0xffffffaa
       35165000	      3515	8000266c	40ad81b3	sub	x3,x27,x10	 x27:0x00008000 x10:0x00000000  x3=0x00008000
       35175000	      3516	80002670	09af4693	xori	x13,x30,154	 x30:0x80009fc4 x13=0x80009f5e
       35185000	      3517	80002674	008f6e63	bltu	x30,x8,80002690	 x30:0x80009fc4  x8:0x80009fc4
       35195000	      3518	80002678	a7c54f93	xori	x31,x10,-1412	 x10:0x00000000 x31=0xfffffa7c
       35205000	      3519	8000267c	590cee13	ori	x28,x25,1424	 x25:0x00000000 x28=0x00000590
       35215000	      3520	80002680	01c06e63	bltu	x0,x28,8000269c	  x0:0x00000000 x28:0x00000590
       35225000	      3521	00000000	00000013	addi	x0,x0,0	  x0:0x00000000
       35235000	      3522	80002698	00000013	addi	x0,x0,0	  x0:0x00000000
       35245000	      3523	8000269c	01ba0633	add	x12,x20,x27	 x20:0x80009ed0 x27:0x00008000 x12=0x80011ed0
       35255000	      3524	800026a0	04a19063	bne	x3,x10,800026e0	  x3:0x00008000 x10:0x00000000
       35265000	      3525	00000000	00000013	addi	x0,x0,0	  x0:0x00000000
       35275000	      3526	800026dc	00000013	addi	x0,x0,0	  x0:0x00000000
       35285000	      3527	800026e0	00d05113	srli	x2,x0,0xd	  x0:0x00000000  x2=0x00000000
       35295000	      3528	800026e4	1c58e093	ori	x1,x17,453	 x17:0x005ad392  x1=0x005ad3d7
       35305000	      3529	800026e8	05898063	beq	x19,x24,80002728	 x19:0x80000000 x24:0x80009fc4
       35315000	      3530	800026ec	00bc0863	beq	x24,x11,800026fc	 x24:0x80009fc4 x11:0xed68e000
       35325000	      3531	800026f0	01e88833	add	x16,x17,x30	 x17:0x005ad392 x30:0x80009fc4 x16=0x805b7356
       35335000	      3532	800026f4	01e08133	add	x2,x1,x30	  x1:0x005ad3d7 x30:0x80009fc4  x2=0x805b739b
       35345000	      3533	800026f8	00e00bb3	add	x23,x0,x14	  x0:0x00000000 x14:0x27f10000 x23=0x27f10000
       35355000	      3534	800026fc	41f85fb3	sra	x31,x16,x31	 x16:0x805b7356 x31:0xfffffa7c x31=0xfffffff8
       35365000	      3535	80002700	00ddeeb3	or	x29,x27,x13	 x27:0x00008000 x13:0x80009f5e x29=0x80009f5e
       35375000	      3536	80002704	00000013	addi	x0,x0,0	  x0:0x00000000
       35385000	      3537	80002708	00d28e63	beq	x5,x13,80002724	  x5:0x00000720 x13:0x80009f5e
       35395000	      3538	8000270c	043f0663	beq	x30,x3,80002758	 x30:0x80009fc4  x3:0x00008000
       35405000	      3539	80002710	41568533	sub	x10,x13,x21	 x13:0x80009f5e x21:0x80000000 x10=0x00009f5e
       35415000	      3540	80002714	f311f193	andi	x3,x3,-207	  x3:0x00008000  x3=0x00008000
       35425000	      3541	80002718	015b7e63	bgeu	x22,x21,80002734	 x22:0x00000001 x21:0x80000000
       35435000	      3542	8000271c	0152f463	bgeu	x5,x21,80002724	  x5:0x00000720 x21:0x80000000
       35445000	      3543	80002720	01641213	slli	x4,x8,0x16	  x8:0x80009fc4  x4=0xf1000000
       35455000	      3544	80002724	015588b3	add	x17,x11,x21	 x11:0xed68e000 x21:0x80000000 x17=0x6d68e000
       35465000	      3545	80002728	02868863	beq	x13,x8,80002758	 x13:0x80009f5e  x8:0x80009fc4
       35475000	      3546	8000272c	014361b3	or	x3,x6,x20	  x6:0x0000000e x20:0x80009ed0  x3=0x80009ede
       35485000	      3547	80002730	40da8fb3	sub	x31,x21,x13	 x21:0x80000000 x13:0x80009f5e x31=0xffff60a2
       35495000	      3548	80002734	84a62913	slti	x18,x12,-1974	 x12:0x80011ed0 x18=0x00000001
       35505000	      3549	80002738	01fe0c33	add	x24,x28,x31	 x28:0x00000590 x31:0xffff60a2 x24=0xffff6632
       35515000	      3550	8000273c	01e55833	srl	x16,x10,x30	 x10:0x00009f5e x30:0x80009fc4 x16=0x000009f5
       35525000	      3551	80002740	ce376593	ori	x11,x14,-797	 x14:0x27f10000 x11=0xfffffce3
       35535000	      3552	80002744	00f98f33	add	x30,x19,x15	 x19:0x80000000 x15:0x0000000e x30=0x8000000e
       35545000	      3553	80002748	30163813	sltiu	x16,x12,769	 x12:0x80011ed0 x16=0x00000000
       35555000	      3554	8000274c	03b9c063	blt	x19,x27,8000276c	 x19:0x80000000 x27:0x00008000
       35565000	      3555	00000000	00000013	addi	x0,x0,0	  x0:0x00000000
       35575000	      3556	80002768	00000013	addi	x0,x0,0	  x0:0x00000000
       35585000	      3557	8000276c	00019e63	bne	x3,x0,80002788	  x3:0x80009ede  x0:0x00000000
       35595000	      3558	00000000	00000013	addi	x0,x0,0	  x0:0x00000000
       35605000	      3559	80002784	00000013	addi	x0,x0,0	  x0:0x00000000
       35615000	      3560	80002788	0318e063	bltu	x17,x17,800027a8	 x17:0x6d68e000 x17:0x6d68e000
       35625000	      3561	8000278c	00b40ab3	add	x21,x8,x11	  x8:0x80009fc4 x11:0xfffffce3 x21=0x80009ca7
       35635000	      3562	80002790	010d32b3	sltu	x5,x26,x16	 x26:0xffffffaa x16:0x00000000  x5=0x00000000
       35645000	      3563	80002794	01030a63	beq	x6,x16,800027a8	  x6:0x0000000e x16:0x00000000
       35655000	      3564	80002798	401801b3	sub	x3,x16,x1	 x16:0x00000000  x1:0x005ad3d7  x3=0xffa52c29
       35665000	      3565	8000279c	e84da693	slti	x13,x27,-380	 x27:0x00008000 x13=0x00000000
       35675000	      3566	800027a0	0155d863	bge	x11,x21,800027b0	 x11:0xfffffce3 x21:0x80009ca7
       35685000	      3567	00000000	00000013	addi	x0,x0,0	  x0:0x00000000
       35695000	      3568	800027ac	00000013	addi	x0,x0,0	  x0:0x00000000
       35705000	      3569	800027b0	003f53b3	srl	x7,x30,x3	 x30:0x8000000e  x3:0xffa52c29  x7=0x00400000
       35715000	      3570	800027b4	01405693	srli	x13,x0,0x14	  x0:0x00000000 x13=0x00000000
       35725000	      3571	800027b8	01405d93	srli	x27,x0,0x14	  x0:0x00000000 x27=0x00000000
       35735000	      3572	800027bc	41735013	srai	x0,x6,0x17	  x6:0x0000000e
       35745000	      3573	800027c0	039d0a63	beq	x26,x25,800027f4	 x26:0xffffffaa x25:0x00000000
       35755000	      3574	800027c4	03725063	bge	x4,x23,800027e4	  x4:0xf1000000 x23:0x27f10000
       35765000	      3575	800027c8	f32c0193	addi	x3,x24,-206	 x24:0xffff6632  x3=0xffff6564
       35775000	      3576	800027cc	03ed6663	bltu	x26,x30,800027f8	 x26:0xffffffaa x30:0x8000000e
       35785000	      3577	800027d0	f51a3f93	sltiu	x31,x20,-175	 x20:0x80009ed0 x31=0x00000001
       35795000	      3578	800027d4	4091d193	srai	x3,x3,0x9	  x3:0xffff6564  x3=0xffffffb2
       35805000	      3579	800027d8	00545093	srli	x1,x8,0x5	  x8:0x80009fc4  x1=0x040004fe
       35815000	      3580	800027dc	03ea8c63	beq	x21,x30,80002814	 x21:0x80009ca7 x30:0x8000000e
       35825000	      3581	800027e0	02ef5063	bge	x30,x14,80002800	 x30:0x8000000e x14:0x27f10000
       35835000	      3582	800027e4	00c4d193	srli	x3,x9,0xc	  x9:0x00000000  x3=0x00000000
       35845000	      3583	800027e8	03b0d463	bge	x1,x27,80002810	  x1:0x040004fe x27:0x00000000
       35855000	      3584	00000000	00000013	addi	x0,x0,0	  x0:0x00000000
       35865000	      3585	8000280c	00000013	addi	x0,x0,0	  x0:0x00000000
       35875000	      3586	80002810	01a9bf33	sltu	x30,x19,x26	 x19:0x80000000 x26:0xffffffaa x30=0x00000001
       35885000	      3587	80002814	009b1593	slli	x11,x22,0x9	 x22:0x00000001 x11=0x00000200
       35895000	      3588	80002818	012091b3	sll	x3,x1,x18	  x1:0x040004fe x18:0x00000001  x3=0x080009fc
       35905000	      3589	8000281c	ce224213	xori	x4,x4,-798	  x4:0xf1000000  x4=0x0efffce2
       35915000	      3590	80002820	01f91863	bne	x18,x31,80002830	 x18:0x00000001 x31:0x00000001
       35925000	      3591	80002824	24b8f593	andi	x11,x17,587	 x17:0x6d68e000 x11=0x00000000
       35935000	      3592	80002828	014a32b3	sltu	x5,x20,x20	 x20:0x80009ed0 x20:0x80009ed0  x5=0x00000000
       35945000	      3593	8000282c	410603b3	sub	x7,x12,x16	 x12:0x80011ed0 x16:0x00000000  x7=0x80011ed0
       35955000	      3594	80002830	0f51ad13	slti	x26,x3,245	  x3:0x080009fc x26=0x00000000
       35965000	      3595	80002834	01475bb3	srl	x23,x14,x20	 x14:0x27f10000 x20:0x80009ed0 x23=0x000027f1
       35975000	      3596	80002838	0193e3b3	or	x7,x7,x25	  x7:0x80011ed0 x25:0x00000000  x7=0x80011ed0
       35985000	      3597	8000283c	aea5bf17	auipc	x30,0xaea5b	 x30=0x2ea5d838
       35995000	      3598	80002840	03ee6e63	bltu	x28,x30,8000287c	 x28:0x00000590 x30:0x2ea5d838
       36005000	      3599	00000000	00000013	addi	x0,x0,0	  x0:0x00000000
       36015000	      3600	80002878	00000013	addi	x0,x0,0	  x0:0x00000000
       36025000	      3601	8000287c	41ad8733	sub	x14,x27,x26	 x27:0x00000000 x26:0x00000000 x14=0x00000000
       36035000	      3602	80002880	01fef133	and	x2,x29,x31	 x29:0x80009f5e x31:0x00000001  x2=0x00000000
       36045000	      3603	80002884	5ccfc717	auipc	x14,0x5ccfc	 x14=0xdccfe880
       36055000	      3604	80002888	01371133	sll	x2,x14,x19	 x14:0xdccfe880 x19:0x80000000  x2=0xdccfe880
       36065000	      3605	8000288c	0054fe63	bgeu	x9,x5,800028a8	  x9:0x00000000  x5:0x00000000
       36075000	      3606	00000000	00000013	addi	x0,x0,0	  x0:0x00000000
       36085000	      3607	800028a4	00000013	addi	x0,x0,0	  x0:0x00000000
       36095000	      3608	800028a8	49522713	slti	x14,x4,1173	  x4:0x0efffce2 x14=0x00000000
       36105000	      3609	800028ac	01cf4b33	xor	x22,x30,x28	 x30:0x2ea5d838 x28:0x00000590 x22=0x2ea5dda8
       36115000	      3610	800028b0	00fc76b3	and	x13,x24,x15	 x24:0xffff6632 x15:0x0000000e x13=0x00000002
       36125000	      3611	800028b4	0021dbb3	srl	x23,x3,x2	  x3:0x080009fc  x2:0xdccfe880 x23=0x080009fc
       36135000	      3612	800028b8	c7952d13	slti	x26,x10,-903	 x10:0x00009f5e x26=0x00000000
       36145000	      3613	800028bc	41bd5493	srai	x9,x26,0x1b	 x26:0x00000000  x9=0x00000000
       36155000	      3614	800028c0	45f1c213	xori	x4,x3,1119	  x3:0x080009fc  x4=0x08000da3
       36165000	      3615	800028c4	775a7f13	andi	x30,x20,1909	 x20:0x80009ed0 x30=0x00000650
       36175000	      3616	800028c8	00e79093	slli	x1,x15,0xe	 x15:0x0000000e  x1=0x00038000
       36185000	      3617	800028cc	013c90b3	sll	x1,x25,x19	 x25:0x00000000 x19:0x80000000  x1=0x00000000
       36195000	      3618	800028d0	10dc0713	addi	x14,x24,269	 x24:0xffff6632 x14=0xffff673f
       36205000	      3619	800028d4	41ee5bb3	sra	x23,x28,x30	 x28:0x00000590 x30:0x00000650 x23=0x00000000
       36215000	      3620	800028d8	1917be93	sltiu	x29,x15,401	 x15:0x0000000e x29=0x00000001
       36225000	      3621	800028dc	00f19f93	slli	x31,x3,0xf	  x3:0x080009fc x31=0x04fe0000
       36235000	      3622	800028e0	00dc26b3	slt	x13,x24,x13	 x24:0xffff6632 x13:0x00000002 x13=0x00000001
       36245000	      3623	800028e4	ab75e113	ori	x2,x11,-1353	 x11:0x00000000  x2=0xfffffab7
       36255000	      3624	800028e8	014cf5b3	and	x11,x25,x20	 x25:0x00000000 x20:0x80009ed0 x11=0x00000000
       36265000	      3625	800028ec	4051d8b3	sra	x17,x3,x5	  x3:0x080009fc  x5:0x00000000 x17=0x080009fc
       36275000	      3626	800028f0	00dce463	bltu	x25,x13,800028f8	 x25:0x00000000 x13:0x00000001
       36285000	      3627	00000000	00000013	addi	x0,x0,0	  x0:0x00000000
       36295000	      3628	800028f4	00000013	addi	x0,x0,0	  x0:0x00000000
       36305000	      3629	800028f8	0072ce33	xor	x28,x5,x7	  x5:0x00000000  x7:0x80011ed0 x28=0x80011ed0
       36315000	      3630	800028fc	702a0c93	addi	x25,x20,1794	 x20:0x80009ed0 x25=0x8000a5d2
       36325000	      3631	80002900	6e6e4913	xori	x18,x28,1766	 x28:0x80011ed0 x18=0x80011836
       36335000	      3632	80002904	015d7d33	and	x26,x26,x21	 x26:0x00000000 x21:0x80009ca7 x26=0x00000000
       36345000	      3633	80002908	5f35e097	auipc	x1,0x5f35e	  x1=0xdf360904
       36355000	      3634	8000290c	0365ce63	blt	x11,x22,80002948	 x11:0x00000000 x22:0x2ea5dda8
       36365000	      3635	00000000	00000013	addi	x0,x0,0	  x0:0x00000000
       36375000	      3636	80002944	00000013	addi	x0,x0,0	  x0:0x00000000
       36385000	      3637	80002948	008978b3	and	x17,x18,x8	 x18:0x80011836  x8:0x80009fc4 x17=0x80001804
       36395000	      3638	8000294c	41585113	srai	x2,x16,0x15	 x16:0x00000000  x2=0x00000000
       36405000	      3639	80002950	028c0b93	addi	x23,x24,40	 x24:0xffff6632 x23=0xffff665a
       36415000	      3640	80002954	01fcb8b3	sltu	x17,x25,x31	 x25:0x8000a5d2 x31:0x04fe0000 x17=0x00000000
       36425000	      3641	80002958	02a91663	bne	x18,x10,80002984	 x18:0x80011836 x10:0x00009f5e
       36435000	      3642	00000000	00000013	addi	x0,x0,0	  x0:0x00000000
       36445000	      3643	80002980	00000013	addi	x0,x0,0	  x0:0x00000000
       36455000	      3644	80002984	e951beb7	lui	x29,0xe951b	 x29=0xe951b000
       36465000	      3645	80002988	015435b3	sltu	x11,x8,x21	  x8:0x80009fc4 x21:0x80009ca7 x11=0x00000000
       36475000	      3646	8000298c	9edb3593	sltiu	x11,x22,-1555	 x22:0x2ea5dda8 x11=0x00000001
       36485000	      3647	80002990	5a850493	addi	x9,x10,1448	 x10:0x00009f5e  x9=0x0000a506
       36495000	      3648	80002994	010cee63	bltu	x25,x16,800029b0	 x25:0x8000a5d2 x16:0x00000000
       36505000	      3649	80002998	009f5d13	srli	x26,x30,0x9	 x30:0x00000650 x26=0x00000003
       36515000	      3650	8000299c	b7eb7093	andi	x1,x22,-1154	 x22:0x2ea5dda8  x1=0x2ea5d928
       36525000	      3651	800029a0	40f55e93	srai	x29,x10,0xf	 x10:0x00009f5e x29=0x00000001
       36535000	      3652	800029a4	5aa7b397	auipc	x7,0x5aa7b	  x7=0xdaa7d9a0
       36545000	      3653	800029a8	0199fcb3	and	x25,x19,x25	 x19:0x80000000 x25:0x8000a5d2 x25=0x80000000
       36555000	      3654	800029ac	00e09a93	slli	x21,x1,0xe	  x1:0x2ea5d928 x21=0x764a0000
       36565000	      3655	800029b0	467b0793	addi	x15,x22,1127	 x22:0x2ea5dda8 x15=0x2ea5e20f
       36575000	      3656	800029b4	e8368613	addi	x12,x13,-381	 x13:0x00000001 x12=0xfffffe84
       36585000	      3657	800029b8	01315e93	srli	x29,x2,0x13	  x2:0x00000000 x29=0x00000000
       36595000	      3658	800029bc	03b5f063	bgeu	x11,x27,800029dc	 x11:0x00000001 x27:0x00000000
       36605000	      3659	00000000	00000013	addi	x0,x0,0	  x0:0x00000000
       36615000	      3660	800029d8	00000013	addi	x0,x0,0	  x0:0x00000000
       36625000	      3661	800029dc	1d418893	addi	x17,x3,468	  x3:0x080009fc x17=0x08000bd0
       36635000	      3662	800029e0	017f8733	add	x14,x31,x23	 x31:0x04fe0000 x23:0xffff665a x14=0x04fd665a
       36645000	      3663	800029e4	403a07b3	sub	x15,x20,x3	 x20:0x80009ed0  x3:0x080009fc x15=0x780094d4
       36655000	      3664	800029e8	00000013	addi	x0,x0,0	  x0:0x00000000
       36665000	      3665	800029ec	35163013	sltiu	x0,x12,849	 x12:0xfffffe84
       36675000	      3666	800029f0	01008863	beq	x1,x16,80002a00	  x1:0x2ea5d928 x16:0x00000000
       36685000	      3667	800029f4	01126d33	or	x26,x4,x17	  x4:0x08000da3 x17:0x08000bd0 x26=0x08000ff3
       36695000	      3668	800029f8	00f70733	add	x14,x14,x15	 x14:0x04fd665a x15:0x780094d4 x14=0x7cfdfb2e
       36705000	      3669	800029fc	57d85537	lui	x10,0x57d85	 x10=0x57d85000
       36715000	      3670	80002a00	18d32b13	slti	x22,x6,397	  x6:0x0000000e x22=0x00000001
       36725000	      3671	80002a04	41885233	sra	x4,x16,x24	 x16:0x00000000 x24:0xffff6632  x4=0x00000000
       36735000	      3672	80002a08	40ca50b3	sra	x1,x20,x12	 x20:0x80009ed0 x12:0xfffffe84  x1=0xf80009ed
       36745000	      3673	80002a0c	02d37063	bgeu	x6,x13,80002a2c	  x6:0x0000000e x13:0x00000001
       36755000	      3674	00000000	00000013	addi	x0,x0,0	  x0:0x00000000
       36765000	      3675	80002a28	00000013	addi	x0,x0,0	  x0:0x00000000
       36775000	      3676	80002a2c	0178b533	sltu	x10,x17,x23	 x17:0x08000bd0 x23:0xffff665a x10=0x00000001
       36785000	      3677	80002a30	04549663	bne	x9,x5,80002a7c	  x9:0x0000a506  x5:0x00000000
       36795000	      3678	00000000	00000013	addi	x0,x0,0	  x0:0x00000000
       36805000	      3679	80002a78	00000013	addi	x0,x0,0	  x0:0x00000000
       36815000	      3680	80002a7c	0054dd93	srli	x27,x9,0x5	  x9:0x0000a506 x27=0x00000528
       36825000	      3681	80002a80	00b09b33	sll	x22,x1,x11	  x1:0xf80009ed x11:0x00000001 x22=0xf00013da
       36835000	      3682	80002a84	01e47633	and	x12,x8,x30	  x8:0x80009fc4 x30:0x00000650 x12=0x00000640
       36845000	      3683	80002a88	72900c93	addi	x25,x0,1833	  x0:0x00000000 x25=0x00000729
       36855000	      3684	80002a8c	012a8233	add	x4,x21,x18	 x21:0x764a0000 x18:0x80011836  x4=0xf64b1836
       36865000	      3685	80002a90	2d04cd93	xori	x27,x9,720	  x9:0x0000a506 x27=0x0000a7d6
       36875000	      3686	80002a94	00ccceb3	xor	x29,x25,x12	 x25:0x00000729 x12:0x00000640 x29=0x00000169
       36885000	      3687	80002a98	b456eab7	lui	x21,0xb456e	 x21=0xb456e000
       36895000	      3688	80002a9c	9aef0c93	addi	x25,x30,-1618	 x30:0x00000650 x25=0xfffffffe
       36905000	      3689	80002aa0	005323b3	slt	x7,x6,x5	  x6:0x0000000e  x5:0x00000000  x7=0x00000000
       36915000	      3690	80002aa4	902a5297	auipc	x5,0x902a5	  x5=0x102a7aa0
       36925000	      3691	80002aa8	d2e7c693	xori	x13,x15,-722	 x15:0x780094d4 x13=0x87ff69fa
       36935000	      3692	80002aac	010adeb3	srl	x29,x21,x16	 x21:0xb456e000 x16:0x00000000 x29=0xb456e000
       36945000	      3693	80002ab0	003e7db3	and	x27,x28,x3	 x28:0x80011ed0  x3:0x080009fc x27=0x000008d0
       36955000	      3694	80002ab4	00a8ae33	slt	x28,x17,x10	 x17:0x08000bd0 x10:0x00000001 x28=0x00000000
       36965000	      3695	80002ab8	01493d33	sltu	x26,x18,x20	 x18:0x80011836 x20:0x80009ed0 x26=0x00000000
       36975000	      3696	80002abc	41150233	sub	x4,x10,x17	 x10:0x00000001 x17:0x08000bd0  x4=0xf7fff431
       36985000	      3697	80002ac0	010e5b33	srl	x22,x28,x16	 x28:0x00000000 x16:0x00000000 x22=0x00000000
       36995000	      3698	80002ac4	44e2bd13	sltiu	x26,x5,1102	  x5:0x102a7aa0 x26=0x00000000
       37005000	      3699	80002ac8	03415463	bge	x2,x20,80002af0	  x2:0x00000000 x20:0x80009ed0
       37015000	      3700	00000000	00000013	addi	x0,x0,0	  x0:0x00000000
       37025000	      3701	80002aec	00000013	addi	x0,x0,0	  x0:0x00000000
       37035000	      3702	80002af0	98082537	lui	x10,0x98082	 x10=0x98082000
       37045000	      3703	80002af4	01c66233	or	x4,x12,x28	 x12:0x00000640 x28:0x00000000  x4=0x00000640
       37055000	      3704	80002af8	05434263	blt	x6,x20,80002b3c	  x6:0x0000000e x20:0x80009ed0
       37065000	      3705	80002afc	01939913	slli	x18,x7,0x19	  x7:0x00000000 x18=0x00000000
       37075000	      3706	80002b00	e0802d13	slti	x26,x0,-504	  x0:0x00000000 x26=0x00000000
       37085000	      3707	80002b04	fd036f93	ori	x31,x6,-48	  x6:0x0000000e x31=0xffffffde
       37095000	      3708	80002b08	9f1d8713	addi	x14,x27,-1551	 x27:0x000008d0 x14=0x000002c1
       37105000	      3709	80002b0c	01a31863	bne	x6,x26,80002b1c	  x6:0x0000000e x26:0x00000000
       37115000	      3710	00000000	00000013	addi	x0,x0,0	  x0:0x00000000
       37125000	      3711	80002b18	00000013	addi	x0,x0,0	  x0:0x00000000
       37135000	      3712	80002b1c	005c4463	blt	x24,x5,80002b24	 x24:0xffff6632  x5:0x102a7aa0
       37145000	      3713	00000000	00000013	addi	x0,x0,0	  x0:0x00000000
       37155000	      3714	80002b20	00000013	addi	x0,x0,0	  x0:0x00000000
       37165000	      3715	80002b24	5f2ead13	slti	x26,x29,1522	 x29:0xb456e000 x26=0x00000001
       37175000	      3716	80002b28	00cca7b3	slt	x15,x25,x12	 x25:0xfffffffe x12:0x00000640 x15=0x00000001
       37185000	      3717	80002b2c	edb11797	auipc	x15,0xedb11	 x15=0x6db13b28
       37195000	      3718	80002b30	019d9e63	bne	x27,x25,80002b4c	 x27:0x000008d0 x25:0xfffffffe
       37205000	      3719	00000000	00000013	addi	x0,x0,0	  x0:0x00000000
       37215000	      3720	80002b48	00000013	addi	x0,x0,0	  x0:0x00000000
       37225000	      3721	80002b4c	00ba9893	slli	x17,x21,0xb	 x21:0xb456e000 x17=0xb7000000
       37235000	      3722	80002b50	0197b1b3	sltu	x3,x15,x25	 x15:0x6db13b28 x25:0xfffffffe  x3=0x00000001
       37245000	      3723	80002b54	c2ac8613	addi	x12,x25,-982	 x25:0xfffffffe x12=0xfffffc28
       37255000	      3724	80002b58	00934133	xor	x2,x6,x9	  x6:0x0000000e  x9:0x0000a506  x2=0x0000a508
       37265000	      3725	80002b5c	004f25b3	slt	x11,x30,x4	 x30:0x00000650  x4:0x00000640 x11=0x00000000
       37275000	      3726	80002b60	e47b3293	sltiu	x5,x22,-441	 x22:0x00000000  x5=0x00000001
       37285000	      3727	80002b64	00000013	addi	x0,x0,0	  x0:0x00000000
       37295000	      3728	80002b68	41c75133	sra	x2,x14,x28	 x14:0x000002c1 x28:0x00000000  x2=0x000002c1
       37305000	      3729	80002b6c	2e0c0d93	addi	x27,x24,736	 x24:0xffff6632 x27=0xffff6912
       37315000	      3730	80002b70	01ea5b33	srl	x22,x20,x30	 x20:0x80009ed0 x30:0x00000650 x22=0x00008000
       37325000	      3731	80002b74	0547f463	bgeu	x15,x20,80002bbc	 x15:0x6db13b28 x20:0x80009ed0
       37335000	      3732	80002b78	0013d2b3	srl	x5,x7,x1	  x7:0x00000000  x1:0xf80009ed  x5=0x00000000
       37345000	      3733	80002b7c	415c5f93	srai	x31,x24,0x15	 x24:0xffff6632 x31=0xffffffff
       37355000	      3734	80002b80	009b8863	beq	x23,x9,80002b90	 x23:0xffff665a  x9:0x0000a506
       37365000	      3735	80002b84	03925463	bge	x4,x25,80002bac	  x4:0x00000640 x25:0xfffffffe
       37375000	      3736	00000000	00000013	addi	x0,x0,0	  x0:0x00000000
       37385000	      3737	80002ba8	00000013	addi	x0,x0,0	  x0:0x00000000
       37395000	      3738	80002bac	0159b733	sltu	x14,x19,x21	 x19:0x80000000 x21:0xb456e000 x14=0x00000001
       37405000	      3739	80002bb0	9aa2ad13	slti	x26,x5,-1622	  x5:0x00000000 x26=0x00000000
       37415000	      3740	80002bb4	00711613	slli	x12,x2,0x7	  x2:0x000002c1 x12=0x00016080
       37425000	      3741	80002bb8	72096093	ori	x1,x18,1824	 x18:0x00000000  x1=0x00000720
       37435000	      3742	80002bbc	41df0133	sub	x2,x30,x29	 x30:0x00000650 x29:0xb456e000  x2=0x4ba92650
       37445000	      3743	80002bc0	03397663	bgeu	x18,x19,80002bec	 x18:0x00000000 x19:0x80000000
       37455000	      3744	80002bc4	d0a934b7	lui	x9,0xd0a93	  x9=0xd0a93000
       37465000	      3745	80002bc8	00c4d793	srli	x15,x9,0xc	  x9:0xd0a93000 x15=0x000d0a93
       37475000	      3746	80002bcc	01aa4733	xor	x14,x20,x26	 x20:0x80009ed0 x26:0x00000000 x14=0x80009ed0
       37485000	      3747	80002bd0	6007ec13	ori	x24,x15,1536	 x15:0x000d0a93 x24=0x000d0e93
       37495000	      3748	80002bd4	3c5d8e17	auipc	x28,0x3c5d8	 x28=0xbc5dabd0
       37505000	      3749	80002bd8	000fc863	blt	x31,x0,80002be8	 x31:0xffffffff  x0:0x00000000
       37515000	      3750	00000000	00000013	addi	x0,x0,0	  x0:0x00000000
       37525000	      3751	80002be4	00000013	addi	x0,x0,0	  x0:0x00000000
       37535000	      3752	80002be8	00000013	addi	x0,x0,0	  x0:0x00000000
       37545000	      3753	80002bec	047ae293	ori	x5,x21,71	 x21:0xb456e000  x5=0xb456e047
       37555000	      3754	80002bf0	015af533	and	x10,x21,x21	 x21:0xb456e000 x21:0xb456e000 x10=0xb456e000
       37565000	      3755	80002bf4	004cf5b3	and	x11,x25,x4	 x25:0xfffffffe  x4:0x00000640 x11=0x00000640
       37575000	      3756	80002bf8	51c7eb93	ori	x23,x15,1308	 x15:0x000d0a93 x23=0x000d0f9f
       37585000	      3757	80002bfc	111bb493	sltiu	x9,x23,273	 x23:0x000d0f9f  x9=0x00000000
       37595000	      3758	80002c00	402f5213	srai	x4,x30,0x2	 x30:0x00000650  x4=0x00000194
       37605000	      3759	80002c04	017b9c93	slli	x25,x23,0x17	 x23:0x000d0f9f x25=0xcf800000
       37615000	      3760	80002c08	05694663	blt	x18,x22,80002c54	 x18:0x00000000 x22:0x00008000
       37625000	      3761	00000000	00000013	addi	x0,x0,0	  x0:0x00000000
       37635000	      3762	80002c50	00000013	addi	x0,x0,0	  x0:0x00000000
       37645000	      3763	80002c54	019e9863	bne	x29,x25,80002c64	 x29:0xb456e000 x25:0xcf800000
       37655000	      3764	00000000	00000013	addi	x0,x0,0	  x0:0x00000000
       37665000	      3765	80002c60	00000013	addi	x0,x0,0	  x0:0x00000000
       37675000	      3766	80002c64	01f83f33	sltu	x30,x16,x31	 x16:0x00000000 x31:0xffffffff x30=0x00000001
       37685000	      3767	80002c68	00000013	addi	x0,x0,0	  x0:0x00000000
       37695000	      3768	80002c6c	01864393	xori	x7,x12,24	 x12:0x00016080  x7=0x00016098
       37705000	      3769	80002c70	f7584037	lui	x0,0xf7584	
       37715000	      3770	80002c74	316831b7	lui	x3,0x31683	  x3=0x31683000
       37725000	      3771	80002c78	01bdce63	blt	x27,x27,80002c94	 x27:0xffff6912 x27:0xffff6912
       37735000	      3772	80002c7c	0301c863	blt	x3,x16,80002cac	  x3:0x31683000 x16:0x00000000
       37745000	      3773	80002c80	009de633	or	x12,x27,x9	 x27:0xffff6912  x9:0x00000000 x12=0xffff6912
       37755000	      3774	80002c84	045ed063	bge	x29,x5,80002cc4	 x29:0xb456e000  x5:0xb456e047
       37765000	      3775	80002c88	40ac0633	sub	x12,x24,x10	 x24:0x000d0e93 x10:0xb456e000 x12=0x4bb62e93
       37775000	      3776	80002c8c	00c15e63	bge	x2,x12,80002ca8	  x2:0x4ba92650 x12:0x4bb62e93
       37785000	      3777	80002c90	00b30633	add	x12,x6,x11	  x6:0x0000000e x11:0x00000640 x12=0x0000064e
       37795000	      3778	80002c94	01b07033	and	x0,x0,x27	  x0:0x00000000 x27:0xffff6912
       37805000	      3779	80002c98	002ecd33	xor	x26,x29,x2	 x29:0xb456e000  x2:0x4ba92650 x26=0xffffc650
       37815000	      3780	80002c9c	01d40f33	add	x30,x8,x29	  x8:0x80009fc4 x29:0xb456e000 x30=0x34577fc4
       37825000	      3781	80002ca0	05d80663	beq	x16,x29,80002cec	 x16:0x00000000 x29:0xb456e000
       37835000	      3782	80002ca4	54170f93	addi	x31,x14,1345	 x14:0x80009ed0 x31=0x8000a411
       37845000	      3783	80002ca8	008fd0b3	srl	x1,x31,x8	 x31:0x8000a411  x8:0x80009fc4  x1=0x08000a41
       37855000	      3784	80002cac	01eb00b3	add	x1,x22,x30	 x22:0x00008000 x30:0x34577fc4  x1=0x3457ffc4
       37865000	      3785	80002cb0	02cef063	bgeu	x29,x12,80002cd0	 x29:0xb456e000 x12:0x0000064e
       37875000	      3786	00000000	00000013	addi	x0,x0,0	  x0:0x00000000
       37885000	      3787	80002ccc	00000013	addi	x0,x0,0	  x0:0x00000000
       37895000	      3788	80002cd0	00000013	addi	x0,x0,0	  x0:0x00000000
       37905000	      3789	80002cd4	02426063	bltu	x4,x4,80002cf4	  x4:0x00000194  x4:0x00000194
       37915000	      3790	80002cd8	40065493	srai	x9,x12,0x0	 x12:0x0000064e  x9=0x0000064e
       37925000	      3791	80002cdc	00000013	addi	x0,x0,0	  x0:0x00000000
       37935000	      3792	80002ce0	0563e263	bltu	x7,x22,80002d24	  x7:0x00016098 x22:0x00008000
       37945000	      3793	80002ce4	01ae4263	blt	x28,x26,80002ce8	 x28:0xbc5dabd0 x26:0xffffc650
       37955000	      3794	00000000	00000013	addi	x0,x0,0	  x0:0x00000000
       37965000	      3795	80002ce4	00000013	addi	x0,x0,0	  x0:0x00000000
       37975000	      3796	80002ce8	008721b3	slt	x3,x14,x8	 x14:0x80009ed0  x8:0x80009fc4  x3=0x00000001
       37985000	      3797	80002cec	01ebef33	or	x30,x23,x30	 x23:0x000d0f9f x30:0x34577fc4 x30=0x345f7fdf
       37995000	      3798	80002cf0	00322233	slt	x4,x4,x3	  x4:0x00000194  x3:0x00000001  x4=0x00000000
       38005000	      3799	80002cf4	41c30533	sub	x10,x6,x28	  x6:0x0000000e x28:0xbc5dabd0 x10=0x43a2543e
       38015000	      3800	80002cf8	00581933	sll	x18,x16,x5	 x16:0x00000000  x5:0xb456e047 x18=0x00000000
       38025000	      3801	80002cfc	0092d513	srli	x10,x5,0x9	  x5:0xb456e047 x10=0x005a2b70
       38035000	      3802	80002d00	0053d893	srli	x17,x7,0x5	  x7:0x00016098 x17=0x00000b04
       38045000	      3803	80002d04	02b0ce63	blt	x1,x11,80002d40	  x1:0x3457ffc4 x11:0x00000640
       38055000	      3804	80002d08	04b3e263	bltu	x7,x11,80002d4c	  x7:0x00016098 x11:0x00000640
       38065000	      3805	80002d0c	5fecf613	andi	x12,x25,1534	 x25:0xcf800000 x12=0x00000000
       38075000	      3806	80002d10	017f9913	slli	x18,x31,0x17	 x31:0x8000a411 x18=0x08800000
       38085000	      3807	80002d14	018ebbb3	sltu	x23,x29,x24	 x29:0xb456e000 x24:0x000d0e93 x23=0x00000000
       38095000	      3808	80002d18	0ace8c93	addi	x25,x29,172	 x29:0xb456e000 x25=0xb456e0ac
       38105000	      3809	80002d1c	b2123e93	sltiu	x29,x4,-1247	  x4:0x00000000 x29=0x00000001
       38115000	      3810	80002d20	004fa8b3	slt	x17,x31,x4	 x31:0x8000a411  x4:0x00000000 x17=0x00000001
       38125000	      3811	80002d24	f204e213	ori	x4,x9,-224	  x9:0x0000064e  x4=0xffffff6e
       38135000	      3812	80002d28	01ab51b3	srl	x3,x22,x26	 x22:0x00008000 x26:0xffffc650  x3=0x00000000
       38145000	      3813	80002d2c	010f39b3	sltu	x19,x30,x16	 x30:0x345f7fdf x16:0x00000000 x19=0x00000000
       38155000	      3814	80002d30	05579063	bne	x15,x21,80002d70	 x15:0x000d0a93 x21:0xb456e000
       38165000	      3815	00000000	00000013	addi	x0,x0,0	  x0:0x00000000
       38175000	      3816	80002d6c	00000013	addi	x0,x0,0	  x0:0x00000000
       38185000	      3817	80002d70	179ba393	slti	x7,x23,377	 x23:0x00000000  x7=0x00000001
       38195000	      3818	80002d74	01daf863	bgeu	x21,x29,80002d84	 x21:0xb456e000 x29:0x00000001
       38205000	      3819	00000000	00000013	addi	x0,x0,0	  x0:0x00000000
       38215000	      3820	80002d80	00000013	addi	x0,x0,0	  x0:0x00000000
       38225000	      3821	80002d84	4b78a613	slti	x12,x17,1207	 x17:0x00000001 x12=0x00000001
       38235000	      3822	80002d88	8f974713	xori	x14,x14,-1799	 x14:0x80009ed0 x14=0x7fff6629
       38245000	      3823	80002d8c	93fd7ab7	lui	x21,0x93fd7	 x21=0x93fd7000
       38255000	      3824	80002d90	41d45213	srai	x4,x8,0x1d	  x8:0x80009fc4  x4=0xfffffffc
       38265000	      3825	80002d94	017652b3	srl	x5,x12,x23	 x12:0x00000001 x23:0x00000000  x5=0x00000001
       38275000	      3826	80002d98	2d7a2713	slti	x14,x20,727	 x20:0x80009ed0 x14=0x00000001
       38285000	      3827	80002d9c	009d0b33	add	x22,x26,x9	 x26:0xffffc650  x9:0x0000064e x22=0xffffcc9e
       38295000	      3828	80002da0	01fd1913	slli	x18,x26,0x1f	 x26:0xffffc650 x18=0x00000000
       38305000	      3829	80002da4	0e1e7e63	bgeu	x28,x1,80002ea0	 x28:0xbc5dabd0  x1:0x3457ffc4
       38315000	      3830	00000000	00000013	addi	x0,x0,0	  x0:0x00000000
       38325000	      3831	80002e9c	00000013	addi	x0,x0,0	  x0:0x00000000
       38335000	      3832	80002ea0	00b8b833	sltu	x16,x17,x11	 x17:0x00000001 x11:0x00000640 x16=0x00000001
       38345000	      3833	80002ea4	01ef0b33	add	x22,x30,x30	 x30:0x345f7fdf x30:0x345f7fdf x22=0x68beffbe
       38355000	      3834	80002ea8	01ddf463	bgeu	x27,x29,80002eb0	 x27:0xffff6912 x29:0x00000001
       38365000	      3835	00000000	00000013	addi	x0,x0,0	  x0:0x00000000
       38375000	      3836	80002eac	00000013	addi	x0,x0,0	  x0:0x00000000
       38385000	      3837	80002eb0	00cd5793	srli	x15,x26,0xc	 x26:0xffffc650 x15=0x000ffffc
       38395000	      3838	80002eb4	02a0c863	blt	x1,x10,80002ee4	  x1:0x3457ffc4 x10:0x005a2b70
       38405000	      3839	80002eb8	010ac2b3	xor	x5,x21,x16	 x21:0x93fd7000 x16:0x00000001  x5=0x93fd7001
       38415000	      3840	80002ebc	51877293	andi	x5,x14,1304	 x14:0x00000001  x5=0x00000000
       38425000	      3841	80002ec0	41e00933	sub	x18,x0,x30	  x0:0x00000000 x30:0x345f7fdf x18=0xcba08021
       38435000	      3842	80002ec4	02c0e063	bltu	x1,x12,80002ee4	  x1:0x3457ffc4 x12:0x00000001
       38445000	      3843	80002ec8	016f1463	bne	x30,x22,80002ed0	 x30:0x345f7fdf x22:0x68beffbe
       38455000	      3844	00000000	00000013	addi	x0,x0,0	  x0:0x00000000
       38465000	      3845	80002ecc	00000013	addi	x0,x0,0	  x0:0x00000000
       38475000	      3846	80002ed0	008269b3	or	x19,x4,x8	  x4:0xfffffffc  x8:0x80009fc4 x19=0xfffffffc
       38485000	      3847	80002ed4	7b27c593	xori	x11,x15,1970	 x15:0x000ffffc x11=0x000ff84e
       38495000	      3848	80002ed8	e85404b7	lui	x9,0xe8540	  x9=0xe8540000
       38505000	      3849	80002edc	3a48cf13	xori	x30,x17,932	 x17:0x00000001 x30=0x000003a5
       38515000	      3850	80002ee0	02714463	blt	x2,x7,80002f08	  x2:0x4ba92650  x7:0x00000001
       38525000	      3851	80002ee4	00018f33	add	x30,x3,x0	  x3:0x00000000  x0:0x00000000 x30=0x00000000
       38535000	      3852	80002ee8	014f6db3	or	x27,x30,x20	 x30:0x00000000 x20:0x80009ed0 x27=0x80009ed0
       38545000	      3853	80002eec	ddb52f13	slti	x30,x10,-549	 x10:0x005a2b70 x30=0x00000000
       38555000	      3854	80002ef0	41a50933	sub	x18,x10,x26	 x10:0x005a2b70 x26:0xffffc650 x18=0x005a6520
       38565000	      3855	80002ef4	011b9833	sll	x16,x23,x17	 x23:0x00000000 x17:0x00000001 x16=0x00000000
       38575000	      3856	80002ef8	54606b13	ori	x22,x0,1350	  x0:0x00000000 x22=0x00000546
       38585000	      3857	80002efc	01abf7b3	and	x15,x23,x26	 x23:0x00000000 x26:0xffffc650 x15=0x00000000
       38595000	      3858	80002f00	04aac463	blt	x21,x10,80002f48	 x21:0x93fd7000 x10:0x005a2b70
       38605000	      3859	00000000	00000013	addi	x0,x0,0	  x0:0x00000000
       38615000	      3860	80002f44	00000013	addi	x0,x0,0	  x0:0x00000000
       38625000	      3861	80002f48	018909b3	add	x19,x18,x24	 x18:0x005a6520 x24:0x000d0e93 x19=0x006773b3
       38635000	      3862	80002f4c	01d76f33	or	x30,x14,x29	 x14:0x00000001 x29:0x00000001 x30=0x00000001
       38645000	      3863	80002f50	00006e17	auipc	x28,0x6	 x28=0x80008f4c
       38655000	      3864	80002f54	a8be0e13	addi	x28,x28,-1397	 x28:0x80008f4c x28=0x800089d7
       38665000	      3865	80002f58	0118d033	srl	x0,x17,x17	 x17:0x00000001 x17:0x00000001
       38675000	      3866	80002f5c	0005dbb3	srl	x23,x11,x0	 x11:0x000ff84e  x0:0x00000000 x23=0x000ff84e
       38685000	      3867	80002f60	01eb31b3	sltu	x3,x22,x30	 x22:0x00000546 x30:0x00000001  x3=0x00000000
       38695000	      3868	80002f64	015cc5b3	xor	x11,x25,x21	 x25:0xb456e0ac x21:0x93fd7000 x11=0x27ab90ac
       38705000	      3869	80002f68	8a3efa93	andi	x21,x29,-1885	 x29:0x00000001 x21=0x00000001
       38715000	      3870	80002f6c	07fe5703	lhu	x14,127(x28)	 x28:0x800089d7 x14=0x00003c3d PA:0x80008a56
       38725000	      3871	80002f70	05ae16a3	sh	x26,77(x28)	 x28:0x800089d7 x26:0xffffc650 PA:0x80008a24
       38735000	      3872	80002f74	3c02c713	xori	x14,x5,960	  x5:0x00000000 x14=0x000003c0
       38745000	      3873	80002f78	0cae4483	lbu	x9,202(x28)	 x28:0x800089d7  x9=0x0000008a PA:0x80008aa1
       38755000	      3874	80002f7c	027e09a3	sb	x7,51(x28)	 x28:0x800089d7  x7:0x00000001 PA:0x80008a0a
       38765000	      3875	80002f80	0c870b13	addi	x22,x14,200	 x14:0x000003c0 x22=0x00000488
       38775000	      3876	80002f84	4016d393	srai	x7,x13,0x1	 x13:0x87ff69fa  x7=0xc3ffb4fd
       38785000	      3877	80002f88	f56e0003	lb	x0,-170(x28)	 x28:0x800089d7 PA:0x8000892d
       38795000	      3878	80002f8c	b4238493	addi	x9,x7,-1214	  x7:0xc3ffb4fd  x9=0xc3ffb03f
       38805000	      3879	80002f90	f65e1203	lh	x4,-155(x28)	 x28:0x800089d7  x4=0x00002627 PA:0x8000893c
       38815000	      3880	80002f94	014f65b3	or	x11,x30,x20	 x30:0x00000001 x20:0x80009ed0 x11=0x80009ed1
       38825000	      3881	80002f98	01372f33	slt	x30,x14,x19	 x14:0x000003c0 x19:0x006773b3 x30=0x00000001
       38835000	      3882	80002f9c	400b07b3	sub	x15,x22,x0	 x22:0x00000488  x0:0x00000000 x15=0x00000488
       38845000	      3883	80002fa0	fa1e0f23	sb	x1,-66(x28)	 x28:0x800089d7  x1:0x3457ffc4 PA:0x80008995
       38855000	      3884	80002fa4	fc6e1ca3	sh	x6,-39(x28)	 x28:0x800089d7  x6:0x0000000e PA:0x800089b0
       38865000	      3885	80002fa8	40b90c33	sub	x24,x18,x11	 x18:0x005a6520 x11:0x80009ed1 x24=0x8059c64f
       38875000	      3886	80002fac	01665eb3	srl	x29,x12,x22	 x12:0x00000001 x22:0x00000488 x29=0x00000000
       38885000	      3887	80002fb0	ede1f093	andi	x1,x3,-290	  x3:0x00000000  x1=0x00000000
       38895000	      3888	80002fb4	00000013	addi	x0,x0,0	  x0:0x00000000
       38905000	      3889	80002fb8	0ace4503	lbu	x10,172(x28)	 x28:0x800089d7 x10=0x00000068 PA:0x80008a83
       38915000	      3890	80002fbc	be7fc393	xori	x7,x31,-1049	 x31:0x8000a411  x7=0x7fff5ff6
       38925000	      3891	80002fc0	f6ee0483	lb	x9,-146(x28)	 x28:0x800089d7  x9=0x0000002e PA:0x80008945
       38935000	      3892	80002fc4	067e0da3	sb	x7,123(x28)	 x28:0x800089d7  x7:0x7fff5ff6 PA:0x80008a52
       38945000	      3893	80002fc8	f97e4b83	lbu	x23,-105(x28)	 x28:0x800089d7 x23=0x00000055 PA:0x8000896e
       38955000	      3894	80002fcc	006f69b3	or	x19,x30,x6	 x30:0x00000001  x6:0x0000000e x19=0x0000000f
       38965000	      3895	80002fd0	01ab9133	sll	x2,x23,x26	 x23:0x00000055 x26:0xffffc650  x2=0x00550000
       38975000	      3896	80002fd4	034e0b03	lb	x22,52(x28)	 x28:0x800089d7 x22=0xfffffff0 PA:0x80008a0b
       38985000	      3897	80002fd8	b21ab993	sltiu	x19,x21,-1247	 x21:0x00000001 x19=0x00000001
       38995000	      3898	80002fdc	00d189b3	add	x19,x3,x13	  x3:0x00000000 x13:0x87ff69fa x19=0x87ff69fa
       39005000	      3899	80002fe0	00edb7b3	sltu	x15,x27,x14	 x27:0x80009ed0 x14:0x000003c0 x15=0x00000000
       39015000	      3900	80002fe4	02cb0a63	beq	x22,x12,80003018	 x22:0xfffffff0 x12:0x00000001
       39025000	      3901	80002fe8	0083cfb3	xor	x31,x7,x8	  x7:0x7fff5ff6  x8:0x80009fc4 x31=0xffffc032
       39035000	      3902	80002fec	48b8ce37	lui	x28,0x48b8c	 x28=0x48b8c000
       39045000	      3903	80002ff0	2c222d13	slti	x26,x4,706	  x4:0x00002627 x26=0x00000000
       39055000	      3904	80002ff4	ea7fbe93	sltiu	x29,x31,-345	 x31:0xffffc032 x29=0x00000001
       39065000	      3905	80002ff8	40355d93	srai	x27,x10,0x3	 x10:0x00000068 x27=0x0000000d
       39075000	      3906	80002ffc	016649b3	xor	x19,x12,x22	 x12:0x00000001 x22:0xfffffff0 x19=0xfffffff1
       39085000	      3907	80003000	ba9b3c13	sltiu	x24,x22,-1111	 x22:0xfffffff0 x24=0x00000000
       39095000	      3908	80003004	40af88b3	sub	x17,x31,x10	 x31:0xffffc032 x10:0x00000068 x17=0xffffbfca
       39105000	      3909	80003008	03607663	bgeu	x0,x22,80003034	  x0:0x00000000 x22:0xfffffff0
       39115000	      3910	8000300c	00033733	sltu	x14,x6,x0	  x6:0x0000000e  x0:0x00000000 x14=0x00000000
       39125000	      3911	80003010	00000013	addi	x0,x0,0	  x0:0x00000000
       39135000	      3912	80003014	0074aeb3	slt	x29,x9,x7	  x9:0x0000002e  x7:0x7fff5ff6 x29=0x00000001
       39145000	      3913	80003018	0040b633	sltu	x12,x1,x4	  x1:0x00000000  x4:0x00002627 x12=0x00000001
       39155000	      3914	8000301c	750a2793	slti	x15,x20,1872	 x20:0x80009ed0 x15=0x00000001
       39165000	      3915	80003020	00328e63	beq	x5,x3,8000303c	  x5:0x00000000  x3:0x00000000
       39175000	      3916	00000000	00000013	addi	x0,x0,0	  x0:0x00000000
       39185000	      3917	80003038	00000013	addi	x0,x0,0	  x0:0x00000000
       39195000	      3918	8000303c	00859863	bne	x11,x8,8000304c	 x11:0x80009ed1  x8:0x80009fc4
       39205000	      3919	00000000	00000013	addi	x0,x0,0	  x0:0x00000000
       39215000	      3920	80003048	00000013	addi	x0,x0,0	  x0:0x00000000
       39225000	      3921	8000304c	05fd5663	bge	x26,x31,80003098	 x26:0x00000000 x31:0xffffc032
       39235000	      3922	00000000	00000013	addi	x0,x0,0	  x0:0x00000000
       39245000	      3923	80003094	00000013	addi	x0,x0,0	  x0:0x00000000
       39255000	      3924	80003098	01a019b3	sll	x19,x0,x26	  x0:0x00000000 x26:0x00000000 x19=0x00000000
       39265000	      3925	8000309c	411fbd13	sltiu	x26,x31,1041	 x31:0xffffc032 x26=0x00000000
       39275000	      3926	800030a0	017af733	and	x14,x21,x23	 x21:0x00000001 x23:0x00000055 x14=0x00000001
       39285000	      3927	800030a4	018401b3	add	x3,x8,x24	  x8:0x80009fc4 x24:0x00000000  x3=0x80009fc4
       39295000	      3928	800030a8	417dd9b3	sra	x19,x27,x23	 x27:0x0000000d x23:0x00000055 x19=0x00000000
       39305000	      3929	800030ac	41525ab3	sra	x21,x4,x21	  x4:0x00002627 x21:0x00000001 x21=0x00001313
       39315000	      3930	800030b0	01454b33	xor	x22,x10,x20	 x10:0x00000068 x20:0x80009ed0 x22=0x80009eb8
       39325000	      3931	800030b4	00fe4863	blt	x28,x15,800030c4	 x28:0x48b8c000 x15:0x00000001
       39335000	      3932	800030b8	edaa2193	slti	x3,x20,-294	 x20:0x80009ed0  x3=0x00000001
       39345000	      3933	800030bc	016a0b33	add	x22,x20,x22	 x20:0x80009ed0 x22:0x80009eb8 x22=0x00013d88
       39355000	      3934	800030c0	40ec80b3	sub	x1,x25,x14	 x25:0xb456e0ac x14:0x00000001  x1=0xb456e0ab
       39365000	      3935	800030c4	05e90663	beq	x18,x30,80003110	 x18:0x005a6520 x30:0x00000001
       39375000	      3936	800030c8	004cf033	and	x0,x25,x4	 x25:0xb456e0ac  x4:0x00002627
       39385000	      3937	800030cc	0372d063	bge	x5,x23,800030ec	  x5:0x00000000 x23:0x00000055
       39395000	      3938	800030d0	0169d393	srli	x7,x19,0x16	 x19:0x00000000  x7=0x00000000
       39405000	      3939	800030d4	03f2cc63	blt	x5,x31,8000310c	  x5:0x00000000 x31:0xffffc032
       39415000	      3940	800030d8	3eca8393	addi	x7,x21,1004	 x21:0x00001313  x7=0x000016ff
       39425000	      3941	800030dc	6c1dba93	sltiu	x21,x27,1729	 x27:0x0000000d x21=0x00000001
       39435000	      3942	800030e0	e3baec93	ori	x25,x21,-453	 x21:0x00000001 x25=0xfffffe3b
       39445000	      3943	800030e4	b1d2aa93	slti	x21,x5,-1251	  x5:0x00000000 x21=0x00000000
       39455000	      3944	800030e8	3742cf17	auipc	x30,0x3742c	 x30=0xb742f0e4
       39465000	      3945	800030ec	000364b3	or	x9,x6,x0	  x6:0x0000000e  x0:0x00000000  x9=0x0000000e
       39475000	      3946	800030f0	4042d713	srai	x14,x5,0x4	  x5:0x00000000 x14=0x00000000
       39485000	      3947	800030f4	019798b3	sll	x17,x15,x25	 x15:0x00000001 x25:0xfffffe3b x17=0x08000000
       39495000	      3948	800030f8	03e21663	bne	x4,x30,80003124	  x4:0x00002627 x30:0xb742f0e4
       39505000	      3949	00000000	00000013	addi	x0,x0,0	  x0:0x00000000
       39515000	      3950	80003120	00000013	addi	x0,x0,0	  x0:0x00000000
       39525000	      3951	80003124	fe07fe13	andi	x28,x15,-32	 x15:0x00000001 x28=0x00000000
       39535000	      3952	80003128	0041ad33	slt	x26,x3,x4	  x3:0x00000001  x4:0x00002627 x26=0x00000001
       39545000	      3953	8000312c	009314b3	sll	x9,x6,x9	  x6:0x0000000e  x9:0x0000000e  x9=0x00038000
       39555000	      3954	80003130	006f18b3	sll	x17,x30,x6	 x30:0xb742f0e4  x6:0x0000000e x17=0xbc390000
       39565000	      3955	80003134	4068d3b3	sra	x7,x17,x6	 x17:0xbc390000  x6:0x0000000e  x7=0xfffef0e4
       39575000	      3956	80003138	0037a533	slt	x10,x15,x3	 x15:0x00000001  x3:0x00000001 x10=0x00000000
       39585000	      3957	8000313c	003cc633	xor	x12,x25,x3	 x25:0xfffffe3b  x3:0x00000001 x12=0xfffffe3a
       39595000	      3958	80003140	00527463	bgeu	x4,x5,80003148	  x4:0x00002627  x5:0x00000000
       39605000	      3959	00000000	00000013	addi	x0,x0,0	  x0:0x00000000
       39615000	      3960	80003144	00000013	addi	x0,x0,0	  x0:0x00000000
       39625000	      3961	80003148	6c136c13	ori	x24,x6,1729	  x6:0x0000000e x24=0x000006cf
       39635000	      3962	8000314c	2a7f7993	andi	x19,x30,679	 x30:0xb742f0e4 x19=0x000000a4
       39645000	      3963	80003150	ed5ceb13	ori	x22,x25,-299	 x25:0xfffffe3b x22=0xfffffeff
       39655000	      3964	80003154	eeb96213	ori	x4,x18,-277	 x18:0x005a6520  x4=0xffffffeb
       39665000	      3965	80003158	c3db7e13	andi	x28,x22,-963	 x22:0xfffffeff x28=0xfffffc3d
       39675000	      3966	8000315c	5f874b97	auipc	x23,0x5f874	 x23=0xdf877158
       39685000	      3967	80003160	01d94863	blt	x18,x29,80003170	 x18:0x005a6520 x29:0x00000001
       39695000	      3968	80003164	01476b33	or	x22,x14,x20	 x14:0x00000000 x20:0x80009ed0 x22=0x80009ed0
       39705000	      3969	80003168	00f35113	srli	x2,x6,0xf	  x6:0x0000000e  x2=0x00000000
       39715000	      3970	8000316c	01e2aab3	slt	x21,x5,x30	  x5:0x00000000 x30:0xb742f0e4 x21=0x00000000
       39725000	      3971	80003170	2a584613	xori	x12,x16,677	 x16:0x00000000 x12=0x000002a5
       39735000	      3972	80003174	41a40fb3	sub	x31,x8,x26	  x8:0x80009fc4 x26:0x00000001 x31=0x80009fc3
       39745000	      3973	80003178	01bcbdb3	sltu	x27,x25,x27	 x25:0xfffffe3b x27:0x0000000d x27=0x00000000
       39755000	      3974	8000317c	01383233	sltu	x4,x16,x19	 x16:0x00000000 x19:0x000000a4  x4=0x00000001
       39765000	      3975	80003180	013debb3	or	x23,x27,x19	 x27:0x00000000 x19:0x000000a4 x23=0x000000a4
       39775000	      3976	80003184	d7c2ec13	ori	x24,x5,-644	  x5:0x00000000 x24=0xfffffd7c
       39785000	      3977	80003188	00904eb3	xor	x29,x0,x9	  x0:0x00000000  x9:0x00038000 x29=0x00038000
       39795000	      3978	8000318c	a4970793	addi	x15,x14,-1463	 x14:0x00000000 x15=0xfffffa49
       39805000	      3979	80003190	41fa8e33	sub	x28,x21,x31	 x21:0x00000000 x31:0x80009fc3 x28=0x7fff603d
       39815000	      3980	80003194	90057213	andi	x4,x10,-1792	 x10:0x00000000  x4=0x00000000
       39825000	      3981	80003198	012dd463	bge	x27,x18,800031a0	 x27:0x00000000 x18:0x005a6520
       39835000	      3982	8000319c	41155693	srai	x13,x10,0x11	 x10:0x00000000 x13=0x00000000
       39845000	      3983	800031a0	03ad7063	bgeu	x26,x26,800031c0	 x26:0x00000001 x26:0x00000001
       39855000	      3984	00000000	00000013	addi	x0,x0,0	  x0:0x00000000
       39865000	      3985	800031bc	00000013	addi	x0,x0,0	  x0:0x00000000
       39875000	      3986	800031c0	87c6b293	sltiu	x5,x13,-1924	 x13:0x00000000  x5=0x00000001
       39885000	      3987	800031c4	00638e63	beq	x7,x6,800031e0	  x7:0xfffef0e4  x6:0x0000000e
       39895000	      3988	800031c8	41b28733	sub	x14,x5,x27	  x5:0x00000001 x27:0x00000000 x14=0x00000001
       39905000	      3989	800031cc	41235db3	sra	x27,x6,x18	  x6:0x0000000e x18:0x005a6520 x27=0x0000000e
       39915000	      3990	800031d0	6b6fae97	auipc	x29,0x6b6fa	 x29=0xeb6fd1cc
       39925000	      3991	800031d4	0454c063	blt	x9,x5,80003214	  x9:0x00038000  x5:0x00000001
       39935000	      3992	800031d8	002ca033	slt	x0,x25,x2	 x25:0xfffffe3b  x2:0x00000000
       39945000	      3993	800031dc	25c1ab13	slti	x22,x3,604	  x3:0x00000001 x22=0x00000001
       39955000	      3994	800031e0	0c6ab917	auipc	x18,0xc6ab	 x18=0x8c6ae1dc
       39965000	      3995	800031e4	358ae813	ori	x16,x21,856	 x21:0x00000000 x16=0x00000358
       39975000	      3996	800031e8	03f19a63	bne	x3,x31,8000321c	  x3:0x00000001 x31:0x80009fc3
       39985000	      3997	00000000	00000013	addi	x0,x0,0	  x0:0x00000000
       39995000	      3998	80003218	00000013	addi	x0,x0,0	  x0:0x00000000
       40005000	      3999	8000321c	01bd05b3	add	x11,x26,x27	 x26:0x00000001 x27:0x0000000e x11=0x0000000f
       40015000	      4000	80003220	0098dd13	srli	x26,x17,0x9	 x17:0xbc390000 x26=0x005e1c80
       40025000	      4001	80003224	00b48e63	beq	x9,x11,80003240	  x9:0x00038000 x11:0x0000000f
       40035000	      4002	80003228	01a36233	or	x4,x6,x26	  x6:0x0000000e x26:0x005e1c80  x4=0x005e1c8e
       40045000	      4003	8000322c	413bdb33	sra	x22,x23,x19	 x23:0x000000a4 x19:0x000000a4 x22=0x0000000a
       40055000	      4004	80003230	016ef863	bgeu	x29,x22,80003240	 x29:0xeb6fd1cc x22:0x0000000a
       40065000	      4005	00000000	00000013	addi	x0,x0,0	  x0:0x00000000
       40075000	      4006	8000323c	00000013	addi	x0,x0,0	  x0:0x00000000
       40085000	      4007	80003240	24647393	andi	x7,x8,582	  x8:0x80009fc4  x7=0x00000244
       40095000	      4008	80003244	fe927f13	andi	x30,x4,-23	  x4:0x005e1c8e x30=0x005e1c88
       40105000	      4009	80003248	0162d9b3	srl	x19,x5,x22	  x5:0x00000001 x22:0x0000000a x19=0x00000000
       40115000	      4010	8000324c	fe2fe293	ori	x5,x31,-30	 x31:0x80009fc3  x5=0xffffffe3
       40125000	      4011	80003250	5e2da013	slti	x0,x27,1506	 x27:0x0000000e
       40135000	      4012	80003254	53da1117	auipc	x2,0x53da1	  x2=0xd3da4250
       40145000	      4013	80003258	012dca63	blt	x27,x18,8000326c	 x27:0x0000000e x18:0x8c6ae1dc
       40155000	      4014	8000325c	818a3d93	sltiu	x27,x20,-2024	 x20:0x80009ed0 x27=0x00000001
       40165000	      4015	80003260	0391c463	blt	x3,x25,80003288	  x3:0x00000001 x25:0xfffffe3b
       40175000	      4016	80003264	41a80833	sub	x16,x16,x26	 x16:0x00000358 x26:0x005e1c80 x16=0xffa1e6d8
       40185000	      4017	80003268	41595213	srai	x4,x18,0x15	 x18:0x8c6ae1dc  x4=0xfffffc63
       40195000	      4018	8000326c	00cca833	slt	x16,x25,x12	 x25:0xfffffe3b x12:0x000002a5 x16=0x00000001
       40205000	      4019	80003270	00d38863	beq	x7,x13,80003280	  x7:0x00000244 x13:0x00000000
       40215000	      4020	80003274	00000013	addi	x0,x0,0	  x0:0x00000000
       40225000	      4021	80003278	0a2e5663	bge	x28,x2,80003324	 x28:0x7fff603d  x2:0xd3da4250
       40235000	      4022	00000000	00000013	addi	x0,x0,0	  x0:0x00000000
       40245000	      4023	80003320	00000013	addi	x0,x0,0	  x0:0x00000000
       40255000	      4024	80003324	40f355b3	sra	x11,x6,x15	  x6:0x0000000e x15:0xfffffa49 x11=0x00000000
       40265000	      4025	80003328	250c8613	addi	x12,x25,592	 x25:0xfffffe3b x12=0x0000008b
       40275000	      4026	8000332c	8d3a7b93	andi	x23,x20,-1837	 x20:0x80009ed0 x23=0x800098d0
       40285000	      4027	80003330	40a7d393	srai	x7,x15,0xa	 x15:0xfffffa49  x7=0xfffffffe
       40295000	      4028	80003334	01d75d33	srl	x26,x14,x29	 x14:0x00000001 x29:0xeb6fd1cc x26=0x00000000
       40305000	      4029	80003338	01b06133	or	x2,x0,x27	  x0:0x00000000 x27:0x00000001  x2=0x00000001
       40315000	      4030	8000333c	004a8a63	beq	x21,x4,80003350	 x21:0x00000000  x4:0xfffffc63
       40325000	      4031	80003340	00000013	addi	x0,x0,0	  x0:0x00000000
       40335000	      4032	80003344	000875b3	and	x11,x16,x0	 x16:0x00000001  x0:0x00000000 x11=0x00000000
       40345000	      4033	80003348	0188d863	bge	x17,x24,80003358	 x17:0xbc390000 x24:0xfffffd7c
       40355000	      4034	8000334c	b945d897	auipc	x17,0xb945d	 x17=0x39460348
       40365000	      4035	80003350	809a2b13	slti	x22,x20,-2039	 x20:0x80009ed0 x22=0x00000001
       40375000	      4036	80003354	03d9e663	bltu	x19,x29,80003380	 x19:0x00000000 x29:0xeb6fd1cc
       40385000	      4037	00000000	00000013	addi	x0,x0,0	  x0:0x00000000
       40395000	      4038	8000337c	00000013	addi	x0,x0,0	  x0:0x00000000
       40405000	      4039	80003380	414d0e33	sub	x28,x26,x20	 x26:0x00000000 x20:0x80009ed0 x28=0x7fff6130
       40415000	      4040	80003384	0077c7b3	xor	x15,x15,x7	 x15:0xfffffa49  x7:0xfffffffe x15=0x000005b7
       40425000	      4041	80003388	00e98c33	add	x24,x19,x14	 x19:0x00000000 x14:0x00000001 x24=0x00000001
       40435000	      4042	8000338c	0175f863	bgeu	x11,x23,8000339c	 x11:0x00000000 x23:0x800098d0
       40445000	      4043	80003390	011a9393	slli	x7,x21,0x11	 x21:0x00000000  x7=0x00000000
       40455000	      4044	80003394	00f26463	bltu	x4,x15,8000339c	  x4:0xfffffc63 x15:0x000005b7
       40465000	      4045	80003398	4083d393	srai	x7,x7,0x8	  x7:0x00000000  x7=0x00000000
       40475000	      4046	8000339c	006bd113	srli	x2,x23,0x6	 x23:0x800098d0  x2=0x02000263
       40485000	      4047	800033a0	02234063	blt	x6,x2,800033c0	  x6:0x0000000e  x2:0x02000263
       40495000	      4048	00000000	00000013	addi	x0,x0,0	  x0:0x00000000
       40505000	      4049	800033bc	00000013	addi	x0,x0,0	  x0:0x00000000
       40515000	      4050	800033c0	8b45e113	ori	x2,x11,-1868	 x11:0x00000000  x2=0xfffff8b4
       40525000	      4051	800033c4	030d7863	bgeu	x26,x16,800033f4	 x26:0x00000000 x16:0x00000001
       40535000	      4052	800033c8	02665463	bge	x12,x6,800033f0	 x12:0x0000008b  x6:0x0000000e
       40545000	      4053	00000000	00000013	addi	x0,x0,0	  x0:0x00000000
       40555000	      4054	800033ec	00000013	addi	x0,x0,0	  x0:0x00000000
       40565000	      4055	800033f0	41908db3	sub	x27,x1,x25	  x1:0xb456e0ab x25:0xfffffe3b x27=0xb456e270
       40575000	      4056	800033f4	40d4da93	srai	x21,x9,0xd	  x9:0x00038000 x21=0x0000001c
       40585000	      4057	800033f8	0186f7b3	and	x15,x13,x24	 x13:0x00000000 x24:0x00000001 x15=0x00000000
       40595000	      4058	800033fc	00046833	or	x16,x8,x0	  x8:0x80009fc4  x0:0x00000000 x16=0x80009fc4
       40605000	      4059	80003400	f2facc93	xori	x25,x21,-209	 x21:0x0000001c x25=0xffffff33
       40615000	      4060	80003404	04e6c663	blt	x13,x14,80003450	 x13:0x00000000 x14:0x00000001
       40625000	      4061	00000000	00000013	addi	x0,x0,0	  x0:0x00000000
       40635000	      4062	8000344c	00000013	addi	x0,x0,0	  x0:0x00000000
       40645000	      4063	80003450	0c663213	sltiu	x4,x12,198	 x12:0x0000008b  x4=0x00000001
       40655000	      4064	80003454	bd258f13	addi	x30,x11,-1070	 x11:0x00000000 x30=0xfffffbd2
       40665000	      4065	80003458	004127b3	slt	x15,x2,x4	  x2:0xfffff8b4  x4:0x00000001 x15=0x00000001
       40675000	      4066	8000345c	041c1663	bne	x24,x1,800034a8	 x24:0x00000001  x1:0xb456e0ab
       40685000	      4067	00000000	00000013	addi	x0,x0,0	  x0:0x00000000
       40695000	      4068	800034a4	00000013	addi	x0,x0,0	  x0:0x00000000
       40705000	      4069	800034a8	01d76e63	bltu	x14,x29,800034c4	 x14:0x00000001 x29:0xeb6fd1cc
       40715000	      4070	00000000	00000013	addi	x0,x0,0	  x0:0x00000000
       40725000	      4071	800034c0	00000013	addi	x0,x0,0	  x0:0x00000000
       40735000	      4072	800034c4	03006063	bltu	x0,x16,800034e4	  x0:0x00000000 x16:0x80009fc4
       40745000	      4073	00000000	00000013	addi	x0,x0,0	  x0:0x00000000
       40755000	      4074	800034e0	00000013	addi	x0,x0,0	  x0:0x00000000
       40765000	      4075	800034e4	e9ebe393	ori	x7,x23,-354	 x23:0x800098d0  x7=0xfffffede
       40775000	      4076	800034e8	fe470f13	addi	x30,x14,-28	 x14:0x00000001 x30=0xffffffe5
       40785000	      4077	800034ec	01acfe63	bgeu	x25,x26,80003508	 x25:0xffffff33 x26:0x00000000
       40795000	      4078	00000000	00000013	addi	x0,x0,0	  x0:0x00000000
       40805000	      4079	80003504	00000013	addi	x0,x0,0	  x0:0x00000000
       40815000	      4080	80003508	40500933	sub	x18,x0,x5	  x0:0x00000000  x5:0xffffffe3 x18=0x0000001d
       40825000	      4081	8000350c	eb0c3613	sltiu	x12,x24,-336	 x24:0x00000001 x12=0x00000001
       40835000	      4082	80003510	b26cb593	sltiu	x11,x25,-1242	 x25:0xffffff33 x11=0x00000000
       40845000	      4083	80003514	009e9793	slli	x15,x29,0x9	 x29:0xeb6fd1cc x15=0xdfa39800
       40855000	      4084	80003518	01a750b3	srl	x1,x14,x26	 x14:0x00000001 x26:0x00000000  x1=0x00000001
       40865000	      4085	8000351c	01f5f233	and	x4,x11,x31	 x11:0x00000000 x31:0x80009fc3  x4=0x00000000
       40875000	      4086	80003520	2ebd6897	auipc	x17,0x2ebd6	 x17=0xaebd951c
       40885000	      4087	80003524	ecfd2937	lui	x18,0xecfd2	 x18=0xecfd2000
       40895000	      4088	80003528	004a2083	lw	x1,4(x20)	 x20:0x80009ed0  x1=0x80005d84 PA:0x80009ed4
       40905000	      4089	8000352c	00000013	addi	x0,x0,0	  x0:0x00000000
       40915000	      4090	80003530	034a0a13	addi	x20,x20,52	 x20:0x80009ed0 x20=0x80009f04
       40925000	      4091	80003534	008a9033	sll	x0,x21,x8	 x21:0x0000001c  x8:0x80009fc4
       40935000	      4092	80003538	00ed7db3	and	x27,x26,x14	 x26:0x00000000 x14:0x00000001 x27=0x00000000
       40945000	      4093	8000353c	01b47d33	and	x26,x8,x27	  x8:0x80009fc4 x27:0x00000000 x26=0x00000000
       40955000	      4094	80003540	1cc16393	ori	x7,x2,460	  x2:0xfffff8b4  x7=0xfffff9fc
       40965000	      4095	80003544	00008d13	addi	x26,x1,0	  x1:0x80005d84 x26=0x80005d84
       40975000	      4096	80003548	000d0d67	jalr	x26,x26,0	 x26:0x80005d84 x26=0x80003548
       40985000	      4097	00000000	00000013	addi	x0,x0,0	  x0:0x00000000
       40995000	      4098	80005d84	00000013	addi	x0,x0,0	  x0:0x00000000
       41005000	      4099	80005d88	00002697	auipc	x13,0x2	 x13=0x80007d84
       41015000	      4100	80005d8c	4b468693	addi	x13,x13,1204	 x13:0x80007d84 x13=0x80008238
       41025000	      4101	80005d90	2d06db83	lhu	x23,720(x13)	 x13:0x80008238 x23=0x0000c2c3 PA:0x80008508
       41035000	      4102	80005d94	04132e93	slti	x29,x6,65	  x6:0x0000000e x29=0x00000001
       41045000	      4103	80005d98	f9b49b17	auipc	x22,0xf9b49	 x22=0x79b4ed94
       41055000	      4104	80005d9c	013852b3	srl	x5,x16,x19	 x16:0x80009fc4 x19:0x00000000  x5=0x80009fc4
       41065000	      4105	80005da0	f7c682a3	sb	x28,-155(x13)	 x13:0x80008238 x28:0x7fff6130 PA:0x8000819d
       41075000	      4106	80005da4	39568423	sb	x21,904(x13)	 x13:0x80008238 x21:0x0000001c PA:0x800085c0
       41085000	      4107	80005da8	39b73a93	sltiu	x21,x14,923	 x14:0x00000001 x21=0x00000001
       41095000	      4108	80005dac	e6213e93	sltiu	x29,x2,-414	  x2:0xfffff8b4 x29=0x00000001
       41105000	      4109	80005db0	53d68ea3	sb	x29,1341(x13)	 x13:0x80008238 x29:0x00000001 PA:0x80008775
       41115000	      4110	80005db4	01a02ab3	slt	x21,x0,x26	  x0:0x00000000 x26:0x80003548 x21=0x00000000
       41125000	      4111	80005db8	01fd5033	srl	x0,x26,x31	 x26:0x80003548 x31:0x80009fc3
       41135000	      4112	80005dbc	ce4cc013	xori	x0,x25,-796	 x25:0xffffff33
       41145000	      4113	80005dc0	e7d68603	lb	x12,-387(x13)	 x13:0x80008238 x12=0x00000000 PA:0x800080b5
       41155000	      4114	80005dc4	0e46a583	lw	x11,228(x13)	 x13:0x80008238 x11=0xd4d5d6d7 PA:0x8000831c
       41165000	      4115	80005dc8	6de57a97	auipc	x21,0x6de57	 x21=0xede5cdc4
       41175000	      4116	80005dcc	aaeaa713	slti	x14,x21,-1362	 x21:0xede5cdc4 x14=0x00000001
       41185000	      4117	80005dd0	01b99c13	slli	x24,x19,0x1b	 x19:0x00000000 x24=0x00000000
       41195000	      4118	80005dd4	32968383	lb	x7,809(x13)	 x13:0x80008238  x7=0x0000001a PA:0x80008561
       41205000	      4119	80005dd8	e3768723	sb	x23,-466(x13)	 x13:0x80008238 x23:0x0000c2c3 PA:0x80008066
       41215000	      4120	80005ddc	e5e32013	slti	x0,x6,-418	  x6:0x0000000e
       41225000	      4121	80005de0	00d2a1b3	slt	x3,x5,x13	  x5:0x80009fc4 x13:0x80008238  x3=0x00000000
       41235000	      4122	80005de4	40497813	andi	x16,x18,1028	 x18:0xecfd2000 x16=0x00000000
       41245000	      4123	80005de8	f116cd03	lbu	x26,-239(x13)	 x13:0x80008238 x26=0x00000002 PA:0x80008149
       41255000	      4124	80005dec	00fb9b13	slli	x22,x23,0xf	 x23:0x0000c2c3 x22=0x61618000
       41265000	      4125	80005df0	5f31c793	xori	x15,x3,1523	  x3:0x00000000 x15=0x000005f3
       41275000	      4126	80005df4	001ed733	srl	x14,x29,x1	 x29:0x00000001  x1:0x80005d84 x14=0x00000000
       41285000	      4127	80005df8	55a69f83	lh	x31,1370(x13)	 x13:0x80008238 x31=0x00004849 PA:0x80008792
       41295000	      4128	80005dfc	00b33cb3	sltu	x25,x6,x11	  x6:0x0000000e x11:0xd4d5d6d7 x25=0x00000001
       41305000	      4129	80005e00	19168283	lb	x5,401(x13)	 x13:0x80008238  x5=0xffffff82 PA:0x800083c9
       41315000	      4130	80005e04	28869f23	sh	x8,670(x13)	 x13:0x80008238  x8:0x80009fc4 PA:0x800084d6
       41325000	      4131	80005e08	00de5633	srl	x12,x28,x13	 x28:0x7fff6130 x13:0x80008238 x12=0x0000007f
       41335000	      4132	80005e0c	405e5713	srai	x14,x28,0x5	 x28:0x7fff6130 x14=0x03fffb09
       41345000	      4133	80005e10	5866dd03	lhu	x26,1414(x13)	 x13:0x80008238 x26=0x00007475 PA:0x800087be
       41355000	      4134	80005e14	0856ce83	lbu	x29,133(x13)	 x13:0x80008238 x29=0x00000076 PA:0x800082bd
       41365000	      4135	80005e18	ddb74593	xori	x11,x14,-549	 x14:0x03fffb09 x11=0xfc0006d2
       41375000	      4136	80005e1c	e3669f03	lh	x30,-458(x13)	 x13:0x80008238 x30=0x00002425 PA:0x8000806e
       41385000	      4137	80005e20	002fd033	srl	x0,x31,x2	 x31:0x00004849  x2:0xfffff8b4
       41395000	      4138	80005e24	2f368503	lb	x10,755(x13)	 x13:0x80008238 x10=0xffffffe0 PA:0x8000852b
       41405000	      4139	80005e28	01101c93	slli	x25,x0,0x11	  x0:0x00000000 x25=0x00000000
       41415000	      4140	80005e2c	0466cc03	lbu	x24,70(x13)	 x13:0x80008238 x24=0x00000035 PA:0x8000827e
       41425000	      4141	80005e30	05790863	beq	x18,x23,80005e80	 x18:0xecfd2000 x23:0x0000c2c3
       41435000	      4142	80005e34	dc817713	andi	x14,x2,-568	  x2:0xfffff8b4 x14=0xfffff880
       41445000	      4143	80005e38	af99cb13	xori	x22,x19,-1287	 x19:0x00000000 x22=0xfffffaf9
       41455000	      4144	80005e3c	00c9cf33	xor	x30,x19,x12	 x19:0x00000000 x12:0x0000007f x30=0x0000007f
       41465000	      4145	80005e40	00f86bb3	or	x23,x16,x15	 x16:0x00000000 x15:0x000005f3 x23=0x000005f3
       41475000	      4146	80005e44	01b927b3	slt	x15,x18,x27	 x18:0xecfd2000 x27:0x00000000 x15=0x00000001
       41485000	      4147	80005e48	01205b13	srli	x22,x0,0x12	  x0:0x00000000 x22=0x00000000
       41495000	      4148	80005e4c	98db4737	lui	x14,0x98db4	 x14=0x98db4000
       41505000	      4149	80005e50	c6be4913	xori	x18,x28,-917	 x28:0x7fff6130 x18=0x80009d5b
       41515000	      4150	80005e54	01d34863	blt	x6,x29,80005e64	  x6:0x0000000e x29:0x00000076
       41525000	      4151	00000000	00000013	addi	x0,x0,0	  x0:0x00000000
       41535000	      4152	80005e60	00000013	addi	x0,x0,0	  x0:0x00000000
       41545000	      4153	80005e64	01f75013	srli	x0,x14,0x1f	 x14:0x98db4000
       41555000	      4154	80005e68	28c16093	ori	x1,x2,652	  x2:0xfffff8b4  x1=0xfffffabc
       41565000	      4155	80005e6c	f1042f13	slti	x30,x8,-240	  x8:0x80009fc4 x30=0x00000001
       41575000	      4156	80005e70	0b396493	ori	x9,x18,179	 x18:0x80009d5b  x9=0x80009dfb
       41585000	      4157	80005e74	5fe62893	slti	x17,x12,1534	 x12:0x0000007f x17=0x00000001
       41595000	      4158	80005e78	05422e93	slti	x29,x4,84	  x4:0x00000000 x29=0x00000001
       41605000	      4159	80005e7c	4137dd33	sra	x26,x15,x19	 x15:0x00000001 x19:0x00000000 x26=0x00000001
       41615000	      4160	80005e80	013a9bb3	sll	x23,x21,x19	 x21:0xede5cdc4 x19:0x00000000 x23=0xede5cdc4
       41625000	      4161	80005e84	00c48f33	add	x30,x9,x12	  x9:0x80009dfb x12:0x0000007f x30=0x80009e7a
       41635000	      4162	80005e88	0034e0b3	or	x1,x9,x3	  x9:0x80009dfb  x3:0x00000000  x1=0x80009dfb
       41645000	      4163	80005e8c	173fc393	xori	x7,x31,371	 x31:0x00004849  x7=0x0000493a
       41655000	      4164	80005e90	014ae4b3	or	x9,x21,x20	 x21:0xede5cdc4 x20:0x80009f04  x9=0xede5dfc4
       41665000	      4165	80005e94	0045a4b3	slt	x9,x11,x4	 x11:0xfc0006d2  x4:0x00000000  x9=0x00000001
       41675000	      4166	80005e98	004766b3	or	x13,x14,x4	 x14:0x98db4000  x4:0x00000000 x13=0x98db4000
       41685000	      4167	80005e9c	10b48093	addi	x1,x9,267	  x9:0x00000001  x1=0x0000010c
       41695000	      4168	80005ea0	01c6f4b3	and	x9,x13,x28	 x13:0x98db4000 x28:0x7fff6130  x9=0x18db4000
       41705000	      4169	80005ea4	40d85d33	sra	x26,x16,x13	 x16:0x00000000 x13:0x98db4000 x26=0x00000000
       41715000	      4170	80005ea8	051e8863	beq	x29,x17,80005ef8	 x29:0x00000001 x17:0x00000001
       41725000	      4171	00000000	00000013	addi	x0,x0,0	  x0:0x00000000
       41735000	      4172	80005ef4	00000013	addi	x0,x0,0	  x0:0x00000000
       41745000	      4173	80005ef8	1c7e4e13	xori	x28,x28,455	 x28:0x7fff6130 x28=0x7fff60f7
       41755000	      4174	80005efc	8ecff937	lui	x18,0x8ecff	 x18=0x8ecff000
       41765000	      4175	80005f00	01c905b3	add	x11,x18,x28	 x18:0x8ecff000 x28:0x7fff60f7 x11=0x0ecf50f7
       41775000	      4176	80005f04	00f39033	sll	x0,x7,x15	  x7:0x0000493a x15:0x00000001
       41785000	      4177	80005f08	011cf663	bgeu	x25,x17,80005f14	 x25:0x00000000 x17:0x00000001
       41795000	      4178	80005f0c	1883a737	lui	x14,0x1883a	 x14=0x1883a000
       41805000	      4179	80005f10	01e7b5b3	sltu	x11,x15,x30	 x15:0x00000001 x30:0x80009e7a x11=0x00000001
       41815000	      4180	80005f14	01255cb3	srl	x25,x10,x18	 x10:0xffffffe0 x18:0x8ecff000 x25=0xffffffe0
       41825000	      4181	80005f18	01cc5cb3	srl	x25,x24,x28	 x24:0x00000035 x28:0x7fff60f7 x25=0x00000000
       41835000	      4182	80005f1c	01975213	srli	x4,x14,0x19	 x14:0x1883a000  x4=0x0000000c
       41845000	      4183	80005f20	404a5bb3	sra	x23,x20,x4	 x20:0x80009f04  x4:0x0000000c x23=0xfff80009
       41855000	      4184	80005f24	01071133	sll	x2,x14,x16	 x14:0x1883a000 x16:0x00000000  x2=0x1883a000
       41865000	      4185	80005f28	86432f13	slti	x30,x6,-1948	  x6:0x0000000e x30=0x00000000
       41875000	      4186	80005f2c	51084013	xori	x0,x16,1296	 x16:0x00000000
       41885000	      4187	80005f30	26106d93	ori	x27,x0,609	  x0:0x00000000 x27=0x00000261
       41895000	      4188	80005f34	01c4df93	srli	x31,x9,0x1c	  x9:0x18db4000 x31=0x00000001
       41905000	      4189	80005f38	01d587b3	add	x15,x11,x29	 x11:0x00000001 x29:0x00000001 x15=0x00000002
       41915000	      4190	80005f3c	84789837	lui	x16,0x84789	 x16=0x84789000
       41925000	      4191	80005f40	23a0f993	andi	x19,x1,570	  x1:0x0000010c x19=0x00000008
       41935000	      4192	80005f44	02029e63	bne	x5,x0,80005f80	  x5:0xffffff82  x0:0x00000000
       41945000	      4193	00000000	00000013	addi	x0,x0,0	  x0:0x00000000
       41955000	      4194	80005f7c	00000013	addi	x0,x0,0	  x0:0x00000000
       41965000	      4195	80005f80	03268263	beq	x13,x18,80005fa4	 x13:0x98db4000 x18:0x8ecff000
       41975000	      4196	80005f84	010147b3	xor	x15,x2,x16	  x2:0x1883a000 x16:0x84789000 x15=0x9cfb3000
       41985000	      4197	80005f88	0568e463	bltu	x17,x22,80005fd0	 x17:0x00000001 x22:0x00000000
       41995000	      4198	80005f8c	87461237	lui	x4,0x87461	  x4=0x87461000
       42005000	      4199	80005f90	0467c463	blt	x15,x6,80005fd8	 x15:0x9cfb3000  x6:0x0000000e
       42015000	      4200	00000000	00000013	addi	x0,x0,0	  x0:0x00000000
       42025000	      4201	80005fd4	00000013	addi	x0,x0,0	  x0:0x00000000
       42035000	      4202	80005fd8	68e72293	slti	x5,x14,1678	 x14:0x1883a000  x5=0x00000000
       42045000	      4203	80005fdc	00e49ab3	sll	x21,x9,x14	  x9:0x18db4000 x14:0x1883a000 x21=0x18db4000
       42055000	      4204	80005fe0	4194d7b3	sra	x15,x9,x25	  x9:0x18db4000 x25:0x00000000 x15=0x18db4000
       42065000	      4205	80005fe4	da973713	sltiu	x14,x14,-599	 x14:0x1883a000 x14=0x00000001
       42075000	      4206	80005fe8	4e857237	lui	x4,0x4e857	  x4=0x4e857000
       42085000	      4207	80005fec	40230cb3	sub	x25,x6,x2	  x6:0x0000000e  x2:0x1883a000 x25=0xe77c600e
       42095000	      4208	80005ff0	0a436117	auipc	x2,0xa436	  x2=0x8a43bfec
       42105000	      4209	80005ff4	40c9dfb3	sra	x31,x19,x12	 x19:0x00000008 x12:0x0000007f x31=0x00000000
       42115000	      4210	80005ff8	005a11b3	sll	x3,x20,x5	 x20:0x80009f04  x5:0x00000000  x3=0x80009f04
       42125000	      4211	80005ffc	1b55cf13	xori	x30,x11,437	 x11:0x00000001 x30=0x000001b4
       42135000	      4212	80006000	014f8663	beq	x31,x20,8000600c	 x31:0x00000000 x20:0x80009f04
       42145000	      4213	80006004	66de6e93	ori	x29,x28,1645	 x28:0x7fff60f7 x29=0x7fff66ff
       42155000	      4214	80006008	410602b3	sub	x5,x12,x16	 x12:0x0000007f x16:0x84789000  x5=0x7b87707f
       42165000	      4215	8000600c	40f9dc93	srai	x25,x19,0xf	 x19:0x00000008 x25=0x00000000
       42175000	      4216	80006010	01d25b13	srli	x22,x4,0x1d	  x4:0x4e857000 x22=0x00000002
       42185000	      4217	80006014	00000013	addi	x0,x0,0	  x0:0x00000000
       42195000	      4218	80006018	3c914e13	xori	x28,x2,969	  x2:0x8a43bfec x28=0x8a43bc25
       42205000	      4219	8000601c	00090233	add	x4,x18,x0	 x18:0x8ecff000  x0:0x00000000  x4=0x8ecff000
       42215000	      4220	80006020	00e80b33	add	x22,x16,x14	 x16:0x84789000 x14:0x00000001 x22=0x84789001
       42225000	      4221	80006024	4b317517	auipc	x10,0x4b317	 x10=0xcb31d020
       42235000	      4222	80006028	00000013	addi	x0,x0,0	  x0:0x00000000
       42245000	      4223	8000602c	728ba597	auipc	x11,0x728ba	 x11=0xf28c0028
       42255000	      4224	80006030	00b3f5b3	and	x11,x7,x11	  x7:0x0000493a x11:0xf28c0028 x11=0x00000028
       42265000	      4225	80006034	01733bb3	sltu	x23,x6,x23	  x6:0x0000000e x23:0xfff80009 x23=0x00000001
       42275000	      4226	80006038	7e6ebd13	sltiu	x26,x29,2022	 x29:0x7fff66ff x26=0x00000000
       42285000	      4227	8000603c	00d78ab3	add	x21,x15,x13	 x15:0x18db4000 x13:0x98db4000 x21=0xb1b68000
       42295000	      4228	80006040	fbb38e93	addi	x29,x7,-69	  x7:0x0000493a x29=0x000048f5
       42305000	      4229	80006044	40295db3	sra	x27,x18,x2	 x18:0x8ecff000  x2:0x8a43bfec x27=0xfff8ecff
       42315000	      4230	80006048	00f99863	bne	x19,x15,80006058	 x19:0x00000008 x15:0x18db4000
       42325000	      4231	00000000	00000013	addi	x0,x0,0	  x0:0x00000000
       42335000	      4232	80006054	00000013	addi	x0,x0,0	  x0:0x00000000
       42345000	      4233	80006058	56510713	addi	x14,x2,1381	  x2:0x8a43bfec x14=0x8a43c551
       42355000	      4234	8000605c	eb818113	addi	x2,x3,-328	  x3:0x80009f04  x2=0x80009dbc
       42365000	      4235	80006060	781e6817	auipc	x16,0x781e6	 x16=0xf81ec05c
       42375000	      4236	80006064	cc9387b7	lui	x15,0xcc938	 x15=0xcc938000
       42385000	      4237	80006068	31b5c393	xori	x7,x11,795	 x11:0x00000028  x7=0x00000333
       42395000	      4238	8000606c	016d9db3	sll	x27,x27,x22	 x27:0xfff8ecff x22:0x84789001 x27=0xfff1d9fe
       42405000	      4239	80006070	36bdf213	andi	x4,x27,875	 x27:0xfff1d9fe  x4=0x0000016a
       42415000	      4240	80006074	036ed463	bge	x29,x22,8000609c	 x29:0x000048f5 x22:0x84789001
       42425000	      4241	00000000	00000013	addi	x0,x0,0	  x0:0x00000000
       42435000	      4242	80006098	00000013	addi	x0,x0,0	  x0:0x00000000
       42445000	      4243	8000609c	d772ec93	ori	x25,x5,-649	  x5:0x7b87707f x25=0xfffffd7f
       42455000	      4244	800060a0	02430063	beq	x6,x4,800060c0	  x6:0x0000000e  x4:0x0000016a
       42465000	      4245	800060a4	177daf37	lui	x30,0x177da	 x30=0x177da000
       42475000	      4246	800060a8	01064c63	blt	x12,x16,800060c0	 x12:0x0000007f x16:0xf81ec05c
       42485000	      4247	800060ac	5855f013	andi	x0,x11,1413	 x11:0x00000028
       42495000	      4248	800060b0	3d8cec13	ori	x24,x25,984	 x25:0xfffffd7f x24=0xffffffff
       42505000	      4249	800060b4	d6b3cd37	lui	x26,0xd6b3c	 x26=0xd6b3c000
       42515000	      4250	800060b8	0002d263	bge	x5,x0,800060bc	  x5:0x7b87707f  x0:0x00000000
       42525000	      4251	00000000	00000013	addi	x0,x0,0	  x0:0x00000000
       42535000	      4252	800060b8	00000013	addi	x0,x0,0	  x0:0x00000000
       42545000	      4253	800060bc	00fc9913	slli	x18,x25,0xf	 x25:0xfffffd7f x18=0xfebf8000
       42555000	      4254	800060c0	0135d613	srli	x12,x11,0x13	 x11:0x00000028 x12=0x00000000
       42565000	      4255	800060c4	004a2083	lw	x1,4(x20)	 x20:0x80009f04  x1=0x80005480 PA:0x80009f08
       42575000	      4256	800060c8	01da9813	slli	x16,x21,0x1d	 x21:0xb1b68000 x16=0x00000000
       42585000	      4257	800060cc	01901133	sll	x2,x0,x25	  x0:0x00000000 x25:0xfffffd7f  x2=0x00000000
       42595000	      4258	800060d0	403b5593	srai	x11,x22,0x3	 x22:0x84789001 x11=0xf08f1200
       42605000	      4259	800060d4	01eddc33	srl	x24,x27,x30	 x27:0xfff1d9fe x30:0x177da000 x24=0xfff1d9fe
       42615000	      4260	800060d8	41305033	sra	x0,x0,x19	  x0:0x00000000 x19:0x00000008
       42625000	      4261	800060dc	00843eb3	sltu	x29,x8,x8	  x8:0x80009fc4  x8:0x80009fc4 x29=0x00000000
       42635000	      4262	800060e0	040a0a13	addi	x20,x20,64	 x20:0x80009f04 x20=0x80009f44
       42645000	      4263	800060e4	1a512e13	slti	x28,x2,421	  x2:0x00000000 x28=0x00000001
       42655000	      4264	800060e8	00192833	slt	x16,x18,x1	 x18:0xfebf8000  x1:0x80005480 x16=0x00000000
       42665000	      4265	800060ec	00325133	srl	x2,x4,x3	  x4:0x0000016a  x3:0x80009f04  x2=0x00000016
       42675000	      4266	800060f0	00000013	addi	x0,x0,0	  x0:0x00000000
       42685000	      4267	800060f4	00008113	addi	x2,x1,0	  x1:0x80005480  x2=0x80005480
       42695000	      4268	800060f8	00010167	jalr	x2,x2,0	  x2:0x80005480  x2=0x800060f8
       42705000	      4269	00000000	00000013	addi	x0,x0,0	  x0:0x00000000
       42715000	      4270	80005480	00000013	addi	x0,x0,0	  x0:0x00000000
       42725000	      4271	80005484	0582e263	bltu	x5,x24,800054c8	  x5:0x7b87707f x24:0xfff1d9fe
       42735000	      4272	00000000	00000013	addi	x0,x0,0	  x0:0x00000000
       42745000	      4273	800054c4	00000013	addi	x0,x0,0	  x0:0x00000000
       42755000	      4274	800054c8	30f25b37	lui	x22,0x30f25	 x22=0x30f25000
       42765000	      4275	800054cc	005dc663	blt	x27,x5,800054d8	 x27:0xfff1d9fe  x5:0x7b87707f
       42775000	      4276	00000000	00000013	addi	x0,x0,0	  x0:0x00000000
       42785000	      4277	800054d4	00000013	addi	x0,x0,0	  x0:0x00000000
       42795000	      4278	800054d8	9dcc7e13	andi	x28,x24,-1572	 x24:0xfff1d9fe x28=0xfff1d9dc
       42805000	      4279	800054dc	416883b3	sub	x7,x17,x22	 x17:0x00000001 x22:0x30f25000  x7=0xcf0db001
       42815000	      4280	800054e0	016c9e93	slli	x29,x25,0x16	 x25:0xfffffd7f x29=0x5fc00000
       42825000	      4281	800054e4	41fe58b3	sra	x17,x28,x31	 x28:0xfff1d9dc x31:0x00000000 x17=0xfff1d9dc
       42835000	      4282	800054e8	004ef8b3	and	x17,x29,x4	 x29:0x5fc00000  x4:0x0000016a x17=0x00000000
       42845000	      4283	800054ec	031b7a63	bgeu	x22,x17,80005520	 x22:0x30f25000 x17:0x00000000
       42855000	      4284	00000000	00000013	addi	x0,x0,0	  x0:0x00000000
       42865000	      4285	8000551c	00000013	addi	x0,x0,0	  x0:0x00000000
       42875000	      4286	80005520	004321b3	slt	x3,x6,x4	  x6:0x0000000e  x4:0x0000016a  x3=0x00000001
       42885000	      4287	80005524	4f1cab13	slti	x22,x25,1265	 x25:0xfffffd7f x22=0x00000001
       42895000	      4288	80005528	003222b3	slt	x5,x4,x3	  x4:0x0000016a  x3:0x00000001  x5=0x00000000
       42905000	      4289	8000552c	95517c93	andi	x25,x2,-1707	  x2:0x800060f8 x25=0x80006050
       42915000	      4290	80005530	dba47e13	andi	x28,x8,-582	  x8:0x80009fc4 x28=0x80009d80
       42925000	      4291	80005534	5864b837	lui	x16,0x5864b	 x16=0x5864b000
       42935000	      4292	80005538	c6b36e93	ori	x29,x6,-917	  x6:0x0000000e x29=0xfffffc6f
       42945000	      4293	8000553c	95f67913	andi	x18,x12,-1697	 x12:0x00000000 x18=0x00000000
       42955000	      4294	80005540	5cd7b013	sltiu	x0,x15,1485	 x15:0xcc938000
       42965000	      4295	80005544	ffa33193	sltiu	x3,x6,-6	  x6:0x0000000e  x3=0x00000001
       42975000	      4296	80005548	41577093	andi	x1,x14,1045	 x14:0x8a43c551  x1=0x00000411
       42985000	      4297	8000554c	00d80a63	beq	x16,x13,80005560	 x16:0x5864b000 x13:0x98db4000
       42995000	      4298	80005550	01e87fb3	and	x31,x16,x30	 x16:0x5864b000 x30:0x177da000 x31=0x1064a000
       43005000	      4299	80005554	01535993	srli	x19,x6,0x15	  x6:0x0000000e x19=0x00000000
       43015000	      4300	80005558	00000013	addi	x0,x0,0	  x0:0x00000000
       43025000	      4301	8000555c	019de1b3	or	x3,x27,x25	 x27:0xfff1d9fe x25:0x80006050  x3=0xfff1f9fe
       43035000	      4302	80005560	02380063	beq	x16,x3,80005580	 x16:0x5864b000  x3:0xfff1f9fe
       43045000	      4303	80005564	c43da993	slti	x19,x27,-957	 x27:0xfff1d9fe x19=0x00000001
       43055000	      4304	80005568	8409f293	andi	x5,x19,-1984	 x19:0x00000001  x5=0x00000000
       43065000	      4305	8000556c	019c6863	bltu	x24,x25,8000557c	 x24:0xfff1d9fe x25:0x80006050
       43075000	      4306	80005570	3280c137	lui	x2,0x3280c	  x2=0x3280c000
       43085000	      4307	80005574	01e016b3	sll	x13,x0,x30	  x0:0x00000000 x30:0x177da000 x13=0x00000000
       43095000	      4308	80005578	00504463	blt	x0,x5,80005580	  x0:0x00000000  x5:0x00000000
       43105000	      4309	8000557c	019326b3	slt	x13,x6,x25	  x6:0x0000000e x25:0x80006050 x13=0x00000000
       43115000	      4310	80005580	878a8017	auipc	x0,0x878a8	
       43125000	      4311	80005584	00c6dfb3	srl	x31,x13,x12	 x13:0x00000000 x12:0x00000000 x31=0x00000000
       43135000	      4312	80005588	01545793	srli	x15,x8,0x15	  x8:0x80009fc4 x15=0x00000400
       43145000	      4313	8000558c	00c41b33	sll	x22,x8,x12	  x8:0x80009fc4 x12:0x00000000 x22=0x80009fc4
       43155000	      4314	80005590	004a2083	lw	x1,4(x20)	 x20:0x80009f44  x1=0x80000a6c PA:0x80009f48
       43165000	      4315	80005594	40e6d113	srai	x2,x13,0xe	 x13:0x00000000  x2=0x00000000
       43175000	      4316	80005598	020a0a13	addi	x20,x20,32	 x20:0x80009f44 x20=0x80009f64
       43185000	      4317	8000559c	0034bc33	sltu	x24,x9,x3	  x9:0x18db4000  x3:0xfff1f9fe x24=0x00000001
       43195000	      4318	800055a0	74a9ae93	slti	x29,x19,1866	 x19:0x00000001 x29=0x00000001
       43205000	      4319	800055a4	0174deb3	srl	x29,x9,x23	  x9:0x18db4000 x23:0x00000001 x29=0x0c6da000
       43215000	      4320	800055a8	00108693	addi	x13,x1,1	  x1:0x80000a6c x13=0x80000a6d
       43225000	      4321	800055ac	000686e7	jalr	x13,x13,0	 x13:0x80000a6d x13=0x800055ac
       43235000	      4322	00000000	00000013	addi	x0,x0,0	  x0:0x00000000
       43245000	      4323	80000a6c	00000013	addi	x0,x0,0	  x0:0x00000000
       43255000	      4324	80000a70	010f08b3	add	x17,x30,x16	 x30:0x177da000 x16:0x5864b000 x17=0x6fe25000
       43265000	      4325	80000a74	003488b3	add	x17,x9,x3	  x9:0x18db4000  x3:0xfff1f9fe x17=0x18cd39fe
       43275000	      4326	80000a78	00eabcb3	sltu	x25,x21,x14	 x21:0xb1b68000 x14:0x8a43c551 x25=0x00000000
       43285000	      4327	80000a7c	0fae8463	beq	x29,x26,80000b64	 x29:0x0c6da000 x26:0xd6b3c000
       43295000	      4328	80000a80	014da233	slt	x4,x27,x20	 x27:0xfff1d9fe x20:0x80009f64  x4=0x00000000
       43305000	      4329	80000a84	00000013	addi	x0,x0,0	  x0:0x00000000
       43315000	      4330	80000a88	0dc7f863	bgeu	x15,x28,80000b58	 x15:0x00000400 x28:0x80009d80
       43325000	      4331	80000a8c	00e30e63	beq	x6,x14,80000aa8	  x6:0x0000000e x14:0x8a43c551
       43335000	      4332	80000a90	4ede3993	sltiu	x19,x28,1261	 x28:0x80009d80 x19=0x00000000
       43345000	      4333	80000a94	00000013	addi	x0,x0,0	  x0:0x00000000
       43355000	      4334	80000a98	0080e233	or	x4,x1,x8	  x1:0x80000a6c  x8:0x80009fc4  x4=0x80009fec
       43365000	      4335	80000a9c	1285c213	xori	x4,x11,296	 x11:0xf08f1200  x4=0xf08f1328
       43375000	      4336	80000aa0	f88b6293	ori	x5,x22,-120	 x22:0x80009fc4  x5=0xffffffcc
       43385000	      4337	80000aa4	0c7cda63	bge	x25,x7,80000b78	 x25:0x00000000  x7:0xcf0db001
       43395000	      4338	00000000	00000013	addi	x0,x0,0	  x0:0x00000000
       43405000	      4339	80000b74	00000013	addi	x0,x0,0	  x0:0x00000000
       43415000	      4340	80000b78	fbcc0b93	addi	x23,x24,-68	 x24:0x00000001 x23=0xffffffbd
       43425000	      4341	80000b7c	29ab0d93	addi	x27,x22,666	 x22:0x80009fc4 x27=0x8000a25e
       43435000	      4342	80000b80	00000013	addi	x0,x0,0	  x0:0x00000000
       43445000	      4343	80000b84	138e0393	addi	x7,x28,312	 x28:0x80009d80  x7=0x80009eb8
       43455000	      4344	80000b88	52546493	ori	x9,x8,1317	  x8:0x80009fc4  x9=0x80009fe5
       43465000	      4345	80000b8c	021de863	bltu	x27,x1,80000bbc	 x27:0x8000a25e  x1:0x80000a6c
       43475000	      4346	80000b90	040f4263	blt	x30,x0,80000bd4	 x30:0x177da000  x0:0x00000000
       43485000	      4347	80000b94	e48f4613	xori	x12,x30,-440	 x30:0x177da000 x12=0xe8825e48
       43495000	      4348	80000b98	f1288193	addi	x3,x17,-238	 x17:0x18cd39fe  x3=0x18cd3910
       43505000	      4349	80000b9c	01ed34b3	sltu	x9,x26,x30	 x26:0xd6b3c000 x30:0x177da000  x9=0x00000000
       43515000	      4350	80000ba0	4ddd8e13	addi	x28,x27,1245	 x27:0x8000a25e x28=0x8000a73b
       43525000	      4351	80000ba4	01227b33	and	x22,x4,x18	  x4:0xf08f1328 x18:0x00000000 x22=0x00000000
       43535000	      4352	80000ba8	0187b6b3	sltu	x13,x15,x24	 x15:0x00000400 x24:0x00000001 x13=0x00000000
       43545000	      4353	80000bac	bf1de493	ori	x9,x27,-1039	 x27:0x8000a25e  x9=0xfffffbff
       43555000	      4354	80000bb0	006bc6b3	xor	x13,x23,x6	 x23:0xffffffbd  x6:0x0000000e x13=0xffffffb3
       43565000	      4355	80000bb4	013a5113	srli	x2,x20,0x13	 x20:0x80009f64  x2=0x00001000
       43575000	      4356	80000bb8	0555bf93	sltiu	x31,x11,85	 x11:0xf08f1200 x31=0x00000000
       43585000	      4357	80000bbc	350f7193	andi	x3,x30,848	 x30:0x177da000  x3=0x00000000
       43595000	      4358	80000bc0	03945e63	bge	x8,x25,80000bfc	  x8:0x80009fc4 x25:0x00000000
       43605000	      4359	80000bc4	011dcab3	xor	x21,x27,x17	 x27:0x8000a25e x17:0x18cd39fe x21=0x98cd9ba0
       43615000	      4360	80000bc8	3e99af93	slti	x31,x19,1001	 x19:0x00000000 x31=0x00000001
       43625000	      4361	80000bcc	04b47863	bgeu	x8,x11,80000c1c	  x8:0x80009fc4 x11:0xf08f1200
       43635000	      4362	80000bd0	00284263	blt	x16,x2,80000bd4	 x16:0x5864b000  x2:0x00001000
       43645000	      4363	80000bd4	19d92493	slti	x9,x18,413	 x18:0x00000000  x9=0x00000001
       43655000	      4364	80000bd8	01c57663	bgeu	x10,x28,80000be4	 x10:0xcb31d020 x28:0x8000a73b
       43665000	      4365	00000000	00000013	addi	x0,x0,0	  x0:0x00000000
       43675000	      4366	80000be0	00000013	addi	x0,x0,0	  x0:0x00000000
       43685000	      4367	80000be4	012465b3	or	x11,x8,x18	  x8:0x80009fc4 x18:0x00000000 x11=0x80009fc4
       43695000	      4368	80000be8	0074bcb3	sltu	x25,x9,x7	  x9:0x00000001  x7:0x80009eb8 x25=0x00000001
       43705000	      4369	80000bec	2780b4b7	lui	x9,0x2780b	  x9=0x2780b000
       43715000	      4370	80000bf0	018d9613	slli	x12,x27,0x18	 x27:0x8000a25e x12=0x5e000000
       43725000	      4371	80000bf4	db680c93	addi	x25,x16,-586	 x16:0x5864b000 x25=0x5864adb6
       43735000	      4372	80000bf8	4dc78813	addi	x16,x15,1244	 x15:0x00000400 x16=0x000008dc
       43745000	      4373	80000bfc	40ed8b33	sub	x22,x27,x14	 x27:0x8000a25e x14:0x8a43c551 x22=0xf5bcdd0d
       43755000	      4374	80000c00	039f0263	beq	x30,x25,80000c24	 x30:0x177da000 x25:0x5864adb6
       43765000	      4375	80000c04	62816c13	ori	x24,x2,1576	  x2:0x00001000 x24=0x00001628
       43775000	      4376	80000c08	01eae463	bltu	x21,x30,80000c10	 x21:0x98cd9ba0 x30:0x177da000
       43785000	      4377	80000c0c	00e156b3	srl	x13,x2,x14	  x2:0x00001000 x14:0x8a43c551 x13=0x00000000
       43795000	      4378	80000c10	010af633	and	x12,x21,x16	 x21:0x98cd9ba0 x16:0x000008dc x12=0x00000880
       43805000	      4379	80000c14	000c7663	bgeu	x24,x0,80000c20	 x24:0x00001628  x0:0x00000000
       43815000	      4380	00000000	00000013	addi	x0,x0,0	  x0:0x00000000
       43825000	      4381	80000c1c	00000013	addi	x0,x0,0	  x0:0x00000000
       43835000	      4382	80000c20	dd5c7793	andi	x15,x24,-555	 x24:0x00001628 x15=0x00001400
       43845000	      4383	80000c24	323c7037	lui	x0,0x323c7	
       43855000	      4384	80000c28	014b3fb3	sltu	x31,x22,x20	 x22:0xf5bcdd0d x20:0x80009f64 x31=0x00000000
       43865000	      4385	80000c2c	d9a4d037	lui	x0,0xd9a4d	
       43875000	      4386	80000c30	0563c063	blt	x7,x22,80000c70	  x7:0x80009eb8 x22:0xf5bcdd0d
       43885000	      4387	00000000	00000013	addi	x0,x0,0	  x0:0x00000000
       43895000	      4388	80000c6c	00000013	addi	x0,x0,0	  x0:0x00000000
       43905000	      4389	80000c70	8a084493	xori	x9,x16,-1888	 x16:0x000008dc  x9=0xfffff07c
       43915000	      4390	80000c74	40515713	srai	x14,x2,0x5	  x2:0x00001000 x14=0x00000080
       43925000	      4391	80000c78	40d7d733	sra	x14,x15,x13	 x15:0x00001400 x13:0x00000000 x14=0x00001400
       43935000	      4392	80000c7c	05fb5263	bge	x22,x31,80000cc0	 x22:0xf5bcdd0d x31:0x00000000
       43945000	      4393	80000c80	01f6d0b3	srl	x1,x13,x31	 x13:0x00000000 x31:0x00000000  x1=0x00000000
       43955000	      4394	80000c84	00000013	addi	x0,x0,0	  x0:0x00000000
       43965000	      4395	80000c88	05c01863	bne	x0,x28,80000cd8	  x0:0x00000000 x28:0x8000a73b
       43975000	      4396	00000000	00000013	addi	x0,x0,0	  x0:0x00000000
       43985000	      4397	80000cd4	00000013	addi	x0,x0,0	  x0:0x00000000
       43995000	      4398	80000cd8	002ffe33	and	x28,x31,x2	 x31:0x00000000  x2:0x00001000 x28=0x00000000
       44005000	      4399	80000cdc	36dc3293	sltiu	x5,x24,877	 x24:0x00001628  x5=0x00000000
       44015000	      4400	80000ce0	d4e6ac17	auipc	x24,0xd4e6a	 x24=0x54e6acdc
       44025000	      4401	80000ce4	03ddfc63	bgeu	x27,x29,80000d1c	 x27:0x8000a25e x29:0x0c6da000
       44035000	      4402	00000000	00000013	addi	x0,x0,0	  x0:0x00000000
       44045000	      4403	80000d18	00000013	addi	x0,x0,0	  x0:0x00000000
       44055000	      4404	80000d1c	0a203a97	auipc	x21,0xa203	 x21=0x8a203d18
       44065000	      4405	80000d20	60ae1b97	auipc	x23,0x60ae1	 x23=0xe0ae1d1c
       44075000	      4406	80000d24	406a5d13	srai	x26,x20,0x6	 x20:0x80009f64 x26=0xfe00027d
       44085000	      4407	80000d28	05e1c117	auipc	x2,0x5e1c	  x2=0x85e1cd24
       44095000	      4408	80000d2c	000e9133	sll	x2,x29,x0	 x29:0x0c6da000  x0:0x00000000  x2=0x0c6da000
       44105000	      4409	80000d30	007159b3	srl	x19,x2,x7	  x2:0x0c6da000  x7:0x80009eb8 x19=0x0000000c
       44115000	      4410	80000d34	03bee863	bltu	x29,x27,80000d64	 x29:0x0c6da000 x27:0x8000a25e
       44125000	      4411	00000000	00000013	addi	x0,x0,0	  x0:0x00000000
       44135000	      4412	80000d60	00000013	addi	x0,x0,0	  x0:0x00000000
       44145000	      4413	80000d64	039f8263	beq	x31,x25,80000d88	 x31:0x00000000 x25:0x5864adb6
       44155000	      4414	80000d68	04384063	blt	x16,x3,80000da8	 x16:0x000008dc  x3:0x00000000
       44165000	      4415	80000d6c	40a55b33	sra	x22,x10,x10	 x10:0xcb31d020 x10:0xcb31d020 x22=0xcb31d020
       44175000	      4416	80000d70	01dc20b3	slt	x1,x24,x29	 x24:0x54e6acdc x29:0x0c6da000  x1=0x00000000
       44185000	      4417	80000d74	abe7e693	ori	x13,x15,-1346	 x15:0x00001400 x13=0xfffffebe
       44195000	      4418	80000d78	41bed933	sra	x18,x29,x27	 x29:0x0c6da000 x27:0x8000a25e x18=0x00000000
       44205000	      4419	80000d7c	01df9663	bne	x31,x29,80000d88	 x31:0x00000000 x29:0x0c6da000
       44215000	      4420	00000000	00000013	addi	x0,x0,0	  x0:0x00000000
       44225000	      4421	80000d84	00000013	addi	x0,x0,0	  x0:0x00000000
       44235000	      4422	80000d88	02531863	bne	x6,x5,80000db8	  x6:0x0000000e  x5:0x00000000
       44245000	      4423	00000000	00000013	addi	x0,x0,0	  x0:0x00000000
       44255000	      4424	80000db4	00000013	addi	x0,x0,0	  x0:0x00000000
       44265000	      4425	80000db8	02085a63	bge	x16,x0,80000dec	 x16:0x000008dc  x0:0x00000000
       44275000	      4426	00000000	00000013	addi	x0,x0,0	  x0:0x00000000
       44285000	      4427	80000de8	00000013	addi	x0,x0,0	  x0:0x00000000
       44295000	      4428	80000dec	03e2f263	bgeu	x5,x30,80000e10	  x5:0x00000000 x30:0x177da000
       44305000	      4429	80000df0	40365813	srai	x16,x12,0x3	 x12:0x00000880 x16=0x00000110
       44315000	      4430	80000df4	05c5e863	bltu	x11,x28,80000e44	 x11:0x80009fc4 x28:0x00000000
       44325000	      4431	80000df8	014f68b3	or	x17,x30,x20	 x30:0x177da000 x20:0x80009f64 x17=0x977dbf64
       44335000	      4432	80000dfc	00da0863	beq	x20,x13,80000e0c	 x20:0x80009f64 x13:0xfffffebe
       44345000	      4433	80000e00	00d19793	slli	x15,x3,0xd	  x3:0x00000000 x15=0x00000000
       44355000	      4434	80000e04	038afe63	bgeu	x21,x24,80000e40	 x21:0x8a203d18 x24:0x54e6acdc
       44365000	      4435	00000000	00000013	addi	x0,x0,0	  x0:0x00000000
       44375000	      4436	80000e3c	00000013	addi	x0,x0,0	  x0:0x00000000
       44385000	      4437	80000e40	31d06013	ori	x0,x0,797	  x0:0x00000000
       44395000	      4438	80000e44	40945793	srai	x15,x8,0x9	  x8:0x80009fc4 x15=0xffc0004f
       44405000	      4439	80000e48	3b697013	andi	x0,x18,950	 x18:0x00000000
       44415000	      4440	80000e4c	035c4863	blt	x24,x21,80000e7c	 x24:0x54e6acdc x21:0x8a203d18
       44425000	      4441	80000e50	0120c263	blt	x1,x18,80000e54	  x1:0x00000000 x18:0x00000000
       44435000	      4442	80000e54	4023d793	srai	x15,x7,0x2	  x7:0x80009eb8 x15=0xe00027ae
       44445000	      4443	80000e58	0048fab3	and	x21,x17,x4	 x17:0x977dbf64  x4:0xf08f1328 x21=0x900d1320
       44455000	      4444	80000e5c	4104d913	srai	x18,x9,0x10	  x9:0xfffff07c x18=0xffffffff
       44465000	      4445	80000e60	003581b3	add	x3,x11,x3	 x11:0x80009fc4  x3:0x00000000  x3=0x80009fc4
       44475000	      4446	80000e64	4072d933	sra	x18,x5,x7	  x5:0x00000000  x7:0x80009eb8 x18=0x00000000
       44485000	      4447	80000e68	05c27863	bgeu	x4,x28,80000eb8	  x4:0xf08f1328 x28:0x00000000
       44495000	      4448	00000000	00000013	addi	x0,x0,0	  x0:0x00000000
       44505000	      4449	80000eb4	00000013	addi	x0,x0,0	  x0:0x00000000
       44515000	      4450	80000eb8	40755893	srai	x17,x10,0x7	 x10:0xcb31d020 x17=0xff9663a0
       44525000	      4451	80000ebc	0092f463	bgeu	x5,x9,80000ec4	  x5:0x00000000  x9:0xfffff07c
       44535000	      4452	80000ec0	580d8f97	auipc	x31,0x580d8	 x31=0xd80d8ebc
       44545000	      4453	80000ec4	40ab82b3	sub	x5,x23,x10	 x23:0xe0ae1d1c x10:0xcb31d020  x5=0x157c4cfc
       44555000	      4454	80000ec8	00180e63	beq	x16,x1,80000ee4	 x16:0x00000110  x1:0x00000000
       44565000	      4455	80000ecc	05a50063	beq	x10,x26,80000f0c	 x10:0xcb31d020 x26:0xfe00027d
       44575000	      4456	80000ed0	20718013	addi	x0,x3,519	  x3:0x80009fc4
       44585000	      4457	80000ed4	4ae784b7	lui	x9,0x4ae78	  x9=0x4ae78000
       44595000	      4458	80000ed8	d9228093	addi	x1,x5,-622	  x5:0x157c4cfc  x1=0x157c4a8e
       44605000	      4459	80000edc	01f44663	blt	x8,x31,80000ee8	  x8:0x80009fc4 x31:0xd80d8ebc
       44615000	      4460	00000000	00000013	addi	x0,x0,0	  x0:0x00000000
       44625000	      4461	80000ee4	00000013	addi	x0,x0,0	  x0:0x00000000
       44635000	      4462	80000ee8	55bb4113	xori	x2,x22,1371	 x22:0xcb31d020  x2=0xcb31d57b
       44645000	      4463	80000eec	00488733	add	x14,x17,x4	 x17:0xff9663a0  x4:0xf08f1328 x14=0xf02576c8
       44655000	      4464	80000ef0	079b41b7	lui	x3,0x79b4	  x3=0x079b4000
       44665000	      4465	80000ef4	0020d633	srl	x12,x1,x2	  x1:0x157c4a8e  x2:0xcb31d57b x12=0x00000002
       44675000	      4466	80000ef8	0558e063	bltu	x17,x21,80000f38	 x17:0xff9663a0 x21:0x900d1320
       44685000	      4467	80000efc	001130b3	sltu	x1,x2,x1	  x2:0xcb31d57b  x1:0x157c4a8e  x1=0x00000000
       44695000	      4468	80000f00	00000013	addi	x0,x0,0	  x0:0x00000000
       44705000	      4469	80000f04	01336663	bltu	x6,x19,80000f10	  x6:0x0000000e x19:0x0000000c
       44715000	      4470	80000f08	00b53833	sltu	x16,x10,x11	 x10:0xcb31d020 x11:0x80009fc4 x16=0x00000000
       44725000	      4471	80000f0c	00899193	slli	x3,x19,0x8	 x19:0x0000000c  x3=0x00000c00
       44735000	      4472	80000f10	020fee63	bltu	x31,x0,80000f4c	 x31:0xd80d8ebc  x0:0x00000000
       44745000	      4473	80000f14	03185863	bge	x16,x17,80000f44	 x16:0x00000000 x17:0xff9663a0
       44755000	      4474	00000000	00000013	addi	x0,x0,0	  x0:0x00000000
       44765000	      4475	80000f40	00000013	addi	x0,x0,0	  x0:0x00000000
       44775000	      4476	80000f44	d8483d97	auipc	x27,0xd8483	 x27=0x58483f40
       44785000	      4477	80000f48	009ce863	bltu	x25,x9,80000f58	 x25:0x5864adb6  x9:0x4ae78000
       44795000	      4478	80000f4c	21dd2117	auipc	x2,0x21dd2	  x2=0xa1dd2f48
       44805000	      4479	80000f50	01649913	slli	x18,x9,0x16	  x9:0x4ae78000 x18=0x00000000
       44815000	      4480	80000f54	049d5a63	bge	x26,x9,80000fa8	 x26:0xfe00027d  x9:0x4ae78000
       44825000	      4481	80000f58	00000013	addi	x0,x0,0	  x0:0x00000000
       44835000	      4482	80000f5c	011a05b3	add	x11,x20,x17	 x20:0x80009f64 x17:0xff9663a0 x11=0x7f970304
       44845000	      4483	80000f60	00725d93	srli	x27,x4,0x7	  x4:0xf08f1328 x27=0x01e11e26
       44855000	      4484	80000f64	06397663	bgeu	x18,x3,80000fd0	 x18:0x00000000  x3:0x00000c00
       44865000	      4485	80000f68	009f2b33	slt	x22,x30,x9	 x30:0x177da000  x9:0x4ae78000 x22=0x00000001
       44875000	      4486	80000f6c	00a2b4b3	sltu	x9,x5,x10	  x5:0x157c4cfc x10:0xcb31d020  x9=0x00000001
       44885000	      4487	80000f70	017d0793	addi	x15,x26,23	 x26:0xfe00027d x15=0xfe000294
       44895000	      4488	80000f74	964ae113	ori	x2,x21,-1692	 x21:0x900d1320  x2=0xfffffb64
       44905000	      4489	80000f78	ec1eff13	andi	x30,x29,-319	 x29:0x0c6da000 x30=0x0c6da000
       44915000	      4490	80000f7c	27e86693	ori	x13,x16,638	 x16:0x00000000 x13=0x0000027e
       44925000	      4491	80000f80	001a2e33	slt	x28,x20,x1	 x20:0x80009f64  x1:0x00000000 x28=0x00000001
       44935000	      4492	80000f84	00f63fb3	sltu	x31,x12,x15	 x12:0x00000002 x15:0xfe000294 x31=0x00000001
       44945000	      4493	80000f88	b64e4a93	xori	x21,x28,-1180	 x28:0x00000001 x21=0xfffffb65
       44955000	      4494	80000f8c	b44ff0ef	jal	x1,80000f8c	  x1=0x80000f8c
       44965000	      4495	00000000	00000013	addi	x0,x0,0	  x0:0x00000000
       44975000	      4496	800002cc	00000013	addi	x0,x0,0	  x0:0x00000000
       44985000	      4497	800002d0	40000eb3	sub	x29,x0,x0	  x0:0x00000000  x0:0x00000000 x29=0x00000000
       44995000	      4498	800002d4	01154263	blt	x10,x17,800002d8	 x10:0xcb31d020 x17:0xff9663a0
       45005000	      4499	00000000	00000013	addi	x0,x0,0	  x0:0x00000000
       45015000	      4500	800002d4	00000013	addi	x0,x0,0	  x0:0x00000000
       45025000	      4501	800002d8	fcca0a13	addi	x20,x20,-52	 x20:0x80009f64 x20=0x80009f30
       45035000	      4502	800002dc	422aa017	auipc	x0,0x422aa	
       45045000	      4503	800002e0	001a2223	sw	x1,4(x20)	 x20:0x80009f30  x1:0x80000f8c PA:0x80009f34
       45055000	      4504	800002e4	95e3e293	ori	x5,x7,-1698	  x7:0x80009eb8  x5=0xfffffffe
       45065000	      4505	800002e8	01471733	sll	x14,x14,x20	 x14:0xf02576c8 x20:0x80009f30 x14=0x76c80000
       45075000	      4506	800002ec	7aa1ac13	slti	x24,x3,1962	  x3:0x00000c00 x24=0x00000000
       45085000	      4507	800002f0	01f03133	sltu	x2,x0,x31	  x0:0x00000000 x31:0x00000001  x2=0x00000001
       45095000	      4508	800002f4	014d9663	bne	x27,x20,80000300	 x27:0x01e11e26 x20:0x80009f30
       45105000	      4509	00000000	00000013	addi	x0,x0,0	  x0:0x00000000
       45115000	      4510	800002fc	00000013	addi	x0,x0,0	  x0:0x00000000
       45125000	      4511	80000300	07064263	blt	x12,x16,80000364	 x12:0x00000002 x16:0x00000000
       45135000	      4512	80000304	00000013	addi	x0,x0,0	  x0:0x00000000
       45145000	      4513	80000308	00a030b3	sltu	x1,x0,x10	  x0:0x00000000 x10:0xcb31d020  x1=0x00000001
       45155000	      4514	8000030c	00d01013	slli	x0,x0,0xd	  x0:0x00000000
       45165000	      4515	80000310	00f09093	slli	x1,x1,0xf	  x1:0x00000001  x1=0x00008000
       45175000	      4516	80000314	d4f8a297	auipc	x5,0xd4f8a	  x5=0x54f8a310
       45185000	      4517	80000318	00000013	addi	x0,x0,0	  x0:0x00000000
       45195000	      4518	8000031c	41a58fb3	sub	x31,x11,x26	 x11:0x7f970304 x26:0xfe00027d x31=0x81970087
       45205000	      4519	80000320	773b6213	ori	x4,x22,1907	 x22:0x00000001  x4=0x00000773
       45215000	      4520	80000324	0168c663	blt	x17,x22,80000330	 x17:0xff9663a0 x22:0x00000001
       45225000	      4521	00000000	00000013	addi	x0,x0,0	  x0:0x00000000
       45235000	      4522	8000032c	00000013	addi	x0,x0,0	  x0:0x00000000
       45245000	      4523	80000330	329ab893	sltiu	x17,x21,809	 x21:0xfffffb65 x17=0x00000000
       45255000	      4524	80000334	407959b3	sra	x19,x18,x7	 x18:0x00000000  x7:0x80009eb8 x19=0x00000000
       45265000	      4525	80000338	01861e63	bne	x12,x24,80000354	 x12:0x00000002 x24:0x00000000
       45275000	      4526	00000000	00000013	addi	x0,x0,0	  x0:0x00000000
       45285000	      4527	80000350	00000013	addi	x0,x0,0	  x0:0x00000000
       45295000	      4528	80000354	195050ef	jal	x1,80000354	  x1=0x80000354
       45305000	      4529	00000000	00000013	addi	x0,x0,0	  x0:0x00000000
       45315000	      4530	80005ce4	00000013	addi	x0,x0,0	  x0:0x00000000
       45325000	      4531	80005ce8	41f3d593	srai	x11,x7,0x1f	  x7:0x80009eb8 x11=0xffffffff
       45335000	      4532	80005cec	fc0a0a13	addi	x20,x20,-64	 x20:0x80009f30 x20=0x80009ef0
       45345000	      4533	80005cf0	9cb42217	auipc	x4,0x9cb42	  x4=0x1cb47cec
       45355000	      4534	80005cf4	001a2223	sw	x1,4(x20)	 x20:0x80009ef0  x1:0x80000354 PA:0x80009ef4
       45365000	      4535	80005cf8	00b51833	sll	x16,x10,x11	 x10:0xcb31d020 x11:0xffffffff x16=0x00000000
       45375000	      4536	80005cfc	419f5db3	sra	x27,x30,x25	 x30:0x0c6da000 x25:0x5864adb6 x27=0x00000031
       45385000	      4537	80005d00	002114b3	sll	x9,x2,x2	  x2:0x00000001  x2:0x00000001  x9=0x00000002
       45395000	      4538	80005d04	9ba08737	lui	x14,0x9ba08	 x14=0x9ba08000
       45405000	      4539	80005d08	a35bae13	slti	x28,x23,-1483	 x23:0xe0ae1d1c x28=0x00000001
       45415000	      4540	80005d0c	0087f3b3	and	x7,x15,x8	 x15:0xfe000294  x8:0x80009fc4  x7=0x80000284
       45425000	      4541	80005d10	eb5f7913	andi	x18,x30,-331	 x30:0x0c6da000 x18=0x0c6da000
       45435000	      4542	80005d14	00bb9e33	sll	x28,x23,x11	 x23:0xe0ae1d1c x11:0xffffffff x28=0x00000000
       45445000	      4543	80005d18	0136fc63	bgeu	x13,x19,80005d30	 x13:0x0000027e x19:0x00000000
       45455000	      4544	00000000	00000013	addi	x0,x0,0	  x0:0x00000000
       45465000	      4545	80005d2c	00000013	addi	x0,x0,0	  x0:0x00000000
       45475000	      4546	80005d30	881ff0ef	jal	x1,80005d30	  x1=0x80005d30
       45485000	      4547	00000000	00000013	addi	x0,x0,0	  x0:0x00000000
       45495000	      4548	800055ac	00000013	addi	x0,x0,0	  x0:0x00000000
       45505000	      4549	800055b0	c8a0e213	ori	x4,x1,-886	  x1:0x80005d30  x4=0xfffffdba
       45515000	      4550	800055b4	615b0b13	addi	x22,x22,1557	 x22:0x00000001 x22=0x00000616
       45525000	      4551	800055b8	011b8eb3	add	x29,x23,x17	 x23:0xe0ae1d1c x17:0x00000000 x29=0xe0ae1d1c
       45535000	      4552	800055bc	015369b3	or	x19,x6,x21	  x6:0x0000000e x21:0xfffffb65 x19=0xfffffb6f
       45545000	      4553	800055c0	fc0a0a13	addi	x20,x20,-64	 x20:0x80009ef0 x20=0x80009eb0
       45555000	      4554	800055c4	001a2223	sw	x1,4(x20)	 x20:0x80009eb0  x1:0x80005d30 PA:0x80009eb4
       45565000	      4555	800055c8	01ffe6b3	or	x13,x31,x31	 x31:0x81970087 x31:0x81970087 x13=0x81970087
       45575000	      4556	800055cc	01ca7d33	and	x26,x20,x28	 x20:0x80009eb0 x28:0x00000000 x26=0x00000000
       45585000	      4557	800055d0	00003b17	auipc	x22,0x3	 x22=0x800085cc
       45595000	      4558	800055d4	f8cb0b13	addi	x22,x22,-116	 x22:0x800085cc x22=0x80008558
       45605000	      4559	800055d8	8a404793	xori	x15,x0,-1884	  x0:0x00000000 x15=0xfffff8a4
       45615000	      4560	800055dc	002a7033	and	x0,x20,x2	 x20:0x80009eb0  x2:0x00000001
       45625000	      4561	800055e0	fd5b4903	lbu	x18,-43(x22)	 x22:0x80008558 x18=0x000000e6 PA:0x8000852d
       45635000	      4562	800055e4	f21b0f23	sb	x1,-194(x22)	 x22:0x80008558  x1:0x80005d30 PA:0x80008496
       45645000	      4563	800055e8	02eb0483	lb	x9,46(x22)	 x22:0x80008558  x9=0x0000003d PA:0x80008586
       45655000	      4564	800055ec	f6db4d03	lbu	x26,-147(x22)	 x22:0x80008558 x26=0x0000007e PA:0x800084c5
       45665000	      4565	800055f0	01e63e33	sltu	x28,x12,x30	 x12:0x00000002 x30:0x0c6da000 x28=0x00000001
       45675000	      4566	800055f4	0037e7b3	or	x15,x15,x3	 x15:0xfffff8a4  x3:0x00000c00 x15=0xfffffca4
       45685000	      4567	800055f8	a89ac813	xori	x16,x21,-1399	 x21:0xfffffb65 x16=0x000001ec
       45695000	      4568	800055fc	1851e093	ori	x1,x3,389	  x3:0x00000c00  x1=0x00000d85
       45705000	      4569	80005600	00db0703	lb	x14,13(x22)	 x22:0x80008558 x14=0x0000001e PA:0x80008565
       45715000	      4570	80005604	01ae93b3	sll	x7,x29,x26	 x29:0xe0ae1d1c x26:0x0000007e  x7=0x00000000
       45725000	      4571	80005608	099b4483	lbu	x9,153(x22)	 x22:0x80008558  x9=0x000000aa PA:0x800085f1
       45735000	      4572	8000560c	0fbb0d03	lb	x26,251(x22)	 x22:0x80008558 x26=0x00000008 PA:0x80008653
       45745000	      4573	80005610	f86b5e83	lhu	x29,-122(x22)	 x22:0x80008558 x29=0x00009495 PA:0x800084de
       45755000	      4574	80005614	feab4803	lbu	x16,-22(x22)	 x22:0x80008558 x16=0x0000002a PA:0x80008542
       45765000	      4575	80005618	007d4d33	xor	x26,x26,x7	 x26:0x00000008  x7:0x00000000 x26=0x00000008
       45775000	      4576	8000561c	0a3b0023	sb	x3,160(x22)	 x22:0x80008558  x3:0x00000c00 PA:0x800085f8
       45785000	      4577	80005620	00000013	addi	x0,x0,0	  x0:0x00000000
       45795000	      4578	80005624	f49b4383	lbu	x7,-183(x22)	 x22:0x80008558  x7=0x0000005a PA:0x800084a1
       45805000	      4579	80005628	01150733	add	x14,x10,x17	 x10:0xcb31d020 x17:0x00000000 x14=0xcb31d020
       45815000	      4580	8000562c	f8cb0b83	lb	x23,-116(x22)	 x22:0x80008558 x23=0x00000079 PA:0x800084e4
       45825000	      4581	80005630	00dfedb3	or	x27,x31,x13	 x31:0x81970087 x13:0x81970087 x27=0x81970087
       45835000	      4582	80005634	00650f33	add	x30,x10,x6	 x10:0xcb31d020  x6:0x0000000e x30=0xcb31d02e
       45845000	      4583	80005638	0afb4083	lbu	x1,175(x22)	 x22:0x80008558  x1=0x000000bc PA:0x80008607
       45855000	      4584	8000563c	079b05a3	sb	x25,107(x22)	 x22:0x80008558 x25:0x5864adb6 PA:0x800085c3
       45865000	      4585	80005640	af51ad93	slti	x27,x3,-1291	  x3:0x00000c00 x27=0x00000000
       45875000	      4586	80005644	11cd6193	ori	x3,x26,284	 x26:0x00000008  x3=0x0000011c
       45885000	      4587	80005648	418ed3b3	sra	x7,x29,x24	 x29:0x00009495 x24:0x00000000  x7=0x00009495
       45895000	      4588	8000564c	041b4483	lbu	x9,65(x22)	 x22:0x80008558  x9=0x00000052 PA:0x80008599
       45905000	      4589	80005650	0c4b0aa3	sb	x4,213(x22)	 x22:0x80008558  x4:0xfffffdba PA:0x8000862d
       45915000	      4590	80005654	064b0da3	sb	x4,123(x22)	 x22:0x80008558  x4:0xfffffdba PA:0x800085d3
       45925000	      4591	80005658	f75b4483	lbu	x9,-139(x22)	 x22:0x80008558  x9=0x00000086 PA:0x800084cd
       45935000	      4592	00000000	00000013	addi	x0,x0,0	  x0:0x00000000
       45945000	      4593	8000565c	0c9b4f83	lbu	x31,201(x22)	 x22:0x80008558 x31=0x000000da PA:0x80008621
       45955000	      4594	80005660	018d2033	slt	x0,x26,x24	 x26:0x00000008 x24:0x00000000
       45965000	      4595	80005664	71a56813	ori	x16,x10,1818	 x10:0xcb31d020 x16=0xcb31d73a
       45975000	      4596	80005668	f19b0f03	lb	x30,-231(x22)	 x22:0x80008558 x30=0x0000002a PA:0x80008471
       45985000	      4597	00000000	00000013	addi	x0,x0,0	  x0:0x00000000
       45995000	      4598	8000566c	ffeb0523	sb	x30,-22(x22)	 x22:0x80008558 x30:0x0000002a PA:0x80008542
       46005000	      4599	80005670	015b4983	lbu	x19,21(x22)	 x22:0x80008558 x19=0x00000026 PA:0x8000856d
       46015000	      4600	80005674	01d5d613	srli	x12,x11,0x1d	 x11:0xffffffff x12=0x00000007
       46025000	      4601	80005678	f09b4583	lbu	x11,-247(x22)	 x22:0x80008558 x11=0x0000001a PA:0x80008461
       46035000	      4602	8000567c	023b0503	lb	x10,35(x22)	 x22:0x80008558 x10=0x00000030 PA:0x8000857b
       46045000	      4603	80005680	350f8793	addi	x15,x31,848	 x31:0x000000da x15=0x0000042a
       46055000	      4604	80005684	3a6fe937	lui	x18,0x3a6fe	 x18=0x3a6fe000
       46065000	      4605	80005688	f47b0103	lb	x2,-185(x22)	 x22:0x80008558  x2=0x00000054 PA:0x8000849f
       46075000	      4606	8000568c	00003117	auipc	x2,0x3	  x2=0x80008688
       46085000	      4607	80005690	0c310113	addi	x2,x2,195	  x2:0x80008688  x2=0x8000874b
       46095000	      4608	80005694	645c2693	slti	x13,x24,1605	 x24:0x00000000 x13=0x00000001
       46105000	      4609	80005698	fe110f23	sb	x1,-2(x2)	  x2:0x8000874b  x1:0x000000bc PA:0x80008749
       46115000	      4610	8000569c	ffd10ca3	sb	x29,-7(x2)	  x2:0x8000874b x29:0x00009495 PA:0x80008744
       46125000	      4611	800056a0	01f10823	sb	x31,16(x2)	  x2:0x8000874b x31:0x000000da PA:0x8000875b
       46135000	      4612	800056a4	00214c03	lbu	x24,2(x2)	  x2:0x8000874b x24=0x00000006 PA:0x8000874d
       46145000	      4613	800056a8	01e67b33	and	x22,x12,x30	 x12:0x00000007 x30:0x0000002a x22=0x00000002
       46155000	      4614	800056ac	00410c03	lb	x24,4(x2)	  x2:0x8000874b x24=0x00000004 PA:0x8000874f
       46165000	      4615	800056b0	016106a3	sb	x22,13(x2)	  x2:0x8000874b x22:0x00000002 PA:0x80008758
       46175000	      4616	800056b4	ffe10b23	sb	x30,-10(x2)	  x2:0x8000874b x30:0x0000002a PA:0x80008741
       46185000	      4617	800056b8	1fc8ad93	slti	x27,x17,508	 x17:0x00000000 x27=0x00000001
       46195000	      4618	800056bc	41998933	sub	x18,x19,x25	 x19:0x00000026 x25:0x5864adb6 x18=0xa79b5270
       46205000	      4619	800056c0	fea10fa3	sb	x10,-1(x2)	  x2:0x8000874b x10:0x00000030 PA:0x8000874a
       46215000	      4620	800056c4	00110183	lb	x3,1(x2)	  x2:0x8000874b  x3=0x00000007 PA:0x8000874c
       46225000	      4621	800056c8	0169d213	srli	x4,x19,0x16	 x19:0x00000026  x4=0x00000000
       46235000	      4622	800056cc	c7353d17	auipc	x26,0xc7353	 x26=0x473586c8
       46245000	      4623	800056d0	00d14683	lbu	x13,13(x2)	  x2:0x8000874b x13=0x00000002 PA:0x80008758
       46255000	      4624	800056d4	00014b83	lbu	x23,0(x2)	  x2:0x8000874b x23=0x00000000 PA:0x8000874b
       46265000	      4625	800056d8	00210383	lb	x7,2(x2)	  x2:0x8000874b  x7=0x00000006 PA:0x8000874d
       46275000	      4626	800056dc	ff010703	lb	x14,-16(x2)	  x2:0x8000874b x14=0xfffffff0 PA:0x8000873b
       46285000	      4627	800056e0	fe1108a3	sb	x1,-15(x2)	  x2:0x8000874b  x1:0x000000bc PA:0x8000873c
       46295000	      4628	800056e4	ff115283	lhu	x5,-15(x2)	  x2:0x8000874b  x5=0x0000f6bc PA:0x8000873c
       46305000	      4629	800056e8	018f9713	slli	x14,x31,0x18	 x31:0x000000da x14=0xda000000
       46315000	      4630	800056ec	012aa1b3	slt	x3,x21,x18	 x21:0xfffffb65 x18:0xa79b5270  x3=0x00000000
       46325000	      4631	800056f0	ff610da3	sb	x22,-5(x2)	  x2:0x8000874b x22:0x00000002 PA:0x80008746
       46335000	      4632	800056f4	a0a6a393	slti	x7,x13,-1526	 x13:0x00000002  x7=0x00000000
       46345000	      4633	800056f8	00e10823	sb	x14,16(x2)	  x2:0x8000874b x14:0xda000000 PA:0x8000875b
       46355000	      4634	800056fc	00831733	sll	x14,x6,x8	  x6:0x0000000e  x8:0x80009fc4 x14=0x000000e0
       46365000	      4635	80005700	406e5d13	srai	x26,x28,0x6	 x28:0x00000001 x26=0x00000000
       46375000	      4636	80005704	00ccb6b3	sltu	x13,x25,x12	 x25:0x5864adb6 x12:0x00000007 x13=0x00000000
       46385000	      4637	80005708	0187ad33	slt	x26,x15,x24	 x15:0x0000042a x24:0x00000004 x26=0x00000000
       46395000	      4638	8000570c	ffb11c03	lh	x24,-5(x2)	  x2:0x8000874b x24=0xfffffc02 PA:0x80008746
       46405000	      4639	80005710	5afd6bb7	lui	x23,0x5afd6	 x23=0x5afd6000
       46415000	      4640	80005714	c78ead93	slti	x27,x29,-904	 x29:0x00009495 x27=0x00000000
       46425000	      4641	80005718	00de58b3	srl	x17,x28,x13	 x28:0x00000001 x13:0x00000000 x17=0x00000001
       46435000	      4642	8000571c	00379193	slli	x3,x15,0x3	 x15:0x0000042a  x3=0x00002150
       46445000	      4643	80005720	002fce33	xor	x28,x31,x2	 x31:0x000000da  x2:0x8000874b x28=0x80008791
       46455000	      4644	80005724	02ec6e63	bltu	x24,x14,80005760	 x24:0xfffffc02 x14:0x000000e0
       46465000	      4645	80005728	01cd0663	beq	x26,x28,80005734	 x26:0x00000000 x28:0x80008791
       46475000	      4646	8000572c	71637293	andi	x5,x6,1814	  x6:0x0000000e  x5=0x00000006
       46485000	      4647	80005730	0219f063	bgeu	x19,x1,80005750	 x19:0x00000026  x1:0x000000bc
       46495000	      4648	80005734	028ec863	blt	x29,x8,80005764	 x29:0x00009495  x8:0x80009fc4
       46505000	      4649	80005738	4035d293	srai	x5,x11,0x3	 x11:0x0000001a  x5=0x00000003
       46515000	      4650	8000573c	0039c7b3	xor	x15,x19,x3	 x19:0x00000026  x3:0x00002150 x15=0x00002176
       46525000	      4651	80005740	23d0c613	xori	x12,x1,573	  x1:0x000000bc x12=0x00000281
       46535000	      4652	80005744	02b37863	bgeu	x6,x11,80005774	  x6:0x0000000e x11:0x0000001a
       46545000	      4653	80005748	03775663	bge	x14,x23,80005774	 x14:0x000000e0 x23:0x5afd6000
       46555000	      4654	8000574c	28959cb7	lui	x25,0x28959	 x25=0x28959000
       46565000	      4655	80005750	e9037fb7	lui	x31,0xe9037	 x31=0xe9037000
       46575000	      4656	80005754	5d81e493	ori	x9,x3,1496	  x3:0x00002150  x9=0x000025d8
       46585000	      4657	80005758	0193de63	bge	x7,x25,80005774	  x7:0x00000000 x25:0x28959000
       46595000	      4658	8000575c	418755b3	sra	x11,x14,x24	 x14:0x000000e0 x24:0xfffffc02 x11=0x00000038
       46605000	      4659	80005760	405d85b3	sub	x11,x27,x5	 x27:0x00000000  x5:0x00000003 x11=0xfffffffd
       46615000	      4660	80005764	75554e13	xori	x28,x10,1877	 x10:0x00000030 x28=0x00000765
       46625000	      4661	80005768	003e1863	bne	x28,x3,80005778	 x28:0x00000765  x3:0x00002150
       46635000	      4662	00000000	00000013	addi	x0,x0,0	  x0:0x00000000
       46645000	      4663	80005774	00000013	addi	x0,x0,0	  x0:0x00000000
       46655000	      4664	80005778	05e4d863	bge	x9,x30,800057c8	  x9:0x000025d8 x30:0x0000002a
       46665000	      4665	00000000	00000013	addi	x0,x0,0	  x0:0x00000000
       46675000	      4666	800057c4	00000013	addi	x0,x0,0	  x0:0x00000000
       46685000	      4667	800057c8	511fa913	slti	x18,x31,1297	 x31:0xe9037000 x18=0x00000001
       46695000	      4668	800057cc	00f454b3	srl	x9,x8,x15	  x8:0x80009fc4 x15:0x00002176  x9=0x00000200
       46705000	      4669	800057d0	00d21e63	bne	x4,x13,800057ec	  x4:0x00000000 x13:0x00000000
       46715000	      4670	800057d4	00215663	bge	x2,x2,800057e0	  x2:0x8000874b  x2:0x8000874b
       46725000	      4671	00000000	00000013	addi	x0,x0,0	  x0:0x00000000
       46735000	      4672	800057dc	00000013	addi	x0,x0,0	  x0:0x00000000
       46745000	      4673	800057e0	40c0d013	srai	x0,x1,0xc	  x1:0x000000bc
       46755000	      4674	800057e4	00e15e33	srl	x28,x2,x14	  x2:0x8000874b x14:0x000000e0 x28=0x8000874b
       46765000	      4675	800057e8	01bc7c63	bgeu	x24,x27,80005800	 x24:0xfffffc02 x27:0x00000000
       46775000	      4676	00000000	00000013	addi	x0,x0,0	  x0:0x00000000
       46785000	      4677	800057fc	00000013	addi	x0,x0,0	  x0:0x00000000
       46795000	      4678	80005800	418486b3	sub	x13,x9,x24	  x9:0x00000200 x24:0xfffffc02 x13=0x000005fe
       46805000	      4679	80005804	d77b0993	addi	x19,x22,-649	 x22:0x00000002 x19=0xfffffd79
       46815000	      4680	80005808	01a628b3	slt	x17,x12,x26	 x12:0x00000281 x26:0x00000000 x17=0x00000000
       46825000	      4681	8000580c	00662533	slt	x10,x12,x6	 x12:0x00000281  x6:0x0000000e x10=0x00000000
       46835000	      4682	80005810	00000013	addi	x0,x0,0	  x0:0x00000000
       46845000	      4683	80005814	49646d93	ori	x27,x8,1174	  x8:0x80009fc4 x27=0x80009fd6
       46855000	      4684	80005818	00d21663	bne	x4,x13,80005824	  x4:0x00000000 x13:0x000005fe
       46865000	      4685	00000000	00000013	addi	x0,x0,0	  x0:0x00000000
       46875000	      4686	80005820	00000013	addi	x0,x0,0	  x0:0x00000000
       46885000	      4687	80005824	0149d733	srl	x14,x19,x20	 x19:0xfffffd79 x20:0x80009eb0 x14=0x0000ffff
       46895000	      4688	80005828	41605293	srai	x5,x0,0x16	  x0:0x00000000  x5=0x00000000
       46905000	      4689	8000582c	018fe863	bltu	x31,x24,8000583c	 x31:0xe9037000 x24:0xfffffc02
       46915000	      4690	00000000	00000013	addi	x0,x0,0	  x0:0x00000000
       46925000	      4691	80005838	00000013	addi	x0,x0,0	  x0:0x00000000
       46935000	      4692	8000583c	02e26e63	bltu	x4,x14,80005878	  x4:0x00000000 x14:0x0000ffff
       46945000	      4693	00000000	00000013	addi	x0,x0,0	  x0:0x00000000
       46955000	      4694	80005874	00000013	addi	x0,x0,0	  x0:0x00000000
       46965000	      4695	80005878	00f86cb3	or	x25,x16,x15	 x16:0xcb31d73a x15:0x00002176 x25=0xcb31f77e
       46975000	      4696	8000587c	00d15233	srl	x4,x2,x13	  x2:0x8000874b x13:0x000005fe  x4=0x00000002
       46985000	      4697	80005880	b129c213	xori	x4,x19,-1262	 x19:0xfffffd79  x4=0x0000066b
       46995000	      4698	80005884	0090a033	slt	x0,x1,x9	  x1:0x000000bc  x9:0x00000200
       47005000	      4699	80005888	03ba1063	bne	x20,x27,800058a8	 x20:0x80009eb0 x27:0x80009fd6
       47015000	      4700	00000000	00000013	addi	x0,x0,0	  x0:0x00000000
       47025000	      4701	800058a4	00000013	addi	x0,x0,0	  x0:0x00000000
       47035000	      4702	800058a8	ceba7713	andi	x14,x20,-789	 x20:0x80009eb0 x14=0x80009ca0
       47045000	      4703	800058ac	01549e63	bne	x9,x21,800058c8	  x9:0x00000200 x21:0xfffffb65
       47055000	      4704	00000000	00000013	addi	x0,x0,0	  x0:0x00000000
       47065000	      4705	800058c4	00000013	addi	x0,x0,0	  x0:0x00000000
       47075000	      4706	800058c8	06ef1663	bne	x30,x14,80005934	 x30:0x0000002a x14:0x80009ca0
       47085000	      4707	00000000	00000013	addi	x0,x0,0	  x0:0x00000000
       47095000	      4708	80005930	00000013	addi	x0,x0,0	  x0:0x00000000
       47105000	      4709	80005934	01a94863	blt	x18,x26,80005944	 x18:0x00000001 x26:0x00000000
       47115000	      4710	80005938	4f760a93	addi	x21,x12,1271	 x12:0x00000281 x21=0x00000778
       47125000	      4711	8000593c	40088fb3	sub	x31,x17,x0	 x17:0x00000000  x0:0x00000000 x31=0x00000000
       47135000	      4712	80005940	40bb8bb3	sub	x23,x23,x11	 x23:0x5afd6000 x11:0xfffffffd x23=0x5afd6003
       47145000	      4713	80005944	01ea4ab3	xor	x21,x20,x30	 x20:0x80009eb0 x30:0x0000002a x21=0x80009e9a
       47155000	      4714	80005948	03107063	bgeu	x0,x17,80005968	  x0:0x00000000 x17:0x00000000
       47165000	      4715	00000000	00000013	addi	x0,x0,0	  x0:0x00000000
       47175000	      4716	80005964	00000013	addi	x0,x0,0	  x0:0x00000000
       47185000	      4717	80005968	006bca63	blt	x23,x6,8000597c	 x23:0x5afd6003  x6:0x0000000e
       47195000	      4718	8000596c	00bc52b3	srl	x5,x24,x11	 x24:0xfffffc02 x11:0xfffffffd  x5=0x00000007
       47205000	      4719	80005970	02f28863	beq	x5,x15,800059a0	  x5:0x00000007 x15:0x00002176
       47215000	      4720	80005974	01d14a63	blt	x2,x29,80005988	  x2:0x8000874b x29:0x00009495
       47225000	      4721	00000000	00000013	addi	x0,x0,0	  x0:0x00000000
       47235000	      4722	80005984	00000013	addi	x0,x0,0	  x0:0x00000000
       47245000	      4723	80005988	00000013	addi	x0,x0,0	  x0:0x00000000
       47255000	      4724	8000598c	aed31917	auipc	x18,0xaed31	 x18=0x2ed36988
       47265000	      4725	80005990	00ff6c63	bltu	x30,x15,800059a8	 x30:0x0000002a x15:0x00002176
       47275000	      4726	00000000	00000013	addi	x0,x0,0	  x0:0x00000000
       47285000	      4727	800059a4	00000013	addi	x0,x0,0	  x0:0x00000000
       47295000	      4728	800059a8	04e2f063	bgeu	x5,x14,800059e8	  x5:0x00000007 x14:0x80009ca0
       47305000	      4729	800059ac	b9bb13b7	lui	x7,0xb9bb1	  x7=0xb9bb1000
       47315000	      4730	800059b0	01980e63	beq	x16,x25,800059cc	 x16:0xcb31d73a x25:0xcb31f77e
       47325000	      4731	800059b4	4097db93	srai	x23,x15,0x9	 x15:0x00002176 x23=0x00000010
       47335000	      4732	800059b8	9ee07f93	andi	x31,x0,-1554	  x0:0x00000000 x31=0x00000000
       47345000	      4733	800059bc	00097e63	bgeu	x18,x0,800059d8	 x18:0x2ed36988  x0:0x00000000
       47355000	      4734	00000000	00000013	addi	x0,x0,0	  x0:0x00000000
       47365000	      4735	800059d4	00000013	addi	x0,x0,0	  x0:0x00000000
       47375000	      4736	800059d8	00cb2eb3	slt	x29,x22,x12	 x22:0x00000002 x12:0x00000281 x29=0x00000001
       47385000	      4737	800059dc	418a8133	sub	x2,x21,x24	 x21:0x80009e9a x24:0xfffffc02  x2=0x8000a298
       47395000	      4738	800059e0	01473b33	sltu	x22,x14,x20	 x14:0x80009ca0 x20:0x80009eb0 x22=0x00000001
       47405000	      4739	800059e4	0170db33	srl	x22,x1,x23	  x1:0x000000bc x23:0x00000010 x22=0x00000000
       47415000	      4740	800059e8	002d1cb3	sll	x25,x26,x2	 x26:0x00000000  x2:0x8000a298 x25=0x00000000
       47425000	      4741	800059ec	019a7c33	and	x24,x20,x25	 x20:0x80009eb0 x25:0x00000000 x24=0x00000000
       47435000	      4742	800059f0	00f6a3b3	slt	x7,x13,x15	 x13:0x000005fe x15:0x00002176  x7=0x00000001
       47445000	      4743	800059f4	045ad863	bge	x21,x5,80005a44	 x21:0x80009e9a  x5:0x00000007
       47455000	      4744	800059f8	000669b3	or	x19,x12,x0	 x12:0x00000281  x0:0x00000000 x19=0x00000281
       47465000	      4745	800059fc	01b645b3	xor	x11,x12,x27	 x12:0x00000281 x27:0x80009fd6 x11=0x80009d57
       47475000	      4746	80005a00	035a4063	blt	x20,x21,80005a20	 x20:0x80009eb0 x21:0x80009e9a
       47485000	      4747	80005a04	40495293	srai	x5,x18,0x4	 x18:0x2ed36988  x5=0x02ed3698
       47495000	      4748	80005a08	02c79863	bne	x15,x12,80005a38	 x15:0x00002176 x12:0x00000281
       47505000	      4749	00000000	00000013	addi	x0,x0,0	  x0:0x00000000
       47515000	      4750	80005a34	00000013	addi	x0,x0,0	  x0:0x00000000
       47525000	      4751	80005a38	014800b3	add	x1,x16,x20	 x16:0xcb31d73a x20:0x80009eb0  x1=0x4b3275ea
       47535000	      4752	80005a3c	04a07063	bgeu	x0,x10,80005a7c	  x0:0x00000000 x10:0x00000000
       47545000	      4753	00000000	00000013	addi	x0,x0,0	  x0:0x00000000
       47555000	      4754	80005a78	00000013	addi	x0,x0,0	  x0:0x00000000
       47565000	      4755	80005a7c	001b9f13	slli	x30,x23,0x1	 x23:0x00000010 x30=0x00000020
       47575000	      4756	80005a80	e23c0c37	lui	x24,0xe23c0	 x24=0xe23c0000
       47585000	      4757	80005a84	026bd863	bge	x23,x6,80005ab4	 x23:0x00000010  x6:0x0000000e
       47595000	      4758	00000000	00000013	addi	x0,x0,0	  x0:0x00000000
       47605000	      4759	80005ab0	00000013	addi	x0,x0,0	  x0:0x00000000
       47615000	      4760	80005ab4	0192f2b3	and	x5,x5,x25	  x5:0x02ed3698 x25:0x00000000  x5=0x00000000
       47625000	      4761	80005ab8	0480d263	bge	x1,x8,80005afc	  x1:0x4b3275ea  x8:0x80009fc4
       47635000	      4762	00000000	00000013	addi	x0,x0,0	  x0:0x00000000
       47645000	      4763	80005af8	00000013	addi	x0,x0,0	  x0:0x00000000
       47655000	      4764	80005afc	b511a813	slti	x16,x3,-1199	  x3:0x00002150 x16=0x00000000
       47665000	      4765	80005b00	d698c293	xori	x5,x17,-663	 x17:0x00000000  x5=0xfffffd69
       47675000	      4766	80005b04	053d8863	beq	x27,x19,80005b54	 x27:0x80009fd6 x19:0x00000281
       47685000	      4767	80005b08	409e8633	sub	x12,x29,x9	 x29:0x00000001  x9:0x00000200 x12=0xfffffe01
       47695000	      4768	80005b0c	4d967a93	andi	x21,x12,1241	 x12:0xfffffe01 x21=0x00000401
       47705000	      4769	80005b10	00b9a233	slt	x4,x19,x11	 x19:0x00000281 x11:0x80009d57  x4=0x00000000
       47715000	      4770	80005b14	01f12bb3	slt	x23,x2,x31	  x2:0x8000a298 x31:0x00000000 x23=0x00000001
       47725000	      4771	80005b18	8122cb93	xori	x23,x5,-2030	  x5:0xfffffd69 x23=0x0000057b
       47735000	      4772	80005b1c	035fd063	bge	x31,x21,80005b3c	 x31:0x00000000 x21:0x00000401
       47745000	      4773	80005b20	0094d9b3	srl	x19,x9,x9	  x9:0x00000200  x9:0x00000200 x19=0x00000200
       47755000	      4774	80005b24	00116663	bltu	x2,x1,80005b30	  x2:0x8000a298  x1:0x4b3275ea
       47765000	      4775	80005b28	01563533	sltu	x10,x12,x21	 x12:0xfffffe01 x21:0x00000401 x10=0x00000000
       47775000	      4776	80005b2c	78b80793	addi	x15,x16,1931	 x16:0x00000000 x15=0x0000078b
       47785000	      4777	80005b30	4151d093	srai	x1,x3,0x15	  x3:0x00002150  x1=0x00000000
       47795000	      4778	80005b34	d93bc213	xori	x4,x23,-621	 x23:0x0000057b  x4=0xfffff8e8
       47805000	      4779	80005b38	01fdce63	blt	x27,x31,80005b54	 x27:0x80009fd6 x31:0x00000000
       47815000	      4780	00000000	00000013	addi	x0,x0,0	  x0:0x00000000
       47825000	      4781	80005b50	00000013	addi	x0,x0,0	  x0:0x00000000
       47835000	      4782	80005b54	014dd633	srl	x12,x27,x20	 x27:0x80009fd6 x20:0x80009eb0 x12=0x00008000
       47845000	      4783	80005b58	05664663	blt	x12,x22,80005ba4	 x12:0x00008000 x22:0x00000000
       47855000	      4784	80005b5c	c5c65c37	lui	x24,0xc5c65	 x24=0xc5c65000
       47865000	      4785	80005b60	01108bb3	add	x23,x1,x17	  x1:0x00000000 x17:0x00000000 x23=0x00000000
       47875000	      4786	80005b64	01270c63	beq	x14,x18,80005b7c	 x14:0x80009ca0 x18:0x2ed36988
       47885000	      4787	80005b68	00984e33	xor	x28,x16,x9	 x16:0x00000000  x9:0x00000200 x28=0x00000200
       47895000	      4788	80005b6c	0067e863	bltu	x15,x6,80005b7c	 x15:0x0000078b  x6:0x0000000e
       47905000	      4789	80005b70	01855a93	srli	x21,x10,0x18	 x10:0x00000000 x21=0x00000000
       47915000	      4790	80005b74	42384893	xori	x17,x16,1059	 x16:0x00000000 x17=0x00000423
       47925000	      4791	80005b78	414d5613	srai	x12,x26,0x14	 x26:0x00000000 x12=0x00000000
       47935000	      4792	80005b7c	40670833	sub	x16,x14,x6	 x14:0x80009ca0  x6:0x0000000e x16=0x80009c92
       47945000	      4793	80005b80	00a68633	add	x12,x13,x10	 x13:0x000005fe x10:0x00000000 x12=0x000005fe
       47955000	      4794	80005b84	417382b3	sub	x5,x7,x23	  x7:0x00000001 x23:0x00000000  x5=0x00000001
       47965000	      4795	80005b88	fa4fa713	slti	x14,x31,-92	 x31:0x00000000 x14=0x00000000
       47975000	      4796	80005b8c	00000013	addi	x0,x0,0	  x0:0x00000000
       47985000	      4797	80005b90	25cc3c13	sltiu	x24,x24,604	 x24:0xc5c65000 x24=0x00000000
       47995000	      4798	80005b94	008cb5b3	sltu	x11,x25,x8	 x25:0x00000000  x8:0x80009fc4 x11=0x00000001
       48005000	      4799	80005b98	01aa65b3	or	x11,x20,x26	 x20:0x80009eb0 x26:0x00000000 x11=0x80009eb0
       48015000	      4800	80005b9c	ad894d97	auipc	x27,0xad894	 x27=0x2d899b98
       48025000	      4801	80005ba0	2da59817	auipc	x16,0x2da59	 x16=0xada5eb9c
       48035000	      4802	80005ba4	01072933	slt	x18,x14,x16	 x14:0x00000000 x16:0xada5eb9c x18=0x00000000
       48045000	      4803	80005ba8	3f333b93	sltiu	x23,x6,1011	  x6:0x0000000e x23=0x00000001
       48055000	      4804	80005bac	e275ad93	slti	x27,x11,-473	 x11:0x80009eb0 x27=0x00000001
       48065000	      4805	80005bb0	10bbca93	xori	x21,x23,267	 x23:0x00000001 x21=0x0000010a
       48075000	      4806	80005bb4	02339e63	bne	x7,x3,80005bf0	  x7:0x00000001  x3:0x00002150
       48085000	      4807	00000000	00000013	addi	x0,x0,0	  x0:0x00000000
       48095000	      4808	80005bec	00000013	addi	x0,x0,0	  x0:0x00000000
       48105000	      4809	80005bf0	0287c863	blt	x15,x8,80005c20	 x15:0x0000078b  x8:0x80009fc4
       48115000	      4810	80005bf4	03527663	bgeu	x4,x21,80005c20	  x4:0xfffff8e8 x21:0x0000010a
       48125000	      4811	00000000	00000013	addi	x0,x0,0	  x0:0x00000000
       48135000	      4812	80005c1c	00000013	addi	x0,x0,0	  x0:0x00000000
       48145000	      4813	80005c20	00039213	slli	x4,x7,0x0	  x7:0x00000001  x4=0x00000001
       48155000	      4814	80005c24	01f0dc33	srl	x24,x1,x31	  x1:0x00000000 x31:0x00000000 x24=0x00000000
       48165000	      4815	80005c28	4086d0b3	sra	x1,x13,x8	 x13:0x000005fe  x8:0x80009fc4  x1=0x0000005f
       48175000	      4816	80005c2c	40f15233	sra	x4,x2,x15	  x2:0x8000a298 x15:0x0000078b  x4=0xfff00014
       48185000	      4817	80005c30	02a57663	bgeu	x10,x10,80005c5c	 x10:0x00000000 x10:0x00000000
       48195000	      4818	00000000	00000013	addi	x0,x0,0	  x0:0x00000000
       48205000	      4819	80005c58	00000013	addi	x0,x0,0	  x0:0x00000000
       48215000	      4820	80005c5c	050c1063	bne	x24,x16,80005c9c	 x24:0x00000000 x16:0xada5eb9c
       48225000	      4821	00000000	00000013	addi	x0,x0,0	  x0:0x00000000
       48235000	      4822	80005c98	00000013	addi	x0,x0,0	  x0:0x00000000
       48245000	      4823	80005c9c	e893bc93	sltiu	x25,x7,-375	  x7:0x00000001 x25=0x00000001
       48255000	      4824	80005ca0	016d0e63	beq	x26,x22,80005cbc	 x26:0x00000000 x22:0x00000000
       48265000	      4825	00000000	00000013	addi	x0,x0,0	  x0:0x00000000
       48275000	      4826	80005cb8	00000013	addi	x0,x0,0	  x0:0x00000000
       48285000	      4827	80005cbc	6f24c613	xori	x12,x9,1778	  x9:0x00000200 x12=0x000004f2
       48295000	      4828	80005cc0	419e55b3	sra	x11,x28,x25	 x28:0x00000200 x25:0x00000001 x11=0x00000100
       48305000	      4829	80005cc4	004a2083	lw	x1,4(x20)	 x20:0x80009eb0  x1=0x80005d30 PA:0x80009eb4
       48315000	      4830	80005cc8	4081d393	srai	x7,x3,0x8	  x3:0x00002150  x7=0x00000021
       48325000	      4831	80005ccc	040a0a13	addi	x20,x20,64	 x20:0x80009eb0 x20=0x80009ef0
       48335000	      4832	80005cd0	000b28b3	slt	x17,x22,x0	 x22:0x00000000  x0:0x00000000 x17=0x00000000
       48345000	      4833	80005cd4	01272eb3	slt	x29,x14,x18	 x14:0x00000000 x18:0x00000000 x29=0x00000000
       48355000	      4834	80005cd8	c1dfe813	ori	x16,x31,-995	 x31:0x00000000 x16=0xfffffc1d
       48365000	      4835	80005cdc	40fbd2b3	sra	x5,x23,x15	 x23:0x00000001 x15:0x0000078b  x5=0x00000000
       48375000	      4836	80005ce0	00108893	addi	x17,x1,1	  x1:0x80005d30 x17=0x80005d31
       48385000	      4837	80005ce4	000888e7	jalr	x17,x17,0	 x17:0x80005d31 x17=0x80005ce4
       48395000	      4838	00000000	00000013	addi	x0,x0,0	  x0:0x00000000
       48405000	      4839	80005d30	00000013	addi	x0,x0,0	  x0:0x00000000
       48415000	      4840	80005d34	008e8eb3	add	x29,x29,x8	 x29:0x00000000  x8:0x80009fc4 x29=0x80009fc4
       48425000	      4841	80005d38	0367d463	bge	x15,x22,80005d60	 x15:0x0000078b x22:0x00000000
       48435000	      4842	00000000	00000013	addi	x0,x0,0	  x0:0x00000000
       48445000	      4843	80005d5c	00000013	addi	x0,x0,0	  x0:0x00000000
       48455000	      4844	80005d60	851ff0ef	jal	x1,80005d60	  x1=0x80005d60
       48465000	      4845	00000000	00000013	addi	x0,x0,0	  x0:0x00000000
       48475000	      4846	800055ac	00000013	addi	x0,x0,0	  x0:0x00000000
       48485000	      4847	800055b0	c8a0e213	ori	x4,x1,-886	  x1:0x80005d60  x4=0xfffffdea
       48495000	      4848	800055b4	615b0b13	addi	x22,x22,1557	 x22:0x00000000 x22=0x00000615
       48505000	      4849	800055b8	011b8eb3	add	x29,x23,x17	 x23:0x00000001 x17:0x80005ce4 x29=0x80005ce5
       48515000	      4850	800055bc	015369b3	or	x19,x6,x21	  x6:0x0000000e x21:0x0000010a x19=0x0000010e
       48525000	      4851	800055c0	fc0a0a13	addi	x20,x20,-64	 x20:0x80009ef0 x20=0x80009eb0
       48535000	      4852	800055c4	001a2223	sw	x1,4(x20)	 x20:0x80009eb0  x1:0x80005d60 PA:0x80009eb4
       48545000	      4853	800055c8	01ffe6b3	or	x13,x31,x31	 x31:0x00000000 x31:0x00000000 x13=0x00000000
       48555000	      4854	800055cc	01ca7d33	and	x26,x20,x28	 x20:0x80009eb0 x28:0x00000200 x26=0x00000200
       48565000	      4855	800055d0	00003b17	auipc	x22,0x3	 x22=0x800085cc
       48575000	      4856	800055d4	f8cb0b13	addi	x22,x22,-116	 x22:0x800085cc x22=0x80008558
       48585000	      4857	800055d8	8a404793	xori	x15,x0,-1884	  x0:0x00000000 x15=0xfffff8a4
       48595000	      4858	800055dc	002a7033	and	x0,x20,x2	 x20:0x80009eb0  x2:0x8000a298
       48605000	      4859	800055e0	fd5b4903	lbu	x18,-43(x22)	 x22:0x80008558 x18=0x000000e6 PA:0x8000852d
       48615000	      4860	800055e4	f21b0f23	sb	x1,-194(x22)	 x22:0x80008558  x1:0x80005d60 PA:0x80008496
       48625000	      4861	800055e8	02eb0483	lb	x9,46(x22)	 x22:0x80008558  x9=0x0000003d PA:0x80008586
       48635000	      4862	800055ec	f6db4d03	lbu	x26,-147(x22)	 x22:0x80008558 x26=0x0000007e PA:0x800084c5
       48645000	      4863	800055f0	01e63e33	sltu	x28,x12,x30	 x12:0x000004f2 x30:0x00000020 x28=0x00000000
       48655000	      4864	800055f4	0037e7b3	or	x15,x15,x3	 x15:0xfffff8a4  x3:0x00002150 x15=0xfffff9f4
       48665000	      4865	800055f8	a89ac813	xori	x16,x21,-1399	 x21:0x0000010a x16=0xfffffb83
       48675000	      4866	800055fc	1851e093	ori	x1,x3,389	  x3:0x00002150  x1=0x000021d5
       48685000	      4867	80005600	00db0703	lb	x14,13(x22)	 x22:0x80008558 x14=0x0000001e PA:0x80008565
       48695000	      4868	80005604	01ae93b3	sll	x7,x29,x26	 x29:0x80005ce5 x26:0x0000007e  x7=0x40000000
       48705000	      4869	80005608	099b4483	lbu	x9,153(x22)	 x22:0x80008558  x9=0x000000aa PA:0x800085f1
       48715000	      4870	8000560c	0fbb0d03	lb	x26,251(x22)	 x22:0x80008558 x26=0x00000008 PA:0x80008653
       48725000	      4871	80005610	f86b5e83	lhu	x29,-122(x22)	 x22:0x80008558 x29=0x00009495 PA:0x800084de
       48735000	      4872	80005614	feab4803	lbu	x16,-22(x22)	 x22:0x80008558 x16=0x0000002a PA:0x80008542
       48745000	      4873	80005618	007d4d33	xor	x26,x26,x7	 x26:0x00000008  x7:0x40000000 x26=0x40000008
       48755000	      4874	8000561c	0a3b0023	sb	x3,160(x22)	 x22:0x80008558  x3:0x00002150 PA:0x800085f8
       48765000	      4875	80005620	00000013	addi	x0,x0,0	  x0:0x00000000
       48775000	      4876	80005624	f49b4383	lbu	x7,-183(x22)	 x22:0x80008558  x7=0x0000005a PA:0x800084a1
       48785000	      4877	80005628	01150733	add	x14,x10,x17	 x10:0x00000000 x17:0x80005ce4 x14=0x80005ce4
       48795000	      4878	8000562c	f8cb0b83	lb	x23,-116(x22)	 x22:0x80008558 x23=0x00000079 PA:0x800084e4
       48805000	      4879	80005630	00dfedb3	or	x27,x31,x13	 x31:0x00000000 x13:0x00000000 x27=0x00000000
       48815000	      4880	80005634	00650f33	add	x30,x10,x6	 x10:0x00000000  x6:0x0000000e x30=0x0000000e
       48825000	      4881	80005638	0afb4083	lbu	x1,175(x22)	 x22:0x80008558  x1=0x000000bc PA:0x80008607
       48835000	      4882	8000563c	079b05a3	sb	x25,107(x22)	 x22:0x80008558 x25:0x00000001 PA:0x800085c3
       48845000	      4883	80005640	af51ad93	slti	x27,x3,-1291	  x3:0x00002150 x27=0x00000000
       48855000	      4884	80005644	11cd6193	ori	x3,x26,284	 x26:0x40000008  x3=0x4000011c
       48865000	      4885	80005648	418ed3b3	sra	x7,x29,x24	 x29:0x00009495 x24:0x00000000  x7=0x00009495
       48875000	      4886	8000564c	041b4483	lbu	x9,65(x22)	 x22:0x80008558  x9=0x00000052 PA:0x80008599
       48885000	      4887	80005650	0c4b0aa3	sb	x4,213(x22)	 x22:0x80008558  x4:0xfffffdea PA:0x8000862d
       48895000	      4888	80005654	064b0da3	sb	x4,123(x22)	 x22:0x80008558  x4:0xfffffdea PA:0x800085d3
       48905000	      4889	80005658	f75b4483	lbu	x9,-139(x22)	 x22:0x80008558  x9=0x00000086 PA:0x800084cd
       48915000	      4890	00000000	00000013	addi	x0,x0,0	  x0:0x00000000
       48925000	      4891	8000565c	0c9b4f83	lbu	x31,201(x22)	 x22:0x80008558 x31=0x000000da PA:0x80008621
       48935000	      4892	80005660	018d2033	slt	x0,x26,x24	 x26:0x40000008 x24:0x00000000
       48945000	      4893	80005664	71a56813	ori	x16,x10,1818	 x10:0x00000000 x16=0x0000071a
       48955000	      4894	80005668	f19b0f03	lb	x30,-231(x22)	 x22:0x80008558 x30=0x0000002a PA:0x80008471
       48965000	      4895	00000000	00000013	addi	x0,x0,0	  x0:0x00000000
       48975000	      4896	8000566c	ffeb0523	sb	x30,-22(x22)	 x22:0x80008558 x30:0x0000002a PA:0x80008542
       48985000	      4897	80005670	015b4983	lbu	x19,21(x22)	 x22:0x80008558 x19=0x00000026 PA:0x8000856d
       48995000	      4898	80005674	01d5d613	srli	x12,x11,0x1d	 x11:0x00000100 x12=0x00000000
       49005000	      4899	80005678	f09b4583	lbu	x11,-247(x22)	 x22:0x80008558 x11=0x0000001a PA:0x80008461
       49015000	      4900	8000567c	023b0503	lb	x10,35(x22)	 x22:0x80008558 x10=0x00000030 PA:0x8000857b
       49025000	      4901	80005680	350f8793	addi	x15,x31,848	 x31:0x000000da x15=0x0000042a
       49035000	      4902	80005684	3a6fe937	lui	x18,0x3a6fe	 x18=0x3a6fe000
       49045000	      4903	80005688	f47b0103	lb	x2,-185(x22)	 x22:0x80008558  x2=0x00000054 PA:0x8000849f
       49055000	      4904	8000568c	00003117	auipc	x2,0x3	  x2=0x80008688
       49065000	      4905	80005690	0c310113	addi	x2,x2,195	  x2:0x80008688  x2=0x8000874b
       49075000	      4906	80005694	645c2693	slti	x13,x24,1605	 x24:0x00000000 x13=0x00000001
       49085000	      4907	80005698	fe110f23	sb	x1,-2(x2)	  x2:0x8000874b  x1:0x000000bc PA:0x80008749
       49095000	      4908	8000569c	ffd10ca3	sb	x29,-7(x2)	  x2:0x8000874b x29:0x00009495 PA:0x80008744
       49105000	      4909	800056a0	01f10823	sb	x31,16(x2)	  x2:0x8000874b x31:0x000000da PA:0x8000875b
       49115000	      4910	800056a4	00214c03	lbu	x24,2(x2)	  x2:0x8000874b x24=0x00000006 PA:0x8000874d
       49125000	      4911	800056a8	01e67b33	and	x22,x12,x30	 x12:0x00000000 x30:0x0000002a x22=0x00000000
       49135000	      4912	800056ac	00410c03	lb	x24,4(x2)	  x2:0x8000874b x24=0x00000004 PA:0x8000874f
       49145000	      4913	800056b0	016106a3	sb	x22,13(x2)	  x2:0x8000874b x22:0x00000000 PA:0x80008758
       49155000	      4914	800056b4	ffe10b23	sb	x30,-10(x2)	  x2:0x8000874b x30:0x0000002a PA:0x80008741
       49165000	      4915	800056b8	1fc8ad93	slti	x27,x17,508	 x17:0x80005ce4 x27=0x00000001
       49175000	      4916	800056bc	41998933	sub	x18,x19,x25	 x19:0x00000026 x25:0x00000001 x18=0x00000025
       49185000	      4917	800056c0	fea10fa3	sb	x10,-1(x2)	  x2:0x8000874b x10:0x00000030 PA:0x8000874a
       49195000	      4918	800056c4	00110183	lb	x3,1(x2)	  x2:0x8000874b  x3=0x00000007 PA:0x8000874c
       49205000	      4919	800056c8	0169d213	srli	x4,x19,0x16	 x19:0x00000026  x4=0x00000000
       49215000	      4920	800056cc	c7353d17	auipc	x26,0xc7353	 x26=0x473586c8
       49225000	      4921	800056d0	00d14683	lbu	x13,13(x2)	  x2:0x8000874b x13=0x00000000 PA:0x80008758
       49235000	      4922	800056d4	00014b83	lbu	x23,0(x2)	  x2:0x8000874b x23=0x00000000 PA:0x8000874b
       49245000	      4923	800056d8	00210383	lb	x7,2(x2)	  x2:0x8000874b  x7=0x00000006 PA:0x8000874d
       49255000	      4924	800056dc	ff010703	lb	x14,-16(x2)	  x2:0x8000874b x14=0xfffffff0 PA:0x8000873b
       49265000	      4925	800056e0	fe1108a3	sb	x1,-15(x2)	  x2:0x8000874b  x1:0x000000bc PA:0x8000873c
       49275000	      4926	800056e4	ff115283	lhu	x5,-15(x2)	  x2:0x8000874b  x5=0x0000f6bc PA:0x8000873c
       49285000	      4927	800056e8	018f9713	slli	x14,x31,0x18	 x31:0x000000da x14=0xda000000
       49295000	      4928	800056ec	012aa1b3	slt	x3,x21,x18	 x21:0x0000010a x18:0x00000025  x3=0x00000000
       49305000	      4929	800056f0	ff610da3	sb	x22,-5(x2)	  x2:0x8000874b x22:0x00000000 PA:0x80008746
       49315000	      4930	800056f4	a0a6a393	slti	x7,x13,-1526	 x13:0x00000000  x7=0x00000000
       49325000	      4931	800056f8	00e10823	sb	x14,16(x2)	  x2:0x8000874b x14:0xda000000 PA:0x8000875b
       49335000	      4932	800056fc	00831733	sll	x14,x6,x8	  x6:0x0000000e  x8:0x80009fc4 x14=0x000000e0
       49345000	      4933	80005700	406e5d13	srai	x26,x28,0x6	 x28:0x00000000 x26=0x00000000
       49355000	      4934	80005704	00ccb6b3	sltu	x13,x25,x12	 x25:0x00000001 x12:0x00000000 x13=0x00000000
       49365000	      4935	80005708	0187ad33	slt	x26,x15,x24	 x15:0x0000042a x24:0x00000004 x26=0x00000000
       49375000	      4936	8000570c	ffb11c03	lh	x24,-5(x2)	  x2:0x8000874b x24=0xfffffc00 PA:0x80008746
       49385000	      4937	80005710	5afd6bb7	lui	x23,0x5afd6	 x23=0x5afd6000
       49395000	      4938	80005714	c78ead93	slti	x27,x29,-904	 x29:0x00009495 x27=0x00000000
       49405000	      4939	80005718	00de58b3	srl	x17,x28,x13	 x28:0x00000000 x13:0x00000000 x17=0x00000000
       49415000	      4940	8000571c	00379193	slli	x3,x15,0x3	 x15:0x0000042a  x3=0x00002150
       49425000	      4941	80005720	002fce33	xor	x28,x31,x2	 x31:0x000000da  x2:0x8000874b x28=0x80008791
       49435000	      4942	80005724	02ec6e63	bltu	x24,x14,80005760	 x24:0xfffffc00 x14:0x000000e0
       49445000	      4943	80005728	01cd0663	beq	x26,x28,80005734	 x26:0x00000000 x28:0x80008791
       49455000	      4944	8000572c	71637293	andi	x5,x6,1814	  x6:0x0000000e  x5=0x00000006
       49465000	      4945	80005730	0219f063	bgeu	x19,x1,80005750	 x19:0x00000026  x1:0x000000bc
       49475000	      4946	80005734	028ec863	blt	x29,x8,80005764	 x29:0x00009495  x8:0x80009fc4
       49485000	      4947	80005738	4035d293	srai	x5,x11,0x3	 x11:0x0000001a  x5=0x00000003
       49495000	      4948	8000573c	0039c7b3	xor	x15,x19,x3	 x19:0x00000026  x3:0x00002150 x15=0x00002176
       49505000	      4949	80005740	23d0c613	xori	x12,x1,573	  x1:0x000000bc x12=0x00000281
       49515000	      4950	80005744	02b37863	bgeu	x6,x11,80005774	  x6:0x0000000e x11:0x0000001a
       49525000	      4951	80005748	03775663	bge	x14,x23,80005774	 x14:0x000000e0 x23:0x5afd6000
       49535000	      4952	8000574c	28959cb7	lui	x25,0x28959	 x25=0x28959000
       49545000	      4953	80005750	e9037fb7	lui	x31,0xe9037	 x31=0xe9037000
       49555000	      4954	80005754	5d81e493	ori	x9,x3,1496	  x3:0x00002150  x9=0x000025d8
       49565000	      4955	80005758	0193de63	bge	x7,x25,80005774	  x7:0x00000000 x25:0x28959000
       49575000	      4956	8000575c	418755b3	sra	x11,x14,x24	 x14:0x000000e0 x24:0xfffffc00 x11=0x000000e0
       49585000	      4957	80005760	405d85b3	sub	x11,x27,x5	 x27:0x00000000  x5:0x00000003 x11=0xfffffffd
       49595000	      4958	80005764	75554e13	xori	x28,x10,1877	 x10:0x00000030 x28=0x00000765
       49605000	      4959	80005768	003e1863	bne	x28,x3,80005778	 x28:0x00000765  x3:0x00002150
       49615000	      4960	00000000	00000013	addi	x0,x0,0	  x0:0x00000000
       49625000	      4961	80005774	00000013	addi	x0,x0,0	  x0:0x00000000
       49635000	      4962	80005778	05e4d863	bge	x9,x30,800057c8	  x9:0x000025d8 x30:0x0000002a
       49645000	      4963	00000000	00000013	addi	x0,x0,0	  x0:0x00000000
       49655000	      4964	800057c4	00000013	addi	x0,x0,0	  x0:0x00000000
       49665000	      4965	800057c8	511fa913	slti	x18,x31,1297	 x31:0xe9037000 x18=0x00000001
       49675000	      4966	800057cc	00f454b3	srl	x9,x8,x15	  x8:0x80009fc4 x15:0x00002176  x9=0x00000200
       49685000	      4967	800057d0	00d21e63	bne	x4,x13,800057ec	  x4:0x00000000 x13:0x00000000
       49695000	      4968	800057d4	00215663	bge	x2,x2,800057e0	  x2:0x8000874b  x2:0x8000874b
       49705000	      4969	00000000	00000013	addi	x0,x0,0	  x0:0x00000000
       49715000	      4970	800057dc	00000013	addi	x0,x0,0	  x0:0x00000000
       49725000	      4971	800057e0	40c0d013	srai	x0,x1,0xc	  x1:0x000000bc
       49735000	      4972	800057e4	00e15e33	srl	x28,x2,x14	  x2:0x8000874b x14:0x000000e0 x28=0x8000874b
       49745000	      4973	800057e8	01bc7c63	bgeu	x24,x27,80005800	 x24:0xfffffc00 x27:0x00000000
       49755000	      4974	00000000	00000013	addi	x0,x0,0	  x0:0x00000000
       49765000	      4975	800057fc	00000013	addi	x0,x0,0	  x0:0x00000000
       49775000	      4976	80005800	418486b3	sub	x13,x9,x24	  x9:0x00000200 x24:0xfffffc00 x13=0x00000600
       49785000	      4977	80005804	d77b0993	addi	x19,x22,-649	 x22:0x00000000 x19=0xfffffd77
       49795000	      4978	80005808	01a628b3	slt	x17,x12,x26	 x12:0x00000281 x26:0x00000000 x17=0x00000000
       49805000	      4979	8000580c	00662533	slt	x10,x12,x6	 x12:0x00000281  x6:0x0000000e x10=0x00000000
       49815000	      4980	80005810	00000013	addi	x0,x0,0	  x0:0x00000000
       49825000	      4981	80005814	49646d93	ori	x27,x8,1174	  x8:0x80009fc4 x27=0x80009fd6
       49835000	      4982	80005818	00d21663	bne	x4,x13,80005824	  x4:0x00000000 x13:0x00000600
       49845000	      4983	00000000	00000013	addi	x0,x0,0	  x0:0x00000000
       49855000	      4984	80005820	00000013	addi	x0,x0,0	  x0:0x00000000
       49865000	      4985	80005824	0149d733	srl	x14,x19,x20	 x19:0xfffffd77 x20:0x80009eb0 x14=0x0000ffff
       49875000	      4986	80005828	41605293	srai	x5,x0,0x16	  x0:0x00000000  x5=0x00000000
       49885000	      4987	8000582c	018fe863	bltu	x31,x24,8000583c	 x31:0xe9037000 x24:0xfffffc00
       49895000	      4988	00000000	00000013	addi	x0,x0,0	  x0:0x00000000
       49905000	      4989	80005838	00000013	addi	x0,x0,0	  x0:0x00000000
       49915000	      4990	8000583c	02e26e63	bltu	x4,x14,80005878	  x4:0x00000000 x14:0x0000ffff
       49925000	      4991	00000000	00000013	addi	x0,x0,0	  x0:0x00000000
       49935000	      4992	80005874	00000013	addi	x0,x0,0	  x0:0x00000000
       49945000	      4993	80005878	00f86cb3	or	x25,x16,x15	 x16:0x0000071a x15:0x00002176 x25=0x0000277e
       49955000	      4994	8000587c	00d15233	srl	x4,x2,x13	  x2:0x8000874b x13:0x00000600  x4=0x8000874b
       49965000	      4995	80005880	b129c213	xori	x4,x19,-1262	 x19:0xfffffd77  x4=0x00000665
       49975000	      4996	80005884	0090a033	slt	x0,x1,x9	  x1:0x000000bc  x9:0x00000200
       49985000	      4997	80005888	03ba1063	bne	x20,x27,800058a8	 x20:0x80009eb0 x27:0x80009fd6
       49995000	      4998	00000000	00000013	addi	x0,x0,0	  x0:0x00000000
       50005000	      4999	800058a4	00000013	addi	x0,x0,0	  x0:0x00000000
       50015000	      5000	800058a8	ceba7713	andi	x14,x20,-789	 x20:0x80009eb0 x14=0x80009ca0
       50025000	      5001	800058ac	01549e63	bne	x9,x21,800058c8	  x9:0x00000200 x21:0x0000010a
       50035000	      5002	00000000	00000013	addi	x0,x0,0	  x0:0x00000000
       50045000	      5003	800058c4	00000013	addi	x0,x0,0	  x0:0x00000000
       50055000	      5004	800058c8	06ef1663	bne	x30,x14,80005934	 x30:0x0000002a x14:0x80009ca0
       50065000	      5005	00000000	00000013	addi	x0,x0,0	  x0:0x00000000
       50075000	      5006	80005930	00000013	addi	x0,x0,0	  x0:0x00000000
       50085000	      5007	80005934	01a94863	blt	x18,x26,80005944	 x18:0x00000001 x26:0x00000000
       50095000	      5008	80005938	4f760a93	addi	x21,x12,1271	 x12:0x00000281 x21=0x00000778
       50105000	      5009	8000593c	40088fb3	sub	x31,x17,x0	 x17:0x00000000  x0:0x00000000 x31=0x00000000
       50115000	      5010	80005940	40bb8bb3	sub	x23,x23,x11	 x23:0x5afd6000 x11:0xfffffffd x23=0x5afd6003
       50125000	      5011	80005944	01ea4ab3	xor	x21,x20,x30	 x20:0x80009eb0 x30:0x0000002a x21=0x80009e9a
       50135000	      5012	80005948	03107063	bgeu	x0,x17,80005968	  x0:0x00000000 x17:0x00000000
       50145000	      5013	00000000	00000013	addi	x0,x0,0	  x0:0x00000000
       50155000	      5014	80005964	00000013	addi	x0,x0,0	  x0:0x00000000
       50165000	      5015	80005968	006bca63	blt	x23,x6,8000597c	 x23:0x5afd6003  x6:0x0000000e
       50175000	      5016	8000596c	00bc52b3	srl	x5,x24,x11	 x24:0xfffffc00 x11:0xfffffffd  x5=0x00000007
       50185000	      5017	80005970	02f28863	beq	x5,x15,800059a0	  x5:0x00000007 x15:0x00002176
       50195000	      5018	80005974	01d14a63	blt	x2,x29,80005988	  x2:0x8000874b x29:0x00009495
       50205000	      5019	00000000	00000013	addi	x0,x0,0	  x0:0x00000000
       50215000	      5020	80005984	00000013	addi	x0,x0,0	  x0:0x00000000
       50225000	      5021	80005988	00000013	addi	x0,x0,0	  x0:0x00000000
       50235000	      5022	8000598c	aed31917	auipc	x18,0xaed31	 x18=0x2ed36988
       50245000	      5023	80005990	00ff6c63	bltu	x30,x15,800059a8	 x30:0x0000002a x15:0x00002176
       50255000	      5024	00000000	00000013	addi	x0,x0,0	  x0:0x00000000
       50265000	      5025	800059a4	00000013	addi	x0,x0,0	  x0:0x00000000
       50275000	      5026	800059a8	04e2f063	bgeu	x5,x14,800059e8	  x5:0x00000007 x14:0x80009ca0
       50285000	      5027	800059ac	b9bb13b7	lui	x7,0xb9bb1	  x7=0xb9bb1000
       50295000	      5028	800059b0	01980e63	beq	x16,x25,800059cc	 x16:0x0000071a x25:0x0000277e
       50305000	      5029	800059b4	4097db93	srai	x23,x15,0x9	 x15:0x00002176 x23=0x00000010
       50315000	      5030	800059b8	9ee07f93	andi	x31,x0,-1554	  x0:0x00000000 x31=0x00000000
       50325000	      5031	800059bc	00097e63	bgeu	x18,x0,800059d8	 x18:0x2ed36988  x0:0x00000000
       50335000	      5032	00000000	00000013	addi	x0,x0,0	  x0:0x00000000
       50345000	      5033	800059d4	00000013	addi	x0,x0,0	  x0:0x00000000
       50355000	      5034	800059d8	00cb2eb3	slt	x29,x22,x12	 x22:0x00000000 x12:0x00000281 x29=0x00000001
       50365000	      5035	800059dc	418a8133	sub	x2,x21,x24	 x21:0x80009e9a x24:0xfffffc00  x2=0x8000a29a
       50375000	      5036	800059e0	01473b33	sltu	x22,x14,x20	 x14:0x80009ca0 x20:0x80009eb0 x22=0x00000001
       50385000	      5037	800059e4	0170db33	srl	x22,x1,x23	  x1:0x000000bc x23:0x00000010 x22=0x00000000
       50395000	      5038	800059e8	002d1cb3	sll	x25,x26,x2	 x26:0x00000000  x2:0x8000a29a x25=0x00000000
       50405000	      5039	800059ec	019a7c33	and	x24,x20,x25	 x20:0x80009eb0 x25:0x00000000 x24=0x00000000
       50415000	      5040	800059f0	00f6a3b3	slt	x7,x13,x15	 x13:0x00000600 x15:0x00002176  x7=0x00000001
       50425000	      5041	800059f4	045ad863	bge	x21,x5,80005a44	 x21:0x80009e9a  x5:0x00000007
       50435000	      5042	800059f8	000669b3	or	x19,x12,x0	 x12:0x00000281  x0:0x00000000 x19=0x00000281
       50445000	      5043	800059fc	01b645b3	xor	x11,x12,x27	 x12:0x00000281 x27:0x80009fd6 x11=0x80009d57
       50455000	      5044	80005a00	035a4063	blt	x20,x21,80005a20	 x20:0x80009eb0 x21:0x80009e9a
       50465000	      5045	80005a04	40495293	srai	x5,x18,0x4	 x18:0x2ed36988  x5=0x02ed3698
       50475000	      5046	80005a08	02c79863	bne	x15,x12,80005a38	 x15:0x00002176 x12:0x00000281
       50485000	      5047	00000000	00000013	addi	x0,x0,0	  x0:0x00000000
       50495000	      5048	80005a34	00000013	addi	x0,x0,0	  x0:0x00000000
       50505000	      5049	80005a38	014800b3	add	x1,x16,x20	 x16:0x0000071a x20:0x80009eb0  x1=0x8000a5ca
       50515000	      5050	80005a3c	04a07063	bgeu	x0,x10,80005a7c	  x0:0x00000000 x10:0x00000000
       50525000	      5051	00000000	00000013	addi	x0,x0,0	  x0:0x00000000
       50535000	      5052	80005a78	00000013	addi	x0,x0,0	  x0:0x00000000
       50545000	      5053	80005a7c	001b9f13	slli	x30,x23,0x1	 x23:0x00000010 x30=0x00000020
       50555000	      5054	80005a80	e23c0c37	lui	x24,0xe23c0	 x24=0xe23c0000
       50565000	      5055	80005a84	026bd863	bge	x23,x6,80005ab4	 x23:0x00000010  x6:0x0000000e
       50575000	      5056	00000000	00000013	addi	x0,x0,0	  x0:0x00000000
       50585000	      5057	80005ab0	00000013	addi	x0,x0,0	  x0:0x00000000
       50595000	      5058	80005ab4	0192f2b3	and	x5,x5,x25	  x5:0x02ed3698 x25:0x00000000  x5=0x00000000
       50605000	      5059	80005ab8	0480d263	bge	x1,x8,80005afc	  x1:0x8000a5ca  x8:0x80009fc4
       50615000	      5060	00000000	00000013	addi	x0,x0,0	  x0:0x00000000
       50625000	      5061	80005af8	00000013	addi	x0,x0,0	  x0:0x00000000
       50635000	      5062	80005afc	b511a813	slti	x16,x3,-1199	  x3:0x00002150 x16=0x00000000
       50645000	      5063	80005b00	d698c293	xori	x5,x17,-663	 x17:0x00000000  x5=0xfffffd69
       50655000	      5064	80005b04	053d8863	beq	x27,x19,80005b54	 x27:0x80009fd6 x19:0x00000281
       50665000	      5065	80005b08	409e8633	sub	x12,x29,x9	 x29:0x00000001  x9:0x00000200 x12=0xfffffe01
       50675000	      5066	80005b0c	4d967a93	andi	x21,x12,1241	 x12:0xfffffe01 x21=0x00000401
       50685000	      5067	80005b10	00b9a233	slt	x4,x19,x11	 x19:0x00000281 x11:0x80009d57  x4=0x00000000
       50695000	      5068	80005b14	01f12bb3	slt	x23,x2,x31	  x2:0x8000a29a x31:0x00000000 x23=0x00000001
       50705000	      5069	80005b18	8122cb93	xori	x23,x5,-2030	  x5:0xfffffd69 x23=0x0000057b
       50715000	      5070	80005b1c	035fd063	bge	x31,x21,80005b3c	 x31:0x00000000 x21:0x00000401
       50725000	      5071	80005b20	0094d9b3	srl	x19,x9,x9	  x9:0x00000200  x9:0x00000200 x19=0x00000200
       50735000	      5072	80005b24	00116663	bltu	x2,x1,80005b30	  x2:0x8000a29a  x1:0x8000a5ca
       50745000	      5073	00000000	00000013	addi	x0,x0,0	  x0:0x00000000
       50755000	      5074	80005b2c	00000013	addi	x0,x0,0	  x0:0x00000000
       50765000	      5075	80005b30	4151d093	srai	x1,x3,0x15	  x3:0x00002150  x1=0x00000000
       50775000	      5076	80005b34	d93bc213	xori	x4,x23,-621	 x23:0x0000057b  x4=0xfffff8e8
       50785000	      5077	80005b38	01fdce63	blt	x27,x31,80005b54	 x27:0x80009fd6 x31:0x00000000
       50795000	      5078	00000000	00000013	addi	x0,x0,0	  x0:0x00000000
       50805000	      5079	80005b50	00000013	addi	x0,x0,0	  x0:0x00000000
       50815000	      5080	80005b54	014dd633	srl	x12,x27,x20	 x27:0x80009fd6 x20:0x80009eb0 x12=0x00008000
       50825000	      5081	80005b58	05664663	blt	x12,x22,80005ba4	 x12:0x00008000 x22:0x00000000
       50835000	      5082	80005b5c	c5c65c37	lui	x24,0xc5c65	 x24=0xc5c65000
       50845000	      5083	80005b60	01108bb3	add	x23,x1,x17	  x1:0x00000000 x17:0x00000000 x23=0x00000000
       50855000	      5084	80005b64	01270c63	beq	x14,x18,80005b7c	 x14:0x80009ca0 x18:0x2ed36988
       50865000	      5085	80005b68	00984e33	xor	x28,x16,x9	 x16:0x00000000  x9:0x00000200 x28=0x00000200
       50875000	      5086	80005b6c	0067e863	bltu	x15,x6,80005b7c	 x15:0x00002176  x6:0x0000000e
       50885000	      5087	80005b70	01855a93	srli	x21,x10,0x18	 x10:0x00000000 x21=0x00000000
       50895000	      5088	80005b74	42384893	xori	x17,x16,1059	 x16:0x00000000 x17=0x00000423
       50905000	      5089	80005b78	414d5613	srai	x12,x26,0x14	 x26:0x00000000 x12=0x00000000
       50915000	      5090	80005b7c	40670833	sub	x16,x14,x6	 x14:0x80009ca0  x6:0x0000000e x16=0x80009c92
       50925000	      5091	80005b80	00a68633	add	x12,x13,x10	 x13:0x00000600 x10:0x00000000 x12=0x00000600
       50935000	      5092	80005b84	417382b3	sub	x5,x7,x23	  x7:0x00000001 x23:0x00000000  x5=0x00000001
       50945000	      5093	80005b88	fa4fa713	slti	x14,x31,-92	 x31:0x00000000 x14=0x00000000
       50955000	      5094	80005b8c	00000013	addi	x0,x0,0	  x0:0x00000000
       50965000	      5095	80005b90	25cc3c13	sltiu	x24,x24,604	 x24:0xc5c65000 x24=0x00000000
       50975000	      5096	80005b94	008cb5b3	sltu	x11,x25,x8	 x25:0x00000000  x8:0x80009fc4 x11=0x00000001
       50985000	      5097	80005b98	01aa65b3	or	x11,x20,x26	 x20:0x80009eb0 x26:0x00000000 x11=0x80009eb0
       50995000	      5098	80005b9c	ad894d97	auipc	x27,0xad894	 x27=0x2d899b98
       51005000	      5099	80005ba0	2da59817	auipc	x16,0x2da59	 x16=0xada5eb9c
       51015000	      5100	80005ba4	01072933	slt	x18,x14,x16	 x14:0x00000000 x16:0xada5eb9c x18=0x00000000
       51025000	      5101	80005ba8	3f333b93	sltiu	x23,x6,1011	  x6:0x0000000e x23=0x00000001
       51035000	      5102	80005bac	e275ad93	slti	x27,x11,-473	 x11:0x80009eb0 x27=0x00000001
       51045000	      5103	80005bb0	10bbca93	xori	x21,x23,267	 x23:0x00000001 x21=0x0000010a
       51055000	      5104	80005bb4	02339e63	bne	x7,x3,80005bf0	  x7:0x00000001  x3:0x00002150
       51065000	      5105	00000000	00000013	addi	x0,x0,0	  x0:0x00000000
       51075000	      5106	80005bec	00000013	addi	x0,x0,0	  x0:0x00000000
       51085000	      5107	80005bf0	0287c863	blt	x15,x8,80005c20	 x15:0x00002176  x8:0x80009fc4
       51095000	      5108	80005bf4	03527663	bgeu	x4,x21,80005c20	  x4:0xfffff8e8 x21:0x0000010a
       51105000	      5109	00000000	00000013	addi	x0,x0,0	  x0:0x00000000
       51115000	      5110	80005c1c	00000013	addi	x0,x0,0	  x0:0x00000000
       51125000	      5111	80005c20	00039213	slli	x4,x7,0x0	  x7:0x00000001  x4=0x00000001
       51135000	      5112	80005c24	01f0dc33	srl	x24,x1,x31	  x1:0x00000000 x31:0x00000000 x24=0x00000000
       51145000	      5113	80005c28	4086d0b3	sra	x1,x13,x8	 x13:0x00000600  x8:0x80009fc4  x1=0x00000060
       51155000	      5114	80005c2c	40f15233	sra	x4,x2,x15	  x2:0x8000a29a x15:0x00002176  x4=0xfffffe00
       51165000	      5115	80005c30	02a57663	bgeu	x10,x10,80005c5c	 x10:0x00000000 x10:0x00000000
       51175000	      5116	00000000	00000013	addi	x0,x0,0	  x0:0x00000000
       51185000	      5117	80005c58	00000013	addi	x0,x0,0	  x0:0x00000000
       51195000	      5118	80005c5c	050c1063	bne	x24,x16,80005c9c	 x24:0x00000000 x16:0xada5eb9c
       51205000	      5119	00000000	00000013	addi	x0,x0,0	  x0:0x00000000
       51215000	      5120	80005c98	00000013	addi	x0,x0,0	  x0:0x00000000
       51225000	      5121	80005c9c	e893bc93	sltiu	x25,x7,-375	  x7:0x00000001 x25=0x00000001
       51235000	      5122	80005ca0	016d0e63	beq	x26,x22,80005cbc	 x26:0x00000000 x22:0x00000000
       51245000	      5123	00000000	00000013	addi	x0,x0,0	  x0:0x00000000
       51255000	      5124	80005cb8	00000013	addi	x0,x0,0	  x0:0x00000000
       51265000	      5125	80005cbc	6f24c613	xori	x12,x9,1778	  x9:0x00000200 x12=0x000004f2
       51275000	      5126	80005cc0	419e55b3	sra	x11,x28,x25	 x28:0x00000200 x25:0x00000001 x11=0x00000100
       51285000	      5127	80005cc4	004a2083	lw	x1,4(x20)	 x20:0x80009eb0  x1=0x80005d60 PA:0x80009eb4
       51295000	      5128	80005cc8	4081d393	srai	x7,x3,0x8	  x3:0x00002150  x7=0x00000021
       51305000	      5129	80005ccc	040a0a13	addi	x20,x20,64	 x20:0x80009eb0 x20=0x80009ef0
       51315000	      5130	80005cd0	000b28b3	slt	x17,x22,x0	 x22:0x00000000  x0:0x00000000 x17=0x00000000
       51325000	      5131	80005cd4	01272eb3	slt	x29,x14,x18	 x14:0x00000000 x18:0x00000000 x29=0x00000000
       51335000	      5132	80005cd8	c1dfe813	ori	x16,x31,-995	 x31:0x00000000 x16=0xfffffc1d
       51345000	      5133	80005cdc	40fbd2b3	sra	x5,x23,x15	 x23:0x00000001 x15:0x00002176  x5=0x00000000
       51355000	      5134	80005ce0	00108893	addi	x17,x1,1	  x1:0x80005d60 x17=0x80005d61
       51365000	      5135	80005ce4	000888e7	jalr	x17,x17,0	 x17:0x80005d61 x17=0x80005ce4
       51375000	      5136	00000000	00000013	addi	x0,x0,0	  x0:0x00000000
       51385000	      5137	80005d60	00000013	addi	x0,x0,0	  x0:0x00000000
       51395000	      5138	80005d64	00bc5913	srli	x18,x24,0xb	 x24:0x00000000 x18=0x00000000
       51405000	      5139	80005d68	416dd933	sra	x18,x27,x22	 x27:0x00000001 x22:0x00000000 x18=0x00000001
       51415000	      5140	80005d6c	41b6d713	srai	x14,x13,0x1b	 x13:0x00000600 x14=0x00000000
       51425000	      5141	80005d70	0f0bfd13	andi	x26,x23,240	 x23:0x00000001 x26=0x00000000
       51435000	      5142	80005d74	64747813	andi	x16,x8,1607	  x8:0x80009fc4 x16=0x00000644
       51445000	      5143	80005d78	01dc89b3	add	x19,x25,x29	 x25:0x00000001 x29:0x00000000 x19=0x00000001
       51455000	      5144	80005d7c	017985b3	add	x11,x19,x23	 x19:0x00000001 x23:0x00000001 x11=0x00000002
       51465000	      5145	80005d80	013af633	and	x12,x21,x19	 x21:0x0000010a x19:0x00000001 x12=0x00000000
       51475000	      5146	80005d84	a79fb0ef	jal	x1,80005d84	  x1=0x80005d84
       51485000	      5147	00000000	00000013	addi	x0,x0,0	  x0:0x00000000
       51495000	      5148	800017f8	00000013	addi	x0,x0,0	  x0:0x00000000
       51505000	      5149	800017fc	00000013	addi	x0,x0,0	  x0:0x00000000
       51515000	      5150	80001800	00000013	addi	x0,x0,0	  x0:0x00000000
       51525000	      5151	80001804	01476263	bltu	x14,x20,80001808	 x14:0x00000000 x20:0x80009ef0
       51535000	      5152	00000000	00000013	addi	x0,x0,0	  x0:0x00000000
       51545000	      5153	80001804	00000013	addi	x0,x0,0	  x0:0x00000000
       51555000	      5154	80001808	fcca0a13	addi	x20,x20,-52	 x20:0x80009ef0 x20=0x80009ebc
       51565000	      5155	8000180c	00c843b3	xor	x7,x16,x12	 x16:0x00000644 x12:0x00000000  x7=0x00000644
       51575000	      5156	80001810	00bb2f33	slt	x30,x22,x11	 x22:0x00000000 x11:0x00000002 x30=0x00000001
       51585000	      5157	80001814	001a2223	sw	x1,4(x20)	 x20:0x80009ebc  x1:0x80005d84 PA:0x80009ec0
       51595000	      5158	80001818	401ad9b3	sra	x19,x21,x1	 x21:0x0000010a  x1:0x80005d84 x19=0x00000010
       51605000	      5159	8000181c	01475fb3	srl	x31,x14,x20	 x14:0x00000000 x20:0x80009ebc x31=0x00000000
       51615000	      5160	80001820	82a5eb17	auipc	x22,0x82a5e	 x22=0x02a5f81c
       51625000	      5161	80001824	41ec5833	sra	x16,x24,x30	 x24:0x00000000 x30:0x00000001 x16=0x00000000
       51635000	      5162	80001828	661af913	andi	x18,x21,1633	 x21:0x0000010a x18=0x00000000
       51645000	      5163	8000182c	00007497	auipc	x9,0x7	  x9=0x80008828
       51655000	      5164	80001830	bc148493	addi	x9,x9,-1087	  x9:0x80008828  x9=0x800083e9
       51665000	      5165	80001834	d4a4c983	lbu	x19,-694(x9)	  x9:0x800083e9 x19=0x000000e8 PA:0x80008133
       51675000	      5166	80001838	20e87613	andi	x12,x16,526	 x16:0x00000000 x12=0x00000000
       51685000	      5167	8000183c	1ac4c883	lbu	x17,428(x9)	  x9:0x800083e9 x17=0x0000004e PA:0x80008595
       51695000	      5168	80001840	14a4cb83	lbu	x23,330(x9)	  x9:0x800083e9 x23=0x000000e8 PA:0x80008533
       51705000	      5169	80001844	185484a3	sb	x5,393(x9)	  x9:0x800083e9  x5:0x00000000 PA:0x80008572
       51715000	      5170	80001848	f2c4c883	lbu	x17,-212(x9)	  x9:0x800083e9 x17=0x000000ce PA:0x80008315
       51725000	      5171	8000184c	0e248083	lb	x1,226(x9)	  x9:0x800083e9  x1=0xffffffb4 PA:0x800084cb
       51735000	      5172	80001850	d5b4d783	lhu	x15,-677(x9)	  x9:0x800083e9 x15=0x0000feff PA:0x80008144
       51745000	      5173	80001854	3ce48583	lb	x11,974(x9)	  x9:0x800083e9 x11=0x0000006c PA:0x800087b7
       51755000	      5174	80001858	f884cf03	lbu	x30,-120(x9)	  x9:0x800083e9 x30=0x0000002a PA:0x80008371
       51765000	      5175	8000185c	3e24c803	lbu	x16,994(x9)	  x9:0x800083e9 x16=0x00000080 PA:0x800087cb
       51775000	      5176	80001860	32a48283	lb	x5,810(x9)	  x9:0x800083e9  x5=0xffffffc8 PA:0x80008713
       51785000	      5177	80001864	23848e83	lb	x29,568(x9)	  x9:0x800083e9 x29=0xffffffda PA:0x80008621
       51795000	      5178	80001868	006cbeb3	sltu	x29,x25,x6	 x25:0x00000001  x6:0x0000000e x29=0x00000001
       51805000	      5179	8000186c	405cd5b3	sra	x11,x25,x5	 x25:0x00000001  x5:0xffffffc8 x11=0x00000000
       51815000	      5180	80001870	0042ceb3	xor	x29,x5,x4	  x5:0xffffffc8  x4:0xfffffe00 x29=0x000001c8
       51825000	      5181	80001874	c7148823	sb	x17,-912(x9)	  x9:0x800083e9 x17:0x000000ce PA:0x80008059
       51835000	      5182	80001878	3ee48723	sb	x14,1006(x9)	  x9:0x800083e9 x14:0x00000000 PA:0x800087d7
       51845000	      5183	8000187c	2a948e83	lb	x29,681(x9)	  x9:0x800083e9 x29=0x00000049 PA:0x80008692
       51855000	      5184	80001880	407351b3	sra	x3,x6,x7	  x6:0x0000000e  x7:0x00000644  x3=0x00000000
       51865000	      5185	80001884	1f549e03	lh	x28,501(x9)	  x9:0x800083e9 x28=0xffff9495 PA:0x800085de
       51875000	      5186	80001888	04848723	sb	x8,78(x9)	  x9:0x800083e9  x8:0x80009fc4 PA:0x80008437
       51885000	      5187	8000188c	36c494a3	sh	x12,873(x9)	  x9:0x800083e9 x12:0x00000000 PA:0x80008752
       51895000	      5188	80001890	b77b1eb7	lui	x29,0xb77b1	 x29=0xb77b1000
       51905000	      5189	80001894	09803813	sltiu	x16,x0,152	  x0:0x00000000 x16=0x00000001
       51915000	      5190	80001898	e60490a3	sh	x0,-415(x9)	  x9:0x800083e9  x0:0x00000000 PA:0x8000824a
       51925000	      5191	8000189c	1434aa83	lw	x21,323(x9)	  x9:0x800083e9 x21=0xe4e5e6e7 PA:0x8000852c
       51935000	      5192	800018a0	06b66393	ori	x7,x12,107	 x12:0x00000000  x7=0x0000006b
       51945000	      5193	800018a4	1584c003	lbu	x0,344(x9)	  x9:0x800083e9 PA:0x80008541
       51955000	      5194	800018a8	0197be33	sltu	x28,x15,x25	 x15:0x0000feff x25:0x00000001 x28=0x00000000
       51965000	      5195	800018ac	30310d93	addi	x27,x2,771	  x2:0x8000a29a x27=0x8000a59d
       51975000	      5196	800018b0	3434d383	lhu	x7,835(x9)	  x9:0x800083e9  x7=0x0000e6e7 PA:0x8000872c
       51985000	      5197	800018b4	00007217	auipc	x4,0x7	  x4=0x800088b0
       51995000	      5198	800018b8	3ba20213	addi	x4,x4,954	  x4:0x800088b0  x4=0x80008c6a
       52005000	      5199	800018bc	03225683	lhu	x13,50(x4)	  x4:0x80008c6a x13=0x00008687 PA:0x80008c9c
       52015000	      5200	800018c0	01924503	lbu	x10,25(x4)	  x4:0x80008c6a x10=0x00000068 PA:0x80008c83
       52025000	      5201	800018c4	fc320583	lb	x11,-61(x4)	  x4:0x80008c6a x11=0x00000016 PA:0x80008c2d
       52035000	      5202	800018c8	02d24d83	lbu	x27,45(x4)	  x4:0x80008c6a x27=0x000000d0 PA:0x80008c97
       52045000	      5203	800018cc	0142d2b3	srl	x5,x5,x20	  x5:0xffffffc8 x20:0x80009ebc  x5=0x0000000f
       52055000	      5204	800018d0	00000013	addi	x0,x0,0	  x0:0x00000000
       52065000	      5205	800018d4	00320523	sb	x3,10(x4)	  x4:0x80008c6a  x3:0x00000000 PA:0x80008c74
       52075000	      5206	800018d8	0183dd13	srli	x26,x7,0x18	  x7:0x0000e6e7 x26=0x00000000
       52085000	      5207	800018dc	35473397	auipc	x7,0x35473	  x7=0xb54748d8
       52095000	      5208	800018e0	fdb20da3	sb	x27,-37(x4)	  x4:0x80008c6a x27:0x000000d0 PA:0x80008c45
       52105000	      5209	800018e4	fca22323	sw	x10,-58(x4)	  x4:0x80008c6a x10:0x00000068 PA:0x80008c30
       52115000	      5210	800018e8	01699933	sll	x18,x19,x22	 x19:0x000000e8 x22:0x02a5f81c x18=0x80000000
       52125000	      5211	800018ec	637509b7	lui	x19,0x63750	 x19=0x63750000
       52135000	      5212	800018f0	004ce1b3	or	x3,x25,x4	 x25:0x00000001  x4:0x80008c6a  x3=0x80008c6b
       52145000	      5213	800018f4	00a15613	srli	x12,x2,0xa	  x2:0x8000a29a x12=0x00200028
       52155000	      5214	800018f8	01479113	slli	x2,x15,0x14	 x15:0x0000feff  x2=0xeff00000
       52165000	      5215	800018fc	7bca3193	sltiu	x3,x20,1980	 x20:0x80009ebc  x3=0x00000000
       52175000	      5216	80001900	4065d893	srai	x17,x11,0x6	 x11:0x00000016 x17=0x00000000
       52185000	      5217	80001904	fe120fa3	sb	x1,-1(x4)	  x4:0x80008c6a  x1:0xffffffb4 PA:0x80008c69
       52195000	      5218	80001908	7dd3a993	slti	x19,x7,2013	  x7:0xb54748d8 x19=0x00000001
       52205000	      5219	8000190c	ff320683	lb	x13,-13(x4)	  x4:0x80008c6a x13=0x00000046 PA:0x80008c5d
       52215000	      5220	80001910	01324683	lbu	x13,19(x4)	  x4:0x80008c6a x13=0x00000066 PA:0x80008c7d
       52225000	      5221	80001914	01b24b83	lbu	x23,27(x4)	  x4:0x80008c6a x23=0x0000006e PA:0x80008c85
       52235000	      5222	80001918	00142cb3	slt	x25,x8,x1	  x8:0x80009fc4  x1:0xffffffb4 x25=0x00000001
       52245000	      5223	8000191c	00a09ab3	sll	x21,x1,x10	  x1:0xffffffb4 x10:0x00000068 x21=0xffffb400
       52255000	      5224	80001920	00d4d113	srli	x2,x9,0xd	  x9:0x800083e9  x2=0x00040004
       52265000	      5225	80001924	034206a3	sb	x20,45(x4)	  x4:0x80008c6a x20:0x80009ebc PA:0x80008c97
       52275000	      5226	80001928	00007b17	auipc	x22,0x7	 x22=0x80008924
       52285000	      5227	8000192c	5e2b0b13	addi	x22,x22,1506	 x22:0x80008924 x22=0x80008f06
       52295000	      5228	80001930	984b0e23	sb	x4,-1636(x22)	 x22:0x80008f06  x4:0x80008c6a PA:0x800088a2
       52305000	      5229	80001934	40685893	srai	x17,x16,0x6	 x16:0x00000001 x17=0x00000000
       52315000	      5230	80001938	13822213	slti	x4,x4,312	  x4:0x80008c6a  x4=0x00000001
       52325000	      5231	8000193c	66313d13	sltiu	x26,x2,1635	  x2:0x00040004 x26=0x00000000
       52335000	      5232	80001940	979b1223	sh	x25,-1692(x22)	 x22:0x80008f06 x25:0x00000001 PA:0x8000886a
       52345000	      5233	80001944	a1db4b83	lbu	x23,-1507(x22)	 x22:0x80008f06 x23=0x00000008 PA:0x80008923
       52355000	      5234	80001948	a46b5a83	lhu	x21,-1466(x22)	 x22:0x80008f06 x21=0x00003637 PA:0x8000894c
       52365000	      5235	8000194c	f7bd6537	lui	x10,0xf7bd6	 x10=0xf7bd6000
       52375000	      5236	80001950	a081b993	sltiu	x19,x3,-1528	  x3:0x00000000 x19=0x00000001
       52385000	      5237	80001954	1b7a0013	addi	x0,x20,439	 x20:0x80009ebc
       52395000	      5238	80001958	cc8b1603	lh	x12,-824(x22)	 x22:0x80008f06 x12=0xffffb4b5 PA:0x80008bce
       52405000	      5239	8000195c	01e89213	slli	x4,x17,0x1e	 x17:0x00000000  x4=0x00000000
       52415000	      5240	80001960	961b4703	lbu	x14,-1695(x22)	 x22:0x80008f06 x14=0x0000004c PA:0x80008867
       52425000	      5241	80001964	01bbd5b3	srl	x11,x23,x27	 x23:0x00000008 x27:0x000000d0 x11=0x00000000
       52435000	      5242	80001968	a05b4d03	lbu	x26,-1531(x22)	 x22:0x80008f06 x26=0x000000f0 PA:0x8000890b
       52445000	      5243	8000196c	cabb0a83	lb	x21,-853(x22)	 x22:0x80008f06 x21=0xffffff9a PA:0x80008bb1
       52455000	      5244	80001970	003f9e33	sll	x28,x31,x3	 x31:0x00000000  x3:0x00000000 x28=0x00000000
       52465000	      5245	80001974	01d85a93	srli	x21,x16,0x1d	 x16:0x00000001 x21=0x00000000
       52475000	      5246	80001978	017c32b3	sltu	x5,x24,x23	 x24:0x00000000 x23:0x00000008  x5=0x00000001
       52485000	      5247	8000197c	ab07e493	ori	x9,x15,-1360	 x15:0x0000feff  x9=0xfffffeff
       52495000	      5248	80001980	ce0b5803	lhu	x16,-800(x22)	 x22:0x80008f06 x16=0x0000cccd PA:0x80008be6
       52505000	      5249	80001984	0b27cc13	xori	x24,x15,178	 x15:0x0000feff x24=0x0000fe4d
       52515000	      5250	80001988	07fb4483	lbu	x9,127(x22)	 x22:0x80008f06  x9=0x0000006e PA:0x80008f85
       52525000	      5251	8000198c	7bf08713	addi	x14,x1,1983	  x1:0xffffffb4 x14=0x00000773
       52535000	      5252	80001990	00000013	addi	x0,x0,0	  x0:0x00000000
       52545000	      5253	80001994	cd7b4483	lbu	x9,-809(x22)	 x22:0x80008f06  x9=0x000000c6 PA:0x80008bdd
       52555000	      5254	80001998	00db1023	sh	x13,0(x22)	 x22:0x80008f06 x13:0x00000066 PA:0x80008f06
       52565000	      5255	8000199c	419907b3	sub	x15,x18,x25	 x18:0x80000000 x25:0x00000001 x15=0x7fffffff
       52575000	      5256	800019a0	41465193	srai	x3,x12,0x14	 x12:0xffffb4b5  x3=0xffffffff
       52585000	      5257	800019a4	ce4b0f23	sb	x4,-770(x22)	 x22:0x80008f06  x4:0x00000000 PA:0x80008c04
       52595000	      5258	800019a8	e5eb4283	lbu	x5,-418(x22)	 x22:0x80008f06  x5=0x0000004f PA:0x80008d64
       52605000	      5259	800019ac	977b1a23	sh	x23,-1676(x22)	 x22:0x80008f06 x23:0x00000008 PA:0x8000887a
       52615000	      5260	800019b0	00007a97	auipc	x21,0x7	 x21=0x800089ac
       52625000	      5261	800019b4	b2aa8a93	addi	x21,x21,-1238	 x21:0x800089ac x21=0x800084d6
       52635000	      5262	800019b8	96b53c17	auipc	x24,0x96b53	 x24=0x16b549b4
       52645000	      5263	800019bc	ff8a88a3	sb	x24,-15(x21)	 x21:0x800084d6 x24:0x16b549b4 PA:0x800084c7
       52655000	      5264	800019c0	19632f13	slti	x30,x6,406	  x6:0x0000000e x30=0x00000001
       52665000	      5265	800019c4	fffa8b03	lb	x22,-1(x21)	 x21:0x800084d6 x22=0xffffff8e PA:0x800084d5
       52675000	      5266	800019c8	001a8503	lb	x10,1(x21)	 x21:0x800084d6 x10=0xffffff9f PA:0x800084d7
       52685000	      5267	800019cc	ff2a8883	lb	x17,-14(x21)	 x21:0x800084d6 x17=0xffffff83 PA:0x800084c8
       52695000	      5268	800019d0	fffa8903	lb	x18,-1(x21)	 x21:0x800084d6 x18=0xffffff8e PA:0x800084d5
       52705000	      5269	800019d4	008c28b3	slt	x17,x24,x8	 x24:0x16b549b4  x8:0x80009fc4 x17=0x00000000
       52715000	      5270	800019d8	00ca8883	lb	x17,12(x21)	 x21:0x800084d6 x17=0xffffff99 PA:0x800084e2
       52725000	      5271	800019dc	400c05b3	sub	x11,x24,x0	 x24:0x16b549b4  x0:0x00000000 x11=0x16b549b4
       52735000	      5272	800019e0	ff6a8883	lb	x17,-10(x21)	 x21:0x800084d6 x17=0xfffffff0 PA:0x800084cc
       52745000	      5273	800019e4	01eed393	srli	x7,x29,0x1e	 x29:0xb77b1000  x7=0x00000002
       52755000	      5274	800019e8	ff5acc03	lbu	x24,-11(x21)	 x21:0x800084d6 x24=0x000000b4 PA:0x800084cb
       52765000	      5275	800019ec	8848a693	slti	x13,x17,-1916	 x17:0xfffffff0 x13=0x00000000
       52775000	      5276	800019f0	01cab3b3	sltu	x7,x21,x28	 x21:0x800084d6 x28:0x00000000  x7=0x00000000
       52785000	      5277	800019f4	feba8aa3	sb	x11,-11(x21)	 x21:0x800084d6 x11:0x16b549b4 PA:0x800084cb
       52795000	      5278	800019f8	dfe13013	sltiu	x0,x2,-514	  x2:0x00040004
       52805000	      5279	800019fc	ffca9103	lh	x2,-4(x21)	 x21:0x800084d6  x2=0xffff8889 PA:0x800084d2
       52815000	      5280	80001a00	7f8dcb13	xori	x22,x27,2040	 x27:0x000000d0 x22=0x00000728
       52825000	      5281	80001a04	8a590693	addi	x13,x18,-1883	 x18:0xffffff8e x13=0xfffff833
       52835000	      5282	80001a08	871bc913	xori	x18,x23,-1935	 x23:0x00000008 x18=0xfffff879
       52845000	      5283	80001a0c	fce83713	sltiu	x14,x16,-50	 x16:0x0000cccd x14=0x00000001
       52855000	      5284	80001a10	005a8383	lb	x7,5(x21)	 x21:0x800084d6  x7=0xffffff90 PA:0x800084db
       52865000	      5285	80001a14	01aa8223	sb	x26,4(x21)	 x21:0x800084d6 x26:0x000000f0 PA:0x800084da
       52875000	      5286	80001a18	01154833	xor	x16,x10,x17	 x10:0xffffff9f x17:0xfffffff0 x16=0x0000006f
       52885000	      5287	80001a1c	012a8723	sb	x18,14(x21)	 x21:0x800084d6 x18:0xfffff879 PA:0x800084e4
       52895000	      5288	80001a20	63b397b7	lui	x15,0x63b39	 x15=0x63b39000
       52905000	      5289	80001a24	3e8d0993	addi	x19,x26,1000	 x26:0x000000f0 x19=0x000004d8
       52915000	      5290	80001a28	54b8c897	auipc	x17,0x54b8c	 x17=0xd4b8da24
       52925000	      5291	80001a2c	289de493	ori	x9,x27,649	 x27:0x000000d0  x9=0x000002d9
       52935000	      5292	80001a30	ff4a89a3	sb	x20,-13(x21)	 x21:0x800084d6 x20:0x80009ebc PA:0x800084c9
       52945000	      5293	80001a34	00000013	addi	x0,x0,0	  x0:0x00000000
       52955000	      5294	80001a38	ff3ac283	lbu	x5,-13(x21)	 x21:0x800084d6  x5=0x000000bc PA:0x800084c9
       52965000	      5295	80001a3c	ffaa8b23	sb	x26,-10(x21)	 x21:0x800084d6 x26:0x000000f0 PA:0x800084cc
       52975000	      5296	80001a40	418fd893	srai	x17,x31,0x18	 x31:0x00000000 x17=0x00000000
       52985000	      5297	80001a44	1176ae93	slti	x29,x13,279	 x13:0xfffff833 x29=0x00000001
       52995000	      5298	80001a48	f8597113	andi	x2,x18,-123	 x18:0xfffff879  x2=0xfffff801
       53005000	      5299	80001a4c	401b5233	sra	x4,x22,x1	 x22:0x00000728  x1:0xffffffb4  x4=0x00000000
       53015000	      5300	80001a50	00eacc83	lbu	x25,14(x21)	 x21:0x800084d6 x25=0x00000079 PA:0x800084e4
       53025000	      5301	80001a54	ffaa9883	lh	x17,-6(x21)	 x21:0x800084d6 x17=0xffff8a8b PA:0x800084d0
       53035000	      5302	80001a58	33049697	auipc	x13,0x33049	 x13=0xb304aa54
       53045000	      5303	80001a5c	01050f33	add	x30,x10,x16	 x10:0xffffff9f x16:0x0000006f x30=0x0000000e
       53055000	      5304	80001a60	ff8a9c03	lh	x24,-8(x21)	 x21:0x800084d6 x24=0xffff846c PA:0x800084ce
       53065000	      5305	80001a64	00aace83	lbu	x29,10(x21)	 x21:0x800084d6 x29=0x0000009b PA:0x800084e0
       53075000	      5306	80001a68	017cfeb3	and	x29,x25,x23	 x25:0x00000079 x23:0x00000008 x29=0x00000008
       53085000	      5307	80001a6c	2cbe7037	lui	x0,0x2cbe7	
       53095000	      5308	80001a70	01d4cd33	xor	x26,x9,x29	  x9:0x000002d9 x29:0x00000008 x26=0x000002d1
       53105000	      5309	80001a74	000e7e33	and	x28,x28,x0	 x28:0x00000000  x0:0x00000000 x28=0x00000000
       53115000	      5310	80001a78	41760b33	sub	x22,x12,x23	 x12:0xffffb4b5 x23:0x00000008 x22=0xffffb4ad
       53125000	      5311	80001a7c	002ad203	lhu	x4,2(x21)	 x21:0x800084d6  x4=0x00009293 PA:0x800084d8
       53135000	      5312	80001a80	00007a97	auipc	x21,0x7	 x21=0x80008a7c
       53145000	      5313	80001a84	31da8a93	addi	x21,x21,797	 x21:0x80008a7c x21=0x80008d99
       53155000	      5314	80001a88	41af5d13	srai	x26,x30,0x1a	 x30:0x0000000e x26=0x00000000
       53165000	      5315	80001a8c	057a9d83	lh	x27,87(x21)	 x21:0x80008d99 x27=0xffffdadb PA:0x80008df0
       53175000	      5316	00000000	00000013	addi	x0,x0,0	  x0:0x00000000
       53185000	      5317	80001a90	41bf5b33	sra	x22,x30,x27	 x30:0x0000000e x27:0xffffdadb x22=0x00000000
       53195000	      5318	80001a94	0cda8b03	lb	x22,205(x21)	 x21:0x80008d99 x22=0x0000004d PA:0x80008e66
       53205000	      5319	80001a98	986e6113	ori	x2,x28,-1658	 x28:0x00000000  x2=0xfffff986
       53215000	      5320	80001a9c	f7d70593	addi	x11,x14,-131	 x14:0x00000001 x11=0xffffff7e
       53225000	      5321	80001aa0	26bc3e93	sltiu	x29,x24,619	 x24:0xffff846c x29=0x00000000
       53235000	      5322	80001aa4	f14ac003	lbu	x0,-236(x21)	 x21:0x80008d99 PA:0x80008cad
       53245000	      5323	80001aa8	fe3a8d23	sb	x3,-6(x21)	 x21:0x80008d99  x3:0xffffffff PA:0x80008d93
       53255000	      5324	80001aac	f4e0e113	ori	x2,x1,-178	  x1:0xffffffb4  x2=0xfffffffe
       53265000	      5325	80001ab0	41035fb3	sra	x31,x6,x16	  x6:0x0000000e x16:0x0000006f x31=0x00000000
       53275000	      5326	80001ab4	7b95c637	lui	x12,0x7b95c	 x12=0x7b95c000
       53285000	      5327	80001ab8	f9badd03	lhu	x26,-101(x21)	 x21:0x80008d99 x26=0x00001e1f PA:0x80008d34
       53295000	      5328	80001abc	073a8a23	sb	x19,116(x21)	 x21:0x80008d99 x19:0x000004d8 PA:0x80008e0d
       53305000	      5329	80001ac0	014a9cb3	sll	x25,x21,x20	 x21:0x80008d99 x20:0x80009ebc x25=0x90000000
       53315000	      5330	80001ac4	ff5a8d23	sb	x21,-6(x21)	 x21:0x80008d99 x21:0x80008d99 PA:0x80008d93
       53325000	      5331	80001ac8	00ebfcb3	and	x25,x23,x14	 x23:0x00000008 x14:0x00000001 x25=0x00000000
       53335000	      5332	80001acc	056a94a3	sh	x22,73(x21)	 x21:0x80008d99 x22:0x0000004d PA:0x80008de2
       53345000	      5333	80001ad0	0c1a8823	sb	x1,208(x21)	 x21:0x80008d99  x1:0xffffffb4 PA:0x80008e69
       53355000	      5334	80001ad4	008d5213	srli	x4,x26,0x8	 x26:0x00001e1f  x4=0x0000001e
       53365000	      5335	80001ad8	fc1a8e83	lb	x29,-63(x21)	 x21:0x80008d99 x29=0x00000041 PA:0x80008d5a
       53375000	      5336	00000000	00000013	addi	x0,x0,0	  x0:0x00000000
       53385000	      5337	80001adc	c3de6393	ori	x7,x28,-963	 x28:0x00000000  x7=0xfffffc3d
       53395000	      5338	80001ae0	048a8b23	sb	x8,86(x21)	 x21:0x80008d99  x8:0x80009fc4 PA:0x80008def
       53405000	      5339	80001ae4	00d4a2b3	slt	x5,x9,x13	  x9:0x000002d9 x13:0xb304aa54  x5=0x00000000
       53415000	      5340	80001ae8	0f8a84a3	sb	x24,233(x21)	 x21:0x80008d99 x24:0xffff846c PA:0x80008e82
       53425000	      5341	80001aec	002ecfb3	xor	x31,x29,x2	 x29:0x00000041  x2:0xfffffffe x31=0xffffffbf
       53435000	      5342	80001af0	40bfd633	sra	x12,x31,x11	 x31:0xffffffbf x11:0xffffff7e x12=0xffffffff
       53445000	      5343	80001af4	fe5ad883	lhu	x17,-27(x21)	 x21:0x80008d99 x17=0x00006465 PA:0x80008d7e
       53455000	      5344	80001af8	0b9ac483	lbu	x9,185(x21)	 x21:0x80008d99  x9=0x00000039 PA:0x80008e52
       53465000	      5345	80001afc	fd7ad583	lhu	x11,-41(x21)	 x21:0x80008d99 x11=0x00005a5b PA:0x80008d70
       53475000	      5346	80001b00	01bf13b3	sll	x7,x30,x27	 x30:0x0000000e x27:0xffffdadb  x7=0x70000000
       53485000	      5347	80001b04	010315b3	sll	x11,x6,x16	  x6:0x0000000e x16:0x0000006f x11=0x00070000
       53495000	      5348	80001b08	40990b33	sub	x22,x18,x9	 x18:0xfffff879  x9:0x00000039 x22=0xfffff840
       53505000	      5349	80001b0c	41dc8eb3	sub	x29,x25,x29	 x25:0x00000000 x29:0x00000041 x29=0xffffffbf
       53515000	      5350	80001b10	fdfa9e03	lh	x28,-33(x21)	 x21:0x80008d99 x28=0x00006263 PA:0x80008d78
       53525000	      5351	80001b14	0f9ef713	andi	x14,x29,249	 x29:0xffffffbf x14=0x000000b9
       53535000	      5352	80001b18	589f4613	xori	x12,x30,1417	 x30:0x0000000e x12=0x00000587
       53545000	      5353	80001b1c	01b35013	srli	x0,x6,0x1b	  x6:0x0000000e
       53555000	      5354	80001b20	099a9483	lh	x9,153(x21)	 x21:0x80008d99  x9=0x00001819 PA:0x80008e32
       53565000	      5355	80001b24	fcfaa803	lw	x16,-49(x21)	 x21:0x80008d99 x16=0x50515253 PA:0x80008d68
       53575000	      5356	80001b28	063ad903	lhu	x18,99(x21)	 x21:0x80008d99 x18=0x0000e6e7 PA:0x80008dfc
       53585000	      5357	80001b2c	000de5b3	or	x11,x27,x0	 x27:0xffffdadb  x0:0x00000000 x11=0xffffdadb
       53595000	      5358	80001b30	40e30833	sub	x16,x6,x14	  x6:0x0000000e x14:0x000000b9 x16=0xffffff55
       53605000	      5359	80001b34	0f9a91a3	sh	x25,227(x21)	 x21:0x80008d99 x25:0x00000000 PA:0x80008e7c
       53615000	      5360	80001b38	00000013	addi	x0,x0,0	  x0:0x00000000
       53625000	      5361	80001b3c	017aa003	lw	x0,23(x21)	 x21:0x80008d99 PA:0x80008db0
       53635000	      5362	80001b40	f63a8fa3	sb	x3,-129(x21)	 x21:0x80008d99  x3:0xffffffff PA:0x80008d18
       53645000	      5363	80001b44	f28a88a3	sb	x8,-207(x21)	 x21:0x80008d99  x8:0x80009fc4 PA:0x80008cca
       53655000	      5364	80001b48	008acc03	lbu	x24,8(x21)	 x21:0x80008d99 x24=0x0000008a PA:0x80008da1
       53665000	      5365	80001b4c	033ad783	lhu	x15,51(x21)	 x21:0x80008d99 x15=0x00000000 PA:0x80008dcc
       53675000	      5366	80001b50	5c874613	xori	x12,x14,1480	 x14:0x000000b9 x12=0x00000571
       53685000	      5367	80001b54	015d9513	slli	x10,x27,0x15	 x27:0xffffdadb x10=0x5b600000
       53695000	      5368	80001b58	00c74933	xor	x18,x14,x12	 x14:0x000000b9 x12:0x00000571 x18=0x000005c8
       53705000	      5369	80001b5c	01dd5d93	srli	x27,x26,0x1d	 x26:0x00001e1f x27=0x00000000
       53715000	      5370	80001b60	05ba8323	sb	x27,70(x21)	 x21:0x80008d99 x27:0x00000000 PA:0x80008ddf
       53725000	      5371	80001b64	031a8ca3	sb	x17,57(x21)	 x21:0x80008d99 x17:0x00006465 PA:0x80008dd2
       53735000	      5372	80001b68	00007117	auipc	x2,0x7	  x2=0x80008b64
       53745000	      5373	80001b6c	fbb10113	addi	x2,x2,-69	  x2:0x80008b64  x2=0x80008b1f
       53755000	      5374	80001b70	e2c8a793	slti	x15,x17,-468	 x17:0x00006465 x15=0x00000000
       53765000	      5375	80001b74	f3710083	lb	x1,-201(x2)	  x2:0x80008b1f  x1=0x0000003d PA:0x80008a56
       53775000	      5376	80001b78	f3910883	lb	x17,-199(x2)	  x2:0x80008b1f x17=0x00000043 PA:0x80008a58
       53785000	      5377	80001b7c	c690ad13	slti	x26,x1,-919	  x1:0x0000003d x26=0x00000000
       53795000	      5378	80001b80	02414183	lbu	x3,36(x2)	  x2:0x80008b1f  x3=0x00000028 PA:0x80008b43
       53805000	      5379	80001b84	fa810f83	lb	x31,-88(x2)	  x2:0x80008b1f x31=0xffffffac PA:0x80008ac7
       53815000	      5380	80001b88	0db10203	lb	x4,219(x2)	  x2:0x80008b1f  x4=0xffffffe1 PA:0x80008bfa
       53825000	      5381	80001b8c	41b6db93	srai	x23,x13,0x1b	 x13:0xb304aa54 x23=0xfffffff6
       53835000	      5382	80001b90	015c6933	or	x18,x24,x21	 x24:0x0000008a x21:0x80008d99 x18=0x80008d9b
       53845000	      5383	80001b94	07714d03	lbu	x26,119(x2)	  x2:0x80008b1f x26=0x0000007d PA:0x80008b96
       53855000	      5384	80001b98	07f10603	lb	x12,127(x2)	  x2:0x80008b1f x12=0xffffff85 PA:0x80008b9e
       53865000	      5385	80001b9c	0dc14703	lbu	x14,220(x2)	  x2:0x80008b1f x14=0x000000e0 PA:0x80008bfb
       53875000	      5386	80001ba0	f1414503	lbu	x10,-236(x2)	  x2:0x80008b1f x10=0x00000018 PA:0x80008a33
       53885000	      5387	80001ba4	00000013	addi	x0,x0,0	  x0:0x00000000
       53895000	      5388	80001ba8	01911683	lh	x13,25(x2)	  x2:0x80008b1f x13=0x00002223 PA:0x80008b38
       53905000	      5389	80001bac	fc710c83	lb	x25,-57(x2)	  x2:0x80008b1f x25=0xffffffcd PA:0x80008ae6
       53915000	      5390	80001bb0	09a14a83	lbu	x21,154(x2)	  x2:0x80008b1f x21=0x000000a2 PA:0x80008bb9
       53925000	      5391	80001bb4	4137d993	srai	x19,x15,0x13	 x15:0x00000000 x19=0x00000000
       53935000	      5392	80001bb8	04f11ba3	sh	x15,87(x2)	  x2:0x80008b1f x15:0x00000000 PA:0x80008b76
       53945000	      5393	80001bbc	0db10983	lb	x19,219(x2)	  x2:0x80008b1f x19=0xffffffe1 PA:0x80008bfa
       53955000	      5394	00000000	00000013	addi	x0,x0,0	  x0:0x00000000
       53965000	      5395	80001bc0	0f315883	lhu	x17,243(x2)	  x2:0x80008b1f x17=0x0000f8f9 PA:0x80008c12
       53975000	      5396	80001bc4	f1d126a3	sw	x29,-243(x2)	  x2:0x80008b1f x29:0xffffffbf PA:0x80008a2c
       53985000	      5397	80001bc8	fad15703	lhu	x14,-83(x2)	  x2:0x80008b1f x14=0x0000b6b7 PA:0x80008acc
       53995000	      5398	80001bcc	06014d83	lbu	x27,96(x2)	  x2:0x80008b1f x27=0x00000064 PA:0x80008b7f
       54005000	      5399	80001bd0	02111183	lh	x3,33(x2)	  x2:0x80008b1f  x3=0x00002a2b PA:0x80008b40
       54015000	      5400	00000000	00000013	addi	x0,x0,0	  x0:0x00000000
       54025000	      5401	80001bd4	00369fb3	sll	x31,x13,x3	 x13:0x00002223  x3:0x00002a2b x31=0x01111800
       54035000	      5402	80001bd8	fbd10223	sb	x29,-92(x2)	  x2:0x80008b1f x29:0xffffffbf PA:0x80008ac3
       54045000	      5403	80001bdc	fe5112a3	sh	x5,-27(x2)	  x2:0x80008b1f  x5:0x00000000 PA:0x80008b04
       54055000	      5404	80001be0	4190d393	srai	x7,x1,0x19	  x1:0x0000003d  x7=0x00000000
       54065000	      5405	80001be4	06510223	sb	x5,100(x2)	  x2:0x80008b1f  x5:0x00000000 PA:0x80008b83
       54075000	      5406	80001be8	0c715703	lhu	x14,199(x2)	  x2:0x80008b1f x14=0x0000cccd PA:0x80008be6
       54085000	      5407	80001bec	0e810ba3	sb	x8,247(x2)	  x2:0x80008b1f  x8:0x80009fc4 PA:0x80008c16
       54095000	      5408	80001bf0	0c7111a3	sh	x7,195(x2)	  x2:0x80008b1f  x7:0x00000000 PA:0x80008be2
       54105000	      5409	80001bf4	01f7c2b3	xor	x5,x15,x31	 x15:0x00000000 x31:0x01111800  x5=0x01111800
       54115000	      5410	80001bf8	fa715d83	lhu	x27,-89(x2)	  x2:0x80008b1f x27=0x0000acad PA:0x80008ac6
       54125000	      5411	80001bfc	00071233	sll	x4,x14,x0	 x14:0x0000cccd  x0:0x00000000  x4=0x0000cccd
       54135000	      5412	80001c00	40e45633	sra	x12,x8,x14	  x8:0x80009fc4 x14:0x0000cccd x12=0xfffc0004
       54145000	      5413	80001c04	fa314503	lbu	x10,-93(x2)	  x2:0x80008b1f x10=0x000000a9 PA:0x80008ac2
       54155000	      5414	80001c08	00006697	auipc	x13,0x6	 x13=0x80007c04
       54165000	      5415	80001c0c	79868693	addi	x13,x13,1944	 x13:0x80007c04 x13=0x8000839c
       54175000	      5416	80001c10	366f7b93	andi	x23,x30,870	 x30:0x0000000e x23=0x00000006
       54185000	      5417	80001c14	6e72af13	slti	x30,x5,1767	  x5:0x01111800 x30=0x00000000
       54195000	      5418	80001c18	40205a93	srai	x21,x0,0x2	  x0:0x00000000 x21=0x00000000
       54205000	      5419	80001c1c	005c2733	slt	x14,x24,x5	 x24:0x0000008a  x5:0x01111800 x14=0x00000001
       54215000	      5420	80001c20	017b8933	add	x18,x23,x23	 x23:0x00000006 x23:0x00000006 x18=0x0000000c
       54225000	      5421	80001c24	31769923	sh	x23,786(x13)	 x13:0x8000839c x23:0x00000006 PA:0x800086ae
       54235000	      5422	80001c28	d7d6ae23	sw	x29,-644(x13)	 x13:0x8000839c x29:0xffffffbf PA:0x80008118
       54245000	      5423	80001c2c	00f6ca83	lbu	x21,15(x13)	 x13:0x8000839c x21=0x00000060 PA:0x800083ab
       54255000	      5424	80001c30	2c269b83	lh	x23,706(x13)	 x13:0x8000839c x23=0x00001415 PA:0x8000865e
       54265000	      5425	80001c34	ee868d83	lb	x27,-280(x13)	 x13:0x8000839c x27=0x0000003f PA:0x80008284
       54275000	      5426	80001c38	018a8b33	add	x22,x21,x24	 x21:0x00000060 x24:0x0000008a x22=0x000000ea
       54285000	      5427	80001c3c	68bb3c13	sltiu	x24,x22,1675	 x22:0x000000ea x24=0x00000001
       54295000	      5428	80001c40	11306c93	ori	x25,x0,275	  x0:0x00000000 x25=0x00000113
       54305000	      5429	80001c44	00000013	addi	x0,x0,0	  x0:0x00000000
       54315000	      5430	80001c48	59452d93	slti	x27,x10,1428	 x10:0x000000a9 x27=0x00000001
       54325000	      5431	80001c4c	dd968983	lb	x19,-551(x13)	 x13:0x8000839c x19=0x0000002e PA:0x80008175
       54335000	      5432	80001c50	f9f68aa3	sb	x31,-107(x13)	 x13:0x8000839c x31:0x01111800 PA:0x80008331
       54345000	      5433	80001c54	f1568b03	lb	x22,-235(x13)	 x13:0x8000839c x22=0x0000006a PA:0x800082b1
       54355000	      5434	80001c58	11168fa3	sb	x17,287(x13)	 x13:0x8000839c x17:0x0000f8f9 PA:0x800084bb
       54365000	      5435	80001c5c	01f2ad33	slt	x26,x5,x31	  x5:0x01111800 x31:0x01111800 x26=0x00000000
       54375000	      5436	80001c60	01024db3	xor	x27,x4,x16	  x4:0x0000cccd x16:0xffffff55 x27=0xffff3398
       54385000	      5437	80001c64	00000013	addi	x0,x0,0	  x0:0x00000000
       54395000	      5438	80001c68	778a0013	addi	x0,x20,1912	 x20:0x80009ebc
       54405000	      5439	80001c6c	39d83293	sltiu	x5,x16,925	 x16:0xffffff55  x5=0x00000000
       54415000	      5440	80001c70	00cd33b3	sltu	x7,x26,x12	 x26:0x00000000 x12:0xfffc0004  x7=0x00000001
       54425000	      5441	80001c74	0120deb3	srl	x29,x1,x18	  x1:0x0000003d x18:0x0000000c x29=0x00000000
       54435000	      5442	80001c78	01349db3	sll	x27,x9,x19	  x9:0x00001819 x19:0x0000002e x27=0x06064000
       54445000	      5443	80001c7c	25810393	addi	x7,x2,600	  x2:0x80008b1f  x7=0x80008d77
       54455000	      5444	80001c80	00fc0ab3	add	x21,x24,x15	 x24:0x00000001 x15:0x00000000 x21=0x00000001
       54465000	      5445	80001c84	7fdb9ab7	lui	x21,0x7fdb9	 x21=0x7fdb9000
       54475000	      5446	80001c88	99786c93	ori	x25,x16,-1641	 x16:0xffffff55 x25=0xffffffd7
       54485000	      5447	80001c8c	f296c783	lbu	x15,-215(x13)	 x13:0x8000839c x15=0x0000007e PA:0x800082c5
       54495000	      5448	80001c90	a116af93	slti	x31,x13,-1519	 x13:0x8000839c x31=0x00000001
       54505000	      5449	80001c94	007217b3	sll	x15,x4,x7	  x4:0x0000cccd  x7:0x80008d77 x15=0x66800000
       54515000	      5450	80001c98	ff268b83	lb	x23,-14(x13)	 x13:0x8000839c x23=0x00000045 PA:0x8000838e
       54525000	      5451	80001c9c	00007d97	auipc	x27,0x7	 x27=0x80008c98
       54535000	      5452	80001ca0	0fdd8d93	addi	x27,x27,253	 x27:0x80008c98 x27=0x80008d95
       54545000	      5453	80001ca4	01651933	sll	x18,x10,x22	 x10:0x000000a9 x22:0x0000006a x18=0x0002a400
       54555000	      5454	80001ca8	08cd8823	sb	x12,144(x27)	 x27:0x80008d95 x12:0xfffc0004 PA:0x80008e25
       54565000	      5455	80001cac	1a4dc903	lbu	x18,420(x27)	 x27:0x80008d95 x18=0x00000022 PA:0x80008f39
       54575000	      5456	80001cb0	b98d91a3	sh	x24,-1149(x27)	 x27:0x80008d95 x24:0x00000001 PA:0x80008918
       54585000	      5457	80001cb4	dead8283	lb	x5,-534(x27)	 x27:0x80008d95  x5=0x00000064 PA:0x80008b7f
       54595000	      5458	80001cb8	1f4d94a3	sh	x20,489(x27)	 x27:0x80008d95 x20:0x80009ebc PA:0x80008f7e
       54605000	      5459	80001cbc	0130f5b3	and	x11,x1,x19	  x1:0x0000003d x19:0x0000002e x11=0x0000002c
       54615000	      5460	80001cc0	012f9493	slli	x9,x31,0x12	 x31:0x00000001  x9=0x00040000
       54625000	      5461	80001cc4	c14dc283	lbu	x5,-1004(x27)	 x27:0x80008d95  x5=0x00000092 PA:0x800089a9
       54635000	      5462	80001cc8	40b859b3	sra	x19,x16,x11	 x16:0xffffff55 x11:0x0000002c x19=0xffffffff
       54645000	      5463	80001ccc	565e6f13	ori	x30,x28,1381	 x28:0x00006263 x30=0x00006767
       54655000	      5464	80001cd0	e5453497	auipc	x9,0xe5453	  x9=0x65454ccc
       54665000	      5465	80001cd4	00f03633	sltu	x12,x0,x15	  x0:0x00000000 x15:0x66800000 x12=0x00000001
       54675000	      5466	80001cd8	40b3d993	srai	x19,x7,0xb	  x7:0x80008d77 x19=0xfff00011
       54685000	      5467	80001cdc	ec3d9703	lh	x14,-317(x27)	 x27:0x80008d95 x14=0x00004243 PA:0x80008c58
       54695000	      5468	80001ce0	002d9013	slli	x0,x27,0x2	 x27:0x80008d95
       54705000	      5469	80001ce4	00061193	slli	x3,x12,0x0	 x12:0x00000001  x3=0x00000001
       54715000	      5470	80001ce8	4086dd13	srai	x26,x13,0x8	 x13:0x8000839c x26=0xff800083
       54725000	      5471	80001cec	f49dcf83	lbu	x31,-183(x27)	 x27:0x80008d95 x31=0x000000c5 PA:0x80008cde
       54735000	      5472	80001cf0	e16dc383	lbu	x7,-490(x27)	 x27:0x80008d95  x7=0x00000090 PA:0x80008bab
       54745000	      5473	00000000	00000013	addi	x0,x0,0	  x0:0x00000000
       54755000	      5474	80001cf4	ce7dae03	lw	x28,-793(x27)	 x27:0x80008d95 x28=0x64656667 PA:0x80008a7c
       54765000	      5475	80001cf8	f32d8383	lb	x7,-206(x27)	 x27:0x80008d95  x7=0xffffffac PA:0x80008cc7
       54775000	      5476	80001cfc	013f2933	slt	x18,x30,x19	 x30:0x00006767 x19:0xfff00011 x18=0x00000000
       54785000	      5477	80001d00	b9edc383	lbu	x7,-1122(x27)	 x27:0x80008d95  x7=0x00000018 PA:0x80008933
       54795000	      5478	80001d04	01775813	srli	x16,x14,0x17	 x14:0x00004243 x16=0x00000000
       54805000	      5479	80001d08	00000013	addi	x0,x0,0	  x0:0x00000000
       54815000	      5480	80001d0c	192dcf83	lbu	x31,402(x27)	 x27:0x80008d95 x31=0x0000000c PA:0x80008f27
       54825000	      5481	80001d10	013dc803	lbu	x16,19(x27)	 x27:0x80008d95 x16=0x00000093 PA:0x80008da8
       54835000	      5482	80001d14	b1ed8803	lb	x16,-1250(x27)	 x27:0x80008d95 x16=0xffffff98 PA:0x800088b3
       54845000	      5483	80001d18	41db5f93	srai	x31,x22,0x1d	 x22:0x0000006a x31=0x00000000
       54855000	      5484	80001d1c	00000013	addi	x0,x0,0	  x0:0x00000000
       54865000	      5485	80001d20	45c94393	xori	x7,x18,1116	 x18:0x00000000  x7=0x0000045c
       54875000	      5486	80001d24	030aea63	bltu	x21,x16,80001d58	 x21:0x7fdb9000 x16:0xffffff98
       54885000	      5487	00000000	00000013	addi	x0,x0,0	  x0:0x00000000
       54895000	      5488	80001d54	00000013	addi	x0,x0,0	  x0:0x00000000
       54905000	      5489	80001d58	01e68863	beq	x13,x30,80001d68	 x13:0x8000839c x30:0x00006767
       54915000	      5490	80001d5c	00fbe0b3	or	x1,x23,x15	 x23:0x00000045 x15:0x66800000  x1=0x66800045
       54925000	      5491	80001d60	0079de93	srli	x29,x19,0x7	 x19:0xfff00011 x29=0x01ffe000
       54935000	      5492	80001d64	01d158b3	srl	x17,x2,x29	  x2:0x80008b1f x29:0x01ffe000 x17=0x80008b1f
       54945000	      5493	80001d68	9f043493	sltiu	x9,x8,-1552	  x8:0x80009fc4  x9=0x00000001
       54955000	      5494	80001d6c	00aede63	bge	x29,x10,80001d88	 x29:0x01ffe000 x10:0x000000a9
       54965000	      5495	00000000	00000013	addi	x0,x0,0	  x0:0x00000000
       54975000	      5496	80001d84	00000013	addi	x0,x0,0	  x0:0x00000000
       54985000	      5497	80001d88	00883db3	sltu	x27,x16,x8	 x16:0xffffff98  x8:0x80009fc4 x27=0x00000000
       54995000	      5498	80001d8c	3947eb93	ori	x23,x15,916	 x15:0x66800000 x23=0x66800394
       55005000	      5499	80001d90	053a4663	blt	x20,x19,80001ddc	 x20:0x80009ebc x19:0xfff00011
       55015000	      5500	00000000	00000013	addi	x0,x0,0	  x0:0x00000000
       55025000	      5501	80001dd8	00000013	addi	x0,x0,0	  x0:0x00000000
       55035000	      5502	80001ddc	bcc07813	andi	x16,x0,-1076	  x0:0x00000000 x16=0x00000000
       55045000	      5503	80001de0	2b524993	xori	x19,x4,693	  x4:0x0000cccd x19=0x0000ce78
       55055000	      5504	80001de4	9861ea93	ori	x21,x3,-1658	  x3:0x00000001 x21=0xfffff987
       55065000	      5505	80001de8	011ad233	srl	x4,x21,x17	 x21:0xfffff987 x17:0x80008b1f  x4=0x00000001
       55075000	      5506	80001dec	41ec8133	sub	x2,x25,x30	 x25:0xffffffd7 x30:0x00006767  x2=0xffff9870
       55085000	      5507	80001df0	047c6263	bltu	x24,x7,80001e34	 x24:0x00000001  x7:0x0000045c
       55095000	      5508	00000000	00000013	addi	x0,x0,0	  x0:0x00000000
       55105000	      5509	80001e30	00000013	addi	x0,x0,0	  x0:0x00000000
       55115000	      5510	80001e34	19597813	andi	x16,x18,405	 x18:0x00000000 x16=0x00000000
       55125000	      5511	80001e38	00abee33	or	x28,x23,x10	 x23:0x66800394 x10:0x000000a9 x28=0x668003bd
       55135000	      5512	80001e3c	003003b3	add	x7,x0,x3	  x0:0x00000000  x3:0x00000001  x7=0x00000001
       55145000	      5513	80001e40	009b9613	slli	x12,x23,0x9	 x23:0x66800394 x12=0x00072800
       55155000	      5514	80001e44	009d65b3	or	x11,x26,x9	 x26:0xff800083  x9:0x00000001 x11=0xff800083
       55165000	      5515	80001e48	acb508b7	lui	x17,0xacb50	 x17=0xacb50000
       55175000	      5516	80001e4c	0297e063	bltu	x15,x9,80001e6c	 x15:0x66800000  x9:0x00000001
       55185000	      5517	80001e50	01629863	bne	x5,x22,80001e60	  x5:0x00000092 x22:0x0000006a
       55195000	      5518	00000000	00000013	addi	x0,x0,0	  x0:0x00000000
       55205000	      5519	80001e5c	00000013	addi	x0,x0,0	  x0:0x00000000
       55215000	      5520	80001e60	404d5733	sra	x14,x26,x4	 x26:0xff800083  x4:0x00000001 x14=0xffc00041
       55225000	      5521	80001e64	00311bb3	sll	x23,x2,x3	  x2:0xffff9870  x3:0x00000001 x23=0xffff30e0
       55235000	      5522	80001e68	01aa4e63	blt	x20,x26,80001e84	 x20:0x80009ebc x26:0xff800083
       55245000	      5523	00000000	00000013	addi	x0,x0,0	  x0:0x00000000
       55255000	      5524	80001e80	00000013	addi	x0,x0,0	  x0:0x00000000
       55265000	      5525	80001e84	ee813393	sltiu	x7,x2,-280	  x2:0xffff9870  x7=0x00000001
       55275000	      5526	80001e88	03eee863	bltu	x29,x30,80001eb8	 x29:0x01ffe000 x30:0x00006767
       55285000	      5527	80001e8c	40b38533	sub	x10,x7,x11	  x7:0x00000001 x11:0xff800083 x10=0x007fff7e
       55295000	      5528	80001e90	41d4d113	srai	x2,x9,0x1d	  x9:0x00000001  x2=0x00000000
       55305000	      5529	80001e94	018fe233	or	x4,x31,x24	 x31:0x00000000 x24:0x00000001  x4=0x00000001
       55315000	      5530	80001e98	00c9c133	xor	x2,x19,x12	 x19:0x0000ce78 x12:0x00072800  x2=0x0007e678
       55325000	      5531	80001e9c	cebea917	auipc	x18,0xcebea	 x18=0x4ebebe98
       55335000	      5532	80001ea0	010d3db3	sltu	x27,x26,x16	 x26:0xff800083 x16:0x00000000 x27=0x00000000
       55345000	      5533	80001ea4	4b820513	addi	x10,x4,1208	  x4:0x00000001 x10=0x000004b9
       55355000	      5534	80001ea8	1f507137	lui	x2,0x1f507	  x2=0x1f507000
       55365000	      5535	80001eac	40df5013	srai	x0,x30,0xd	 x30:0x00006767
       55375000	      5536	80001eb0	03b87063	bgeu	x16,x27,80001ed0	 x16:0x00000000 x27:0x00000000
       55385000	      5537	00000000	00000013	addi	x0,x0,0	  x0:0x00000000
       55395000	      5538	80001ecc	00000013	addi	x0,x0,0	  x0:0x00000000
       55405000	      5539	80001ed0	014a0863	beq	x20,x20,80001ee0	 x20:0x80009ebc x20:0x80009ebc
       55415000	      5540	00000000	00000013	addi	x0,x0,0	  x0:0x00000000
       55425000	      5541	80001edc	00000013	addi	x0,x0,0	  x0:0x00000000
       55435000	      5542	80001ee0	02da7063	bgeu	x20,x13,80001f00	 x20:0x80009ebc x13:0x8000839c
       55445000	      5543	00000000	00000013	addi	x0,x0,0	  x0:0x00000000
       55455000	      5544	80001efc	00000013	addi	x0,x0,0	  x0:0x00000000
       55465000	      5545	80001f00	5bcc3697	auipc	x13,0x5bcc3	 x13=0xdbcc4efc
       55475000	      5546	80001f04	ce738793	addi	x15,x7,-793	  x7:0x00000001 x15=0xfffffce8
       55485000	      5547	80001f08	41bd5e33	sra	x28,x26,x27	 x26:0xff800083 x27:0x00000000 x28=0xff800083
       55495000	      5548	80001f0c	f41b0893	addi	x17,x22,-191	 x22:0x0000006a x17=0xffffffab
       55505000	      5549	80001f10	003c6e63	bltu	x24,x3,80001f2c	 x24:0x00000001  x3:0x00000001
       55515000	      5550	80001f14	01505513	srli	x10,x0,0x15	  x0:0x00000000 x10=0x00000000
       55525000	      5551	80001f18	01b64263	blt	x12,x27,80001f1c	 x12:0x00072800 x27:0x00000000
       55535000	      5552	80001f1c	01a21713	slli	x14,x4,0x1a	  x4:0x00000001 x14=0x04000000
       55545000	      5553	80001f20	00e09033	sll	x0,x1,x14	  x1:0x66800045 x14:0x04000000
       55555000	      5554	80001f24	025e2113	slti	x2,x28,37	 x28:0xff800083  x2=0x00000001
       55565000	      5555	80001f28	00000013	addi	x0,x0,0	  x0:0x00000000
       55575000	      5556	80001f2c	01215463	bge	x2,x18,80001f34	  x2:0x00000001 x18:0x4ebebe98
       55585000	      5557	80001f30	650e5197	auipc	x3,0x650e5	  x3=0xe50e6f2c
       55595000	      5558	80001f34	02cc7c63	bgeu	x24,x12,80001f6c	 x24:0x00000001 x12:0x00072800
       55605000	      5559	80001f38	046ed263	bge	x29,x6,80001f7c	 x29:0x01ffe000  x6:0x0000000e
       55615000	      5560	00000000	00000013	addi	x0,x0,0	  x0:0x00000000
       55625000	      5561	80001f78	00000013	addi	x0,x0,0	  x0:0x00000000
       55635000	      5562	80001f7c	40a5d033	sra	x0,x11,x10	 x11:0xff800083 x10:0x00000000
       55645000	      5563	80001f80	a1af3713	sltiu	x14,x30,-1510	 x30:0x00006767 x14=0x00000001
       55655000	      5564	80001f84	ece87d13	andi	x26,x16,-306	 x16:0x00000000 x26=0x00000000
       55665000	      5565	80001f88	40320933	sub	x18,x4,x3	  x4:0x00000001  x3:0xe50e6f2c x18=0x1af190d5
       55675000	      5566	80001f8c	00bed193	srli	x3,x29,0xb	 x29:0x01ffe000  x3=0x00003ffc
       55685000	      5567	80001f90	af495d37	lui	x26,0xaf495	 x26=0xaf495000
       55695000	      5568	80001f94	00000013	addi	x0,x0,0	  x0:0x00000000
       55705000	      5569	80001f98	40c40eb3	sub	x29,x8,x12	  x8:0x80009fc4 x12:0x00072800 x29=0x7ff977c4
       55715000	      5570	80001f9c	7db27713	andi	x14,x4,2011	  x4:0x00000001 x14=0x00000001
       55725000	      5571	80001fa0	01c84733	xor	x14,x16,x28	 x16:0x00000000 x28:0xff800083 x14=0xff800083
       55735000	      5572	80001fa4	0045da93	srli	x21,x11,0x4	 x11:0xff800083 x21=0x0ff80008
       55745000	      5573	80001fa8	00eb1493	slli	x9,x22,0xe	 x22:0x0000006a  x9=0x001a8000
       55755000	      5574	80001fac	0008d463	bge	x17,x0,80001fb4	 x17:0xffffffab  x0:0x00000000
       55765000	      5575	80001fb0	04de6463	bltu	x28,x13,80001ff8	 x28:0xff800083 x13:0xdbcc4efc
       55775000	      5576	80001fb4	a9966e93	ori	x29,x12,-1383	 x12:0x00072800 x29=0xfffffa99
       55785000	      5577	80001fb8	00951893	slli	x17,x10,0x9	 x10:0x00000000 x17=0x00000000
       55795000	      5578	80001fbc	84a97193	andi	x3,x18,-1974	 x18:0x1af190d5  x3=0x1af19040
       55805000	      5579	80001fc0	00f58e63	beq	x11,x15,80001fdc	 x11:0xff800083 x15:0xfffffce8
       55815000	      5580	80001fc4	019dc863	blt	x27,x25,80001fd4	 x27:0x00000000 x25:0xffffffd7
       55825000	      5581	80001fc8	03698063	beq	x19,x22,80001fe8	 x19:0x0000ce78 x22:0x0000006a
       55835000	      5582	80001fcc	00da7db3	and	x27,x20,x13	 x20:0x80009ebc x13:0xdbcc4efc x27=0x80000ebc
       55845000	      5583	80001fd0	0167c0b3	xor	x1,x15,x22	 x15:0xfffffce8 x22:0x0000006a  x1=0xfffffc82
       55855000	      5584	80001fd4	00aaa8b3	slt	x17,x21,x10	 x21:0x0ff80008 x10:0x00000000 x17=0x00000000
       55865000	      5585	80001fd8	40ec5293	srai	x5,x24,0xe	 x24:0x00000001  x5=0x00000000
       55875000	      5586	80001fdc	028ace63	blt	x21,x8,80002018	 x21:0x0ff80008  x8:0x80009fc4
       55885000	      5587	80001fe0	01d21e93	slli	x29,x4,0x1d	  x4:0x00000001 x29=0x20000000
       55895000	      5588	80001fe4	0b550e17	auipc	x28,0xb550	 x28=0x8b551fe0
       55905000	      5589	80001fe8	00326133	or	x2,x4,x3	  x4:0x00000001  x3:0x1af19040  x2=0x1af19041
       55915000	      5590	80001fec	0169fb13	andi	x22,x19,22	 x19:0x0000ce78 x22=0x00000010
       55925000	      5591	80001ff0	010972b3	and	x5,x18,x16	 x18:0x1af190d5 x16:0x00000000  x5=0x00000000
       55935000	      5592	80001ff4	0261d063	bge	x3,x6,80002014	  x3:0x1af19040  x6:0x0000000e
       55945000	      5593	00000000	00000013	addi	x0,x0,0	  x0:0x00000000
       55955000	      5594	80002010	00000013	addi	x0,x0,0	  x0:0x00000000
       55965000	      5595	80002014	e5fb8137	lui	x2,0xe5fb8	  x2=0xe5fb8000
       55975000	      5596	80002018	017abdb3	sltu	x27,x21,x23	 x21:0x0ff80008 x23:0xffff30e0 x27=0x00000001
       55985000	      5597	8000201c	4e318b13	addi	x22,x3,1251	  x3:0x1af19040 x22=0x1af19523
       55995000	      5598	80002020	056f8063	beq	x31,x22,80002060	 x31:0x00000000 x22:0x1af19523
       56005000	      5599	80002024	405106b3	sub	x13,x2,x5	  x2:0xe5fb8000  x5:0x00000000 x13=0xe5fb8000
       56015000	      5600	80002028	00c16863	bltu	x2,x12,80002038	  x2:0xe5fb8000 x12:0x00072800
       56025000	      5601	8000202c	627e7a93	andi	x21,x28,1575	 x28:0x8b551fe0 x21=0x00000620
       56035000	      5602	80002030	40fb53b3	sra	x7,x22,x15	 x22:0x1af19523 x15:0xfffffce8  x7=0x001af195
       56045000	      5603	80002034	00985e93	srli	x29,x16,0x9	 x16:0x00000000 x29=0x00000000
       56055000	      5604	80002038	01ec83b3	add	x7,x25,x30	 x25:0xffffffd7 x30:0x00006767  x7=0x0000673e
       56065000	      5605	8000203c	00000013	addi	x0,x0,0	  x0:0x00000000
       56075000	      5606	80002040	408653b3	sra	x7,x12,x8	 x12:0x00072800  x8:0x80009fc4  x7=0x00007280
       56085000	      5607	80002044	04181263	bne	x16,x1,80002088	 x16:0x00000000  x1:0xfffffc82
       56095000	      5608	00000000	00000013	addi	x0,x0,0	  x0:0x00000000
       56105000	      5609	80002084	00000013	addi	x0,x0,0	  x0:0x00000000
       56115000	      5610	80002088	46e3fd93	andi	x27,x7,1134	  x7:0x00007280 x27=0x00000000
       56125000	      5611	8000208c	03235063	bge	x6,x18,800020ac	  x6:0x0000000e x18:0x1af190d5
       56135000	      5612	80002090	d45e8bb7	lui	x23,0xd45e8	 x23=0xd45e8000
       56145000	      5613	80002094	00000013	addi	x0,x0,0	  x0:0x00000000
       56155000	      5614	80002098	41d60933	sub	x18,x12,x29	 x12:0x00072800 x29:0x00000000 x18=0x00072800
       56165000	      5615	8000209c	00623d33	sltu	x26,x4,x6	  x4:0x00000001  x6:0x0000000e x26=0x00000001
       56175000	      5616	800020a0	033cc863	blt	x25,x19,800020d0	 x25:0xffffffd7 x19:0x0000ce78
       56185000	      5617	00000000	00000013	addi	x0,x0,0	  x0:0x00000000
       56195000	      5618	800020cc	00000013	addi	x0,x0,0	  x0:0x00000000
       56205000	      5619	800020d0	01042133	slt	x2,x8,x16	  x8:0x80009fc4 x16:0x00000000  x2=0x00000001
       56215000	      5620	800020d4	91602013	slti	x0,x0,-1770	  x0:0x00000000
       56225000	      5621	800020d8	41478133	sub	x2,x15,x20	 x15:0xfffffce8 x20:0x80009ebc  x2=0x7fff5e2c
       56235000	      5622	800020dc	0474d263	bge	x9,x7,80002120	  x9:0x001a8000  x7:0x00007280
       56245000	      5623	00000000	00000013	addi	x0,x0,0	  x0:0x00000000
       56255000	      5624	8000211c	00000013	addi	x0,x0,0	  x0:0x00000000
       56265000	      5625	80002120	414ad533	sra	x10,x21,x20	 x21:0x00000620 x20:0x80009ebc x10=0x00000000
       56275000	      5626	80002124	02214e63	blt	x2,x2,80002160	  x2:0x7fff5e2c  x2:0x7fff5e2c
       56285000	      5627	80002128	0181af33	slt	x30,x3,x24	  x3:0x1af19040 x24:0x00000001 x30=0x00000000
       56295000	      5628	8000212c	41ab5833	sra	x16,x22,x26	 x22:0x1af19523 x26:0x00000001 x16=0x0d78ca91
       56305000	      5629	80002130	03f9e863	bltu	x19,x31,80002160	 x19:0x0000ce78 x31:0x00000000
       56315000	      5630	80002134	402b05b3	sub	x11,x22,x2	 x22:0x1af19523  x2:0x7fff5e2c x11=0x9af236f7
       56325000	      5631	80002138	d2857d13	andi	x26,x10,-728	 x10:0x00000000 x26=0x00000000
       56335000	      5632	8000213c	414cde93	srai	x29,x25,0x14	 x25:0xffffffd7 x29=0xffffffff
       56345000	      5633	80002140	006e4863	blt	x28,x6,80002150	 x28:0x8b551fe0  x6:0x0000000e
       56355000	      5634	00000000	00000013	addi	x0,x0,0	  x0:0x00000000
       56365000	      5635	8000214c	00000013	addi	x0,x0,0	  x0:0x00000000
       56375000	      5636	80002150	4199de33	sra	x28,x19,x25	 x19:0x0000ce78 x25:0xffffffd7 x28=0x00000000
       56385000	      5637	80002154	01793eb3	sltu	x29,x18,x23	 x18:0x00072800 x23:0xd45e8000 x29=0x00000001
       56395000	      5638	80002158	00b61213	slli	x4,x12,0xb	 x12:0x00072800  x4=0x39400000
       56405000	      5639	8000215c	01317b33	and	x22,x2,x19	  x2:0x7fff5e2c x19:0x0000ce78 x22=0x00004e28
       56415000	      5640	80002160	9a092913	slti	x18,x18,-1632	 x18:0x00072800 x18=0x00000000
       56425000	      5641	80002164	03e25c63	bge	x4,x30,8000219c	  x4:0x39400000 x30:0x00000000
       56435000	      5642	00000000	00000013	addi	x0,x0,0	  x0:0x00000000
       56445000	      5643	80002198	00000013	addi	x0,x0,0	  x0:0x00000000
       56455000	      5644	8000219c	40a355b3	sra	x11,x6,x10	  x6:0x0000000e x10:0x00000000 x11=0x0000000e
       56465000	      5645	800021a0	010b0863	beq	x22,x16,800021b0	 x22:0x00004e28 x16:0x0d78ca91
       56475000	      5646	800021a4	9c1b2893	slti	x17,x22,-1599	 x22:0x00004e28 x17=0x00000000
       56485000	      5647	800021a8	01894233	xor	x4,x18,x24	 x18:0x00000000 x24:0x00000001  x4=0x00000001
       56495000	      5648	800021ac	2a333513	sltiu	x10,x6,675	  x6:0x0000000e x10=0x00000001
       56505000	      5649	800021b0	a16bb513	sltiu	x10,x23,-1514	 x23:0xd45e8000 x10=0x00000001
       56515000	      5650	800021b4	03046a63	bltu	x8,x16,800021e8	  x8:0x80009fc4 x16:0x0d78ca91
       56525000	      5651	800021b8	00f1c233	xor	x4,x3,x15	  x3:0x1af19040 x15:0xfffffce8  x4=0xe50e6ca8
       56535000	      5652	800021bc	0056c1b3	xor	x3,x13,x5	 x13:0xe5fb8000  x5:0x00000000  x3=0xe5fb8000
       56545000	      5653	800021c0	006b04b3	add	x9,x22,x6	 x22:0x00004e28  x6:0x0000000e  x9=0x00004e36
       56555000	      5654	800021c4	979ee113	ori	x2,x29,-1671	 x29:0x00000001  x2=0xfffff979
       56565000	      5655	800021c8	c968b513	sltiu	x10,x17,-874	 x17:0x00000000 x10=0x00000001
       56575000	      5656	800021cc	01f5c463	blt	x11,x31,800021d4	 x11:0x0000000e x31:0x00000000
       56585000	      5657	800021d0	01df9d33	sll	x26,x31,x29	 x31:0x00000000 x29:0x00000001 x26=0x00000000
       56595000	      5658	800021d4	71d24f17	auipc	x30,0x71d24	 x30=0xf1d261d0
       56605000	      5659	800021d8	00281e63	bne	x16,x2,800021f4	 x16:0x0d78ca91  x2:0xfffff979
       56615000	      5660	00000000	00000013	addi	x0,x0,0	  x0:0x00000000
       56625000	      5661	800021f0	00000013	addi	x0,x0,0	  x0:0x00000000
       56635000	      5662	800021f4	019c26b3	slt	x13,x24,x25	 x24:0x00000001 x25:0xffffffd7 x13=0x00000000
       56645000	      5663	800021f8	01c53e33	sltu	x28,x10,x28	 x10:0x00000001 x28:0x00000000 x28=0x00000000
       56655000	      5664	800021fc	41a10cb3	sub	x25,x2,x26	  x2:0xfffff979 x26:0x00000000 x25=0xfffff979
       56665000	      5665	80002200	05811463	bne	x2,x24,80002248	  x2:0xfffff979 x24:0x00000001
       56675000	      5666	00000000	00000013	addi	x0,x0,0	  x0:0x00000000
       56685000	      5667	80002244	00000013	addi	x0,x0,0	  x0:0x00000000
       56695000	      5668	80002248	485bbe93	sltiu	x29,x23,1157	 x23:0xd45e8000 x29=0x00000000
       56705000	      5669	8000224c	0143a3b3	slt	x7,x7,x20	  x7:0x00007280 x20:0x80009ebc  x7=0x00000000
       56715000	      5670	80002250	0893be93	sltiu	x29,x7,137	  x7:0x00000000 x29=0x00000001
       56725000	      5671	80002254	00171b13	slli	x22,x14,0x1	 x14:0xff800083 x22=0xff000106
       56735000	      5672	80002258	c418eb13	ori	x22,x17,-959	 x17:0x00000000 x22=0xfffffc41
       56745000	      5673	8000225c	0e24cdb7	lui	x27,0xe24c	 x27=0x0e24c000
       56755000	      5674	80002260	c18fe193	ori	x3,x31,-1000	 x31:0x00000000  x3=0xfffffc18
       56765000	      5675	80002264	644efb93	andi	x23,x29,1604	 x29:0x00000001 x23=0x00000000
       56775000	      5676	80002268	0476d063	bge	x13,x7,800022a8	 x13:0x00000000  x7:0x00000000
       56785000	      5677	00000000	00000013	addi	x0,x0,0	  x0:0x00000000
       56795000	      5678	800022a4	00000013	addi	x0,x0,0	  x0:0x00000000
       56805000	      5679	800022a8	41f3d813	srai	x16,x7,0x1f	  x7:0x00000000 x16=0x00000000
       56815000	      5680	800022ac	0197aab3	slt	x21,x15,x25	 x15:0xfffffce8 x25:0xfffff979 x21=0x00000000
       56825000	      5681	800022b0	04187263	bgeu	x16,x1,800022f4	 x16:0x00000000  x1:0xfffffc82
       56835000	      5682	800022b4	01c3beb3	sltu	x29,x7,x28	  x7:0x00000000 x28:0x00000000 x29=0x00000000
       56845000	      5683	800022b8	00d95e63	bge	x18,x13,800022d4	 x18:0x00000000 x13:0x00000000
       56855000	      5684	00000000	00000013	addi	x0,x0,0	  x0:0x00000000
       56865000	      5685	800022d0	00000013	addi	x0,x0,0	  x0:0x00000000
       56875000	      5686	800022d4	3b8c4b93	xori	x23,x24,952	 x24:0x00000001 x23=0x000003b9
       56885000	      5687	800022d8	01059263	bne	x11,x16,800022dc	 x11:0x0000000e x16:0x00000000
       56895000	      5688	00000000	00000013	addi	x0,x0,0	  x0:0x00000000
       56905000	      5689	800022d8	00000013	addi	x0,x0,0	  x0:0x00000000
       56915000	      5690	800022dc	01bf4863	blt	x30,x27,800022ec	 x30:0xf1d261d0 x27:0x0e24c000
       56925000	      5691	00000000	00000013	addi	x0,x0,0	  x0:0x00000000
       56935000	      5692	800022e8	00000013	addi	x0,x0,0	  x0:0x00000000
       56945000	      5693	800022ec	dad37e17	auipc	x28,0xdad37	 x28=0x5ad392e8
       56955000	      5694	800022f0	008956b3	srl	x13,x18,x8	 x18:0x00000000  x8:0x80009fc4 x13=0x00000000
       56965000	      5695	800022f4	01610233	add	x4,x2,x22	  x2:0xfffff979 x22:0xfffffc41  x4=0xfffff5ba
       56975000	      5696	800022f8	016bde63	bge	x23,x22,80002314	 x23:0x000003b9 x22:0xfffffc41
       56985000	      5697	00000000	00000013	addi	x0,x0,0	  x0:0x00000000
       56995000	      5698	80002310	00000013	addi	x0,x0,0	  x0:0x00000000
       57005000	      5699	80002314	20636913	ori	x18,x6,518	  x6:0x0000000e x18=0x0000020e
       57015000	      5700	80002318	01a9e8b3	or	x17,x19,x26	 x19:0x0000ce78 x26:0x00000000 x17=0x0000ce78
       57025000	      5701	8000231c	029ff463	bgeu	x31,x9,80002344	 x31:0x00000000  x9:0x00004e36
       57035000	      5702	80002320	00f443b3	xor	x7,x8,x15	  x8:0x80009fc4 x15:0xfffffce8  x7=0x7fff632c
       57045000	      5703	80002324	c45ce913	ori	x18,x25,-955	 x25:0xfffff979 x18=0xfffffd7d
       57055000	      5704	80002328	005cd293	srli	x5,x25,0x5	 x25:0xfffff979  x5=0x07ffffcb
       57065000	      5705	8000232c	01c004b3	add	x9,x0,x28	  x0:0x00000000 x28:0x5ad392e8  x9=0x5ad392e8
       57075000	      5706	80002330	00da9a63	bne	x21,x13,80002344	 x21:0x00000000 x13:0x00000000
       57085000	      5707	80002334	04bdd263	bge	x27,x11,80002378	 x27:0x0e24c000 x11:0x0000000e
       57095000	      5708	00000000	00000013	addi	x0,x0,0	  x0:0x00000000
       57105000	      5709	80002374	00000013	addi	x0,x0,0	  x0:0x00000000
       57115000	      5710	80002378	03164063	blt	x12,x17,80002398	 x12:0x00072800 x17:0x0000ce78
       57125000	      5711	8000237c	ee796b13	ori	x22,x18,-281	 x18:0xfffffd7d x22=0xffffffff
       57135000	      5712	80002380	024a8a63	beq	x21,x4,800023b4	 x21:0x00000000  x4:0xfffff5ba
       57145000	      5713	80002384	0143d213	srli	x4,x7,0x14	  x7:0x7fff632c  x4=0x000007ff
       57155000	      5714	80002388	a494f993	andi	x19,x9,-1463	  x9:0x5ad392e8 x19=0x5ad39248
       57165000	      5715	8000238c	0174a1b3	slt	x3,x9,x23	  x9:0x5ad392e8 x23:0x000003b9  x3=0x00000000
       57175000	      5716	80002390	05cf6263	bltu	x30,x28,800023d4	 x30:0xf1d261d0 x28:0x5ad392e8
       57185000	      5717	80002394	417956b3	sra	x13,x18,x23	 x18:0xfffffd7d x23:0x000003b9 x13=0xffffffff
       57195000	      5718	80002398	0202cc63	blt	x5,x0,800023d0	  x5:0x07ffffcb  x0:0x00000000
       57205000	      5719	8000239c	41c7d813	srai	x16,x15,0x1c	 x15:0xfffffce8 x16=0xffffffff
       57215000	      5720	800023a0	03435063	bge	x6,x20,800023c0	  x6:0x0000000e x20:0x80009ebc
       57225000	      5721	00000000	00000013	addi	x0,x0,0	  x0:0x00000000
       57235000	      5722	800023bc	00000013	addi	x0,x0,0	  x0:0x00000000
       57245000	      5723	800023c0	010f5cb3	srl	x25,x30,x16	 x30:0xf1d261d0 x16:0xffffffff x25=0x00000001
       57255000	      5724	800023c4	00e60e63	beq	x12,x14,800023e0	 x12:0x00072800 x14:0xff800083
       57265000	      5725	800023c8	00000013	addi	x0,x0,0	  x0:0x00000000
       57275000	      5726	800023cc	05a6d063	bge	x13,x26,8000240c	 x13:0xffffffff x26:0x00000000
       57285000	      5727	800023d0	008a1d33	sll	x26,x20,x8	 x20:0x80009ebc  x8:0x80009fc4 x26=0x0009ebc0
       57295000	      5728	800023d4	01a11863	bne	x2,x26,800023e4	  x2:0xfffff979 x26:0x0009ebc0
       57305000	      5729	00000000	00000013	addi	x0,x0,0	  x0:0x00000000
       57315000	      5730	800023e0	00000013	addi	x0,x0,0	  x0:0x00000000
       57325000	      5731	800023e4	02abd863	bge	x23,x10,80002414	 x23:0x000003b9 x10:0x00000001
       57335000	      5732	00000000	00000013	addi	x0,x0,0	  x0:0x00000000
       57345000	      5733	80002410	00000013	addi	x0,x0,0	  x0:0x00000000
       57355000	      5734	80002414	03a7d063	bge	x15,x26,80002434	 x15:0xfffffce8 x26:0x0009ebc0
       57365000	      5735	80002418	008d4f33	xor	x30,x26,x8	 x26:0x0009ebc0  x8:0x80009fc4 x30=0x80097404
       57375000	      5736	8000241c	00cf4c33	xor	x24,x30,x12	 x30:0x80097404 x12:0x00072800 x24=0x800e5c04
       57385000	      5737	80002420	01026833	or	x16,x4,x16	  x4:0x000007ff x16:0xffffffff x16=0xffffffff
       57395000	      5738	80002424	4198dcb3	sra	x25,x17,x25	 x17:0x0000ce78 x25:0x00000001 x25=0x0000673c
       57405000	      5739	80002428	c03600b7	lui	x1,0xc0360	  x1=0xc0360000
       57415000	      5740	8000242c	40505013	srai	x0,x0,0x5	  x0:0x00000000
       57425000	      5741	80002430	41c7d613	srai	x12,x15,0x1c	 x15:0xfffffce8 x12=0xffffffff
       57435000	      5742	80002434	40f650b3	sra	x1,x12,x15	 x12:0xffffffff x15:0xfffffce8  x1=0xffffffff
       57445000	      5743	80002438	00711863	bne	x2,x7,80002448	  x2:0xfffff979  x7:0x7fff632c
       57455000	      5744	00000000	00000013	addi	x0,x0,0	  x0:0x00000000
       57465000	      5745	80002444	00000013	addi	x0,x0,0	  x0:0x00000000
       57475000	      5746	80002448	111bf813	andi	x16,x23,273	 x23:0x000003b9 x16=0x00000111
       57485000	      5747	8000244c	d6067d13	andi	x26,x12,-672	 x12:0xffffffff x26=0xfffffd60
       57495000	      5748	80002450	00641733	sll	x14,x8,x6	  x8:0x80009fc4  x6:0x0000000e x14=0x27f10000
       57505000	      5749	80002454	018b09b3	add	x19,x22,x24	 x22:0xffffffff x24:0x800e5c04 x19=0x800e5c03
       57515000	      5750	80002458	00df5f33	srl	x30,x30,x13	 x30:0x80097404 x13:0xffffffff x30=0x00000001
       57525000	      5751	8000245c	b3dec993	xori	x19,x29,-1219	 x29:0x00000000 x19=0xfffffb3d
       57535000	      5752	80002460	029c5663	bge	x24,x9,8000248c	 x24:0x800e5c04  x9:0x5ad392e8
       57545000	      5753	80002464	00e982b3	add	x5,x19,x14	 x19:0xfffffb3d x14:0x27f10000  x5=0x27f0fb3d
       57555000	      5754	80002468	00467633	and	x12,x12,x4	 x12:0xffffffff  x4:0x000007ff x12=0x000007ff
       57565000	      5755	8000246c	015518b3	sll	x17,x10,x21	 x10:0x00000001 x21:0x00000000 x17=0x00000001
       57575000	      5756	80002470	01de36b3	sltu	x13,x28,x29	 x28:0x5ad392e8 x29:0x00000000 x13=0x00000000
       57585000	      5757	80002474	41245d13	srai	x26,x8,0x12	  x8:0x80009fc4 x26=0xffffe000
       57595000	      5758	80002478	fad90093	addi	x1,x18,-83	 x18:0xfffffd7d  x1=0xfffffd2a
       57605000	      5759	8000247c	019e5213	srli	x4,x28,0x19	 x28:0x5ad392e8  x4=0x0000002d
       57615000	      5760	80002480	005a5113	srli	x2,x20,0x5	 x20:0x80009ebc  x2=0x040004f5
       57625000	      5761	80002484	018f38b3	sltu	x17,x30,x24	 x30:0x00000001 x24:0x800e5c04 x17=0x00000001
       57635000	      5762	80002488	00c7de63	bge	x15,x12,800024a4	 x15:0xfffffce8 x12:0x000007ff
       57645000	      5763	8000248c	0094d8b3	srl	x17,x9,x9	  x9:0x5ad392e8  x9:0x5ad392e8 x17=0x005ad392
       57655000	      5764	80002490	038cc063	blt	x25,x24,800024b0	 x25:0x0000673c x24:0x800e5c04
       57665000	      5765	80002494	0001dcb3	srl	x25,x3,x0	  x3:0x00000000  x0:0x00000000 x25=0x00000000
       57675000	      5766	80002498	1bc0a593	slti	x11,x1,444	  x1:0xfffffd2a x11=0x00000001
       57685000	      5767	8000249c	0443e663	bltu	x7,x4,800024e8	  x7:0x7fff632c  x4:0x0000002d
       57695000	      5768	800024a0	011724b3	slt	x9,x14,x17	 x14:0x27f10000 x17:0x005ad392  x9=0x00000000
       57705000	      5769	800024a4	014abeb3	sltu	x29,x21,x20	 x21:0x00000000 x20:0x80009ebc x29=0x00000001
       57715000	      5770	800024a8	01d3de63	bge	x7,x29,800024c4	  x7:0x7fff632c x29:0x00000001
       57725000	      5771	00000000	00000013	addi	x0,x0,0	  x0:0x00000000
       57735000	      5772	800024c0	00000013	addi	x0,x0,0	  x0:0x00000000
       57745000	      5773	800024c4	a1b4a613	slti	x12,x9,-1509	  x9:0x00000000 x12=0x00000000
       57755000	      5774	800024c8	0166bf33	sltu	x30,x13,x22	 x13:0x00000000 x22:0xffffffff x30=0x00000001
       57765000	      5775	800024cc	b9500993	addi	x19,x0,-1131	  x0:0x00000000 x19=0xfffffb95
       57775000	      5776	800024d0	004b7933	and	x18,x22,x4	 x22:0xffffffff  x4:0x0000002d x18=0x0000002d
       57785000	      5777	800024d4	058b5263	bge	x22,x24,80002518	 x22:0xffffffff x24:0x800e5c04
       57795000	      5778	00000000	00000013	addi	x0,x0,0	  x0:0x00000000
       57805000	      5779	80002514	00000013	addi	x0,x0,0	  x0:0x00000000
       57815000	      5780	80002518	00000013	addi	x0,x0,0	  x0:0x00000000
       57825000	      5781	8000251c	0294c063	blt	x9,x9,8000253c	  x9:0x00000000  x9:0x00000000
       57835000	      5782	80002520	0037c5b3	xor	x11,x15,x3	 x15:0xfffffce8  x3:0x00000000 x11=0xfffffce8
       57845000	      5783	80002524	00000013	addi	x0,x0,0	  x0:0x00000000
       57855000	      5784	80002528	01649533	sll	x10,x9,x22	  x9:0x00000000 x22:0xffffffff x10=0x00000000
       57865000	      5785	8000252c	5e3c4f13	xori	x30,x24,1507	 x24:0x800e5c04 x30=0x800e59e7
       57875000	      5786	80002530	00000013	addi	x0,x0,0	  x0:0x00000000
       57885000	      5787	80002534	00ee7833	and	x16,x28,x14	 x28:0x5ad392e8 x14:0x27f10000 x16=0x02d10000
       57895000	      5788	80002538	01e329b3	slt	x19,x6,x30	  x6:0x0000000e x30:0x800e59e7 x19=0x00000000
       57905000	      5789	8000253c	0053ab33	slt	x22,x7,x5	  x7:0x7fff632c  x5:0x27f0fb3d x22=0x00000000
       57915000	      5790	80002540	05bb6063	bltu	x22,x27,80002580	 x22:0x00000000 x27:0x0e24c000
       57925000	      5791	00000000	00000013	addi	x0,x0,0	  x0:0x00000000
       57935000	      5792	8000257c	00000013	addi	x0,x0,0	  x0:0x00000000
       57945000	      5793	80002580	016d1a93	slli	x21,x26,0x16	 x26:0xffffe000 x21=0x00000000
       57955000	      5794	80002584	41045f33	sra	x30,x8,x16	  x8:0x80009fc4 x16:0x02d10000 x30=0x80009fc4
       57965000	      5795	80002588	b64efe37	lui	x28,0xb64ef	 x28=0xb64ef000
       57975000	      5796	8000258c	01b07e63	bgeu	x0,x27,800025a8	  x0:0x00000000 x27:0x0e24c000
       57985000	      5797	80002590	008d83b3	add	x7,x27,x8	 x27:0x0e24c000  x8:0x80009fc4  x7=0x8e255fc4
       57995000	      5798	80002594	01c79693	slli	x13,x15,0x1c	 x15:0xfffffce8 x13=0x80000000
       58005000	      5799	80002598	413f0c33	sub	x24,x30,x19	 x30:0x80009fc4 x19:0x00000000 x24=0x80009fc4
       58015000	      5800	8000259c	d6f44813	xori	x16,x8,-657	  x8:0x80009fc4 x16=0x7fff62ab
       58025000	      5801	800025a0	5d87f0b7	lui	x1,0x5d87f	  x1=0x5d87f000
       58035000	      5802	800025a4	72000293	addi	x5,x0,1824	  x0:0x00000000  x5=0x00000720
       58045000	      5803	800025a8	418a5d13	srai	x26,x20,0x18	 x20:0x80009ebc x26=0xffffff80
       58055000	      5804	800025ac	01895863	bge	x18,x24,800025bc	 x18:0x0000002d x24:0x80009fc4
       58065000	      5805	00000000	00000013	addi	x0,x0,0	  x0:0x00000000
       58075000	      5806	800025b8	00000013	addi	x0,x0,0	  x0:0x00000000
       58085000	      5807	800025bc	030c5063	bge	x24,x16,800025dc	 x24:0x80009fc4 x16:0x7fff62ab
       58095000	      5808	800025c0	407559b3	sra	x19,x10,x7	 x10:0x00000000  x7:0x8e255fc4 x19=0x00000000
       58105000	      5809	800025c4	61f08517	auipc	x10,0x61f08	 x10=0xe1f0a5c0
       58115000	      5810	800025c8	0509d263	bge	x19,x16,8000260c	 x19:0x00000000 x16:0x7fff62ab
       58125000	      5811	800025cc	40d18ab3	sub	x21,x3,x13	  x3:0x00000000 x13:0x80000000 x21=0x80000000
       58135000	      5812	800025d0	017d9fb3	sll	x31,x27,x23	 x27:0x0e24c000 x23:0x000003b9 x31=0x00000000
       58145000	      5813	800025d4	0187b5b3	sltu	x11,x15,x24	 x15:0xfffffce8 x24:0x80009fc4 x11=0x00000000
       58155000	      5814	800025d8	01171b13	slli	x22,x14,0x11	 x14:0x27f10000 x22=0x00000000
       58165000	      5815	800025dc	018dfdb3	and	x27,x27,x24	 x27:0x0e24c000 x24:0x80009fc4 x27=0x00008000
       58175000	      5816	800025e0	0574d663	bge	x9,x23,8000262c	  x9:0x00000000 x23:0x000003b9
       58185000	      5817	800025e4	046ec463	blt	x29,x6,8000262c	 x29:0x00000001  x6:0x0000000e
       58195000	      5818	00000000	00000013	addi	x0,x0,0	  x0:0x00000000
       58205000	      5819	80002628	00000013	addi	x0,x0,0	  x0:0x00000000
       58215000	      5820	8000262c	006b9233	sll	x4,x23,x6	 x23:0x000003b9  x6:0x0000000e  x4=0x00ee4000
       58225000	      5821	80002630	ed68e5b7	lui	x11,0xed68e	 x11=0xed68e000
       58235000	      5822	80002634	40a65213	srai	x4,x12,0xa	 x12:0x00000000  x4=0x00000000
       58245000	      5823	80002638	0073ed33	or	x26,x7,x7	  x7:0x8e255fc4  x7:0x8e255fc4 x26=0x8e255fc4
       58255000	      5824	8000263c	0147e833	or	x16,x15,x20	 x15:0xfffffce8 x20:0x80009ebc x16=0xfffffefc
       58265000	      5825	80002640	008b5993	srli	x19,x22,0x8	 x22:0x00000000 x19=0x00000000
       58275000	      5826	80002644	0180bb33	sltu	x22,x1,x24	  x1:0x5d87f000 x24:0x80009fc4 x22=0x00000001
       58285000	      5827	80002648	c1a20913	addi	x18,x4,-998	  x4:0x00000000 x18=0xfffffc1a
       58295000	      5828	8000264c	0155db93	srli	x23,x11,0x15	 x11:0xed68e000 x23=0x0000076b
       58305000	      5829	80002650	00e317b3	sll	x15,x6,x14	  x6:0x0000000e x14:0x27f10000 x15=0x0000000e
       58315000	      5830	80002654	01fad9b3	srl	x19,x21,x31	 x21:0x80000000 x31:0x00000000 x19=0x80000000
       58325000	      5831	80002658	03386c63	bltu	x16,x19,80002690	 x16:0xfffffefc x19:0x80000000
       58335000	      5832	8000265c	00f95863	bge	x18,x15,8000266c	 x18:0xfffffc1a x15:0x0000000e
       58345000	      5833	80002660	21e43513	sltiu	x10,x8,542	  x8:0x80009fc4 x10=0x00000000
       58355000	      5834	80002664	00000013	addi	x0,x0,0	  x0:0x00000000
       58365000	      5835	80002668	faa5ed13	ori	x26,x11,-86	 x11:0xed68e000 x26=0xffffffaa
       58375000	      5836	8000266c	40ad81b3	sub	x3,x27,x10	 x27:0x00008000 x10:0x00000000  x3=0x00008000
       58385000	      5837	80002670	09af4693	xori	x13,x30,154	 x30:0x80009fc4 x13=0x80009f5e
       58395000	      5838	80002674	008f6e63	bltu	x30,x8,80002690	 x30:0x80009fc4  x8:0x80009fc4
       58405000	      5839	80002678	a7c54f93	xori	x31,x10,-1412	 x10:0x00000000 x31=0xfffffa7c
       58415000	      5840	8000267c	590cee13	ori	x28,x25,1424	 x25:0x00000000 x28=0x00000590
       58425000	      5841	80002680	01c06e63	bltu	x0,x28,8000269c	  x0:0x00000000 x28:0x00000590
       58435000	      5842	00000000	00000013	addi	x0,x0,0	  x0:0x00000000
       58445000	      5843	80002698	00000013	addi	x0,x0,0	  x0:0x00000000
       58455000	      5844	8000269c	01ba0633	add	x12,x20,x27	 x20:0x80009ebc x27:0x00008000 x12=0x80011ebc
       58465000	      5845	800026a0	04a19063	bne	x3,x10,800026e0	  x3:0x00008000 x10:0x00000000
       58475000	      5846	00000000	00000013	addi	x0,x0,0	  x0:0x00000000
       58485000	      5847	800026dc	00000013	addi	x0,x0,0	  x0:0x00000000
       58495000	      5848	800026e0	00d05113	srli	x2,x0,0xd	  x0:0x00000000  x2=0x00000000
       58505000	      5849	800026e4	1c58e093	ori	x1,x17,453	 x17:0x005ad392  x1=0x005ad3d7
       58515000	      5850	800026e8	05898063	beq	x19,x24,80002728	 x19:0x80000000 x24:0x80009fc4
       58525000	      5851	800026ec	00bc0863	beq	x24,x11,800026fc	 x24:0x80009fc4 x11:0xed68e000
       58535000	      5852	800026f0	01e88833	add	x16,x17,x30	 x17:0x005ad392 x30:0x80009fc4 x16=0x805b7356
       58545000	      5853	800026f4	01e08133	add	x2,x1,x30	  x1:0x005ad3d7 x30:0x80009fc4  x2=0x805b739b
       58555000	      5854	800026f8	00e00bb3	add	x23,x0,x14	  x0:0x00000000 x14:0x27f10000 x23=0x27f10000
       58565000	      5855	800026fc	41f85fb3	sra	x31,x16,x31	 x16:0x805b7356 x31:0xfffffa7c x31=0xfffffff8
       58575000	      5856	80002700	00ddeeb3	or	x29,x27,x13	 x27:0x00008000 x13:0x80009f5e x29=0x80009f5e
       58585000	      5857	80002704	00000013	addi	x0,x0,0	  x0:0x00000000
       58595000	      5858	80002708	00d28e63	beq	x5,x13,80002724	  x5:0x00000720 x13:0x80009f5e
       58605000	      5859	8000270c	043f0663	beq	x30,x3,80002758	 x30:0x80009fc4  x3:0x00008000
       58615000	      5860	80002710	41568533	sub	x10,x13,x21	 x13:0x80009f5e x21:0x80000000 x10=0x00009f5e
       58625000	      5861	80002714	f311f193	andi	x3,x3,-207	  x3:0x00008000  x3=0x00008000
       58635000	      5862	80002718	015b7e63	bgeu	x22,x21,80002734	 x22:0x00000001 x21:0x80000000
       58645000	      5863	8000271c	0152f463	bgeu	x5,x21,80002724	  x5:0x00000720 x21:0x80000000
       58655000	      5864	80002720	01641213	slli	x4,x8,0x16	  x8:0x80009fc4  x4=0xf1000000
       58665000	      5865	80002724	015588b3	add	x17,x11,x21	 x11:0xed68e000 x21:0x80000000 x17=0x6d68e000
       58675000	      5866	80002728	02868863	beq	x13,x8,80002758	 x13:0x80009f5e  x8:0x80009fc4
       58685000	      5867	8000272c	014361b3	or	x3,x6,x20	  x6:0x0000000e x20:0x80009ebc  x3=0x80009ebe
       58695000	      5868	80002730	40da8fb3	sub	x31,x21,x13	 x21:0x80000000 x13:0x80009f5e x31=0xffff60a2
       58705000	      5869	80002734	84a62913	slti	x18,x12,-1974	 x12:0x80011ebc x18=0x00000001
       58715000	      5870	80002738	01fe0c33	add	x24,x28,x31	 x28:0x00000590 x31:0xffff60a2 x24=0xffff6632
       58725000	      5871	8000273c	01e55833	srl	x16,x10,x30	 x10:0x00009f5e x30:0x80009fc4 x16=0x000009f5
       58735000	      5872	80002740	ce376593	ori	x11,x14,-797	 x14:0x27f10000 x11=0xfffffce3
       58745000	      5873	80002744	00f98f33	add	x30,x19,x15	 x19:0x80000000 x15:0x0000000e x30=0x8000000e
       58755000	      5874	80002748	30163813	sltiu	x16,x12,769	 x12:0x80011ebc x16=0x00000000
       58765000	      5875	8000274c	03b9c063	blt	x19,x27,8000276c	 x19:0x80000000 x27:0x00008000
       58775000	      5876	00000000	00000013	addi	x0,x0,0	  x0:0x00000000
       58785000	      5877	80002768	00000013	addi	x0,x0,0	  x0:0x00000000
       58795000	      5878	8000276c	00019e63	bne	x3,x0,80002788	  x3:0x80009ebe  x0:0x00000000
       58805000	      5879	00000000	00000013	addi	x0,x0,0	  x0:0x00000000
       58815000	      5880	80002784	00000013	addi	x0,x0,0	  x0:0x00000000
       58825000	      5881	80002788	0318e063	bltu	x17,x17,800027a8	 x17:0x6d68e000 x17:0x6d68e000
       58835000	      5882	8000278c	00b40ab3	add	x21,x8,x11	  x8:0x80009fc4 x11:0xfffffce3 x21=0x80009ca7
       58845000	      5883	80002790	010d32b3	sltu	x5,x26,x16	 x26:0xffffffaa x16:0x00000000  x5=0x00000000
       58855000	      5884	80002794	01030a63	beq	x6,x16,800027a8	  x6:0x0000000e x16:0x00000000
       58865000	      5885	80002798	401801b3	sub	x3,x16,x1	 x16:0x00000000  x1:0x005ad3d7  x3=0xffa52c29
       58875000	      5886	8000279c	e84da693	slti	x13,x27,-380	 x27:0x00008000 x13=0x00000000
       58885000	      5887	800027a0	0155d863	bge	x11,x21,800027b0	 x11:0xfffffce3 x21:0x80009ca7
       58895000	      5888	00000000	00000013	addi	x0,x0,0	  x0:0x00000000
       58905000	      5889	800027ac	00000013	addi	x0,x0,0	  x0:0x00000000
       58915000	      5890	800027b0	003f53b3	srl	x7,x30,x3	 x30:0x8000000e  x3:0xffa52c29  x7=0x00400000
       58925000	      5891	800027b4	01405693	srli	x13,x0,0x14	  x0:0x00000000 x13=0x00000000
       58935000	      5892	800027b8	01405d93	srli	x27,x0,0x14	  x0:0x00000000 x27=0x00000000
       58945000	      5893	800027bc	41735013	srai	x0,x6,0x17	  x6:0x0000000e
       58955000	      5894	800027c0	039d0a63	beq	x26,x25,800027f4	 x26:0xffffffaa x25:0x00000000
       58965000	      5895	800027c4	03725063	bge	x4,x23,800027e4	  x4:0xf1000000 x23:0x27f10000
       58975000	      5896	800027c8	f32c0193	addi	x3,x24,-206	 x24:0xffff6632  x3=0xffff6564
       58985000	      5897	800027cc	03ed6663	bltu	x26,x30,800027f8	 x26:0xffffffaa x30:0x8000000e
       58995000	      5898	800027d0	f51a3f93	sltiu	x31,x20,-175	 x20:0x80009ebc x31=0x00000001
       59005000	      5899	800027d4	4091d193	srai	x3,x3,0x9	  x3:0xffff6564  x3=0xffffffb2
       59015000	      5900	800027d8	00545093	srli	x1,x8,0x5	  x8:0x80009fc4  x1=0x040004fe
       59025000	      5901	800027dc	03ea8c63	beq	x21,x30,80002814	 x21:0x80009ca7 x30:0x8000000e
       59035000	      5902	800027e0	02ef5063	bge	x30,x14,80002800	 x30:0x8000000e x14:0x27f10000
       59045000	      5903	800027e4	00c4d193	srli	x3,x9,0xc	  x9:0x00000000  x3=0x00000000
       59055000	      5904	800027e8	03b0d463	bge	x1,x27,80002810	  x1:0x040004fe x27:0x00000000
       59065000	      5905	00000000	00000013	addi	x0,x0,0	  x0:0x00000000
       59075000	      5906	8000280c	00000013	addi	x0,x0,0	  x0:0x00000000
       59085000	      5907	80002810	01a9bf33	sltu	x30,x19,x26	 x19:0x80000000 x26:0xffffffaa x30=0x00000001
       59095000	      5908	80002814	009b1593	slli	x11,x22,0x9	 x22:0x00000001 x11=0x00000200
       59105000	      5909	80002818	012091b3	sll	x3,x1,x18	  x1:0x040004fe x18:0x00000001  x3=0x080009fc
       59115000	      5910	8000281c	ce224213	xori	x4,x4,-798	  x4:0xf1000000  x4=0x0efffce2
       59125000	      5911	80002820	01f91863	bne	x18,x31,80002830	 x18:0x00000001 x31:0x00000001
       59135000	      5912	80002824	24b8f593	andi	x11,x17,587	 x17:0x6d68e000 x11=0x00000000
       59145000	      5913	80002828	014a32b3	sltu	x5,x20,x20	 x20:0x80009ebc x20:0x80009ebc  x5=0x00000000
       59155000	      5914	8000282c	410603b3	sub	x7,x12,x16	 x12:0x80011ebc x16:0x00000000  x7=0x80011ebc
       59165000	      5915	80002830	0f51ad13	slti	x26,x3,245	  x3:0x080009fc x26=0x00000000
       59175000	      5916	80002834	01475bb3	srl	x23,x14,x20	 x14:0x27f10000 x20:0x80009ebc x23=0x00000002
       59185000	      5917	80002838	0193e3b3	or	x7,x7,x25	  x7:0x80011ebc x25:0x00000000  x7=0x80011ebc
       59195000	      5918	8000283c	aea5bf17	auipc	x30,0xaea5b	 x30=0x2ea5d838
       59205000	      5919	80002840	03ee6e63	bltu	x28,x30,8000287c	 x28:0x00000590 x30:0x2ea5d838
       59215000	      5920	00000000	00000013	addi	x0,x0,0	  x0:0x00000000
       59225000	      5921	80002878	00000013	addi	x0,x0,0	  x0:0x00000000
       59235000	      5922	8000287c	41ad8733	sub	x14,x27,x26	 x27:0x00000000 x26:0x00000000 x14=0x00000000
       59245000	      5923	80002880	01fef133	and	x2,x29,x31	 x29:0x80009f5e x31:0x00000001  x2=0x00000000
       59255000	      5924	80002884	5ccfc717	auipc	x14,0x5ccfc	 x14=0xdccfe880
       59265000	      5925	80002888	01371133	sll	x2,x14,x19	 x14:0xdccfe880 x19:0x80000000  x2=0xdccfe880
       59275000	      5926	8000288c	0054fe63	bgeu	x9,x5,800028a8	  x9:0x00000000  x5:0x00000000
       59285000	      5927	00000000	00000013	addi	x0,x0,0	  x0:0x00000000
       59295000	      5928	800028a4	00000013	addi	x0,x0,0	  x0:0x00000000
       59305000	      5929	800028a8	49522713	slti	x14,x4,1173	  x4:0x0efffce2 x14=0x00000000
       59315000	      5930	800028ac	01cf4b33	xor	x22,x30,x28	 x30:0x2ea5d838 x28:0x00000590 x22=0x2ea5dda8
       59325000	      5931	800028b0	00fc76b3	and	x13,x24,x15	 x24:0xffff6632 x15:0x0000000e x13=0x00000002
       59335000	      5932	800028b4	0021dbb3	srl	x23,x3,x2	  x3:0x080009fc  x2:0xdccfe880 x23=0x080009fc
       59345000	      5933	800028b8	c7952d13	slti	x26,x10,-903	 x10:0x00009f5e x26=0x00000000
       59355000	      5934	800028bc	41bd5493	srai	x9,x26,0x1b	 x26:0x00000000  x9=0x00000000
       59365000	      5935	800028c0	45f1c213	xori	x4,x3,1119	  x3:0x080009fc  x4=0x08000da3
       59375000	      5936	800028c4	775a7f13	andi	x30,x20,1909	 x20:0x80009ebc x30=0x00000634
       59385000	      5937	800028c8	00e79093	slli	x1,x15,0xe	 x15:0x0000000e  x1=0x00038000
       59395000	      5938	800028cc	013c90b3	sll	x1,x25,x19	 x25:0x00000000 x19:0x80000000  x1=0x00000000
       59405000	      5939	800028d0	10dc0713	addi	x14,x24,269	 x24:0xffff6632 x14=0xffff673f
       59415000	      5940	800028d4	41ee5bb3	sra	x23,x28,x30	 x28:0x00000590 x30:0x00000634 x23=0x00000000
       59425000	      5941	800028d8	1917be93	sltiu	x29,x15,401	 x15:0x0000000e x29=0x00000001
       59435000	      5942	800028dc	00f19f93	slli	x31,x3,0xf	  x3:0x080009fc x31=0x04fe0000
       59445000	      5943	800028e0	00dc26b3	slt	x13,x24,x13	 x24:0xffff6632 x13:0x00000002 x13=0x00000001
       59455000	      5944	800028e4	ab75e113	ori	x2,x11,-1353	 x11:0x00000000  x2=0xfffffab7
       59465000	      5945	800028e8	014cf5b3	and	x11,x25,x20	 x25:0x00000000 x20:0x80009ebc x11=0x00000000
       59475000	      5946	800028ec	4051d8b3	sra	x17,x3,x5	  x3:0x080009fc  x5:0x00000000 x17=0x080009fc
       59485000	      5947	800028f0	00dce463	bltu	x25,x13,800028f8	 x25:0x00000000 x13:0x00000001
       59495000	      5948	00000000	00000013	addi	x0,x0,0	  x0:0x00000000
       59505000	      5949	800028f4	00000013	addi	x0,x0,0	  x0:0x00000000
       59515000	      5950	800028f8	0072ce33	xor	x28,x5,x7	  x5:0x00000000  x7:0x80011ebc x28=0x80011ebc
       59525000	      5951	800028fc	702a0c93	addi	x25,x20,1794	 x20:0x80009ebc x25=0x8000a5be
       59535000	      5952	80002900	6e6e4913	xori	x18,x28,1766	 x28:0x80011ebc x18=0x8001185a
       59545000	      5953	80002904	015d7d33	and	x26,x26,x21	 x26:0x00000000 x21:0x80009ca7 x26=0x00000000
       59555000	      5954	80002908	5f35e097	auipc	x1,0x5f35e	  x1=0xdf360904
       59565000	      5955	8000290c	0365ce63	blt	x11,x22,80002948	 x11:0x00000000 x22:0x2ea5dda8
       59575000	      5956	00000000	00000013	addi	x0,x0,0	  x0:0x00000000
       59585000	      5957	80002944	00000013	addi	x0,x0,0	  x0:0x00000000
       59595000	      5958	80002948	008978b3	and	x17,x18,x8	 x18:0x8001185a  x8:0x80009fc4 x17=0x80001840
       59605000	      5959	8000294c	41585113	srai	x2,x16,0x15	 x16:0x00000000  x2=0x00000000
       59615000	      5960	80002950	028c0b93	addi	x23,x24,40	 x24:0xffff6632 x23=0xffff665a
       59625000	      5961	80002954	01fcb8b3	sltu	x17,x25,x31	 x25:0x8000a5be x31:0x04fe0000 x17=0x00000000
       59635000	      5962	80002958	02a91663	bne	x18,x10,80002984	 x18:0x8001185a x10:0x00009f5e
       59645000	      5963	00000000	00000013	addi	x0,x0,0	  x0:0x00000000
       59655000	      5964	80002980	00000013	addi	x0,x0,0	  x0:0x00000000
       59665000	      5965	80002984	e951beb7	lui	x29,0xe951b	 x29=0xe951b000
       59675000	      5966	80002988	015435b3	sltu	x11,x8,x21	  x8:0x80009fc4 x21:0x80009ca7 x11=0x00000000
       59685000	      5967	8000298c	9edb3593	sltiu	x11,x22,-1555	 x22:0x2ea5dda8 x11=0x00000001
       59695000	      5968	80002990	5a850493	addi	x9,x10,1448	 x10:0x00009f5e  x9=0x0000a506
       59705000	      5969	80002994	010cee63	bltu	x25,x16,800029b0	 x25:0x8000a5be x16:0x00000000
       59715000	      5970	80002998	009f5d13	srli	x26,x30,0x9	 x30:0x00000634 x26=0x00000003
       59725000	      5971	8000299c	b7eb7093	andi	x1,x22,-1154	 x22:0x2ea5dda8  x1=0x2ea5d928
       59735000	      5972	800029a0	40f55e93	srai	x29,x10,0xf	 x10:0x00009f5e x29=0x00000001
       59745000	      5973	800029a4	5aa7b397	auipc	x7,0x5aa7b	  x7=0xdaa7d9a0
       59755000	      5974	800029a8	0199fcb3	and	x25,x19,x25	 x19:0x80000000 x25:0x8000a5be x25=0x80000000
       59765000	      5975	800029ac	00e09a93	slli	x21,x1,0xe	  x1:0x2ea5d928 x21=0x764a0000
       59775000	      5976	800029b0	467b0793	addi	x15,x22,1127	 x22:0x2ea5dda8 x15=0x2ea5e20f
       59785000	      5977	800029b4	e8368613	addi	x12,x13,-381	 x13:0x00000001 x12=0xfffffe84
       59795000	      5978	800029b8	01315e93	srli	x29,x2,0x13	  x2:0x00000000 x29=0x00000000
       59805000	      5979	800029bc	03b5f063	bgeu	x11,x27,800029dc	 x11:0x00000001 x27:0x00000000
       59815000	      5980	00000000	00000013	addi	x0,x0,0	  x0:0x00000000
       59825000	      5981	800029d8	00000013	addi	x0,x0,0	  x0:0x00000000
       59835000	      5982	800029dc	1d418893	addi	x17,x3,468	  x3:0x080009fc x17=0x08000bd0
       59845000	      5983	800029e0	017f8733	add	x14,x31,x23	 x31:0x04fe0000 x23:0xffff665a x14=0x04fd665a
       59855000	      5984	800029e4	403a07b3	sub	x15,x20,x3	 x20:0x80009ebc  x3:0x080009fc x15=0x780094c0
       59865000	      5985	800029e8	00000013	addi	x0,x0,0	  x0:0x00000000
       59875000	      5986	800029ec	35163013	sltiu	x0,x12,849	 x12:0xfffffe84
       59885000	      5987	800029f0	01008863	beq	x1,x16,80002a00	  x1:0x2ea5d928 x16:0x00000000
       59895000	      5988	800029f4	01126d33	or	x26,x4,x17	  x4:0x08000da3 x17:0x08000bd0 x26=0x08000ff3
       59905000	      5989	800029f8	00f70733	add	x14,x14,x15	 x14:0x04fd665a x15:0x780094c0 x14=0x7cfdfb1a
       59915000	      5990	800029fc	57d85537	lui	x10,0x57d85	 x10=0x57d85000
       59925000	      5991	80002a00	18d32b13	slti	x22,x6,397	  x6:0x0000000e x22=0x00000001
       59935000	      5992	80002a04	41885233	sra	x4,x16,x24	 x16:0x00000000 x24:0xffff6632  x4=0x00000000
       59945000	      5993	80002a08	40ca50b3	sra	x1,x20,x12	 x20:0x80009ebc x12:0xfffffe84  x1=0xf80009eb
       59955000	      5994	80002a0c	02d37063	bgeu	x6,x13,80002a2c	  x6:0x0000000e x13:0x00000001
       59965000	      5995	00000000	00000013	addi	x0,x0,0	  x0:0x00000000
       59975000	      5996	80002a28	00000013	addi	x0,x0,0	  x0:0x00000000
       59985000	      5997	80002a2c	0178b533	sltu	x10,x17,x23	 x17:0x08000bd0 x23:0xffff665a x10=0x00000001
       59995000	      5998	80002a30	04549663	bne	x9,x5,80002a7c	  x9:0x0000a506  x5:0x00000000
       60005000	      5999	00000000	00000013	addi	x0,x0,0	  x0:0x00000000
       60015000	      6000	80002a78	00000013	addi	x0,x0,0	  x0:0x00000000
       60025000	      6001	80002a7c	0054dd93	srli	x27,x9,0x5	  x9:0x0000a506 x27=0x00000528
       60035000	      6002	80002a80	00b09b33	sll	x22,x1,x11	  x1:0xf80009eb x11:0x00000001 x22=0xf00013d6
       60045000	      6003	80002a84	01e47633	and	x12,x8,x30	  x8:0x80009fc4 x30:0x00000634 x12=0x00000604
       60055000	      6004	80002a88	72900c93	addi	x25,x0,1833	  x0:0x00000000 x25=0x00000729
       60065000	      6005	80002a8c	012a8233	add	x4,x21,x18	 x21:0x764a0000 x18:0x8001185a  x4=0xf64b185a
       60075000	      6006	80002a90	2d04cd93	xori	x27,x9,720	  x9:0x0000a506 x27=0x0000a7d6
       60085000	      6007	80002a94	00ccceb3	xor	x29,x25,x12	 x25:0x00000729 x12:0x00000604 x29=0x0000012d
       60095000	      6008	80002a98	b456eab7	lui	x21,0xb456e	 x21=0xb456e000
       60105000	      6009	80002a9c	9aef0c93	addi	x25,x30,-1618	 x30:0x00000634 x25=0xffffffe2
       60115000	      6010	80002aa0	005323b3	slt	x7,x6,x5	  x6:0x0000000e  x5:0x00000000  x7=0x00000000
       60125000	      6011	80002aa4	902a5297	auipc	x5,0x902a5	  x5=0x102a7aa0
       60135000	      6012	80002aa8	d2e7c693	xori	x13,x15,-722	 x15:0x780094c0 x13=0x87ff69ee
       60145000	      6013	80002aac	010adeb3	srl	x29,x21,x16	 x21:0xb456e000 x16:0x00000000 x29=0xb456e000
       60155000	      6014	80002ab0	003e7db3	and	x27,x28,x3	 x28:0x80011ebc  x3:0x080009fc x27=0x000008bc
       60165000	      6015	80002ab4	00a8ae33	slt	x28,x17,x10	 x17:0x08000bd0 x10:0x00000001 x28=0x00000000
       60175000	      6016	80002ab8	01493d33	sltu	x26,x18,x20	 x18:0x8001185a x20:0x80009ebc x26=0x00000000
       60185000	      6017	80002abc	41150233	sub	x4,x10,x17	 x10:0x00000001 x17:0x08000bd0  x4=0xf7fff431
       60195000	      6018	80002ac0	010e5b33	srl	x22,x28,x16	 x28:0x00000000 x16:0x00000000 x22=0x00000000
       60205000	      6019	80002ac4	44e2bd13	sltiu	x26,x5,1102	  x5:0x102a7aa0 x26=0x00000000
       60215000	      6020	80002ac8	03415463	bge	x2,x20,80002af0	  x2:0x00000000 x20:0x80009ebc
       60225000	      6021	00000000	00000013	addi	x0,x0,0	  x0:0x00000000
       60235000	      6022	80002aec	00000013	addi	x0,x0,0	  x0:0x00000000
       60245000	      6023	80002af0	98082537	lui	x10,0x98082	 x10=0x98082000
       60255000	      6024	80002af4	01c66233	or	x4,x12,x28	 x12:0x00000604 x28:0x00000000  x4=0x00000604
       60265000	      6025	80002af8	05434263	blt	x6,x20,80002b3c	  x6:0x0000000e x20:0x80009ebc
       60275000	      6026	80002afc	01939913	slli	x18,x7,0x19	  x7:0x00000000 x18=0x00000000
       60285000	      6027	80002b00	e0802d13	slti	x26,x0,-504	  x0:0x00000000 x26=0x00000000
       60295000	      6028	80002b04	fd036f93	ori	x31,x6,-48	  x6:0x0000000e x31=0xffffffde
       60305000	      6029	80002b08	9f1d8713	addi	x14,x27,-1551	 x27:0x000008bc x14=0x000002ad
       60315000	      6030	80002b0c	01a31863	bne	x6,x26,80002b1c	  x6:0x0000000e x26:0x00000000
       60325000	      6031	00000000	00000013	addi	x0,x0,0	  x0:0x00000000
       60335000	      6032	80002b18	00000013	addi	x0,x0,0	  x0:0x00000000
       60345000	      6033	80002b1c	005c4463	blt	x24,x5,80002b24	 x24:0xffff6632  x5:0x102a7aa0
       60355000	      6034	00000000	00000013	addi	x0,x0,0	  x0:0x00000000
       60365000	      6035	80002b20	00000013	addi	x0,x0,0	  x0:0x00000000
       60375000	      6036	80002b24	5f2ead13	slti	x26,x29,1522	 x29:0xb456e000 x26=0x00000001
       60385000	      6037	80002b28	00cca7b3	slt	x15,x25,x12	 x25:0xffffffe2 x12:0x00000604 x15=0x00000001
       60395000	      6038	80002b2c	edb11797	auipc	x15,0xedb11	 x15=0x6db13b28
       60405000	      6039	80002b30	019d9e63	bne	x27,x25,80002b4c	 x27:0x000008bc x25:0xffffffe2
       60415000	      6040	00000000	00000013	addi	x0,x0,0	  x0:0x00000000
       60425000	      6041	80002b48	00000013	addi	x0,x0,0	  x0:0x00000000
       60435000	      6042	80002b4c	00ba9893	slli	x17,x21,0xb	 x21:0xb456e000 x17=0xb7000000
       60445000	      6043	80002b50	0197b1b3	sltu	x3,x15,x25	 x15:0x6db13b28 x25:0xffffffe2  x3=0x00000001
       60455000	      6044	80002b54	c2ac8613	addi	x12,x25,-982	 x25:0xffffffe2 x12=0xfffffc0c
       60465000	      6045	80002b58	00934133	xor	x2,x6,x9	  x6:0x0000000e  x9:0x0000a506  x2=0x0000a508
       60475000	      6046	80002b5c	004f25b3	slt	x11,x30,x4	 x30:0x00000634  x4:0x00000604 x11=0x00000000
       60485000	      6047	80002b60	e47b3293	sltiu	x5,x22,-441	 x22:0x00000000  x5=0x00000001
       60495000	      6048	80002b64	00000013	addi	x0,x0,0	  x0:0x00000000
       60505000	      6049	80002b68	41c75133	sra	x2,x14,x28	 x14:0x000002ad x28:0x00000000  x2=0x000002ad
       60515000	      6050	80002b6c	2e0c0d93	addi	x27,x24,736	 x24:0xffff6632 x27=0xffff6912
       60525000	      6051	80002b70	01ea5b33	srl	x22,x20,x30	 x20:0x80009ebc x30:0x00000634 x22=0x00000800
       60535000	      6052	80002b74	0547f463	bgeu	x15,x20,80002bbc	 x15:0x6db13b28 x20:0x80009ebc
       60545000	      6053	80002b78	0013d2b3	srl	x5,x7,x1	  x7:0x00000000  x1:0xf80009eb  x5=0x00000000
       60555000	      6054	80002b7c	415c5f93	srai	x31,x24,0x15	 x24:0xffff6632 x31=0xffffffff
       60565000	      6055	80002b80	009b8863	beq	x23,x9,80002b90	 x23:0xffff665a  x9:0x0000a506
       60575000	      6056	80002b84	03925463	bge	x4,x25,80002bac	  x4:0x00000604 x25:0xffffffe2
       60585000	      6057	00000000	00000013	addi	x0,x0,0	  x0:0x00000000
       60595000	      6058	80002ba8	00000013	addi	x0,x0,0	  x0:0x00000000
       60605000	      6059	80002bac	0159b733	sltu	x14,x19,x21	 x19:0x80000000 x21:0xb456e000 x14=0x00000001
       60615000	      6060	80002bb0	9aa2ad13	slti	x26,x5,-1622	  x5:0x00000000 x26=0x00000000
       60625000	      6061	80002bb4	00711613	slli	x12,x2,0x7	  x2:0x000002ad x12=0x00015680
       60635000	      6062	80002bb8	72096093	ori	x1,x18,1824	 x18:0x00000000  x1=0x00000720
       60645000	      6063	80002bbc	41df0133	sub	x2,x30,x29	 x30:0x00000634 x29:0xb456e000  x2=0x4ba92634
       60655000	      6064	80002bc0	03397663	bgeu	x18,x19,80002bec	 x18:0x00000000 x19:0x80000000
       60665000	      6065	80002bc4	d0a934b7	lui	x9,0xd0a93	  x9=0xd0a93000
       60675000	      6066	80002bc8	00c4d793	srli	x15,x9,0xc	  x9:0xd0a93000 x15=0x000d0a93
       60685000	      6067	80002bcc	01aa4733	xor	x14,x20,x26	 x20:0x80009ebc x26:0x00000000 x14=0x80009ebc
       60695000	      6068	80002bd0	6007ec13	ori	x24,x15,1536	 x15:0x000d0a93 x24=0x000d0e93
       60705000	      6069	80002bd4	3c5d8e17	auipc	x28,0x3c5d8	 x28=0xbc5dabd0
       60715000	      6070	80002bd8	000fc863	blt	x31,x0,80002be8	 x31:0xffffffff  x0:0x00000000
       60725000	      6071	00000000	00000013	addi	x0,x0,0	  x0:0x00000000
       60735000	      6072	80002be4	00000013	addi	x0,x0,0	  x0:0x00000000
       60745000	      6073	80002be8	00000013	addi	x0,x0,0	  x0:0x00000000
       60755000	      6074	80002bec	047ae293	ori	x5,x21,71	 x21:0xb456e000  x5=0xb456e047
       60765000	      6075	80002bf0	015af533	and	x10,x21,x21	 x21:0xb456e000 x21:0xb456e000 x10=0xb456e000
       60775000	      6076	80002bf4	004cf5b3	and	x11,x25,x4	 x25:0xffffffe2  x4:0x00000604 x11=0x00000600
       60785000	      6077	80002bf8	51c7eb93	ori	x23,x15,1308	 x15:0x000d0a93 x23=0x000d0f9f
       60795000	      6078	80002bfc	111bb493	sltiu	x9,x23,273	 x23:0x000d0f9f  x9=0x00000000
       60805000	      6079	80002c00	402f5213	srai	x4,x30,0x2	 x30:0x00000634  x4=0x0000018d
       60815000	      6080	80002c04	017b9c93	slli	x25,x23,0x17	 x23:0x000d0f9f x25=0xcf800000
       60825000	      6081	80002c08	05694663	blt	x18,x22,80002c54	 x18:0x00000000 x22:0x00000800
       60835000	      6082	00000000	00000013	addi	x0,x0,0	  x0:0x00000000
       60845000	      6083	80002c50	00000013	addi	x0,x0,0	  x0:0x00000000
       60855000	      6084	80002c54	019e9863	bne	x29,x25,80002c64	 x29:0xb456e000 x25:0xcf800000
       60865000	      6085	00000000	00000013	addi	x0,x0,0	  x0:0x00000000
       60875000	      6086	80002c60	00000013	addi	x0,x0,0	  x0:0x00000000
       60885000	      6087	80002c64	01f83f33	sltu	x30,x16,x31	 x16:0x00000000 x31:0xffffffff x30=0x00000001
       60895000	      6088	80002c68	00000013	addi	x0,x0,0	  x0:0x00000000
       60905000	      6089	80002c6c	01864393	xori	x7,x12,24	 x12:0x00015680  x7=0x00015698
       60915000	      6090	80002c70	f7584037	lui	x0,0xf7584	
       60925000	      6091	80002c74	316831b7	lui	x3,0x31683	  x3=0x31683000
       60935000	      6092	80002c78	01bdce63	blt	x27,x27,80002c94	 x27:0xffff6912 x27:0xffff6912
       60945000	      6093	80002c7c	0301c863	blt	x3,x16,80002cac	  x3:0x31683000 x16:0x00000000
       60955000	      6094	80002c80	009de633	or	x12,x27,x9	 x27:0xffff6912  x9:0x00000000 x12=0xffff6912
       60965000	      6095	80002c84	045ed063	bge	x29,x5,80002cc4	 x29:0xb456e000  x5:0xb456e047
       60975000	      6096	80002c88	40ac0633	sub	x12,x24,x10	 x24:0x000d0e93 x10:0xb456e000 x12=0x4bb62e93
       60985000	      6097	80002c8c	00c15e63	bge	x2,x12,80002ca8	  x2:0x4ba92634 x12:0x4bb62e93
       60995000	      6098	80002c90	00b30633	add	x12,x6,x11	  x6:0x0000000e x11:0x00000600 x12=0x0000060e
       61005000	      6099	80002c94	01b07033	and	x0,x0,x27	  x0:0x00000000 x27:0xffff6912
       61015000	      6100	80002c98	002ecd33	xor	x26,x29,x2	 x29:0xb456e000  x2:0x4ba92634 x26=0xffffc634
       61025000	      6101	80002c9c	01d40f33	add	x30,x8,x29	  x8:0x80009fc4 x29:0xb456e000 x30=0x34577fc4
       61035000	      6102	80002ca0	05d80663	beq	x16,x29,80002cec	 x16:0x00000000 x29:0xb456e000
       61045000	      6103	80002ca4	54170f93	addi	x31,x14,1345	 x14:0x80009ebc x31=0x8000a3fd
       61055000	      6104	80002ca8	008fd0b3	srl	x1,x31,x8	 x31:0x8000a3fd  x8:0x80009fc4  x1=0x08000a3f
       61065000	      6105	80002cac	01eb00b3	add	x1,x22,x30	 x22:0x00000800 x30:0x34577fc4  x1=0x345787c4
       61075000	      6106	80002cb0	02cef063	bgeu	x29,x12,80002cd0	 x29:0xb456e000 x12:0x0000060e
       61085000	      6107	00000000	00000013	addi	x0,x0,0	  x0:0x00000000
       61095000	      6108	80002ccc	00000013	addi	x0,x0,0	  x0:0x00000000
       61105000	      6109	80002cd0	00000013	addi	x0,x0,0	  x0:0x00000000
       61115000	      6110	80002cd4	02426063	bltu	x4,x4,80002cf4	  x4:0x0000018d  x4:0x0000018d
       61125000	      6111	80002cd8	40065493	srai	x9,x12,0x0	 x12:0x0000060e  x9=0x0000060e
       61135000	      6112	80002cdc	00000013	addi	x0,x0,0	  x0:0x00000000
       61145000	      6113	80002ce0	0563e263	bltu	x7,x22,80002d24	  x7:0x00015698 x22:0x00000800
       61155000	      6114	80002ce4	01ae4263	blt	x28,x26,80002ce8	 x28:0xbc5dabd0 x26:0xffffc634
       61165000	      6115	00000000	00000013	addi	x0,x0,0	  x0:0x00000000
       61175000	      6116	80002ce4	00000013	addi	x0,x0,0	  x0:0x00000000
       61185000	      6117	80002ce8	008721b3	slt	x3,x14,x8	 x14:0x80009ebc  x8:0x80009fc4  x3=0x00000001
       61195000	      6118	80002cec	01ebef33	or	x30,x23,x30	 x23:0x000d0f9f x30:0x34577fc4 x30=0x345f7fdf
       61205000	      6119	80002cf0	00322233	slt	x4,x4,x3	  x4:0x0000018d  x3:0x00000001  x4=0x00000000
       61215000	      6120	80002cf4	41c30533	sub	x10,x6,x28	  x6:0x0000000e x28:0xbc5dabd0 x10=0x43a2543e
       61225000	      6121	80002cf8	00581933	sll	x18,x16,x5	 x16:0x00000000  x5:0xb456e047 x18=0x00000000
       61235000	      6122	80002cfc	0092d513	srli	x10,x5,0x9	  x5:0xb456e047 x10=0x005a2b70
       61245000	      6123	80002d00	0053d893	srli	x17,x7,0x5	  x7:0x00015698 x17=0x00000ab4
       61255000	      6124	80002d04	02b0ce63	blt	x1,x11,80002d40	  x1:0x345787c4 x11:0x00000600
       61265000	      6125	80002d08	04b3e263	bltu	x7,x11,80002d4c	  x7:0x00015698 x11:0x00000600
       61275000	      6126	80002d0c	5fecf613	andi	x12,x25,1534	 x25:0xcf800000 x12=0x00000000
       61285000	      6127	80002d10	017f9913	slli	x18,x31,0x17	 x31:0x8000a3fd x18=0xfe800000
       61295000	      6128	80002d14	018ebbb3	sltu	x23,x29,x24	 x29:0xb456e000 x24:0x000d0e93 x23=0x00000000
       61305000	      6129	80002d18	0ace8c93	addi	x25,x29,172	 x29:0xb456e000 x25=0xb456e0ac
       61315000	      6130	80002d1c	b2123e93	sltiu	x29,x4,-1247	  x4:0x00000000 x29=0x00000001
       61325000	      6131	80002d20	004fa8b3	slt	x17,x31,x4	 x31:0x8000a3fd  x4:0x00000000 x17=0x00000001
       61335000	      6132	80002d24	f204e213	ori	x4,x9,-224	  x9:0x0000060e  x4=0xffffff2e
       61345000	      6133	80002d28	01ab51b3	srl	x3,x22,x26	 x22:0x00000800 x26:0xffffc634  x3=0x00000000
       61355000	      6134	80002d2c	010f39b3	sltu	x19,x30,x16	 x30:0x345f7fdf x16:0x00000000 x19=0x00000000
       61365000	      6135	80002d30	05579063	bne	x15,x21,80002d70	 x15:0x000d0a93 x21:0xb456e000
       61375000	      6136	00000000	00000013	addi	x0,x0,0	  x0:0x00000000
       61385000	      6137	80002d6c	00000013	addi	x0,x0,0	  x0:0x00000000
       61395000	      6138	80002d70	179ba393	slti	x7,x23,377	 x23:0x00000000  x7=0x00000001
       61405000	      6139	80002d74	01daf863	bgeu	x21,x29,80002d84	 x21:0xb456e000 x29:0x00000001
       61415000	      6140	00000000	00000013	addi	x0,x0,0	  x0:0x00000000
       61425000	      6141	80002d80	00000013	addi	x0,x0,0	  x0:0x00000000
       61435000	      6142	80002d84	4b78a613	slti	x12,x17,1207	 x17:0x00000001 x12=0x00000001
       61445000	      6143	80002d88	8f974713	xori	x14,x14,-1799	 x14:0x80009ebc x14=0x7fff6645
       61455000	      6144	80002d8c	93fd7ab7	lui	x21,0x93fd7	 x21=0x93fd7000
       61465000	      6145	80002d90	41d45213	srai	x4,x8,0x1d	  x8:0x80009fc4  x4=0xfffffffc
       61475000	      6146	80002d94	017652b3	srl	x5,x12,x23	 x12:0x00000001 x23:0x00000000  x5=0x00000001
       61485000	      6147	80002d98	2d7a2713	slti	x14,x20,727	 x20:0x80009ebc x14=0x00000001
       61495000	      6148	80002d9c	009d0b33	add	x22,x26,x9	 x26:0xffffc634  x9:0x0000060e x22=0xffffcc42
       61505000	      6149	80002da0	01fd1913	slli	x18,x26,0x1f	 x26:0xffffc634 x18=0x00000000
       61515000	      6150	80002da4	0e1e7e63	bgeu	x28,x1,80002ea0	 x28:0xbc5dabd0  x1:0x345787c4
       61525000	      6151	00000000	00000013	addi	x0,x0,0	  x0:0x00000000
       61535000	      6152	80002e9c	00000013	addi	x0,x0,0	  x0:0x00000000
       61545000	      6153	80002ea0	00b8b833	sltu	x16,x17,x11	 x17:0x00000001 x11:0x00000600 x16=0x00000001
       61555000	      6154	80002ea4	01ef0b33	add	x22,x30,x30	 x30:0x345f7fdf x30:0x345f7fdf x22=0x68beffbe
       61565000	      6155	80002ea8	01ddf463	bgeu	x27,x29,80002eb0	 x27:0xffff6912 x29:0x00000001
       61575000	      6156	00000000	00000013	addi	x0,x0,0	  x0:0x00000000
       61585000	      6157	80002eac	00000013	addi	x0,x0,0	  x0:0x00000000
       61595000	      6158	80002eb0	00cd5793	srli	x15,x26,0xc	 x26:0xffffc634 x15=0x000ffffc
       61605000	      6159	80002eb4	02a0c863	blt	x1,x10,80002ee4	  x1:0x345787c4 x10:0x005a2b70
       61615000	      6160	80002eb8	010ac2b3	xor	x5,x21,x16	 x21:0x93fd7000 x16:0x00000001  x5=0x93fd7001
       61625000	      6161	80002ebc	51877293	andi	x5,x14,1304	 x14:0x00000001  x5=0x00000000
       61635000	      6162	80002ec0	41e00933	sub	x18,x0,x30	  x0:0x00000000 x30:0x345f7fdf x18=0xcba08021
       61645000	      6163	80002ec4	02c0e063	bltu	x1,x12,80002ee4	  x1:0x345787c4 x12:0x00000001
       61655000	      6164	80002ec8	016f1463	bne	x30,x22,80002ed0	 x30:0x345f7fdf x22:0x68beffbe
       61665000	      6165	00000000	00000013	addi	x0,x0,0	  x0:0x00000000
       61675000	      6166	80002ecc	00000013	addi	x0,x0,0	  x0:0x00000000
       61685000	      6167	80002ed0	008269b3	or	x19,x4,x8	  x4:0xfffffffc  x8:0x80009fc4 x19=0xfffffffc
       61695000	      6168	80002ed4	7b27c593	xori	x11,x15,1970	 x15:0x000ffffc x11=0x000ff84e
       61705000	      6169	80002ed8	e85404b7	lui	x9,0xe8540	  x9=0xe8540000
       61715000	      6170	80002edc	3a48cf13	xori	x30,x17,932	 x17:0x00000001 x30=0x000003a5
       61725000	      6171	80002ee0	02714463	blt	x2,x7,80002f08	  x2:0x4ba92634  x7:0x00000001
       61735000	      6172	80002ee4	00018f33	add	x30,x3,x0	  x3:0x00000000  x0:0x00000000 x30=0x00000000
       61745000	      6173	80002ee8	014f6db3	or	x27,x30,x20	 x30:0x00000000 x20:0x80009ebc x27=0x80009ebc
       61755000	      6174	80002eec	ddb52f13	slti	x30,x10,-549	 x10:0x005a2b70 x30=0x00000000
       61765000	      6175	80002ef0	41a50933	sub	x18,x10,x26	 x10:0x005a2b70 x26:0xffffc634 x18=0x005a653c
       61775000	      6176	80002ef4	011b9833	sll	x16,x23,x17	 x23:0x00000000 x17:0x00000001 x16=0x00000000
       61785000	      6177	80002ef8	54606b13	ori	x22,x0,1350	  x0:0x00000000 x22=0x00000546
       61795000	      6178	80002efc	01abf7b3	and	x15,x23,x26	 x23:0x00000000 x26:0xffffc634 x15=0x00000000
       61805000	      6179	80002f00	04aac463	blt	x21,x10,80002f48	 x21:0x93fd7000 x10:0x005a2b70
       61815000	      6180	00000000	00000013	addi	x0,x0,0	  x0:0x00000000
       61825000	      6181	80002f44	00000013	addi	x0,x0,0	  x0:0x00000000
       61835000	      6182	80002f48	018909b3	add	x19,x18,x24	 x18:0x005a653c x24:0x000d0e93 x19=0x006773cf
       61845000	      6183	80002f4c	01d76f33	or	x30,x14,x29	 x14:0x00000001 x29:0x00000001 x30=0x00000001
       61855000	      6184	80002f50	00006e17	auipc	x28,0x6	 x28=0x80008f4c
       61865000	      6185	80002f54	a8be0e13	addi	x28,x28,-1397	 x28:0x80008f4c x28=0x800089d7
       61875000	      6186	80002f58	0118d033	srl	x0,x17,x17	 x17:0x00000001 x17:0x00000001
       61885000	      6187	80002f5c	0005dbb3	srl	x23,x11,x0	 x11:0x000ff84e  x0:0x00000000 x23=0x000ff84e
       61895000	      6188	80002f60	01eb31b3	sltu	x3,x22,x30	 x22:0x00000546 x30:0x00000001  x3=0x00000000
       61905000	      6189	80002f64	015cc5b3	xor	x11,x25,x21	 x25:0xb456e0ac x21:0x93fd7000 x11=0x27ab90ac
       61915000	      6190	80002f68	8a3efa93	andi	x21,x29,-1885	 x29:0x00000001 x21=0x00000001
       61925000	      6191	80002f6c	07fe5703	lhu	x14,127(x28)	 x28:0x800089d7 x14=0x00003c3d PA:0x80008a56
       61935000	      6192	80002f70	05ae16a3	sh	x26,77(x28)	 x28:0x800089d7 x26:0xffffc634 PA:0x80008a24
       61945000	      6193	80002f74	3c02c713	xori	x14,x5,960	  x5:0x00000000 x14=0x000003c0
       61955000	      6194	80002f78	0cae4483	lbu	x9,202(x28)	 x28:0x800089d7  x9=0x0000008a PA:0x80008aa1
       61965000	      6195	80002f7c	027e09a3	sb	x7,51(x28)	 x28:0x800089d7  x7:0x00000001 PA:0x80008a0a
       61975000	      6196	80002f80	0c870b13	addi	x22,x14,200	 x14:0x000003c0 x22=0x00000488
       61985000	      6197	80002f84	4016d393	srai	x7,x13,0x1	 x13:0x87ff69ee  x7=0xc3ffb4f7
       61995000	      6198	80002f88	f56e0003	lb	x0,-170(x28)	 x28:0x800089d7 PA:0x8000892d
       62005000	      6199	80002f8c	b4238493	addi	x9,x7,-1214	  x7:0xc3ffb4f7  x9=0xc3ffb039
       62015000	      6200	80002f90	f65e1203	lh	x4,-155(x28)	 x28:0x800089d7  x4=0x00002627 PA:0x8000893c
       62025000	      6201	80002f94	014f65b3	or	x11,x30,x20	 x30:0x00000001 x20:0x80009ebc x11=0x80009ebd
       62035000	      6202	80002f98	01372f33	slt	x30,x14,x19	 x14:0x000003c0 x19:0x006773cf x30=0x00000001
       62045000	      6203	80002f9c	400b07b3	sub	x15,x22,x0	 x22:0x00000488  x0:0x00000000 x15=0x00000488
       62055000	      6204	80002fa0	fa1e0f23	sb	x1,-66(x28)	 x28:0x800089d7  x1:0x345787c4 PA:0x80008995
       62065000	      6205	80002fa4	fc6e1ca3	sh	x6,-39(x28)	 x28:0x800089d7  x6:0x0000000e PA:0x800089b0
       62075000	      6206	80002fa8	40b90c33	sub	x24,x18,x11	 x18:0x005a653c x11:0x80009ebd x24=0x8059c67f
       62085000	      6207	80002fac	01665eb3	srl	x29,x12,x22	 x12:0x00000001 x22:0x00000488 x29=0x00000000
       62095000	      6208	80002fb0	ede1f093	andi	x1,x3,-290	  x3:0x00000000  x1=0x00000000
       62105000	      6209	80002fb4	00000013	addi	x0,x0,0	  x0:0x00000000
       62115000	      6210	80002fb8	0ace4503	lbu	x10,172(x28)	 x28:0x800089d7 x10=0x00000068 PA:0x80008a83
       62125000	      6211	80002fbc	be7fc393	xori	x7,x31,-1049	 x31:0x8000a3fd  x7=0x7fff581a
       62135000	      6212	80002fc0	f6ee0483	lb	x9,-146(x28)	 x28:0x800089d7  x9=0x0000002e PA:0x80008945
       62145000	      6213	80002fc4	067e0da3	sb	x7,123(x28)	 x28:0x800089d7  x7:0x7fff581a PA:0x80008a52
       62155000	      6214	80002fc8	f97e4b83	lbu	x23,-105(x28)	 x28:0x800089d7 x23=0x00000055 PA:0x8000896e
       62165000	      6215	80002fcc	006f69b3	or	x19,x30,x6	 x30:0x00000001  x6:0x0000000e x19=0x0000000f
       62175000	      6216	80002fd0	01ab9133	sll	x2,x23,x26	 x23:0x00000055 x26:0xffffc634  x2=0x05500000
       62185000	      6217	80002fd4	034e0b03	lb	x22,52(x28)	 x28:0x800089d7 x22=0xfffffff0 PA:0x80008a0b
       62195000	      6218	80002fd8	b21ab993	sltiu	x19,x21,-1247	 x21:0x00000001 x19=0x00000001
       62205000	      6219	80002fdc	00d189b3	add	x19,x3,x13	  x3:0x00000000 x13:0x87ff69ee x19=0x87ff69ee
       62215000	      6220	80002fe0	00edb7b3	sltu	x15,x27,x14	 x27:0x80009ebc x14:0x000003c0 x15=0x00000000
       62225000	      6221	80002fe4	02cb0a63	beq	x22,x12,80003018	 x22:0xfffffff0 x12:0x00000001
       62235000	      6222	80002fe8	0083cfb3	xor	x31,x7,x8	  x7:0x7fff581a  x8:0x80009fc4 x31=0xffffc7de
       62245000	      6223	80002fec	48b8ce37	lui	x28,0x48b8c	 x28=0x48b8c000
       62255000	      6224	80002ff0	2c222d13	slti	x26,x4,706	  x4:0x00002627 x26=0x00000000
       62265000	      6225	80002ff4	ea7fbe93	sltiu	x29,x31,-345	 x31:0xffffc7de x29=0x00000001
       62275000	      6226	80002ff8	40355d93	srai	x27,x10,0x3	 x10:0x00000068 x27=0x0000000d
       62285000	      6227	80002ffc	016649b3	xor	x19,x12,x22	 x12:0x00000001 x22:0xfffffff0 x19=0xfffffff1
       62295000	      6228	80003000	ba9b3c13	sltiu	x24,x22,-1111	 x22:0xfffffff0 x24=0x00000000
       62305000	      6229	80003004	40af88b3	sub	x17,x31,x10	 x31:0xffffc7de x10:0x00000068 x17=0xffffc776
       62315000	      6230	80003008	03607663	bgeu	x0,x22,80003034	  x0:0x00000000 x22:0xfffffff0
       62325000	      6231	8000300c	00033733	sltu	x14,x6,x0	  x6:0x0000000e  x0:0x00000000 x14=0x00000000
       62335000	      6232	80003010	00000013	addi	x0,x0,0	  x0:0x00000000
       62345000	      6233	80003014	0074aeb3	slt	x29,x9,x7	  x9:0x0000002e  x7:0x7fff581a x29=0x00000001
       62355000	      6234	80003018	0040b633	sltu	x12,x1,x4	  x1:0x00000000  x4:0x00002627 x12=0x00000001
       62365000	      6235	8000301c	750a2793	slti	x15,x20,1872	 x20:0x80009ebc x15=0x00000001
       62375000	      6236	80003020	00328e63	beq	x5,x3,8000303c	  x5:0x00000000  x3:0x00000000
       62385000	      6237	00000000	00000013	addi	x0,x0,0	  x0:0x00000000
       62395000	      6238	80003038	00000013	addi	x0,x0,0	  x0:0x00000000
       62405000	      6239	8000303c	00859863	bne	x11,x8,8000304c	 x11:0x80009ebd  x8:0x80009fc4
       62415000	      6240	00000000	00000013	addi	x0,x0,0	  x0:0x00000000
       62425000	      6241	80003048	00000013	addi	x0,x0,0	  x0:0x00000000
       62435000	      6242	8000304c	05fd5663	bge	x26,x31,80003098	 x26:0x00000000 x31:0xffffc7de
       62445000	      6243	00000000	00000013	addi	x0,x0,0	  x0:0x00000000
       62455000	      6244	80003094	00000013	addi	x0,x0,0	  x0:0x00000000
       62465000	      6245	80003098	01a019b3	sll	x19,x0,x26	  x0:0x00000000 x26:0x00000000 x19=0x00000000
       62475000	      6246	8000309c	411fbd13	sltiu	x26,x31,1041	 x31:0xffffc7de x26=0x00000000
       62485000	      6247	800030a0	017af733	and	x14,x21,x23	 x21:0x00000001 x23:0x00000055 x14=0x00000001
       62495000	      6248	800030a4	018401b3	add	x3,x8,x24	  x8:0x80009fc4 x24:0x00000000  x3=0x80009fc4
       62505000	      6249	800030a8	417dd9b3	sra	x19,x27,x23	 x27:0x0000000d x23:0x00000055 x19=0x00000000
       62515000	      6250	800030ac	41525ab3	sra	x21,x4,x21	  x4:0x00002627 x21:0x00000001 x21=0x00001313
       62525000	      6251	800030b0	01454b33	xor	x22,x10,x20	 x10:0x00000068 x20:0x80009ebc x22=0x80009ed4
       62535000	      6252	800030b4	00fe4863	blt	x28,x15,800030c4	 x28:0x48b8c000 x15:0x00000001
       62545000	      6253	800030b8	edaa2193	slti	x3,x20,-294	 x20:0x80009ebc  x3=0x00000001
       62555000	      6254	800030bc	016a0b33	add	x22,x20,x22	 x20:0x80009ebc x22:0x80009ed4 x22=0x00013d90
       62565000	      6255	800030c0	40ec80b3	sub	x1,x25,x14	 x25:0xb456e0ac x14:0x00000001  x1=0xb456e0ab
       62575000	      6256	800030c4	05e90663	beq	x18,x30,80003110	 x18:0x005a653c x30:0x00000001
       62585000	      6257	800030c8	004cf033	and	x0,x25,x4	 x25:0xb456e0ac  x4:0x00002627
       62595000	      6258	800030cc	0372d063	bge	x5,x23,800030ec	  x5:0x00000000 x23:0x00000055
       62605000	      6259	800030d0	0169d393	srli	x7,x19,0x16	 x19:0x00000000  x7=0x00000000
       62615000	      6260	800030d4	03f2cc63	blt	x5,x31,8000310c	  x5:0x00000000 x31:0xffffc7de
       62625000	      6261	800030d8	3eca8393	addi	x7,x21,1004	 x21:0x00001313  x7=0x000016ff
       62635000	      6262	800030dc	6c1dba93	sltiu	x21,x27,1729	 x27:0x0000000d x21=0x00000001
       62645000	      6263	800030e0	e3baec93	ori	x25,x21,-453	 x21:0x00000001 x25=0xfffffe3b
       62655000	      6264	800030e4	b1d2aa93	slti	x21,x5,-1251	  x5:0x00000000 x21=0x00000000
       62665000	      6265	800030e8	3742cf17	auipc	x30,0x3742c	 x30=0xb742f0e4
       62675000	      6266	800030ec	000364b3	or	x9,x6,x0	  x6:0x0000000e  x0:0x00000000  x9=0x0000000e
       62685000	      6267	800030f0	4042d713	srai	x14,x5,0x4	  x5:0x00000000 x14=0x00000000
       62695000	      6268	800030f4	019798b3	sll	x17,x15,x25	 x15:0x00000001 x25:0xfffffe3b x17=0x08000000
       62705000	      6269	800030f8	03e21663	bne	x4,x30,80003124	  x4:0x00002627 x30:0xb742f0e4
       62715000	      6270	00000000	00000013	addi	x0,x0,0	  x0:0x00000000
       62725000	      6271	80003120	00000013	addi	x0,x0,0	  x0:0x00000000
       62735000	      6272	80003124	fe07fe13	andi	x28,x15,-32	 x15:0x00000001 x28=0x00000000
       62745000	      6273	80003128	0041ad33	slt	x26,x3,x4	  x3:0x00000001  x4:0x00002627 x26=0x00000001
       62755000	      6274	8000312c	009314b3	sll	x9,x6,x9	  x6:0x0000000e  x9:0x0000000e  x9=0x00038000
       62765000	      6275	80003130	006f18b3	sll	x17,x30,x6	 x30:0xb742f0e4  x6:0x0000000e x17=0xbc390000
       62775000	      6276	80003134	4068d3b3	sra	x7,x17,x6	 x17:0xbc390000  x6:0x0000000e  x7=0xfffef0e4
       62785000	      6277	80003138	0037a533	slt	x10,x15,x3	 x15:0x00000001  x3:0x00000001 x10=0x00000000
       62795000	      6278	8000313c	003cc633	xor	x12,x25,x3	 x25:0xfffffe3b  x3:0x00000001 x12=0xfffffe3a
       62805000	      6279	80003140	00527463	bgeu	x4,x5,80003148	  x4:0x00002627  x5:0x00000000
       62815000	      6280	00000000	00000013	addi	x0,x0,0	  x0:0x00000000
       62825000	      6281	80003144	00000013	addi	x0,x0,0	  x0:0x00000000
       62835000	      6282	80003148	6c136c13	ori	x24,x6,1729	  x6:0x0000000e x24=0x000006cf
       62845000	      6283	8000314c	2a7f7993	andi	x19,x30,679	 x30:0xb742f0e4 x19=0x000000a4
       62855000	      6284	80003150	ed5ceb13	ori	x22,x25,-299	 x25:0xfffffe3b x22=0xfffffeff
       62865000	      6285	80003154	eeb96213	ori	x4,x18,-277	 x18:0x005a653c  x4=0xffffffff
       62875000	      6286	80003158	c3db7e13	andi	x28,x22,-963	 x22:0xfffffeff x28=0xfffffc3d
       62885000	      6287	8000315c	5f874b97	auipc	x23,0x5f874	 x23=0xdf877158
       62895000	      6288	80003160	01d94863	blt	x18,x29,80003170	 x18:0x005a653c x29:0x00000001
       62905000	      6289	80003164	01476b33	or	x22,x14,x20	 x14:0x00000000 x20:0x80009ebc x22=0x80009ebc
       62915000	      6290	80003168	00f35113	srli	x2,x6,0xf	  x6:0x0000000e  x2=0x00000000
       62925000	      6291	8000316c	01e2aab3	slt	x21,x5,x30	  x5:0x00000000 x30:0xb742f0e4 x21=0x00000000
       62935000	      6292	80003170	2a584613	xori	x12,x16,677	 x16:0x00000000 x12=0x000002a5
       62945000	      6293	80003174	41a40fb3	sub	x31,x8,x26	  x8:0x80009fc4 x26:0x00000001 x31=0x80009fc3
       62955000	      6294	80003178	01bcbdb3	sltu	x27,x25,x27	 x25:0xfffffe3b x27:0x0000000d x27=0x00000000
       62965000	      6295	8000317c	01383233	sltu	x4,x16,x19	 x16:0x00000000 x19:0x000000a4  x4=0x00000001
       62975000	      6296	80003180	013debb3	or	x23,x27,x19	 x27:0x00000000 x19:0x000000a4 x23=0x000000a4
       62985000	      6297	80003184	d7c2ec13	ori	x24,x5,-644	  x5:0x00000000 x24=0xfffffd7c
       62995000	      6298	80003188	00904eb3	xor	x29,x0,x9	  x0:0x00000000  x9:0x00038000 x29=0x00038000
       63005000	      6299	8000318c	a4970793	addi	x15,x14,-1463	 x14:0x00000000 x15=0xfffffa49
       63015000	      6300	80003190	41fa8e33	sub	x28,x21,x31	 x21:0x00000000 x31:0x80009fc3 x28=0x7fff603d
       63025000	      6301	80003194	90057213	andi	x4,x10,-1792	 x10:0x00000000  x4=0x00000000
       63035000	      6302	80003198	012dd463	bge	x27,x18,800031a0	 x27:0x00000000 x18:0x005a653c
       63045000	      6303	8000319c	41155693	srai	x13,x10,0x11	 x10:0x00000000 x13=0x00000000
       63055000	      6304	800031a0	03ad7063	bgeu	x26,x26,800031c0	 x26:0x00000001 x26:0x00000001
       63065000	      6305	00000000	00000013	addi	x0,x0,0	  x0:0x00000000
       63075000	      6306	800031bc	00000013	addi	x0,x0,0	  x0:0x00000000
       63085000	      6307	800031c0	87c6b293	sltiu	x5,x13,-1924	 x13:0x00000000  x5=0x00000001
       63095000	      6308	800031c4	00638e63	beq	x7,x6,800031e0	  x7:0xfffef0e4  x6:0x0000000e
       63105000	      6309	800031c8	41b28733	sub	x14,x5,x27	  x5:0x00000001 x27:0x00000000 x14=0x00000001
       63115000	      6310	800031cc	41235db3	sra	x27,x6,x18	  x6:0x0000000e x18:0x005a653c x27=0x00000000
       63125000	      6311	800031d0	6b6fae97	auipc	x29,0x6b6fa	 x29=0xeb6fd1cc
       63135000	      6312	800031d4	0454c063	blt	x9,x5,80003214	  x9:0x00038000  x5:0x00000001
       63145000	      6313	800031d8	002ca033	slt	x0,x25,x2	 x25:0xfffffe3b  x2:0x00000000
       63155000	      6314	800031dc	25c1ab13	slti	x22,x3,604	  x3:0x00000001 x22=0x00000001
       63165000	      6315	800031e0	0c6ab917	auipc	x18,0xc6ab	 x18=0x8c6ae1dc
       63175000	      6316	800031e4	358ae813	ori	x16,x21,856	 x21:0x00000000 x16=0x00000358
       63185000	      6317	800031e8	03f19a63	bne	x3,x31,8000321c	  x3:0x00000001 x31:0x80009fc3
       63195000	      6318	00000000	00000013	addi	x0,x0,0	  x0:0x00000000
       63205000	      6319	80003218	00000013	addi	x0,x0,0	  x0:0x00000000
       63215000	      6320	8000321c	01bd05b3	add	x11,x26,x27	 x26:0x00000001 x27:0x00000000 x11=0x00000001
       63225000	      6321	80003220	0098dd13	srli	x26,x17,0x9	 x17:0xbc390000 x26=0x005e1c80
       63235000	      6322	80003224	00b48e63	beq	x9,x11,80003240	  x9:0x00038000 x11:0x00000001
       63245000	      6323	80003228	01a36233	or	x4,x6,x26	  x6:0x0000000e x26:0x005e1c80  x4=0x005e1c8e
       63255000	      6324	8000322c	413bdb33	sra	x22,x23,x19	 x23:0x000000a4 x19:0x000000a4 x22=0x0000000a
       63265000	      6325	80003230	016ef863	bgeu	x29,x22,80003240	 x29:0xeb6fd1cc x22:0x0000000a
       63275000	      6326	00000000	00000013	addi	x0,x0,0	  x0:0x00000000
       63285000	      6327	8000323c	00000013	addi	x0,x0,0	  x0:0x00000000
       63295000	      6328	80003240	24647393	andi	x7,x8,582	  x8:0x80009fc4  x7=0x00000244
       63305000	      6329	80003244	fe927f13	andi	x30,x4,-23	  x4:0x005e1c8e x30=0x005e1c88
       63315000	      6330	80003248	0162d9b3	srl	x19,x5,x22	  x5:0x00000001 x22:0x0000000a x19=0x00000000
       63325000	      6331	8000324c	fe2fe293	ori	x5,x31,-30	 x31:0x80009fc3  x5=0xffffffe3
       63335000	      6332	80003250	5e2da013	slti	x0,x27,1506	 x27:0x00000000
       63345000	      6333	80003254	53da1117	auipc	x2,0x53da1	  x2=0xd3da4250
       63355000	      6334	80003258	012dca63	blt	x27,x18,8000326c	 x27:0x00000000 x18:0x8c6ae1dc
       63365000	      6335	8000325c	818a3d93	sltiu	x27,x20,-2024	 x20:0x80009ebc x27=0x00000001
       63375000	      6336	80003260	0391c463	blt	x3,x25,80003288	  x3:0x00000001 x25:0xfffffe3b
       63385000	      6337	80003264	41a80833	sub	x16,x16,x26	 x16:0x00000358 x26:0x005e1c80 x16=0xffa1e6d8
       63395000	      6338	80003268	41595213	srai	x4,x18,0x15	 x18:0x8c6ae1dc  x4=0xfffffc63
       63405000	      6339	8000326c	00cca833	slt	x16,x25,x12	 x25:0xfffffe3b x12:0x000002a5 x16=0x00000001
       63415000	      6340	80003270	00d38863	beq	x7,x13,80003280	  x7:0x00000244 x13:0x00000000
       63425000	      6341	80003274	00000013	addi	x0,x0,0	  x0:0x00000000
       63435000	      6342	80003278	0a2e5663	bge	x28,x2,80003324	 x28:0x7fff603d  x2:0xd3da4250
       63445000	      6343	00000000	00000013	addi	x0,x0,0	  x0:0x00000000
       63455000	      6344	80003320	00000013	addi	x0,x0,0	  x0:0x00000000
       63465000	      6345	80003324	40f355b3	sra	x11,x6,x15	  x6:0x0000000e x15:0xfffffa49 x11=0x00000000
       63475000	      6346	80003328	250c8613	addi	x12,x25,592	 x25:0xfffffe3b x12=0x0000008b
       63485000	      6347	8000332c	8d3a7b93	andi	x23,x20,-1837	 x20:0x80009ebc x23=0x80009890
       63495000	      6348	80003330	40a7d393	srai	x7,x15,0xa	 x15:0xfffffa49  x7=0xfffffffe
       63505000	      6349	80003334	01d75d33	srl	x26,x14,x29	 x14:0x00000001 x29:0xeb6fd1cc x26=0x00000000
       63515000	      6350	80003338	01b06133	or	x2,x0,x27	  x0:0x00000000 x27:0x00000001  x2=0x00000001
       63525000	      6351	8000333c	004a8a63	beq	x21,x4,80003350	 x21:0x00000000  x4:0xfffffc63
       63535000	      6352	80003340	00000013	addi	x0,x0,0	  x0:0x00000000
       63545000	      6353	80003344	000875b3	and	x11,x16,x0	 x16:0x00000001  x0:0x00000000 x11=0x00000000
       63555000	      6354	80003348	0188d863	bge	x17,x24,80003358	 x17:0xbc390000 x24:0xfffffd7c
       63565000	      6355	8000334c	b945d897	auipc	x17,0xb945d	 x17=0x39460348
       63575000	      6356	80003350	809a2b13	slti	x22,x20,-2039	 x20:0x80009ebc x22=0x00000001
       63585000	      6357	80003354	03d9e663	bltu	x19,x29,80003380	 x19:0x00000000 x29:0xeb6fd1cc
       63595000	      6358	00000000	00000013	addi	x0,x0,0	  x0:0x00000000
       63605000	      6359	8000337c	00000013	addi	x0,x0,0	  x0:0x00000000
       63615000	      6360	80003380	414d0e33	sub	x28,x26,x20	 x26:0x00000000 x20:0x80009ebc x28=0x7fff6144
       63625000	      6361	80003384	0077c7b3	xor	x15,x15,x7	 x15:0xfffffa49  x7:0xfffffffe x15=0x000005b7
       63635000	      6362	80003388	00e98c33	add	x24,x19,x14	 x19:0x00000000 x14:0x00000001 x24=0x00000001
       63645000	      6363	8000338c	0175f863	bgeu	x11,x23,8000339c	 x11:0x00000000 x23:0x80009890
       63655000	      6364	80003390	011a9393	slli	x7,x21,0x11	 x21:0x00000000  x7=0x00000000
       63665000	      6365	80003394	00f26463	bltu	x4,x15,8000339c	  x4:0xfffffc63 x15:0x000005b7
       63675000	      6366	80003398	4083d393	srai	x7,x7,0x8	  x7:0x00000000  x7=0x00000000
       63685000	      6367	8000339c	006bd113	srli	x2,x23,0x6	 x23:0x80009890  x2=0x02000262
       63695000	      6368	800033a0	02234063	blt	x6,x2,800033c0	  x6:0x0000000e  x2:0x02000262
       63705000	      6369	00000000	00000013	addi	x0,x0,0	  x0:0x00000000
       63715000	      6370	800033bc	00000013	addi	x0,x0,0	  x0:0x00000000
       63725000	      6371	800033c0	8b45e113	ori	x2,x11,-1868	 x11:0x00000000  x2=0xfffff8b4
       63735000	      6372	800033c4	030d7863	bgeu	x26,x16,800033f4	 x26:0x00000000 x16:0x00000001
       63745000	      6373	800033c8	02665463	bge	x12,x6,800033f0	 x12:0x0000008b  x6:0x0000000e
       63755000	      6374	00000000	00000013	addi	x0,x0,0	  x0:0x00000000
       63765000	      6375	800033ec	00000013	addi	x0,x0,0	  x0:0x00000000
       63775000	      6376	800033f0	41908db3	sub	x27,x1,x25	  x1:0xb456e0ab x25:0xfffffe3b x27=0xb456e270
       63785000	      6377	800033f4	40d4da93	srai	x21,x9,0xd	  x9:0x00038000 x21=0x0000001c
       63795000	      6378	800033f8	0186f7b3	and	x15,x13,x24	 x13:0x00000000 x24:0x00000001 x15=0x00000000
       63805000	      6379	800033fc	00046833	or	x16,x8,x0	  x8:0x80009fc4  x0:0x00000000 x16=0x80009fc4
       63815000	      6380	80003400	f2facc93	xori	x25,x21,-209	 x21:0x0000001c x25=0xffffff33
       63825000	      6381	80003404	04e6c663	blt	x13,x14,80003450	 x13:0x00000000 x14:0x00000001
       63835000	      6382	00000000	00000013	addi	x0,x0,0	  x0:0x00000000
       63845000	      6383	8000344c	00000013	addi	x0,x0,0	  x0:0x00000000
       63855000	      6384	80003450	0c663213	sltiu	x4,x12,198	 x12:0x0000008b  x4=0x00000001
       63865000	      6385	80003454	bd258f13	addi	x30,x11,-1070	 x11:0x00000000 x30=0xfffffbd2
       63875000	      6386	80003458	004127b3	slt	x15,x2,x4	  x2:0xfffff8b4  x4:0x00000001 x15=0x00000001
       63885000	      6387	8000345c	041c1663	bne	x24,x1,800034a8	 x24:0x00000001  x1:0xb456e0ab
       63895000	      6388	00000000	00000013	addi	x0,x0,0	  x0:0x00000000
       63905000	      6389	800034a4	00000013	addi	x0,x0,0	  x0:0x00000000
       63915000	      6390	800034a8	01d76e63	bltu	x14,x29,800034c4	 x14:0x00000001 x29:0xeb6fd1cc
       63925000	      6391	00000000	00000013	addi	x0,x0,0	  x0:0x00000000
       63935000	      6392	800034c0	00000013	addi	x0,x0,0	  x0:0x00000000
       63945000	      6393	800034c4	03006063	bltu	x0,x16,800034e4	  x0:0x00000000 x16:0x80009fc4
       63955000	      6394	00000000	00000013	addi	x0,x0,0	  x0:0x00000000
       63965000	      6395	800034e0	00000013	addi	x0,x0,0	  x0:0x00000000
       63975000	      6396	800034e4	e9ebe393	ori	x7,x23,-354	 x23:0x80009890  x7=0xfffffe9e
       63985000	      6397	800034e8	fe470f13	addi	x30,x14,-28	 x14:0x00000001 x30=0xffffffe5
       63995000	      6398	800034ec	01acfe63	bgeu	x25,x26,80003508	 x25:0xffffff33 x26:0x00000000
       64005000	      6399	00000000	00000013	addi	x0,x0,0	  x0:0x00000000
       64015000	      6400	80003504	00000013	addi	x0,x0,0	  x0:0x00000000
       64025000	      6401	80003508	40500933	sub	x18,x0,x5	  x0:0x00000000  x5:0xffffffe3 x18=0x0000001d
       64035000	      6402	8000350c	eb0c3613	sltiu	x12,x24,-336	 x24:0x00000001 x12=0x00000001
       64045000	      6403	80003510	b26cb593	sltiu	x11,x25,-1242	 x25:0xffffff33 x11=0x00000000
       64055000	      6404	80003514	009e9793	slli	x15,x29,0x9	 x29:0xeb6fd1cc x15=0xdfa39800
       64065000	      6405	80003518	01a750b3	srl	x1,x14,x26	 x14:0x00000001 x26:0x00000000  x1=0x00000001
       64075000	      6406	8000351c	01f5f233	and	x4,x11,x31	 x11:0x00000000 x31:0x80009fc3  x4=0x00000000
       64085000	      6407	80003520	2ebd6897	auipc	x17,0x2ebd6	 x17=0xaebd951c
       64095000	      6408	80003524	ecfd2937	lui	x18,0xecfd2	 x18=0xecfd2000
       64105000	      6409	80003528	004a2083	lw	x1,4(x20)	 x20:0x80009ebc  x1=0x80005d84 PA:0x80009ec0
       64115000	      6410	8000352c	00000013	addi	x0,x0,0	  x0:0x00000000
       64125000	      6411	80003530	034a0a13	addi	x20,x20,52	 x20:0x80009ebc x20=0x80009ef0
       64135000	      6412	80003534	008a9033	sll	x0,x21,x8	 x21:0x0000001c  x8:0x80009fc4
       64145000	      6413	80003538	00ed7db3	and	x27,x26,x14	 x26:0x00000000 x14:0x00000001 x27=0x00000000
       64155000	      6414	8000353c	01b47d33	and	x26,x8,x27	  x8:0x80009fc4 x27:0x00000000 x26=0x00000000
       64165000	      6415	80003540	1cc16393	ori	x7,x2,460	  x2:0xfffff8b4  x7=0xfffff9fc
       64175000	      6416	80003544	00008d13	addi	x26,x1,0	  x1:0x80005d84 x26=0x80005d84
       64185000	      6417	80003548	000d0d67	jalr	x26,x26,0	 x26:0x80005d84 x26=0x80003548
       64195000	      6418	00000000	00000013	addi	x0,x0,0	  x0:0x00000000
       64205000	      6419	80005d84	00000013	addi	x0,x0,0	  x0:0x00000000
       64215000	      6420	80005d88	00002697	auipc	x13,0x2	 x13=0x80007d84
       64225000	      6421	80005d8c	4b468693	addi	x13,x13,1204	 x13:0x80007d84 x13=0x80008238
       64235000	      6422	80005d90	2d06db83	lhu	x23,720(x13)	 x13:0x80008238 x23=0x0000c2c3 PA:0x80008508
       64245000	      6423	80005d94	04132e93	slti	x29,x6,65	  x6:0x0000000e x29=0x00000001
       64255000	      6424	80005d98	f9b49b17	auipc	x22,0xf9b49	 x22=0x79b4ed94
       64265000	      6425	80005d9c	013852b3	srl	x5,x16,x19	 x16:0x80009fc4 x19:0x00000000  x5=0x80009fc4
       64275000	      6426	80005da0	f7c682a3	sb	x28,-155(x13)	 x13:0x80008238 x28:0x7fff6144 PA:0x8000819d
       64285000	      6427	80005da4	39568423	sb	x21,904(x13)	 x13:0x80008238 x21:0x0000001c PA:0x800085c0
       64295000	      6428	80005da8	39b73a93	sltiu	x21,x14,923	 x14:0x00000001 x21=0x00000001
       64305000	      6429	80005dac	e6213e93	sltiu	x29,x2,-414	  x2:0xfffff8b4 x29=0x00000001
       64315000	      6430	80005db0	53d68ea3	sb	x29,1341(x13)	 x13:0x80008238 x29:0x00000001 PA:0x80008775
       64325000	      6431	80005db4	01a02ab3	slt	x21,x0,x26	  x0:0x00000000 x26:0x80003548 x21=0x00000000
       64335000	      6432	80005db8	01fd5033	srl	x0,x26,x31	 x26:0x80003548 x31:0x80009fc3
       64345000	      6433	80005dbc	ce4cc013	xori	x0,x25,-796	 x25:0xffffff33
       64355000	      6434	80005dc0	e7d68603	lb	x12,-387(x13)	 x13:0x80008238 x12=0x00000000 PA:0x800080b5
       64365000	      6435	80005dc4	0e46a583	lw	x11,228(x13)	 x13:0x80008238 x11=0xd4d5d6d7 PA:0x8000831c
       64375000	      6436	80005dc8	6de57a97	auipc	x21,0x6de57	 x21=0xede5cdc4
       64385000	      6437	80005dcc	aaeaa713	slti	x14,x21,-1362	 x21:0xede5cdc4 x14=0x00000001
       64395000	      6438	80005dd0	01b99c13	slli	x24,x19,0x1b	 x19:0x00000000 x24=0x00000000
       64405000	      6439	80005dd4	32968383	lb	x7,809(x13)	 x13:0x80008238  x7=0x0000001a PA:0x80008561
       64415000	      6440	80005dd8	e3768723	sb	x23,-466(x13)	 x13:0x80008238 x23:0x0000c2c3 PA:0x80008066
       64425000	      6441	80005ddc	e5e32013	slti	x0,x6,-418	  x6:0x0000000e
       64435000	      6442	80005de0	00d2a1b3	slt	x3,x5,x13	  x5:0x80009fc4 x13:0x80008238  x3=0x00000000
       64445000	      6443	80005de4	40497813	andi	x16,x18,1028	 x18:0xecfd2000 x16=0x00000000
       64455000	      6444	80005de8	f116cd03	lbu	x26,-239(x13)	 x13:0x80008238 x26=0x00000002 PA:0x80008149
       64465000	      6445	80005dec	00fb9b13	slli	x22,x23,0xf	 x23:0x0000c2c3 x22=0x61618000
       64475000	      6446	80005df0	5f31c793	xori	x15,x3,1523	  x3:0x00000000 x15=0x000005f3
       64485000	      6447	80005df4	001ed733	srl	x14,x29,x1	 x29:0x00000001  x1:0x80005d84 x14=0x00000000
       64495000	      6448	80005df8	55a69f83	lh	x31,1370(x13)	 x13:0x80008238 x31=0x00004849 PA:0x80008792
       64505000	      6449	80005dfc	00b33cb3	sltu	x25,x6,x11	  x6:0x0000000e x11:0xd4d5d6d7 x25=0x00000001
       64515000	      6450	80005e00	19168283	lb	x5,401(x13)	 x13:0x80008238  x5=0xffffff82 PA:0x800083c9
       64525000	      6451	80005e04	28869f23	sh	x8,670(x13)	 x13:0x80008238  x8:0x80009fc4 PA:0x800084d6
       64535000	      6452	80005e08	00de5633	srl	x12,x28,x13	 x28:0x7fff6144 x13:0x80008238 x12=0x0000007f
       64545000	      6453	80005e0c	405e5713	srai	x14,x28,0x5	 x28:0x7fff6144 x14=0x03fffb0a
       64555000	      6454	80005e10	5866dd03	lhu	x26,1414(x13)	 x13:0x80008238 x26=0x00007475 PA:0x800087be
       64565000	      6455	80005e14	0856ce83	lbu	x29,133(x13)	 x13:0x80008238 x29=0x00000076 PA:0x800082bd
       64575000	      6456	80005e18	ddb74593	xori	x11,x14,-549	 x14:0x03fffb0a x11=0xfc0006d1
       64585000	      6457	80005e1c	e3669f03	lh	x30,-458(x13)	 x13:0x80008238 x30=0x00002425 PA:0x8000806e
       64595000	      6458	80005e20	002fd033	srl	x0,x31,x2	 x31:0x00004849  x2:0xfffff8b4
       64605000	      6459	80005e24	2f368503	lb	x10,755(x13)	 x13:0x80008238 x10=0xffffffe0 PA:0x8000852b
       64615000	      6460	80005e28	01101c93	slli	x25,x0,0x11	  x0:0x00000000 x25=0x00000000
       64625000	      6461	80005e2c	0466cc03	lbu	x24,70(x13)	 x13:0x80008238 x24=0x00000035 PA:0x8000827e
       64635000	      6462	80005e30	05790863	beq	x18,x23,80005e80	 x18:0xecfd2000 x23:0x0000c2c3
       64645000	      6463	80005e34	dc817713	andi	x14,x2,-568	  x2:0xfffff8b4 x14=0xfffff880
       64655000	      6464	80005e38	af99cb13	xori	x22,x19,-1287	 x19:0x00000000 x22=0xfffffaf9
       64665000	      6465	80005e3c	00c9cf33	xor	x30,x19,x12	 x19:0x00000000 x12:0x0000007f x30=0x0000007f
       64675000	      6466	80005e40	00f86bb3	or	x23,x16,x15	 x16:0x00000000 x15:0x000005f3 x23=0x000005f3
       64685000	      6467	80005e44	01b927b3	slt	x15,x18,x27	 x18:0xecfd2000 x27:0x00000000 x15=0x00000001
       64695000	      6468	80005e48	01205b13	srli	x22,x0,0x12	  x0:0x00000000 x22=0x00000000
       64705000	      6469	80005e4c	98db4737	lui	x14,0x98db4	 x14=0x98db4000
       64715000	      6470	80005e50	c6be4913	xori	x18,x28,-917	 x28:0x7fff6144 x18=0x80009d2f
       64725000	      6471	80005e54	01d34863	blt	x6,x29,80005e64	  x6:0x0000000e x29:0x00000076
       64735000	      6472	00000000	00000013	addi	x0,x0,0	  x0:0x00000000
       64745000	      6473	80005e60	00000013	addi	x0,x0,0	  x0:0x00000000
       64755000	      6474	80005e64	01f75013	srli	x0,x14,0x1f	 x14:0x98db4000
       64765000	      6475	80005e68	28c16093	ori	x1,x2,652	  x2:0xfffff8b4  x1=0xfffffabc
       64775000	      6476	80005e6c	f1042f13	slti	x30,x8,-240	  x8:0x80009fc4 x30=0x00000001
       64785000	      6477	80005e70	0b396493	ori	x9,x18,179	 x18:0x80009d2f  x9=0x80009dbf
       64795000	      6478	80005e74	5fe62893	slti	x17,x12,1534	 x12:0x0000007f x17=0x00000001
       64805000	      6479	80005e78	05422e93	slti	x29,x4,84	  x4:0x00000000 x29=0x00000001
       64815000	      6480	80005e7c	4137dd33	sra	x26,x15,x19	 x15:0x00000001 x19:0x00000000 x26=0x00000001
       64825000	      6481	80005e80	013a9bb3	sll	x23,x21,x19	 x21:0xede5cdc4 x19:0x00000000 x23=0xede5cdc4
       64835000	      6482	80005e84	00c48f33	add	x30,x9,x12	  x9:0x80009dbf x12:0x0000007f x30=0x80009e3e
       64845000	      6483	80005e88	0034e0b3	or	x1,x9,x3	  x9:0x80009dbf  x3:0x00000000  x1=0x80009dbf
       64855000	      6484	80005e8c	173fc393	xori	x7,x31,371	 x31:0x00004849  x7=0x0000493a
       64865000	      6485	80005e90	014ae4b3	or	x9,x21,x20	 x21:0xede5cdc4 x20:0x80009ef0  x9=0xede5dff4
       64875000	      6486	80005e94	0045a4b3	slt	x9,x11,x4	 x11:0xfc0006d1  x4:0x00000000  x9=0x00000001
       64885000	      6487	80005e98	004766b3	or	x13,x14,x4	 x14:0x98db4000  x4:0x00000000 x13=0x98db4000
       64895000	      6488	80005e9c	10b48093	addi	x1,x9,267	  x9:0x00000001  x1=0x0000010c
       64905000	      6489	80005ea0	01c6f4b3	and	x9,x13,x28	 x13:0x98db4000 x28:0x7fff6144  x9=0x18db4000
       64915000	      6490	80005ea4	40d85d33	sra	x26,x16,x13	 x16:0x00000000 x13:0x98db4000 x26=0x00000000
       64925000	      6491	80005ea8	051e8863	beq	x29,x17,80005ef8	 x29:0x00000001 x17:0x00000001
       64935000	      6492	00000000	00000013	addi	x0,x0,0	  x0:0x00000000
       64945000	      6493	80005ef4	00000013	addi	x0,x0,0	  x0:0x00000000
       64955000	      6494	80005ef8	1c7e4e13	xori	x28,x28,455	 x28:0x7fff6144 x28=0x7fff6083
       64965000	      6495	80005efc	8ecff937	lui	x18,0x8ecff	 x18=0x8ecff000
       64975000	      6496	80005f00	01c905b3	add	x11,x18,x28	 x18:0x8ecff000 x28:0x7fff6083 x11=0x0ecf5083
       64985000	      6497	80005f04	00f39033	sll	x0,x7,x15	  x7:0x0000493a x15:0x00000001
       64995000	      6498	80005f08	011cf663	bgeu	x25,x17,80005f14	 x25:0x00000000 x17:0x00000001
       65005000	      6499	80005f0c	1883a737	lui	x14,0x1883a	 x14=0x1883a000
       65015000	      6500	80005f10	01e7b5b3	sltu	x11,x15,x30	 x15:0x00000001 x30:0x80009e3e x11=0x00000001
       65025000	      6501	80005f14	01255cb3	srl	x25,x10,x18	 x10:0xffffffe0 x18:0x8ecff000 x25=0xffffffe0
       65035000	      6502	80005f18	01cc5cb3	srl	x25,x24,x28	 x24:0x00000035 x28:0x7fff6083 x25=0x00000006
       65045000	      6503	80005f1c	01975213	srli	x4,x14,0x19	 x14:0x1883a000  x4=0x0000000c
       65055000	      6504	80005f20	404a5bb3	sra	x23,x20,x4	 x20:0x80009ef0  x4:0x0000000c x23=0xfff80009
       65065000	      6505	80005f24	01071133	sll	x2,x14,x16	 x14:0x1883a000 x16:0x00000000  x2=0x1883a000
       65075000	      6506	80005f28	86432f13	slti	x30,x6,-1948	  x6:0x0000000e x30=0x00000000
       65085000	      6507	80005f2c	51084013	xori	x0,x16,1296	 x16:0x00000000
       65095000	      6508	80005f30	26106d93	ori	x27,x0,609	  x0:0x00000000 x27=0x00000261
       65105000	      6509	80005f34	01c4df93	srli	x31,x9,0x1c	  x9:0x18db4000 x31=0x00000001
       65115000	      6510	80005f38	01d587b3	add	x15,x11,x29	 x11:0x00000001 x29:0x00000001 x15=0x00000002
       65125000	      6511	80005f3c	84789837	lui	x16,0x84789	 x16=0x84789000
       65135000	      6512	80005f40	23a0f993	andi	x19,x1,570	  x1:0x0000010c x19=0x00000008
       65145000	      6513	80005f44	02029e63	bne	x5,x0,80005f80	  x5:0xffffff82  x0:0x00000000
       65155000	      6514	00000000	00000013	addi	x0,x0,0	  x0:0x00000000
       65165000	      6515	80005f7c	00000013	addi	x0,x0,0	  x0:0x00000000
       65175000	      6516	80005f80	03268263	beq	x13,x18,80005fa4	 x13:0x98db4000 x18:0x8ecff000
       65185000	      6517	80005f84	010147b3	xor	x15,x2,x16	  x2:0x1883a000 x16:0x84789000 x15=0x9cfb3000
       65195000	      6518	80005f88	0568e463	bltu	x17,x22,80005fd0	 x17:0x00000001 x22:0x00000000
       65205000	      6519	80005f8c	87461237	lui	x4,0x87461	  x4=0x87461000
       65215000	      6520	80005f90	0467c463	blt	x15,x6,80005fd8	 x15:0x9cfb3000  x6:0x0000000e
       65225000	      6521	00000000	00000013	addi	x0,x0,0	  x0:0x00000000
       65235000	      6522	80005fd4	00000013	addi	x0,x0,0	  x0:0x00000000
       65245000	      6523	80005fd8	68e72293	slti	x5,x14,1678	 x14:0x1883a000  x5=0x00000000
       65255000	      6524	80005fdc	00e49ab3	sll	x21,x9,x14	  x9:0x18db4000 x14:0x1883a000 x21=0x18db4000
       65265000	      6525	80005fe0	4194d7b3	sra	x15,x9,x25	  x9:0x18db4000 x25:0x00000006 x15=0x00636d00
       65275000	      6526	80005fe4	da973713	sltiu	x14,x14,-599	 x14:0x1883a000 x14=0x00000001
       65285000	      6527	80005fe8	4e857237	lui	x4,0x4e857	  x4=0x4e857000
       65295000	      6528	80005fec	40230cb3	sub	x25,x6,x2	  x6:0x0000000e  x2:0x1883a000 x25=0xe77c600e
       65305000	      6529	80005ff0	0a436117	auipc	x2,0xa436	  x2=0x8a43bfec
       65315000	      6530	80005ff4	40c9dfb3	sra	x31,x19,x12	 x19:0x00000008 x12:0x0000007f x31=0x00000000
       65325000	      6531	80005ff8	005a11b3	sll	x3,x20,x5	 x20:0x80009ef0  x5:0x00000000  x3=0x80009ef0
       65335000	      6532	80005ffc	1b55cf13	xori	x30,x11,437	 x11:0x00000001 x30=0x000001b4
       65345000	      6533	80006000	014f8663	beq	x31,x20,8000600c	 x31:0x00000000 x20:0x80009ef0
       65355000	      6534	80006004	66de6e93	ori	x29,x28,1645	 x28:0x7fff6083 x29=0x7fff66ef
       65365000	      6535	80006008	410602b3	sub	x5,x12,x16	 x12:0x0000007f x16:0x84789000  x5=0x7b87707f
       65375000	      6536	8000600c	40f9dc93	srai	x25,x19,0xf	 x19:0x00000008 x25=0x00000000
       65385000	      6537	80006010	01d25b13	srli	x22,x4,0x1d	  x4:0x4e857000 x22=0x00000002
       65395000	      6538	80006014	00000013	addi	x0,x0,0	  x0:0x00000000
       65405000	      6539	80006018	3c914e13	xori	x28,x2,969	  x2:0x8a43bfec x28=0x8a43bc25
       65415000	      6540	8000601c	00090233	add	x4,x18,x0	 x18:0x8ecff000  x0:0x00000000  x4=0x8ecff000
       65425000	      6541	80006020	00e80b33	add	x22,x16,x14	 x16:0x84789000 x14:0x00000001 x22=0x84789001
       65435000	      6542	80006024	4b317517	auipc	x10,0x4b317	 x10=0xcb31d020
       65445000	      6543	80006028	00000013	addi	x0,x0,0	  x0:0x00000000
       65455000	      6544	8000602c	728ba597	auipc	x11,0x728ba	 x11=0xf28c0028
       65465000	      6545	80006030	00b3f5b3	and	x11,x7,x11	  x7:0x0000493a x11:0xf28c0028 x11=0x00000028
       65475000	      6546	80006034	01733bb3	sltu	x23,x6,x23	  x6:0x0000000e x23:0xfff80009 x23=0x00000001
       65485000	      6547	80006038	7e6ebd13	sltiu	x26,x29,2022	 x29:0x7fff66ef x26=0x00000000
       65495000	      6548	8000603c	00d78ab3	add	x21,x15,x13	 x15:0x00636d00 x13:0x98db4000 x21=0x993ead00
       65505000	      6549	80006040	fbb38e93	addi	x29,x7,-69	  x7:0x0000493a x29=0x000048f5
       65515000	      6550	80006044	40295db3	sra	x27,x18,x2	 x18:0x8ecff000  x2:0x8a43bfec x27=0xfff8ecff
       65525000	      6551	80006048	00f99863	bne	x19,x15,80006058	 x19:0x00000008 x15:0x00636d00
       65535000	      6552	00000000	00000013	addi	x0,x0,0	  x0:0x00000000
       65545000	      6553	80006054	00000013	addi	x0,x0,0	  x0:0x00000000
       65555000	      6554	80006058	56510713	addi	x14,x2,1381	  x2:0x8a43bfec x14=0x8a43c551
       65565000	      6555	8000605c	eb818113	addi	x2,x3,-328	  x3:0x80009ef0  x2=0x80009da8
       65575000	      6556	80006060	781e6817	auipc	x16,0x781e6	 x16=0xf81ec05c
       65585000	      6557	80006064	cc9387b7	lui	x15,0xcc938	 x15=0xcc938000
       65595000	      6558	80006068	31b5c393	xori	x7,x11,795	 x11:0x00000028  x7=0x00000333
       65605000	      6559	8000606c	016d9db3	sll	x27,x27,x22	 x27:0xfff8ecff x22:0x84789001 x27=0xfff1d9fe
       65615000	      6560	80006070	36bdf213	andi	x4,x27,875	 x27:0xfff1d9fe  x4=0x0000016a
       65625000	      6561	80006074	036ed463	bge	x29,x22,8000609c	 x29:0x000048f5 x22:0x84789001
       65635000	      6562	00000000	00000013	addi	x0,x0,0	  x0:0x00000000
       65645000	      6563	80006098	00000013	addi	x0,x0,0	  x0:0x00000000
       65655000	      6564	8000609c	d772ec93	ori	x25,x5,-649	  x5:0x7b87707f x25=0xfffffd7f
       65665000	      6565	800060a0	02430063	beq	x6,x4,800060c0	  x6:0x0000000e  x4:0x0000016a
       65675000	      6566	800060a4	177daf37	lui	x30,0x177da	 x30=0x177da000
       65685000	      6567	800060a8	01064c63	blt	x12,x16,800060c0	 x12:0x0000007f x16:0xf81ec05c
       65695000	      6568	800060ac	5855f013	andi	x0,x11,1413	 x11:0x00000028
       65705000	      6569	800060b0	3d8cec13	ori	x24,x25,984	 x25:0xfffffd7f x24=0xffffffff
       65715000	      6570	800060b4	d6b3cd37	lui	x26,0xd6b3c	 x26=0xd6b3c000
       65725000	      6571	800060b8	0002d263	bge	x5,x0,800060bc	  x5:0x7b87707f  x0:0x00000000
       65735000	      6572	00000000	00000013	addi	x0,x0,0	  x0:0x00000000
       65745000	      6573	800060b8	00000013	addi	x0,x0,0	  x0:0x00000000
       65755000	      6574	800060bc	00fc9913	slli	x18,x25,0xf	 x25:0xfffffd7f x18=0xfebf8000
       65765000	      6575	800060c0	0135d613	srli	x12,x11,0x13	 x11:0x00000028 x12=0x00000000
       65775000	      6576	800060c4	004a2083	lw	x1,4(x20)	 x20:0x80009ef0  x1=0x80000354 PA:0x80009ef4
       65785000	      6577	800060c8	01da9813	slli	x16,x21,0x1d	 x21:0x993ead00 x16=0x00000000
       65795000	      6578	800060cc	01901133	sll	x2,x0,x25	  x0:0x00000000 x25:0xfffffd7f  x2=0x00000000
       65805000	      6579	800060d0	403b5593	srai	x11,x22,0x3	 x22:0x84789001 x11=0xf08f1200
       65815000	      6580	800060d4	01eddc33	srl	x24,x27,x30	 x27:0xfff1d9fe x30:0x177da000 x24=0xfff1d9fe
       65825000	      6581	800060d8	41305033	sra	x0,x0,x19	  x0:0x00000000 x19:0x00000008
       65835000	      6582	800060dc	00843eb3	sltu	x29,x8,x8	  x8:0x80009fc4  x8:0x80009fc4 x29=0x00000000
       65845000	      6583	800060e0	040a0a13	addi	x20,x20,64	 x20:0x80009ef0 x20=0x80009f30
       65855000	      6584	800060e4	1a512e13	slti	x28,x2,421	  x2:0x00000000 x28=0x00000001
       65865000	      6585	800060e8	00192833	slt	x16,x18,x1	 x18:0xfebf8000  x1:0x80000354 x16=0x00000000
       65875000	      6586	800060ec	00325133	srl	x2,x4,x3	  x4:0x0000016a  x3:0x80009ef0  x2=0x00000000
       65885000	      6587	800060f0	00000013	addi	x0,x0,0	  x0:0x00000000
       65895000	      6588	800060f4	00008113	addi	x2,x1,0	  x1:0x80000354  x2=0x80000354
       65905000	      6589	800060f8	00010167	jalr	x2,x2,0	  x2:0x80000354  x2=0x800060f8
       65915000	      6590	00000000	00000013	addi	x0,x0,0	  x0:0x00000000
       65925000	      6591	80000354	00000013	addi	x0,x0,0	  x0:0x00000000
       65935000	      6592	80000358	8df84193	xori	x3,x16,-1825	 x16:0x00000000  x3=0xfffff8df
       65945000	      6593	8000035c	00555b13	srli	x22,x10,0x5	 x10:0xcb31d020 x22=0x06598e81
       65955000	      6594	80000360	00415c33	srl	x24,x2,x4	  x2:0x800060f8  x4:0x0000016a x24=0x00200018
       65965000	      6595	80000364	99493d93	sltiu	x27,x18,-1644	 x18:0xfebf8000 x27=0x00000001
       65975000	      6596	80000368	418b0133	sub	x2,x22,x24	 x22:0x06598e81 x24:0x00200018  x2=0x06398e69
       65985000	      6597	8000036c	402a0133	sub	x2,x20,x2	 x20:0x80009f30  x2:0x06398e69  x2=0x79c710c7
       65995000	      6598	80000370	b4187c93	andi	x25,x16,-1215	 x16:0x00000000 x25=0x00000000
       66005000	      6599	80000374	01e60033	add	x0,x12,x30	 x12:0x00000000 x30:0x177da000
       66015000	      6600	80000378	5ed9c213	xori	x4,x19,1517	 x19:0x00000008  x4=0x000005e5
       66025000	      6601	8000037c	01a11913	slli	x18,x2,0x1a	  x2:0x79c710c7 x18=0x1c000000
       66035000	      6602	80000380	008bb7b3	sltu	x15,x23,x8	 x23:0x00000001  x8:0x80009fc4 x15=0x00000001
       66045000	      6603	80000384	00000013	addi	x0,x0,0	  x0:0x00000000
       66055000	      6604	80000388	4160dd13	srai	x26,x1,0x16	  x1:0x80000354 x26=0xfffffe00
       66065000	      6605	8000038c	000ad033	srl	x0,x21,x0	 x21:0x993ead00  x0:0x00000000
       66075000	      6606	80000390	01f65d13	srli	x26,x12,0x1f	 x12:0x00000000 x26=0x00000000
       66085000	      6607	80000394	011e56b3	srl	x13,x28,x17	 x28:0x00000001 x17:0x00000001 x13=0x00000000
       66095000	      6608	80000398	40015113	srai	x2,x2,0x0	  x2:0x79c710c7  x2=0x79c710c7
       66105000	      6609	8000039c	004a2083	lw	x1,4(x20)	 x20:0x80009f30  x1=0x80000f8c PA:0x80009f34
       66115000	      6610	800003a0	ea0f8c93	addi	x25,x31,-352	 x31:0x00000000 x25=0xfffffea0
       66125000	      6611	800003a4	034a0a13	addi	x20,x20,52	 x20:0x80009f30 x20=0x80009f64
       66135000	      6612	800003a8	c45f4193	xori	x3,x30,-955	 x30:0x177da000  x3=0xe8825c45
       66145000	      6613	800003ac	01fd1e33	sll	x28,x26,x31	 x26:0x00000000 x31:0x00000000 x28=0x00000000
       66155000	      6614	800003b0	00008113	addi	x2,x1,0	  x1:0x80000f8c  x2=0x80000f8c
       66165000	      6615	800003b4	00010167	jalr	x2,x2,0	  x2:0x80000f8c  x2=0x800003b4
       66175000	      6616	00000000	00000013	addi	x0,x0,0	  x0:0x00000000
       66185000	      6617	80000f8c	00000013	addi	x0,x0,0	  x0:0x00000000
       66195000	      6618	80000f90	393f6637	lui	x12,0x393f6	 x12=0x393f6000
       66205000	      6619	80000f94	015c1eb3	sll	x29,x24,x21	 x24:0x00200018 x21:0x993ead00 x29=0x00200018
       66215000	      6620	80000f98	029c1263	bne	x24,x9,80000fbc	 x24:0x00200018  x9:0x18db4000
       66225000	      6621	00000000	00000013	addi	x0,x0,0	  x0:0x00000000
       66235000	      6622	80000fb8	00000013	addi	x0,x0,0	  x0:0x00000000
       66245000	      6623	80000fbc	00017263	bgeu	x2,x0,80000fc0	  x2:0x800003b4  x0:0x00000000
       66255000	      6624	00000000	00000013	addi	x0,x0,0	  x0:0x00000000
       66265000	      6625	80000fbc	00000013	addi	x0,x0,0	  x0:0x00000000
       66275000	      6626	80000fc0	012d1833	sll	x16,x26,x18	 x26:0x00000000 x18:0x1c000000 x16=0x00000000
       66285000	      6627	80000fc4	00139663	bne	x7,x1,80000fd0	  x7:0x00000333  x1:0x80000f8c
       66295000	      6628	00000000	00000013	addi	x0,x0,0	  x0:0x00000000
       66305000	      6629	80000fcc	00000013	addi	x0,x0,0	  x0:0x00000000
       66315000	      6630	80000fd0	41a551b3	sra	x3,x10,x26	 x10:0xcb31d020 x26:0x00000000  x3=0xcb31d020
       66325000	      6631	80000fd4	04ee0063	beq	x28,x14,80001014	 x28:0x00000000 x14:0x8a43c551
       66335000	      6632	80000fd8	5d55fd13	andi	x26,x11,1493	 x11:0xf08f1200 x26=0x00000000
       66345000	      6633	80000fdc	03d6de63	bge	x13,x29,80001018	 x13:0x00000000 x29:0x00200018
       66355000	      6634	80000fe0	15666b93	ori	x23,x12,342	 x12:0x393f6000 x23=0x393f6156
       66365000	      6635	80000fe4	0596e063	bltu	x13,x25,80001024	 x13:0x00000000 x25:0xfffffea0
       66375000	      6636	00000000	00000013	addi	x0,x0,0	  x0:0x00000000
       66385000	      6637	80001020	00000013	addi	x0,x0,0	  x0:0x00000000
       66395000	      6638	80001024	01485733	srl	x14,x16,x20	 x16:0x00000000 x20:0x80009f64 x14=0x00000000
       66405000	      6639	80001028	00c1d263	bge	x3,x12,8000102c	  x3:0xcb31d020 x12:0x393f6000
       66415000	      6640	8000102c	5002f813	andi	x16,x5,1280	  x5:0x7b87707f x16=0x00000000
       66425000	      6641	80001030	04d21263	bne	x4,x13,80001074	  x4:0x000005e5 x13:0x00000000
       66435000	      6642	00000000	00000013	addi	x0,x0,0	  x0:0x00000000
       66445000	      6643	80001070	00000013	addi	x0,x0,0	  x0:0x00000000
       66455000	      6644	80001074	24e90113	addi	x2,x18,590	 x18:0x1c000000  x2=0x1c00024e
       66465000	      6645	80001078	ff8ab993	sltiu	x19,x21,-8	 x21:0x993ead00 x19=0x00000001
       66475000	      6646	8000107c	40c1d793	srai	x15,x3,0xc	  x3:0xcb31d020 x15=0xfffcb31d
       66485000	      6647	80001080	401bdc93	srai	x25,x23,0x1	 x23:0x393f6156 x25=0x1c9fb0ab
       66495000	      6648	80001084	03921263	bne	x4,x25,800010a8	  x4:0x000005e5 x25:0x1c9fb0ab
       66505000	      6649	00000000	00000013	addi	x0,x0,0	  x0:0x00000000
       66515000	      6650	800010a4	00000013	addi	x0,x0,0	  x0:0x00000000
       66525000	      6651	800010a8	679b0c13	addi	x24,x22,1657	 x22:0x06598e81 x24=0x065994fa
       66535000	      6652	800010ac	0062f463	bgeu	x5,x6,800010b4	  x5:0x7b87707f  x6:0x0000000e
       66545000	      6653	00000000	00000013	addi	x0,x0,0	  x0:0x00000000
       66555000	      6654	800010b0	00000013	addi	x0,x0,0	  x0:0x00000000
       66565000	      6655	800010b4	04776863	bltu	x14,x7,80001104	 x14:0x00000000  x7:0x00000333
       66575000	      6656	00000000	00000013	addi	x0,x0,0	  x0:0x00000000
       66585000	      6657	80001100	00000013	addi	x0,x0,0	  x0:0x00000000
       66595000	      6658	80001104	00f6c233	xor	x4,x13,x15	 x13:0x00000000 x15:0xfffcb31d  x4=0xfffcb31d
       66605000	      6659	80001108	00175033	srl	x0,x14,x1	 x14:0x00000000  x1:0x80000f8c
       66615000	      6660	8000110c	0463f463	bgeu	x7,x6,80001154	  x7:0x00000333  x6:0x0000000e
       66625000	      6661	00000000	00000013	addi	x0,x0,0	  x0:0x00000000
       66635000	      6662	80001150	00000013	addi	x0,x0,0	  x0:0x00000000
       66645000	      6663	80001154	00362eb3	slt	x29,x12,x3	 x12:0x393f6000  x3:0xcb31d020 x29=0x00000000
       66655000	      6664	80001158	014e3ab3	sltu	x21,x28,x20	 x28:0x00000000 x20:0x80009f64 x21=0x00000001
       66665000	      6665	8000115c	909e0537	lui	x10,0x909e0	 x10=0x909e0000
       66675000	      6666	80001160	00201933	sll	x18,x0,x2	  x0:0x00000000  x2:0x1c00024e x18=0x00000000
       66685000	      6667	80001164	027f6c63	bltu	x30,x7,8000119c	 x30:0x177da000  x7:0x00000333
       66695000	      6668	80001168	01c08fb3	add	x31,x1,x28	  x1:0x80000f8c x28:0x00000000 x31=0x80000f8c
       66705000	      6669	8000116c	c0710f93	addi	x31,x2,-1017	  x2:0x1c00024e x31=0x1bfffe55
       66715000	      6670	80001170	0496e063	bltu	x13,x9,800011b0	 x13:0x00000000  x9:0x18db4000
       66725000	      6671	00000000	00000013	addi	x0,x0,0	  x0:0x00000000
       66735000	      6672	800011ac	00000013	addi	x0,x0,0	  x0:0x00000000
       66745000	      6673	800011b0	00d39733	sll	x14,x7,x13	  x7:0x00000333 x13:0x00000000 x14=0x00000333
       66755000	      6674	800011b4	008a9b33	sll	x22,x21,x8	 x21:0x00000001  x8:0x80009fc4 x22=0x00000010
       66765000	      6675	800011b8	0060f533	and	x10,x1,x6	  x1:0x80000f8c  x6:0x0000000e x10=0x0000000c
       66775000	      6676	800011bc	05545863	bge	x8,x21,8000120c	  x8:0x80009fc4 x21:0x00000001
       66785000	      6677	800011c0	410edfb3	sra	x31,x29,x16	 x29:0x00000000 x16:0x00000000 x31=0x00000000
       66795000	      6678	800011c4	400856b3	sra	x13,x16,x0	 x16:0x00000000  x0:0x00000000 x13=0x00000000
       66805000	      6679	800011c8	dbc8a393	slti	x7,x17,-580	 x17:0x00000001  x7=0x00000000
       66815000	      6680	800011cc	00bfedb3	or	x27,x31,x11	 x31:0x00000000 x11:0xf08f1200 x27=0xf08f1200
       66825000	      6681	800011d0	04014863	blt	x2,x0,80001220	  x2:0x1c00024e  x0:0x00000000
       66835000	      6682	800011d4	00a2d993	srli	x19,x5,0xa	  x5:0x7b87707f x19=0x001ee1dc
       66845000	      6683	800011d8	0257f263	bgeu	x15,x5,800011fc	 x15:0xfffcb31d  x5:0x7b87707f
       66855000	      6684	00000000	00000013	addi	x0,x0,0	  x0:0x00000000
       66865000	      6685	800011f8	00000013	addi	x0,x0,0	  x0:0x00000000
       66875000	      6686	800011fc	038ede63	bge	x29,x24,80001238	 x29:0x00000000 x24:0x065994fa
       66885000	      6687	80001200	056d6063	bltu	x26,x22,80001240	 x26:0x00000000 x22:0x00000010
       66895000	      6688	00000000	00000013	addi	x0,x0,0	  x0:0x00000000
       66905000	      6689	8000123c	00000013	addi	x0,x0,0	  x0:0x00000000
       66915000	      6690	80001240	5873f593	andi	x11,x7,1415	  x7:0x00000000 x11=0x00000000
       66925000	      6691	80001244	f6cdce97	auipc	x29,0xf6cdc	 x29=0x76cdd240
       66935000	      6692	80001248	4119d8b3	sra	x17,x19,x17	 x19:0x001ee1dc x17:0x00000001 x17=0x000f70ee
       66945000	      6693	8000124c	002f5813	srli	x16,x30,0x2	 x30:0x177da000 x16=0x05df6800
       66955000	      6694	80001250	01055933	srl	x18,x10,x16	 x10:0x0000000c x16:0x05df6800 x18=0x0000000c
       66965000	      6695	80001254	4c8712b7	lui	x5,0x4c871	  x5=0x4c871000
       66975000	      6696	80001258	f986ed13	ori	x26,x13,-104	 x13:0x00000000 x26=0xffffff98
       66985000	      6697	8000125c	00e81913	slli	x18,x16,0xe	 x16:0x05df6800 x18=0xda000000
       66995000	      6698	80001260	0110b933	sltu	x18,x1,x17	  x1:0x80000f8c x17:0x000f70ee x18=0x00000000
       67005000	      6699	80001264	8d5dab17	auipc	x22,0x8d5da	 x22=0x0d5db260
       67015000	      6700	80001268	41fa5e93	srai	x29,x20,0x1f	 x20:0x80009f64 x29=0xffffffff
       67025000	      6701	8000126c	00ddde63	bge	x27,x13,80001288	 x27:0xf08f1200 x13:0x00000000
       67035000	      6702	80001270	005bc033	xor	x0,x23,x5	 x23:0x393f6156  x5:0x4c871000
       67045000	      6703	80001274	043ff463	bgeu	x31,x3,800012bc	 x31:0x00000000  x3:0xcb31d020
       67055000	      6704	80001278	00568263	beq	x13,x5,8000127c	 x13:0x00000000  x5:0x4c871000
       67065000	      6705	8000127c	02496863	bltu	x18,x4,800012ac	 x18:0x00000000  x4:0xfffcb31d
       67075000	      6706	00000000	00000013	addi	x0,x0,0	  x0:0x00000000
       67085000	      6707	800012a8	00000013	addi	x0,x0,0	  x0:0x00000000
       67095000	      6708	800012ac	2f743793	sltiu	x15,x8,759	  x8:0x80009fc4 x15=0x00000000
       67105000	      6709	800012b0	41ef05b3	sub	x11,x30,x30	 x30:0x177da000 x30:0x177da000 x11=0x00000000
       67115000	      6710	800012b4	04761863	bne	x12,x7,80001304	 x12:0x393f6000  x7:0x00000000
       67125000	      6711	00000000	00000013	addi	x0,x0,0	  x0:0x00000000
       67135000	      6712	80001300	00000013	addi	x0,x0,0	  x0:0x00000000
       67145000	      6713	80001304	004da6b3	slt	x13,x27,x4	 x27:0xf08f1200  x4:0xfffcb31d x13=0x00000001
       67155000	      6714	80001308	32f77913	andi	x18,x14,815	 x14:0x00000333 x18=0x00000323
       67165000	      6715	8000130c	02f25863	bge	x4,x15,8000133c	  x4:0xfffcb31d x15:0x00000000
       67175000	      6716	80001310	00db5993	srli	x19,x22,0xd	 x22:0x0d5db260 x19=0x00006aed
       67185000	      6717	80001314	009bdab3	srl	x21,x23,x9	 x23:0x393f6156  x9:0x18db4000 x21=0x393f6156
       67195000	      6718	80001318	028f9a63	bne	x31,x8,8000134c	 x31:0x00000000  x8:0x80009fc4
       67205000	      6719	00000000	00000013	addi	x0,x0,0	  x0:0x00000000
       67215000	      6720	80001348	00000013	addi	x0,x0,0	  x0:0x00000000
       67225000	      6721	8000134c	04d15263	bge	x2,x13,80001390	  x2:0x1c00024e x13:0x00000001
       67235000	      6722	00000000	00000013	addi	x0,x0,0	  x0:0x00000000
       67245000	      6723	8000138c	00000013	addi	x0,x0,0	  x0:0x00000000
       67255000	      6724	80001390	67557613	andi	x12,x10,1653	 x10:0x0000000c x12=0x00000004
       67265000	      6725	80001394	00a59133	sll	x2,x11,x10	 x11:0x00000000 x10:0x0000000c  x2=0x00000000
       67275000	      6726	80001398	00a7c233	xor	x4,x15,x10	 x15:0x00000000 x10:0x0000000c  x4=0x0000000c
       67285000	      6727	8000139c	02d8f263	bgeu	x17,x13,800013c0	 x17:0x000f70ee x13:0x00000001
       67295000	      6728	00000000	00000013	addi	x0,x0,0	  x0:0x00000000
       67305000	      6729	800013bc	00000013	addi	x0,x0,0	  x0:0x00000000
       67315000	      6730	800013c0	ab02e613	ori	x12,x5,-1360	  x5:0x4c871000 x12=0xfffffab0
       67325000	      6731	800013c4	01f85db3	srl	x27,x16,x31	 x16:0x05df6800 x31:0x00000000 x27=0x05df6800
       67335000	      6732	800013c8	01fdc133	xor	x2,x27,x31	 x27:0x05df6800 x31:0x00000000  x2=0x05df6800
       67345000	      6733	800013cc	009b85b3	add	x11,x23,x9	 x23:0x393f6156  x9:0x18db4000 x11=0x521aa156
       67355000	      6734	800013d0	00785113	srli	x2,x16,0x7	 x16:0x05df6800  x2=0x000bbed0
       67365000	      6735	800013d4	00000013	addi	x0,x0,0	  x0:0x00000000
       67375000	      6736	800013d8	414684b3	sub	x9,x13,x20	 x13:0x00000001 x20:0x80009f64  x9=0x7fff609d
       67385000	      6737	800013dc	010c5f13	srli	x30,x24,0x10	 x24:0x065994fa x30=0x00000659
       67395000	      6738	800013e0	05184863	blt	x16,x17,80001430	 x16:0x05df6800 x17:0x000f70ee
       67405000	      6739	800013e4	0120a0b3	slt	x1,x1,x18	  x1:0x80000f8c x18:0x00000323  x1=0x00000001
       67415000	      6740	800013e8	00de9b93	slli	x23,x29,0xd	 x29:0xffffffff x23=0xffffe000
       67425000	      6741	800013ec	017f1993	slli	x19,x30,0x17	 x30:0x00000659 x19=0x2c800000
       67435000	      6742	800013f0	4099da93	srai	x21,x19,0x9	 x19:0x2c800000 x21=0x00164000
       67445000	      6743	800013f4	05de0063	beq	x28,x29,80001434	 x28:0x00000000 x29:0xffffffff
       67455000	      6744	800013f8	416c5c33	sra	x24,x24,x22	 x24:0x065994fa x22:0x0d5db260 x24=0x065994fa
       67465000	      6745	800013fc	0038dd13	srli	x26,x17,0x3	 x17:0x000f70ee x26=0x0001ee1d
       67475000	      6746	80001400	ed8ab093	sltiu	x1,x21,-296	 x21:0x00164000  x1=0x00000001
       67485000	      6747	80001404	25053913	sltiu	x18,x10,592	 x10:0x0000000c x18=0x00000001
       67495000	      6748	80001408	00bc0863	beq	x24,x11,80001418	 x24:0x065994fa x11:0x521aa156
       67505000	      6749	8000140c	00000013	addi	x0,x0,0	  x0:0x00000000
       67515000	      6750	80001410	efa16e13	ori	x28,x2,-262	  x2:0x000bbed0 x28=0xfffffefa
       67525000	      6751	80001414	cab62793	slti	x15,x12,-853	 x12:0xfffffab0 x15=0x00000001
       67535000	      6752	80001418	0011a2b3	slt	x5,x3,x1	  x3:0xcb31d020  x1:0x00000001  x5=0x00000001
       67545000	      6753	8000141c	63b67593	andi	x11,x12,1595	 x12:0xfffffab0 x11=0x00000230
       67555000	      6754	80001420	9c4d2e93	slti	x29,x26,-1596	 x26:0x0001ee1d x29=0x00000000
       67565000	      6755	80001424	333fbe93	sltiu	x29,x31,819	 x31:0x00000000 x29=0x00000001
       67575000	      6756	80001428	a2cc4097	auipc	x1,0xa2cc4	  x1=0x22cc5424
       67585000	      6757	8000142c	1e017a93	andi	x21,x2,480	  x2:0x000bbed0 x21=0x000000c0
       67595000	      6758	80001430	0402e863	bltu	x5,x0,80001480	  x5:0x00000001  x0:0x00000000
       67605000	      6759	80001434	02666263	bltu	x12,x6,80001458	 x12:0xfffffab0  x6:0x0000000e
       67615000	      6760	80001438	183d1737	lui	x14,0x183d1	 x14=0x183d1000
       67625000	      6761	8000143c	0471e863	bltu	x3,x7,8000148c	  x3:0xcb31d020  x7:0x00000000
       67635000	      6762	80001440	e0f00613	addi	x12,x0,-497	  x0:0x00000000 x12=0xfffffe0f
       67645000	      6763	80001444	718e8913	addi	x18,x29,1816	 x29:0x00000001 x18=0x00000719
       67655000	      6764	80001448	015271b3	and	x3,x4,x21	  x4:0x0000000c x21:0x000000c0  x3=0x00000000
       67665000	      6765	8000144c	40265cb3	sra	x25,x12,x2	 x12:0xfffffe0f  x2:0x000bbed0 x25=0xffffffff
       67675000	      6766	80001450	f1d64e17	auipc	x28,0xf1d64	 x28=0x71d6544c
       67685000	      6767	80001454	40285d33	sra	x26,x16,x2	 x16:0x05df6800  x2:0x000bbed0 x26=0x000005df
       67695000	      6768	80001458	00c5cbb3	xor	x23,x11,x12	 x11:0x00000230 x12:0xfffffe0f x23=0xfffffc3f
       67705000	      6769	8000145c	007006b3	add	x13,x0,x7	  x0:0x00000000  x7:0x00000000 x13=0x00000000
       67715000	      6770	80001460	06027b13	andi	x22,x4,96	  x4:0x0000000c x22=0x00000000
       67725000	      6771	80001464	00000013	addi	x0,x0,0	  x0:0x00000000
       67735000	      6772	80001468	417c5f93	srai	x31,x24,0x17	 x24:0x065994fa x31=0x0000000c
       67745000	      6773	8000146c	00cde0b3	or	x1,x27,x12	 x27:0x05df6800 x12:0xfffffe0f  x1=0xfffffe0f
       67755000	      6774	80001470	03217263	bgeu	x2,x18,80001494	  x2:0x000bbed0 x18:0x00000719
       67765000	      6775	00000000	00000013	addi	x0,x0,0	  x0:0x00000000
       67775000	      6776	80001490	00000013	addi	x0,x0,0	  x0:0x00000000
       67785000	      6777	80001494	017f5c93	srli	x25,x30,0x17	 x30:0x00000659 x25=0x00000000
       67795000	      6778	80001498	01314e63	blt	x2,x19,800014b4	  x2:0x000bbed0 x19:0x2c800000
       67805000	      6779	00000000	00000013	addi	x0,x0,0	  x0:0x00000000
       67815000	      6780	800014b0	00000013	addi	x0,x0,0	  x0:0x00000000
       67825000	      6781	800014b4	01ec65b3	or	x11,x24,x30	 x24:0x065994fa x30:0x00000659 x11=0x065996fb
       67835000	      6782	800014b8	945af113	andi	x2,x21,-1723	 x21:0x000000c0  x2=0x00000040
       67845000	      6783	800014bc	ad4b2a93	slti	x21,x22,-1324	 x22:0x00000000 x21=0x00000000
       67855000	      6784	800014c0	01614663	blt	x2,x22,800014cc	  x2:0x00000040 x22:0x00000000
       67865000	      6785	800014c4	0caaad13	slti	x26,x21,202	 x21:0x00000000 x26=0x00000001
       67875000	      6786	800014c8	010cdab3	srl	x21,x25,x16	 x25:0x00000000 x16:0x05df6800 x21=0x00000000
       67885000	      6787	800014cc	00bc13b3	sll	x7,x24,x11	 x24:0x065994fa x11:0x065996fb  x7=0xd0000000
       67895000	      6788	800014d0	013763b3	or	x7,x14,x19	 x14:0x183d1000 x19:0x2c800000  x7=0x3cbd1000
       67905000	      6789	800014d4	005768b3	or	x17,x14,x5	 x14:0x183d1000  x5:0x00000001 x17=0x183d1001
       67915000	      6790	800014d8	0013c133	xor	x2,x7,x1	  x7:0x3cbd1000  x1:0xfffffe0f  x2=0xc342ee0f
       67925000	      6791	800014dc	01c9dc13	srli	x24,x19,0x1c	 x19:0x2c800000 x24=0x00000002
       67935000	      6792	800014e0	01a09c33	sll	x24,x1,x26	  x1:0xfffffe0f x26:0x00000001 x24=0xfffffc1e
       67945000	      6793	800014e4	00f71e93	slli	x29,x14,0xf	 x14:0x183d1000 x29=0x88000000
       67955000	      6794	800014e8	4fcc6f93	ori	x31,x24,1276	 x24:0xfffffc1e x31=0xfffffcfe
       67965000	      6795	800014ec	00f83733	sltu	x14,x16,x15	 x16:0x05df6800 x15:0x00000001 x14=0x00000000
       67975000	      6796	800014f0	016282b3	add	x5,x5,x22	  x5:0x00000001 x22:0x00000000  x5=0x00000001
       67985000	      6797	800014f4	bfdeb613	sltiu	x12,x29,-1027	 x29:0x88000000 x12=0x00000001
       67995000	      6798	800014f8	00dc8e33	add	x28,x25,x13	 x25:0x00000000 x13:0x00000000 x28=0x00000000
       68005000	      6799	800014fc	eb756613	ori	x12,x10,-329	 x10:0x0000000c x12=0xfffffebf
       68015000	      6800	80001500	00000013	addi	x0,x0,0	  x0:0x00000000
       68025000	      6801	80001504	3154e193	ori	x3,x9,789	  x9:0x7fff609d  x3=0x7fff639d
       68035000	      6802	80001508	04e1d863	bge	x3,x14,80001558	  x3:0x7fff639d x14:0x00000000
       68045000	      6803	00000000	00000013	addi	x0,x0,0	  x0:0x00000000
       68055000	      6804	80001554	00000013	addi	x0,x0,0	  x0:0x00000000
       68065000	      6805	80001558	00d67033	and	x0,x12,x13	 x12:0xfffffebf x13:0x00000000
       68075000	      6806	8000155c	00d404b3	add	x9,x8,x13	  x8:0x80009fc4 x13:0x00000000  x9=0x80009fc4
       68085000	      6807	80001560	01be51b3	srl	x3,x28,x27	 x28:0x00000000 x27:0x05df6800  x3=0x00000000
       68095000	      6808	80001564	e9b10b93	addi	x23,x2,-357	  x2:0xc342ee0f x23=0xc342ecaa
       68105000	      6809	80001568	403c01b3	sub	x3,x24,x3	 x24:0xfffffc1e  x3:0x00000000  x3=0xfffffc1e
       68115000	      6810	8000156c	04009063	bne	x1,x0,800015ac	  x1:0xfffffe0f  x0:0x00000000
       68125000	      6811	00000000	00000013	addi	x0,x0,0	  x0:0x00000000
       68135000	      6812	800015a8	00000013	addi	x0,x0,0	  x0:0x00000000
       68145000	      6813	800015ac	0187da93	srli	x21,x15,0x18	 x15:0x00000001 x21=0x00000000
       68155000	      6814	800015b0	00a0d113	srli	x2,x1,0xa	  x1:0xfffffe0f  x2=0x003fffff
       68165000	      6815	800015b4	03ab1863	bne	x22,x26,800015e4	 x22:0x00000000 x26:0x00000001
       68175000	      6816	00000000	00000013	addi	x0,x0,0	  x0:0x00000000
       68185000	      6817	800015e0	00000013	addi	x0,x0,0	  x0:0x00000000
       68195000	      6818	800015e4	00000013	addi	x0,x0,0	  x0:0x00000000
       68205000	      6819	800015e8	005be263	bltu	x23,x5,800015ec	 x23:0xc342ecaa  x5:0x00000001
       68215000	      6820	800015ec	00002733	slt	x14,x0,x0	  x0:0x00000000  x0:0x00000000 x14=0x00000000
       68225000	      6821	800015f0	40f48933	sub	x18,x9,x15	  x9:0x80009fc4 x15:0x00000001 x18=0x80009fc3
       68235000	      6822	800015f4	00356233	or	x4,x10,x3	 x10:0x0000000c  x3:0xfffffc1e  x4=0xfffffc1e
       68245000	      6823	800015f8	20ceb913	sltiu	x18,x29,524	 x29:0x88000000 x18=0x00000000
       68255000	      6824	800015fc	00d75f93	srli	x31,x14,0xd	 x14:0x00000000 x31=0x00000000
       68265000	      6825	80001600	00eb5d13	srli	x26,x22,0xe	 x22:0x00000000 x26=0x00000000
       68275000	      6826	80001604	004e4933	xor	x18,x28,x4	 x28:0x00000000  x4:0xfffffc1e x18=0xfffffc1e
       68285000	      6827	80001608	5635fa93	andi	x21,x11,1379	 x11:0x065996fb x21=0x00000463
       68295000	      6828	8000160c	00dfc9b3	xor	x19,x31,x13	 x31:0x00000000 x13:0x00000000 x19=0x00000000
       68305000	      6829	80001610	003e1e33	sll	x28,x28,x3	 x28:0x00000000  x3:0xfffffc1e x28=0x00000000
       68315000	      6830	80001614	0c196a63	bltu	x18,x1,800016e8	 x18:0xfffffc1e  x1:0xfffffe0f
       68325000	      6831	00000000	00000013	addi	x0,x0,0	  x0:0x00000000
       68335000	      6832	800016e4	00000013	addi	x0,x0,0	  x0:0x00000000
       68345000	      6833	800016e8	05d6f063	bgeu	x13,x29,80001728	 x13:0x00000000 x29:0x88000000
       68355000	      6834	800016ec	8c0b2697	auipc	x13,0x8c0b2	 x13=0x0c0b36e8
       68365000	      6835	800016f0	b9079eb7	lui	x29,0xb9079	 x29=0xb9079000
       68375000	      6836	800016f4	f6664f17	auipc	x30,0xf6664	 x30=0x766656f0
       68385000	      6837	800016f8	04007863	bgeu	x0,x0,80001748	  x0:0x00000000  x0:0x00000000
       68395000	      6838	00000000	00000013	addi	x0,x0,0	  x0:0x00000000
       68405000	      6839	80001744	00000013	addi	x0,x0,0	  x0:0x00000000
       68415000	      6840	80001748	41aed8b3	sra	x17,x29,x26	 x29:0xb9079000 x26:0x00000000 x17=0xb9079000
       68425000	      6841	8000174c	40775613	srai	x12,x14,0x7	 x14:0x00000000 x12=0x00000000
       68435000	      6842	80001750	42580d97	auipc	x27,0x42580	 x27=0xc258174c
       68445000	      6843	80001754	03cc14b7	lui	x9,0x3cc1	  x9=0x03cc1000
       68455000	      6844	80001758	00000013	addi	x0,x0,0	  x0:0x00000000
       68465000	      6845	8000175c	4025d633	sra	x12,x11,x2	 x11:0x065996fb  x2:0x003fffff x12=0x00000000
       68475000	      6846	80001760	e5d49537	lui	x10,0xe5d49	 x10=0xe5d49000
       68485000	      6847	80001764	40415c13	srai	x24,x2,0x4	  x2:0x003fffff x24=0x0003ffff
       68495000	      6848	80001768	03230263	beq	x6,x18,8000178c	  x6:0x0000000e x18:0xfffffc1e
       68505000	      6849	8000176c	ea47f137	lui	x2,0xea47f	  x2=0xea47f000
       68515000	      6850	80001770	01a18db3	add	x27,x3,x26	  x3:0xfffffc1e x26:0x00000000 x27=0xfffffc1e
       68525000	      6851	80001774	2f9b8937	lui	x18,0x2f9b8	 x18=0x2f9b8000
       68535000	      6852	80001778	00d8f133	and	x2,x17,x13	 x17:0xb9079000 x13:0x0c0b36e8  x2=0x08031000
       68545000	      6853	8000177c	03c81e63	bne	x16,x28,800017b8	 x16:0x05df6800 x28:0x00000000
       68555000	      6854	00000000	00000013	addi	x0,x0,0	  x0:0x00000000
       68565000	      6855	800017b4	00000013	addi	x0,x0,0	  x0:0x00000000
       68575000	      6856	800017b8	00f11e13	slli	x28,x2,0xf	  x2:0x08031000 x28=0x88000000
       68585000	      6857	800017bc	018b81b3	add	x3,x23,x24	 x23:0xc342ecaa x24:0x0003ffff  x3=0xc346eca9
       68595000	      6858	800017c0	00dfe263	bltu	x31,x13,800017c4	 x31:0x00000000 x13:0x0c0b36e8
       68605000	      6859	00000000	00000013	addi	x0,x0,0	  x0:0x00000000
       68615000	      6860	800017c0	00000013	addi	x0,x0,0	  x0:0x00000000
       68625000	      6861	800017c4	00371fb3	sll	x31,x14,x3	 x14:0x00000000  x3:0xc346eca9 x31=0x00000000
       68635000	      6862	800017c8	40f85c13	srai	x24,x16,0xf	 x16:0x05df6800 x24=0x00000bbe
       68645000	      6863	800017cc	40405633	sra	x12,x0,x4	  x0:0x00000000  x4:0xfffffc1e x12=0x00000000
       68655000	      6864	800017d0	0195a833	slt	x16,x11,x25	 x11:0x065996fb x25:0x00000000 x16=0x00000000
       68665000	      6865	800017d4	004a2083	lw	x1,4(x20)	 x20:0x80009f64  x1=0x80000290 PA:0x80009f68
       68675000	      6866	800017d8	88ad0393	addi	x7,x26,-1910	 x26:0x00000000  x7=0xfffff88a
       68685000	      6867	800017dc	01095633	srl	x12,x18,x16	 x18:0x2f9b8000 x16:0x00000000 x12=0x2f9b8000
       68695000	      6868	800017e0	00675eb3	srl	x29,x14,x6	 x14:0x00000000  x6:0x0000000e x29=0x00000000
       68705000	      6869	800017e4	020a0a13	addi	x20,x20,32	 x20:0x80009f64 x20=0x80009f84
       68715000	      6870	800017e8	01109913	slli	x18,x1,0x11	  x1:0x80000290 x18=0x05200000
       68725000	      6871	800017ec	014316b3	sll	x13,x6,x20	  x6:0x0000000e x20:0x80009f84 x13=0x000000e0
       68735000	      6872	800017f0	ab604693	xori	x13,x0,-1354	  x0:0x00000000 x13=0xfffffab6
       68745000	      6873	800017f4	00008193	addi	x3,x1,0	  x1:0x80000290  x3=0x80000290
       68755000	      6874	800017f8	000181e7	jalr	x3,x3,0	  x3:0x80000290  x3=0x800017f8
       68765000	      6875	00000000	00000013	addi	x0,x0,0	  x0:0x00000000
       68775000	      6876	80000290	00000013	addi	x0,x0,0	  x0:0x00000000
       68785000	      6877	80000294	012f4a63	blt	x30,x18,800002a8	 x30:0x766656f0 x18:0x05200000
       68795000	      6878	80000298	00382c33	slt	x24,x16,x3	 x16:0x00000000  x3:0x800017f8 x24=0x00000000
       68805000	      6879	8000029c	00c6a4b3	slt	x9,x13,x12	 x13:0xfffffab6 x12:0x2f9b8000  x9=0x00000001
       68815000	      6880	800002a0	1ab17893	andi	x17,x2,427	  x2:0x08031000 x17=0x00000000
       68825000	      6881	800002a4	000ed8b3	srl	x17,x29,x0	 x29:0x00000000  x0:0x00000000 x17=0x00000000
       68835000	      6882	800002a8	00fbf233	and	x4,x23,x15	 x23:0xc342ecaa x15:0x00000001  x4=0x00000000
       68845000	      6883	800002ac	8d49a5b7	lui	x11,0x8d49a	 x11=0x8d49a000
       68855000	      6884	800002b0	00c8d5b3	srl	x11,x17,x12	 x17:0x00000000 x12:0x2f9b8000 x11=0x00000000
       68865000	      6885	800002b4	aa322bb7	lui	x23,0xaa322	 x23=0xaa322000
       68875000	      6886	800002b8	00000013	addi	x0,x0,0	  x0:0x00000000
       68885000	      6887	800002bc	00000317	auipc	x6,0x0	  x6=0x800002b8
       68895000	      6888	800002c0	00c30313	addi	x6,x6,12	  x6:0x800002b8  x6=0x800002c4
       68905000	      6889	800002c4	00030067	jalr	x0,x6,0	  x6:0x800002c4
       68915000	      6890	00000000	00000013	addi	x0,x0,0	  x0:0x00000000
       68925000	      6891	800002c4	00000013	addi	x0,x0,0	  x0:0x00000000
       68935000	      6892	800002c8	00100193	addi	x3,x0,1	  x0:0x00000000  x3=0x00000001
       68945000	      6893	800002cc	00000073	ecall	
       68955000	      6894	800002d0	40000eb3	sub	x29,x0,x0	  x0:0x00000000  x0:0x00000000 x29=0x00000000
