		Time			Cycle	PC		Insn	Decoded instruction	Register and memory contents
          65000	         5	80000004	00000293	addi	x5,x0,0	  x0:0x00000000  x5=0x00000000
          75000	         6	80000008	00000313	addi	x6,x0,0	  x0:0x00000000  x6=0x00000000
          85000	         7	8000000c	00628263	beq	x5,x6,80000010	  x5:0x00000000  x6:0x00000000
          95000	         8	00000000	00000013	addi	x0,x0,0	  x0:0x00000000
         105000	         9	8000000c	00000013	addi	x0,x0,0	  x0:0x00000000
         115000	        10	80000010	00000997	auipc	x19,0x0	 x19=0x8000000c
         125000	        11	80000014	00c98993	addi	x19,x19,12	 x19:0x8000000c x19=0x80000018
         135000	        12	80000018	00098067	jalr	x0,x19,0	 x19:0x80000018
         145000	        13	00000000	00000013	addi	x0,x0,0	  x0:0x00000000
         155000	        14	80000018	00000013	addi	x0,x0,0	  x0:0x00000000
         165000	        15	8000001c	40000a37	lui	x20,0x40000	 x20=0x40000000
         175000	        16	80000020	100a0a13	addi	x20,x20,256	 x20:0x40000000 x20=0x40000100
         185000	        17	80000024	00000013	addi	x0,x0,0	  x0:0x00000000
         195000	        18	80000028	0000ac97	auipc	x25,0xa	 x25=0x8000a024
         205000	        19	8000002c	fa0c8c93	addi	x25,x25,-96	 x25:0x8000a024 x25=0x80009fc4
         215000	        20	80000030	00007a17	auipc	x20,0x7	 x20=0x8000702c
         225000	        21	80000034	c6ca0a13	addi	x20,x20,-916	 x20:0x8000702c x20=0x80006c98
         235000	        22	80000038	000a6a13	ori	x20,x20,0	 x20:0x80006c98 x20=0x80006c98
         245000	        23	8000003c	00000013	addi	x0,x0,0	  x0:0x00000000
         255000	        24	80000040	00000a17	auipc	x20,0x0	 x20=0x8000003c
         265000	        25	80000044	020a0a13	addi	x20,x20,32	 x20:0x8000003c x20=0x8000005c
         275000	        26	80000048	00000013	addi	x0,x0,0	  x0:0x00000000
         285000	        27	8000004c	00000013	addi	x0,x0,0	  x0:0x00000000
         295000	        28	80000050	00002a37	lui	x20,0x2	 x20=0x00002000
         305000	        29	80000054	800a0a13	addi	x20,x20,-2048	 x20:0x00002000 x20=0x00001800
         315000	        30	80000058	00000013	addi	x0,x0,0	  x0:0x00000000
         325000	        31	8000005c	00000013	addi	x0,x0,0	  x0:0x00000000
         335000	        32	80000060	b08d9037	lui	x0,0xb08d9	
         345000	        33	80000064	b3300013	addi	x0,x0,-1229	  x0:0x00000000
         355000	        34	80000068	00000093	addi	x1,x0,0	  x0:0x00000000  x1=0x00000000
         365000	        35	8000006c	00000113	addi	x2,x0,0	  x0:0x00000000  x2=0x00000000
         375000	        36	80000070	ed1fc1b7	lui	x3,0xed1fc	  x3=0xed1fc000
         385000	        37	80000074	c3718193	addi	x3,x3,-969	  x3:0xed1fc000  x3=0xed1fbc37
         395000	        38	80000078	9a373237	lui	x4,0x9a373	  x4=0x9a373000
         405000	        39	8000007c	a7d20213	addi	x4,x4,-1411	  x4:0x9a373000  x4=0x9a372a7d
         415000	        40	80000080	5968d2b7	lui	x5,0x5968d	  x5=0x5968d000
         425000	        41	80000084	1b828293	addi	x5,x5,440	  x5:0x5968d000  x5=0x5968d1b8
         435000	        42	80000088	fceae337	lui	x6,0xfceae	  x6=0xfceae000
         445000	        43	8000008c	b6e30313	addi	x6,x6,-1170	  x6:0xfceae000  x6=0xfceadb6e
         455000	        44	80000090	fe08f3b7	lui	x7,0xfe08f	  x7=0xfe08f000
         465000	        45	80000094	e2938393	addi	x7,x7,-471	  x7:0xfe08f000  x7=0xfe08ee29
         475000	        46	80000098	fa2c9437	lui	x8,0xfa2c9	  x8=0xfa2c9000
         485000	        47	8000009c	b5a40413	addi	x8,x8,-1190	  x8:0xfa2c9000  x8=0xfa2c8b5a
         495000	        48	800000a0	00800493	addi	x9,x0,8	  x0:0x00000000  x9=0x00000008
         505000	        49	800000a4	fea2f537	lui	x10,0xfea2f	 x10=0xfea2f000
         515000	        50	800000a8	efa50513	addi	x10,x10,-262	 x10:0xfea2f000 x10=0xfea2eefa
         525000	        51	800000ac	faf825b7	lui	x11,0xfaf82	 x11=0xfaf82000
         535000	        52	800000b0	7e258593	addi	x11,x11,2018	 x11:0xfaf82000 x11=0xfaf827e2
         545000	        53	800000b4	00d00613	addi	x12,x0,13	  x0:0x00000000 x12=0x0000000d
         555000	        54	800000b8	00000693	addi	x13,x0,0	  x0:0x00000000 x13=0x00000000
         565000	        55	800000bc	00000713	addi	x14,x0,0	  x0:0x00000000 x14=0x00000000
         575000	        56	800000c0	00000813	addi	x16,x0,0	  x0:0x00000000 x16=0x00000000
         585000	        57	800000c4	0e2078b7	lui	x17,0xe207	 x17=0x0e207000
         595000	        58	800000c8	57588893	addi	x17,x17,1397	 x17:0x0e207000 x17=0x0e207575
         605000	        59	800000cc	00500913	addi	x18,x0,5	  x0:0x00000000 x18=0x00000005
         615000	        60	800000d0	92f229b7	lui	x19,0x92f22	 x19=0x92f22000
         625000	        61	800000d4	a7a98993	addi	x19,x19,-1414	 x19:0x92f22000 x19=0x92f21a7a
         635000	        62	800000d8	f839da37	lui	x20,0xf839d	 x20=0xf839d000
         645000	        63	800000dc	bc9a0a13	addi	x20,x20,-1079	 x20:0xf839d000 x20=0xf839cbc9
         655000	        64	800000e0	80000ab7	lui	x21,0x80000	 x21=0x80000000
         665000	        65	800000e4	00000b13	addi	x22,x0,0	  x0:0x00000000 x22=0x00000000
         675000	        66	800000e8	80000bb7	lui	x23,0x80000	 x23=0x80000000
         685000	        67	800000ec	fd60dc37	lui	x24,0xfd60d	 x24=0xfd60d000
         695000	        68	800000f0	6dfc0c13	addi	x24,x24,1759	 x24:0xfd60d000 x24=0xfd60d6df
         705000	        69	800000f4	efd76d37	lui	x26,0xefd76	 x26=0xefd76000
         715000	        70	800000f8	668d0d13	addi	x26,x26,1640	 x26:0xefd76000 x26=0xefd76668
         725000	        71	800000fc	00000d93	addi	x27,x0,0	  x0:0x00000000 x27=0x00000000
         735000	        72	80000100	fd32ae37	lui	x28,0xfd32a	 x28=0xfd32a000
         745000	        73	80000104	da3e0e13	addi	x28,x28,-605	 x28:0xfd32a000 x28=0xfd329da3
         755000	        74	80000108	80000eb7	lui	x29,0x80000	 x29=0x80000000
         765000	        75	8000010c	00000f13	addi	x30,x0,0	  x0:0x00000000 x30=0x00000000
         775000	        76	80000110	80000fb7	lui	x31,0x80000	 x31=0x80000000
         785000	        77	80000114	0000a797	auipc	x15,0xa	 x15=0x8000a110
         795000	        78	80000118	e7478793	addi	x15,x15,-396	 x15:0x8000a110 x15=0x80009f84
         805000	        79	8000011c	00008117	auipc	x2,0x8	  x2=0x80008118
         815000	        80	80000120	f6b10113	addi	x2,x2,-149	  x2:0x80008118  x2=0x80008083
         825000	        81	80000124	00489a33	sll	x20,x17,x4	 x17:0x0e207575  x4:0x9a372a7d x20=0xa0000000
         835000	        82	80000128	004492b3	sll	x5,x9,x4	  x9:0x00000008  x4:0x9a372a7d  x5=0x00000000
         845000	        83	8000012c	c50f0493	addi	x9,x30,-944	 x30:0x00000000  x9=0xfffffc50
         855000	        84	80000130	01892db3	slt	x27,x18,x24	 x18:0x00000005 x24:0xfd60d6df x27=0x00000000
         865000	        85	80000134	40e4de33	sra	x28,x9,x14	  x9:0xfffffc50 x14:0x00000000 x28=0xfffffc50
         875000	        86	80000138	403a50b3	sra	x1,x20,x3	 x20:0xa0000000  x3:0xed1fbc37  x1=0xffffff40
         885000	        87	8000013c	401e05b3	sub	x11,x28,x1	 x28:0xfffffc50  x1:0xffffff40 x11=0xfffffd10
         895000	        88	80000140	00000013	addi	x0,x0,0	  x0:0x00000000
         905000	        89	80000144	fe114d83	lbu	x27,-31(x2)	  x2:0x80008083 x27=0x00000000 PA:0x80008064
         915000	        90	80000148	02715183	lhu	x3,39(x2)	  x2:0x80008083  x3=0x00000000 PA:0x800080aa
         925000	        91	8000014c	00d105a3	sb	x13,11(x2)	  x2:0x80008083 x13:0x00000000 PA:0x8000808e
         935000	        92	80000150	01551293	slli	x5,x10,0x15	 x10:0xfea2eefa  x5=0xdf400000
         945000	        93	80000154	0130de13	srli	x28,x1,0x13	  x1:0xffffff40 x28=0x00001fff
         955000	        94	80000158	fce11ba3	sh	x14,-41(x2)	  x2:0x80008083 x14:0x00000000 PA:0x8000805a
         965000	        95	8000015c	98607d13	andi	x26,x0,-1658	  x0:0x00000000 x26=0x00000000
         975000	        96	80000160	ff915a83	lhu	x21,-7(x2)	  x2:0x80008083 x21=0x00000000 PA:0x8000807c
         985000	        97	80000164	02710703	lb	x14,39(x2)	  x2:0x80008083 x14=0x00000000 PA:0x800080aa
         995000	        98	80000168	b2dca237	lui	x4,0xb2dca	  x4=0xb2dca000
        1005000	        99	8000016c	015fafb3	slt	x31,x31,x21	 x31:0x80000000 x21:0x00000000 x31=0x00000001
        1015000	       100	80000170	029f8613	addi	x12,x31,41	 x31:0x00000001 x12=0x0000002a
        1025000	       101	80000174	fe010323	sb	x0,-26(x2)	  x2:0x80008083  x0:0x00000000 PA:0x80008069
        1035000	       102	80000178	fcc14a83	lbu	x21,-52(x2)	  x2:0x80008083 x21=0x00000000 PA:0x8000804f
        1045000	       103	00000000	00000013	addi	x0,x0,0	  x0:0x00000000
        1055000	       104	8000017c	03512803	lw	x16,53(x2)	  x2:0x80008083 x16=0x00000000 PA:0x800080b8
        1065000	       105	80000180	01b713b3	sll	x7,x14,x27	 x14:0x00000000 x27:0x00000000  x7=0x00000000
        1075000	       106	80000184	001e1a33	sll	x20,x28,x1	 x28:0x00001fff  x1:0xffffff40 x20=0x00001fff
        1085000	       107	80000188	fcc10083	lb	x1,-52(x2)	  x2:0x80008083  x1=0x00000000 PA:0x8000804f
        1095000	       108	8000018c	fc911383	lh	x7,-55(x2)	  x2:0x80008083  x7=0x00000000 PA:0x8000804c
        1105000	       109	80000190	01e1afb3	slt	x31,x3,x30	  x3:0x00000000 x30:0x00000000 x31=0x00000000
        1115000	       110	80000194	fe814f03	lbu	x30,-24(x2)	  x2:0x80008083 x30=0x00000000 PA:0x8000806b
        1125000	       111	80000198	0199de93	srli	x29,x19,0x19	 x19:0x92f21a7a x29=0x00000049
        1135000	       112	8000019c	ff512a83	lw	x21,-11(x2)	  x2:0x80008083 x21=0x00000000 PA:0x80008078
        1145000	       113	800001a0	012b5c13	srli	x24,x22,0x12	 x22:0x00000000 x24=0x00000000
        1155000	       114	800001a4	fdb119a3	sh	x27,-45(x2)	  x2:0x80008083 x27:0x00000000 PA:0x80008056
        1165000	       115	800001a8	fc711da3	sh	x7,-37(x2)	  x2:0x80008083  x7:0x00000000 PA:0x8000805e
        1175000	       116	800001ac	00b2d533	srl	x10,x5,x11	  x5:0xdf400000 x11:0xfffffd10 x10=0x0000df40
        1185000	       117	800001b0	fca10e83	lb	x29,-54(x2)	  x2:0x80008083 x29=0x00000000 PA:0x8000804d
        1195000	       118	800001b4	00711583	lh	x11,7(x2)	  x2:0x80008083 x11=0x00000000 PA:0x8000808a
        1205000	       119	800001b8	006f7db3	and	x27,x30,x6	 x30:0x00000000  x6:0xfceadb6e x27=0x00000000
        1215000	       120	800001bc	fc715f83	lhu	x31,-57(x2)	  x2:0x80008083 x31=0x00000000 PA:0x8000804a
        1225000	       121	800001c0	001bda13	srli	x20,x23,0x1	 x23:0x80000000 x20=0x40000000
        1235000	       122	800001c4	01959b93	slli	x23,x11,0x19	 x11:0x00000000 x23=0x00000000
        1245000	       123	800001c8	01a70fb3	add	x31,x14,x26	 x14:0x00000000 x26:0x00000000 x31=0x00000000
        1255000	       124	800001cc	fff15c03	lhu	x24,-1(x2)	  x2:0x80008083 x24=0x00000000 PA:0x80008082
        1265000	       125	800001d0	03110623	sb	x17,44(x2)	  x2:0x80008083 x17:0x0e207575 PA:0x800080af
        1275000	       126	800001d4	fe614483	lbu	x9,-26(x2)	  x2:0x80008083  x9=0x00000000 PA:0x80008069
        1285000	       127	800001d8	e0c2b313	sltiu	x6,x5,-500	  x5:0xdf400000  x6=0x00000001
        1295000	       128	800001dc	00b11203	lh	x4,11(x2)	  x2:0x80008083  x4=0x00000000 PA:0x8000808e
        1305000	       129	800001e0	03510b83	lb	x23,53(x2)	  x2:0x80008083 x23=0x00000000 PA:0x800080b8
        1315000	       130	800001e4	40f98b33	sub	x22,x19,x15	 x19:0x92f21a7a x15:0x80009f84 x22=0x12f17af6
        1325000	       131	800001e8	3d520693	addi	x13,x4,981	  x4:0x00000000 x13=0x000003d5
        1335000	       132	800001ec	01301a33	sll	x20,x0,x19	  x0:0x00000000 x19:0x92f21a7a x20=0x00000000
        1345000	       133	800001f0	03e100a3	sb	x30,33(x2)	  x2:0x80008083 x30:0x00000000 PA:0x800080a4
        1355000	       134	800001f4	03c10883	lb	x17,60(x2)	  x2:0x80008083 x17=0x00000000 PA:0x800080bf
        1365000	       135	800001f8	db2e4b93	xori	x23,x28,-590	 x28:0x00001fff x23=0xffffe24d
        1375000	       136	800001fc	f846fd93	andi	x27,x13,-124	 x13:0x000003d5 x27=0x00000384
        1385000	       137	80000200	411cd193	srai	x3,x25,0x11	 x25:0x80009fc4  x3=0xffffc000
        1395000	       138	80000204	024e8663	beq	x29,x4,80000230	 x29:0x00000000  x4:0x00000000
        1405000	       139	00000000	00000013	addi	x0,x0,0	  x0:0x00000000
        1415000	       140	8000022c	00000013	addi	x0,x0,0	  x0:0x00000000
        1425000	       141	80000230	4039d933	sra	x18,x19,x3	 x19:0x92f21a7a  x3:0xffffc000 x18=0x92f21a7a
        1435000	       142	80000234	00579893	slli	x17,x15,0x5	 x15:0x80009f84 x17=0x0013f080
        1445000	       143	80000238	054f1663	bne	x30,x20,80000284	 x30:0x00000000 x20:0x00000000
        1455000	       144	8000023c	03bc4463	blt	x24,x27,80000264	 x24:0x00000000 x27:0x00000384
        1465000	       145	00000000	00000013	addi	x0,x0,0	  x0:0x00000000
        1475000	       146	80000260	00000013	addi	x0,x0,0	  x0:0x00000000
        1485000	       147	80000264	2270d237	lui	x4,0x2270d	  x4=0x2270d000
        1495000	       148	80000268	01268833	add	x16,x13,x18	 x13:0x000003d5 x18:0x92f21a7a x16=0x92f21e4f
        1505000	       149	8000026c	007cf033	and	x0,x25,x7	 x25:0x80009fc4  x7:0x00000000
        1515000	       150	80000270	00ba5433	srl	x8,x20,x11	 x20:0x00000000 x11:0x00000000  x8=0x00000000
        1525000	       151	80000274	058ae063	bltu	x21,x24,800002b4	 x21:0x00000000 x24:0x00000000
        1535000	       152	80000278	ca510513	addi	x10,x2,-859	  x2:0x80008083 x10=0x80007d28
        1545000	       153	8000027c	0f7aa493	slti	x9,x21,247	 x21:0x00000000  x9=0x00000001
        1555000	       154	80000280	0176c033	xor	x0,x13,x23	 x13:0x000003d5 x23:0xffffe24d
        1565000	       155	80000284	0413f463	bgeu	x7,x1,800002cc	  x7:0x00000000  x1:0x00000000
        1575000	       156	00000000	00000013	addi	x0,x0,0	  x0:0x00000000
        1585000	       157	800002c8	00000013	addi	x0,x0,0	  x0:0x00000000
        1595000	       158	800002cc	cbee4b13	xori	x22,x28,-834	 x28:0x00001fff x22=0xffffe341
        1605000	       159	800002d0	40150733	sub	x14,x10,x1	 x10:0x80007d28  x1:0x00000000 x14=0x80007d28
        1615000	       160	800002d4	05c37863	bgeu	x6,x28,80000324	  x6:0x00000001 x28:0x00001fff
        1625000	       161	800002d8	002e66b3	or	x13,x28,x2	 x28:0x00001fff  x2:0x80008083 x13=0x80009fff
        1635000	       162	800002dc	01806533	or	x10,x0,x24	  x0:0x00000000 x24:0x00000000 x10=0x00000000
        1645000	       163	800002e0	32939d97	auipc	x27,0x32939	 x27=0xb29392dc
        1655000	       164	800002e4	41e95493	srai	x9,x18,0x1e	 x18:0x92f21a7a  x9=0xfffffffe
        1665000	       165	800002e8	03655e63	bge	x10,x22,80000324	 x10:0x00000000 x22:0xffffe341
        1675000	       166	00000000	00000013	addi	x0,x0,0	  x0:0x00000000
        1685000	       167	80000320	00000013	addi	x0,x0,0	  x0:0x00000000
        1695000	       168	80000324	00b440b3	xor	x1,x8,x11	  x8:0x00000000 x11:0x00000000  x1=0x00000000
        1705000	       169	80000328	81820d93	addi	x27,x4,-2024	  x4:0x2270d000 x27=0x2270c818
        1715000	       170	8000032c	00181113	slli	x2,x16,0x1	 x16:0x92f21e4f  x2=0x25e43c9e
        1725000	       171	80000330	0145db93	srli	x23,x11,0x14	 x11:0x00000000 x23=0x00000000
        1735000	       172	80000334	00a69f13	slli	x30,x13,0xa	 x13:0x80009fff x30=0x027ffc00
        1745000	       173	80000338	017c5913	srli	x18,x24,0x17	 x24:0x00000000 x18=0x00000000
        1755000	       174	8000033c	00eba6b3	slt	x13,x23,x14	 x23:0x00000000 x14:0x80007d28 x13=0x00000000
        1765000	       175	80000340	40c7d593	srai	x11,x15,0xc	 x15:0x80009f84 x11=0xfff80009
        1775000	       176	80000344	01859033	sll	x0,x11,x24	 x11:0xfff80009 x24:0x00000000
        1785000	       177	80000348	00f10233	add	x4,x2,x15	  x2:0x25e43c9e x15:0x80009f84  x4=0xa5e4dc22
        1795000	       178	8000034c	7d686a13	ori	x20,x16,2006	 x16:0x92f21e4f x20=0x92f21fdf
        1805000	       179	80000350	0248e463	bltu	x17,x4,80000378	 x17:0x0013f080  x4:0xa5e4dc22
        1815000	       180	00000000	00000013	addi	x0,x0,0	  x0:0x00000000
        1825000	       181	80000374	00000013	addi	x0,x0,0	  x0:0x00000000
        1835000	       182	80000378	0202fe63	bgeu	x5,x0,800003b4	  x5:0xdf400000  x0:0x00000000
        1845000	       183	00000000	00000013	addi	x0,x0,0	  x0:0x00000000
        1855000	       184	800003b0	00000013	addi	x0,x0,0	  x0:0x00000000
        1865000	       185	800003b4	40ccd293	srai	x5,x25,0xc	 x25:0x80009fc4  x5=0xfff80009
        1875000	       186	800003b8	54a5df17	auipc	x30,0x54a5d	 x30=0xd4a5d3b4
        1885000	       187	800003bc	03271663	bne	x14,x18,800003e8	 x14:0x80007d28 x18:0x00000000
        1895000	       188	00000000	00000013	addi	x0,x0,0	  x0:0x00000000
        1905000	       189	800003e4	00000013	addi	x0,x0,0	  x0:0x00000000
        1915000	       190	800003e8	03d35a63	bge	x6,x29,8000041c	  x6:0x00000001 x29:0x00000000
        1925000	       191	00000000	00000013	addi	x0,x0,0	  x0:0x00000000
        1935000	       192	80000418	00000013	addi	x0,x0,0	  x0:0x00000000
        1945000	       193	8000041c	403bda33	sra	x20,x23,x3	 x23:0x00000000  x3:0xffffc000 x20=0x00000000
        1955000	       194	80000420	07056a63	bltu	x10,x16,80000494	 x10:0x00000000 x16:0x92f21e4f
        1965000	       195	00000000	00000013	addi	x0,x0,0	  x0:0x00000000
        1975000	       196	80000490	00000013	addi	x0,x0,0	  x0:0x00000000
        1985000	       197	80000494	02908463	beq	x1,x9,800004bc	  x1:0x00000000  x9:0xfffffffe
        1995000	       198	80000498	40715e33	sra	x28,x2,x7	  x2:0x25e43c9e  x7:0x00000000 x28=0x25e43c9e
        2005000	       199	8000049c	009e5833	srl	x16,x28,x9	 x28:0x25e43c9e  x9:0xfffffffe x16=0x00000000
        2015000	       200	800004a0	27210e13	addi	x28,x2,626	  x2:0x25e43c9e x28=0x25e43f10
        2025000	       201	800004a4	0716c137	lui	x2,0x716c	  x2=0x0716c000
        2035000	       202	800004a8	00c68133	add	x2,x13,x12	 x13:0x00000000 x12:0x0000002a  x2=0x0000002a
        2045000	       203	800004ac	02eb7463	bgeu	x22,x14,800004d4	 x22:0xffffe341 x14:0x80007d28
        2055000	       204	00000000	00000013	addi	x0,x0,0	  x0:0x00000000
        2065000	       205	800004d0	00000013	addi	x0,x0,0	  x0:0x00000000
        2075000	       206	800004d4	0121db93	srli	x23,x3,0x12	  x3:0xffffc000 x23=0x00003fff
        2085000	       207	800004d8	0003b533	sltu	x10,x7,x0	  x7:0x00000000  x0:0x00000000 x10=0x00000000
        2095000	       208	800004dc	d05bf813	andi	x16,x23,-763	 x23:0x00003fff x16=0x00003d05
        2105000	       209	800004e0	90b64293	xori	x5,x12,-1781	 x12:0x0000002a  x5=0xfffff921
        2115000	       210	800004e4	0090ba33	sltu	x20,x1,x9	  x1:0x00000000  x9:0xfffffffe x20=0x00000001
        2125000	       211	800004e8	62f22a93	slti	x21,x4,1583	  x4:0xa5e4dc22 x21=0x00000001
        2135000	       212	800004ec	015bac33	slt	x24,x23,x21	 x23:0x00003fff x21:0x00000001 x24=0x00000000
        2145000	       213	800004f0	01cd7833	and	x16,x26,x28	 x26:0x00000000 x28:0x25e43f10 x16=0x00000000
        2155000	       214	800004f4	01d49f13	slli	x30,x9,0x1d	  x9:0xfffffffe x30=0xc0000000
        2165000	       215	800004f8	608c7893	andi	x17,x24,1544	 x24:0x00000000 x17=0x00000000
        2175000	       216	800004fc	01e0fe63	bgeu	x1,x30,80000518	  x1:0x00000000 x30:0xc0000000
        2185000	       217	80000500	c4734713	xori	x14,x6,-953	  x6:0x00000001 x14=0xfffffc46
        2195000	       218	80000504	fdf9ef17	auipc	x30,0xfdf9e	 x30=0x7df9e500
        2205000	       219	80000508	715f8517	auipc	x10,0x715f8	 x10=0xf15f8504
        2215000	       220	8000050c	01991913	slli	x18,x18,0x19	 x18:0x00000000 x18=0x00000000
        2225000	       221	80000510	06b18e63	beq	x3,x11,8000058c	  x3:0xffffc000 x11:0xfff80009
        2235000	       222	80000514	01a3c0b3	xor	x1,x7,x26	  x7:0x00000000 x26:0x00000000  x1=0x00000000
        2245000	       223	80000518	663d2513	slti	x10,x26,1635	 x26:0x00000000 x10=0x00000001
        2255000	       224	8000051c	41e30333	sub	x6,x6,x30	  x6:0x00000001 x30:0x7df9e500  x6=0x82061b01
        2265000	       225	80000520	009fe5b3	or	x11,x31,x9	 x31:0x00000000  x9:0xfffffffe x11=0xfffffffe
        2275000	       226	80000524	4001d5b3	sra	x11,x3,x0	  x3:0xffffc000  x0:0x00000000 x11=0xffffc000
        2285000	       227	80000528	01054fb3	xor	x31,x10,x16	 x10:0x00000001 x16:0x00000000 x31=0x00000001
        2295000	       228	8000052c	4112da93	srai	x21,x5,0x11	  x5:0xfffff921 x21=0xffffffff
        2305000	       229	80000530	00001517	auipc	x10,0x1	 x10=0x8000152c
        2315000	       230	80000534	21c50513	addi	x10,x10,540	 x10:0x8000152c x10=0x80001748
        2325000	       231	80000538	2441b597	auipc	x11,0x2441b	 x11=0xa441b534
        2335000	       232	8000053c	01184f33	xor	x30,x16,x17	 x16:0x00000000 x17:0x00000000 x30=0x00000000
        2345000	       233	80000540	d6a50513	addi	x10,x10,-662	 x10:0x80001748 x10=0x800014b2
        2355000	       234	80000544	01164233	xor	x4,x12,x17	 x12:0x0000002a x17:0x00000000  x4=0x0000002a
        2365000	       235	80000548	01559b13	slli	x22,x11,0x15	 x11:0xa441b534 x22=0xa6800000
        2375000	       236	8000054c	29650367	jalr	x6,x10,662	 x10:0x800014b2  x6=0x8000054c
        2385000	       237	00000000	00000013	addi	x0,x0,0	  x0:0x00000000
        2395000	       238	80001748	00000013	addi	x0,x0,0	  x0:0x00000000
        2405000	       239	8000174c	94b80393	addi	x7,x16,-1717	 x16:0x00000000  x7=0xfffff94b
        2415000	       240	80001750	fd878793	addi	x15,x15,-40	 x15:0x80009f84 x15=0x80009f5c
        2425000	       241	80001754	5fbfcd13	xori	x26,x31,1531	 x31:0x00000001 x26=0x000005fa
        2435000	       242	80001758	04400f13	addi	x30,x0,68	  x0:0x00000000 x30=0x00000044
        2445000	       243	8000175c	6392be97	auipc	x29,0x6392b	 x29=0xe392c758
        2455000	       244	80001760	0067a223	sw	x6,4(x15)	 x15:0x80009f5c  x6:0x8000054c PA:0x80009f60
        2465000	       245	80001764	41e9d4b3	sra	x9,x19,x30	 x19:0x92f21a7a x30:0x00000044  x9=0xf92f21a7
        2475000	       246	80001768	8c6e8113	addi	x2,x29,-1850	 x29:0xe392c758  x2=0xe392c01e
        2485000	       247	8000176c	398ef613	andi	x12,x29,920	 x29:0xe392c758 x12=0x00000318
        2495000	       248	80001770	00000397	auipc	x7,0x0	  x7=0x8000176c
        2505000	       249	80001774	df038393	addi	x7,x7,-528	  x7:0x8000176c  x7=0x8000155c
        2515000	       250	80001778	01fb2233	slt	x4,x22,x31	 x22:0xa6800000 x31:0x00000001  x4=0x00000001
        2525000	       251	8000177c	40045e93	srai	x29,x8,0x0	  x8:0x00000000 x29=0x00000000
        2535000	       252	80001780	3e138393	addi	x7,x7,993	  x7:0x8000155c  x7=0x8000193d
        2545000	       253	80001784	011956b3	srl	x13,x18,x17	 x18:0x00000000 x17:0x00000000 x13=0x00000000
        2555000	       254	80001788	010b1d33	sll	x26,x22,x16	 x22:0xa6800000 x16:0x00000000 x26=0xa6800000
        2565000	       255	8000178c	01dff663	bgeu	x31,x29,80001798	 x31:0x00000001 x29:0x00000000
        2575000	       256	00000000	00000013	addi	x0,x0,0	  x0:0x00000000
        2585000	       257	80001794	00000013	addi	x0,x0,0	  x0:0x00000000
        2595000	       258	80001798	c1f38367	jalr	x6,x7,-993	  x7:0x8000193d  x6=0x80001798
        2605000	       259	00000000	00000013	addi	x0,x0,0	  x0:0x00000000
        2615000	       260	8000155c	00000013	addi	x0,x0,0	  x0:0x00000000
        2625000	       261	80001560	00182c33	slt	x24,x16,x1	 x16:0x00000000  x1:0x00000000 x24=0x00000000
        2635000	       262	80001564	3db1b113	sltiu	x2,x3,987	  x3:0xffffc000  x2=0x00000000
        2645000	       263	80001568	00a8a3b3	slt	x7,x17,x10	 x17:0x00000000 x10:0x800014b2  x7=0x00000000
        2655000	       264	8000156c	0152c263	blt	x5,x21,80001570	  x5:0xfffff921 x21:0xffffffff
        2665000	       265	00000000	00000013	addi	x0,x0,0	  x0:0x00000000
        2675000	       266	8000156c	00000013	addi	x0,x0,0	  x0:0x00000000
        2685000	       267	80001570	fd078793	addi	x15,x15,-48	 x15:0x80009f5c x15=0x80009f2c
        2695000	       268	80001574	0067a223	sw	x6,4(x15)	 x15:0x80009f2c  x6:0x80001798 PA:0x80009f30
        2705000	       269	80001578	00d29bb3	sll	x23,x5,x13	  x5:0xfffff921 x13:0x00000000 x23=0xfffff921
        2715000	       270	8000157c	004886b3	add	x13,x17,x4	 x17:0x00000000  x4:0x00000001 x13=0x00000001
        2725000	       271	80001580	41435133	sra	x2,x6,x20	  x6:0x80001798 x20:0x00000001  x2=0xc0000bcc
        2735000	       272	80001584	01eb9a13	slli	x20,x23,0x1e	 x23:0xfffff921 x20=0x40000000
        2745000	       273	80001588	89e368b7	lui	x17,0x89e36	 x17=0x89e36000
        2755000	       274	8000158c	00b3cfb3	xor	x31,x7,x11	  x7:0x00000000 x11:0xa441b534 x31=0xa441b534
        2765000	       275	80001590	ad61c593	xori	x11,x3,-1322	  x3:0xffffc000 x11=0x00003ad6
        2775000	       276	80001594	95317e93	andi	x29,x2,-1709	  x2:0xc0000bcc x29=0xc0000940
        2785000	       277	80001598	5f656b13	ori	x22,x10,1526	 x10:0x800014b2 x22=0x800015f6
        2795000	       278	8000159c	051c6263	bltu	x24,x17,800015e0	 x24:0x00000000 x17:0x89e36000
        2805000	       279	00000000	00000013	addi	x0,x0,0	  x0:0x00000000
        2815000	       280	800015dc	00000013	addi	x0,x0,0	  x0:0x00000000
        2825000	       281	800015e0	023d0c63	beq	x26,x3,80001618	 x26:0xa6800000  x3:0xffffc000
        2835000	       282	800015e4	b1dea893	slti	x17,x29,-1251	 x29:0xc0000940 x17=0x00000001
        2845000	       283	800015e8	003aadb3	slt	x27,x21,x3	 x21:0xffffffff  x3:0xffffc000 x27=0x00000000
        2855000	       284	800015ec	0087d013	srli	x0,x15,0x8	 x15:0x80009f2c
        2865000	       285	800015f0	01784463	blt	x16,x23,800015f8	 x16:0x00000000 x23:0xfffff921
        2875000	       286	800015f4	bc2f2413	slti	x8,x30,-1086	 x30:0x00000044  x8=0x00000000
        2885000	       287	800015f8	0065eab3	or	x21,x11,x6	 x11:0x00003ad6  x6:0x80001798 x21=0x80003fde
        2895000	       288	800015fc	2d1c3893	sltiu	x17,x24,721	 x24:0x00000000 x17=0x00000001
        2905000	       289	80001600	02a38063	beq	x7,x10,80001620	  x7:0x00000000 x10:0x800014b2
        2915000	       290	80001604	04846263	bltu	x8,x8,80001648	  x8:0x00000000  x8:0x00000000
        2925000	       291	80001608	01851913	slli	x18,x10,0x18	 x10:0x800014b2 x18=0xb2000000
        2935000	       292	8000160c	010dbc33	sltu	x24,x27,x16	 x27:0x00000000 x16:0x00000000 x24=0x00000000
        2945000	       293	80001610	01495233	srl	x4,x18,x20	 x18:0xb2000000 x20:0x40000000  x4=0xb2000000
        2955000	       294	80001614	010ec463	blt	x29,x16,8000161c	 x29:0xc0000940 x16:0x00000000
        2965000	       295	00000000	00000013	addi	x0,x0,0	  x0:0x00000000
        2975000	       296	80001618	00000013	addi	x0,x0,0	  x0:0x00000000
        2985000	       297	8000161c	018b5193	srli	x3,x22,0x18	 x22:0x800015f6  x3=0x00000080
        2995000	       298	80001620	01359a93	slli	x21,x11,0x13	 x11:0x00003ad6 x21=0xd6b00000
        3005000	       299	80001624	3e562693	slti	x13,x12,997	 x12:0x00000318 x13=0x00000001
        3015000	       300	80001628	0031efb3	or	x31,x3,x3	  x3:0x00000080  x3:0x00000080 x31=0x00000080
        3025000	       301	8000162c	a65cceb7	lui	x29,0xa65cc	 x29=0xa65cc000
        3035000	       302	80001630	00055913	srli	x18,x10,0x0	 x10:0x800014b2 x18=0x800014b2
        3045000	       303	80001634	04240463	beq	x8,x2,8000167c	  x8:0x00000000  x2:0xc0000bcc
        3055000	       304	80001638	004bf0b3	and	x1,x23,x4	 x23:0xfffff921  x4:0xb2000000  x1=0xb2000000
        3065000	       305	8000163c	8b704193	xori	x3,x0,-1865	  x0:0x00000000  x3=0xfffff8b7
        3075000	       306	80001640	03608a63	beq	x1,x22,80001674	  x1:0xb2000000 x22:0x800015f6
        3085000	       307	80001644	014970b3	and	x1,x18,x20	 x18:0x800014b2 x20:0x40000000  x1=0x00000000
        3095000	       308	80001648	00aa9813	slli	x16,x21,0xa	 x21:0xd6b00000 x16=0xc0000000
        3105000	       309	8000164c	95360693	addi	x13,x12,-1709	 x12:0x00000318 x13=0xfffffc6b
        3115000	       310	80001650	003a00b3	add	x1,x20,x3	 x20:0x40000000  x3:0xfffff8b7  x1=0x3ffff8b7
        3125000	       311	80001654	021d5263	bge	x26,x1,80001678	 x26:0xa6800000  x1:0x3ffff8b7
        3135000	       312	80001658	0042e833	or	x16,x5,x4	  x5:0xfffff921  x4:0xb2000000 x16=0xfffff921
        3145000	       313	8000165c	005a9593	slli	x11,x21,0x5	 x21:0xd6b00000 x11=0xd6000000
        3155000	       314	80001660	40ce0e33	sub	x28,x28,x12	 x28:0x25e43f10 x12:0x00000318 x28=0x25e43bf8
        3165000	       315	80001664	00ec62b3	or	x5,x24,x14	 x24:0x00000000 x14:0xfffffc46  x5=0xfffffc46
        3175000	       316	80001668	00ceb0b3	sltu	x1,x29,x12	 x29:0xa65cc000 x12:0x00000318  x1=0x00000000
        3185000	       317	8000166c	f5b5b617	auipc	x12,0xf5b5b	 x12=0x75b5c668
        3195000	       318	80001670	019b4ab3	xor	x21,x22,x25	 x22:0x800015f6 x25:0x80009fc4 x21=0x00008a32
        3205000	       319	80001674	00b033b3	sltu	x7,x0,x11	  x0:0x00000000 x11:0xd6000000  x7=0x00000001
        3215000	       320	80001678	4134d133	sra	x2,x9,x19	  x9:0xf92f21a7 x19:0x92f21a7a  x2=0xfffffffe
        3225000	       321	8000167c	0034c863	blt	x9,x3,8000168c	  x9:0xf92f21a7  x3:0xfffff8b7
        3235000	       322	00000000	00000013	addi	x0,x0,0	  x0:0x00000000
        3245000	       323	80001688	00000013	addi	x0,x0,0	  x0:0x00000000
        3255000	       324	8000168c	40d0d593	srai	x11,x1,0xd	  x1:0x00000000 x11=0x00000000
        3265000	       325	80001690	014eaab3	slt	x21,x29,x20	 x29:0xa65cc000 x20:0x40000000 x21=0x00000001
        3275000	       326	80001694	01088c33	add	x24,x17,x16	 x17:0x00000001 x16:0xfffff921 x24=0xfffff922
        3285000	       327	80001698	005c3bb3	sltu	x23,x24,x5	 x24:0xfffff922  x5:0xfffffc46 x23=0x00000001
        3295000	       328	8000169c	eb6dfc13	andi	x24,x27,-330	 x27:0x00000000 x24=0x00000000
        3305000	       329	800016a0	51901297	auipc	x5,0x51901	  x5=0xd190269c
        3315000	       330	800016a4	0047a303	lw	x6,4(x15)	 x15:0x80009f2c  x6=0x80001798 PA:0x80009f30
        3325000	       331	800016a8	015b72b3	and	x5,x22,x21	 x22:0x800015f6 x21:0x00000001  x5=0x00000000
        3335000	       332	800016ac	03078793	addi	x15,x15,48	 x15:0x80009f2c x15=0x80009f5c
        3345000	       333	800016b0	b9470d17	auipc	x26,0xb9470	 x26=0x394716ac
        3355000	       334	800016b4	40a30eb3	sub	x29,x6,x10	  x6:0x80001798 x10:0x800014b2 x29=0x000002e6
        3365000	       335	800016b8	00030613	addi	x12,x6,0	  x6:0x80001798 x12=0x80001798
        3375000	       336	800016bc	00060667	jalr	x12,x12,0	 x12:0x80001798 x12=0x800016bc
        3385000	       337	00000000	00000013	addi	x0,x0,0	  x0:0x00000000
        3395000	       338	80001798	00000013	addi	x0,x0,0	  x0:0x00000000
        3405000	       339	8000179c	0246f263	bgeu	x13,x4,800017c0	 x13:0xfffffc6b  x4:0xb2000000
        3415000	       340	00000000	00000013	addi	x0,x0,0	  x0:0x00000000
        3425000	       341	800017bc	00000013	addi	x0,x0,0	  x0:0x00000000
        3435000	       342	800017c0	0640536f	jal	x6,800017c0	  x6=0x800017c0
        3445000	       343	00000000	00000013	addi	x0,x0,0	  x0:0x00000000
        3455000	       344	80006820	00000013	addi	x0,x0,0	  x0:0x00000000
        3465000	       345	80006824	0100e633	or	x12,x1,x16	  x1:0x00000000 x16:0xfffff921 x12=0xfffff921
        3475000	       346	80006828	01d06263	bltu	x0,x29,8000682c	  x0:0x00000000 x29:0x000002e6
        3485000	       347	00000000	00000013	addi	x0,x0,0	  x0:0x00000000
        3495000	       348	80006828	00000013	addi	x0,x0,0	  x0:0x00000000
        3505000	       349	8000682c	fd078793	addi	x15,x15,-48	 x15:0x80009f5c x15=0x80009f2c
        3515000	       350	80006830	b3d7b693	sltiu	x13,x15,-1219	 x15:0x80009f2c x13=0x00000001
        3525000	       351	80006834	0067a223	sw	x6,4(x15)	 x15:0x80009f2c  x6:0x800017c0 PA:0x80009f30
        3535000	       352	80006838	0a992237	lui	x4,0xa992	  x4=0x0a992000
        3545000	       353	8000683c	019ef463	bgeu	x29,x25,80006844	 x29:0x000002e6 x25:0x80009fc4
        3555000	       354	80006840	e0976fb7	lui	x31,0xe0976	 x31=0xe0976000
        3565000	       355	80006844	014ef633	and	x12,x29,x20	 x29:0x000002e6 x20:0x40000000 x12=0x00000000
        3575000	       356	80006848	010f1193	slli	x3,x30,0x10	 x30:0x00000044  x3=0x00440000
        3585000	       357	8000684c	01a28463	beq	x5,x26,80006854	  x5:0x00000000 x26:0x394716ac
        3595000	       358	80006850	41f708b3	sub	x17,x14,x31	 x14:0xfffffc46 x31:0xe0976000 x17=0x1f689c46
        3605000	       359	80006854	41218433	sub	x8,x3,x18	  x3:0x00440000 x18:0x800014b2  x8=0x8043eb4e
        3615000	       360	80006858	01c98133	add	x2,x19,x28	 x19:0x92f21a7a x28:0x25e43bf8  x2=0xb8d65672
        3625000	       361	8000685c	00032033	slt	x0,x6,x0	  x6:0x800017c0  x0:0x00000000
        3635000	       362	80006860	40ba08b3	sub	x17,x20,x11	 x20:0x40000000 x11:0x00000000 x17=0x40000000
        3645000	       363	80006864	0104dab3	srl	x21,x9,x16	  x9:0xf92f21a7 x16:0xfffff921 x21=0x7c9790d3
        3655000	       364	80006868	4039d033	sra	x0,x19,x3	 x19:0x92f21a7a  x3:0x00440000
        3665000	       365	8000686c	01642b33	slt	x22,x8,x22	  x8:0x8043eb4e x22:0x800015f6 x22=0x00000000
        3675000	       366	80006870	40cedf93	srai	x31,x29,0xc	 x29:0x000002e6 x31=0x00000000
        3685000	       367	80006874	01cb56b3	srl	x13,x22,x28	 x22:0x00000000 x28:0x25e43bf8 x13=0x00000000
        3695000	       368	80006878	018b3633	sltu	x12,x22,x24	 x22:0x00000000 x24:0x00000000 x12=0x00000000
        3705000	       369	8000687c	ac20bb13	sltiu	x22,x1,-1342	  x1:0x00000000 x22=0x00000001
        3715000	       370	80006880	93cc0293	addi	x5,x24,-1732	 x24:0x00000000  x5=0xfffff93c
        3725000	       371	80006884	012f84b3	add	x9,x31,x18	 x31:0x00000000 x18:0x800014b2  x9=0x800014b2
        3735000	       372	80006888	db18a113	slti	x2,x17,-591	 x17:0x40000000  x2=0x00000000
        3745000	       373	8000688c	01f6d133	srl	x2,x13,x31	 x13:0x00000000 x31:0x00000000  x2=0x00000000
        3755000	       374	80006890	01bac233	xor	x4,x21,x27	 x21:0x7c9790d3 x27:0x00000000  x4=0x7c9790d3
        3765000	       375	80006894	01ab9893	slli	x17,x23,0x1a	 x23:0x00000001 x17=0x04000000
        3775000	       376	80006898	00000013	addi	x0,x0,0	  x0:0x00000000
        3785000	       377	8000689c	01438fb3	add	x31,x7,x20	  x7:0x00000001 x20:0x40000000 x31=0x40000001
        3795000	       378	800068a0	01769713	slli	x14,x13,0x17	 x13:0x00000000 x14=0x00000000
        3805000	       379	800068a4	004d04b3	add	x9,x26,x4	 x26:0x394716ac  x4:0x7c9790d3  x9=0xb5dea77f
        3815000	       380	800068a8	01fabc33	sltu	x24,x21,x31	 x21:0x7c9790d3 x31:0x40000001 x24=0x00000000
        3825000	       381	800068ac	61538b13	addi	x22,x7,1557	  x7:0x00000001 x22=0x00000616
        3835000	       382	800068b0	043cf263	bgeu	x25,x3,800068f4	 x25:0x80009fc4  x3:0x00440000
        3845000	       383	00000000	00000013	addi	x0,x0,0	  x0:0x00000000
        3855000	       384	800068f0	00000013	addi	x0,x0,0	  x0:0x00000000
        3865000	       385	800068f4	a5efa737	lui	x14,0xa5efa	 x14=0xa5efa000
        3875000	       386	800068f8	010641b3	xor	x3,x12,x16	 x12:0x00000000 x16:0xfffff921  x3=0xfffff921
        3885000	       387	800068fc	04f2d063	bge	x5,x15,8000693c	  x5:0xfffff93c x15:0x80009f2c
        3895000	       388	00000000	00000013	addi	x0,x0,0	  x0:0x00000000
        3905000	       389	80006938	00000013	addi	x0,x0,0	  x0:0x00000000
        3915000	       390	8000693c	00730e63	beq	x6,x7,80006958	  x6:0x800017c0  x7:0x00000001
        3925000	       391	80006940	013425b3	slt	x11,x8,x19	  x8:0x8043eb4e x19:0x92f21a7a x11=0x00000001
        3935000	       392	80006944	4087d6b3	sra	x13,x15,x8	 x15:0x80009f2c  x8:0x8043eb4e x13=0xfffe0002
        3945000	       393	80006948	b5a98b93	addi	x23,x19,-1190	 x19:0x92f21a7a x23=0x92f215d4
        3955000	       394	8000694c	4168d393	srai	x7,x17,0x16	 x17:0x04000000  x7=0x00000010
        3965000	       395	80006950	041e9863	bne	x29,x1,800069a0	 x29:0x000002e6  x1:0x00000000
        3975000	       396	00000000	00000013	addi	x0,x0,0	  x0:0x00000000
        3985000	       397	8000699c	00000013	addi	x0,x0,0	  x0:0x00000000
        3995000	       398	800069a0	00f54633	xor	x12,x10,x15	 x10:0x800014b2 x15:0x80009f2c x12=0x00008b9e
        4005000	       399	800069a4	00e15e63	bge	x2,x14,800069c0	  x2:0x00000000 x14:0xa5efa000
        4015000	       400	00000000	00000013	addi	x0,x0,0	  x0:0x00000000
        4025000	       401	800069bc	00000013	addi	x0,x0,0	  x0:0x00000000
        4035000	       402	800069c0	014c9413	slli	x8,x25,0x14	 x25:0x80009fc4  x8=0xfc400000
        4045000	       403	800069c4	00f3e663	bltu	x7,x15,800069d0	  x7:0x00000010 x15:0x80009f2c
        4055000	       404	00000000	00000013	addi	x0,x0,0	  x0:0x00000000
        4065000	       405	800069cc	00000013	addi	x0,x0,0	  x0:0x00000000
        4075000	       406	800069d0	01ea1f93	slli	x31,x20,0x1e	 x20:0x40000000 x31=0x00000000
        4085000	       407	800069d4	40105d93	srai	x27,x0,0x1	  x0:0x00000000 x27=0x00000000
        4095000	       408	800069d8	01ebfc33	and	x24,x23,x30	 x23:0x92f215d4 x30:0x00000044 x24=0x00000044
        4105000	       409	800069dc	0151b233	sltu	x4,x3,x21	  x3:0xfffff921 x21:0x7c9790d3  x4=0x00000000
        4115000	       410	800069e0	01451633	sll	x12,x10,x20	 x10:0x800014b2 x20:0x40000000 x12=0x800014b2
        4125000	       411	800069e4	a1743b13	sltiu	x22,x8,-1513	  x8:0xfc400000 x22=0x00000001
        4135000	       412	800069e8	006cbc33	sltu	x24,x25,x6	 x25:0x80009fc4  x6:0x800017c0 x24=0x00000000
        4145000	       413	800069ec	774b3193	sltiu	x3,x22,1908	 x22:0x00000001  x3=0x00000001
        4155000	       414	800069f0	00dbdc13	srli	x24,x23,0xd	 x23:0x92f215d4 x24=0x00049790
        4165000	       415	800069f4	0061d833	srl	x16,x3,x6	  x3:0x00000001  x6:0x800017c0 x16=0x00000001
        4175000	       416	800069f8	01dfa233	slt	x4,x31,x29	 x31:0x00000000 x29:0x000002e6  x4=0x00000001
        4185000	       417	800069fc	415a85b3	sub	x11,x21,x21	 x21:0x7c9790d3 x21:0x7c9790d3 x11=0x00000000
        4195000	       418	80006a00	00002117	auipc	x2,0x2	  x2=0x800089fc
        4205000	       419	80006a04	82810113	addi	x2,x2,-2008	  x2:0x800089fc  x2=0x80008224
        4215000	       420	80006a08	fff10183	lb	x3,-1(x2)	  x2:0x80008224  x3=0x00000000 PA:0x80008223
        4225000	       421	80006a0c	e7dccd93	xori	x27,x25,-387	 x25:0x80009fc4 x27=0x7fff61b9
        4235000	       422	80006a10	01611223	sh	x22,4(x2)	  x2:0x80008224 x22:0x00000001 PA:0x80008228
        4245000	       423	80006a14	ff910083	lb	x1,-7(x2)	  x2:0x80008224  x1=0x00000000 PA:0x8000821d
        4255000	       424	80006a18	4907f913	andi	x18,x15,1168	 x15:0x80009f2c x18=0x00000400
        4265000	       425	80006a1c	01ec3933	sltu	x18,x24,x30	 x24:0x00049790 x30:0x00000044 x18=0x00000000
        4275000	       426	80006a20	ff011a83	lh	x21,-16(x2)	  x2:0x80008224 x21=0x00000000 PA:0x80008214
        4285000	       427	80006a24	fff10483	lb	x9,-1(x2)	  x2:0x80008224  x9=0x00000000 PA:0x80008223
        4295000	       428	80006a28	60a5c193	xori	x3,x11,1546	 x11:0x00000000  x3=0x0000060a
        4305000	       429	80006a2c	0088d2b3	srl	x5,x17,x8	 x17:0x04000000  x8:0xfc400000  x5=0x04000000
        4315000	       430	80006a30	00d14383	lbu	x7,13(x2)	  x2:0x80008224  x7=0x00000000 PA:0x80008231
        4325000	       431	80006a34	00b104a3	sb	x11,9(x2)	  x2:0x80008224 x11:0x00000000 PA:0x8000822d
        4335000	       432	80006a38	0105c233	xor	x4,x11,x16	 x11:0x00000000 x16:0x00000001  x4=0x00000001
        4345000	       433	80006a3c	ffe15883	lhu	x17,-2(x2)	  x2:0x80008224 x17=0x00000000 PA:0x80008222
        4355000	       434	80006a40	ff611503	lh	x10,-10(x2)	  x2:0x80008224 x10=0x00000000 PA:0x8000821a
        4365000	       435	80006a44	b31f0f13	addi	x30,x30,-1231	 x30:0x00000044 x30=0xfffffb75
        4375000	       436	80006a48	40a45333	sra	x6,x8,x10	  x8:0xfc400000 x10:0x00000000  x6=0xfc400000
        4385000	       437	80006a4c	01903433	sltu	x8,x0,x25	  x0:0x00000000 x25:0x80009fc4  x8=0x00000001
        4395000	       438	80006a50	00f10d83	lb	x27,15(x2)	  x2:0x80008224 x27=0x00000000 PA:0x80008233
        4405000	       439	80006a54	00a11523	sh	x10,10(x2)	  x2:0x80008224 x10:0x00000000 PA:0x8000822e
        4415000	       440	80006a58	01d5f2b3	and	x5,x11,x29	 x11:0x00000000 x29:0x000002e6  x5=0x00000000
        4425000	       441	80006a5c	00714603	lbu	x12,7(x2)	  x2:0x80008224 x12=0x00000000 PA:0x8000822b
        4435000	       442	80006a60	ffe15003	lhu	x0,-2(x2)	  x2:0x80008224 PA:0x80008222
        4445000	       443	80006a64	015d30b3	sltu	x1,x26,x21	 x26:0x394716ac x21:0x00000000  x1=0x00000000
        4455000	       444	80006a68	01528233	add	x4,x5,x21	  x5:0x00000000 x21:0x00000000  x4=0x00000000
        4465000	       445	80006a6c	40ec5e93	srai	x29,x24,0xe	 x24:0x00049790 x29=0x00000012
        4475000	       446	80006a70	01acc663	blt	x25,x26,80006a7c	 x25:0x80009fc4 x26:0x394716ac
        4485000	       447	00000000	00000013	addi	x0,x0,0	  x0:0x00000000
        4495000	       448	80006a78	00000013	addi	x0,x0,0	  x0:0x00000000
        4505000	       449	80006a7c	a0b12d17	auipc	x26,0xa0b12	 x26=0x20b18a78
        4515000	       450	80006a80	01b1d413	srli	x8,x3,0x1b	  x3:0x0000060a  x8=0x00000000
        4525000	       451	80006a84	010b9663	bne	x23,x16,80006a90	 x23:0x92f215d4 x16:0x00000001
        4535000	       452	00000000	00000013	addi	x0,x0,0	  x0:0x00000000
        4545000	       453	80006a8c	00000013	addi	x0,x0,0	  x0:0x00000000
        4555000	       454	80006a90	b879fd93	andi	x27,x19,-1145	 x19:0x92f21a7a x27=0x92f21a02
        4565000	       455	80006a94	414b5e93	srai	x29,x22,0x14	 x22:0x00000001 x29=0x00000000
        4575000	       456	80006a98	007e8eb3	add	x29,x29,x7	 x29:0x00000000  x7:0x00000000 x29=0x00000000
        4585000	       457	80006a9c	04664063	blt	x12,x6,80006adc	 x12:0x00000000  x6:0xfc400000
        4595000	       458	80006aa0	01d30333	add	x6,x6,x29	  x6:0xfc400000 x29:0x00000000  x6=0xfc400000
        4605000	       459	80006aa4	404edd13	srai	x26,x29,0x4	 x29:0x00000000 x26=0x00000000
        4615000	       460	80006aa8	402853b3	sra	x7,x16,x2	 x16:0x00000001  x2:0x80008224  x7=0x00000000
        4625000	       461	80006aac	00000013	addi	x0,x0,0	  x0:0x00000000
        4635000	       462	80006ab0	17b7b693	sltiu	x13,x15,379	 x15:0x80009f2c x13=0x00000000
        4645000	       463	80006ab4	00da9a63	bne	x21,x13,80006ac8	 x21:0x00000000 x13:0x00000000
        4655000	       464	80006ab8	00765e63	bge	x12,x7,80006ad4	 x12:0x00000000  x7:0x00000000
        4665000	       465	00000000	00000013	addi	x0,x0,0	  x0:0x00000000
        4675000	       466	80006ad0	00000013	addi	x0,x0,0	  x0:0x00000000
        4685000	       467	80006ad4	411e8db3	sub	x27,x29,x17	 x29:0x00000000 x17:0x00000000 x27=0x00000000
        4695000	       468	80006ad8	0054c5b3	xor	x11,x9,x5	  x9:0x00000000  x5:0x00000000 x11=0x00000000
        4705000	       469	80006adc	40ee5913	srai	x18,x28,0xe	 x28:0x25e43bf8 x18=0x00009790
        4715000	       470	80006ae0	005af8b3	and	x17,x21,x5	 x21:0x00000000  x5:0x00000000 x17=0x00000000
        4725000	       471	80006ae4	a628f213	andi	x4,x17,-1438	 x17:0x00000000  x4=0x00000000
        4735000	       472	80006ae8	f7894c37	lui	x24,0xf7894	 x24=0xf7894000
        4745000	       473	80006aec	dcabfa13	andi	x20,x23,-566	 x23:0x92f215d4 x20=0x92f215c0
        4755000	       474	80006af0	368f8b93	addi	x23,x31,872	 x31:0x00000000 x23=0x00000368
        4765000	       475	80006af4	4072d833	sra	x16,x5,x7	  x5:0x00000000  x7:0x00000000 x16=0x00000000
        4775000	       476	80006af8	00000013	addi	x0,x0,0	  x0:0x00000000
        4785000	       477	80006afc	00a611b3	sll	x3,x12,x10	 x12:0x00000000 x10:0x00000000  x3=0x00000000
        4795000	       478	80006b00	7d568293	addi	x5,x13,2005	 x13:0x00000000  x5=0x000007d5
        4805000	       479	80006b04	03389463	bne	x17,x19,80006b2c	 x17:0x00000000 x19:0x92f21a7a
        4815000	       480	00000000	00000013	addi	x0,x0,0	  x0:0x00000000
        4825000	       481	80006b28	00000013	addi	x0,x0,0	  x0:0x00000000
        4835000	       482	80006b2c	0088a733	slt	x14,x17,x8	 x17:0x00000000  x8:0x00000000 x14=0x00000000
        4845000	       483	80006b30	00a66c63	bltu	x12,x10,80006b48	 x12:0x00000000 x10:0x00000000
        4855000	       484	80006b34	f9194713	xori	x14,x18,-111	 x18:0x00009790 x14=0xffff6801
        4865000	       485	80006b38	01551613	slli	x12,x10,0x15	 x10:0x00000000 x12=0x00000000
        4875000	       486	80006b3c	4157dab3	sra	x21,x15,x21	 x15:0x80009f2c x21:0x00000000 x21=0x80009f2c
        4885000	       487	80006b40	0261dc63	bge	x3,x6,80006b78	  x3:0x00000000  x6:0xfc400000
        4895000	       488	00000000	00000013	addi	x0,x0,0	  x0:0x00000000
        4905000	       489	80006b74	00000013	addi	x0,x0,0	  x0:0x00000000
        4915000	       490	80006b78	01d60a63	beq	x12,x29,80006b8c	 x12:0x00000000 x29:0x00000000
        4925000	       491	00000000	00000013	addi	x0,x0,0	  x0:0x00000000
        4935000	       492	80006b88	00000013	addi	x0,x0,0	  x0:0x00000000
        4945000	       493	80006b8c	e6417d13	andi	x26,x2,-412	  x2:0x80008224 x26=0x80008224
        4955000	       494	80006b90	6f3e7d37	lui	x26,0x6f3e7	 x26=0x6f3e7000
        4965000	       495	80006b94	006bd393	srli	x7,x23,0x6	 x23:0x00000368  x7=0x0000000d
        4975000	       496	80006b98	0462f063	bgeu	x5,x6,80006bd8	  x5:0x000007d5  x6:0xfc400000
        4985000	       497	80006b9c	050c0463	beq	x24,x16,80006be4	 x24:0xf7894000 x16:0x00000000
        4995000	       498	80006ba0	3e436017	auipc	x0,0x3e436	
        5005000	       499	80006ba4	01a1fe63	bgeu	x3,x26,80006bc0	  x3:0x00000000 x26:0x6f3e7000
        5015000	       500	80006ba8	ea1281b7	lui	x3,0xea128	  x3=0xea128000
        5025000	       501	80006bac	7b914517	auipc	x10,0x7b914	 x10=0xfb91aba8
        5035000	       502	80006bb0	00fc7e63	bgeu	x24,x15,80006bcc	 x24:0xf7894000 x15:0x80009f2c
        5045000	       503	00000000	00000013	addi	x0,x0,0	  x0:0x00000000
        5055000	       504	80006bc8	00000013	addi	x0,x0,0	  x0:0x00000000
        5065000	       505	80006bcc	00000013	addi	x0,x0,0	  x0:0x00000000
        5075000	       506	80006bd0	01632db3	slt	x27,x6,x22	  x6:0xfc400000 x22:0x00000001 x27=0x00000001
        5085000	       507	80006bd4	2a403a13	sltiu	x20,x0,676	  x0:0x00000000 x20=0x00000001
        5095000	       508	80006bd8	8b532713	slti	x14,x6,-1867	  x6:0xfc400000 x14=0x00000001
        5105000	       509	80006bdc	04a96263	bltu	x18,x10,80006c20	 x18:0x00009790 x10:0xfb91aba8
        5115000	       510	00000000	00000013	addi	x0,x0,0	  x0:0x00000000
        5125000	       511	80006c1c	00000013	addi	x0,x0,0	  x0:0x00000000
        5135000	       512	80006c20	01e66733	or	x14,x12,x30	 x12:0x00000000 x30:0xfffffb75 x14=0xfffffb75
        5145000	       513	80006c24	007ddd13	srli	x26,x27,0x7	 x27:0x00000001 x26=0x00000000
        5155000	       514	80006c28	6d4bb497	auipc	x9,0x6d4bb	  x9=0xed4c1c24
        5165000	       515	80006c2c	0175a3b3	slt	x7,x11,x23	 x11:0x00000000 x23:0x00000368  x7=0x00000001
        5175000	       516	80006c30	00000013	addi	x0,x0,0	  x0:0x00000000
        5185000	       517	80006c34	412a0533	sub	x10,x20,x18	 x20:0x00000001 x18:0x00009790 x10=0xffff6871
        5195000	       518	80006c38	93d18893	addi	x17,x3,-1731	  x3:0xea128000 x17=0xea12793d
        5205000	       519	80006c3c	007d1133	sll	x2,x26,x7	 x26:0x00000000  x7:0x00000001  x2=0x00000000
        5215000	       520	80006c40	00940863	beq	x8,x9,80006c50	  x8:0x00000000  x9:0xed4c1c24
        5225000	       521	80006c44	00ee2eb3	slt	x29,x28,x14	 x28:0x25e43bf8 x14:0xfffffb75 x29=0x00000000
        5235000	       522	80006c48	417e8fb3	sub	x31,x29,x23	 x29:0x00000000 x23:0x00000368 x31=0xfffffc98
        5245000	       523	80006c4c	01bacfb3	xor	x31,x21,x27	 x21:0x80009f2c x27:0x00000001 x31=0x80009f2d
        5255000	       524	80006c50	413c5133	sra	x2,x24,x19	 x24:0xf7894000 x19:0x92f21a7a  x2=0xfffffffd
        5265000	       525	80006c54	41315b13	srai	x22,x2,0x13	  x2:0xfffffffd x22=0xffffffff
        5275000	       526	80006c58	67d54f13	xori	x30,x10,1661	 x10:0xffff6871 x30=0xffff6e0c
        5285000	       527	80006c5c	00925fb3	srl	x31,x4,x9	  x4:0x00000000  x9:0xed4c1c24 x31=0x00000000
        5295000	       528	80006c60	0081cfb3	xor	x31,x3,x8	  x3:0xea128000  x8:0x00000000 x31=0xea128000
        5305000	       529	80006c64	0047a303	lw	x6,4(x15)	 x15:0x80009f2c  x6=0x800017c0 PA:0x80009f30
        5315000	       530	80006c68	01010fb3	add	x31,x2,x16	  x2:0xfffffffd x16:0x00000000 x31=0xfffffffd
        5325000	       531	80006c6c	01f3b133	sltu	x2,x7,x31	  x7:0x00000001 x31:0xfffffffd  x2=0x00000001
        5335000	       532	80006c70	011e6033	or	x0,x28,x17	 x28:0x25e43bf8 x17:0xea12793d
        5345000	       533	80006c74	00000013	addi	x0,x0,0	  x0:0x00000000
        5355000	       534	80006c78	d4713893	sltiu	x17,x2,-697	  x2:0x00000001 x17=0x00000001
        5365000	       535	80006c7c	03078793	addi	x15,x15,48	 x15:0x80009f2c x15=0x80009f5c
        5375000	       536	80006c80	022dad13	slti	x26,x27,34	 x27:0x00000001 x26=0x00000001
        5385000	       537	80006c84	00030113	addi	x2,x6,0	  x6:0x800017c0  x2=0x800017c0
        5395000	       538	80006c88	00010167	jalr	x2,x2,0	  x2:0x800017c0  x2=0x80006c88
        5405000	       539	00000000	00000013	addi	x0,x0,0	  x0:0x00000000
        5415000	       540	800017c0	00000013	addi	x0,x0,0	  x0:0x00000000
        5425000	       541	800017c4	01ac76b3	and	x13,x24,x26	 x24:0xf7894000 x26:0x00000001 x13=0x00000000
        5435000	       542	800017c8	41425713	srai	x14,x4,0x14	  x4:0x00000000 x14=0x00000000
        5445000	       543	800017cc	01155693	srli	x13,x10,0x11	 x10:0xffff6871 x13=0x00007fff
        5455000	       544	800017d0	016e66b3	or	x13,x28,x22	 x28:0x25e43bf8 x22:0xffffffff x13=0xffffffff
        5465000	       545	800017d4	61784713	xori	x14,x16,1559	 x16:0x00000000 x14=0x00000617
        5475000	       546	800017d8	4194d813	srai	x16,x9,0x19	  x9:0xed4c1c24 x16=0xfffffff6
        5485000	       547	800017dc	008af463	bgeu	x21,x8,800017e4	 x21:0x80009f2c  x8:0x00000000
        5495000	       548	00000000	00000013	addi	x0,x0,0	  x0:0x00000000
        5505000	       549	800017e0	00000013	addi	x0,x0,0	  x0:0x00000000
        5515000	       550	800017e4	de9fe36f	jal	x6,800017e4	  x6=0x800017e4
        5525000	       551	00000000	00000013	addi	x0,x0,0	  x0:0x00000000
        5535000	       552	800005c8	00000013	addi	x0,x0,0	  x0:0x00000000
        5545000	       553	800005cc	014f7263	bgeu	x30,x20,800005d0	 x30:0xffff6e0c x20:0x00000001
        5555000	       554	00000000	00000013	addi	x0,x0,0	  x0:0x00000000
        5565000	       555	800005cc	00000013	addi	x0,x0,0	  x0:0x00000000
        5575000	       556	800005d0	ff878793	addi	x15,x15,-8	 x15:0x80009f5c x15=0x80009f54
        5585000	       557	800005d4	40d85d33	sra	x26,x16,x13	 x16:0xfffffff6 x13:0xffffffff x26=0xffffffff
        5595000	       558	800005d8	01b11a13	slli	x20,x2,0x1b	  x2:0x80006c88 x20=0x40000000
        5605000	       559	800005dc	0067a223	sw	x6,4(x15)	 x15:0x80009f54  x6:0x800017e4 PA:0x80009f58
        5615000	       560	800005e0	41c95133	sra	x2,x18,x28	 x18:0x00009790 x28:0x25e43bf8  x2=0x00000000
        5625000	       561	800005e4	00008e17	auipc	x28,0x8	 x28=0x800085e0
        5635000	       562	800005e8	b04e0e13	addi	x28,x28,-1276	 x28:0x800085e0 x28=0x800080e4
        5645000	       563	800005ec	414902b3	sub	x5,x18,x20	 x18:0x00009790 x20:0x40000000  x5=0xc0009790
        5655000	       564	800005f0	0046cb33	xor	x22,x13,x4	 x13:0xffffffff  x4:0x00000000 x22=0xffffffff
        5665000	       565	800005f4	359e2823	sw	x25,848(x28)	 x28:0x800080e4 x25:0x80009fc4 PA:0x80008434
        5675000	       566	800005f8	40025e93	srai	x29,x4,0x0	  x4:0x00000000 x29=0x00000000
        5685000	       567	800005fc	4c3e4183	lbu	x3,1219(x28)	 x28:0x800080e4  x3=0x00000000 PA:0x800085a7
        5695000	       568	80000600	d5dfab93	slti	x23,x31,-675	 x31:0xfffffffd x23=0x00000000
        5705000	       569	80000604	077e0283	lb	x5,119(x28)	 x28:0x800080e4  x5=0x00000000 PA:0x8000815b
        5715000	       570	80000608	693c2093	slti	x1,x24,1683	 x24:0xf7894000  x1=0x00000001
        5725000	       571	8000060c	00bc5333	srl	x6,x24,x11	 x24:0xf7894000 x11:0x00000000  x6=0xf7894000
        5735000	       572	80000610	40fe8db3	sub	x27,x29,x15	 x29:0x00000000 x15:0x80009f54 x27=0x7fff60ac
        5745000	       573	80000614	bb104d37	lui	x26,0xbb104	 x26=0xbb104000
        5755000	       574	80000618	01090c33	add	x24,x18,x16	 x18:0x00009790 x16:0xfffffff6 x24=0x00009786
        5765000	       575	8000061c	00a2a833	slt	x16,x5,x10	  x5:0x00000000 x10:0xffff6871 x16=0x00000000
        5775000	       576	80000620	00ca33b3	sltu	x7,x20,x12	 x20:0x40000000 x12:0x00000000  x7=0x00000000
        5785000	       577	80000624	61be1923	sh	x27,1554(x28)	 x28:0x800080e4 x27:0x7fff60ac PA:0x800086f6
        5795000	       578	80000628	179e08a3	sb	x25,369(x28)	 x28:0x800080e4 x25:0x80009fc4 PA:0x80008255
        5805000	       579	8000062c	475e04a3	sb	x21,1129(x28)	 x28:0x800080e4 x21:0x80009f2c PA:0x8000854d
        5815000	       580	80000630	00249413	slli	x8,x9,0x2	  x9:0xed4c1c24  x8=0xb5307090
        5825000	       581	80000634	01055f93	srli	x31,x10,0x10	 x10:0xffff6871 x31=0x0000ffff
        5835000	       582	80000638	fcce4e83	lbu	x29,-52(x28)	 x28:0x800080e4 x29=0x00000000 PA:0x800080b0
        5845000	       583	8000063c	00310633	add	x12,x2,x3	  x2:0x00000000  x3:0x00000000 x12=0x00000000
        5855000	       584	80000640	00389913	slli	x18,x17,0x3	 x17:0x00000001 x18=0x00000008
        5865000	       585	80000644	01fd45b3	xor	x11,x26,x31	 x26:0xbb104000 x31:0x0000ffff x11=0xbb10bfff
        5875000	       586	80000648	00000013	addi	x0,x0,0	  x0:0x00000000
        5885000	       587	8000064c	59fe05a3	sb	x31,1419(x28)	 x28:0x800080e4 x31:0x0000ffff PA:0x8000866f
        5895000	       588	80000650	0029d733	srl	x14,x19,x2	 x19:0x92f21a7a  x2:0x00000000 x14=0x92f21a7a
        5905000	       589	80000654	00108533	add	x10,x1,x1	  x1:0x00000001  x1:0x00000001 x10=0x00000002
        5915000	       590	80000658	d7308a13	addi	x20,x1,-653	  x1:0x00000001 x20=0xfffffd74
        5925000	       591	8000065c	01f61833	sll	x16,x12,x31	 x12:0x00000000 x31:0x0000ffff x16=0x00000000
        5935000	       592	80000660	502e1083	lh	x1,1282(x28)	 x28:0x800080e4  x1=0x00000000 PA:0x800085e6
        5945000	       593	80000664	48c98f93	addi	x31,x19,1164	 x19:0x92f21a7a x31=0x92f21f06
        5955000	       594	80000668	9ae53f13	sltiu	x30,x10,-1618	 x10:0x00000002 x30=0x00000001
        5965000	       595	8000066c	1b1e0023	sb	x17,416(x28)	 x28:0x800080e4 x17:0x00000001 PA:0x80008284
        5975000	       596	80000670	2fce5083	lhu	x1,764(x28)	 x28:0x800080e4  x1=0x00000000 PA:0x800083e0
        5985000	       597	80000674	608e05a3	sb	x8,1547(x28)	 x28:0x800080e4  x8:0xb5307090 PA:0x800086ef
        5995000	       598	80000678	0001dab3	srl	x21,x3,x0	  x3:0x00000000  x0:0x00000000 x21=0x00000000
        6005000	       599	8000067c	51ce0523	sb	x28,1290(x28)	 x28:0x800080e4 x28:0x800080e4 PA:0x800085ee
        6015000	       600	80000680	455e0603	lb	x12,1109(x28)	 x28:0x800080e4 x12=0x00000000 PA:0x80008539
        6025000	       601	80000684	728e2823	sw	x8,1840(x28)	 x28:0x800080e4  x8:0xb5307090 PA:0x80008814
        6035000	       602	80000688	02697193	andi	x3,x18,38	 x18:0x00000008  x3=0x00000000
        6045000	       603	8000068c	41fe4c03	lbu	x24,1055(x28)	 x28:0x800080e4 x24=0x00000000 PA:0x80008503
        6055000	       604	80000690	00331613	slli	x12,x6,0x3	  x6:0xf7894000 x12=0xbc4a0000
        6065000	       605	80000694	241e0183	lb	x3,577(x28)	 x28:0x800080e4  x3=0x00000000 PA:0x80008325
        6075000	       606	80000698	006272b3	and	x5,x4,x6	  x4:0x00000000  x6:0xf7894000  x5=0x00000000
        6085000	       607	8000069c	41add8b3	sra	x17,x27,x26	 x27:0x7fff60ac x26:0xbb104000 x17=0x7fff60ac
        6095000	       608	800006a0	4e9e08a3	sb	x9,1265(x28)	 x28:0x800080e4  x9:0xed4c1c24 PA:0x800085d5
        6105000	       609	800006a4	104e05a3	sb	x4,267(x28)	 x28:0x800080e4  x4:0x00000000 PA:0x800081ef
        6115000	       610	800006a8	4117d613	srai	x12,x15,0x11	 x15:0x80009f54 x12=0xffffc000
        6125000	       611	800006ac	1aae4883	lbu	x17,426(x28)	 x28:0x800080e4 x17=0x00000000 PA:0x8000828e
        6135000	       612	800006b0	00008117	auipc	x2,0x8	  x2=0x800086ac
        6145000	       613	800006b4	ff410113	addi	x2,x2,-12	  x2:0x800086ac  x2=0x800086a0
        6155000	       614	800006b8	fef11b23	sh	x15,-10(x2)	  x2:0x800086a0 x15:0x80009f54 PA:0x80008696
        6165000	       615	800006bc	ff210b03	lb	x22,-14(x2)	  x2:0x800086a0 x22=0x00000000 PA:0x80008692
        6175000	       616	800006c0	01531393	slli	x7,x6,0x15	  x6:0xf7894000  x7=0x00000000
        6185000	       617	800006c4	01cf8833	add	x16,x31,x28	 x31:0x92f21f06 x28:0x800080e4 x16=0x12f29fea
        6195000	       618	800006c8	005a2b33	slt	x22,x20,x5	 x20:0xfffffd74  x5:0x00000000 x22=0x00000001
        6205000	       619	800006cc	e88d8b13	addi	x22,x27,-376	 x27:0x7fff60ac x22=0x7fff5f34
        6215000	       620	800006d0	00914683	lbu	x13,9(x2)	  x2:0x800086a0 x13=0x00000000 PA:0x800086a9
        6225000	       621	800006d4	417f8933	sub	x18,x31,x23	 x31:0x92f21f06 x23:0x00000000 x18=0x92f21f06
        6235000	       622	800006d8	012838b3	sltu	x17,x16,x18	 x16:0x12f29fea x18:0x92f21f06 x17=0x00000001
        6245000	       623	800006dc	00510a03	lb	x20,5(x2)	  x2:0x800086a0 x20=0x00000000 PA:0x800086a5
        6255000	       624	800006e0	012f1db3	sll	x27,x30,x18	 x30:0x00000001 x18:0x92f21f06 x27=0x00000040
        6265000	       625	800006e4	00c107a3	sb	x12,15(x2)	  x2:0x800086a0 x12:0xffffc000 PA:0x800086af
        6275000	       626	800006e8	008c22b3	slt	x5,x24,x8	 x24:0x00000000  x8:0xb5307090  x5=0x00000000
        6285000	       627	800006ec	006ff1b3	and	x3,x31,x6	 x31:0x92f21f06  x6:0xf7894000  x3=0x92800000
        6295000	       628	800006f0	00f14d03	lbu	x26,15(x2)	  x2:0x800086a0 x26=0x00000000 PA:0x800086af
        6305000	       629	800006f4	009102a3	sb	x9,5(x2)	  x2:0x800086a0  x9:0xed4c1c24 PA:0x800086a5
        6315000	       630	800006f8	00311423	sh	x3,8(x2)	  x2:0x800086a0  x3:0x92800000 PA:0x800086a8
        6325000	       631	800006fc	00000013	addi	x0,x0,0	  x0:0x00000000
        6335000	       632	80000700	ff811b23	sh	x24,-10(x2)	  x2:0x800086a0 x24:0x00000000 PA:0x80008696
        6345000	       633	80000704	00a14e83	lbu	x29,10(x2)	  x2:0x800086a0 x29=0x00000000 PA:0x800086aa
        6355000	       634	80000708	ff310d23	sb	x19,-6(x2)	  x2:0x800086a0 x19:0x92f21a7a PA:0x8000869a
        6365000	       635	8000070c	ff714583	lbu	x11,-9(x2)	  x2:0x800086a0 x11=0x00000000 PA:0x80008697
        6375000	       636	80000710	01a21d93	slli	x27,x4,0x1a	  x4:0x00000000 x27=0x00000000
        6385000	       637	80000714	ffb14e83	lbu	x29,-5(x2)	  x2:0x800086a0 x29=0x00000000 PA:0x8000869b
        6395000	       638	80000718	00db18b3	sll	x17,x22,x13	 x22:0x7fff5f34 x13:0x00000000 x17=0x7fff5f34
        6405000	       639	8000071c	0d54f537	lui	x10,0xd54f	 x10=0x0d54f000
        6415000	       640	80000720	01e41093	slli	x1,x8,0x1e	  x8:0xb5307090  x1=0x00000000
        6425000	       641	80000724	ff012703	lw	x14,-16(x2)	  x2:0x800086a0 x14=0x00000000 PA:0x80008690
        6435000	       642	80000728	00aa5d33	srl	x26,x20,x10	 x20:0x00000000 x10:0x0d54f000 x26=0x00000000
        6445000	       643	8000072c	408d5a13	srai	x20,x26,0x8	 x26:0x00000000 x20=0x00000000
        6455000	       644	80000730	016feab3	or	x21,x31,x22	 x31:0x92f21f06 x22:0x7fff5f34 x21=0xffff5f36
        6465000	       645	80000734	65662913	slti	x18,x12,1622	 x12:0xffffc000 x18=0x00000001
        6475000	       646	80000738	fff14203	lbu	x4,-1(x2)	  x2:0x800086a0  x4=0x00000000 PA:0x8000869f
        6485000	       647	8000073c	010900b3	add	x1,x18,x16	 x18:0x00000001 x16:0x12f29fea  x1=0x12f29feb
        6495000	       648	80000740	0128bd33	sltu	x26,x17,x18	 x17:0x7fff5f34 x18:0x00000001 x26=0x00000000
        6505000	       649	80000744	db4eb313	sltiu	x6,x29,-588	 x29:0x00000000  x6=0x00000001
        6515000	       650	80000748	00000013	addi	x0,x0,0	  x0:0x00000000
        6525000	       651	8000074c	00310c03	lb	x24,3(x2)	  x2:0x800086a0 x24=0x00000000 PA:0x800086a3
        6535000	       652	80000750	fff12823	sw	x31,-16(x2)	  x2:0x800086a0 x31:0x92f21f06 PA:0x80008690
        6545000	       653	80000754	ff514403	lbu	x8,-11(x2)	  x2:0x800086a0  x8=0x00000000 PA:0x80008695
        6555000	       654	80000758	016102a3	sb	x22,5(x2)	  x2:0x800086a0 x22:0x7fff5f34 PA:0x800086a5
        6565000	       655	8000075c	44d37493	andi	x9,x6,1101	  x6:0x00000001  x9=0x00000001
        6575000	       656	80000760	ff910d03	lb	x26,-7(x2)	  x2:0x800086a0 x26=0x00000000 PA:0x80008699
        6585000	       657	80000764	00d3c733	xor	x14,x7,x13	  x7:0x00000000 x13:0x00000000 x14=0x00000000
        6595000	       658	80000768	ffd14203	lbu	x4,-3(x2)	  x2:0x800086a0  x4=0x00000000 PA:0x8000869d
        6605000	       659	8000076c	ffe15b03	lhu	x22,-2(x2)	  x2:0x800086a0 x22=0x00000000 PA:0x8000869e
        6615000	       660	80000770	00716b33	or	x22,x2,x7	  x2:0x800086a0  x7:0x00000000 x22=0x800086a0
        6625000	       661	80000774	76cd82b7	lui	x5,0x76cd8	  x5=0x76cd8000
        6635000	       662	80000778	ff015383	lhu	x7,-16(x2)	  x2:0x800086a0  x7=0x00001f06 PA:0x80008690
        6645000	       663	8000077c	ffc12a23	sw	x28,-12(x2)	  x2:0x800086a0 x28:0x800080e4 PA:0x80008694
        6655000	       664	80000780	006d5293	srli	x5,x26,0x6	 x26:0x00000000  x5=0x00000000
        6665000	       665	80000784	ff614803	lbu	x16,-10(x2)	  x2:0x800086a0 x16=0x00000000 PA:0x80008696
        6675000	       666	80000788	fc64f493	andi	x9,x9,-58	  x9:0x00000001  x9=0x00000000
        6685000	       667	8000078c	00012803	lw	x16,0(x2)	  x2:0x800086a0 x16=0x00000000 PA:0x800086a0
        6695000	       668	80000790	00c10683	lb	x13,12(x2)	  x2:0x800086a0 x13=0x00000000 PA:0x800086ac
        6705000	       669	80000794	00e14283	lbu	x5,14(x2)	  x2:0x800086a0  x5=0x00000000 PA:0x800086ae
        6715000	       670	80000798	00008817	auipc	x16,0x8	 x16=0x80008794
        6725000	       671	8000079c	a4e80813	addi	x16,x16,-1458	 x16:0x80008794 x16=0x800081e2
        6735000	       672	800007a0	08085d83	lhu	x27,128(x16)	 x16:0x800081e2 x27=0x00000000 PA:0x80008262
        6745000	       673	800007a4	fc480f03	lb	x30,-60(x16)	 x16:0x800081e2 x30=0x00000000 PA:0x800081a6
        6755000	       674	800007a8	04d80683	lb	x13,77(x16)	 x16:0x800081e2 x13=0x00000000 PA:0x8000822f
        6765000	       675	800007ac	0e680823	sb	x6,240(x16)	 x16:0x800081e2  x6:0x00000001 PA:0x800082d2
        6775000	       676	800007b0	01e1cd33	xor	x26,x3,x30	  x3:0x92800000 x30:0x00000000 x26=0x92800000
        6785000	       677	800007b4	012b1693	slli	x13,x22,0x12	 x22:0x800086a0 x13=0x1a800000
        6795000	       678	800007b8	017b6233	or	x4,x22,x23	 x22:0x800086a0 x23:0x00000000  x4=0x800086a0
        6805000	       679	800007bc	00117133	and	x2,x2,x1	  x2:0x800086a0  x1:0x12f29feb  x2=0x000086a0
        6815000	       680	800007c0	8e3c7e13	andi	x28,x24,-1821	 x24:0x00000000 x28=0x00000000
        6825000	       681	800007c4	00000013	addi	x0,x0,0	  x0:0x00000000
        6835000	       682	800007c8	f7c80503	lb	x10,-132(x16)	 x16:0x800081e2 x10=0x00000000 PA:0x8000815e
        6845000	       683	800007cc	40cf8433	sub	x8,x31,x12	 x31:0x92f21f06 x12:0xffffc000  x8=0x92f25f06
        6855000	       684	800007d0	00000013	addi	x0,x0,0	  x0:0x00000000
        6865000	       685	800007d4	010e5713	srli	x14,x28,0x10	 x28:0x00000000 x14=0x00000000
        6875000	       686	800007d8	efa67593	andi	x11,x12,-262	 x12:0xffffc000 x11=0xffffc000
        6885000	       687	800007dc	fa2804a3	sb	x2,-87(x16)	 x16:0x800081e2  x2:0x000086a0 PA:0x8000818b
        6895000	       688	800007e0	0b081a23	sh	x16,180(x16)	 x16:0x800081e2 x16:0x800081e2 PA:0x80008296
        6905000	       689	800007e4	0041a933	slt	x18,x3,x4	  x3:0x92800000  x4:0x800086a0 x18=0x00000000
        6915000	       690	800007e8	00000013	addi	x0,x0,0	  x0:0x00000000
        6925000	       691	800007ec	0077d593	srli	x11,x15,0x7	 x15:0x80009f54 x11=0x0100013e
        6935000	       692	800007f0	0e181123	sh	x1,226(x16)	 x16:0x800081e2  x1:0x12f29feb PA:0x800082c4
        6945000	       693	800007f4	4163dfb3	sra	x31,x7,x22	  x7:0x00001f06 x22:0x800086a0 x31=0x00001f06
        6955000	       694	800007f8	f9081c23	sh	x16,-104(x16)	 x16:0x800081e2 x16:0x800081e2 PA:0x8000817a
        6965000	       695	800007fc	64f43413	sltiu	x8,x8,1615	  x8:0x92f25f06  x8=0x00000000
        6975000	       696	80000800	0a3abb93	sltiu	x23,x21,163	 x21:0xffff5f36 x23=0x00000000
        6985000	       697	80000804	0160d0b3	srl	x1,x1,x22	  x1:0x12f29feb x22:0x800086a0  x1=0x12f29feb
        6995000	       698	80000808	f9e81023	sh	x30,-128(x16)	 x16:0x800081e2 x30:0x00000000 PA:0x80008162
        7005000	       699	8000080c	9b4ef517	auipc	x10,0x9b4ef	 x10=0x1b4ef808
        7015000	       700	80000810	01e0fd93	andi	x27,x1,30	  x1:0x12f29feb x27=0x0000000a
        7025000	       701	80000814	c7974193	xori	x3,x14,-903	 x14:0x00000000  x3=0xfffffc79
        7035000	       702	80000818	0340e263	bltu	x1,x20,8000083c	  x1:0x12f29feb x20:0x00000000
        7045000	       703	8000081c	010bee33	or	x28,x23,x16	 x23:0x00000000 x16:0x800081e2 x28=0x800081e2
        7055000	       704	80000820	01475eb3	srl	x29,x14,x20	 x14:0x00000000 x20:0x00000000 x29=0x00000000
        7065000	       705	80000824	03c17263	bgeu	x2,x28,80000848	  x2:0x000086a0 x28:0x800081e2
        7075000	       706	80000828	00d69e33	sll	x28,x13,x13	 x13:0x1a800000 x13:0x1a800000 x28=0x1a800000
        7085000	       707	8000082c	00f99593	slli	x11,x19,0xf	 x19:0x92f21a7a x11=0x0d3d0000
        7095000	       708	80000830	7d33ad13	slti	x26,x7,2003	  x7:0x00001f06 x26=0x00000000
        7105000	       709	80000834	00e675b3	and	x11,x12,x14	 x12:0xffffc000 x14:0x00000000 x11=0x00000000
        7115000	       710	80000838	1198c863	blt	x17,x25,80000948	 x17:0x7fff5f34 x25:0x80009fc4
        7125000	       711	8000083c	01b62433	slt	x8,x12,x27	 x12:0xffffc000 x27:0x0000000a  x8=0x00000001
        7135000	       712	80000840	0f4e6913	ori	x18,x28,244	 x28:0x1a800000 x18=0x1a8000f4
        7145000	       713	80000844	ae798093	addi	x1,x19,-1305	 x19:0x92f21a7a  x1=0x92f21561
        7155000	       714	80000848	41bf5033	sra	x0,x30,x27	 x30:0x00000000 x27:0x0000000a
        7165000	       715	8000084c	00d3ca63	blt	x7,x13,80000860	  x7:0x00001f06 x13:0x1a800000
        7175000	       716	00000000	00000013	addi	x0,x0,0	  x0:0x00000000
        7185000	       717	8000085c	00000013	addi	x0,x0,0	  x0:0x00000000
        7195000	       718	80000860	00de8333	add	x6,x29,x13	 x29:0x00000000 x13:0x1a800000  x6=0x1a800000
        7205000	       719	80000864	000eb4b3	sltu	x9,x29,x0	 x29:0x00000000  x0:0x00000000  x9=0x00000000
        7215000	       720	80000868	101dc263	blt	x27,x1,8000096c	 x27:0x0000000a  x1:0x92f21561
        7225000	       721	8000086c	0dd80a63	beq	x16,x29,80000940	 x16:0x800081e2 x29:0x00000000
        7235000	       722	80000870	00008197	auipc	x3,0x8	  x3=0x8000886c
        7245000	       723	80000874	1c018193	addi	x3,x3,448	  x3:0x8000886c  x3=0x80008a2c
        7255000	       724	80000878	2dd8ad93	slti	x27,x17,733	 x17:0x7fff5f34 x27=0x00000000
        7265000	       725	8000087c	05019803	lh	x16,80(x3)	  x3:0x80008a2c x16=0x00000000 PA:0x80008a7c
        7275000	       726	80000880	f9a1c003	lbu	x0,-102(x3)	  x3:0x80008a2c PA:0x800089c6
        7285000	       727	80000884	95122a93	slti	x21,x4,-1711	  x4:0x800086a0 x21=0x00000001
        7295000	       728	80000888	005cd093	srli	x1,x25,0x5	 x25:0x80009fc4  x1=0x040004fe
        7305000	       729	8000088c	00815713	srli	x14,x2,0x8	  x2:0x000086a0 x14=0x00000086
        7315000	       730	80000890	01845393	srli	x7,x8,0x18	  x8:0x00000001  x7=0x00000000
        7325000	       731	80000894	00000013	addi	x0,x0,0	  x0:0x00000000
        7335000	       732	80000898	f6c18523	sb	x12,-150(x3)	  x3:0x80008a2c x12:0xffffc000 PA:0x80008996
        7345000	       733	8000089c	f7e1c383	lbu	x7,-130(x3)	  x3:0x80008a2c  x7=0x00000000 PA:0x800089aa
        7355000	       734	800008a0	4024d613	srai	x12,x9,0x2	  x9:0x00000000 x12=0x00000000
        7365000	       735	800008a4	2a829017	auipc	x0,0x2a829	
        7375000	       736	800008a8	8d3cba93	sltiu	x21,x25,-1837	 x25:0x80009fc4 x21=0x00000001
        7385000	       737	800008ac	fe31c003	lbu	x0,-29(x3)	  x3:0x80008a2c PA:0x80008a0f
        7395000	       738	800008b0	01918d33	add	x26,x3,x25	  x3:0x80008a2c x25:0x80009fc4 x26=0x000129f0
        7405000	       739	800008b4	01b22ab3	slt	x21,x4,x27	  x4:0x800086a0 x27:0x00000000 x21=0x00000001
        7415000	       740	800008b8	0171c103	lbu	x2,23(x3)	  x3:0x80008a2c  x2=0x00000000 PA:0x80008a43
        7425000	       741	800008bc	0961d903	lhu	x18,150(x3)	  x3:0x80008a2c x18=0x00000000 PA:0x80008ac2
        7435000	       742	800008c0	fcc19023	sh	x12,-64(x3)	  x3:0x80008a2c x12:0x00000000 PA:0x800089ec
        7445000	       743	800008c4	f3019f23	sh	x16,-194(x3)	  x3:0x80008a2c x16:0x00000000 PA:0x8000896a
        7455000	       744	800008c8	fdf18ba3	sb	x31,-41(x3)	  x3:0x80008a2c x31:0x00001f06 PA:0x80008a03
        7465000	       745	800008cc	1807e593	ori	x11,x15,384	 x15:0x80009f54 x11=0x80009fd4
        7475000	       746	800008d0	f371cf83	lbu	x31,-201(x3)	  x3:0x80008a2c x31=0x00000000 PA:0x80008963
        7485000	       747	800008d4	011dcf33	xor	x30,x27,x17	 x27:0x00000000 x17:0x7fff5f34 x30=0x7fff5f34
        7495000	       748	800008d8	fd518583	lb	x11,-43(x3)	  x3:0x80008a2c x11=0x00000000 PA:0x80008a01
        7505000	       749	800008dc	eaeb2913	slti	x18,x22,-338	 x22:0x800086a0 x18=0x00000001
        7515000	       750	800008e0	ff5183a3	sb	x21,-25(x3)	  x3:0x80008a2c x21:0x00000001 PA:0x80008a13
        7525000	       751	800008e4	0e11ce03	lbu	x28,225(x3)	  x3:0x80008a2c x28=0x00000000 PA:0x80008b0d
        7535000	       752	800008e8	09419283	lh	x5,148(x3)	  x3:0x80008a2c  x5=0x00000000 PA:0x80008ac0
        7545000	       753	800008ec	f9718583	lb	x11,-105(x3)	  x3:0x80008a2c x11=0x00000000 PA:0x800089c3
        7555000	       754	800008f0	00988b33	add	x22,x17,x9	 x17:0x7fff5f34  x9:0x00000000 x22=0x7fff5f34
        7565000	       755	800008f4	0111ce83	lbu	x29,17(x3)	  x3:0x80008a2c x29=0x00000000 PA:0x80008a3d
        7575000	       756	800008f8	f611c583	lbu	x11,-159(x3)	  x3:0x80008a2c x11=0x00000000 PA:0x8000898d
        7585000	       757	800008fc	0cf19e23	sh	x15,220(x3)	  x3:0x80008a2c x15:0x80009f54 PA:0x80008b08
        7595000	       758	80000900	0a91cd03	lbu	x26,169(x3)	  x3:0x80008a2c x26=0x00000000 PA:0x80008ad5
        7605000	       759	80000904	fa918523	sb	x9,-86(x3)	  x3:0x80008a2c  x9:0x00000000 PA:0x800089d6
        7615000	       760	80000908	08f18d03	lb	x26,143(x3)	  x3:0x80008a2c x26=0x00000000 PA:0x80008abb
        7625000	       761	8000090c	00537c33	and	x24,x6,x5	  x6:0x1a800000  x5:0x00000000 x24=0x00000000
        7635000	       762	80000910	002e4db3	xor	x27,x28,x2	 x28:0x00000000  x2:0x00000000 x27=0x00000000
        7645000	       763	80000914	7305ea93	ori	x21,x11,1840	 x11:0x00000000 x21=0x00000730
        7655000	       764	80000918	05d1c583	lbu	x11,93(x3)	  x3:0x80008a2c x11=0x00000000 PA:0x80008a89
        7665000	       765	8000091c	00000013	addi	x0,x0,0	  x0:0x00000000
        7675000	       766	80000920	f721cc03	lbu	x24,-142(x3)	  x3:0x80008a2c x24=0x00000000 PA:0x8000899e
        7685000	       767	80000924	08a18723	sb	x10,142(x3)	  x3:0x80008a2c x10:0x1b4ef808 PA:0x80008aba
        7695000	       768	80000928	05219d03	lh	x26,82(x3)	  x3:0x80008a2c x26=0x00000000 PA:0x80008a7e
        7705000	       769	8000092c	06118623	sb	x1,108(x3)	  x3:0x80008a2c  x1:0x040004fe PA:0x80008a98
        7715000	       770	80000930	0f218a83	lb	x21,242(x3)	  x3:0x80008a2c x21=0x00000000 PA:0x80008b1e
        7725000	       771	80000934	9b1f8293	addi	x5,x31,-1615	 x31:0x00000000  x5=0xfffff9b1
        7735000	       772	80000938	0701a483	lw	x9,112(x3)	  x3:0x80008a2c  x9=0x00000000 PA:0x80008a9c
        7745000	       773	8000093c	29eec213	xori	x4,x29,670	 x29:0x00000000  x4=0x0000029e
        7755000	       774	80000940	403bd413	srai	x8,x23,0x3	 x23:0x00000000  x8=0x00000000
        7765000	       775	80000944	004ea333	slt	x6,x29,x4	 x29:0x00000000  x4:0x0000029e  x6=0x00000001
        7775000	       776	80000948	04b78863	beq	x15,x11,80000998	 x15:0x80009f54 x11:0x00000000
        7785000	       777	8000094c	11556293	ori	x5,x10,277	 x10:0x1b4ef808  x5=0x1b4ef91d
        7795000	       778	80000950	400e0fb3	sub	x31,x28,x0	 x28:0x00000000  x0:0x00000000 x31=0x00000000
        7805000	       779	80000954	007a5233	srl	x4,x20,x7	 x20:0x00000000  x7:0x00000000  x4=0x00000000
        7815000	       780	80000958	81a74593	xori	x11,x14,-2022	 x14:0x00000086 x11=0xfffff89c
        7825000	       781	8000095c	b6dfc093	xori	x1,x31,-1171	 x31:0x00000000  x1=0xfffffb6d
        7835000	       782	80000960	ba733893	sltiu	x17,x6,-1113	  x6:0x00000001 x17=0x00000001
        7845000	       783	80000964	41845f93	srai	x31,x8,0x18	  x8:0x00000000 x31=0x00000000
        7855000	       784	80000968	40158233	sub	x4,x11,x1	 x11:0xfffff89c  x1:0xfffffb6d  x4=0xfffffd2f
        7865000	       785	8000096c	6a7a4db7	lui	x27,0x6a7a4	 x27=0x6a7a4000
        7875000	       786	80000970	00f838b3	sltu	x17,x16,x15	 x16:0x00000000 x15:0x80009f54 x17=0x00000001
        7885000	       787	80000974	027bd063	bge	x23,x7,80000994	 x23:0x00000000  x7:0x00000000
        7895000	       788	00000000	00000013	addi	x0,x0,0	  x0:0x00000000
        7905000	       789	80000990	00000013	addi	x0,x0,0	  x0:0x00000000
        7915000	       790	80000994	01efd593	srli	x11,x31,0x1e	 x31:0x00000000 x11=0x00000000
        7925000	       791	80000998	01041863	bne	x8,x16,800009a8	  x8:0x00000000 x16:0x00000000
        7935000	       792	8000099c	3d6bf193	andi	x3,x23,982	 x23:0x00000000  x3=0x00000000
        7945000	       793	800009a0	0326de63	bge	x13,x18,800009dc	 x13:0x1a800000 x18:0x00000001
        7955000	       794	00000000	00000013	addi	x0,x0,0	  x0:0x00000000
        7965000	       795	800009d8	00000013	addi	x0,x0,0	  x0:0x00000000
        7975000	       796	800009dc	11aa0013	addi	x0,x20,282	 x20:0x00000000
        7985000	       797	800009e0	0288ce63	blt	x17,x8,80000a1c	 x17:0x00000001  x8:0x00000000
        7995000	       798	800009e4	552b4d17	auipc	x26,0x552b4	 x26=0xd52b49e0
        8005000	       799	800009e8	05415263	bge	x2,x20,80000a2c	  x2:0x00000000 x20:0x00000000
        8015000	       800	00000000	00000013	addi	x0,x0,0	  x0:0x00000000
        8025000	       801	80000a28	00000013	addi	x0,x0,0	  x0:0x00000000
        8035000	       802	80000a2c	00000013	addi	x0,x0,0	  x0:0x00000000
        8045000	       803	80000a30	03a31663	bne	x6,x26,80000a5c	  x6:0x00000001 x26:0xd52b49e0
        8055000	       804	00000000	00000013	addi	x0,x0,0	  x0:0x00000000
        8065000	       805	80000a58	00000013	addi	x0,x0,0	  x0:0x00000000
        8075000	       806	80000a5c	03346063	bltu	x8,x19,80000a7c	  x8:0x00000000 x19:0x92f21a7a
        8085000	       807	00000000	00000013	addi	x0,x0,0	  x0:0x00000000
        8095000	       808	80000a78	00000013	addi	x0,x0,0	  x0:0x00000000
        8105000	       809	80000a7c	5c73b413	sltiu	x8,x7,1479	  x7:0x00000000  x8=0x00000001
        8115000	       810	80000a80	01f402b3	add	x5,x8,x31	  x8:0x00000001 x31:0x00000000  x5=0x00000001
        8125000	       811	80000a84	8c6f7413	andi	x8,x30,-1850	 x30:0x7fff5f34  x8=0x7fff5804
        8135000	       812	80000a88	0183f633	and	x12,x7,x24	  x7:0x00000000 x24:0x00000000 x12=0x00000000
        8145000	       813	80000a8c	03664063	blt	x12,x22,80000aac	 x12:0x00000000 x22:0x7fff5f34
        8155000	       814	00000000	00000013	addi	x0,x0,0	  x0:0x00000000
        8165000	       815	80000aa8	00000013	addi	x0,x0,0	  x0:0x00000000
        8175000	       816	80000aac	67a66313	ori	x6,x12,1658	 x12:0x00000000  x6=0x0000067a
        8185000	       817	80000ab0	aa77f713	andi	x14,x15,-1369	 x15:0x80009f54 x14=0x80009a04
        8195000	       818	80000ab4	415f80b3	sub	x1,x31,x21	 x31:0x00000000 x21:0x00000000  x1=0x00000000
        8205000	       819	80000ab8	408cd2b3	sra	x5,x25,x8	 x25:0x80009fc4  x8:0x7fff5804  x5=0xf80009fc
        8215000	       820	80000abc	03c6d063	bge	x13,x28,80000adc	 x13:0x1a800000 x28:0x00000000
        8225000	       821	00000000	00000013	addi	x0,x0,0	  x0:0x00000000
        8235000	       822	80000ad8	00000013	addi	x0,x0,0	  x0:0x00000000
        8245000	       823	80000adc	0a4ed663	bge	x29,x4,80000b88	 x29:0x00000000  x4:0xfffffd2f
        8255000	       824	00000000	00000013	addi	x0,x0,0	  x0:0x00000000
        8265000	       825	80000b84	00000013	addi	x0,x0,0	  x0:0x00000000
        8275000	       826	80000b88	10368393	addi	x7,x13,259	 x13:0x1a800000  x7=0x1a800103
        8285000	       827	80000b8c	01b8d333	srl	x6,x17,x27	 x17:0x00000001 x27:0x6a7a4000  x6=0x00000001
        8295000	       828	80000b90	8fba6893	ori	x17,x20,-1797	 x20:0x00000000 x17=0xfffff8fb
        8305000	       829	80000b94	40f0d233	sra	x4,x1,x15	  x1:0x00000000 x15:0x80009f54  x4=0x00000000
        8315000	       830	80000b98	02c50063	beq	x10,x12,80000bb8	 x10:0x1b4ef808 x12:0x00000000
        8325000	       831	80000b9c	03a5ce63	blt	x11,x26,80000bd8	 x11:0x00000000 x26:0xd52b49e0
        8335000	       832	80000ba0	00deb8b3	sltu	x17,x29,x13	 x29:0x00000000 x13:0x1a800000 x17=0x00000001
        8345000	       833	80000ba4	00797bb3	and	x23,x18,x7	 x18:0x00000001  x7:0x1a800103 x23=0x00000001
        8355000	       834	80000ba8	40568733	sub	x14,x13,x5	 x13:0x1a800000  x5:0xf80009fc x14=0x227ff604
        8365000	       835	80000bac	03f37463	bgeu	x6,x31,80000bd4	  x6:0x00000001 x31:0x00000000
        8375000	       836	00000000	00000013	addi	x0,x0,0	  x0:0x00000000
        8385000	       837	80000bd0	00000013	addi	x0,x0,0	  x0:0x00000000
        8395000	       838	80000bd4	4ff06613	ori	x12,x0,1279	  x0:0x00000000 x12=0x000004ff
        8405000	       839	80000bd8	41a55493	srai	x9,x10,0x1a	 x10:0x1b4ef808  x9=0x00000006
        8415000	       840	80000bdc	006108b3	add	x17,x2,x6	  x2:0x00000000  x6:0x00000001 x17=0x00000001
        8425000	       841	80000be0	014d8e63	beq	x27,x20,80000bfc	 x27:0x6a7a4000 x20:0x00000000
        8435000	       842	80000be4	0089fd33	and	x26,x19,x8	 x19:0x92f21a7a  x8:0x7fff5804 x26=0x12f21800
        8445000	       843	80000be8	0091ec63	bltu	x3,x9,80000c00	  x3:0x00000000  x9:0x00000006
        8455000	       844	00000000	00000013	addi	x0,x0,0	  x0:0x00000000
        8465000	       845	80000bfc	00000013	addi	x0,x0,0	  x0:0x00000000
        8475000	       846	80000c00	009c1463	bne	x24,x9,80000c08	 x24:0x00000000  x9:0x00000006
        8485000	       847	00000000	00000013	addi	x0,x0,0	  x0:0x00000000
        8495000	       848	80000c04	00000013	addi	x0,x0,0	  x0:0x00000000
        8505000	       849	80000c08	00b55613	srli	x12,x10,0xb	 x10:0x1b4ef808 x12=0x000369df
        8515000	       850	80000c0c	01e0d333	srl	x6,x1,x30	  x1:0x00000000 x30:0x7fff5f34  x6=0x00000000
        8525000	       851	80000c10	007ea3b3	slt	x7,x29,x7	 x29:0x00000000  x7:0x1a800103  x7=0x00000001
        8535000	       852	80000c14	9ce92213	slti	x4,x18,-1586	 x18:0x00000001  x4=0x00000000
        8545000	       853	80000c18	016fdd93	srli	x27,x31,0x16	 x31:0x00000000 x27=0x00000000
        8555000	       854	80000c1c	41ce0d33	sub	x26,x28,x28	 x28:0x00000000 x28:0x00000000 x26=0x00000000
        8565000	       855	80000c20	01bc4933	xor	x18,x24,x27	 x24:0x00000000 x27:0x00000000 x18=0x00000000
        8575000	       856	80000c24	035b5263	bge	x22,x21,80000c48	 x22:0x7fff5f34 x21:0x00000000
        8585000	       857	00000000	00000013	addi	x0,x0,0	  x0:0x00000000
        8595000	       858	80000c44	00000013	addi	x0,x0,0	  x0:0x00000000
        8605000	       859	80000c48	33ceaa13	slti	x20,x29,828	 x29:0x00000000 x20=0x00000001
        8615000	       860	80000c4c	015a1333	sll	x6,x20,x21	 x20:0x00000001 x21:0x00000000  x6=0x00000001
        8625000	       861	80000c50	d41f6b93	ori	x23,x30,-703	 x30:0x7fff5f34 x23=0xffffff75
        8635000	       862	80000c54	01aea933	slt	x18,x29,x26	 x29:0x00000000 x26:0x00000000 x18=0x00000000
        8645000	       863	80000c58	01891393	slli	x7,x18,0x18	 x18:0x00000000  x7=0x00000000
        8655000	       864	80000c5c	04e3fb93	andi	x23,x7,78	  x7:0x00000000 x23=0x00000000
        8665000	       865	80000c60	01c4c263	blt	x9,x28,80000c64	  x9:0x00000006 x28:0x00000000
        8675000	       866	80000c64	00000013	addi	x0,x0,0	  x0:0x00000000
        8685000	       867	80000c68	05b7e863	bltu	x15,x27,80000cb8	 x15:0x80009f54 x27:0x00000000
        8695000	       868	80000c6c	6f9b0c13	addi	x24,x22,1785	 x22:0x7fff5f34 x24=0x7fff662d
        8705000	       869	80000c70	01090933	add	x18,x18,x16	 x18:0x00000000 x16:0x00000000 x18=0x00000000
        8715000	       870	80000c74	05f5f263	bgeu	x11,x31,80000cb8	 x11:0x00000000 x31:0x00000000
        8725000	       871	00000000	00000013	addi	x0,x0,0	  x0:0x00000000
        8735000	       872	80000cb4	00000013	addi	x0,x0,0	  x0:0x00000000
        8745000	       873	80000cb8	40ca8d33	sub	x26,x21,x12	 x21:0x00000000 x12:0x000369df x26=0xfffc9621
        8755000	       874	80000cbc	00cb0633	add	x12,x22,x12	 x22:0x7fff5f34 x12:0x000369df x12=0x8002c913
        8765000	       875	80000cc0	0359e063	bltu	x19,x21,80000ce0	 x19:0x92f21a7a x21:0x00000000
        8775000	       876	80000cc4	01fefe33	and	x28,x29,x31	 x29:0x00000000 x31:0x00000000 x28=0x00000000
        8785000	       877	80000cc8	40b7dc13	srai	x24,x15,0xb	 x15:0x80009f54 x24=0xfff00013
        8795000	       878	80000ccc	00000013	addi	x0,x0,0	  x0:0x00000000
        8805000	       879	80000cd0	532e3813	sltiu	x16,x28,1330	 x28:0x00000000 x16=0x00000001
        8815000	       880	80000cd4	41f05493	srai	x9,x0,0x1f	  x0:0x00000000  x9=0x00000000
        8825000	       881	80000cd8	01265593	srli	x11,x12,0x12	 x12:0x8002c913 x11=0x00002000
        8835000	       882	80000cdc	06256093	ori	x1,x10,98	 x10:0x1b4ef808  x1=0x1b4ef86a
        8845000	       883	80000ce0	001bda93	srli	x21,x23,0x1	 x23:0x00000000 x21=0x00000000
        8855000	       884	80000ce4	03227c63	bgeu	x4,x18,80000d1c	  x4:0x00000000 x18:0x00000000
        8865000	       885	00000000	00000013	addi	x0,x0,0	  x0:0x00000000
        8875000	       886	80000d18	00000013	addi	x0,x0,0	  x0:0x00000000
        8885000	       887	80000d1c	008fb433	sltu	x8,x31,x8	 x31:0x00000000  x8:0x7fff5804  x8=0x00000001
        8895000	       888	80000d20	046ac663	blt	x21,x6,80000d6c	 x21:0x00000000  x6:0x00000001
        8905000	       889	00000000	00000013	addi	x0,x0,0	  x0:0x00000000
        8915000	       890	80000d68	00000013	addi	x0,x0,0	  x0:0x00000000
        8925000	       891	80000d6c	01916a63	bltu	x2,x25,80000d80	  x2:0x00000000 x25:0x80009fc4
        8935000	       892	00000000	00000013	addi	x0,x0,0	  x0:0x00000000
        8945000	       893	80000d7c	00000013	addi	x0,x0,0	  x0:0x00000000
        8955000	       894	80000d80	001c8663	beq	x25,x1,80000d8c	 x25:0x80009fc4  x1:0x1b4ef86a
        8965000	       895	80000d84	00091433	sll	x8,x18,x0	 x18:0x00000000  x0:0x00000000  x8=0x00000000
        8975000	       896	80000d88	001f5e93	srli	x29,x30,0x1	 x30:0x7fff5f34 x29=0x3fffaf9a
        8985000	       897	80000d8c	009f4863	blt	x30,x9,80000d9c	 x30:0x7fff5f34  x9:0x00000000
        8995000	       898	80000d90	01d35e93	srli	x29,x6,0x1d	  x6:0x00000001 x29=0x00000000
        9005000	       899	80000d94	40378033	sub	x0,x15,x3	 x15:0x80009f54  x3:0x00000000
        9015000	       900	80000d98	016b4263	blt	x22,x22,80000d9c	 x22:0x7fff5f34 x22:0x7fff5f34
        9025000	       901	80000d9c	a2996f93	ori	x31,x18,-1495	 x18:0x00000000 x31=0xfffffa29
        9035000	       902	80000da0	6b977613	andi	x12,x14,1721	 x14:0x227ff604 x12=0x00000600
        9045000	       903	80000da4	02e99263	bne	x19,x14,80000dc8	 x19:0x92f21a7a x14:0x227ff604
        9055000	       904	00000000	00000013	addi	x0,x0,0	  x0:0x00000000
        9065000	       905	80000dc4	00000013	addi	x0,x0,0	  x0:0x00000000
        9075000	       906	80000dc8	c384ba93	sltiu	x21,x9,-968	  x9:0x00000000 x21=0x00000001
        9085000	       907	80000dcc	af7b4d93	xori	x27,x22,-1289	 x22:0x7fff5f34 x27=0x8000a5c3
        9095000	       908	80000dd0	411f5293	srai	x5,x30,0x11	 x30:0x7fff5f34  x5=0x00003fff
        9105000	       909	80000dd4	000f4db3	xor	x27,x30,x0	 x30:0x7fff5f34  x0:0x00000000 x27=0x7fff5f34
        9115000	       910	80000dd8	403154b3	sra	x9,x2,x3	  x2:0x00000000  x3:0x00000000  x9=0x00000000
        9125000	       911	80000ddc	00000013	addi	x0,x0,0	  x0:0x00000000
        9135000	       912	80000de0	00000013	addi	x0,x0,0	  x0:0x00000000
        9145000	       913	80000de4	4f8d8f97	auipc	x31,0x4f8d8	 x31=0xcf8d8de0
        9155000	       914	80000de8	056f4063	blt	x30,x22,80000e28	 x30:0x7fff5f34 x22:0x7fff5f34
        9165000	       915	80000dec	01b42033	slt	x0,x8,x27	  x8:0x00000000 x27:0x7fff5f34
        9175000	       916	80000df0	00f01d93	slli	x27,x0,0xf	  x0:0x00000000 x27=0x00000000
        9185000	       917	80000df4	41f4d733	sra	x14,x9,x31	  x9:0x00000000 x31:0xcf8d8de0 x14=0x00000000
        9195000	       918	80000df8	9b6b4a93	xori	x21,x22,-1610	 x22:0x7fff5f34 x21=0x8000a682
        9205000	       919	80000dfc	beb5be13	sltiu	x28,x11,-1045	 x11:0x00002000 x28=0x00000001
        9215000	       920	80000e00	011868b3	or	x17,x16,x17	 x16:0x00000001 x17:0x00000001 x17=0x00000001
        9225000	       921	80000e04	0119d593	srli	x11,x19,0x11	 x19:0x92f21a7a x11=0x00004979
        9235000	       922	80000e08	41fdd913	srai	x18,x27,0x1f	 x27:0x00000000 x18=0x00000000
        9245000	       923	80000e0c	87bcfe97	auipc	x29,0x87bcf	 x29=0x07bcfe08
        9255000	       924	80000e10	005e63b3	or	x7,x28,x5	 x28:0x00000001  x5:0x00003fff  x7=0x00003fff
        9265000	       925	80000e14	01a4ebb3	or	x23,x9,x26	  x9:0x00000000 x26:0xfffc9621 x23=0xfffc9621
        9275000	       926	80000e18	02768663	beq	x13,x7,80000e44	 x13:0x1a800000  x7:0x00003fff
        9285000	       927	80000e1c	411f85b3	sub	x11,x31,x17	 x31:0xcf8d8de0 x17:0x00000001 x11=0xcf8d8ddf
        9295000	       928	80000e20	0f926913	ori	x18,x4,249	  x4:0x00000000 x18=0x000000f9
        9305000	       929	80000e24	002b6e33	or	x28,x22,x2	 x22:0x7fff5f34  x2:0x00000000 x28=0x7fff5f34
        9315000	       930	80000e28	025c9063	bne	x25,x5,80000e48	 x25:0x80009fc4  x5:0x00003fff
        9325000	       931	00000000	00000013	addi	x0,x0,0	  x0:0x00000000
        9335000	       932	80000e44	00000013	addi	x0,x0,0	  x0:0x00000000
        9345000	       933	80000e48	046ef863	bgeu	x29,x6,80000e98	 x29:0x07bcfe08  x6:0x00000001
        9355000	       934	00000000	00000013	addi	x0,x0,0	  x0:0x00000000
        9365000	       935	80000e94	00000013	addi	x0,x0,0	  x0:0x00000000
        9375000	       936	80000e98	00584463	blt	x16,x5,80000ea0	 x16:0x00000001  x5:0x00003fff
        9385000	       937	00000000	00000013	addi	x0,x0,0	  x0:0x00000000
        9395000	       938	80000e9c	00000013	addi	x0,x0,0	  x0:0x00000000
        9405000	       939	80000ea0	418656b3	sra	x13,x12,x24	 x12:0x00000600 x24:0xfff00013 x13=0x00000000
        9415000	       940	80000ea4	008cc263	blt	x25,x8,80000ea8	 x25:0x80009fc4  x8:0x00000000
        9425000	       941	00000000	00000013	addi	x0,x0,0	  x0:0x00000000
        9435000	       942	80000ea4	00000013	addi	x0,x0,0	  x0:0x00000000
        9445000	       943	80000ea8	e196b317	auipc	x6,0xe196b	  x6=0x6196bea4
        9455000	       944	80000eac	03401063	bne	x0,x20,80000ecc	  x0:0x00000000 x20:0x00000001
        9465000	       945	00000000	00000013	addi	x0,x0,0	  x0:0x00000000
        9475000	       946	80000ec8	00000013	addi	x0,x0,0	  x0:0x00000000
        9485000	       947	80000ecc	06467663	bgeu	x12,x4,80000f38	 x12:0x00000600  x4:0x00000000
        9495000	       948	00000000	00000013	addi	x0,x0,0	  x0:0x00000000
        9505000	       949	80000f34	00000013	addi	x0,x0,0	  x0:0x00000000
        9515000	       950	80000f38	40cfd613	srai	x12,x31,0xc	 x31:0xcf8d8de0 x12=0xfffcf8d8
        9525000	       951	80000f3c	003bbdb3	sltu	x27,x23,x3	 x23:0xfffc9621  x3:0x00000000 x27=0x00000000
        9535000	       952	80000f40	00e2dc33	srl	x24,x5,x14	  x5:0x00003fff x14:0x00000000 x24=0x00003fff
        9545000	       953	80000f44	ee776817	auipc	x16,0xee776	 x16=0x6e776f40
        9555000	       954	80000f48	44c5e817	auipc	x16,0x44c5e	 x16=0xc4c5ef44
        9565000	       955	80000f4c	f4bd4d13	xori	x26,x26,-181	 x26:0xfffc9621 x26=0x0003696a
        9575000	       956	80000f50	f5e2a693	slti	x13,x5,-162	  x5:0x00003fff x13=0x00000000
        9585000	       957	80000f54	5d2b8013	addi	x0,x23,1490	 x23:0xfffc9621
        9595000	       958	80000f58	00955a33	srl	x20,x10,x9	 x10:0x1b4ef808  x9:0x00000000 x20=0x1b4ef808
        9605000	       959	80000f5c	007463b3	or	x7,x8,x7	  x8:0x00000000  x7:0x00003fff  x7=0x00003fff
        9615000	       960	80000f60	bc61e297	auipc	x5,0xbc61e	  x5=0x3c61ef5c
        9625000	       961	80000f64	009b5a63	bge	x22,x9,80000f78	 x22:0x7fff5f34  x9:0x00000000
        9635000	       962	00000000	00000013	addi	x0,x0,0	  x0:0x00000000
        9645000	       963	80000f74	00000013	addi	x0,x0,0	  x0:0x00000000
        9655000	       964	80000f78	ac132017	auipc	x0,0xac132	
        9665000	       965	80000f7c	40dc53b3	sra	x7,x24,x13	 x24:0x00003fff x13:0x00000000  x7=0x00003fff
        9675000	       966	80000f80	00066463	bltu	x12,x0,80000f88	 x12:0xfffcf8d8  x0:0x00000000
        9685000	       967	80000f84	012da0b3	slt	x1,x27,x18	 x27:0x00000000 x18:0x000000f9  x1=0x00000001
        9695000	       968	80000f88	011fd593	srli	x11,x31,0x11	 x31:0xcf8d8de0 x11=0x000067c6
        9705000	       969	80000f8c	a90c4337	lui	x6,0xa90c4	  x6=0xa90c4000
        9715000	       970	80000f90	41ca8433	sub	x8,x21,x28	 x21:0x8000a682 x28:0x7fff5f34  x8=0x0001474e
        9725000	       971	80000f94	00828d33	add	x26,x5,x8	  x5:0x3c61ef5c  x8:0x0001474e x26=0x3c6336aa
        9735000	       972	80000f98	ac77ed13	ori	x26,x15,-1337	 x15:0x80009f54 x26=0xffffffd7
        9745000	       973	80000f9c	05614e13	xori	x28,x2,86	  x2:0x00000000 x28=0x00000056
        9755000	       974	80000fa0	00809c63	bne	x1,x8,80000fb8	  x1:0x00000001  x8:0x0001474e
        9765000	       975	00000000	00000013	addi	x0,x0,0	  x0:0x00000000
        9775000	       976	80000fb4	00000013	addi	x0,x0,0	  x0:0x00000000
        9785000	       977	80000fb8	00ab7eb3	and	x29,x22,x10	 x22:0x7fff5f34 x10:0x1b4ef808 x29=0x1b4e5800
        9795000	       978	80000fbc	0425c263	blt	x11,x2,80001000	 x11:0x000067c6  x2:0x00000000
        9805000	       979	80000fc0	40e4d1b3	sra	x3,x9,x14	  x9:0x00000000 x14:0x00000000  x3=0x00000000
        9815000	       980	80000fc4	02c34463	blt	x6,x12,80000fec	  x6:0xa90c4000 x12:0xfffcf8d8
        9825000	       981	00000000	00000013	addi	x0,x0,0	  x0:0x00000000
        9835000	       982	80000fe8	00000013	addi	x0,x0,0	  x0:0x00000000
        9845000	       983	80000fec	6694aa17	auipc	x20,0x6694a	 x20=0xe694afe8
        9855000	       984	80000ff0	00a1e1b3	or	x3,x3,x10	  x3:0x00000000 x10:0x1b4ef808  x3=0x1b4ef808
        9865000	       985	80000ff4	018c0733	add	x14,x24,x24	 x24:0x00003fff x24:0x00003fff x14=0x00007ffe
        9875000	       986	80000ff8	046a4663	blt	x20,x6,80001044	 x20:0xe694afe8  x6:0xa90c4000
        9885000	       987	80000ffc	00000013	addi	x0,x0,0	  x0:0x00000000
        9895000	       988	80001000	ef572b93	slti	x23,x14,-267	 x14:0x00007ffe x23=0x00000000
        9905000	       989	80001004	f7cde313	ori	x6,x27,-132	 x27:0x00000000  x6=0xffffff7c
        9915000	       990	80001008	02785063	bge	x16,x7,80001028	 x16:0xc4c5ef44  x7:0x00003fff
        9925000	       991	8000100c	007eb0b3	sltu	x1,x29,x7	 x29:0x1b4e5800  x7:0x00003fff  x1=0x00000000
        9935000	       992	80001010	41d78833	sub	x16,x15,x29	 x15:0x80009f54 x29:0x1b4e5800 x16=0x64b24754
        9945000	       993	80001014	2d690293	addi	x5,x18,726	 x18:0x000000f9  x5=0x000003cf
        9955000	       994	80001018	d834ba13	sltiu	x20,x9,-637	  x9:0x00000000 x20=0x00000001
        9965000	       995	8000101c	0079d713	srli	x14,x19,0x7	 x19:0x92f21a7a x14=0x0125e434
        9975000	       996	80001020	00205b13	srli	x22,x0,0x2	  x0:0x00000000 x22=0x00000000
        9985000	       997	80001024	00b77263	bgeu	x14,x11,80001028	 x14:0x0125e434 x11:0x000067c6
        9995000	       998	00000000	00000013	addi	x0,x0,0	  x0:0x00000000
       10005000	       999	80001024	00000013	addi	x0,x0,0	  x0:0x00000000
       10015000	      1000	80001028	00000013	addi	x0,x0,0	  x0:0x00000000
       10025000	      1001	8000102c	413f8ab3	sub	x21,x31,x19	 x31:0xcf8d8de0 x19:0x92f21a7a x21=0x3c9b7366
       10035000	      1002	80001030	40385193	srai	x3,x16,0x3	 x16:0x64b24754  x3=0x0c9648ea
       10045000	      1003	80001034	014a0bb3	add	x23,x20,x20	 x20:0x00000001 x20:0x00000001 x23=0x00000002
       10055000	      1004	80001038	04a36263	bltu	x6,x10,8000107c	  x6:0xffffff7c x10:0x1b4ef808
       10065000	      1005	8000103c	cc407093	andi	x1,x0,-828	  x0:0x00000000  x1=0x00000000
       10075000	      1006	80001040	e317b413	sltiu	x8,x15,-463	 x15:0x80009f54  x8=0x00000001
       10085000	      1007	80001044	403c5bb3	sra	x23,x24,x3	 x24:0x00003fff  x3:0x0c9648ea x23=0x0000000f
       10095000	      1008	80001048	813622b7	lui	x5,0x81362	  x5=0x81362000
       10105000	      1009	8000104c	418b5693	srai	x13,x22,0x18	 x22:0x00000000 x13=0x00000000
       10115000	      1010	80001050	00f80933	add	x18,x16,x15	 x16:0x64b24754 x15:0x80009f54 x18=0xe4b2e6a8
       10125000	      1011	80001054	03029663	bne	x5,x16,80001080	  x5:0x81362000 x16:0x64b24754
       10135000	      1012	00000000	00000013	addi	x0,x0,0	  x0:0x00000000
       10145000	      1013	8000107c	00000013	addi	x0,x0,0	  x0:0x00000000
       10155000	      1014	80001080	04be7063	bgeu	x28,x11,800010c0	 x28:0x00000056 x11:0x000067c6
       10165000	      1015	80001084	014d9593	slli	x11,x27,0x14	 x27:0x00000000 x11=0x00000000
       10175000	      1016	80001088	f8c7cf93	xori	x31,x15,-116	 x15:0x80009f54 x31=0x7fff60d8
       10185000	      1017	8000108c	41005233	sra	x4,x0,x16	  x0:0x00000000 x16:0x64b24754  x4=0x00000000
       10195000	      1018	80001090	e9d4f013	andi	x0,x9,-355	  x9:0x00000000
       10205000	      1019	80001094	01437697	auipc	x13,0x1437	 x13=0x81438090
       10215000	      1020	80001098	89abc393	xori	x7,x23,-1894	 x23:0x0000000f  x7=0xfffff895
       10225000	      1021	8000109c	017b6b33	or	x22,x22,x23	 x22:0x00000000 x23:0x0000000f x22=0x0000000f
       10235000	      1022	800010a0	408454b3	sra	x9,x8,x8	  x8:0x00000001  x8:0x00000001  x9=0x00000000
       10245000	      1023	800010a4	012970b3	and	x1,x18,x18	 x18:0xe4b2e6a8 x18:0xe4b2e6a8  x1=0xe4b2e6a8
       10255000	      1024	800010a8	31e1b113	sltiu	x2,x3,798	  x3:0x0c9648ea  x2=0x00000000
       10265000	      1025	800010ac	cf69f493	andi	x9,x19,-778	 x19:0x92f21a7a  x9=0x92f21872
       10275000	      1026	800010b0	03b9f263	bgeu	x19,x27,800010d4	 x19:0x92f21a7a x27:0x00000000
       10285000	      1027	00000000	00000013	addi	x0,x0,0	  x0:0x00000000
       10295000	      1028	800010d0	00000013	addi	x0,x0,0	  x0:0x00000000
       10305000	      1029	800010d4	4115d933	sra	x18,x11,x17	 x11:0x00000000 x17:0x00000001 x18=0x00000000
       10315000	      1030	800010d8	4004d813	srai	x16,x9,0x0	  x9:0x92f21872 x16=0x92f21872
       10325000	      1031	800010dc	955ba213	slti	x4,x23,-1707	 x23:0x0000000f  x4=0x00000000
       10335000	      1032	800010e0	91154113	xori	x2,x10,-1775	 x10:0x1b4ef808  x2=0xe4b10119
       10345000	      1033	800010e4	78bbe193	ori	x3,x23,1931	 x23:0x0000000f  x3=0x0000078f
       10355000	      1034	800010e8	012c5f93	srli	x31,x24,0x12	 x24:0x00003fff x31=0x00000000
       10365000	      1035	800010ec	05571863	bne	x14,x21,8000113c	 x14:0x0125e434 x21:0x3c9b7366
       10375000	      1036	00000000	00000013	addi	x0,x0,0	  x0:0x00000000
       10385000	      1037	80001138	00000013	addi	x0,x0,0	  x0:0x00000000
       10395000	      1038	8000113c	00421233	sll	x4,x4,x4	  x4:0x00000000  x4:0x00000000  x4=0x00000000
       10405000	      1039	80001140	001b3fb3	sltu	x31,x22,x1	 x22:0x0000000f  x1:0xe4b2e6a8 x31=0x00000001
       10415000	      1040	80001144	9cadf317	auipc	x6,0x9cadf	  x6=0x1cae0140
       10425000	      1041	80001148	5bc4c317	auipc	x6,0x5bc4c	  x6=0xdbc4d144
       10435000	      1042	8000114c	00000013	addi	x0,x0,0	  x0:0x00000000
       10445000	      1043	80001150	004345b3	xor	x11,x6,x4	  x6:0xdbc4d144  x4:0x00000000 x11=0xdbc4d144
       10455000	      1044	80001154	00000013	addi	x0,x0,0	  x0:0x00000000
       10465000	      1045	80001158	16ed6c13	ori	x24,x26,366	 x26:0xffffffd7 x24=0xffffffff
       10475000	      1046	8000115c	01b62833	slt	x16,x12,x27	 x12:0xfffcf8d8 x27:0x00000000 x16=0x00000001
       10485000	      1047	80001160	4126df13	srai	x30,x13,0x12	 x13:0x81438090 x30=0xffffe050
       10495000	      1048	80001164	04eb7863	bgeu	x22,x14,800011b4	 x22:0x0000000f x14:0x0125e434
       10505000	      1049	80001168	01c14fb3	xor	x31,x2,x28	  x2:0xe4b10119 x28:0x00000056 x31=0xe4b1014f
       10515000	      1050	8000116c	005fde93	srli	x29,x31,0x5	 x31:0xe4b1014f x29=0x0725880a
       10525000	      1051	80001170	8988a813	slti	x16,x17,-1896	 x17:0x00000001 x16=0x00000000
       10535000	      1052	80001174	012a9b33	sll	x22,x21,x18	 x21:0x3c9b7366 x18:0x00000000 x22=0x3c9b7366
       10545000	      1053	80001178	da004a13	xori	x20,x0,-608	  x0:0x00000000 x20=0xfffffda0
       10555000	      1054	8000117c	0014d2b3	srl	x5,x9,x1	  x9:0x92f21872  x1:0xe4b2e6a8  x5=0x0092f218
       10565000	      1055	80001180	5ac6fa13	andi	x20,x13,1452	 x13:0x81438090 x20=0x00000080
       10575000	      1056	80001184	41060fb3	sub	x31,x12,x16	 x12:0xfffcf8d8 x16:0x00000000 x31=0xfffcf8d8
       10585000	      1057	80001188	01d07933	and	x18,x0,x29	  x0:0x00000000 x29:0x0725880a x18=0x00000000
       10595000	      1058	8000118c	aa6d7a93	andi	x21,x26,-1370	 x26:0xffffffd7 x21=0xfffffa86
       10605000	      1059	80001190	015b9d13	slli	x26,x23,0x15	 x23:0x0000000f x26=0x01e00000
       10615000	      1060	80001194	120bf337	lui	x6,0x120bf	  x6=0x120bf000
       10625000	      1061	80001198	40770233	sub	x4,x14,x7	 x14:0x0125e434  x7:0xfffff895  x4=0x0125eb9f
       10635000	      1062	8000119c	e7bd9517	auipc	x10,0xe7bd9	 x10=0x67bda198
       10645000	      1063	800011a0	e45c5a37	lui	x20,0xe45c5	 x20=0xe45c5000
       10655000	      1064	800011a4	01f3af33	slt	x30,x7,x31	  x7:0xfffff895 x31:0xfffcf8d8 x30=0x00000000
       10665000	      1065	800011a8	01d1f933	and	x18,x3,x29	  x3:0x0000078f x29:0x0725880a x18=0x0000000a
       10675000	      1066	800011ac	001b4e63	blt	x22,x1,800011c8	 x22:0x3c9b7366  x1:0xe4b2e6a8
       10685000	      1067	800011b0	01d16fb3	or	x31,x2,x29	  x2:0xe4b10119 x29:0x0725880a x31=0xe7b5891b
       10695000	      1068	800011b4	ceeabb93	sltiu	x23,x21,-786	 x21:0xfffffa86 x23=0x00000001
       10705000	      1069	800011b8	01e67a63	bgeu	x12,x30,800011cc	 x12:0xfffcf8d8 x30:0x00000000
       10715000	      1070	00000000	00000013	addi	x0,x0,0	  x0:0x00000000
       10725000	      1071	800011c8	00000013	addi	x0,x0,0	  x0:0x00000000
       10735000	      1072	800011cc	41505ab3	sra	x21,x0,x21	  x0:0x00000000 x21:0xfffffa86 x21=0x00000000
       10745000	      1073	800011d0	4051d933	sra	x18,x3,x5	  x3:0x0000078f  x5:0x0092f218 x18=0x00000000
       10755000	      1074	800011d4	d00fc293	xori	x5,x31,-768	 x31:0xe7b5891b  x5=0x184a741b
       10765000	      1075	800011d8	03e29c63	bne	x5,x30,80001210	  x5:0x184a741b x30:0x00000000
       10775000	      1076	00000000	00000013	addi	x0,x0,0	  x0:0x00000000
       10785000	      1077	8000120c	00000013	addi	x0,x0,0	  x0:0x00000000
       10795000	      1078	80001210	416d5093	srai	x1,x26,0x16	 x26:0x01e00000  x1=0x00000007
       10805000	      1079	80001214	02c8cc63	blt	x17,x12,8000124c	 x17:0x00000001 x12:0xfffcf8d8
       10815000	      1080	80001218	7364b893	sltiu	x17,x9,1846	  x9:0x92f21872 x17=0x00000000
       10825000	      1081	8000121c	1f08b513	sltiu	x10,x17,496	 x17:0x00000000 x10=0x00000001
       10835000	      1082	80001220	8d782193	slti	x3,x16,-1833	 x16:0x00000000  x3=0x00000000
       10845000	      1083	80001224	009a4633	xor	x12,x20,x9	 x20:0xe45c5000  x9:0x92f21872 x12=0x76ae4872
       10855000	      1084	80001228	01b75013	srli	x0,x14,0x1b	 x14:0x0125e434
       10865000	      1085	8000122c	03ea2613	slti	x12,x20,62	 x20:0xe45c5000 x12=0x00000001
       10875000	      1086	80001230	407a0db3	sub	x27,x20,x7	 x20:0xe45c5000  x7:0xfffff895 x27=0xe45c576b
       10885000	      1087	80001234	01d71413	slli	x8,x14,0x1d	 x14:0x0125e434  x8=0x80000000
       10895000	      1088	80001238	0153bb33	sltu	x22,x7,x21	  x7:0xfffff895 x21:0x00000000 x22=0x00000000
       10905000	      1089	8000123c	4073d133	sra	x2,x7,x7	  x7:0xfffff895  x7:0xfffff895  x2=0xffffffff
       10915000	      1090	80001240	0000c433	xor	x8,x1,x0	  x1:0x00000007  x0:0x00000000  x8=0x00000007
       10925000	      1091	80001244	403ad033	sra	x0,x21,x3	 x21:0x00000000  x3:0x00000000
       10935000	      1092	80001248	01075b33	srl	x22,x14,x16	 x14:0x0125e434 x16:0x00000000 x22=0x0125e434
       10945000	      1093	8000124c	412b5a13	srai	x20,x22,0x12	 x22:0x0125e434 x20=0x00000049
       10955000	      1094	80001250	012cd233	srl	x4,x25,x18	 x25:0x80009fc4 x18:0x00000000  x4=0x80009fc4
       10965000	      1095	80001254	0063da63	bge	x7,x6,80001268	  x7:0xfffff895  x6:0x120bf000
       10975000	      1096	80001258	49d6f313	andi	x6,x13,1181	 x13:0x81438090  x6=0x00000090
       10985000	      1097	8000125c	07864e13	xori	x28,x12,120	 x12:0x00000001 x28=0x00000079
       10995000	      1098	80001260	00ab9013	slli	x0,x23,0xa	 x23:0x00000001
       11005000	      1099	80001264	9c68b597	auipc	x11,0x9c68b	 x11=0x1c68c260
       11015000	      1100	80001268	026c0c63	beq	x24,x6,800012a0	 x24:0xffffffff  x6:0x00000090
       11025000	      1101	8000126c	01a28333	add	x6,x5,x26	  x5:0x184a741b x26:0x01e00000  x6=0x1a2a741b
       11035000	      1102	80001270	b11ce537	lui	x10,0xb11ce	 x10=0xb11ce000
       11045000	      1103	80001274	00520bb3	add	x23,x4,x5	  x4:0x80009fc4  x5:0x184a741b x23=0x984b13df
       11055000	      1104	80001278	01176033	or	x0,x14,x17	 x14:0x0125e434 x17:0x00000000
       11065000	      1105	8000127c	00000013	addi	x0,x0,0	  x0:0x00000000
       11075000	      1106	80001280	eb2ad6b7	lui	x13,0xeb2ad	 x13=0xeb2ad000
       11085000	      1107	80001284	41170333	sub	x6,x14,x17	 x14:0x0125e434 x17:0x00000000  x6=0x0125e434
       11095000	      1108	80001288	00b39313	slli	x6,x7,0xb	  x7:0xfffff895  x6=0xffc4a800
       11105000	      1109	8000128c	012f16b3	sll	x13,x30,x18	 x30:0x00000000 x18:0x00000000 x13=0x00000000
       11115000	      1110	80001290	005e4463	blt	x28,x5,80001298	 x28:0x00000079  x5:0x184a741b
       11125000	      1111	00000000	00000013	addi	x0,x0,0	  x0:0x00000000
       11135000	      1112	80001294	00000013	addi	x0,x0,0	  x0:0x00000000
       11145000	      1113	80001298	00000013	addi	x0,x0,0	  x0:0x00000000
       11155000	      1114	8000129c	00cf4863	blt	x30,x12,800012ac	 x30:0x00000000 x12:0x00000001
       11165000	      1115	00000000	00000013	addi	x0,x0,0	  x0:0x00000000
       11175000	      1116	800012a8	00000013	addi	x0,x0,0	  x0:0x00000000
       11185000	      1117	800012ac	01345db3	srl	x27,x8,x19	  x8:0x00000007 x19:0x92f21a7a x27=0x00000000
       11195000	      1118	800012b0	001e3333	sltu	x6,x28,x1	 x28:0x00000079  x1:0x00000007  x6=0x00000000
       11205000	      1119	800012b4	00000013	addi	x0,x0,0	  x0:0x00000000
       11215000	      1120	800012b8	41485633	sra	x12,x16,x20	 x16:0x00000000 x20:0x00000049 x12=0x00000000
       11225000	      1121	800012bc	00000013	addi	x0,x0,0	  x0:0x00000000
       11235000	      1122	800012c0	403a82b3	sub	x5,x21,x3	 x21:0x00000000  x3:0x00000000  x5=0x00000000
       11245000	      1123	800012c4	f3506913	ori	x18,x0,-203	  x0:0x00000000 x18=0xffffff35
       11255000	      1124	800012c8	41b408b3	sub	x17,x8,x27	  x8:0x00000007 x27:0x00000000 x17=0x00000007
       11265000	      1125	800012cc	00000013	addi	x0,x0,0	  x0:0x00000000
       11275000	      1126	800012d0	01de11b3	sll	x3,x28,x29	 x28:0x00000079 x29:0x0725880a  x3=0x0001e400
       11285000	      1127	800012d4	00dada63	bge	x21,x13,800012e8	 x21:0x00000000 x13:0x00000000
       11295000	      1128	00000000	00000013	addi	x0,x0,0	  x0:0x00000000
       11305000	      1129	800012e4	00000013	addi	x0,x0,0	  x0:0x00000000
       11315000	      1130	800012e8	01d5d493	srli	x9,x11,0x1d	 x11:0x1c68c260  x9=0x00000000
       11325000	      1131	800012ec	87676d93	ori	x27,x14,-1930	 x14:0x0125e434 x27=0xfffffc76
       11335000	      1132	800012f0	03d0ee63	bltu	x1,x29,8000132c	  x1:0x00000007 x29:0x0725880a
       11345000	      1133	00000000	00000013	addi	x0,x0,0	  x0:0x00000000
       11355000	      1134	80001328	00000013	addi	x0,x0,0	  x0:0x00000000
       11365000	      1135	8000132c	000d3db3	sltu	x27,x26,x0	 x26:0x01e00000  x0:0x00000000 x27=0x00000000
       11375000	      1136	80001330	405c5313	srai	x6,x24,0x5	 x24:0xffffffff  x6=0xffffffff
       11385000	      1137	80001334	01a85b93	srli	x23,x16,0x1a	 x16:0x00000000 x23=0x00000000
       11395000	      1138	80001338	4164deb3	sra	x29,x9,x22	  x9:0x00000000 x22:0x0125e434 x29=0x00000000
       11405000	      1139	8000133c	8a87c693	xori	x13,x15,-1880	 x15:0x80009f54 x13=0x7fff67fc
       11415000	      1140	80001340	009d8533	add	x10,x27,x9	 x27:0x00000000  x9:0x00000000 x10=0x00000000
       11425000	      1141	80001344	0243c063	blt	x7,x4,80001364	  x7:0xfffff895  x4:0x80009fc4
       11435000	      1142	80001348	04c0f063	bgeu	x1,x12,80001388	  x1:0x00000007 x12:0x00000000
       11445000	      1143	00000000	00000013	addi	x0,x0,0	  x0:0x00000000
       11455000	      1144	80001384	00000013	addi	x0,x0,0	  x0:0x00000000
       11465000	      1145	80001388	4b9e3337	lui	x6,0x4b9e3	  x6=0x4b9e3000
       11475000	      1146	8000138c	05100263	beq	x0,x17,800013d0	  x0:0x00000000 x17:0x00000007
       11485000	      1147	80001390	00056c63	bltu	x10,x0,800013a8	 x10:0x00000000  x0:0x00000000
       11495000	      1148	80001394	882c8b93	addi	x23,x25,-1918	 x25:0x80009fc4 x23=0x80009846
       11505000	      1149	80001398	3e174017	auipc	x0,0x3e174	
       11515000	      1150	8000139c	02548463	beq	x9,x5,800013c4	  x9:0x00000000  x5:0x00000000
       11525000	      1151	00000000	00000013	addi	x0,x0,0	  x0:0x00000000
       11535000	      1152	800013c0	00000013	addi	x0,x0,0	  x0:0x00000000
       11545000	      1153	800013c4	0569e863	bltu	x19,x22,80001414	 x19:0x92f21a7a x22:0x0125e434
       11555000	      1154	800013c8	85838b93	addi	x23,x7,-1960	  x7:0xfffff895 x23=0xfffff0ed
       11565000	      1155	800013cc	00ceb933	sltu	x18,x29,x12	 x29:0x00000000 x12:0x00000000 x18=0x00000000
       11575000	      1156	800013d0	0241f063	bgeu	x3,x4,800013f0	  x3:0x0001e400  x4:0x80009fc4
       11585000	      1157	800013d4	403cdab3	sra	x21,x25,x3	 x25:0x80009fc4  x3:0x0001e400 x21=0x80009fc4
       11595000	      1158	800013d8	4d52d537	lui	x10,0x4d52d	 x10=0x4d52d000
       11605000	      1159	800013dc	404701b3	sub	x3,x14,x4	 x14:0x0125e434  x4:0x80009fc4  x3=0x81254470
       11615000	      1160	800013e0	406f82b3	sub	x5,x31,x6	 x31:0xe7b5891b  x6:0x4b9e3000  x5=0x9c17591b
       11625000	      1161	800013e4	7b26b413	sltiu	x8,x13,1970	 x13:0x7fff67fc  x8=0x00000000
       11635000	      1162	800013e8	40c9df93	srai	x31,x19,0xc	 x19:0x92f21a7a x31=0xfff92f21
       11645000	      1163	800013ec	00fa9893	slli	x17,x21,0xf	 x21:0x80009fc4 x17=0x4fe20000
       11655000	      1164	800013f0	6a693f17	auipc	x30,0x6a693	 x30=0xea6943ec
       11665000	      1165	800013f4	00000013	addi	x0,x0,0	  x0:0x00000000
       11675000	      1166	800013f8	0063e0b3	or	x1,x7,x6	  x7:0xfffff895  x6:0x4b9e3000  x1=0xfffff895
       11685000	      1167	800013fc	01a67ab3	and	x21,x12,x26	 x12:0x00000000 x26:0x01e00000 x21=0x00000000
       11695000	      1168	80001400	0292d063	bge	x5,x9,80001420	  x5:0x9c17591b  x9:0x00000000
       11705000	      1169	80001404	41c6df33	sra	x30,x13,x28	 x13:0x7fff67fc x28:0x00000079 x30=0x0000003f
       11715000	      1170	80001408	00f09233	sll	x4,x1,x15	  x1:0xfffff895 x15:0x80009f54  x4=0x89500000
       11725000	      1171	8000140c	d6f43513	sltiu	x10,x8,-657	  x8:0x00000000 x10=0x00000001
       11735000	      1172	80001410	00000013	addi	x0,x0,0	  x0:0x00000000
       11745000	      1173	80001414	0484d063	bge	x9,x8,80001454	  x9:0x00000000  x8:0x00000000
       11755000	      1174	00000000	00000013	addi	x0,x0,0	  x0:0x00000000
       11765000	      1175	80001450	00000013	addi	x0,x0,0	  x0:0x00000000
       11775000	      1176	80001454	16443693	sltiu	x13,x8,356	  x8:0x00000000 x13=0x00000001
       11785000	      1177	80001458	017715b3	sll	x11,x14,x23	 x14:0x0125e434 x23:0xfffff0ed x11=0xbc868000
       11795000	      1178	8000145c	ba599297	auipc	x5,0xba599	  x5=0x3a59a458
       11805000	      1179	80001460	04300263	beq	x0,x3,800014a4	  x0:0x00000000  x3:0x81254470
       11815000	      1180	80001464	0146c233	xor	x4,x13,x20	 x13:0x00000001 x20:0x00000049  x4=0x00000048
       11825000	      1181	80001468	3d7c2b93	slti	x23,x24,983	 x24:0xffffffff x23=0x00000001
       11835000	      1182	8000146c	6934ba13	sltiu	x20,x9,1683	  x9:0x00000000 x20=0x00000001
       11845000	      1183	80001470	00000013	addi	x0,x0,0	  x0:0x00000000
       11855000	      1184	80001474	013e9213	slli	x4,x29,0x13	 x29:0x00000000  x4=0x00000000
       11865000	      1185	80001478	e5363d37	lui	x26,0xe5363	 x26=0xe5363000
       11875000	      1186	8000147c	faa7fab7	lui	x21,0xfaa7f	 x21=0xfaa7f000
       11885000	      1187	80001480	01c90463	beq	x18,x28,80001488	 x18:0x00000000 x28:0x00000079
       11895000	      1188	80001484	02e68063	beq	x13,x14,800014a4	 x13:0x00000001 x14:0x0125e434
       11905000	      1189	80001488	00d91263	bne	x18,x13,8000148c	 x18:0x00000000 x13:0x00000001
       11915000	      1190	00000000	00000013	addi	x0,x0,0	  x0:0x00000000
       11925000	      1191	80001488	00000013	addi	x0,x0,0	  x0:0x00000000
       11935000	      1192	8000148c	00bdd8b3	srl	x17,x27,x11	 x27:0x00000000 x11:0xbc868000 x17=0x00000000
       11945000	      1193	80001490	00716ab3	or	x21,x2,x7	  x2:0xffffffff  x7:0xfffff895 x21=0xffffffff
       11955000	      1194	80001494	b1f17b93	andi	x23,x2,-1249	  x2:0xffffffff x23=0xfffffb1f
       11965000	      1195	80001498	8b200093	addi	x1,x0,-1870	  x0:0x00000000  x1=0xfffff8b2
       11975000	      1196	8000149c	e74e7913	andi	x18,x28,-396	 x28:0x00000079 x18=0x00000070
       11985000	      1197	800014a0	00567733	and	x14,x12,x5	 x12:0x00000000  x5:0x3a59a458 x14=0x00000000
       11995000	      1198	800014a4	1dd12e13	slti	x28,x2,477	  x2:0xffffffff x28=0x00000001
       12005000	      1199	800014a8	0160fd33	and	x26,x1,x22	  x1:0xfffff8b2 x22:0x0125e434 x26=0x0125e030
       12015000	      1200	800014ac	aa9e18b7	lui	x17,0xaa9e1	 x17=0xaa9e1000
       12025000	      1201	800014b0	7e3b8b93	addi	x23,x23,2019	 x23:0xfffffb1f x23=0x00000302
       12035000	      1202	800014b4	a3f2b413	sltiu	x8,x5,-1473	  x5:0x3a59a458  x8=0x00000001
       12045000	      1203	800014b8	7e822e13	slti	x28,x4,2024	  x4:0x00000000 x28=0x00000001
       12055000	      1204	800014bc	0047a303	lw	x6,4(x15)	 x15:0x80009f54  x6=0x800017e4 PA:0x80009f58
       12065000	      1205	800014c0	00878793	addi	x15,x15,8	 x15:0x80009f54 x15=0x80009f5c
       12075000	      1206	800014c4	0099deb3	srl	x29,x19,x9	 x19:0x92f21a7a  x9:0x00000000 x29=0x92f21a7a
       12085000	      1207	800014c8	00000013	addi	x0,x0,0	  x0:0x00000000
       12095000	      1208	800014cc	00030893	addi	x17,x6,0	  x6:0x800017e4 x17=0x800017e4
       12105000	      1209	800014d0	000888e7	jalr	x17,x17,0	 x17:0x800017e4 x17=0x800014d0
       12115000	      1210	00000000	00000013	addi	x0,x0,0	  x0:0x00000000
       12125000	      1211	800017e4	00000013	addi	x0,x0,0	  x0:0x00000000
       12135000	      1212	800017e8	00003b17	auipc	x22,0x3	 x22=0x800047e4
       12145000	      1213	800017ec	7f8b0b13	addi	x22,x22,2040	 x22:0x800047e4 x22=0x80004fdc
       12155000	      1214	800017f0	7215c413	xori	x8,x11,1825	 x11:0xbc868000  x8=0xbc868721
       12165000	      1215	800017f4	01138db3	add	x27,x7,x17	  x7:0xfffff895 x17:0x800014d0 x27=0x80000d65
       12175000	      1216	800017f8	00ece933	or	x18,x25,x14	 x25:0x80009fc4 x14:0x00000000 x18=0x80009fc4
       12185000	      1217	800017fc	7e93ff93	andi	x31,x7,2025	  x7:0xfffff895 x31=0x00000081
       12195000	      1218	80001800	00000013	addi	x0,x0,0	  x0:0x00000000
       12205000	      1219	80001804	a5c8b693	sltiu	x13,x17,-1444	 x17:0x800014d0 x13=0x00000001
       12215000	      1220	80001808	8f047d93	andi	x27,x8,-1808	  x8:0xbc868721 x27=0xbc868020
       12225000	      1221	8000180c	f95b0b13	addi	x22,x22,-107	 x22:0x80004fdc x22=0x80004f71
       12235000	      1222	80001810	000e2433	slt	x8,x28,x0	 x28:0x00000001  x0:0x00000000  x8=0x00000000
       12245000	      1223	80001814	01685933	srl	x18,x16,x22	 x16:0x00000000 x22:0x80004f71 x18=0x00000000
       12255000	      1224	80001818	06bb0367	jalr	x6,x22,107	 x22:0x80004f71  x6=0x80001818
       12265000	      1225	00000000	00000013	addi	x0,x0,0	  x0:0x00000000
       12275000	      1226	80004fdc	00000013	addi	x0,x0,0	  x0:0x00000000
       12285000	      1227	80004fe0	fe878793	addi	x15,x15,-24	 x15:0x80009f5c x15=0x80009f44
       12295000	      1228	80004fe4	5aedea13	ori	x20,x27,1454	 x27:0xbc868020 x20=0xbc8685ae
       12305000	      1229	80004fe8	01642c33	slt	x24,x8,x22	  x8:0x00000000 x22:0x80004f71 x24=0x00000000
       12315000	      1230	80004fec	0067a223	sw	x6,4(x15)	 x15:0x80009f44  x6:0x80001818 PA:0x80009f48
       12325000	      1231	80004ff0	40e45213	srai	x4,x8,0xe	  x8:0x00000000  x4=0x00000000
       12335000	      1232	80004ff4	609dd717	auipc	x14,0x609dd	 x14=0xe09e1ff0
       12345000	      1233	80004ff8	41720e33	sub	x28,x4,x23	  x4:0x00000000 x23:0x00000302 x28=0xfffffcfe
       12355000	      1234	80004ffc	53bcfe13	andi	x28,x25,1339	 x25:0x80009fc4 x28=0x00000500
       12365000	      1235	80005000	85f10493	addi	x9,x2,-1953	  x2:0xffffffff  x9=0xfffff85e
       12375000	      1236	80005004	39a66213	ori	x4,x12,922	 x12:0x00000000  x4=0x0000039a
       12385000	      1237	80005008	38ba7113	andi	x2,x20,907	 x20:0xbc8685ae  x2=0x0000018a
       12395000	      1238	8000500c	0097edb3	or	x27,x15,x9	 x15:0x80009f44  x9:0xfffff85e x27=0xffffff5e
       12405000	      1239	80005010	01515a93	srli	x21,x2,0x15	  x2:0x0000018a x21=0x00000000
       12415000	      1240	80005014	0f00036f	jal	x6,80005014	  x6=0x80005014
       12425000	      1241	00000000	00000013	addi	x0,x0,0	  x0:0x00000000
       12435000	      1242	80005100	00000013	addi	x0,x0,0	  x0:0x00000000
       12445000	      1243	80005104	fe078793	addi	x15,x15,-32	 x15:0x80009f44 x15=0x80009f24
       12455000	      1244	80005108	fbdb2393	slti	x7,x22,-67	 x22:0x80004f71  x7=0x00000001
       12465000	      1245	8000510c	00f49893	slli	x17,x9,0xf	  x9:0xfffff85e x17=0xfc2f0000
       12475000	      1246	80005110	00393433	sltu	x8,x18,x3	 x18:0x00000000  x3:0x81254470  x8=0x00000001
       12485000	      1247	80005114	41fbd613	srai	x12,x23,0x1f	 x23:0x00000302 x12=0x00000000
       12495000	      1248	80005118	00628f33	add	x30,x5,x6	  x5:0x3a59a458  x6:0x80005014 x30=0xba59f46c
       12505000	      1249	8000511c	4d953413	sltiu	x8,x10,1241	 x10:0x00000001  x8=0x00000001
       12515000	      1250	80005120	559a4913	xori	x18,x20,1369	 x20:0xbc8685ae x18=0xbc8680f7
       12525000	      1251	80005124	f936b737	lui	x14,0xf936b	 x14=0xf936b000
       12535000	      1252	80005128	0067a223	sw	x6,4(x15)	 x15:0x80009f24  x6:0x80005014 PA:0x80009f28
       12545000	      1253	8000512c	6a834d13	xori	x26,x6,1704	  x6:0x80005014 x26=0x800056bc
       12555000	      1254	80005130	00003197	auipc	x3,0x3	  x3=0x8000812c
       12565000	      1255	80005134	08e18193	addi	x3,x3,142	  x3:0x8000812c  x3=0x800081ba
       12575000	      1256	80005138	00f1c583	lbu	x11,15(x3)	  x3:0x800081ba x11=0x00000000 PA:0x800081c9
       12585000	      1257	8000513c	00131ab3	sll	x21,x6,x1	  x6:0x80005014  x1:0xfffff8b2 x21=0x40500000
       12595000	      1258	80005140	01419b83	lh	x23,20(x3)	  x3:0x800081ba x23=0x00000000 PA:0x800081ce
       12605000	      1259	80005144	00118e83	lb	x29,1(x3)	  x3:0x800081ba x29=0x00000000 PA:0x800081bb
       12615000	      1260	80005148	fe619923	sh	x6,-14(x3)	  x3:0x800081ba  x6:0x80005014 PA:0x800081ac
       12625000	      1261	8000514c	00418d83	lb	x27,4(x3)	  x3:0x800081ba x27=0x00000000 PA:0x800081be
       12635000	      1262	80005150	0031c003	lbu	x0,3(x3)	  x3:0x800081ba PA:0x800081bd
       12645000	      1263	80005154	03318123	sb	x19,34(x3)	  x3:0x800081ba x19:0x92f21a7a PA:0x800081dc
       12655000	      1264	80005158	03618303	lb	x6,54(x3)	  x3:0x800081ba  x6=0x00000000 PA:0x800081f0
       12665000	      1265	8000515c	00000013	addi	x0,x0,0	  x0:0x00000000
       12675000	      1266	80005160	00a76033	or	x0,x14,x10	 x14:0xf936b000 x10:0x00000001
       12685000	      1267	80005164	03e1d303	lhu	x6,62(x3)	  x3:0x800081ba  x6=0x00000000 PA:0x800081f8
       12695000	      1268	80005168	fd4183a3	sb	x20,-57(x3)	  x3:0x800081ba x20:0xbc8685ae PA:0x80008181
       12705000	      1269	8000516c	00218ca3	sb	x2,25(x3)	  x3:0x800081ba  x2:0x0000018a PA:0x800081d3
       12715000	      1270	80005170	01a19023	sh	x26,0(x3)	  x3:0x800081ba x26:0x800056bc PA:0x800081ba
       12725000	      1271	80005174	fe018f23	sb	x0,-2(x3)	  x3:0x800081ba  x0:0x00000000 PA:0x800081b8
       12735000	      1272	80005178	fd219403	lh	x8,-46(x3)	  x3:0x800081ba  x8=0x00000000 PA:0x8000818c
       12745000	      1273	8000517c	00067eb3	and	x29,x12,x0	 x12:0x00000000  x0:0x00000000 x29=0x00000000
       12755000	      1274	80005180	006adc13	srli	x24,x21,0x6	 x21:0x40500000 x24=0x01014000
       12765000	      1275	80005184	00418fa3	sb	x4,31(x3)	  x3:0x800081ba  x4:0x0000039a PA:0x800081d9
       12775000	      1276	80005188	000d26b3	slt	x13,x26,x0	 x26:0x800056bc  x0:0x00000000 x13=0x00000001
       12785000	      1277	8000518c	00000013	addi	x0,x0,0	  x0:0x00000000
       12795000	      1278	80005190	2ebbb913	sltiu	x18,x23,747	 x23:0x00000000 x18=0x00000001
       12805000	      1279	80005194	02419b03	lh	x22,36(x3)	  x3:0x800081ba x22=0x00000000 PA:0x800081de
       12815000	      1280	80005198	ffd1c803	lbu	x16,-3(x3)	  x3:0x800081ba x16=0x00000000 PA:0x800081b7
       12825000	      1281	8000519c	01f1c203	lbu	x4,31(x3)	  x3:0x800081ba  x4=0x0000009a PA:0x800081d9
       12835000	      1282	800051a0	fd519523	sh	x21,-54(x3)	  x3:0x800081ba x21:0x40500000 PA:0x80008184
       12845000	      1283	800051a4	0081c703	lbu	x14,8(x3)	  x3:0x800081ba x14=0x00000000 PA:0x800081c2
       12855000	      1284	800051a8	413400b3	sub	x1,x8,x19	  x8:0x00000000 x19:0x92f21a7a  x1=0x6d0de586
       12865000	      1285	800051ac	fe118ba3	sb	x1,-9(x3)	  x3:0x800081ba  x1:0x6d0de586 PA:0x800081b1
       12875000	      1286	800051b0	02f1cb83	lbu	x23,47(x3)	  x3:0x800081ba x23=0x00000000 PA:0x800081e9
       12885000	      1287	800051b4	00c18383	lb	x7,12(x3)	  x3:0x800081ba  x7=0x00000000 PA:0x800081c6
       12895000	      1288	800051b8	7b4f2d93	slti	x27,x30,1972	 x30:0xba59f46c x27=0x00000001
       12905000	      1289	800051bc	ff51c083	lbu	x1,-11(x3)	  x3:0x800081ba  x1=0x00000000 PA:0x800081af
       12915000	      1290	800051c0	02c19b23	sh	x12,54(x3)	  x3:0x800081ba x12:0x00000000 PA:0x800081f0
       12925000	      1291	800051c4	014189a3	sb	x20,19(x3)	  x3:0x800081ba x20:0xbc8685ae PA:0x800081cd
       12935000	      1292	800051c8	fce18e83	lb	x29,-50(x3)	  x3:0x800081ba x29=0x00000000 PA:0x80008188
       12945000	      1293	800051cc	40c6dbb3	sra	x23,x13,x12	 x13:0x00000001 x12:0x00000000 x23=0x00000001
       12955000	      1294	800051d0	fd918a83	lb	x21,-39(x3)	  x3:0x800081ba x21=0x00000000 PA:0x80008193
       12965000	      1295	800051d4	0361a283	lw	x5,54(x3)	  x3:0x800081ba  x5=0x00000000 PA:0x800081f0
       12975000	      1296	800051d8	fd61d303	lhu	x6,-42(x3)	  x3:0x800081ba  x6=0x00000000 PA:0x80008190
       12985000	      1297	800051dc	00003e97	auipc	x29,0x3	 x29=0x800081d8
       12995000	      1298	800051e0	055e8e93	addi	x29,x29,85	 x29:0x800081d8 x29=0x8000822d
       13005000	      1299	800051e4	075e9d03	lh	x26,117(x29)	 x29:0x8000822d x26=0x00000000 PA:0x800082a2
       13015000	      1300	800051e8	402150b3	sra	x1,x2,x2	  x2:0x0000018a  x2:0x0000018a  x1=0x00000000
       13025000	      1301	800051ec	01f72433	slt	x8,x14,x31	 x14:0x00000000 x31:0x00000081  x8=0x00000001
       13035000	      1302	800051f0	0e9e8a23	sb	x9,244(x29)	 x29:0x8000822d  x9:0xfffff85e PA:0x80008321
       13045000	      1303	800051f4	f82e91a3	sh	x2,-125(x29)	 x29:0x8000822d  x2:0x0000018a PA:0x800081b0
       13055000	      1304	800051f8	f8ce8323	sb	x12,-122(x29)	 x29:0x8000822d x12:0x00000000 PA:0x800081b3
       13065000	      1305	800051fc	016461b3	or	x3,x8,x22	  x8:0x00000001 x22:0x00000000  x3=0x00000001
       13075000	      1306	80005200	02ce8f03	lb	x30,44(x29)	 x29:0x8000822d x30=0x00000000 PA:0x80008259
       13085000	      1307	80005204	08ee8223	sb	x14,132(x29)	 x29:0x8000822d x14:0x00000000 PA:0x800082b1
       13095000	      1308	80005208	01121ab3	sll	x21,x4,x17	  x4:0x0000009a x17:0xfc2f0000 x21=0x0000009a
       13105000	      1309	8000520c	0aaec103	lbu	x2,170(x29)	 x29:0x8000822d  x2=0x00000000 PA:0x800082d7
       13115000	      1310	80005210	f86e8423	sb	x6,-120(x29)	 x29:0x8000822d  x6:0x00000000 PA:0x800081b5
       13125000	      1311	80005214	0d1e89a3	sb	x17,211(x29)	 x29:0x8000822d x17:0xfc2f0000 PA:0x80008300
       13135000	      1312	80005218	f07ead03	lw	x26,-249(x29)	 x29:0x8000822d x26=0x00000000 PA:0x80008134
       13145000	      1313	8000521c	0b2e8683	lb	x13,178(x29)	 x29:0x8000822d x13=0x00000000 PA:0x800082df
       13155000	      1314	80005220	15e3b213	sltiu	x4,x7,350	  x7:0x00000000  x4=0x00000001
       13165000	      1315	80005224	019a8f33	add	x30,x21,x25	 x21:0x0000009a x25:0x80009fc4 x30=0x8000a05e
       13175000	      1316	80005228	0b7e8223	sb	x23,164(x29)	 x29:0x8000822d x23:0x00000001 PA:0x800082d1
       13185000	      1317	8000522c	0d7e8c03	lb	x24,215(x29)	 x29:0x8000822d x24=0x00000000 PA:0x80008304
       13195000	      1318	80005230	f8ce8c23	sb	x12,-104(x29)	 x29:0x8000822d x12:0x00000000 PA:0x800081c5
       13205000	      1319	80005234	0098d5b3	srl	x11,x17,x9	 x17:0xfc2f0000  x9:0xfffff85e x11=0x00000003
       13215000	      1320	80005238	01b18533	add	x10,x3,x27	  x3:0x00000001 x27:0x00000001 x10=0x00000002
       13225000	      1321	8000523c	f23ed083	lhu	x1,-221(x29)	 x29:0x8000822d  x1=0x00000000 PA:0x80008150
       13235000	      1322	80005240	00000013	addi	x0,x0,0	  x0:0x00000000
       13245000	      1323	80005244	00fb36b3	sltu	x13,x22,x15	 x22:0x00000000 x15:0x80009f24 x13=0x00000001
       13255000	      1324	80005248	f8ee8a23	sb	x14,-108(x29)	 x29:0x8000822d x14:0x00000000 PA:0x800081c1
       13265000	      1325	8000524c	f03e8503	lb	x10,-253(x29)	 x29:0x8000822d x10=0x00000000 PA:0x80008130
       13275000	      1326	80005250	ff6e8e23	sb	x22,-4(x29)	 x29:0x8000822d x22:0x00000000 PA:0x80008229
       13285000	      1327	80005254	007add33	srl	x26,x21,x7	 x21:0x0000009a  x7:0x00000000 x26=0x0000009a
       13295000	      1328	80005258	eeb10413	addi	x8,x2,-277	  x2:0x00000000  x8=0xfffffeeb
       13305000	      1329	8000525c	97ecc013	xori	x0,x25,-1666	 x25:0x80009fc4
       13315000	      1330	80005260	f52e8d23	sb	x18,-166(x29)	 x29:0x8000822d x18:0x00000001 PA:0x80008187
       13325000	      1331	80005264	32d7a213	slti	x4,x15,813	 x15:0x80009f24  x4=0x00000001
       13335000	      1332	80005268	fa7ea583	lw	x11,-89(x29)	 x29:0x8000822d x11=0x00000000 PA:0x800081d4
       13345000	      1333	8000526c	fa4ecf83	lbu	x31,-92(x29)	 x29:0x8000822d x31=0x00000000 PA:0x800081d1
       13355000	      1334	80005270	012c2db3	slt	x27,x24,x18	 x24:0x00000000 x18:0x00000001 x27=0x00000001
       13365000	      1335	80005274	ad8e8d97	auipc	x27,0xad8e8	 x27=0x2d8ed270
       13375000	      1336	80005278	f43edf83	lhu	x31,-189(x29)	 x29:0x8000822d x31=0x00000000 PA:0x80008170
       13385000	      1337	8000527c	012e8d23	sb	x18,26(x29)	 x29:0x8000822d x18:0x00000001 PA:0x80008247
       13395000	      1338	80005280	ff7e83a3	sb	x23,-25(x29)	 x29:0x8000822d x23:0x00000001 PA:0x80008214
       13405000	      1339	80005284	019be633	or	x12,x23,x25	 x23:0x00000001 x25:0x80009fc4 x12=0x80009fc5
       13415000	      1340	80005288	013706b3	add	x13,x14,x19	 x14:0x00000000 x19:0x92f21a7a x13=0x92f21a7a
       13425000	      1341	8000528c	58638613	addi	x12,x7,1414	  x7:0x00000000 x12=0x00000586
       13435000	      1342	80005290	faaec403	lbu	x8,-86(x29)	 x29:0x8000822d  x8=0x00000000 PA:0x800081d7
       13445000	      1343	80005294	00003697	auipc	x13,0x3	 x13=0x80008290
       13455000	      1344	80005298	e8768693	addi	x13,x13,-377	 x13:0x80008290 x13=0x80008117
       13465000	      1345	8000529c	ff96df83	lhu	x31,-7(x13)	 x13:0x80008117 x31=0x00000000 PA:0x80008110
       13475000	      1346	800052a0	9eba2293	slti	x5,x20,-1557	 x20:0xbc8685ae  x5=0x00000001
       13485000	      1347	800052a4	5d8c4493	xori	x9,x24,1496	 x24:0x00000000  x9=0x000005d8
       13495000	      1348	800052a8	63dec113	xori	x2,x29,1597	 x29:0x8000822d  x2=0x80008410
       13505000	      1349	800052ac	fff6c183	lbu	x3,-1(x13)	 x13:0x80008117  x3=0x00000000 PA:0x80008116
       13515000	      1350	00000000	00000013	addi	x0,x0,0	  x0:0x00000000
       13525000	      1351	800052b0	003640b3	xor	x1,x12,x3	 x12:0x00000586  x3:0x00000000  x1=0x00000586
       13535000	      1352	800052b4	df45e813	ori	x16,x11,-524	 x11:0x00000000 x16=0xfffffdf4
       13545000	      1353	800052b8	832aaa13	slti	x20,x21,-1998	 x21:0x0000009a x20=0x00000000
       13555000	      1354	800052bc	fff68483	lb	x9,-1(x13)	 x13:0x80008117  x9=0x00000000 PA:0x80008116
       13565000	      1355	800052c0	00a68003	lb	x0,10(x13)	 x13:0x80008117 PA:0x80008121
       13575000	      1356	800052c4	008695a3	sh	x8,11(x13)	 x13:0x80008117  x8:0x00000000 PA:0x80008122
       13585000	      1357	800052c8	00e6a0a3	sw	x14,1(x13)	 x13:0x80008117 x14:0x00000000 PA:0x80008118
       13595000	      1358	800052cc	ff969383	lh	x7,-7(x13)	 x13:0x80008117  x7=0x00000000 PA:0x80008110
       13605000	      1359	800052d0	ff668f03	lb	x30,-10(x13)	 x13:0x80008117 x30=0x00000000 PA:0x8000810d
       13615000	      1360	800052d4	fe668823	sb	x6,-16(x13)	 x13:0x80008117  x6:0x00000000 PA:0x80008107
       13625000	      1361	800052d8	ff868183	lb	x3,-8(x13)	 x13:0x80008117  x3=0x00000000 PA:0x8000810f
       13635000	      1362	800052dc	002ca2b3	slt	x5,x25,x2	 x25:0x80009fc4  x2:0x80008410  x5=0x00000000
       13645000	      1363	800052e0	01e55593	srli	x11,x10,0x1e	 x10:0x00000000 x11=0x00000000
       13655000	      1364	800052e4	01079db3	sll	x27,x15,x16	 x15:0x80009f24 x16:0xfffffdf4 x27=0xf2400000
       13665000	      1365	800052e8	00768603	lb	x12,7(x13)	 x13:0x80008117 x12=0x00000000 PA:0x8000811e
       13675000	      1366	800052ec	00d892b3	sll	x5,x17,x13	 x17:0xfc2f0000 x13:0x80008117  x5=0x00000000
       13685000	      1367	800052f0	01f693a3	sh	x31,7(x13)	 x13:0x80008117 x31:0x00000000 PA:0x8000811e
       13695000	      1368	800052f4	00003e97	auipc	x29,0x3	 x29=0x800082f0
       13705000	      1369	800052f8	233e8e93	addi	x29,x29,563	 x29:0x800082f0 x29=0x80008523
       13715000	      1370	800052fc	ecee8e23	sb	x14,-292(x29)	 x29:0x80008523 x14:0x00000000 PA:0x800083ff
       13725000	      1371	80005300	b7ae8e03	lb	x28,-1158(x29)	 x29:0x80008523 x28=0x00000000 PA:0x8000809d
       13735000	      1372	80005304	df1e82a3	sb	x17,-539(x29)	 x29:0x80008523 x17:0xfc2f0000 PA:0x80008308
       13745000	      1373	80005308	cabe95a3	sh	x11,-853(x29)	 x29:0x80008523 x11:0x00000000 PA:0x800081ce
       13755000	      1374	8000530c	ebfed283	lhu	x5,-321(x29)	 x29:0x80008523  x5=0x00000000 PA:0x800083e2
       13765000	      1375	80005310	097e8503	lb	x10,151(x29)	 x29:0x80008523 x10=0x00000000 PA:0x800085ba
       13775000	      1376	80005314	01412333	slt	x6,x2,x20	  x2:0x80008410 x20:0x00000000  x6=0x00000001
       13785000	      1377	80005318	81edc413	xori	x8,x27,-2018	 x27:0xf2400000  x8=0x0dbff81e
       13795000	      1378	8000531c	ea9ed283	lhu	x5,-343(x29)	 x29:0x80008523  x5=0x00000000 PA:0x800083cc
       13805000	      1379	80005320	cdae80a3	sb	x26,-831(x29)	 x29:0x80008523 x26:0x0000009a PA:0x800081e4
       13815000	      1380	80005324	bafe8a23	sb	x15,-1100(x29)	 x29:0x80008523 x15:0x80009f24 PA:0x800080d7
       13825000	      1381	80005328	cd6e87a3	sb	x22,-817(x29)	 x29:0x80008523 x22:0x00000000 PA:0x800081f2
       13835000	      1382	8000532c	d121bc13	sltiu	x24,x3,-750	  x3:0x00000000 x24=0x00000001
       13845000	      1383	80005330	01da0533	add	x10,x20,x29	 x20:0x00000000 x29:0x80008523 x10=0x80008523
       13855000	      1384	80005334	e39e8483	lb	x9,-455(x29)	 x29:0x80008523  x9=0x00000000 PA:0x8000835c
       13865000	      1385	80005338	40fe86b3	sub	x13,x29,x15	 x29:0x80008523 x15:0x80009f24 x13=0xffffe5ff
       13875000	      1386	8000533c	134e82a3	sb	x20,293(x29)	 x29:0x80008523 x20:0x00000000 PA:0x80008648
       13885000	      1387	80005340	4111de13	srai	x28,x3,0x11	  x3:0x00000000 x28=0x00000000
       13895000	      1388	80005344	403003b3	sub	x7,x0,x3	  x0:0x00000000  x3:0x00000000  x7=0x00000000
       13905000	      1389	80005348	2d9ea503	lw	x10,729(x29)	 x29:0x80008523 x10=0x00000000 PA:0x800087fc
       13915000	      1390	8000534c	e68ec903	lbu	x18,-408(x29)	 x29:0x80008523 x18=0x00000000 PA:0x8000838b
       13925000	      1391	80005350	f24e9ca3	sh	x4,-199(x29)	 x29:0x80008523  x4:0x00000001 PA:0x8000845c
       13935000	      1392	80005354	0cfe84a3	sb	x15,201(x29)	 x29:0x80008523 x15:0x80009f24 PA:0x800085ec
       13945000	      1393	80005358	00294fb3	xor	x31,x18,x2	 x18:0x00000000  x2:0x80008410 x31=0x80008410
       13955000	      1394	8000535c	00a312b3	sll	x5,x6,x10	  x6:0x00000001 x10:0x00000000  x5=0x00000001
       13965000	      1395	80005360	0f2e8f23	sb	x18,254(x29)	 x29:0x80008523 x18:0x00000000 PA:0x80008621
       13975000	      1396	80005364	011bcbb3	xor	x23,x23,x17	 x23:0x00000001 x17:0xfc2f0000 x23=0xfc2f0001
       13985000	      1397	80005368	014122b3	slt	x5,x2,x20	  x2:0x80008410 x20:0x00000000  x5=0x00000001
       13995000	      1398	8000536c	40b0d633	sra	x12,x1,x11	  x1:0x00000586 x11:0x00000000 x12=0x00000586
       14005000	      1399	80005370	cc8e8523	sb	x8,-822(x29)	 x29:0x80008523  x8:0x0dbff81e PA:0x800081ed
       14015000	      1400	80005374	011e43b3	xor	x7,x28,x17	 x28:0x00000000 x17:0xfc2f0000  x7=0xfc2f0000
       14025000	      1401	80005378	00ce5533	srl	x10,x28,x12	 x28:0x00000000 x12:0x00000586 x10=0x00000000
       14035000	      1402	8000537c	40475713	srai	x14,x14,0x4	 x14:0x00000000 x14=0x00000000
       14045000	      1403	80005380	f89ed703	lhu	x14,-119(x29)	 x29:0x80008523 x14=0x00000000 PA:0x800084ac
       14055000	      1404	80005384	269e9aa3	sh	x9,629(x29)	 x29:0x80008523  x9:0x00000000 PA:0x80008798
       14065000	      1405	80005388	004f5f33	srl	x30,x30,x4	 x30:0x00000000  x4:0x00000001 x30=0x00000000
       14075000	      1406	8000538c	b83e8303	lb	x6,-1149(x29)	 x29:0x80008523  x6=0x00000000 PA:0x800080a6
       14085000	      1407	80005390	2d2e88a3	sb	x18,721(x29)	 x29:0x80008523 x18:0x00000000 PA:0x800087f4
       14095000	      1408	80005394	005ec133	xor	x2,x29,x5	 x29:0x80008523  x5:0x00000001  x2=0x80008522
       14105000	      1409	80005398	233ed703	lhu	x14,563(x29)	 x29:0x80008523 x14=0x00000000 PA:0x80008756
       14115000	      1410	8000539c	b65eaf83	lw	x31,-1179(x29)	 x29:0x80008523 x31=0x00000000 PA:0x80008088
       14125000	      1411	800053a0	00000013	addi	x0,x0,0	  x0:0x00000000
       14135000	      1412	800053a4	ec9e8183	lb	x3,-311(x29)	 x29:0x80008523  x3=0x00000000 PA:0x800083ec
       14145000	      1413	800053a8	ec0c80b7	lui	x1,0xec0c8	  x1=0xec0c8000
       14155000	      1414	800053ac	d06e8223	sb	x6,-764(x29)	 x29:0x80008523  x6:0x00000000 PA:0x80008227
       14165000	      1415	800053b0	b74ecf03	lbu	x30,-1164(x29)	 x29:0x80008523 x30=0x00000000 PA:0x80008097
       14175000	      1416	800053b4	ce664b93	xori	x23,x12,-794	 x12:0x00000586 x23=0xfffff960
       14185000	      1417	800053b8	c33eda83	lhu	x21,-973(x29)	 x29:0x80008523 x21=0x00000000 PA:0x80008156
       14195000	      1418	800053bc	00003117	auipc	x2,0x3	  x2=0x800083b8
       14205000	      1419	800053c0	3ac10113	addi	x2,x2,940	  x2:0x800083b8  x2=0x80008764
       14215000	      1420	800053c4	aa914503	lbu	x10,-1367(x2)	  x2:0x80008764 x10=0x00000000 PA:0x8000820d
       14225000	      1421	800053c8	01d97a33	and	x20,x18,x29	 x18:0x00000000 x29:0x80008523 x20=0x00000000
       14235000	      1422	800053cc	98f12a23	sw	x15,-1644(x2)	  x2:0x80008764 x15:0x80009f24 PA:0x800080f8
       14245000	      1423	800053d0	02411323	sh	x4,38(x2)	  x2:0x80008764  x4:0x00000001 PA:0x8000878a
       14255000	      1424	800053d4	005fe433	or	x8,x31,x5	 x31:0x00000000  x5:0x00000001  x8=0x00000001
       14265000	      1425	800053d8	9a714483	lbu	x9,-1625(x2)	  x2:0x80008764  x9=0x00000000 PA:0x8000810b
       14275000	      1426	800053dc	d3a11583	lh	x11,-710(x2)	  x2:0x80008764 x11=0x00000000 PA:0x8000849e
       14285000	      1427	800053e0	b1710fa3	sb	x23,-1249(x2)	  x2:0x80008764 x23:0xfffff960 PA:0x80008283
       14295000	      1428	800053e4	92214d83	lbu	x27,-1758(x2)	  x2:0x80008764 x27=0x00000000 PA:0x80008086
       14305000	      1429	800053e8	01289493	slli	x9,x17,0x12	 x17:0xfc2f0000  x9=0x00000000
       14315000	      1430	800053ec	f0214d03	lbu	x26,-254(x2)	  x2:0x80008764 x26=0x00000000 PA:0x80008666
       14325000	      1431	00000000	00000013	addi	x0,x0,0	  x0:0x00000000
       14335000	      1432	800053f0	01a04fb3	xor	x31,x0,x26	  x0:0x00000000 x26:0x00000000 x31=0x00000000
       14345000	      1433	800053f4	a0012a03	lw	x20,-1536(x2)	  x2:0x80008764 x20=0x00000000 PA:0x80008164
       14355000	      1434	800053f8	9ca15303	lhu	x6,-1590(x2)	  x2:0x80008764  x6=0x00000000 PA:0x8000812e
       14365000	      1435	800053fc	b1611a03	lh	x20,-1258(x2)	  x2:0x80008764 x20=0x00000000 PA:0x8000827a
       14375000	      1436	80005400	af910083	lb	x1,-1287(x2)	  x2:0x80008764  x1=0x00000000 PA:0x8000825d
       14385000	      1437	00000000	00000013	addi	x0,x0,0	  x0:0x00000000
       14395000	      1438	80005404	9260b693	sltiu	x13,x1,-1754	  x1:0x00000000 x13=0x00000001
       14405000	      1439	80005408	b7815283	lhu	x5,-1160(x2)	  x2:0x80008764  x5=0x00000000 PA:0x800082dc
       14415000	      1440	8000540c	00ed1913	slli	x18,x26,0xe	 x26:0x00000000 x18=0x00000000
       14425000	      1441	80005410	c6e11883	lh	x17,-914(x2)	  x2:0x80008764 x17=0x00000000 PA:0x800083d2
       14435000	      1442	80005414	91410a83	lb	x21,-1772(x2)	  x2:0x80008764 x21=0x00000000 PA:0x80008078
       14445000	      1443	80005418	d3010fa3	sb	x16,-705(x2)	  x2:0x80008764 x16:0xfffffdf4 PA:0x800084a3
       14455000	      1444	8000541c	92811503	lh	x10,-1752(x2)	  x2:0x80008764 x10=0x00000000 PA:0x8000808c
       14465000	      1445	00000000	00000013	addi	x0,x0,0	  x0:0x00000000
       14475000	      1446	80005420	00a21db3	sll	x27,x4,x10	  x4:0x00000001 x10:0x00000000 x27=0x00000001
       14485000	      1447	80005424	38e26a93	ori	x21,x4,910	  x4:0x00000001 x21=0x0000038f
       14495000	      1448	80005428	9da10da3	sb	x26,-1573(x2)	  x2:0x80008764 x26:0x00000000 PA:0x8000813f
       14505000	      1449	8000542c	eb310d83	lb	x27,-333(x2)	  x2:0x80008764 x27=0x00000000 PA:0x80008617
       14515000	      1450	80005430	9aa10603	lb	x12,-1622(x2)	  x2:0x80008764 x12=0x00000000 PA:0x8000810e
       14525000	      1451	80005434	f5815283	lhu	x5,-168(x2)	  x2:0x80008764  x5=0x00000000 PA:0x800086bc
       14535000	      1452	80005438	00b10683	lb	x13,11(x2)	  x2:0x80008764 x13=0x00000000 PA:0x8000876f
       14545000	      1453	8000543c	d29d8ab7	lui	x21,0xd29d8	 x21=0xd29d8000
       14555000	      1454	80005440	afc12503	lw	x10,-1284(x2)	  x2:0x80008764 x10=0x00000000 PA:0x80008260
       14565000	      1455	80005444	416b5613	srai	x12,x22,0x16	 x22:0x00000000 x12=0x00000000
       14575000	      1456	80005448	40ed5b13	srai	x22,x26,0xe	 x26:0x00000000 x22=0x00000000
       14585000	      1457	8000544c	a1610e83	lb	x29,-1514(x2)	  x2:0x80008764 x29=0xffffffe2 PA:0x8000817a
       14595000	      1458	80005450	cd415483	lhu	x9,-812(x2)	  x2:0x80008764  x9=0x00000000 PA:0x80008438
       14605000	      1459	80005454	40485413	srai	x8,x16,0x4	 x16:0xfffffdf4  x8=0xffffffdf
       14615000	      1460	80005458	0126ae33	slt	x28,x13,x18	 x13:0x00000000 x18:0x00000000 x28=0x00000000
       14625000	      1461	8000545c	9b210e03	lb	x28,-1614(x2)	  x2:0x80008764 x28=0x00000000 PA:0x80008116
       14635000	      1462	80005460	14b48493	addi	x9,x9,331	  x9:0x00000000  x9=0x0000014b
       14645000	      1463	80005464	400f8b33	sub	x22,x31,x0	 x31:0x00000000  x0:0x00000000 x22=0x00000000
       14655000	      1464	80005468	00c32d33	slt	x26,x6,x12	  x6:0x00000000 x12:0x00000000 x26=0x00000000
       14665000	      1465	8000546c	00b13033	sltu	x0,x2,x11	  x2:0x80008764 x11:0x00000000
       14675000	      1466	80005470	b13102a3	sb	x19,-1275(x2)	  x2:0x80008764 x19:0x92f21a7a PA:0x80008269
       14685000	      1467	80005474	fb114e83	lbu	x29,-79(x2)	  x2:0x80008764 x29=0x00000000 PA:0x80008715
       14695000	      1468	80005478	00003e97	auipc	x29,0x3	 x29=0x80008474
       14705000	      1469	8000547c	ebee8e93	addi	x29,x29,-322	 x29:0x80008474 x29=0x80008332
       14715000	      1470	80005480	87351737	lui	x14,0x87351	 x14=0x87351000
       14725000	      1471	80005484	002d6e33	or	x28,x26,x2	 x26:0x00000000  x2:0x80008764 x28=0x80008764
       14735000	      1472	80005488	f5aea103	lw	x2,-166(x29)	 x29:0x80008332  x2=0x00000000 PA:0x8000828c
       14745000	      1473	8000548c	0191d133	srl	x2,x3,x25	  x3:0x00000000 x25:0x80009fc4  x2=0x00000000
       14755000	      1474	80005490	fa1ecf83	lbu	x31,-95(x29)	 x29:0x80008332 x31=0x00000000 PA:0x800082d3
       14765000	      1475	80005494	040e8003	lb	x0,64(x29)	 x29:0x80008332 PA:0x80008372
       14775000	      1476	80005498	0aae3893	sltiu	x17,x28,170	 x28:0x80008764 x17=0x00000000
       14785000	      1477	8000549c	01c3d3b3	srl	x7,x7,x28	  x7:0xfc2f0000 x28:0x80008764  x7=0x0fc2f000
       14795000	      1478	800054a0	f56b4013	xori	x0,x22,-170	 x22:0x00000000
       14805000	      1479	800054a4	0c5ec403	lbu	x8,197(x29)	 x29:0x80008332  x8=0x00000000 PA:0x800083f7
       14815000	      1480	800054a8	0041a833	slt	x16,x3,x4	  x3:0x00000000  x4:0x00000001 x16=0x00000001
       14825000	      1481	800054ac	00c7cfb3	xor	x31,x15,x12	 x15:0x80009f24 x12:0x00000000 x31=0x80009f24
       14835000	      1482	800054b0	051e85a3	sb	x17,75(x29)	 x29:0x80008332 x17:0x00000000 PA:0x8000837d
       14845000	      1483	800054b4	a51a7013	andi	x0,x20,-1455	 x20:0x00000000
       14855000	      1484	800054b8	f93e8583	lb	x11,-109(x29)	 x29:0x80008332 x11=0xffffff9f PA:0x800082c5
       14865000	      1485	800054bc	0cae9803	lh	x16,202(x29)	 x29:0x80008332 x16=0x00000000 PA:0x800083fc
       14875000	      1486	800054c0	005ce233	or	x4,x25,x5	 x25:0x80009fc4  x5:0x00000000  x4=0x80009fc4
       14885000	      1487	800054c4	f21e8ea3	sb	x1,-195(x29)	 x29:0x80008332  x1:0x00000000 PA:0x8000826f
       14895000	      1488	800054c8	007f9133	sll	x2,x31,x7	 x31:0x80009f24  x7:0x0fc2f000  x2=0x80009f24
       14905000	      1489	800054cc	00aa7533	and	x10,x20,x10	 x20:0x00000000 x10:0x00000000 x10=0x00000000
       14915000	      1490	800054d0	01cffa33	and	x20,x31,x28	 x31:0x80009f24 x28:0x80008764 x20=0x80008724
       14925000	      1491	800054d4	09decd83	lbu	x27,157(x29)	 x29:0x80008332 x27=0x00000000 PA:0x800083cf
       14935000	      1492	800054d8	01a030b3	sltu	x1,x0,x26	  x0:0x00000000 x26:0x00000000  x1=0x00000000
       14945000	      1493	800054dc	f64e8183	lb	x3,-156(x29)	 x29:0x80008332  x3=0xffffffe2 PA:0x80008296
       14955000	      1494	800054e0	00d28e33	add	x28,x5,x13	  x5:0x00000000 x13:0x00000000 x28=0x00000000
       14965000	      1495	800054e4	00000013	addi	x0,x0,0	  x0:0x00000000
       14975000	      1496	800054e8	40c68f33	sub	x30,x13,x12	 x13:0x00000000 x12:0x00000000 x30=0x00000000
       14985000	      1497	800054ec	f95ec883	lbu	x17,-107(x29)	 x29:0x80008332 x17=0x00000000 PA:0x800082c7
       14995000	      1498	800054f0	0173d1b3	srl	x3,x7,x23	  x7:0x0fc2f000 x23:0xfffff960  x3=0x0fc2f000
       15005000	      1499	800054f4	754f6737	lui	x14,0x754f6	 x14=0x754f6000
       15015000	      1500	800054f8	f4ee9d23	sh	x14,-166(x29)	 x29:0x80008332 x14:0x754f6000 PA:0x8000828c
       15025000	      1501	800054fc	04bec103	lbu	x2,75(x29)	 x29:0x80008332  x2=0x00000000 PA:0x8000837d
       15035000	      1502	80005500	00000013	addi	x0,x0,0	  x0:0x00000000
       15045000	      1503	80005504	0b1ece03	lbu	x28,177(x29)	 x29:0x80008332 x28=0x00000000 PA:0x800083e3
       15055000	      1504	80005508	01b29db3	sll	x27,x5,x27	  x5:0x00000000 x27:0x00000000 x27=0x00000000
       15065000	      1505	8000550c	004ca333	slt	x6,x25,x4	 x25:0x80009fc4  x4:0x80009fc4  x6=0x00000000
       15075000	      1506	80005510	f9be9123	sh	x27,-126(x29)	 x29:0x80008332 x27:0x00000000 PA:0x800082b4
       15085000	      1507	80005514	f4be9823	sh	x11,-176(x29)	 x29:0x80008332 x11:0xffffff9f PA:0x80008282
       15095000	      1508	80005518	060e9e03	lh	x28,96(x29)	 x29:0x80008332 x28=0x00000000 PA:0x80008392
       15105000	      1509	8000551c	00a05d13	srli	x26,x0,0xa	  x0:0x00000000 x26=0x00000000
       15115000	      1510	80005520	083e8e23	sb	x3,156(x29)	 x29:0x80008332  x3:0x0fc2f000 PA:0x800083ce
       15125000	      1511	80005524	41b08b13	addi	x22,x1,1051	  x1:0x00000000 x22=0x0000041b
       15135000	      1512	80005528	003aaa33	slt	x20,x21,x3	 x21:0xd29d8000  x3:0x0fc2f000 x20=0x00000001
       15145000	      1513	8000552c	00429393	slli	x7,x5,0x4	  x5:0x00000000  x7=0x00000000
       15155000	      1514	80005530	030e9723	sh	x16,46(x29)	 x29:0x80008332 x16:0x00000000 PA:0x80008360
       15165000	      1515	80005534	fc8e8c23	sb	x8,-40(x29)	 x29:0x80008332  x8:0x00000000 PA:0x8000830a
       15175000	      1516	80005538	00d80433	add	x8,x16,x13	 x16:0x00000000 x13:0x00000000  x8=0x00000000
       15185000	      1517	8000553c	f41e8da3	sb	x1,-165(x29)	 x29:0x80008332  x1:0x00000000 PA:0x8000828d
       15195000	      1518	80005540	00003917	auipc	x18,0x3	 x18=0x8000853c
       15205000	      1519	80005544	ec990913	addi	x18,x18,-311	 x18:0x8000853c x18=0x80008405
       15215000	      1520	80005548	416d5633	sra	x12,x26,x22	 x26:0x00000000 x22:0x0000041b x12=0x00000000
       15225000	      1521	8000554c	ffb90ea3	sb	x27,-3(x18)	 x18:0x80008405 x27:0x00000000 PA:0x80008402
       15235000	      1522	80005550	00094683	lbu	x13,0(x18)	 x18:0x80008405 x13=0x00000000 PA:0x80008405
       15245000	      1523	80005554	f3c62d13	slti	x26,x12,-196	 x12:0x00000000 x26=0x00000000
       15255000	      1524	80005558	00000013	addi	x0,x0,0	  x0:0x00000000
       15265000	      1525	8000555c	fe890c23	sb	x8,-8(x18)	 x18:0x80008405  x8:0x00000000 PA:0x800083fd
       15275000	      1526	80005560	01e1aab3	slt	x21,x3,x30	  x3:0x0fc2f000 x30:0x00000000 x21=0x00000000
       15285000	      1527	80005564	ffd91d03	lh	x26,-3(x18)	 x18:0x80008405 x26=0x00000000 PA:0x80008402
       15295000	      1528	80005568	00ab7833	and	x16,x22,x10	 x22:0x0000041b x10:0x00000000 x16=0x00000000
       15305000	      1529	8000556c	ff894383	lbu	x7,-8(x18)	 x18:0x80008405  x7=0x00000000 PA:0x800083fd
       15315000	      1530	80005570	011c4bb3	xor	x23,x24,x17	 x24:0x00000001 x17:0x00000000 x23=0x00000001
       15325000	      1531	80005574	01d78d33	add	x26,x15,x29	 x15:0x80009f24 x29:0x80008332 x26=0x00012256
       15335000	      1532	80005578	00b92e03	lw	x28,11(x18)	 x18:0x80008405 x28=0x00000000 PA:0x80008410
       15345000	      1533	8000557c	fee918a3	sh	x14,-15(x18)	 x18:0x80008405 x14:0x754f6000 PA:0x800083f6
       15355000	      1534	80005580	00294603	lbu	x12,2(x18)	 x18:0x80008405 x12=0x00000000 PA:0x80008407
       15365000	      1535	80005584	012d1813	slli	x16,x26,0x12	 x26:0x00012256 x16=0x89580000
       15375000	      1536	80005588	ff791003	lh	x0,-9(x18)	 x18:0x80008405 PA:0x800083fc
       15385000	      1537	8000558c	00f94b03	lbu	x22,15(x18)	 x18:0x80008405 x22=0x00000000 PA:0x80008414
       15395000	      1538	80005590	01a90023	sb	x26,0(x18)	 x18:0x80008405 x26:0x00012256 PA:0x80008405
       15405000	      1539	80005594	00094d03	lbu	x26,0(x18)	 x18:0x80008405 x26=0x00000056 PA:0x80008405
       15415000	      1540	80005598	4176d413	srai	x8,x13,0x17	 x13:0x00000000  x8=0x00000000
       15425000	      1541	8000559c	9b106e97	auipc	x29,0x9b106	 x29=0x1b10b598
       15435000	      1542	800055a0	ff894103	lbu	x2,-8(x18)	 x18:0x80008405  x2=0x00000000 PA:0x800083fd
       15445000	      1543	00000000	00000013	addi	x0,x0,0	  x0:0x00000000
       15455000	      1544	800055a4	0022e433	or	x8,x5,x2	  x5:0x00000000  x2:0x00000000  x8=0x00000000
       15465000	      1545	800055a8	ff995283	lhu	x5,-7(x18)	 x18:0x80008405  x5=0x00000000 PA:0x800083fe
       15475000	      1546	800055ac	ff490683	lb	x13,-12(x18)	 x18:0x80008405 x13=0x00000000 PA:0x800083f9
       15485000	      1547	00000000	00000013	addi	x0,x0,0	  x0:0x00000000
       15495000	      1548	800055b0	00d91203	lh	x4,13(x18)	 x18:0x80008405  x4=0x00000000 PA:0x80008412
       15505000	      1549	800055b4	72be5fb7	lui	x31,0x72be5	 x31=0x72be5000
       15515000	      1550	800055b8	df710a93	addi	x21,x2,-521	  x2:0x00000000 x21=0xfffffdf7
       15525000	      1551	800055bc	01f3c3b3	xor	x7,x7,x31	  x7:0x00000000 x31:0x72be5000  x7=0x72be5000
       15535000	      1552	800055c0	00f95183	lhu	x3,15(x18)	 x18:0x80008405  x3=0x00000000 PA:0x80008414
       15545000	      1553	800055c4	015862b3	or	x5,x16,x21	 x16:0x89580000 x21:0xfffffdf7  x5=0xfffffdf7
       15555000	      1554	800055c8	00d22e33	slt	x28,x4,x13	  x4:0x00000000 x13:0x00000000 x28=0x00000000
       15565000	      1555	800055cc	009198b3	sll	x17,x3,x9	  x3:0x00000000  x9:0x0000014b x17=0x00000000
       15575000	      1556	800055d0	fea91ca3	sh	x10,-7(x18)	 x18:0x80008405 x10:0x00000000 PA:0x800083fe
       15585000	      1557	800055d4	00c90323	sb	x12,6(x18)	 x18:0x80008405 x12:0x00000000 PA:0x8000840b
       15595000	      1558	800055d8	00795183	lhu	x3,7(x18)	 x18:0x80008405  x3=0x00000000 PA:0x8000840c
       15605000	      1559	800055dc	01acd013	srli	x0,x25,0x1a	 x25:0x80009fc4
       15615000	      1560	800055e0	ff594b83	lbu	x23,-11(x18)	 x18:0x80008405 x23=0x00000000 PA:0x800083fa
       15625000	      1561	800055e4	76ec70b7	lui	x1,0x76ec7	  x1=0x76ec7000
       15635000	      1562	800055e8	00e900a3	sb	x14,1(x18)	 x18:0x80008405 x14:0x754f6000 PA:0x80008406
       15645000	      1563	800055ec	00190f03	lb	x30,1(x18)	 x18:0x80008405 x30=0x00000000 PA:0x80008406
       15655000	      1564	800055f0	ff394083	lbu	x1,-13(x18)	 x18:0x80008405  x1=0x00000000 PA:0x800083f8
       15665000	      1565	800055f4	014915b3	sll	x11,x18,x20	 x18:0x80008405 x20:0x00000001 x11=0x0001080a
       15675000	      1566	800055f8	19306e97	auipc	x29,0x19306	 x29=0x9930b5f4
       15685000	      1567	800055fc	01445633	srl	x12,x8,x20	  x8:0x00000000 x20:0x00000001 x12=0x00000000
       15695000	      1568	80005600	ffc90f03	lb	x30,-4(x18)	 x18:0x80008405 x30=0x00000000 PA:0x80008401
       15705000	      1569	80005604	41d053b3	sra	x7,x0,x29	  x0:0x00000000 x29:0x9930b5f4  x7=0x00000000
       15715000	      1570	80005608	004a1613	slli	x12,x20,0x4	 x20:0x00000001 x12=0x00000010
       15725000	      1571	8000560c	0096c6b3	xor	x13,x13,x9	 x13:0x00000000  x9:0x0000014b x13=0x0000014b
       15735000	      1572	80005610	00191083	lh	x1,1(x18)	 x18:0x80008405  x1=0x00000000 PA:0x80008406
       15745000	      1573	80005614	ffe94c03	lbu	x24,-2(x18)	 x18:0x80008405 x24=0x00000000 PA:0x80008403
       15755000	      1574	80005618	ffe90203	lb	x4,-2(x18)	 x18:0x80008405  x4=0x00000000 PA:0x80008403
       15765000	      1575	8000561c	014a64b3	or	x9,x20,x20	 x20:0x00000001 x20:0x00000001  x9=0x00000001
       15775000	      1576	80005620	01c95c63	bge	x18,x28,80005638	 x18:0x80008405 x28:0x00000000
       15785000	      1577	80005624	007e5113	srli	x2,x28,0x7	 x28:0x00000000  x2=0x00000000
       15795000	      1578	80005628	11d9b113	sltiu	x2,x19,285	 x19:0x92f21a7a  x2=0x00000000
       15805000	      1579	8000562c	41cc0233	sub	x4,x24,x28	 x24:0x00000000 x28:0x00000000  x4=0x00000000
       15815000	      1580	80005630	048f5663	bge	x30,x8,8000567c	 x30:0x00000000  x8:0x00000000
       15825000	      1581	00000000	00000013	addi	x0,x0,0	  x0:0x00000000
       15835000	      1582	80005678	00000013	addi	x0,x0,0	  x0:0x00000000
       15845000	      1583	8000567c	007e1a33	sll	x20,x28,x7	 x28:0x00000000  x7:0x00000000 x20=0x00000000
       15855000	      1584	80005680	01f90a63	beq	x18,x31,80005694	 x18:0x80008405 x31:0x72be5000
       15865000	      1585	80005684	db830213	addi	x4,x6,-584	  x6:0x00000000  x4=0xfffffdb8
       15875000	      1586	80005688	9222cb93	xori	x23,x5,-1758	  x5:0xfffffdf7 x23=0x000004d5
       15885000	      1587	8000568c	0074e263	bltu	x9,x7,80005690	  x9:0x00000001  x7:0x00000000
       15895000	      1588	80005690	03bb5263	bge	x22,x27,800056b4	 x22:0x00000000 x27:0x00000000
       15905000	      1589	00000000	00000013	addi	x0,x0,0	  x0:0x00000000
       15915000	      1590	800056b0	00000013	addi	x0,x0,0	  x0:0x00000000
       15925000	      1591	800056b4	29e1e693	ori	x13,x3,670	  x3:0x00000000 x13=0x0000029e
       15935000	      1592	800056b8	f0518f13	addi	x30,x3,-251	  x3:0x00000000 x30=0xffffff05
       15945000	      1593	800056bc	01fb1093	slli	x1,x22,0x1f	 x22:0x00000000  x1=0x00000000
       15955000	      1594	800056c0	03dd6663	bltu	x26,x29,800056ec	 x26:0x00000056 x29:0x9930b5f4
       15965000	      1595	00000000	00000013	addi	x0,x0,0	  x0:0x00000000
       15975000	      1596	800056e8	00000013	addi	x0,x0,0	  x0:0x00000000
       15985000	      1597	800056ec	41dc58b3	sra	x17,x24,x29	 x24:0x00000000 x29:0x9930b5f4 x17=0x00000000
       15995000	      1598	800056f0	002b1093	slli	x1,x22,0x2	 x22:0x00000000  x1=0x00000000
       16005000	      1599	800056f4	0076f6b3	and	x13,x13,x7	 x13:0x0000029e  x7:0x00000000 x13=0x00000000
       16015000	      1600	800056f8	40e40b33	sub	x22,x8,x14	  x8:0x00000000 x14:0x754f6000 x22=0x8ab0a000
       16025000	      1601	800056fc	01242b33	slt	x22,x8,x18	  x8:0x00000000 x18:0x80008405 x22=0x00000000
       16035000	      1602	80005700	011b5263	bge	x22,x17,80005704	 x22:0x00000000 x17:0x00000000
       16045000	      1603	00000000	00000013	addi	x0,x0,0	  x0:0x00000000
       16055000	      1604	80005700	00000013	addi	x0,x0,0	  x0:0x00000000
       16065000	      1605	80005704	17e1a513	slti	x10,x3,382	  x3:0x00000000 x10=0x00000001
       16075000	      1606	80005708	018d1893	slli	x17,x26,0x18	 x26:0x00000056 x17=0x56000000
       16085000	      1607	8000570c	03c69a63	bne	x13,x28,80005740	 x13:0x00000000 x28:0x00000000
       16095000	      1608	80005710	01edde93	srli	x29,x27,0x1e	 x27:0x00000000 x29=0x00000000
       16105000	      1609	80005714	d2ce51b7	lui	x3,0xd2ce5	  x3=0xd2ce5000
       16115000	      1610	80005718	055a8663	beq	x21,x21,80005764	 x21:0xfffffdf7 x21:0xfffffdf7
       16125000	      1611	00000000	00000013	addi	x0,x0,0	  x0:0x00000000
       16135000	      1612	80005760	00000013	addi	x0,x0,0	  x0:0x00000000
       16145000	      1613	80005764	ef41fe13	andi	x28,x3,-268	  x3:0xd2ce5000 x28=0xd2ce5000
       16155000	      1614	80005768	0302d463	bge	x5,x16,80005790	  x5:0xfffffdf7 x16:0x89580000
       16165000	      1615	00000000	00000013	addi	x0,x0,0	  x0:0x00000000
       16175000	      1616	8000578c	00000013	addi	x0,x0,0	  x0:0x00000000
       16185000	      1617	80005790	00000013	addi	x0,x0,0	  x0:0x00000000
       16195000	      1618	80005794	03e6e063	bltu	x13,x30,800057b4	 x13:0x00000000 x30:0xffffff05
       16205000	      1619	00000000	00000013	addi	x0,x0,0	  x0:0x00000000
       16215000	      1620	800057b0	00000013	addi	x0,x0,0	  x0:0x00000000
       16225000	      1621	800057b4	8c33cab7	lui	x21,0x8c33c	 x21=0x8c33c000
       16235000	      1622	800057b8	00b60d33	add	x26,x12,x11	 x12:0x00000010 x11:0x0001080a x26=0x0001081a
       16245000	      1623	800057bc	00bfc263	blt	x31,x11,800057c0	 x31:0x72be5000 x11:0x0001080a
       16255000	      1624	800057c0	00419d93	slli	x27,x3,0x4	  x3:0xd2ce5000 x27=0x2ce50000
       16265000	      1625	800057c4	05dd6663	bltu	x26,x29,80005810	 x26:0x0001081a x29:0x00000000
       16275000	      1626	800057c8	036f6063	bltu	x30,x22,800057e8	 x30:0xffffff05 x22:0x00000000
       16285000	      1627	800057cc	015804b3	add	x9,x16,x21	 x16:0x89580000 x21:0x8c33c000  x9=0x158bc000
       16295000	      1628	800057d0	402e58b3	sra	x17,x28,x2	 x28:0xd2ce5000  x2:0x00000000 x17=0xd2ce5000
       16305000	      1629	800057d4	007adf13	srli	x30,x21,0x7	 x21:0x8c33c000 x30=0x01186780
       16315000	      1630	800057d8	0014d5b3	srl	x11,x9,x1	  x9:0x158bc000  x1:0x00000000 x11=0x158bc000
       16325000	      1631	800057dc	4173da33	sra	x20,x7,x23	  x7:0x00000000 x23:0x000004d5 x20=0x00000000
       16335000	      1632	800057e0	03b1de63	bge	x3,x27,8000581c	  x3:0xd2ce5000 x27:0x2ce50000
       16345000	      1633	800057e4	cdbaa013	slti	x0,x21,-805	 x21:0x8c33c000
       16355000	      1634	800057e8	001e7fb3	and	x31,x28,x1	 x28:0xd2ce5000  x1:0x00000000 x31=0x00000000
       16365000	      1635	800057ec	046f4063	blt	x30,x6,8000582c	 x30:0x01186780  x6:0x00000000
       16375000	      1636	800057f0	01b21033	sll	x0,x4,x27	  x4:0xfffffdb8 x27:0x2ce50000
       16385000	      1637	800057f4	95f93613	sltiu	x12,x18,-1697	 x18:0x80008405 x12=0x00000001
       16395000	      1638	800057f8	01a5fd33	and	x26,x11,x26	 x11:0x158bc000 x26:0x0001081a x26=0x00010000
       16405000	      1639	800057fc	01cd43b3	xor	x7,x26,x28	 x26:0x00010000 x28:0xd2ce5000  x7=0xd2cf5000
       16415000	      1640	80005800	008032b3	sltu	x5,x0,x8	  x0:0x00000000  x8:0x00000000  x5=0x00000000
       16425000	      1641	80005804	1c37a097	auipc	x1,0x1c37a	  x1=0x9c37f800
       16435000	      1642	80005808	97137213	andi	x4,x6,-1679	  x6:0x00000000  x4=0x00000000
       16445000	      1643	8000580c	04371263	bne	x14,x3,80005850	 x14:0x754f6000  x3:0xd2ce5000
       16455000	      1644	00000000	00000013	addi	x0,x0,0	  x0:0x00000000
       16465000	      1645	8000584c	00000013	addi	x0,x0,0	  x0:0x00000000
       16475000	      1646	80005850	002fb933	sltu	x18,x31,x2	 x31:0x00000000  x2:0x00000000 x18=0x00000000
       16485000	      1647	80005854	00121d93	slli	x27,x4,0x1	  x4:0x00000000 x27=0x00000000
       16495000	      1648	80005858	011083b3	add	x7,x1,x17	  x1:0x9c37f800 x17:0xd2ce5000  x7=0x6f064800
       16505000	      1649	8000585c	ee242693	slti	x13,x8,-286	  x8:0x00000000 x13=0x00000000
       16515000	      1650	80005860	01cac2b3	xor	x5,x21,x28	 x21:0x8c33c000 x28:0xd2ce5000  x5=0x5efd9000
       16525000	      1651	80005864	40c3db13	srai	x22,x7,0xc	  x7:0x6f064800 x22=0x0006f064
       16535000	      1652	80005868	a4406693	ori	x13,x0,-1468	  x0:0x00000000 x13=0xfffffa44
       16545000	      1653	8000586c	01870233	add	x4,x14,x24	 x14:0x754f6000 x24:0x00000000  x4=0x754f6000
       16555000	      1654	80005870	00000013	addi	x0,x0,0	  x0:0x00000000
       16565000	      1655	80005874	aef26e93	ori	x29,x4,-1297	  x4:0x754f6000 x29=0xfffffaef
       16575000	      1656	80005878	00923ab3	sltu	x21,x4,x9	  x4:0x754f6000  x9:0x158bc000 x21=0x00000000
       16585000	      1657	8000587c	00927133	and	x2,x4,x9	  x4:0x754f6000  x9:0x158bc000  x2=0x150b4000
       16595000	      1658	80005880	fc86cd97	auipc	x27,0xfc86c	 x27=0x7c87187c
       16605000	      1659	80005884	bd062893	slti	x17,x12,-1072	 x12:0x00000001 x17=0x00000000
       16615000	      1660	80005888	0197b2b3	sltu	x5,x15,x25	 x15:0x80009f24 x25:0x80009fc4  x5=0x00000001
       16625000	      1661	8000588c	0070b033	sltu	x0,x1,x7	  x1:0x9c37f800  x7:0x6f064800
       16635000	      1662	80005890	400ad313	srai	x6,x21,0x0	 x21:0x00000000  x6=0x00000000
       16645000	      1663	80005894	05914893	xori	x17,x2,89	  x2:0x150b4000 x17=0x150b4059
       16655000	      1664	80005898	00bb6eb3	or	x29,x22,x11	 x22:0x0006f064 x11:0x158bc000 x29=0x158ff064
       16665000	      1665	8000589c	009924b3	slt	x9,x18,x9	 x18:0x00000000  x9:0x158bc000  x9=0x00000001
       16675000	      1666	800058a0	0083cc63	blt	x7,x8,800058b8	  x7:0x6f064800  x8:0x00000000
       16685000	      1667	800058a4	00deec63	bltu	x29,x13,800058bc	 x29:0x158ff064 x13:0xfffffa44
       16695000	      1668	00000000	00000013	addi	x0,x0,0	  x0:0x00000000
       16705000	      1669	800058b8	00000013	addi	x0,x0,0	  x0:0x00000000
       16715000	      1670	800058bc	019b9193	slli	x3,x23,0x19	 x23:0x000004d5  x3=0xaa000000
       16725000	      1671	800058c0	e6c30117	auipc	x2,0xe6c30	  x2=0x66c358bc
       16735000	      1672	800058c4	03810263	beq	x2,x24,800058e8	  x2:0x66c358bc x24:0x00000000
       16745000	      1673	800058c8	9cc26337	lui	x6,0x9cc26	  x6=0x9cc26000
       16755000	      1674	800058cc	04fc5063	bge	x24,x15,8000590c	 x24:0x00000000 x15:0x80009f24
       16765000	      1675	00000000	00000013	addi	x0,x0,0	  x0:0x00000000
       16775000	      1676	80005908	00000013	addi	x0,x0,0	  x0:0x00000000
       16785000	      1677	8000590c	41b95f93	srai	x31,x18,0x1b	 x18:0x00000000 x31=0x00000000
       16795000	      1678	80005910	410400b3	sub	x1,x8,x16	  x8:0x00000000 x16:0x89580000  x1=0x76a80000
       16805000	      1679	80005914	fa73ee93	ori	x29,x7,-89	  x7:0x6f064800 x29=0xffffffa7
       16815000	      1680	80005918	01115613	srli	x12,x2,0x11	  x2:0x66c358bc x12=0x00003361
       16825000	      1681	8000591c	40ad56b3	sra	x13,x26,x10	 x26:0x00010000 x10:0x00000001 x13=0x00008000
       16835000	      1682	80005920	00000013	addi	x0,x0,0	  x0:0x00000000
       16845000	      1683	80005924	8a40cb13	xori	x22,x1,-1884	  x1:0x76a80000 x22=0x8957f8a4
       16855000	      1684	80005928	813ae313	ori	x6,x21,-2029	 x21:0x00000000  x6=0xfffff813
       16865000	      1685	8000592c	0175e0b3	or	x1,x11,x23	 x11:0x158bc000 x23:0x000004d5  x1=0x158bc4d5
       16875000	      1686	80005930	403bdc33	sra	x24,x23,x3	 x23:0x000004d5  x3:0xaa000000 x24=0x000004d5
       16885000	      1687	80005934	a093c413	xori	x8,x7,-1527	  x7:0x6f064800  x8=0x90f9b209
       16895000	      1688	80005938	034e5863	bge	x28,x20,80005968	 x28:0xd2ce5000 x20:0x00000000
       16905000	      1689	8000593c	01d985b3	add	x11,x19,x29	 x19:0x92f21a7a x29:0xffffffa7 x11=0x92f21a21
       16915000	      1690	80005940	0219a397	auipc	x7,0x219a	  x7=0x8219f93c
       16925000	      1691	80005944	00762b33	slt	x22,x12,x7	 x12:0x00003361  x7:0x8219f93c x22=0x00000000
       16935000	      1692	80005948	00f75293	srli	x5,x14,0xf	 x14:0x754f6000  x5=0x0000ea9e
       16945000	      1693	8000594c	417f51b3	sra	x3,x30,x23	 x30:0x01186780 x23:0x000004d5  x3=0x00000008
       16955000	      1694	80005950	b62520b7	lui	x1,0xb6252	  x1=0xb6252000
       16965000	      1695	80005954	40245133	sra	x2,x8,x2	  x8:0x90f9b209  x2:0x66c358bc  x2=0xfffffff9
       16975000	      1696	80005958	64c6e613	ori	x12,x13,1612	 x13:0x00008000 x12=0x0000864c
       16985000	      1697	8000595c	01e41533	sll	x10,x8,x30	  x8:0x90f9b209 x30:0x01186780 x10=0x90f9b209
       16995000	      1698	80005960	be3bf617	auipc	x12,0xbe3bf	 x12=0x3e3c495c
       17005000	      1699	80005964	68920593	addi	x11,x4,1673	  x4:0x754f6000 x11=0x754f6689
       17015000	      1700	80005968	015daa33	slt	x20,x27,x21	 x27:0x7c87187c x21:0x00000000 x20=0x00000000
       17025000	      1701	8000596c	c53494b7	lui	x9,0xc5349	  x9=0xc5349000
       17035000	      1702	80005970	031a9463	bne	x21,x17,80005998	 x21:0x00000000 x17:0x150b4059
       17045000	      1703	00000000	00000013	addi	x0,x0,0	  x0:0x00000000
       17055000	      1704	80005994	00000013	addi	x0,x0,0	  x0:0x00000000
       17065000	      1705	80005998	02839863	bne	x7,x8,800059c8	  x7:0x8219f93c  x8:0x90f9b209
       17075000	      1706	00000000	00000013	addi	x0,x0,0	  x0:0x00000000
       17085000	      1707	800059c4	00000013	addi	x0,x0,0	  x0:0x00000000
       17095000	      1708	800059c8	d622bf93	sltiu	x31,x5,-670	  x5:0x0000ea9e x31=0x00000001
       17105000	      1709	800059cc	01d01a33	sll	x20,x0,x29	  x0:0x00000000 x29:0xffffffa7 x20=0x00000000
       17115000	      1710	800059d0	0081fbb3	and	x23,x3,x8	  x3:0x00000008  x8:0x90f9b209 x23=0x00000008
       17125000	      1711	800059d4	41dea513	slti	x10,x29,1053	 x29:0xffffffa7 x10=0x00000001
       17135000	      1712	800059d8	439ee813	ori	x16,x29,1081	 x29:0xffffffa7 x16=0xffffffbf
       17145000	      1713	800059dc	416100b3	sub	x1,x2,x22	  x2:0xfffffff9 x22:0x00000000  x1=0xfffffff9
       17155000	      1714	800059e0	1562ca13	xori	x20,x5,342	  x5:0x0000ea9e x20=0x0000ebc8
       17165000	      1715	800059e4	10f03e93	sltiu	x29,x0,271	  x0:0x00000000 x29=0x00000001
       17175000	      1716	800059e8	006d6263	bltu	x26,x6,800059ec	 x26:0x00010000  x6:0xfffff813
       17185000	      1717	00000000	00000013	addi	x0,x0,0	  x0:0x00000000
       17195000	      1718	800059e8	00000013	addi	x0,x0,0	  x0:0x00000000
       17205000	      1719	800059ec	00a0fa33	and	x20,x1,x10	  x1:0xfffffff9 x10:0x00000001 x20=0x00000001
       17215000	      1720	800059f0	026dc663	blt	x27,x6,80005a1c	 x27:0x7c87187c  x6:0xfffff813
       17225000	      1721	800059f4	002cf1b3	and	x3,x25,x2	 x25:0x80009fc4  x2:0xfffffff9  x3=0x80009fc0
       17235000	      1722	800059f8	41ab51b3	sra	x3,x22,x26	 x22:0x00000000 x26:0x00010000  x3=0x00000000
       17245000	      1723	800059fc	0219f663	bgeu	x19,x1,80005a28	 x19:0x92f21a7a  x1:0xfffffff9
       17255000	      1724	80005a00	00a23033	sltu	x0,x4,x10	  x4:0x754f6000 x10:0x00000001
       17265000	      1725	80005a04	00000013	addi	x0,x0,0	  x0:0x00000000
       17275000	      1726	80005a08	0c6f1b97	auipc	x23,0xc6f1	 x23=0x8c6f6a04
       17285000	      1727	80005a0c	013b32b3	sltu	x5,x22,x19	 x22:0x00000000 x19:0x92f21a7a  x5=0x00000001
       17295000	      1728	80005a10	0148d093	srli	x1,x17,0x14	 x17:0x150b4059  x1=0x00000150
       17305000	      1729	80005a14	01982ab3	slt	x21,x16,x25	 x16:0xffffffbf x25:0x80009fc4 x21=0x00000000
       17315000	      1730	80005a18	01608f33	add	x30,x1,x22	  x1:0x00000150 x22:0x00000000 x30=0x00000150
       17325000	      1731	80005a1c	baebbd17	auipc	x26,0xbaebb	 x26=0x3aec0a18
       17335000	      1732	80005a20	00feca33	xor	x20,x29,x15	 x29:0x00000001 x15:0x80009f24 x20=0x80009f25
       17345000	      1733	80005a24	024dc063	blt	x27,x4,80005a44	 x27:0x7c87187c  x4:0x754f6000
       17355000	      1734	80005a28	aa0ceb13	ori	x22,x25,-1376	 x25:0x80009fc4 x22=0xffffffe4
       17365000	      1735	80005a2c	40c404b3	sub	x9,x8,x12	  x8:0x90f9b209 x12:0x3e3c495c  x9=0x52bd68ad
       17375000	      1736	80005a30	01851093	slli	x1,x10,0x18	 x10:0x00000001  x1=0x01000000
       17385000	      1737	80005a34	01bb36b3	sltu	x13,x22,x27	 x22:0xffffffe4 x27:0x7c87187c x13=0x00000000
       17395000	      1738	80005a38	04c08063	beq	x1,x12,80005a78	  x1:0x01000000 x12:0x3e3c495c
       17405000	      1739	80005a3c	4bdd5317	auipc	x6,0x4bdd5	  x6=0xcbddaa38
       17415000	      1740	80005a40	f1f7b013	sltiu	x0,x15,-225	 x15:0x80009f24
       17425000	      1741	80005a44	00f00a63	beq	x0,x15,80005a58	  x0:0x00000000 x15:0x80009f24
       17435000	      1742	80005a48	0195db33	srl	x22,x11,x25	 x11:0x754f6689 x25:0x80009fc4 x22=0x0754f668
       17445000	      1743	80005a4c	006a1093	slli	x1,x20,0x6	 x20:0x80009f25  x1=0x0027c940
       17455000	      1744	80005a50	41df8233	sub	x4,x31,x29	 x31:0x00000001 x29:0x00000001  x4=0x00000000
       17465000	      1745	80005a54	00d76633	or	x12,x14,x13	 x14:0x754f6000 x13:0x00000000 x12=0x754f6000
       17475000	      1746	80005a58	00cb1f13	slli	x30,x22,0xc	 x22:0x0754f668 x30=0x4f668000
       17485000	      1747	80005a5c	0057cbb3	xor	x23,x15,x5	 x15:0x80009f24  x5:0x00000001 x23=0x80009f25
       17495000	      1748	80005a60	41c753b3	sra	x7,x14,x28	 x14:0x754f6000 x28:0xd2ce5000  x7=0x754f6000
       17505000	      1749	80005a64	012c2c33	slt	x24,x24,x18	 x24:0x000004d5 x18:0x00000000 x24=0x00000000
       17515000	      1750	80005a68	03047063	bgeu	x8,x16,80005a88	  x8:0x90f9b209 x16:0xffffffbf
       17525000	      1751	80005a6c	5de54d37	lui	x26,0x5de54	 x26=0x5de54000
       17535000	      1752	80005a70	01bb9093	slli	x1,x23,0x1b	 x23:0x80009f25  x1=0x28000000
       17545000	      1753	80005a74	0176b1b3	sltu	x3,x13,x23	 x13:0x00000000 x23:0x80009f25  x3=0x00000001
       17555000	      1754	80005a78	29dfed13	ori	x26,x31,669	 x31:0x00000001 x26=0x0000029d
       17565000	      1755	80005a7c	01f39e93	slli	x29,x7,0x1f	  x7:0x754f6000 x29=0x00000000
       17575000	      1756	80005a80	7dbccb13	xori	x22,x25,2011	 x25:0x80009fc4 x22=0x8000981f
       17585000	      1757	80005a84	0157bd33	sltu	x26,x15,x21	 x15:0x80009f24 x21:0x00000000 x26=0x00000000
       17595000	      1758	80005a88	00407eb3	and	x29,x0,x4	  x0:0x00000000  x4:0x00000000 x29=0x00000000
       17605000	      1759	80005a8c	01d41913	slli	x18,x8,0x1d	  x8:0x90f9b209 x18=0x20000000
       17615000	      1760	80005a90	00000013	addi	x0,x0,0	  x0:0x00000000
       17625000	      1761	80005a94	18626c17	auipc	x24,0x18626	 x24=0x9862ba90
       17635000	      1762	80005a98	02426663	bltu	x4,x4,80005ac4	  x4:0x00000000  x4:0x00000000
       17645000	      1763	80005a9c	02ca5463	bge	x20,x12,80005ac4	 x20:0x80009f25 x12:0x754f6000
       17655000	      1764	80005aa0	01ef9433	sll	x8,x31,x30	 x31:0x00000001 x30:0x4f668000  x8=0x00000001
       17665000	      1765	80005aa4	be486617	auipc	x12,0xbe486	 x12=0x3e48baa0
       17675000	      1766	80005aa8	a14a2913	slti	x18,x20,-1516	 x20:0x80009f25 x18=0x00000001
       17685000	      1767	80005aac	04395663	bge	x18,x3,80005af8	 x18:0x00000001  x3:0x00000001
       17695000	      1768	00000000	00000013	addi	x0,x0,0	  x0:0x00000000
       17705000	      1769	80005af4	00000013	addi	x0,x0,0	  x0:0x00000000
       17715000	      1770	80005af8	1914b713	sltiu	x14,x9,401	  x9:0x52bd68ad x14=0x00000000
       17725000	      1771	80005afc	00f1b533	sltu	x10,x3,x15	  x3:0x00000001 x15:0x80009f24 x10=0x00000001
       17735000	      1772	80005b00	01475713	srli	x14,x14,0x14	 x14:0x00000000 x14=0x00000000
       17745000	      1773	80005b04	00dba5b3	slt	x11,x23,x13	 x23:0x80009f25 x13:0x00000000 x11=0x00000001
       17755000	      1774	80005b08	412c8bb3	sub	x23,x25,x18	 x25:0x80009fc4 x18:0x00000001 x23=0x80009fc3
       17765000	      1775	80005b0c	01b3c263	blt	x7,x27,80005b10	  x7:0x754f6000 x27:0x7c87187c
       17775000	      1776	00000000	00000013	addi	x0,x0,0	  x0:0x00000000
       17785000	      1777	80005b0c	00000013	addi	x0,x0,0	  x0:0x00000000
       17795000	      1778	80005b10	03dce663	bltu	x25,x29,80005b3c	 x25:0x80009fc4 x29:0x00000000
       17805000	      1779	80005b14	00c63bb3	sltu	x23,x12,x12	 x12:0x3e48baa0 x12:0x3e48baa0 x23=0x00000000
       17815000	      1780	80005b18	e31e8493	addi	x9,x29,-463	 x29:0x00000000  x9=0xfffffe31
       17825000	      1781	80005b1c	401f84b3	sub	x9,x31,x1	 x31:0x00000001  x1:0x28000000  x9=0xd8000001
       17835000	      1782	80005b20	6e37f093	andi	x1,x15,1763	 x15:0x80009f24  x1=0x00000620
       17845000	      1783	80005b24	05a14063	blt	x2,x26,80005b64	  x2:0xfffffff9 x26:0x00000000
       17855000	      1784	00000000	00000013	addi	x0,x0,0	  x0:0x00000000
       17865000	      1785	80005b60	00000013	addi	x0,x0,0	  x0:0x00000000
       17875000	      1786	80005b64	02245e63	bge	x8,x2,80005ba0	  x8:0x00000001  x2:0xfffffff9
       17885000	      1787	00000000	00000013	addi	x0,x0,0	  x0:0x00000000
       17895000	      1788	80005b9c	00000013	addi	x0,x0,0	  x0:0x00000000
       17905000	      1789	80005ba0	41be5d33	sra	x26,x28,x27	 x28:0xd2ce5000 x27:0x7c87187c x26=0xfffffffd
       17915000	      1790	80005ba4	014a2533	slt	x10,x20,x20	 x20:0x80009f25 x20:0x80009f25 x10=0x00000000
       17925000	      1791	80005ba8	0359f063	bgeu	x19,x21,80005bc8	 x19:0x92f21a7a x21:0x00000000
       17935000	      1792	00000000	00000013	addi	x0,x0,0	  x0:0x00000000
       17945000	      1793	80005bc4	00000013	addi	x0,x0,0	  x0:0x00000000
       17955000	      1794	80005bc8	003b2933	slt	x18,x22,x3	 x22:0x8000981f  x3:0x00000001 x18=0x00000001
       17965000	      1795	80005bcc	04746063	bltu	x8,x7,80005c0c	  x8:0x00000001  x7:0x754f6000
       17975000	      1796	00000000	00000013	addi	x0,x0,0	  x0:0x00000000
       17985000	      1797	80005c08	00000013	addi	x0,x0,0	  x0:0x00000000
       17995000	      1798	80005c0c	0068eab3	or	x21,x17,x6	 x17:0x150b4059  x6:0xcbddaa38 x21=0xdfdfea79
       18005000	      1799	80005c10	000a55b3	srl	x11,x20,x0	 x20:0x80009f25  x0:0x00000000 x11=0x80009f25
       18015000	      1800	80005c14	055b7663	bgeu	x22,x21,80005c60	 x22:0x8000981f x21:0xdfdfea79
       18025000	      1801	80005c18	00471213	slli	x4,x14,0x4	 x14:0x00000000  x4=0x00000000
       18035000	      1802	80005c1c	018ad133	srl	x2,x21,x24	 x21:0xdfdfea79 x24:0x9862ba90  x2=0x0000dfdf
       18045000	      1803	80005c20	410ad533	sra	x10,x21,x16	 x21:0xdfdfea79 x16:0xffffffbf x10=0xffffffff
       18055000	      1804	80005c24	003b9413	slli	x8,x23,0x3	 x23:0x00000000  x8=0x00000000
       18065000	      1805	80005c28	cb7d2713	slti	x14,x26,-841	 x26:0xfffffffd x14=0x00000000
       18075000	      1806	80005c2c	0306e263	bltu	x13,x16,80005c50	 x13:0x00000000 x16:0xffffffbf
       18085000	      1807	00000000	00000013	addi	x0,x0,0	  x0:0x00000000
       18095000	      1808	80005c4c	00000013	addi	x0,x0,0	  x0:0x00000000
       18105000	      1809	80005c50	0056d263	bge	x13,x5,80005c54	 x13:0x00000000  x5:0x00000001
       18115000	      1810	80005c54	001c9493	slli	x9,x25,0x1	 x25:0x80009fc4  x9=0x00013f88
       18125000	      1811	80005c58	969e4a13	xori	x20,x28,-1687	 x28:0xd2ce5000 x20=0x2d31a969
       18135000	      1812	80005c5c	01d96633	or	x12,x18,x29	 x18:0x00000001 x29:0x00000000 x12=0x00000001
       18145000	      1813	80005c60	41b95db3	sra	x27,x18,x27	 x18:0x00000001 x27:0x7c87187c x27=0x00000000
       18155000	      1814	80005c64	0417d263	bge	x15,x1,80005ca8	 x15:0x80009f24  x1:0x00000620
       18165000	      1815	80005c68	00bcf5b3	and	x11,x25,x11	 x25:0x80009fc4 x11:0x80009f25 x11=0x80009f04
       18175000	      1816	80005c6c	01ad4d33	xor	x26,x26,x26	 x26:0xfffffffd x26:0xfffffffd x26=0x00000000
       18185000	      1817	80005c70	018daf33	slt	x30,x27,x24	 x27:0x00000000 x24:0x9862ba90 x30=0x00000000
       18195000	      1818	80005c74	012c5113	srli	x2,x24,0x12	 x24:0x9862ba90  x2=0x00002618
       18205000	      1819	80005c78	015c2033	slt	x0,x24,x21	 x24:0x9862ba90 x21:0xdfdfea79
       18215000	      1820	80005c7c	00e96a63	bltu	x18,x14,80005c90	 x18:0x00000001 x14:0x00000000
       18225000	      1821	80005c80	01cef5b3	and	x11,x29,x28	 x29:0x00000000 x28:0xd2ce5000 x11=0x00000000
       18235000	      1822	80005c84	018728b3	slt	x17,x14,x24	 x14:0x00000000 x24:0x9862ba90 x17=0x00000000
       18245000	      1823	80005c88	00cb5133	srl	x2,x22,x12	 x22:0x8000981f x12:0x00000001  x2=0x40004c0f
       18255000	      1824	80005c8c	ced70693	addi	x13,x14,-787	 x14:0x00000000 x13=0xfffffced
       18265000	      1825	80005c90	e84bb713	sltiu	x14,x23,-380	 x23:0x00000000 x14=0x00000001
       18275000	      1826	80005c94	0f73a193	slti	x3,x7,247	  x7:0x754f6000  x3=0x00000000
       18285000	      1827	80005c98	00c3b4b3	sltu	x9,x7,x12	  x7:0x754f6000 x12:0x00000001  x9=0x00000000
       18295000	      1828	80005c9c	002740b3	xor	x1,x14,x2	 x14:0x00000001  x2:0x40004c0f  x1=0x40004c0e
       18305000	      1829	80005ca0	04021663	bne	x4,x0,80005cec	  x4:0x00000000  x0:0x00000000
       18315000	      1830	80005ca4	05675263	bge	x14,x22,80005ce8	 x14:0x00000001 x22:0x8000981f
       18325000	      1831	00000000	00000013	addi	x0,x0,0	  x0:0x00000000
       18335000	      1832	80005ce4	00000013	addi	x0,x0,0	  x0:0x00000000
       18345000	      1833	80005ce8	01727433	and	x8,x4,x23	  x4:0x00000000 x23:0x00000000  x8=0x00000000
       18355000	      1834	80005cec	03928c63	beq	x5,x25,80005d24	  x5:0x00000001 x25:0x80009fc4
       18365000	      1835	80005cf0	01cefab3	and	x21,x29,x28	 x29:0x00000000 x28:0xd2ce5000 x21=0x00000000
       18375000	      1836	80005cf4	01af9263	bne	x31,x26,80005cf8	 x31:0x00000001 x26:0x00000000
       18385000	      1837	00000000	00000013	addi	x0,x0,0	  x0:0x00000000
       18395000	      1838	80005cf4	00000013	addi	x0,x0,0	  x0:0x00000000
       18405000	      1839	80005cf8	01be5c63	bge	x28,x27,80005d10	 x28:0xd2ce5000 x27:0x00000000
       18415000	      1840	80005cfc	0043a3b3	slt	x7,x7,x4	  x7:0x754f6000  x4:0x00000000  x7=0x00000000
       18425000	      1841	80005d00	a6854e93	xori	x29,x10,-1432	 x10:0xffffffff x29=0x00000597
       18435000	      1842	80005d04	01ddc0b3	xor	x1,x27,x29	 x27:0x00000000 x29:0x00000597  x1=0x00000597
       18445000	      1843	80005d08	44b9dc37	lui	x24,0x44b9d	 x24=0x44b9d000
       18455000	      1844	80005d0c	04e74263	blt	x14,x14,80005d50	 x14:0x00000001 x14:0x00000001
       18465000	      1845	80005d10	75000f93	addi	x31,x0,1872	  x0:0x00000000 x31=0x00000750
       18475000	      1846	80005d14	0476c663	blt	x13,x7,80005d60	 x13:0xfffffced  x7:0x00000000
       18485000	      1847	00000000	00000013	addi	x0,x0,0	  x0:0x00000000
       18495000	      1848	80005d5c	00000013	addi	x0,x0,0	  x0:0x00000000
       18505000	      1849	80005d60	04b9d263	bge	x19,x11,80005da4	 x19:0x92f21a7a x11:0x00000000
       18515000	      1850	80005d64	ab3a7393	andi	x7,x20,-1357	 x20:0x2d31a969  x7=0x2d31a821
       18525000	      1851	80005d68	62a63f13	sltiu	x30,x12,1578	 x12:0x00000001 x30=0x00000001
       18535000	      1852	80005d6c	32b9fa13	andi	x20,x19,811	 x19:0x92f21a7a x20=0x0000022a
       18545000	      1853	80005d70	03349863	bne	x9,x19,80005da0	  x9:0x00000000 x19:0x92f21a7a
       18555000	      1854	00000000	00000013	addi	x0,x0,0	  x0:0x00000000
       18565000	      1855	80005d9c	00000013	addi	x0,x0,0	  x0:0x00000000
       18575000	      1856	80005da0	01bfddb3	srl	x27,x31,x27	 x31:0x00000750 x27:0x00000000 x27=0x00000750
       18585000	      1857	80005da4	419ddfb3	sra	x31,x27,x25	 x27:0x00000750 x25:0x80009fc4 x31=0x00000075
       18595000	      1858	80005da8	cf860d93	addi	x27,x12,-776	 x12:0x00000001 x27=0xfffffcf9
       18605000	      1859	80005dac	01a02533	slt	x10,x0,x26	  x0:0x00000000 x26:0x00000000 x10=0x00000000
       18615000	      1860	80005db0	00e92733	slt	x14,x18,x14	 x18:0x00000001 x14:0x00000001 x14=0x00000000
       18625000	      1861	80005db4	00add293	srli	x5,x27,0xa	 x27:0xfffffcf9  x5=0x003fffff
       18635000	      1862	80005db8	011595b3	sll	x11,x11,x17	 x11:0x00000000 x17:0x00000000 x11=0x00000000
       18645000	      1863	80005dbc	d8b82137	lui	x2,0xd8b82	  x2=0xd8b82000
       18655000	      1864	80005dc0	01098a33	add	x20,x19,x16	 x19:0x92f21a7a x16:0xffffffbf x20=0x92f21a39
       18665000	      1865	80005dc4	00447733	and	x14,x8,x4	  x8:0x00000000  x4:0x00000000 x14=0x00000000
       18675000	      1866	80005dc8	018acd33	xor	x26,x21,x24	 x21:0x00000000 x24:0x44b9d000 x26=0x44b9d000
       18685000	      1867	80005dcc	9f793313	sltiu	x6,x18,-1545	 x18:0x00000001  x6=0x00000001
       18695000	      1868	80005dd0	41a68a33	sub	x20,x13,x26	 x13:0xfffffced x26:0x44b9d000 x20=0xbb462ced
       18705000	      1869	80005dd4	a2d235b7	lui	x11,0xa2d23	 x11=0xa2d23000
       18715000	      1870	80005dd8	01881c63	bne	x16,x24,80005df0	 x16:0xffffffbf x24:0x44b9d000
       18725000	      1871	00000000	00000013	addi	x0,x0,0	  x0:0x00000000
       18735000	      1872	80005dec	00000013	addi	x0,x0,0	  x0:0x00000000
       18745000	      1873	80005df0	03147263	bgeu	x8,x17,80005e14	  x8:0x00000000 x17:0x00000000
       18755000	      1874	00000000	00000013	addi	x0,x0,0	  x0:0x00000000
       18765000	      1875	80005e10	00000013	addi	x0,x0,0	  x0:0x00000000
       18775000	      1876	80005e14	00000013	addi	x0,x0,0	  x0:0x00000000
       18785000	      1877	80005e18	3f3f9917	auipc	x18,0x3f3f9	 x18=0xbf3fee14
       18795000	      1878	80005e1c	5203f497	auipc	x9,0x5203f	  x9=0xd2044e18
       18805000	      1879	80005e20	4d32b513	sltiu	x10,x5,1235	  x5:0x003fffff x10=0x00000000
       18815000	      1880	80005e24	00135333	srl	x6,x6,x1	  x6:0x00000001  x1:0x00000597  x6=0x00000000
       18825000	      1881	80005e28	05b68663	beq	x13,x27,80005e74	 x13:0xfffffced x27:0xfffffcf9
       18835000	      1882	80005e2c	025de863	bltu	x27,x5,80005e5c	 x27:0xfffffcf9  x5:0x003fffff
       18845000	      1883	80005e30	6f79ee93	ori	x29,x19,1783	 x19:0x92f21a7a x29=0x92f21eff
       18855000	      1884	80005e34	e14ce613	ori	x12,x25,-492	 x25:0x80009fc4 x12=0xffffffd4
       18865000	      1885	80005e38	01b54733	xor	x14,x10,x27	 x10:0x00000000 x27:0xfffffcf9 x14=0xfffffcf9
       18875000	      1886	80005e3c	0102bdb3	sltu	x27,x5,x16	  x5:0x003fffff x16:0xffffffbf x27=0x00000001
       18885000	      1887	80005e40	01349eb3	sll	x29,x9,x19	  x9:0xd2044e18 x19:0x92f21a7a x29=0x60000000
       18895000	      1888	80005e44	05ade663	bltu	x27,x26,80005e90	 x27:0x00000001 x26:0x44b9d000
       18905000	      1889	00000000	00000013	addi	x0,x0,0	  x0:0x00000000
       18915000	      1890	80005e8c	00000013	addi	x0,x0,0	  x0:0x00000000
       18925000	      1891	80005e90	019935b3	sltu	x11,x18,x25	 x18:0xbf3fee14 x25:0x80009fc4 x11=0x00000000
       18935000	      1892	80005e94	00e51f93	slli	x31,x10,0xe	 x10:0x00000000 x31=0x00000000
       18945000	      1893	80005e98	40a9d433	sra	x8,x19,x10	 x19:0x92f21a7a x10:0x00000000  x8=0x92f21a7a
       18955000	      1894	80005e9c	012715b3	sll	x11,x14,x18	 x14:0xfffffcf9 x18:0xbf3fee14 x11=0xcf900000
       18965000	      1895	80005ea0	80118213	addi	x4,x3,-2047	  x3:0x00000000  x4=0xfffff801
       18975000	      1896	80005ea4	66e90d13	addi	x26,x18,1646	 x18:0xbf3fee14 x26=0xbf3ff482
       18985000	      1897	80005ea8	0056bc33	sltu	x24,x13,x5	 x13:0xfffffced  x5:0x003fffff x24=0x00000000
       18995000	      1898	80005eac	00cd3433	sltu	x8,x26,x12	 x26:0xbf3ff482 x12:0xffffffd4  x8=0x00000001
       19005000	      1899	80005eb0	d814ee97	auipc	x29,0xd814e	 x29=0x58153eac
       19015000	      1900	80005eb4	7667a893	slti	x17,x15,1894	 x15:0x80009f24 x17=0x00000001
       19025000	      1901	80005eb8	f8cbe497	auipc	x9,0xf8cbe	  x9=0x78cc3eb4
       19035000	      1902	80005ebc	00095db3	srl	x27,x18,x0	 x18:0xbf3fee14  x0:0x00000000 x27=0xbf3fee14
       19045000	      1903	80005ec0	64078d93	addi	x27,x15,1600	 x15:0x80009f24 x27=0x8000a564
       19055000	      1904	80005ec4	0175d6b3	srl	x13,x11,x23	 x11:0xcf900000 x23:0x00000000 x13=0xcf900000
       19065000	      1905	80005ec8	9aa3af13	slti	x30,x7,-1622	  x7:0x2d31a821 x30=0x00000000
       19075000	      1906	80005ecc	073d0463	beq	x26,x19,80005f34	 x26:0xbf3ff482 x19:0x92f21a7a
       19085000	      1907	80005ed0	01a2ce33	xor	x28,x5,x26	  x5:0x003fffff x26:0xbf3ff482 x28=0xbf000b7d
       19095000	      1908	80005ed4	0273f463	bgeu	x7,x7,80005efc	  x7:0x2d31a821  x7:0x2d31a821
       19105000	      1909	00000000	00000013	addi	x0,x0,0	  x0:0x00000000
       19115000	      1910	80005ef8	00000013	addi	x0,x0,0	  x0:0x00000000
       19125000	      1911	80005efc	d05fb36f	jal	x6,80005efc	  x6=0x80005efc
       19135000	      1912	00000000	00000013	addi	x0,x0,0	  x0:0x00000000
       19145000	      1913	80001bfc	00000013	addi	x0,x0,0	  x0:0x00000000
       19155000	      1914	80001c00	00715eb3	srl	x29,x2,x7	  x2:0xd8b82000  x7:0x2d31a821 x29=0x6c5c1000
       19165000	      1915	80001c04	eacaa697	auipc	x13,0xeacaa	 x13=0x6acabc00
       19175000	      1916	80001c08	53fb2413	slti	x8,x22,1343	 x22:0x8000981f  x8=0x00000001
       19185000	      1917	80001c0c	00fb9fb3	sll	x31,x23,x15	 x23:0x00000000 x15:0x80009f24 x31=0x00000000
       19195000	      1918	80001c10	41e620b7	lui	x1,0x41e62	  x1=0x41e62000
       19205000	      1919	80001c14	00381a13	slli	x20,x16,0x3	 x16:0xffffffbf x20=0xfffffdf8
       19215000	      1920	80001c18	fc478793	addi	x15,x15,-60	 x15:0x80009f24 x15=0x80009ee8
       19225000	      1921	80001c1c	0067a223	sw	x6,4(x15)	 x15:0x80009ee8  x6:0x80005efc PA:0x80009eec
       19235000	      1922	80001c20	4146d513	srai	x10,x13,0x14	 x13:0x6acabc00 x10=0x000006ac
       19245000	      1923	80001c24	00007b97	auipc	x23,0x7	 x23=0x80008c20
       19255000	      1924	80001c28	019b8b93	addi	x23,x23,25	 x23:0x80008c20 x23=0x80008c39
       19265000	      1925	80001c2c	097b8e23	sb	x23,156(x23)	 x23:0x80008c39 x23:0x80008c39 PA:0x80008cd5
       19275000	      1926	80001c30	060b8183	lb	x3,96(x23)	 x23:0x80008c39  x3=0x00000000 PA:0x80008c99
       19285000	      1927	80001c34	00000013	addi	x0,x0,0	  x0:0x00000000
       19295000	      1928	80001c38	f58b8703	lb	x14,-168(x23)	 x23:0x80008c39 x14=0x00000000 PA:0x80008b91
       19305000	      1929	80001c3c	016ca633	slt	x12,x25,x22	 x25:0x80009fc4 x22:0x8000981f x12=0x00000000
       19315000	      1930	80001c40	f8eb8a03	lb	x20,-114(x23)	 x23:0x80008c39 x20=0x00000000 PA:0x80008bc7
       19325000	      1931	80001c44	4112d133	sra	x2,x5,x17	  x5:0x003fffff x17:0x00000001  x2=0x001fffff
       19335000	      1932	80001c48	01eb88a3	sb	x30,17(x23)	 x23:0x80008c39 x30:0x00000000 PA:0x80008c4a
       19345000	      1933	80001c4c	07cb8683	lb	x13,124(x23)	 x23:0x80008c39 x13=0x00000000 PA:0x80008cb5
       19355000	      1934	80001c50	77484113	xori	x2,x16,1908	 x16:0xffffffbf  x2=0xfffff8cb
       19365000	      1935	80001c54	f7db8103	lb	x2,-131(x23)	 x23:0x80008c39  x2=0x00000000 PA:0x80008bb6
       19375000	      1936	80001c58	0c7bd003	lhu	x0,199(x23)	 x23:0x80008c39 PA:0x80008d00
       19385000	      1937	80001c5c	004826b3	slt	x13,x16,x4	 x16:0xffffffbf  x4:0xfffff801 x13=0x00000000
       19395000	      1938	80001c60	418e5913	srai	x18,x28,0x18	 x28:0xbf000b7d x18=0xffffffbf
       19405000	      1939	80001c64	f3dbd803	lhu	x16,-195(x23)	 x23:0x80008c39 x16=0x00000000 PA:0x80008b76
       19415000	      1940	80001c68	ca100313	addi	x6,x0,-863	  x0:0x00000000  x6=0xfffffca1
       19425000	      1941	80001c6c	f6bb8823	sb	x11,-144(x23)	 x23:0x80008c39 x11:0xcf900000 PA:0x80008ba9
       19435000	      1942	80001c70	fbabc083	lbu	x1,-70(x23)	 x23:0x80008c39  x1=0x00000000 PA:0x80008bf3
       19445000	      1943	80001c74	66a1fb13	andi	x22,x3,1642	  x3:0x00000000 x22=0x00000000
       19455000	      1944	80001c78	03fb8123	sb	x31,34(x23)	 x23:0x80008c39 x31:0x00000000 PA:0x80008c5b
       19465000	      1945	80001c7c	045bdd03	lhu	x26,69(x23)	 x23:0x80008c39 x26=0x00000000 PA:0x80008c7e
       19475000	      1946	80001c80	02938713	addi	x14,x7,41	  x7:0x2d31a821 x14=0x2d31a84a
       19485000	      1947	80001c84	f91bc403	lbu	x8,-111(x23)	 x23:0x80008c39  x8=0x00000000 PA:0x80008bca
       19495000	      1948	80001c88	070bc503	lbu	x10,112(x23)	 x23:0x80008c39 x10=0x00000000 PA:0x80008ca9
       19505000	      1949	80001c8c	0f6b8923	sb	x22,242(x23)	 x23:0x80008c39 x22:0x00000000 PA:0x80008d2b
       19515000	      1950	80001c90	0f0b8723	sb	x16,238(x23)	 x23:0x80008c39 x16:0x00000000 PA:0x80008d27
       19525000	      1951	80001c94	40ebd933	sra	x18,x23,x14	 x23:0x80008c39 x14:0x2d31a84a x18=0xffe00023
       19535000	      1952	80001c98	f3fba283	lw	x5,-193(x23)	 x23:0x80008c39  x5=0x00000000 PA:0x80008b78
       19545000	      1953	80001c9c	01423e33	sltu	x28,x4,x20	  x4:0xfffff801 x20:0x00000000 x28=0x00000000
       19555000	      1954	80001ca0	0e6b8883	lb	x17,230(x23)	 x23:0x80008c39 x17=0x00000000 PA:0x80008d1f
       19565000	      1955	80001ca4	00006117	auipc	x2,0x6	  x2=0x80007ca0
       19575000	      1956	80001ca8	45310113	addi	x2,x2,1107	  x2:0x80007ca0  x2=0x800080f3
       19585000	      1957	80001cac	40068833	sub	x16,x13,x0	 x13:0x00000000  x0:0x00000000 x16=0x00000000
       19595000	      1958	80001cb0	f392da37	lui	x20,0xf392d	 x20=0xf392d000
       19605000	      1959	80001cb4	69ae3537	lui	x10,0x69ae3	 x10=0x69ae3000
       19615000	      1960	80001cb8	40758233	sub	x4,x11,x7	 x11:0xcf900000  x7:0x2d31a821  x4=0xa25e57df
       19625000	      1961	80001cbc	c3d5ef17	auipc	x30,0xc3d5e	 x30=0x43d5fcb8
       19635000	      1962	80001cc0	f8010e03	lb	x28,-128(x2)	  x2:0x800080f3 x28=0x00000000 PA:0x80008073
       19645000	      1963	00000000	00000013	addi	x0,x0,0	  x0:0x00000000
       19655000	      1964	80001cc4	01ae3733	sltu	x14,x28,x26	 x28:0x00000000 x26:0x00000000 x14=0x00000000
       19665000	      1965	80001cc8	00f7c633	xor	x12,x15,x15	 x15:0x80009ee8 x15:0x80009ee8 x12=0x00000000
       19675000	      1966	80001ccc	45b5bc13	sltiu	x24,x11,1115	 x11:0xcf900000 x24=0x00000000
       19685000	      1967	80001cd0	0d112683	lw	x13,209(x2)	  x2:0x800080f3 x13=0x00000000 PA:0x800081c4
       19695000	      1968	80001cd4	06410723	sb	x4,110(x2)	  x2:0x800080f3  x4:0xa25e57df PA:0x80008161
       19705000	      1969	80001cd8	925f0d13	addi	x26,x30,-1755	 x30:0x43d5fcb8 x26=0x43d5f5dd
       19715000	      1970	80001cdc	beae3193	sltiu	x3,x28,-1046	 x28:0x00000000  x3=0x00000001
       19725000	      1971	80001ce0	0cf124a3	sw	x15,201(x2)	  x2:0x800080f3 x15:0x80009ee8 PA:0x800081bc
       19735000	      1972	80001ce4	02f10203	lb	x4,47(x2)	  x2:0x800080f3  x4=0x00000000 PA:0x80008122
       19745000	      1973	80001ce8	000d1893	slli	x17,x26,0x0	 x26:0x43d5f5dd x17=0x43d5f5dd
       19755000	      1974	80001cec	00000013	addi	x0,x0,0	  x0:0x00000000
       19765000	      1975	80001cf0	40a48a33	sub	x20,x9,x10	  x9:0x78cc3eb4 x10:0x69ae3000 x20=0x0f1e0eb4
       19775000	      1976	80001cf4	fa310723	sb	x3,-82(x2)	  x2:0x800080f3  x3:0x00000001 PA:0x800080a1
       19785000	      1977	80001cf8	c10afa93	andi	x21,x21,-1008	 x21:0x00000000 x21=0x00000000
       19795000	      1978	80001cfc	d309d817	auipc	x16,0xd309d	 x16=0x5309ecf8
       19805000	      1979	80001d00	f9010e03	lb	x28,-112(x2)	  x2:0x800080f3 x28=0x00000000 PA:0x80008083
       19815000	      1980	80001d04	04112c03	lw	x24,65(x2)	  x2:0x800080f3 x24=0x00000000 PA:0x80008134
       19825000	      1981	80001d08	00dad633	srl	x12,x21,x13	 x21:0x00000000 x13:0x00000000 x12=0x00000000
       19835000	      1982	80001d0c	fd010723	sb	x16,-50(x2)	  x2:0x800080f3 x16:0x5309ecf8 PA:0x800080c1
       19845000	      1983	80001d10	00ff0433	add	x8,x30,x15	 x30:0x43d5fcb8 x15:0x80009ee8  x8=0xc3d69ba0
       19855000	      1984	80001d14	40bbd613	srai	x12,x23,0xb	 x23:0x80008c39 x12=0xfff00011
       19865000	      1985	80001d18	01c10ea3	sb	x28,29(x2)	  x2:0x800080f3 x28:0x00000000 PA:0x80008110
       19875000	      1986	80001d1c	f7c11fa3	sh	x28,-129(x2)	  x2:0x800080f3 x28:0x00000000 PA:0x80008072
       19885000	      1987	80001d20	7c890a93	addi	x21,x18,1992	 x18:0xffe00023 x21=0xffe007eb
       19895000	      1988	80001d24	0082dd33	srl	x26,x5,x8	  x5:0x00000000  x8:0xc3d69ba0 x26=0x00000000
       19905000	      1989	80001d28	0c210883	lb	x17,194(x2)	  x2:0x800080f3 x17=0x00000000 PA:0x800081b5
       19915000	      1990	80001d2c	01f01813	slli	x16,x0,0x1f	  x0:0x00000000 x16=0x00000000
       19925000	      1991	80001d30	fd1119a3	sh	x17,-45(x2)	  x2:0x800080f3 x17:0x00000000 PA:0x800080c6
       19935000	      1992	80001d34	fc014803	lbu	x16,-64(x2)	  x2:0x800080f3 x16=0x00000000 PA:0x800080b3
       19945000	      1993	80001d38	00007917	auipc	x18,0x7	 x18=0x80008d34
       19955000	      1994	80001d3c	c5990913	addi	x18,x18,-935	 x18:0x80008d34 x18=0x8000898d
       19965000	      1995	80001d40	215912a3	sh	x21,517(x18)	 x18:0x8000898d x21:0xffe007eb PA:0x80008b92
       19975000	      1996	80001d44	f3b94a03	lbu	x20,-197(x18)	 x18:0x8000898d x20=0x00000000 PA:0x800088c8
       19985000	      1997	80001d48	1c395003	lhu	x0,451(x18)	 x18:0x8000898d PA:0x80008b50
       19995000	      1998	80001d4c	49594a03	lbu	x20,1173(x18)	 x18:0x8000898d x20=0x00000000 PA:0x80008e22
       20005000	      1999	80001d50	0a190083	lb	x1,161(x18)	 x18:0x8000898d  x1=0x00000000 PA:0x80008a2e
       20015000	      2000	80001d54	96b5ad13	slti	x26,x11,-1685	 x11:0xcf900000 x26=0x00000001
       20025000	      2001	80001d58	28995183	lhu	x3,649(x18)	 x18:0x8000898d  x3=0x00000000 PA:0x80008c16
       20035000	      2002	80001d5c	01d95a83	lhu	x21,29(x18)	 x18:0x8000898d x21=0x00000000 PA:0x800089aa
       20045000	      2003	80001d60	25795603	lhu	x12,599(x18)	 x18:0x8000898d x12=0x00000000 PA:0x80008be4
       20055000	      2004	80001d64	53191ca3	sh	x17,1337(x18)	 x18:0x8000898d x17:0x00000000 PA:0x80008ec6
       20065000	      2005	80001d68	5d690b03	lb	x22,1494(x18)	 x18:0x8000898d x22=0x00000000 PA:0x80008f63
       20075000	      2006	80001d6c	00e97db3	and	x27,x18,x14	 x18:0x8000898d x14:0x00000000 x27=0x00000000
       20085000	      2007	80001d70	4e890c23	sb	x8,1272(x18)	 x18:0x8000898d  x8:0xc3d69ba0 PA:0x80008e85
       20095000	      2008	80001d74	062927a3	sw	x2,111(x18)	 x18:0x8000898d  x2:0x800080f3 PA:0x800089fc
       20105000	      2009	80001d78	23694103	lbu	x2,566(x18)	 x18:0x8000898d  x2=0x00000000 PA:0x80008bc3
       20115000	      2010	80001d7c	edf90c03	lb	x24,-289(x18)	 x18:0x8000898d x24=0x00000000 PA:0x8000886c
       20125000	      2011	80001d80	01fbf033	and	x0,x23,x31	 x23:0x80008c39 x31:0x00000000
       20135000	      2012	80001d84	64195003	lhu	x0,1601(x18)	 x18:0x8000898d PA:0x80008fce
       20145000	      2013	80001d88	3a490a03	lb	x20,932(x18)	 x18:0x8000898d x20=0x00000000 PA:0x80008d31
       20155000	      2014	80001d8c	00090ea3	sb	x0,29(x18)	 x18:0x8000898d  x0:0x00000000 PA:0x800089aa
       20165000	      2015	80001d90	30894283	lbu	x5,776(x18)	 x18:0x8000898d  x5=0x00000000 PA:0x80008c95
       20175000	      2016	00000000	00000013	addi	x0,x0,0	  x0:0x00000000
       20185000	      2017	80001d94	005fa233	slt	x4,x31,x5	 x31:0x00000000  x5:0x00000000  x4=0x00000000
       20195000	      2018	80001d98	0f9929a3	sw	x25,243(x18)	 x18:0x8000898d x25:0x80009fc4 PA:0x80008a80
       20205000	      2019	80001d9c	001b28b3	slt	x17,x22,x1	 x22:0x00000000  x1:0x00000000 x17=0x00000000
       20215000	      2020	80001da0	08591803	lh	x16,133(x18)	 x18:0x8000898d x16=0x00000100 PA:0x80008a12
       20225000	      2021	80001da4	1e094383	lbu	x7,480(x18)	 x18:0x8000898d  x7=0x00000000 PA:0x80008b6d
       20235000	      2022	80001da8	014c5ab3	srl	x21,x24,x20	 x24:0x00000000 x20:0x00000000 x21=0x00000000
       20245000	      2023	80001dac	006983b3	add	x7,x19,x6	 x19:0x92f21a7a  x6:0xfffffca1  x7=0x92f2171b
       20255000	      2024	80001db0	46e94d83	lbu	x27,1134(x18)	 x18:0x8000898d x27=0x00000000 PA:0x80008dfb
       20265000	      2025	80001db4	00c9f633	and	x12,x19,x12	 x19:0x92f21a7a x12:0x00000000 x12=0x00000000
       20275000	      2026	80001db8	01b75c13	srli	x24,x14,0x1b	 x14:0x00000000 x24=0x00000000
       20285000	      2027	80001dbc	5fe90303	lb	x6,1534(x18)	 x18:0x8000898d  x6=0x00000000 PA:0x80008f8b
       20295000	      2028	80001dc0	00d6fbb3	and	x23,x13,x13	 x13:0x00000000 x13:0x00000000 x23=0x00000000
       20305000	      2029	80001dc4	faf94383	lbu	x7,-81(x18)	 x18:0x8000898d  x7=0x00000000 PA:0x8000893c
       20315000	      2030	80001dc8	00006e97	auipc	x29,0x6	 x29=0x80007dc4
       20325000	      2031	80001dcc	634e8e93	addi	x29,x29,1588	 x29:0x80007dc4 x29=0x800083f8
       20335000	      2032	80001dd0	0dede293	ori	x5,x27,222	 x27:0x00000000  x5=0x000000de
       20345000	      2033	80001dd4	312ec383	lbu	x7,786(x29)	 x29:0x800083f8  x7=0x00000000 PA:0x8000870a
       20355000	      2034	80001dd8	dfbe8a03	lb	x20,-517(x29)	 x29:0x800083f8 x20=0x00000000 PA:0x800081f3
       20365000	      2035	80001ddc	2bbe83a3	sb	x27,679(x29)	 x29:0x800083f8 x27:0x00000000 PA:0x8000869f
       20375000	      2036	80001de0	0a3e87a3	sb	x3,175(x29)	 x29:0x800083f8  x3:0x00000000 PA:0x800084a7
       20385000	      2037	80001de4	002973b3	and	x7,x18,x2	 x18:0x8000898d  x2:0x00000000  x7=0x00000000
       20395000	      2038	80001de8	f08ed803	lhu	x16,-248(x29)	 x29:0x800083f8 x16=0x00000000 PA:0x80008300
       20405000	      2039	80001dec	f9ce8703	lb	x14,-100(x29)	 x29:0x800083f8 x14=0x00000000 PA:0x80008394
       20415000	      2040	80001df0	018b5e33	srl	x28,x22,x24	 x22:0x00000000 x24:0x00000000 x28=0x00000000
       20425000	      2041	80001df4	7143cc37	lui	x24,0x7143c	 x24=0x7143c000
       20435000	      2042	80001df8	9fe3f593	andi	x11,x7,-1538	  x7:0x00000000 x11=0x00000000
       20445000	      2043	80001dfc	3fcec003	lbu	x0,1020(x29)	 x29:0x800083f8 PA:0x800087f4
       20455000	      2044	80001e00	0fbe82a3	sb	x27,229(x29)	 x29:0x800083f8 x27:0x00000000 PA:0x800084dd
       20465000	      2045	80001e04	75e732b7	lui	x5,0x75e73	  x5=0x75e73000
       20475000	      2046	80001e08	d66e8683	lb	x13,-666(x29)	 x29:0x800083f8 x13=0x00000000 PA:0x8000815e
       20485000	      2047	80001e0c	21ee8fa3	sb	x30,543(x29)	 x29:0x800083f8 x30:0x43d5fcb8 PA:0x80008617
       20495000	      2048	80001e10	019af4b3	and	x9,x21,x25	 x21:0x00000000 x25:0x80009fc4  x9=0x00000000
       20505000	      2049	80001e14	d89e8a83	lb	x21,-631(x29)	 x29:0x800083f8 x21=0xffffffae PA:0x80008181
       20515000	      2050	80001e18	ce1e8483	lb	x9,-799(x29)	 x29:0x800083f8  x9=0x00000000 PA:0x800080d9
       20525000	      2051	80001e1c	003f5c13	srli	x24,x30,0x3	 x30:0x43d5fcb8 x24=0x087abf97
       20535000	      2052	80001e20	0059cd33	xor	x26,x19,x5	 x19:0x92f21a7a  x5:0x75e73000 x26=0xe7152a7a
       20545000	      2053	80001e24	411e8a23	sb	x17,1044(x29)	 x29:0x800083f8 x17:0x00000000 PA:0x8000880c
       20555000	      2054	80001e28	ee8e88a3	sb	x8,-271(x29)	 x29:0x800083f8  x8:0xc3d69ba0 PA:0x800082e9
       20565000	      2055	80001e2c	133e8b83	lb	x23,307(x29)	 x29:0x800083f8 x23=0x00000000 PA:0x8000852b
       20575000	      2056	80001e30	006396b3	sll	x13,x7,x6	  x7:0x00000000  x6:0x00000000 x13=0x00000000
       20585000	      2057	80001e34	409c8bb3	sub	x23,x25,x9	 x25:0x80009fc4  x9:0x00000000 x23=0x80009fc4
       20595000	      2058	80001e38	d65e8203	lb	x4,-667(x29)	 x29:0x800083f8  x4=0x00000000 PA:0x8000815d
       20605000	      2059	80001e3c	c63e8623	sb	x3,-916(x29)	 x29:0x800083f8  x3:0x00000000 PA:0x80008064
       20615000	      2060	80001e40	000a9313	slli	x6,x21,0x0	 x21:0xffffffae  x6=0xffffffae
       20625000	      2061	80001e44	70223d37	lui	x26,0x70223	 x26=0x70223000
       20635000	      2062	80001e48	eb8e8b83	lb	x23,-328(x29)	 x29:0x800083f8 x23=0x00000000 PA:0x800082b0
       20645000	      2063	80001e4c	152c4513	xori	x10,x24,338	 x24:0x087abf97 x10=0x087abec5
       20655000	      2064	80001e50	332ede03	lhu	x28,818(x29)	 x29:0x800083f8 x28=0x00000000 PA:0x8000872a
       20665000	      2065	80001e54	01877e33	and	x28,x14,x24	 x14:0x00000000 x24:0x087abf97 x28=0x00000000
       20675000	      2066	80001e58	00a33c33	sltu	x24,x6,x10	  x6:0xffffffae x10:0x087abec5 x24=0x00000000
       20685000	      2067	80001e5c	04db8b13	addi	x22,x23,77	 x23:0x00000000 x22=0x0000004d
       20695000	      2068	80001e60	258e8323	sb	x24,582(x29)	 x29:0x800083f8 x24:0x00000000 PA:0x8000863e
       20705000	      2069	80001e64	ecae8203	lb	x4,-310(x29)	 x29:0x800083f8  x4=0x00000000 PA:0x800082c2
       20715000	      2070	80001e68	3a9ece03	lbu	x28,937(x29)	 x29:0x800083f8 x28=0x00000000 PA:0x800087a1
       20725000	      2071	80001e6c	f33e8103	lb	x2,-205(x29)	 x29:0x800083f8  x2=0x00000000 PA:0x8000832b
       20735000	      2072	80001e70	3c6e9803	lh	x16,966(x29)	 x29:0x800083f8 x16=0x00000000 PA:0x800087be
       20745000	      2073	80001e74	346ed403	lhu	x8,838(x29)	 x29:0x800083f8  x8=0x00000000 PA:0x8000873e
       20755000	      2074	80001e78	28ae8483	lb	x9,650(x29)	 x29:0x800083f8  x9=0x00000000 PA:0x80008682
       20765000	      2075	80001e7c	ff2f3213	sltiu	x4,x30,-14	 x30:0x43d5fcb8  x4=0x00000001
       20775000	      2076	80001e80	22be8a83	lb	x21,555(x29)	 x29:0x800083f8 x21=0x00000000 PA:0x80008623
       20785000	      2077	80001e84	fbce8203	lb	x4,-68(x29)	 x29:0x800083f8  x4=0x00000000 PA:0x800083b4
       20795000	      2078	80001e88	2b5ecf03	lbu	x30,693(x29)	 x29:0x800083f8 x30=0x00000000 PA:0x800086ad
       20805000	      2079	80001e8c	41568933	sub	x18,x13,x21	 x13:0x00000000 x21:0x00000000 x18=0x00000000
       20815000	      2080	80001e90	02fec083	lbu	x1,47(x29)	 x29:0x800083f8  x1=0x00000000 PA:0x80008427
       20825000	      2081	80001e94	00007117	auipc	x2,0x7	  x2=0x80008e90
       20835000	      2082	80001e98	13c10113	addi	x2,x2,316	  x2:0x80008e90  x2=0x80008fcc
       20845000	      2083	80001e9c	34b2fe93	andi	x29,x5,843	  x5:0x75e73000 x29=0x00000000
       20855000	      2084	80001ea0	fd510f83	lb	x31,-43(x2)	  x2:0x80008fcc x31=0x00000000 PA:0x80008fa1
       20865000	      2085	80001ea4	00000013	addi	x0,x0,0	  x0:0x00000000
       20875000	      2086	80001ea8	f2310583	lb	x11,-221(x2)	  x2:0x80008fcc x11=0x00000000 PA:0x80008eef
       20885000	      2087	80001eac	01211933	sll	x18,x2,x18	  x2:0x80008fcc x18:0x00000000 x18=0x80008fcc
       20895000	      2088	80001eb0	98e14e03	lbu	x28,-1650(x2)	  x2:0x80008fcc x28=0x00000000 PA:0x8000895a
       20905000	      2089	00000000	00000013	addi	x0,x0,0	  x0:0x00000000
       20915000	      2090	80001eb4	245e6093	ori	x1,x28,581	 x28:0x00000000  x1=0x00000245
       20925000	      2091	80001eb8	cdf11b23	sh	x31,-810(x2)	  x2:0x80008fcc x31:0x00000000 PA:0x80008ca2
       20935000	      2092	80001ebc	01d4e233	or	x4,x9,x29	  x9:0x00000000 x29:0x00000000  x4=0x00000000
       20945000	      2093	80001ec0	f3914883	lbu	x17,-199(x2)	  x2:0x80008fcc x17=0x00000000 PA:0x80008f05
       20955000	      2094	80001ec4	97c15583	lhu	x11,-1668(x2)	  x2:0x80008fcc x11=0x00000000 PA:0x80008948
       20965000	      2095	80001ec8	01b52eb3	slt	x29,x10,x27	 x10:0x087abec5 x27:0x00000000 x29=0x00000000
       20975000	      2096	80001ecc	003aa1b3	slt	x3,x21,x3	 x21:0x00000000  x3:0x00000000  x3=0x00000000
       20985000	      2097	80001ed0	92f10e83	lb	x29,-1745(x2)	  x2:0x80008fcc x29=0x00000000 PA:0x800088fb
       20995000	      2098	80001ed4	f2b14403	lbu	x8,-213(x2)	  x2:0x80008fcc  x8=0x00000000 PA:0x80008ef7
       21005000	      2099	80001ed8	f85b4d13	xori	x26,x22,-123	 x22:0x0000004d x26=0xffffffc8
       21015000	      2100	80001edc	87914383	lbu	x7,-1927(x2)	  x2:0x80008fcc  x7=0x00000000 PA:0x80008845
       21025000	      2101	80001ee0	0148f433	and	x8,x17,x20	 x17:0x00000000 x20:0x00000000  x8=0x00000000
       21035000	      2102	80001ee4	8d814e83	lbu	x29,-1832(x2)	  x2:0x80008fcc x29=0x00000000 PA:0x800088a4
       21045000	      2103	80001ee8	0096da93	srli	x21,x13,0x9	 x13:0x00000000 x21=0x00000000
       21055000	      2104	80001eec	d9f93a93	sltiu	x21,x18,-609	 x18:0x80008fcc x21=0x00000001
       21065000	      2105	80001ef0	00a00db3	add	x27,x0,x10	  x0:0x00000000 x10:0x087abec5 x27=0x087abec5
       21075000	      2106	80001ef4	00b91613	slli	x12,x18,0xb	 x18:0x80008fcc x12=0x047e6000
       21085000	      2107	80001ef8	a5110a03	lb	x20,-1455(x2)	  x2:0x80008fcc x20=0x00000000 PA:0x80008a1d
       21095000	      2108	00000000	00000013	addi	x0,x0,0	  x0:0x00000000
       21105000	      2109	80001efc	b5414303	lbu	x6,-1196(x2)	  x2:0x80008fcc  x6=0x00000000 PA:0x80008b20
       21115000	      2110	80001f00	ce214303	lbu	x6,-798(x2)	  x2:0x80008fcc  x6=0x00000000 PA:0x80008cae
       21125000	      2111	80001f04	a8f10303	lb	x6,-1393(x2)	  x2:0x80008fcc  x6=0x00000000 PA:0x80008a5b
       21135000	      2112	80001f08	00b991b3	sll	x3,x19,x11	 x19:0x92f21a7a x11:0x00000000  x3=0x92f21a7a
       21145000	      2113	80001f0c	010764b3	or	x9,x14,x16	 x14:0x00000000 x16:0x00000000  x9=0x00000000
       21155000	      2114	80001f10	36640e93	addi	x29,x8,870	  x8:0x00000000 x29=0x00000366
       21165000	      2115	80001f14	00499193	slli	x3,x19,0x4	 x19:0x92f21a7a  x3=0x2f21a7a0
       21175000	      2116	80001f18	4075d613	srai	x12,x11,0x7	 x11:0x00000000 x12=0x00000000
       21185000	      2117	80001f1c	c7932493	slti	x9,x6,-903	  x6:0x00000000  x9=0x00000000
       21195000	      2118	80001f20	d76109a3	sb	x22,-653(x2)	  x2:0x80008fcc x22:0x0000004d PA:0x80008d3f
       21205000	      2119	80001f24	00007117	auipc	x2,0x7	  x2=0x80008f20
       21215000	      2120	80001f28	df810113	addi	x2,x2,-520	  x2:0x80008f20  x2=0x80008d18
       21225000	      2121	80001f2c	f8811e83	lh	x29,-120(x2)	  x2:0x80008d18 x29=0x00000000 PA:0x80008ca0
       21235000	      2122	00000000	00000013	addi	x0,x0,0	  x0:0x00000000
       21245000	      2123	80001f30	01df5093	srli	x1,x30,0x1d	 x30:0x00000000  x1=0x00000000
       21255000	      2124	80001f34	f25109a3	sb	x5,-205(x2)	  x2:0x80008d18  x5:0x75e73000 PA:0x80008c4b
       21265000	      2125	80001f38	02e10c03	lb	x24,46(x2)	  x2:0x80008d18 x24=0x00000000 PA:0x80008d46
       21275000	      2126	80001f3c	0f211223	sh	x18,228(x2)	  x2:0x80008d18 x18:0x80008fcc PA:0x80008dfc
       21285000	      2127	80001f40	01d63033	sltu	x0,x12,x29	 x12:0x00000000 x29:0x00000000
       21295000	      2128	80001f44	02e11d83	lh	x27,46(x2)	  x2:0x80008d18 x27=0x00000000 PA:0x80008d46
       21305000	      2129	80001f48	de096817	auipc	x16,0xde096	 x16=0x5e097f44
       21315000	      2130	80001f4c	f5410f03	lb	x30,-172(x2)	  x2:0x80008d18 x30=0x00000000 PA:0x80008c6c
       21325000	      2131	80001f50	f2a15e83	lhu	x29,-214(x2)	  x2:0x80008d18 x29=0x00000000 PA:0x80008c42
       21335000	      2132	80001f54	f78109a3	sb	x24,-141(x2)	  x2:0x80008d18 x24:0x00000000 PA:0x80008c8b
       21345000	      2133	80001f58	0a210503	lb	x10,162(x2)	  x2:0x80008d18 x10=0x00000000 PA:0x80008dba
       21355000	      2134	80001f5c	0bb10d83	lb	x27,187(x2)	  x2:0x80008d18 x27=0x00000000 PA:0x80008dd3
       21365000	      2135	80001f60	4045d2b3	sra	x5,x11,x4	 x11:0x00000000  x4:0x00000000  x5=0x00000000
       21375000	      2136	80001f64	0cf10283	lb	x5,207(x2)	  x2:0x80008d18  x5=0x00000000 PA:0x80008de7
       21385000	      2137	80001f68	400f8c33	sub	x24,x31,x0	 x31:0x00000000  x0:0x00000000 x24=0x00000000
       21395000	      2138	80001f6c	0198e933	or	x18,x17,x25	 x17:0x00000000 x25:0x80009fc4 x18=0x80009fc4
       21405000	      2139	80001f70	06410fa3	sb	x4,127(x2)	  x2:0x80008d18  x4:0x00000000 PA:0x80008d97
       21415000	      2140	80001f74	fff10323	sb	x31,-26(x2)	  x2:0x80008d18 x31:0x00000000 PA:0x80008cfe
       21425000	      2141	80001f78	017803b3	add	x7,x16,x23	 x16:0x5e097f44 x23:0x00000000  x7=0x5e097f44
       21435000	      2142	80001f7c	014baa33	slt	x20,x23,x20	 x23:0x00000000 x20:0x00000000 x20=0x00000000
       21445000	      2143	80001f80	fd211503	lh	x10,-46(x2)	  x2:0x80008d18 x10=0x00000000 PA:0x80008cea
       21455000	      2144	80001f84	00519e33	sll	x28,x3,x5	  x3:0x2f21a7a0  x5:0x00000000 x28=0x2f21a7a0
       21465000	      2145	80001f88	03c42293	slti	x5,x8,60	  x8:0x00000000  x5=0x00000001
       21475000	      2146	80001f8c	00911923	sh	x9,18(x2)	  x2:0x80008d18  x9:0x00000000 PA:0x80008d2a
       21485000	      2147	80001f90	d090ee13	ori	x28,x1,-759	  x1:0x00000000 x28=0xfffffd09
       21495000	      2148	80001f94	018f5233	srl	x4,x30,x24	 x30:0x00000000 x24:0x00000000  x4=0x00000000
       21505000	      2149	80001f98	410686b3	sub	x13,x13,x16	 x13:0x00000000 x16:0x5e097f44 x13=0xa1f680bc
       21515000	      2150	80001f9c	07010003	lb	x0,112(x2)	  x2:0x80008d18 PA:0x80008d88
       21525000	      2151	80001fa0	0b311923	sh	x19,178(x2)	  x2:0x80008d18 x19:0x92f21a7a PA:0x80008dca
       21535000	      2152	80001fa4	0fc1e493	ori	x9,x3,252	  x3:0x2f21a7a0  x9=0x2f21a7fc
       21545000	      2153	80001fa8	018b1493	slli	x9,x22,0x18	 x22:0x0000004d  x9=0x4d000000
       21555000	      2154	80001fac	00b64733	xor	x14,x12,x11	 x12:0x00000000 x11:0x00000000 x14=0x00000000
       21565000	      2155	80001fb0	22636837	lui	x16,0x22636	 x16=0x22636000
       21575000	      2156	80001fb4	0e314a03	lbu	x20,227(x2)	  x2:0x80008d18 x20=0x00000000 PA:0x80008dfb
       21585000	      2157	80001fb8	00007117	auipc	x2,0x7	  x2=0x80008fb4
       21595000	      2158	80001fbc	c4710113	addi	x2,x2,-953	  x2:0x80008fb4  x2=0x80008bfb
       21605000	      2159	80001fc0	fde10e83	lb	x29,-34(x2)	  x2:0x80008bfb x29=0x00000000 PA:0x80008bd9
       21615000	      2160	80001fc4	03210b23	sb	x18,54(x2)	  x2:0x80008bfb x18:0x80009fc4 PA:0x80008c31
       21625000	      2161	80001fc8	54527693	andi	x13,x4,1349	  x4:0x00000000 x13=0x00000000
       21635000	      2162	80001fcc	03c10003	lb	x0,60(x2)	  x2:0x80008bfb PA:0x80008c37
       21645000	      2163	80001fd0	008f5233	srl	x4,x30,x8	 x30:0x00000000  x8:0x00000000  x4=0x00000000
       21655000	      2164	80001fd4	fd410d03	lb	x26,-44(x2)	  x2:0x80008bfb x26=0x00000000 PA:0x80008bcf
       21665000	      2165	80001fd8	14f1ca13	xori	x20,x3,335	  x3:0x2f21a7a0 x20=0x2f21a6ef
       21675000	      2166	80001fdc	ff414203	lbu	x4,-12(x2)	  x2:0x80008bfb  x4=0x00000000 PA:0x80008bef
       21685000	      2167	80001fe0	fe515a83	lhu	x21,-27(x2)	  x2:0x80008bfb x21=0x00000000 PA:0x80008be0
       21695000	      2168	80001fe4	014e41b3	xor	x3,x28,x20	 x28:0xfffffd09 x20:0x2f21a6ef  x3=0xd0de5be6
       21705000	      2169	80001fe8	40e0d4b3	sra	x9,x1,x14	  x1:0x00000000 x14:0x00000000  x9=0x00000000
       21715000	      2170	80001fec	aee7e013	ori	x0,x15,-1298	 x15:0x80009ee8
       21725000	      2171	80001ff0	fd915803	lhu	x16,-39(x2)	  x2:0x80008bfb x16=0x00000000 PA:0x80008bd4
       21735000	      2172	80001ff4	ee492e97	auipc	x29,0xee492	 x29=0x6e493ff0
       21745000	      2173	80001ff8	00614d03	lbu	x26,6(x2)	  x2:0x80008bfb x26=0x00000000 PA:0x80008c01
       21755000	      2174	80001ffc	01310b23	sb	x19,22(x2)	  x2:0x80008bfb x19:0x92f21a7a PA:0x80008c11
       21765000	      2175	80002000	eccd7d13	andi	x26,x26,-308	 x26:0x00000000 x26=0x00000000
       21775000	      2176	80002004	405f5893	srai	x17,x30,0x5	 x30:0x00000000 x17=0x00000000
       21785000	      2177	80002008	01314f83	lbu	x31,19(x2)	  x2:0x80008bfb x31=0x00000000 PA:0x80008c0e
       21795000	      2178	8000200c	02b15083	lhu	x1,43(x2)	  x2:0x80008bfb  x1=0x00000000 PA:0x80008c26
       21805000	      2179	80002010	01e10d23	sb	x30,26(x2)	  x2:0x80008bfb x30:0x00000000 PA:0x80008c15
       21815000	      2180	80002014	417d52b3	sra	x5,x26,x23	 x26:0x00000000 x23:0x00000000  x5=0x00000000
       21825000	      2181	80002018	02f10223	sb	x15,36(x2)	  x2:0x80008bfb x15:0x80009ee8 PA:0x80008c1f
       21835000	      2182	8000201c	0ae97b13	andi	x22,x18,174	 x18:0x80009fc4 x22=0x00000084
       21845000	      2183	80002020	02811ca3	sh	x8,57(x2)	  x2:0x80008bfb  x8:0x00000000 PA:0x80008c34
       21855000	      2184	80002024	415cd333	sra	x6,x25,x21	 x25:0x80009fc4 x21:0x00000000  x6=0x80009fc4
       21865000	      2185	80002028	ff910083	lb	x1,-7(x2)	  x2:0x80008bfb  x1=0x00000000 PA:0x80008bf4
       21875000	      2186	8000202c	7d7cb093	sltiu	x1,x25,2007	 x25:0x80009fc4  x1=0x00000000
       21885000	      2187	80002030	02c14903	lbu	x18,44(x2)	  x2:0x80008bfb x18=0x00000000 PA:0x80008c27
       21895000	      2188	80002034	fdd15003	lhu	x0,-35(x2)	  x2:0x80008bfb PA:0x80008bd8
       21905000	      2189	80002038	03112a03	lw	x20,49(x2)	  x2:0x80008bfb x20=0x00000000 PA:0x80008c2c
       21915000	      2190	8000203c	fc610683	lb	x13,-58(x2)	  x2:0x80008bfb x13=0x00000000 PA:0x80008bc1
       21925000	      2191	80002040	03214f83	lbu	x31,50(x2)	  x2:0x80008bfb x31=0x00000000 PA:0x80008c2d
       21935000	      2192	80002044	0120a3b3	slt	x7,x1,x18	  x1:0x00000000 x18:0x00000000  x7=0x00000000
       21945000	      2193	80002048	fe710923	sb	x7,-14(x2)	  x2:0x80008bfb  x7:0x00000000 PA:0x80008bed
       21955000	      2194	8000204c	fdf14a03	lbu	x20,-33(x2)	  x2:0x80008bfb x20=0x00000000 PA:0x80008bda
       21965000	      2195	80002050	00875433	srl	x8,x14,x8	 x14:0x00000000  x8:0x00000000  x8=0x00000000
       21975000	      2196	80002054	fd512e83	lw	x29,-43(x2)	  x2:0x80008bfb x29=0x00000000 PA:0x80008bd0
       21985000	      2197	80002058	036120a3	sw	x22,33(x2)	  x2:0x80008bfb x22:0x00000084 PA:0x80008c1c
       21995000	      2198	8000205c	02010603	lb	x12,32(x2)	  x2:0x80008bfb x12=0x00000000 PA:0x80008c1b
       22005000	      2199	80002060	00610f83	lb	x31,6(x2)	  x2:0x80008bfb x31=0x00000000 PA:0x80008c01
       22015000	      2200	80002064	00007917	auipc	x18,0x7	 x18=0x80009060
       22025000	      2201	80002068	9aa90913	addi	x18,x18,-1622	 x18:0x80009060 x18=0x80008a0a
       22035000	      2202	8000206c	0004db93	srli	x23,x9,0x0	  x9:0x00000000 x23=0x00000000
       22045000	      2203	80002070	29d90403	lb	x8,669(x18)	 x18:0x80008a0a  x8=0x00000000 PA:0x80008ca7
       22055000	      2204	80002074	002830b3	sltu	x1,x16,x2	 x16:0x00000000  x2:0x80008bfb  x1=0x00000001
       22065000	      2205	80002078	89f97593	andi	x11,x18,-1889	 x18:0x80008a0a x11=0x8000880a
       22075000	      2206	8000207c	0197d493	srli	x9,x15,0x19	 x15:0x80009ee8  x9=0x00000040
       22085000	      2207	80002080	30594383	lbu	x7,773(x18)	 x18:0x80008a0a  x7=0x00000000 PA:0x80008d0f
       22095000	      2208	80002084	00575f93	srli	x31,x14,0x5	 x14:0x00000000 x31=0x00000000
       22105000	      2209	80002088	ba03a613	slti	x12,x7,-1120	  x7:0x00000000 x12=0x00000000
       22115000	      2210	8000208c	01b48fb3	add	x31,x9,x27	  x9:0x00000040 x27:0x00000000 x31=0x00000040
       22125000	      2211	80002090	00708ab3	add	x21,x1,x7	  x1:0x00000001  x7:0x00000000 x21=0x00000001
       22135000	      2212	80002094	01e88033	add	x0,x17,x30	 x17:0x00000000 x30:0x00000000
       22145000	      2213	80002098	55e91c23	sh	x30,1368(x18)	 x18:0x80008a0a x30:0x00000000 PA:0x80008f62
       22155000	      2214	8000209c	01b91eb3	sll	x29,x18,x27	 x18:0x80008a0a x27:0x00000000 x29=0x80008a0a
       22165000	      2215	800020a0	9acb4a93	xori	x21,x22,-1620	 x22:0x00000084 x21=0xfffff928
       22175000	      2216	800020a4	239dac13	slti	x24,x27,569	 x27:0x00000000 x24=0x00000001
       22185000	      2217	800020a8	01d94033	xor	x0,x18,x29	 x18:0x80008a0a x29:0x80008a0a
       22195000	      2218	800020ac	8c3c4b13	xori	x22,x24,-1853	 x24:0x00000001 x22=0xfffff8c2
       22205000	      2219	800020b0	0d590223	sb	x21,196(x18)	 x18:0x80008a0a x21:0xfffff928 PA:0x80008ace
       22215000	      2220	800020b4	fba907a3	sb	x26,-81(x18)	 x18:0x80008a0a x26:0x00000000 PA:0x800089b9
       22225000	      2221	800020b8	1f691183	lh	x3,502(x18)	 x18:0x80008a0a  x3=0x00000000 PA:0x80008c00
       22235000	      2222	800020bc	00000013	addi	x0,x0,0	  x0:0x00000000
       22245000	      2223	800020c0	440907a3	sb	x0,1103(x18)	 x18:0x80008a0a  x0:0x00000000 PA:0x80008e59
       22255000	      2224	800020c4	574b0d13	addi	x26,x22,1396	 x22:0xfffff8c2 x26=0xfffffe36
       22265000	      2225	800020c8	49c90b03	lb	x22,1180(x18)	 x18:0x80008a0a x22=0x00000000 PA:0x80008ea6
       22275000	      2226	800020cc	005560b3	or	x1,x10,x5	 x10:0x00000000  x5:0x00000000  x1=0x00000000
       22285000	      2227	800020d0	fe490023	sb	x4,-32(x18)	 x18:0x80008a0a  x4:0x00000000 PA:0x800089ea
       22295000	      2228	800020d4	00aad393	srli	x7,x21,0xa	 x21:0xfffff928  x7=0x003ffffe
       22305000	      2229	800020d8	0c291583	lh	x11,194(x18)	 x18:0x80008a0a x11=0x00000000 PA:0x80008acc
       22315000	      2230	800020dc	17191d23	sh	x17,378(x18)	 x18:0x80008a0a x17:0x00000000 PA:0x80008b84
       22325000	      2231	800020e0	000fab33	slt	x22,x31,x0	 x31:0x00000040  x0:0x00000000 x22=0x00000000
       22335000	      2232	800020e4	00b15033	srl	x0,x2,x11	  x2:0x80008bfb x11:0x00000000
       22345000	      2233	800020e8	e7e92d83	lw	x27,-386(x18)	 x18:0x80008a0a x27=0x00000000 PA:0x80008888
       22355000	      2234	800020ec	57e92703	lw	x14,1406(x18)	 x18:0x80008a0a x14=0x00000000 PA:0x80008f88
       22365000	      2235	800020f0	00007217	auipc	x4,0x7	  x4=0x800090ec
       22375000	      2236	800020f4	b6020213	addi	x4,x4,-1184	  x4:0x800090ec  x4=0x80008c4c
       22385000	      2237	800020f8	00921013	slli	x0,x4,0x9	  x4:0x80008c4c
       22395000	      2238	800020fc	005bc633	xor	x12,x23,x5	 x23:0x00000000  x5:0x00000000 x12=0x00000000
       22405000	      2239	80002100	23520423	sb	x21,552(x4)	  x4:0x80008c4c x21:0xfffff928 PA:0x80008e74
       22415000	      2240	80002104	6b24f013	andi	x0,x9,1714	  x9:0x00000040
       22425000	      2241	80002108	e8e72593	slti	x11,x14,-370	 x14:0x00000000 x11=0x00000000
       22435000	      2242	8000210c	16f24b03	lbu	x22,367(x4)	  x4:0x80008c4c x22=0x00000000 PA:0x80008dbb
       22445000	      2243	80002110	e5920323	sb	x25,-442(x4)	  x4:0x80008c4c x25:0x80009fc4 PA:0x80008a92
       22455000	      2244	80002114	1aa24e03	lbu	x28,426(x4)	  x4:0x80008c4c x28=0x00000000 PA:0x80008df6
       22465000	      2245	80002118	00825ab3	srl	x21,x4,x8	  x4:0x80008c4c  x8:0x00000000 x21=0x80008c4c
       22475000	      2246	8000211c	e4421583	lh	x11,-444(x4)	  x4:0x80008c4c x11=0x00000000 PA:0x80008a90
       22485000	      2247	00000000	00000013	addi	x0,x0,0	  x0:0x00000000
       22495000	      2248	80002120	01e5da33	srl	x20,x11,x30	 x11:0x00000000 x30:0x00000000 x20=0x00000000
       22505000	      2249	80002124	31524903	lbu	x18,789(x4)	  x4:0x80008c4c x18=0x00000000 PA:0x80008f61
       22515000	      2250	80002128	4107d8b3	sra	x17,x15,x16	 x15:0x80009ee8 x16:0x00000000 x17=0x80009ee8
       22525000	      2251	8000212c	14e21803	lh	x16,334(x4)	  x4:0x80008c4c x16=0x00000000 PA:0x80008d9a
       22535000	      2252	80002130	37824283	lbu	x5,888(x4)	  x4:0x80008c4c  x5=0x00000000 PA:0x80008fc4
       22545000	      2253	80002134	fea20683	lb	x13,-22(x4)	  x4:0x80008c4c x13=0x00000000 PA:0x80008c36
       22555000	      2254	80002138	dccd5f97	auipc	x31,0xdccd5	 x31=0x5ccd7134
       22565000	      2255	8000213c	20622e23	sw	x6,540(x4)	  x4:0x80008c4c  x6:0x80009fc4 PA:0x80008e68
       22575000	      2256	80002140	13d24603	lbu	x12,317(x4)	  x4:0x80008c4c x12=0x00000000 PA:0x80008d89
       22585000	      2257	80002144	d9c22e83	lw	x29,-612(x4)	  x4:0x80008c4c x29=0x00000000 PA:0x800089e8
       22595000	      2258	80002148	e0824503	lbu	x10,-504(x4)	  x4:0x80008c4c x10=0x00000000 PA:0x80008a54
       22605000	      2259	8000214c	40220d33	sub	x26,x4,x2	  x4:0x80008c4c  x2:0x80008bfb x26=0x00000051
       22615000	      2260	80002150	c43201a3	sb	x3,-957(x4)	  x4:0x80008c4c  x3:0x00000000 PA:0x8000888f
       22625000	      2261	80002154	4cc03297	auipc	x5,0x4cc03	  x5=0xccc05150
       22635000	      2262	80002158	daf06693	ori	x13,x0,-593	  x0:0x00000000 x13=0xfffffdaf
       22645000	      2263	8000215c	019f7633	and	x12,x30,x25	 x30:0x00000000 x25:0x80009fc4 x12=0x00000000
       22655000	      2264	80002160	80a0b413	sltiu	x8,x1,-2038	  x1:0x00000000  x8=0x00000001
       22665000	      2265	80002164	00342eb3	slt	x29,x8,x3	  x8:0x00000001  x3:0x00000000 x29=0x00000000
       22675000	      2266	80002168	1dc24283	lbu	x5,476(x4)	  x4:0x80008c4c  x5=0x00000000 PA:0x80008e28
       22685000	      2267	8000216c	015f8d33	add	x26,x31,x21	 x31:0x5ccd7134 x21:0x80008c4c x26=0xdccdfd80
       22695000	      2268	80002170	07a78d93	addi	x27,x15,122	 x15:0x80009ee8 x27=0x80009f62
       22705000	      2269	80002174	0a721d23	sh	x7,186(x4)	  x4:0x80008c4c  x7:0x003ffffe PA:0x80008d06
       22715000	      2270	80002178	b099f913	andi	x18,x19,-1271	 x19:0x92f21a7a x18=0x92f21a08
       22725000	      2271	8000217c	f5c208a3	sb	x28,-175(x4)	  x4:0x80008c4c x28:0x00000000 PA:0x80008b9d
       22735000	      2272	80002180	ead20583	lb	x11,-339(x4)	  x4:0x80008c4c x11=0x00000000 PA:0x80008af9
       22745000	      2273	80002184	00006417	auipc	x8,0x6	  x8=0x80008180
       22755000	      2274	80002188	19040413	addi	x8,x8,400	  x8:0x80008180  x8=0x80008310
       22765000	      2275	8000218c	00144b03	lbu	x22,1(x8)	  x8:0x80008310 x22=0x00000000 PA:0x80008311
       22775000	      2276	80002190	00844003	lbu	x0,8(x8)	  x8:0x80008310 PA:0x80008318
       22785000	      2277	80002194	00130133	add	x2,x6,x1	  x6:0x80009fc4  x1:0x00000000  x2=0x80009fc4
       22795000	      2278	80002198	01e42023	sw	x30,0(x8)	  x8:0x80008310 x30:0x00000000 PA:0x80008310
       22805000	      2279	8000219c	01142023	sw	x17,0(x8)	  x8:0x80008310 x17:0x80009ee8 PA:0x80008310
       22815000	      2280	800021a0	008194b3	sll	x9,x3,x8	  x3:0x00000000  x8:0x80008310  x9=0x00000000
       22825000	      2281	800021a4	0076bc33	sltu	x24,x13,x7	 x13:0xfffffdaf  x7:0x003ffffe x24=0x00000000
       22835000	      2282	800021a8	ffa44d03	lbu	x26,-6(x8)	  x8:0x80008310 x26=0x00000000 PA:0x8000830a
       22845000	      2283	800021ac	ffc40fa3	sb	x28,-1(x8)	  x8:0x80008310 x28:0x00000000 PA:0x8000830f
       22855000	      2284	800021b0	00041703	lh	x14,0(x8)	  x8:0x80008310 x14=0xffff9ee8 PA:0x80008310
       22865000	      2285	800021b4	011400a3	sb	x17,1(x8)	  x8:0x80008310 x17:0x80009ee8 PA:0x80008311
       22875000	      2286	800021b8	00123933	sltu	x18,x4,x1	  x4:0x80008c4c  x1:0x00000000 x18=0x00000000
       22885000	      2287	800021bc	ff0409a3	sb	x16,-13(x8)	  x8:0x80008310 x16:0x00000000 PA:0x80008303
       22895000	      2288	800021c0	fff44083	lbu	x1,-1(x8)	  x8:0x80008310  x1=0x00000000 PA:0x8000830f
       22905000	      2289	800021c4	75dab213	sltiu	x4,x21,1885	 x21:0x80008c4c  x4=0x00000000
       22915000	      2290	800021c8	00cae633	or	x12,x21,x12	 x21:0x80008c4c x12:0x00000000 x12=0x80008c4c
       22925000	      2291	800021cc	00144883	lbu	x17,1(x8)	  x8:0x80008310 x17=0x000000e8 PA:0x80008311
       22935000	      2292	800021d0	015c5493	srli	x9,x24,0x15	 x24:0x00000000  x9=0x00000000
       22945000	      2293	800021d4	00d44203	lbu	x4,13(x8)	  x8:0x80008310  x4=0x00000000 PA:0x8000831d
       22955000	      2294	800021d8	ffb44203	lbu	x4,-5(x8)	  x8:0x80008310  x4=0x00000000 PA:0x8000830b
       22965000	      2295	800021dc	9400a913	slti	x18,x1,-1728	  x1:0x00000000 x18=0x00000000
       22975000	      2296	800021e0	01ace133	or	x2,x25,x26	 x25:0x80009fc4 x26:0x00000000  x2=0x80009fc4
       22985000	      2297	800021e4	01a37eb3	and	x29,x6,x26	  x6:0x80009fc4 x26:0x00000000 x29=0x00000000
       22995000	      2298	800021e8	00109093	slli	x1,x1,0x1	  x1:0x00000000  x1=0x00000000
       23005000	      2299	800021ec	fff44a83	lbu	x21,-1(x8)	  x8:0x80008310 x21=0x00000000 PA:0x8000830f
       23015000	      2300	800021f0	ffe44383	lbu	x7,-2(x8)	  x8:0x80008310  x7=0x00000000 PA:0x8000830e
       23025000	      2301	800021f4	00245e03	lhu	x28,2(x8)	  x8:0x80008310 x28=0x00008000 PA:0x80008312
       23035000	      2302	800021f8	ffa44083	lbu	x1,-6(x8)	  x8:0x80008310  x1=0x00000000 PA:0x8000830a
       23045000	      2303	800021fc	ff040503	lb	x10,-16(x8)	  x8:0x80008310 x10=0x00000000 PA:0x80008300
       23055000	      2304	80002200	3ce1ad93	slti	x27,x3,974	  x3:0x00000000 x27=0x00000001
       23065000	      2305	80002204	00aeafb3	slt	x31,x29,x10	 x29:0x00000000 x10:0x00000000 x31=0x00000000
       23075000	      2306	80002208	0175c1b3	xor	x3,x11,x23	 x11:0x00000000 x23:0x00000000  x3=0x00000000
       23085000	      2307	8000220c	ffa41a83	lh	x21,-6(x8)	  x8:0x80008310 x21=0x00000000 PA:0x8000830a
       23095000	      2308	80002210	013400a3	sb	x19,1(x8)	  x8:0x80008310 x19:0x92f21a7a PA:0x80008311
       23105000	      2309	80002214	00868e33	add	x28,x13,x8	 x13:0xfffffdaf  x8:0x80008310 x28=0x800080bf
       23115000	      2310	80002218	ffc40b03	lb	x22,-4(x8)	  x8:0x80008310 x22=0x00000000 PA:0x8000830c
       23125000	      2311	8000221c	00d44c03	lbu	x24,13(x8)	  x8:0x80008310 x24=0x00000000 PA:0x8000831d
       23135000	      2312	80002220	00e41903	lh	x18,14(x8)	  x8:0x80008310 x18=0x00000000 PA:0x8000831e
       23145000	      2313	80002224	0038a333	slt	x6,x17,x3	 x17:0x000000e8  x3:0x00000000  x6=0x00000000
       23155000	      2314	80002228	73a42513	slti	x10,x8,1850	  x8:0x80008310 x10=0x00000001
       23165000	      2315	8000222c	00140103	lb	x2,1(x8)	  x8:0x80008310  x2=0x0000007a PA:0x80008311
       23175000	      2316	80002230	00d40e03	lb	x28,13(x8)	  x8:0x80008310 x28=0x00000000 PA:0x8000831d
       23185000	      2317	80002234	ff140d03	lb	x26,-15(x8)	  x8:0x80008310 x26=0x00000000 PA:0x80008301
       23195000	      2318	80002238	00006a17	auipc	x20,0x6	 x20=0x80008234
       23205000	      2319	8000223c	671a0a13	addi	x20,x20,1649	 x20:0x80008234 x20=0x800088a5
       23215000	      2320	80002240	01aa0603	lb	x12,26(x20)	 x20:0x800088a5 x12=0x00000000 PA:0x800088bf
       23225000	      2321	80002244	5d6cb413	sltiu	x8,x25,1494	 x25:0x80009fc4  x8=0x00000000
       23235000	      2322	80002248	fc5a12a3	sh	x5,-59(x20)	 x20:0x800088a5  x5:0x00000000 PA:0x8000886a
       23245000	      2323	8000224c	fdda0f03	lb	x30,-35(x20)	 x20:0x800088a5 x30=0x00000000 PA:0x80008882
       23255000	      2324	80002250	01b3bd33	sltu	x26,x7,x27	  x7:0x00000000 x27:0x00000001 x26=0x00000001
       23265000	      2325	80002254	40a35833	sra	x16,x6,x10	  x6:0x00000000 x10:0x00000001 x16=0x00000000
       23275000	      2326	80002258	dcc7f713	andi	x14,x15,-564	 x15:0x80009ee8 x14=0x80009cc8
       23285000	      2327	8000225c	009af933	and	x18,x21,x9	 x21:0x00000000  x9:0x00000000 x18=0x00000000
       23295000	      2328	80002260	21899337	lui	x6,0x21899	  x6=0x21899000
       23305000	      2329	80002264	00ea4183	lbu	x3,14(x20)	 x20:0x800088a5  x3=0x00000000 PA:0x800088b3
       23315000	      2330	80002268	013f6db3	or	x27,x30,x19	 x30:0x00000000 x19:0x92f21a7a x27=0x92f21a7a
       23325000	      2331	8000226c	013a4803	lbu	x16,19(x20)	 x20:0x800088a5 x16=0x00000000 PA:0x800088b8
       23335000	      2332	80002270	fc8a4383	lbu	x7,-56(x20)	 x20:0x800088a5  x7=0x00000000 PA:0x8000886d
       23345000	      2333	80002274	fd923013	sltiu	x0,x4,-39	  x4:0x00000000
       23355000	      2334	80002278	00f4e033	or	x0,x9,x15	  x9:0x00000000 x15:0x80009ee8
       23365000	      2335	8000227c	002a0323	sb	x2,6(x20)	 x20:0x800088a5  x2:0x0000007a PA:0x800088ab
       23375000	      2336	80002280	01fa2383	lw	x7,31(x20)	 x20:0x800088a5  x7=0x00000000 PA:0x800088c4
       23385000	      2337	80002284	ff0a12a3	sh	x16,-27(x20)	 x20:0x800088a5 x16:0x00000000 PA:0x8000888a
       23395000	      2338	80002288	022a0323	sb	x2,38(x20)	 x20:0x800088a5  x2:0x0000007a PA:0x800088cb
       23405000	      2339	8000228c	01fe9013	slli	x0,x29,0x1f	 x29:0x00000000
       23415000	      2340	80002290	00905d33	srl	x26,x0,x9	  x0:0x00000000  x9:0x00000000 x26=0x00000000
       23425000	      2341	80002294	41430d33	sub	x26,x6,x20	  x6:0x21899000 x20:0x800088a5 x26=0xa189075b
       23435000	      2342	80002298	ff1a5383	lhu	x7,-15(x20)	 x20:0x800088a5  x7=0x00000000 PA:0x80008896
       23445000	      2343	00000000	00000013	addi	x0,x0,0	  x0:0x00000000
       23455000	      2344	8000229c	007a5103	lhu	x2,7(x20)	 x20:0x800088a5  x2=0x00000000 PA:0x800088ac
       23465000	      2345	800022a0	40185b93	srai	x23,x16,0x1	 x16:0x00000000 x23=0x00000000
       23475000	      2346	800022a4	7c243713	sltiu	x14,x8,1986	  x8:0x00000000 x14=0x00000001
       23485000	      2347	800022a8	feba02a3	sb	x11,-27(x20)	 x20:0x800088a5 x11:0x00000000 PA:0x8000888a
       23495000	      2348	800022ac	00ea0e03	lb	x28,14(x20)	 x20:0x800088a5 x28=0x00000000 PA:0x800088b3
       23505000	      2349	800022b0	7396ea93	ori	x21,x13,1849	 x13:0xfffffdaf x21=0xffffffbf
       23515000	      2350	800022b4	002fbb33	sltu	x22,x31,x2	 x31:0x00000000  x2:0x00000000 x22=0x00000000
       23525000	      2351	800022b8	fd0a0883	lb	x17,-48(x20)	 x20:0x800088a5 x17=0x00000000 PA:0x80008875
       23535000	      2352	800022bc	fdaa17a3	sh	x26,-49(x20)	 x20:0x800088a5 x26:0xa189075b PA:0x80008874
       23545000	      2353	800022c0	013c9133	sll	x2,x25,x19	 x25:0x80009fc4 x19:0x92f21a7a  x2=0x10000000
       23555000	      2354	800022c4	fc4a4103	lbu	x2,-60(x20)	 x20:0x800088a5  x2=0x00000000 PA:0x80008869
       23565000	      2355	800022c8	0005c1b3	xor	x3,x11,x0	 x11:0x00000000  x0:0x00000000  x3=0x00000000
       23575000	      2356	800022cc	034a09a3	sb	x20,51(x20)	 x20:0x800088a5 x20:0x800088a5 PA:0x800088d8
       23585000	      2357	800022d0	018a4d03	lbu	x26,24(x20)	 x20:0x800088a5 x26=0x00000000 PA:0x800088bd
       23595000	      2358	800022d4	fe8a4d03	lbu	x26,-24(x20)	 x20:0x800088a5 x26=0x00000000 PA:0x8000888d
       23605000	      2359	800022d8	ffba0923	sb	x27,-14(x20)	 x20:0x800088a5 x27:0x92f21a7a PA:0x80008897
       23615000	      2360	800022dc	0050aeb3	slt	x29,x1,x5	  x1:0x00000000  x5:0x00000000 x29=0x00000000
       23625000	      2361	800022e0	01ea0123	sb	x30,2(x20)	 x20:0x800088a5 x30:0x00000000 PA:0x800088a7
       23635000	      2362	800022e4	fc0a0603	lb	x12,-64(x20)	 x20:0x800088a5 x12=0x00000000 PA:0x80008865
       23645000	      2363	800022e8	00006297	auipc	x5,0x6	  x5=0x800082e4
       23655000	      2364	800022ec	65728293	addi	x5,x5,1623	  x5:0x800082e4  x5=0x8000893b
       23665000	      2365	800022f0	03486e17	auipc	x28,0x3486	 x28=0x834882ec
       23675000	      2366	800022f4	f8129583	lh	x11,-127(x5)	  x5:0x8000893b x11=0x00000000 PA:0x800088bc
       23685000	      2367	800022f8	f4828da3	sb	x8,-165(x5)	  x5:0x8000893b  x8:0x00000000 PA:0x80008896
       23695000	      2368	800022fc	5cb72a37	lui	x20,0x5cb72	 x20=0x5cb72000
       23705000	      2369	80002300	67261717	auipc	x14,0x67261	 x14=0xe72632fc
       23715000	      2370	80002304	00215433	srl	x8,x2,x2	  x2:0x00000000  x2:0x00000000  x8=0x00000000
       23725000	      2371	80002308	01087d33	and	x26,x16,x16	 x16:0x00000000 x16:0x00000000 x26=0x00000000
       23735000	      2372	8000230c	b3514313	xori	x6,x2,-1227	  x2:0x00000000  x6=0xfffffb35
       23745000	      2373	80002310	0177f633	and	x12,x15,x23	 x15:0x80009ee8 x23:0x00000000 x12=0x00000000
       23755000	      2374	80002314	01fa5fb3	srl	x31,x20,x31	 x20:0x5cb72000 x31:0x00000000 x31=0x5cb72000
       23765000	      2375	80002318	41de5613	srai	x12,x28,0x1d	 x28:0x834882ec x12=0xfffffffc
       23775000	      2376	8000231c	61f2ca83	lbu	x21,1567(x5)	  x5:0x8000893b x21=0x00000000 PA:0x80008f5a
       23785000	      2377	80002320	1fd29583	lh	x11,509(x5)	  x5:0x8000893b x11=0x00000000 PA:0x80008b38
       23795000	      2378	80002324	0030f733	and	x14,x1,x3	  x1:0x00000000  x3:0x00000000 x14=0x00000000
       23805000	      2379	80002328	0fe2c203	lbu	x4,254(x5)	  x5:0x8000893b  x4=0x00000000 PA:0x80008a39
       23815000	      2380	8000232c	9d61a513	slti	x10,x3,-1578	  x3:0x00000000 x10=0x00000000
       23825000	      2381	80002330	4ef284a3	sb	x15,1257(x5)	  x5:0x8000893b x15:0x80009ee8 PA:0x80008e24
       23835000	      2382	80002334	01271f13	slli	x30,x14,0x12	 x14:0x00000000 x30=0x00000000
       23845000	      2383	80002338	3e528c03	lb	x24,997(x5)	  x5:0x8000893b x24=0x00000000 PA:0x80008d20
       23855000	      2384	8000233c	f3d28a83	lb	x21,-195(x5)	  x5:0x8000893b x21=0x00000000 PA:0x80008878
       23865000	      2385	80002340	1e02cf83	lbu	x31,480(x5)	  x5:0x8000893b x31=0x00000000 PA:0x80008b1b
       23875000	      2386	00000000	00000013	addi	x0,x0,0	  x0:0x00000000
       23885000	      2387	80002344	f7f29683	lh	x13,-129(x5)	  x5:0x8000893b x13=0x00000000 PA:0x800088ba
       23895000	      2388	80002348	14f29003	lh	x0,335(x5)	  x5:0x8000893b PA:0x80008a8a
       23905000	      2389	8000234c	fb1281a3	sb	x17,-93(x5)	  x5:0x8000893b x17:0x00000000 PA:0x800088de
       23915000	      2390	80002350	00000013	addi	x0,x0,0	  x0:0x00000000
       23925000	      2391	80002354	2782c683	lbu	x13,632(x5)	  x5:0x8000893b x13=0x00000000 PA:0x80008bb3
       23935000	      2392	80002358	fc828f23	sb	x8,-34(x5)	  x5:0x8000893b  x8:0x00000000 PA:0x80008919
       23945000	      2393	8000235c	f7729683	lh	x13,-137(x5)	  x5:0x8000893b x13=0x00000000 PA:0x800088b2
       23955000	      2394	80002360	688d2a13	slti	x20,x26,1672	 x26:0x00000000 x20=0x00000001
       23965000	      2395	80002364	4dcf4f13	xori	x30,x30,1244	 x30:0x00000000 x30=0x000004dc
       23975000	      2396	80002368	3b905b97	auipc	x23,0x3b905	 x23=0xbb907364
       23985000	      2397	8000236c	5c92cd83	lbu	x27,1481(x5)	  x5:0x8000893b x27=0x00000000 PA:0x80008f04
       23995000	      2398	80002370	412c03b3	sub	x7,x24,x18	 x24:0x00000000 x18:0x00000000  x7=0x00000000
       24005000	      2399	80002374	013c3733	sltu	x14,x24,x19	 x24:0x00000000 x19:0x92f21a7a x14=0x00000001
       24015000	      2400	80002378	0d02ce83	lbu	x29,208(x5)	  x5:0x8000893b x29=0x00000000 PA:0x80008a0b
       24025000	      2401	8000237c	01b69c33	sll	x24,x13,x27	 x13:0x00000000 x27:0x00000000 x24=0x00000000
       24035000	      2402	80002380	017eaeb3	slt	x29,x29,x23	 x29:0x00000000 x23:0xbb907364 x29=0x00000000
       24045000	      2403	80002384	003c3433	sltu	x8,x24,x3	 x24:0x00000000  x3:0x00000000  x8=0x00000000
       24055000	      2404	80002388	51a2c103	lbu	x2,1306(x5)	  x5:0x8000893b  x2=0x00000000 PA:0x80008e55
       24065000	      2405	8000238c	c70c5537	lui	x10,0xc70c5	 x10=0xc70c5000
       24075000	      2406	80002390	5e72d303	lhu	x6,1511(x5)	  x5:0x8000893b  x6=0x00000000 PA:0x80008f22
       24085000	      2407	80002394	f7129183	lh	x3,-143(x5)	  x5:0x8000893b  x3=0x00000000 PA:0x800088ac
       24095000	      2408	80002398	0062aaa3	sw	x6,21(x5)	  x5:0x8000893b  x6:0x00000000 PA:0x80008950
       24105000	      2409	8000239c	07828f03	lb	x30,120(x5)	  x5:0x8000893b x30=0x00000000 PA:0x800089b3
       24115000	      2410	800023a0	34b28523	sb	x11,842(x5)	  x5:0x8000893b x11:0x00000000 PA:0x80008c85
       24125000	      2411	800023a4	2e00b717	auipc	x14,0x2e00b	 x14=0xae00d3a0
       24135000	      2412	800023a8	01997433	and	x8,x18,x25	 x18:0x00000000 x25:0x80009fc4  x8=0x00000000
       24145000	      2413	800023ac	1652da83	lhu	x21,357(x5)	  x5:0x8000893b x21=0x00000000 PA:0x80008aa0
       24155000	      2414	800023b0	6642a8a3	sw	x4,1649(x5)	  x5:0x8000893b  x4:0x00000000 PA:0x80008fac
       24165000	      2415	800023b4	e3ec3113	sltiu	x2,x24,-450	 x24:0x00000000  x2=0x00000001
       24175000	      2416	800023b8	52d2d083	lhu	x1,1325(x5)	  x5:0x8000893b  x1=0x00009fc4 PA:0x80008e68
       24185000	      2417	800023bc	4fde2413	slti	x8,x28,1277	 x28:0x834882ec  x8=0x00000001
       24195000	      2418	800023c0	b2c06437	lui	x8,0xb2c06	  x8=0xb2c06000
       24205000	      2419	800023c4	01a85bb3	srl	x23,x16,x26	 x16:0x00000000 x26:0x00000000 x23=0x00000000
       24215000	      2420	800023c8	4092a183	lw	x3,1033(x5)	  x5:0x8000893b  x3=0x00000000 PA:0x80008d44
       24225000	      2421	800023cc	01fd2eb3	slt	x29,x26,x31	 x26:0x00000000 x31:0x00000000 x29=0x00000000
       24235000	      2422	800023d0	19828583	lb	x11,408(x5)	  x5:0x8000893b x11=0x00000000 PA:0x80008ad3
       24245000	      2423	800023d4	00006297	auipc	x5,0x6	  x5=0x800083d0
       24255000	      2424	800023d8	3a028293	addi	x5,x5,928	  x5:0x800083d0  x5=0x80008770
       24265000	      2425	800023dc	a4d29c23	sh	x13,-1448(x5)	  x5:0x80008770 x13:0x00000000 PA:0x800081c8
       24275000	      2426	800023e0	011e1b93	slli	x23,x28,0x11	 x28:0x834882ec x23=0x05d80000
       24285000	      2427	800023e4	0cd06713	ori	x14,x0,205	  x0:0x00000000 x14=0x000000cd
       24295000	      2428	800023e8	00f2a823	sw	x15,16(x5)	  x5:0x80008770 x15:0x80009ee8 PA:0x80008780
       24305000	      2429	800023ec	93d2cf83	lbu	x31,-1731(x5)	  x5:0x80008770 x31=0x00000000 PA:0x800080ad
       24315000	      2430	800023f0	99c3f513	andi	x10,x7,-1636	  x7:0x00000000 x10=0x00000000
       24325000	      2431	800023f4	ec02d903	lhu	x18,-320(x5)	  x5:0x80008770 x18=0x00000000 PA:0x80008630
       24335000	      2432	800023f8	40455c33	sra	x24,x10,x4	 x10:0x00000000  x4:0x00000000 x24=0x00000000
       24345000	      2433	800023fc	08f286a3	sb	x15,141(x5)	  x5:0x80008770 x15:0x80009ee8 PA:0x800087fd
       24355000	      2434	80002400	00805133	srl	x2,x0,x8	  x0:0x00000000  x8:0xb2c06000  x2=0x00000000
       24365000	      2435	80002404	dd82d803	lhu	x16,-552(x5)	  x5:0x80008770 x16=0x00000000 PA:0x80008548
       24375000	      2436	80002408	00000013	addi	x0,x0,0	  x0:0x00000000
       24385000	      2437	8000240c	93e29683	lh	x13,-1730(x5)	  x5:0x80008770 x13=0x00007500 PA:0x800080ae
       24395000	      2438	80002410	407881b3	sub	x3,x17,x7	 x17:0x00000000  x7:0x00000000  x3=0x00000000
       24405000	      2439	80002414	93929a23	sh	x25,-1740(x5)	  x5:0x80008770 x25:0x80009fc4 PA:0x800080a4
       24415000	      2440	80002418	012903b3	add	x7,x18,x18	 x18:0x00000000 x18:0x00000000  x7=0x00000000
       24425000	      2441	8000241c	8f629523	sh	x22,-1814(x5)	  x5:0x80008770 x22:0x00000000 PA:0x8000805a
       24435000	      2442	80002420	ca32c483	lbu	x9,-861(x5)	  x5:0x80008770  x9=0x00000000 PA:0x80008413
       24445000	      2443	80002424	e5e28383	lb	x7,-418(x5)	  x5:0x80008770  x7=0x00000000 PA:0x800085ce
       24455000	      2444	80002428	b7928a83	lb	x21,-1159(x5)	  x5:0x80008770 x21=0xffffffa0 PA:0x800082e9
       24465000	      2445	8000242c	0045ed33	or	x26,x11,x4	 x11:0x00000000  x4:0x00000000 x26=0x00000000
       24475000	      2446	80002430	01f39e13	slli	x28,x7,0x1f	  x7:0x00000000 x28=0x00000000
       24485000	      2447	80002434	9022c683	lbu	x13,-1790(x5)	  x5:0x80008770 x13=0x00000000 PA:0x80008072
       24495000	      2448	80002438	c5f28383	lb	x7,-929(x5)	  x5:0x80008770  x7=0x00000000 PA:0x800083cf
       24505000	      2449	8000243c	d7b28b23	sb	x27,-650(x5)	  x5:0x80008770 x27:0x00000000 PA:0x800084e6
       24515000	      2450	80002440	419a5033	sra	x0,x20,x25	 x20:0x00000001 x25:0x80009fc4
       24525000	      2451	80002444	01bb3e33	sltu	x28,x22,x27	 x22:0x00000000 x27:0x00000000 x28=0x00000000
       24535000	      2452	80002448	d362c103	lbu	x2,-714(x5)	  x5:0x80008770  x2=0x00000000 PA:0x800084a6
       24545000	      2453	8000244c	fb32ac23	sw	x19,-72(x5)	  x5:0x80008770 x19:0x92f21a7a PA:0x80008728
       24555000	      2454	80002450	f83289a3	sb	x3,-109(x5)	  x5:0x80008770  x3:0x00000000 PA:0x80008703
       24565000	      2455	80002454	9ec28683	lb	x13,-1556(x5)	  x5:0x80008770 x13=0x00000000 PA:0x8000815c
       24575000	      2456	80002458	40b88bb3	sub	x23,x17,x11	 x17:0x00000000 x11:0x00000000 x23=0x00000000
       24585000	      2457	8000245c	98c28903	lb	x18,-1652(x5)	  x5:0x80008770 x18=0x00000000 PA:0x800080fc
       24595000	      2458	80002460	8e02c883	lbu	x17,-1824(x5)	  x5:0x80008770 x17=0x00000000 PA:0x80008050
       24605000	      2459	80002464	dee29f23	sh	x14,-514(x5)	  x5:0x80008770 x14:0x000000cd PA:0x8000856e
       24615000	      2460	80002468	0097d213	srli	x4,x15,0x9	 x15:0x80009ee8  x4=0x0040004f
       24625000	      2461	8000246c	41ab84b3	sub	x9,x23,x26	 x23:0x00000000 x26:0x00000000  x9=0x00000000
       24635000	      2462	80002470	c2f9c413	xori	x8,x19,-977	 x19:0x92f21a7a  x8=0x6d0de655
       24645000	      2463	80002474	40c38233	sub	x4,x7,x12	  x7:0x00000000 x12:0xfffffffc  x4=0x00000004
       24655000	      2464	80002478	e122da03	lhu	x20,-494(x5)	  x5:0x80008770 x20=0x00000000 PA:0x80008582
       24665000	      2465	8000247c	08028f83	lb	x31,128(x5)	  x5:0x80008770 x31=0x00000000 PA:0x800087f0
       24675000	      2466	80002480	bbb2c003	lbu	x0,-1093(x5)	  x5:0x80008770 PA:0x8000832b
       24685000	      2467	80002484	00131e13	slli	x28,x6,0x1	  x6:0x00000000 x28=0x00000000
       24695000	      2468	80002488	ce42c503	lbu	x10,-796(x5)	  x5:0x80008770 x10=0x00000000 PA:0x80008454
       24705000	      2469	8000248c	aef29523	sh	x15,-1302(x5)	  x5:0x80008770 x15:0x80009ee8 PA:0x8000825a
       24715000	      2470	80002490	06e289a3	sb	x14,115(x5)	  x5:0x80008770 x14:0x000000cd PA:0x800087e3
       24725000	      2471	80002494	8fb2c183	lbu	x3,-1797(x5)	  x5:0x80008770  x3=0x00000000 PA:0x8000806b
       24735000	      2472	80002498	e5b28603	lb	x12,-421(x5)	  x5:0x80008770 x12=0x00000000 PA:0x800085cb
       24745000	      2473	8000249c	00007297	auipc	x5,0x7	  x5=0x80009498
       24755000	      2474	800024a0	ab828293	addi	x5,x5,-1352	  x5:0x80009498  x5=0x80008f50
       24765000	      2475	800024a4	ff528503	lb	x10,-11(x5)	  x5:0x80008f50 x10=0x00000000 PA:0x80008f45
       24775000	      2476	800024a8	0022c203	lbu	x4,2(x5)	  x5:0x80008f50  x4=0x00000000 PA:0x80008f52
       24785000	      2477	00000000	00000013	addi	x0,x0,0	  x0:0x00000000
       24795000	      2478	800024ac	0042a303	lw	x6,4(x5)	  x5:0x80008f50  x6=0x00000000 PA:0x80008f54
       24805000	      2479	800024b0	ff529b23	sh	x21,-10(x5)	  x5:0x80008f50 x21:0xffffffa0 PA:0x80008f46
       24815000	      2480	800024b4	00d2c003	lbu	x0,13(x5)	  x5:0x80008f50 PA:0x80008f5d
       24825000	      2481	800024b8	01c4c633	xor	x12,x9,x28	  x9:0x00000000 x28:0x00000000 x12=0x00000000
       24835000	      2482	800024bc	fff28083	lb	x1,-1(x5)	  x5:0x80008f50  x1=0x00000000 PA:0x80008f4f
       24845000	      2483	800024c0	49c68593	addi	x11,x13,1180	 x13:0x00000000 x11=0x0000049c
       24855000	      2484	800024c4	013287a3	sb	x19,15(x5)	  x5:0x80008f50 x19:0x92f21a7a PA:0x80008f5f
       24865000	      2485	800024c8	0194db33	srl	x22,x9,x25	  x9:0x00000000 x25:0x80009fc4 x22=0x00000000
       24875000	      2486	800024cc	01928123	sb	x25,2(x5)	  x5:0x80008f50 x25:0x80009fc4 PA:0x80008f52
       24885000	      2487	800024d0	ff928a83	lb	x21,-7(x5)	  x5:0x80008f50 x21=0x00000000 PA:0x80008f49
       24895000	      2488	800024d4	9c903413	sltiu	x8,x0,-1591	  x0:0x00000000  x8=0x00000001
       24905000	      2489	800024d8	b20d4617	auipc	x12,0xb20d4	 x12=0x320d64d4
       24915000	      2490	800024dc	00000013	addi	x0,x0,0	  x0:0x00000000
       24925000	      2491	800024e0	00a2d183	lhu	x3,10(x5)	  x5:0x80008f50  x3=0x00000000 PA:0x80008f5a
       24935000	      2492	800024e4	00029b03	lh	x22,0(x5)	  x5:0x80008f50 x22=0x00000000 PA:0x80008f50
       24945000	      2493	800024e8	0042af03	lw	x30,4(x5)	  x5:0x80008f50 x30=0x00000000 PA:0x80008f54
       24955000	      2494	800024ec	0054cf33	xor	x30,x9,x5	  x9:0x00000000  x5:0x80008f50 x30=0x80008f50
       24965000	      2495	800024f0	40035c13	srai	x24,x6,0x0	  x6:0x00000000 x24=0x00000000
       24975000	      2496	800024f4	fe629823	sh	x6,-16(x5)	  x5:0x80008f50  x6:0x00000000 PA:0x80008f40
       24985000	      2497	800024f8	00f1b5b3	sltu	x11,x3,x15	  x3:0x00000000 x15:0x80009ee8 x11=0x00000001
       24995000	      2498	800024fc	2d71ea13	ori	x20,x3,727	  x3:0x00000000 x20=0x000002d7
       25005000	      2499	80002500	4126dd93	srai	x27,x13,0x12	 x13:0x00000000 x27=0x00000000
       25015000	      2500	80002504	af1ee697	auipc	x13,0xaf1ee	 x13=0x2f1f0500
       25025000	      2501	80002508	ff228e23	sb	x18,-4(x5)	  x5:0x80008f50 x18:0x00000000 PA:0x80008f4c
       25035000	      2502	8000250c	ff32c103	lbu	x2,-13(x5)	  x5:0x80008f50  x2=0x00000000 PA:0x80008f43
       25045000	      2503	80002510	fa128c13	addi	x24,x5,-95	  x5:0x80008f50 x24=0x80008ef1
       25055000	      2504	80002514	01c29823	sh	x28,16(x5)	  x5:0x80008f50 x28:0x00000000 PA:0x80008f60
       25065000	      2505	80002518	004280a3	sb	x4,1(x5)	  x5:0x80008f50  x4:0x00000000 PA:0x80008f51
       25075000	      2506	8000251c	00c28eb3	add	x29,x5,x12	  x5:0x80008f50 x12:0x320d64d4 x29=0xb20df424
       25085000	      2507	80002520	ff32c183	lbu	x3,-13(x5)	  x5:0x80008f50  x3=0x00000000 PA:0x80008f43
       25095000	      2508	80002524	fec28ea3	sb	x12,-3(x5)	  x5:0x80008f50 x12:0x320d64d4 PA:0x80008f4d
       25105000	      2509	80002528	abfe3613	sltiu	x12,x28,-1345	 x28:0x00000000 x12=0x00000001
       25115000	      2510	8000252c	41460433	sub	x8,x12,x20	 x12:0x00000001 x20:0x000002d7  x8=0xfffffd2a
       25125000	      2511	80002530	ff72c303	lbu	x6,-9(x5)	  x5:0x80008f50  x6=0x000000ff PA:0x80008f47
       25135000	      2512	80002534	0032c903	lbu	x18,3(x5)	  x5:0x80008f50 x18=0x00000000 PA:0x80008f53
       25145000	      2513	80002538	00df9113	slli	x2,x31,0xd	 x31:0x00000000  x2=0x00000000
       25155000	      2514	8000253c	31606913	ori	x18,x0,790	  x0:0x00000000 x18=0x00000316
       25165000	      2515	80002540	015cac33	slt	x24,x25,x21	 x25:0x80009fc4 x21:0x00000000 x24=0x00000001
       25175000	      2516	80002544	0241ea63	bltu	x3,x4,80002578	  x3:0x00000000  x4:0x00000000
       25185000	      2517	80002548	000ee733	or	x14,x29,x0	 x29:0xb20df424  x0:0x00000000 x14=0xb20df424
       25195000	      2518	8000254c	8c780e93	addi	x29,x16,-1849	 x16:0x00000000 x29=0xfffff8c7
       25205000	      2519	80002550	03551263	bne	x10,x21,80002574	 x10:0x00000000 x21:0x00000000
       25215000	      2520	80002554	01b4c863	blt	x9,x27,80002564	  x9:0x00000000 x27:0x00000000
       25225000	      2521	80002558	01aafc63	bgeu	x21,x26,80002570	 x21:0x00000000 x26:0x00000000
       25235000	      2522	00000000	00000013	addi	x0,x0,0	  x0:0x00000000
       25245000	      2523	8000256c	00000013	addi	x0,x0,0	  x0:0x00000000
       25255000	      2524	80002570	40eb0033	sub	x0,x22,x14	 x22:0x00000000 x14:0xb20df424
       25265000	      2525	80002574	003e0233	add	x4,x28,x3	 x28:0x00000000  x3:0x00000000  x4=0x00000000
       25275000	      2526	80002578	019db033	sltu	x0,x27,x25	 x27:0x00000000 x25:0x80009fc4
       25285000	      2527	8000257c	fffffe17	auipc	x28,0xfffff	 x28=0x80001578
       25295000	      2528	80002580	f58e0e13	addi	x28,x28,-168	 x28:0x80001578 x28=0x800014d0
       25305000	      2529	80002584	bb98e6b7	lui	x13,0xbb98e	 x13=0xbb98e000
       25315000	      2530	80002588	23ee0e13	addi	x28,x28,574	 x28:0x800014d0 x28=0x8000170e
       25325000	      2531	8000258c	000bb533	sltu	x10,x23,x0	 x23:0x00000000  x0:0x00000000 x10=0x00000000
       25335000	      2532	80002590	013a9613	slli	x12,x21,0x13	 x21:0x00000000 x12=0x00000000
       25345000	      2533	80002594	01671663	bne	x14,x22,800025a0	 x14:0xb20df424 x22:0x00000000
       25355000	      2534	00000000	00000013	addi	x0,x0,0	  x0:0x00000000
       25365000	      2535	8000259c	00000013	addi	x0,x0,0	  x0:0x00000000
       25375000	      2536	800025a0	dc2e0367	jalr	x6,x28,-574	 x28:0x8000170e  x6=0x800025a0
       25385000	      2537	00000000	00000013	addi	x0,x0,0	  x0:0x00000000
       25395000	      2538	800014d0	00000013	addi	x0,x0,0	  x0:0x00000000
       25405000	      2539	800014d4	01525463	bge	x4,x21,800014dc	  x4:0x00000000 x21:0x00000000
       25415000	      2540	00000000	00000013	addi	x0,x0,0	  x0:0x00000000
       25425000	      2541	800014d8	00000013	addi	x0,x0,0	  x0:0x00000000
       25435000	      2542	800014dc	fe478793	addi	x15,x15,-28	 x15:0x80009ee8 x15=0x80009ecc
       25445000	      2543	800014e0	00e7abb3	slt	x23,x15,x14	 x15:0x80009ecc x14:0xb20df424 x23=0x00000001
       25455000	      2544	800014e4	f6df78b7	lui	x17,0xf6df7	 x17=0xf6df7000
       25465000	      2545	800014e8	0067a223	sw	x6,4(x15)	 x15:0x80009ecc  x6:0x800025a0 PA:0x80009ed0
       25475000	      2546	800014ec	cee4ab37	lui	x22,0xcee4a	 x22=0xcee4a000
       25485000	      2547	800014f0	089e0b93	addi	x23,x28,137	 x28:0x8000170e x23=0x80001797
       25495000	      2548	800014f4	01b708b3	add	x17,x14,x27	 x14:0xb20df424 x27:0x00000000 x17=0xb20df424
       25505000	      2549	800014f8	08110113	addi	x2,x2,129	  x2:0x00000000  x2=0x00000081
       25515000	      2550	800014fc	02866663	bltu	x12,x8,80001528	 x12:0x00000000  x8:0xfffffd2a
       25525000	      2551	00000000	00000013	addi	x0,x0,0	  x0:0x00000000
       25535000	      2552	80001524	00000013	addi	x0,x0,0	  x0:0x00000000
       25545000	      2553	80001528	409b82b3	sub	x5,x23,x9	 x23:0x80001797  x9:0x00000000  x5=0x80001797
       25555000	      2554	8000152c	41068633	sub	x12,x13,x16	 x13:0xbb98e000 x16:0x00000000 x12=0xbb98e000
       25565000	      2555	80001530	0047a303	lw	x6,4(x15)	 x15:0x80009ecc  x6=0x800025a0 PA:0x80009ed0
       25575000	      2556	80001534	50bd7293	andi	x5,x26,1291	 x26:0x00000000  x5=0x00000000
       25585000	      2557	80001538	01f9a4b3	slt	x9,x19,x31	 x19:0x92f21a7a x31:0x00000000  x9=0x00000001
       25595000	      2558	8000153c	4118d533	sra	x10,x17,x17	 x17:0xb20df424 x17:0xb20df424 x10=0xfb20df42
       25605000	      2559	80001540	dc298213	addi	x4,x19,-574	 x19:0x92f21a7a  x4=0x92f2183c
       25615000	      2560	80001544	01c78793	addi	x15,x15,28	 x15:0x80009ecc x15=0x80009ee8
       25625000	      2561	80001548	0140c4b3	xor	x9,x1,x20	  x1:0x00000000 x20:0x000002d7  x9=0x000002d7
       25635000	      2562	8000154c	00e79ab3	sll	x21,x15,x14	 x15:0x80009ee8 x14:0xb20df424 x21=0x0009ee80
       25645000	      2563	80001550	005fd8b3	srl	x17,x31,x5	 x31:0x00000000  x5:0x00000000 x17=0x00000000
       25655000	      2564	80001554	405bd3b3	sra	x7,x23,x5	 x23:0x80001797  x5:0x00000000  x7=0x80001797
       25665000	      2565	80001558	00030713	addi	x14,x6,0	  x6:0x800025a0 x14=0x800025a0
       25675000	      2566	8000155c	00070767	jalr	x14,x14,0	 x14:0x800025a0 x14=0x8000155c
       25685000	      2567	00000000	00000013	addi	x0,x0,0	  x0:0x00000000
       25695000	      2568	800025a0	00000013	addi	x0,x0,0	  x0:0x00000000
       25705000	      2569	800025a4	0114a3b3	slt	x7,x9,x17	  x9:0x000002d7 x17:0x00000000  x7=0x00000000
       25715000	      2570	800025a8	c391b893	sltiu	x17,x3,-967	  x3:0x00000000 x17=0x00000001
       25725000	      2571	800025ac	41e25f13	srai	x30,x4,0x1e	  x4:0x92f2183c x30=0xfffffffe
       25735000	      2572	800025b0	01669093	slli	x1,x13,0x16	 x13:0xbb98e000  x1=0x00000000
       25745000	      2573	800025b4	054cc263	blt	x25,x20,800025f8	 x25:0x80009fc4 x20:0x000002d7
       25755000	      2574	00000000	00000013	addi	x0,x0,0	  x0:0x00000000
       25765000	      2575	800025f4	00000013	addi	x0,x0,0	  x0:0x00000000
       25775000	      2576	800025f8	96fc5417	auipc	x8,0x96fc5	  x8=0x16fc75f4
       25785000	      2577	800025fc	05859863	bne	x11,x24,8000264c	 x11:0x00000001 x24:0x00000001
       25795000	      2578	80002600	4035d8b3	sra	x17,x11,x3	 x11:0x00000001  x3:0x00000000 x17=0x00000001
       25805000	      2579	80002604	5daabe93	sltiu	x29,x21,1498	 x21:0x0009ee80 x29=0x00000000
       25815000	      2580	80002608	00f67933	and	x18,x12,x15	 x12:0xbb98e000 x15:0x80009ee8 x18=0x80008000
       25825000	      2581	8000260c	3e405597	auipc	x11,0x3e405	 x11=0xbe407608
       25835000	      2582	80002610	a5357893	andi	x17,x10,-1453	 x10:0xfb20df42 x17=0xfb20da42
       25845000	      2583	80002614	002cfeb3	and	x29,x25,x2	 x25:0x80009fc4  x2:0x00000081 x29=0x00000080
       25855000	      2584	80002618	00751133	sll	x2,x10,x7	 x10:0xfb20df42  x7:0x00000000  x2=0xfb20df42
       25865000	      2585	8000261c	02c9fc63	bgeu	x19,x12,80002654	 x19:0x92f21a7a x12:0xbb98e000
       25875000	      2586	80002620	415dda33	sra	x20,x27,x21	 x27:0x00000000 x21:0x0009ee80 x20=0x00000000
       25885000	      2587	80002624	036ac063	blt	x21,x22,80002644	 x21:0x0009ee80 x22:0xcee4a000
       25895000	      2588	80002628	005e9393	slli	x7,x29,0x5	 x29:0x00000080  x7=0x00001000
       25905000	      2589	8000262c	9abd8c13	addi	x24,x27,-1621	 x27:0x00000000 x24=0xfffff9ab
       25915000	      2590	80002630	00db2833	slt	x16,x22,x13	 x22:0xcee4a000 x13:0xbb98e000 x16=0x00000000
       25925000	      2591	80002634	9fbf3e93	sltiu	x29,x30,-1541	 x30:0xfffffffe x29=0x00000000
       25935000	      2592	80002638	01788933	add	x18,x17,x23	 x17:0xfb20da42 x23:0x80001797 x18=0x7b20f1d9
       25945000	      2593	8000263c	9085eab7	lui	x21,0x9085e	 x21=0x9085e000
       25955000	      2594	80002640	fb14ea13	ori	x20,x9,-79	  x9:0x000002d7 x20=0xfffffff7
       25965000	      2595	80002644	03f55263	bge	x10,x31,80002668	 x10:0xfb20df42 x31:0x00000000
       25975000	      2596	80002648	0466f663	bgeu	x13,x6,80002694	 x13:0xbb98e000  x6:0x800025a0
       25985000	      2597	00000000	00000013	addi	x0,x0,0	  x0:0x00000000
       25995000	      2598	80002690	00000013	addi	x0,x0,0	  x0:0x00000000
       26005000	      2599	80002694	01fa32b3	sltu	x5,x20,x31	 x20:0xfffffff7 x31:0x00000000  x5=0x00000000
       26015000	      2600	80002698	02eb1e63	bne	x22,x14,800026d4	 x22:0xcee4a000 x14:0x8000155c
       26025000	      2601	00000000	00000013	addi	x0,x0,0	  x0:0x00000000
       26035000	      2602	800026d0	00000013	addi	x0,x0,0	  x0:0x00000000
       26045000	      2603	800026d4	00000013	addi	x0,x0,0	  x0:0x00000000
       26055000	      2604	800026d8	00b725b3	slt	x11,x14,x11	 x14:0x8000155c x11:0xbe407608 x11=0x00000001
       26065000	      2605	800026dc	705a5137	lui	x2,0x705a5	  x2=0x705a5000
       26075000	      2606	800026e0	0181d5b3	srl	x11,x3,x24	  x3:0x00000000 x24:0xfffff9ab x11=0x00000000
       26085000	      2607	800026e4	01425263	bge	x4,x20,800026e8	  x4:0x92f2183c x20:0xfffffff7
       26095000	      2608	800026e8	9902be93	sltiu	x29,x5,-1648	  x5:0x00000000 x29=0x00000001
       26105000	      2609	800026ec	02831663	bne	x6,x8,80002718	  x6:0x800025a0  x8:0x16fc75f4
       26115000	      2610	00000000	00000013	addi	x0,x0,0	  x0:0x00000000
       26125000	      2611	80002714	00000013	addi	x0,x0,0	  x0:0x00000000
       26135000	      2612	80002718	01b71233	sll	x4,x14,x27	 x14:0x8000155c x27:0x00000000  x4=0x8000155c
       26145000	      2613	8000271c	01d4b2b3	sltu	x5,x9,x29	  x9:0x000002d7 x29:0x00000001  x5=0x00000000
       26155000	      2614	80002720	05872013	slti	x0,x14,88	 x14:0x8000155c
       26165000	      2615	80002724	f7265b97	auipc	x23,0xf7265	 x23=0x77267720
       26175000	      2616	80002728	00e40a33	add	x20,x8,x14	  x8:0x16fc75f4 x14:0x8000155c x20=0x96fc8b50
       26185000	      2617	8000272c	015f1093	slli	x1,x30,0x15	 x30:0xfffffffe  x1=0xffc00000
       26195000	      2618	80002730	43937a13	andi	x20,x6,1081	  x6:0x800025a0 x20=0x00000420
       26205000	      2619	80002734	00d2ca63	blt	x5,x13,80002748	  x5:0x00000000 x13:0xbb98e000
       26215000	      2620	80002738	a3feee13	ori	x28,x29,-1473	 x29:0x00000001 x28=0xfffffa3f
       26225000	      2621	8000273c	00b44f33	xor	x30,x8,x11	  x8:0x16fc75f4 x11:0x00000000 x30=0x16fc75f4
       26235000	      2622	80002740	413cd293	srai	x5,x25,0x13	 x25:0x80009fc4  x5=0xfffff000
       26245000	      2623	80002744	e606a297	auipc	x5,0xe606a	  x5=0x6606c740
       26255000	      2624	80002748	6ce7e213	ori	x4,x15,1742	 x15:0x80009ee8  x4=0x80009eee
       26265000	      2625	8000274c	aaefa693	slti	x13,x31,-1362	 x31:0x00000000 x13=0x00000000
       26275000	      2626	80002750	006b5f13	srli	x30,x22,0x6	 x22:0xcee4a000 x30=0x033b9280
       26285000	      2627	80002754	01d70463	beq	x14,x29,8000275c	 x14:0x8000155c x29:0x00000001
       26295000	      2628	80002758	03cf5863	bge	x30,x28,80002788	 x30:0x033b9280 x28:0xfffffa3f
       26305000	      2629	00000000	00000013	addi	x0,x0,0	  x0:0x00000000
       26315000	      2630	80002784	00000013	addi	x0,x0,0	  x0:0x00000000
       26325000	      2631	80002788	b32f8313	addi	x6,x31,-1230	 x31:0x00000000  x6=0xfffffb32
       26335000	      2632	8000278c	00ad82b3	add	x5,x27,x10	 x27:0x00000000 x10:0xfb20df42  x5=0xfb20df42
       26345000	      2633	80002790	0158d2b3	srl	x5,x17,x21	 x17:0xfb20da42 x21:0x9085e000  x5=0xfb20da42
       26355000	      2634	80002794	020c5663	bge	x24,x0,800027c0	 x24:0xfffff9ab  x0:0x00000000
       26365000	      2635	80002798	0001b233	sltu	x4,x3,x0	  x3:0x00000000  x0:0x00000000  x4=0x00000000
       26375000	      2636	8000279c	ce20c037	lui	x0,0xce20c	
       26385000	      2637	800027a0	017f8593	addi	x11,x31,23	 x31:0x00000000 x11=0x00000017
       26395000	      2638	800027a4	0069fc63	bgeu	x19,x6,800027bc	 x19:0x92f21a7a  x6:0xfffffb32
       26405000	      2639	800027a8	41a7d233	sra	x4,x15,x26	 x15:0x80009ee8 x26:0x00000000  x4=0x80009ee8
       26415000	      2640	800027ac	01a3e733	or	x14,x7,x26	  x7:0x00001000 x26:0x00000000 x14=0x00001000
       26425000	      2641	800027b0	50ef0913	addi	x18,x30,1294	 x30:0x033b9280 x18=0x033b978e
       26435000	      2642	800027b4	009afeb3	and	x29,x21,x9	 x21:0x9085e000  x9:0x000002d7 x29=0x00000000
       26445000	      2643	800027b8	01fb74b3	and	x9,x22,x31	 x22:0xcee4a000 x31:0x00000000  x9=0x00000000
       26455000	      2644	800027bc	00905233	srl	x4,x0,x9	  x0:0x00000000  x9:0x00000000  x4=0x00000000
       26465000	      2645	800027c0	1f9925b7	lui	x11,0x1f992	 x11=0x1f992000
       26475000	      2646	800027c4	4116dd33	sra	x26,x13,x17	 x13:0x00000000 x17:0xfb20da42 x26=0x00000000
       26485000	      2647	800027c8	74ed8e37	lui	x28,0x74ed8	 x28=0x74ed8000
       26495000	      2648	800027cc	41a78b33	sub	x22,x15,x26	 x15:0x80009ee8 x26:0x00000000 x22=0x80009ee8
       26505000	      2649	800027d0	e973eab7	lui	x21,0xe973e	 x21=0xe973e000
       26515000	      2650	800027d4	00381113	slli	x2,x16,0x3	 x16:0x00000000  x2=0x00000000
       26525000	      2651	800027d8	93eaf913	andi	x18,x21,-1730	 x21:0xe973e000 x18=0xe973e000
       26535000	      2652	800027dc	01b13eb3	sltu	x29,x2,x27	  x2:0x00000000 x27:0x00000000 x29=0x00000000
       26545000	      2653	800027e0	01d69113	slli	x2,x13,0x1d	 x13:0x00000000  x2=0x00000000
       26555000	      2654	800027e4	01772933	slt	x18,x14,x23	 x14:0x00001000 x23:0x77267720 x18=0x00000001
       26565000	      2655	800027e8	02ddfa63	bgeu	x27,x13,8000281c	 x27:0x00000000 x13:0x00000000
       26575000	      2656	00000000	00000013	addi	x0,x0,0	  x0:0x00000000
       26585000	      2657	80002818	00000013	addi	x0,x0,0	  x0:0x00000000
       26595000	      2658	8000281c	02a66863	bltu	x12,x10,8000284c	 x12:0xbb98e000 x10:0xfb20df42
       26605000	      2659	00000000	00000013	addi	x0,x0,0	  x0:0x00000000
       26615000	      2660	80002848	00000013	addi	x0,x0,0	  x0:0x00000000
       26625000	      2661	8000284c	03780c63	beq	x16,x23,80002884	 x16:0x00000000 x23:0x77267720
       26635000	      2662	80002850	be777a93	andi	x21,x14,-1049	 x14:0x00001000 x21=0x00001000
       26645000	      2663	80002854	05260863	beq	x12,x18,800028a4	 x12:0xbb98e000 x18:0x00000001
       26655000	      2664	80002858	43afc413	xori	x8,x31,1082	 x31:0x00000000  x8=0x0000043a
       26665000	      2665	8000285c	017c5bb3	srl	x23,x24,x23	 x24:0xfffff9ab x23:0x77267720 x23=0xfffff9ab
       26675000	      2666	80002860	4045d033	sra	x0,x11,x4	 x11:0x1f992000  x4:0x00000000
       26685000	      2667	80002864	00082db3	slt	x27,x16,x0	 x16:0x00000000  x0:0x00000000 x27=0x00000000
       26695000	      2668	80002868	048ae063	bltu	x21,x8,800028a8	 x21:0x00001000  x8:0x0000043a
       26705000	      2669	8000286c	0519c263	blt	x19,x17,800028b0	 x19:0x92f21a7a x17:0xfb20da42
       26715000	      2670	00000000	00000013	addi	x0,x0,0	  x0:0x00000000
       26725000	      2671	800028ac	00000013	addi	x0,x0,0	  x0:0x00000000
       26735000	      2672	800028b0	525cad93	slti	x27,x25,1317	 x25:0x80009fc4 x27=0x00000001
       26745000	      2673	800028b4	00000013	addi	x0,x0,0	  x0:0x00000000
       26755000	      2674	800028b8	6850be93	sltiu	x29,x1,1669	  x1:0xffc00000 x29=0x00000000
       26765000	      2675	800028bc	001a5233	srl	x4,x20,x1	 x20:0x00000420  x1:0xffc00000  x4=0x00000420
       26775000	      2676	800028c0	33f63d13	sltiu	x26,x12,831	 x12:0xbb98e000 x26=0x00000000
       26785000	      2677	800028c4	10dcf263	bgeu	x25,x13,800029c8	 x25:0x80009fc4 x13:0x00000000
       26795000	      2678	00000000	00000013	addi	x0,x0,0	  x0:0x00000000
       26805000	      2679	800029c4	00000013	addi	x0,x0,0	  x0:0x00000000
       26815000	      2680	800029c8	01403b33	sltu	x22,x0,x20	  x0:0x00000000 x20:0x00000420 x22=0x00000001
       26825000	      2681	800029cc	00912b33	slt	x22,x2,x9	  x2:0x00000000  x9:0x00000000 x22=0x00000000
       26835000	      2682	800029d0	00416533	or	x10,x2,x4	  x2:0x00000000  x4:0x00000420 x10=0x00000420
       26845000	      2683	800029d4	5914f693	andi	x13,x9,1425	  x9:0x00000000 x13=0x00000000
       26855000	      2684	800029d8	00000013	addi	x0,x0,0	  x0:0x00000000
       26865000	      2685	800029dc	0096ec33	or	x24,x13,x9	 x13:0x00000000  x9:0x00000000 x24=0x00000000
       26875000	      2686	800029e0	01e4d393	srli	x7,x9,0x1e	  x9:0x00000000  x7=0x00000000
       26885000	      2687	800029e4	02754463	blt	x10,x7,80002a0c	 x10:0x00000420  x7:0x00000000
       26895000	      2688	800029e8	2284ad93	slti	x27,x9,552	  x9:0x00000000 x27=0x00000001
       26905000	      2689	800029ec	0141b533	sltu	x10,x3,x20	  x3:0x00000000 x20:0x00000420 x10=0x00000001
       26915000	      2690	800029f0	41595193	srai	x3,x18,0x15	 x18:0x00000001  x3=0x00000000
       26925000	      2691	800029f4	003c4863	blt	x24,x3,80002a04	 x24:0x00000000  x3:0x00000000
       26935000	      2692	800029f8	00000013	addi	x0,x0,0	  x0:0x00000000
       26945000	      2693	800029fc	4a5dc713	xori	x14,x27,1189	 x27:0x00000001 x14=0x000004a4
       26955000	      2694	80002a00	41d05c13	srai	x24,x0,0x1d	  x0:0x00000000 x24=0x00000000
       26965000	      2695	80002a04	00bf0e63	beq	x30,x11,80002a20	 x30:0x033b9280 x11:0x1f992000
       26975000	      2696	80002a08	051f7863	bgeu	x30,x17,80002a58	 x30:0x033b9280 x17:0xfb20da42
       26985000	      2697	80002a0c	0173fa33	and	x20,x7,x23	  x7:0x00000000 x23:0xfffff9ab x20=0x00000000
       26995000	      2698	80002a10	0013eb33	or	x22,x7,x1	  x7:0x00000000  x1:0xffc00000 x22=0xffc00000
       27005000	      2699	80002a14	db4d8b13	addi	x22,x27,-588	 x27:0x00000001 x22=0xfffffdb5
       27015000	      2700	80002a18	64dfef93	ori	x31,x31,1613	 x31:0x00000000 x31=0x0000064d
       27025000	      2701	80002a1c	41665f33	sra	x30,x12,x22	 x12:0xbb98e000 x22:0xfffffdb5 x30=0xfffffddc
       27035000	      2702	80002a20	a174e613	ori	x12,x9,-1513	  x9:0x00000000 x12=0xfffffa17
       27045000	      2703	80002a24	01b15b33	srl	x22,x2,x27	  x2:0x00000000 x27:0x00000001 x22=0x00000000
       27055000	      2704	80002a28	01032fb3	slt	x31,x6,x16	  x6:0xfffffb32 x16:0x00000000 x31=0x00000001
       27065000	      2705	80002a2c	05f70663	beq	x14,x31,80002a78	 x14:0x000004a4 x31:0x00000001
       27075000	      2706	80002a30	010a8933	add	x18,x21,x16	 x21:0x00001000 x16:0x00000000 x18=0x00001000
       27085000	      2707	80002a34	0f4eaf13	slti	x30,x29,244	 x29:0x00000000 x30=0x00000001
       27095000	      2708	80002a38	0e7dff93	andi	x31,x27,231	 x27:0x00000001 x31=0x00000001
       27105000	      2709	80002a3c	050e0263	beq	x28,x16,80002a80	 x28:0x74ed8000 x16:0x00000000
       27115000	      2710	80002a40	05281863	bne	x16,x18,80002a90	 x16:0x00000000 x18:0x00001000
       27125000	      2711	00000000	00000013	addi	x0,x0,0	  x0:0x00000000
       27135000	      2712	80002a8c	00000013	addi	x0,x0,0	  x0:0x00000000
       27145000	      2713	80002a90	010f4fb3	xor	x31,x30,x16	 x30:0x00000001 x16:0x00000000 x31=0x00000001
       27155000	      2714	80002a94	40f48eb3	sub	x29,x9,x15	  x9:0x00000000 x15:0x80009ee8 x29=0x7fff6118
       27165000	      2715	80002a98	00e57663	bgeu	x10,x14,80002aa4	 x10:0x00000001 x14:0x000004a4
       27175000	      2716	80002a9c	015e9493	slli	x9,x29,0x15	 x29:0x7fff6118  x9=0x23000000
       27185000	      2717	80002aa0	00000013	addi	x0,x0,0	  x0:0x00000000
       27195000	      2718	80002aa4	7d0cf193	andi	x3,x25,2000	 x25:0x80009fc4  x3=0x000007c0
       27205000	      2719	80002aa8	04e29263	bne	x5,x14,80002aec	  x5:0xfb20da42 x14:0x000004a4
       27215000	      2720	00000000	00000013	addi	x0,x0,0	  x0:0x00000000
       27225000	      2721	80002ae8	00000013	addi	x0,x0,0	  x0:0x00000000
       27235000	      2722	80002aec	f6c65f37	lui	x30,0xf6c65	 x30=0xf6c65000
       27245000	      2723	80002af0	002adab3	srl	x21,x21,x2	 x21:0x00001000  x2:0x00000000 x21=0x00001000
       27255000	      2724	80002af4	00d41c63	bne	x8,x13,80002b0c	  x8:0x0000043a x13:0x00000000
       27265000	      2725	00000000	00000013	addi	x0,x0,0	  x0:0x00000000
       27275000	      2726	80002b08	00000013	addi	x0,x0,0	  x0:0x00000000
       27285000	      2727	80002b0c	03d6c263	blt	x13,x29,80002b30	 x13:0x00000000 x29:0x7fff6118
       27295000	      2728	00000000	00000013	addi	x0,x0,0	  x0:0x00000000
       27305000	      2729	80002b2c	00000013	addi	x0,x0,0	  x0:0x00000000
       27315000	      2730	80002b30	0025a633	slt	x12,x11,x2	 x11:0x1f992000  x2:0x00000000 x12=0x00000000
       27325000	      2731	80002b34	01e91b93	slli	x23,x18,0x1e	 x18:0x00001000 x23=0x00000000
       27335000	      2732	80002b38	02490c63	beq	x18,x4,80002b70	 x18:0x00001000  x4:0x00000420
       27345000	      2733	80002b3c	40a9da33	sra	x20,x19,x10	 x19:0x92f21a7a x10:0x00000001 x20=0xc9790d3d
       27355000	      2734	80002b40	936f4a93	xori	x21,x30,-1738	 x30:0xf6c65000 x21=0x0939a936
       27365000	      2735	80002b44	873f0d17	auipc	x26,0x873f0	 x26=0x073f2b40
       27375000	      2736	80002b48	03f3f663	bgeu	x7,x31,80002b74	  x7:0x00000000 x31:0x00000001
       27385000	      2737	80002b4c	018541b3	xor	x3,x10,x24	 x10:0x00000001 x24:0x00000000  x3=0x00000001
       27395000	      2738	80002b50	41580833	sub	x16,x16,x21	 x16:0x00000000 x21:0x0939a936 x16=0xf6c656ca
       27405000	      2739	80002b54	02ebf663	bgeu	x23,x14,80002b80	 x23:0x00000000 x14:0x000004a4
       27415000	      2740	80002b58	4013d713	srai	x14,x7,0x1	  x7:0x00000000 x14=0x00000000
       27425000	      2741	80002b5c	00aed463	bge	x29,x10,80002b64	 x29:0x7fff6118 x10:0x00000001
       27435000	      2742	00000000	00000013	addi	x0,x0,0	  x0:0x00000000
       27445000	      2743	80002b60	00000013	addi	x0,x0,0	  x0:0x00000000
       27455000	      2744	80002b64	05459663	bne	x11,x20,80002bb0	 x11:0x1f992000 x20:0xc9790d3d
       27465000	      2745	00000000	00000013	addi	x0,x0,0	  x0:0x00000000
       27475000	      2746	80002bac	00000013	addi	x0,x0,0	  x0:0x00000000
       27485000	      2747	80002bb0	0ddcf513	andi	x10,x25,221	 x25:0x80009fc4 x10=0x000000c4
       27495000	      2748	80002bb4	41db5db3	sra	x27,x22,x29	 x22:0x00000000 x29:0x7fff6118 x27=0x00000000
       27505000	      2749	80002bb8	01767633	and	x12,x12,x23	 x12:0x00000000 x23:0x00000000 x12=0x00000000
       27515000	      2750	80002bbc	4000d0b3	sra	x1,x1,x0	  x1:0xffc00000  x0:0x00000000  x1=0xffc00000
       27525000	      2751	80002bc0	0a7ad817	auipc	x16,0xa7ad	 x16=0x8a7afbbc
       27535000	      2752	80002bc4	1be86bb7	lui	x23,0x1be86	 x23=0x1be86000
       27545000	      2753	80002bc8	6b534293	xori	x5,x6,1717	  x6:0xfffffb32  x5=0xfffffd87
       27555000	      2754	80002bcc	01cf68b3	or	x17,x30,x28	 x30:0xf6c65000 x28:0x74ed8000 x17=0xf6efd000
       27565000	      2755	80002bd0	402b82b3	sub	x5,x23,x2	 x23:0x1be86000  x2:0x00000000  x5=0x1be86000
       27575000	      2756	80002bd4	01bee8b3	or	x17,x29,x27	 x29:0x7fff6118 x27:0x00000000 x17=0x7fff6118
       27585000	      2757	80002bd8	00000013	addi	x0,x0,0	  x0:0x00000000
       27595000	      2758	80002bdc	00a14fb3	xor	x31,x2,x10	  x2:0x00000000 x10:0x000000c4 x31=0x000000c4
       27605000	      2759	80002be0	69858613	addi	x12,x11,1688	 x11:0x1f992000 x12=0x1f992698
       27615000	      2760	80002be4	03776063	bltu	x14,x23,80002c04	 x14:0x00000000 x23:0x1be86000
       27625000	      2761	00000000	00000013	addi	x0,x0,0	  x0:0x00000000
       27635000	      2762	80002c00	00000013	addi	x0,x0,0	  x0:0x00000000
       27645000	      2763	80002c04	dfa58093	addi	x1,x11,-518	 x11:0x1f992000  x1=0x1f991dfa
       27655000	      2764	80002c08	40558133	sub	x2,x11,x5	 x11:0x1f992000  x5:0x1be86000  x2=0x03b0c000
       27665000	      2765	80002c0c	00f91f93	slli	x31,x18,0xf	 x18:0x00001000 x31=0x08000000
       27675000	      2766	80002c10	006ae533	or	x10,x21,x6	 x21:0x0939a936  x6:0xfffffb32 x10=0xfffffb36
       27685000	      2767	80002c14	05904063	blt	x0,x25,80002c54	  x0:0x00000000 x25:0x80009fc4
       27695000	      2768	80002c18	1e5d3213	sltiu	x4,x26,485	 x26:0x073f2b40  x4=0x00000000
       27705000	      2769	80002c1c	015c5d93	srli	x27,x24,0x15	 x24:0x00000000 x27=0x00000000
       27715000	      2770	80002c20	01e97263	bgeu	x18,x30,80002c24	 x18:0x00001000 x30:0xf6c65000
       27725000	      2771	80002c24	aedbcb93	xori	x23,x23,-1299	 x23:0x1be86000 x23=0xe4179aed
       27735000	      2772	80002c28	01ed6b33	or	x22,x26,x30	 x26:0x073f2b40 x30:0xf6c65000 x22=0xf7ff7b40
       27745000	      2773	80002c2c	00c11893	slli	x17,x2,0xc	  x2:0x03b0c000 x17=0x0c000000
       27755000	      2774	80002c30	00b80c63	beq	x16,x11,80002c48	 x16:0x8a7afbbc x11:0x1f992000
       27765000	      2775	80002c34	02851463	bne	x10,x8,80002c5c	 x10:0xfffffb36  x8:0x0000043a
       27775000	      2776	00000000	00000013	addi	x0,x0,0	  x0:0x00000000
       27785000	      2777	80002c58	00000013	addi	x0,x0,0	  x0:0x00000000
       27795000	      2778	80002c5c	36d80b93	addi	x23,x16,877	 x16:0x8a7afbbc x23=0x8a7aff29
       27805000	      2779	80002c60	013c7d33	and	x26,x24,x19	 x24:0x00000000 x19:0x92f21a7a x26=0x00000000
       27815000	      2780	80002c64	01219663	bne	x3,x18,80002c70	  x3:0x00000001 x18:0x00001000
       27825000	      2781	00000000	00000013	addi	x0,x0,0	  x0:0x00000000
       27835000	      2782	80002c6c	00000013	addi	x0,x0,0	  x0:0x00000000
       27845000	      2783	80002c70	01e455b3	srl	x11,x8,x30	  x8:0x0000043a x30:0xf6c65000 x11=0x0000043a
       27855000	      2784	80002c74	e53d4e93	xori	x29,x26,-429	 x26:0x00000000 x29=0xfffffe53
       27865000	      2785	80002c78	0b685d37	lui	x26,0xb685	 x26=0x0b685000
       27875000	      2786	80002c7c	0077cbb3	xor	x23,x15,x7	 x15:0x80009ee8  x7:0x00000000 x23=0x80009ee8
       27885000	      2787	80002c80	00160a63	beq	x12,x1,80002c94	 x12:0x1f992698  x1:0x1f991dfa
       27895000	      2788	80002c84	0114f0b3	and	x1,x9,x17	  x9:0x23000000 x17:0x0c000000  x1=0x00000000
       27905000	      2789	80002c88	00000013	addi	x0,x0,0	  x0:0x00000000
       27915000	      2790	80002c8c	01371533	sll	x10,x14,x19	 x14:0x00000000 x19:0x92f21a7a x10=0x00000000
       27925000	      2791	80002c90	02416b37	lui	x22,0x2416	 x22=0x02416000
       27935000	      2792	80002c94	ef4b4f93	xori	x31,x22,-268	 x22:0x02416000 x31=0xfdbe9ef4
       27945000	      2793	80002c98	414a03b3	sub	x7,x20,x20	 x20:0xc9790d3d x20:0xc9790d3d  x7=0x00000000
       27955000	      2794	80002c9c	dfd87b97	auipc	x23,0xdfd87	 x23=0x5fd89c98
       27965000	      2795	80002ca0	e4a9b713	sltiu	x14,x19,-438	 x19:0x92f21a7a x14=0x00000001
       27975000	      2796	80002ca4	40b25833	sra	x16,x4,x11	  x4:0x00000000 x11:0x0000043a x16=0x00000000
       27985000	      2797	80002ca8	05bcb893	sltiu	x17,x25,91	 x25:0x80009fc4 x17=0x00000000
       27995000	      2798	80002cac	41bc04b3	sub	x9,x24,x27	 x24:0x00000000 x27:0x00000000  x9=0x00000000
       28005000	      2799	80002cb0	01571593	slli	x11,x14,0x15	 x14:0x00000001 x11=0x00200000
       28015000	      2800	80002cb4	165a2f93	slti	x31,x20,357	 x20:0xc9790d3d x31=0x00000001
       28025000	      2801	80002cb8	01bf05b3	add	x11,x30,x27	 x30:0xf6c65000 x27:0x00000000 x11=0xf6c65000
       28035000	      2802	80002cbc	622fe393	ori	x7,x31,1570	 x31:0x00000001  x7=0x00000623
       28045000	      2803	80002cc0	01de2833	slt	x16,x28,x29	 x28:0x74ed8000 x29:0xfffffe53 x16=0x00000000
       28055000	      2804	80002cc4	011e84b3	add	x9,x29,x17	 x29:0xfffffe53 x17:0x00000000  x9=0xfffffe53
       28065000	      2805	80002cc8	010c8933	add	x18,x25,x16	 x25:0x80009fc4 x16:0x00000000 x18=0x80009fc4
       28075000	      2806	80002ccc	013b7db3	and	x27,x22,x19	 x22:0x02416000 x19:0x92f21a7a x27=0x02400000
       28085000	      2807	80002cd0	40a85393	srai	x7,x16,0xa	 x16:0x00000000  x7=0x00000000
       28095000	      2808	80002cd4	41a6d3b3	sra	x7,x13,x26	 x13:0x00000000 x26:0x0b685000  x7=0x00000000
       28105000	      2809	80002cd8	41535813	srai	x16,x6,0x15	  x6:0xfffffb32 x16=0xffffffff
       28115000	      2810	80002cdc	00000013	addi	x0,x0,0	  x0:0x00000000
       28125000	      2811	80002ce0	007bdb13	srli	x22,x23,0x7	 x23:0x5fd89c98 x22=0x00bfb139
       28135000	      2812	80002ce4	403e8833	sub	x16,x29,x3	 x29:0xfffffe53  x3:0x00000001 x16=0xfffffe52
       28145000	      2813	80002ce8	02a6fa63	bgeu	x13,x10,80002d1c	 x13:0x00000000 x10:0x00000000
       28155000	      2814	00000000	00000013	addi	x0,x0,0	  x0:0x00000000
       28165000	      2815	80002d18	00000013	addi	x0,x0,0	  x0:0x00000000
       28175000	      2816	80002d1c	0163aab3	slt	x21,x7,x22	  x7:0x00000000 x22:0x00bfb139 x21=0x00000001
       28185000	      2817	80002d20	258ac693	xori	x13,x21,600	 x21:0x00000001 x13=0x00000259
       28195000	      2818	80002d24	4176d193	srai	x3,x13,0x17	 x13:0x00000259  x3=0x00000000
       28205000	      2819	80002d28	0007beb3	sltu	x29,x15,x0	 x15:0x80009ee8  x0:0x00000000 x29=0x00000000
       28215000	      2820	80002d2c	8bd8b113	sltiu	x2,x17,-1859	 x17:0x00000000  x2=0x00000001
       28225000	      2821	80002d30	8b470613	addi	x12,x14,-1868	 x14:0x00000001 x12=0xfffff8b5
       28235000	      2822	80002d34	04164263	blt	x12,x1,80002d78	 x12:0xfffff8b5  x1:0x00000000
       28245000	      2823	00000000	00000013	addi	x0,x0,0	  x0:0x00000000
       28255000	      2824	80002d74	00000013	addi	x0,x0,0	  x0:0x00000000
       28265000	      2825	80002d78	01aa12b3	sll	x5,x20,x26	 x20:0xc9790d3d x26:0x0b685000  x5=0xc9790d3d
       28275000	      2826	80002d7c	015d38b3	sltu	x17,x26,x21	 x26:0x0b685000 x21:0x00000001 x17=0x00000000
       28285000	      2827	80002d80	0032deb3	srl	x29,x5,x3	  x5:0xc9790d3d  x3:0x00000000 x29=0xc9790d3d
       28295000	      2828	80002d84	41cc0133	sub	x2,x24,x28	 x24:0x00000000 x28:0x74ed8000  x2=0x8b128000
       28305000	      2829	80002d88	02771c63	bne	x14,x7,80002dc0	 x14:0x00000001  x7:0x00000000
       28315000	      2830	00000000	00000013	addi	x0,x0,0	  x0:0x00000000
       28325000	      2831	80002dbc	00000013	addi	x0,x0,0	  x0:0x00000000
       28335000	      2832	80002dc0	0338ca63	blt	x17,x19,80002df4	 x17:0x00000000 x19:0x92f21a7a
       28345000	      2833	80002dc4	af8da113	slti	x2,x27,-1288	 x27:0x02400000  x2=0x00000000
       28355000	      2834	80002dc8	0015cdb3	xor	x27,x11,x1	 x11:0xf6c65000  x1:0x00000000 x27=0xf6c65000
       28365000	      2835	80002dcc	3666b413	sltiu	x8,x13,870	 x13:0x00000259  x8=0x00000001
       28375000	      2836	80002dd0	00985b33	srl	x22,x16,x9	 x16:0xfffffe52  x9:0xfffffe53 x22=0x00001fff
       28385000	      2837	80002dd4	00000013	addi	x0,x0,0	  x0:0x00000000
       28395000	      2838	80002dd8	00061bb3	sll	x23,x12,x0	 x12:0xfffff8b5  x0:0x00000000 x23=0xfffff8b5
       28405000	      2839	80002ddc	289bee93	ori	x29,x23,649	 x23:0xfffff8b5 x29=0xfffffabd
       28415000	      2840	80002de0	41788a33	sub	x20,x17,x23	 x17:0x00000000 x23:0xfffff8b5 x20=0x0000074b
       28425000	      2841	80002de4	f9f02813	slti	x16,x0,-97	  x0:0x00000000 x16=0x00000000
       28435000	      2842	80002de8	00000013	addi	x0,x0,0	  x0:0x00000000
       28445000	      2843	80002dec	8d0d8a13	addi	x20,x27,-1840	 x27:0xf6c65000 x20=0xf6c648d0
       28455000	      2844	80002df0	418385b3	sub	x11,x7,x24	  x7:0x00000000 x24:0x00000000 x11=0x00000000
       28465000	      2845	80002df4	e5cdb913	sltiu	x18,x27,-420	 x27:0xf6c65000 x18=0x00000001
       28475000	      2846	80002df8	01549863	bne	x9,x21,80002e08	  x9:0xfffffe53 x21:0x00000001
       28485000	      2847	00000000	00000013	addi	x0,x0,0	  x0:0x00000000
       28495000	      2848	80002e04	00000013	addi	x0,x0,0	  x0:0x00000000
       28505000	      2849	80002e08	e3bb7113	andi	x2,x22,-453	 x22:0x00001fff  x2=0x00001e3b
       28515000	      2850	80002e0c	0239c263	blt	x19,x3,80002e30	 x19:0x92f21a7a  x3:0x00000000
       28525000	      2851	00000000	00000013	addi	x0,x0,0	  x0:0x00000000
       28535000	      2852	80002e2c	00000013	addi	x0,x0,0	  x0:0x00000000
       28545000	      2853	80002e30	01c95463	bge	x18,x28,80002e38	 x18:0x00000001 x28:0x74ed8000
       28555000	      2854	80002e34	80b62037	lui	x0,0x80b62	
       28565000	      2855	80002e38	016d9e93	slli	x29,x27,0x16	 x27:0xf6c65000 x29=0x00000000
       28575000	      2856	80002e3c	62d22a13	slti	x20,x4,1581	  x4:0x00000000 x20=0x00000001
       28585000	      2857	80002e40	01c7d613	srli	x12,x15,0x1c	 x15:0x80009ee8 x12=0x00000008
       28595000	      2858	80002e44	014176b3	and	x13,x2,x20	  x2:0x00001e3b x20:0x00000001 x13=0x00000001
       28605000	      2859	80002e48	00d91693	slli	x13,x18,0xd	 x18:0x00000001 x13=0x00002000
       28615000	      2860	80002e4c	00a7aa33	slt	x20,x15,x10	 x15:0x80009ee8 x10:0x00000000 x20=0x00000001
       28625000	      2861	80002e50	004e4333	xor	x6,x28,x4	 x28:0x74ed8000  x4:0x00000000  x6=0x74ed8000
       28635000	      2862	80002e54	c6164813	xori	x16,x12,-927	 x12:0x00000008 x16=0xfffffc69
       28645000	      2863	80002e58	40dc5113	srai	x2,x24,0xd	 x24:0x00000000  x2=0x00000000
       28655000	      2864	80002e5c	5006f393	andi	x7,x13,1280	 x13:0x00002000  x7=0x00000000
       28665000	      2865	80002e60	97a50193	addi	x3,x10,-1670	 x10:0x00000000  x3=0xfffff97a
       28675000	      2866	80002e64	00f9d633	srl	x12,x19,x15	 x19:0x92f21a7a x15:0x80009ee8 x12=0x0092f21a
       28685000	      2867	80002e68	04520663	beq	x4,x5,80002eb4	  x4:0x00000000  x5:0xc9790d3d
       28695000	      2868	80002e6c	415f56b3	sra	x13,x30,x21	 x30:0xf6c65000 x21:0x00000001 x13=0xfb632800
       28705000	      2869	80002e70	05105063	bge	x0,x17,80002eb0	  x0:0x00000000 x17:0x00000000
       28715000	      2870	00000000	00000013	addi	x0,x0,0	  x0:0x00000000
       28725000	      2871	80002eac	00000013	addi	x0,x0,0	  x0:0x00000000
       28735000	      2872	80002eb0	410b85b3	sub	x11,x23,x16	 x23:0xfffff8b5 x16:0xfffffc69 x11=0xfffffc4c
       28745000	      2873	80002eb4	00830e33	add	x28,x6,x8	  x6:0x74ed8000  x8:0x00000001 x28=0x74ed8001
       28755000	      2874	80002eb8	016c8b33	add	x22,x25,x22	 x25:0x80009fc4 x22:0x00001fff x22=0x8000bfc3
       28765000	      2875	80002ebc	029e4a63	blt	x28,x9,80002ef0	 x28:0x74ed8001  x9:0xfffffe53
       28775000	      2876	80002ec0	4014fe13	andi	x28,x9,1025	  x9:0xfffffe53 x28=0x00000401
       28785000	      2877	80002ec4	00f5da13	srli	x20,x11,0xf	 x11:0xfffffc4c x20=0x0001ffff
       28795000	      2878	80002ec8	00e75d13	srli	x26,x14,0xe	 x14:0x00000001 x26=0x00000000
       28805000	      2879	80002ecc	4056dbb3	sra	x23,x13,x5	 x13:0xfb632800  x5:0xc9790d3d x23=0xffffffff
       28815000	      2880	80002ed0	04e2d263	bge	x5,x14,80002f14	  x5:0xc9790d3d x14:0x00000001
       28825000	      2881	80002ed4	9d4c8193	addi	x3,x25,-1580	 x25:0x80009fc4  x3=0x80009998
       28835000	      2882	80002ed8	01829663	bne	x5,x24,80002ee4	  x5:0xc9790d3d x24:0x00000000
       28845000	      2883	00000000	00000013	addi	x0,x0,0	  x0:0x00000000
       28855000	      2884	80002ee0	00000013	addi	x0,x0,0	  x0:0x00000000
       28865000	      2885	80002ee4	000978b3	and	x17,x18,x0	 x18:0x00000001  x0:0x00000000 x17=0x00000000
       28875000	      2886	80002ee8	f2363137	lui	x2,0xf2363	  x2=0xf2363000
       28885000	      2887	80002eec	16b28e93	addi	x29,x5,363	  x5:0xc9790d3d x29=0xc9790ea8
       28895000	      2888	80002ef0	75a51297	auipc	x5,0x75a51	  x5=0xf5a53eec
       28905000	      2889	80002ef4	01631613	slli	x12,x6,0x16	  x6:0x74ed8000 x12=0x00000000
       28915000	      2890	80002ef8	41d4da93	srai	x21,x9,0x1d	  x9:0xfffffe53 x21=0xffffffff
       28925000	      2891	80002efc	01d46c63	bltu	x8,x29,80002f14	  x8:0x00000001 x29:0xc9790ea8
       28935000	      2892	00000000	00000013	addi	x0,x0,0	  x0:0x00000000
       28945000	      2893	80002f10	00000013	addi	x0,x0,0	  x0:0x00000000
       28955000	      2894	80002f14	00b30263	beq	x6,x11,80002f18	  x6:0x74ed8000 x11:0xfffffc4c
       28965000	      2895	80002f18	05e9e063	bltu	x19,x30,80002f58	 x19:0x92f21a7a x30:0xf6c65000
       28975000	      2896	00000000	00000013	addi	x0,x0,0	  x0:0x00000000
       28985000	      2897	80002f54	00000013	addi	x0,x0,0	  x0:0x00000000
       28995000	      2898	80002f58	019c8ab3	add	x21,x25,x25	 x25:0x80009fc4 x25:0x80009fc4 x21=0x00013f88
       29005000	      2899	80002f5c	037e9263	bne	x29,x23,80002f80	 x29:0xc9790ea8 x23:0xffffffff
       29015000	      2900	00000000	00000013	addi	x0,x0,0	  x0:0x00000000
       29025000	      2901	80002f7c	00000013	addi	x0,x0,0	  x0:0x00000000
       29035000	      2902	80002f80	518d0813	addi	x16,x26,1304	 x26:0x00000000 x16=0x00000518
       29045000	      2903	80002f84	181ef893	andi	x17,x29,385	 x29:0xc9790ea8 x17=0x00000080
       29055000	      2904	80002f88	0113cab3	xor	x21,x7,x17	  x7:0x00000000 x17:0x00000080 x21=0x00000080
       29065000	      2905	80002f8c	01fd1863	bne	x26,x31,80002f9c	 x26:0x00000000 x31:0x00000001
       29075000	      2906	00000000	00000013	addi	x0,x0,0	  x0:0x00000000
       29085000	      2907	80002f98	00000013	addi	x0,x0,0	  x0:0x00000000
       29095000	      2908	80002f9c	9ee27f13	andi	x30,x4,-1554	  x4:0x00000000 x30=0x00000000
       29105000	      2909	80002fa0	2205c693	xori	x13,x11,544	 x11:0xfffffc4c x13=0xfffffe6c
       29115000	      2910	80002fa4	407bd4b3	sra	x9,x23,x7	 x23:0xffffffff  x7:0x00000000  x9=0xffffffff
       29125000	      2911	80002fa8	d35c7113	andi	x2,x24,-715	 x24:0x00000000  x2=0x00000000
       29135000	      2912	80002fac	1138ce63	blt	x17,x19,800030c8	 x17:0x00000080 x19:0x92f21a7a
       29145000	      2913	80002fb0	41518733	sub	x14,x3,x21	  x3:0x80009998 x21:0x00000080 x14=0x80009918
       29155000	      2914	80002fb4	018bf033	and	x0,x23,x24	 x23:0xffffffff x24:0x00000000
       29165000	      2915	80002fb8	00006117	auipc	x2,0x6	  x2=0x80008fb4
       29175000	      2916	80002fbc	f8d10113	addi	x2,x2,-115	  x2:0x80008fb4  x2=0x80008f41
       29185000	      2917	80002fc0	fc715503	lhu	x10,-57(x2)	  x2:0x80008f41 x10=0x00000000 PA:0x80008f08
       29195000	      2918	80002fc4	02410723	sb	x4,46(x2)	  x2:0x80008f41  x4:0x00000000 PA:0x80008f6f
       29205000	      2919	80002fc8	bde6c513	xori	x10,x13,-1058	 x13:0xfffffe6c x10=0x000005b2
       29215000	      2920	80002fcc	00000013	addi	x0,x0,0	  x0:0x00000000
       29225000	      2921	80002fd0	61928a93	addi	x21,x5,1561	  x5:0xf5a53eec x21=0xf5a54505
       29235000	      2922	80002fd4	03c14003	lbu	x0,60(x2)	  x2:0x80008f41 PA:0x80008f7d
       29245000	      2923	80002fd8	01310ea3	sb	x19,29(x2)	  x2:0x80008f41 x19:0x92f21a7a PA:0x80008f5e
       29255000	      2924	80002fdc	03711383	lh	x7,55(x2)	  x2:0x80008f41  x7=0x00000000 PA:0x80008f78
       29265000	      2925	80002fe0	00e11da3	sh	x14,27(x2)	  x2:0x80008f41 x14:0x80009918 PA:0x80008f5c
       29275000	      2926	80002fe4	00000013	addi	x0,x0,0	  x0:0x00000000
       29285000	      2927	80002fe8	00b10723	sb	x11,14(x2)	  x2:0x80008f41 x11:0xfffffc4c PA:0x80008f4f
       29295000	      2928	80002fec	fe111183	lh	x3,-31(x2)	  x2:0x80008f41  x3=0x00000000 PA:0x80008f22
       29305000	      2929	80002ff0	00014883	lbu	x17,0(x2)	  x2:0x80008f41 x17=0x00000000 PA:0x80008f41
       29315000	      2930	80002ff4	01a08a33	add	x20,x1,x26	  x1:0x00000000 x26:0x00000000 x20=0x00000000
       29325000	      2931	80002ff8	fce10d03	lb	x26,-50(x2)	  x2:0x80008f41 x26=0x00000000 PA:0x80008f0f
       29335000	      2932	80002ffc	ea383393	sltiu	x7,x16,-349	 x16:0x00000518  x7=0x00000001
       29345000	      2933	80003000	001b1293	slli	x5,x22,0x1	 x22:0x8000bfc3  x5=0x00017f86
       29355000	      2934	80003004	02912ba3	sw	x9,55(x2)	  x2:0x80008f41  x9:0xffffffff PA:0x80008f78
       29365000	      2935	80003008	01a23233	sltu	x4,x4,x26	  x4:0x00000000 x26:0x00000000  x4=0x00000000
       29375000	      2936	8000300c	ffb15d83	lhu	x27,-5(x2)	  x2:0x80008f41 x27=0x00000000 PA:0x80008f3c
       29385000	      2937	80003010	fc911a83	lh	x21,-55(x2)	  x2:0x80008f41 x21=0x00000000 PA:0x80008f0a
       29395000	      2938	80003014	00923b33	sltu	x22,x4,x9	  x4:0x00000000  x9:0xffffffff x22=0x00000001
       29405000	      2939	80003018	00d51d13	slli	x26,x10,0xd	 x10:0x000005b2 x26=0x00b64000
       29415000	      2940	8000301c	011dbfb3	sltu	x31,x27,x17	 x27:0x00000000 x17:0x00000000 x31=0x00000000
       29425000	      2941	80003020	ff8112a3	sh	x24,-27(x2)	  x2:0x80008f41 x24:0x00000000 PA:0x80008f26
       29435000	      2942	80003024	00f711b3	sll	x3,x14,x15	 x14:0x80009918 x15:0x80009ee8  x3=0x00991800
       29445000	      2943	80003028	03e10023	sb	x30,32(x2)	  x2:0x80008f41 x30:0x00000000 PA:0x80008f61
       29455000	      2944	8000302c	001be4b3	or	x9,x23,x1	 x23:0xffffffff  x1:0x00000000  x9=0xffffffff
       29465000	      2945	80003030	ff510003	lb	x0,-11(x2)	  x2:0x80008f41 PA:0x80008f36
       29475000	      2946	80003034	03a103a3	sb	x26,39(x2)	  x2:0x80008f41 x26:0x00b64000 PA:0x80008f68
       29485000	      2947	80003038	df36f813	andi	x16,x13,-525	 x13:0xfffffe6c x16=0xfffffc60
       29495000	      2948	8000303c	41d4d293	srai	x5,x9,0x1d	  x9:0xffffffff  x5=0xffffffff
       29505000	      2949	80003040	fe614c03	lbu	x24,-26(x2)	  x2:0x80008f41 x24=0x00000000 PA:0x80008f27
       29515000	      2950	80003044	01010823	sb	x16,16(x2)	  x2:0x80008f41 x16:0xfffffc60 PA:0x80008f51
       29525000	      2951	80003048	fd3116a3	sh	x19,-51(x2)	  x2:0x80008f41 x19:0x92f21a7a PA:0x80008f0e
       29535000	      2952	8000304c	40160b33	sub	x22,x12,x1	 x12:0x00000000  x1:0x00000000 x22=0x00000000
       29545000	      2953	80003050	408654b3	sra	x9,x12,x8	 x12:0x00000000  x8:0x00000001  x9=0x00000000
       29555000	      2954	80003054	01510323	sb	x21,6(x2)	  x2:0x80008f41 x21:0x00000000 PA:0x80008f47
       29565000	      2955	80003058	00834f33	xor	x30,x6,x8	  x6:0x74ed8000  x8:0x00000001 x30=0x74ed8001
       29575000	      2956	8000305c	03410023	sb	x20,32(x2)	  x2:0x80008f41 x20:0x00000000 PA:0x80008f61
       29585000	      2957	80003060	4858b613	sltiu	x12,x17,1157	 x17:0x00000000 x12=0x00000001
       29595000	      2958	80003064	01e2d493	srli	x9,x5,0x1e	  x5:0xffffffff  x9=0x00000003
       29605000	      2959	80003068	db3f8437	lui	x8,0xdb3f8	  x8=0xdb3f8000
       29615000	      2960	8000306c	fe310fa3	sb	x3,-1(x2)	  x2:0x80008f41  x3:0x00991800 PA:0x80008f40
       29625000	      2961	80003070	01cbd013	srli	x0,x23,0x1c	 x23:0xffffffff
       29635000	      2962	80003074	41f48333	sub	x6,x9,x31	  x9:0x00000003 x31:0x00000000  x6=0x00000003
       29645000	      2963	80003078	014a52b3	srl	x5,x20,x20	 x20:0x00000000 x20:0x00000000  x5=0x00000000
       29655000	      2964	8000307c	013a5f93	srli	x31,x20,0x13	 x20:0x00000000 x31=0x00000000
       29665000	      2965	80003080	40910833	sub	x16,x2,x9	  x2:0x80008f41  x9:0x00000003 x16=0x80008f3e
       29675000	      2966	80003084	745b0713	addi	x14,x22,1861	 x22:0x00000000 x14=0x00000745
       29685000	      2967	80003088	00c14403	lbu	x8,12(x2)	  x2:0x80008f41  x8=0x000000d4 PA:0x80008f4d
       29695000	      2968	8000308c	03210b23	sb	x18,54(x2)	  x2:0x80008f41 x18:0x00000001 PA:0x80008f77
       29705000	      2969	80003090	03715683	lhu	x13,55(x2)	  x2:0x80008f41 x13=0x0000ffff PA:0x80008f78
       29715000	      2970	80003094	00e10fa3	sb	x14,31(x2)	  x2:0x80008f41 x14:0x00000745 PA:0x80008f60
       29725000	      2971	80003098	00757433	and	x8,x10,x7	 x10:0x000005b2  x7:0x00000001  x8=0x00000000
       29735000	      2972	8000309c	016dd213	srli	x4,x27,0x16	 x27:0x00000000  x4=0x00000000
       29745000	      2973	800030a0	03d17863	bgeu	x2,x29,800030d0	  x2:0x80008f41 x29:0xc9790ea8
       29755000	      2974	800030a4	03004663	blt	x0,x16,800030d0	  x0:0x00000000 x16:0x80008f3e
       29765000	      2975	800030a8	c791ce13	xori	x28,x3,-903	  x3:0x00991800 x28=0xff66e479
       29775000	      2976	800030ac	00a72033	slt	x0,x14,x10	 x14:0x00000745 x10:0x000005b2
       29785000	      2977	800030b0	026a7a63	bgeu	x20,x6,800030e4	 x20:0x00000000  x6:0x00000003
       29795000	      2978	800030b4	406281b3	sub	x3,x5,x6	  x5:0x00000000  x6:0x00000003  x3=0xfffffffd
       29805000	      2979	800030b8	007d2ab3	slt	x21,x26,x7	 x26:0x00b64000  x7:0x00000001 x21=0x00000000
       29815000	      2980	800030bc	40dd5d13	srai	x26,x26,0xd	 x26:0x00b64000 x26=0x000005b2
       29825000	      2981	800030c0	853d3e93	sltiu	x29,x26,-1965	 x26:0x000005b2 x29=0x00000001
       29835000	      2982	800030c4	03b08c63	beq	x1,x27,800030fc	  x1:0x00000000 x27:0x00000000
       29845000	      2983	00000000	00000013	addi	x0,x0,0	  x0:0x00000000
       29855000	      2984	800030f8	00000013	addi	x0,x0,0	  x0:0x00000000
       29865000	      2985	800030fc	002fc8b3	xor	x17,x31,x2	 x31:0x00000000  x2:0x80008f41 x17=0x80008f41
       29875000	      2986	80003100	0101cbb3	xor	x23,x3,x16	  x3:0xfffffffd x16:0x80008f3e x23=0x7fff70c3
       29885000	      2987	80003104	009bc133	xor	x2,x23,x9	 x23:0x7fff70c3  x9:0x00000003  x2=0x7fff70c0
       29895000	      2988	80003108	000c9e13	slli	x28,x25,0x0	 x25:0x80009fc4 x28=0x80009fc4
       29905000	      2989	8000310c	033bda63	bge	x23,x19,80003140	 x23:0x7fff70c3 x19:0x92f21a7a
       29915000	      2990	00000000	00000013	addi	x0,x0,0	  x0:0x00000000
       29925000	      2991	8000313c	00000013	addi	x0,x0,0	  x0:0x00000000
       29935000	      2992	80003140	00b39b93	slli	x23,x7,0xb	  x7:0x00000001 x23=0x00000800
       29945000	      2993	80003144	a5a40c13	addi	x24,x8,-1446	  x8:0x00000000 x24=0xfffffa5a
       29955000	      2994	80003148	035bda63	bge	x23,x21,8000317c	 x23:0x00000800 x21:0x00000000
       29965000	      2995	00000000	00000013	addi	x0,x0,0	  x0:0x00000000
       29975000	      2996	80003178	00000013	addi	x0,x0,0	  x0:0x00000000
       29985000	      2997	8000317c	009ce333	or	x6,x25,x9	 x25:0x80009fc4  x9:0x00000003  x6=0x80009fc7
       29995000	      2998	80003180	49afe413	ori	x8,x31,1178	 x31:0x00000000  x8=0x0000049a
       30005000	      2999	80003184	01801e13	slli	x28,x0,0x18	  x0:0x00000000 x28=0x00000000
       30015000	      3000	80003188	0144ddb3	srl	x27,x9,x20	  x9:0x00000003 x20:0x00000000 x27=0x00000003
       30025000	      3001	8000318c	d2bd8db7	lui	x27,0xd2bd8	 x27=0xd2bd8000
       30035000	      3002	80003190	7aa44393	xori	x7,x8,1962	  x8:0x0000049a  x7=0x00000330
       30045000	      3003	80003194	01a4a1b3	slt	x3,x9,x26	  x9:0x00000003 x26:0x000005b2  x3=0x00000001
       30055000	      3004	80003198	00449e63	bne	x9,x4,800031b4	  x9:0x00000003  x4:0x00000000
       30065000	      3005	00000000	00000013	addi	x0,x0,0	  x0:0x00000000
       30075000	      3006	800031b0	00000013	addi	x0,x0,0	  x0:0x00000000
       30085000	      3007	800031b4	03274a63	blt	x14,x18,800031e8	 x14:0x00000745 x18:0x00000001
       30095000	      3008	800031b8	00fa5d13	srli	x26,x20,0xf	 x20:0x00000000 x26=0x00000000
       30105000	      3009	800031bc	01edec33	or	x24,x27,x30	 x27:0xd2bd8000 x30:0x74ed8001 x24=0xf6fd8001
       30115000	      3010	800031c0	01df1d33	sll	x26,x30,x29	 x30:0x74ed8001 x29:0x00000001 x26=0xe9db0002
       30125000	      3011	800031c4	41885d13	srai	x26,x16,0x18	 x16:0x80008f3e x26=0xffffff80
       30135000	      3012	800031c8	3ac47a93	andi	x21,x8,940	  x8:0x0000049a x21=0x00000088
       30145000	      3013	800031cc	01a50863	beq	x10,x26,800031dc	 x10:0x000005b2 x26:0xffffff80
       30155000	      3014	800031d0	00d84b33	xor	x22,x16,x13	 x16:0x80008f3e x13:0x0000ffff x22=0x800070c1
       30165000	      3015	800031d4	01cb6863	bltu	x22,x28,800031e4	 x22:0x800070c1 x28:0x00000000
       30175000	      3016	800031d8	03ced863	bge	x29,x28,80003208	 x29:0x00000001 x28:0x00000000
       30185000	      3017	00000000	00000013	addi	x0,x0,0	  x0:0x00000000
       30195000	      3018	80003204	00000013	addi	x0,x0,0	  x0:0x00000000
       30205000	      3019	80003208	27ca6193	ori	x3,x20,636	 x20:0x00000000  x3=0x0000027c
       30215000	      3020	8000320c	01ea6eb3	or	x29,x20,x30	 x20:0x00000000 x30:0x74ed8001 x29=0x74ed8001
       30225000	      3021	80003210	57e52413	slti	x8,x10,1406	 x10:0x000005b2  x8=0x00000000
       30235000	      3022	80003214	00000013	addi	x0,x0,0	  x0:0x00000000
       30245000	      3023	80003218	418eda93	srai	x21,x29,0x18	 x29:0x74ed8001 x21=0x00000074
       30255000	      3024	8000321c	41b78eb3	sub	x29,x15,x27	 x15:0x80009ee8 x27:0xd2bd8000 x29=0xad431ee8
       30265000	      3025	80003220	00ead613	srli	x12,x21,0xe	 x21:0x00000074 x12=0x00000000
       30275000	      3026	80003224	e1a2bc13	sltiu	x24,x5,-486	  x5:0x00000000 x24=0x00000001
       30285000	      3027	80003228	01457fb3	and	x31,x10,x20	 x10:0x000005b2 x20:0x00000000 x31=0x00000000
       30295000	      3028	8000322c	00bf5e93	srli	x29,x30,0xb	 x30:0x74ed8001 x29=0x000e9db0
       30305000	      3029	80003230	016704b3	add	x9,x14,x22	 x14:0x00000745 x22:0x800070c1  x9=0x80007806
       30315000	      3030	80003234	0167ec33	or	x24,x15,x22	 x15:0x80009ee8 x22:0x800070c1 x24=0x8000fee9
       30325000	      3031	80003238	006fdb93	srli	x23,x31,0x6	 x31:0x00000000 x23=0x00000000
       30335000	      3032	8000323c	014462b3	or	x5,x8,x20	  x8:0x00000000 x20:0x00000000  x5=0x00000000
       30345000	      3033	80003240	c6b2a913	slti	x18,x5,-917	  x5:0x00000000 x18=0x00000000
       30355000	      3034	80003244	01881d93	slli	x27,x16,0x18	 x16:0x80008f3e x27=0x3e000000
       30365000	      3035	80003248	00fb0133	add	x2,x22,x15	 x22:0x800070c1 x15:0x80009ee8  x2=0x00010fa9
       30375000	      3036	8000324c	00256d33	or	x26,x10,x2	 x10:0x000005b2  x2:0x00010fa9 x26=0x00010fbb
       30385000	      3037	80003250	03738a63	beq	x7,x23,80003284	  x7:0x00000330 x23:0x00000000
       30395000	      3038	80003254	007e8db3	add	x27,x29,x7	 x29:0x000e9db0  x7:0x00000330 x27=0x000ea0e0
       30405000	      3039	80003258	415450b3	sra	x1,x8,x21	  x8:0x00000000 x21:0x00000074  x1=0x00000000
       30415000	      3040	8000325c	3aa0bf13	sltiu	x30,x1,938	  x1:0x00000000 x30=0x00000001
       30425000	      3041	80003260	04bb9263	bne	x23,x11,800032a4	 x23:0x00000000 x11:0xfffffc4c
       30435000	      3042	00000000	00000013	addi	x0,x0,0	  x0:0x00000000
       30445000	      3043	800032a0	00000013	addi	x0,x0,0	  x0:0x00000000
       30455000	      3044	800032a4	939eb513	sltiu	x10,x29,-1735	 x29:0x000e9db0 x10=0x00000001
       30465000	      3045	800032a8	00a26bb3	or	x23,x4,x10	  x4:0x00000000 x10:0x00000001 x23=0x00000001
       30475000	      3046	800032ac	00915133	srl	x2,x2,x9	  x2:0x00010fa9  x9:0x80007806  x2=0x0000043e
       30485000	      3047	800032b0	017d4e33	xor	x28,x26,x23	 x26:0x00010fbb x23:0x00000001 x28=0x00010fba
       30495000	      3048	800032b4	05be4063	blt	x28,x27,800032f4	 x28:0x00010fba x27:0x000ea0e0
       30505000	      3049	00000000	00000013	addi	x0,x0,0	  x0:0x00000000
       30515000	      3050	800032f0	00000013	addi	x0,x0,0	  x0:0x00000000
       30525000	      3051	800032f4	520a7913	andi	x18,x20,1312	 x20:0x00000000 x18=0x00000000
       30535000	      3052	800032f8	87583693	sltiu	x13,x16,-1931	 x16:0x80008f3e x13=0x00000001
       30545000	      3053	800032fc	00cb1263	bne	x22,x12,80003300	 x22:0x800070c1 x12:0x00000000
       30555000	      3054	00000000	00000013	addi	x0,x0,0	  x0:0x00000000
       30565000	      3055	800032fc	00000013	addi	x0,x0,0	  x0:0x00000000
       30575000	      3056	80003300	0ff34463	blt	x6,x31,800033e8	  x6:0x80009fc7 x31:0x00000000
       30585000	      3057	00000000	00000013	addi	x0,x0,0	  x0:0x00000000
       30595000	      3058	800033e4	00000013	addi	x0,x0,0	  x0:0x00000000
       30605000	      3059	800033e8	419780b3	sub	x1,x15,x25	 x15:0x80009ee8 x25:0x80009fc4  x1=0xffffff24
       30615000	      3060	800033ec	02fbc663	blt	x23,x15,80003418	 x23:0x00000001 x15:0x80009ee8
       30625000	      3061	800033f0	00000013	addi	x0,x0,0	  x0:0x00000000
       30635000	      3062	800033f4	03316663	bltu	x2,x19,80003420	  x2:0x0000043e x19:0x92f21a7a
       30645000	      3063	00000000	00000013	addi	x0,x0,0	  x0:0x00000000
       30655000	      3064	8000341c	00000013	addi	x0,x0,0	  x0:0x00000000
       30665000	      3065	80003420	40b15813	srai	x16,x2,0xb	  x2:0x0000043e x16=0x00000000
       30675000	      3066	80003424	00000013	addi	x0,x0,0	  x0:0x00000000
       30685000	      3067	80003428	6485eb13	ori	x22,x11,1608	 x11:0xfffffc4c x22=0xfffffe4c
       30695000	      3068	8000342c	c00ec637	lui	x12,0xc00ec	 x12=0xc00ec000
       30705000	      3069	80003430	d0e2e1b7	lui	x3,0xd0e2e	  x3=0xd0e2e000
       30715000	      3070	80003434	00cc64b3	or	x9,x24,x12	 x24:0x8000fee9 x12:0xc00ec000  x9=0xc00efee9
       30725000	      3071	80003438	019d58b3	srl	x17,x26,x25	 x26:0x00010fbb x25:0x80009fc4 x17=0x000010fb
       30735000	      3072	8000343c	0442e263	bltu	x5,x4,80003480	  x5:0x00000000  x4:0x00000000
       30745000	      3073	80003440	bf888517	auipc	x10,0xbf888	 x10=0x3f88b43c
       30755000	      3074	80003444	018f2133	slt	x2,x30,x24	 x30:0x00000001 x24:0x8000fee9  x2=0x00000000
       30765000	      3075	80003448	011ade93	srli	x29,x21,0x11	 x21:0x00000074 x29=0x00000000
       30775000	      3076	8000344c	4bbe6d93	ori	x27,x28,1211	 x28:0x00010fba x27=0x00010fbb
       30785000	      3077	80003450	00267833	and	x16,x12,x2	 x12:0xc00ec000  x2:0x00000000 x16=0x00000000
       30795000	      3078	80003454	40b9d913	srai	x18,x19,0xb	 x19:0x92f21a7a x18=0xfff25e43
       30805000	      3079	80003458	012ed8b3	srl	x17,x29,x18	 x29:0x00000000 x18:0xfff25e43 x17=0x00000000
       30815000	      3080	8000345c	8f72be13	sltiu	x28,x5,-1801	  x5:0x00000000 x28=0x00000001
       30825000	      3081	80003460	04d2e863	bltu	x5,x13,800034b0	  x5:0x00000000 x13:0x00000001
       30835000	      3082	00000000	00000013	addi	x0,x0,0	  x0:0x00000000
       30845000	      3083	800034ac	00000013	addi	x0,x0,0	  x0:0x00000000
       30855000	      3084	800034b0	41278b33	sub	x22,x15,x18	 x15:0x80009ee8 x18:0xfff25e43 x22=0x800e40a5
       30865000	      3085	800034b4	ebf2c513	xori	x10,x5,-321	  x5:0x00000000 x10=0xfffffebf
       30875000	      3086	800034b8	01b968b3	or	x17,x18,x27	 x18:0xfff25e43 x27:0x00010fbb x17=0xfff35ffb
       30885000	      3087	800034bc	025d1a63	bne	x26,x5,800034f0	 x26:0x00010fbb  x5:0x00000000
       30895000	      3088	00000000	00000013	addi	x0,x0,0	  x0:0x00000000
       30905000	      3089	800034ec	00000013	addi	x0,x0,0	  x0:0x00000000
       30915000	      3090	800034f0	0013aa33	slt	x20,x7,x1	  x7:0x00000330  x1:0xffffff24 x20=0x00000000
       30925000	      3091	800034f4	0039d633	srl	x12,x19,x3	 x19:0x92f21a7a  x3:0xd0e2e000 x12=0x92f21a7a
       30935000	      3092	800034f8	856dc713	xori	x14,x27,-1962	 x27:0x00010fbb x14=0xfffef7ed
       30945000	      3093	800034fc	463a3613	sltiu	x12,x20,1123	 x20:0x00000000 x12=0x00000001
       30955000	      3094	80003500	5094a493	slti	x9,x9,1289	  x9:0xc00efee9  x9=0x00000001
       30965000	      3095	80003504	003e9a93	slli	x21,x29,0x3	 x29:0x00000000 x21=0x00000000
       30975000	      3096	80003508	008ac933	xor	x18,x21,x8	 x21:0x00000000  x8:0x00000000 x18=0x00000000
       30985000	      3097	8000350c	022bd463	bge	x23,x2,80003534	 x23:0x00000001  x2:0x00000000
       30995000	      3098	00000000	00000013	addi	x0,x0,0	  x0:0x00000000
       31005000	      3099	80003530	00000013	addi	x0,x0,0	  x0:0x00000000
       31015000	      3100	80003534	00997e33	and	x28,x18,x9	 x18:0x00000000  x9:0x00000001 x28=0x00000000
       31025000	      3101	80003538	01bb5863	bge	x22,x27,80003548	 x22:0x800e40a5 x27:0x00010fbb
       31035000	      3102	8000353c	00730a33	add	x20,x6,x7	  x6:0x80009fc7  x7:0x00000330 x20=0x8000a2f7
       31045000	      3103	80003540	2720a893	slti	x17,x1,626	  x1:0xffffff24 x17=0x00000001
       31055000	      3104	80003544	41f80db3	sub	x27,x16,x31	 x16:0x00000000 x31:0x00000000 x27=0x00000000
       31065000	      3105	80003548	406b5113	srai	x2,x22,0x6	 x22:0x800e40a5  x2=0xfe003902
       31075000	      3106	8000354c	eabd0613	addi	x12,x26,-341	 x26:0x00010fbb x12=0x00010e66
       31085000	      3107	80003550	004341b3	xor	x3,x6,x4	  x6:0x80009fc7  x4:0x00000000  x3=0x80009fc7
       31095000	      3108	80003554	0283e663	bltu	x7,x8,80003580	  x7:0x00000330  x8:0x00000000
       31105000	      3109	80003558	41add293	srai	x5,x27,0x1a	 x27:0x00000000  x5=0x00000000
       31115000	      3110	8000355c	4116df13	srai	x30,x13,0x11	 x13:0x00000001 x30=0x00000000
       31125000	      3111	80003560	046b9263	bne	x23,x6,800035a4	 x23:0x00000001  x6:0x80009fc7
       31135000	      3112	00000000	00000013	addi	x0,x0,0	  x0:0x00000000
       31145000	      3113	800035a0	00000013	addi	x0,x0,0	  x0:0x00000000
       31155000	      3114	800035a4	40835c13	srai	x24,x6,0x8	  x6:0x80009fc7 x24=0xff80009f
       31165000	      3115	800035a8	02866a63	bltu	x12,x8,800035dc	 x12:0x00010e66  x8:0x00000000
       31175000	      3116	800035ac	00222fb3	slt	x31,x4,x2	  x4:0x00000000  x2:0xfe003902 x31=0x00000000
       31185000	      3117	800035b0	4112d813	srai	x16,x5,0x11	  x5:0x00000000 x16=0x00000000
       31195000	      3118	800035b4	0073c233	xor	x4,x7,x7	  x7:0x00000330  x7:0x00000330  x4=0x00000000
       31205000	      3119	800035b8	015ad533	srl	x10,x21,x21	 x21:0x00000000 x21:0x00000000 x10=0x00000000
       31215000	      3120	800035bc	00dd7e63	bgeu	x26,x13,800035d8	 x26:0x00010fbb x13:0x00000001
       31225000	      3121	00000000	00000013	addi	x0,x0,0	  x0:0x00000000
       31235000	      3122	800035d4	00000013	addi	x0,x0,0	  x0:0x00000000
       31245000	      3123	800035d8	df3f44b7	lui	x9,0xdf3f4	  x9=0xdf3f4000
       31255000	      3124	800035dc	00cf1463	bne	x30,x12,800035e4	 x30:0x00000000 x12:0x00010e66
       31265000	      3125	00000000	00000013	addi	x0,x0,0	  x0:0x00000000
       31275000	      3126	800035e0	00000013	addi	x0,x0,0	  x0:0x00000000
       31285000	      3127	800035e4	02a98063	beq	x19,x10,80003604	 x19:0x92f21a7a x10:0x00000000
       31295000	      3128	800035e8	0023de93	srli	x29,x7,0x2	  x7:0x00000330 x29=0x000000cc
       31305000	      3129	800035ec	00f35fb3	srl	x31,x6,x15	  x6:0x80009fc7 x15:0x80009ee8 x31=0x0080009f
       31315000	      3130	800035f0	ca834db7	lui	x27,0xca834	 x27=0xca834000
       31325000	      3131	800035f4	11dbc063	blt	x23,x29,800036f4	 x23:0x00000001 x29:0x000000cc
       31335000	      3132	00000000	00000013	addi	x0,x0,0	  x0:0x00000000
       31345000	      3133	800036f0	00000013	addi	x0,x0,0	  x0:0x00000000
       31355000	      3134	800036f4	4020d293	srai	x5,x1,0x2	  x1:0xffffff24  x5=0xffffffc9
       31365000	      3135	800036f8	40dbd2b3	sra	x5,x23,x13	 x23:0x00000001 x13:0x00000001  x5=0x00000000
       31375000	      3136	800036fc	00b5ad33	slt	x26,x11,x11	 x11:0xfffffc4c x11:0xfffffc4c x26=0x00000000
       31385000	      3137	80003700	015acdb3	xor	x27,x21,x21	 x21:0x00000000 x21:0x00000000 x27=0x00000000
       31395000	      3138	80003704	00e663b3	or	x7,x12,x14	 x12:0x00010e66 x14:0xfffef7ed  x7=0xffffffef
       31405000	      3139	80003708	a036b593	sltiu	x11,x13,-1533	 x13:0x00000001 x11=0x00000001
       31415000	      3140	8000370c	01de9333	sll	x6,x29,x29	 x29:0x000000cc x29:0x000000cc  x6=0x000cc000
       31425000	      3141	80003710	397c4317	auipc	x6,0x397c4	  x6=0xb97c770c
       31435000	      3142	80003714	6cceec17	auipc	x24,0x6ccee	 x24=0xeccf1710
       31445000	      3143	80003718	0197ffb3	and	x31,x15,x25	 x15:0x80009ee8 x25:0x80009fc4 x31=0x80009ec0
       31455000	      3144	8000371c	00e91893	slli	x17,x18,0xe	 x18:0x00000000 x17=0x00000000
       31465000	      3145	80003720	01f4feb3	and	x29,x9,x31	  x9:0xdf3f4000 x31:0x80009ec0 x29=0x80000000
       31475000	      3146	80003724	011d0c33	add	x24,x26,x17	 x26:0x00000000 x17:0x00000000 x24=0x00000000
       31485000	      3147	80003728	5fdebb17	auipc	x22,0x5fdeb	 x22=0xdfdee724
       31495000	      3148	8000372c	0000d213	srli	x4,x1,0x0	  x1:0xffffff24  x4=0xffffff24
       31505000	      3149	80003730	03310c63	beq	x2,x19,80003768	  x2:0xfe003902 x19:0x92f21a7a
       31515000	      3150	80003734	42cf7193	andi	x3,x30,1068	 x30:0x00000000  x3=0x00000000
       31525000	      3151	80003738	023cf263	bgeu	x25,x3,8000375c	 x25:0x80009fc4  x3:0x00000000
       31535000	      3152	00000000	00000013	addi	x0,x0,0	  x0:0x00000000
       31545000	      3153	80003758	00000013	addi	x0,x0,0	  x0:0x00000000
       31555000	      3154	8000375c	00000013	addi	x0,x0,0	  x0:0x00000000
       31565000	      3155	80003760	00e64663	blt	x12,x14,8000376c	 x12:0x00010e66 x14:0xfffef7ed
       31575000	      3156	80003764	01f95693	srli	x13,x18,0x1f	 x18:0x00000000 x13=0x00000000
       31585000	      3157	80003768	01ad1fb3	sll	x31,x26,x26	 x26:0x00000000 x26:0x00000000 x31=0x00000000
       31595000	      3158	8000376c	00000013	addi	x0,x0,0	  x0:0x00000000
       31605000	      3159	80003770	01d43e33	sltu	x28,x8,x29	  x8:0x00000000 x29:0x80000000 x28=0x00000001
       31615000	      3160	80003774	01409c63	bne	x1,x20,8000378c	  x1:0xffffff24 x20:0x8000a2f7
       31625000	      3161	00000000	00000013	addi	x0,x0,0	  x0:0x00000000
       31635000	      3162	80003788	00000013	addi	x0,x0,0	  x0:0x00000000
       31645000	      3163	8000378c	40ea85b3	sub	x11,x21,x14	 x21:0x00000000 x14:0xfffef7ed x11=0x00010813
       31655000	      3164	80003790	ad30bc13	sltiu	x24,x1,-1325	  x1:0xffffff24 x24=0x00000000
       31665000	      3165	80003794	40c002b3	sub	x5,x0,x12	  x0:0x00000000 x12:0x00010e66  x5=0xfffef19a
       31675000	      3166	80003798	01ce5ab3	srl	x21,x28,x28	 x28:0x00000001 x28:0x00000001 x21=0x00000000
       31685000	      3167	8000379c	01f2c863	blt	x5,x31,800037ac	  x5:0xfffef19a x31:0x00000000
       31695000	      3168	00000000	00000013	addi	x0,x0,0	  x0:0x00000000
       31705000	      3169	800037a8	00000013	addi	x0,x0,0	  x0:0x00000000
       31715000	      3170	800037ac	016c26b3	slt	x13,x24,x22	 x24:0x00000000 x22:0xdfdee724 x13=0x00000000
       31725000	      3171	800037b0	21943b13	sltiu	x22,x8,537	  x8:0x00000000 x22=0x00000001
       31735000	      3172	800037b4	00000013	addi	x0,x0,0	  x0:0x00000000
       31745000	      3173	800037b8	019fc4b3	xor	x9,x31,x25	 x31:0x00000000 x25:0x80009fc4  x9=0x80009fc4
       31755000	      3174	800037bc	000406b3	add	x13,x8,x0	  x8:0x00000000  x0:0x00000000 x13=0x00000000
       31765000	      3175	800037c0	0025f733	and	x14,x11,x2	 x11:0x00010813  x2:0xfe003902 x14=0x00000802
       31775000	      3176	800037c4	9ab30413	addi	x8,x6,-1621	  x6:0xb97c770c  x8=0xb97c70b7
       31785000	      3177	800037c8	01427e33	and	x28,x4,x20	  x4:0xffffff24 x20:0x8000a2f7 x28=0x8000a224
       31795000	      3178	800037cc	00000013	addi	x0,x0,0	  x0:0x00000000
       31805000	      3179	800037d0	01200533	add	x10,x0,x18	  x0:0x00000000 x18:0x00000000 x10=0x00000000
       31815000	      3180	800037d4	00228233	add	x4,x5,x2	  x5:0xfffef19a  x2:0xfe003902  x4=0xfdff2a9c
       31825000	      3181	800037d8	408e05b3	sub	x11,x28,x8	 x28:0x8000a224  x8:0xb97c70b7 x11=0xc684316d
       31835000	      3182	800037dc	018d6fb3	or	x31,x26,x24	 x26:0x00000000 x24:0x00000000 x31=0x00000000
       31845000	      3183	800037e0	02c35a63	bge	x6,x12,80003814	  x6:0xb97c770c x12:0x00010e66
       31855000	      3184	800037e4	43955717	auipc	x14,0x43955	 x14=0xc39587e0
       31865000	      3185	800037e8	002e9713	slli	x14,x29,0x2	 x29:0x80000000 x14=0x00000000
       31875000	      3186	800037ec	40a88833	sub	x16,x17,x10	 x17:0x00000000 x10:0x00000000 x16=0x00000000
       31885000	      3187	800037f0	010b5c63	bge	x22,x16,80003808	 x22:0x00000001 x16:0x00000000
       31895000	      3188	00000000	00000013	addi	x0,x0,0	  x0:0x00000000
       31905000	      3189	80003804	00000013	addi	x0,x0,0	  x0:0x00000000
       31915000	      3190	80003808	4163d693	srai	x13,x7,0x16	  x7:0xffffffef x13=0xffffffff
       31925000	      3191	8000380c	427c0613	addi	x12,x24,1063	 x24:0x00000000 x12=0x00000427
       31935000	      3192	80003810	052f9263	bne	x31,x18,80003854	 x31:0x00000000 x18:0x00000000
       31945000	      3193	80003814	04926063	bltu	x4,x9,80003854	  x4:0xfdff2a9c  x9:0x80009fc4
       31955000	      3194	80003818	41208633	sub	x12,x1,x18	  x1:0xffffff24 x18:0x00000000 x12=0xffffff24
       31965000	      3195	8000381c	704ccd13	xori	x26,x25,1796	 x25:0x80009fc4 x26=0x800098c0
       31975000	      3196	80003820	0139d613	srli	x12,x19,0x13	 x19:0x92f21a7a x12=0x0000125e
       31985000	      3197	80003824	01a40c33	add	x24,x8,x26	  x8:0xb97c70b7 x26:0x800098c0 x24=0x397d0977
       31995000	      3198	80003828	01815b33	srl	x22,x2,x24	  x2:0xfe003902 x24:0x397d0977 x22=0x000001fc
       32005000	      3199	8000382c	02147a63	bgeu	x8,x1,80003860	  x8:0xb97c70b7  x1:0xffffff24
       32015000	      3200	80003830	00b74233	xor	x4,x14,x11	 x14:0x00000000 x11:0xc684316d  x4=0xc684316d
       32025000	      3201	80003834	00000013	addi	x0,x0,0	  x0:0x00000000
       32035000	      3202	80003838	1de1ed93	ori	x27,x3,478	  x3:0x00000000 x27=0x000001de
       32045000	      3203	8000383c	018fe433	or	x8,x31,x24	 x31:0x00000000 x24:0x397d0977  x8=0x397d0977
       32055000	      3204	80003840	2d0bb493	sltiu	x9,x23,720	 x23:0x00000001  x9=0x00000001
       32065000	      3205	80003844	893eda37	lui	x20,0x893ed	 x20=0x893ed000
       32075000	      3206	80003848	01428833	add	x16,x5,x20	  x5:0xfffef19a x20:0x893ed000 x16=0x893dc19a
       32085000	      3207	8000384c	40a48c33	sub	x24,x9,x10	  x9:0x00000001 x10:0x00000000 x24=0x00000001
       32095000	      3208	80003850	4162d893	srai	x17,x5,0x16	  x5:0xfffef19a x17=0xffffffff
       32105000	      3209	80003854	007ad093	srli	x1,x21,0x7	 x21:0x00000000  x1=0x00000000
       32115000	      3210	80003858	01098863	beq	x19,x16,80003868	 x19:0x92f21a7a x16:0x893dc19a
       32125000	      3211	8000385c	015c7633	and	x12,x24,x21	 x24:0x00000001 x21:0x00000000 x12=0x00000000
       32135000	      3212	80003860	c7f17b17	auipc	x22,0xc7f17	 x22=0x47f1a85c
       32145000	      3213	80003864	01269193	slli	x3,x13,0x12	 x13:0xffffffff  x3=0xfffc0000
       32155000	      3214	80003868	019358b3	srl	x17,x6,x25	  x6:0xb97c770c x25:0x80009fc4 x17=0x0b97c770
       32165000	      3215	8000386c	019aea33	or	x20,x21,x25	 x21:0x00000000 x25:0x80009fc4 x20=0x80009fc4
       32175000	      3216	80003870	00000013	addi	x0,x0,0	  x0:0x00000000
       32185000	      3217	80003874	008e5593	srli	x11,x28,0x8	 x28:0x8000a224 x11=0x008000a2
       32195000	      3218	80003878	46c0b913	sltiu	x18,x1,1132	  x1:0x00000000 x18=0x00000001
       32205000	      3219	8000387c	0174ac33	slt	x24,x9,x23	  x9:0x00000001 x23:0x00000001 x24=0x00000000
       32215000	      3220	80003880	014fe933	or	x18,x31,x20	 x31:0x00000000 x20:0x80009fc4 x18=0x80009fc4
       32225000	      3221	80003884	019e5d13	srli	x26,x28,0x19	 x28:0x8000a224 x26=0x00000040
       32235000	      3222	80003888	41ca86b3	sub	x13,x21,x28	 x21:0x00000000 x28:0x8000a224 x13=0x7fff5ddc
       32245000	      3223	8000388c	05c3c863	blt	x7,x28,800038dc	  x7:0xffffffef x28:0x8000a224
       32255000	      3224	80003890	01b6a533	slt	x10,x13,x27	 x13:0x7fff5ddc x27:0x000001de x10=0x00000000
       32265000	      3225	80003894	00176f33	or	x30,x14,x1	 x14:0x00000000  x1:0x00000000 x30=0x00000000
       32275000	      3226	80003898	d50b4817	auipc	x16,0xd50b4	 x16=0x550b7894
       32285000	      3227	8000389c	0094a933	slt	x18,x9,x9	  x9:0x00000001  x9:0x00000001 x18=0x00000000
       32295000	      3228	800038a0	00fe3433	sltu	x8,x28,x15	 x28:0x8000a224 x15:0x80009ee8  x8=0x00000000
       32305000	      3229	800038a4	7d26f413	andi	x8,x13,2002	 x13:0x7fff5ddc  x8=0x000005d0
       32315000	      3230	800038a8	00f03eb3	sltu	x29,x0,x15	  x0:0x00000000 x15:0x80009ee8 x29=0x00000001
       32325000	      3231	800038ac	00a008b3	add	x17,x0,x10	  x0:0x00000000 x10:0x00000000 x17=0x00000000
       32335000	      3232	800038b0	40a5da33	sra	x20,x11,x10	 x11:0x008000a2 x10:0x00000000 x20=0x008000a2
       32345000	      3233	800038b4	55b67413	andi	x8,x12,1371	 x12:0x00000000  x8=0x00000000
       32355000	      3234	800038b8	002660b3	or	x1,x12,x2	 x12:0x00000000  x2:0xfe003902  x1=0xfe003902
       32365000	      3235	800038bc	00000013	addi	x0,x0,0	  x0:0x00000000
       32375000	      3236	800038c0	0054c0b3	xor	x1,x9,x5	  x9:0x00000001  x5:0xfffef19a  x1=0xfffef19b
       32385000	      3237	800038c4	013fb733	sltu	x14,x31,x19	 x31:0x00000000 x19:0x92f21a7a x14=0x00000001
       32395000	      3238	800038c8	0311da63	bge	x3,x17,800038fc	  x3:0xfffc0000 x17:0x00000000
       32405000	      3239	800038cc	00000013	addi	x0,x0,0	  x0:0x00000000
       32415000	      3240	800038d0	30eaa113	slti	x2,x21,782	 x21:0x00000000  x2=0x00000001
       32425000	      3241	800038d4	84f80837	lui	x16,0x84f80	 x16=0x84f80000
       32435000	      3242	800038d8	01ea9213	slli	x4,x21,0x1e	 x21:0x00000000  x4=0x00000000
       32445000	      3243	800038dc	01bbfb33	and	x22,x23,x27	 x23:0x00000001 x27:0x000001de x22=0x00000000
       32455000	      3244	800038e0	02e80863	beq	x16,x14,80003910	 x16:0x84f80000 x14:0x00000001
       32465000	      3245	800038e4	01a1deb3	srl	x29,x3,x26	  x3:0xfffc0000 x26:0x00000040 x29=0xfffc0000
       32475000	      3246	800038e8	00000013	addi	x0,x0,0	  x0:0x00000000
       32485000	      3247	800038ec	02bf0663	beq	x30,x11,80003918	 x30:0x00000000 x11:0x008000a2
       32495000	      3248	800038f0	00775a63	bge	x14,x7,80003904	 x14:0x00000001  x7:0xffffffef
       32505000	      3249	00000000	00000013	addi	x0,x0,0	  x0:0x00000000
       32515000	      3250	80003900	00000013	addi	x0,x0,0	  x0:0x00000000
       32525000	      3251	80003904	04c28063	beq	x5,x12,80003944	  x5:0xfffef19a x12:0x00000000
       32535000	      3252	80003908	d8135497	auipc	x9,0xd8135	  x9=0x58138904
       32545000	      3253	8000390c	01b15413	srli	x8,x2,0x1b	  x2:0x00000001  x8=0x00000000
       32555000	      3254	80003910	05120663	beq	x4,x17,8000395c	  x4:0x00000000 x17:0x00000000
       32565000	      3255	00000000	00000013	addi	x0,x0,0	  x0:0x00000000
       32575000	      3256	80003958	00000013	addi	x0,x0,0	  x0:0x00000000
       32585000	      3257	8000395c	035d0a63	beq	x26,x21,80003990	 x26:0x00000040 x21:0x00000000
       32595000	      3258	80003960	00000013	addi	x0,x0,0	  x0:0x00000000
       32605000	      3259	80003964	40930d33	sub	x26,x6,x9	  x6:0xb97c770c  x9:0x58138904 x26=0x6168ee08
       32615000	      3260	80003968	04efd263	bge	x31,x14,800039ac	 x31:0x00000000 x14:0x00000001
       32625000	      3261	8000396c	74300b93	addi	x23,x0,1859	  x0:0x00000000 x23=0x00000743
       32635000	      3262	80003970	fb4d3613	sltiu	x12,x26,-76	 x26:0x6168ee08 x12=0x00000001
       32645000	      3263	80003974	0995cd13	xori	x26,x11,153	 x11:0x008000a2 x26=0x0080003b
       32655000	      3264	80003978	00000013	addi	x0,x0,0	  x0:0x00000000
       32665000	      3265	8000397c	00969193	slli	x3,x13,0x9	 x13:0x7fff5ddc  x3=0xfebbb800
       32675000	      3266	80003980	01785733	srl	x14,x16,x23	 x16:0x84f80000 x23:0x00000743 x14=0x109f0000
       32685000	      3267	80003984	017f5e93	srli	x29,x30,0x17	 x30:0x00000000 x29=0x00000000
       32695000	      3268	80003988	00e11933	sll	x18,x2,x14	  x2:0x00000001 x14:0x109f0000 x18=0x00000001
       32705000	      3269	8000398c	01295413	srli	x8,x18,0x12	 x18:0x00000001  x8=0x00000000
       32715000	      3270	80003990	05a9c063	blt	x19,x26,800039d0	 x19:0x92f21a7a x26:0x0080003b
       32725000	      3271	00000000	00000013	addi	x0,x0,0	  x0:0x00000000
       32735000	      3272	800039cc	00000013	addi	x0,x0,0	  x0:0x00000000
       32745000	      3273	800039d0	01571863	bne	x14,x21,800039e0	 x14:0x109f0000 x21:0x00000000
       32755000	      3274	00000000	00000013	addi	x0,x0,0	  x0:0x00000000
       32765000	      3275	800039dc	00000013	addi	x0,x0,0	  x0:0x00000000
       32775000	      3276	800039e0	01316c33	or	x24,x2,x19	  x2:0x00000001 x19:0x92f21a7a x24=0x92f21a7b
       32785000	      3277	800039e4	a675a513	slti	x10,x11,-1433	 x11:0x008000a2 x10=0x00000000
       32795000	      3278	800039e8	01a73d33	sltu	x26,x14,x26	 x14:0x109f0000 x26:0x0080003b x26=0x00000000
       32805000	      3279	800039ec	09a2bb93	sltiu	x23,x5,154	  x5:0xfffef19a x23=0x00000000
       32815000	      3280	800039f0	008e5ab3	srl	x21,x28,x8	 x28:0x8000a224  x8:0x00000000 x21=0x8000a224
       32825000	      3281	800039f4	d7e77f93	andi	x31,x14,-642	 x14:0x109f0000 x31=0x109f0000
       32835000	      3282	800039f8	4182deb3	sra	x29,x5,x24	  x5:0xfffef19a x24:0x92f21a7b x29=0xffffffff
       32845000	      3283	800039fc	414a0f33	sub	x30,x20,x20	 x20:0x008000a2 x20:0x008000a2 x30=0x00000000
       32855000	      3284	80003a00	40a48733	sub	x14,x9,x10	  x9:0x58138904 x10:0x00000000 x14=0x58138904
       32865000	      3285	80003a04	1592bf93	sltiu	x31,x5,345	  x5:0xfffef19a x31=0x00000000
       32875000	      3286	80003a08	416f0233	sub	x4,x30,x22	 x30:0x00000000 x22:0x00000000  x4=0x00000000
       32885000	      3287	80003a0c	00aafe33	and	x28,x21,x10	 x21:0x8000a224 x10:0x00000000 x28=0x00000000
       32895000	      3288	80003a10	b91be113	ori	x2,x23,-1135	 x23:0x00000000  x2=0xfffffb91
       32905000	      3289	80003a14	00000013	addi	x0,x0,0	  x0:0x00000000
       32915000	      3290	80003a18	d9b0cb93	xori	x23,x1,-613	  x1:0xfffef19b x23=0x00010c00
       32925000	      3291	80003a1c	01206a63	bltu	x0,x18,80003a30	  x0:0x00000000 x18:0x00000001
       32935000	      3292	00000000	00000013	addi	x0,x0,0	  x0:0x00000000
       32945000	      3293	80003a2c	00000013	addi	x0,x0,0	  x0:0x00000000
       32955000	      3294	80003a30	0100cc63	blt	x1,x16,80003a48	  x1:0xfffef19b x16:0x84f80000
       32965000	      3295	80003a34	f73e14b7	lui	x9,0xf73e1	  x9=0xf73e1000
       32975000	      3296	80003a38	010ba133	slt	x2,x23,x16	 x23:0x00010c00 x16:0x84f80000  x2=0x00000000
       32985000	      3297	80003a3c	00000013	addi	x0,x0,0	  x0:0x00000000
       32995000	      3298	80003a40	9dd8f893	andi	x17,x17,-1571	 x17:0x00000000 x17=0x00000000
       33005000	      3299	80003a44	01d8d733	srl	x14,x17,x29	 x17:0x00000000 x29:0xffffffff x14=0x00000000
       33015000	      3300	80003a48	403fd913	srai	x18,x31,0x3	 x31:0x00000000 x18=0x00000000
       33025000	      3301	80003a4c	6ef3b937	lui	x18,0x6ef3b	 x18=0x6ef3b000
       33035000	      3302	80003a50	9ab8bd13	sltiu	x26,x17,-1621	 x17:0x00000000 x26=0x00000001
       33045000	      3303	80003a54	00d9d313	srli	x6,x19,0xd	 x19:0x92f21a7a  x6=0x00049790
       33055000	      3304	80003a58	008930b3	sltu	x1,x18,x8	 x18:0x6ef3b000  x8:0x00000000  x1=0x00000000
       33065000	      3305	80003a5c	017036b3	sltu	x13,x0,x23	  x0:0x00000000 x23:0x00010c00 x13=0x00000001
       33075000	      3306	80003a60	fa317093	andi	x1,x2,-93	  x2:0x00000000  x1=0x00000000
       33085000	      3307	80003a64	01aa8bb3	add	x23,x21,x26	 x21:0x8000a224 x26:0x00000001 x23=0x8000a225
       33095000	      3308	80003a68	adb3b013	sltiu	x0,x7,-1317	  x7:0xffffffef
       33105000	      3309	80003a6c	8e0a8917	auipc	x18,0x8e0a8	 x18=0x0e0aba68
       33115000	      3310	80003a70	01315463	bge	x2,x19,80003a78	  x2:0x00000000 x19:0x92f21a7a
       33125000	      3311	00000000	00000013	addi	x0,x0,0	  x0:0x00000000
       33135000	      3312	80003a74	00000013	addi	x0,x0,0	  x0:0x00000000
       33145000	      3313	80003a78	a5dfd36f	jal	x6,80003a78	  x6=0x80003a78
       33155000	      3314	00000000	00000013	addi	x0,x0,0	  x0:0x00000000
       33165000	      3315	800014d0	00000013	addi	x0,x0,0	  x0:0x00000000
       33175000	      3316	800014d4	01525463	bge	x4,x21,800014dc	  x4:0x00000000 x21:0x8000a224
       33185000	      3317	00000000	00000013	addi	x0,x0,0	  x0:0x00000000
       33195000	      3318	800014d8	00000013	addi	x0,x0,0	  x0:0x00000000
       33205000	      3319	800014dc	fe478793	addi	x15,x15,-28	 x15:0x80009ee8 x15=0x80009ecc
       33215000	      3320	800014e0	00e7abb3	slt	x23,x15,x14	 x15:0x80009ecc x14:0x00000000 x23=0x00000001
       33225000	      3321	800014e4	f6df78b7	lui	x17,0xf6df7	 x17=0xf6df7000
       33235000	      3322	800014e8	0067a223	sw	x6,4(x15)	 x15:0x80009ecc  x6:0x80003a78 PA:0x80009ed0
       33245000	      3323	800014ec	cee4ab37	lui	x22,0xcee4a	 x22=0xcee4a000
       33255000	      3324	800014f0	089e0b93	addi	x23,x28,137	 x28:0x00000000 x23=0x00000089
       33265000	      3325	800014f4	01b708b3	add	x17,x14,x27	 x14:0x00000000 x27:0x000001de x17=0x000001de
       33275000	      3326	800014f8	08110113	addi	x2,x2,129	  x2:0x00000000  x2=0x00000081
       33285000	      3327	800014fc	02866663	bltu	x12,x8,80001528	 x12:0x00000001  x8:0x00000000
       33295000	      3328	80001500	40dd54b3	sra	x9,x26,x13	 x26:0x00000001 x13:0x00000001  x9=0x00000000
       33305000	      3329	80001504	024b5263	bge	x22,x4,80001528	 x22:0xcee4a000  x4:0x00000000
       33315000	      3330	80001508	02de8063	beq	x29,x13,80001528	 x29:0xffffffff x13:0x00000001
       33325000	      3331	8000150c	4080d193	srai	x3,x1,0x8	  x1:0x00000000  x3=0x00000000
       33335000	      3332	80001510	00099513	slli	x10,x19,0x0	 x19:0x92f21a7a x10=0x92f21a7a
       33345000	      3333	80001514	41538f33	sub	x30,x7,x21	  x7:0xffffffef x21:0x8000a224 x30=0x7fff5dcb
       33355000	      3334	80001518	01440863	beq	x8,x20,80001528	  x8:0x00000000 x20:0x008000a2
       33365000	      3335	8000151c	41a38433	sub	x8,x7,x26	  x7:0xffffffef x26:0x00000001  x8=0xffffffee
       33375000	      3336	80001520	fd826c17	auipc	x24,0xfd826	 x24=0x7d82751c
       33385000	      3337	80001524	016a8263	beq	x21,x22,80001528	 x21:0x8000a224 x22:0xcee4a000
       33395000	      3338	80001528	409b82b3	sub	x5,x23,x9	 x23:0x00000089  x9:0x00000000  x5=0x00000089
       33405000	      3339	8000152c	41068633	sub	x12,x13,x16	 x13:0x00000001 x16:0x84f80000 x12=0x7b080001
       33415000	      3340	80001530	0047a303	lw	x6,4(x15)	 x15:0x80009ecc  x6=0x80003a78 PA:0x80009ed0
       33425000	      3341	80001534	50bd7293	andi	x5,x26,1291	 x26:0x00000001  x5=0x00000001
       33435000	      3342	80001538	01f9a4b3	slt	x9,x19,x31	 x19:0x92f21a7a x31:0x00000000  x9=0x00000001
       33445000	      3343	8000153c	4118d533	sra	x10,x17,x17	 x17:0x000001de x17:0x000001de x10=0x00000000
       33455000	      3344	80001540	dc298213	addi	x4,x19,-574	 x19:0x92f21a7a  x4=0x92f2183c
       33465000	      3345	80001544	01c78793	addi	x15,x15,28	 x15:0x80009ecc x15=0x80009ee8
       33475000	      3346	80001548	0140c4b3	xor	x9,x1,x20	  x1:0x00000000 x20:0x008000a2  x9=0x008000a2
       33485000	      3347	8000154c	00e79ab3	sll	x21,x15,x14	 x15:0x80009ee8 x14:0x00000000 x21=0x80009ee8
       33495000	      3348	80001550	005fd8b3	srl	x17,x31,x5	 x31:0x00000000  x5:0x00000001 x17=0x00000000
       33505000	      3349	80001554	405bd3b3	sra	x7,x23,x5	 x23:0x00000089  x5:0x00000001  x7=0x00000044
       33515000	      3350	80001558	00030713	addi	x14,x6,0	  x6:0x80003a78 x14=0x80003a78
       33525000	      3351	8000155c	00070767	jalr	x14,x14,0	 x14:0x80003a78 x14=0x8000155c
       33535000	      3352	00000000	00000013	addi	x0,x0,0	  x0:0x00000000
       33545000	      3353	80003a78	00000013	addi	x0,x0,0	  x0:0x00000000
       33555000	      3354	80003a7c	e3deb493	sltiu	x9,x29,-451	 x29:0xffffffff  x9=0x00000000
       33565000	      3355	80003a80	0281da63	bge	x3,x8,80003ab4	  x3:0x00000000  x8:0xffffffee
       33575000	      3356	00000000	00000013	addi	x0,x0,0	  x0:0x00000000
       33585000	      3357	80003ab0	00000013	addi	x0,x0,0	  x0:0x00000000
       33595000	      3358	80003ab4	40f1da93	srai	x21,x3,0xf	  x3:0x00000000 x21=0x00000000
       33605000	      3359	80003ab8	045ae863	bltu	x21,x5,80003b08	 x21:0x00000000  x5:0x00000001
       33615000	      3360	00000000	00000013	addi	x0,x0,0	  x0:0x00000000
       33625000	      3361	80003b04	00000013	addi	x0,x0,0	  x0:0x00000000
       33635000	      3362	80003b08	ab872513	slti	x10,x14,-1352	 x14:0x8000155c x10=0x00000001
       33645000	      3363	80003b0c	4d618e13	addi	x28,x3,1238	  x3:0x00000000 x28=0x000004d6
       33655000	      3364	80003b10	02f7e263	bltu	x15,x15,80003b34	 x15:0x80009ee8 x15:0x80009ee8
       33665000	      3365	80003b14	8291ce13	xori	x28,x3,-2007	  x3:0x00000000 x28=0xfffff829
       33675000	      3366	80003b18	014f9663	bne	x31,x20,80003b24	 x31:0x00000000 x20:0x008000a2
       33685000	      3367	00000000	00000013	addi	x0,x0,0	  x0:0x00000000
       33695000	      3368	80003b20	00000013	addi	x0,x0,0	  x0:0x00000000
       33705000	      3369	80003b24	0101e463	bltu	x3,x16,80003b2c	  x3:0x00000000 x16:0x84f80000
       33715000	      3370	00000000	00000013	addi	x0,x0,0	  x0:0x00000000
       33725000	      3371	80003b28	00000013	addi	x0,x0,0	  x0:0x00000000
       33735000	      3372	80003b2c	01cab0b3	sltu	x1,x21,x28	 x21:0x00000000 x28:0xfffff829  x1=0x00000001
       33745000	      3373	80003b30	059ec0b7	lui	x1,0x59ec	  x1=0x059ec000
       33755000	      3374	80003b34	02409a63	bne	x1,x4,80003b68	  x1:0x059ec000  x4:0x92f2183c
       33765000	      3375	00000000	00000013	addi	x0,x0,0	  x0:0x00000000
       33775000	      3376	80003b64	00000013	addi	x0,x0,0	  x0:0x00000000
       33785000	      3377	80003b68	02c67263	bgeu	x12,x12,80003b8c	 x12:0x7b080001 x12:0x7b080001
       33795000	      3378	00000000	00000013	addi	x0,x0,0	  x0:0x00000000
       33805000	      3379	80003b88	00000013	addi	x0,x0,0	  x0:0x00000000
       33815000	      3380	80003b8c	03091e63	bne	x18,x16,80003bc8	 x18:0x0e0aba68 x16:0x84f80000
       33825000	      3381	00000000	00000013	addi	x0,x0,0	  x0:0x00000000
       33835000	      3382	80003bc4	00000013	addi	x0,x0,0	  x0:0x00000000
       33845000	      3383	80003bc8	025ac663	blt	x21,x5,80003bf4	 x21:0x00000000  x5:0x00000001
       33855000	      3384	00000000	00000013	addi	x0,x0,0	  x0:0x00000000
       33865000	      3385	80003bf0	00000013	addi	x0,x0,0	  x0:0x00000000
       33875000	      3386	80003bf4	b837e293	ori	x5,x15,-1149	 x15:0x80009ee8  x5=0xffffffeb
       33885000	      3387	80003bf8	01553fb3	sltu	x31,x10,x21	 x10:0x00000001 x21:0x00000000 x31=0x00000000
       33895000	      3388	80003bfc	09856393	ori	x7,x10,152	 x10:0x00000001  x7=0x00000099
       33905000	      3389	80003c00	7eea7a93	andi	x21,x20,2030	 x20:0x008000a2 x21=0x000000a2
       33915000	      3390	80003c04	00000013	addi	x0,x0,0	  x0:0x00000000
       33925000	      3391	80003c08	40925533	sra	x10,x4,x9	  x4:0x92f2183c  x9:0x00000000 x10=0x92f2183c
       33935000	      3392	80003c0c	01051713	slli	x14,x10,0x10	 x10:0x92f2183c x14=0x183c0000
       33945000	      3393	80003c10	01447433	and	x8,x8,x20	  x8:0xffffffee x20:0x008000a2  x8=0x008000a2
       33955000	      3394	80003c14	96a27313	andi	x6,x4,-1686	  x4:0x92f2183c  x6=0x92f21828
       33965000	      3395	80003c18	00000013	addi	x0,x0,0	  x0:0x00000000
       33975000	      3396	80003c1c	417e5b33	sra	x22,x28,x23	 x28:0xfffff829 x23:0x00000089 x22=0xfffffffc
       33985000	      3397	80003c20	006cc263	blt	x25,x6,80003c24	 x25:0x80009fc4  x6:0x92f21828
       33995000	      3398	00000000	00000013	addi	x0,x0,0	  x0:0x00000000
       34005000	      3399	80003c20	00000013	addi	x0,x0,0	  x0:0x00000000
       34015000	      3400	80003c24	011870b3	and	x1,x16,x17	 x16:0x84f80000 x17:0x00000000  x1=0x00000000
       34025000	      3401	80003c28	00582633	slt	x12,x16,x5	 x16:0x84f80000  x5:0xffffffeb x12=0x00000001
       34035000	      3402	80003c2c	0216e713	ori	x14,x13,33	 x13:0x00000001 x14=0x00000021
       34045000	      3403	80003c30	04be0263	beq	x28,x11,80003c74	 x28:0xfffff829 x11:0x008000a2
       34055000	      3404	80003c34	02dd0263	beq	x26,x13,80003c58	 x26:0x00000001 x13:0x00000001
       34065000	      3405	00000000	00000013	addi	x0,x0,0	  x0:0x00000000
       34075000	      3406	80003c54	00000013	addi	x0,x0,0	  x0:0x00000000
       34085000	      3407	80003c58	40ceddb3	sra	x27,x29,x12	 x29:0xffffffff x12:0x00000001 x27=0xffffffff
       34095000	      3408	80003c5c	02ac8063	beq	x25,x10,80003c7c	 x25:0x80009fc4 x10:0x92f2183c
       34105000	      3409	80003c60	ba826293	ori	x5,x4,-1112	  x4:0x92f2183c  x5=0xfffffbbc
       34115000	      3410	80003c64	00a8da63	bge	x17,x10,80003c78	 x17:0x00000000 x10:0x92f2183c
       34125000	      3411	00000000	00000013	addi	x0,x0,0	  x0:0x00000000
       34135000	      3412	80003c74	00000013	addi	x0,x0,0	  x0:0x00000000
       34145000	      3413	80003c78	01bf9433	sll	x8,x31,x27	 x31:0x00000000 x27:0xffffffff  x8=0x00000000
       34155000	      3414	80003c7c	0123f863	bgeu	x7,x18,80003c8c	  x7:0x00000099 x18:0x0e0aba68
       34165000	      3415	80003c80	5bfaeb17	auipc	x22,0x5bfae	 x22=0xdbfb1c7c
       34175000	      3416	80003c84	01371e13	slli	x28,x14,0x13	 x14:0x00000021 x28=0x01080000
       34185000	      3417	80003c88	007f2933	slt	x18,x30,x7	 x30:0x7fff5dcb  x7:0x00000099 x18=0x00000000
       34195000	      3418	80003c8c	4720a513	slti	x10,x1,1138	  x1:0x00000000 x10=0x00000001
       34205000	      3419	80003c90	dd1d7117	auipc	x2,0xdd1d7	  x2=0x5d1dac8c
       34215000	      3420	80003c94	01c74533	xor	x10,x14,x28	 x14:0x00000021 x28:0x01080000 x10=0x01080021
       34225000	      3421	80003c98	03bf1c63	bne	x30,x27,80003cd0	 x30:0x7fff5dcb x27:0xffffffff
       34235000	      3422	00000000	00000013	addi	x0,x0,0	  x0:0x00000000
       34245000	      3423	80003ccc	00000013	addi	x0,x0,0	  x0:0x00000000
       34255000	      3424	80003cd0	183b3693	sltiu	x13,x22,387	 x22:0xdbfb1c7c x13=0x00000000
       34265000	      3425	80003cd4	058ed063	bge	x29,x24,80003d14	 x29:0xffffffff x24:0x7d82751c
       34275000	      3426	80003cd8	0580f663	bgeu	x1,x24,80003d24	  x1:0x00000000 x24:0x7d82751c
       34285000	      3427	80003cdc	01b63333	sltu	x6,x12,x27	 x12:0x00000001 x27:0xffffffff  x6=0x00000001
       34295000	      3428	80003ce0	006953b3	srl	x7,x18,x6	 x18:0x00000000  x6:0x00000001  x7=0x00000000
       34305000	      3429	80003ce4	01159c63	bne	x11,x17,80003cfc	 x11:0x008000a2 x17:0x00000000
       34315000	      3430	00000000	00000013	addi	x0,x0,0	  x0:0x00000000
       34325000	      3431	80003cf8	00000013	addi	x0,x0,0	  x0:0x00000000
       34335000	      3432	80003cfc	cb3db513	sltiu	x10,x27,-845	 x27:0xffffffff x10=0x00000000
       34345000	      3433	80003d00	03a4fc63	bgeu	x9,x26,80003d38	  x9:0x00000000 x26:0x00000001
       34355000	      3434	80003d04	03894663	blt	x18,x24,80003d30	 x18:0x00000000 x24:0x7d82751c
       34365000	      3435	00000000	00000013	addi	x0,x0,0	  x0:0x00000000
       34375000	      3436	80003d2c	00000013	addi	x0,x0,0	  x0:0x00000000
       34385000	      3437	80003d30	41b05413	srai	x8,x0,0x1b	  x0:0x00000000  x8=0x00000000
       34395000	      3438	80003d34	0ef0a893	slti	x17,x1,239	  x1:0x00000000 x17=0x00000001
       34405000	      3439	80003d38	4053d013	srai	x0,x7,0x5	  x7:0x00000000
       34415000	      3440	80003d3c	cb463a93	sltiu	x21,x12,-844	 x12:0x00000001 x21=0x00000001
       34425000	      3441	80003d40	7dc87d13	andi	x26,x16,2012	 x16:0x84f80000 x26=0x00000000
       34435000	      3442	80003d44	007885b3	add	x11,x17,x7	 x17:0x00000001  x7:0x00000000 x11=0x00000001
       34445000	      3443	80003d48	03f9fe63	bgeu	x19,x31,80003d84	 x19:0x92f21a7a x31:0x00000000
       34455000	      3444	00000000	00000013	addi	x0,x0,0	  x0:0x00000000
       34465000	      3445	80003d80	00000013	addi	x0,x0,0	  x0:0x00000000
       34475000	      3446	80003d84	e87f6f93	ori	x31,x30,-377	 x30:0x7fff5dcb x31=0xffffffcf
       34485000	      3447	80003d88	0041afb3	slt	x31,x3,x4	  x3:0x00000000  x4:0x92f2183c x31=0x00000000
       34495000	      3448	80003d8c	03a8da63	bge	x17,x26,80003dc0	 x17:0x00000001 x26:0x00000000
       34505000	      3449	00000000	00000013	addi	x0,x0,0	  x0:0x00000000
       34515000	      3450	80003dbc	00000013	addi	x0,x0,0	  x0:0x00000000
       34525000	      3451	80003dc0	0017b733	sltu	x14,x15,x1	 x15:0x80009ee8  x1:0x00000000 x14=0x00000000
       34535000	      3452	80003dc4	4d6a3b93	sltiu	x23,x20,1238	 x20:0x008000a2 x23=0x00000000
       34545000	      3453	80003dc8	0335f663	bgeu	x11,x19,80003df4	 x11:0x00000001 x19:0x92f21a7a
       34555000	      3454	80003dcc	004a96b3	sll	x13,x21,x4	 x21:0x00000001  x4:0x92f2183c x13=0x10000000
       34565000	      3455	80003dd0	00000013	addi	x0,x0,0	  x0:0x00000000
       34575000	      3456	80003dd4	00ab1d93	slli	x27,x22,0xa	 x22:0xdbfb1c7c x27=0xec71f000
       34585000	      3457	80003dd8	aaec3713	sltiu	x14,x24,-1362	 x24:0x7d82751c x14=0x00000001
       34595000	      3458	80003ddc	03d9ea63	bltu	x19,x29,80003e10	 x19:0x92f21a7a x29:0xffffffff
       34605000	      3459	00000000	00000013	addi	x0,x0,0	  x0:0x00000000
       34615000	      3460	80003e0c	00000013	addi	x0,x0,0	  x0:0x00000000
       34625000	      3461	80003e10	04b06063	bltu	x0,x11,80003e50	  x0:0x00000000 x11:0x00000001
       34635000	      3462	00000000	00000013	addi	x0,x0,0	  x0:0x00000000
       34645000	      3463	80003e4c	00000013	addi	x0,x0,0	  x0:0x00000000
       34655000	      3464	80003e50	05227663	bgeu	x4,x18,80003e9c	  x4:0x92f2183c x18:0x00000000
       34665000	      3465	00000000	00000013	addi	x0,x0,0	  x0:0x00000000
       34675000	      3466	80003e98	00000013	addi	x0,x0,0	  x0:0x00000000
       34685000	      3467	80003e9c	00000013	addi	x0,x0,0	  x0:0x00000000
       34695000	      3468	80003ea0	00ed1713	slli	x14,x26,0xe	 x26:0x00000000 x14=0x00000000
       34705000	      3469	80003ea4	01462933	slt	x18,x12,x20	 x12:0x00000001 x20:0x008000a2 x18=0x00000001
       34715000	      3470	80003ea8	a93ce813	ori	x16,x25,-1389	 x25:0x80009fc4 x16=0xffffffd7
       34725000	      3471	80003eac	41190233	sub	x4,x18,x17	 x18:0x00000001 x17:0x00000001  x4=0x00000000
       34735000	      3472	80003eb0	00c151b3	srl	x3,x2,x12	  x2:0x5d1dac8c x12:0x00000001  x3=0x2e8ed646
       34745000	      3473	80003eb4	d1ef75b7	lui	x11,0xd1ef7	 x11=0xd1ef7000
       34755000	      3474	80003eb8	4deca113	slti	x2,x25,1246	 x25:0x80009fc4  x2=0x00000001
       34765000	      3475	80003ebc	0165dc63	bge	x11,x22,80003ed4	 x11:0xd1ef7000 x22:0xdbfb1c7c
       34775000	      3476	80003ec0	981d5717	auipc	x14,0x981d5	 x14=0x181d8ebc
       34785000	      3477	80003ec4	02c97c63	bgeu	x18,x12,80003efc	 x18:0x00000001 x12:0x00000001
       34795000	      3478	00000000	00000013	addi	x0,x0,0	  x0:0x00000000
       34805000	      3479	80003ef8	00000013	addi	x0,x0,0	  x0:0x00000000
       34815000	      3480	80003efc	4192dd33	sra	x26,x5,x25	  x5:0xfffffbbc x25:0x80009fc4 x26=0xffffffbb
       34825000	      3481	80003f00	87557697	auipc	x13,0x87557	 x13=0x0755aefc
       34835000	      3482	80003f04	5bf9af93	slti	x31,x19,1471	 x19:0x92f21a7a x31=0x00000001
       34845000	      3483	80003f08	001e7fb3	and	x31,x28,x1	 x28:0x01080000  x1:0x00000000 x31=0x00000000
       34855000	      3484	80003f0c	01016a63	bltu	x2,x16,80003f20	  x2:0x00000001 x16:0xffffffd7
       34865000	      3485	00000000	00000013	addi	x0,x0,0	  x0:0x00000000
       34875000	      3486	80003f1c	00000013	addi	x0,x0,0	  x0:0x00000000
       34885000	      3487	80003f20	04610063	beq	x2,x6,80003f60	  x2:0x00000001  x6:0x00000001
       34895000	      3488	00000000	00000013	addi	x0,x0,0	  x0:0x00000000
       34905000	      3489	80003f5c	00000013	addi	x0,x0,0	  x0:0x00000000
       34915000	      3490	80003f60	e8b9ff93	andi	x31,x19,-373	 x19:0x92f21a7a x31=0x92f21a0a
       34925000	      3491	80003f64	0523f263	bgeu	x7,x18,80003fa8	  x7:0x00000000 x18:0x00000001
       34935000	      3492	80003f68	023ef263	bgeu	x29,x3,80003f8c	 x29:0xffffffff  x3:0x2e8ed646
       34945000	      3493	00000000	00000013	addi	x0,x0,0	  x0:0x00000000
       34955000	      3494	80003f88	00000013	addi	x0,x0,0	  x0:0x00000000
       34965000	      3495	80003f8c	050e4b93	xori	x23,x28,80	 x28:0x01080000 x23=0x01080050
       34975000	      3496	80003f90	0b97f113	andi	x2,x15,185	 x15:0x80009ee8  x2=0x000000a8
       34985000	      3497	80003f94	01490933	add	x18,x18,x20	 x18:0x00000001 x20:0x008000a2 x18=0x008000a3
       34995000	      3498	80003f98	000c4833	xor	x16,x24,x0	 x24:0x7d82751c  x0:0x00000000 x16=0x7d82751c
       35005000	      3499	80003f9c	0315ea63	bltu	x11,x17,80003fd0	 x11:0xd1ef7000 x17:0x00000001
       35015000	      3500	80003fa0	411f5413	srai	x8,x30,0x11	 x30:0x7fff5dcb  x8=0x00003fff
       35025000	      3501	80003fa4	419addb3	sra	x27,x21,x25	 x21:0x00000001 x25:0x80009fc4 x27=0x00000000
       35035000	      3502	80003fa8	0aa7ed13	ori	x26,x15,170	 x15:0x80009ee8 x26=0x80009eea
       35045000	      3503	80003fac	0096d693	srli	x13,x13,0x9	 x13:0x0755aefc x13=0x0003aad7
       35055000	      3504	80003fb0	001471b3	and	x3,x8,x1	  x8:0x00003fff  x1:0x00000000  x3=0x00000000
       35065000	      3505	80003fb4	40488533	sub	x10,x17,x4	 x17:0x00000001  x4:0x00000000 x10=0x00000001
       35075000	      3506	80003fb8	0121c033	xor	x0,x3,x18	  x3:0x00000000 x18:0x008000a3
       35085000	      3507	80003fbc	05f49663	bne	x9,x31,80004008	  x9:0x00000000 x31:0x92f21a0a
       35095000	      3508	00000000	00000013	addi	x0,x0,0	  x0:0x00000000
       35105000	      3509	80004004	00000013	addi	x0,x0,0	  x0:0x00000000
       35115000	      3510	80004008	00000013	addi	x0,x0,0	  x0:0x00000000
       35125000	      3511	8000400c	0105b333	sltu	x6,x11,x16	 x11:0xd1ef7000 x16:0x7d82751c  x6=0x00000000
       35135000	      3512	80004010	0532d263	bge	x5,x19,80004054	  x5:0xfffffbbc x19:0x92f21a7a
       35145000	      3513	00000000	00000013	addi	x0,x0,0	  x0:0x00000000
       35155000	      3514	80004050	00000013	addi	x0,x0,0	  x0:0x00000000
       35165000	      3515	80004054	b9a2bd93	sltiu	x27,x5,-1126	  x5:0xfffffbbc x27=0x00000000
       35175000	      3516	80004058	01613a33	sltu	x20,x2,x22	  x2:0x000000a8 x22:0xdbfb1c7c x20=0x00000001
       35185000	      3517	8000405c	014f9133	sll	x2,x31,x20	 x31:0x92f21a0a x20:0x00000001  x2=0x25e43414
       35195000	      3518	80004060	018c1c63	bne	x24,x24,80004078	 x24:0x7d82751c x24:0x7d82751c
       35205000	      3519	80004064	01b21193	slli	x3,x4,0x1b	  x4:0x00000000  x3=0x00000000
       35215000	      3520	80004068	dccb9b37	lui	x22,0xdccb9	 x22=0xdccb9000
       35225000	      3521	8000406c	80594313	xori	x6,x18,-2043	 x18:0x008000a3  x6=0xff7ff8a6
       35235000	      3522	80004070	00a38e63	beq	x7,x10,8000408c	  x7:0x00000000 x10:0x00000001
       35245000	      3523	80004074	0152a733	slt	x14,x5,x21	  x5:0xfffffbbc x21:0x00000001 x14=0x00000001
       35255000	      3524	80004078	408d5213	srai	x4,x26,0x8	 x26:0x80009eea  x4=0xff80009e
       35265000	      3525	8000407c	01e901b3	add	x3,x18,x30	 x18:0x008000a3 x30:0x7fff5dcb  x3=0x807f5e6e
       35275000	      3526	80004080	059e9863	bne	x29,x25,800040d0	 x29:0xffffffff x25:0x80009fc4
       35285000	      3527	00000000	00000013	addi	x0,x0,0	  x0:0x00000000
       35295000	      3528	800040cc	00000013	addi	x0,x0,0	  x0:0x00000000
       35305000	      3529	800040d0	01304fb3	xor	x31,x0,x19	  x0:0x00000000 x19:0x92f21a7a x31=0x92f21a7a
       35315000	      3530	800040d4	01c9ae33	slt	x28,x19,x28	 x19:0x92f21a7a x28:0x01080000 x28=0x00000001
       35325000	      3531	800040d8	4dbe2e13	slti	x28,x28,1243	 x28:0x00000001 x28=0x00000001
       35335000	      3532	800040dc	402e5f93	srai	x31,x28,0x2	 x28:0x00000001 x31=0x00000000
       35345000	      3533	800040e0	00630263	beq	x6,x6,800040e4	  x6:0xff7ff8a6  x6:0xff7ff8a6
       35355000	      3534	00000000	00000013	addi	x0,x0,0	  x0:0x00000000
       35365000	      3535	800040e0	00000013	addi	x0,x0,0	  x0:0x00000000
       35375000	      3536	800040e4	03e64863	blt	x12,x30,80004114	 x12:0x00000001 x30:0x7fff5dcb
       35385000	      3537	00000000	00000013	addi	x0,x0,0	  x0:0x00000000
       35395000	      3538	80004110	00000013	addi	x0,x0,0	  x0:0x00000000
       35405000	      3539	80004114	df642d93	slti	x27,x8,-522	  x8:0x00003fff x27=0x00000000
       35415000	      3540	80004118	81e8e913	ori	x18,x17,-2018	 x17:0x00000001 x18=0xfffff81f
       35425000	      3541	8000411c	02c25663	bge	x4,x12,80004148	  x4:0xff80009e x12:0x00000001
       35435000	      3542	80004120	00000013	addi	x0,x0,0	  x0:0x00000000
       35445000	      3543	80004124	025efc63	bgeu	x29,x5,8000415c	 x29:0xffffffff  x5:0xfffffbbc
       35455000	      3544	00000000	00000013	addi	x0,x0,0	  x0:0x00000000
       35465000	      3545	80004158	00000013	addi	x0,x0,0	  x0:0x00000000
       35475000	      3546	8000415c	001b9713	slli	x14,x23,0x1	 x23:0x01080050 x14=0x021000a0
       35485000	      3547	80004160	01d11233	sll	x4,x2,x29	  x2:0x25e43414 x29:0xffffffff  x4=0x00000000
       35495000	      3548	80004164	009943b3	xor	x7,x18,x9	 x18:0xfffff81f  x9:0x00000000  x7=0xfffff81f
       35505000	      3549	80004168	050a1063	bne	x20,x16,800041a8	 x20:0x00000001 x16:0x7d82751c
       35515000	      3550	00000000	00000013	addi	x0,x0,0	  x0:0x00000000
       35525000	      3551	800041a4	00000013	addi	x0,x0,0	  x0:0x00000000
       35535000	      3552	800041a8	13d2e213	ori	x4,x5,317	  x5:0xfffffbbc  x4=0xfffffbbd
       35545000	      3553	800041ac	016ed933	srl	x18,x29,x22	 x29:0xffffffff x22:0xdccb9000 x18=0xffffffff
       35555000	      3554	800041b0	00221393	slli	x7,x4,0x2	  x4:0xfffffbbd  x7=0xffffeef4
       35565000	      3555	800041b4	001ac6b3	xor	x13,x21,x1	 x21:0x00000001  x1:0x00000000 x13=0x00000001
       35575000	      3556	800041b8	00f50233	add	x4,x10,x15	 x10:0x00000001 x15:0x80009ee8  x4=0x80009ee9
       35585000	      3557	800041bc	9f5f4093	xori	x1,x30,-1547	 x30:0x7fff5dcb  x1=0x8000a43e
       35595000	      3558	800041c0	25c60e37	lui	x28,0x25c60	 x28=0x25c60000
       35605000	      3559	800041c4	0002c233	xor	x4,x5,x0	  x5:0xfffffbbc  x0:0x00000000  x4=0xfffffbbc
       35615000	      3560	800041c8	01474733	xor	x14,x14,x20	 x14:0x021000a0 x20:0x00000001 x14=0x021000a1
       35625000	      3561	800041cc	018a3e33	sltu	x28,x20,x24	 x20:0x00000001 x24:0x7d82751c x28=0x00000001
       35635000	      3562	800041d0	bff0ac17	auipc	x24,0xbff0a	 x24=0x3ff0e1cc
       35645000	      3563	800041d4	001f06b3	add	x13,x30,x1	 x30:0x7fff5dcb  x1:0x8000a43e x13=0x00000209
       35655000	      3564	800041d8	5a947313	andi	x6,x8,1449	  x8:0x00003fff  x6=0x000005a9
       35665000	      3565	800041dc	6beb4e93	xori	x29,x22,1726	 x22:0xdccb9000 x29=0xdccb96be
       35675000	      3566	800041e0	00a9cb33	xor	x22,x19,x10	 x19:0x92f21a7a x10:0x00000001 x22=0x92f21a7b
       35685000	      3567	800041e4	00000013	addi	x0,x0,0	  x0:0x00000000
       35695000	      3568	800041e8	04dd7263	bgeu	x26,x13,8000422c	 x26:0x80009eea x13:0x00000209
       35705000	      3569	00000000	00000013	addi	x0,x0,0	  x0:0x00000000
       35715000	      3570	80004228	00000013	addi	x0,x0,0	  x0:0x00000000
       35725000	      3571	8000422c	00d0a933	slt	x18,x1,x13	  x1:0x8000a43e x13:0x00000209 x18=0x00000001
       35735000	      3572	80004230	00000013	addi	x0,x0,0	  x0:0x00000000
       35745000	      3573	80004234	0346f063	bgeu	x13,x20,80004254	 x13:0x00000209 x20:0x00000001
       35755000	      3574	00000000	00000013	addi	x0,x0,0	  x0:0x00000000
       35765000	      3575	80004250	00000013	addi	x0,x0,0	  x0:0x00000000
       35775000	      3576	80004254	03aae263	bltu	x21,x26,80004278	 x21:0x00000001 x26:0x80009eea
       35785000	      3577	00000000	00000013	addi	x0,x0,0	  x0:0x00000000
       35795000	      3578	80004274	00000013	addi	x0,x0,0	  x0:0x00000000
       35805000	      3579	80004278	2c303d93	sltiu	x27,x0,707	  x0:0x00000000 x27=0x00000001
       35815000	      3580	8000427c	5291b893	sltiu	x17,x3,1321	  x3:0x807f5e6e x17=0x00000000
       35825000	      3581	80004280	005b1f33	sll	x30,x22,x5	 x22:0x92f21a7b  x5:0xfffffbbc x30=0xb0000000
       35835000	      3582	80004284	407ad733	sra	x14,x21,x7	 x21:0x00000001  x7:0xffffeef4 x14=0x00000000
       35845000	      3583	80004288	408b0633	sub	x12,x22,x8	 x22:0x92f21a7b  x8:0x00003fff x12=0x92f1da7c
       35855000	      3584	8000428c	0176de63	bge	x13,x23,800042a8	 x13:0x00000209 x23:0x01080050
       35865000	      3585	80004290	007b74b3	and	x9,x22,x7	 x22:0x92f21a7b  x7:0xffffeef4  x9=0x92f20a70
       35875000	      3586	80004294	7bebf497	auipc	x9,0x7bebf	  x9=0xfbec3290
       35885000	      3587	80004298	4f900613	addi	x12,x0,1273	  x0:0x00000000 x12=0x000004f9
       35895000	      3588	8000429c	011992b3	sll	x5,x19,x17	 x19:0x92f21a7a x17:0x00000000  x5=0x92f21a7a
       35905000	      3589	800042a0	00825b13	srli	x22,x4,0x8	  x4:0xfffffbbc x22=0x00fffffb
       35915000	      3590	800042a4	4940a913	slti	x18,x1,1172	  x1:0x8000a43e x18=0x00000001
       35925000	      3591	800042a8	408656b3	sra	x13,x12,x8	 x12:0x000004f9  x8:0x00003fff x13=0x00000000
       35935000	      3592	800042ac	54d4bc13	sltiu	x24,x9,1357	  x9:0xfbec3290 x24=0x00000000
       35945000	      3593	800042b0	41a20733	sub	x14,x4,x26	  x4:0xfffffbbc x26:0x80009eea x14=0x7fff5cd2
       35955000	      3594	800042b4	6b75e597	auipc	x11,0x6b75e	 x11=0xeb7622b0
       35965000	      3595	800042b8	01c79db3	sll	x27,x15,x28	 x15:0x80009ee8 x28:0x00000001 x27=0x00013dd0
       35975000	      3596	800042bc	00289293	slli	x5,x17,0x2	 x17:0x00000000  x5=0x00000000
       35985000	      3597	800042c0	40e65a33	sra	x20,x12,x14	 x12:0x000004f9 x14:0x7fff5cd2 x20=0x00000000
       35995000	      3598	800042c4	17430113	addi	x2,x6,372	  x6:0x000005a9  x2=0x0000071d
       36005000	      3599	800042c8	00f91593	slli	x11,x18,0xf	 x18:0x00000001 x11=0x00008000
       36015000	      3600	800042cc	02865663	bge	x12,x8,800042f8	 x12:0x000004f9  x8:0x00003fff
       36025000	      3601	800042d0	059b0863	beq	x22,x25,80004320	 x22:0x00fffffb x25:0x80009fc4
       36035000	      3602	800042d4	d0b17393	andi	x7,x2,-757	  x2:0x0000071d  x7=0x00000509
       36045000	      3603	800042d8	41f85633	sra	x12,x16,x31	 x16:0x7d82751c x31:0x00000000 x12=0x7d82751c
       36055000	      3604	800042dc	0034b2b3	sltu	x5,x9,x3	  x9:0xfbec3290  x3:0x807f5e6e  x5=0x00000000
       36065000	      3605	800042e0	6e190193	addi	x3,x18,1761	 x18:0x00000001  x3=0x000006e2
       36075000	      3606	800042e4	00e21663	bne	x4,x14,800042f0	  x4:0xfffffbbc x14:0x7fff5cd2
       36085000	      3607	00000000	00000013	addi	x0,x0,0	  x0:0x00000000
       36095000	      3608	800042ec	00000013	addi	x0,x0,0	  x0:0x00000000
       36105000	      3609	800042f0	41745e13	srai	x28,x8,0x17	  x8:0x00003fff x28=0x00000000
       36115000	      3610	800042f4	25bd2813	slti	x16,x26,603	 x26:0x80009eea x16=0x00000001
       36125000	      3611	800042f8	02664493	xori	x9,x12,38	 x12:0x7d82751c  x9=0x7d82753a
       36135000	      3612	800042fc	9eff4393	xori	x7,x30,-1553	 x30:0xb0000000  x7=0x4ffff9ef
       36145000	      3613	80004300	01776533	or	x10,x14,x23	 x14:0x7fff5cd2 x23:0x01080050 x10=0x7fff5cd2
       36155000	      3614	80004304	005734b3	sltu	x9,x14,x5	 x14:0x7fff5cd2  x5:0x00000000  x9=0x00000000
       36165000	      3615	80004308	03de9663	bne	x29,x29,80004334	 x29:0xdccb96be x29:0xdccb96be
       36175000	      3616	8000430c	03b9ca63	blt	x19,x27,80004340	 x19:0x92f21a7a x27:0x00013dd0
       36185000	      3617	00000000	00000013	addi	x0,x0,0	  x0:0x00000000
       36195000	      3618	8000433c	00000013	addi	x0,x0,0	  x0:0x00000000
       36205000	      3619	80004340	0096c933	xor	x18,x13,x9	 x13:0x00000000  x9:0x00000000 x18=0x00000000
       36215000	      3620	80004344	519f8613	addi	x12,x31,1305	 x31:0x00000000 x12=0x00000519
       36225000	      3621	80004348	b823f893	andi	x17,x7,-1150	  x7:0x4ffff9ef x17=0x4ffff982
       36235000	      3622	8000434c	d87f1697	auipc	x13,0xd87f1	 x13=0x587f5348
       36245000	      3623	80004350	01a68233	add	x4,x13,x26	 x13:0x587f5348 x26:0x80009eea  x4=0xd87ff232
       36255000	      3624	80004354	00c02533	slt	x10,x0,x12	  x0:0x00000000 x12:0x00000519 x10=0x00000001
       36265000	      3625	80004358	002a7933	and	x18,x20,x2	 x20:0x00000000  x2:0x0000071d x18=0x00000000
       36275000	      3626	8000435c	d9678213	addi	x4,x15,-618	 x15:0x80009ee8  x4=0x80009c7e
       36285000	      3627	80004360	039f4263	blt	x30,x25,80004384	 x30:0xb0000000 x25:0x80009fc4
       36295000	      3628	80004364	03871c63	bne	x14,x24,8000439c	 x14:0x7fff5cd2 x24:0x00000000
       36305000	      3629	00000000	00000013	addi	x0,x0,0	  x0:0x00000000
       36315000	      3630	80004398	00000013	addi	x0,x0,0	  x0:0x00000000
       36325000	      3631	8000439c	0178d3b3	srl	x7,x17,x23	 x17:0x4ffff982 x23:0x01080050  x7=0x00004fff
       36335000	      3632	800043a0	01e1ceb3	xor	x29,x3,x30	  x3:0x000006e2 x30:0xb0000000 x29=0xb00006e2
       36345000	      3633	800043a4	01421863	bne	x4,x20,800043b4	  x4:0x80009c7e x20:0x00000000
       36355000	      3634	00000000	00000013	addi	x0,x0,0	  x0:0x00000000
       36365000	      3635	800043b0	00000013	addi	x0,x0,0	  x0:0x00000000
       36375000	      3636	800043b4	04b14263	blt	x2,x11,800043f8	  x2:0x0000071d x11:0x00008000
       36385000	      3637	00000000	00000013	addi	x0,x0,0	  x0:0x00000000
       36395000	      3638	800043f4	00000013	addi	x0,x0,0	  x0:0x00000000
       36405000	      3639	800043f8	41b15d93	srai	x27,x2,0x1b	  x2:0x0000071d x27=0x00000000
       36415000	      3640	800043fc	00841b93	slli	x23,x8,0x8	  x8:0x00003fff x23=0x003fff00
       36425000	      3641	80004400	01e95693	srli	x13,x18,0x1e	 x18:0x00000000 x13=0x00000000
       36435000	      3642	80004404	00a91c63	bne	x18,x10,8000441c	 x18:0x00000000 x10:0x00000001
       36445000	      3643	00000000	00000013	addi	x0,x0,0	  x0:0x00000000
       36455000	      3644	80004418	00000013	addi	x0,x0,0	  x0:0x00000000
       36465000	      3645	8000441c	40e0ddb3	sra	x27,x1,x14	  x1:0x8000a43e x14:0x7fff5cd2 x27=0xffffe000
       36475000	      3646	80004420	6e111837	lui	x16,0x6e111	 x16=0x6e111000
       36485000	      3647	80004424	d73c4a13	xori	x20,x24,-653	 x24:0x00000000 x20=0xfffffd73
       36495000	      3648	80004428	d2b97137	lui	x2,0xd2b97	  x2=0xd2b97000
       36505000	      3649	8000442c	0016dbb3	srl	x23,x13,x1	 x13:0x00000000  x1:0x8000a43e x23=0x00000000
       36515000	      3650	80004430	011e9e33	sll	x28,x29,x17	 x29:0xb00006e2 x17:0x4ffff982 x28=0xc0001b88
       36525000	      3651	80004434	03006663	bltu	x0,x16,80004460	  x0:0x00000000 x16:0x6e111000
       36535000	      3652	00000000	00000013	addi	x0,x0,0	  x0:0x00000000
       36545000	      3653	8000445c	00000013	addi	x0,x0,0	  x0:0x00000000
       36555000	      3654	80004460	00cc01b3	add	x3,x24,x12	 x24:0x00000000 x12:0x00000519  x3=0x00000519
       36565000	      3655	80004464	9d657517	auipc	x10,0x9d657	 x10=0x1d65b460
       36575000	      3656	80004468	1e6f3293	sltiu	x5,x30,486	 x30:0xb0000000  x5=0x00000000
       36585000	      3657	8000446c	ccfb3d93	sltiu	x27,x22,-817	 x22:0x00fffffb x27=0x00000001
       36595000	      3658	80004470	9fa0b497	auipc	x9,0x9fa0b	  x9=0x1fa0f46c
       36605000	      3659	80004474	00770133	add	x2,x14,x7	 x14:0x7fff5cd2  x7:0x00004fff  x2=0x7fffacd1
       36615000	      3660	80004478	412c5233	sra	x4,x24,x18	 x24:0x00000000 x18:0x00000000  x4=0x00000000
       36625000	      3661	8000447c	00000013	addi	x0,x0,0	  x0:0x00000000
       36635000	      3662	80004480	31af2eb7	lui	x29,0x31af2	 x29=0x31af2000
       36645000	      3663	80004484	b2beff93	andi	x31,x29,-1237	 x29:0x31af2000 x31=0x31af2000
       36655000	      3664	80004488	412ad293	srai	x5,x21,0x12	 x21:0x00000001  x5=0x00000000
       36665000	      3665	8000448c	02a36c63	bltu	x6,x10,800044c4	  x6:0x000005a9 x10:0x1d65b460
       36675000	      3666	00000000	00000013	addi	x0,x0,0	  x0:0x00000000
       36685000	      3667	800044c0	00000013	addi	x0,x0,0	  x0:0x00000000
       36695000	      3668	800044c4	03a8c263	blt	x17,x26,800044e8	 x17:0x4ffff982 x26:0x80009eea
       36705000	      3669	800044c8	72369597	auipc	x11,0x72369	 x11=0xf236d4c4
       36715000	      3670	800044cc	40fa88b3	sub	x17,x21,x15	 x21:0x00000001 x15:0x80009ee8 x17=0x7fff6119
       36725000	      3671	800044d0	8376e2b7	lui	x5,0x8376e	  x5=0x8376e000
       36735000	      3672	800044d4	00d85ab3	srl	x21,x16,x13	 x16:0x6e111000 x13:0x00000000 x21=0x6e111000
       36745000	      3673	800044d8	01199713	slli	x14,x19,0x11	 x19:0x92f21a7a x14=0x34f40000
       36755000	      3674	800044dc	00aa6c63	bltu	x20,x10,800044f4	 x20:0xfffffd73 x10:0x1d65b460
       36765000	      3675	800044e0	01963c33	sltu	x24,x12,x25	 x12:0x00000519 x25:0x80009fc4 x24=0x00000001
       36775000	      3676	800044e4	79382213	slti	x4,x16,1939	 x16:0x6e111000  x4=0x00000000
       36785000	      3677	800044e8	03f0c063	blt	x1,x31,80004508	  x1:0x8000a43e x31:0x31af2000
       36795000	      3678	00000000	00000013	addi	x0,x0,0	  x0:0x00000000
       36805000	      3679	80004504	00000013	addi	x0,x0,0	  x0:0x00000000
       36815000	      3680	80004508	00aac1b3	xor	x3,x21,x10	 x21:0x6e111000 x10:0x1d65b460  x3=0x7374a460
       36825000	      3681	8000450c	95664b13	xori	x22,x12,-1706	 x12:0x00000519 x22=0xfffffc4f
       36835000	      3682	80004510	02c59463	bne	x11,x12,80004538	 x11:0xf236d4c4 x12:0x00000519
       36845000	      3683	00000000	00000013	addi	x0,x0,0	  x0:0x00000000
       36855000	      3684	80004534	00000013	addi	x0,x0,0	  x0:0x00000000
       36865000	      3685	80004538	038aca63	blt	x21,x24,8000456c	 x21:0x6e111000 x24:0x00000001
       36875000	      3686	8000453c	4120d693	srai	x13,x1,0x12	  x1:0x8000a43e x13=0xffffe000
       36885000	      3687	80004540	0037cbb3	xor	x23,x15,x3	 x15:0x80009ee8  x3:0x7374a460 x23=0xf3743a88
       36895000	      3688	80004544	408804b3	sub	x9,x16,x8	 x16:0x6e111000  x8:0x00003fff  x9=0x6e10d001
       36905000	      3689	80004548	dbd76093	ori	x1,x14,-579	 x14:0x34f40000  x1=0xfffffdbd
       36915000	      3690	8000454c	de96ff13	andi	x30,x13,-535	 x13:0xffffe000 x30=0xffffe000
       36925000	      3691	80004550	026f4e63	blt	x30,x6,8000458c	 x30:0xffffe000  x6:0x000005a9
       36935000	      3692	00000000	00000013	addi	x0,x0,0	  x0:0x00000000
       36945000	      3693	80004588	00000013	addi	x0,x0,0	  x0:0x00000000
       36955000	      3694	8000458c	019e9333	sll	x6,x29,x25	 x29:0x31af2000 x25:0x80009fc4  x6=0x1af20000
       36965000	      3695	80004590	4046d5b3	sra	x11,x13,x4	 x13:0xffffe000  x4:0x00000000 x11=0xffffe000
       36975000	      3696	80004594	02ec9663	bne	x25,x14,800045c0	 x25:0x80009fc4 x14:0x34f40000
       36985000	      3697	00000000	00000013	addi	x0,x0,0	  x0:0x00000000
       36995000	      3698	800045bc	00000013	addi	x0,x0,0	  x0:0x00000000
       37005000	      3699	800045c0	0080d393	srli	x7,x1,0x8	  x1:0xfffffdbd  x7=0x00fffffd
       37015000	      3700	800045c4	00baf3b3	and	x7,x21,x11	 x21:0x6e111000 x11:0xffffe000  x7=0x6e110000
       37025000	      3701	800045c8	01677933	and	x18,x14,x22	 x14:0x34f40000 x22:0xfffffc4f x18=0x34f40000
       37035000	      3702	800045cc	00e8d093	srli	x1,x17,0xe	 x17:0x7fff6119  x1=0x0001fffd
       37045000	      3703	800045d0	01f65e93	srli	x29,x12,0x1f	 x12:0x00000519 x29=0x00000000
       37055000	      3704	800045d4	015c11b3	sll	x3,x24,x21	 x24:0x00000001 x21:0x6e111000  x3=0x00000001
       37065000	      3705	800045d8	0132d4b3	srl	x9,x5,x19	  x5:0x8376e000 x19:0x92f21a7a  x9=0x00000020
       37075000	      3706	800045dc	019945b3	xor	x11,x18,x25	 x18:0x34f40000 x25:0x80009fc4 x11=0xb4f49fc4
       37085000	      3707	800045e0	012833b3	sltu	x7,x16,x18	 x16:0x6e111000 x18:0x34f40000  x7=0x00000000
       37095000	      3708	800045e4	48ec7413	andi	x8,x24,1166	 x24:0x00000001  x8=0x00000000
       37105000	      3709	800045e8	29e2ef13	ori	x30,x5,670	  x5:0x8376e000 x30=0x8376e29e
       37115000	      3710	800045ec	01b2ea63	bltu	x5,x27,80004600	  x5:0x8376e000 x27:0x00000001
       37125000	      3711	800045f0	00000013	addi	x0,x0,0	  x0:0x00000000
       37135000	      3712	800045f4	000af863	bgeu	x21,x0,80004604	 x21:0x6e111000  x0:0x00000000
       37145000	      3713	00000000	00000013	addi	x0,x0,0	  x0:0x00000000
       37155000	      3714	80004600	00000013	addi	x0,x0,0	  x0:0x00000000
       37165000	      3715	80004604	00ecfc33	and	x24,x25,x14	 x25:0x80009fc4 x14:0x34f40000 x24=0x00000000
       37175000	      3716	80004608	3a22ba93	sltiu	x21,x5,930	  x5:0x8376e000 x21=0x00000000
       37185000	      3717	8000460c	00000013	addi	x0,x0,0	  x0:0x00000000
       37195000	      3718	80004610	02f70c63	beq	x14,x15,80004648	 x14:0x34f40000 x15:0x80009ee8
       37205000	      3719	80004614	03915a63	bge	x2,x25,80004648	  x2:0x7fffacd1 x25:0x80009fc4
       37215000	      3720	00000000	00000013	addi	x0,x0,0	  x0:0x00000000
       37225000	      3721	80004644	00000013	addi	x0,x0,0	  x0:0x00000000
       37235000	      3722	80004648	03c96a63	bltu	x18,x28,8000467c	 x18:0x34f40000 x28:0xc0001b88
       37245000	      3723	00000000	00000013	addi	x0,x0,0	  x0:0x00000000
       37255000	      3724	80004678	00000013	addi	x0,x0,0	  x0:0x00000000
       37265000	      3725	8000467c	01965463	bge	x12,x25,80004684	 x12:0x00000519 x25:0x80009fc4
       37275000	      3726	00000000	00000013	addi	x0,x0,0	  x0:0x00000000
       37285000	      3727	80004680	00000013	addi	x0,x0,0	  x0:0x00000000
       37295000	      3728	80004684	045c8063	beq	x25,x5,800046c4	 x25:0x80009fc4  x5:0x8376e000
       37305000	      3729	80004688	0489d263	bge	x19,x8,800046cc	 x19:0x92f21a7a  x8:0x00000000
       37315000	      3730	8000468c	00799593	slli	x11,x19,0x7	 x19:0x92f21a7a x11=0x790d3d00
       37325000	      3731	80004690	001daf33	slt	x30,x27,x1	 x27:0x00000001  x1:0x0001fffd x30=0x00000001
       37335000	      3732	80004694	0fbec313	xori	x6,x29,251	 x29:0x00000000  x6=0x000000fb
       37345000	      3733	80004698	01d31f33	sll	x30,x6,x29	  x6:0x000000fb x29:0x00000000 x30=0x000000fb
       37355000	      3734	8000469c	00000013	addi	x0,x0,0	  x0:0x00000000
       37365000	      3735	800046a0	02e15a63	bge	x2,x14,800046d4	  x2:0x7fffacd1 x14:0x34f40000
       37375000	      3736	00000000	00000013	addi	x0,x0,0	  x0:0x00000000
       37385000	      3737	800046d0	00000013	addi	x0,x0,0	  x0:0x00000000
       37395000	      3738	800046d4	5a7cc893	xori	x17,x25,1447	 x25:0x80009fc4 x17=0x80009a63
       37405000	      3739	800046d8	00058fb3	add	x31,x11,x0	 x11:0x790d3d00  x0:0x00000000 x31=0x790d3d00
       37415000	      3740	800046dc	00d19eb3	sll	x29,x3,x13	  x3:0x00000001 x13:0xffffe000 x29=0x00000001
       37425000	      3741	800046e0	01007733	and	x14,x0,x16	  x0:0x00000000 x16:0x6e111000 x14=0x00000000
       37435000	      3742	800046e4	ffffd817	auipc	x16,0xffffd	 x16=0x800016e0
       37445000	      3743	800046e8	1c080813	addi	x16,x16,448	 x16:0x800016e0 x16=0x800018a0
       37455000	      3744	800046ec	40675eb3	sra	x29,x14,x6	 x14:0x00000000  x6:0x000000fb x29=0x00000000
       37465000	      3745	800046f0	4121d713	srai	x14,x3,0x12	  x3:0x00000001 x14=0x00000000
       37475000	      3746	800046f4	1e580813	addi	x16,x16,485	 x16:0x800018a0 x16=0x80001a85
       37485000	      3747	800046f8	00d650b3	srl	x1,x12,x13	 x12:0x00000519 x13:0xffffe000  x1=0x00000519
       37495000	      3748	800046fc	0179a733	slt	x14,x19,x23	 x19:0x92f21a7a x23:0xf3743a88 x14=0x00000001
       37505000	      3749	80004700	b654e513	ori	x10,x9,-1179	  x9:0x00000020 x10=0xfffffb65
       37515000	      3750	80004704	e1c80367	jalr	x6,x16,-484	 x16:0x80001a85  x6=0x80004704
       37525000	      3751	00000000	00000013	addi	x0,x0,0	  x0:0x00000000
       37535000	      3752	800018a0	00000013	addi	x0,x0,0	  x0:0x00000000
       37545000	      3753	800018a4	ff878793	addi	x15,x15,-8	 x15:0x80009ee8 x15=0x80009ee0
       37555000	      3754	800018a8	0067a223	sw	x6,4(x15)	 x15:0x80009ee0  x6:0x80004704 PA:0x80009ee4
       37565000	      3755	800018ac	5360f913	andi	x18,x1,1334	  x1:0x00000519 x18=0x00000510
       37575000	      3756	800018b0	0193bc33	sltu	x24,x7,x25	  x7:0x00000000 x25:0x80009fc4 x24=0x00000001
       37585000	      3757	800018b4	b21eca13	xori	x20,x29,-1247	 x29:0x00000000 x20=0xfffffb21
       37595000	      3758	800018b8	01e29133	sll	x2,x5,x30	  x5:0x8376e000 x30:0x000000fb  x2=0x00000000
       37605000	      3759	800018bc	00007e97	auipc	x29,0x7	 x29=0x800088b8
       37615000	      3760	800018c0	cd2e8e93	addi	x29,x29,-814	 x29:0x800088b8 x29=0x8000858a
       37625000	      3761	800018c4	f0be8aa3	sb	x11,-235(x29)	 x29:0x8000858a x11:0x790d3d00 PA:0x8000849f
       37635000	      3762	800018c8	0068b6b3	sltu	x13,x17,x6	 x17:0x80009a63  x6:0x80004704 x13=0x00000000
       37645000	      3763	800018cc	071e85a3	sb	x17,107(x29)	 x29:0x8000858a x17:0x80009a63 PA:0x800085f5
       37655000	      3764	800018d0	4126d513	srai	x10,x13,0x12	 x13:0x00000000 x10=0x00000000
       37665000	      3765	800018d4	f3184097	auipc	x1,0xf3184	  x1=0x731858d0
       37675000	      3766	800018d8	09ae9a03	lh	x20,154(x29)	 x29:0x8000858a x20=0x00000000 PA:0x80008624
       37685000	      3767	800018dc	fd8ec483	lbu	x9,-40(x29)	 x29:0x8000858a  x9=0x00000000 PA:0x80008562
       37695000	      3768	800018e0	00000013	addi	x0,x0,0	  x0:0x00000000
       37705000	      3769	800018e4	cfc27c13	andi	x24,x4,-772	  x4:0x00000000 x24=0x00000000
       37715000	      3770	800018e8	0d7e8403	lb	x8,215(x29)	 x29:0x8000858a  x8=0x00000000 PA:0x80008661
       37725000	      3771	800018ec	a4e28413	addi	x8,x5,-1458	  x5:0x8376e000  x8=0x8376da4e
       37735000	      3772	800018f0	412dd393	srai	x7,x27,0x12	 x27:0x00000001  x7=0x00000000
       37745000	      3773	800018f4	f1be8883	lb	x17,-229(x29)	 x29:0x8000858a x17=0x00000000 PA:0x800084a5
       37755000	      3774	800018f8	fb9e8203	lb	x4,-71(x29)	 x29:0x8000858a  x4=0x00000000 PA:0x80008543
       37765000	      3775	800018fc	03aedc03	lhu	x24,58(x29)	 x29:0x8000858a x24=0x00000000 PA:0x800085c4
       37775000	      3776	00000000	00000013	addi	x0,x0,0	  x0:0x00000000
       37785000	      3777	80001900	018da433	slt	x8,x27,x24	 x27:0x00000001 x24:0x00000000  x8=0x00000000
       37795000	      3778	80001904	00ac8033	add	x0,x25,x10	 x25:0x80009fc4 x10:0x00000000
       37805000	      3779	80001908	00ef9393	slli	x7,x31,0xe	 x31:0x790d3d00  x7=0x4f400000
       37815000	      3780	8000190c	544f4413	xori	x8,x30,1348	 x30:0x000000fb  x8=0x000005bf
       37825000	      3781	80001910	f53e8fa3	sb	x19,-161(x29)	 x29:0x8000858a x19:0x92f21a7a PA:0x800084e9
       37835000	      3782	80001914	08eeaf83	lw	x31,142(x29)	 x29:0x8000858a x31=0x00000000 PA:0x80008618
       37845000	      3783	80001918	0d3e8a03	lb	x20,211(x29)	 x29:0x8000858a x20=0x00000000 PA:0x8000865d
       37855000	      3784	8000191c	0aced283	lhu	x5,172(x29)	 x29:0x8000858a  x5=0x00000000 PA:0x80008636
       37865000	      3785	80001920	06ce8423	sb	x12,104(x29)	 x29:0x8000858a x12:0x00000519 PA:0x800085f2
       37875000	      3786	80001924	41fdd3b3	sra	x7,x27,x31	 x27:0x00000001 x31:0x00000000  x7=0x00000001
       37885000	      3787	80001928	23c2e137	lui	x2,0x23c2e	  x2=0x23c2e000
       37895000	      3788	8000192c	f2be8003	lb	x0,-213(x29)	 x29:0x8000858a PA:0x800084b5
       37905000	      3789	80001930	0f2ea683	lw	x13,242(x29)	 x29:0x8000858a x13=0x00000000 PA:0x8000867c
       37915000	      3790	80001934	f10ed003	lhu	x0,-240(x29)	 x29:0x8000858a PA:0x8000849a
       37925000	      3791	80001938	e4f29437	lui	x8,0xe4f29	  x8=0xe4f29000
       37935000	      3792	8000193c	41635313	srai	x6,x6,0x16	  x6:0x80004704  x6=0xfffffe00
       37945000	      3793	80001940	017b4b33	xor	x22,x22,x23	 x22:0xfffffc4f x23:0xf3743a88 x22=0x0c8bc6c7
       37955000	      3794	80001944	f76ec403	lbu	x8,-138(x29)	 x29:0x8000858a  x8=0x00000000 PA:0x80008500
       37965000	      3795	00000000	00000013	addi	x0,x0,0	  x0:0x00000000
       37975000	      3796	80001948	41940ab3	sub	x21,x8,x25	  x8:0x00000000 x25:0x80009fc4 x21=0x7fff603c
       37985000	      3797	8000194c	b6bdc813	xori	x16,x27,-1173	 x27:0x00000001 x16=0xfffffb6a
       37995000	      3798	80001950	01eb46b3	xor	x13,x22,x30	 x22:0x0c8bc6c7 x30:0x000000fb x13=0x0c8bc63c
       38005000	      3799	80001954	00069a33	sll	x20,x13,x0	 x13:0x0c8bc63c  x0:0x00000000 x20=0x0c8bc63c
       38015000	      3800	80001958	0133c8b3	xor	x17,x7,x19	  x7:0x00000001 x19:0x92f21a7a x17=0x92f21a7b
       38025000	      3801	8000195c	00cbcf33	xor	x30,x23,x12	 x23:0xf3743a88 x12:0x00000519 x30=0xf3743f91
       38035000	      3802	80001960	0128e5b3	or	x11,x17,x18	 x17:0x92f21a7b x18:0x00000510 x11=0x92f21f7b
       38045000	      3803	80001964	00e1b033	sltu	x0,x3,x14	  x3:0x00000001 x14:0x00000001
       38055000	      3804	80001968	f4be8d83	lb	x27,-181(x29)	 x29:0x8000858a x27=0x00000000 PA:0x800084d5
       38065000	      3805	00000000	00000013	addi	x0,x0,0	  x0:0x00000000
       38075000	      3806	8000196c	01b2dd93	srli	x27,x5,0x1b	  x5:0x00000000 x27=0x00000000
       38085000	      3807	80001970	f3feab23	sw	x31,-202(x29)	 x29:0x8000858a x31:0x00000000 PA:0x800084c0
       38095000	      3808	80001974	0ace8f03	lb	x30,172(x29)	 x29:0x8000858a x30=0x00000000 PA:0x80008636
       38105000	      3809	80001978	01da24b3	slt	x9,x20,x29	 x20:0x0c8bc63c x29:0x8000858a  x9=0x00000000
       38115000	      3810	8000197c	fa3e9e23	sh	x3,-68(x29)	 x29:0x8000858a  x3:0x00000001 PA:0x80008546
       38125000	      3811	80001980	e7372613	slti	x12,x14,-397	 x14:0x00000001 x12=0x00000000
       38135000	      3812	80001984	065e8483	lb	x9,101(x29)	 x29:0x8000858a  x9=0x00000000 PA:0x800085ef
       38145000	      3813	80001988	fbde8f83	lb	x31,-67(x29)	 x29:0x8000858a x31=0x00000000 PA:0x80008547
       38155000	      3814	8000198c	5a79e893	ori	x17,x19,1447	 x19:0x92f21a7a x17=0x92f21fff
       38165000	      3815	80001990	03d9d463	bge	x19,x29,800019b8	 x19:0x92f21a7a x29:0x8000858a
       38175000	      3816	00000000	00000013	addi	x0,x0,0	  x0:0x00000000
       38185000	      3817	800019b4	00000013	addi	x0,x0,0	  x0:0x00000000
       38195000	      3818	800019b8	0145d8b3	srl	x17,x11,x20	 x11:0x92f21f7b x20:0x0c8bc63c x17=0x00000009
       38205000	      3819	800019bc	40b65c33	sra	x24,x12,x11	 x12:0x00000000 x11:0x92f21f7b x24=0x00000000
       38215000	      3820	800019c0	ca90f113	andi	x2,x1,-855	  x1:0x731858d0  x2=0x73185880
       38225000	      3821	800019c4	40d65e13	srai	x28,x12,0xd	 x12:0x00000000 x28=0x00000000
       38235000	      3822	800019c8	0388c863	blt	x17,x24,800019f8	 x17:0x00000009 x24:0x00000000
       38245000	      3823	800019cc	01c05d93	srli	x27,x0,0x1c	  x0:0x00000000 x27=0x00000000
       38255000	      3824	800019d0	03869263	bne	x13,x24,800019f4	 x13:0x0c8bc63c x24:0x00000000
       38265000	      3825	00000000	00000013	addi	x0,x0,0	  x0:0x00000000
       38275000	      3826	800019f0	00000013	addi	x0,x0,0	  x0:0x00000000
       38285000	      3827	800019f4	01859e13	slli	x28,x11,0x18	 x11:0x92f21f7b x28=0x7b000000
       38295000	      3828	800019f8	001f04b3	add	x9,x30,x1	 x30:0x00000000  x1:0x731858d0  x9=0x731858d0
       38305000	      3829	800019fc	00000013	addi	x0,x0,0	  x0:0x00000000
       38315000	      3830	80001a00	05425463	bge	x4,x20,80001a48	  x4:0x00000000 x20:0x0c8bc63c
       38325000	      3831	80001a04	b5392d93	slti	x27,x18,-1197	 x18:0x00000510 x27=0x00000000
       38335000	      3832	80001a08	40c8d433	sra	x8,x17,x12	 x17:0x00000009 x12:0x00000000  x8=0x00000009
       38345000	      3833	80001a0c	40bfd313	srai	x6,x31,0xb	 x31:0x00000000  x6=0x00000000
       38355000	      3834	80001a10	41aa8bb3	sub	x23,x21,x26	 x21:0x7fff603c x26:0x80009eea x23=0xfffec152
       38365000	      3835	80001a14	01a4c263	blt	x9,x26,80001a18	  x9:0x731858d0 x26:0x80009eea
       38375000	      3836	80001a18	00223433	sltu	x8,x4,x2	  x4:0x00000000  x2:0x73185880  x8=0x00000001
       38385000	      3837	80001a1c	0d123d13	sltiu	x26,x4,209	  x4:0x00000000 x26=0x00000001
       38395000	      3838	80001a20	19ad3d13	sltiu	x26,x26,410	 x26:0x00000001 x26=0x00000001
       38405000	      3839	80001a24	fc5080b7	lui	x1,0xfc508	  x1=0xfc508000
       38415000	      3840	80001a28	415b5213	srai	x4,x22,0x15	 x22:0x0c8bc6c7  x4=0x00000064
       38425000	      3841	80001a2c	8a88a397	auipc	x7,0x8a88a	  x7=0x0a88ba28
       38435000	      3842	80001a30	02349263	bne	x9,x3,80001a54	  x9:0x731858d0  x3:0x00000001
       38445000	      3843	00000000	00000013	addi	x0,x0,0	  x0:0x00000000
       38455000	      3844	80001a50	00000013	addi	x0,x0,0	  x0:0x00000000
       38465000	      3845	80001a54	74694113	xori	x2,x18,1862	 x18:0x00000510  x2=0x00000256
       38475000	      3846	80001a58	01be9813	slli	x16,x29,0x1b	 x29:0x8000858a x16=0x50000000
       38485000	      3847	80001a5c	02825463	bge	x4,x8,80001a84	  x4:0x00000064  x8:0x00000001
       38495000	      3848	00000000	00000013	addi	x0,x0,0	  x0:0x00000000
       38505000	      3849	80001a80	00000013	addi	x0,x0,0	  x0:0x00000000
       38515000	      3850	80001a84	00e4d533	srl	x10,x9,x14	  x9:0x731858d0 x14:0x00000001 x10=0x398c2c68
       38525000	      3851	80001a88	0011b633	sltu	x12,x3,x1	  x3:0x00000001  x1:0xfc508000 x12=0x00000001
       38535000	      3852	80001a8c	017e8a93	addi	x21,x29,23	 x29:0x8000858a x21=0x800085a1
       38545000	      3853	80001a90	40d65933	sra	x18,x12,x13	 x12:0x00000001 x13:0x0c8bc63c x18=0x00000000
       38555000	      3854	80001a94	010d5333	srl	x6,x26,x16	 x26:0x00000001 x16:0x50000000  x6=0x00000001
       38565000	      3855	80001a98	00ebca63	blt	x23,x14,80001aac	 x23:0xfffec152 x14:0x00000001
       38575000	      3856	00000000	00000013	addi	x0,x0,0	  x0:0x00000000
       38585000	      3857	80001aa8	00000013	addi	x0,x0,0	  x0:0x00000000
       38595000	      3858	80001aac	01d98263	beq	x19,x29,80001ab0	 x19:0x92f21a7a x29:0x8000858a
       38605000	      3859	80001ab0	40e10633	sub	x12,x2,x14	  x2:0x00000256 x14:0x00000001 x12=0x00000255
       38615000	      3860	80001ab4	00cbc833	xor	x16,x23,x12	 x23:0xfffec152 x12:0x00000255 x16=0xfffec307
       38625000	      3861	80001ab8	fc0c9e37	lui	x28,0xfc0c9	 x28=0xfc0c9000
       38635000	      3862	80001abc	01cf3db3	sltu	x27,x30,x28	 x30:0x00000000 x28:0xfc0c9000 x27=0x00000001
       38645000	      3863	80001ac0	409e8eb3	sub	x29,x29,x9	 x29:0x8000858a  x9:0x731858d0 x29=0x0ce82cba
       38655000	      3864	80001ac4	00d0a1b3	slt	x3,x1,x13	  x1:0xfc508000 x13:0x0c8bc63c  x3=0x00000001
       38665000	      3865	80001ac8	40afd133	sra	x2,x31,x10	 x31:0x00000000 x10:0x398c2c68  x2=0x00000000
       38675000	      3866	80001acc	00d22233	slt	x4,x4,x13	  x4:0x00000064 x13:0x0c8bc63c  x4=0x00000001
       38685000	      3867	80001ad0	38de6093	ori	x1,x28,909	 x28:0xfc0c9000  x1=0xfc0c938d
       38695000	      3868	80001ad4	04d89463	bne	x17,x13,80001b1c	 x17:0x00000009 x13:0x0c8bc63c
       38705000	      3869	00000000	00000013	addi	x0,x0,0	  x0:0x00000000
       38715000	      3870	80001b18	00000013	addi	x0,x0,0	  x0:0x00000000
       38725000	      3871	80001b1c	0291d463	bge	x3,x9,80001b44	  x3:0x00000001  x9:0x731858d0
       38735000	      3872	80001b20	004b0e63	beq	x22,x4,80001b3c	 x22:0x0c8bc6c7  x4:0x00000001
       38745000	      3873	80001b24	39e57493	andi	x9,x10,926	 x10:0x398c2c68  x9=0x00000008
       38755000	      3874	80001b28	85a8ab13	slti	x22,x17,-1958	 x17:0x00000009 x22=0x00000000
       38765000	      3875	80001b2c	00000013	addi	x0,x0,0	  x0:0x00000000
       38775000	      3876	80001b30	40f75db3	sra	x27,x14,x15	 x14:0x00000001 x15:0x80009ee0 x27=0x00000001
       38785000	      3877	80001b34	01e4a3b3	slt	x7,x9,x30	  x9:0x00000008 x30:0x00000000  x7=0x00000000
       38795000	      3878	80001b38	2cadd317	auipc	x6,0x2cadd	  x6=0xacadeb34
       38805000	      3879	80001b3c	405e5f33	sra	x30,x28,x5	 x28:0xfc0c9000  x5:0x00000000 x30=0xfc0c9000
       38815000	      3880	80001b40	ed1cb413	sltiu	x8,x25,-303	 x25:0x80009fc4  x8=0x00000001
       38825000	      3881	80001b44	00959f33	sll	x30,x11,x9	 x11:0x92f21f7b  x9:0x00000008 x30=0xf21f7b00
       38835000	      3882	80001b48	05e1e263	bltu	x3,x30,80001b8c	  x3:0x00000001 x30:0xf21f7b00
       38845000	      3883	00000000	00000013	addi	x0,x0,0	  x0:0x00000000
       38855000	      3884	80001b88	00000013	addi	x0,x0,0	  x0:0x00000000
       38865000	      3885	80001b8c	649d6913	ori	x18,x26,1609	 x26:0x00000001 x18=0x00000649
       38875000	      3886	80001b90	0080b233	sltu	x4,x1,x8	  x1:0xfc0c938d  x8:0x00000001  x4=0x00000000
       38885000	      3887	80001b94	408d55b3	sra	x11,x26,x8	 x26:0x00000001  x8:0x00000001 x11=0x00000000
       38895000	      3888	80001b98	f1f56a93	ori	x21,x10,-225	 x10:0x398c2c68 x21=0xffffff7f
       38905000	      3889	80001b9c	a7dbcb93	xori	x23,x23,-1411	 x23:0xfffec152 x23=0x00013b2f
       38915000	      3890	80001ba0	6d6feb93	ori	x23,x31,1750	 x31:0x00000000 x23=0x000006d6
       38925000	      3891	80001ba4	0116dc63	bge	x13,x17,80001bbc	 x13:0x0c8bc63c x17:0x00000009
       38935000	      3892	00000000	00000013	addi	x0,x0,0	  x0:0x00000000
       38945000	      3893	80001bb8	00000013	addi	x0,x0,0	  x0:0x00000000
       38955000	      3894	80001bbc	01229863	bne	x5,x18,80001bcc	  x5:0x00000000 x18:0x00000649
       38965000	      3895	00000000	00000013	addi	x0,x0,0	  x0:0x00000000
       38975000	      3896	80001bc8	00000013	addi	x0,x0,0	  x0:0x00000000
       38985000	      3897	80001bcc	0157f633	and	x12,x15,x21	 x15:0x80009ee0 x21:0xffffff7f x12=0x80009e60
       38995000	      3898	80001bd0	0064f1b3	and	x3,x9,x6	  x9:0x00000008  x6:0xacadeb34  x3=0x00000000
       39005000	      3899	80001bd4	016886b3	add	x13,x17,x22	 x17:0x00000009 x22:0x00000000 x13=0x00000009
       39015000	      3900	80001bd8	b9678b13	addi	x22,x15,-1130	 x15:0x80009ee0 x22=0x80009a76
       39025000	      3901	80001bdc	40c3d0b3	sra	x1,x7,x12	  x7:0x00000000 x12:0x80009e60  x1=0x00000000
       39035000	      3902	80001be0	0047a303	lw	x6,4(x15)	 x15:0x80009ee0  x6=0x80004704 PA:0x80009ee4
       39045000	      3903	80001be4	307ab013	sltiu	x0,x21,775	 x21:0xffffff7f
       39055000	      3904	80001be8	c5b18c17	auipc	x24,0xc5b18	 x24=0x45b19be4
       39065000	      3905	80001bec	40448c33	sub	x24,x9,x4	  x9:0x00000008  x4:0x00000000 x24=0x00000008
       39075000	      3906	80001bf0	00878793	addi	x15,x15,8	 x15:0x80009ee0 x15=0x80009ee8
       39085000	      3907	80001bf4	016d34b3	sltu	x9,x26,x22	 x26:0x00000001 x22:0x80009a76  x9=0x00000001
       39095000	      3908	80001bf8	00130d13	addi	x26,x6,1	  x6:0x80004704 x26=0x80004705
       39105000	      3909	80001bfc	000d0d67	jalr	x26,x26,0	 x26:0x80004705 x26=0x80001bfc
       39115000	      3910	00000000	00000013	addi	x0,x0,0	  x0:0x00000000
       39125000	      3911	80004704	00000013	addi	x0,x0,0	  x0:0x00000000
       39135000	      3912	80004708	010f8c33	add	x24,x31,x16	 x31:0x00000000 x16:0xfffec307 x24=0xfffec307
       39145000	      3913	8000470c	01734033	xor	x0,x6,x23	  x6:0x80004704 x23:0x000006d6
       39155000	      3914	80004710	00c91863	bne	x18,x12,80004720	 x18:0x00000649 x12:0x80009e60
       39165000	      3915	00000000	00000013	addi	x0,x0,0	  x0:0x00000000
       39175000	      3916	8000471c	00000013	addi	x0,x0,0	  x0:0x00000000
       39185000	      3917	80004720	8421e813	ori	x16,x3,-1982	  x3:0x00000000 x16=0xfffff842
       39195000	      3918	80004724	91500213	addi	x4,x0,-1771	  x0:0x00000000  x4=0xfffff915
       39205000	      3919	80004728	0077bc33	sltu	x24,x15,x7	 x15:0x80009ee8  x7:0x00000000 x24=0x00000000
       39215000	      3920	8000472c	00004897	auipc	x17,0x4	 x17=0x80008728
       39225000	      3921	80004730	f9b88893	addi	x17,x17,-101	 x17:0x80008728 x17=0x800086c3
       39235000	      3922	80004734	01f21433	sll	x8,x4,x31	  x4:0xfffff915 x31:0x00000000  x8=0xfffff915
       39245000	      3923	80004738	01b8de03	lhu	x28,27(x17)	 x17:0x800086c3 x28=0x00000000 PA:0x800086de
       39255000	      3924	8000473c	03bab113	sltiu	x2,x21,59	 x21:0xffffff7f  x2=0x00000000
       39265000	      3925	80004740	01118433	add	x8,x3,x17	  x3:0x00000000 x17:0x800086c3  x8=0x800086c3
       39275000	      3926	80004744	f8888d23	sb	x8,-102(x17)	 x17:0x800086c3  x8:0x800086c3 PA:0x8000865d
       39285000	      3927	80004748	00b4d693	srli	x13,x9,0xb	  x9:0x00000001 x13=0x00000000
       39295000	      3928	8000474c	be74e493	ori	x9,x9,-1049	  x9:0x00000001  x9=0xfffffbe7
       39305000	      3929	80004750	fc088023	sb	x0,-64(x17)	 x17:0x800086c3  x0:0x00000000 PA:0x80008683
       39315000	      3930	80004754	04a8aca3	sw	x10,89(x17)	 x17:0x800086c3 x10:0x398c2c68 PA:0x8000871c
       39325000	      3931	80004758	49abbc17	auipc	x24,0x49abb	 x24=0xc9abf754
       39335000	      3932	8000475c	00033533	sltu	x10,x6,x0	  x6:0x80004704  x0:0x00000000 x10=0x00000000
       39345000	      3933	80004760	00f34733	xor	x14,x6,x15	  x6:0x80004704 x15:0x80009ee8 x14=0x0000d9ec
       39355000	      3934	80004764	00000013	addi	x0,x0,0	  x0:0x00000000
       39365000	      3935	80004768	01309533	sll	x10,x1,x19	  x1:0x00000000 x19:0x92f21a7a x10=0x00000000
       39375000	      3936	8000476c	0027da93	srli	x21,x15,0x2	 x15:0x80009ee8 x21=0x200027ba
       39385000	      3937	80004770	fe38c703	lbu	x14,-29(x17)	 x17:0x800086c3 x14=0x00000000 PA:0x800086a6
       39395000	      3938	80004774	405000b3	sub	x1,x0,x5	  x0:0x00000000  x5:0x00000000  x1=0x00000000
       39405000	      3939	80004778	f8b8c803	lbu	x16,-117(x17)	 x17:0x800086c3 x16=0x00000000 PA:0x8000864e
       39415000	      3940	8000477c	3b498493	addi	x9,x19,948	 x19:0x92f21a7a  x9=0x92f21e2e
       39425000	      3941	80004780	02988f23	sb	x9,62(x17)	 x17:0x800086c3  x9:0x92f21e2e PA:0x80008701
       39435000	      3942	80004784	00000013	addi	x0,x0,0	  x0:0x00000000
       39445000	      3943	80004788	40095a93	srai	x21,x18,0x0	 x18:0x00000649 x21=0x00000649
       39455000	      3944	8000478c	00ac2033	slt	x0,x24,x10	 x24:0xc9abf754 x10:0x00000000
       39465000	      3945	80004790	6f766b37	lui	x22,0x6f766	 x22=0x6f766000
       39475000	      3946	80004794	f178d103	lhu	x2,-233(x17)	 x17:0x800086c3  x2=0x00000000 PA:0x800085da
       39485000	      3947	80004798	016963b3	or	x7,x18,x22	 x18:0x00000649 x22:0x6f766000  x7=0x6f766649
       39495000	      3948	8000479c	078887a3	sb	x24,111(x17)	 x17:0x800086c3 x24:0xc9abf754 PA:0x80008732
       39505000	      3949	800047a0	e6236613	ori	x12,x6,-414	  x6:0x80004704 x12=0xffffff66
       39515000	      3950	800047a4	02d889a3	sb	x13,51(x17)	 x17:0x800086c3 x13:0x00000000 PA:0x800086f6
       39525000	      3951	800047a8	013eb0b3	sltu	x1,x29,x19	 x29:0x0ce82cba x19:0x92f21a7a  x1=0x00000001
       39535000	      3952	800047ac	f5a89fa3	sh	x26,-161(x17)	 x17:0x800086c3 x26:0x80001bfc PA:0x80008622
       39545000	      3953	800047b0	fb688da3	sb	x22,-69(x17)	 x17:0x800086c3 x22:0x6f766000 PA:0x8000867e
       39555000	      3954	800047b4	0798d083	lhu	x1,121(x17)	 x17:0x800086c3  x1=0x00000000 PA:0x8000873c
       39565000	      3955	800047b8	fcf89e03	lh	x28,-49(x17)	 x17:0x800086c3 x28=0xffff92f2 PA:0x80008692
       39575000	      3956	800047bc	c3a67813	andi	x16,x12,-966	 x12:0xffffff66 x16=0xfffffc22
       39585000	      3957	800047c0	815a7a97	auipc	x21,0x815a7	 x21=0x015ab7bc
       39595000	      3958	800047c4	01349493	slli	x9,x9,0x13	  x9:0x92f21e2e  x9=0xf1700000
       39605000	      3959	800047c8	410e5413	srai	x8,x28,0x10	 x28:0xffff92f2  x8=0xffffffff
       39615000	      3960	800047cc	0f9882a3	sb	x25,229(x17)	 x17:0x800086c3 x25:0x80009fc4 PA:0x800087a8
       39625000	      3961	800047d0	03d8a703	lw	x14,61(x17)	 x17:0x800086c3 x14=0x00002e00 PA:0x80008700
       39635000	      3962	800047d4	b9445a37	lui	x20,0xb9445	 x20=0xb9445000
       39645000	      3963	800047d8	28404d93	xori	x27,x0,644	  x0:0x00000000 x27=0x00000284
       39655000	      3964	800047dc	04a88903	lb	x18,74(x17)	 x17:0x800086c3 x18=0x00000000 PA:0x8000870d
       39665000	      3965	800047e0	09f8cd03	lbu	x26,159(x17)	 x17:0x800086c3 x26=0x00000000 PA:0x80008762
       39675000	      3966	800047e4	404651b3	sra	x3,x12,x4	 x12:0xffffff66  x4:0xfffff915  x3=0xffffffff
       39685000	      3967	800047e8	00179313	slli	x6,x15,0x1	 x15:0x80009ee8  x6=0x00013dd0
       39695000	      3968	800047ec	37318313	addi	x6,x3,883	  x3:0xffffffff  x6=0x00000372
       39705000	      3969	800047f0	01661b13	slli	x22,x12,0x16	 x12:0xffffff66 x22=0xd9800000
       39715000	      3970	800047f4	f7d88a23	sb	x29,-140(x17)	 x17:0x800086c3 x29:0x0ce82cba PA:0x80008637
       39725000	      3971	800047f8	51b78b13	addi	x22,x15,1307	 x15:0x80009ee8 x22=0x8000a403
       39735000	      3972	800047fc	40d65913	srai	x18,x12,0xd	 x12:0xffffff66 x18=0xffffffff
       39745000	      3973	80004800	006bec33	or	x24,x23,x6	 x23:0x000006d6  x6:0x00000372 x24=0x000007f6
       39755000	      3974	80004804	28ba2e17	auipc	x28,0x28ba2	 x28=0xa8ba6800
       39765000	      3975	80004808	01aaf733	and	x14,x21,x26	 x21:0x015ab7bc x26:0x00000000 x14=0x00000000
       39775000	      3976	8000480c	41c25693	srai	x13,x4,0x1c	  x4:0xfffff915 x13=0xffffffff
       39785000	      3977	80004810	00574533	xor	x10,x14,x5	 x14:0x00000000  x5:0x00000000 x10=0x00000000
       39795000	      3978	80004814	016e8263	beq	x29,x22,80004818	 x29:0x0ce82cba x22:0x8000a403
       39805000	      3979	80004818	04965063	bge	x12,x9,80004858	 x12:0xffffff66  x9:0xf1700000
       39815000	      3980	00000000	00000013	addi	x0,x0,0	  x0:0x00000000
       39825000	      3981	80004854	00000013	addi	x0,x0,0	  x0:0x00000000
       39835000	      3982	80004858	03301c63	bne	x0,x19,80004890	  x0:0x00000000 x19:0x92f21a7a
       39845000	      3983	00000000	00000013	addi	x0,x0,0	  x0:0x00000000
       39855000	      3984	8000488c	00000013	addi	x0,x0,0	  x0:0x00000000
       39865000	      3985	80004890	04557863	bgeu	x10,x5,800048e0	 x10:0x00000000  x5:0x00000000
       39875000	      3986	00000000	00000013	addi	x0,x0,0	  x0:0x00000000
       39885000	      3987	800048dc	00000013	addi	x0,x0,0	  x0:0x00000000
       39895000	      3988	800048e0	01f5ec63	bltu	x11,x31,800048f8	 x11:0x00000000 x31:0x00000000
       39905000	      3989	800048e4	017a9313	slli	x6,x21,0x17	 x21:0x015ab7bc  x6=0xde000000
       39915000	      3990	800048e8	409a04b3	sub	x9,x20,x9	 x20:0xb9445000  x9:0xf1700000  x9=0xc7d45000
       39925000	      3991	800048ec	00995413	srli	x8,x18,0x9	 x18:0xffffffff  x8=0x007fffff
       39935000	      3992	800048f0	216c2393	slti	x7,x24,534	 x24:0x000007f6  x7=0x00000000
       39945000	      3993	800048f4	03bac263	blt	x21,x27,80004918	 x21:0x015ab7bc x27:0x00000284
       39955000	      3994	800048f8	013c2c33	slt	x24,x24,x19	 x24:0x000007f6 x19:0x92f21a7a x24=0x00000000
       39965000	      3995	800048fc	0037c6b3	xor	x13,x15,x3	 x15:0x80009ee8  x3:0xffffffff x13=0x7fff6117
       39975000	      3996	80004900	f225ba13	sltiu	x20,x11,-222	 x11:0x00000000 x20=0x00000001
       39985000	      3997	80004904	41b00e33	sub	x28,x0,x27	  x0:0x00000000 x27:0x00000284 x28=0xfffffd7c
       39995000	      3998	80004908	018603b3	add	x7,x12,x24	 x12:0xffffff66 x24:0x00000000  x7=0xffffff66
       40005000	      3999	8000490c	006be863	bltu	x23,x6,8000491c	 x23:0x000006d6  x6:0xde000000
       40015000	      4000	00000000	00000013	addi	x0,x0,0	  x0:0x00000000
       40025000	      4001	80004918	00000013	addi	x0,x0,0	  x0:0x00000000
       40035000	      4002	8000491c	00000013	addi	x0,x0,0	  x0:0x00000000
       40045000	      4003	80004920	04666263	bltu	x12,x6,80004964	 x12:0xffffff66  x6:0xde000000
       40055000	      4004	80004924	02106a63	bltu	x0,x1,80004958	  x0:0x00000000  x1:0x00000000
       40065000	      4005	80004928	01540b33	add	x22,x8,x21	  x8:0x007fffff x21:0x015ab7bc x22=0x01dab7bb
       40075000	      4006	8000492c	01015f13	srli	x30,x2,0x10	  x2:0x00000000 x30=0x00000000
       40085000	      4007	80004930	00a7f533	and	x10,x15,x10	 x15:0x80009ee8 x10:0x00000000 x10=0x00000000
       40095000	      4008	80004934	40460133	sub	x2,x12,x4	 x12:0xffffff66  x4:0xfffff915  x2=0x00000651
       40105000	      4009	80004938	008b2e33	slt	x28,x22,x8	 x22:0x01dab7bb  x8:0x007fffff x28=0x00000000
       40115000	      4010	8000493c	01156c63	bltu	x10,x17,80004954	 x10:0x00000000 x17:0x800086c3
       40125000	      4011	00000000	00000013	addi	x0,x0,0	  x0:0x00000000
       40135000	      4012	80004950	00000013	addi	x0,x0,0	  x0:0x00000000
       40145000	      4013	80004954	01570633	add	x12,x14,x21	 x14:0x00000000 x21:0x015ab7bc x12=0x015ab7bc
       40155000	      4014	80004958	00c40333	add	x6,x8,x12	  x8:0x007fffff x12:0x015ab7bc  x6=0x01dab7bb
       40165000	      4015	8000495c	010aa933	slt	x18,x21,x16	 x21:0x015ab7bc x16:0xfffffc22 x18=0x00000000
       40175000	      4016	80004960	e05c2513	slti	x10,x24,-507	 x24:0x00000000 x10=0x00000000
       40185000	      4017	80004964	87d0fe93	andi	x29,x1,-1923	  x1:0x00000000 x29=0x00000000
       40195000	      4018	80004968	05aec063	blt	x29,x26,800049a8	 x29:0x00000000 x26:0x00000000
       40205000	      4019	8000496c	00935193	srli	x3,x6,0x9	  x6:0x01dab7bb  x3=0x0000ed5b
       40215000	      4020	80004970	0072c233	xor	x4,x5,x7	  x5:0x00000000  x7:0xffffff66  x4=0xffffff66
       40225000	      4021	80004974	e3678113	addi	x2,x15,-458	 x15:0x80009ee8  x2=0x80009d1e
       40235000	      4022	80004978	a0216897	auipc	x17,0xa0216	 x17=0x2021a974
       40245000	      4023	8000497c	0107c4b3	xor	x9,x15,x16	 x15:0x80009ee8 x16:0xfffffc22  x9=0x7fff62ca
       40255000	      4024	80004980	017bdbb3	srl	x23,x23,x23	 x23:0x000006d6 x23:0x000006d6 x23=0x00000000
       40265000	      4025	80004984	00f25db3	srl	x27,x4,x15	  x4:0xffffff66 x15:0x80009ee8 x27=0x00ffffff
       40275000	      4026	80004988	0418f863	bgeu	x17,x1,800049d8	 x17:0x2021a974  x1:0x00000000
       40285000	      4027	00000000	00000013	addi	x0,x0,0	  x0:0x00000000
       40295000	      4028	800049d4	00000013	addi	x0,x0,0	  x0:0x00000000
       40305000	      4029	800049d8	01a29f93	slli	x31,x5,0x1a	  x5:0x00000000 x31=0x00000000
       40315000	      4030	800049dc	497eac13	slti	x24,x29,1175	 x29:0x00000000 x24=0x00000001
       40325000	      4031	800049e0	6249e893	ori	x17,x19,1572	 x19:0x92f21a7a x17=0x92f21e7e
       40335000	      4032	800049e4	00000013	addi	x0,x0,0	  x0:0x00000000
       40345000	      4033	800049e8	042a6863	bltu	x20,x2,80004a38	 x20:0x00000001  x2:0x80009d1e
       40355000	      4034	00000000	00000013	addi	x0,x0,0	  x0:0x00000000
       40365000	      4035	80004a34	00000013	addi	x0,x0,0	  x0:0x00000000
       40375000	      4036	80004a38	94196613	ori	x12,x18,-1727	 x18:0x00000000 x12=0xfffff941
       40385000	      4037	80004a3c	01705fb3	srl	x31,x0,x23	  x0:0x00000000 x23:0x00000000 x31=0x00000000
       40395000	      4038	80004a40	b5869437	lui	x8,0xb5869	  x8=0xb5869000
       40405000	      4039	80004a44	015a5213	srli	x4,x20,0x15	 x20:0x00000001  x4=0x00000000
       40415000	      4040	80004a48	01092e33	slt	x28,x18,x16	 x18:0x00000000 x16:0xfffffc22 x28=0x00000000
       40425000	      4041	80004a4c	414701b3	sub	x3,x14,x20	 x14:0x00000000 x20:0x00000001  x3=0xffffffff
       40435000	      4042	80004a50	0108cdb3	xor	x27,x17,x16	 x17:0x92f21e7e x16:0xfffffc22 x27=0x6d0de25c
       40445000	      4043	80004a54	40f30133	sub	x2,x6,x15	  x6:0x01dab7bb x15:0x80009ee8  x2=0x81da18d3
       40455000	      4044	80004a58	0198a6b3	slt	x13,x17,x25	 x17:0x92f21e7e x25:0x80009fc4 x13=0x00000000
       40465000	      4045	80004a5c	85c77713	andi	x14,x14,-1956	 x14:0x00000000 x14=0x00000000
       40475000	      4046	80004a60	010de8b3	or	x17,x27,x16	 x27:0x6d0de25c x16:0xfffffc22 x17=0xfffffe7e
       40485000	      4047	80004a64	01c81313	slli	x6,x16,0x1c	 x16:0xfffffc22  x6=0x20000000
       40495000	      4048	80004a68	1c776f93	ori	x31,x14,455	 x14:0x00000000 x31=0x000001c7
       40505000	      4049	80004a6c	00fa7d33	and	x26,x20,x15	 x20:0x00000001 x15:0x80009ee8 x26=0x00000000
       40515000	      4050	80004a70	043f9063	bne	x31,x3,80004ab0	 x31:0x000001c7  x3:0xffffffff
       40525000	      4051	00000000	00000013	addi	x0,x0,0	  x0:0x00000000
       40535000	      4052	80004aac	00000013	addi	x0,x0,0	  x0:0x00000000
       40545000	      4053	80004ab0	00000013	addi	x0,x0,0	  x0:0x00000000
       40555000	      4054	80004ab4	3b913d13	sltiu	x26,x2,953	  x2:0x81da18d3 x26=0x00000000
       40565000	      4055	80004ab8	00000013	addi	x0,x0,0	  x0:0x00000000
       40575000	      4056	80004abc	012be3b3	or	x7,x23,x18	 x23:0x00000000 x18:0x00000000  x7=0x00000000
       40585000	      4057	80004ac0	0116de33	srl	x28,x13,x17	 x13:0x00000000 x17:0xfffffe7e x28=0x00000000
       40595000	      4058	80004ac4	41cede33	sra	x28,x29,x28	 x29:0x00000000 x28:0x00000000 x28=0x00000000
       40605000	      4059	80004ac8	00000013	addi	x0,x0,0	  x0:0x00000000
       40615000	      4060	80004acc	005842b3	xor	x5,x16,x5	 x16:0xfffffc22  x5:0x00000000  x5=0xfffffc22
       40625000	      4061	80004ad0	01dc6c33	or	x24,x24,x29	 x24:0x00000001 x29:0x00000000 x24=0x00000001
       40635000	      4062	80004ad4	00809813	slli	x16,x1,0x8	  x1:0x00000000 x16=0x00000000
       40645000	      4063	80004ad8	7b26cf13	xori	x30,x13,1970	 x13:0x00000000 x30=0x000007b2
       40655000	      4064	80004adc	6881ed13	ori	x26,x3,1672	  x3:0xffffffff x26=0xffffffff
       40665000	      4065	80004ae0	0216d863	bge	x13,x1,80004b10	 x13:0x00000000  x1:0x00000000
       40675000	      4066	00000000	00000013	addi	x0,x0,0	  x0:0x00000000
       40685000	      4067	80004b0c	00000013	addi	x0,x0,0	  x0:0x00000000
       40695000	      4068	80004b10	f85c4b37	lui	x22,0xf85c4	 x22=0xf85c4000
       40705000	      4069	80004b14	00a9b233	sltu	x4,x19,x10	 x19:0x92f21a7a x10:0x00000000  x4=0x00000000
       40715000	      4070	80004b18	41a08b33	sub	x22,x1,x26	  x1:0x00000000 x26:0xffffffff x22=0x00000001
       40725000	      4071	80004b1c	007b2233	slt	x4,x22,x7	 x22:0x00000001  x7:0x00000000  x4=0x00000000
       40735000	      4072	80004b20	00da9c63	bne	x21,x13,80004b38	 x21:0x015ab7bc x13:0x00000000
       40745000	      4073	00000000	00000013	addi	x0,x0,0	  x0:0x00000000
       40755000	      4074	80004b34	00000013	addi	x0,x0,0	  x0:0x00000000
       40765000	      4075	80004b38	a94e6f97	auipc	x31,0xa94e6	 x31=0x294eab34
       40775000	      4076	80004b3c	37a10b13	addi	x22,x2,890	  x2:0x81da18d3 x22=0x81da1c4d
       40785000	      4077	80004b40	0033f863	bgeu	x7,x3,80004b50	  x7:0x00000000  x3:0xffffffff
       40795000	      4078	80004b44	c36f3693	sltiu	x13,x30,-970	 x30:0x000007b2 x13=0x00000001
       40805000	      4079	80004b48	03b37663	bgeu	x6,x27,80004b74	  x6:0x20000000 x27:0x6d0de25c
       40815000	      4080	80004b4c	02baca63	blt	x21,x11,80004b80	 x21:0x015ab7bc x11:0x00000000
       40825000	      4081	80004b50	b48dca13	xori	x20,x27,-1208	 x27:0x6d0de25c x20=0x92f21914
       40835000	      4082	80004b54	94813493	sltiu	x9,x2,-1720	  x2:0x81da18d3  x9=0x00000001
       40845000	      4083	80004b58	005c8433	add	x8,x25,x5	 x25:0x80009fc4  x5:0xfffffc22  x8=0x80009be6
       40855000	      4084	80004b5c	0a236a93	ori	x21,x6,162	  x6:0x20000000 x21=0x200000a2
       40865000	      4085	80004b60	00dc45b3	xor	x11,x24,x13	 x24:0x00000001 x13:0x00000001 x11=0x00000000
       40875000	      4086	80004b64	5315bd13	sltiu	x26,x11,1329	 x11:0x00000000 x26=0x00000001
       40885000	      4087	80004b68	00000013	addi	x0,x0,0	  x0:0x00000000
       40895000	      4088	80004b6c	03a36e63	bltu	x6,x26,80004ba8	  x6:0x20000000 x26:0x00000001
       40905000	      4089	80004b70	4e294437	lui	x8,0x4e294	  x8=0x4e294000
       40915000	      4090	80004b74	02889c63	bne	x17,x8,80004bac	 x17:0xfffffe7e  x8:0x4e294000
       40925000	      4091	00000000	00000013	addi	x0,x0,0	  x0:0x00000000
       40935000	      4092	80004ba8	00000013	addi	x0,x0,0	  x0:0x00000000
       40945000	      4093	80004bac	00000013	addi	x0,x0,0	  x0:0x00000000
       40955000	      4094	80004bb0	010ed933	srl	x18,x29,x16	 x29:0x00000000 x16:0x00000000 x18=0x00000000
       40965000	      4095	80004bb4	3dc8fb93	andi	x23,x17,988	 x17:0xfffffe7e x23=0x0000025c
       40975000	      4096	80004bb8	40f55d13	srai	x26,x10,0xf	 x10:0x00000000 x26=0x00000000
       40985000	      4097	80004bbc	00000013	addi	x0,x0,0	  x0:0x00000000
       40995000	      4098	80004bc0	f0cab113	sltiu	x2,x21,-244	 x21:0x200000a2  x2=0x00000001
       41005000	      4099	80004bc4	05b5f263	bgeu	x11,x27,80004c08	 x11:0x00000000 x27:0x6d0de25c
       41015000	      4100	80004bc8	24937b13	andi	x22,x6,585	  x6:0x20000000 x22=0x00000000
       41025000	      4101	80004bcc	5bbde413	ori	x8,x27,1467	 x27:0x6d0de25c  x8=0x6d0de7ff
       41035000	      4102	80004bd0	b3614e93	xori	x29,x2,-1226	  x2:0x00000001 x29=0xfffffb37
       41045000	      4103	80004bd4	01a35b33	srl	x22,x6,x26	  x6:0x20000000 x26:0x00000000 x22=0x20000000
       41055000	      4104	80004bd8	00000013	addi	x0,x0,0	  x0:0x00000000
       41065000	      4105	80004bdc	3fb2ab97	auipc	x23,0x3fb2a	 x23=0xbfb2ebd8
       41075000	      4106	80004be0	037a6063	bltu	x20,x23,80004c00	 x20:0x92f21914 x23:0xbfb2ebd8
       41085000	      4107	00000000	00000013	addi	x0,x0,0	  x0:0x00000000
       41095000	      4108	80004bfc	00000013	addi	x0,x0,0	  x0:0x00000000
       41105000	      4109	80004c00	01ea9e93	slli	x29,x21,0x1e	 x21:0x200000a2 x29=0x80000000
       41115000	      4110	80004c04	01f5eeb3	or	x29,x11,x31	 x11:0x00000000 x31:0x294eab34 x29=0x294eab34
       41125000	      4111	80004c08	00fd8f33	add	x30,x27,x15	 x27:0x6d0de25c x15:0x80009ee8 x30=0xed0e8144
       41135000	      4112	80004c0c	00000013	addi	x0,x0,0	  x0:0x00000000
       41145000	      4113	80004c10	857eca93	xori	x21,x29,-1961	 x29:0x294eab34 x21=0xd6b15363
       41155000	      4114	80004c14	e5523193	sltiu	x3,x4,-427	  x4:0x00000000  x3=0x00000001
       41165000	      4115	80004c18	03b9f463	bgeu	x19,x27,80004c40	 x19:0x92f21a7a x27:0x6d0de25c
       41175000	      4116	00000000	00000013	addi	x0,x0,0	  x0:0x00000000
       41185000	      4117	80004c3c	00000013	addi	x0,x0,0	  x0:0x00000000
       41195000	      4118	80004c40	90d6aa93	slti	x21,x13,-1779	 x13:0x00000001 x21=0x00000000
       41205000	      4119	80004c44	0013b333	sltu	x6,x7,x1	  x7:0x00000000  x1:0x00000000  x6=0x00000000
       41215000	      4120	80004c48	41df5413	srai	x8,x30,0x1d	 x30:0xed0e8144  x8=0xffffffff
       41225000	      4121	80004c4c	0143dc33	srl	x24,x7,x20	  x7:0x00000000 x20:0x92f21914 x24=0x00000000
       41235000	      4122	80004c50	00000013	addi	x0,x0,0	  x0:0x00000000
       41245000	      4123	80004c54	0753d463	bge	x7,x21,80004cbc	  x7:0x00000000 x21:0x00000000
       41255000	      4124	00000000	00000013	addi	x0,x0,0	  x0:0x00000000
       41265000	      4125	80004cb8	00000013	addi	x0,x0,0	  x0:0x00000000
       41275000	      4126	80004cbc	41a201b3	sub	x3,x4,x26	  x4:0x00000000 x26:0x00000000  x3=0x00000000
       41285000	      4127	80004cc0	03af9e63	bne	x31,x26,80004cfc	 x31:0x294eab34 x26:0x00000000
       41295000	      4128	00000000	00000013	addi	x0,x0,0	  x0:0x00000000
       41305000	      4129	80004cf8	00000013	addi	x0,x0,0	  x0:0x00000000
       41315000	      4130	80004cfc	01e5e863	bltu	x11,x30,80004d0c	 x11:0x00000000 x30:0xed0e8144
       41325000	      4131	00000000	00000013	addi	x0,x0,0	  x0:0x00000000
       41335000	      4132	80004d08	00000013	addi	x0,x0,0	  x0:0x00000000
       41345000	      4133	80004d0c	023e1463	bne	x28,x3,80004d34	 x28:0x00000000  x3:0x00000000
       41355000	      4134	80004d10	f92c2313	slti	x6,x24,-110	 x24:0x00000000  x6=0x00000000
       41365000	      4135	80004d14	4095d513	srai	x10,x11,0x9	 x11:0x00000000 x10=0x00000000
       41375000	      4136	80004d18	56f5a917	auipc	x18,0x56f5a	 x18=0xd6f5ed14
       41385000	      4137	80004d1c	00c41c33	sll	x24,x8,x12	  x8:0xffffffff x12:0xfffff941 x24=0xfffffffe
       41395000	      4138	80004d20	00c06733	or	x14,x0,x12	  x0:0x00000000 x12:0xfffff941 x14=0xfffff941
       41405000	      4139	80004d24	b85dc093	xori	x1,x27,-1147	 x27:0x6d0de25c  x1=0x92f219d9
       41415000	      4140	80004d28	00c8f1b3	and	x3,x17,x12	 x17:0xfffffe7e x12:0xfffff941  x3=0xfffff840
       41425000	      4141	80004d2c	04bb8663	beq	x23,x11,80004d78	 x23:0xbfb2ebd8 x11:0x00000000
       41435000	      4142	80004d30	00d745b3	xor	x11,x14,x13	 x14:0xfffff941 x13:0x00000001 x11=0xfffff940
       41445000	      4143	80004d34	00397c63	bgeu	x18,x3,80004d4c	 x18:0xd6f5ed14  x3:0xfffff840
       41455000	      4144	80004d38	00923ab3	sltu	x21,x4,x9	  x4:0x00000000  x9:0x00000001 x21=0x00000001
       41465000	      4145	80004d3c	a5cd8397	auipc	x7,0xa5cd8	  x7=0x25cdcd38
       41475000	      4146	80004d40	7c3aca93	xori	x21,x21,1987	 x21:0x00000001 x21=0x000007c2
       41485000	      4147	80004d44	0095a0b3	slt	x1,x11,x9	 x11:0xfffff940  x9:0x00000001  x1=0x00000001
       41495000	      4148	80004d48	007d5c63	bge	x26,x7,80004d60	 x26:0x00000000  x7:0x25cdcd38
       41505000	      4149	80004d4c	01333eb3	sltu	x29,x6,x19	  x6:0x00000000 x19:0x92f21a7a x29=0x00000001
       41515000	      4150	80004d50	00a972b3	and	x5,x18,x10	 x18:0xd6f5ed14 x10:0x00000000  x5=0x00000000
       41525000	      4151	80004d54	fc410297	auipc	x5,0xfc410	  x5=0x7c414d50
       41535000	      4152	80004d58	01765ab3	srl	x21,x12,x23	 x12:0xfffff941 x23:0xbfb2ebd8 x21=0x000000ff
       41545000	      4153	80004d5c	0226fc63	bgeu	x13,x2,80004d94	 x13:0x00000001  x2:0x00000001
       41555000	      4154	00000000	00000013	addi	x0,x0,0	  x0:0x00000000
       41565000	      4155	80004d90	00000013	addi	x0,x0,0	  x0:0x00000000
       41575000	      4156	80004d94	72d60313	addi	x6,x12,1837	 x12:0xfffff941  x6=0x0000006e
       41585000	      4157	80004d98	662ae437	lui	x8,0x662ae	  x8=0x662ae000
       41595000	      4158	80004d9c	004161b3	or	x3,x2,x4	  x2:0x00000001  x4:0x00000000  x3=0x00000001
       41605000	      4159	80004da0	00181133	sll	x2,x16,x1	 x16:0x00000000  x1:0x00000001  x2=0x00000000
       41615000	      4160	80004da4	b40c3b13	sltiu	x22,x24,-1216	 x24:0xfffffffe x22=0x00000000
       41625000	      4161	80004da8	e32e5317	auipc	x6,0xe32e5	  x6=0x632e9da4
       41635000	      4162	80004dac	01c42133	slt	x2,x8,x28	  x8:0x662ae000 x28:0x00000000  x2=0x00000000
       41645000	      4163	80004db0	04a77063	bgeu	x14,x10,80004df0	 x14:0xfffff941 x10:0x00000000
       41655000	      4164	00000000	00000013	addi	x0,x0,0	  x0:0x00000000
       41665000	      4165	80004dec	00000013	addi	x0,x0,0	  x0:0x00000000
       41675000	      4166	80004df0	0206ea63	bltu	x13,x0,80004e24	 x13:0x00000001  x0:0x00000000
       41685000	      4167	80004df4	018678b3	and	x17,x12,x24	 x12:0xfffff941 x24:0xfffffffe x17=0xfffff940
       41695000	      4168	80004df8	015f9c13	slli	x24,x31,0x15	 x31:0x294eab34 x24=0x66800000
       41705000	      4169	80004dfc	012f6233	or	x4,x30,x18	 x30:0xed0e8144 x18:0xd6f5ed14  x4=0xffffed54
       41715000	      4170	80004e00	401281b3	sub	x3,x5,x1	  x5:0x7c414d50  x1:0x00000001  x3=0x7c414d4f
       41725000	      4171	80004e04	000c5113	srli	x2,x24,0x0	 x24:0x66800000  x2=0x66800000
       41735000	      4172	80004e08	006a06b3	add	x13,x20,x6	 x20:0x92f21914  x6:0x632e9da4 x13=0xf620b6b8
       41745000	      4173	80004e0c	8e1ef393	andi	x7,x29,-1823	 x29:0x00000001  x7=0x00000001
       41755000	      4174	80004e10	41035213	srai	x4,x6,0x10	  x6:0x632e9da4  x4=0x0000632e
       41765000	      4175	80004e14	41a68a33	sub	x20,x13,x26	 x13:0xf620b6b8 x26:0x00000000 x20=0xf620b6b8
       41775000	      4176	80004e18	01b75313	srli	x6,x14,0x1b	 x14:0xfffff941  x6=0x0000001f
       41785000	      4177	80004e1c	00000013	addi	x0,x0,0	  x0:0x00000000
       41795000	      4178	80004e20	018b8533	add	x10,x23,x24	 x23:0xbfb2ebd8 x24:0x66800000 x10=0x2632ebd8
       41805000	      4179	80004e24	01109533	sll	x10,x1,x17	  x1:0x00000001 x17:0xfffff940 x10=0x00000001
       41815000	      4180	80004e28	4143da13	srai	x20,x7,0x14	  x7:0x00000001 x20=0x00000000
       41825000	      4181	80004e2c	83247617	auipc	x12,0x83247	 x12=0x0324be28
       41835000	      4182	80004e30	40e10133	sub	x2,x2,x14	  x2:0x66800000 x14:0xfffff941  x2=0x668006bf
       41845000	      4183	80004e34	41ba8db3	sub	x27,x21,x27	 x21:0x000000ff x27:0x6d0de25c x27=0x92f21ea3
       41855000	      4184	80004e38	0052bd33	sltu	x26,x5,x5	  x5:0x7c414d50  x5:0x7c414d50 x26=0x00000000
       41865000	      4185	80004e3c	3f1eaa13	slti	x20,x29,1009	 x29:0x00000001 x20=0x00000001
       41875000	      4186	80004e40	4033d713	srai	x14,x7,0x3	  x7:0x00000001 x14=0x00000000
       41885000	      4187	80004e44	013ab533	sltu	x10,x21,x19	 x21:0x000000ff x19:0x92f21a7a x10=0x00000001
       41895000	      4188	80004e48	41ddd933	sra	x18,x27,x29	 x27:0x92f21ea3 x29:0x00000001 x18=0xc9790f51
       41905000	      4189	80004e4c	0121ef33	or	x30,x3,x18	  x3:0x7c414d4f x18:0xc9790f51 x30=0xfd794f5f
       41915000	      4190	80004e50	01d9deb3	srl	x29,x19,x29	 x19:0x92f21a7a x29:0x00000001 x29=0x49790d3d
       41925000	      4191	80004e54	4153d113	srai	x2,x7,0x15	  x7:0x00000001  x2=0x00000000
       41935000	      4192	80004e58	0178b333	sltu	x6,x17,x23	 x17:0xfffff940 x23:0xbfb2ebd8  x6=0x00000000
       41945000	      4193	80004e5c	00999f93	slli	x31,x19,0x9	 x19:0x92f21a7a x31=0xe434f400
       41955000	      4194	80004e60	03e69263	bne	x13,x30,80004e84	 x13:0xf620b6b8 x30:0xfd794f5f
       41965000	      4195	00000000	00000013	addi	x0,x0,0	  x0:0x00000000
       41975000	      4196	80004e80	00000013	addi	x0,x0,0	  x0:0x00000000
       41985000	      4197	80004e84	01f5e533	or	x10,x11,x31	 x11:0xfffff940 x31:0xe434f400 x10=0xfffffd40
       41995000	      4198	80004e88	40f75593	srai	x11,x14,0xf	 x14:0x00000000 x11=0x00000000
       42005000	      4199	80004e8c	00c69d93	slli	x27,x13,0xc	 x13:0xf620b6b8 x27=0x0b6b8000
       42015000	      4200	80004e90	037c9663	bne	x25,x23,80004ebc	 x25:0x80009fc4 x23:0xbfb2ebd8
       42025000	      4201	00000000	00000013	addi	x0,x0,0	  x0:0x00000000
       42035000	      4202	80004eb8	00000013	addi	x0,x0,0	  x0:0x00000000
       42045000	      4203	80004ebc	de1cc693	xori	x13,x25,-543	 x25:0x80009fc4 x13=0x7fff6225
       42055000	      4204	80004ec0	2521f493	andi	x9,x3,594	  x3:0x7c414d4f  x9=0x00000042
       42065000	      4205	80004ec4	7c568f37	lui	x30,0x7c568	 x30=0x7c568000
       42075000	      4206	80004ec8	b5fd2093	slti	x1,x26,-1185	 x26:0x00000000  x1=0x00000000
       42085000	      4207	80004ecc	c18abf93	sltiu	x31,x21,-1000	 x21:0x000000ff x31=0x00000001
       42095000	      4208	80004ed0	112da713	slti	x14,x27,274	 x27:0x0b6b8000 x14=0x00000000
       42105000	      4209	80004ed4	0055fc63	bgeu	x11,x5,80004eec	 x11:0x00000000  x5:0x7c414d50
       42115000	      4210	80004ed8	002512b3	sll	x5,x10,x2	 x10:0xfffffd40  x2:0x00000000  x5=0xfffffd40
       42125000	      4211	80004edc	41250833	sub	x16,x10,x18	 x10:0xfffffd40 x18:0xc9790f51 x16=0x3686edef
       42135000	      4212	80004ee0	6059b313	sltiu	x6,x19,1541	 x19:0x92f21a7a  x6=0x00000000
       42145000	      4213	80004ee4	e9bcf493	andi	x9,x25,-357	 x25:0x80009fc4  x9=0x80009e80
       42155000	      4214	80004ee8	4113d333	sra	x6,x7,x17	  x7:0x00000001 x17:0xfffff940  x6=0x00000001
       42165000	      4215	80004eec	016632b3	sltu	x5,x12,x22	 x12:0x0324be28 x22:0x00000000  x5=0x00000000
       42175000	      4216	80004ef0	da54f193	andi	x3,x9,-603	  x9:0x80009e80  x3=0x80009c80
       42185000	      4217	80004ef4	81e56db7	lui	x27,0x81e56	 x27=0x81e56000
       42195000	      4218	80004ef8	26465c37	lui	x24,0x26465	 x24=0x26465000
       42205000	      4219	80004efc	10a5be93	sltiu	x29,x11,266	 x11:0x00000000 x29=0x00000001
       42215000	      4220	80004f00	cb968193	addi	x3,x13,-839	 x13:0x7fff6225  x3=0x7fff5ede
       42225000	      4221	80004f04	03a35c63	bge	x6,x26,80004f3c	  x6:0x00000001 x26:0x00000000
       42235000	      4222	00000000	00000013	addi	x0,x0,0	  x0:0x00000000
       42245000	      4223	80004f38	00000013	addi	x0,x0,0	  x0:0x00000000
       42255000	      4224	80004f3c	01e19d93	slli	x27,x3,0x1e	  x3:0x7fff5ede x27=0x80000000
       42265000	      4225	80004f40	d3b74293	xori	x5,x14,-709	 x14:0x00000000  x5=0xfffffd3b
       42275000	      4226	80004f44	01f34ab3	xor	x21,x6,x31	  x6:0x00000001 x31:0x00000001 x21=0x00000000
       42285000	      4227	80004f48	006a9c63	bne	x21,x6,80004f60	 x21:0x00000000  x6:0x00000001
       42295000	      4228	00000000	00000013	addi	x0,x0,0	  x0:0x00000000
       42305000	      4229	80004f5c	00000013	addi	x0,x0,0	  x0:0x00000000
       42315000	      4230	80004f60	00ccfc33	and	x24,x25,x12	 x25:0x80009fc4 x12:0x0324be28 x24=0x00009e00
       42325000	      4231	80004f64	01ecdf33	srl	x30,x25,x30	 x25:0x80009fc4 x30:0x7c568000 x30=0x80009fc4
       42335000	      4232	80004f68	00ffc4b3	xor	x9,x31,x15	 x31:0x00000001 x15:0x80009ee8  x9=0x80009ee9
       42345000	      4233	80004f6c	40d68e33	sub	x28,x13,x13	 x13:0x7fff6225 x13:0x7fff6225 x28=0x00000000
       42355000	      4234	80004f70	00000013	addi	x0,x0,0	  x0:0x00000000
       42365000	      4235	80004f74	0125e233	or	x4,x11,x18	 x11:0x00000000 x18:0xc9790f51  x4=0xc9790f51
       42375000	      4236	80004f78	640c2f93	slti	x31,x24,1600	 x24:0x00009e00 x31=0x00000000
       42385000	      4237	80004f7c	01587c63	bgeu	x16,x21,80004f94	 x16:0x3686edef x21:0x00000000
       42395000	      4238	00000000	00000013	addi	x0,x0,0	  x0:0x00000000
       42405000	      4239	80004f90	00000013	addi	x0,x0,0	  x0:0x00000000
       42415000	      4240	80004f94	01b92c33	slt	x24,x18,x27	 x18:0xc9790f51 x27:0x80000000 x24=0x00000000
       42425000	      4241	80004f98	00834633	xor	x12,x6,x8	  x6:0x00000001  x8:0x662ae000 x12=0x662ae001
       42435000	      4242	80004f9c	40685a93	srai	x21,x16,0x6	 x16:0x3686edef x21=0x00da1bb7
       42445000	      4243	80004fa0	1ce2ac17	auipc	x24,0x1ce2a	 x24=0x9ce2ef9c
       42455000	      4244	80004fa4	0106a033	slt	x0,x13,x16	 x13:0x7fff6225 x16:0x3686edef
       42465000	      4245	80004fa8	00985c63	bge	x16,x9,80004fc0	 x16:0x3686edef  x9:0x80009ee9
       42475000	      4246	00000000	00000013	addi	x0,x0,0	  x0:0x00000000
       42485000	      4247	80004fbc	00000013	addi	x0,x0,0	  x0:0x00000000
       42495000	      4248	80004fc0	00fb34b3	sltu	x9,x22,x15	 x22:0x00000000 x15:0x80009ee8  x9=0x00000001
       42505000	      4249	80004fc4	0047a303	lw	x6,4(x15)	 x15:0x80009ee8  x6=0x80005efc PA:0x80009eec
       42515000	      4250	80004fc8	01475393	srli	x7,x14,0x14	 x14:0x00000000  x7=0x00000000
       42525000	      4251	80004fcc	01f58133	add	x2,x11,x31	 x11:0x00000000 x31:0x00000000  x2=0x00000000
       42535000	      4252	80004fd0	03c78793	addi	x15,x15,60	 x15:0x80009ee8 x15=0x80009f24
       42545000	      4253	80004fd4	41e6d413	srai	x8,x13,0x1e	 x13:0x7fff6225  x8=0x00000001
       42555000	      4254	80004fd8	00130f93	addi	x31,x6,1	  x6:0x80005efc x31=0x80005efd
       42565000	      4255	80004fdc	000f8fe7	jalr	x31,x31,0	 x31:0x80005efd x31=0x80004fdc
       42575000	      4256	00000000	00000013	addi	x0,x0,0	  x0:0x00000000
       42585000	      4257	80005efc	00000013	addi	x0,x0,0	  x0:0x00000000
       42595000	      4258	80005f00	01abc833	xor	x16,x23,x26	 x23:0xbfb2ebd8 x26:0x00000000 x16=0xbfb2ebd8
       42605000	      4259	80005f04	41b9deb3	sra	x29,x19,x27	 x19:0x92f21a7a x27:0x80000000 x29=0x92f21a7a
       42615000	      4260	80005f08	03c30263	beq	x6,x28,80005f2c	  x6:0x80005efc x28:0x00000000
       42625000	      4261	80005f0c	419453b3	sra	x7,x8,x25	  x8:0x00000001 x25:0x80009fc4  x7=0x00000000
       42635000	      4262	80005f10	0092e433	or	x8,x5,x9	  x5:0xfffffd3b  x9:0x00000001  x8=0xfffffd3b
       42645000	      4263	80005f14	01056c33	or	x24,x10,x16	 x10:0xfffffd40 x16:0xbfb2ebd8 x24=0xffffffd8
       42655000	      4264	80005f18	01282f33	slt	x30,x16,x18	 x16:0xbfb2ebd8 x18:0xc9790f51 x30=0x00000001
       42665000	      4265	80005f1c	cd9c3597	auipc	x11,0xcd9c3	 x11=0x4d9c8f18
       42675000	      4266	80005f20	b2c37f13	andi	x30,x6,-1236	  x6:0x80005efc x30=0x80005a2c
       42685000	      4267	80005f24	00000013	addi	x0,x0,0	  x0:0x00000000
       42695000	      4268	80005f28	96b82813	slti	x16,x16,-1685	 x16:0xbfb2ebd8 x16=0x00000001
       42705000	      4269	80005f2c	053f8663	beq	x31,x19,80005f78	 x31:0x80004fdc x19:0x92f21a7a
       42715000	      4270	80005f30	016f5c63	bge	x30,x22,80005f48	 x30:0x80005a2c x22:0x00000000
       42725000	      4271	80005f34	04d3e263	bltu	x7,x13,80005f78	  x7:0x00000000 x13:0x7fff6225
       42735000	      4272	00000000	00000013	addi	x0,x0,0	  x0:0x00000000
       42745000	      4273	80005f74	00000013	addi	x0,x0,0	  x0:0x00000000
       42755000	      4274	80005f78	03a4c663	blt	x9,x26,80005fa4	  x9:0x00000001 x26:0x00000000
       42765000	      4275	80005f7c	01015133	srl	x2,x2,x16	  x2:0x00000000 x16:0x00000001  x2=0x00000000
       42775000	      4276	80005f80	04dd5f37	lui	x30,0x4dd5	 x30=0x04dd5000
       42785000	      4277	80005f84	c605bf13	sltiu	x30,x11,-928	 x11:0x4d9c8f18 x30=0x00000001
       42795000	      4278	80005f88	004a4c33	xor	x24,x20,x4	 x20:0x00000001  x4:0xc9790f51 x24=0xc9790f50
       42805000	      4279	80005f8c	4060dc33	sra	x24,x1,x6	  x1:0x00000000  x6:0x80005efc x24=0x00000000
       42815000	      4280	80005f90	6b375617	auipc	x12,0x6b375	 x12=0xeb37af8c
       42825000	      4281	80005f94	014edc63	bge	x29,x20,80005fac	 x29:0x92f21a7a x20:0x00000001
       42835000	      4282	80005f98	005e7263	bgeu	x28,x5,80005f9c	 x28:0x00000000  x5:0xfffffd3b
       42845000	      4283	80005f9c	0022c233	xor	x4,x5,x2	  x5:0xfffffd3b  x2:0x00000000  x4=0xfffffd3b
       42855000	      4284	80005fa0	029dd863	bge	x27,x9,80005fd0	 x27:0x80000000  x9:0x00000001
       42865000	      4285	80005fa4	00c01613	slli	x12,x0,0xc	  x0:0x00000000 x12=0x00000000
       42875000	      4286	80005fa8	046e4663	blt	x28,x6,80005ff4	 x28:0x00000000  x6:0x80005efc
       42885000	      4287	80005fac	01265393	srli	x7,x12,0x12	 x12:0x00000000  x7=0x00000000
       42895000	      4288	80005fb0	40dd8233	sub	x4,x27,x13	 x27:0x80000000 x13:0x7fff6225  x4=0x00009ddb
       42905000	      4289	80005fb4	00291fb3	sll	x31,x18,x2	 x18:0xc9790f51  x2:0x00000000 x31=0xc9790f51
       42915000	      4290	80005fb8	56fab493	sltiu	x9,x21,1391	 x21:0x00da1bb7  x9=0x00000000
       42925000	      4291	80005fbc	01e110b3	sll	x1,x2,x30	  x2:0x00000000 x30:0x00000001  x1=0x00000000
       42935000	      4292	80005fc0	01c8aab3	slt	x21,x17,x28	 x17:0xfffff940 x28:0x00000000 x21=0x00000001
       42945000	      4293	80005fc4	059b7263	bgeu	x22,x25,80006008	 x22:0x00000000 x25:0x80009fc4
       42955000	      4294	80005fc8	009f86b3	add	x13,x31,x9	 x31:0xc9790f51  x9:0x00000000 x13=0xc9790f51
       42965000	      4295	80005fcc	b18fef97	auipc	x31,0xb18fe	 x31=0x31903fc8
       42975000	      4296	80005fd0	0288cc63	blt	x17,x8,80006008	 x17:0xfffff940  x8:0xfffffd3b
       42985000	      4297	00000000	00000013	addi	x0,x0,0	  x0:0x00000000
       42995000	      4298	80006004	00000013	addi	x0,x0,0	  x0:0x00000000
       43005000	      4299	80006008	907fcc13	xori	x24,x31,-1785	 x31:0x31903fc8 x24=0xce6fc6cf
       43015000	      4300	8000600c	014b1293	slli	x5,x22,0x14	 x22:0x00000000  x5=0x00000000
       43025000	      4301	80006010	00deeab3	or	x21,x29,x13	 x29:0x92f21a7a x13:0xc9790f51 x21=0xdbfb1f7b
       43035000	      4302	80006014	00000013	addi	x0,x0,0	  x0:0x00000000
       43045000	      4303	80006018	01e46533	or	x10,x8,x30	  x8:0xfffffd3b x30:0x00000001 x10=0xfffffd3b
       43055000	      4304	8000601c	56536013	ori	x0,x6,1381	  x6:0x80005efc
       43065000	      4305	80006020	00c60bb3	add	x23,x12,x12	 x12:0x00000000 x12:0x00000000 x23=0x00000000
       43075000	      4306	80006024	41fd5413	srai	x8,x26,0x1f	 x26:0x00000000  x8=0x00000000
       43085000	      4307	80006028	a9e9fa13	andi	x20,x19,-1378	 x19:0x92f21a7a x20=0x92f21a1a
       43095000	      4308	8000602c	75bcbf93	sltiu	x31,x25,1883	 x25:0x80009fc4 x31=0x00000000
       43105000	      4309	80006030	40f65433	sra	x8,x12,x15	 x12:0x00000000 x15:0x80009f24  x8=0x00000000
       43115000	      4310	80006034	49872a17	auipc	x20,0x49872	 x20=0xc9878030
       43125000	      4311	80006038	bb6c0a93	addi	x21,x24,-1098	 x24:0xce6fc6cf x21=0xce6fc285
       43135000	      4312	8000603c	e32e8217	auipc	x4,0xe32e8	  x4=0x632ee038
       43145000	      4313	80006040	51c74337	lui	x6,0x51c74	  x6=0x51c74000
       43155000	      4314	80006044	014901b3	add	x3,x18,x20	 x18:0xc9790f51 x20:0xc9878030  x3=0x93008f81
       43165000	      4315	80006048	03906a63	bltu	x0,x25,8000607c	  x0:0x00000000 x25:0x80009fc4
       43175000	      4316	00000000	00000013	addi	x0,x0,0	  x0:0x00000000
       43185000	      4317	80006078	00000013	addi	x0,x0,0	  x0:0x00000000
       43195000	      4318	8000607c	41565813	srai	x16,x12,0x15	 x12:0x00000000 x16=0x00000000
       43205000	      4319	80006080	00f29a13	slli	x20,x5,0xf	  x5:0x00000000 x20=0x00000000
       43215000	      4320	80006084	82ad0a93	addi	x21,x26,-2006	 x26:0x00000000 x21=0xfffff82a
       43225000	      4321	80006088	41d5d133	sra	x2,x11,x29	 x11:0x4d9c8f18 x29:0x92f21a7a  x2=0x00000013
       43235000	      4322	8000608c	0133ee33	or	x28,x7,x19	  x7:0x00000000 x19:0x92f21a7a x28=0x92f21a7a
       43245000	      4323	80006090	03867e63	bgeu	x12,x24,800060cc	 x12:0x00000000 x24:0xce6fc6cf
       43255000	      4324	80006094	eaac2313	slti	x6,x24,-342	 x24:0xce6fc6cf  x6=0x00000001
       43265000	      4325	80006098	037ff863	bgeu	x31,x23,800060c8	 x31:0x00000000 x23:0x00000000
       43275000	      4326	00000000	00000013	addi	x0,x0,0	  x0:0x00000000
       43285000	      4327	800060c4	00000013	addi	x0,x0,0	  x0:0x00000000
       43295000	      4328	800060c8	016201b3	add	x3,x4,x22	  x4:0x632ee038 x22:0x00000000  x3=0x632ee038
       43305000	      4329	800060cc	5109b297	auipc	x5,0x5109b	  x5=0xd10a10c8
       43315000	      4330	800060d0	00445193	srli	x3,x8,0x4	  x8:0x00000000  x3=0x00000000
       43325000	      4331	800060d4	01622733	slt	x14,x4,x22	  x4:0x632ee038 x22:0x00000000 x14=0x00000000
       43335000	      4332	800060d8	01068eb3	add	x29,x13,x16	 x13:0xc9790f51 x16:0x00000000 x29=0xc9790f51
       43345000	      4333	800060dc	b9d0c813	xori	x16,x1,-1123	  x1:0x00000000 x16=0xfffffb9d
       43355000	      4334	800060e0	03070063	beq	x14,x16,80006100	 x14:0x00000000 x16:0xfffffb9d
       43365000	      4335	800060e4	02b79263	bne	x15,x11,80006108	 x15:0x80009f24 x11:0x4d9c8f18
       43375000	      4336	00000000	00000013	addi	x0,x0,0	  x0:0x00000000
       43385000	      4337	80006104	00000013	addi	x0,x0,0	  x0:0x00000000
       43395000	      4338	80006108	00ed5b93	srli	x23,x26,0xe	 x26:0x00000000 x23=0x00000000
       43405000	      4339	8000610c	00e6b533	sltu	x10,x13,x14	 x13:0xc9790f51 x14:0x00000000 x10=0x00000000
       43415000	      4340	80006110	89cd8237	lui	x4,0x89cd8	  x4=0x89cd8000
       43425000	      4341	80006114	40c1d613	srai	x12,x3,0xc	  x3:0x00000000 x12=0x00000000
       43435000	      4342	80006118	bc81f013	andi	x0,x3,-1080	  x3:0x00000000
       43445000	      4343	8000611c	83638713	addi	x14,x7,-1994	  x7:0x00000000 x14=0xfffff836
       43455000	      4344	80006120	0b082213	slti	x4,x16,176	 x16:0xfffffb9d  x4=0x00000001
       43465000	      4345	80006124	8c99b8b7	lui	x17,0x8c99b	 x17=0x8c99b000
       43475000	      4346	80006128	f0e67093	andi	x1,x12,-242	 x12:0x00000000  x1=0x00000000
       43485000	      4347	8000612c	ae0ed1b7	lui	x3,0xae0ed	  x3=0xae0ed000
       43495000	      4348	80006130	007c5fb3	srl	x31,x24,x7	 x24:0xce6fc6cf  x7:0x00000000 x31=0xce6fc6cf
       43505000	      4349	80006134	005bd5b3	srl	x11,x23,x5	 x23:0x00000000  x5:0xd10a10c8 x11=0x00000000
       43515000	      4350	80006138	006536b3	sltu	x13,x10,x6	 x10:0x00000000  x6:0x00000001 x13=0x00000001
       43525000	      4351	8000613c	00000013	addi	x0,x0,0	  x0:0x00000000
       43535000	      4352	80006140	015ef533	and	x10,x29,x21	 x29:0xc9790f51 x21:0xfffff82a x10=0xc9790800
       43545000	      4353	80006144	c21e9b97	auipc	x23,0xc21e9	 x23=0x421ef140
       43555000	      4354	80006148	02197e63	bgeu	x18,x1,80006184	 x18:0xc9790f51  x1:0x00000000
       43565000	      4355	00000000	00000013	addi	x0,x0,0	  x0:0x00000000
       43575000	      4356	80006180	00000013	addi	x0,x0,0	  x0:0x00000000
       43585000	      4357	80006184	01921eb3	sll	x29,x4,x25	  x4:0x00000001 x25:0x80009fc4 x29=0x00000010
       43595000	      4358	80006188	00459b93	slli	x23,x11,0x4	 x11:0x00000000 x23=0x00000000
       43605000	      4359	8000618c	00ea21b3	slt	x3,x20,x14	 x20:0x00000000 x14:0xfffff836  x3=0x00000000
       43615000	      4360	80006190	cda10113	addi	x2,x2,-806	  x2:0x00000013  x2=0xfffffced
       43625000	      4361	80006194	00bae833	or	x16,x21,x11	 x21:0xfffff82a x11:0x00000000 x16=0xfffff82a
       43635000	      4362	80006198	035b4063	blt	x22,x21,800061b8	 x22:0x00000000 x21:0xfffff82a
       43645000	      4363	8000619c	037f1a63	bne	x30,x23,800061d0	 x30:0x00000001 x23:0x00000000
       43655000	      4364	00000000	00000013	addi	x0,x0,0	  x0:0x00000000
       43665000	      4365	800061cc	00000013	addi	x0,x0,0	  x0:0x00000000
       43675000	      4366	800061d0	03f6e863	bltu	x13,x31,80006200	 x13:0x00000001 x31:0xce6fc6cf
       43685000	      4367	00000000	00000013	addi	x0,x0,0	  x0:0x00000000
       43695000	      4368	800061fc	00000013	addi	x0,x0,0	  x0:0x00000000
       43705000	      4369	80006200	0167fa63	bgeu	x15,x22,80006214	 x15:0x80009f24 x22:0x00000000
       43715000	      4370	00000000	00000013	addi	x0,x0,0	  x0:0x00000000
       43725000	      4371	80006210	00000013	addi	x0,x0,0	  x0:0x00000000
       43735000	      4372	80006214	00725c63	bge	x4,x7,8000622c	  x4:0x00000001  x7:0x00000000
       43745000	      4373	00000000	00000013	addi	x0,x0,0	  x0:0x00000000
       43755000	      4374	80006228	00000013	addi	x0,x0,0	  x0:0x00000000
       43765000	      4375	8000622c	4084fe13	andi	x28,x9,1032	  x9:0x00000000 x28=0x00000000
       43775000	      4376	80006230	01437633	and	x12,x6,x20	  x6:0x00000001 x20:0x00000000 x12=0x00000000
       43785000	      4377	80006234	408b5513	srai	x10,x22,0x8	 x22:0x00000000 x10=0x00000000
       43795000	      4378	80006238	012ebf33	sltu	x30,x29,x18	 x29:0x00000010 x18:0xc9790f51 x30=0x00000001
       43805000	      4379	8000623c	b56f7593	andi	x11,x30,-1194	 x30:0x00000001 x11=0x00000000
       43815000	      4380	80006240	05b1d663	bge	x3,x27,8000628c	  x3:0x00000000 x27:0x80000000
       43825000	      4381	00000000	00000013	addi	x0,x0,0	  x0:0x00000000
       43835000	      4382	80006288	00000013	addi	x0,x0,0	  x0:0x00000000
       43845000	      4383	8000628c	01d08133	add	x2,x1,x29	  x1:0x00000000 x29:0x00000010  x2=0x00000010
       43855000	      4384	80006290	01d81e13	slli	x28,x16,0x1d	 x16:0xfffff82a x28=0x40000000
       43865000	      4385	80006294	005cf633	and	x12,x25,x5	 x25:0x80009fc4  x5:0xd10a10c8 x12=0x800010c0
       43875000	      4386	80006298	d0767913	andi	x18,x12,-761	 x12:0x800010c0 x18=0x80001000
       43885000	      4387	8000629c	83cf7a97	auipc	x21,0x83cf7	 x21=0x03cfd298
       43895000	      4388	800062a0	012c5bb3	srl	x23,x24,x18	 x24:0xce6fc6cf x18:0x80001000 x23=0xce6fc6cf
       43905000	      4389	800062a4	00019613	slli	x12,x3,0x0	  x3:0x00000000 x12=0x00000000
       43915000	      4390	800062a8	b9ed6537	lui	x10,0xb9ed6	 x10=0xb9ed6000
       43925000	      4391	800062ac	0060c4b3	xor	x9,x1,x6	  x1:0x00000000  x6:0x00000001  x9=0x00000001
       43935000	      4392	800062b0	0365e663	bltu	x11,x22,800062dc	 x11:0x00000000 x22:0x00000000
       43945000	      4393	800062b4	01dc1613	slli	x12,x24,0x1d	 x24:0xce6fc6cf x12=0xe0000000
       43955000	      4394	800062b8	00665a63	bge	x12,x6,800062cc	 x12:0xe0000000  x6:0x00000001
       43965000	      4395	800062bc	70e36e17	auipc	x28,0x70e36	 x28=0xf0e3c2b8
       43975000	      4396	800062c0	01d8d633	srl	x12,x17,x29	 x17:0x8c99b000 x29:0x00000010 x12=0x00008c99
       43985000	      4397	800062c4	00509e33	sll	x28,x1,x5	  x1:0x00000000  x5:0xd10a10c8 x28=0x00000000
       43995000	      4398	800062c8	22cb1817	auipc	x16,0x22cb1	 x16=0xa2cb72c4
       44005000	      4399	800062cc	01021d93	slli	x27,x4,0x10	  x4:0x00000001 x27=0x00010000
       44015000	      4400	800062d0	00f24263	blt	x4,x15,800062d4	  x4:0x00000001 x15:0x80009f24
       44025000	      4401	800062d4	bed60113	addi	x2,x12,-1043	 x12:0x00008c99  x2=0x00008886
       44035000	      4402	800062d8	40bed333	sra	x6,x29,x11	 x29:0x00000010 x11:0x00000000  x6=0x00000010
       44045000	      4403	800062dc	f14bf393	andi	x7,x23,-236	 x23:0xce6fc6cf  x7=0xce6fc604
       44055000	      4404	800062e0	0139e833	or	x16,x19,x19	 x19:0x92f21a7a x19:0x92f21a7a x16=0x92f21a7a
       44065000	      4405	800062e4	01b5afb3	slt	x31,x11,x27	 x11:0x00000000 x27:0x00010000 x31=0x00000001
       44075000	      4406	800062e8	004e7b33	and	x22,x28,x4	 x28:0x00000000  x4:0x00000001 x22=0x00000000
       44085000	      4407	800062ec	d9277f93	andi	x31,x14,-622	 x14:0xfffff836 x31=0xfffff812
       44095000	      4408	800062f0	01092c33	slt	x24,x18,x16	 x18:0x80001000 x16:0x92f21a7a x24=0x00000001
       44105000	      4409	800062f4	013cdb93	srli	x23,x25,0x13	 x25:0x80009fc4 x23=0x00001000
       44115000	      4410	800062f8	2fc5e093	ori	x1,x11,764	 x11:0x00000000  x1=0x000002fc
       44125000	      4411	800062fc	416e03b3	sub	x7,x28,x22	 x28:0x00000000 x22:0x00000000  x7=0x00000000
       44135000	      4412	80006300	7a366313	ori	x6,x12,1955	 x12:0x00008c99  x6=0x00008fbb
       44145000	      4413	80006304	01180263	beq	x16,x17,80006308	 x16:0x92f21a7a x17:0x8c99b000
       44155000	      4414	80006308	01f59213	slli	x4,x11,0x1f	 x11:0x00000000  x4=0x00000000
       44165000	      4415	8000630c	05310263	beq	x2,x19,80006350	  x2:0x00008886 x19:0x92f21a7a
       44175000	      4416	80006310	018d8733	add	x14,x27,x24	 x27:0x00010000 x24:0x00000001 x14=0x00010001
       44185000	      4417	80006314	41aadb33	sra	x22,x21,x26	 x21:0x03cfd298 x26:0x00000000 x22=0x03cfd298
       44195000	      4418	80006318	c7f7bb37	lui	x22,0xc7f7b	 x22=0xc7f7b000
       44205000	      4419	8000631c	06c5ba13	sltiu	x20,x11,108	 x11:0x00000000 x20=0x00000001
       44215000	      4420	80006320	03fd1863	bne	x26,x31,80006350	 x26:0x00000000 x31:0xfffff812
       44225000	      4421	00000000	00000013	addi	x0,x0,0	  x0:0x00000000
       44235000	      4422	8000634c	00000013	addi	x0,x0,0	  x0:0x00000000
       44245000	      4423	80006350	01957e33	and	x28,x10,x25	 x10:0xb9ed6000 x25:0x80009fc4 x28=0x80000000
       44255000	      4424	80006354	ed08a037	lui	x0,0xed08a	
       44265000	      4425	80006358	056de063	bltu	x27,x22,80006398	 x27:0x00010000 x22:0xc7f7b000
       44275000	      4426	00000000	00000013	addi	x0,x0,0	  x0:0x00000000
       44285000	      4427	80006394	00000013	addi	x0,x0,0	  x0:0x00000000
       44295000	      4428	80006398	053d8663	beq	x27,x19,800063e4	 x27:0x00010000 x19:0x92f21a7a
       44305000	      4429	8000639c	00000013	addi	x0,x0,0	  x0:0x00000000
       44315000	      4430	800063a0	00e24f33	xor	x30,x4,x14	  x4:0x00000000 x14:0x00010001 x30=0x00010001
       44325000	      4431	800063a4	1d59a193	slti	x3,x19,469	 x19:0x92f21a7a  x3=0x00000001
       44335000	      4432	800063a8	93996517	auipc	x10,0x93996	 x10=0x1399c3a4
       44345000	      4433	800063ac	04dad663	bge	x21,x13,800063f8	 x21:0x03cfd298 x13:0x00000001
       44355000	      4434	00000000	00000013	addi	x0,x0,0	  x0:0x00000000
       44365000	      4435	800063f4	00000013	addi	x0,x0,0	  x0:0x00000000
       44375000	      4436	800063f8	00000013	addi	x0,x0,0	  x0:0x00000000
       44385000	      4437	800063fc	017c25b3	slt	x11,x24,x23	 x24:0x00000001 x23:0x00001000 x11=0x00000001
       44395000	      4438	80006400	00d7fbb3	and	x23,x15,x13	 x15:0x80009f24 x13:0x00000001 x23=0x00000000
       44405000	      4439	80006404	01c39c63	bne	x7,x28,8000641c	  x7:0x00000000 x28:0x80000000
       44415000	      4440	00000000	00000013	addi	x0,x0,0	  x0:0x00000000
       44425000	      4441	80006418	00000013	addi	x0,x0,0	  x0:0x00000000
       44435000	      4442	8000641c	41205c13	srai	x24,x0,0x12	  x0:0x00000000 x24=0x00000000
       44445000	      4443	80006420	0097fdb3	and	x27,x15,x9	 x15:0x80009f24  x9:0x00000001 x27=0x00000000
       44455000	      4444	80006424	415fd133	sra	x2,x31,x21	 x31:0xfffff812 x21:0x03cfd298  x2=0xffffffff
       44465000	      4445	80006428	013d9a13	slli	x20,x27,0x13	 x27:0x00000000 x20=0x00000000
       44475000	      4446	8000642c	0066feb3	and	x29,x13,x6	 x13:0x00000001  x6:0x00008fbb x29=0x00000001
       44485000	      4447	80006430	019ed293	srli	x5,x29,0x19	 x29:0x00000001  x5=0x00000000
       44495000	      4448	80006434	aa65e897	auipc	x17,0xaa65e	 x17=0x2a664430
       44505000	      4449	80006438	f8473513	sltiu	x10,x14,-124	 x14:0x00010001 x10=0x00000001
       44515000	      4450	8000643c	00000013	addi	x0,x0,0	  x0:0x00000000
       44525000	      4451	80006440	0102ff33	and	x30,x5,x16	  x5:0x00000000 x16:0x92f21a7a x30=0x00000000
       44535000	      4452	80006444	a8d60413	addi	x8,x12,-1395	 x12:0x00008c99  x8=0x00008726
       44545000	      4453	80006448	41376b93	ori	x23,x14,1043	 x14:0x00010001 x23=0x00010413
       44555000	      4454	8000644c	0155beb3	sltu	x29,x11,x21	 x11:0x00000001 x21:0x03cfd298 x29=0x00000001
       44565000	      4455	80006450	00eaf1b3	and	x3,x21,x14	 x21:0x03cfd298 x14:0x00010001  x3=0x00010000
       44575000	      4456	80006454	00002497	auipc	x9,0x2	  x9=0x80008450
       44585000	      4457	80006458	2c248493	addi	x9,x9,706	  x9:0x80008450  x9=0x80008712
       44595000	      4458	8000645c	0c74c183	lbu	x3,199(x9)	  x9:0x80008712  x3=0x00000000 PA:0x800087d9
       44605000	      4459	80006460	00ef3ab3	sltu	x21,x30,x14	 x30:0x00000000 x14:0x00010001 x21=0x00000001
       44615000	      4460	80006464	41995733	sra	x14,x18,x25	 x18:0x80001000 x25:0x80009fc4 x14=0xf8000100
       44625000	      4461	80006468	0d248103	lb	x2,210(x9)	  x9:0x80008712  x2=0x00000000 PA:0x800087e4
       44635000	      4462	8000646c	d018c093	xori	x1,x17,-767	 x17:0x2a664430  x1=0xd599b931
       44645000	      4463	80006470	2537e213	ori	x4,x15,595	 x15:0x80009f24  x4=0x80009f77
       44655000	      4464	80006474	fbb4c183	lbu	x3,-69(x9)	  x9:0x80008712  x3=0x00000000 PA:0x800086cd
       44665000	      4465	80006478	541b8a37	lui	x20,0x541b8	 x20=0x541b8000
       44675000	      4466	8000647c	016ec5b3	xor	x11,x29,x22	 x29:0x00000001 x22:0xc7f7b000 x11=0xc7f7b001
       44685000	      4467	80006480	0534ca83	lbu	x21,83(x9)	  x9:0x80008712 x21=0x00000000 PA:0x80008765
       44695000	      4468	80006484	f484d003	lhu	x0,-184(x9)	  x9:0x80008712 PA:0x8000865a
       44705000	      4469	80006488	fc94ab23	sw	x9,-42(x9)	  x9:0x80008712  x9:0x80008712 PA:0x800086e8
       44715000	      4470	8000648c	fa948823	sb	x9,-80(x9)	  x9:0x80008712  x9:0x80008712 PA:0x800086c2
       44725000	      4471	80006490	93d9e613	ori	x12,x19,-1731	 x19:0x92f21a7a x12=0xfffffb7f
       44735000	      4472	80006494	00c188b3	add	x17,x3,x12	  x3:0x00000000 x12:0xfffffb7f x17=0xfffffb7f
       44745000	      4473	80006498	f76489a3	sb	x22,-141(x9)	  x9:0x80008712 x22:0xc7f7b000 PA:0x80008685
       44755000	      4474	8000649c	6d94e513	ori	x10,x9,1753	  x9:0x80008712 x10=0x800087db
       44765000	      4475	800064a0	5a8471b7	lui	x3,0x5a847	  x3=0x5a847000
       44775000	      4476	800064a4	38f9e613	ori	x12,x19,911	 x19:0x92f21a7a x12=0x92f21bff
       44785000	      4477	800064a8	40405c13	srai	x24,x0,0x4	  x0:0x00000000 x24=0x00000000
       44795000	      4478	800064ac	01941113	slli	x2,x8,0x19	  x8:0x00008726  x2=0x4c000000
       44805000	      4479	800064b0	fab48703	lb	x14,-85(x9)	  x9:0x80008712 x14=0x00000000 PA:0x800086bd
       44815000	      4480	800064b4	05c48623	sb	x28,76(x9)	  x9:0x80008712 x28:0x80000000 PA:0x8000875e
       44825000	      4481	800064b8	40c55d33	sra	x26,x10,x12	 x10:0x800087db x12:0x92f21bff x26=0xffffffff
       44835000	      4482	800064bc	014b5d93	srli	x27,x22,0x14	 x22:0xc7f7b000 x27=0x00000c7f
       44845000	      4483	800064c0	f8c48da3	sb	x12,-101(x9)	  x9:0x80008712 x12:0x92f21bff PA:0x800086ad
       44855000	      4484	800064c4	fa79c593	xori	x11,x19,-89	 x19:0x92f21a7a x11=0x6d0de5dd
       44865000	      4485	800064c8	01b282b3	add	x5,x5,x27	  x5:0x00000000 x27:0x00000c7f  x5=0x00000c7f
       44875000	      4486	800064cc	93b6b113	sltiu	x2,x13,-1733	 x13:0x00000001  x2=0x00000001
       44885000	      4487	800064d0	009485a3	sb	x9,11(x9)	  x9:0x80008712  x9:0x80008712 PA:0x8000871d
       44895000	      4488	800064d4	41ceddb3	sra	x27,x29,x28	 x29:0x00000001 x28:0x80000000 x27=0x00000001
       44905000	      4489	800064d8	08d484a3	sb	x13,137(x9)	  x9:0x80008712 x13:0x00000001 PA:0x8000879b
       44915000	      4490	800064dc	413fdfb3	sra	x31,x31,x19	 x31:0xfffff812 x19:0x92f21a7a x31=0xffffffff
       44925000	      4491	800064e0	00bb1433	sll	x8,x22,x11	 x22:0xc7f7b000 x11:0x6d0de5dd  x8=0x00000000
       44935000	      4492	800064e4	0854ce83	lbu	x29,133(x9)	  x9:0x80008712 x29=0x00000000 PA:0x80008797
       44945000	      4493	800064e8	f14486a3	sb	x20,-243(x9)	  x9:0x80008712 x20:0x541b8000 PA:0x8000861f
       44955000	      4494	800064ec	00ab1f93	slli	x31,x22,0xa	 x22:0xc7f7b000 x31=0xdec00000
       44965000	      4495	800064f0	03748123	sb	x23,34(x9)	  x9:0x80008712 x23:0x00010413 PA:0x80008734
       44975000	      4496	800064f4	01269f33	sll	x30,x13,x18	 x13:0x00000001 x18:0x80001000 x30=0x00000001
       44985000	      4497	800064f8	0ad48403	lb	x8,173(x9)	  x9:0x80008712  x8=0x00000000 PA:0x800087bf
       44995000	      4498	800064fc	014d1733	sll	x14,x26,x20	 x26:0xffffffff x20:0x541b8000 x14=0xffffffff
       45005000	      4499	80006500	0005aab3	slt	x21,x11,x0	 x11:0x6d0de5dd  x0:0x00000000 x21=0x00000000
       45015000	      4500	80006504	c31ce293	ori	x5,x25,-975	 x25:0x80009fc4  x5=0xfffffff5
       45025000	      4501	80006508	f854c703	lbu	x14,-123(x9)	  x9:0x80008712 x14=0x00000080 PA:0x80008697
       45035000	      4502	8000650c	f19483a3	sb	x25,-249(x9)	  x9:0x80008712 x25:0x80009fc4 PA:0x80008619
       45045000	      4503	80006510	f834c703	lbu	x14,-125(x9)	  x9:0x80008712 x14=0x00000080 PA:0x80008695
       45055000	      4504	00000000	00000013	addi	x0,x0,0	  x0:0x00000000
       45065000	      4505	80006514	2aef6693	ori	x13,x30,686	 x30:0x00000001 x13=0x000002af
       45075000	      4506	80006518	40388233	sub	x4,x17,x3	 x17:0xfffffb7f  x3:0x5a847000  x4=0xa57b8b7f
       45085000	      4507	8000651c	00389393	slli	x7,x17,0x3	 x17:0xfffffb7f  x7=0xffffdbf8
       45095000	      4508	80006520	f634cc03	lbu	x24,-157(x9)	  x9:0x80008712 x24=0x00000000 PA:0x80008675
       45105000	      4509	80006524	f3948883	lb	x17,-199(x9)	  x9:0x80008712 x17=0x00000000 PA:0x8000864b
       45115000	      4510	80006528	6cdc4d97	auipc	x27,0x6cdc4	 x27=0xecdca524
       45125000	      4511	8000652c	01ac2233	slt	x4,x24,x26	 x24:0x00000000 x26:0xffffffff  x4=0x00000000
       45135000	      4512	80006530	01c85333	srl	x6,x16,x28	 x16:0x92f21a7a x28:0x80000000  x6=0x92f21a7a
       45145000	      4513	80006534	9bd82e13	slti	x28,x16,-1603	 x16:0x92f21a7a x28=0x00000001
       45155000	      4514	80006538	02e50e63	beq	x10,x14,80006574	 x10:0x800087db x14:0x00000080
       45165000	      4515	8000653c	02429063	bne	x5,x4,8000655c	  x5:0xfffffff5  x4:0x00000000
       45175000	      4516	00000000	00000013	addi	x0,x0,0	  x0:0x00000000
       45185000	      4517	80006558	00000013	addi	x0,x0,0	  x0:0x00000000
       45195000	      4518	8000655c	7f50bf13	sltiu	x30,x1,2037	  x1:0xd599b931 x30=0x00000000
       45205000	      4519	80006560	01b57a63	bgeu	x10,x27,80006574	 x10:0x800087db x27:0xecdca524
       45215000	      4520	80006564	009bde33	srl	x28,x23,x9	 x23:0x00010413  x9:0x80008712 x28=0x00000000
       45225000	      4521	80006568	00246533	or	x10,x8,x2	  x8:0x00000000  x2:0x00000001 x10=0x00000001
       45235000	      4522	8000656c	6de74013	xori	x0,x14,1758	 x14:0x00000080
       45245000	      4523	80006570	02268c63	beq	x13,x2,800065a8	 x13:0x000002af  x2:0x00000001
       45255000	      4524	80006574	23b7eb13	ori	x22,x15,571	 x15:0x80009f24 x22=0x80009f3f
       45265000	      4525	80006578	03ce4863	blt	x28,x28,800065a8	 x28:0x00000000 x28:0x00000000
       45275000	      4526	8000657c	00182eb3	slt	x29,x16,x1	 x16:0x92f21a7a  x1:0xd599b931 x29=0x00000001
       45285000	      4527	80006580	01b61a13	slli	x20,x12,0x1b	 x12:0x92f21bff x20=0xf8000000
       45295000	      4528	80006584	015c3133	sltu	x2,x24,x21	 x24:0x00000000 x21:0x00000000  x2=0x00000000
       45305000	      4529	80006588	0180af33	slt	x30,x1,x24	  x1:0xd599b931 x24:0x00000000 x30=0x00000001
       45315000	      4530	8000658c	01c1ddb3	srl	x27,x3,x28	  x3:0x5a847000 x28:0x00000000 x27=0x5a847000
       45325000	      4531	80006590	adb96b93	ori	x23,x18,-1317	 x18:0x80001000 x23=0xfffffadb
       45335000	      4532	80006594	00567d33	and	x26,x12,x5	 x12:0x92f21bff  x5:0xfffffff5 x26=0x92f21bf5
       45345000	      4533	80006598	0002a5b3	slt	x11,x5,x0	  x5:0xfffffff5  x0:0x00000000 x11=0x00000001
       45355000	      4534	8000659c	4063db33	sra	x22,x7,x6	  x7:0xffffdbf8  x6:0x92f21a7a x22=0xffffffff
       45365000	      4535	800065a0	01db1533	sll	x10,x22,x29	 x22:0xffffffff x29:0x00000001 x10=0xfffffffe
       45375000	      4536	800065a4	02091263	bne	x18,x0,800065c8	 x18:0x80001000  x0:0x00000000
       45385000	      4537	00000000	00000013	addi	x0,x0,0	  x0:0x00000000
       45395000	      4538	800065c4	00000013	addi	x0,x0,0	  x0:0x00000000
       45405000	      4539	800065c8	02ae7c63	bgeu	x28,x10,80006600	 x28:0x00000000 x10:0xfffffffe
       45415000	      4540	800065cc	fb497fb7	lui	x31,0xfb497	 x31=0xfb497000
       45425000	      4541	800065d0	002f40b3	xor	x1,x30,x2	 x30:0x00000001  x2:0x00000000  x1=0x00000001
       45435000	      4542	800065d4	04565c37	lui	x24,0x4565	 x24=0x04565000
       45445000	      4543	800065d8	01336eb3	or	x29,x6,x19	  x6:0x92f21a7a x19:0x92f21a7a x29=0x92f21a7a
       45455000	      4544	800065dc	008c1413	slli	x8,x24,0x8	 x24:0x04565000  x8=0x56500000
       45465000	      4545	800065e0	cd600c13	addi	x24,x0,-810	  x0:0x00000000 x24=0xfffffcd6
       45475000	      4546	800065e4	41875593	srai	x11,x14,0x18	 x14:0x00000080 x11=0x00000000
       45485000	      4547	800065e8	6246ca13	xori	x20,x13,1572	 x13:0x000002af x20=0x0000048b
       45495000	      4548	800065ec	012a5fb3	srl	x31,x20,x18	 x20:0x0000048b x18:0x80001000 x31=0x0000048b
       45505000	      4549	800065f0	7c68b713	sltiu	x14,x17,1990	 x17:0x00000000 x14=0x00000001
       45515000	      4550	800065f4	ca400117	auipc	x2,0xca400	  x2=0x4a4065f0
       45525000	      4551	800065f8	02e6e663	bltu	x13,x14,80006624	 x13:0x000002af x14:0x00000001
       45535000	      4552	800065fc	a5553eb7	lui	x29,0xa5553	 x29=0xa5553000
       45545000	      4553	80006600	04b7d263	bge	x15,x11,80006644	 x15:0x80009f24 x11:0x00000000
       45555000	      4554	80006604	78754337	lui	x6,0x78754	  x6=0x78754000
       45565000	      4555	80006608	0004b533	sltu	x10,x9,x0	  x9:0x80008712  x0:0x00000000 x10=0x00000000
       45575000	      4556	8000660c	01128bb3	add	x23,x5,x17	  x5:0xfffffff5 x17:0x00000000 x23=0xfffffff5
       45585000	      4557	80006610	00639033	sll	x0,x7,x6	  x7:0xffffdbf8  x6:0x78754000
       45595000	      4558	80006614	01c61313	slli	x6,x12,0x1c	 x12:0x92f21bff  x6=0xf0000000
       45605000	      4559	80006618	2658b293	sltiu	x5,x17,613	 x17:0x00000000  x5=0x00000001
       45615000	      4560	8000661c	45d4e593	ori	x11,x9,1117	  x9:0x80008712 x11=0x8000875f
       45625000	      4561	80006620	029c5063	bge	x24,x9,80006640	 x24:0xfffffcd6  x9:0x80008712
       45635000	      4562	00000000	00000013	addi	x0,x0,0	  x0:0x00000000
       45645000	      4563	8000663c	00000013	addi	x0,x0,0	  x0:0x00000000
       45655000	      4564	80006640	018195b3	sll	x11,x3,x24	  x3:0x5a847000 x24:0xfffffcd6 x11=0x00000000
       45665000	      4565	80006644	048b5063	bge	x22,x8,80006684	 x22:0xffffffff  x8:0x56500000
       45675000	      4566	80006648	d28efa93	andi	x21,x29,-728	 x29:0xa5553000 x21=0xa5553000
       45685000	      4567	8000664c	e736d137	lui	x2,0xe736d	  x2=0xe736d000
       45695000	      4568	80006650	00000013	addi	x0,x0,0	  x0:0x00000000
       45705000	      4569	80006654	df9cc593	xori	x11,x25,-519	 x25:0x80009fc4 x11=0x7fff623d
       45715000	      4570	80006658	04ecd663	bge	x25,x14,800066a4	 x25:0x80009fc4 x14:0x00000001
       45725000	      4571	8000665c	a92bc093	xori	x1,x23,-1390	 x23:0xfffffff5  x1=0x00000567
       45735000	      4572	80006660	e813cd37	lui	x26,0xe813c	 x26=0xe813c000
       45745000	      4573	80006664	40b8df93	srai	x31,x17,0xb	 x17:0x00000000 x31=0x00000000
       45755000	      4574	80006668	0042e8b3	or	x17,x5,x4	  x5:0x00000001  x4:0x00000000 x17=0x00000001
       45765000	      4575	8000666c	09b4e737	lui	x14,0x9b4e	 x14=0x09b4e000
       45775000	      4576	80006670	fcd2cb17	auipc	x22,0xfcd2c	 x22=0x7cd3266c
       45785000	      4577	80006674	03a0c263	blt	x1,x26,80006698	  x1:0x00000567 x26:0xe813c000
       45795000	      4578	80006678	014b8263	beq	x23,x20,8000667c	 x23:0xfffffff5 x20:0x0000048b
       45805000	      4579	8000667c	044b9663	bne	x23,x4,800066c8	 x23:0xfffffff5  x4:0x00000000
       45815000	      4580	00000000	00000013	addi	x0,x0,0	  x0:0x00000000
       45825000	      4581	800066c4	00000013	addi	x0,x0,0	  x0:0x00000000
       45835000	      4582	800066c8	3103ff93	andi	x31,x7,784	  x7:0xffffdbf8 x31=0x00000310
       45845000	      4583	800066cc	057d6063	bltu	x26,x23,8000670c	 x26:0xe813c000 x23:0xfffffff5
       45855000	      4584	00000000	00000013	addi	x0,x0,0	  x0:0x00000000
       45865000	      4585	80006708	00000013	addi	x0,x0,0	  x0:0x00000000
       45875000	      4586	8000670c	01d64133	xor	x2,x12,x29	 x12:0x92f21bff x29:0xa5553000  x2=0x37a72bff
       45885000	      4587	80006710	00005033	srl	x0,x0,x0	  x0:0x00000000  x0:0x00000000
       45895000	      4588	80006714	4b1e2513	slti	x10,x28,1201	 x28:0x00000000 x10=0x00000001
       45905000	      4589	80006718	018453b3	srl	x7,x8,x24	  x8:0x56500000 x24:0xfffffcd6  x7=0x00000159
       45915000	      4590	8000671c	0164a0b3	slt	x1,x9,x22	  x9:0x80008712 x22:0x7cd3266c  x1=0x00000001
       45925000	      4591	80006720	03e67863	bgeu	x12,x30,80006750	 x12:0x92f21bff x30:0x00000001
       45935000	      4592	00000000	00000013	addi	x0,x0,0	  x0:0x00000000
       45945000	      4593	8000674c	00000013	addi	x0,x0,0	  x0:0x00000000
       45955000	      4594	80006750	00bd2933	slt	x18,x26,x11	 x26:0xe813c000 x11:0x7fff623d x18=0x00000001
       45965000	      4595	80006754	59782693	slti	x13,x16,1431	 x16:0x92f21a7a x13=0x00000001
       45975000	      4596	80006758	00c60133	add	x2,x12,x12	 x12:0x92f21bff x12:0x92f21bff  x2=0x25e437fe
       45985000	      4597	8000675c	da67e113	ori	x2,x15,-602	 x15:0x80009f24  x2=0xffffffa6
       45995000	      4598	80006760	00000013	addi	x0,x0,0	  x0:0x00000000
       46005000	      4599	80006764	40208d33	sub	x26,x1,x2	  x1:0x00000001  x2:0xffffffa6 x26=0x0000005b
       46015000	      4600	80006768	01ab8ab3	add	x21,x23,x26	 x23:0xfffffff5 x26:0x0000005b x21=0x00000050
       46025000	      4601	8000676c	047bc063	blt	x23,x7,800067ac	 x23:0xfffffff5  x7:0x00000159
       46035000	      4602	00000000	00000013	addi	x0,x0,0	  x0:0x00000000
       46045000	      4603	800067a8	00000013	addi	x0,x0,0	  x0:0x00000000
       46055000	      4604	800067ac	c283fb13	andi	x22,x7,-984	  x7:0x00000159 x22=0x00000008
       46065000	      4605	800067b0	00a87db3	and	x27,x16,x10	 x16:0x92f21a7a x10:0x00000001 x27=0x00000000
       46075000	      4606	800067b4	02434463	blt	x6,x4,800067dc	  x6:0xf0000000  x4:0x00000000
       46085000	      4607	00000000	00000013	addi	x0,x0,0	  x0:0x00000000
       46095000	      4608	800067d8	00000013	addi	x0,x0,0	  x0:0x00000000
       46105000	      4609	800067dc	40315e33	sra	x28,x2,x3	  x2:0xffffffa6  x3:0x5a847000 x28=0xffffffa6
       46115000	      4610	800067e0	c70a4393	xori	x7,x20,-912	 x20:0x0000048b  x7=0xfffff8fb
       46125000	      4611	800067e4	01ba3db3	sltu	x27,x20,x27	 x20:0x0000048b x27:0x00000000 x27=0x00000000
       46135000	      4612	800067e8	00a68463	beq	x13,x10,800067f0	 x13:0x00000001 x10:0x00000001
       46145000	      4613	00000000	00000013	addi	x0,x0,0	  x0:0x00000000
       46155000	      4614	800067ec	00000013	addi	x0,x0,0	  x0:0x00000000
       46165000	      4615	800067f0	0078d413	srli	x8,x17,0x7	 x17:0x00000001  x8=0x00000000
       46175000	      4616	800067f4	00509033	sll	x0,x1,x5	  x1:0x00000001  x5:0x00000001
       46185000	      4617	800067f8	d4aeac13	slti	x24,x29,-694	 x29:0xa5553000 x24=0x00000001
       46195000	      4618	800067fc	00398433	add	x8,x19,x3	 x19:0x92f21a7a  x3:0x5a847000  x8=0xed768a7a
       46205000	      4619	80006800	01fe3d33	sltu	x26,x28,x31	 x28:0xffffffa6 x31:0x00000310 x26=0x00000000
       46215000	      4620	80006804	014176b3	and	x13,x2,x20	  x2:0xffffffa6 x20:0x0000048b x13=0x00000482
       46225000	      4621	80006808	68791397	auipc	x7,0x68791	  x7=0xe8797804
       46235000	      4622	8000680c	a6d79ab7	lui	x21,0xa6d79	 x21=0xa6d79000
       46245000	      4623	80006810	0047a303	lw	x6,4(x15)	 x15:0x80009f24  x6=0x80005014 PA:0x80009f28
       46255000	      4624	80006814	02078793	addi	x15,x15,32	 x15:0x80009f24 x15=0x80009f44
       46265000	      4625	80006818	81b16f13	ori	x30,x2,-2021	  x2:0xffffffa6 x30=0xffffffbf
       46275000	      4626	8000681c	00130c13	addi	x24,x6,1	  x6:0x80005014 x24=0x80005015
       46285000	      4627	80006820	000c0c67	jalr	x24,x24,0	 x24:0x80005015 x24=0x80006820
       46295000	      4628	00000000	00000013	addi	x0,x0,0	  x0:0x00000000
       46305000	      4629	80005014	00000013	addi	x0,x0,0	  x0:0x00000000
       46315000	      4630	80005018	04694863	blt	x18,x6,80005068	 x18:0x00000001  x6:0x80005014
       46325000	      4631	8000501c	00ab0263	beq	x22,x10,80005020	 x22:0x00000008 x10:0x00000001
       46335000	      4632	80005020	f6c18b13	addi	x22,x3,-148	  x3:0x5a847000 x22=0x5a846f6c
       46345000	      4633	80005024	01cc9133	sll	x2,x25,x28	 x25:0x80009fc4 x28:0xffffffa6  x2=0x0027f100
       46355000	      4634	80005028	00a5fbb3	and	x23,x11,x10	 x11:0x7fff623d x10:0x00000001 x23=0x00000001
       46365000	      4635	8000502c	b6c9ffb7	lui	x31,0xb6c9f	 x31=0xb6c9f000
       46375000	      4636	80005030	016738b3	sltu	x17,x14,x22	 x14:0x09b4e000 x22:0x5a846f6c x17=0x00000001
       46385000	      4637	80005034	410a0393	addi	x7,x20,1040	 x20:0x0000048b  x7=0x0000089b
       46395000	      4638	80005038	009474b3	and	x9,x8,x9	  x8:0xed768a7a  x9:0x80008712  x9=0x80008212
       46405000	      4639	8000503c	0023da33	srl	x20,x7,x2	  x7:0x0000089b  x2:0x0027f100 x20=0x0000089b
       46415000	      4640	80005040	01bc85b3	add	x11,x25,x27	 x25:0x80009fc4 x27:0x00000000 x11=0x80009fc4
       46425000	      4641	80005044	0172e1b3	or	x3,x5,x23	  x5:0x00000001 x23:0x00000001  x3=0x00000001
       46435000	      4642	80005048	0020db13	srli	x22,x1,0x2	  x1:0x00000001 x22=0x00000000
       46445000	      4643	8000504c	01569463	bne	x13,x21,80005054	 x13:0x00000482 x21:0xa6d79000
       46455000	      4644	00000000	00000013	addi	x0,x0,0	  x0:0x00000000
       46465000	      4645	80005050	00000013	addi	x0,x0,0	  x0:0x00000000
       46475000	      4646	80005054	00915633	srl	x12,x2,x9	  x2:0x0027f100  x9:0x80008212 x12=0x00000009
       46485000	      4647	80005058	011c85b3	add	x11,x25,x17	 x25:0x80009fc4 x17:0x00000001 x11=0x80009fc5
       46495000	      4648	8000505c	403306b3	sub	x13,x6,x3	  x6:0x80005014  x3:0x00000001 x13=0x80005013
       46505000	      4649	80005060	0449f063	bgeu	x19,x4,800050a0	 x19:0x92f21a7a  x4:0x00000000
       46515000	      4650	00000000	00000013	addi	x0,x0,0	  x0:0x00000000
       46525000	      4651	8000509c	00000013	addi	x0,x0,0	  x0:0x00000000
       46535000	      4652	800050a0	01107eb3	and	x29,x0,x17	  x0:0x00000000 x17:0x00000001 x29=0x00000000
       46545000	      4653	800050a4	395ab013	sltiu	x0,x21,917	 x21:0xa6d79000
       46555000	      4654	800050a8	008df133	and	x2,x27,x8	 x27:0x00000000  x8:0xed768a7a  x2=0x00000000
       46565000	      4655	800050ac	01a265b3	or	x11,x4,x26	  x4:0x00000000 x26:0x00000000 x11=0x00000000
       46575000	      4656	800050b0	8a74ba13	sltiu	x20,x9,-1881	  x9:0x80008212 x20=0x00000001
       46585000	      4657	800050b4	00000013	addi	x0,x0,0	  x0:0x00000000
       46595000	      4658	800050b8	413ed893	srai	x17,x29,0x13	 x29:0x00000000 x17=0x00000000
       46605000	      4659	800050bc	43cce393	ori	x7,x25,1084	 x25:0x80009fc4  x7=0x80009ffc
       46615000	      4660	800050c0	dfe50013	addi	x0,x10,-514	 x10:0x00000001
       46625000	      4661	800050c4	00c39a63	bne	x7,x12,800050d8	  x7:0x80009ffc x12:0x00000009
       46635000	      4662	00000000	00000013	addi	x0,x0,0	  x0:0x00000000
       46645000	      4663	800050d4	00000013	addi	x0,x0,0	  x0:0x00000000
       46655000	      4664	800050d8	01a8e3b3	or	x7,x17,x26	 x17:0x00000000 x26:0x00000000  x7=0x00000000
       46665000	      4665	800050dc	01edd933	srl	x18,x27,x30	 x27:0x00000000 x30:0xffffffbf x18=0x00000000
       46675000	      4666	800050e0	748d7193	andi	x3,x26,1864	 x26:0x00000000  x3=0x00000000
       46685000	      4667	800050e4	01327d33	and	x26,x4,x19	  x4:0x00000000 x19:0x92f21a7a x26=0x00000000
       46695000	      4668	800050e8	0047a303	lw	x6,4(x15)	 x15:0x80009f44  x6=0x80001818 PA:0x80009f48
       46705000	      4669	800050ec	9d055237	lui	x4,0x9d055	  x4=0x9d055000
       46715000	      4670	800050f0	00adb8b3	sltu	x17,x27,x10	 x27:0x00000000 x10:0x00000001 x17=0x00000001
       46725000	      4671	800050f4	01878793	addi	x15,x15,24	 x15:0x80009f44 x15=0x80009f5c
       46735000	      4672	800050f8	01b33d33	sltu	x26,x6,x27	  x6:0x80001818 x27:0x00000000 x26=0x00000000
       46745000	      4673	800050fc	00030d93	addi	x27,x6,0	  x6:0x80001818 x27=0x80001818
       46755000	      4674	80005100	000d8de7	jalr	x27,x27,0	 x27:0x80001818 x27=0x80005100
       46765000	      4675	00000000	00000013	addi	x0,x0,0	  x0:0x00000000
       46775000	      4676	80001818	00000013	addi	x0,x0,0	  x0:0x00000000
       46785000	      4677	8000181c	00000013	addi	x0,x0,0	  x0:0x00000000
       46795000	      4678	80001820	052f1263	bne	x30,x18,80001864	 x30:0xffffffbf x18:0x00000000
       46805000	      4679	00000000	00000013	addi	x0,x0,0	  x0:0x00000000
       46815000	      4680	80001860	00000013	addi	x0,x0,0	  x0:0x00000000
       46825000	      4681	80001864	c4c6b813	sltiu	x16,x13,-948	 x13:0x80005013 x16=0x00000001
       46835000	      4682	80001868	b2cda393	slti	x7,x27,-1236	 x27:0x80005100  x7=0x00000001
       46845000	      4683	8000186c	40f08d33	sub	x26,x1,x15	  x1:0x00000001 x15:0x80009f5c x26=0x7fff60a5
       46855000	      4684	80001870	00839fb3	sll	x31,x7,x8	  x7:0x00000001  x8:0xed768a7a x31=0x04000000
       46865000	      4685	80001874	0068c233	xor	x4,x17,x6	 x17:0x00000001  x6:0x80001818  x4=0x80001819
       46875000	      4686	80001878	01115fb3	srl	x31,x2,x17	  x2:0x00000000 x17:0x00000001 x31=0x00000000
       46885000	      4687	8000187c	00000013	addi	x0,x0,0	  x0:0x00000000
       46895000	      4688	80001880	411e5313	srai	x6,x28,0x11	 x28:0xffffffa6  x6=0xffffffff
       46905000	      4689	80001884	0cd3fa93	andi	x21,x7,205	  x7:0x00000001 x21=0x00000001
       46915000	      4690	80001888	0047a303	lw	x6,4(x15)	 x15:0x80009f5c  x6=0x8000054c PA:0x80009f60
       46925000	      4691	8000188c	c3ea0393	addi	x7,x20,-962	 x20:0x00000001  x7=0xfffffc3f
       46935000	      4692	80001890	40f1d3b3	sra	x7,x3,x15	  x3:0x00000000 x15:0x80009f5c  x7=0x00000000
       46945000	      4693	80001894	02878793	addi	x15,x15,40	 x15:0x80009f5c x15=0x80009f84
       46955000	      4694	80001898	01789f13	slli	x30,x17,0x17	 x17:0x00000001 x30=0x00800000
       46965000	      4695	8000189c	00130113	addi	x2,x6,1	  x6:0x8000054c  x2=0x8000054d
       46975000	      4696	800018a0	00010167	jalr	x2,x2,0	  x2:0x8000054d  x2=0x800018a0
       46985000	      4697	00000000	00000013	addi	x0,x0,0	  x0:0x00000000
       46995000	      4698	8000054c	00000013	addi	x0,x0,0	  x0:0x00000000
       47005000	      4699	80000550	03144e63	blt	x8,x17,8000058c	  x8:0xed768a7a x17:0x00000001
       47015000	      4700	00000000	00000013	addi	x0,x0,0	  x0:0x00000000
       47025000	      4701	80000588	00000013	addi	x0,x0,0	  x0:0x00000000
       47035000	      4702	8000058c	ad3bb293	sltiu	x5,x23,-1325	 x23:0x00000001  x5=0x00000001
       47045000	      4703	80000590	409356b3	sra	x13,x6,x9	  x6:0x8000054c  x9:0x80008212 x13=0xffffe000
       47055000	      4704	80000594	00fd9863	bne	x27,x15,800005a4	 x27:0x80005100 x15:0x80009f84
       47065000	      4705	00000000	00000013	addi	x0,x0,0	  x0:0x00000000
       47075000	      4706	800005a0	00000013	addi	x0,x0,0	  x0:0x00000000
       47085000	      4707	800005a4	c7516893	ori	x17,x2,-907	  x2:0x800018a0 x17=0xfffffcf5
       47095000	      4708	800005a8	40f880b3	sub	x1,x17,x15	 x17:0xfffffcf5 x15:0x80009f84  x1=0x7fff5d71
       47105000	      4709	800005ac	00a0e133	or	x2,x1,x10	  x1:0x7fff5d71 x10:0x00000001  x2=0x7fff5d71
       47115000	      4710	800005b0	00c95263	bge	x18,x12,800005b4	 x18:0x00000000 x12:0x00000009
       47125000	      4711	800005b4	00565b33	srl	x22,x12,x5	 x12:0x00000009  x5:0x00000001 x22=0x00000004
       47135000	      4712	800005b8	00000997	auipc	x19,0x0	 x19=0x800005b4
       47145000	      4713	800005bc	00c98993	addi	x19,x19,12	 x19:0x800005b4 x19=0x800005c0
       47155000	      4714	800005c0	00098067	jalr	x0,x19,0	 x19:0x800005c0
       47165000	      4715	00000000	00000013	addi	x0,x0,0	  x0:0x00000000
       47175000	      4716	800005c0	00000013	addi	x0,x0,0	  x0:0x00000000
       47185000	      4717	800005c4	00100193	addi	x3,x0,1	  x0:0x00000000  x3=0x00000001
       47195000	      4718	800005c8	00000073	ecall	
       47205000	      4719	800005cc	014f7263	bgeu	x30,x20,800005d0	 x30:0x00800000 x20:0x00000001
