		Time			Cycle	PC		Insn	Decoded instruction	Register and memory contents
          65000	         5	80000004	00000293	addi	x5,x0,0	  x0:0x00000000  x5=0x00000000
          75000	         6	80000008	00000313	addi	x6,x0,0	  x0:0x00000000  x6=0x00000000
          85000	         7	8000000c	00628263	beq	x5,x6,80000010	  x5:0x00000000  x6:0x00000000
          95000	         8	00000000	00000013	addi	x0,x0,0	  x0:0x00000000
         105000	         9	8000000c	00000013	addi	x0,x0,0	  x0:0x00000000
         115000	        10	80000010	00000d17	auipc	x26,0x0	 x26=0x8000000c
         125000	        11	80000014	00cd0d13	addi	x26,x26,12	 x26:0x8000000c x26=0x80000018
         135000	        12	80000018	000d0067	jalr	x0,x26,0	 x26:0x80000018
         145000	        13	00000000	00000013	addi	x0,x0,0	  x0:0x00000000
         155000	        14	80000018	00000013	addi	x0,x0,0	  x0:0x00000000
         165000	        15	8000001c	40000c37	lui	x24,0x40000	 x24=0x40000000
         175000	        16	80000020	100c0c13	addi	x24,x24,256	 x24:0x40000000 x24=0x40000100
         185000	        17	80000024	00000013	addi	x0,x0,0	  x0:0x00000000
         195000	        18	80000028	0000a797	auipc	x15,0xa	 x15=0x8000a024
         205000	        19	8000002c	fa078793	addi	x15,x15,-96	 x15:0x8000a024 x15=0x80009fc4
         215000	        20	80000030	00007c17	auipc	x24,0x7	 x24=0x8000702c
         225000	        21	80000034	c5cc0c13	addi	x24,x24,-932	 x24:0x8000702c x24=0x80006c88
         235000	        22	80000038	000c6c13	ori	x24,x24,0	 x24:0x80006c88 x24=0x80006c88
         245000	        23	8000003c	00000013	addi	x0,x0,0	  x0:0x00000000
         255000	        24	80000040	00000c17	auipc	x24,0x0	 x24=0x8000003c
         265000	        25	80000044	020c0c13	addi	x24,x24,32	 x24:0x8000003c x24=0x8000005c
         275000	        26	80000048	00000013	addi	x0,x0,0	  x0:0x00000000
         285000	        27	8000004c	00000013	addi	x0,x0,0	  x0:0x00000000
         295000	        28	80000050	00002c37	lui	x24,0x2	 x24=0x00002000
         305000	        29	80000054	800c0c13	addi	x24,x24,-2048	 x24:0x00002000 x24=0x00001800
         315000	        30	80000058	00000013	addi	x0,x0,0	  x0:0x00000000
         325000	        31	8000005c	00000013	addi	x0,x0,0	  x0:0x00000000
         335000	        32	80000060	00000013	addi	x0,x0,0	  x0:0x00000000
         345000	        33	80000064	00000093	addi	x1,x0,0	  x0:0x00000000  x1=0x00000000
         355000	        34	80000068	00200113	addi	x2,x0,2	  x0:0x00000000  x2=0x00000002
         365000	        35	8000006c	00000193	addi	x3,x0,0	  x0:0x00000000  x3=0x00000000
         375000	        36	80000070	00a00213	addi	x4,x0,10	  x0:0x00000000  x4=0x0000000a
         385000	        37	80000074	00700293	addi	x5,x0,7	  x0:0x00000000  x5=0x00000007
         395000	        38	80000078	00000313	addi	x6,x0,0	  x0:0x00000000  x6=0x00000000
         405000	        39	8000007c	9c6483b7	lui	x7,0x9c648	  x7=0x9c648000
         415000	        40	80000080	ee838393	addi	x7,x7,-280	  x7:0x9c648000  x7=0x9c647ee8
         425000	        41	80000084	2b433437	lui	x8,0x2b433	  x8=0x2b433000
         435000	        42	80000088	47d40413	addi	x8,x8,1149	  x8:0x2b433000  x8=0x2b43347d
         445000	        43	8000008c	800004b7	lui	x9,0x80000	  x9=0x80000000
         455000	        44	80000090	80000537	lui	x10,0x80000	 x10=0x80000000
         465000	        45	80000094	fa7b65b7	lui	x11,0xfa7b6	 x11=0xfa7b6000
         475000	        46	80000098	35358593	addi	x11,x11,851	 x11:0xfa7b6000 x11=0xfa7b6353
         485000	        47	8000009c	80000637	lui	x12,0x80000	 x12=0x80000000
         495000	        48	800000a0	ecc4c6b7	lui	x13,0xecc4c	 x13=0xecc4c000
         505000	        49	800000a4	7a268693	addi	x13,x13,1954	 x13:0xecc4c000 x13=0xecc4c7a2
         515000	        50	800000a8	f2ccc737	lui	x14,0xf2ccc	 x14=0xf2ccc000
         525000	        51	800000ac	67f70713	addi	x14,x14,1663	 x14:0xf2ccc000 x14=0xf2ccc67f
         535000	        52	800000b0	00000813	addi	x16,x0,0	  x0:0x00000000 x16=0x00000000
         545000	        53	800000b4	00000913	addi	x18,x0,0	  x0:0x00000000 x18=0x00000000
         555000	        54	800000b8	00000993	addi	x19,x0,0	  x0:0x00000000 x19=0x00000000
         565000	        55	800000bc	00700a13	addi	x20,x0,7	  x0:0x00000000 x20=0x00000007
         575000	        56	800000c0	80000ab7	lui	x21,0x80000	 x21=0x80000000
         585000	        57	800000c4	80000b37	lui	x22,0x80000	 x22=0x80000000
         595000	        58	800000c8	80000bb7	lui	x23,0x80000	 x23=0x80000000
         605000	        59	800000cc	80000c37	lui	x24,0x80000	 x24=0x80000000
         615000	        60	800000d0	00000c93	addi	x25,x0,0	  x0:0x00000000 x25=0x00000000
         625000	        61	800000d4	00400d13	addi	x26,x0,4	  x0:0x00000000 x26=0x00000004
         635000	        62	800000d8	00900d93	addi	x27,x0,9	  x0:0x00000000 x27=0x00000009
         645000	        63	800000dc	80000e37	lui	x28,0x80000	 x28=0x80000000
         655000	        64	800000e0	00000e93	addi	x29,x0,0	  x0:0x00000000 x29=0x00000000
         665000	        65	800000e4	f7ff5f37	lui	x30,0xf7ff5	 x30=0xf7ff5000
         675000	        66	800000e8	197f0f13	addi	x30,x30,407	 x30:0xf7ff5000 x30=0xf7ff5197
         685000	        67	800000ec	f7b52fb7	lui	x31,0xf7b52	 x31=0xf7b52000
         695000	        68	800000f0	bdef8f93	addi	x31,x31,-1058	 x31:0xf7b52000 x31=0xf7b51bde
         705000	        69	800000f4	0000a897	auipc	x17,0xa	 x17=0x8000a0f0
         715000	        70	800000f8	e9488893	addi	x17,x17,-364	 x17:0x8000a0f0 x17=0x80009f84
         725000	        71	800000fc	00008e17	auipc	x28,0x8	 x28=0x800080f8
         735000	        72	80000100	2bde0e13	addi	x28,x28,701	 x28:0x800080f8 x28=0x800083b5
         745000	        73	80000104	0a7e0503	lb	x10,167(x28)	 x28:0x800083b5 x10=0x0000002c PA:0x8000845c
         755000	        74	80000108	b7f2eb93	ori	x23,x5,-1153	  x5:0x00000007 x23=0xfffffb7f
         765000	        75	8000010c	065e1203	lh	x4,101(x28)	 x28:0x800083b5  x4=0x00005553 PA:0x8000841a
         775000	        76	80000110	fd5e0223	sb	x21,-60(x28)	 x28:0x800083b5 x21:0x80000000 PA:0x80008379
         785000	        77	80000114	641a6b13	ori	x22,x20,1601	 x20:0x00000007 x22=0x00000647
         795000	        78	80000118	023e0523	sb	x3,42(x28)	 x28:0x800083b5  x3:0x00000000 PA:0x800083df
         805000	        79	8000011c	415fd433	sra	x8,x31,x21	 x31:0xf7b51bde x21:0x80000000  x8=0xf7b51bde
         815000	        80	80000120	088e05a3	sb	x8,139(x28)	 x28:0x800083b5  x8:0xf7b51bde PA:0x80008440
         825000	        81	80000124	000d2f33	slt	x30,x26,x0	 x26:0x00000004  x0:0x00000000 x30=0x00000000
         835000	        82	80000128	fe3e2103	lw	x2,-29(x28)	 x28:0x800083b5  x2=0x37451dfe PA:0x80008398
         845000	        83	8000012c	016a2733	slt	x14,x20,x22	 x20:0x00000007 x22:0x00000647 x14=0x00000001
         855000	        84	80000130	00d23cb3	sltu	x25,x4,x13	  x4:0x00005553 x13:0xecc4c7a2 x25=0x00000001
         865000	        85	80000134	41c75213	srai	x4,x14,0x1c	 x14:0x00000001  x4=0x00000000
         875000	        86	80000138	41f50f33	sub	x30,x10,x31	 x10:0x0000002c x31:0xf7b51bde x30=0x084ae44e
         885000	        87	8000013c	09de5d83	lhu	x27,157(x28)	 x28:0x800083b5 x27=0x000097f2 PA:0x80008452
         895000	        88	80000140	01082cb3	slt	x25,x16,x16	 x16:0x00000000 x16:0x00000000 x25=0x00000000
         905000	        89	80000144	008e0923	sb	x8,18(x28)	 x28:0x800083b5  x8:0xf7b51bde PA:0x800083c7
         915000	        90	80000148	fb8e0b03	lb	x22,-72(x28)	 x28:0x800083b5 x22=0xffffff83 PA:0x8000836d
         925000	        91	8000014c	00000013	addi	x0,x0,0	  x0:0x00000000
         935000	        92	80000150	f36e4b83	lbu	x23,-202(x28)	 x28:0x800083b5 x23=0x0000002b PA:0x800082eb
         945000	        93	80000154	415cd9b3	sra	x19,x25,x21	 x25:0x00000000 x21:0x80000000 x19=0x00000000
         955000	        94	80000158	f1af8013	addi	x0,x31,-230	 x31:0xf7b51bde
         965000	        95	8000015c	ff6e0123	sb	x22,-30(x28)	 x28:0x800083b5 x22:0xffffff83 PA:0x80008397
         975000	        96	80000160	c8de3193	sltiu	x3,x28,-883	 x28:0x800083b5  x3=0x00000001
         985000	        97	80000164	00000013	addi	x0,x0,0	  x0:0x00000000
         995000	        98	80000168	fcfe5803	lhu	x16,-49(x28)	 x28:0x800083b5 x16=0x00001954 PA:0x80008384
        1005000	        99	8000016c	d2fb4b93	xori	x23,x22,-721	 x22:0xffffff83 x23=0x000002ac
        1015000	       100	80000170	f1ce0fa3	sb	x28,-225(x28)	 x28:0x800083b5 x28:0x800083b5 PA:0x800082d4
        1025000	       101	80000174	007e4003	lbu	x0,7(x28)	 x28:0x800083b5 PA:0x800083bc
        1035000	       102	80000178	009a8c33	add	x24,x21,x9	 x21:0x80000000  x9:0x80000000 x24=0x00000000
        1045000	       103	8000017c	001e0e83	lb	x29,1(x28)	 x28:0x800083b5 x29=0x0000006a PA:0x800083b6
        1055000	       104	80000180	fc6e4483	lbu	x9,-58(x28)	 x28:0x800083b5  x9=0x000000de PA:0x8000837b
        1065000	       105	80000184	0197d493	srli	x9,x15,0x19	 x15:0x80009fc4  x9=0x00000040
        1075000	       106	80000188	000ee0b3	or	x1,x29,x0	 x29:0x0000006a  x0:0x00000000  x1=0x0000006a
        1085000	       107	8000018c	01921493	slli	x9,x4,0x19	  x4:0x00000000  x9=0x00000000
        1095000	       108	80000190	00c402b3	add	x5,x8,x12	  x8:0xf7b51bde x12:0x80000000  x5=0x77b51bde
        1105000	       109	80000194	f0de5683	lhu	x13,-243(x28)	 x28:0x800083b5 x13=0x000038f8 PA:0x800082c2
        1115000	       110	80000198	004e0d83	lb	x27,4(x28)	 x28:0x800083b5 x27=0xffffffbf PA:0x800083b9
        1125000	       111	8000019c	059e0583	lb	x11,89(x28)	 x28:0x800083b5 x11=0x00000017 PA:0x8000840e
        1135000	       112	800001a0	00c7c933	xor	x18,x15,x12	 x15:0x80009fc4 x12:0x80000000 x18=0x00009fc4
        1145000	       113	800001a4	00f02133	slt	x2,x0,x15	  x0:0x00000000 x15:0x80009fc4  x2=0x00000000
        1155000	       114	800001a8	fade4083	lbu	x1,-83(x28)	 x28:0x800083b5  x1=0x00000022 PA:0x80008362
        1165000	       115	800001ac	f1ae0923	sb	x26,-238(x28)	 x28:0x800083b5 x26:0x00000004 PA:0x800082c7
        1175000	       116	800001b0	0cae4a83	lbu	x21,202(x28)	 x28:0x800083b5 x21=0x000000c0 PA:0x8000847f
        1185000	       117	800001b4	fcce0f83	lb	x31,-52(x28)	 x28:0x800083b5 x31=0x00000022 PA:0x80008381
        1195000	       118	800001b8	0dce4f83	lbu	x31,220(x28)	 x28:0x800083b5 x31=0x000000da PA:0x80008491
        1205000	       119	800001bc	050e4503	lbu	x10,80(x28)	 x28:0x800083b5 x10=0x00000034 PA:0x80008405
        1215000	       120	800001c0	f7ee1ea3	sh	x30,-131(x28)	 x28:0x800083b5 x30:0x084ae44e PA:0x80008332
        1225000	       121	800001c4	0076e4b3	or	x9,x13,x7	 x13:0x000038f8  x7:0x9c647ee8  x9=0x9c647ef8
        1235000	       122	800001c8	00000013	addi	x0,x0,0	  x0:0x00000000
        1245000	       123	800001cc	fc2e0983	lb	x19,-62(x28)	 x28:0x800083b5 x19=0xffffffff PA:0x80008377
        1255000	       124	800001d0	97996193	ori	x3,x18,-1671	 x18:0x00009fc4  x3=0xfffffffd
        1265000	       125	800001d4	0a84f197	auipc	x3,0xa84f	  x3=0x8a84f1d0
        1275000	       126	800001d8	4e54cc93	xori	x25,x9,1253	  x9:0x9c647ef8 x25=0x9c647a1d
        1285000	       127	800001dc	e1a34593	xori	x11,x6,-486	  x6:0x00000000 x11=0xfffffe1a
        1295000	       128	800001e0	00006297	auipc	x5,0x6	  x5=0x800061dc
        1305000	       129	800001e4	a6c28293	addi	x5,x5,-1428	  x5:0x800061dc  x5=0x80005c48
        1315000	       130	800001e8	41a03513	sltiu	x10,x0,1050	  x0:0x00000000 x10=0x00000001
        1325000	       131	800001ec	012edf33	srl	x30,x29,x18	 x29:0x0000006a x18:0x00009fc4 x30=0x00000006
        1335000	       132	800001f0	d4f28293	addi	x5,x5,-689	  x5:0x80005c48  x5=0x80005997
        1345000	       133	800001f4	008caeb3	slt	x29,x25,x8	 x25:0x9c647a1d  x8:0xf7b51bde x29=0x00000001
        1355000	       134	800001f8	01b27033	and	x0,x4,x27	  x4:0x00000000 x27:0xffffffbf
        1365000	       135	800001fc	8e262e13	slti	x28,x12,-1822	 x12:0x80000000 x28=0x00000001
        1375000	       136	80000200	00b506b3	add	x13,x10,x11	 x10:0x00000001 x11:0xfffffe1a x13=0xfffffe1b
        1385000	       137	80000204	01d3b233	sltu	x4,x7,x29	  x7:0x9c647ee8 x29:0x00000001  x4=0x00000000
        1395000	       138	80000208	2b2280e7	jalr	x1,x5,690	  x5:0x80005997  x1=0x80000208
        1405000	       139	00000000	00000013	addi	x0,x0,0	  x0:0x00000000
        1415000	       140	80005c48	00000013	addi	x0,x0,0	  x0:0x00000000
        1425000	       141	80005c4c	fdc88893	addi	x17,x17,-36	 x17:0x80009f84 x17=0x80009f60
        1435000	       142	80005c50	47ca2113	slti	x2,x20,1148	 x20:0x00000007  x2=0x00000001
        1445000	       143	80005c54	01be24b3	slt	x9,x28,x27	 x28:0x00000001 x27:0xffffffbf  x9=0x00000000
        1455000	       144	80005c58	00a91e93	slli	x29,x18,0xa	 x18:0x00009fc4 x29=0x027f1000
        1465000	       145	80005c5c	ab6e7813	andi	x16,x28,-1354	 x28:0x00000001 x16=0x00000000
        1475000	       146	80005c60	40ef5393	srai	x7,x30,0xe	 x30:0x00000006  x7=0x00000000
        1485000	       147	80005c64	006ee833	or	x16,x29,x6	 x29:0x027f1000  x6:0x00000000 x16=0x027f1000
        1495000	       148	80005c68	0018a223	sw	x1,4(x17)	 x17:0x80009f60  x1:0x80000208 PA:0x80009f64
        1505000	       149	80005c6c	2c109617	auipc	x12,0x2c109	 x12=0xac10ec68
        1515000	       150	80005c70	0015df33	srl	x30,x11,x1	 x11:0xfffffe1a  x1:0x80000208 x30=0x00fffffe
        1525000	       151	80005c74	f263c813	xori	x16,x7,-218	  x7:0x00000000 x16=0xffffff26
        1535000	       152	80005c78	40b30eb3	sub	x29,x6,x11	  x6:0x00000000 x11:0xfffffe1a x29=0x000001e6
        1545000	       153	80005c7c	01f38833	add	x16,x7,x31	  x7:0x00000000 x31:0x000000da x16=0x000000da
        1555000	       154	80005c80	402d83b3	sub	x7,x27,x2	 x27:0xffffffbf  x2:0x00000001  x7=0xffffffbe
        1565000	       155	80005c84	01a67333	and	x6,x12,x26	 x12:0xac10ec68 x26:0x00000004  x6=0x00000000
        1575000	       156	80005c88	001b1c33	sll	x24,x22,x1	 x22:0xffffff83  x1:0x80000208 x24=0xffff8300
        1585000	       157	80005c8c	b4bab537	lui	x10,0xb4bab	 x10=0xb4bab000
        1595000	       158	80005c90	4db63297	auipc	x5,0x4db63	  x5=0xcdb68c8c
        1605000	       159	80005c94	011c4463	blt	x24,x17,80005c9c	 x24:0xffff8300 x17:0x80009f60
        1615000	       160	80005c98	3b796397	auipc	x7,0x3b796	  x7=0xbb79bc94
        1625000	       161	80005c9c	0cd000ef	jal	x1,80005c9c	  x1=0x80005c9c
        1635000	       162	00000000	00000013	addi	x0,x0,0	  x0:0x00000000
        1645000	       163	80006564	00000013	addi	x0,x0,0	  x0:0x00000000
        1655000	       164	80006568	152ae913	ori	x18,x21,338	 x21:0x000000c0 x18=0x000001d2
        1665000	       165	8000656c	ff488893	addi	x17,x17,-12	 x17:0x80009f60 x17=0x80009f54
        1675000	       166	80006570	47e97c93	andi	x25,x18,1150	 x18:0x000001d2 x25=0x00000052
        1685000	       167	80006574	0f404c93	xori	x25,x0,244	  x0:0x00000000 x25=0x000000f4
        1695000	       168	80006578	001bddb3	srl	x27,x23,x1	 x23:0x000002ac  x1:0x80005c9c x27=0x00000000
        1705000	       169	8000657c	008b1bb3	sll	x23,x22,x8	 x22:0xffffff83  x8:0xf7b51bde x23=0xc0000000
        1715000	       170	80006580	b52d5297	auipc	x5,0xb52d5	  x5=0x352db57c
        1725000	       171	80006584	0018a223	sw	x1,4(x17)	 x17:0x80009f54  x1:0x80005c9c PA:0x80009f58
        1735000	       172	80006588	01c103b3	add	x7,x2,x28	  x2:0x00000001 x28:0x00000001  x7=0x00000002
        1745000	       173	8000658c	01344633	xor	x12,x8,x19	  x8:0xf7b51bde x19:0xffffffff x12=0x084ae421
        1755000	       174	80006590	004444b3	xor	x9,x8,x4	  x8:0xf7b51bde  x4:0x00000000  x9=0xf7b51bde
        1765000	       175	80006594	443e4613	xori	x12,x28,1091	 x28:0x00000001 x12=0x00000442
        1775000	       176	80006598	0421e863	bltu	x3,x2,800065e8	  x3:0x8a84f1d0  x2:0x00000001
        1785000	       177	8000659c	0120e733	or	x14,x1,x18	  x1:0x80005c9c x18:0x000001d2 x14=0x80005dde
        1795000	       178	800065a0	02665063	bge	x12,x6,800065c0	 x12:0x00000442  x6:0x00000000
        1805000	       179	00000000	00000013	addi	x0,x0,0	  x0:0x00000000
        1815000	       180	800065bc	00000013	addi	x0,x0,0	  x0:0x00000000
        1825000	       181	800065c0	416905b3	sub	x11,x18,x22	 x18:0x000001d2 x22:0xffffff83 x11=0x0000024f
        1835000	       182	800065c4	28786e13	ori	x28,x16,647	 x16:0x000000da x28=0x000002df
        1845000	       183	800065c8	40d20db3	sub	x27,x4,x13	  x4:0x00000000 x13:0xfffffe1b x27=0x000001e5
        1855000	       184	800065cc	03757063	bgeu	x10,x23,800065ec	 x10:0xb4bab000 x23:0xc0000000
        1865000	       185	800065d0	6e1f6213	ori	x4,x30,1761	 x30:0x00fffffe  x4=0x00ffffff
        1875000	       186	800065d4	00d27bb3	and	x23,x4,x13	  x4:0x00ffffff x13:0xfffffe1b x23=0x00fffe1b
        1885000	       187	800065d8	00000013	addi	x0,x0,0	  x0:0x00000000
        1895000	       188	800065dc	01a4f663	bgeu	x9,x26,800065e8	  x9:0xf7b51bde x26:0x00000004
        1905000	       189	00000000	00000013	addi	x0,x0,0	  x0:0x00000000
        1915000	       190	800065e4	00000013	addi	x0,x0,0	  x0:0x00000000
        1925000	       191	800065e8	41ca5393	srai	x7,x20,0x1c	 x20:0x00000007  x7=0x00000000
        1935000	       192	800065ec	871d7293	andi	x5,x26,-1935	 x26:0x00000004  x5=0x00000000
        1945000	       193	800065f0	004bdf33	srl	x30,x23,x4	 x23:0x00fffe1b  x4:0x00ffffff x30=0x00000000
        1955000	       194	800065f4	0048a083	lw	x1,4(x17)	 x17:0x80009f54  x1=0x80005c9c PA:0x80009f58
        1965000	       195	800065f8	00c88893	addi	x17,x17,12	 x17:0x80009f54 x17=0x80009f60
        1975000	       196	800065fc	a0906c93	ori	x25,x0,-1527	  x0:0x00000000 x25=0xfffffa09
        1985000	       197	80006600	18cfb393	sltiu	x7,x31,396	 x31:0x000000da  x7=0x00000001
        1995000	       198	80006604	01c8f3b3	and	x7,x17,x28	 x17:0x80009f60 x28:0x000002df  x7=0x00000240
        2005000	       199	80006608	00008593	addi	x11,x1,0	  x1:0x80005c9c x11=0x80005c9c
        2015000	       200	8000660c	000585e7	jalr	x11,x11,0	 x11:0x80005c9c x11=0x8000660c
        2025000	       201	00000000	00000013	addi	x0,x0,0	  x0:0x00000000
        2035000	       202	80005c9c	00000013	addi	x0,x0,0	  x0:0x00000000
        2045000	       203	80005ca0	8d8efe93	andi	x29,x29,-1832	 x29:0x000001e6 x29=0x000000c0
        2055000	       204	80005ca4	4beeb237	lui	x4,0x4beeb	  x4=0x4beeb000
        2065000	       205	80005ca8	b47ecdb7	lui	x27,0xb47ec	 x27=0xb47ec000
        2075000	       206	80005cac	3cd5c913	xori	x18,x11,973	 x11:0x8000660c x18=0x800065c1
        2085000	       207	80005cb0	004ed933	srl	x18,x29,x4	 x29:0x000000c0  x4:0x4beeb000 x18=0x000000c0
        2095000	       208	80005cb4	e1277693	andi	x13,x14,-494	 x14:0x80005dde x13=0x80005c12
        2105000	       209	80005cb8	0185e5b3	or	x11,x11,x24	 x11:0x8000660c x24:0xffff8300 x11=0xffffe70c
        2115000	       210	80005cbc	001879b3	and	x19,x16,x1	 x16:0x000000da  x1:0x80005c9c x19=0x00000098
        2125000	       211	80005cc0	151000ef	jal	x1,80005cc0	  x1=0x80005cc0
        2135000	       212	00000000	00000013	addi	x0,x0,0	  x0:0x00000000
        2145000	       213	8000660c	00000013	addi	x0,x0,0	  x0:0x00000000
        2155000	       214	80006610	006a9663	bne	x21,x6,8000661c	 x21:0x000000c0  x6:0x00000000
        2165000	       215	00000000	00000013	addi	x0,x0,0	  x0:0x00000000
        2175000	       216	80006618	00000013	addi	x0,x0,0	  x0:0x00000000
        2185000	       217	8000661c	ff088893	addi	x17,x17,-16	 x17:0x80009f60 x17=0x80009f50
        2195000	       218	80006620	00e27233	and	x4,x4,x14	  x4:0x4beeb000 x14:0x80005dde  x4=0x00001000
        2205000	       219	80006624	00f89013	slli	x0,x17,0xf	 x17:0x80009f50
        2215000	       220	80006628	69bc6d93	ori	x27,x24,1691	 x24:0xffff8300 x27=0xffff879b
        2225000	       221	8000662c	41408cb3	sub	x25,x1,x20	  x1:0x80005cc0 x20:0x00000007 x25=0x80005cb9
        2235000	       222	80006630	0018a223	sw	x1,4(x17)	 x17:0x80009f50  x1:0x80005cc0 PA:0x80009f54
        2245000	       223	80006634	01efef33	or	x30,x31,x30	 x31:0x000000da x30:0x00000000 x30=0x000000da
        2255000	       224	80006638	01b2cb33	xor	x22,x5,x27	  x5:0x00000000 x27:0xffff879b x22=0xffff879b
        2265000	       225	8000663c	01559833	sll	x16,x11,x21	 x11:0xffffe70c x21:0x000000c0 x16=0xffffe70c
        2275000	       226	80006640	01920c63	beq	x4,x25,80006658	  x4:0x00001000 x25:0x80005cb9
        2285000	       227	80006644	01b69663	bne	x13,x27,80006650	 x13:0x80005c12 x27:0xffff879b
        2295000	       228	00000000	00000013	addi	x0,x0,0	  x0:0x00000000
        2305000	       229	8000664c	00000013	addi	x0,x0,0	  x0:0x00000000
        2315000	       230	80006650	0009fc33	and	x24,x19,x0	 x19:0x00000098  x0:0x00000000 x24=0x00000000
        2325000	       231	80006654	64296397	auipc	x7,0x64296	  x7=0xe429c650
        2335000	       232	80006658	01751093	slli	x1,x10,0x17	 x10:0xb4bab000  x1=0x00000000
        2345000	       233	8000665c	4645c613	xori	x12,x11,1124	 x11:0xffffe70c x12=0xffffe368
        2355000	       234	80006660	01f81eb3	sll	x29,x16,x31	 x16:0xffffe70c x31:0x000000da x29=0x30000000
        2365000	       235	80006664	0048a083	lw	x1,4(x17)	 x17:0x80009f50  x1=0x80005cc0 PA:0x80009f54
        2375000	       236	80006668	33de8a37	lui	x20,0x33de8	 x20=0x33de8000
        2385000	       237	8000666c	01088893	addi	x17,x17,16	 x17:0x80009f50 x17=0x80009f60
        2395000	       238	80006670	00bdadb3	slt	x27,x27,x11	 x27:0xffff879b x11:0xffffe70c x27=0x00000001
        2405000	       239	80006674	00008093	addi	x1,x1,0	  x1:0x80005cc0  x1=0x80005cc0
        2415000	       240	80006678	000080e7	jalr	x1,x1,0	  x1:0x80005cc0  x1=0x80006678
        2425000	       241	00000000	00000013	addi	x0,x0,0	  x0:0x00000000
        2435000	       242	80005cc0	00000013	addi	x0,x0,0	  x0:0x00000000
        2445000	       243	80005cc4	00f146b3	xor	x13,x2,x15	  x2:0x00000001 x15:0x80009fc4 x13=0x80009fc5
        2455000	       244	80005cc8	ffffac97	auipc	x25,0xffffa	 x25=0x7ffffcc4
        2465000	       245	80005ccc	57cc8c93	addi	x25,x25,1404	 x25:0x7ffffcc4 x25=0x80000240
        2475000	       246	80005cd0	00e00c33	add	x24,x0,x14	  x0:0x00000000 x14:0x80005dde x24=0x80005dde
        2485000	       247	80005cd4	413ed833	sra	x16,x29,x19	 x29:0x30000000 x19:0x00000098 x16=0x00000030
        2495000	       248	80005cd8	278e8013	addi	x0,x29,632	 x29:0x30000000
        2505000	       249	80005cdc	408a85b3	sub	x11,x21,x8	 x21:0x000000c0  x8:0xf7b51bde x11=0x084ae4e2
        2515000	       250	80005ce0	f6482a93	slti	x21,x16,-156	 x16:0x00000030 x21=0x00000000
        2525000	       251	80005ce4	40b7d6b3	sra	x13,x15,x11	 x15:0x80009fc4 x11:0x084ae4e2 x13=0xe00027f1
        2535000	       252	80005ce8	d4dc8c93	addi	x25,x25,-691	 x25:0x80000240 x25=0x7fffff8d
        2545000	       253	80005cec	006ed333	srl	x6,x29,x6	 x29:0x30000000  x6:0x00000000  x6=0x30000000
        2555000	       254	80005cf0	bf7ccf93	xori	x31,x25,-1033	 x25:0x7fffff8d x31=0x8000047a
        2565000	       255	80005cf4	2b4c80e7	jalr	x1,x25,692	 x25:0x7fffff8d  x1=0x80005cf4
        2575000	       256	00000000	00000013	addi	x0,x0,0	  x0:0x00000000
        2585000	       257	80000240	00000013	addi	x0,x0,0	  x0:0x00000000
        2595000	       258	80000244	fcc88893	addi	x17,x17,-52	 x17:0x80009f60 x17=0x80009f2c
        2605000	       259	80000248	01a5db33	srl	x22,x11,x26	 x11:0x084ae4e2 x26:0x00000004 x22=0x0084ae4e
        2615000	       260	8000024c	00316933	or	x18,x2,x3	  x2:0x00000001  x3:0x8a84f1d0 x18=0x8a84f1d1
        2625000	       261	80000250	19a96c13	ori	x24,x18,410	 x18:0x8a84f1d1 x24=0x8a84f1db
        2635000	       262	80000254	ff02dab7	lui	x21,0xff02d	 x21=0xff02d000
        2645000	       263	80000258	00f86bb3	or	x23,x16,x15	 x16:0x00000030 x15:0x80009fc4 x23=0x80009ff4
        2655000	       264	8000025c	011e5f33	srl	x30,x28,x17	 x28:0x000002df x17:0x80009f2c x30=0x00000000
        2665000	       265	80000260	0b8a4c93	xori	x25,x20,184	 x20:0x33de8000 x25=0x33de80b8
        2675000	       266	80000264	0018a223	sw	x1,4(x17)	 x17:0x80009f2c  x1:0x80005cf4 PA:0x80009f30
        2685000	       267	80000268	0110ecb3	or	x25,x1,x17	  x1:0x80005cf4 x17:0x80009f2c x25=0x8000dffc
        2695000	       268	8000026c	41615e13	srai	x28,x2,0x16	  x2:0x00000001 x28=0x00000000
        2705000	       269	80000270	00008117	auipc	x2,0x8	  x2=0x8000826c
        2715000	       270	80000274	50b10113	addi	x2,x2,1291	  x2:0x8000826c  x2=0x80008777
        2725000	       271	80000278	00110223	sb	x1,4(x2)	  x2:0x80008777  x1:0x80005cf4 PA:0x8000877b
        2735000	       272	8000027c	a9d34093	xori	x1,x6,-1379	  x6:0x30000000  x1=0xcffffa9d
        2745000	       273	80000280	07750193	addi	x3,x10,119	 x10:0xb4bab000  x3=0xb4bab077
        2755000	       274	80000284	6a81aa13	slti	x20,x3,1704	  x3:0xb4bab077 x20=0x00000001
        2765000	       275	80000288	6cd58993	addi	x19,x11,1741	 x11:0x084ae4e2 x19=0x084aebaf
        2775000	       276	8000028c	ff414803	lbu	x16,-12(x2)	  x2:0x80008777 x16=0x000000cf PA:0x8000876b
        2785000	       277	80000290	00dd40b3	xor	x1,x26,x13	 x26:0x00000004 x13:0xe00027f1  x1=0xe00027f5
        2795000	       278	80000294	692d9f97	auipc	x31,0x692d9	 x31=0xe92d9290
        2805000	       279	80000298	fff14a83	lbu	x21,-1(x2)	  x2:0x80008777 x21=0x0000004b PA:0x80008776
        2815000	       280	8000029c	00f584b3	add	x9,x11,x15	 x11:0x084ae4e2 x15:0x80009fc4  x9=0x884b84a6
        2825000	       281	800002a0	00210403	lb	x8,2(x2)	  x2:0x80008777  x8=0xffffff80 PA:0x80008779
        2835000	       282	800002a4	0011f233	and	x4,x3,x1	  x3:0xb4bab077  x1:0xe00027f5  x4=0xa0002075
        2845000	       283	800002a8	00f6d913	srli	x18,x13,0xf	 x13:0xe00027f1 x18=0x0001c000
        2855000	       284	800002ac	014ff833	and	x16,x31,x20	 x31:0xe92d9290 x20:0x00000001 x16=0x00000000
        2865000	       285	800002b0	01014a83	lbu	x21,16(x2)	  x2:0x80008777 x21=0x0000009f PA:0x80008787
        2875000	       286	800002b4	0078ff33	and	x30,x17,x7	 x17:0x80009f2c  x7:0xe429c650 x30=0x80008600
        2885000	       287	800002b8	01947eb3	and	x29,x8,x25	  x8:0xffffff80 x25:0x8000dffc x29=0x8000df80
        2895000	       288	800002bc	01c10123	sb	x28,2(x2)	  x2:0x80008777 x28:0x00000000 PA:0x80008779
        2905000	       289	800002c0	ff010083	lb	x1,-16(x2)	  x2:0x80008777  x1=0xffffffb4 PA:0x80008767
        2915000	       290	800002c4	ffb10083	lb	x1,-5(x2)	  x2:0x80008777  x1=0x00000030 PA:0x80008772
        2925000	       291	800002c8	017a7033	and	x0,x20,x23	 x20:0x00000001 x23:0x80009ff4
        2935000	       292	800002cc	01948933	add	x18,x9,x25	  x9:0x884b84a6 x25:0x8000dffc x18=0x084c64a2
        2945000	       293	800002d0	412edd93	srai	x27,x29,0x12	 x29:0x8000df80 x27=0xffffe000
        2955000	       294	800002d4	00014c03	lbu	x24,0(x2)	  x2:0x80008777 x24=0x00000009 PA:0x80008777
        2965000	       295	800002d8	ff110e23	sb	x17,-4(x2)	  x2:0x80008777 x17:0x80009f2c PA:0x80008773
        2975000	       296	800002dc	fef10ba3	sb	x15,-9(x2)	  x2:0x80008777 x15:0x80009fc4 PA:0x8000876e
        2985000	       297	800002e0	00e14f03	lbu	x30,14(x2)	  x2:0x80008777 x30=0x00000050 PA:0x80008785
        2995000	       298	800002e4	01a120a3	sw	x26,1(x2)	  x2:0x80008777 x26:0x00000004 PA:0x80008778
        3005000	       299	800002e8	00715683	lhu	x13,7(x2)	  x2:0x80008777 x13=0x00004b47 PA:0x8000877e
        3015000	       300	00000000	00000013	addi	x0,x0,0	  x0:0x00000000
        3025000	       301	800002ec	4086df13	srai	x30,x13,0x8	 x13:0x00004b47 x30=0x0000004b
        3035000	       302	800002f0	009120a3	sw	x9,1(x2)	  x2:0x80008777  x9:0x884b84a6 PA:0x80008778
        3045000	       303	800002f4	00315b03	lhu	x22,3(x2)	  x2:0x80008777 x22=0x0000884b PA:0x8000877a
        3055000	       304	800002f8	41ec81b3	sub	x3,x25,x30	 x25:0x8000dffc x30:0x0000004b  x3=0x8000dfb1
        3065000	       305	800002fc	00800c33	add	x24,x0,x8	  x0:0x00000000  x8:0xffffff80 x24=0xffffff80
        3075000	       306	80000300	01110823	sb	x17,16(x2)	  x2:0x80008777 x17:0x80009f2c PA:0x80008787
        3085000	       307	80000304	00008117	auipc	x2,0x8	  x2=0x80008300
        3095000	       308	80000308	f3a10113	addi	x2,x2,-198	  x2:0x80008300  x2=0x8000823a
        3105000	       309	8000030c	fb1b7213	andi	x4,x22,-79	 x22:0x0000884b  x4=0x00008801
        3115000	       310	80000310	018c5813	srli	x16,x24,0x18	 x24:0xffffff80 x16=0x000000ff
        3125000	       311	80000314	f2514c03	lbu	x24,-219(x2)	  x2:0x8000823a x24=0x0000000a PA:0x8000815f
        3135000	       312	80000318	f2410f83	lb	x31,-220(x2)	  x2:0x8000823a x31=0x00000040 PA:0x8000815e
        3145000	       313	8000031c	f1e15003	lhu	x0,-226(x2)	  x2:0x8000823a PA:0x80008158
        3155000	       314	80000320	00475e33	srl	x28,x14,x4	 x14:0x80005dde  x4:0x00008801 x28=0x40002eef
        3165000	       315	80000324	f9d10c03	lb	x24,-99(x2)	  x2:0x8000823a x24=0xffffffc3 PA:0x800081d7
        3175000	       316	80000328	7e32b313	sltiu	x6,x5,2019	  x5:0x00000000  x6=0x00000001
        3185000	       317	8000032c	ff310b23	sb	x19,-10(x2)	  x2:0x8000823a x19:0x084aebaf PA:0x80008230
        3195000	       318	80000330	014ddeb3	srl	x29,x27,x20	 x27:0xffffe000 x20:0x00000001 x29=0x7ffff000
        3205000	       319	80000334	419ad433	sra	x8,x21,x25	 x21:0x0000009f x25:0x8000dffc  x8=0x00000000
        3215000	       320	80000338	41c3df33	sra	x30,x7,x28	  x7:0xe429c650 x28:0x40002eef x30=0xffffc853
        3225000	       321	8000033c	00bae933	or	x18,x21,x11	 x21:0x0000009f x11:0x084ae4e2 x18=0x084ae4ff
        3235000	       322	80000340	a1237c13	andi	x24,x6,-1518	  x6:0x00000001 x24=0x00000000
        3245000	       323	80000344	08a14903	lbu	x18,138(x2)	  x2:0x8000823a x18=0x000000d9 PA:0x800082c4
        3255000	       324	80000348	017209b3	add	x19,x4,x23	  x4:0x00008801 x23:0x80009ff4 x19=0x800127f5
        3265000	       325	8000034c	0d514403	lbu	x8,213(x2)	  x2:0x8000823a  x8=0x00000088 PA:0x8000830f
        3275000	       326	80000350	01049b13	slli	x22,x9,0x10	  x9:0x884b84a6 x22=0x84a60000
        3285000	       327	80000354	f8d10703	lb	x14,-115(x2)	  x2:0x8000823a x14=0x0000005b PA:0x800081c7
        3295000	       328	80000358	a5dce993	ori	x19,x25,-1443	 x25:0x8000dffc x19=0xfffffffd
        3305000	       329	8000035c	00056933	or	x18,x10,x0	 x10:0xb4bab000  x0:0x00000000 x18=0xb4bab000
        3315000	       330	80000360	01445993	srli	x19,x8,0x14	  x8:0x00000088 x19=0x00000000
        3325000	       331	80000364	56dba337	lui	x6,0x56dba	  x6=0x56dba000
        3335000	       332	80000368	bd963ab7	lui	x21,0xbd963	 x21=0xbd963000
        3345000	       333	8000036c	00fec333	xor	x6,x29,x15	 x29:0x7ffff000 x15:0x80009fc4  x6=0xffff6fc4
        3355000	       334	80000370	03011003	lh	x0,48(x2)	  x2:0x8000823a PA:0x8000826a
        3365000	       335	80000374	fff105a3	sb	x31,-21(x2)	  x2:0x8000823a x31:0x00000040 PA:0x80008225
        3375000	       336	80000378	00000013	addi	x0,x0,0	  x0:0x00000000
        3385000	       337	8000037c	7c6e6593	ori	x11,x28,1990	 x28:0x40002eef x11=0x40002fef
        3395000	       338	80000380	40bc8fb3	sub	x31,x25,x11	 x25:0x8000dffc x11:0x40002fef x31=0x4000b00d
        3405000	       339	80000384	fb914a83	lbu	x21,-71(x2)	  x2:0x8000823a x21=0x0000009c PA:0x800081f3
        3415000	       340	80000388	6c174413	xori	x8,x14,1729	 x14:0x0000005b  x8=0x0000069a
        3425000	       341	8000038c	00944433	xor	x8,x8,x9	  x8:0x0000069a  x9:0x884b84a6  x8=0x884b823c
        3435000	       342	80000390	fd914b83	lbu	x23,-39(x2)	  x2:0x8000823a x23=0x00000057 PA:0x80008213
        3445000	       343	80000394	006ed713	srli	x14,x29,0x6	 x29:0x7ffff000 x14=0x01ffffc0
        3455000	       344	80000398	010d9813	slli	x16,x27,0x10	 x27:0xffffe000 x16=0xe0000000
        3465000	       345	8000039c	f9d109a3	sb	x29,-109(x2)	  x2:0x8000823a x29:0x7ffff000 PA:0x800081cd
        3475000	       346	800003a0	00008c97	auipc	x25,0x8	 x25=0x8000839c
        3485000	       347	800003a4	e3ac8c93	addi	x25,x25,-454	 x25:0x8000839c x25=0x800081d6
        3495000	       348	800003a8	2a0c9f23	sh	x0,702(x25)	 x25:0x800081d6  x0:0x00000000 PA:0x80008494
        3505000	       349	800003ac	00f89e13	slli	x28,x17,0xf	 x17:0x80009f2c x28=0x4f960000
        3515000	       350	800003b0	838bb993	sltiu	x19,x23,-1992	 x23:0x00000057 x19=0x00000001
        3525000	       351	800003b4	09ec81a3	sb	x30,131(x25)	 x25:0x800081d6 x30:0xffffc853 PA:0x80008259
        3535000	       352	800003b8	240c9983	lh	x19,576(x25)	 x25:0x800081d6 x19=0xfffffc9c PA:0x80008416
        3545000	       353	800003bc	0145c9b3	xor	x19,x11,x20	 x11:0x40002fef x20:0x00000001 x19=0x40002fee
        3555000	       354	800003c0	00c45813	srli	x16,x8,0xc	  x8:0x884b823c x16=0x000884b8
        3565000	       355	800003c4	017f2033	slt	x0,x30,x23	 x30:0xffffc853 x23:0x00000057
        3575000	       356	800003c8	01a70fb3	add	x31,x14,x26	 x14:0x01ffffc0 x26:0x00000004 x31=0x01ffffc4
        3585000	       357	800003cc	aec20413	addi	x8,x4,-1300	  x4:0x00008801  x8=0x000082ed
        3595000	       358	800003d0	00e3ce33	xor	x28,x7,x14	  x7:0xe429c650 x14:0x01ffffc0 x28=0xe5d63990
        3605000	       359	800003d4	1a1ccb03	lbu	x22,417(x25)	 x25:0x800081d6 x22=0x000000ff PA:0x80008377
        3615000	       360	800003d8	01f4bab3	sltu	x21,x9,x31	  x9:0x884b84a6 x31:0x01ffffc4 x21=0x00000000
        3625000	       361	800003dc	218c84a3	sb	x24,521(x25)	 x25:0x800081d6 x24:0x00000000 PA:0x800083df
        3635000	       362	800003e0	0023ab33	slt	x22,x7,x2	  x7:0xe429c650  x2:0x8000823a x22=0x00000000
        3645000	       363	800003e4	2b6cdf03	lhu	x30,694(x25)	 x25:0x800081d6 x30=0x00003a21 PA:0x8000848c
        3655000	       364	800003e8	2d9c8683	lb	x13,729(x25)	 x25:0x800081d6 x13=0xfffffff0 PA:0x800084af
        3665000	       365	800003ec	f95c8ea3	sb	x21,-99(x25)	 x25:0x800081d6 x21:0x00000000 PA:0x80008173
        3675000	       366	800003f0	4088d993	srai	x19,x17,0x8	 x17:0x80009f2c x19=0xff80009f
        3685000	       367	800003f4	49a08237	lui	x4,0x49a08	  x4=0x49a08000
        3695000	       368	800003f8	f7000113	addi	x2,x0,-144	  x0:0x00000000  x2=0xffffff70
        3705000	       369	800003fc	00f0beb3	sltu	x29,x1,x15	  x1:0x00000030 x15:0x80009fc4 x29=0x00000001
        3715000	       370	80000400	2a4c88a3	sb	x4,689(x25)	 x25:0x800081d6  x4:0x49a08000 PA:0x80008487
        3725000	       371	80000404	14f87e37	lui	x28,0x14f87	 x28=0x14f87000
        3735000	       372	80000408	3aec8423	sb	x14,936(x25)	 x25:0x800081d6 x14:0x01ffffc0 PA:0x8000857e
        3745000	       373	8000040c	5cfc8283	lb	x5,1487(x25)	 x25:0x800081d6  x5=0xffffffaf PA:0x800087a5
        3755000	       374	80000410	003f51b3	srl	x3,x30,x3	 x30:0x00003a21  x3:0x8000dfb1  x3=0x00000000
        3765000	       375	80000414	fa786113	ori	x2,x16,-89	 x16:0x000884b8  x2=0xffffffbf
        3775000	       376	80000418	f99c8183	lb	x3,-103(x25)	 x25:0x800081d6  x3=0xffffffeb PA:0x8000816f
        3785000	       377	8000041c	30dc9223	sh	x13,772(x25)	 x25:0x800081d6 x13:0xfffffff0 PA:0x800084da
        3795000	       378	80000420	0004ebb3	or	x23,x9,x0	  x9:0x884b84a6  x0:0x00000000 x23=0x884b84a6
        3805000	       379	80000424	47ac8ca3	sb	x26,1145(x25)	 x25:0x800081d6 x26:0x00000004 PA:0x8000864f
        3815000	       380	80000428	210c9023	sh	x16,512(x25)	 x25:0x800081d6 x16:0x000884b8 PA:0x800083d6
        3825000	       381	8000042c	00fa3bb3	sltu	x23,x20,x15	 x20:0x00000001 x15:0x80009fc4 x23=0x00000001
        3835000	       382	80000430	f28ccb03	lbu	x22,-216(x25)	 x25:0x800081d6 x22=0x00000041 PA:0x800080fe
        3845000	       383	80000434	e97c9c23	sh	x23,-360(x25)	 x25:0x800081d6 x23:0x00000001 PA:0x8000806e
        3855000	       384	80000438	537c8e83	lb	x29,1335(x25)	 x25:0x800081d6 x29=0xfffffff2 PA:0x8000870d
        3865000	       385	8000043c	00305233	srl	x4,x0,x3	  x0:0x00000000  x3:0xffffffeb  x4=0x00000000
        3875000	       386	80000440	0171da33	srl	x20,x3,x23	  x3:0xffffffeb x23:0x00000001 x20=0x7ffffff5
        3885000	       387	80000444	00e75593	srli	x11,x14,0xe	 x14:0x01ffffc0 x11=0x000007ff
        3895000	       388	80000448	e9fcc103	lbu	x2,-353(x25)	 x25:0x800081d6  x2=0x00000025 PA:0x80008075
        3905000	       389	8000044c	ae38a937	lui	x18,0xae38a	 x18=0xae38a000
        3915000	       390	80000450	416d0f33	sub	x30,x26,x22	 x26:0x00000004 x22:0x00000041 x30=0xffffffc3
        3925000	       391	80000454	fe7cc403	lbu	x8,-25(x25)	 x25:0x800081d6  x8=0x000000ff PA:0x800081bd
        3935000	       392	80000458	01bb1233	sll	x4,x22,x27	 x22:0x00000041 x27:0xffffe000  x4=0x00000041
        3945000	       393	8000045c	175c8d83	lb	x27,373(x25)	 x25:0x800081d6 x27=0x0000003e PA:0x8000834b
        3955000	       394	80000460	0a9cc203	lbu	x4,169(x25)	 x25:0x800081d6  x4=0x000000a4 PA:0x8000827f
        3965000	       395	80000464	79f2f913	andi	x18,x5,1951	  x5:0xffffffaf x18=0x0000078f
        3975000	       396	80000468	4afc8d83	lb	x27,1199(x25)	 x25:0x800081d6 x27=0xffffff88 PA:0x80008685
        3985000	       397	8000046c	56cc9983	lh	x19,1388(x25)	 x25:0x800081d6 x19=0x000079d3 PA:0x80008742
        3995000	       398	80000470	815af213	andi	x4,x21,-2027	 x21:0x00000000  x4=0x00000000
        4005000	       399	80000474	2e1c8ca3	sb	x1,761(x25)	 x25:0x800081d6  x1:0x00000030 PA:0x800084cf
        4015000	       400	80000478	50dc8c03	lb	x24,1293(x25)	 x25:0x800081d6 x24=0x00000028 PA:0x800086e3
        4025000	       401	8000047c	3eacc703	lbu	x14,1002(x25)	 x25:0x800081d6 x14=0x00000015 PA:0x800085c0
        4035000	       402	80000480	435c80a3	sb	x21,1057(x25)	 x25:0x800081d6 x21:0x00000000 PA:0x800085f7
        4045000	       403	80000484	c5377993	andi	x19,x14,-941	 x14:0x00000015 x19=0x00000011
        4055000	       404	80000488	182ca083	lw	x1,386(x25)	 x25:0x800081d6  x1=0x1f216492 PA:0x80008358
        4065000	       405	00000000	00000013	addi	x0,x0,0	  x0:0x00000000
        4075000	       406	8000048c	00008a17	auipc	x20,0x8	 x20=0x80008488
        4085000	       407	80000490	63ea0a13	addi	x20,x20,1598	 x20:0x80008488 x20=0x80008ac6
        4095000	       408	80000494	0cba0583	lb	x11,203(x20)	 x20:0x80008ac6 x11=0xffffff9b PA:0x80008b91
        4105000	       409	80000498	074a06a3	sb	x20,109(x20)	 x20:0x80008ac6 x20:0x80008ac6 PA:0x80008b33
        4115000	       410	8000049c	0135e233	or	x4,x11,x19	 x11:0xffffff9b x19:0x00000011  x4=0xffffff9b
        4125000	       411	800004a0	fd4a5983	lhu	x19,-44(x20)	 x20:0x80008ac6 x19=0x00008575 PA:0x80008a9a
        4135000	       412	800004a4	f7ba0903	lb	x18,-133(x20)	 x20:0x80008ac6 x18=0xffffffd3 PA:0x80008a41
        4145000	       413	800004a8	05fa0903	lb	x18,95(x20)	 x20:0x80008ac6 x18=0xffffffff PA:0x80008b25
        4155000	       414	800004ac	00000013	addi	x0,x0,0	  x0:0x00000000
        4165000	       415	800004b0	019c5133	srl	x2,x24,x25	 x24:0x00000028 x25:0x800081d6  x2=0x00000000
        4175000	       416	800004b4	f92a4103	lbu	x2,-110(x20)	 x20:0x80008ac6  x2=0x00000030 PA:0x80008a58
        4185000	       417	800004b8	00baa5b3	slt	x11,x21,x11	 x21:0x00000000 x11:0xffffff9b x11=0x00000000
        4195000	       418	800004bc	fb0a0683	lb	x13,-80(x20)	 x20:0x80008ac6 x13=0x00000048 PA:0x80008a76
        4205000	       419	800004c0	091a0403	lb	x8,145(x20)	 x20:0x80008ac6  x8=0xffffffcb PA:0x80008b57
        4215000	       420	800004c4	b9b5eb13	ori	x22,x11,-1125	 x11:0x00000000 x22=0xfffffb9b
        4225000	       421	800004c8	01690033	add	x0,x18,x22	 x18:0xffffffff x22:0xfffffb9b
        4235000	       422	800004cc	098a5403	lhu	x8,152(x20)	 x20:0x80008ac6  x8=0x0000cd36 PA:0x80008b5e
        4245000	       423	800004d0	00e09913	slli	x18,x1,0xe	  x1:0x1f216492 x18=0x59248000
        4255000	       424	800004d4	6986a813	slti	x16,x13,1688	 x13:0x00000048 x16=0x00000001
        4265000	       425	800004d8	f74d9237	lui	x4,0xf74d9	  x4=0xf74d9000
        4275000	       426	800004dc	41995db3	sra	x27,x18,x25	 x18:0x59248000 x25:0x800081d6 x27=0x00000164
        4285000	       427	800004e0	037a4083	lbu	x1,55(x20)	 x20:0x80008ac6  x1=0x00000015 PA:0x80008afd
        4295000	       428	800004e4	088a5003	lhu	x0,136(x20)	 x20:0x80008ac6 PA:0x80008b4e
        4305000	       429	800004e8	0a3a0c03	lb	x24,163(x20)	 x20:0x80008ac6 x24=0x00000063 PA:0x80008b69
        4315000	       430	800004ec	00c00133	add	x2,x0,x12	  x0:0x00000000 x12:0xffffe368  x2=0xffffe368
        4325000	       431	800004f0	01c9f133	and	x2,x19,x28	 x19:0x00008575 x28:0x14f87000  x2=0x00000000
        4335000	       432	800004f4	01440cb3	add	x25,x8,x20	  x8:0x0000cd36 x20:0x80008ac6 x25=0x800157fc
        4345000	       433	800004f8	f38a1683	lh	x13,-200(x20)	 x20:0x80008ac6 x13=0x0000140f PA:0x800089fe
        4355000	       434	800004fc	f79a4703	lbu	x14,-135(x20)	 x20:0x80008ac6 x14=0x000000eb PA:0x80008a3f
        4365000	       435	80000500	00008817	auipc	x16,0x8	 x16=0x800084fc
        4375000	       436	80000504	78480813	addi	x16,x16,1924	 x16:0x800084fc x16=0x80008c80
        4385000	       437	80000508	33085303	lhu	x6,816(x16)	 x16:0x80008c80  x6=0x00000038 PA:0x80008fb0
        4395000	       438	8000050c	0135d693	srli	x13,x11,0x13	 x11:0x00000000 x13=0x00000000
        4405000	       439	80000510	004f1f93	slli	x31,x30,0x4	 x30:0xffffffc3 x31=0xfffffc30
        4415000	       440	80000514	0114db13	srli	x22,x9,0x11	  x9:0x884b84a6 x22=0x00004425
        4425000	       441	80000518	004abfb3	sltu	x31,x21,x4	 x21:0x00000000  x4:0xf74d9000 x31=0x00000001
        4435000	       442	8000051c	000d59b3	srl	x19,x26,x0	 x26:0x00000004  x0:0x00000000 x19=0x00000004
        4445000	       443	80000520	bf180283	lb	x5,-1039(x16)	 x16:0x80008c80  x5=0xffffffb1 PA:0x80008871
        4455000	       444	80000524	40700733	sub	x14,x0,x7	  x0:0x00000000  x7:0xe429c650 x14=0x1bd639b0
        4465000	       445	80000528	04881023	sh	x8,64(x16)	 x16:0x80008c80  x8:0x0000cd36 PA:0x80008cc0
        4475000	       446	8000052c	ea881d23	sh	x8,-326(x16)	 x16:0x80008c80  x8:0x0000cd36 PA:0x80008b3a
        4485000	       447	80000530	dc9803a3	sb	x9,-569(x16)	 x16:0x80008c80  x9:0x884b84a6 PA:0x80008a47
        4495000	       448	80000534	d9284983	lbu	x19,-622(x16)	 x16:0x80008c80 x19=0x000000c9 PA:0x80008a12
        4505000	       449	80000538	d1c80fa3	sb	x28,-737(x16)	 x16:0x80008c80 x28:0x14f87000 PA:0x8000899f
        4515000	       450	8000053c	ef885a83	lhu	x21,-264(x16)	 x16:0x80008c80 x21=0x0000f6d9 PA:0x80008b78
        4525000	       451	80000540	ee781423	sh	x7,-280(x16)	 x16:0x80008c80  x7:0xe429c650 PA:0x80008b68
        4535000	       452	80000544	15480083	lb	x1,340(x16)	 x16:0x80008c80  x1=0xffffffa6 PA:0x80008dd4
        4545000	       453	80000548	012e36b3	sltu	x13,x28,x18	 x28:0x14f87000 x18:0x59248000 x13=0x00000001
        4555000	       454	8000054c	01c84103	lbu	x2,28(x16)	 x16:0x80008c80  x2=0x000000c4 PA:0x80008c9c
        4565000	       455	80000550	409586b3	sub	x13,x11,x9	 x11:0x00000000  x9:0x884b84a6 x13=0x77b47b5a
        4575000	       456	80000554	ff982a23	sw	x25,-12(x16)	 x16:0x80008c80 x25:0x800157fc PA:0x80008c74
        4585000	       457	80000558	c9584403	lbu	x8,-875(x16)	 x16:0x80008c80  x8=0x000000c3 PA:0x80008915
        4595000	       458	8000055c	00705913	srli	x18,x0,0x7	  x0:0x00000000 x18=0x00000000
        4605000	       459	80000560	bf584383	lbu	x7,-1035(x16)	 x16:0x80008c80  x7=0x00000061 PA:0x80008875
        4615000	       460	80000564	32285683	lhu	x13,802(x16)	 x16:0x80008c80 x13=0x0000c612 PA:0x80008fa2
        4625000	       461	80000568	01ad1993	slli	x19,x26,0x1a	 x26:0x00000004 x19=0x10000000
        4635000	       462	8000056c	1f4805a3	sb	x20,491(x16)	 x16:0x80008c80 x20:0x80008ac6 PA:0x80008e6b
        4645000	       463	80000570	01537fb3	and	x31,x6,x21	  x6:0x00000038 x21:0x0000f6d9 x31=0x00000018
        4655000	       464	80000574	d4e85483	lhu	x9,-690(x16)	 x16:0x80008c80  x9=0x0000212e PA:0x800089ce
        4665000	       465	80000578	00c65f93	srli	x31,x12,0xc	 x12:0xffffe368 x31=0x000ffffe
        4675000	       466	8000057c	41b05db3	sra	x27,x0,x27	  x0:0x00000000 x27:0x00000164 x27=0x00000000
        4685000	       467	80000580	11d84b03	lbu	x22,285(x16)	 x16:0x80008c80 x22=0x00000069 PA:0x80008d9d
        4695000	       468	80000584	01f84003	lbu	x0,31(x16)	 x16:0x80008c80 PA:0x80008c9f
        4705000	       469	80000588	0bc84583	lbu	x11,188(x16)	 x16:0x80008c80 x11=0x000000ad PA:0x80008d3c
        4715000	       470	8000058c	f6280203	lb	x4,-158(x16)	 x16:0x80008c80  x4=0x0000002a PA:0x80008be2
        4725000	       471	80000590	01c01a33	sll	x20,x0,x28	  x0:0x00000000 x28:0x14f87000 x20=0x00000000
        4735000	       472	80000594	00199a33	sll	x20,x19,x1	 x19:0x10000000  x1:0xffffffa6 x20=0x00000000
        4745000	       473	80000598	1ee264b7	lui	x9,0x1ee26	  x9=0x1ee26000
        4755000	       474	8000059c	4065dd93	srai	x27,x11,0x6	 x11:0x000000ad x27=0x00000002
        4765000	       475	800005a0	25084083	lbu	x1,592(x16)	 x16:0x80008c80  x1=0x000000d8 PA:0x80008ed0
        4775000	       476	800005a4	de281d23	sh	x2,-518(x16)	 x16:0x80008c80  x2:0x000000c4 PA:0x80008a7a
        4785000	       477	800005a8	20481583	lh	x11,516(x16)	 x16:0x80008c80 x11=0xfffff8ae PA:0x80008e84
        4795000	       478	800005ac	017709b3	add	x19,x14,x23	 x14:0x1bd639b0 x23:0x00000001 x19=0x1bd639b1
        4805000	       479	800005b0	34c804a3	sb	x12,841(x16)	 x16:0x80008c80 x12:0xffffe368 PA:0x80008fc9
        4815000	       480	800005b4	2f580e03	lb	x28,757(x16)	 x16:0x80008c80 x28=0xffffffb7 PA:0x80008f75
        4825000	       481	800005b8	85e0fb13	andi	x22,x1,-1954	  x1:0x000000d8 x22=0x00000058
        4835000	       482	800005bc	be880d83	lb	x27,-1048(x16)	 x16:0x80008c80 x27=0xffffff86 PA:0x80008868
        4845000	       483	800005c0	00008f17	auipc	x30,0x8	 x30=0x800085bc
        4855000	       484	800005c4	fc9f0f13	addi	x30,x30,-55	 x30:0x800085bc x30=0x80008585
        4865000	       485	800005c8	a68865b7	lui	x11,0xa6886	 x11=0xa6886000
        4875000	       486	800005cc	d76f0d23	sb	x22,-646(x30)	 x30:0x80008585 x22:0x00000058 PA:0x800082ff
        4885000	       487	800005d0	f57c0b97	auipc	x23,0xf57c0	 x23=0x757c05cc
        4895000	       488	800005d4	b66f0ba3	sb	x6,-1161(x30)	 x30:0x80008585  x6:0x00000038 PA:0x800080fc
        4905000	       489	800005d8	b1c97913	andi	x18,x18,-1252	 x18:0x00000000 x18=0x00000000
        4915000	       490	800005dc	00000013	addi	x0,x0,0	  x0:0x00000000
        4925000	       491	800005e0	c55f1583	lh	x11,-939(x30)	 x30:0x80008585 x11=0xffff9e37 PA:0x800081da
        4935000	       492	800005e4	d6c3d617	auipc	x12,0xd6c3d	 x12=0x56c3d5e0
        4945000	       493	800005e8	059f4e83	lbu	x29,89(x30)	 x30:0x80008585 x29=0x000000ef PA:0x800085de
        4955000	       494	800005ec	0b0f4e03	lbu	x28,176(x30)	 x30:0x80008585 x28=0x000000e0 PA:0x80008635
        4965000	       495	800005f0	55f94f93	xori	x31,x18,1375	 x18:0x00000000 x31=0x0000055f
        4975000	       496	800005f4	4000d9b3	sra	x19,x1,x0	  x1:0x000000d8  x0:0x00000000 x19=0x000000d8
        4985000	       497	800005f8	e63e4213	xori	x4,x28,-413	 x28:0x000000e0  x4=0xfffffe83
        4995000	       498	800005fc	1cef0623	sb	x14,460(x30)	 x30:0x80008585 x14:0x1bd639b0 PA:0x80008751
        5005000	       499	80000600	ac5f0383	lb	x7,-1339(x30)	 x30:0x80008585  x7=0x0000006f PA:0x8000804a
        5015000	       500	80000604	3c11d917	auipc	x18,0x3c11d	 x18=0xbc11d600
        5025000	       501	80000608	afef4c83	lbu	x25,-1282(x30)	 x30:0x80008585 x25=0x00000051 PA:0x80008083
        5035000	       502	8000060c	1ddf1683	lh	x13,477(x30)	 x30:0x80008585 x13=0x00006f85 PA:0x80008762
        5045000	       503	80000610	f0af4c03	lbu	x24,-246(x30)	 x30:0x80008585 x24=0x00000061 PA:0x8000848f
        5055000	       504	80000614	002474b3	and	x9,x8,x2	  x8:0x000000c3  x2:0x000000c4  x9=0x000000c0
        5065000	       505	80000618	da4f12a3	sh	x4,-603(x30)	 x30:0x80008585  x4:0xfffffe83 PA:0x8000832a
        5075000	       506	8000061c	e63f0a83	lb	x21,-413(x30)	 x30:0x80008585 x21=0xffffffbc PA:0x800083e8
        5085000	       507	80000620	001b74b3	and	x9,x22,x1	 x22:0x00000058  x1:0x000000d8  x9=0x00000058
        5095000	       508	80000624	90b77813	andi	x16,x14,-1781	 x14:0x1bd639b0 x16=0x1bd63900
        5105000	       509	80000628	b09f0b23	sb	x9,-1258(x30)	 x30:0x80008585  x9:0x00000058 PA:0x8000809b
        5115000	       510	8000062c	ef8f21a3	sw	x24,-285(x30)	 x30:0x80008585 x24:0x00000061 PA:0x80008468
        5125000	       511	80000630	c77f08a3	sb	x23,-911(x30)	 x30:0x80008585 x23:0x757c05cc PA:0x800081f6
        5135000	       512	80000634	41c70c33	sub	x24,x14,x28	 x14:0x1bd639b0 x28:0x000000e0 x24=0x1bd638d0
        5145000	       513	80000638	aaaeef93	ori	x31,x29,-1366	 x29:0x000000ef x31=0xfffffaef
        5155000	       514	8000063c	ca1f4583	lbu	x11,-863(x30)	 x30:0x80008585 x11=0x00000037 PA:0x80008226
        5165000	       515	80000640	d2cf4583	lbu	x11,-724(x30)	 x30:0x80008585 x11=0x0000004f PA:0x800082b1
        5175000	       516	80000644	08ef0023	sb	x14,128(x30)	 x30:0x80008585 x14:0x1bd639b0 PA:0x80008605
        5185000	       517	80000648	f49f5c03	lhu	x24,-183(x30)	 x30:0x80008585 x24=0x0000300a PA:0x800084ce
        5195000	       518	8000064c	140f0c23	sb	x0,344(x30)	 x30:0x80008585  x0:0x00000000 PA:0x800086dd
        5205000	       519	80000650	f5af4383	lbu	x7,-166(x30)	 x30:0x80008585  x7=0x00000030 PA:0x800084df
        5215000	       520	80000654	1fdf0a03	lb	x20,509(x30)	 x30:0x80008585 x20=0x00000063 PA:0x80008782
        5225000	       521	80000658	1a1f0623	sb	x1,428(x30)	 x30:0x80008585  x1:0x000000d8 PA:0x80008731
        5235000	       522	8000065c	1a9f4483	lbu	x9,425(x30)	 x30:0x80008585  x9=0x0000007d PA:0x8000872e
        5245000	       523	80000660	135f5983	lhu	x19,309(x30)	 x30:0x80008585 x19=0x00008d97 PA:0x800086ba
        5255000	       524	80000664	e8af0b83	lb	x23,-374(x30)	 x30:0x80008585 x23=0xfffffffb PA:0x8000840f
        5265000	       525	80000668	00008617	auipc	x12,0x8	 x12=0x80008664
        5275000	       526	8000066c	c8a60613	addi	x12,x12,-886	 x12:0x80008664 x12=0x800082ee
        5285000	       527	80000670	fe364703	lbu	x14,-29(x12)	 x12:0x800082ee x14=0x0000006f PA:0x800082d1
        5295000	       528	80000674	01a415b3	sll	x11,x8,x26	  x8:0x000000c3 x26:0x00000004 x11=0x00000c30
        5305000	       529	80000678	01560f83	lb	x31,21(x12)	 x12:0x800082ee x31=0xffffff94 PA:0x80008303
        5315000	       530	8000067c	415e80b3	sub	x1,x29,x21	 x29:0x000000ef x21:0xffffffbc  x1=0x00000133
        5325000	       531	80000680	03164403	lbu	x8,49(x12)	 x12:0x800082ee  x8=0x00000052 PA:0x8000831f
        5335000	       532	00000000	00000013	addi	x0,x0,0	  x0:0x00000000
        5345000	       533	80000684	00861b83	lh	x23,8(x12)	 x12:0x800082ee x23=0xffffd9bd PA:0x800082f6
        5355000	       534	80000688	00b61823	sh	x11,16(x12)	 x12:0x800082ee x11:0x00000c30 PA:0x800082fe
        5365000	       535	8000068c	000efa33	and	x20,x29,x0	 x29:0x000000ef  x0:0x00000000 x20=0x00000000
        5375000	       536	80000690	015110b3	sll	x1,x2,x21	  x2:0x000000c4 x21:0xffffffbc  x1=0x40000000
        5385000	       537	80000694	007450b3	srl	x1,x8,x7	  x8:0x00000052  x7:0x00000030  x1=0x00000000
        5395000	       538	80000698	01c61b83	lh	x23,28(x12)	 x12:0x800082ee x23=0xffff9d3a PA:0x8000830a
        5405000	       539	8000069c	ffe61e23	sh	x30,-4(x12)	 x12:0x800082ee x30:0x80008585 PA:0x800082ea
        5415000	       540	800006a0	00465c03	lhu	x24,4(x12)	 x12:0x800082ee x24=0x0000a8a1 PA:0x800082f2
        5425000	       541	800006a4	fef60c23	sb	x15,-8(x12)	 x12:0x800082ee x15:0x80009fc4 PA:0x800082e6
        5435000	       542	800006a8	02764903	lbu	x18,39(x12)	 x12:0x800082ee x18=0x00000079 PA:0x80008315
        5445000	       543	800006ac	40fcd513	srai	x10,x25,0xf	 x25:0x00000051 x10=0x00000000
        5455000	       544	800006b0	ffe64383	lbu	x7,-2(x12)	 x12:0x800082ee  x7=0x00000017 PA:0x800082ec
        5465000	       545	800006b4	00a61123	sh	x10,2(x12)	 x12:0x800082ee x10:0x00000000 PA:0x800082f0
        5475000	       546	800006b8	02461403	lh	x8,36(x12)	 x12:0x800082ee  x8=0x000044a5 PA:0x80008312
        5485000	       547	800006bc	40790993	addi	x19,x18,1031	 x18:0x00000079 x19=0x00000480
        5495000	       548	800006c0	4059dc13	srai	x24,x19,0x5	 x19:0x00000480 x24=0x00000024
        5505000	       549	800006c4	006e9b13	slli	x22,x29,0x6	 x29:0x000000ef x22=0x00003bc0
        5515000	       550	800006c8	41660c33	sub	x24,x12,x22	 x12:0x800082ee x22:0x00003bc0 x24=0x8000472e
        5525000	       551	800006cc	01560aa3	sb	x21,21(x12)	 x12:0x800082ee x21:0xffffffbc PA:0x80008303
        5535000	       552	800006d0	12fd6a93	ori	x21,x26,303	 x26:0x00000004 x21=0x0000012f
        5545000	       553	800006d4	01e2bab3	sltu	x21,x5,x30	  x5:0xffffffb1 x30:0x80008585 x21=0x00000000
        5555000	       554	800006d8	00278233	add	x4,x15,x2	 x15:0x80009fc4  x2:0x000000c4  x4=0x8000a088
        5565000	       555	800006dc	8604fe13	andi	x28,x9,-1952	  x9:0x0000007d x28=0x00000060
        5575000	       556	800006e0	fde60b03	lb	x22,-34(x12)	 x12:0x800082ee x22=0x0000005e PA:0x800082cc
        5585000	       557	800006e4	00008117	auipc	x2,0x8	  x2=0x800086e0
        5595000	       558	800006e8	f7910113	addi	x2,x2,-135	  x2:0x800086e0  x2=0x80008659
        5605000	       559	800006ec	03110323	sb	x17,38(x2)	  x2:0x80008659 x17:0x80009f2c PA:0x8000867f
        5615000	       560	800006f0	bfe14083	lbu	x1,-1026(x2)	  x2:0x80008659  x1=0x000000ab PA:0x80008257
        5625000	       561	800006f4	00000013	addi	x0,x0,0	  x0:0x00000000
        5635000	       562	800006f8	a7c14083	lbu	x1,-1412(x2)	  x2:0x80008659  x1=0x0000006a PA:0x800080d5
        5645000	       563	800006fc	f2210ea3	sb	x2,-195(x2)	  x2:0x80008659  x2:0x80008659 PA:0x80008596
        5655000	       564	80000700	cd511e03	lh	x28,-811(x2)	  x2:0x80008659 x28=0xffffa5c2 PA:0x8000832e
        5665000	       565	80000704	01041693	slli	x13,x8,0x10	  x8:0x000044a5 x13=0x44a50000
        5675000	       566	80000708	006cf433	and	x8,x25,x6	 x25:0x00000051  x6:0x00000038  x8=0x00000010
        5685000	       567	8000070c	c7314503	lbu	x10,-909(x2)	  x2:0x80008659 x10=0x0000005e PA:0x800082cc
        5695000	       568	80000710	b6710823	sb	x7,-1168(x2)	  x2:0x80008659  x7:0x00000017 PA:0x800081c9
        5705000	       569	80000714	0097c833	xor	x16,x15,x9	 x15:0x80009fc4  x9:0x0000007d x16=0x80009fb9
        5715000	       570	80000718	d4410603	lb	x12,-700(x2)	  x2:0x80008659 x12=0x00000012 PA:0x8000839d
        5725000	       571	8000071c	00345d93	srli	x27,x8,0x3	  x8:0x00000010 x27=0x00000002
        5735000	       572	80000720	25accd93	xori	x27,x25,602	 x25:0x00000051 x27=0x0000020b
        5745000	       573	80000724	fca10523	sb	x10,-54(x2)	  x2:0x80008659 x10:0x0000005e PA:0x80008623
        5755000	       574	80000728	411553b3	sra	x7,x10,x17	 x10:0x0000005e x17:0x80009f2c  x7=0x00000000
        5765000	       575	8000072c	a8f4b593	sltiu	x11,x9,-1393	  x9:0x0000007d x11=0x00000001
        5775000	       576	80000730	d8f11f03	lh	x30,-625(x2)	  x2:0x80008659 x30=0xffffc3bc PA:0x800083e8
        5785000	       577	80000734	0ac10b83	lb	x23,172(x2)	  x2:0x80008659 x23=0xfffffff0 PA:0x80008705
        5795000	       578	80000738	00ab6233	or	x4,x22,x10	 x22:0x0000005e x10:0x0000005e  x4=0x0000005e
        5805000	       579	8000073c	41375e33	sra	x28,x14,x19	 x14:0x0000006f x19:0x00000480 x28=0x0000006f
        5815000	       580	80000740	e42ee093	ori	x1,x29,-446	 x29:0x000000ef  x1=0xfffffeef
        5825000	       581	80000744	40875633	sra	x12,x14,x8	 x14:0x0000006f  x8:0x00000010 x12=0x00000000
        5835000	       582	80000748	e9a10d83	lb	x27,-358(x2)	  x2:0x80008659 x27=0xffffffd1 PA:0x800084f3
        5845000	       583	8000074c	010a6cb3	or	x25,x20,x16	 x20:0x00000000 x16:0x80009fb9 x25=0x80009fb9
        5855000	       584	80000750	00d29e93	slli	x29,x5,0xd	  x5:0xffffffb1 x29=0xfff62000
        5865000	       585	80000754	d9311403	lh	x8,-621(x2)	  x2:0x80008659  x8=0x00005816 PA:0x800083ec
        5875000	       586	80000758	1b611aa3	sh	x22,437(x2)	  x2:0x80008659 x22:0x0000005e PA:0x8000880e
        5885000	       587	8000075c	00cfac33	slt	x24,x31,x12	 x31:0xffffff94 x12:0x00000000 x24=0x00000001
        5895000	       588	80000760	01f95713	srli	x14,x18,0x1f	 x18:0x00000079 x14=0x00000000
        5905000	       589	80000764	000b2c33	slt	x24,x22,x0	 x22:0x0000005e  x0:0x00000000 x24=0x00000000
        5915000	       590	80000768	0032c9b3	xor	x19,x5,x3	  x5:0xffffffb1  x3:0xffffffeb x19=0x0000005a
        5925000	       591	8000076c	41138c33	sub	x24,x7,x17	  x7:0x00000000 x17:0x80009f2c x24=0x7fff60d4
        5935000	       592	80000770	004db1b3	sltu	x3,x27,x4	 x27:0xffffffd1  x4:0x0000005e  x3=0x00000000
        5945000	       593	80000774	4665e013	ori	x0,x11,1126	 x11:0x00000001
        5955000	       594	80000778	f4614503	lbu	x10,-186(x2)	  x2:0x80008659 x10=0x0000000b PA:0x8000859f
        5965000	       595	8000077c	01610303	lb	x6,22(x2)	  x2:0x80008659  x6=0x0000004d PA:0x8000866f
        5975000	       596	80000780	00008217	auipc	x4,0x8	  x4=0x8000877c
        5985000	       597	80000784	97520213	addi	x4,x4,-1675	  x4:0x8000877c  x4=0x800080f1
        5995000	       598	80000788	0e66e093	ori	x1,x13,230	 x13:0x44a50000  x1=0x44a500e6
        6005000	       599	8000078c	dcca6493	ori	x9,x20,-564	 x20:0x00000000  x9=0xfffffdcc
        6015000	       600	80000790	00000013	addi	x0,x0,0	  x0:0x00000000
        6025000	       601	80000794	fed20083	lb	x1,-19(x4)	  x4:0x800080f1  x1=0xfffffff0 PA:0x800080de
        6035000	       602	80000798	fcc20283	lb	x5,-52(x4)	  x4:0x800080f1  x5=0xffffff86 PA:0x800080bd
        6045000	       603	8000079c	111f7d97	auipc	x27,0x111f7	 x27=0x911f7798
        6055000	       604	800007a0	02224583	lbu	x11,34(x4)	  x4:0x800080f1 x11=0x00000024 PA:0x80008113
        6065000	       605	800007a4	411f5db3	sra	x27,x30,x17	 x30:0xffffc3bc x17:0x80009f2c x27=0xfffffffc
        6075000	       606	800007a8	01125083	lhu	x1,17(x4)	  x4:0x800080f1  x1=0x0000153c PA:0x80008102
        6085000	       607	800007ac	007d26b3	slt	x13,x26,x7	 x26:0x00000004  x7:0x00000000 x13=0x00000000
        6095000	       608	800007b0	fe020723	sb	x0,-18(x4)	  x4:0x800080f1  x0:0x00000000 PA:0x800080df
        6105000	       609	800007b4	4019d6b3	sra	x13,x19,x1	 x19:0x0000005a  x1:0x0000153c x13=0x00000000
        6115000	       610	800007b8	66f78c93	addi	x25,x15,1647	 x15:0x80009fc4 x25=0x8000a633
        6125000	       611	800007bc	c8edf113	andi	x2,x27,-882	 x27:0xfffffffc  x2=0xfffffc8c
        6135000	       612	800007c0	0bf20603	lb	x12,191(x4)	  x4:0x800080f1 x12=0xffffffed PA:0x800081b0
        6145000	       613	00000000	00000013	addi	x0,x0,0	  x0:0x00000000
        6155000	       614	800007c4	40c2dd93	srai	x27,x5,0xc	  x5:0xffffff86 x27=0xffffffff
        6165000	       615	800007c8	fc720283	lb	x5,-57(x4)	  x4:0x800080f1  x5=0xffffff88 PA:0x800080b8
        6175000	       616	800007cc	f6420603	lb	x12,-156(x4)	  x4:0x800080f1 x12=0xffffffc3 PA:0x80008055
        6185000	       617	800007d0	404bdbb3	sra	x23,x23,x4	 x23:0xfffffff0  x4:0x800080f1 x23=0xffffffff
        6195000	       618	800007d4	03b24c83	lbu	x25,59(x4)	  x4:0x800080f1 x25=0x000000cd PA:0x8000812c
        6205000	       619	800007d8	f69204a3	sb	x9,-151(x4)	  x4:0x800080f1  x9:0xfffffdcc PA:0x8000805a
        6215000	       620	800007dc	7e2fba93	sltiu	x21,x31,2018	 x31:0xffffff94 x21=0x00000000
        6225000	       621	800007e0	fe320483	lb	x9,-29(x4)	  x4:0x800080f1  x9=0x00000055 PA:0x800080d4
        6235000	       622	800007e4	f6d21fa3	sh	x13,-129(x4)	  x4:0x800080f1 x13:0x00000000 PA:0x80008070
        6245000	       623	800007e8	0b824983	lbu	x19,184(x4)	  x4:0x800080f1 x19=0x000000ef PA:0x800081a9
        6255000	       624	800007ec	06020423	sb	x0,104(x4)	  x4:0x800080f1  x0:0x00000000 PA:0x80008159
        6265000	       625	800007f0	0bd21103	lh	x2,189(x4)	  x4:0x800080f1  x2=0xffff8a6f PA:0x800081ae
        6275000	       626	800007f4	0d0204a3	sb	x16,201(x4)	  x4:0x800080f1 x16:0x80009fb9 PA:0x800081ba
        6285000	       627	800007f8	1d898a13	addi	x20,x19,472	 x19:0x000000ef x20=0x000002c7
        6295000	       628	800007fc	00000013	addi	x0,x0,0	  x0:0x00000000
        6305000	       629	80000800	0fd20803	lb	x16,253(x4)	  x4:0x800080f1 x16=0xffffffe5 PA:0x800081ee
        6315000	       630	80000804	ff920f03	lb	x30,-7(x4)	  x4:0x800080f1 x30=0x0000000a PA:0x800080ea
        6325000	       631	80000808	0050d733	srl	x14,x1,x5	  x1:0x0000153c  x5:0xffffff88 x14=0x00000015
        6335000	       632	8000080c	007646b3	xor	x13,x12,x7	 x12:0xffffffc3  x7:0x00000000 x13=0xffffffc3
        6345000	       633	80000810	01b24103	lbu	x2,27(x4)	  x4:0x800080f1  x2=0x000000d8 PA:0x8000810c
        6355000	       634	80000814	01521383	lh	x7,21(x4)	  x4:0x800080f1  x7=0x00004521 PA:0x80008106
        6365000	       635	80000818	00b11833	sll	x16,x2,x11	  x2:0x000000d8 x11:0x00000024 x16=0x00000d80
        6375000	       636	8000081c	f5a20003	lb	x0,-166(x4)	  x4:0x800080f1 PA:0x8000804b
        6385000	       637	80000820	ffb20823	sb	x27,-16(x4)	  x4:0x800080f1 x27:0xffffffff PA:0x800080e1
        6395000	       638	80000824	0c420023	sb	x4,192(x4)	  x4:0x800080f1  x4:0x800080f1 PA:0x800081b1
        6405000	       639	80000828	015a9813	slli	x16,x21,0x15	 x21:0x00000000 x16=0x00000000
        6415000	       640	8000082c	00e1f933	and	x18,x3,x14	  x3:0x00000000 x14:0x00000015 x18=0x00000000
        6425000	       641	80000830	f7c20303	lb	x6,-132(x4)	  x4:0x800080f1  x6=0x00000073 PA:0x8000806d
        6435000	       642	80000834	00f00933	add	x18,x0,x15	  x0:0x00000000 x15:0x80009fc4 x18=0x80009fc4
        6445000	       643	80000838	05921483	lh	x9,89(x4)	  x4:0x800080f1  x9=0xffffd680 PA:0x8000814a
        6455000	       644	8000083c	00008597	auipc	x11,0x8	 x11=0x80008838
        6465000	       645	80000840	0f258593	addi	x11,x11,242	 x11:0x80008838 x11=0x8000892a
        6475000	       646	80000844	ff059483	lh	x9,-16(x11)	 x11:0x8000892a  x9=0xffffde91 PA:0x8000891a
        6485000	       647	80000848	74bbae37	lui	x28,0x74bba	 x28=0x74bba000
        6495000	       648	8000084c	00f5a523	sw	x15,10(x11)	 x11:0x8000892a x15:0x80009fc4 PA:0x80008934
        6505000	       649	80000850	00f58403	lb	x8,15(x11)	 x11:0x8000892a  x8=0x00000074 PA:0x80008939
        6515000	       650	80000854	01158323	sb	x17,6(x11)	 x11:0x8000892a x17:0x80009f2c PA:0x80008930
        6525000	       651	80000858	01f5a123	sw	x31,2(x11)	 x11:0x8000892a x31:0xffffff94 PA:0x8000892c
        6535000	       652	8000085c	5c622493	slti	x9,x4,1478	  x4:0x800080f1  x9=0x00000001
        6545000	       653	80000860	00958403	lb	x8,9(x11)	 x11:0x8000892a  x8=0xffffffc4 PA:0x80008933
        6555000	       654	80000864	ff45d703	lhu	x14,-12(x11)	 x11:0x8000892a x14=0x000014c6 PA:0x8000891e
        6565000	       655	80000868	004580a3	sb	x4,1(x11)	 x11:0x8000892a  x4:0x800080f1 PA:0x8000892b
        6575000	       656	8000086c	01a584a3	sb	x26,9(x11)	 x11:0x8000892a x26:0x00000004 PA:0x80008933
        6585000	       657	80000870	40fe8e33	sub	x28,x29,x15	 x29:0xfff62000 x15:0x80009fc4 x28=0x7ff5803c
        6595000	       658	80000874	00f5ce03	lbu	x28,15(x11)	 x11:0x8000892a x28=0x00000074 PA:0x80008939
        6605000	       659	80000878	0005dc83	lhu	x25,0(x11)	 x11:0x8000892a x25=0x0000f1f0 PA:0x8000892a
        6615000	       660	8000087c	41218bb3	sub	x23,x3,x18	  x3:0x00000000 x18:0x80009fc4 x23=0x7fff603c
        6625000	       661	80000880	00e58483	lb	x9,14(x11)	 x11:0x8000892a  x9=0xffffffb6 PA:0x80008938
        6635000	       662	80000884	91d08713	addi	x14,x1,-1763	  x1:0x0000153c x14=0x00000e59
        6645000	       663	80000888	ffc58b23	sb	x28,-10(x11)	 x11:0x8000892a x28:0x00000074 PA:0x80008920
        6655000	       664	8000088c	00259803	lh	x16,2(x11)	 x11:0x8000892a x16=0xffffff94 PA:0x8000892c
        6665000	       665	80000890	ffe5ac83	lw	x25,-2(x11)	 x11:0x8000892a x25=0xf1f016a6 PA:0x80008928
        6675000	       666	80000894	96d36813	ori	x16,x6,-1683	  x6:0x00000073 x16=0xfffff97f
        6685000	       667	80000898	01459723	sh	x20,14(x11)	 x11:0x8000892a x20:0x000002c7 PA:0x80008938
        6695000	       668	8000089c	ff358f03	lb	x30,-13(x11)	 x11:0x8000892a x30=0x00000014 PA:0x8000891d
        6705000	       669	800008a0	fe858da3	sb	x8,-5(x11)	 x11:0x8000892a  x8:0xffffffc4 PA:0x80008925
        6715000	       670	800008a4	0025c183	lbu	x3,2(x11)	 x11:0x8000892a  x3=0x00000094 PA:0x8000892c
        6725000	       671	800008a8	ff15c903	lbu	x18,-15(x11)	 x11:0x8000892a x18=0x000000de PA:0x8000891b
        6735000	       672	800008ac	01ba3bb3	sltu	x23,x20,x27	 x20:0x000002c7 x27:0xffffffff x23=0x00000001
        6745000	       673	800008b0	01571633	sll	x12,x14,x21	 x14:0x00000e59 x21:0x00000000 x12=0x00000e59
        6755000	       674	800008b4	a91e0613	addi	x12,x28,-1391	 x28:0x00000074 x12=0xfffffb05
        6765000	       675	800008b8	ff45d303	lhu	x6,-12(x11)	 x11:0x8000892a  x6=0x000014c6 PA:0x8000891e
        6775000	       676	800008bc	00758a83	lb	x21,7(x11)	 x11:0x8000892a x21=0xffffffd4 PA:0x80008931
        6785000	       677	800008c0	00724933	xor	x18,x4,x7	  x4:0x800080f1  x7:0x00004521 x18=0x8000c5d0
        6795000	       678	800008c4	00758e83	lb	x29,7(x11)	 x11:0x8000892a x29=0xffffffd4 PA:0x80008931
        6805000	       679	800008c8	01558423	sb	x21,8(x11)	 x11:0x8000892a x21:0xffffffd4 PA:0x80008932
        6815000	       680	800008cc	aec533b7	lui	x7,0xaec53	  x7=0xaec53000
        6825000	       681	800008d0	009581a3	sb	x9,3(x11)	 x11:0x8000892a  x9:0xffffffb6 PA:0x8000892d
        6835000	       682	800008d4	00007d97	auipc	x27,0x7	 x27=0x800078d0
        6845000	       683	800008d8	79bd8d93	addi	x27,x27,1947	 x27:0x800078d0 x27=0x8000806b
        6855000	       684	800008dc	006961b3	or	x3,x18,x6	 x18:0x8000c5d0  x6:0x000014c6  x3=0x8000d5d6
        6865000	       685	800008e0	000521b3	slt	x3,x10,x0	 x10:0x0000000b  x0:0x00000000  x3=0x00000000
        6875000	       686	800008e4	00000013	addi	x0,x0,0	  x0:0x00000000
        6885000	       687	800008e8	00ed8903	lb	x18,14(x27)	 x27:0x8000806b x18=0xffffffeb PA:0x80008079
        6895000	       688	800008ec	8d45e217	auipc	x4,0x8d45e	  x4=0x0d45e8e8
        6905000	       689	800008f0	01280233	add	x4,x16,x18	 x16:0xfffff97f x18:0xffffffeb  x4=0xfffff96a
        6915000	       690	800008f4	fedda8a3	sw	x13,-15(x27)	 x27:0x8000806b x13:0xffffffc3 PA:0x8000805c
        6925000	       691	800008f8	003d95a3	sh	x3,11(x27)	 x27:0x8000806b  x3:0x00000000 PA:0x80008076
        6935000	       692	800008fc	005d8c03	lb	x24,5(x27)	 x27:0x8000806b x24=0x00000000 PA:0x80008070
        6945000	       693	80000900	002dc683	lbu	x13,2(x27)	 x27:0x8000806b x13=0x00000073 PA:0x8000806d
        6955000	       694	80000904	008dcb03	lbu	x22,8(x27)	 x27:0x8000806b x22=0x0000002f PA:0x80008073
        6965000	       695	80000908	018a0333	add	x6,x20,x24	 x20:0x000002c7 x24:0x00000000  x6=0x000002c7
        6975000	       696	8000090c	feed99a3	sh	x14,-13(x27)	 x27:0x8000806b x14:0x00000e59 PA:0x8000805e
        6985000	       697	80000910	fe2d8fa3	sb	x2,-1(x27)	 x27:0x8000806b  x2:0x000000d8 PA:0x8000806a
        6995000	       698	80000914	ff8d8203	lb	x4,-8(x27)	 x27:0x8000806b  x4=0x00000005 PA:0x80008063
        7005000	       699	80000918	000dcf83	lbu	x31,0(x27)	 x27:0x8000806b x31=0x00000001 PA:0x8000806b
        7015000	       700	8000091c	004d91a3	sh	x4,3(x27)	 x27:0x8000806b  x4:0x00000005 PA:0x8000806e
        7025000	       701	80000920	ff2d9ea3	sh	x18,-3(x27)	 x27:0x8000806b x18:0xffffffeb PA:0x80008068
        7035000	       702	80000924	fe6d8a23	sb	x6,-12(x27)	 x27:0x8000806b  x6:0x000002c7 PA:0x8000805f
        7045000	       703	80000928	ffddc203	lbu	x4,-3(x27)	 x27:0x8000806b  x4=0x000000eb PA:0x80008068
        7055000	       704	8000092c	ffcd8103	lb	x2,-4(x27)	 x27:0x8000806b  x2=0x0000002f PA:0x80008067
        7065000	       705	80000930	001da503	lw	x10,1(x27)	 x27:0x8000806b x10=0x00057318 PA:0x8000806c
        7075000	       706	80000934	00bddb83	lhu	x23,11(x27)	 x27:0x8000806b x23=0x00000000 PA:0x80008076
        7085000	       707	80000938	01e511b3	sll	x3,x10,x30	 x10:0x00057318 x30:0x00000014  x3=0x31800000
        7095000	       708	8000093c	ff6d8183	lb	x3,-10(x27)	 x27:0x8000806b  x3=0x0000002c PA:0x80008061
        7105000	       709	80000940	004dc183	lbu	x3,4(x27)	 x27:0x8000806b  x3=0x00000000 PA:0x8000806f
        7115000	       710	80000944	00adc503	lbu	x10,10(x27)	 x27:0x8000806b x10=0x00000025 PA:0x80008075
        7125000	       711	80000948	004d8c83	lb	x25,4(x27)	 x27:0x8000806b x25=0x00000000 PA:0x8000806f
        7135000	       712	8000094c	ffbdd183	lhu	x3,-5(x27)	 x27:0x8000806b  x3=0x00002f73 PA:0x80008066
        7145000	       713	80000950	014864b3	or	x9,x16,x20	 x16:0xfffff97f x20:0x000002c7  x9=0xfffffbff
        7155000	       714	80000954	ffbd9f83	lh	x31,-5(x27)	 x27:0x8000806b x31=0x00002f73 PA:0x80008066
        7165000	       715	80000958	00ddcc83	lbu	x25,13(x27)	 x27:0x8000806b x25=0x0000004a PA:0x80008078
        7175000	       716	8000095c	0c9a3f13	sltiu	x30,x20,201	 x20:0x000002c7 x30=0x00000000
        7185000	       717	80000960	014ed3b3	srl	x7,x29,x20	 x29:0xffffffd4 x20:0x000002c7  x7=0x01ffffff
        7195000	       718	80000964	ff5d9303	lh	x6,-11(x27)	 x27:0x8000806b  x6=0x00002c42 PA:0x80008060
        7205000	       719	80000968	ffbd9403	lh	x8,-5(x27)	 x27:0x8000806b  x8=0x00002f73 PA:0x80008066
        7215000	       720	8000096c	ffed8683	lb	x13,-2(x27)	 x27:0x8000806b x13=0xffffffff PA:0x80008069
        7225000	       721	80000970	ffcd8c03	lb	x24,-4(x27)	 x27:0x8000806b x24=0x0000002f PA:0x80008067
        7235000	       722	00000000	00000013	addi	x0,x0,0	  x0:0x00000000
        7245000	       723	80000974	ff8d8083	lb	x1,-8(x27)	 x27:0x8000806b  x1=0x00000005 PA:0x80008063
        7255000	       724	00000000	00000013	addi	x0,x0,0	  x0:0x00000000
        7265000	       725	80000978	00008117	auipc	x2,0x8	  x2=0x80008974
        7275000	       726	8000097c	d2110113	addi	x2,x2,-735	  x2:0x80008974  x2=0x80008695
        7285000	       727	80000980	00ed9313	slli	x6,x27,0xe	 x27:0x8000806b  x6=0x201ac000
        7295000	       728	80000984	01e102a3	sb	x30,5(x2)	  x2:0x80008695 x30:0x00000000 PA:0x8000869a
        7305000	       729	80000988	00314203	lbu	x4,3(x2)	  x2:0x80008695  x4=0x000000df PA:0x80008698
        7315000	       730	8000098c	00000013	addi	x0,x0,0	  x0:0x00000000
        7325000	       731	80000990	00614c03	lbu	x24,6(x2)	  x2:0x80008695 x24=0x000000be PA:0x8000869b
        7335000	       732	80000994	00783233	sltu	x4,x16,x7	 x16:0xfffff97f  x7:0x01ffffff  x4=0x00000000
        7345000	       733	80000998	d5c11617	auipc	x12,0xd5c11	 x12=0x55c11994
        7355000	       734	8000099c	ff915403	lhu	x8,-7(x2)	  x2:0x80008695  x8=0x0000b5fa PA:0x8000868e
        7365000	       735	800009a0	01910723	sb	x25,14(x2)	  x2:0x80008695 x25:0x0000004a PA:0x800086a3
        7375000	       736	800009a4	01f03533	sltu	x10,x0,x31	  x0:0x00000000 x31:0x00002f73 x10=0x00000001
        7385000	       737	800009a8	010b1c93	slli	x25,x22,0x10	 x22:0x0000002f x25=0x002f0000
        7395000	       738	800009ac	0034be33	sltu	x28,x9,x3	  x9:0xfffffbff  x3:0x00002f73 x28=0x00000000
        7405000	       739	800009b0	ff510a03	lb	x20,-11(x2)	  x2:0x80008695 x20=0xffffff9d PA:0x8000868a
        7415000	       740	800009b4	00000013	addi	x0,x0,0	  x0:0x00000000
        7425000	       741	800009b8	00e14f83	lbu	x31,14(x2)	  x2:0x80008695 x31=0x0000004a PA:0x800086a3
        7435000	       742	800009bc	013106a3	sb	x19,13(x2)	  x2:0x80008695 x19:0x000000ef PA:0x800086a2
        7445000	       743	800009c0	ff911603	lh	x12,-7(x2)	  x2:0x80008695 x12=0xffffb5fa PA:0x8000868e
        7455000	       744	800009c4	41c05013	srai	x0,x0,0x1c	  x0:0x00000000
        7465000	       745	800009c8	019fa733	slt	x14,x31,x25	 x31:0x0000004a x25:0x002f0000 x14=0x00000001
        7475000	       746	800009cc	00397533	and	x10,x18,x3	 x18:0xffffffeb  x3:0x00002f73 x10=0x00002f63
        7485000	       747	800009d0	405ad613	srai	x12,x21,0x5	 x21:0xffffffd4 x12=0xfffffffe
        7495000	       748	800009d4	00a117a3	sh	x10,15(x2)	  x2:0x80008695 x10:0x00002f63 PA:0x800086a4
        7505000	       749	800009d8	40e0de93	srai	x29,x1,0xe	  x1:0x00000005 x29=0x00000000
        7515000	       750	800009dc	19f4cb13	xori	x22,x9,415	  x9:0xfffffbff x22=0xfffffa60
        7525000	       751	800009e0	a7802513	slti	x10,x0,-1416	  x0:0x00000000 x10=0x00000000
        7535000	       752	800009e4	fe310b23	sb	x3,-10(x2)	  x2:0x80008695  x3:0x00002f73 PA:0x8000868b
        7545000	       753	800009e8	00911683	lh	x13,9(x2)	  x2:0x80008695 x13=0x00004420 PA:0x8000869e
        7555000	       754	800009ec	017be733	or	x14,x23,x23	 x23:0x00000000 x23:0x00000000 x14=0x00000000
        7565000	       755	800009f0	004bdf13	srli	x30,x23,0x4	 x23:0x00000000 x30=0x00000000
        7575000	       756	800009f4	ffa10f03	lb	x30,-6(x2)	  x2:0x80008695 x30=0xffffffb5 PA:0x8000868f
        7585000	       757	800009f8	ff710c03	lb	x24,-9(x2)	  x2:0x80008695 x24=0xffffffa9 PA:0x8000868c
        7595000	       758	800009fc	ff715e03	lhu	x28,-9(x2)	  x2:0x80008695 x28=0x000050a9 PA:0x8000868c
        7605000	       759	80000a00	00008e97	auipc	x29,0x8	 x29=0x800089fc
        7615000	       760	80000a04	d46e8e93	addi	x29,x29,-698	 x29:0x800089fc x29=0x80008742
        7625000	       761	80000a08	40b682b3	sub	x5,x13,x11	 x13:0x00004420 x11:0x8000892a  x5=0x7fffbaf6
        7635000	       762	80000a0c	0095ae33	slt	x28,x11,x9	 x11:0x8000892a  x9:0xfffffbff x28=0x00000001
        7645000	       763	80000a10	0117f733	and	x14,x15,x17	 x15:0x80009fc4 x17:0x80009f2c x14=0x80009f04
        7655000	       764	80000a14	4d1cb497	auipc	x9,0x4d1cb	  x9=0xcd1cba10
        7665000	       765	80000a18	036ecf03	lbu	x30,54(x29)	 x29:0x80008742 x30=0x000000a6 PA:0x80008778
        7675000	       766	80000a1c	00f27e33	and	x28,x4,x15	  x4:0x00000000 x15:0x80009fc4 x28=0x00000000
        7685000	       767	80000a20	02aec683	lbu	x13,42(x29)	 x29:0x80008742 x13=0x00000098 PA:0x8000876c
        7695000	       768	80000a24	ff6e9b83	lh	x23,-10(x29)	 x29:0x80008742 x23=0x00006158 PA:0x80008738
        7705000	       769	80000a28	027ea323	sw	x7,38(x29)	 x29:0x80008742  x7:0x01ffffff PA:0x80008768
        7715000	       770	80000a2c	01ef90b3	sll	x1,x31,x30	 x31:0x0000004a x30:0x000000a6  x1=0x00001280
        7725000	       771	80000a30	00cbabb3	slt	x23,x23,x12	 x23:0x00006158 x12:0xfffffffe x23=0x00000000
        7735000	       772	80000a34	02decb03	lbu	x22,45(x29)	 x29:0x80008742 x22=0x0000003c PA:0x8000876f
        7745000	       773	80000a38	fececd83	lbu	x27,-20(x29)	 x29:0x80008742 x27=0x0000007d PA:0x8000872e
        7755000	       774	80000a3c	073c2713	slti	x14,x24,115	 x24:0xffffffa9 x14=0x00000001
        7765000	       775	80000a40	00000013	addi	x0,x0,0	  x0:0x00000000
        7775000	       776	80000a44	41f609b3	sub	x19,x12,x31	 x12:0xfffffffe x31:0x0000004a x19=0xffffffb4
        7785000	       777	80000a48	003e8003	lb	x0,3(x29)	 x29:0x80008742 PA:0x80008745
        7795000	       778	80000a4c	02be8a03	lb	x20,43(x29)	 x29:0x80008742 x20=0xffffffc6 PA:0x8000876d
        7805000	       779	80000a50	fe2e9b03	lh	x22,-30(x29)	 x29:0x80008742 x22=0xffffb9c4 PA:0x80008724
        7815000	       780	80000a54	412856b3	sra	x13,x16,x18	 x16:0xfffff97f x18:0xffffffeb x13=0xffffffff
        7825000	       781	80000a58	00c21413	slli	x8,x4,0xc	  x4:0x00000000  x8=0x00000000
        7835000	       782	80000a5c	fe7e8f83	lb	x31,-25(x29)	 x29:0x80008742 x31=0xffffffff PA:0x80008729
        7845000	       783	80000a60	01278333	add	x6,x15,x18	 x15:0x80009fc4 x18:0xffffffeb  x6=0x80009faf
        7855000	       784	80000a64	0108e5b3	or	x11,x17,x16	 x17:0x80009f2c x16:0xfffff97f x11=0xffffff7f
        7865000	       785	80000a68	feeeaf23	sw	x14,-2(x29)	 x29:0x80008742 x14:0x00000001 PA:0x80008740
        7875000	       786	80000a6c	024e8383	lb	x7,36(x29)	 x29:0x80008742  x7=0x00000043 PA:0x80008766
        7885000	       787	80000a70	ffde8ba3	sb	x29,-9(x29)	 x29:0x80008742 x29:0x80008742 PA:0x80008739
        7895000	       788	80000a74	011f1b33	sll	x22,x30,x17	 x30:0x000000a6 x17:0x80009f2c x22=0x000a6000
        7905000	       789	80000a78	007ea523	sw	x7,10(x29)	 x29:0x80008742  x7:0x00000043 PA:0x8000874c
        7915000	       790	80000a7c	187d2f93	slti	x31,x26,391	 x26:0x00000004 x31=0x00000001
        7925000	       791	80000a80	001e9223	sh	x1,4(x29)	 x29:0x80008742  x1:0x00001280 PA:0x80008746
        7935000	       792	80000a84	00e46633	or	x12,x8,x14	  x8:0x00000000 x14:0x00000001 x12=0x00000001
        7945000	       793	80000a88	011205b3	add	x11,x4,x17	  x4:0x00000000 x17:0x80009f2c x11=0x80009f2c
        7955000	       794	80000a8c	01f07733	and	x14,x0,x31	  x0:0x00000000 x31:0x00000001 x14=0x00000000
        7965000	       795	80000a90	02fece03	lbu	x28,47(x29)	 x29:0x80008742 x28=0x000000d7 PA:0x80008771
        7975000	       796	80000a94	8d3db213	sltiu	x4,x27,-1837	 x27:0x0000007d  x4=0x00000001
        7985000	       797	80000a98	fe4e83a3	sb	x4,-25(x29)	 x29:0x80008742  x4:0x00000001 PA:0x80008729
        7995000	       798	80000a9c	ff4ec183	lbu	x3,-12(x29)	 x29:0x80008742  x3=0x00000075 PA:0x80008736
        8005000	       799	80000aa0	fc6e8d83	lb	x27,-58(x29)	 x29:0x80008742 x27=0xffffffb8 PA:0x80008708
        8015000	       800	80000aa4	005aef33	or	x30,x21,x5	 x21:0xffffffd4  x5:0x7fffbaf6 x30=0xfffffff6
        8025000	       801	80000aa8	40170333	sub	x6,x14,x1	 x14:0x00000000  x1:0x00001280  x6=0xffffed80
        8035000	       802	80000aac	ff5ea523	sw	x21,-22(x29)	 x29:0x80008742 x21:0xffffffd4 PA:0x8000872c
        8045000	       803	80000ab0	01e58b33	add	x22,x11,x30	 x11:0x80009f2c x30:0xfffffff6 x22=0x80009f22
        8055000	       804	80000ab4	00d6a5b3	slt	x11,x13,x13	 x13:0xffffffff x13:0xffffffff x11=0x00000000
        8065000	       805	80000ab8	037e84a3	sb	x23,41(x29)	 x29:0x80008742 x23:0x00000000 PA:0x8000876b
        8075000	       806	80000abc	fcbe80a3	sb	x11,-63(x29)	 x29:0x80008742 x11:0x00000000 PA:0x80008703
        8085000	       807	80000ac0	017e8683	lb	x13,23(x29)	 x29:0x80008742 x13=0xffffffa8 PA:0x80008759
        8095000	       808	80000ac4	00007e17	auipc	x28,0x7	 x28=0x80007ac0
        8105000	       809	80000ac8	703e0e13	addi	x28,x28,1795	 x28:0x80007ac0 x28=0x800081c3
        8115000	       810	80000acc	00000013	addi	x0,x0,0	  x0:0x00000000
        8125000	       811	80000ad0	00f3a3b3	slt	x7,x7,x15	  x7:0x00000043 x15:0x80009fc4  x7=0x00000000
        8135000	       812	80000ad4	4d4e0183	lb	x3,1236(x28)	 x28:0x800081c3  x3=0x00000064 PA:0x80008697
        8145000	       813	80000ad8	17be1b03	lh	x22,379(x28)	 x28:0x800081c3 x22=0x0000619a PA:0x8000833e
        8155000	       814	80000adc	495e01a3	sb	x21,1155(x28)	 x28:0x800081c3 x21:0xffffffd4 PA:0x80008646
        8165000	       815	80000ae0	00569913	slli	x18,x13,0x5	 x13:0xffffffa8 x18=0xfffff500
        8175000	       816	80000ae4	614e4403	lbu	x8,1556(x28)	 x28:0x800081c3  x8=0x00000003 PA:0x800087d7
        8185000	       817	80000ae8	002d9193	slli	x3,x27,0x2	 x27:0xffffffb8  x3=0xfffffee0
        8195000	       818	80000aec	f1052193	slti	x3,x10,-240	 x10:0x00000000  x3=0x00000000
        8205000	       819	80000af0	fa4e0503	lb	x10,-92(x28)	 x28:0x800081c3 x10=0x00000068 PA:0x80008167
        8215000	       820	80000af4	01237b33	and	x22,x6,x18	  x6:0xffffed80 x18:0xfffff500 x22=0xffffe500
        8225000	       821	80000af8	586e4f03	lbu	x30,1414(x28)	 x28:0x800081c3 x30=0x00000061 PA:0x80008749
        8235000	       822	80000afc	081e0b23	sb	x1,150(x28)	 x28:0x800081c3  x1:0x00001280 PA:0x80008259
        8245000	       823	80000b00	5614ea13	ori	x20,x9,1377	  x9:0xcd1cba10 x20=0xcd1cbf71
        8255000	       824	80000b04	5a3e0103	lb	x2,1443(x28)	 x28:0x800081c3  x2=0x00000043 PA:0x80008766
        8265000	       825	80000b08	00844233	xor	x4,x8,x8	  x8:0x00000003  x8:0x00000003  x4=0x00000000
        8275000	       826	80000b0c	4131d9b3	sra	x19,x3,x19	  x3:0x00000000 x19:0xffffffb4 x19=0x00000000
        8285000	       827	80000b10	00872fb3	slt	x31,x14,x8	 x14:0x00000000  x8:0x00000003 x31=0x00000001
        8295000	       828	80000b14	01181193	slli	x3,x16,0x11	 x16:0xfffff97f  x3=0xf2fe0000
        8305000	       829	80000b18	8c756b93	ori	x23,x10,-1849	 x10:0x00000068 x23=0xfffff8ef
        8315000	       830	80000b1c	b69dac13	slti	x24,x27,-1175	 x27:0xffffffb8 x24=0x00000000
        8325000	       831	80000b20	0066d413	srli	x8,x13,0x6	 x13:0xffffffa8  x8=0x03fffffe
        8335000	       832	80000b24	078e4f03	lbu	x30,120(x28)	 x28:0x800081c3 x30=0x000000aa PA:0x8000823b
        8345000	       833	80000b28	2c9e5b83	lhu	x23,713(x28)	 x28:0x800081c3 x23=0x00003a21 PA:0x8000848c
        8355000	       834	80000b2c	159e0e23	sb	x25,348(x28)	 x28:0x800081c3 x25:0x002f0000 PA:0x8000831f
        8365000	       835	80000b30	00e7db33	srl	x22,x15,x14	 x15:0x80009fc4 x14:0x00000000 x22=0x80009fc4
        8375000	       836	80000b34	0014af33	slt	x30,x9,x1	  x9:0xcd1cba10  x1:0x00001280 x30=0x00000001
        8385000	       837	80000b38	49ce4503	lbu	x10,1180(x28)	 x28:0x800081c3 x10=0x00000070 PA:0x8000865f
        8395000	       838	80000b3c	00008917	auipc	x18,0x8	 x18=0x80008b38
        8405000	       839	80000b40	1b290913	addi	x18,x18,434	 x18:0x80008b38 x18=0x80008cea
        8415000	       840	80000b44	00752cb3	slt	x25,x10,x7	 x10:0x00000070  x7:0x00000000 x25=0x00000000
        8425000	       841	80000b48	0e490023	sb	x4,224(x18)	 x18:0x80008cea  x4:0x00000000 PA:0x80008dca
        8435000	       842	80000b4c	0ff904a3	sb	x31,233(x18)	 x18:0x80008cea x31:0x00000001 PA:0x80008dd3
        8445000	       843	80000b50	01881a33	sll	x20,x16,x24	 x16:0xfffff97f x24:0x00000000 x20=0xfffff97f
        8455000	       844	80000b54	f5aba393	slti	x7,x23,-166	 x23:0x00003a21  x7=0x00000000
        8465000	       845	80000b58	019da033	slt	x0,x27,x25	 x27:0xffffffb8 x25:0x00000000
        8475000	       846	80000b5c	c6f82b13	slti	x22,x16,-913	 x16:0xfffff97f x22=0x00000001
        8485000	       847	80000b60	f0b90703	lb	x14,-245(x18)	 x18:0x80008cea x14=0xffffffe4 PA:0x80008bf5
        8495000	       848	80000b64	03d909a3	sb	x29,51(x18)	 x18:0x80008cea x29:0x80008742 PA:0x80008d1d
        8505000	       849	80000b68	40f7d013	srai	x0,x15,0xf	 x15:0x80009fc4
        8515000	       850	80000b6c	007d65b3	or	x11,x26,x7	 x26:0x00000004  x7:0x00000000 x11=0x00000004
        8525000	       851	80000b70	0098a533	slt	x10,x17,x9	 x17:0x80009f2c  x9:0xcd1cba10 x10=0x00000001
        8535000	       852	80000b74	02490a03	lb	x20,36(x18)	 x18:0x80008cea x20=0xffffffb2 PA:0x80008d0e
        8545000	       853	80000b78	f0295c83	lhu	x25,-254(x18)	 x18:0x80008cea x25=0x00000c49 PA:0x80008bec
        8555000	       854	80000b7c	08091203	lh	x4,128(x18)	 x18:0x80008cea  x4=0xffffc659 PA:0x80008d6a
        8565000	       855	80000b80	fec91a23	sh	x12,-12(x18)	 x18:0x80008cea x12:0x00000001 PA:0x80008cde
        8575000	       856	80000b84	00d59613	slli	x12,x11,0xd	 x11:0x00000004 x12=0x00008000
        8585000	       857	80000b88	013d59b3	srl	x19,x26,x19	 x26:0x00000004 x19:0x00000000 x19=0x00000004
        8595000	       858	80000b8c	00f90303	lb	x6,15(x18)	 x18:0x80008cea  x6=0xffffffca PA:0x80008cf9
        8605000	       859	80000b90	474f0617	auipc	x12,0x474f0	 x12=0xc74f0b8c
        8615000	       860	80000b94	f2d90603	lb	x12,-211(x18)	 x18:0x80008cea x12=0xffffffc4 PA:0x80008c17
        8625000	       861	80000b98	00413a33	sltu	x20,x2,x4	  x2:0x00000043  x4:0xffffc659 x20=0x00000001
        8635000	       862	80000b9c	0ed90c83	lb	x25,237(x18)	 x18:0x80008cea x25=0x0000003b PA:0x80008dd7
        8645000	       863	80000ba0	06790ea3	sb	x7,125(x18)	 x18:0x80008cea  x7:0x00000000 PA:0x80008d67
        8655000	       864	80000ba4	400101b3	sub	x3,x2,x0	  x2:0x00000043  x0:0x00000000  x3=0x00000043
        8665000	       865	80000ba8	fcb904a3	sb	x11,-55(x18)	 x18:0x80008cea x11:0x00000004 PA:0x80008cb3
        8675000	       866	80000bac	00853333	sltu	x6,x10,x8	 x10:0x00000001  x8:0x03fffffe  x6=0x00000001
        8685000	       867	80000bb0	f3690803	lb	x16,-202(x18)	 x18:0x80008cea x16=0x00000005 PA:0x80008c20
        8695000	       868	80000bb4	00aa9233	sll	x4,x21,x10	 x21:0xffffffd4 x10:0x00000001  x4=0xffffffa8
        8705000	       869	80000bb8	01535f13	srli	x30,x6,0x15	  x6:0x00000001 x30=0x00000000
        8715000	       870	80000bbc	00a01a13	slli	x20,x0,0xa	  x0:0x00000000 x20=0x00000000
        8725000	       871	80000bc0	fb6e6513	ori	x10,x28,-74	 x28:0x800081c3 x10=0xfffffff7
        8735000	       872	80000bc4	00000013	addi	x0,x0,0	  x0:0x00000000
        8745000	       873	80000bc8	fa491d83	lh	x27,-92(x18)	 x18:0x80008cea x27=0x00001d07 PA:0x80008c8e
        8755000	       874	80000bcc	7763b493	sltiu	x9,x7,1910	  x7:0x00000000  x9=0x00000001
        8765000	       875	80000bd0	84a3ec13	ori	x24,x7,-1974	  x7:0x00000000 x24=0xfffff84a
        8775000	       876	80000bd4	054900a3	sb	x20,65(x18)	 x18:0x80008cea x20:0x00000000 PA:0x80008d2b
        8785000	       877	80000bd8	c9ef2c93	slti	x25,x30,-866	 x30:0x00000000 x25=0x00000000
        8795000	       878	80000bdc	0e8907a3	sb	x8,239(x18)	 x18:0x80008cea  x8:0x03fffffe PA:0x80008dd9
        8805000	       879	80000be0	8a108693	addi	x13,x1,-1887	  x1:0x00001280 x13=0x00000b21
        8815000	       880	80000be4	40195a93	srai	x21,x18,0x1	 x18:0x80008cea x21=0xc0004675
        8825000	       881	80000be8	00000013	addi	x0,x0,0	  x0:0x00000000
        8835000	       882	80000bec	c7db3413	sltiu	x8,x22,-899	 x22:0x00000001  x8=0x00000001
        8845000	       883	80000bf0	0f292b83	lw	x23,242(x18)	 x18:0x80008cea x23=0x6bbca56e PA:0x80008ddc
        8855000	       884	80000bf4	fc394203	lbu	x4,-61(x18)	 x18:0x80008cea  x4=0x0000001a PA:0x80008cad
        8865000	       885	80000bf8	f1f94e83	lbu	x29,-225(x18)	 x18:0x80008cea x29=0x000000e4 PA:0x80008c09
        8875000	       886	80000bfc	041904a3	sb	x1,73(x18)	 x18:0x80008cea  x1:0x00001280 PA:0x80008d33
        8885000	       887	80000c00	f2291e03	lh	x28,-222(x18)	 x18:0x80008cea x28=0x00005a90 PA:0x80008c0c
        8895000	       888	80000c04	0e690a03	lb	x20,230(x18)	 x18:0x80008cea x20=0xffffffc6 PA:0x80008dd0
        8905000	       889	80000c08	fe190683	lb	x13,-31(x18)	 x18:0x80008cea x13=0x00000041 PA:0x80008ccb
        8915000	       890	80000c0c	00007e97	auipc	x29,0x7	 x29=0x80007c08
        8925000	       891	80000c10	63fe8e93	addi	x29,x29,1599	 x29:0x80007c08 x29=0x80008247
        8935000	       892	80000c14	015e8633	add	x12,x29,x21	 x29:0x80008247 x21:0xc0004675 x12=0x4000c8bc
        8945000	       893	80000c18	01e95193	srli	x3,x18,0x1e	 x18:0x80008cea  x3=0x00000002
        8955000	       894	80000c1c	ff6e8103	lb	x2,-10(x29)	 x29:0x80008247  x2=0xffffffba PA:0x8000823d
        8965000	       895	80000c20	ff8e8b83	lb	x23,-8(x29)	 x29:0x80008247 x23=0x0000000a PA:0x8000823f
        8975000	       896	80000c24	ff0e8583	lb	x11,-16(x29)	 x29:0x80008247 x11=0xfffffff3 PA:0x80008237
        8985000	       897	80000c28	016ac5b3	xor	x11,x21,x22	 x21:0xc0004675 x22:0x00000001 x11=0xc0004674
        8995000	       898	80000c2c	ad80ba93	sltiu	x21,x1,-1320	  x1:0x00001280 x21=0x00000001
        9005000	       899	80000c30	f9d56b13	ori	x22,x10,-99	 x10:0xfffffff7 x22=0xffffffff
        9015000	       900	80000c34	fe2e8a23	sb	x2,-12(x29)	 x29:0x80008247  x2:0xffffffba PA:0x8000823b
        9025000	       901	80000c38	009e8483	lb	x9,9(x29)	 x29:0x80008247  x9=0x0000004a PA:0x80008250
        9035000	       902	00000000	00000013	addi	x0,x0,0	  x0:0x00000000
        9045000	       903	80000c3c	01449f33	sll	x30,x9,x20	  x9:0x0000004a x20:0xffffffc6 x30=0x00001280
        9055000	       904	80000c40	fe7eaca3	sw	x7,-7(x29)	 x29:0x80008247  x7:0x00000000 PA:0x80008240
        9065000	       905	80000c44	ff1eaa03	lw	x20,-15(x29)	 x29:0x80008247 x20=0xbab1dbfb PA:0x80008238
        9075000	       906	80000c48	fe1e8a23	sb	x1,-12(x29)	 x29:0x80008247  x1:0x00001280 PA:0x8000823b
        9085000	       907	80000c4c	00ae8b83	lb	x23,10(x29)	 x29:0x80008247 x23=0x00000014 PA:0x80008251
        9095000	       908	80000c50	6d2b2013	slti	x0,x22,1746	 x22:0xffffffff
        9105000	       909	80000c54	01b801b3	add	x3,x16,x27	 x16:0x00000005 x27:0x00001d07  x3=0x00001d0c
        9115000	       910	80000c58	d4f73713	sltiu	x14,x14,-689	 x14:0xffffffe4 x14=0x00000000
        9125000	       911	80000c5c	0b49b517	auipc	x10,0xb49b	 x10=0x8b49bc58
        9135000	       912	80000c60	4045dcb3	sra	x25,x11,x4	 x11:0xc0004674  x4:0x0000001a x25=0xfffffff0
        9145000	       913	80000c64	002e8c03	lb	x24,2(x29)	 x29:0x80008247 x24=0xffffff88 PA:0x80008249
        9155000	       914	80000c68	ff9e8483	lb	x9,-7(x29)	 x29:0x80008247  x9=0x00000000 PA:0x80008240
        9165000	       915	80000c6c	00aa3033	sltu	x0,x20,x10	 x20:0xbab1dbfb x10:0x8b49bc58
        9175000	       916	80000c70	ff3e8e23	sb	x19,-4(x29)	 x29:0x80008247 x19:0x00000004 PA:0x80008243
        9185000	       917	80000c74	fe7e8823	sb	x7,-16(x29)	 x29:0x80008247  x7:0x00000000 PA:0x80008237
        9195000	       918	80000c78	0149b1b3	sltu	x3,x19,x20	 x19:0x00000004 x20:0xbab1dbfb  x3=0x00000001
        9205000	       919	80000c7c	ddbbc113	xori	x2,x23,-549	 x23:0x00000014  x2=0xfffffdcf
        9215000	       920	80000c80	01aa3c33	sltu	x24,x20,x26	 x20:0xbab1dbfb x26:0x00000004 x24=0x00000000
        9225000	       921	80000c84	70e88e13	addi	x28,x17,1806	 x17:0x80009f2c x28=0x8000a63a
        9235000	       922	80000c88	ff5e8d23	sb	x21,-6(x29)	 x29:0x80008247 x21:0x00000001 PA:0x80008241
        9245000	       923	80000c8c	00237ab3	and	x21,x6,x2	  x6:0x00000001  x2:0xfffffdcf x21=0x00000001
        9255000	       924	80000c90	bc4f7537	lui	x10,0xbc4f7	 x10=0xbc4f7000
        9265000	       925	80000c94	3d3ea413	slti	x8,x29,979	 x29:0x80008247  x8=0x00000001
        9275000	       926	80000c98	404c89b3	sub	x19,x25,x4	 x25:0xfffffff0  x4:0x0000001a x19=0xffffffd6
        9285000	       927	80000c9c	fe7e8b23	sb	x7,-10(x29)	 x29:0x80008247  x7:0x00000000 PA:0x8000823d
        9295000	       928	80000ca0	ff7e9da3	sh	x23,-5(x29)	 x29:0x80008247 x23:0x00000014 PA:0x80008242
        9305000	       929	80000ca4	ff0ecd83	lbu	x27,-16(x29)	 x29:0x80008247 x27=0x00000000 PA:0x80008237
        9315000	       930	80000ca8	ff2ecb83	lbu	x23,-14(x29)	 x29:0x80008247 x23=0x000000db PA:0x80008239
        9325000	       931	80000cac	012d6833	or	x16,x26,x18	 x26:0x00000004 x18:0x80008cea x16=0x80008cee
        9335000	       932	80000cb0	4b88a137	lui	x2,0x4b88a	  x2=0x4b88a000
        9345000	       933	80000cb4	ff9e9183	lh	x3,-7(x29)	 x29:0x80008247  x3=0x00000100 PA:0x80008240
        9355000	       934	80000cb8	ff0e8383	lb	x7,-16(x29)	 x29:0x80008247  x7=0x00000000 PA:0x80008237
        9365000	       935	80000cbc	005e8283	lb	x5,5(x29)	 x29:0x80008247  x5=0xffffff9b PA:0x8000824c
        9375000	       936	80000cc0	01cc0033	add	x0,x24,x28	 x24:0x00000000 x28:0x8000a63a
        9385000	       937	80000cc4	012e8123	sb	x18,2(x29)	 x29:0x80008247 x18:0x80008cea PA:0x80008249
        9395000	       938	80000cc8	00ce8f83	lb	x31,12(x29)	 x29:0x80008247 x31=0x00000011 PA:0x80008253
        9405000	       939	80000ccc	ff1e8b23	sb	x17,-10(x29)	 x29:0x80008247 x17:0x80009f2c PA:0x8000823d
        9415000	       940	80000cd0	ff7e9103	lh	x2,-9(x29)	 x29:0x80008247  x2=0x00000afc PA:0x8000823e
        9425000	       941	80000cd4	5a77ea13	ori	x20,x15,1447	 x15:0x80009fc4 x20=0x80009fe7
        9435000	       942	80000cd8	40270c33	sub	x24,x14,x2	 x14:0x00000000  x2:0x00000afc x24=0xfffff504
        9445000	       943	80000cdc	0063c233	xor	x4,x7,x6	  x7:0x00000000  x6:0x00000001  x4=0x00000001
        9455000	       944	80000ce0	fffe9b83	lh	x23,-1(x29)	 x29:0x80008247 x23=0xfffffc07 PA:0x80008246
        9465000	       945	80000ce4	00ae8503	lb	x10,10(x29)	 x29:0x80008247 x10=0x00000014 PA:0x80008251
        9475000	       946	80000ce8	009ec6b3	xor	x13,x29,x9	 x29:0x80008247  x9:0x00000000 x13=0x80008247
        9485000	       947	80000cec	c36b2f93	slti	x31,x22,-970	 x22:0xffffffff x31=0x00000000
        9495000	       948	80000cf0	007e9f83	lh	x31,7(x29)	 x29:0x80008247 x31=0x00000a8b PA:0x8000824e
        9505000	       949	80000cf4	00008417	auipc	x8,0x8	  x8=0x80008cf0
        9515000	       950	80000cf8	03d40413	addi	x8,x8,61	  x8:0x80008cf0  x8=0x80008d2d
        9525000	       951	80000cfc	01040823	sb	x16,16(x8)	  x8:0x80008d2d x16:0x80008cee PA:0x80008d3d
        9535000	       952	80000d00	00344c03	lbu	x24,3(x8)	  x8:0x80008d2d x24=0x0000004d PA:0x80008d30
        9545000	       953	80000d04	4174d713	srai	x14,x9,0x17	  x9:0x00000000 x14=0x00000000
        9555000	       954	80000d08	0108a0b3	slt	x1,x17,x16	 x17:0x80009f2c x16:0x80008cee  x1=0x00000000
        9565000	       955	80000d0c	ffa41da3	sh	x26,-5(x8)	  x8:0x80008d2d x26:0x00000004 PA:0x80008d28
        9575000	       956	80000d10	00c44603	lbu	x12,12(x8)	  x8:0x80008d2d x12=0x00000052 PA:0x80008d39
        9585000	       957	80000d14	00640e03	lb	x28,6(x8)	  x8:0x80008d2d x28=0xffffff80 PA:0x80008d33
        9595000	       958	80000d18	00d02f33	slt	x30,x0,x13	  x0:0x00000000 x13:0x80008247 x30=0x00000000
        9605000	       959	80000d1c	000fdf93	srli	x31,x31,0x0	 x31:0x00000a8b x31=0x00000a8b
        9615000	       960	80000d20	ffd40f83	lb	x31,-3(x8)	  x8:0x80008d2d x31=0x0000001e PA:0x80008d2a
        9625000	       961	80000d24	00544e83	lbu	x29,5(x8)	  x8:0x80008d2d x29=0x000000e7 PA:0x80008d32
        9635000	       962	80000d28	ff140603	lb	x12,-15(x8)	  x8:0x80008d2d x12=0xffffffda PA:0x80008d1e
        9645000	       963	80000d2c	fff42f83	lw	x31,-1(x8)	  x8:0x80008d2d x31=0x901d7836 PA:0x80008d2c
        9655000	       964	80000d30	27b072b7	lui	x5,0x27b07	  x5=0x27b07000
        9665000	       965	80000d34	00944e83	lbu	x29,9(x8)	  x8:0x80008d2d x29=0x00000004 PA:0x80008d36
        9675000	       966	80000d38	ff340083	lb	x1,-13(x8)	  x8:0x80008d2d  x1=0xffffffbd PA:0x80008d20
        9685000	       967	80000d3c	ffb42f03	lw	x30,-5(x8)	  x8:0x80008d2d x30=0x001e0004 PA:0x80008d28
        9695000	       968	80000d40	00040683	lb	x13,0(x8)	  x8:0x80008d2d x13=0x00000078 PA:0x80008d2d
        9705000	       969	80000d44	ffa44603	lbu	x12,-6(x8)	  x8:0x80008d2d x12=0x000000bd PA:0x80008d27
        9715000	       970	80000d48	01ef9033	sll	x0,x31,x30	 x31:0x901d7836 x30:0x001e0004
        9725000	       971	80000d4c	00340023	sb	x3,0(x8)	  x8:0x80008d2d  x3:0x00000100 PA:0x80008d2d
        9735000	       972	80000d50	ffa44183	lbu	x3,-6(x8)	  x8:0x80008d2d  x3=0x000000bd PA:0x80008d27
        9745000	       973	80000d54	00140e03	lb	x28,1(x8)	  x8:0x80008d2d x28=0x0000001d PA:0x80008d2e
        9755000	       974	80000d58	01a400a3	sb	x26,1(x8)	  x8:0x80008d2d x26:0x00000004 PA:0x80008d2e
        9765000	       975	80000d5c	01240423	sb	x18,8(x8)	  x8:0x80008d2d x18:0x80008cea PA:0x80008d35
        9775000	       976	80000d60	5c31d537	lui	x10,0x5c31d	 x10=0x5c31d000
        9785000	       977	80000d64	00244103	lbu	x2,2(x8)	  x8:0x80008d2d  x2=0x00000090 PA:0x80008d2f
        9795000	       978	00000000	00000013	addi	x0,x0,0	  x0:0x00000000
        9805000	       979	80000d68	1a27bf93	sltiu	x31,x15,418	 x15:0x80009fc4 x31=0x00000000
        9815000	       980	80000d6c	ffc44383	lbu	x7,-4(x8)	  x8:0x80008d2d  x7=0x00000000 PA:0x80008d29
        9825000	       981	80000d70	00000013	addi	x0,x0,0	  x0:0x00000000
        9835000	       982	80000d74	41e30b33	sub	x22,x6,x30	  x6:0x00000001 x30:0x001e0004 x22=0xffe1fffd
        9845000	       983	80000d78	006625b3	slt	x11,x12,x6	 x12:0x000000bd  x6:0x00000001 x11=0x00000000
        9855000	       984	80000d7c	fe840a23	sb	x8,-12(x8)	  x8:0x80008d2d  x8:0x80008d2d PA:0x80008d21
        9865000	       985	80000d80	00344003	lbu	x0,3(x8)	  x8:0x80008d2d PA:0x80008d30
        9875000	       986	80000d84	01a13b33	sltu	x22,x2,x26	  x2:0x00000090 x26:0x00000004 x22=0x00000000
        9885000	       987	80000d88	ff440fa3	sb	x20,-1(x8)	  x8:0x80008d2d x20:0x80009fe7 PA:0x80008d2c
        9895000	       988	80000d8c	967c6b93	ori	x23,x24,-1689	 x24:0x0000004d x23=0xfffff96f
        9905000	       989	80000d90	00c44d83	lbu	x27,12(x8)	  x8:0x80008d2d x27=0x00000052 PA:0x80008d39
        9915000	       990	80000d94	01040a83	lb	x21,16(x8)	  x8:0x80008d2d x21=0xffffffee PA:0x80008d3d
        9925000	       991	80000d98	01040103	lb	x2,16(x8)	  x8:0x80008d2d  x2=0xffffffee PA:0x80008d3d
        9935000	       992	80000d9c	005730b3	sltu	x1,x14,x5	 x14:0x00000000  x5:0x27b07000  x1=0x00000001
        9945000	       993	80000da0	00345a03	lhu	x20,3(x8)	  x8:0x80008d2d x20=0x0000594d PA:0x80008d30
        9955000	       994	80000da4	41dad133	sra	x2,x21,x29	 x21:0xffffffee x29:0x00000004  x2=0xfffffffe
        9965000	       995	80000da8	419db817	auipc	x16,0x419db	 x16=0xc19dbda4
        9975000	       996	80000dac	008427a3	sw	x8,15(x8)	  x8:0x80008d2d  x8:0x80008d2d PA:0x80008d3c
        9985000	       997	80000db0	00007097	auipc	x1,0x7	  x1=0x80007dac
        9995000	       998	80000db4	7a208093	addi	x1,x1,1954	  x1:0x80007dac  x1=0x8000854e
       10005000	       999	80000db8	03e0d303	lhu	x6,62(x1)	  x1:0x8000854e  x6=0x00008a50 PA:0x8000858c
       10015000	      1000	80000dbc	0011f4b3	and	x9,x3,x1	  x3:0x000000bd  x1:0x8000854e  x9=0x0000000c
       10025000	      1001	80000dc0	fee0db03	lhu	x22,-18(x1)	  x1:0x8000854e x22=0x0000291a PA:0x8000853c
       10035000	      1002	80000dc4	017e9613	slli	x12,x29,0x17	 x29:0x00000004 x12=0x02000000
       10045000	      1003	80000dc8	ff9080a3	sb	x25,-31(x1)	  x1:0x8000854e x25:0xfffffff0 PA:0x8000852f
       10055000	      1004	80000dcc	9eb44f93	xori	x31,x8,-1557	  x8:0x80008d2d x31=0x7fff74c6
       10065000	      1005	80000dd0	fc80c903	lbu	x18,-56(x1)	  x1:0x8000854e x18=0x000000c6 PA:0x80008516
       10075000	      1006	80000dd4	0050c983	lbu	x19,5(x1)	  x1:0x8000854e x19=0x00000028 PA:0x80008553
       10085000	      1007	80000dd8	fc408f83	lb	x31,-60(x1)	  x1:0x8000854e x31=0x00000011 PA:0x80008512
       10095000	      1008	80000ddc	01a401b3	add	x3,x8,x26	  x8:0x80008d2d x26:0x00000004  x3=0x80008d31
       10105000	      1009	80000de0	00a09503	lh	x10,10(x1)	  x1:0x8000854e x10=0x00003ec1 PA:0x80008558
       10115000	      1010	80000de4	01681a33	sll	x20,x16,x22	 x16:0xc19dbda4 x22:0x0000291a x20=0x90000000
       10125000	      1011	80000de8	01508203	lb	x4,21(x1)	  x1:0x8000854e  x4=0xffffffc7 PA:0x80008563
       10135000	      1012	80000dec	412c8fb3	sub	x31,x25,x18	 x25:0xfffffff0 x18:0x000000c6 x31=0xffffff2a
       10145000	      1013	80000df0	6b5c4f93	xori	x31,x24,1717	 x24:0x0000004d x31=0x000006f8
       10155000	      1014	80000df4	ba35e417	auipc	x8,0xba35e	  x8=0x3a35edf0
       10165000	      1015	80000df8	419186b3	sub	x13,x3,x25	  x3:0x80008d31 x25:0xfffffff0 x13=0x80008d41
       10175000	      1016	80000dfc	01f4b3b3	sltu	x7,x9,x31	  x9:0x0000000c x31:0x000006f8  x7=0x00000001
       10185000	      1017	80000e00	02108c03	lb	x24,33(x1)	  x1:0x8000854e x24=0x00000038 PA:0x8000856f
       10195000	      1018	80000e04	fef0c483	lbu	x9,-17(x1)	  x1:0x8000854e  x9=0x00000029 PA:0x8000853d
       10205000	      1019	80000e08	9bf02913	slti	x18,x0,-1601	  x0:0x00000000 x18=0x00000000
       10215000	      1020	80000e0c	0400c683	lbu	x13,64(x1)	  x1:0x8000854e x13=0x000000f6 PA:0x8000858e
       10225000	      1021	80000e10	c3196f13	ori	x30,x18,-975	 x18:0x00000000 x30=0xfffffc31
       10235000	      1022	80000e14	01e999b3	sll	x19,x19,x30	 x19:0x00000028 x30:0xfffffc31 x19=0x00500000
       10245000	      1023	80000e18	009573b3	and	x7,x10,x9	 x10:0x00003ec1  x9:0x00000029  x7=0x00000001
       10255000	      1024	80000e1c	ffc08383	lb	x7,-4(x1)	  x1:0x8000854e  x7=0x00000052 PA:0x8000854a
       10265000	      1025	80000e20	fec08723	sb	x12,-18(x1)	  x1:0x8000854e x12:0x02000000 PA:0x8000853c
       10275000	      1026	80000e24	feb0c383	lbu	x7,-21(x1)	  x1:0x8000854e  x7=0x000000dc PA:0x80008539
       10285000	      1027	80000e28	005abe33	sltu	x28,x21,x5	 x21:0xffffffee  x5:0x27b07000 x28=0x00000000
       10295000	      1028	80000e2c	019b0633	add	x12,x22,x25	 x22:0x0000291a x25:0xfffffff0 x12=0x0000290a
       10305000	      1029	80000e30	ca519417	auipc	x8,0xca519	  x8=0x4a519e2c
       10315000	      1030	80000e34	78736a13	ori	x20,x6,1927	  x6:0x00008a50 x20=0x00008fd7
       10325000	      1031	80000e38	48a2b713	sltiu	x14,x5,1162	  x5:0x27b07000 x14=0x00000000
       10335000	      1032	80000e3c	04009f03	lh	x30,64(x1)	  x1:0x8000854e x30=0xffffd1f6 PA:0x8000858e
       10345000	      1033	80000e40	40170933	sub	x18,x14,x1	 x14:0x00000000  x1:0x8000854e x18=0x7fff7ab2
       10355000	      1034	80000e44	01999113	slli	x2,x19,0x19	 x19:0x00500000  x2=0x00000000
       10365000	      1035	80000e48	660baf93	slti	x31,x23,1632	 x23:0xfffff96f x31=0x00000001
       10375000	      1036	80000e4c	af3b0913	addi	x18,x22,-1293	 x22:0x0000291a x18=0x0000240d
       10385000	      1037	80000e50	fe40c503	lbu	x10,-28(x1)	  x1:0x8000854e x10=0x000000e7 PA:0x80008532
       10395000	      1038	80000e54	c966ec13	ori	x24,x13,-874	 x13:0x000000f6 x24=0xfffffcf6
       10405000	      1039	80000e58	ff00ce83	lbu	x29,-16(x1)	  x1:0x8000854e x29=0x0000000a PA:0x8000853e
       10415000	      1040	80000e5c	01ba63b3	or	x7,x20,x27	 x20:0x00008fd7 x27:0x00000052  x7=0x00008fd7
       10425000	      1041	80000e60	03d0cc03	lbu	x24,61(x1)	  x1:0x8000854e x24=0x000000d0 PA:0x8000858b
       10435000	      1042	80000e64	02e08c03	lb	x24,46(x1)	  x1:0x8000854e x24=0x00000069 PA:0x8000857c
       10445000	      1043	80000e68	fe108ca3	sb	x1,-7(x1)	  x1:0x8000854e  x1:0x8000854e PA:0x80008547
       10455000	      1044	80000e6c	00008497	auipc	x9,0x8	  x9=0x80008e68
       10465000	      1045	80000e70	a2348493	addi	x9,x9,-1501	  x9:0x80008e68  x9=0x8000888b
       10475000	      1046	80000e74	05148023	sb	x17,64(x9)	  x9:0x8000888b x17:0x80009f2c PA:0x800088cb
       10485000	      1047	80000e78	4035da93	srai	x21,x11,0x3	 x11:0x00000000 x21=0x00000000
       10495000	      1048	80000e7c	02f48383	lb	x7,47(x9)	  x9:0x8000888b  x7=0xffffffd3 PA:0x800088ba
       10505000	      1049	80000e80	f9f4d283	lhu	x5,-97(x9)	  x9:0x8000888b  x5=0x0000e65b PA:0x8000882a
       10515000	      1050	80000e84	40a05b13	srai	x22,x0,0xa	  x0:0x00000000 x22=0x00000000
       10525000	      1051	80000e88	001a9eb3	sll	x29,x21,x1	 x21:0x00000000  x1:0x8000854e x29=0x00000000
       10535000	      1052	80000e8c	0154a983	lw	x19,21(x9)	  x9:0x8000888b x19=0xe09a5aa1 PA:0x800088a0
       10545000	      1053	80000e90	01d333b3	sltu	x7,x6,x29	  x6:0x00008a50 x29:0x00000000  x7=0x00000000
       10555000	      1054	80000e94	53113b13	sltiu	x22,x2,1329	  x2:0x00000000 x22=0x00000001
       10565000	      1055	80000e98	016d2113	slti	x2,x26,22	 x26:0x00000004  x2=0x00000001
       10575000	      1056	80000e9c	fba4c403	lbu	x8,-70(x9)	  x9:0x8000888b  x8=0x000000af PA:0x80008845
       10585000	      1057	80000ea0	01dfd3b3	srl	x7,x31,x29	 x31:0x00000001 x29:0x00000000  x7=0x00000001
       10595000	      1058	80000ea4	0c64ce03	lbu	x28,198(x9)	  x9:0x8000888b x28=0x000000b3 PA:0x80008951
       10605000	      1059	80000ea8	0ae4c103	lbu	x2,174(x9)	  x9:0x8000888b  x2=0x00000002 PA:0x80008939
       10615000	      1060	80000eac	acc86217	auipc	x4,0xacc86	  x4=0x2cc86ea8
       10625000	      1061	80000eb0	0ba48403	lb	x8,186(x9)	  x9:0x8000888b  x8=0x0000004b PA:0x80008945
       10635000	      1062	80000eb4	76ac2437	lui	x8,0x76ac2	  x8=0x76ac2000
       10645000	      1063	80000eb8	fc74ca83	lbu	x21,-57(x9)	  x9:0x8000888b x21=0x000000b9 PA:0x80008852
       10655000	      1064	80000ebc	04f48923	sb	x15,82(x9)	  x9:0x8000888b x15:0x80009fc4 PA:0x800088dd
       10665000	      1065	80000ec0	04f4ca83	lbu	x21,79(x9)	  x9:0x8000888b x21=0x000000e5 PA:0x800088da
       10675000	      1066	80000ec4	40e05813	srai	x16,x0,0xe	  x0:0x00000000 x16=0x00000000
       10685000	      1067	80000ec8	006d0533	add	x10,x26,x6	 x26:0x00000004  x6:0x00008a50 x10=0x00008a54
       10695000	      1068	80000ecc	009ed093	srli	x1,x29,0x9	 x29:0x00000000  x1=0x00000000
       10705000	      1069	80000ed0	e0406f17	auipc	x30,0xe0406	 x30=0x60406ecc
       10715000	      1070	80000ed4	b1a13213	sltiu	x4,x2,-1254	  x2:0x00000002  x4=0x00000001
       10725000	      1071	80000ed8	e92b2013	slti	x0,x22,-366	 x22:0x00000001
       10735000	      1072	80000edc	00000013	addi	x0,x0,0	  x0:0x00000000
       10745000	      1073	80000ee0	fb24cc03	lbu	x24,-78(x9)	  x9:0x8000888b x24=0x00000085 PA:0x8000883d
       10755000	      1074	80000ee4	f9c4ca03	lbu	x20,-100(x9)	  x9:0x8000888b x20=0x000000f1 PA:0x80008827
       10765000	      1075	80000ee8	010051b3	srl	x3,x0,x16	  x0:0x00000000 x16:0x00000000  x3=0x00000000
       10775000	      1076	80000eec	0884c903	lbu	x18,136(x9)	  x9:0x8000888b x18=0x000000e3 PA:0x80008913
       10785000	      1077	80000ef0	04048a23	sb	x0,84(x9)	  x9:0x8000888b  x0:0x00000000 PA:0x800088df
       10795000	      1078	80000ef4	412c5c93	srai	x25,x24,0x12	 x24:0x00000085 x25=0x00000000
       10805000	      1079	80000ef8	40b756b3	sra	x13,x14,x11	 x14:0x00000000 x11:0x00000000 x13=0x00000000
       10815000	      1080	80000efc	f8e4c403	lbu	x8,-114(x9)	  x9:0x8000888b  x8=0x000000b7 PA:0x80008819
       10825000	      1081	80000f00	013dacb3	slt	x25,x27,x19	 x27:0x00000052 x19:0xe09a5aa1 x25=0x00000000
       10835000	      1082	80000f04	e5791197	auipc	x3,0xe5791	  x3=0x65791f00
       10845000	      1083	80000f08	0de48e83	lb	x29,222(x9)	  x9:0x8000888b x29=0x0000002d PA:0x80008969
       10855000	      1084	80000f0c	00e809b3	add	x19,x16,x14	 x16:0x00000000 x14:0x00000000 x19=0x00000000
       10865000	      1085	80000f10	0be48103	lb	x2,190(x9)	  x9:0x8000888b  x2=0x0000002e PA:0x80008949
       10875000	      1086	80000f14	01da1a33	sll	x20,x20,x29	 x20:0x000000f1 x29:0x0000002d x20=0x001e2000
       10885000	      1087	80000f18	05d4c203	lbu	x4,93(x9)	  x9:0x8000888b  x4=0x00000065 PA:0x800088e8
       10895000	      1088	80000f1c	00f16e33	or	x28,x2,x15	  x2:0x0000002e x15:0x80009fc4 x28=0x80009fee
       10905000	      1089	80000f20	0e34c083	lbu	x1,227(x9)	  x9:0x8000888b  x1=0x000000a5 PA:0x8000896e
       10915000	      1090	80000f24	01da5293	srli	x5,x20,0x1d	 x20:0x001e2000  x5=0x00000000
       10925000	      1091	80000f28	fce48683	lb	x13,-50(x9)	  x9:0x8000888b x13=0xffffffba PA:0x80008859
       10935000	      1092	80000f2c	40e20fb3	sub	x31,x4,x14	  x4:0x00000065 x14:0x00000000 x31=0x00000065
       10945000	      1093	80000f30	0964c903	lbu	x18,150(x9)	  x9:0x8000888b x18=0x000000f3 PA:0x80008921
       10955000	      1094	80000f34	fee49da3	sh	x14,-5(x9)	  x9:0x8000888b x14:0x00000000 PA:0x80008886
       10965000	      1095	80000f38	031493a3	sh	x17,39(x9)	  x9:0x8000888b x17:0x80009f2c PA:0x800088b2
       10975000	      1096	80000f3c	f9f4aaa3	sw	x31,-107(x9)	  x9:0x8000888b x31:0x00000065 PA:0x80008820
       10985000	      1097	80000f40	00007117	auipc	x2,0x7	  x2=0x80007f3c
       10995000	      1098	80000f44	21610113	addi	x2,x2,534	  x2:0x80007f3c  x2=0x80008152
       11005000	      1099	80000f48	008a1b13	slli	x22,x20,0x8	 x20:0x001e2000 x22=0x1e200000
       11015000	      1100	80000f4c	01015d83	lhu	x27,16(x2)	  x2:0x80008152 x27=0x00002854 PA:0x80008162
       11025000	      1101	80000f50	6347bc93	sltiu	x25,x15,1588	 x15:0x80009fc4 x25=0x00000000
       11035000	      1102	80000f54	782f7413	andi	x8,x30,1922	 x30:0x60406ecc  x8=0x00000680
       11045000	      1103	80000f58	356d6d93	ori	x27,x26,854	 x26:0x00000004 x27=0x00000356
       11055000	      1104	80000f5c	01c45b33	srl	x22,x8,x28	  x8:0x00000680 x28:0x80009fee x22=0x00000000
       11065000	      1105	80000f60	6be06293	ori	x5,x0,1726	  x0:0x00000000  x5=0x000006be
       11075000	      1106	80000f64	40b6d213	srai	x4,x13,0xb	 x13:0xffffffba  x4=0xffffffff
       11085000	      1107	80000f68	00f14483	lbu	x9,15(x2)	  x2:0x80008152  x9=0x000000eb PA:0x80008161
       11095000	      1108	80000f6c	ffe14b03	lbu	x22,-2(x2)	  x2:0x80008152 x22=0x00000005 PA:0x80008150
       11105000	      1109	80000f70	019dc4b3	xor	x9,x27,x25	 x27:0x00000356 x25:0x00000000  x9=0x00000356
       11115000	      1110	80000f74	00b569b3	or	x19,x10,x11	 x10:0x00008a54 x11:0x00000000 x19=0x00008a54
       11125000	      1111	80000f78	6d020993	addi	x19,x4,1744	  x4:0xffffffff x19=0x000006cf
       11135000	      1112	80000f7c	ffe11a83	lh	x21,-2(x2)	  x2:0x80008152 x21=0x00002d05 PA:0x80008150
       11145000	      1113	80000f80	ff615a83	lhu	x21,-10(x2)	  x2:0x80008152 x21=0x0000fcad PA:0x80008148
       11155000	      1114	00000000	00000013	addi	x0,x0,0	  x0:0x00000000
       11165000	      1115	80000f84	47bac297	auipc	x5,0x47bac	  x5=0xc7bacf80
       11175000	      1116	80000f88	01412723	sw	x20,14(x2)	  x2:0x80008152 x20:0x001e2000 PA:0x80008160
       11185000	      1117	80000f8c	ffa12903	lw	x18,-6(x2)	  x2:0x80008152 x18=0x180056c1 PA:0x8000814c
       11195000	      1118	80000f90	00c15283	lhu	x5,12(x2)	  x2:0x80008152  x5=0x00000a40 PA:0x8000815e
       11205000	      1119	80000f94	01e55033	srl	x0,x10,x30	 x10:0x00008a54 x30:0x60406ecc
       11215000	      1120	80000f98	415f5613	srai	x12,x30,0x15	 x30:0x60406ecc x12=0x00000302
       11225000	      1121	80000f9c	00a11803	lh	x16,10(x2)	  x2:0x80008152 x16=0xffff8408 PA:0x8000815c
       11235000	      1122	80000fa0	00b10283	lb	x5,11(x2)	  x2:0x80008152  x5=0xffffff84 PA:0x8000815d
       11245000	      1123	80000fa4	4146df93	srai	x31,x13,0x14	 x13:0xffffffba x31=0xffffffff
       11255000	      1124	80000fa8	ff610d23	sb	x22,-6(x2)	  x2:0x80008152 x22:0x00000005 PA:0x8000814c
       11265000	      1125	80000fac	00ada3b3	slt	x7,x27,x10	 x27:0x00000356 x10:0x00008a54  x7=0x00000001
       11275000	      1126	80000fb0	41d4d2b3	sra	x5,x9,x29	  x9:0x00000356 x29:0x0000002d  x5=0x00000000
       11285000	      1127	80000fb4	0106abb3	slt	x23,x13,x16	 x13:0xffffffba x16:0xffff8408 x23=0x00000000
       11295000	      1128	80000fb8	1331a593	slti	x11,x3,307	  x3:0x65791f00 x11=0x00000000
       11305000	      1129	80000fbc	00811c03	lh	x24,8(x2)	  x2:0x80008152 x24=0x00001b32 PA:0x8000815a
       11315000	      1130	80000fc0	00008117	auipc	x2,0x8	  x2=0x80008fbc
       11325000	      1131	80000fc4	f9310113	addi	x2,x2,-109	  x2:0x80008fbc  x2=0x80008f4f
       11335000	      1132	80000fc8	14e30e93	addi	x29,x6,334	  x6:0x00008a50 x29=0x00008b9e
       11345000	      1133	80000fcc	ffb11f83	lh	x31,-5(x2)	  x2:0x80008f4f x31=0xfffffd60 PA:0x80008f4a
       11355000	      1134	80000fd0	000075b3	and	x11,x0,x0	  x0:0x00000000  x0:0x00000000 x11=0x00000000
       11365000	      1135	80000fd4	00000013	addi	x0,x0,0	  x0:0x00000000
       11375000	      1136	80000fd8	014b5393	srli	x7,x22,0x14	 x22:0x00000005  x7=0x00000000
       11385000	      1137	80000fdc	ffa11fa3	sh	x26,-1(x2)	  x2:0x80008f4f x26:0x00000004 PA:0x80008f4e
       11395000	      1138	80000fe0	c3786b13	ori	x22,x16,-969	 x16:0xffff8408 x22=0xfffffc3f
       11405000	      1139	80000fe4	ff315903	lhu	x18,-13(x2)	  x2:0x80008f4f x18=0x00001853 PA:0x80008f42
       11415000	      1140	80000fe8	ff014c03	lbu	x24,-16(x2)	  x2:0x80008f4f x24=0x000000ba PA:0x80008f3f
       11425000	      1141	80000fec	7b1b6313	ori	x6,x22,1969	 x22:0xfffffc3f  x6=0xffffffbf
       11435000	      1142	80000ff0	00b10283	lb	x5,11(x2)	  x2:0x80008f4f  x5=0xffffff8b PA:0x80008f5a
       11445000	      1143	80000ff4	4164dab3	sra	x21,x9,x22	  x9:0x00000356 x22:0xfffffc3f x21=0x00000000
       11455000	      1144	80000ff8	013b9db3	sll	x27,x23,x19	 x23:0x00000000 x19:0x000006cf x27=0x00000000
       11465000	      1145	80000ffc	01b10823	sb	x27,16(x2)	  x2:0x80008f4f x27:0x00000000 PA:0x80008f5f
       11475000	      1146	80001000	ff814683	lbu	x13,-8(x2)	  x2:0x80008f4f x13=0x000000bf PA:0x80008f47
       11485000	      1147	80001004	fee10c23	sb	x14,-8(x2)	  x2:0x80008f4f x14:0x00000000 PA:0x80008f47
       11495000	      1148	80001008	0066d213	srli	x4,x13,0x6	 x13:0x000000bf  x4=0x00000002
       11505000	      1149	8000100c	019101a3	sb	x25,3(x2)	  x2:0x80008f4f x25:0x00000000 PA:0x80008f52
       11515000	      1150	80001010	c8bbb693	sltiu	x13,x23,-885	 x23:0x00000000 x13=0x00000001
       11525000	      1151	80001014	00e292b3	sll	x5,x5,x14	  x5:0xffffff8b x14:0x00000000  x5=0xffffff8b
       11535000	      1152	80001018	b28d6993	ori	x19,x26,-1240	 x26:0x00000004 x19=0xfffffb2c
       11545000	      1153	8000101c	bcf13d93	sltiu	x27,x2,-1073	  x2:0x80008f4f x27=0x00000001
       11555000	      1154	80001020	d499c493	xori	x9,x19,-695	 x19:0xfffffb2c  x9=0x00000665
       11565000	      1155	80001024	ff510823	sb	x21,-16(x2)	  x2:0x80008f4f x21:0x00000000 PA:0x80008f3f
       11575000	      1156	80001028	00b11a03	lh	x20,11(x2)	  x2:0x80008f4f x20=0xffff828b PA:0x80008f5a
       11585000	      1157	8000102c	ff210f83	lb	x31,-14(x2)	  x2:0x80008f4f x31=0x0000000d PA:0x80008f41
       11595000	      1158	80001030	00cc1413	slli	x8,x24,0xc	 x24:0x000000ba  x8=0x000ba000
       11605000	      1159	80001034	019935b3	sltu	x11,x18,x25	 x18:0x00001853 x25:0x00000000 x11=0x00000000
       11615000	      1160	80001038	00c10d83	lb	x27,12(x2)	  x2:0x80008f4f x27=0xffffff82 PA:0x80008f5b
       11625000	      1161	8000103c	fe610a23	sb	x6,-12(x2)	  x2:0x80008f4f  x6:0xffffffbf PA:0x80008f43
       11635000	      1162	80001040	00014403	lbu	x8,0(x2)	  x2:0x80008f4f  x8=0x00000000 PA:0x80008f4f
       11645000	      1163	80001044	40e55093	srai	x1,x10,0xe	 x10:0x00008a54  x1=0x00000002
       11655000	      1164	80001048	00910a03	lb	x20,9(x2)	  x2:0x80008f4f x20=0xffffffea PA:0x80008f58
       11665000	      1165	00000000	00000013	addi	x0,x0,0	  x0:0x00000000
       11675000	      1166	8000104c	014f2e33	slt	x28,x30,x20	 x30:0x60406ecc x20:0xffffffea x28=0x00000000
       11685000	      1167	80001050	ffc11da3	sh	x28,-5(x2)	  x2:0x80008f4f x28:0x00000000 PA:0x80008f4a
       11695000	      1168	80001054	eefe8513	addi	x10,x29,-273	 x29:0x00008b9e x10=0x00008a8d
       11705000	      1169	80001058	003103a3	sb	x3,7(x2)	  x2:0x80008f4f  x3:0x65791f00 PA:0x80008f56
       11715000	      1170	8000105c	01014c83	lbu	x25,16(x2)	  x2:0x80008f4f x25=0x00000000 PA:0x80008f5f
       11725000	      1171	80001060	00be5093	srli	x1,x28,0xb	 x28:0x00000000  x1=0x00000000
       11735000	      1172	80001064	41dede13	srai	x28,x29,0x1d	 x29:0x00008b9e x28=0x00000000
       11745000	      1173	80001068	00969913	slli	x18,x13,0x9	 x13:0x00000001 x18=0x00000200
       11755000	      1174	8000106c	01210523	sb	x18,10(x2)	  x2:0x80008f4f x18:0x00000200 PA:0x80008f59
       11765000	      1175	80001070	000a9f93	slli	x31,x21,0x0	 x21:0x00000000 x31=0x00000000
       11775000	      1176	80001074	00b14b83	lbu	x23,11(x2)	  x2:0x80008f4f x23=0x0000008b PA:0x80008f5a
       11785000	      1177	80001078	ffa10f23	sb	x26,-2(x2)	  x2:0x80008f4f x26:0x00000004 PA:0x80008f4d
       11795000	      1178	8000107c	40f25eb3	sra	x29,x4,x15	  x4:0x00000002 x15:0x80009fc4 x29=0x00000000
       11805000	      1179	80001080	00510523	sb	x5,10(x2)	  x2:0x80008f4f  x5:0xffffff8b PA:0x80008f59
       11815000	      1180	80001084	ff114a83	lbu	x21,-15(x2)	  x2:0x80008f4f x21=0x000000c7 PA:0x80008f40
       11825000	      1181	80001088	00008117	auipc	x2,0x8	  x2=0x80009084
       11835000	      1182	8000108c	d5d10113	addi	x2,x2,-675	  x2:0x80009084  x2=0x80008de1
       11845000	      1183	80001090	f64116a3	sh	x4,-147(x2)	  x2:0x80008de1  x4:0x00000002 PA:0x80008d4e
       11855000	      1184	80001094	01ff4eb3	xor	x29,x30,x31	 x30:0x60406ecc x31:0x00000000 x29=0x60406ecc
       11865000	      1185	80001098	f6f10083	lb	x1,-145(x2)	  x2:0x80008de1  x1=0x00000047 PA:0x80008d50
       11875000	      1186	8000109c	01245693	srli	x13,x8,0x12	  x8:0x00000000 x13=0x00000000
       11885000	      1187	800010a0	0fd112a3	sh	x29,229(x2)	  x2:0x80008de1 x29:0x60406ecc PA:0x80008ec6
       11895000	      1188	800010a4	40dd8033	sub	x0,x27,x13	 x27:0xffffff82 x13:0x00000000
       11905000	      1189	800010a8	0ec10c03	lb	x24,236(x2)	  x2:0x80008de1 x24=0xffffffc0 PA:0x80008ecd
       11915000	      1190	800010ac	f9110383	lb	x7,-111(x2)	  x2:0x80008de1  x7=0xffffff84 PA:0x80008d72
       11925000	      1191	800010b0	01214683	lbu	x13,18(x2)	  x2:0x80008de1 x13=0x00000085 PA:0x80008df3
       11935000	      1192	800010b4	5f29e093	ori	x1,x19,1522	 x19:0xfffffb2c  x1=0xfffffffe
       11945000	      1193	800010b8	06e14603	lbu	x12,110(x2)	  x2:0x80008de1 x12=0x000000ba PA:0x80008e4f
       11955000	      1194	800010bc	00000013	addi	x0,x0,0	  x0:0x00000000
       11965000	      1195	800010c0	00f14183	lbu	x3,15(x2)	  x2:0x80008de1  x3=0x00000055 PA:0x80008df0
       11975000	      1196	800010c4	41830f33	sub	x30,x6,x24	  x6:0xffffffbf x24:0xffffffc0 x30=0xffffffff
       11985000	      1197	800010c8	04715603	lhu	x12,71(x2)	  x2:0x80008de1 x12=0x00003a7a PA:0x80008e28
       11995000	      1198	800010cc	04f10c23	sb	x15,88(x2)	  x2:0x80008de1 x15:0x80009fc4 PA:0x80008e39
       12005000	      1199	800010d0	01e8e433	or	x8,x17,x30	 x17:0x80009f2c x30:0xffffffff  x8=0xffffffff
       12015000	      1200	800010d4	01e10303	lb	x6,30(x2)	  x2:0x80008de1  x6=0x0000003e PA:0x80008dff
       12025000	      1201	800010d8	019a9513	slli	x10,x21,0x19	 x21:0x000000c7 x10=0x8e000000
       12035000	      1202	800010dc	02c10923	sb	x12,50(x2)	  x2:0x80008de1 x12:0x00003a7a PA:0x80008e13
       12045000	      1203	800010e0	00542233	slt	x4,x8,x5	  x8:0xffffffff  x5:0xffffff8b  x4=0x00000000
       12055000	      1204	800010e4	01e839b3	sltu	x19,x16,x30	 x16:0xffff8408 x30:0xffffffff x19=0x00000001
       12065000	      1205	800010e8	f2a10623	sb	x10,-212(x2)	  x2:0x80008de1 x10:0x8e000000 PA:0x80008d0d
       12075000	      1206	800010ec	0ab11ea3	sh	x11,189(x2)	  x2:0x80008de1 x11:0x00000000 PA:0x80008e9e
       12085000	      1207	800010f0	016b7fb3	and	x31,x22,x22	 x22:0xfffffc3f x22:0xfffffc3f x31=0xfffffc3f
       12095000	      1208	800010f4	001634b3	sltu	x9,x12,x1	 x12:0x00003a7a  x1:0xfffffffe  x9=0x00000001
       12105000	      1209	800010f8	003cf0b3	and	x1,x25,x3	 x25:0x00000000  x3:0x00000055  x1=0x00000000
       12115000	      1210	800010fc	41135b93	srai	x23,x6,0x11	  x6:0x0000003e x23=0x00000000
       12125000	      1211	80001100	000e9f33	sll	x30,x29,x0	 x29:0x60406ecc  x0:0x00000000 x30=0x60406ecc
       12135000	      1212	80001104	f3312383	lw	x7,-205(x2)	  x2:0x80008de1  x7=0xbab27c03 PA:0x80008d14
       12145000	      1213	80001108	014b1c13	slli	x24,x22,0x14	 x22:0xfffffc3f x24=0xc3f00000
       12155000	      1214	8000110c	f5310723	sb	x19,-178(x2)	  x2:0x80008de1 x19:0x00000001 PA:0x80008d2f
       12165000	      1215	80001110	07110d23	sb	x17,122(x2)	  x2:0x80008de1 x17:0x80009f2c PA:0x80008e5b
       12175000	      1216	80001114	00f28833	add	x16,x5,x15	  x5:0xffffff8b x15:0x80009fc4 x16=0x80009f4f
       12185000	      1217	80001118	01978c33	add	x24,x15,x25	 x15:0x80009fc4 x25:0x00000000 x24=0x80009fc4
       12195000	      1218	8000111c	01038cb3	add	x25,x7,x16	  x7:0xbab27c03 x16:0x80009f4f x25=0x3ab31b52
       12205000	      1219	80001120	0ed10083	lb	x1,237(x2)	  x2:0x80008de1  x1=0xffffff96 PA:0x80008ece
       12215000	      1220	80001124	0d310603	lb	x12,211(x2)	  x2:0x80008de1 x12=0xffffffcb PA:0x80008eb4
       12225000	      1221	80001128	f2715f03	lhu	x30,-217(x2)	  x2:0x80008de1 x30=0x0000a79d PA:0x80008d08
       12235000	      1222	8000112c	0a311283	lh	x5,163(x2)	  x2:0x80008de1  x5=0xfffff8ae PA:0x80008e84
       12245000	      1223	80001130	06e14303	lbu	x6,110(x2)	  x2:0x80008de1  x6=0x000000ba PA:0x80008e4f
       12255000	      1224	80001134	00a6db93	srli	x23,x13,0xa	 x13:0x00000085 x23=0x00000000
       12265000	      1225	80001138	48904b93	xori	x23,x0,1161	  x0:0x00000000 x23=0x00000489
       12275000	      1226	8000113c	00000013	addi	x0,x0,0	  x0:0x00000000
       12285000	      1227	80001140	11413e13	sltiu	x28,x2,276	  x2:0x80008de1 x28=0x00000000
       12295000	      1228	80001144	40485813	srai	x16,x16,0x4	 x16:0x80009f4f x16=0xf80009f4
       12305000	      1229	80001148	030c4663	blt	x24,x16,80001174	 x24:0x80009fc4 x16:0xf80009f4
       12315000	      1230	00000000	00000013	addi	x0,x0,0	  x0:0x00000000
       12325000	      1231	80001170	00000013	addi	x0,x0,0	  x0:0x00000000
       12335000	      1232	80001174	024cd663	bge	x25,x4,800011a0	 x25:0x3ab31b52  x4:0x00000000
       12345000	      1233	00000000	00000013	addi	x0,x0,0	  x0:0x00000000
       12355000	      1234	8000119c	00000013	addi	x0,x0,0	  x0:0x00000000
       12365000	      1235	800011a0	00213033	sltu	x0,x2,x2	  x2:0x80008de1  x2:0x80008de1
       12375000	      1236	800011a4	005f8c33	add	x24,x31,x5	 x31:0xfffffc3f  x5:0xfffff8ae x24=0xfffff4ed
       12385000	      1237	800011a8	011c1b33	sll	x22,x24,x17	 x24:0xfffff4ed x17:0x80009f2c x22=0xff4ed000
       12395000	      1238	800011ac	da5a7693	andi	x13,x20,-603	 x20:0xffffffea x13=0xfffffda0
       12405000	      1239	800011b0	03a3ce63	blt	x7,x26,800011ec	  x7:0xbab27c03 x26:0x00000004
       12415000	      1240	00000000	00000013	addi	x0,x0,0	  x0:0x00000000
       12425000	      1241	800011e8	00000013	addi	x0,x0,0	  x0:0x00000000
       12435000	      1242	800011ec	b8b38e93	addi	x29,x7,-1141	  x7:0xbab27c03 x29=0xbab2778e
       12445000	      1243	800011f0	7eae2db7	lui	x27,0x7eae2	 x27=0x7eae2000
       12455000	      1244	800011f4	022cd063	bge	x25,x2,80001214	 x25:0x3ab31b52  x2:0x80008de1
       12465000	      1245	00000000	00000013	addi	x0,x0,0	  x0:0x00000000
       12475000	      1246	80001210	00000013	addi	x0,x0,0	  x0:0x00000000
       12485000	      1247	80001214	86d00e93	addi	x29,x0,-1939	  x0:0x00000000 x29=0xfffff86d
       12495000	      1248	80001218	01598033	add	x0,x19,x21	 x19:0x00000001 x21:0x000000c7
       12505000	      1249	8000121c	02fe1e63	bne	x28,x15,80001258	 x28:0x00000000 x15:0x80009fc4
       12515000	      1250	00000000	00000013	addi	x0,x0,0	  x0:0x00000000
       12525000	      1251	80001254	00000013	addi	x0,x0,0	  x0:0x00000000
       12535000	      1252	80001258	015e0b33	add	x22,x28,x21	 x28:0x00000000 x21:0x000000c7 x22=0x000000c7
       12545000	      1253	8000125c	4dbbe993	ori	x19,x23,1243	 x23:0x00000489 x19=0x000004db
       12555000	      1254	80001260	025a7063	bgeu	x20,x5,80001280	 x20:0xffffffea  x5:0xfffff8ae
       12565000	      1255	00000000	00000013	addi	x0,x0,0	  x0:0x00000000
       12575000	      1256	8000127c	00000013	addi	x0,x0,0	  x0:0x00000000
       12585000	      1257	80001280	c0542013	slti	x0,x8,-1019	  x8:0xffffffff
       12595000	      1258	80001284	00000013	addi	x0,x0,0	  x0:0x00000000
       12605000	      1259	80001288	01e81eb3	sll	x29,x16,x30	 x16:0xf80009f4 x30:0x0000a79d x29=0x80000000
       12615000	      1260	8000128c	1e44f813	andi	x16,x9,484	  x9:0x00000001 x16=0x00000000
       12625000	      1261	80001290	1dabad93	slti	x27,x23,474	 x23:0x00000489 x27=0x00000000
       12635000	      1262	80001294	88245bb7	lui	x23,0x88245	 x23=0x88245000
       12645000	      1263	80001298	40715b13	srai	x22,x2,0x7	  x2:0x80008de1 x22=0xff00011b
       12655000	      1264	8000129c	41305c93	srai	x25,x0,0x13	  x0:0x00000000 x25=0x00000000
       12665000	      1265	800012a0	00bdc463	blt	x27,x11,800012a8	 x27:0x00000000 x11:0x00000000
       12675000	      1266	800012a4	00edb5b3	sltu	x11,x27,x14	 x27:0x00000000 x14:0x00000000 x11=0x00000000
       12685000	      1267	800012a8	02f87463	bgeu	x16,x15,800012d0	 x16:0x00000000 x15:0x80009fc4
       12695000	      1268	800012ac	1402ec13	ori	x24,x5,320	  x5:0xfffff8ae x24=0xfffff9ee
       12705000	      1269	800012b0	01693c33	sltu	x24,x18,x22	 x18:0x00000200 x22:0xff00011b x24=0x00000001
       12715000	      1270	800012b4	0230c863	blt	x1,x3,800012e4	  x1:0xffffff96  x3:0x00000055
       12725000	      1271	00000000	00000013	addi	x0,x0,0	  x0:0x00000000
       12735000	      1272	800012e0	00000013	addi	x0,x0,0	  x0:0x00000000
       12745000	      1273	800012e4	f0cffc13	andi	x24,x31,-244	 x31:0xfffffc3f x24=0xfffffc0c
       12755000	      1274	800012e8	41c8d2b3	sra	x5,x17,x28	 x17:0x80009f2c x28:0x00000000  x5=0x80009f2c
       12765000	      1275	800012ec	cf31a213	slti	x4,x3,-781	  x3:0x00000055  x4=0x00000000
       12775000	      1276	800012f0	00a251b3	srl	x3,x4,x10	  x4:0x00000000 x10:0x8e000000  x3=0x00000000
       12785000	      1277	800012f4	011bea33	or	x20,x23,x17	 x23:0x88245000 x17:0x80009f2c x20=0x8824df2c
       12795000	      1278	800012f8	01b63eb3	sltu	x29,x12,x27	 x12:0xffffffcb x27:0x00000000 x29=0x00000000
       12805000	      1279	800012fc	0c3e9263	bne	x29,x3,800013c0	 x29:0x00000000  x3:0x00000000
       12815000	      1280	80001300	00007117	auipc	x2,0x7	  x2=0x800082fc
       12825000	      1281	80001304	13f10113	addi	x2,x2,319	  x2:0x800082fc  x2=0x8000843b
       12835000	      1282	80001308	0e9fbc17	auipc	x24,0xe9fb	 x24=0x8e9fc304
       12845000	      1283	8000130c	40c60f33	sub	x30,x12,x12	 x12:0xffffffcb x12:0xffffffcb x30=0x00000000
       12855000	      1284	80001310	2b1110a3	sh	x17,673(x2)	  x2:0x8000843b x17:0x80009f2c PA:0x800086dc
       12865000	      1285	80001314	158119a3	sh	x24,339(x2)	  x2:0x8000843b x24:0x8e9fc304 PA:0x8000858e
       12875000	      1286	80001318	26610f03	lb	x30,614(x2)	  x2:0x8000843b x30=0xffffffdb PA:0x800086a1
       12885000	      1287	8000131c	017ed433	srl	x8,x29,x23	 x29:0x00000000 x23:0x88245000  x8=0x00000000
       12895000	      1288	80001320	0157d513	srli	x10,x15,0x15	 x15:0x80009fc4 x10=0x00000400
       12905000	      1289	80001324	0a512703	lw	x14,165(x2)	  x2:0x8000843b x14=0x88ca6a48 PA:0x800084e0
       12915000	      1290	80001328	f0810403	lb	x8,-248(x2)	  x2:0x8000843b  x8=0xffffff84 PA:0x80008343
       12925000	      1291	00000000	00000013	addi	x0,x0,0	  x0:0x00000000
       12935000	      1292	8000132c	0e80c693	xori	x13,x1,232	  x1:0xffffff96 x13=0xffffff7e
       12945000	      1293	80001330	c0f14583	lbu	x11,-1009(x2)	  x2:0x8000843b x11=0x0000006f PA:0x8000804a
       12955000	      1294	80001334	2d314a03	lbu	x20,723(x2)	  x2:0x8000843b x20=0x000000c1 PA:0x8000870e
       12965000	      1295	80001338	76c38693	addi	x13,x7,1900	  x7:0xbab27c03 x13=0xbab2836f
       12975000	      1296	8000133c	cfc116a3	sh	x28,-787(x2)	  x2:0x8000843b x28:0x00000000 PA:0x80008128
       12985000	      1297	80001340	e5b14303	lbu	x6,-421(x2)	  x2:0x8000843b  x6=0x00000063 PA:0x80008296
       12995000	      1298	80001344	0147e6b3	or	x13,x15,x20	 x15:0x80009fc4 x20:0x000000c1 x13=0x80009fc5
       13005000	      1299	80001348	fd614983	lbu	x19,-42(x2)	  x2:0x8000843b x19=0x00000079 PA:0x80008411
       13015000	      1300	8000134c	fad10ba3	sb	x13,-73(x2)	  x2:0x8000843b x13:0x80009fc5 PA:0x800083f2
       13025000	      1301	80001350	9b343913	sltiu	x18,x8,-1613	  x8:0xffffff84 x18=0x00000000
       13035000	      1302	80001354	0108cab3	xor	x21,x17,x16	 x17:0x80009f2c x16:0x00000000 x21=0x80009f2c
       13045000	      1303	80001358	34e10f03	lb	x30,846(x2)	  x2:0x8000843b x30=0xffffffba PA:0x80008789
       13055000	      1304	8000135c	1c315e83	lhu	x29,451(x2)	  x2:0x8000843b x29=0x00004e2f PA:0x800085fe
       13065000	      1305	80001360	015d5933	srl	x18,x26,x21	 x26:0x00000004 x21:0x80009f2c x18=0x00000000
       13075000	      1306	80001364	00000013	addi	x0,x0,0	  x0:0x00000000
       13085000	      1307	80001368	00000013	addi	x0,x0,0	  x0:0x00000000
       13095000	      1308	8000136c	317126a3	sw	x23,781(x2)	  x2:0x8000843b x23:0x88245000 PA:0x80008748
       13105000	      1309	80001370	19e10123	sb	x30,386(x2)	  x2:0x8000843b x30:0xffffffba PA:0x800085bd
       13115000	      1310	80001374	000454b3	srl	x9,x8,x0	  x8:0xffffff84  x0:0x00000000  x9=0xffffff84
       13125000	      1311	80001378	5d6701b7	lui	x3,0x5d670	  x3=0x5d670000
       13135000	      1312	8000137c	1ce14f03	lbu	x30,462(x2)	  x2:0x8000843b x30=0x000000aa PA:0x80008609
       13145000	      1313	80001380	0110e3b3	or	x7,x1,x17	  x1:0xffffff96 x17:0x80009f2c  x7=0xffffffbe
       13155000	      1314	80001384	f0714203	lbu	x4,-249(x2)	  x2:0x8000843b  x4=0x00000041 PA:0x80008342
       13165000	      1315	80001388	013fe4b3	or	x9,x31,x19	 x31:0xfffffc3f x19:0x00000079  x9=0xfffffc7f
       13175000	      1316	8000138c	4036d393	srai	x7,x13,0x3	 x13:0x80009fc5  x7=0xf00013f8
       13185000	      1317	80001390	00d0f9b3	and	x19,x1,x13	  x1:0xffffff96 x13:0x80009fc5 x19=0x80009f84
       13195000	      1318	80001394	2fa10023	sb	x26,736(x2)	  x2:0x8000843b x26:0x00000004 PA:0x8000871b
       13205000	      1319	80001398	00000013	addi	x0,x0,0	  x0:0x00000000
       13215000	      1320	8000139c	405553b3	sra	x7,x10,x5	 x10:0x00000400  x5:0x80009f2c  x7=0x00000000
       13225000	      1321	800013a0	07876f13	ori	x30,x14,120	 x14:0x88ca6a48 x30=0x88ca6a78
       13235000	      1322	800013a4	01e31093	slli	x1,x6,0x1e	  x6:0x00000063  x1=0xc0000000
       13245000	      1323	800013a8	41ad8fb3	sub	x31,x27,x26	 x27:0x00000000 x26:0x00000004 x31=0xfffffffc
       13255000	      1324	800013ac	f3814583	lbu	x11,-200(x2)	  x2:0x8000843b x11=0x000000b5 PA:0x80008373
       13265000	      1325	800013b0	000d40b3	xor	x1,x26,x0	 x26:0x00000004  x0:0x00000000  x1=0x00000004
       13275000	      1326	800013b4	933a4313	xori	x6,x20,-1741	 x20:0x000000c1  x6=0xfffff9f2
       13285000	      1327	800013b8	852d4213	xori	x4,x26,-1966	 x26:0x00000004  x4=0xfffff856
       13295000	      1328	800013bc	01a082b3	add	x5,x1,x26	  x1:0x00000004 x26:0x00000004  x5=0x00000008
       13305000	      1329	800013c0	68002713	slti	x14,x0,1664	  x0:0x00000000 x14=0x00000001
       13315000	      1330	800013c4	00000013	addi	x0,x0,0	  x0:0x00000000
       13325000	      1331	800013c8	00931433	sll	x8,x6,x9	  x6:0xfffff9f2  x9:0xfffffc7f  x8=0x00000000
       13335000	      1332	800013cc	02e94063	blt	x18,x14,800013ec	 x18:0x00000000 x14:0x00000001
       13345000	      1333	00000000	00000013	addi	x0,x0,0	  x0:0x00000000
       13355000	      1334	800013e8	00000013	addi	x0,x0,0	  x0:0x00000000
       13365000	      1335	800013ec	01f339b3	sltu	x19,x6,x31	  x6:0xfffff9f2 x31:0xfffffffc x19=0x00000001
       13375000	      1336	800013f0	00def833	and	x16,x29,x13	 x29:0x00004e2f x13:0x80009fc5 x16=0x00000e05
       13385000	      1337	800013f4	40935993	srai	x19,x6,0x9	  x6:0xfffff9f2 x19=0xfffffffc
       13395000	      1338	800013f8	400cd1b3	sra	x3,x25,x0	 x25:0x00000000  x0:0x00000000  x3=0x00000000
       13405000	      1339	800013fc	014cde93	srli	x29,x25,0x14	 x25:0x00000000 x29=0x00000000
       13415000	      1340	80001400	019764b3	or	x9,x14,x25	 x14:0x00000001 x25:0x00000000  x9=0x00000001
       13425000	      1341	80001404	f158ff93	andi	x31,x17,-235	 x17:0x80009f2c x31=0x80009f04
       13435000	      1342	80001408	013104b3	add	x9,x2,x19	  x2:0x8000843b x19:0xfffffffc  x9=0x80008437
       13445000	      1343	8000140c	4156d1b3	sra	x3,x13,x21	 x13:0x80009fc5 x21:0x80009f2c  x3=0xfff80009
       13455000	      1344	80001410	00a9e333	or	x6,x19,x10	 x19:0xfffffffc x10:0x00000400  x6=0xfffffffc
       13465000	      1345	80001414	00bb7663	bgeu	x22,x11,80001420	 x22:0xff00011b x11:0x000000b5
       13475000	      1346	00000000	00000013	addi	x0,x0,0	  x0:0x00000000
       13485000	      1347	8000141c	00000013	addi	x0,x0,0	  x0:0x00000000
       13495000	      1348	80001420	014b3a33	sltu	x20,x22,x20	 x22:0xff00011b x20:0x000000c1 x20=0x00000000
       13505000	      1349	80001424	76233813	sltiu	x16,x6,1890	  x6:0xfffffffc x16=0x00000000
       13515000	      1350	80001428	500e6b13	ori	x22,x28,1280	 x28:0x00000000 x22=0x00000500
       13525000	      1351	8000142c	019e6833	or	x16,x28,x25	 x28:0x00000000 x25:0x00000000 x16=0x00000000
       13535000	      1352	80001430	03d25863	bge	x4,x29,80001460	  x4:0xfffff856 x29:0x00000000
       13545000	      1353	80001434	00000013	addi	x0,x0,0	  x0:0x00000000
       13555000	      1354	80001438	e890f713	andi	x14,x1,-375	  x1:0x00000004 x14=0x00000000
       13565000	      1355	8000143c	04761263	bne	x12,x7,80001480	 x12:0xffffffcb  x7:0x00000000
       13575000	      1356	00000000	00000013	addi	x0,x0,0	  x0:0x00000000
       13585000	      1357	8000147c	00000013	addi	x0,x0,0	  x0:0x00000000
       13595000	      1358	80001480	d10ef093	andi	x1,x29,-752	 x29:0x00000000  x1=0x00000000
       13605000	      1359	80001484	016ba833	slt	x16,x23,x22	 x23:0x88245000 x22:0x00000500 x16=0x00000001
       13615000	      1360	80001488	00357cb3	and	x25,x10,x3	 x10:0x00000400  x3:0xfff80009 x25=0x00000000
       13625000	      1361	8000148c	823cba93	sltiu	x21,x25,-2013	 x25:0x00000000 x21=0x00000001
       13635000	      1362	80001490	00b3b533	sltu	x10,x7,x11	  x7:0x00000000 x11:0x000000b5 x10=0x00000001
       13645000	      1363	80001494	010e6463	bltu	x28,x16,8000149c	 x28:0x00000000 x16:0x00000001
       13655000	      1364	00000000	00000013	addi	x0,x0,0	  x0:0x00000000
       13665000	      1365	80001498	00000013	addi	x0,x0,0	  x0:0x00000000
       13675000	      1366	8000149c	3d0e3f13	sltiu	x30,x28,976	 x28:0x00000000 x30=0x00000001
       13685000	      1367	800014a0	16998293	addi	x5,x19,361	 x19:0xfffffffc  x5=0x00000165
       13695000	      1368	800014a4	001eea63	bltu	x29,x1,800014b8	 x29:0x00000000  x1:0x00000000
       13705000	      1369	800014a8	0270c663	blt	x1,x7,800014d4	  x1:0x00000000  x7:0x00000000
       13715000	      1370	800014ac	02755c63	bge	x10,x7,800014e4	 x10:0x00000001  x7:0x00000000
       13725000	      1371	00000000	00000013	addi	x0,x0,0	  x0:0x00000000
       13735000	      1372	800014e0	00000013	addi	x0,x0,0	  x0:0x00000000
       13745000	      1373	800014e4	c022da37	lui	x20,0xc022d	 x20=0xc022d000
       13755000	      1374	800014e8	41a9df93	srai	x31,x19,0x1a	 x19:0xfffffffc x31=0xffffffff
       13765000	      1375	800014ec	0405c863	blt	x11,x0,8000153c	 x11:0x000000b5  x0:0x00000000
       13775000	      1376	800014f0	00a00bb3	add	x23,x0,x10	  x0:0x00000000 x10:0x00000001 x23=0x00000001
       13785000	      1377	800014f4	022fe863	bltu	x31,x2,80001524	 x31:0xffffffff  x2:0x8000843b
       13795000	      1378	800014f8	9d094f13	xori	x30,x18,-1584	 x18:0x00000000 x30=0xfffff9d0
       13805000	      1379	800014fc	c078c117	auipc	x2,0xc078c	  x2=0x4078d4f8
       13815000	      1380	80001500	03827c63	bgeu	x4,x24,80001538	  x4:0xfffff856 x24:0x8e9fc304
       13825000	      1381	00000000	00000013	addi	x0,x0,0	  x0:0x00000000
       13835000	      1382	80001534	00000013	addi	x0,x0,0	  x0:0x00000000
       13845000	      1383	80001538	9ac66293	ori	x5,x12,-1620	 x12:0xffffffcb  x5=0xffffffef
       13855000	      1384	8000153c	00000013	addi	x0,x0,0	  x0:0x00000000
       13865000	      1385	80001540	c8148113	addi	x2,x9,-895	  x9:0x80008437  x2=0x800080b8
       13875000	      1386	80001544	01780033	add	x0,x16,x23	 x16:0x00000001 x23:0x00000001
       13885000	      1387	80001548	006dbeb3	sltu	x29,x27,x6	 x27:0x00000000  x6:0xfffffffc x29=0x00000001
       13895000	      1388	8000154c	011a2c33	slt	x24,x20,x17	 x20:0xc022d000 x17:0x80009f2c x24=0x00000000
       13905000	      1389	80001550	01100833	add	x16,x0,x17	  x0:0x00000000 x17:0x80009f2c x16=0x80009f2c
       13915000	      1390	80001554	00abaab3	slt	x21,x23,x10	 x23:0x00000001 x10:0x00000001 x21=0x00000000
       13925000	      1391	80001558	012d1eb3	sll	x29,x26,x18	 x26:0x00000004 x18:0x00000000 x29=0x00000004
       13935000	      1392	8000155c	0370e063	bltu	x1,x23,8000157c	  x1:0x00000000 x23:0x00000001
       13945000	      1393	00000000	00000013	addi	x0,x0,0	  x0:0x00000000
       13955000	      1394	80001578	00000013	addi	x0,x0,0	  x0:0x00000000
       13965000	      1395	8000157c	0006fdb3	and	x27,x13,x0	 x13:0x80009fc5  x0:0x00000000 x27=0x00000000
       13975000	      1396	80001580	01751c13	slli	x24,x10,0x17	 x10:0x00000001 x24=0x00800000
       13985000	      1397	80001584	032cf463	bgeu	x25,x18,800015ac	 x25:0x00000000 x18:0x00000000
       13995000	      1398	00000000	00000013	addi	x0,x0,0	  x0:0x00000000
       14005000	      1399	800015a8	00000013	addi	x0,x0,0	  x0:0x00000000
       14015000	      1400	800015ac	005d36b3	sltu	x13,x26,x5	 x26:0x00000004  x5:0xffffffef x13=0x00000001
       14025000	      1401	800015b0	01376863	bltu	x14,x19,800015c0	 x14:0x00000000 x19:0xfffffffc
       14035000	      1402	00000000	00000013	addi	x0,x0,0	  x0:0x00000000
       14045000	      1403	800015bc	00000013	addi	x0,x0,0	  x0:0x00000000
       14055000	      1404	800015c0	0216e863	bltu	x13,x1,800015f0	 x13:0x00000001  x1:0x00000000
       14065000	      1405	800015c4	19516413	ori	x8,x2,405	  x2:0x800080b8  x8=0x800081bd
       14075000	      1406	800015c8	01afbeb3	sltu	x29,x31,x26	 x31:0xffffffff x26:0x00000004 x29=0x00000000
       14085000	      1407	800015cc	013e5cb3	srl	x25,x28,x19	 x28:0x00000000 x19:0xfffffffc x25=0x00000000
       14095000	      1408	800015d0	00fb56b3	srl	x13,x22,x15	 x22:0x00000500 x15:0x80009fc4 x13=0x00000050
       14105000	      1409	800015d4	9a9a7a93	andi	x21,x20,-1623	 x20:0xc022d000 x21=0xc022d000
       14115000	      1410	800015d8	0152deb3	srl	x29,x5,x21	  x5:0xffffffef x21:0xc022d000 x29=0xffffffef
       14125000	      1411	800015dc	4044d833	sra	x16,x9,x4	  x9:0x80008437  x4:0xfffff856 x16=0xfffffe00
       14135000	      1412	800015e0	0962c193	xori	x3,x5,150	  x5:0xffffffef  x3=0xffffff79
       14145000	      1413	800015e4	ce0c3a93	sltiu	x21,x24,-800	 x24:0x00800000 x21=0x00000001
       14155000	      1414	800015e8	00000013	addi	x0,x0,0	  x0:0x00000000
       14165000	      1415	800015ec	91da4537	lui	x10,0x91da4	 x10=0x91da4000
       14175000	      1416	800015f0	01e8f463	bgeu	x17,x30,800015f8	 x17:0x80009f2c x30:0xfffff9d0
       14185000	      1417	800015f4	004476b3	and	x13,x8,x4	  x8:0x800081bd  x4:0xfffff856 x13=0x80008014
       14195000	      1418	800015f8	33b63e93	sltiu	x29,x12,827	 x12:0xffffffcb x29=0x00000000
       14205000	      1419	800015fc	01899213	slli	x4,x19,0x18	 x19:0xfffffffc  x4=0xfc000000
       14215000	      1420	80001600	00059613	slli	x12,x11,0x0	 x11:0x000000b5 x12=0x000000b5
       14225000	      1421	80001604	005b75b3	and	x11,x22,x5	 x22:0x00000500  x5:0xffffffef x11=0x00000500
       14235000	      1422	80001608	04d7f463	bgeu	x15,x13,80001650	 x15:0x80009fc4 x13:0x80008014
       14245000	      1423	00000000	00000013	addi	x0,x0,0	  x0:0x00000000
       14255000	      1424	8000164c	00000013	addi	x0,x0,0	  x0:0x00000000
       14265000	      1425	80001650	404383b3	sub	x7,x7,x4	  x7:0x00000000  x4:0xfc000000  x7=0x04000000
       14275000	      1426	80001654	00ce8033	add	x0,x29,x12	 x29:0x00000000 x12:0x000000b5
       14285000	      1427	80001658	00b8aa33	slt	x20,x17,x11	 x17:0x80009f2c x11:0x00000500 x20=0x00000001
       14295000	      1428	8000165c	4065d013	srai	x0,x11,0x6	 x11:0x00000500
       14305000	      1429	80001660	42a44017	auipc	x0,0x42a44	
       14315000	      1430	80001664	ada6a393	slti	x7,x13,-1318	 x13:0x80008014  x7=0x00000001
       14325000	      1431	80001668	8ea90b93	addi	x23,x18,-1814	 x18:0x00000000 x23=0xfffff8ea
       14335000	      1432	8000166c	0c1fac13	slti	x24,x31,193	 x31:0xffffffff x24=0x00000001
       14345000	      1433	80001670	015d1ab3	sll	x21,x26,x21	 x26:0x00000004 x21:0x00000001 x21=0x00000008
       14355000	      1434	80001674	40480ab3	sub	x21,x16,x4	 x16:0xfffffe00  x4:0xfc000000 x21=0x03fffe00
       14365000	      1435	80001678	00580593	addi	x11,x16,5	 x16:0xfffffe00 x11=0xfffffe05
       14375000	      1436	8000167c	40a85eb3	sra	x29,x16,x10	 x16:0xfffffe00 x10:0x91da4000 x29=0xfffffe00
       14385000	      1437	80001680	00e40663	beq	x8,x14,8000168c	  x8:0x800081bd x14:0x00000000
       14395000	      1438	80001684	1925c913	xori	x18,x11,402	 x11:0xfffffe05 x18=0xffffff97
       14405000	      1439	80001688	412b0833	sub	x16,x22,x18	 x22:0x00000500 x18:0xffffff97 x16=0x00000569
       14415000	      1440	8000168c	3d2d8d93	addi	x27,x27,978	 x27:0x00000000 x27=0x000003d2
       14425000	      1441	80001690	03949e63	bne	x9,x25,800016cc	  x9:0x80008437 x25:0x00000000
       14435000	      1442	00000000	00000013	addi	x0,x0,0	  x0:0x00000000
       14445000	      1443	800016c8	00000013	addi	x0,x0,0	  x0:0x00000000
       14455000	      1444	800016cc	01bd5b13	srli	x22,x26,0x1b	 x26:0x00000004 x22=0x00000000
       14465000	      1445	800016d0	77a60b13	addi	x22,x12,1914	 x12:0x000000b5 x22=0x0000082f
       14475000	      1446	800016d4	00000013	addi	x0,x0,0	  x0:0x00000000
       14485000	      1447	800016d8	00e52eb3	slt	x29,x10,x14	 x10:0x91da4000 x14:0x00000000 x29=0x00000001
       14495000	      1448	800016dc	01c28133	add	x2,x5,x28	  x5:0xffffffef x28:0x00000000  x2=0xffffffef
       14505000	      1449	800016e0	403fd9b3	sra	x19,x31,x3	 x31:0xffffffff  x3:0xffffff79 x19=0xffffffff
       14515000	      1450	800016e4	026a7e63	bgeu	x20,x6,80001720	 x20:0x00000001  x6:0xfffffffc
       14525000	      1451	800016e8	03449e63	bne	x9,x20,80001724	  x9:0x80008437 x20:0x00000001
       14535000	      1452	00000000	00000013	addi	x0,x0,0	  x0:0x00000000
       14545000	      1453	80001720	00000013	addi	x0,x0,0	  x0:0x00000000
       14555000	      1454	80001724	00c5a533	slt	x10,x11,x12	 x11:0xfffffe05 x12:0x000000b5 x10=0x00000001
       14565000	      1455	80001728	0463d863	bge	x7,x6,80001778	  x7:0x00000001  x6:0xfffffffc
       14575000	      1456	00000000	00000013	addi	x0,x0,0	  x0:0x00000000
       14585000	      1457	80001774	00000013	addi	x0,x0,0	  x0:0x00000000
       14595000	      1458	80001778	01cb96b3	sll	x13,x23,x28	 x23:0xfffff8ea x28:0x00000000 x13=0xfffff8ea
       14605000	      1459	8000177c	9c9b1637	lui	x12,0x9c9b1	 x12=0x9c9b1000
       14615000	      1460	80001780	00007f97	auipc	x31,0x7	 x31=0x8000877c
       14625000	      1461	80001784	49af8f93	addi	x31,x31,1178	 x31:0x8000877c x31=0x80008c16
       14635000	      1462	80001788	010484b3	add	x9,x9,x16	  x9:0x80008437 x16:0x00000569  x9=0x800089a0
       14645000	      1463	8000178c	d6afd603	lhu	x12,-662(x31)	 x31:0x80008c16 x12=0x0000b9c0 PA:0x80008980
       14655000	      1464	80001790	dbe50d93	addi	x27,x10,-578	 x10:0x00000001 x27=0xfffffdbf
       14665000	      1465	80001794	40c2dc13	srai	x24,x5,0xc	  x5:0xffffffef x24=0xffffffff
       14675000	      1466	80001798	c4cf8603	lb	x12,-948(x31)	 x31:0x80008c16 x12=0xffffffda PA:0x80008862
       14685000	      1467	8000179c	1a1f8323	sb	x1,422(x31)	 x31:0x80008c16  x1:0x00000000 PA:0x80008dbc
       14695000	      1468	800017a0	c7df8303	lb	x6,-899(x31)	 x31:0x80008c16  x6=0x00000015 PA:0x80008893
       14705000	      1469	800017a4	041f8083	lb	x1,65(x31)	 x31:0x80008c16  x1=0x0000005c PA:0x80008c57
       14715000	      1470	800017a8	015e1b33	sll	x22,x28,x21	 x28:0x00000000 x21:0x03fffe00 x22=0x00000000
       14725000	      1471	800017ac	e44f9083	lh	x1,-444(x31)	 x31:0x80008c16  x1=0xffffa35c PA:0x80008a5a
       14735000	      1472	800017b0	01883a33	sltu	x20,x16,x24	 x16:0x00000569 x24:0xffffffff x20=0x00000001
       14745000	      1473	800017b4	01e41e13	slli	x28,x8,0x1e	  x8:0x800081bd x28=0x40000000
       14755000	      1474	800017b8	412a0133	sub	x2,x20,x18	 x20:0x00000001 x18:0xffffff97  x2=0x0000006a
       14765000	      1475	800017bc	01bd7b33	and	x22,x26,x27	 x26:0x00000004 x27:0xfffffdbf x22=0x00000004
       14775000	      1476	800017c0	cc2f9c83	lh	x25,-830(x31)	 x31:0x80008c16 x25=0x00004b25 PA:0x800088d8
       14785000	      1477	800017c4	0bff9b23	sh	x31,182(x31)	 x31:0x80008c16 x31:0x80008c16 PA:0x80008ccc
       14795000	      1478	800017c8	f0bfca03	lbu	x20,-245(x31)	 x31:0x80008c16 x20=0x00000069 PA:0x80008b21
       14805000	      1479	800017cc	11cf8ba3	sb	x28,279(x31)	 x31:0x80008c16 x28:0x40000000 PA:0x80008d2d
       14815000	      1480	800017d0	01ef3633	sltu	x12,x30,x30	 x30:0xfffff9d0 x30:0xfffff9d0 x12=0x00000000
       14825000	      1481	800017d4	1f0fc303	lbu	x6,496(x31)	 x31:0x80008c16  x6=0x00000037 PA:0x80008e06
       14835000	      1482	800017d8	41b90db3	sub	x27,x18,x27	 x18:0xffffff97 x27:0xfffffdbf x27=0x000001d8
       14845000	      1483	800017dc	01436bb3	or	x23,x6,x20	  x6:0x00000037 x20:0x00000069 x23=0x0000007f
       14855000	      1484	800017e0	00000013	addi	x0,x0,0	  x0:0x00000000
       14865000	      1485	800017e4	df2fc183	lbu	x3,-526(x31)	 x31:0x80008c16  x3=0x000000ec PA:0x80008a08
       14875000	      1486	00000000	00000013	addi	x0,x0,0	  x0:0x00000000
       14885000	      1487	800017e8	e43f8003	lb	x0,-445(x31)	 x31:0x80008c16 PA:0x80008a59
       14895000	      1488	800017ec	110f8023	sb	x16,256(x31)	 x31:0x80008c16 x16:0x00000569 PA:0x80008d16
       14905000	      1489	800017f0	346f8283	lb	x5,838(x31)	 x31:0x80008c16  x5=0xffffffd8 PA:0x80008f5c
       14915000	      1490	800017f4	184f9c23	sh	x4,408(x31)	 x31:0x80008c16  x4:0xfc000000 PA:0x80008dae
       14925000	      1491	800017f8	f39c0813	addi	x16,x24,-199	 x24:0xffffffff x16=0xffffff38
       14935000	      1492	800017fc	4126de33	sra	x28,x13,x18	 x13:0xfffff8ea x18:0xffffff97 x28=0xffffffff
       14945000	      1493	80001800	930d4f13	xori	x30,x26,-1744	 x26:0x00000004 x30=0xfffff934
       14955000	      1494	80001804	098f8683	lb	x13,152(x31)	 x31:0x80008c16 x13=0xffffffe7 PA:0x80008cae
       14965000	      1495	80001808	979a7693	andi	x13,x20,-1671	 x20:0x00000069 x13=0x00000069
       14975000	      1496	8000180c	ddaf9303	lh	x6,-550(x31)	 x31:0x80008c16  x6=0xffffc84a PA:0x800089f0
       14985000	      1497	80001810	ec7fca83	lbu	x21,-313(x31)	 x31:0x80008c16 x21=0x000000ad PA:0x80008add
       14995000	      1498	80001814	01088a33	add	x20,x17,x16	 x17:0x80009f2c x16:0xffffff38 x20=0x80009e64
       15005000	      1499	80001818	359fc003	lbu	x0,857(x31)	 x31:0x80008c16 PA:0x80008f6f
       15015000	      1500	8000181c	dc5f8b23	sb	x5,-554(x31)	 x31:0x80008c16  x5:0xffffffd8 PA:0x800089ec
       15025000	      1501	80001820	412fd393	srai	x7,x31,0x12	 x31:0x80008c16  x7=0xffffe000
       15035000	      1502	80001824	dcafa923	sw	x10,-558(x31)	 x31:0x80008c16 x10:0x00000001 PA:0x800089e8
       15045000	      1503	80001828	2a5f8da3	sb	x5,699(x31)	 x31:0x80008c16  x5:0xffffffd8 PA:0x80008ed1
       15055000	      1504	8000182c	e01fc503	lbu	x10,-511(x31)	 x31:0x80008c16 x10=0x00000020 PA:0x80008a17
       15065000	      1505	80001830	e373e393	ori	x7,x7,-457	  x7:0xffffe000  x7=0xfffffe37
       15075000	      1506	80001834	05408593	addi	x11,x1,84	  x1:0xffffa35c x11=0xffffa3b0
       15085000	      1507	80001838	2d7fc483	lbu	x9,727(x31)	 x31:0x80008c16  x9=0x0000000e PA:0x80008eed
       15095000	      1508	8000183c	041f8283	lb	x5,65(x31)	 x31:0x80008c16  x5=0x0000005c PA:0x80008c57
       15105000	      1509	80001840	f39f89a3	sb	x25,-205(x31)	 x31:0x80008c16 x25:0x00004b25 PA:0x80008b49
       15115000	      1510	80001844	018f9683	lh	x13,24(x31)	 x31:0x80008c16 x13=0xffffad32 PA:0x80008c2e
       15125000	      1511	80001848	fd9fc803	lbu	x16,-39(x31)	 x31:0x80008c16 x16=0x00000048 PA:0x80008bef
       15135000	      1512	8000184c	db6fd403	lhu	x8,-586(x31)	 x31:0x80008c16  x8=0x00006273 PA:0x800089cc
       15145000	      1513	80001850	001bda63	bge	x23,x1,80001864	 x23:0x0000007f  x1:0xffffa35c
       15155000	      1514	00000000	00000013	addi	x0,x0,0	  x0:0x00000000
       15165000	      1515	80001860	00000013	addi	x0,x0,0	  x0:0x00000000
       15175000	      1516	80001864	01074533	xor	x10,x14,x16	 x14:0x00000000 x16:0x00000048 x10=0x00000048
       15185000	      1517	80001868	006da3b3	slt	x7,x27,x6	 x27:0x000001d8  x6:0xffffc84a  x7=0x00000000
       15195000	      1518	8000186c	400a7b93	andi	x23,x20,1024	 x20:0x80009e64 x23=0x00000400
       15205000	      1519	80001870	0171a233	slt	x4,x3,x23	  x3:0x000000ec x23:0x00000400  x4=0x00000001
       15215000	      1520	80001874	00195133	srl	x2,x18,x1	 x18:0xffffff97  x1:0xffffa35c  x2=0x0000000f
       15225000	      1521	80001878	03d65e63	bge	x12,x29,800018b4	 x12:0x00000000 x29:0x00000001
       15235000	      1522	8000187c	9e4b0093	addi	x1,x22,-1564	 x22:0x00000004  x1=0xfffff9e8
       15245000	      1523	80001880	00c13db3	sltu	x27,x2,x12	  x2:0x0000000f x12:0x00000000 x27=0x00000000
       15255000	      1524	80001884	41820e33	sub	x28,x4,x24	  x4:0x00000001 x24:0xffffffff x28=0x00000002
       15265000	      1525	80001888	01c89e93	slli	x29,x17,0x1c	 x17:0x80009f2c x29=0xc0000000
       15275000	      1526	8000188c	008f0c33	add	x24,x30,x8	 x30:0xfffff934  x8:0x00006273 x24=0x00005ba7
       15285000	      1527	80001890	0056d293	srli	x5,x13,0x5	 x13:0xffffad32  x5=0x07fffd69
       15295000	      1528	80001894	01b7e4b3	or	x9,x15,x27	 x15:0x80009fc4 x27:0x00000000  x9=0x80009fc4
       15305000	      1529	80001898	022f8463	beq	x31,x2,800018c0	 x31:0x80008c16  x2:0x0000000f
       15315000	      1530	8000189c	01790933	add	x18,x18,x23	 x18:0xffffff97 x23:0x00000400 x18=0x00000397
       15325000	      1531	800018a0	41495b13	srai	x22,x18,0x14	 x18:0x00000397 x22=0x00000000
       15335000	      1532	800018a4	4802c497	auipc	x9,0x4802c	  x9=0xc802d8a0
       15345000	      1533	800018a8	013b93b3	sll	x7,x23,x19	 x23:0x00000400 x19:0xffffffff  x7=0x00000000
       15355000	      1534	800018ac	00dfd663	bge	x31,x13,800018b8	 x31:0x80008c16 x13:0xffffad32
       15365000	      1535	800018b0	1076c413	xori	x8,x13,263	 x13:0xffffad32  x8=0xffffac35
       15375000	      1536	800018b4	54106493	ori	x9,x0,1345	  x0:0x00000000  x9=0x00000541
       15385000	      1537	800018b8	0c4d0993	addi	x19,x26,196	 x26:0x00000004 x19=0x000000c8
       15395000	      1538	800018bc	9a11a193	slti	x3,x3,-1631	  x3:0x000000ec  x3=0x00000000
       15405000	      1539	800018c0	48e1da97	auipc	x21,0x48e1d	 x21=0xc8e1e8bc
       15415000	      1540	800018c4	011d1b13	slli	x22,x26,0x11	 x26:0x00000004 x22=0x00080000
       15425000	      1541	800018c8	02fa5463	bge	x20,x15,800018f0	 x20:0x80009e64 x15:0x80009fc4
       15435000	      1542	800018cc	01711413	slli	x8,x2,0x17	  x2:0x0000000f  x8=0x07800000
       15445000	      1543	800018d0	039d0c63	beq	x26,x25,80001908	 x26:0x00000004 x25:0x00004b25
       15455000	      1544	800018d4	5cc1a293	slti	x5,x3,1484	  x3:0x00000000  x5=0x00000001
       15465000	      1545	800018d8	01ebf863	bgeu	x23,x30,800018e8	 x23:0x00000400 x30:0xfffff934
       15475000	      1546	800018dc	f6646a97	auipc	x21,0xf6646	 x21=0x766478d8
       15485000	      1547	800018e0	024d9463	bne	x27,x4,80001908	 x27:0x00000000  x4:0x00000001
       15495000	      1548	00000000	00000013	addi	x0,x0,0	  x0:0x00000000
       15505000	      1549	80001904	00000013	addi	x0,x0,0	  x0:0x00000000
       15515000	      1550	80001908	40075a33	sra	x20,x14,x0	 x14:0x00000000  x0:0x00000000 x20=0x00000000
       15525000	      1551	8000190c	0005ecb3	or	x25,x11,x0	 x11:0xffffa3b0  x0:0x00000000 x25=0xffffa3b0
       15535000	      1552	80001910	84057a97	auipc	x21,0x84057	 x21=0x0405890c
       15545000	      1553	80001914	408a0fb3	sub	x31,x20,x8	 x20:0x00000000  x8:0x07800000 x31=0xf8800000
       15555000	      1554	80001918	40745e93	srai	x29,x8,0x7	  x8:0x07800000 x29=0x000f0000
       15565000	      1555	8000191c	40855993	srai	x19,x10,0x8	 x10:0x00000048 x19=0x00000000
       15575000	      1556	80001920	003ef263	bgeu	x29,x3,80001924	 x29:0x000f0000  x3:0x00000000
       15585000	      1557	00000000	00000013	addi	x0,x0,0	  x0:0x00000000
       15595000	      1558	80001920	00000013	addi	x0,x0,0	  x0:0x00000000
       15605000	      1559	80001924	4165da93	srai	x21,x11,0x16	 x11:0xffffa3b0 x21=0xffffffff
       15615000	      1560	80001928	01a3e2b3	or	x5,x7,x26	  x7:0x00000000 x26:0x00000004  x5=0x00000004
       15625000	      1561	8000192c	2d51c293	xori	x5,x3,725	  x3:0x00000000  x5=0x000002d5
       15635000	      1562	80001930	408a8a33	sub	x20,x21,x8	 x21:0xffffffff  x8:0x07800000 x20=0xf87fffff
       15645000	      1563	80001934	19c201b7	lui	x3,0x19c20	  x3=0x19c20000
       15655000	      1564	80001938	00307033	and	x0,x0,x3	  x0:0x00000000  x3:0x19c20000
       15665000	      1565	8000193c	01594eb3	xor	x29,x18,x21	 x18:0x00000397 x21:0xffffffff x29=0xfffffc68
       15675000	      1566	80001940	019aa0b3	slt	x1,x21,x25	 x21:0xffffffff x25:0xffffa3b0  x1=0x00000000
       15685000	      1567	80001944	d2fb5717	auipc	x14,0xd2fb5	 x14=0x52fb6940
       15695000	      1568	80001948	00f6b333	sltu	x6,x13,x15	 x13:0xffffad32 x15:0x80009fc4  x6=0x00000000
       15705000	      1569	8000194c	048e8263	beq	x29,x8,80001990	 x29:0xfffffc68  x8:0x07800000
       15715000	      1570	80001950	018b5593	srli	x11,x22,0x18	 x22:0x00080000 x11=0x00000000
       15725000	      1571	80001954	00cf1b13	slli	x22,x30,0xc	 x30:0xfffff934 x22=0xff934000
       15735000	      1572	80001958	000edf93	srli	x31,x29,0x0	 x29:0xfffffc68 x31=0xfffffc68
       15745000	      1573	8000195c	bec08137	lui	x2,0xbec08	  x2=0xbec08000
       15755000	      1574	80001960	000a8fb3	add	x31,x21,x0	 x21:0xffffffff  x0:0x00000000 x31=0xffffffff
       15765000	      1575	80001964	01256033	or	x0,x10,x18	 x10:0x00000048 x18:0x00000397
       15775000	      1576	80001968	01c40fb3	add	x31,x8,x28	  x8:0x07800000 x28:0x00000002 x31=0x07800002
       15785000	      1577	8000196c	02c98063	beq	x19,x12,8000198c	 x19:0x00000000 x12:0x00000000
       15795000	      1578	00000000	00000013	addi	x0,x0,0	  x0:0x00000000
       15805000	      1579	80001988	00000013	addi	x0,x0,0	  x0:0x00000000
       15815000	      1580	8000198c	01cadeb3	srl	x29,x21,x28	 x21:0xffffffff x28:0x00000002 x29=0x3fffffff
       15825000	      1581	80001990	003ac2b3	xor	x5,x21,x3	 x21:0xffffffff  x3:0x19c20000  x5=0xe63dffff
       15835000	      1582	80001994	01df5f33	srl	x30,x30,x29	 x30:0xfffff934 x29:0x3fffffff x30=0x00000001
       15845000	      1583	80001998	02f1f063	bgeu	x3,x15,800019b8	  x3:0x19c20000 x15:0x80009fc4
       15855000	      1584	8000199c	00abb433	sltu	x8,x23,x10	 x23:0x00000400 x10:0x00000048  x8=0x00000000
       15865000	      1585	800019a0	00506c33	or	x24,x0,x5	  x0:0x00000000  x5:0xe63dffff x24=0xe63dffff
       15875000	      1586	800019a4	008ddbb3	srl	x23,x27,x8	 x27:0x00000000  x8:0x00000000 x23=0x00000000
       15885000	      1587	800019a8	ab69cb13	xori	x22,x19,-1354	 x19:0x00000000 x22=0xfffffab6
       15895000	      1588	800019ac	41060eb3	sub	x29,x12,x16	 x12:0x00000000 x16:0x00000048 x29=0xffffffb8
       15905000	      1589	800019b0	02b261b7	lui	x3,0x2b26	  x3=0x02b26000
       15915000	      1590	800019b4	02a70663	beq	x14,x10,800019e0	 x14:0x52fb6940 x10:0x00000048
       15925000	      1591	800019b8	013093b3	sll	x7,x1,x19	  x1:0x00000000 x19:0x00000000  x7=0x00000000
       15935000	      1592	800019bc	01d65413	srli	x8,x12,0x1d	 x12:0x00000000  x8=0x00000000
       15945000	      1593	800019c0	00b6d713	srli	x14,x13,0xb	 x13:0xffffad32 x14=0x001ffff5
       15955000	      1594	800019c4	4065d6b3	sra	x13,x11,x6	 x11:0x00000000  x6:0x00000000 x13=0x00000000
       15965000	      1595	800019c8	a40d8917	auipc	x18,0xa40d8	 x18=0x240d99c4
       15975000	      1596	800019cc	004061b3	or	x3,x0,x4	  x0:0x00000000  x4:0x00000001  x3=0x00000001
       15985000	      1597	800019d0	01df7463	bgeu	x30,x29,800019d8	 x30:0x00000001 x29:0xffffffb8
       15995000	      1598	800019d4	01491463	bne	x18,x20,800019dc	 x18:0x240d99c4 x20:0xf87fffff
       16005000	      1599	00000000	00000013	addi	x0,x0,0	  x0:0x00000000
       16015000	      1600	800019d8	00000013	addi	x0,x0,0	  x0:0x00000000
       16025000	      1601	800019dc	4100df33	sra	x30,x1,x16	  x1:0x00000000 x16:0x00000048 x30=0x00000000
       16035000	      1602	800019e0	01c98533	add	x10,x19,x28	 x19:0x00000000 x28:0x00000002 x10=0x00000002
       16045000	      1603	800019e4	0181d613	srli	x12,x3,0x18	  x3:0x00000001 x12=0x00000000
       16055000	      1604	800019e8	66ceb693	sltiu	x13,x29,1644	 x29:0xffffffb8 x13=0x00000000
       16065000	      1605	800019ec	f86b8213	addi	x4,x23,-122	 x23:0x00000000  x4=0xffffff86
       16075000	      1606	800019f0	011e5f93	srli	x31,x28,0x11	 x28:0x00000002 x31=0x00000000
       16085000	      1607	800019f4	036df863	bgeu	x27,x22,80001a24	 x27:0x00000000 x22:0xfffffab6
       16095000	      1608	800019f8	00000013	addi	x0,x0,0	  x0:0x00000000
       16105000	      1609	800019fc	021a0663	beq	x20,x1,80001a28	 x20:0xf87fffff  x1:0x00000000
       16115000	      1610	80001a00	018c2333	slt	x6,x24,x24	 x24:0xe63dffff x24:0xe63dffff  x6=0x00000000
       16125000	      1611	80001a04	032ad063	bge	x21,x18,80001a24	 x21:0xffffffff x18:0x240d99c4
       16135000	      1612	80001a08	02229463	bne	x5,x2,80001a30	  x5:0xe63dffff  x2:0xbec08000
       16145000	      1613	00000000	00000013	addi	x0,x0,0	  x0:0x00000000
       16155000	      1614	80001a2c	00000013	addi	x0,x0,0	  x0:0x00000000
       16165000	      1615	80001a30	01dc9d93	slli	x27,x25,0x1d	 x25:0xffffa3b0 x27=0x00000000
       16175000	      1616	80001a34	01b65cb3	srl	x25,x12,x27	 x12:0x00000000 x27:0x00000000 x25=0x00000000
       16185000	      1617	80001a38	00d70cb3	add	x25,x14,x13	 x14:0x001ffff5 x13:0x00000000 x25=0x001ffff5
       16195000	      1618	80001a3c	2cefaf93	slti	x31,x31,718	 x31:0x00000000 x31=0x00000001
       16205000	      1619	80001a40	01867c33	and	x24,x12,x24	 x12:0x00000000 x24:0xe63dffff x24=0x00000000
       16215000	      1620	80001a44	00a830b3	sltu	x1,x16,x10	 x16:0x00000048 x10:0x00000002  x1=0x00000000
       16225000	      1621	80001a48	c6418713	addi	x14,x3,-924	  x3:0x00000001 x14=0xfffffc65
       16235000	      1622	80001a4c	40275a13	srai	x20,x14,0x2	 x14:0xfffffc65 x20=0xffffff19
       16245000	      1623	80001a50	635c0b93	addi	x23,x24,1589	 x24:0x00000000 x23=0x00000635
       16255000	      1624	80001a54	406f03b3	sub	x7,x30,x6	 x30:0x00000000  x6:0x00000000  x7=0x00000000
       16265000	      1625	80001a58	03c3e663	bltu	x7,x28,80001a84	  x7:0x00000000 x28:0x00000002
       16275000	      1626	00000000	00000013	addi	x0,x0,0	  x0:0x00000000
       16285000	      1627	80001a80	00000013	addi	x0,x0,0	  x0:0x00000000
       16295000	      1628	80001a84	3ce73393	sltiu	x7,x14,974	 x14:0xfffffc65  x7=0x00000000
       16305000	      1629	80001a88	00eac1b3	xor	x3,x21,x14	 x21:0xffffffff x14:0xfffffc65  x3=0x0000039a
       16315000	      1630	80001a8c	00306463	bltu	x0,x3,80001a94	  x0:0x00000000  x3:0x0000039a
       16325000	      1631	00000000	00000013	addi	x0,x0,0	  x0:0x00000000
       16335000	      1632	80001a90	00000013	addi	x0,x0,0	  x0:0x00000000
       16345000	      1633	80001a94	016dbeb3	sltu	x29,x27,x22	 x27:0x00000000 x22:0xfffffab6 x29=0x00000001
       16355000	      1634	80001a98	00a21f33	sll	x30,x4,x10	  x4:0xffffff86 x10:0x00000002 x30=0xfffffe18
       16365000	      1635	80001a9c	90a18b93	addi	x23,x3,-1782	  x3:0x0000039a x23=0xfffffca4
       16375000	      1636	80001aa0	01d1ce33	xor	x28,x3,x29	  x3:0x0000039a x29:0x00000001 x28=0x0000039b
       16385000	      1637	80001aa4	0004a0b3	slt	x1,x9,x0	  x9:0x00000541  x0:0x00000000  x1=0x00000000
       16395000	      1638	80001aa8	a5943913	sltiu	x18,x8,-1447	  x8:0x00000000 x18=0x00000001
       16405000	      1639	80001aac	024c0c63	beq	x24,x4,80001ae4	 x24:0x00000000  x4:0xffffff86
       16415000	      1640	80001ab0	006f4a33	xor	x20,x30,x6	 x30:0xfffffe18  x6:0x00000000 x20=0xfffffe18
       16425000	      1641	80001ab4	001c1413	slli	x8,x24,0x1	 x24:0x00000000  x8=0x00000000
       16435000	      1642	80001ab8	0fba2493	slti	x9,x20,251	 x20:0xfffffe18  x9=0x00000001
       16445000	      1643	80001abc	00f4b633	sltu	x12,x9,x15	  x9:0x00000001 x15:0x80009fc4 x12=0x00000001
       16455000	      1644	80001ac0	0252c863	blt	x5,x5,80001af0	  x5:0xe63dffff  x5:0xe63dffff
       16465000	      1645	80001ac4	015b0663	beq	x22,x21,80001ad0	 x22:0xfffffab6 x21:0xffffffff
       16475000	      1646	80001ac8	02f99663	bne	x19,x15,80001af4	 x19:0x00000000 x15:0x80009fc4
       16485000	      1647	00000000	00000013	addi	x0,x0,0	  x0:0x00000000
       16495000	      1648	80001af0	00000013	addi	x0,x0,0	  x0:0x00000000
       16505000	      1649	80001af4	017c1f33	sll	x30,x24,x23	 x24:0x00000000 x23:0xfffffca4 x30=0x00000000
       16515000	      1650	80001af8	a92e8593	addi	x11,x29,-1390	 x29:0x00000001 x11=0xfffffa93
       16525000	      1651	80001afc	01cc1f93	slli	x31,x24,0x1c	 x24:0x00000000 x31=0x00000000
       16535000	      1652	80001b00	03910263	beq	x2,x25,80001b24	  x2:0xbec08000 x25:0x001ffff5
       16545000	      1653	80001b04	03b46e63	bltu	x8,x27,80001b40	  x8:0x00000000 x27:0x00000000
       16555000	      1654	80001b08	00b76a33	or	x20,x14,x11	 x14:0xfffffc65 x11:0xfffffa93 x20=0xfffffef7
       16565000	      1655	80001b0c	3f638293	addi	x5,x7,1014	  x7:0x00000000  x5=0x000003f6
       16575000	      1656	80001b10	415f52b3	sra	x5,x30,x21	 x30:0x00000000 x21:0xffffffff  x5=0x00000000
       16585000	      1657	80001b14	c78e9517	auipc	x10,0xc78e9	 x10=0x478eab10
       16595000	      1658	80001b18	013fe033	or	x0,x31,x19	 x31:0x00000000 x19:0x00000000
       16605000	      1659	80001b1c	00b54933	xor	x18,x10,x11	 x10:0x478eab10 x11:0xfffffa93 x18=0xb8715183
       16615000	      1660	80001b20	413259b3	sra	x19,x4,x19	  x4:0xffffff86 x19:0x00000000 x19=0xffffff86
       16625000	      1661	80001b24	03eb8063	beq	x23,x30,80001b44	 x23:0xfffffca4 x30:0x00000000
       16635000	      1662	80001b28	01589bb3	sll	x23,x17,x21	 x17:0x80009f2c x21:0xffffffff x23=0x00000000
       16645000	      1663	80001b2c	41ef0233	sub	x4,x30,x30	 x30:0x00000000 x30:0x00000000  x4=0x00000000
       16655000	      1664	80001b30	03db7463	bgeu	x22,x29,80001b58	 x22:0xfffffab6 x29:0x00000001
       16665000	      1665	00000000	00000013	addi	x0,x0,0	  x0:0x00000000
       16675000	      1666	80001b54	00000013	addi	x0,x0,0	  x0:0x00000000
       16685000	      1667	80001b58	4c7faa13	slti	x20,x31,1223	 x31:0x00000000 x20=0x00000001
       16695000	      1668	80001b5c	5d202e13	slti	x28,x0,1490	  x0:0x00000000 x28=0x00000001
       16705000	      1669	80001b60	0002a033	slt	x0,x5,x0	  x5:0x00000000  x0:0x00000000
       16715000	      1670	80001b64	00ac0b33	add	x22,x24,x10	 x24:0x00000000 x10:0x478eab10 x22=0x478eab10
       16725000	      1671	80001b68	509a8c13	addi	x24,x21,1289	 x21:0xffffffff x24=0x00000508
       16735000	      1672	80001b6c	011596b3	sll	x13,x11,x17	 x11:0xfffffa93 x17:0x80009f2c x13=0xffa93000
       16745000	      1673	80001b70	29798813	addi	x16,x19,663	 x19:0xffffff86 x16=0x0000021d
       16755000	      1674	80001b74	00234bb3	xor	x23,x6,x2	  x6:0x00000000  x2:0xbec08000 x23=0xbec08000
       16765000	      1675	80001b78	484e49b7	lui	x19,0x484e4	 x19=0x484e4000
       16775000	      1676	80001b7c	0ebffc93	andi	x25,x31,235	 x31:0x00000000 x25=0x00000000
       16785000	      1677	80001b80	7c8c7e93	andi	x29,x24,1992	 x24:0x00000508 x29=0x00000508
       16795000	      1678	80001b84	44e90413	addi	x8,x18,1102	 x18:0xb8715183  x8=0xb87155d1
       16805000	      1679	80001b88	00221cb3	sll	x25,x4,x2	  x4:0x00000000  x2:0xbec08000 x25=0x00000000
       16815000	      1680	80001b8c	80d08bb7	lui	x23,0x80d08	 x23=0x80d08000
       16825000	      1681	80001b90	000a8a63	beq	x21,x0,80001ba4	 x21:0xffffffff  x0:0x00000000
       16835000	      1682	80001b94	027e9063	bne	x29,x7,80001bb4	 x29:0x00000508  x7:0x00000000
       16845000	      1683	00000000	00000013	addi	x0,x0,0	  x0:0x00000000
       16855000	      1684	80001bb0	00000013	addi	x0,x0,0	  x0:0x00000000
       16865000	      1685	80001bb4	0322c263	blt	x5,x18,80001bd8	  x5:0x00000000 x18:0xb8715183
       16875000	      1686	80001bb8	01499933	sll	x18,x19,x20	 x19:0x484e4000 x20:0x00000001 x18=0x909c8000
       16885000	      1687	80001bbc	400a8133	sub	x2,x21,x0	 x21:0xffffffff  x0:0x00000000  x2=0xffffffff
       16895000	      1688	80001bc0	6dd28717	auipc	x14,0x6dd28	 x14=0xedd29bbc
       16905000	      1689	80001bc4	00d75693	srli	x13,x14,0xd	 x14:0xedd29bbc x13=0x00076e94
       16915000	      1690	80001bc8	01967133	and	x2,x12,x25	 x12:0x00000001 x25:0x00000000  x2=0x00000000
       16925000	      1691	80001bcc	87d80113	addi	x2,x16,-1923	 x16:0x0000021d  x2=0xfffffa9a
       16935000	      1692	80001bd0	00f21ab3	sll	x21,x4,x15	  x4:0x00000000 x15:0x80009fc4 x21=0x00000000
       16945000	      1693	80001bd4	7d183e93	sltiu	x29,x16,2001	 x16:0x0000021d x29=0x00000001
       16955000	      1694	80001bd8	01de6c33	or	x24,x28,x29	 x28:0x00000001 x29:0x00000001 x24=0x00000001
       16965000	      1695	80001bdc	f1b1cc93	xori	x25,x3,-229	  x3:0x0000039a x25=0xfffffc81
       16975000	      1696	80001be0	40b3d613	srai	x12,x7,0xb	  x7:0x00000000 x12=0x00000000
       16985000	      1697	80001be4	0051f5b3	and	x11,x3,x5	  x3:0x0000039a  x5:0x00000000 x11=0x00000000
       16995000	      1698	80001be8	13ca7213	andi	x4,x20,316	 x20:0x00000001  x4=0x00000000
       17005000	      1699	80001bec	228aa593	slti	x11,x21,552	 x21:0x00000000 x11=0x00000001
       17015000	      1700	80001bf0	0f9e0993	addi	x19,x28,249	 x28:0x00000001 x19=0x000000fa
       17025000	      1701	80001bf4	016a62b3	or	x5,x20,x22	 x20:0x00000001 x22:0x478eab10  x5=0x478eab11
       17035000	      1702	80001bf8	00000013	addi	x0,x0,0	  x0:0x00000000
       17045000	      1703	80001bfc	6712d917	auipc	x18,0x6712d	 x18=0xe712ebf8
       17055000	      1704	80001c00	01989233	sll	x4,x17,x25	 x17:0x80009f2c x25:0xfffffc81  x4=0x00013e58
       17065000	      1705	80001c04	00bd0f33	add	x30,x26,x11	 x26:0x00000004 x11:0x00000001 x30=0x00000005
       17075000	      1706	80001c08	1acf7693	andi	x13,x30,428	 x30:0x00000005 x13=0x00000004
       17085000	      1707	80001c0c	ce7fc937	lui	x18,0xce7fc	 x18=0xce7fc000
       17095000	      1708	80001c10	02805063	bge	x0,x8,80001c30	  x0:0x00000000  x8:0xb87155d1
       17105000	      1709	00000000	00000013	addi	x0,x0,0	  x0:0x00000000
       17115000	      1710	80001c2c	00000013	addi	x0,x0,0	  x0:0x00000000
       17125000	      1711	80001c30	028e6e63	bltu	x28,x8,80001c6c	 x28:0x00000001  x8:0xb87155d1
       17135000	      1712	00000000	00000013	addi	x0,x0,0	  x0:0x00000000
       17145000	      1713	80001c68	00000013	addi	x0,x0,0	  x0:0x00000000
       17155000	      1714	80001c6c	037f1063	bne	x30,x23,80001c8c	 x30:0x00000005 x23:0x80d08000
       17165000	      1715	00000000	00000013	addi	x0,x0,0	  x0:0x00000000
       17175000	      1716	80001c88	00000013	addi	x0,x0,0	  x0:0x00000000
       17185000	      1717	80001c8c	0d635263	bge	x6,x22,80001d50	  x6:0x00000000 x22:0x478eab10
       17195000	      1718	80001c90	0d11da63	bge	x3,x17,80001d64	  x3:0x0000039a x17:0x80009f2c
       17205000	      1719	00000000	00000013	addi	x0,x0,0	  x0:0x00000000
       17215000	      1720	80001d60	00000013	addi	x0,x0,0	  x0:0x00000000
       17225000	      1721	80001d64	01419a33	sll	x20,x3,x20	  x3:0x0000039a x20:0x00000001 x20=0x00000734
       17235000	      1722	80001d68	e4becd93	xori	x27,x29,-437	 x29:0x00000001 x27=0xfffffe4a
       17245000	      1723	80001d6c	00471693	slli	x13,x14,0x4	 x14:0xedd29bbc x13=0xdd29bbc0
       17255000	      1724	80001d70	0168bc33	sltu	x24,x17,x22	 x17:0x80009f2c x22:0x478eab10 x24=0x00000000
       17265000	      1725	80001d74	00ad8eb3	add	x29,x27,x10	 x27:0xfffffe4a x10:0x478eab10 x29=0x478ea95a
       17275000	      1726	80001d78	5a620313	addi	x6,x4,1446	  x4:0x00013e58  x6=0x000143fe
       17285000	      1727	80001d7c	005662b3	or	x5,x12,x5	 x12:0x00000000  x5:0x478eab11  x5=0x478eab11
       17295000	      1728	80001d80	014481b3	add	x3,x9,x20	  x9:0x00000001 x20:0x00000734  x3=0x00000735
       17305000	      1729	80001d84	00795db3	srl	x27,x18,x7	 x18:0xce7fc000  x7:0x00000000 x27=0xce7fc000
       17315000	      1730	80001d88	00ef4a63	blt	x30,x14,80001d9c	 x30:0x00000005 x14:0xedd29bbc
       17325000	      1731	80001d8c	01dcacb3	slt	x25,x25,x29	 x25:0xfffffc81 x29:0x478ea95a x25=0x00000001
       17335000	      1732	80001d90	c90e2313	slti	x6,x28,-880	 x28:0x00000001  x6=0x00000000
       17345000	      1733	80001d94	004e4db3	xor	x27,x28,x4	 x28:0x00000001  x4:0x00013e58 x27=0x00013e59
       17355000	      1734	80001d98	713aa693	slti	x13,x21,1811	 x21:0x00000000 x13=0x00000001
       17365000	      1735	80001d9c	007bb6b3	sltu	x13,x23,x7	 x23:0x80d08000  x7:0x00000000 x13=0x00000000
       17375000	      1736	80001da0	00178463	beq	x15,x1,80001da8	 x15:0x80009fc4  x1:0x00000000
       17385000	      1737	80001da4	00f10f33	add	x30,x2,x15	  x2:0xfffffa9a x15:0x80009fc4 x30=0x80009a5e
       17395000	      1738	80001da8	7dab4093	xori	x1,x22,2010	 x22:0x478eab10  x1=0x478eacca
       17405000	      1739	80001dac	b7b18313	addi	x6,x3,-1157	  x3:0x00000735  x6=0x000002b0
       17415000	      1740	80001db0	01c19463	bne	x3,x28,80001db8	  x3:0x00000735 x28:0x00000001
       17425000	      1741	00000000	00000013	addi	x0,x0,0	  x0:0x00000000
       17435000	      1742	80001db4	00000013	addi	x0,x0,0	  x0:0x00000000
       17445000	      1743	80001db8	028c5663	bge	x24,x8,80001de4	 x24:0x00000000  x8:0xb87155d1
       17455000	      1744	00000000	00000013	addi	x0,x0,0	  x0:0x00000000
       17465000	      1745	80001de0	00000013	addi	x0,x0,0	  x0:0x00000000
       17475000	      1746	80001de4	22000297	auipc	x5,0x22000	  x5=0xa2001de0
       17485000	      1747	80001de8	4131d293	srai	x5,x3,0x13	  x3:0x00000735  x5=0x00000000
       17495000	      1748	80001dec	412d5eb3	sra	x29,x26,x18	 x26:0x00000004 x18:0xce7fc000 x29=0x00000004
       17505000	      1749	80001df0	6e44e9b7	lui	x19,0x6e44e	 x19=0x6e44e000
       17515000	      1750	80001df4	00327a33	and	x20,x4,x3	  x4:0x00013e58  x3:0x00000735 x20=0x00000610
       17525000	      1751	80001df8	03e70063	beq	x14,x30,80001e18	 x14:0xedd29bbc x30:0x80009a5e
       17535000	      1752	80001dfc	013fc033	xor	x0,x31,x19	 x31:0x00000000 x19:0x6e44e000
       17545000	      1753	80001e00	02197863	bgeu	x18,x1,80001e30	 x18:0xce7fc000  x1:0x478eacca
       17555000	      1754	00000000	00000013	addi	x0,x0,0	  x0:0x00000000
       17565000	      1755	80001e2c	00000013	addi	x0,x0,0	  x0:0x00000000
       17575000	      1756	80001e30	42313093	sltiu	x1,x2,1059	  x2:0xfffffa9a  x1=0x00000000
       17585000	      1757	80001e34	bab37c93	andi	x25,x6,-1109	  x6:0x000002b0 x25=0x000002a0
       17595000	      1758	80001e38	00031a63	bne	x6,x0,80001e4c	  x6:0x000002b0  x0:0x00000000
       17605000	      1759	00000000	00000013	addi	x0,x0,0	  x0:0x00000000
       17615000	      1760	80001e48	00000013	addi	x0,x0,0	  x0:0x00000000
       17625000	      1761	80001e4c	01933417	auipc	x8,0x1933	  x8=0x81934e48
       17635000	      1762	80001e50	00eb3333	sltu	x6,x22,x14	 x22:0x478eab10 x14:0xedd29bbc  x6=0x00000001
       17645000	      1763	80001e54	014ad713	srli	x14,x21,0x14	 x21:0x00000000 x14=0x00000000
       17655000	      1764	80001e58	9a4ce293	ori	x5,x25,-1628	 x25:0x000002a0  x5=0xfffffba4
       17665000	      1765	80001e5c	00f52b33	slt	x22,x10,x15	 x10:0x478eab10 x15:0x80009fc4 x22=0x00000000
       17675000	      1766	80001e60	007f1f93	slli	x31,x30,0x7	 x30:0x80009a5e x31=0x004d2f00
       17685000	      1767	80001e64	412b5c33	sra	x24,x22,x18	 x22:0x00000000 x18:0xce7fc000 x24=0x00000000
       17695000	      1768	80001e68	036ae463	bltu	x21,x22,80001e90	 x21:0x00000000 x22:0x00000000
       17705000	      1769	80001e6c	00d74463	blt	x14,x13,80001e74	 x14:0x00000000 x13:0x00000000
       17715000	      1770	80001e70	007c7863	bgeu	x24,x7,80001e80	 x24:0x00000000  x7:0x00000000
       17725000	      1771	00000000	00000013	addi	x0,x0,0	  x0:0x00000000
       17735000	      1772	80001e7c	00000013	addi	x0,x0,0	  x0:0x00000000
       17745000	      1773	80001e80	01d69c13	slli	x24,x13,0x1d	 x13:0x00000000 x24=0x00000000
       17755000	      1774	80001e84	00000013	addi	x0,x0,0	  x0:0x00000000
       17765000	      1775	80001e88	00eb69b3	or	x19,x22,x14	 x22:0x00000000 x14:0x00000000 x19=0x00000000
       17775000	      1776	80001e8c	3544be93	sltiu	x29,x9,852	  x9:0x00000001 x29=0x00000001
       17785000	      1777	80001e90	01234533	xor	x10,x6,x18	  x6:0x00000001 x18:0xce7fc000 x10=0xce7fc001
       17795000	      1778	80001e94	00284633	xor	x12,x16,x2	 x16:0x0000021d  x2:0xfffffa9a x12=0xfffff887
       17805000	      1779	80001e98	01951293	slli	x5,x10,0x19	 x10:0xce7fc001  x5=0x02000000
       17815000	      1780	80001e9c	43c76117	auipc	x2,0x43c76	  x2=0xc3c77e98
       17825000	      1781	80001ea0	00d8b3b3	sltu	x7,x17,x13	 x17:0x80009f2c x13:0x00000000  x7=0x00000000
       17835000	      1782	80001ea4	004bbfb3	sltu	x31,x23,x4	 x23:0x80d08000  x4:0x00013e58 x31=0x00000000
       17845000	      1783	80001ea8	f76c3813	sltiu	x16,x24,-138	 x24:0x00000000 x16=0x00000001
       17855000	      1784	80001eac	02935063	bge	x6,x9,80001ecc	  x6:0x00000001  x9:0x00000001
       17865000	      1785	00000000	00000013	addi	x0,x0,0	  x0:0x00000000
       17875000	      1786	80001ec8	00000013	addi	x0,x0,0	  x0:0x00000000
       17885000	      1787	80001ecc	007429b3	slt	x19,x8,x7	  x8:0x81934e48  x7:0x00000000 x19=0x00000001
       17895000	      1788	80001ed0	02ca9063	bne	x21,x12,80001ef0	 x21:0x00000000 x12:0xfffff887
       17905000	      1789	00000000	00000013	addi	x0,x0,0	  x0:0x00000000
       17915000	      1790	80001eec	00000013	addi	x0,x0,0	  x0:0x00000000
       17925000	      1791	80001ef0	401c56b3	sra	x13,x24,x1	 x24:0x00000000  x1:0x00000000 x13=0x00000000
       17935000	      1792	80001ef4	02158463	beq	x11,x1,80001f1c	 x11:0x00000001  x1:0x00000000
       17945000	      1793	80001ef8	039ece63	blt	x29,x25,80001f34	 x29:0x00000001 x25:0x000002a0
       17955000	      1794	00000000	00000013	addi	x0,x0,0	  x0:0x00000000
       17965000	      1795	80001f30	00000013	addi	x0,x0,0	  x0:0x00000000
       17975000	      1796	80001f34	027b8063	beq	x23,x7,80001f54	 x23:0x80d08000  x7:0x00000000
       17985000	      1797	80001f38	4d9d8513	addi	x10,x27,1241	 x27:0x00013e59 x10=0x00014332
       17995000	      1798	80001f3c	94f57993	andi	x19,x10,-1713	 x10:0x00014332 x19=0x00014102
       18005000	      1799	80001f40	00366033	or	x0,x12,x3	 x12:0xfffff887  x3:0x00000735
       18015000	      1800	80001f44	00000013	addi	x0,x0,0	  x0:0x00000000
       18025000	      1801	80001f48	f327ab13	slti	x22,x15,-206	 x15:0x80009fc4 x22=0x00000001
       18035000	      1802	80001f4c	a77a4e17	auipc	x28,0xa77a4	 x28=0x277a5f48
       18045000	      1803	80001f50	011c5593	srli	x11,x24,0x11	 x24:0x00000000 x11=0x00000000
       18055000	      1804	80001f54	026eec63	bltu	x29,x6,80001f8c	 x29:0x00000001  x6:0x00000001
       18065000	      1805	80001f58	dec23117	auipc	x2,0xdec23	  x2=0x5ec24f54
       18075000	      1806	80001f5c	4128d313	srai	x6,x17,0x12	 x17:0x80009f2c  x6=0xffffe000
       18085000	      1807	80001f60	00250233	add	x4,x10,x2	 x10:0x00014332  x2:0x5ec24f54  x4=0x5ec39286
       18095000	      1808	80001f64	00c2ac33	slt	x24,x5,x12	  x5:0x02000000 x12:0xfffff887 x24=0x00000000
       18105000	      1809	80001f68	c2cdcab7	lui	x21,0xc2cdc	 x21=0xc2cdc000
       18115000	      1810	80001f6c	003a54b3	srl	x9,x20,x3	 x20:0x00000610  x3:0x00000735  x9=0x00000000
       18125000	      1811	80001f70	098d7613	andi	x12,x26,152	 x26:0x00000004 x12=0x00000000
       18135000	      1812	80001f74	01325a63	bge	x4,x19,80001f88	  x4:0x5ec39286 x19:0x00014102
       18145000	      1813	00000000	00000013	addi	x0,x0,0	  x0:0x00000000
       18155000	      1814	80001f84	00000013	addi	x0,x0,0	  x0:0x00000000
       18165000	      1815	80001f88	2725ab13	slti	x22,x11,626	 x11:0x00000000 x22=0x00000001
       18175000	      1816	80001f8c	492e4093	xori	x1,x28,1170	 x28:0x277a5f48  x1=0x277a5bda
       18185000	      1817	80001f90	405b8db3	sub	x27,x23,x5	 x23:0x80d08000  x5:0x02000000 x27=0x7ed08000
       18195000	      1818	80001f94	011ef233	and	x4,x29,x17	 x29:0x00000001 x17:0x80009f2c  x4=0x00000000
       18205000	      1819	80001f98	001fd533	srl	x10,x31,x1	 x31:0x00000000  x1:0x277a5bda x10=0x00000000
       18215000	      1820	80001f9c	006a9593	slli	x11,x21,0x6	 x21:0xc2cdc000 x11=0xb3700000
       18225000	      1821	80001fa0	023b8463	beq	x23,x3,80001fc8	 x23:0x80d08000  x3:0x00000735
       18235000	      1822	80001fa4	40bbd293	srai	x5,x23,0xb	 x23:0x80d08000  x5=0xfff01a10
       18245000	      1823	80001fa8	95d16513	ori	x10,x2,-1699	  x2:0x5ec24f54 x10=0xffffff5d
       18255000	      1824	80001fac	03930e63	beq	x6,x25,80001fe8	  x6:0xffffe000 x25:0x000002a0
       18265000	      1825	80001fb0	00d7d463	bge	x15,x13,80001fb8	 x15:0x80009fc4 x13:0x00000000
       18275000	      1826	80001fb4	0188b6b3	sltu	x13,x17,x24	 x17:0x80009f2c x24:0x00000000 x13=0x00000000
       18285000	      1827	80001fb8	99c40593	addi	x11,x8,-1636	  x8:0x81934e48 x11=0x819347e4
       18295000	      1828	80001fbc	2acae193	ori	x3,x21,684	 x21:0xc2cdc000  x3=0xc2cdc2ac
       18305000	      1829	80001fc0	01777433	and	x8,x14,x23	 x14:0x00000000 x23:0x80d08000  x8=0x00000000
       18315000	      1830	80001fc4	03856463	bltu	x10,x24,80001fec	 x10:0xffffff5d x24:0x00000000
       18325000	      1831	80001fc8	0001d813	srli	x16,x3,0x0	  x3:0xc2cdc2ac x16=0xc2cdc2ac
       18335000	      1832	80001fcc	40775593	srai	x11,x14,0x7	 x14:0x00000000 x11=0x00000000
       18345000	      1833	80001fd0	03568063	beq	x13,x21,80001ff0	 x13:0x00000000 x21:0xc2cdc000
       18355000	      1834	80001fd4	01192533	slt	x10,x18,x17	 x18:0xce7fc000 x17:0x80009f2c x10=0x00000000
       18365000	      1835	80001fd8	373df913	andi	x18,x27,883	 x27:0x7ed08000 x18=0x00000000
       18375000	      1836	80001fdc	3ec63593	sltiu	x11,x12,1004	 x12:0x00000000 x11=0x00000001
       18385000	      1837	80001fe0	a45c7813	andi	x16,x24,-1467	 x24:0x00000000 x16=0x00000000
       18395000	      1838	80001fe4	00b98463	beq	x19,x11,80001fec	 x19:0x00014102 x11:0x00000001
       18405000	      1839	80001fe8	4bc0d817	auipc	x16,0x4bc0d	 x16=0xcbc0efe4
       18415000	      1840	80001fec	043bf263	bgeu	x23,x3,80002030	 x23:0x80d08000  x3:0xc2cdc2ac
       18425000	      1841	80001ff0	8bd53313	sltiu	x6,x10,-1859	 x10:0x00000000  x6=0x00000001
       18435000	      1842	80001ff4	41908f33	sub	x30,x1,x25	  x1:0x277a5bda x25:0x000002a0 x30=0x277a593a
       18445000	      1843	80001ff8	40c1d433	sra	x8,x3,x12	  x3:0xc2cdc2ac x12:0x00000000  x8=0xc2cdc2ac
       18455000	      1844	80001ffc	44c6bd93	sltiu	x27,x13,1100	 x13:0x00000000 x27=0x00000001
       18465000	      1845	80002000	009185b3	add	x11,x3,x9	  x3:0xc2cdc2ac  x9:0x00000000 x11=0xc2cdc2ac
       18475000	      1846	80002004	003531b3	sltu	x3,x10,x3	 x10:0x00000000  x3:0xc2cdc2ac  x3=0x00000001
       18485000	      1847	80002008	0173ca33	xor	x20,x7,x23	  x7:0x00000000 x23:0x80d08000 x20=0x80d08000
       18495000	      1848	8000200c	01ccd913	srli	x18,x25,0x1c	 x25:0x000002a0 x18=0x00000000
       18505000	      1849	80002010	6e5a4e93	xori	x29,x20,1765	 x20:0x80d08000 x29=0x80d086e5
       18515000	      1850	80002014	00b59713	slli	x14,x11,0xb	 x11:0xc2cdc2ac x14=0x6e156000
       18525000	      1851	80002018	e2a7ab13	slti	x22,x15,-470	 x15:0x80009fc4 x22=0x00000001
       18535000	      1852	8000201c	00f53933	sltu	x18,x10,x15	 x10:0x00000000 x15:0x80009fc4 x18=0x00000001
       18545000	      1853	80002020	45d73a37	lui	x20,0x45d73	 x20=0x45d73000
       18555000	      1854	80002024	034d6e63	bltu	x26,x20,80002060	 x26:0x00000004 x20:0x45d73000
       18565000	      1855	00000000	00000013	addi	x0,x0,0	  x0:0x00000000
       18575000	      1856	8000205c	00000013	addi	x0,x0,0	  x0:0x00000000
       18585000	      1857	80002060	4048dd93	srai	x27,x17,0x4	 x17:0x80009f2c x27=0xf80009f2
       18595000	      1858	80002064	03908863	beq	x1,x25,80002094	  x1:0x277a5bda x25:0x000002a0
       18605000	      1859	80002068	03f74663	blt	x14,x31,80002094	 x14:0x6e156000 x31:0x00000000
       18615000	      1860	8000206c	00a59a63	bne	x11,x10,80002080	 x11:0xc2cdc2ac x10:0x00000000
       18625000	      1861	00000000	00000013	addi	x0,x0,0	  x0:0x00000000
       18635000	      1862	8000207c	00000013	addi	x0,x0,0	  x0:0x00000000
       18645000	      1863	80002080	6ee44137	lui	x2,0x6ee44	  x2=0x6ee44000
       18655000	      1864	80002084	41545e33	sra	x28,x8,x21	  x8:0xc2cdc2ac x21:0xc2cdc000 x28=0xc2cdc2ac
       18665000	      1865	80002088	0d99c063	blt	x19,x25,80002148	 x19:0x00014102 x25:0x000002a0
       18675000	      1866	8000208c	03ad5263	bge	x26,x26,800020b0	 x26:0x00000004 x26:0x00000004
       18685000	      1867	00000000	00000013	addi	x0,x0,0	  x0:0x00000000
       18695000	      1868	800020ac	00000013	addi	x0,x0,0	  x0:0x00000000
       18705000	      1869	800020b0	015bc333	xor	x6,x23,x21	 x23:0x80d08000 x21:0xc2cdc000  x6=0x421d4000
       18715000	      1870	800020b4	01272133	slt	x2,x14,x18	 x14:0x6e156000 x18:0x00000001  x2=0x00000000
       18725000	      1871	800020b8	41025b93	srai	x23,x4,0x10	  x4:0x00000000 x23=0x00000000
       18735000	      1872	800020bc	087c0c63	beq	x24,x7,80002154	 x24:0x00000000  x7:0x00000000
       18745000	      1873	00000000	00000013	addi	x0,x0,0	  x0:0x00000000
       18755000	      1874	80002150	00000013	addi	x0,x0,0	  x0:0x00000000
       18765000	      1875	80002154	59b8a993	slti	x19,x17,1435	 x17:0x80009f2c x19=0x00000001
       18775000	      1876	80002158	70f0c593	xori	x11,x1,1807	  x1:0x277a5bda x11=0x277a5cd5
       18785000	      1877	8000215c	03c89263	bne	x17,x28,80002180	 x17:0x80009f2c x28:0xc2cdc2ac
       18795000	      1878	00000000	00000013	addi	x0,x0,0	  x0:0x00000000
       18805000	      1879	8000217c	00000013	addi	x0,x0,0	  x0:0x00000000
       18815000	      1880	80002180	4835fc13	andi	x24,x11,1155	 x11:0x277a5cd5 x24=0x00000481
       18825000	      1881	80002184	8b624493	xori	x9,x4,-1866	  x4:0x00000000  x9=0xfffff8b6
       18835000	      1882	80002188	da2c85b7	lui	x11,0xda2c8	 x11=0xda2c8000
       18845000	      1883	8000218c	00ef9e93	slli	x29,x31,0xe	 x31:0x00000000 x29=0x00000000
       18855000	      1884	80002190	00000013	addi	x0,x0,0	  x0:0x00000000
       18865000	      1885	80002194	00d84663	blt	x16,x13,800021a0	 x16:0xcbc0efe4 x13:0x00000000
       18875000	      1886	00000000	00000013	addi	x0,x0,0	  x0:0x00000000
       18885000	      1887	8000219c	00000013	addi	x0,x0,0	  x0:0x00000000
       18895000	      1888	800021a0	0041a0b3	slt	x1,x3,x4	  x3:0x00000001  x4:0x00000000  x1=0x00000000
       18905000	      1889	800021a4	415e5313	srai	x6,x28,0x15	 x28:0xc2cdc2ac  x6=0xfffffe16
       18915000	      1890	800021a8	02fd7463	bgeu	x26,x15,800021d0	 x26:0x00000004 x15:0x80009fc4
       18925000	      1891	800021ac	01361213	slli	x4,x12,0x13	 x12:0x00000000  x4=0x00000000
       18935000	      1892	800021b0	00000013	addi	x0,x0,0	  x0:0x00000000
       18945000	      1893	800021b4	04272d93	slti	x27,x14,66	 x14:0x6e156000 x27=0x00000000
       18955000	      1894	800021b8	0011e033	or	x0,x3,x1	  x3:0x00000001  x1:0x00000000
       18965000	      1895	800021bc	999d2f93	slti	x31,x26,-1639	 x26:0x00000004 x31=0x00000000
       18975000	      1896	800021c0	00b5d693	srli	x13,x11,0xb	 x11:0xda2c8000 x13=0x001b4590
       18985000	      1897	800021c4	d16be213	ori	x4,x23,-746	 x23:0x00000000  x4=0xfffffd16
       18995000	      1898	800021c8	00e83433	sltu	x8,x16,x14	 x16:0xcbc0efe4 x14:0x6e156000  x8=0x00000000
       19005000	      1899	800021cc	04bb4263	blt	x22,x11,80002210	 x22:0x00000001 x11:0xda2c8000
       19015000	      1900	800021d0	a3ad7693	andi	x13,x26,-1478	 x26:0x00000004 x13=0x00000000
       19025000	      1901	800021d4	035b9463	bne	x23,x21,800021fc	 x23:0x00000000 x21:0xc2cdc000
       19035000	      1902	00000000	00000013	addi	x0,x0,0	  x0:0x00000000
       19045000	      1903	800021f8	00000013	addi	x0,x0,0	  x0:0x00000000
       19055000	      1904	800021fc	f3cee317	auipc	x6,0xf3cee	  x6=0x73cf01f8
       19065000	      1905	80002200	84b94a93	xori	x21,x18,-1973	 x18:0x00000001 x21=0xfffff84a
       19075000	      1906	80002204	01f09333	sll	x6,x1,x31	  x1:0x00000000 x31:0x00000000  x6=0x00000000
       19085000	      1907	80002208	00000013	addi	x0,x0,0	  x0:0x00000000
       19095000	      1908	8000220c	03fc1463	bne	x24,x31,80002234	 x24:0x00000481 x31:0x00000000
       19105000	      1909	00000000	00000013	addi	x0,x0,0	  x0:0x00000000
       19115000	      1910	80002230	00000013	addi	x0,x0,0	  x0:0x00000000
       19125000	      1911	80002234	00e0fcb3	and	x25,x1,x14	  x1:0x00000000 x14:0x6e156000 x25=0x00000000
       19135000	      1912	80002238	015392b3	sll	x5,x7,x21	  x7:0x00000000 x21:0xfffff84a  x5=0x00000000
       19145000	      1913	8000223c	02c44c63	blt	x8,x12,80002274	  x8:0x00000000 x12:0x00000000
       19155000	      1914	80002240	a735a093	slti	x1,x11,-1421	 x11:0xda2c8000  x1=0x00000001
       19165000	      1915	80002244	00dcae33	slt	x28,x25,x13	 x25:0x00000000 x13:0x00000000 x28=0x00000000
       19175000	      1916	80002248	002cbbb3	sltu	x23,x25,x2	 x25:0x00000000  x2:0x00000000 x23=0x00000000
       19185000	      1917	8000224c	00795bb3	srl	x23,x18,x7	 x18:0x00000001  x7:0x00000000 x23=0x00000001
       19195000	      1918	80002250	006bf433	and	x8,x23,x6	 x23:0x00000001  x6:0x00000000  x8=0x00000000
       19205000	      1919	80002254	01975863	bge	x14,x25,80002264	 x14:0x6e156000 x25:0x00000000
       19215000	      1920	00000000	00000013	addi	x0,x0,0	  x0:0x00000000
       19225000	      1921	80002260	00000013	addi	x0,x0,0	  x0:0x00000000
       19235000	      1922	80002264	00ad0263	beq	x26,x10,80002268	 x26:0x00000004 x10:0x00000000
       19245000	      1923	80002268	41d75313	srai	x6,x14,0x1d	 x14:0x6e156000  x6=0x00000003
       19255000	      1924	8000226c	00f75e13	srli	x28,x14,0xf	 x14:0x6e156000 x28=0x0000dc2a
       19265000	      1925	80002270	0155d0b3	srl	x1,x11,x21	 x11:0xda2c8000 x21:0xfffff84a  x1=0x00368b20
       19275000	      1926	80002274	01395a33	srl	x20,x18,x19	 x18:0x00000001 x19:0x00000001 x20=0x00000000
       19285000	      1927	80002278	01c82a33	slt	x20,x16,x28	 x16:0xcbc0efe4 x28:0x0000dc2a x20=0x00000001
       19295000	      1928	8000227c	5de92113	slti	x2,x18,1502	 x18:0x00000001  x2=0x00000001
       19305000	      1929	80002280	73ecf937	lui	x18,0x73ecf	 x18=0x73ecf000
       19315000	      1930	80002284	41ec5233	sra	x4,x24,x30	 x24:0x00000481 x30:0x277a593a  x4=0x00000000
       19325000	      1931	80002288	19e14093	xori	x1,x2,414	  x2:0x00000001  x1=0x0000019f
       19335000	      1932	8000228c	007571b3	and	x3,x10,x7	 x10:0x00000000  x7:0x00000000  x3=0x00000000
       19345000	      1933	80002290	02c2e063	bltu	x5,x12,800022b0	  x5:0x00000000 x12:0x00000000
       19355000	      1934	80002294	4c493c13	sltiu	x24,x18,1220	 x18:0x73ecf000 x24=0x00000000
       19365000	      1935	80002298	82945bb7	lui	x23,0x82945	 x23=0x82945000
       19375000	      1936	8000229c	c803c693	xori	x13,x7,-896	  x7:0x00000000 x13=0xfffffc80
       19385000	      1937	800022a0	025ad863	bge	x21,x5,800022d0	 x21:0xfffff84a  x5:0x00000000
       19395000	      1938	800022a4	00e36933	or	x18,x6,x14	  x6:0x00000003 x14:0x6e156000 x18=0x6e156003
       19405000	      1939	800022a8	030dfe63	bgeu	x27,x16,800022e4	 x27:0x00000000 x16:0xcbc0efe4
       19415000	      1940	800022ac	01def463	bgeu	x29,x29,800022b4	 x29:0x00000000 x29:0x00000000
       19425000	      1941	00000000	00000013	addi	x0,x0,0	  x0:0x00000000
       19435000	      1942	800022b0	00000013	addi	x0,x0,0	  x0:0x00000000
       19445000	      1943	800022b4	00000013	addi	x0,x0,0	  x0:0x00000000
       19455000	      1944	800022b8	aeb90cb7	lui	x25,0xaeb90	 x25=0xaeb90000
       19465000	      1945	800022bc	00b56b33	or	x22,x10,x11	 x10:0x00000000 x11:0xda2c8000 x22=0xda2c8000
       19475000	      1946	800022c0	415c0bb3	sub	x23,x24,x21	 x24:0x00000000 x21:0xfffff84a x23=0x000007b6
       19485000	      1947	800022c4	412fd733	sra	x14,x31,x18	 x31:0x00000000 x18:0x6e156003 x14=0x00000000
       19495000	      1948	800022c8	01271e13	slli	x28,x14,0x12	 x14:0x00000000 x28=0x00000000
       19505000	      1949	800022cc	0343d663	bge	x7,x20,800022f8	  x7:0x00000000 x20:0x00000001
       19515000	      1950	800022d0	2e24cd93	xori	x27,x9,738	  x9:0xfffff8b6 x27=0xfffffa54
       19525000	      1951	800022d4	01fbebb3	or	x23,x23,x31	 x23:0x000007b6 x31:0x00000000 x23=0x000007b6
       19535000	      1952	800022d8	004adf13	srli	x30,x21,0x4	 x21:0xfffff84a x30=0x0fffff84
       19545000	      1953	800022dc	00b2b0b3	sltu	x1,x5,x11	  x5:0x00000000 x11:0xda2c8000  x1=0x00000001
       19555000	      1954	800022e0	018c0bb3	add	x23,x24,x24	 x24:0x00000000 x24:0x00000000 x23=0x00000000
       19565000	      1955	800022e4	05ba4463	blt	x20,x27,8000232c	 x20:0x00000001 x27:0xfffffa54
       19575000	      1956	800022e8	413e5e33	sra	x28,x28,x19	 x28:0x00000000 x19:0x00000001 x28=0x00000000
       19585000	      1957	800022ec	b8cbca93	xori	x21,x23,-1140	 x23:0x00000000 x21=0xfffffb8c
       19595000	      1958	800022f0	4166d913	srai	x18,x13,0x16	 x13:0xfffffc80 x18=0xffffffff
       19605000	      1959	800022f4	00e25a93	srli	x21,x4,0xe	  x4:0x00000000 x21=0x00000000
       19615000	      1960	800022f8	40eb5033	sra	x0,x22,x14	 x22:0xda2c8000 x14:0x00000000
       19625000	      1961	800022fc	01dddf33	srl	x30,x27,x29	 x27:0xfffffa54 x29:0x00000000 x30=0xfffffa54
       19635000	      1962	80002300	01d1cab3	xor	x21,x3,x29	  x3:0x00000000 x29:0x00000000 x21=0x00000000
       19645000	      1963	80002304	01601933	sll	x18,x0,x22	  x0:0x00000000 x22:0xda2c8000 x18=0x00000000
       19655000	      1964	80002308	007fb4b3	sltu	x9,x31,x7	 x31:0x00000000  x7:0x00000000  x9=0x00000000
       19665000	      1965	8000230c	03f70063	beq	x14,x31,8000232c	 x14:0x00000000 x31:0x00000000
       19675000	      1966	00000000	00000013	addi	x0,x0,0	  x0:0x00000000
       19685000	      1967	80002328	00000013	addi	x0,x0,0	  x0:0x00000000
       19695000	      1968	8000232c	00000013	addi	x0,x0,0	  x0:0x00000000
       19705000	      1969	80002330	9871be37	lui	x28,0x9871b	 x28=0x9871b000
       19715000	      1970	80002334	00000013	addi	x0,x0,0	  x0:0x00000000
       19725000	      1971	80002338	003f2633	slt	x12,x30,x3	 x30:0xfffffa54  x3:0x00000000 x12=0x00000001
       19735000	      1972	8000233c	01803033	sltu	x0,x0,x24	  x0:0x00000000 x24:0x00000000
       19745000	      1973	80002340	40c555b3	sra	x11,x10,x12	 x10:0x00000000 x12:0x00000001 x11=0x00000000
       19755000	      1974	80002344	02a6e463	bltu	x13,x10,8000236c	 x13:0xfffffc80 x10:0x00000000
       19765000	      1975	80002348	e345c393	xori	x7,x11,-460	 x11:0x00000000  x7=0xfffffe34
       19775000	      1976	8000234c	016901b3	add	x3,x18,x22	 x18:0x00000000 x22:0xda2c8000  x3=0xda2c8000
       19785000	      1977	80002350	01cd9013	slli	x0,x27,0x1c	 x27:0xfffffa54
       19795000	      1978	80002354	00769f13	slli	x30,x13,0x7	 x13:0xfffffc80 x30=0xfffe4000
       19805000	      1979	80002358	00a8e133	or	x2,x17,x10	 x17:0x80009f2c x10:0x00000000  x2=0x80009f2c
       19815000	      1980	8000235c	00c24463	blt	x4,x12,80002364	  x4:0x00000000 x12:0x00000001
       19825000	      1981	00000000	00000013	addi	x0,x0,0	  x0:0x00000000
       19835000	      1982	80002360	00000013	addi	x0,x0,0	  x0:0x00000000
       19845000	      1983	80002364	01ffe9b3	or	x19,x31,x31	 x31:0x00000000 x31:0x00000000 x19=0x00000000
       19855000	      1984	80002368	017b8e33	add	x28,x23,x23	 x23:0x00000000 x23:0x00000000 x28=0x00000000
       19865000	      1985	8000236c	a53c2bb7	lui	x23,0xa53c2	 x23=0xa53c2000
       19875000	      1986	80002370	5b5930b7	lui	x1,0x5b593	  x1=0x5b593000
       19885000	      1987	80002374	413586b3	sub	x13,x11,x19	 x11:0x00000000 x19:0x00000000 x13=0x00000000
       19895000	      1988	80002378	d0c13e93	sltiu	x29,x2,-756	  x2:0x80009f2c x29=0x00000001
       19905000	      1989	8000237c	dfad7393	andi	x7,x26,-518	 x26:0x00000004  x7=0x00000000
       19915000	      1990	80002380	00cb71b3	and	x3,x22,x12	 x22:0xda2c8000 x12:0x00000001  x3=0x00000000
       19925000	      1991	80002384	05118863	beq	x3,x17,800023d4	  x3:0x00000000 x17:0x80009f2c
       19935000	      1992	80002388	40ef51b3	sra	x3,x30,x14	 x30:0xfffe4000 x14:0x00000000  x3=0xfffe4000
       19945000	      1993	8000238c	00d9a633	slt	x12,x19,x13	 x19:0x00000000 x13:0x00000000 x12=0x00000000
       19955000	      1994	80002390	01ff7463	bgeu	x30,x31,80002398	 x30:0xfffe4000 x31:0x00000000
       19965000	      1995	00000000	00000013	addi	x0,x0,0	  x0:0x00000000
       19975000	      1996	80002394	00000013	addi	x0,x0,0	  x0:0x00000000
       19985000	      1997	80002398	037b4c63	blt	x22,x23,800023d0	 x22:0xda2c8000 x23:0xa53c2000
       19995000	      1998	8000239c	4099d033	sra	x0,x19,x9	 x19:0x00000000  x9:0x00000000
       20005000	      1999	800023a0	00321bb3	sll	x23,x4,x3	  x4:0x00000000  x3:0xfffe4000 x23=0x00000000
       20015000	      2000	800023a4	f35df217	auipc	x4,0xf35df	  x4=0x735e13a0
       20025000	      2001	800023a8	015e9413	slli	x8,x29,0x15	 x29:0x00000001  x8=0x00200000
       20035000	      2002	800023ac	00ce6633	or	x12,x28,x12	 x28:0x00000000 x12:0x00000000 x12=0x00000000
       20045000	      2003	800023b0	01488033	add	x0,x17,x20	 x17:0x80009f2c x20:0x00000001
       20055000	      2004	800023b4	21b3a293	slti	x5,x7,539	  x7:0x00000000  x5=0x00000001
       20065000	      2005	800023b8	00becfb3	xor	x31,x29,x11	 x29:0x00000001 x11:0x00000000 x31=0x00000001
       20075000	      2006	800023bc	e8447093	andi	x1,x8,-380	  x8:0x00200000  x1=0x00200000
       20085000	      2007	800023c0	89b6c613	xori	x12,x13,-1893	 x13:0x00000000 x12=0xfffff89b
       20095000	      2008	800023c4	41ad5333	sra	x6,x26,x26	 x26:0x00000004 x26:0x00000004  x6=0x00000000
       20105000	      2009	800023c8	01169693	slli	x13,x13,0x11	 x13:0x00000000 x13=0x00000000
       20115000	      2010	800023cc	01db5e33	srl	x28,x22,x29	 x22:0xda2c8000 x29:0x00000001 x28=0x6d164000
       20125000	      2011	800023d0	07ee7737	lui	x14,0x7ee7	 x14=0x07ee7000
       20135000	      2012	800023d4	02711663	bne	x2,x7,80002400	  x2:0x80009f2c  x7:0x00000000
       20145000	      2013	00000000	00000013	addi	x0,x0,0	  x0:0x00000000
       20155000	      2014	800023fc	00000013	addi	x0,x0,0	  x0:0x00000000
       20165000	      2015	80002400	0114ca63	blt	x9,x17,80002414	  x9:0x00000000 x17:0x80009f2c
       20175000	      2016	80002404	0283f063	bgeu	x7,x8,80002424	  x7:0x00000000  x8:0x00200000
       20185000	      2017	80002408	0199ea63	bltu	x19,x25,8000241c	 x19:0x00000000 x25:0xaeb90000
       20195000	      2018	00000000	00000013	addi	x0,x0,0	  x0:0x00000000
       20205000	      2019	80002418	00000013	addi	x0,x0,0	  x0:0x00000000
       20215000	      2020	8000241c	00d7e933	or	x18,x15,x13	 x15:0x80009fc4 x13:0x00000000 x18=0x80009fc4
       20225000	      2021	80002420	001646b3	xor	x13,x12,x1	 x12:0xfffff89b  x1:0x00200000 x13=0xffdff89b
       20235000	      2022	80002424	0098a333	slt	x6,x17,x9	 x17:0x80009f2c  x9:0x00000000  x6=0x00000001
       20245000	      2023	80002428	41018533	sub	x10,x3,x16	  x3:0xfffe4000 x16:0xcbc0efe4 x10=0x343d501c
       20255000	      2024	8000242c	01ec9033	sll	x0,x25,x30	 x25:0xaeb90000 x30:0xfffe4000
       20265000	      2025	80002430	419ad933	sra	x18,x21,x25	 x21:0x00000000 x25:0xaeb90000 x18=0x00000000
       20275000	      2026	80002434	a4290113	addi	x2,x18,-1470	 x18:0x00000000  x2=0xfffffa42
       20285000	      2027	80002438	0371ec63	bltu	x3,x23,80002470	  x3:0xfffe4000 x23:0x00000000
       20295000	      2028	8000243c	f314d397	auipc	x7,0xf314d	  x7=0x7314f438
       20305000	      2029	80002440	05dc0b13	addi	x22,x24,93	 x24:0x00000000 x22=0x0000005d
       20315000	      2030	80002444	03686e63	bltu	x16,x22,80002480	 x16:0xcbc0efe4 x22:0x0000005d
       20325000	      2031	80002448	48218b13	addi	x22,x3,1154	  x3:0xfffe4000 x22=0xfffe4482
       20335000	      2032	8000244c	543dfc93	andi	x25,x27,1347	 x27:0xfffffa54 x25=0x00000040
       20345000	      2033	80002450	017015b3	sll	x11,x0,x23	  x0:0x00000000 x23:0x00000000 x11=0x00000000
       20355000	      2034	80002454	96923c93	sltiu	x25,x4,-1687	  x4:0x735e13a0 x25=0x00000001
       20365000	      2035	80002458	1949a613	slti	x12,x19,404	 x19:0x00000000 x12=0x00000001
       20375000	      2036	8000245c	1ab7f5b7	lui	x11,0x1ab7f	 x11=0x1ab7f000
       20385000	      2037	80002460	415b5093	srai	x1,x22,0x15	 x22:0xfffe4482  x1=0xffffffff
       20395000	      2038	80002464	40bd5213	srai	x4,x26,0xb	 x26:0x00000004  x4=0x00000000
       20405000	      2039	80002468	f237e993	ori	x19,x15,-221	 x15:0x80009fc4 x19=0xffffffe7
       20415000	      2040	8000246c	01da9d93	slli	x27,x21,0x1d	 x21:0x00000000 x27=0x00000000
       20425000	      2041	80002470	0b84aa93	slti	x21,x9,184	  x9:0x00000000 x21=0x00000001
       20435000	      2042	80002474	006d3233	sltu	x4,x26,x6	 x26:0x00000004  x6:0x00000001  x4=0x00000000
       20445000	      2043	80002478	8b06ff93	andi	x31,x13,-1872	 x13:0xffdff89b x31=0xffdff890
       20455000	      2044	8000247c	01195533	srl	x10,x18,x17	 x18:0x00000000 x17:0x80009f2c x10=0x00000000
       20465000	      2045	80002480	03906063	bltu	x0,x25,800024a0	  x0:0x00000000 x25:0x00000001
       20475000	      2046	00000000	00000013	addi	x0,x0,0	  x0:0x00000000
       20485000	      2047	8000249c	00000013	addi	x0,x0,0	  x0:0x00000000
       20495000	      2048	800024a0	c2bf2693	slti	x13,x30,-981	 x30:0xfffe4000 x13=0x00000001
       20505000	      2049	800024a4	0009b033	sltu	x0,x19,x0	 x19:0xffffffe7  x0:0x00000000
       20515000	      2050	800024a8	02cf4463	blt	x30,x12,800024d0	 x30:0xfffe4000 x12:0x00000001
       20525000	      2051	00000000	00000013	addi	x0,x0,0	  x0:0x00000000
       20535000	      2052	800024cc	00000013	addi	x0,x0,0	  x0:0x00000000
       20545000	      2053	800024d0	0fc52e93	slti	x29,x10,252	 x10:0x00000000 x29=0x00000001
       20555000	      2054	800024d4	00df2233	slt	x4,x30,x13	 x30:0xfffe4000 x13:0x00000001  x4=0x00000001
       20565000	      2055	800024d8	405e0f33	sub	x30,x28,x5	 x28:0x6d164000  x5:0x00000001 x30=0x6d163fff
       20575000	      2056	800024dc	33d24b93	xori	x23,x4,829	  x4:0x00000001 x23=0x0000033c
       20585000	      2057	800024e0	eee50f93	addi	x31,x10,-274	 x10:0x00000000 x31=0xfffffeee
       20595000	      2058	800024e4	022f0063	beq	x30,x2,80002504	 x30:0x6d163fff  x2:0xfffffa42
       20605000	      2059	800024e8	01a39013	slli	x0,x7,0x1a	  x7:0x7314f438
       20615000	      2060	800024ec	ce4853b7	lui	x7,0xce485	  x7=0xce485000
       20625000	      2061	800024f0	410a0b33	sub	x22,x20,x16	 x20:0x00000001 x16:0xcbc0efe4 x22=0x343f101d
       20635000	      2062	800024f4	018789b3	add	x19,x15,x24	 x15:0x80009fc4 x24:0x00000000 x19=0x80009fc4
       20645000	      2063	800024f8	d92f19b7	lui	x19,0xd92f1	 x19=0xd92f1000
       20655000	      2064	800024fc	057cd463	bge	x25,x23,80002544	 x25:0x00000001 x23:0x0000033c
       20665000	      2065	80002500	ea824613	xori	x12,x4,-344	  x4:0x00000001 x12=0xfffffea9
       20675000	      2066	80002504	9d85c613	xori	x12,x11,-1576	 x11:0x1ab7f000 x12=0xe54809d8
       20685000	      2067	80002508	03b57063	bgeu	x10,x27,80002528	 x10:0x00000000 x27:0x00000000
       20695000	      2068	00000000	00000013	addi	x0,x0,0	  x0:0x00000000
       20705000	      2069	80002524	00000013	addi	x0,x0,0	  x0:0x00000000
       20715000	      2070	80002528	01e86333	or	x6,x16,x30	 x16:0xcbc0efe4 x30:0x6d163fff  x6=0xefd6ffff
       20725000	      2071	8000252c	00829613	slli	x12,x5,0x8	  x5:0x00000001 x12=0x00000100
       20735000	      2072	80002530	00ed65b3	or	x11,x26,x14	 x26:0x00000004 x14:0x07ee7000 x11=0x07ee7004
       20745000	      2073	80002534	015643b3	xor	x7,x12,x21	 x12:0x00000100 x21:0x00000001  x7=0x00000101
       20755000	      2074	80002538	03a9ee63	bltu	x19,x26,80002574	 x19:0xd92f1000 x26:0x00000004
       20765000	      2075	8000253c	01b46463	bltu	x8,x27,80002544	  x8:0x00200000 x27:0x00000000
       20775000	      2076	80002540	00bb4033	xor	x0,x22,x11	 x22:0x343f101d x11:0x07ee7004
       20785000	      2077	80002544	71b33213	sltiu	x4,x6,1819	  x6:0xefd6ffff  x4=0x00000000
       20795000	      2078	80002548	00000013	addi	x0,x0,0	  x0:0x00000000
       20805000	      2079	8000254c	0341d663	bge	x3,x20,80002578	  x3:0xfffe4000 x20:0x00000001
       20815000	      2080	80002550	0129d193	srli	x3,x19,0x12	 x19:0xd92f1000  x3=0x0000364b
       20825000	      2081	80002554	ebf29137	lui	x2,0xebf29	  x2=0xebf29000
       20835000	      2082	80002558	0015ea63	bltu	x11,x1,8000256c	 x11:0x07ee7004  x1:0xffffffff
       20845000	      2083	00000000	00000013	addi	x0,x0,0	  x0:0x00000000
       20855000	      2084	80002568	00000013	addi	x0,x0,0	  x0:0x00000000
       20865000	      2085	8000256c	01f7f033	and	x0,x15,x31	 x15:0x80009fc4 x31:0xfffffeee
       20875000	      2086	80002570	00000013	addi	x0,x0,0	  x0:0x00000000
       20885000	      2087	80002574	d3e26a93	ori	x21,x4,-706	  x4:0x00000000 x21=0xfffffd3e
       20895000	      2088	80002578	40788bb3	sub	x23,x17,x7	 x17:0x80009f2c  x7:0x00000101 x23=0x80009e2b
       20905000	      2089	8000257c	00627c33	and	x24,x4,x6	  x4:0x00000000  x6:0xefd6ffff x24=0x00000000
       20915000	      2090	80002580	66492493	slti	x9,x18,1636	 x18:0x00000000  x9=0x00000001
       20925000	      2091	80002584	01d1e863	bltu	x3,x29,80002594	  x3:0x0000364b x29:0x00000001
       20935000	      2092	80002588	f9aac493	xori	x9,x21,-102	 x21:0xfffffd3e  x9=0x000002a4
       20945000	      2093	8000258c	00d19493	slli	x9,x3,0xd	  x3:0x0000364b  x9=0x06c96000
       20955000	      2094	80002590	2f41a697	auipc	x13,0x2f41a	 x13=0xaf41c58c
       20965000	      2095	80002594	007c5233	srl	x4,x24,x7	 x24:0x00000000  x7:0x00000101  x4=0x00000000
       20975000	      2096	80002598	00f35263	bge	x6,x15,8000259c	  x6:0xefd6ffff x15:0x80009fc4
       20985000	      2097	00000000	00000013	addi	x0,x0,0	  x0:0x00000000
       20995000	      2098	80002598	00000013	addi	x0,x0,0	  x0:0x00000000
       21005000	      2099	8000259c	0351c263	blt	x3,x21,800025c0	  x3:0x0000364b x21:0xfffffd3e
       21015000	      2100	800025a0	028c9e63	bne	x25,x8,800025dc	 x25:0x00000001  x8:0x00200000
       21025000	      2101	00000000	00000013	addi	x0,x0,0	  x0:0x00000000
       21035000	      2102	800025d8	00000013	addi	x0,x0,0	  x0:0x00000000
       21045000	      2103	800025dc	000c44b3	xor	x9,x24,x0	 x24:0x00000000  x0:0x00000000  x9=0x00000000
       21055000	      2104	800025e0	007614b3	sll	x9,x12,x7	 x12:0x00000100  x7:0x00000101  x9=0x00000200
       21065000	      2105	800025e4	c932ab93	slti	x23,x5,-877	  x5:0x00000001 x23=0x00000000
       21075000	      2106	800025e8	01fea2b3	slt	x5,x29,x31	 x29:0x00000001 x31:0xfffffeee  x5=0x00000000
       21085000	      2107	800025ec	40e4db93	srai	x23,x9,0xe	  x9:0x00000200 x23=0x00000000
       21095000	      2108	800025f0	fe268193	addi	x3,x13,-30	 x13:0xaf41c58c  x3=0xaf41c56e
       21105000	      2109	800025f4	41418333	sub	x6,x3,x20	  x3:0xaf41c56e x20:0x00000001  x6=0xaf41c56d
       21115000	      2110	800025f8	0276c463	blt	x13,x7,80002620	 x13:0xaf41c58c  x7:0x00000101
       21125000	      2111	00000000	00000013	addi	x0,x0,0	  x0:0x00000000
       21135000	      2112	8000261c	00000013	addi	x0,x0,0	  x0:0x00000000
       21145000	      2113	80002620	019e10b3	sll	x1,x28,x25	 x28:0x6d164000 x25:0x00000001  x1=0xda2c8000
       21155000	      2114	80002624	d5c82293	slti	x5,x16,-676	 x16:0xcbc0efe4  x5=0x00000001
       21165000	      2115	80002628	0168aa33	slt	x20,x17,x22	 x17:0x80009f2c x22:0x343f101d x20=0x00000001
       21175000	      2116	8000262c	d49f4013	xori	x0,x30,-695	 x30:0x6d163fff
       21185000	      2117	80002630	00000013	addi	x0,x0,0	  x0:0x00000000
       21195000	      2118	80002634	6771bc13	sltiu	x24,x3,1655	  x3:0xaf41c56e x24=0x00000000
       21205000	      2119	80002638	01662933	slt	x18,x12,x22	 x12:0x00000100 x22:0x343f101d x18=0x00000001
       21215000	      2120	8000263c	00215433	srl	x8,x2,x2	  x2:0xebf29000  x2:0xebf29000  x8=0xebf29000
       21225000	      2121	80002640	00000013	addi	x0,x0,0	  x0:0x00000000
       21235000	      2122	80002644	4158ddb3	sra	x27,x17,x21	 x17:0x80009f2c x21:0xfffffd3e x27=0xfffffffe
       21245000	      2123	80002648	54aebf93	sltiu	x31,x29,1354	 x29:0x00000001 x31=0x00000001
       21255000	      2124	8000264c	00699663	bne	x19,x6,80002658	 x19:0xd92f1000  x6:0xaf41c56d
       21265000	      2125	00000000	00000013	addi	x0,x0,0	  x0:0x00000000
       21275000	      2126	80002654	00000013	addi	x0,x0,0	  x0:0x00000000
       21285000	      2127	80002658	01e87fb3	and	x31,x16,x30	 x16:0xcbc0efe4 x30:0x6d163fff x31=0x49002fe4
       21295000	      2128	8000265c	01bed913	srli	x18,x29,0x1b	 x29:0x00000001 x18=0x00000000
       21305000	      2129	80002660	00d81993	slli	x19,x16,0xd	 x16:0xcbc0efe4 x19=0x1dfc8000
       21315000	      2130	80002664	01f48433	add	x8,x9,x31	  x9:0x00000200 x31:0x49002fe4  x8=0x490031e4
       21325000	      2131	80002668	03019063	bne	x3,x16,80002688	  x3:0xaf41c56e x16:0xcbc0efe4
       21335000	      2132	00000000	00000013	addi	x0,x0,0	  x0:0x00000000
       21345000	      2133	80002684	00000013	addi	x0,x0,0	  x0:0x00000000
       21355000	      2134	80002688	bf8ba597	auipc	x11,0xbf8ba	 x11=0x3f8bc684
       21365000	      2135	8000268c	028f8863	beq	x31,x8,800026bc	 x31:0x49002fe4  x8:0x490031e4
       21375000	      2136	80002690	00b8a1b3	slt	x3,x17,x11	 x17:0x80009f2c x11:0x3f8bc684  x3=0x00000001
       21385000	      2137	80002694	fd80bc13	sltiu	x24,x1,-40	  x1:0xda2c8000 x24=0x00000001
       21395000	      2138	80002698	009650b3	srl	x1,x12,x9	 x12:0x00000100  x9:0x00000200  x1=0x00000100
       21405000	      2139	8000269c	41905993	srai	x19,x0,0x19	  x0:0x00000000 x19=0x00000000
       21415000	      2140	800026a0	41420eb3	sub	x29,x4,x20	  x4:0x00000000 x20:0x00000001 x29=0xffffffff
       21425000	      2141	800026a4	47a74c93	xori	x25,x14,1146	 x14:0x07ee7000 x25=0x07ee747a
       21435000	      2142	800026a8	143b2493	slti	x9,x22,323	 x22:0x343f101d  x9=0x00000000
       21445000	      2143	800026ac	015b1463	bne	x22,x21,800026b4	 x22:0x343f101d x21:0xfffffd3e
       21455000	      2144	00000000	00000013	addi	x0,x0,0	  x0:0x00000000
       21465000	      2145	800026b0	00000013	addi	x0,x0,0	  x0:0x00000000
       21475000	      2146	800026b4	43667313	andi	x6,x12,1078	 x12:0x00000100  x6=0x00000000
       21485000	      2147	800026b8	00b95db3	srl	x27,x18,x11	 x18:0x00000000 x11:0x3f8bc684 x27=0x00000000
       21495000	      2148	800026bc	0166cfb3	xor	x31,x13,x22	 x13:0xaf41c58c x22:0x343f101d x31=0x9b7ed591
       21505000	      2149	800026c0	03cb4863	blt	x22,x28,800026f0	 x22:0x343f101d x28:0x6d164000
       21515000	      2150	00000000	00000013	addi	x0,x0,0	  x0:0x00000000
       21525000	      2151	800026ec	00000013	addi	x0,x0,0	  x0:0x00000000
       21535000	      2152	800026f0	01ac5d93	srli	x27,x24,0x1a	 x24:0x00000001 x27=0x00000000
       21545000	      2153	800026f4	b64c0997	auipc	x19,0xb64c0	 x19=0x364c26f0
       21555000	      2154	800026f8	41c25c93	srai	x25,x4,0x1c	  x4:0x00000000 x25=0x00000000
       21565000	      2155	800026fc	01379833	sll	x16,x15,x19	 x15:0x80009fc4 x19:0x364c26f0 x16=0x9fc40000
       21575000	      2156	80002700	00035213	srli	x4,x6,0x0	  x6:0x00000000  x4=0x00000000
       21585000	      2157	80002704	00000013	addi	x0,x0,0	  x0:0x00000000
       21595000	      2158	80002708	017d39b3	sltu	x19,x26,x23	 x26:0x00000004 x23:0x00000000 x19=0x00000000
       21605000	      2159	8000270c	03524063	blt	x4,x21,8000272c	  x4:0x00000000 x21:0xfffffd3e
       21615000	      2160	80002710	d3895c97	auipc	x25,0xd3895	 x25=0x5389770c
       21625000	      2161	80002714	0305c463	blt	x11,x16,8000273c	 x11:0x3f8bc684 x16:0x9fc40000
       21635000	      2162	80002718	76b4ef37	lui	x30,0x76b4e	 x30=0x76b4e000
       21645000	      2163	8000271c	4a70ec93	ori	x25,x1,1191	  x1:0x00000100 x25=0x000005a7
       21655000	      2164	80002720	d4f9ec37	lui	x24,0xd4f9e	 x24=0xd4f9e000
       21665000	      2165	80002724	00000013	addi	x0,x0,0	  x0:0x00000000
       21675000	      2166	80002728	0063a733	slt	x14,x7,x6	  x7:0x00000101  x6:0x00000000 x14=0x00000000
       21685000	      2167	8000272c	66246313	ori	x6,x8,1634	  x8:0x490031e4  x6=0x490037e6
       21695000	      2168	80002730	0073de93	srli	x29,x7,0x7	  x7:0x00000101 x29=0x00000002
       21705000	      2169	80002734	d9028113	addi	x2,x5,-624	  x5:0x00000001  x2=0xfffffd91
       21715000	      2170	80002738	00661613	slli	x12,x12,0x6	 x12:0x00000100 x12=0x00004000
       21725000	      2171	8000273c	01b332b3	sltu	x5,x6,x27	  x6:0x490037e6 x27:0x00000000  x5=0x00000000
       21735000	      2172	80002740	02ed9463	bne	x27,x14,80002768	 x27:0x00000000 x14:0x00000000
       21745000	      2173	80002744	9bdb6c93	ori	x25,x22,-1603	 x22:0x343f101d x25=0xfffff9bd
       21755000	      2174	80002748	017ba333	slt	x6,x23,x23	 x23:0x00000000 x23:0x00000000  x6=0x00000000
       21765000	      2175	8000274c	05580863	beq	x16,x21,8000279c	 x16:0x9fc40000 x21:0xfffffd3e
       21775000	      2176	80002750	017c9d93	slli	x27,x25,0x17	 x25:0xfffff9bd x27=0xde800000
       21785000	      2177	80002754	404a5193	srai	x3,x20,0x4	 x20:0x00000001  x3=0x00000000
       21795000	      2178	80002758	03914463	blt	x2,x25,80002780	  x2:0xfffffd91 x25:0xfffff9bd
       21805000	      2179	8000275c	ed8dff93	andi	x31,x27,-296	 x27:0xde800000 x31=0xde800000
       21815000	      2180	80002760	a3393bb7	lui	x23,0xa3393	 x23=0xa3393000
       21825000	      2181	80002764	0154afb3	slt	x31,x9,x21	  x9:0x00000000 x21:0xfffffd3e x31=0x00000000
       21835000	      2182	80002768	3278f813	andi	x16,x17,807	 x17:0x80009f2c x16=0x00000324
       21845000	      2183	8000276c	00cc5a33	srl	x20,x24,x12	 x24:0xd4f9e000 x12:0x00004000 x20=0xd4f9e000
       21855000	      2184	80002770	01458f33	add	x30,x11,x20	 x11:0x3f8bc684 x20:0xd4f9e000 x30=0x1485a684
       21865000	      2185	80002774	014ce033	or	x0,x25,x20	 x25:0xfffff9bd x20:0xd4f9e000
       21875000	      2186	80002778	0663c493	xori	x9,x7,102	  x7:0x00000101  x9=0x00000167
       21885000	      2187	8000277c	0128fa33	and	x20,x17,x18	 x17:0x80009f2c x18:0x00000000 x20=0x00000000
       21895000	      2188	80002780	01d199b3	sll	x19,x3,x29	  x3:0x00000000 x29:0x00000002 x19=0x00000000
       21905000	      2189	80002784	009eeab3	or	x21,x29,x9	 x29:0x00000002  x9:0x00000167 x21=0x00000167
       21915000	      2190	80002788	0131a433	slt	x8,x3,x19	  x3:0x00000000 x19:0x00000000  x8=0x00000000
       21925000	      2191	8000278c	018cca63	blt	x25,x24,800027a0	 x25:0xfffff9bd x24:0xd4f9e000
       21935000	      2192	80002790	6573ad93	slti	x27,x7,1623	  x7:0x00000101 x27=0x00000001
       21945000	      2193	80002794	00000013	addi	x0,x0,0	  x0:0x00000000
       21955000	      2194	80002798	02486063	bltu	x16,x4,800027b8	 x16:0x00000324  x4:0x00000000
       21965000	      2195	8000279c	4071d913	srai	x18,x3,0x7	  x3:0x00000000 x18=0x00000000
       21975000	      2196	800027a0	254cae13	slti	x28,x25,596	 x25:0xfffff9bd x28=0x00000001
       21985000	      2197	800027a4	026f5663	bge	x30,x6,800027d0	 x30:0x1485a684  x6:0x00000000
       21995000	      2198	00000000	00000013	addi	x0,x0,0	  x0:0x00000000
       22005000	      2199	800027cc	00000013	addi	x0,x0,0	  x0:0x00000000
       22015000	      2200	800027d0	40220b33	sub	x22,x4,x2	  x4:0x00000000  x2:0xfffffd91 x22=0x0000026f
       22025000	      2201	800027d4	05aa0263	beq	x20,x26,80002818	 x20:0x00000000 x26:0x00000004
       22035000	      2202	800027d8	000b5533	srl	x10,x22,x0	 x22:0x0000026f  x0:0x00000000 x10=0x0000026f
       22045000	      2203	800027dc	01ef9633	sll	x12,x31,x30	 x31:0x00000000 x30:0x1485a684 x12=0x00000000
       22055000	      2204	800027e0	035afe63	bgeu	x21,x21,8000281c	 x21:0x00000167 x21:0x00000167
       22065000	      2205	00000000	00000013	addi	x0,x0,0	  x0:0x00000000
       22075000	      2206	80002818	00000013	addi	x0,x0,0	  x0:0x00000000
       22085000	      2207	8000281c	00054f33	xor	x30,x10,x0	 x10:0x0000026f  x0:0x00000000 x30=0x0000026f
       22095000	      2208	80002820	0086feb3	and	x29,x13,x8	 x13:0xaf41c58c  x8:0x00000000 x29=0x00000000
       22105000	      2209	80002824	c6ec3913	sltiu	x18,x24,-914	 x24:0xd4f9e000 x18=0x00000001
       22115000	      2210	80002828	214e4597	auipc	x11,0x214e4	 x11=0xa14e6824
       22125000	      2211	8000282c	13754e97	auipc	x29,0x13754	 x29=0x93756828
       22135000	      2212	80002830	003d4fb3	xor	x31,x26,x3	 x26:0x00000004  x3:0x00000000 x31=0x00000004
       22145000	      2213	80002834	012cd233	srl	x4,x25,x18	 x25:0xfffff9bd x18:0x00000001  x4=0x7ffffcde
       22155000	      2214	80002838	04ed0463	beq	x26,x14,80002880	 x26:0x00000004 x14:0x00000000
       22165000	      2215	8000283c	0002d463	bge	x5,x0,80002844	  x5:0x00000000  x0:0x00000000
       22175000	      2216	00000000	00000013	addi	x0,x0,0	  x0:0x00000000
       22185000	      2217	80002840	00000013	addi	x0,x0,0	  x0:0x00000000
       22195000	      2218	80002844	001b1713	slli	x14,x22,0x1	 x22:0x0000026f x14=0x000004de
       22205000	      2219	80002848	01901c93	slli	x25,x0,0x19	  x0:0x00000000 x25=0x00000000
       22215000	      2220	8000284c	640b6b13	ori	x22,x22,1600	 x22:0x0000026f x22=0x0000066f
       22225000	      2221	80002850	e9b23313	sltiu	x6,x4,-357	  x4:0x7ffffcde  x6=0x00000001
       22235000	      2222	80002854	01df9eb3	sll	x29,x31,x29	 x31:0x00000004 x29:0x93756828 x29=0x00000400
       22245000	      2223	80002858	40205433	sra	x8,x0,x2	  x0:0x00000000  x2:0xfffffd91  x8=0x00000000
       22255000	      2224	8000285c	03a7ee63	bltu	x15,x26,80002898	 x15:0x80009fc4 x26:0x00000004
       22265000	      2225	80002860	0b8d2f93	slti	x31,x26,184	 x26:0x00000004 x31=0x00000001
       22275000	      2226	80002864	011159b3	srl	x19,x2,x17	  x2:0xfffffd91 x17:0x80009f2c x19=0x000fffff
       22285000	      2227	80002868	e2a93593	sltiu	x11,x18,-470	 x18:0x00000001 x11=0x00000001
       22295000	      2228	8000286c	4011d013	srai	x0,x3,0x1	  x3:0x00000000
       22305000	      2229	80002870	30760b13	addi	x22,x12,775	 x12:0x00000000 x22=0x00000307
       22315000	      2230	80002874	00000013	addi	x0,x0,0	  x0:0x00000000
       22325000	      2231	80002878	41e95e93	srai	x29,x18,0x1e	 x18:0x00000001 x29=0x00000000
       22335000	      2232	8000287c	004bdcb3	srl	x25,x23,x4	 x23:0xa3393000  x4:0x7ffffcde x25=0x00000002
       22345000	      2233	80002880	00ab7463	bgeu	x22,x10,80002888	 x22:0x00000307 x10:0x0000026f
       22355000	      2234	00000000	00000013	addi	x0,x0,0	  x0:0x00000000
       22365000	      2235	80002884	00000013	addi	x0,x0,0	  x0:0x00000000
       22375000	      2236	80002888	00bf6a63	bltu	x30,x11,8000289c	 x30:0x0000026f x11:0x00000001
       22385000	      2237	8000288c	ee5f2293	slti	x5,x30,-283	 x30:0x0000026f  x5=0x00000000
       22395000	      2238	80002890	03caf063	bgeu	x21,x28,800028b0	 x21:0x00000167 x28:0x00000001
       22405000	      2239	00000000	00000013	addi	x0,x0,0	  x0:0x00000000
       22415000	      2240	800028ac	00000013	addi	x0,x0,0	  x0:0x00000000
       22425000	      2241	800028b0	03c99863	bne	x19,x28,800028e0	 x19:0x000fffff x28:0x00000001
       22435000	      2242	00000000	00000013	addi	x0,x0,0	  x0:0x00000000
       22445000	      2243	800028dc	00000013	addi	x0,x0,0	  x0:0x00000000
       22455000	      2244	800028e0	01a533b3	sltu	x7,x10,x26	 x10:0x0000026f x26:0x00000004  x7=0x00000000
       22465000	      2245	800028e4	41448133	sub	x2,x9,x20	  x9:0x00000167 x20:0x00000000  x2=0x00000167
       22475000	      2246	800028e8	402bdab3	sra	x21,x23,x2	 x23:0xa3393000  x2:0x00000167 x21=0xff467260
       22485000	      2247	800028ec	409050b3	sra	x1,x0,x9	  x0:0x00000000  x9:0x00000167  x1=0x00000000
       22495000	      2248	800028f0	01cf2f33	slt	x30,x30,x28	 x30:0x0000026f x28:0x00000001 x30=0x00000000
       22505000	      2249	800028f4	01d7a4b3	slt	x9,x15,x29	 x15:0x80009fc4 x29:0x00000000  x9=0x00000001
       22515000	      2250	800028f8	003d6633	or	x12,x26,x3	 x26:0x00000004  x3:0x00000000 x12=0x00000004
       22525000	      2251	800028fc	5b01bf13	sltiu	x30,x3,1456	  x3:0x00000000 x30=0x00000001
       22535000	      2252	80002900	010d5313	srli	x6,x26,0x10	 x26:0x00000004  x6=0x00000000
       22545000	      2253	80002904	00766c33	or	x24,x12,x7	 x12:0x00000004  x7:0x00000000 x24=0x00000004
       22555000	      2254	80002908	03bb0c63	beq	x22,x27,80002940	 x22:0x00000307 x27:0x00000001
       22565000	      2255	8000290c	0180bb33	sltu	x22,x1,x24	  x1:0x00000000 x24:0x00000004 x22=0x00000001
       22575000	      2256	80002910	01c10263	beq	x2,x28,80002914	  x2:0x00000167 x28:0x00000001
       22585000	      2257	80002914	01a7b6b3	sltu	x13,x15,x26	 x15:0x80009fc4 x26:0x00000004 x13=0x00000000
       22595000	      2258	80002918	00000013	addi	x0,x0,0	  x0:0x00000000
       22605000	      2259	8000291c	01cc3333	sltu	x6,x24,x28	 x24:0x00000004 x28:0x00000001  x6=0x00000000
       22615000	      2260	80002920	01039413	slli	x8,x7,0x10	  x7:0x00000000  x8=0x00000000
       22625000	      2261	80002924	00deccb3	xor	x25,x29,x13	 x29:0x00000000 x13:0x00000000 x25=0x00000000
       22635000	      2262	80002928	00b633b3	sltu	x7,x12,x11	 x12:0x00000004 x11:0x00000001  x7=0x00000000
       22645000	      2263	8000292c	01a78863	beq	x15,x26,8000293c	 x15:0x80009fc4 x26:0x00000004
       22655000	      2264	80002930	411783b3	sub	x7,x15,x17	 x15:0x80009fc4 x17:0x80009f2c  x7=0x00000098
       22665000	      2265	80002934	ba123d93	sltiu	x27,x4,-1119	  x4:0x7ffffcde x27=0x00000001
       22675000	      2266	80002938	8fc5c813	xori	x16,x11,-1796	 x11:0x00000001 x16=0xfffff8fd
       22685000	      2267	8000293c	015a09b3	add	x19,x20,x21	 x20:0x00000000 x21:0xff467260 x19=0xff467260
       22695000	      2268	80002940	40d30e33	sub	x28,x6,x13	  x6:0x00000000 x13:0x00000000 x28=0x00000000
       22705000	      2269	80002944	03621063	bne	x4,x22,80002964	  x4:0x7ffffcde x22:0x00000001
       22715000	      2270	00000000	00000013	addi	x0,x0,0	  x0:0x00000000
       22725000	      2271	80002960	00000013	addi	x0,x0,0	  x0:0x00000000
       22735000	      2272	80002964	01f26633	or	x12,x4,x31	  x4:0x7ffffcde x31:0x00000001 x12=0x7ffffcdf
       22745000	      2273	80002968	224d7297	auipc	x5,0x224d7	  x5=0xa24d9964
       22755000	      2274	8000296c	014965b3	or	x11,x18,x20	 x18:0x00000001 x20:0x00000000 x11=0x00000001
       22765000	      2275	80002970	02044e63	blt	x8,x0,800029ac	  x8:0x00000000  x0:0x00000000
       22775000	      2276	80002974	403eda13	srai	x20,x29,0x3	 x29:0x00000000 x20=0x00000000
       22785000	      2277	80002978	00000013	addi	x0,x0,0	  x0:0x00000000
       22795000	      2278	8000297c	00dd96b3	sll	x13,x27,x13	 x27:0x00000001 x13:0x00000000 x13=0x00000001
       22805000	      2279	80002980	01539013	slli	x0,x7,0x15	  x7:0x00000098
       22815000	      2280	80002984	40c35293	srai	x5,x6,0xc	  x6:0x00000000  x5=0x00000000
       22825000	      2281	80002988	22f2f313	andi	x6,x5,559	  x5:0x00000000  x6=0x00000000
       22835000	      2282	8000298c	02bcc863	blt	x25,x11,800029bc	 x25:0x00000000 x11:0x00000001
       22845000	      2283	00000000	00000013	addi	x0,x0,0	  x0:0x00000000
       22855000	      2284	800029b8	00000013	addi	x0,x0,0	  x0:0x00000000
       22865000	      2285	800029bc	480d3e13	sltiu	x28,x26,1152	 x26:0x00000004 x28=0x00000001
       22875000	      2286	800029c0	00e6ef33	or	x30,x13,x14	 x13:0x00000001 x14:0x000004de x30=0x000004df
       22885000	      2287	800029c4	00cf1fb3	sll	x31,x30,x12	 x30:0x000004df x12:0x7ffffcdf x31=0x80000000
       22895000	      2288	800029c8	e922f393	andi	x7,x5,-366	  x5:0x00000000  x7=0x00000000
       22905000	      2289	800029cc	41325233	sra	x4,x4,x19	  x4:0x7ffffcde x19:0xff467260  x4=0x7ffffcde
       22915000	      2290	800029d0	037c9c63	bne	x25,x23,80002a08	 x25:0x00000000 x23:0xa3393000
       22925000	      2291	00000000	00000013	addi	x0,x0,0	  x0:0x00000000
       22935000	      2292	80002a04	00000013	addi	x0,x0,0	  x0:0x00000000
       22945000	      2293	80002a08	00a11eb3	sll	x29,x2,x10	  x2:0x00000167 x10:0x0000026f x29=0x00b38000
       22955000	      2294	80002a0c	04fa0593	addi	x11,x20,79	 x20:0x00000000 x11=0x0000004f
       22965000	      2295	80002a10	0320f663	bgeu	x1,x18,80002a3c	  x1:0x00000000 x18:0x00000001
       22975000	      2296	80002a14	86a046b7	lui	x13,0x86a04	 x13=0x86a04000
       22985000	      2297	80002a18	3e57a593	slti	x11,x15,997	 x15:0x80009fc4 x11=0x00000001
       22995000	      2298	80002a1c	00d83333	sltu	x6,x16,x13	 x16:0xfffff8fd x13:0x86a04000  x6=0x00000000
       23005000	      2299	80002a20	0072e0b3	or	x1,x5,x7	  x5:0x00000000  x7:0x00000000  x1=0x00000000
       23015000	      2300	80002a24	00709993	slli	x19,x1,0x7	  x1:0x00000000 x19=0x00000000
       23025000	      2301	80002a28	00d41933	sll	x18,x8,x13	  x8:0x00000000 x13:0x86a04000 x18=0x00000000
       23035000	      2302	80002a2c	40f156b3	sra	x13,x2,x15	  x2:0x00000167 x15:0x80009fc4 x13=0x00000016
       23045000	      2303	80002a30	02f89c63	bne	x17,x15,80002a68	 x17:0x80009f2c x15:0x80009fc4
       23055000	      2304	00000000	00000013	addi	x0,x0,0	  x0:0x00000000
       23065000	      2305	80002a64	00000013	addi	x0,x0,0	  x0:0x00000000
       23075000	      2306	80002a68	404086b3	sub	x13,x1,x4	  x1:0x00000000  x4:0x7ffffcde x13=0x80000322
       23085000	      2307	80002a6c	d6750113	addi	x2,x10,-665	 x10:0x0000026f  x2=0xffffffd6
       23095000	      2308	80002a70	419fd033	sra	x0,x31,x25	 x31:0x80000000 x25:0x00000000
       23105000	      2309	80002a74	01e4e463	bltu	x9,x30,80002a7c	  x9:0x00000001 x30:0x000004df
       23115000	      2310	00000000	00000013	addi	x0,x0,0	  x0:0x00000000
       23125000	      2311	80002a78	00000013	addi	x0,x0,0	  x0:0x00000000
       23135000	      2312	80002a7c	7b917a17	auipc	x20,0x7b917	 x20=0xfb919a78
       23145000	      2313	80002a80	0ebb6663	bltu	x22,x11,80002b6c	 x22:0x00000001 x11:0x00000001
       23155000	      2314	80002a84	dee2e993	ori	x19,x5,-530	  x5:0x00000000 x19=0xfffffdee
       23165000	      2315	80002a88	00a0ecb3	or	x25,x1,x10	  x1:0x00000000 x10:0x0000026f x25=0x0000026f
       23175000	      2316	80002a8c	41690f33	sub	x30,x18,x22	 x18:0x00000000 x22:0x00000001 x30=0xffffffff
       23185000	      2317	80002a90	4141d813	srai	x16,x3,0x14	  x3:0x00000000 x16=0x00000000
       23195000	      2318	80002a94	00006917	auipc	x18,0x6	 x18=0x80008a90
       23205000	      2319	80002a98	2ad90913	addi	x18,x18,685	 x18:0x80008a90 x18=0x80008d3d
       23215000	      2320	80002a9c	00aad713	srli	x14,x21,0xa	 x21:0xff467260 x14=0x003fd19c
       23225000	      2321	80002aa0	06595503	lhu	x10,101(x18)	 x18:0x80008d3d x10=0x0000d5b0 PA:0x80008da2
       23235000	      2322	80002aa4	0ab94a03	lbu	x20,171(x18)	 x18:0x80008d3d x20=0x00000055 PA:0x80008de8
       23245000	      2323	80002aa8	ff894f83	lbu	x31,-8(x18)	 x18:0x80008d3d x31=0x000000ea PA:0x80008d35
       23255000	      2324	80002aac	02694a83	lbu	x21,38(x18)	 x18:0x80008d3d x21=0x00000003 PA:0x80008d63
       23265000	      2325	80002ab0	07994a83	lbu	x21,121(x18)	 x18:0x80008d3d x21=0x0000006d PA:0x80008db6
       23275000	      2326	80002ab4	f5490b23	sb	x20,-170(x18)	 x18:0x80008d3d x20:0x00000055 PA:0x80008c93
       23285000	      2327	80002ab8	33fc1c97	auipc	x25,0x33fc1	 x25=0xb3fc3ab4
       23295000	      2328	80002abc	439a6e93	ori	x29,x20,1081	 x20:0x00000055 x29=0x0000047d
       23305000	      2329	80002ac0	f8490923	sb	x4,-110(x18)	 x18:0x80008d3d  x4:0x7ffffcde PA:0x80008ccf
       23315000	      2330	80002ac4	00d83533	sltu	x10,x16,x13	 x16:0x00000000 x13:0x80000322 x10=0x00000001
       23325000	      2331	80002ac8	4013df33	sra	x30,x7,x1	  x7:0x00000000  x1:0x00000000 x30=0x00000000
       23335000	      2332	80002acc	08d91b83	lh	x23,141(x18)	 x18:0x80008d3d x23=0xffff8500 PA:0x80008dca
       23345000	      2333	80002ad0	41b95c93	srai	x25,x18,0x1b	 x18:0x80008d3d x25=0xfffffff0
       23355000	      2334	80002ad4	00f606b3	add	x13,x12,x15	 x12:0x7ffffcdf x15:0x80009fc4 x13=0x00009ca3
       23365000	      2335	80002ad8	f5791e83	lh	x29,-169(x18)	 x18:0x80008d3d x29=0x0000792a PA:0x80008c94
       23375000	      2336	80002adc	f3f94b83	lbu	x23,-193(x18)	 x18:0x80008d3d x23=0x000000bc PA:0x80008c7c
       23385000	      2337	80002ae0	05e90ca3	sb	x30,89(x18)	 x18:0x80008d3d x30:0x00000000 PA:0x80008d96
       23395000	      2338	80002ae4	faa90103	lb	x2,-86(x18)	 x18:0x80008d3d  x2=0xffffffdd PA:0x80008ce7
       23405000	      2339	80002ae8	f4a94e83	lbu	x29,-182(x18)	 x18:0x80008d3d x29=0x00000092 PA:0x80008c87
       23415000	      2340	80002aec	87607093	andi	x1,x0,-1930	  x0:0x00000000  x1=0x00000000
       23425000	      2341	80002af0	248ec813	xori	x16,x29,584	 x29:0x00000092 x16=0x000002da
       23435000	      2342	80002af4	00000013	addi	x0,x0,0	  x0:0x00000000
       23445000	      2343	80002af8	00974ab3	xor	x21,x14,x9	 x14:0x003fd19c  x9:0x00000001 x21=0x003fd19d
       23455000	      2344	80002afc	00325a93	srli	x21,x4,0x3	  x4:0x7ffffcde x21=0x0fffff9b
       23465000	      2345	80002b00	04b91ea3	sh	x11,93(x18)	 x18:0x80008d3d x11:0x00000001 PA:0x80008d9a
       23475000	      2346	80002b04	fdb90983	lb	x19,-37(x18)	 x18:0x80008d3d x19=0xffffffd4 PA:0x80008d18
       23485000	      2347	80002b08	0a894b03	lbu	x22,168(x18)	 x18:0x80008d3d x22=0x00000084 PA:0x80008de5
       23495000	      2348	80002b0c	0ca90503	lb	x10,202(x18)	 x18:0x80008d3d x10=0xffffff82 PA:0x80008e07
       23505000	      2349	80002b10	4198dfb3	sra	x31,x17,x25	 x17:0x80009f2c x25:0xfffffff0 x31=0xffff8000
       23515000	      2350	80002b14	01ca7f33	and	x30,x20,x28	 x20:0x00000055 x28:0x00000001 x30=0x00000001
       23525000	      2351	80002b18	fd994b83	lbu	x23,-39(x18)	 x18:0x80008d3d x23=0x00000069 PA:0x80008d16
       23535000	      2352	80002b1c	08a94703	lbu	x14,138(x18)	 x18:0x80008d3d x14=0x000000de PA:0x80008dc7
       23545000	      2353	80002b20	41bbde93	srai	x29,x23,0x1b	 x23:0x00000069 x29=0x00000000
       23555000	      2354	80002b24	00b94183	lbu	x3,11(x18)	 x18:0x80008d3d  x3=0x00000025 PA:0x80008d48
       23565000	      2355	80002b28	f7413c93	sltiu	x25,x2,-140	  x2:0xffffffdd x25=0x00000000
       23575000	      2356	80002b2c	f2f95503	lhu	x10,-209(x18)	 x18:0x80008d3d x10=0x0000b803 PA:0x80008c6c
       23585000	      2357	80002b30	04390023	sb	x3,64(x18)	 x18:0x80008d3d  x3:0x00000025 PA:0x80008d7d
       23595000	      2358	80002b34	ff396113	ori	x2,x18,-13	 x18:0x80008d3d  x2=0xffffffff
       23605000	      2359	80002b38	008744b3	xor	x9,x14,x8	 x14:0x000000de  x8:0x00000000  x9=0x000000de
       23615000	      2360	80002b3c	0e995b03	lhu	x22,233(x18)	 x18:0x80008d3d x22=0x0000abd7 PA:0x80008e26
       23625000	      2361	80002b40	00090403	lb	x8,0(x18)	 x18:0x80008d3d  x8=0xffffff8d PA:0x80008d3d
       23635000	      2362	80002b44	04e94b03	lbu	x22,78(x18)	 x18:0x80008d3d x22=0x000000b7 PA:0x80008d8b
       23645000	      2363	80002b48	01d90383	lb	x7,29(x18)	 x18:0x80008d3d  x7=0x00000061 PA:0x80008d5a
       23655000	      2364	80002b4c	05690823	sb	x22,80(x18)	 x18:0x80008d3d x22:0x000000b7 PA:0x80008d8d
       23665000	      2365	80002b50	14a6bd93	sltiu	x27,x13,330	 x13:0x00009ca3 x27=0x00000000
       23675000	      2366	80002b54	012a7ab3	and	x21,x20,x18	 x20:0x00000055 x18:0x80008d3d x21=0x00000015
       23685000	      2367	80002b58	02617063	bgeu	x2,x6,80002b78	  x2:0xffffffff  x6:0x00000000
       23695000	      2368	00000000	00000013	addi	x0,x0,0	  x0:0x00000000
       23705000	      2369	80002b74	00000013	addi	x0,x0,0	  x0:0x00000000
       23715000	      2370	80002b78	00c29193	slli	x3,x5,0xc	  x5:0x00000000  x3=0x00000000
       23725000	      2371	80002b7c	03574063	blt	x14,x21,80002b9c	 x14:0x000000de x21:0x00000015
       23735000	      2372	80002b80	00000013	addi	x0,x0,0	  x0:0x00000000
       23745000	      2373	80002b84	417fd213	srai	x4,x31,0x17	 x31:0xffff8000  x4=0xffffffff
       23755000	      2374	80002b88	00531713	slli	x14,x6,0x5	  x6:0x00000000 x14=0x00000000
       23765000	      2375	80002b8c	8ed85f17	auipc	x30,0x8ed85	 x30=0x0ed87b88
       23775000	      2376	80002b90	0188adb3	slt	x27,x17,x24	 x17:0x80009f2c x24:0x00000004 x27=0x00000001
       23785000	      2377	80002b94	0215d463	bge	x11,x1,80002bbc	 x11:0x00000001  x1:0x00000000
       23795000	      2378	00000000	00000013	addi	x0,x0,0	  x0:0x00000000
       23805000	      2379	80002bb8	00000013	addi	x0,x0,0	  x0:0x00000000
       23815000	      2380	80002bbc	025b7063	bgeu	x22,x5,80002bdc	 x22:0x000000b7  x5:0x00000000
       23825000	      2381	00000000	00000013	addi	x0,x0,0	  x0:0x00000000
       23835000	      2382	80002bd8	00000013	addi	x0,x0,0	  x0:0x00000000
       23845000	      2383	80002bdc	006b5f33	srl	x30,x22,x6	 x22:0x000000b7  x6:0x00000000 x30=0x000000b7
       23855000	      2384	80002be0	41675913	srai	x18,x14,0x16	 x14:0x00000000 x18=0x00000000
       23865000	      2385	80002be4	02bf4863	blt	x30,x11,80002c14	 x30:0x000000b7 x11:0x00000001
       23875000	      2386	80002be8	d4c5f413	andi	x8,x11,-692	 x11:0x00000001  x8=0x00000000
       23885000	      2387	80002bec	006e8db3	add	x27,x29,x6	 x29:0x00000000  x6:0x00000000 x27=0x00000000
       23895000	      2388	80002bf0	00000013	addi	x0,x0,0	  x0:0x00000000
       23905000	      2389	80002bf4	01c106b3	add	x13,x2,x28	  x2:0xffffffff x28:0x00000001 x13=0x00000000
       23915000	      2390	80002bf8	003bee33	or	x28,x23,x3	 x23:0x00000069  x3:0x00000000 x28=0x00000069
       23925000	      2391	80002bfc	590d4313	xori	x6,x26,1424	 x26:0x00000004  x6=0x00000594
       23935000	      2392	80002c00	017fb2b3	sltu	x5,x31,x23	 x31:0xffff8000 x23:0x00000069  x5=0x00000000
       23945000	      2393	80002c04	05527463	bgeu	x4,x21,80002c4c	  x4:0xffffffff x21:0x00000015
       23955000	      2394	00000000	00000013	addi	x0,x0,0	  x0:0x00000000
       23965000	      2395	80002c48	00000013	addi	x0,x0,0	  x0:0x00000000
       23975000	      2396	80002c4c	3e2bc393	xori	x7,x23,994	 x23:0x00000069  x7=0x0000038b
       23985000	      2397	80002c50	0e19b713	sltiu	x14,x19,225	 x19:0xffffffd4 x14=0x00000000
       23995000	      2398	80002c54	01c37fb3	and	x31,x6,x28	  x6:0x00000594 x28:0x00000069 x31=0x00000000
       24005000	      2399	80002c58	017ad493	srli	x9,x21,0x17	 x21:0x00000015  x9=0x00000000
       24015000	      2400	80002c5c	03dd0e63	beq	x26,x29,80002c98	 x26:0x00000004 x29:0x00000000
       24025000	      2401	80002c60	014b1313	slli	x6,x22,0x14	 x22:0x000000b7  x6=0x0b700000
       24035000	      2402	80002c64	869412b7	lui	x5,0x86941	  x5=0x86941000
       24045000	      2403	80002c68	04777863	bgeu	x14,x7,80002cb8	 x14:0x00000000  x7:0x0000038b
       24055000	      2404	80002c6c	002c5333	srl	x6,x24,x2	 x24:0x00000004  x2:0xffffffff  x6=0x00000000
       24065000	      2405	80002c70	013bb933	sltu	x18,x23,x19	 x23:0x00000069 x19:0xffffffd4 x18=0x00000001
       24075000	      2406	80002c74	4a1de193	ori	x3,x27,1185	 x27:0x00000000  x3=0x000004a1
       24085000	      2407	80002c78	cf3b1517	auipc	x10,0xcf3b1	 x10=0x4f3b3c74
       24095000	      2408	80002c7c	cbe34f97	auipc	x31,0xcbe34	 x31=0x4be36c78
       24105000	      2409	80002c80	41545f93	srai	x31,x8,0x15	  x8:0x00000000 x31=0x00000000
       24115000	      2410	80002c84	00ed83b3	add	x7,x27,x14	 x27:0x00000000 x14:0x00000000  x7=0x00000000
       24125000	      2411	80002c88	ce513313	sltiu	x6,x2,-795	  x2:0xffffffff  x6=0x00000000
       24135000	      2412	80002c8c	00ddbe33	sltu	x28,x27,x13	 x27:0x00000000 x13:0x00000000 x28=0x00000000
       24145000	      2413	80002c90	011e46b3	xor	x13,x28,x17	 x28:0x00000000 x17:0x80009f2c x13=0x80009f2c
       24155000	      2414	80002c94	02a2c863	blt	x5,x10,80002cc4	  x5:0x86941000 x10:0x4f3b3c74
       24165000	      2415	00000000	00000013	addi	x0,x0,0	  x0:0x00000000
       24175000	      2416	80002cc0	00000013	addi	x0,x0,0	  x0:0x00000000
       24185000	      2417	80002cc4	009cb633	sltu	x12,x25,x9	 x25:0x00000000  x9:0x00000000 x12=0x00000000
       24195000	      2418	80002cc8	726f8f93	addi	x31,x31,1830	 x31:0x00000000 x31=0x00000726
       24205000	      2419	80002ccc	a00a3693	sltiu	x13,x20,-1536	 x20:0x00000055 x13=0x00000001
       24215000	      2420	80002cd0	412209b3	sub	x19,x4,x18	  x4:0xffffffff x18:0x00000001 x19=0xfffffffe
       24225000	      2421	80002cd4	d0008813	addi	x16,x1,-768	  x1:0x00000000 x16=0xfffffd00
       24235000	      2422	80002cd8	00000013	addi	x0,x0,0	  x0:0x00000000
       24245000	      2423	80002cdc	71148a97	auipc	x21,0x71148	 x21=0xf114acd8
       24255000	      2424	80002ce0	0344c263	blt	x9,x20,80002d04	  x9:0x00000000 x20:0x00000055
       24265000	      2425	00000000	00000013	addi	x0,x0,0	  x0:0x00000000
       24275000	      2426	80002d00	00000013	addi	x0,x0,0	  x0:0x00000000
       24285000	      2427	80002d04	a7f4a737	lui	x14,0xa7f4a	 x14=0xa7f4a000
       24295000	      2428	80002d08	01a49b33	sll	x22,x9,x26	  x9:0x00000000 x26:0x00000004 x22=0x00000000
       24305000	      2429	80002d0c	5331a413	slti	x8,x3,1331	  x3:0x000004a1  x8=0x00000001
       24315000	      2430	80002d10	01449463	bne	x9,x20,80002d18	  x9:0x00000000 x20:0x00000055
       24325000	      2431	00000000	00000013	addi	x0,x0,0	  x0:0x00000000
       24335000	      2432	80002d14	00000013	addi	x0,x0,0	  x0:0x00000000
       24345000	      2433	80002d18	014d9b13	slli	x22,x27,0x14	 x27:0x00000000 x22=0x00000000
       24355000	      2434	80002d1c	4b0bc593	xori	x11,x23,1200	 x23:0x00000069 x11=0x000004d9
       24365000	      2435	80002d20	017d1313	slli	x6,x26,0x17	 x26:0x00000004  x6=0x02000000
       24375000	      2436	80002d24	00011bb3	sll	x23,x2,x0	  x2:0xffffffff  x0:0x00000000 x23=0xffffffff
       24385000	      2437	80002d28	016c7863	bgeu	x24,x22,80002d38	 x24:0x00000004 x22:0x00000000
       24395000	      2438	00000000	00000013	addi	x0,x0,0	  x0:0x00000000
       24405000	      2439	80002d34	00000013	addi	x0,x0,0	  x0:0x00000000
       24415000	      2440	80002d38	45ba7613	andi	x12,x20,1115	 x20:0x00000055 x12=0x00000051
       24425000	      2441	80002d3c	03a54c63	blt	x10,x26,80002d74	 x10:0x4f3b3c74 x26:0x00000004
       24435000	      2442	80002d40	021f8463	beq	x31,x1,80002d68	 x31:0x00000726  x1:0x00000000
       24445000	      2443	80002d44	00105c93	srli	x25,x0,0x1	  x0:0x00000000 x25=0x00000000
       24455000	      2444	80002d48	40e3d693	srai	x13,x7,0xe	  x7:0x00000000 x13=0x00000000
       24465000	      2445	80002d4c	41788db3	sub	x27,x17,x23	 x17:0x80009f2c x23:0xffffffff x27=0x80009f2d
       24475000	      2446	80002d50	7ef78093	addi	x1,x15,2031	 x15:0x80009fc4  x1=0x8000a7b3
       24485000	      2447	80002d54	018c81b3	add	x3,x25,x24	 x25:0x00000000 x24:0x00000004  x3=0x00000004
       24495000	      2448	80002d58	005aa3b3	slt	x7,x21,x5	 x21:0xf114acd8  x5:0x86941000  x7=0x00000000
       24505000	      2449	80002d5c	41abd0b3	sra	x1,x23,x26	 x23:0xffffffff x26:0x00000004  x1=0xffffffff
       24515000	      2450	80002d60	197e8e97	auipc	x29,0x197e8	 x29=0x997ead5c
       24525000	      2451	80002d64	01eb1033	sll	x0,x22,x30	 x22:0x00000000 x30:0x000000b7
       24535000	      2452	80002d68	007cd293	srli	x5,x25,0x7	 x25:0x00000000  x5=0x00000000
       24545000	      2453	80002d6c	a8207a93	andi	x21,x0,-1406	  x0:0x00000000 x21=0x00000000
       24555000	      2454	80002d70	00000013	addi	x0,x0,0	  x0:0x00000000
       24565000	      2455	80002d74	015f9e13	slli	x28,x31,0x15	 x31:0x00000726 x28=0xe4c00000
       24575000	      2456	80002d78	03770663	beq	x14,x23,80002da4	 x14:0xa7f4a000 x23:0xffffffff
       24585000	      2457	80002d7c	5fa96713	ori	x14,x18,1530	 x18:0x00000001 x14=0x000005fb
       24595000	      2458	80002d80	019dba33	sltu	x20,x27,x25	 x27:0x80009f2d x25:0x00000000 x20=0x00000000
       24605000	      2459	80002d84	0014c463	blt	x9,x1,80002d8c	  x9:0x00000000  x1:0xffffffff
       24615000	      2460	80002d88	012966b3	or	x13,x18,x18	 x18:0x00000001 x18:0x00000001 x13=0x00000001
       24625000	      2461	80002d8c	0054fa63	bgeu	x9,x5,80002da0	  x9:0x00000000  x5:0x00000000
       24635000	      2462	00000000	00000013	addi	x0,x0,0	  x0:0x00000000
       24645000	      2463	80002d9c	00000013	addi	x0,x0,0	  x0:0x00000000
       24655000	      2464	80002da0	006b0ab3	add	x21,x22,x6	 x22:0x00000000  x6:0x02000000 x21=0x02000000
       24665000	      2465	80002da4	001a5b13	srli	x22,x20,0x1	 x20:0x00000000 x22=0x00000000
       24675000	      2466	80002da8	402553b3	sra	x7,x10,x2	 x10:0x4f3b3c74  x2:0xffffffff  x7=0x00000000
       24685000	      2467	80002dac	d75ce0b7	lui	x1,0xd75ce	  x1=0xd75ce000
       24695000	      2468	80002db0	dd190193	addi	x3,x18,-559	 x18:0x00000001  x3=0xfffffdd2
       24705000	      2469	80002db4	3e310813	addi	x16,x2,995	  x2:0xffffffff x16=0x000003e2
       24715000	      2470	80002db8	02116063	bltu	x2,x1,80002dd8	  x2:0xffffffff  x1:0xd75ce000
       24725000	      2471	80002dbc	00179113	slli	x2,x15,0x1	 x15:0x80009fc4  x2=0x00013f88
       24735000	      2472	80002dc0	00e68033	add	x0,x13,x14	 x13:0x00000001 x14:0x000005fb
       24745000	      2473	80002dc4	400e0833	sub	x16,x28,x0	 x28:0xe4c00000  x0:0x00000000 x16=0xe4c00000
       24755000	      2474	80002dc8	7637e493	ori	x9,x15,1891	 x15:0x80009fc4  x9=0x80009fe7
       24765000	      2475	80002dcc	00a61f93	slli	x31,x12,0xa	 x12:0x00000051 x31=0x00014400
       24775000	      2476	80002dd0	001db833	sltu	x16,x27,x1	 x27:0x80009f2d  x1:0xd75ce000 x16=0x00000001
       24785000	      2477	80002dd4	8c838597	auipc	x11,0x8c838	 x11=0x0c83add0
       24795000	      2478	80002dd8	02b98e63	beq	x19,x11,80002e14	 x19:0xfffffffe x11:0x0c83add0
       24805000	      2479	80002ddc	00c58033	add	x0,x11,x12	 x11:0x0c83add0 x12:0x00000051
       24815000	      2480	80002de0	025b7663	bgeu	x22,x5,80002e0c	 x22:0x00000000  x5:0x00000000
       24825000	      2481	00000000	00000013	addi	x0,x0,0	  x0:0x00000000
       24835000	      2482	80002e08	00000013	addi	x0,x0,0	  x0:0x00000000
       24845000	      2483	80002e0c	013452b3	srl	x5,x8,x19	  x8:0x00000001 x19:0xfffffffe  x5=0x00000000
       24855000	      2484	80002e10	01f32c33	slt	x24,x6,x31	  x6:0x02000000 x31:0x00014400 x24=0x00000000
       24865000	      2485	80002e14	03a1c063	blt	x3,x26,80002e34	  x3:0xfffffdd2 x26:0x00000004
       24875000	      2486	00000000	00000013	addi	x0,x0,0	  x0:0x00000000
       24885000	      2487	80002e30	00000013	addi	x0,x0,0	  x0:0x00000000
       24895000	      2488	80002e34	01913433	sltu	x8,x2,x25	  x2:0x00013f88 x25:0x00000000  x8=0x00000000
       24905000	      2489	80002e38	01471033	sll	x0,x14,x20	 x14:0x000005fb x20:0x00000000
       24915000	      2490	80002e3c	0ac9e263	bltu	x19,x12,80002ee0	 x19:0xfffffffe x12:0x00000051
       24925000	      2491	80002e40	0b54c863	blt	x9,x21,80002ef0	  x9:0x80009fe7 x21:0x02000000
       24935000	      2492	00000000	00000013	addi	x0,x0,0	  x0:0x00000000
       24945000	      2493	80002eec	00000013	addi	x0,x0,0	  x0:0x00000000
       24955000	      2494	80002ef0	02551063	bne	x10,x5,80002f10	 x10:0x4f3b3c74  x5:0x00000000
       24965000	      2495	00000000	00000013	addi	x0,x0,0	  x0:0x00000000
       24975000	      2496	80002f0c	00000013	addi	x0,x0,0	  x0:0x00000000
       24985000	      2497	80002f10	b1a57c13	andi	x24,x10,-1254	 x10:0x4f3b3c74 x24=0x4f3b3810
       24995000	      2498	80002f14	407d5d93	srai	x27,x26,0x7	 x26:0x00000004 x27=0x00000000
       25005000	      2499	80002f18	05b38863	beq	x7,x27,80002f68	  x7:0x00000000 x27:0x00000000
       25015000	      2500	00000000	00000013	addi	x0,x0,0	  x0:0x00000000
       25025000	      2501	80002f64	00000013	addi	x0,x0,0	  x0:0x00000000
       25035000	      2502	80002f68	14e3f913	andi	x18,x7,334	  x7:0x00000000 x18=0x00000000
       25045000	      2503	80002f6c	00a1a633	slt	x12,x3,x10	  x3:0xfffffdd2 x10:0x4f3b3c74 x12=0x00000001
       25055000	      2504	80002f70	01b21f33	sll	x30,x4,x27	  x4:0xffffffff x27:0x00000000 x30=0xffffffff
       25065000	      2505	80002f74	00000013	addi	x0,x0,0	  x0:0x00000000
       25075000	      2506	80002f78	03bee063	bltu	x29,x27,80002f98	 x29:0x997ead5c x27:0x00000000
       25085000	      2507	80002f7c	a323ee13	ori	x28,x7,-1486	  x7:0x00000000 x28=0xfffffa32
       25095000	      2508	80002f80	0027c3b3	xor	x7,x15,x2	 x15:0x80009fc4  x2:0x00013f88  x7=0x8001a04c
       25105000	      2509	80002f84	af3f8093	addi	x1,x31,-1293	 x31:0x00014400  x1=0x00013ef3
       25115000	      2510	80002f88	00aad663	bge	x21,x10,80002f94	 x21:0x02000000 x10:0x4f3b3c74
       25125000	      2511	80002f8c	3262a113	slti	x2,x5,806	  x5:0x00000000  x2=0x00000001
       25135000	      2512	80002f90	40dbda93	srai	x21,x23,0xd	 x23:0xffffffff x21=0xffffffff
       25145000	      2513	80002f94	40b05233	sra	x4,x0,x11	  x0:0x00000000 x11:0x0c83add0  x4=0x00000000
       25155000	      2514	80002f98	40ca5b13	srai	x22,x20,0xc	 x20:0x00000000 x22=0x00000000
       25165000	      2515	80002f9c	40118533	sub	x10,x3,x1	  x3:0xfffffdd2  x1:0x00013ef3 x10=0xfffebedf
       25175000	      2516	80002fa0	4020d633	sra	x12,x1,x2	  x1:0x00013ef3  x2:0x00000001 x12=0x00009f79
       25185000	      2517	80002fa4	40985db3	sra	x27,x16,x9	 x16:0x00000001  x9:0x80009fe7 x27=0x00000000
       25195000	      2518	80002fa8	03b65c63	bge	x12,x27,80002fe0	 x12:0x00009f79 x27:0x00000000
       25205000	      2519	00000000	00000013	addi	x0,x0,0	  x0:0x00000000
       25215000	      2520	80002fdc	00000013	addi	x0,x0,0	  x0:0x00000000
       25225000	      2521	80002fe0	d2287813	andi	x16,x16,-734	 x16:0x00000001 x16=0x00000000
       25235000	      2522	80002fe4	41135833	sra	x16,x6,x17	  x6:0x02000000 x17:0x80009f2c x16=0x00002000
       25245000	      2523	80002fe8	00ae93b3	sll	x7,x29,x10	 x29:0x997ead5c x10:0xfffebedf  x7=0x00000000
       25255000	      2524	80002fec	411dd913	srai	x18,x27,0x11	 x27:0x00000000 x18=0x00000000
       25265000	      2525	80002ff0	00000013	addi	x0,x0,0	  x0:0x00000000
       25275000	      2526	80002ff4	01ba76b3	and	x13,x20,x27	 x20:0x00000000 x27:0x00000000 x13=0x00000000
       25285000	      2527	80002ff8	0005dbb3	srl	x23,x11,x0	 x11:0x0c83add0  x0:0x00000000 x23=0x0c83add0
       25295000	      2528	80002ffc	c3f2fb13	andi	x22,x5,-961	  x5:0x00000000 x22=0x00000000
       25305000	      2529	80003000	67ece593	ori	x11,x25,1662	 x25:0x00000000 x11=0x0000067e
       25315000	      2530	80003004	00ff9db3	sll	x27,x31,x15	 x31:0x00014400 x15:0x80009fc4 x27=0x00144000
       25325000	      2531	80003008	01f422b3	slt	x5,x8,x31	  x8:0x00000000 x31:0x00014400  x5=0x00000001
       25335000	      2532	8000300c	eba12513	slti	x10,x2,-326	  x2:0x00000001 x10=0x00000000
       25345000	      2533	80003010	02cb8e63	beq	x23,x12,8000304c	 x23:0x0c83add0 x12:0x00009f79
       25355000	      2534	80003014	02a6ec63	bltu	x13,x10,8000304c	 x13:0x00000000 x10:0x00000000
       25365000	      2535	80003018	01048bb3	add	x23,x9,x16	  x9:0x80009fe7 x16:0x00002000 x23=0x8000bfe7
       25375000	      2536	8000301c	41f4d693	srai	x13,x9,0x1f	  x9:0x80009fe7 x13=0xffffffff
       25385000	      2537	80003020	34acea13	ori	x20,x25,842	 x25:0x00000000 x20=0x0000034a
       25395000	      2538	80003024	c996bb13	sltiu	x22,x13,-871	 x13:0xffffffff x22=0x00000000
       25405000	      2539	80003028	013be2b3	or	x5,x23,x19	 x23:0x8000bfe7 x19:0xfffffffe  x5=0xffffffff
       25415000	      2540	8000302c	409a5733	sra	x14,x20,x9	 x20:0x0000034a  x9:0x80009fe7 x14=0x00000006
       25425000	      2541	80003030	002fd933	srl	x18,x31,x2	 x31:0x00014400  x2:0x00000001 x18=0x0000a200
       25435000	      2542	80003034	00186a63	bltu	x16,x1,80003048	 x16:0x00002000  x1:0x00013ef3
       25445000	      2543	00000000	00000013	addi	x0,x0,0	  x0:0x00000000
       25455000	      2544	80003044	00000013	addi	x0,x0,0	  x0:0x00000000
       25465000	      2545	80003048	03c25063	bge	x4,x28,80003068	  x4:0x00000000 x28:0xfffffa32
       25475000	      2546	00000000	00000013	addi	x0,x0,0	  x0:0x00000000
       25485000	      2547	80003064	00000013	addi	x0,x0,0	  x0:0x00000000
       25495000	      2548	80003068	00bd4c33	xor	x24,x26,x11	 x26:0x00000004 x11:0x0000067e x24=0x0000067a
       25505000	      2549	8000306c	0328d663	bge	x17,x18,80003098	 x17:0x80009f2c x18:0x0000a200
       25515000	      2550	80003070	aa20ea37	lui	x20,0xaa20e	 x20=0xaa20e000
       25525000	      2551	80003074	01171e93	slli	x29,x14,0x11	 x14:0x00000006 x29=0x000c0000
       25535000	      2552	80003078	41fed533	sra	x10,x29,x31	 x29:0x000c0000 x31:0x00014400 x10=0x000c0000
       25545000	      2553	8000307c	42d88813	addi	x16,x17,1069	 x17:0x80009f2c x16=0x8000a359
       25555000	      2554	80003080	815a6017	auipc	x0,0x815a6	
       25565000	      2555	80003084	01e39733	sll	x14,x7,x30	  x7:0x00000000 x30:0xffffffff x14=0x00000000
       25575000	      2556	80003088	02ca7863	bgeu	x20,x12,800030b8	 x20:0xaa20e000 x12:0x00009f79
       25585000	      2557	00000000	00000013	addi	x0,x0,0	  x0:0x00000000
       25595000	      2558	800030b4	00000013	addi	x0,x0,0	  x0:0x00000000
       25605000	      2559	800030b8	02267063	bgeu	x12,x2,800030d8	 x12:0x00009f79  x2:0x00000001
       25615000	      2560	00000000	00000013	addi	x0,x0,0	  x0:0x00000000
       25625000	      2561	800030d4	00000013	addi	x0,x0,0	  x0:0x00000000
       25635000	      2562	800030d8	00388333	add	x6,x17,x3	 x17:0x80009f2c  x3:0xfffffdd2  x6=0x80009cfe
       25645000	      2563	800030dc	02054063	blt	x10,x0,800030fc	 x10:0x000c0000  x0:0x00000000
       25655000	      2564	800030e0	01dc10b3	sll	x1,x24,x29	 x24:0x0000067a x29:0x000c0000  x1=0x0000067a
       25665000	      2565	800030e4	019b8463	beq	x23,x25,800030ec	 x23:0x8000bfe7 x25:0x00000000
       25675000	      2566	800030e8	01784ab3	xor	x21,x16,x23	 x16:0x8000a359 x23:0x8000bfe7 x21=0x00001cbe
       25685000	      2567	800030ec	3f168593	addi	x11,x13,1009	 x13:0xffffffff x11=0x000003f0
       25695000	      2568	800030f0	01872cb3	slt	x25,x14,x24	 x14:0x00000000 x24:0x0000067a x25=0x00000001
       25705000	      2569	800030f4	02310063	beq	x2,x3,80003114	  x2:0x00000001  x3:0xfffffdd2
       25715000	      2570	800030f8	020d6663	bltu	x26,x0,80003124	 x26:0x00000004  x0:0x00000000
       25725000	      2571	800030fc	000b6463	bltu	x22,x0,80003104	 x22:0x00000000  x0:0x00000000
       25735000	      2572	80003100	0bebbb37	lui	x22,0xbebb	 x22=0x0bebb000
       25745000	      2573	80003104	00163933	sltu	x18,x12,x1	 x12:0x00009f79  x1:0x0000067a x18=0x00000000
       25755000	      2574	80003108	cf840613	addi	x12,x8,-776	  x8:0x00000000 x12=0xfffffcf8
       25765000	      2575	8000310c	018b72b3	and	x5,x22,x24	 x22:0x0bebb000 x24:0x0000067a  x5=0x00000000
       25775000	      2576	80003110	03099063	bne	x19,x16,80003130	 x19:0xfffffffe x16:0x8000a359
       25785000	      2577	00000000	00000013	addi	x0,x0,0	  x0:0x00000000
       25795000	      2578	8000312c	00000013	addi	x0,x0,0	  x0:0x00000000
       25805000	      2579	80003130	c9fb3593	sltiu	x11,x22,-865	 x22:0x0bebb000 x11=0x00000001
       25815000	      2580	80003134	a1006593	ori	x11,x0,-1520	  x0:0x00000000 x11=0xfffffa10
       25825000	      2581	80003138	087cc013	xori	x0,x25,135	 x25:0x00000001
       25835000	      2582	8000313c	0127eab3	or	x21,x15,x18	 x15:0x80009fc4 x18:0x00000000 x21=0x80009fc4
       25845000	      2583	80003140	0305c463	blt	x11,x16,80003168	 x11:0xfffffa10 x16:0x8000a359
       25855000	      2584	80003144	5af13413	sltiu	x8,x2,1455	  x2:0x00000001  x8=0x00000001
       25865000	      2585	80003148	01b31613	slli	x12,x6,0x1b	  x6:0x80009cfe x12=0xf0000000
       25875000	      2586	8000314c	00b42233	slt	x4,x8,x11	  x8:0x00000001 x11:0xfffffa10  x4=0x00000000
       25885000	      2587	80003150	058d0863	beq	x26,x24,800031a0	 x26:0x00000004 x24:0x0000067a
       25895000	      2588	80003154	41dbd193	srai	x3,x23,0x1d	 x23:0x8000bfe7  x3=0xfffffffc
       25905000	      2589	80003158	000f5b33	srl	x22,x30,x0	 x30:0xffffffff  x0:0x00000000 x22=0xffffffff
       25915000	      2590	8000315c	04675463	bge	x14,x6,800031a4	 x14:0x00000000  x6:0x80009cfe
       25925000	      2591	00000000	00000013	addi	x0,x0,0	  x0:0x00000000
       25935000	      2592	800031a0	00000013	addi	x0,x0,0	  x0:0x00000000
       25945000	      2593	800031a4	01f33933	sltu	x18,x6,x31	  x6:0x80009cfe x31:0x00014400 x18=0x00000000
       25955000	      2594	800031a8	41acd693	srai	x13,x25,0x1a	 x25:0x00000001 x13=0x00000000
       25965000	      2595	800031ac	01884733	xor	x14,x16,x24	 x16:0x8000a359 x24:0x0000067a x14=0x8000a523
       25975000	      2596	800031b0	efddea13	ori	x20,x27,-259	 x27:0x00144000 x20=0xfffffefd
       25985000	      2597	800031b4	41b45f13	srai	x30,x8,0x1b	  x8:0x00000001 x30=0x00000000
       25995000	      2598	800031b8	039f4e63	blt	x30,x25,800031f4	 x30:0x00000000 x25:0x00000001
       26005000	      2599	00000000	00000013	addi	x0,x0,0	  x0:0x00000000
       26015000	      2600	800031f0	00000013	addi	x0,x0,0	  x0:0x00000000
       26025000	      2601	800031f4	01d50f33	add	x30,x10,x29	 x10:0x000c0000 x29:0x000c0000 x30=0x00180000
       26035000	      2602	800031f8	00eadf33	srl	x30,x21,x14	 x21:0x80009fc4 x14:0x8000a523 x30=0x100013f8
       26045000	      2603	800031fc	0071cdb3	xor	x27,x3,x7	  x3:0xfffffffc  x7:0x00000000 x27=0xfffffffc
       26055000	      2604	80003200	fee46593	ori	x11,x8,-18	  x8:0x00000001 x11=0xffffffef
       26065000	      2605	80003204	43e61cb7	lui	x25,0x43e61	 x25=0x43e61000
       26075000	      2606	80003208	f2312f93	slti	x31,x2,-221	  x2:0x00000001 x31=0x00000000
       26085000	      2607	8000320c	54c54013	xori	x0,x10,1356	 x10:0x000c0000
       26095000	      2608	80003210	011f1d93	slli	x27,x30,0x11	 x30:0x100013f8 x27=0x27f00000
       26105000	      2609	80003214	00000013	addi	x0,x0,0	  x0:0x00000000
       26115000	      2610	80003218	00328db3	add	x27,x5,x3	  x5:0x00000000  x3:0xfffffffc x27=0xfffffffc
       26125000	      2611	8000321c	01291a13	slli	x20,x18,0x12	 x18:0x00000000 x20=0x00000000
       26135000	      2612	80003220	02136663	bltu	x6,x1,8000324c	  x6:0x80009cfe  x1:0x0000067a
       26145000	      2613	80003224	677b6593	ori	x11,x22,1655	 x22:0xffffffff x11=0xffffffff
       26155000	      2614	80003228	38f3afb7	lui	x31,0x38f3a	 x31=0x38f3a000
       26165000	      2615	8000322c	00dc4fb3	xor	x31,x24,x13	 x24:0x0000067a x13:0x00000000 x31=0x0000067a
       26175000	      2616	80003230	0302cc63	blt	x5,x16,80003268	  x5:0x00000000 x16:0x8000a359
       26185000	      2617	80003234	00f41463	bne	x8,x15,8000323c	  x8:0x00000001 x15:0x80009fc4
       26195000	      2618	00000000	00000013	addi	x0,x0,0	  x0:0x00000000
       26205000	      2619	80003238	00000013	addi	x0,x0,0	  x0:0x00000000
       26215000	      2620	8000323c	9bc82293	slti	x5,x16,-1604	 x16:0x8000a359  x5=0x00000001
       26225000	      2621	80003240	02b0fe63	bgeu	x1,x11,8000327c	  x1:0x0000067a x11:0xffffffff
       26235000	      2622	80003244	4564c713	xori	x14,x9,1110	  x9:0x80009fe7 x14=0x80009bb1
       26245000	      2623	80003248	00a17a63	bgeu	x2,x10,8000325c	  x2:0x00000001 x10:0x000c0000
       26255000	      2624	8000324c	5047f937	lui	x18,0x5047f	 x18=0x5047f000
       26265000	      2625	80003250	01766f33	or	x30,x12,x23	 x12:0xf0000000 x23:0x8000bfe7 x30=0xf000bfe7
       26275000	      2626	80003254	4997f993	andi	x19,x15,1177	 x15:0x80009fc4 x19=0x00000480
       26285000	      2627	80003258	dc9b6613	ori	x12,x22,-567	 x22:0xffffffff x12=0xffffffff
       26295000	      2628	8000325c	a5ab93b7	lui	x7,0xa5ab9	  x7=0xa5ab9000
       26305000	      2629	80003260	00a99333	sll	x6,x19,x10	 x19:0x00000480 x10:0x000c0000  x6=0x00000480
       26315000	      2630	80003264	01663333	sltu	x6,x12,x22	 x12:0xffffffff x22:0xffffffff  x6=0x00000000
       26325000	      2631	80003268	036f6c63	bltu	x30,x22,800032a0	 x30:0xf000bfe7 x22:0xffffffff
       26335000	      2632	00000000	00000013	addi	x0,x0,0	  x0:0x00000000
       26345000	      2633	8000329c	00000013	addi	x0,x0,0	  x0:0x00000000
       26355000	      2634	800032a0	00b536b3	sltu	x13,x10,x11	 x10:0x000c0000 x11:0xffffffff x13=0x00000001
       26365000	      2635	800032a4	058dc263	blt	x27,x24,800032e8	 x27:0xfffffffc x24:0x0000067a
       26375000	      2636	00000000	00000013	addi	x0,x0,0	  x0:0x00000000
       26385000	      2637	800032e4	00000013	addi	x0,x0,0	  x0:0x00000000
       26395000	      2638	800032e8	033c8463	beq	x25,x19,80003310	 x25:0x43e61000 x19:0x00000480
       26405000	      2639	800032ec	360d1b17	auipc	x22,0x360d1	 x22=0xb60d42e8
       26415000	      2640	800032f0	001479b3	and	x19,x8,x1	  x8:0x00000001  x1:0x0000067a x19=0x00000000
       26425000	      2641	800032f4	fdb9c213	xori	x4,x19,-37	 x19:0x00000000  x4=0xffffffdb
       26435000	      2642	800032f8	01a7ef33	or	x30,x15,x26	 x15:0x80009fc4 x26:0x00000004 x30=0x80009fc4
       26445000	      2643	800032fc	005705b3	add	x11,x14,x5	 x14:0x80009bb1  x5:0x00000001 x11=0x80009bb2
       26455000	      2644	80003300	02989e63	bne	x17,x9,8000333c	 x17:0x80009f2c  x9:0x80009fe7
       26465000	      2645	00000000	00000013	addi	x0,x0,0	  x0:0x00000000
       26475000	      2646	80003338	00000013	addi	x0,x0,0	  x0:0x00000000
       26485000	      2647	8000333c	03027e63	bgeu	x4,x16,80003378	  x4:0xffffffdb x16:0x8000a359
       26495000	      2648	00000000	00000013	addi	x0,x0,0	  x0:0x00000000
       26505000	      2649	80003374	00000013	addi	x0,x0,0	  x0:0x00000000
       26515000	      2650	80003378	404c5d93	srai	x27,x24,0x4	 x24:0x0000067a x27=0x00000067
       26525000	      2651	8000337c	016ee263	bltu	x29,x22,80003380	 x29:0x000c0000 x22:0xb60d42e8
       26535000	      2652	00000000	00000013	addi	x0,x0,0	  x0:0x00000000
       26545000	      2653	8000337c	00000013	addi	x0,x0,0	  x0:0x00000000
       26555000	      2654	80003380	004215b3	sll	x11,x4,x4	  x4:0xffffffdb  x4:0xffffffdb x11=0xd8000000
       26565000	      2655	80003384	e60b0493	addi	x9,x22,-416	 x22:0xb60d42e8  x9=0xb60d4148
       26575000	      2656	80003388	00000013	addi	x0,x0,0	  x0:0x00000000
       26585000	      2657	8000338c	40980733	sub	x14,x16,x9	 x16:0x8000a359  x9:0xb60d4148 x14=0xc9f36211
       26595000	      2658	80003390	03459063	bne	x11,x20,800033b0	 x11:0xd8000000 x20:0x00000000
       26605000	      2659	00000000	00000013	addi	x0,x0,0	  x0:0x00000000
       26615000	      2660	800033ac	00000013	addi	x0,x0,0	  x0:0x00000000
       26625000	      2661	800033b0	0048c333	xor	x6,x17,x4	 x17:0x80009f2c  x4:0xffffffdb  x6=0x7fff60f7
       26635000	      2662	800033b4	a52df193	andi	x3,x27,-1454	 x27:0x00000067  x3=0x00000042
       26645000	      2663	800033b8	01428bb3	add	x23,x5,x20	  x5:0x00000001 x20:0x00000000 x23=0x00000001
       26655000	      2664	800033bc	00d59b33	sll	x22,x11,x13	 x11:0xd8000000 x13:0x00000001 x22=0xb0000000
       26665000	      2665	800033c0	038f9463	bne	x31,x24,800033e8	 x31:0x0000067a x24:0x0000067a
       26675000	      2666	800033c4	56d9fa93	andi	x21,x19,1389	 x19:0x00000000 x21=0x00000000
       26685000	      2667	800033c8	01b2f863	bgeu	x5,x27,800033d8	  x5:0x00000001 x27:0x00000067
       26695000	      2668	800033cc	039e6463	bltu	x28,x25,800033f4	 x28:0xfffffa32 x25:0x43e61000
       26705000	      2669	800033d0	009d49b3	xor	x19,x26,x9	 x26:0x00000004  x9:0xb60d4148 x19=0xb60d414c
       26715000	      2670	800033d4	00220b33	add	x22,x4,x2	  x4:0xffffffdb  x2:0x00000001 x22=0xffffffdc
       26725000	      2671	800033d8	6cf2f593	andi	x11,x5,1743	  x5:0x00000001 x11=0x00000001
       26735000	      2672	800033dc	011dd433	srl	x8,x27,x17	 x27:0x00000067 x17:0x80009f2c  x8=0x00000000
       26745000	      2673	800033e0	01b98a33	add	x20,x19,x27	 x19:0xb60d414c x27:0x00000067 x20=0xb60d41b3
       26755000	      2674	800033e4	90046493	ori	x9,x8,-1792	  x8:0x00000000  x9=0xfffff900
       26765000	      2675	800033e8	029ff863	bgeu	x31,x9,80003418	 x31:0x0000067a  x9:0xfffff900
       26775000	      2676	800033ec	05987463	bgeu	x16,x25,80003434	 x16:0x8000a359 x25:0x43e61000
       26785000	      2677	00000000	00000013	addi	x0,x0,0	  x0:0x00000000
       26795000	      2678	80003430	00000013	addi	x0,x0,0	  x0:0x00000000
       26805000	      2679	80003434	01c30463	beq	x6,x28,8000343c	  x6:0x7fff60f7 x28:0xfffffa32
       26815000	      2680	80003438	00610e33	add	x28,x2,x6	  x2:0x00000001  x6:0x7fff60f7 x28=0x7fff60f8
       26825000	      2681	8000343c	82574f93	xori	x31,x14,-2011	 x14:0xc9f36211 x31=0x360c9a34
       26835000	      2682	80003440	54e9b913	sltiu	x18,x19,1358	 x19:0xb60d414c x18=0x00000000
       26845000	      2683	80003444	6921c293	xori	x5,x3,1682	  x3:0x00000042  x5=0x000006d0
       26855000	      2684	80003448	48e0b493	sltiu	x9,x1,1166	  x1:0x0000067a  x9=0x00000000
       26865000	      2685	8000344c	0148df93	srli	x31,x17,0x14	 x17:0x80009f2c x31=0x00000800
       26875000	      2686	80003450	6239fe13	andi	x28,x19,1571	 x19:0xb60d414c x28=0x00000000
       26885000	      2687	80003454	01597733	and	x14,x18,x21	 x18:0x00000000 x21:0x00000000 x14=0x00000000
       26895000	      2688	80003458	001864b3	or	x9,x16,x1	 x16:0x8000a359  x1:0x0000067a  x9=0x8000a77b
       26905000	      2689	8000345c	01e90e33	add	x28,x18,x30	 x18:0x00000000 x30:0x80009fc4 x28=0x80009fc4
       26915000	      2690	80003460	02d64263	blt	x12,x13,80003484	 x12:0xffffffff x13:0x00000001
       26925000	      2691	00000000	00000013	addi	x0,x0,0	  x0:0x00000000
       26935000	      2692	80003480	00000013	addi	x0,x0,0	  x0:0x00000000
       26945000	      2693	80003484	fba3f537	lui	x10,0xfba3f	 x10=0xfba3f000
       26955000	      2694	80003488	03f1ec63	bltu	x3,x31,800034c0	  x3:0x00000042 x31:0x00000800
       26965000	      2695	00000000	00000013	addi	x0,x0,0	  x0:0x00000000
       26975000	      2696	800034bc	00000013	addi	x0,x0,0	  x0:0x00000000
       26985000	      2697	800034c0	a3004d97	auipc	x27,0xa3004	 x27=0x230074bc
       26995000	      2698	800034c4	dd26a813	slti	x16,x13,-558	 x13:0x00000001 x16=0x00000000
       27005000	      2699	800034c8	03a08063	beq	x1,x26,800034e8	  x1:0x0000067a x26:0x00000004
       27015000	      2700	800034cc	23849137	lui	x2,0x23849	  x2=0x23849000
       27025000	      2701	800034d0	a1aaebb7	lui	x23,0xa1aae	 x23=0xa1aae000
       27035000	      2702	800034d4	00c10a33	add	x20,x2,x12	  x2:0x23849000 x12:0xffffffff x20=0x23848fff
       27045000	      2703	800034d8	03efc463	blt	x31,x30,80003500	 x31:0x00000800 x30:0x80009fc4
       27055000	      2704	800034dc	da9ba637	lui	x12,0xda9ba	 x12=0xda9ba000
       27065000	      2705	800034e0	039e1063	bne	x28,x25,80003500	 x28:0x80009fc4 x25:0x43e61000
       27075000	      2706	00000000	00000013	addi	x0,x0,0	  x0:0x00000000
       27085000	      2707	800034fc	00000013	addi	x0,x0,0	  x0:0x00000000
       27095000	      2708	80003500	02770263	beq	x14,x7,80003524	 x14:0x00000000  x7:0xa5ab9000
       27105000	      2709	80003504	00acde33	srl	x28,x25,x10	 x25:0x43e61000 x10:0xfba3f000 x28=0x43e61000
       27115000	      2710	80003508	40f5d0b3	sra	x1,x11,x15	 x11:0x00000001 x15:0x80009fc4  x1=0x00000000
       27125000	      2711	8000350c	00000013	addi	x0,x0,0	  x0:0x00000000
       27135000	      2712	80003510	01c001b3	add	x3,x0,x28	  x0:0x00000000 x28:0x43e61000  x3=0x43e61000
       27145000	      2713	80003514	0298fc63	bgeu	x17,x9,8000354c	 x17:0x80009f2c  x9:0x8000a77b
       27155000	      2714	80003518	0097c133	xor	x2,x15,x9	 x15:0x80009fc4  x9:0x8000a77b  x2=0x000038bf
       27165000	      2715	8000351c	00ed7863	bgeu	x26,x14,8000352c	 x26:0x00000004 x14:0x00000000
       27175000	      2716	00000000	00000013	addi	x0,x0,0	  x0:0x00000000
       27185000	      2717	80003528	00000013	addi	x0,x0,0	  x0:0x00000000
       27195000	      2718	8000352c	03a24463	blt	x4,x26,80003554	  x4:0xffffffdb x26:0x00000004
       27205000	      2719	00000000	00000013	addi	x0,x0,0	  x0:0x00000000
       27215000	      2720	80003550	00000013	addi	x0,x0,0	  x0:0x00000000
       27225000	      2721	80003554	00ea46b3	xor	x13,x20,x14	 x20:0x23848fff x14:0x00000000 x13=0x23848fff
       27235000	      2722	80003558	03f00863	beq	x0,x31,80003588	  x0:0x00000000 x31:0x00000800
       27245000	      2723	8000355c	3c4c3b93	sltiu	x23,x24,964	 x24:0x0000067a x23=0x00000000
       27255000	      2724	80003560	018c7733	and	x14,x24,x24	 x24:0x0000067a x24:0x0000067a x14=0x0000067a
       27265000	      2725	80003564	002826b3	slt	x13,x16,x2	 x16:0x00000000  x2:0x000038bf x13=0x00000001
       27275000	      2726	80003568	00f49093	slli	x1,x9,0xf	  x9:0x8000a77b  x1=0x53bd8000
       27285000	      2727	8000356c	002f0463	beq	x30,x2,80003574	 x30:0x80009fc4  x2:0x000038bf
       27295000	      2728	80003570	f4da0b13	addi	x22,x20,-179	 x20:0x23848fff x22=0x23848f4c
       27305000	      2729	80003574	01254133	xor	x2,x10,x18	 x10:0xfba3f000 x18:0x00000000  x2=0xfba3f000
       27315000	      2730	80003578	2c076113	ori	x2,x14,704	 x14:0x0000067a  x2=0x000006fa
       27325000	      2731	8000357c	00c112b3	sll	x5,x2,x12	  x2:0x000006fa x12:0xda9ba000  x5=0x000006fa
       27335000	      2732	80003580	41660ab3	sub	x21,x12,x22	 x12:0xda9ba000 x22:0x23848f4c x21=0xb71710b4
       27345000	      2733	80003584	42d68313	addi	x6,x13,1069	 x13:0x00000001  x6=0x0000042e
       27355000	      2734	80003588	00ae0433	add	x8,x28,x10	 x28:0x43e61000 x10:0xfba3f000  x8=0x3f8a0000
       27365000	      2735	8000358c	0127d263	bge	x15,x18,80003590	 x15:0x80009fc4 x18:0x00000000
       27375000	      2736	80003590	010fb9b3	sltu	x19,x31,x16	 x31:0x00000800 x16:0x00000000 x19=0x00000000
       27385000	      2737	80003594	006dc533	xor	x10,x27,x6	 x27:0x230074bc  x6:0x0000042e x10=0x23007092
       27395000	      2738	80003598	bd6a8937	lui	x18,0xbd6a8	 x18=0xbd6a8000
       27405000	      2739	8000359c	b5ebf3b7	lui	x7,0xb5ebf	  x7=0xb5ebf000
       27415000	      2740	800035a0	01609313	slli	x6,x1,0x16	  x1:0x53bd8000  x6=0x00000000
       27425000	      2741	800035a4	01efc2b3	xor	x5,x31,x30	 x31:0x00000800 x30:0x80009fc4  x5=0x800097c4
       27435000	      2742	800035a8	c6a47513	andi	x10,x8,-918	  x8:0x3f8a0000 x10=0x3f8a0000
       27445000	      2743	800035ac	01f9a5b3	slt	x11,x19,x31	 x19:0x00000000 x31:0x00000800 x11=0x00000001
       27455000	      2744	800035b0	0128a633	slt	x12,x17,x18	 x17:0x80009f2c x18:0xbd6a8000 x12=0x00000001
       27465000	      2745	800035b4	519c4d93	xori	x27,x24,1305	 x24:0x0000067a x27=0x00000363
       27475000	      2746	800035b8	d5adc813	xori	x16,x27,-678	 x27:0x00000363 x16=0xfffffe39
       27485000	      2747	800035bc	019195b3	sll	x11,x3,x25	  x3:0x43e61000 x25:0x43e61000 x11=0x43e61000
       27495000	      2748	800035c0	68282237	lui	x4,0x68282	  x4=0x68282000
       27505000	      2749	800035c4	00000013	addi	x0,x0,0	  x0:0x00000000
       27515000	      2750	800035c8	75416b13	ori	x22,x2,1876	  x2:0x000006fa x22=0x000007fe
       27525000	      2751	800035cc	00f34933	xor	x18,x6,x15	  x6:0x00000000 x15:0x80009fc4 x18=0x80009fc4
       27535000	      2752	800035d0	00fe8eb3	add	x29,x29,x15	 x29:0x000c0000 x15:0x80009fc4 x29=0x800c9fc4
       27545000	      2753	800035d4	01319b93	slli	x23,x3,0x13	  x3:0x43e61000 x23=0x80000000
       27555000	      2754	800035d8	1bc62f37	lui	x30,0x1bc62	 x30=0x1bc62000
       27565000	      2755	800035dc	01b23633	sltu	x12,x4,x27	  x4:0x68282000 x27:0x00000363 x12=0x00000000
       27575000	      2756	800035e0	00000013	addi	x0,x0,0	  x0:0x00000000
       27585000	      2757	800035e4	01464c33	xor	x24,x12,x20	 x12:0x00000000 x20:0x23848fff x24=0x23848fff
       27595000	      2758	800035e8	00f046b3	xor	x13,x0,x15	  x0:0x00000000 x15:0x80009fc4 x13=0x80009fc4
       27605000	      2759	800035ec	00000013	addi	x0,x0,0	  x0:0x00000000
       27615000	      2760	800035f0	00b81433	sll	x8,x16,x11	 x16:0xfffffe39 x11:0x43e61000  x8=0xfffffe39
       27625000	      2761	800035f4	01bc70b3	and	x1,x24,x27	 x24:0x23848fff x27:0x00000363  x1=0x00000363
       27635000	      2762	800035f8	037ee463	bltu	x29,x23,80003620	 x29:0x800c9fc4 x23:0x80000000
       27645000	      2763	800035fc	032e8e63	beq	x29,x18,80003638	 x29:0x800c9fc4 x18:0x80009fc4
       27655000	      2764	80003600	41708633	sub	x12,x1,x23	  x1:0x00000363 x23:0x80000000 x12=0x80000363
       27665000	      2765	80003604	b668bfb7	lui	x31,0xb668b	 x31=0xb668b000
       27675000	      2766	80003608	8d34ef93	ori	x31,x9,-1837	  x9:0x8000a77b x31=0xfffffffb
       27685000	      2767	8000360c	00930f33	add	x30,x6,x9	  x6:0x00000000  x9:0x8000a77b x30=0x8000a77b
       27695000	      2768	80003610	01e3eb33	or	x22,x7,x30	  x7:0xb5ebf000 x30:0x8000a77b x22=0xb5ebf77b
       27705000	      2769	80003614	015d94b3	sll	x9,x27,x21	 x27:0x00000363 x21:0xb71710b4  x9=0x36300000
       27715000	      2770	80003618	004ad413	srli	x8,x21,0x4	 x21:0xb71710b4  x8=0x0b71710b
       27725000	      2771	8000361c	41a58033	sub	x0,x11,x26	 x11:0x43e61000 x26:0x00000004
       27735000	      2772	80003620	03ad1e63	bne	x26,x26,8000365c	 x26:0x00000004 x26:0x00000004
       27745000	      2773	80003624	0043d833	srl	x16,x7,x4	  x7:0xb5ebf000  x4:0x68282000 x16=0xb5ebf000
       27755000	      2774	80003628	608a4b93	xori	x23,x20,1544	 x20:0x23848fff x23=0x238489f7
       27765000	      2775	8000362c	00a28733	add	x14,x5,x10	  x5:0x800097c4 x10:0x3f8a0000 x14=0xbf8a97c4
       27775000	      2776	80003630	451ee613	ori	x12,x29,1105	 x29:0x800c9fc4 x12=0x800c9fd5
       27785000	      2777	80003634	00e22db3	slt	x27,x4,x14	  x4:0x68282000 x14:0xbf8a97c4 x27=0x00000000
       27795000	      2778	80003638	40c90eb3	sub	x29,x18,x12	 x18:0x80009fc4 x12:0x800c9fd5 x29=0xfff3ffef
       27805000	      2779	8000363c	01d73cb3	sltu	x25,x14,x29	 x14:0xbf8a97c4 x29:0xfff3ffef x25=0x00000001
       27815000	      2780	80003640	0120af33	slt	x30,x1,x18	  x1:0x00000363 x18:0x80009fc4 x30=0x00000000
       27825000	      2781	80003644	41240db3	sub	x27,x8,x18	  x8:0x0b71710b x18:0x80009fc4 x27=0x8b70d147
       27835000	      2782	80003648	00f6e233	or	x4,x13,x15	 x13:0x80009fc4 x15:0x80009fc4  x4=0x80009fc4
       27845000	      2783	8000364c	3ce07d93	andi	x27,x0,974	  x0:0x00000000 x27=0x00000000
       27855000	      2784	80003650	b96d5597	auipc	x11,0xb96d5	 x11=0x396d864c
       27865000	      2785	80003654	039fc663	blt	x31,x25,80003680	 x31:0xfffffffb x25:0x00000001
       27875000	      2786	00000000	00000013	addi	x0,x0,0	  x0:0x00000000
       27885000	      2787	8000367c	00000013	addi	x0,x0,0	  x0:0x00000000
       27895000	      2788	80003680	034cf063	bgeu	x25,x20,800036a0	 x25:0x00000001 x20:0x23848fff
       27905000	      2789	80003684	c110f693	andi	x13,x1,-1007	  x1:0x00000363 x13=0x00000001
       27915000	      2790	80003688	03e86c63	bltu	x16,x30,800036c0	 x16:0xb5ebf000 x30:0x00000000
       27925000	      2791	8000368c	1ba32f13	slti	x30,x6,442	  x6:0x00000000 x30=0x00000001
       27935000	      2792	80003690	41b8de13	srai	x28,x17,0x1b	 x17:0x80009f2c x28=0xfffffff0
       27945000	      2793	80003694	f6d3aa13	slti	x20,x7,-147	  x7:0xb5ebf000 x20=0x00000001
       27955000	      2794	80003698	d822cb13	xori	x22,x5,-638	  x5:0x800097c4 x22=0x7fff6a46
       27965000	      2795	8000369c	41a50133	sub	x2,x10,x26	 x10:0x3f8a0000 x26:0x00000004  x2=0x3f89fffc
       27975000	      2796	800036a0	05064463	blt	x12,x16,800036e8	 x12:0x800c9fd5 x16:0xb5ebf000
       27985000	      2797	00000000	00000013	addi	x0,x0,0	  x0:0x00000000
       27995000	      2798	800036e4	00000013	addi	x0,x0,0	  x0:0x00000000
       28005000	      2799	800036e8	00396db3	or	x27,x18,x3	 x18:0x80009fc4  x3:0x43e61000 x27=0xc3e69fc4
       28015000	      2800	800036ec	009a9313	slli	x6,x21,0x9	 x21:0xb71710b4  x6=0x2e216800
       28025000	      2801	800036f0	01e81513	slli	x10,x16,0x1e	 x16:0xb5ebf000 x10=0x00000000
       28035000	      2802	800036f4	018766b3	or	x13,x14,x24	 x14:0xbf8a97c4 x24:0x23848fff x13=0xbf8e9fff
       28045000	      2803	800036f8	00000013	addi	x0,x0,0	  x0:0x00000000
       28055000	      2804	800036fc	00b0eb33	or	x22,x1,x11	  x1:0x00000363 x11:0x396d864c x22=0x396d876f
       28065000	      2805	80003700	414155b3	sra	x11,x2,x20	  x2:0x3f89fffc x20:0x00000001 x11=0x1fc4fffe
       28075000	      2806	80003704	00b99813	slli	x16,x19,0xb	 x19:0x00000000 x16=0x00000000
       28085000	      2807	80003708	03a41463	bne	x8,x26,80003730	  x8:0x0b71710b x26:0x00000004
       28095000	      2808	00000000	00000013	addi	x0,x0,0	  x0:0x00000000
       28105000	      2809	8000372c	00000013	addi	x0,x0,0	  x0:0x00000000
       28115000	      2810	80003730	01ea1133	sll	x2,x20,x30	 x20:0x00000001 x30:0x00000001  x2=0x00000002
       28125000	      2811	80003734	00771533	sll	x10,x14,x7	 x14:0xbf8a97c4  x7:0xb5ebf000 x10=0xbf8a97c4
       28135000	      2812	80003738	01ebb0b3	sltu	x1,x23,x30	 x23:0x238489f7 x30:0x00000001  x1=0x00000000
       28145000	      2813	8000373c	03a5f063	bgeu	x11,x26,8000375c	 x11:0x1fc4fffe x26:0x00000004
       28155000	      2814	00000000	00000013	addi	x0,x0,0	  x0:0x00000000
       28165000	      2815	80003758	00000013	addi	x0,x0,0	  x0:0x00000000
       28175000	      2816	8000375c	011031b3	sltu	x3,x0,x17	  x0:0x00000000 x17:0x80009f2c  x3=0x00000001
       28185000	      2817	80003760	3d397d93	andi	x27,x18,979	 x18:0x80009fc4 x27=0x000003c0
       28195000	      2818	80003764	014befb3	or	x31,x23,x20	 x23:0x238489f7 x20:0x00000001 x31=0x238489f7
       28205000	      2819	80003768	02bf7e63	bgeu	x30,x11,800037a4	 x30:0x00000001 x11:0x1fc4fffe
       28215000	      2820	8000376c	89a98a13	addi	x20,x19,-1894	 x19:0x00000000 x20=0xfffff89a
       28225000	      2821	80003770	22d5e393	ori	x7,x11,557	 x11:0x1fc4fffe  x7=0x1fc4ffff
       28235000	      2822	80003774	18bbe213	ori	x4,x23,395	 x23:0x238489f7  x4=0x238489ff
       28245000	      2823	80003778	01dc7a33	and	x20,x24,x29	 x24:0x23848fff x29:0xfff3ffef x20=0x23808fef
       28255000	      2824	8000377c	09750197	auipc	x3,0x9750	  x3=0x89753778
       28265000	      2825	80003780	01d2b233	sltu	x4,x5,x29	  x5:0x800097c4 x29:0xfff3ffef  x4=0x00000001
       28275000	      2826	80003784	01764c33	xor	x24,x12,x23	 x12:0x800c9fd5 x23:0x238489f7 x24=0xa3881622
       28285000	      2827	80003788	e98d9517	auipc	x10,0xe98d9	 x10=0x698dc784
       28295000	      2828	8000378c	35392f17	auipc	x30,0x35392	 x30=0xb5395788
       28305000	      2829	80003790	007e6a63	bltu	x28,x7,800037a4	 x28:0xfffffff0  x7:0x1fc4ffff
       28315000	      2830	80003794	034b0c63	beq	x22,x20,800037cc	 x22:0x396d876f x20:0x23808fef
       28325000	      2831	80003798	01db9fb3	sll	x31,x23,x29	 x23:0x238489f7 x29:0xfff3ffef x31=0x44fb8000
       28335000	      2832	8000379c	016cd413	srli	x8,x25,0x16	 x25:0x00000001  x8=0x00000000
       28345000	      2833	800037a0	41d25ab3	sra	x21,x4,x29	  x4:0x00000001 x29:0xfff3ffef x21=0x00000000
       28355000	      2834	800037a4	00cb0733	add	x14,x22,x12	 x22:0x396d876f x12:0x800c9fd5 x14=0xb97a2744
       28365000	      2835	800037a8	00fe9e33	sll	x28,x29,x15	 x29:0xfff3ffef x15:0x80009fc4 x28=0xff3ffef0
       28375000	      2836	800037ac	01827c13	andi	x24,x4,24	  x4:0x00000001 x24=0x00000000
       28385000	      2837	800037b0	00338433	add	x8,x7,x3	  x7:0x1fc4ffff  x3:0x89753778  x8=0xa93a3777
       28395000	      2838	800037b4	0074eeb3	or	x29,x9,x7	  x9:0x36300000  x7:0x1fc4ffff x29=0x3ff4ffff
       28405000	      2839	800037b8	012f4333	xor	x6,x30,x18	 x30:0xb5395788 x18:0x80009fc4  x6=0x3539c84c
       28415000	      2840	800037bc	4186d4b3	sra	x9,x13,x24	 x13:0xbf8e9fff x24:0x00000000  x9=0xbf8e9fff
       28425000	      2841	800037c0	008f3f13	sltiu	x30,x30,8	 x30:0xb5395788 x30=0x00000000
       28435000	      2842	800037c4	010f5533	srl	x10,x30,x16	 x30:0x00000000 x16:0x00000000 x10=0x00000000
       28445000	      2843	800037c8	ede0e913	ori	x18,x1,-290	  x1:0x00000000 x18=0xfffffede
       28455000	      2844	800037cc	020d1863	bne	x26,x0,800037fc	 x26:0x00000004  x0:0x00000000
       28465000	      2845	00000000	00000013	addi	x0,x0,0	  x0:0x00000000
       28475000	      2846	800037f8	00000013	addi	x0,x0,0	  x0:0x00000000
       28485000	      2847	800037fc	c2a5df17	auipc	x30,0xc2a5d	 x30=0x42a607f8
       28495000	      2848	80003800	006e0eb3	add	x29,x28,x6	 x28:0xff3ffef0  x6:0x3539c84c x29=0x3479c73c
       28505000	      2849	80003804	0074cc33	xor	x24,x9,x7	  x9:0xbf8e9fff  x7:0x1fc4ffff x24=0xa04a6000
       28515000	      2850	80003808	015c66b3	or	x13,x24,x21	 x24:0xa04a6000 x21:0x00000000 x13=0xa04a6000
       28525000	      2851	8000380c	01214f33	xor	x30,x2,x18	  x2:0x00000002 x18:0xfffffede x30=0xfffffedc
       28535000	      2852	80003810	02df9463	bne	x31,x13,80003838	 x31:0x44fb8000 x13:0xa04a6000
       28545000	      2853	00000000	00000013	addi	x0,x0,0	  x0:0x00000000
       28555000	      2854	80003834	00000013	addi	x0,x0,0	  x0:0x00000000
       28565000	      2855	80003838	0105d613	srli	x12,x11,0x10	 x11:0x1fc4fffe x12=0x00001fc4
       28575000	      2856	8000383c	0ad0ba93	sltiu	x21,x1,173	  x1:0x00000000 x21=0x00000001
       28585000	      2857	80003840	0176d313	srli	x6,x13,0x17	 x13:0xa04a6000  x6=0x00000140
       28595000	      2858	80003844	00e4a5b3	slt	x11,x9,x14	  x9:0xbf8e9fff x14:0xb97a2744 x11=0x00000000
       28605000	      2859	80003848	00f66133	or	x2,x12,x15	 x12:0x00001fc4 x15:0x80009fc4  x2=0x80009fc4
       28615000	      2860	8000384c	0009fa63	bgeu	x19,x0,80003860	 x19:0x00000000  x0:0x00000000
       28625000	      2861	00000000	00000013	addi	x0,x0,0	  x0:0x00000000
       28635000	      2862	8000385c	00000013	addi	x0,x0,0	  x0:0x00000000
       28645000	      2863	80003860	01be8463	beq	x29,x27,80003868	 x29:0x3479c73c x27:0x000003c0
       28655000	      2864	80003864	003e5e33	srl	x28,x28,x3	 x28:0xff3ffef0  x3:0x89753778 x28=0x000000ff
       28665000	      2865	80003868	01a2d263	bge	x5,x26,8000386c	  x5:0x800097c4 x26:0x00000004
       28675000	      2866	8000386c	03aa8063	beq	x21,x26,8000388c	 x21:0x00000001 x26:0x00000004
       28685000	      2867	80003870	00000013	addi	x0,x0,0	  x0:0x00000000
       28695000	      2868	80003874	03300863	beq	x0,x19,800038a4	  x0:0x00000000 x19:0x00000000
       28705000	      2869	00000000	00000013	addi	x0,x0,0	  x0:0x00000000
       28715000	      2870	800038a0	00000013	addi	x0,x0,0	  x0:0x00000000
       28725000	      2871	800038a4	41198633	sub	x12,x19,x17	 x19:0x00000000 x17:0x80009f2c x12=0x7fff60d4
       28735000	      2872	800038a8	0172d463	bge	x5,x23,800038b0	  x5:0x800097c4 x23:0x238489f7
       28745000	      2873	800038ac	0118ceb3	xor	x29,x17,x17	 x17:0x80009f2c x17:0x80009f2c x29=0x00000000
       28755000	      2874	800038b0	4007dd93	srai	x27,x15,0x0	 x15:0x80009fc4 x27=0x80009fc4
       28765000	      2875	800038b4	41605993	srai	x19,x0,0x16	  x0:0x00000000 x19=0x00000000
       28775000	      2876	800038b8	db940717	auipc	x14,0xdb940	 x14=0x5b9438b4
       28785000	      2877	800038bc	03d5e463	bltu	x11,x29,800038e4	 x11:0x00000000 x29:0x00000000
       28795000	      2878	800038c0	50918493	addi	x9,x3,1289	  x3:0x89753778  x9=0x89753c81
       28805000	      2879	800038c4	0028bdb3	sltu	x27,x17,x2	 x17:0x80009f2c  x2:0x80009fc4 x27=0x00000001
       28815000	      2880	800038c8	008d9013	slli	x0,x27,0x8	 x27:0x00000001
       28825000	      2881	800038cc	0392d063	bge	x5,x25,800038ec	  x5:0x800097c4 x25:0x00000001
       28835000	      2882	800038d0	316e6713	ori	x14,x28,790	 x28:0x000000ff x14=0x000003ff
       28845000	      2883	800038d4	40a0de13	srai	x28,x1,0xa	  x1:0x00000000 x28=0x00000000
       28855000	      2884	800038d8	0286e137	lui	x2,0x286e	  x2=0x0286e000
       28865000	      2885	800038dc	04859463	bne	x11,x8,80003924	 x11:0x00000000  x8:0xa93a3777
       28875000	      2886	00000000	00000013	addi	x0,x0,0	  x0:0x00000000
       28885000	      2887	80003920	00000013	addi	x0,x0,0	  x0:0x00000000
       28895000	      2888	80003924	a8ba3c13	sltiu	x24,x20,-1397	 x20:0x23808fef x24=0x00000001
       28905000	      2889	80003928	59e85a37	lui	x20,0x59e85	 x20=0x59e85000
       28915000	      2890	8000392c	60d11137	lui	x2,0x60d11	  x2=0x60d11000
       28925000	      2891	80003930	01657833	and	x16,x10,x22	 x10:0x00000000 x22:0x396d876f x16=0x00000000
       28935000	      2892	80003934	019f7263	bgeu	x30,x25,80003938	 x30:0xfffffedc x25:0x00000001
       28945000	      2893	00000000	00000013	addi	x0,x0,0	  x0:0x00000000
       28955000	      2894	80003934	00000013	addi	x0,x0,0	  x0:0x00000000
       28965000	      2895	80003938	4040da33	sra	x20,x1,x4	  x1:0x00000000  x4:0x00000001 x20=0x00000000
       28975000	      2896	8000393c	4164df13	srai	x30,x9,0x16	  x9:0x89753c81 x30=0xfffffe25
       28985000	      2897	80003940	bdf42993	slti	x19,x8,-1057	  x8:0xa93a3777 x19=0x00000001
       28995000	      2898	80003944	77860593	addi	x11,x12,1912	 x12:0x7fff60d4 x11=0x7fff684c
       29005000	      2899	80003948	00b711b3	sll	x3,x14,x11	 x14:0x000003ff x11:0x7fff684c  x3=0x003ff000
       29015000	      2900	8000394c	d3da8493	addi	x9,x21,-707	 x21:0x00000001  x9=0xfffffd3e
       29025000	      2901	80003950	784bf017	auipc	x0,0x784bf	
       29035000	      2902	80003954	aa2d8093	addi	x1,x27,-1374	 x27:0x00000001  x1=0xfffffaa3
       29045000	      2903	80003958	0cf28663	beq	x5,x15,80003a24	  x5:0x800097c4 x15:0x80009fc4
       29055000	      2904	8000395c	40785013	srai	x0,x16,0x7	 x16:0x00000000
       29065000	      2905	80003960	003926b3	slt	x13,x18,x3	 x18:0xfffffede  x3:0x003ff000 x13=0x00000001
       29075000	      2906	80003964	b0d80a13	addi	x20,x16,-1267	 x16:0x00000000 x20=0xfffffb0d
       29085000	      2907	80003968	8050b693	sltiu	x13,x1,-2043	  x1:0xfffffaa3 x13=0x00000000
       29095000	      2908	8000396c	00985033	srl	x0,x16,x9	 x16:0x00000000  x9:0xfffffd3e
       29105000	      2909	80003970	00005397	auipc	x7,0x5	  x7=0x8000896c
       29115000	      2910	80003974	67538393	addi	x7,x7,1653	  x7:0x8000896c  x7=0x80008fe1
       29125000	      2911	80003978	fbe3cc83	lbu	x25,-66(x7)	  x7:0x80008fe1 x25=0x000000a0 PA:0x80008f9f
       29135000	      2912	8000397c	f233af83	lw	x31,-221(x7)	  x7:0x80008fe1 x31=0x68750877 PA:0x80008f04
       29145000	      2913	80003980	f5138103	lb	x2,-175(x7)	  x7:0x80008fe1  x2=0x00000011 PA:0x80008f32
       29155000	      2914	80003984	faa38683	lb	x13,-86(x7)	  x7:0x80008fe1 x13=0xffffffad PA:0x80008f8b
       29165000	      2915	80003988	01060db3	add	x27,x12,x16	 x12:0x7fff60d4 x16:0x00000000 x27=0x7fff60d4
       29175000	      2916	8000398c	f8d39303	lh	x6,-115(x7)	  x7:0x80008fe1  x6=0xffffcfb7 PA:0x80008f6e
       29185000	      2917	80003990	f1738983	lb	x19,-233(x7)	  x7:0x80008fe1 x19=0x00000070 PA:0x80008ef8
       29195000	      2918	80003994	f993cf83	lbu	x31,-103(x7)	  x7:0x80008fe1 x31=0x000000a1 PA:0x80008f7a
       29205000	      2919	80003998	01972333	slt	x6,x14,x25	 x14:0x000003ff x25:0x000000a0  x6=0x00000000
       29215000	      2920	8000399c	41845eb3	sra	x29,x8,x24	  x8:0xa93a3777 x24:0x00000001 x29=0xd49d1bbb
       29225000	      2921	800039a0	402c5513	srai	x10,x24,0x2	 x24:0x00000001 x10=0x00000000
       29235000	      2922	800039a4	6fb3c513	xori	x10,x7,1787	  x7:0x80008fe1 x10=0x8000891a
       29245000	      2923	800039a8	00c61e93	slli	x29,x12,0xc	 x12:0x7fff60d4 x29=0xf60d4000
       29255000	      2924	800039ac	f3939e83	lh	x29,-199(x7)	  x7:0x80008fe1 x29=0xffffb968 PA:0x80008f1a
       29265000	      2925	800039b0	fd33a183	lw	x3,-45(x7)	  x7:0x80008fe1  x3=0xaffd93c7 PA:0x80008fb4
       29275000	      2926	800039b4	e38f6593	ori	x11,x30,-456	 x30:0xfffffe25 x11=0xfffffe3d
       29285000	      2927	800039b8	fcd3a5a3	sw	x13,-53(x7)	  x7:0x80008fe1 x13:0xffffffad PA:0x80008fac
       29295000	      2928	800039bc	fa03a9a3	sw	x0,-77(x7)	  x7:0x80008fe1  x0:0x00000000 PA:0x80008f94
       29305000	      2929	800039c0	a6924e13	xori	x28,x4,-1431	  x4:0x00000001 x28=0xfffffa68
       29315000	      2930	800039c4	93c54c13	xori	x24,x10,-1732	 x10:0x8000891a x24=0x7fff7026
       29325000	      2931	800039c8	f4d39fa3	sh	x13,-161(x7)	  x7:0x80008fe1 x13:0xffffffad PA:0x80008f40
       29335000	      2932	800039cc	3c79ae13	slti	x28,x19,967	 x19:0x00000070 x28=0x00000001
       29345000	      2933	800039d0	f06382a3	sb	x6,-251(x7)	  x7:0x80008fe1  x6:0x00000000 PA:0x80008ee6
       29355000	      2934	800039d4	404a81b3	sub	x3,x21,x4	 x21:0x00000001  x4:0x00000001  x3=0x00000000
       29365000	      2935	800039d8	0065a2b3	slt	x5,x11,x6	 x11:0xfffffe3d  x6:0x00000000  x5=0x00000001
       29375000	      2936	800039dc	fc638fa3	sb	x6,-33(x7)	  x7:0x80008fe1  x6:0x00000000 PA:0x80008fc0
       29385000	      2937	800039e0	01801433	sll	x8,x0,x24	  x0:0x00000000 x24:0x7fff7026  x8=0x00000000
       29395000	      2938	800039e4	fd43c203	lbu	x4,-44(x7)	  x7:0x80008fe1  x4=0x00000093 PA:0x80008fb5
       29405000	      2939	800039e8	fe53cc83	lbu	x25,-27(x7)	  x7:0x80008fe1 x25=0x000000df PA:0x80008fc6
       29415000	      2940	800039ec	fc33aba3	sw	x3,-41(x7)	  x7:0x80008fe1  x3:0x00000000 PA:0x80008fb8
       29425000	      2941	800039f0	f7539103	lh	x2,-139(x7)	  x7:0x80008fe1  x2=0xffffc700 PA:0x80008f56
       29435000	      2942	00000000	00000013	addi	x0,x0,0	  x0:0x00000000
       29445000	      2943	800039f4	3d514713	xori	x14,x2,981	  x2:0xffffc700 x14=0xffffc4d5
       29455000	      2944	800039f8	01fd0f33	add	x30,x26,x31	 x26:0x00000004 x31:0x000000a1 x30=0x000000a5
       29465000	      2945	800039fc	015610b3	sll	x1,x12,x21	 x12:0x7fff60d4 x21:0x00000001  x1=0xfffec1a8
       29475000	      2946	80003a00	f223c283	lbu	x5,-222(x7)	  x7:0x80008fe1  x5=0x000000d1 PA:0x80008f03
       29485000	      2947	80003a04	f043a5a3	sw	x4,-245(x7)	  x7:0x80008fe1  x4:0x00000093 PA:0x80008eec
       29495000	      2948	80003a08	011074b3	and	x9,x0,x17	  x0:0x00000000 x17:0x80009f2c  x9=0x00000000
       29505000	      2949	80003a0c	f5538a23	sb	x21,-172(x7)	  x7:0x80008fe1 x21:0x00000001 PA:0x80008f35
       29515000	      2950	80003a10	f9e3c283	lbu	x5,-98(x7)	  x7:0x80008fe1  x5=0x0000009a PA:0x80008f7f
       29525000	      2951	80003a14	40c18ab3	sub	x21,x3,x12	  x3:0x00000000 x12:0x7fff60d4 x21=0x80009f2c
       29535000	      2952	80003a18	f153d203	lhu	x4,-235(x7)	  x7:0x80008fe1  x4=0x0000c93a PA:0x80008ef6
       29545000	      2953	80003a1c	68f3e193	ori	x3,x7,1679	  x7:0x80008fe1  x3=0x80008fef
       29555000	      2954	80003a20	01f20db3	add	x27,x4,x31	  x4:0x0000c93a x31:0x000000a1 x27=0x0000c9db
       29565000	      2955	80003a24	01057663	bgeu	x10,x16,80003a30	 x10:0x8000891a x16:0x00000000
       29575000	      2956	00000000	00000013	addi	x0,x0,0	  x0:0x00000000
       29585000	      2957	80003a2c	00000013	addi	x0,x0,0	  x0:0x00000000
       29595000	      2958	80003a30	00cbd093	srli	x1,x23,0xc	 x23:0x238489f7  x1=0x00023848
       29605000	      2959	80003a34	01f4db93	srli	x23,x9,0x1f	  x9:0x00000000 x23=0x00000000
       29615000	      2960	80003a38	705a0e93	addi	x29,x20,1797	 x20:0xfffffb0d x29=0x00000212
       29625000	      2961	80003a3c	411cba13	sltiu	x20,x25,1041	 x25:0x000000df x20=0x00000001
       29635000	      2962	80003a40	44ceee13	ori	x28,x29,1100	 x29:0x00000212 x28=0x0000065e
       29645000	      2963	80003a44	404a5413	srai	x8,x20,0x4	 x20:0x00000001  x8=0x00000000
       29655000	      2964	80003a48	40728eb3	sub	x29,x5,x7	  x5:0x0000009a  x7:0x80008fe1 x29=0x7fff70b9
       29665000	      2965	80003a4c	03bc5863	bge	x24,x27,80003a7c	 x24:0x7fff7026 x27:0x0000c9db
       29675000	      2966	00000000	00000013	addi	x0,x0,0	  x0:0x00000000
       29685000	      2967	80003a78	00000013	addi	x0,x0,0	  x0:0x00000000
       29695000	      2968	80003a7c	014a7333	and	x6,x20,x20	 x20:0x00000001 x20:0x00000001  x6=0x00000001
       29705000	      2969	80003a80	4d8ae017	auipc	x0,0x4d8ae	
       29715000	      2970	80003a84	00531193	slli	x3,x6,0x5	  x6:0x00000001  x3=0x00000020
       29725000	      2971	80003a88	0322dc63	bge	x5,x18,80003ac0	  x5:0x0000009a x18:0xfffffede
       29735000	      2972	00000000	00000013	addi	x0,x0,0	  x0:0x00000000
       29745000	      2973	80003abc	00000013	addi	x0,x0,0	  x0:0x00000000
       29755000	      2974	80003ac0	00ec9433	sll	x8,x25,x14	 x25:0x000000df x14:0xffffc4d5  x8=0x1be00000
       29765000	      2975	80003ac4	7e6e2393	slti	x7,x28,2022	 x28:0x0000065e  x7=0x00000001
       29775000	      2976	80003ac8	002f1fb3	sll	x31,x30,x2	 x30:0x000000a5  x2:0xffffc700 x31=0x000000a5
       29785000	      2977	80003acc	01bb9db3	sll	x27,x23,x27	 x23:0x00000000 x27:0x0000c9db x27=0x00000000
       29795000	      2978	80003ad0	032a7463	bgeu	x20,x18,80003af8	 x20:0x00000001 x18:0xfffffede
       29805000	      2979	80003ad4	a37c5c97	auipc	x25,0xa37c5	 x25=0x237c8ad0
       29815000	      2980	80003ad8	039c4463	blt	x24,x25,80003b00	 x24:0x7fff7026 x25:0x237c8ad0
       29825000	      2981	80003adc	40b1d293	srai	x5,x3,0xb	  x3:0x00000020  x5=0x00000000
       29835000	      2982	80003ae0	41875c93	srai	x25,x14,0x18	 x14:0xffffc4d5 x25=0xffffffff
       29845000	      2983	80003ae4	03978e63	beq	x15,x25,80003b20	 x15:0x80009fc4 x25:0xffffffff
       29855000	      2984	80003ae8	01985813	srli	x16,x16,0x19	 x16:0x00000000 x16=0x00000000
       29865000	      2985	80003aec	400bdcb3	sra	x25,x23,x0	 x23:0x00000000  x0:0x00000000 x25=0x00000000
       29875000	      2986	80003af0	9c373493	sltiu	x9,x14,-1597	 x14:0xffffc4d5  x9=0x00000001
       29885000	      2987	80003af4	01cc6f33	or	x30,x24,x28	 x24:0x7fff7026 x28:0x0000065e x30=0x7fff767e
       29895000	      2988	80003af8	003afa63	bgeu	x21,x3,80003b0c	 x21:0x80009f2c  x3:0x00000020
       29905000	      2989	00000000	00000013	addi	x0,x0,0	  x0:0x00000000
       29915000	      2990	80003b08	00000013	addi	x0,x0,0	  x0:0x00000000
       29925000	      2991	80003b0c	01689933	sll	x18,x17,x22	 x17:0x80009f2c x22:0x396d876f x18=0x4f960000
       29935000	      2992	80003b10	02df7c63	bgeu	x30,x13,80003b48	 x30:0x7fff767e x13:0xffffffad
       29945000	      2993	80003b14	013b9a63	bne	x23,x19,80003b28	 x23:0x00000000 x19:0x00000070
       29955000	      2994	00000000	00000013	addi	x0,x0,0	  x0:0x00000000
       29965000	      2995	80003b24	00000013	addi	x0,x0,0	  x0:0x00000000
       29975000	      2996	80003b28	0070c333	xor	x6,x1,x7	  x1:0x00023848  x7:0x00000001  x6=0x00023849
       29985000	      2997	80003b2c	40a0dbb3	sra	x23,x1,x10	  x1:0x00023848 x10:0x8000891a x23=0x00000000
       29995000	      2998	80003b30	40a901b3	sub	x3,x18,x10	 x18:0x4f960000 x10:0x8000891a  x3=0xcf9576e6
       30005000	      2999	80003b34	00c89233	sll	x4,x17,x12	 x17:0x80009f2c x12:0x7fff60d4  x4=0xf2c00000
       30015000	      3000	80003b38	407ad593	srai	x11,x21,0x7	 x21:0x80009f2c x11=0xff00013e
       30025000	      3001	80003b3c	415fda93	srai	x21,x31,0x15	 x31:0x000000a5 x21=0x00000000
       30035000	      3002	80003b40	7560ee37	lui	x28,0x7560e	 x28=0x7560e000
       30045000	      3003	80003b44	33f52613	slti	x12,x10,831	 x10:0x8000891a x12=0x00000001
       30055000	      3004	80003b48	010b9c93	slli	x25,x23,0x10	 x23:0x00000000 x25=0x00000000
       30065000	      3005	80003b4c	4154df13	srai	x30,x9,0x15	  x9:0x00000001 x30=0x00000000
       30075000	      3006	80003b50	006d1c33	sll	x24,x26,x6	 x26:0x00000004  x6:0x00023849 x24=0x00000800
       30085000	      3007	80003b54	00000013	addi	x0,x0,0	  x0:0x00000000
       30095000	      3008	80003b58	03db6863	bltu	x22,x29,80003b88	 x22:0x396d876f x29:0x7fff70b9
       30105000	      3009	00000000	00000013	addi	x0,x0,0	  x0:0x00000000
       30115000	      3010	80003b84	00000013	addi	x0,x0,0	  x0:0x00000000
       30125000	      3011	80003b88	00000013	addi	x0,x0,0	  x0:0x00000000
       30135000	      3012	80003b8c	41d2d9b3	sra	x19,x5,x29	  x5:0x00000000 x29:0x7fff70b9 x19=0x00000000
       30145000	      3013	80003b90	034b6263	bltu	x22,x20,80003bb4	 x22:0x396d876f x20:0x00000001
       30155000	      3014	80003b94	5726be13	sltiu	x28,x13,1394	 x13:0xffffffad x28=0x00000000
       30165000	      3015	80003b98	01e432b3	sltu	x5,x8,x30	  x8:0x1be00000 x30:0x00000000  x5=0x00000000
       30175000	      3016	80003b9c	004ddc13	srli	x24,x27,0x4	 x27:0x00000000 x24=0x00000000
       30185000	      3017	80003ba0	b128ec97	auipc	x25,0xb128e	 x25=0x31291b9c
       30195000	      3018	80003ba4	31f3c093	xori	x1,x7,799	  x7:0x00000001  x1=0x0000031e
       30205000	      3019	80003ba8	8725bf93	sltiu	x31,x11,-1934	 x11:0xff00013e x31=0x00000001
       30215000	      3020	80003bac	0080cfb3	xor	x31,x1,x8	  x1:0x0000031e  x8:0x1be00000 x31=0x1be0031e
       30225000	      3021	80003bb0	02f21e63	bne	x4,x15,80003bec	  x4:0xf2c00000 x15:0x80009fc4
       30235000	      3022	00000000	00000013	addi	x0,x0,0	  x0:0x00000000
       30245000	      3023	80003be8	00000013	addi	x0,x0,0	  x0:0x00000000
       30255000	      3024	80003bec	70d06813	ori	x16,x0,1805	  x0:0x00000000 x16=0x0000070d
       30265000	      3025	80003bf0	41ded813	srai	x16,x29,0x1d	 x29:0x7fff70b9 x16=0x00000003
       30275000	      3026	80003bf4	0220f263	bgeu	x1,x2,80003c18	  x1:0x0000031e  x2:0xffffc700
       30285000	      3027	80003bf8	00000013	addi	x0,x0,0	  x0:0x00000000
       30295000	      3028	80003bfc	c434bd93	sltiu	x27,x9,-957	  x9:0x00000001 x27=0x00000001
       30305000	      3029	80003c00	01f29f93	slli	x31,x5,0x1f	  x5:0x00000000 x31=0x00000000
       30315000	      3030	80003c04	00000013	addi	x0,x0,0	  x0:0x00000000
       30325000	      3031	80003c08	41e05933	sra	x18,x0,x30	  x0:0x00000000 x30:0x00000000 x18=0x00000000
       30335000	      3032	80003c0c	003c1e13	slli	x28,x24,0x3	 x24:0x00000000 x28=0x00000000
       30345000	      3033	80003c10	b1cf3c93	sltiu	x25,x30,-1252	 x30:0x00000000 x25=0x00000001
       30355000	      3034	80003c14	922bc813	xori	x16,x23,-1758	 x23:0x00000000 x16=0xfffff922
       30365000	      3035	80003c18	fa885ab7	lui	x21,0xfa885	 x21=0xfa885000
       30375000	      3036	80003c1c	77984193	xori	x3,x16,1913	 x16:0xfffff922  x3=0xfffffe5b
       30385000	      3037	80003c20	007e80b3	add	x1,x29,x7	 x29:0x7fff70b9  x7:0x00000001  x1=0x7fff70ba
       30395000	      3038	80003c24	0189dc33	srl	x24,x19,x24	 x19:0x00000000 x24:0x00000000 x24=0x00000000
       30405000	      3039	80003c28	03038663	beq	x7,x16,80003c54	  x7:0x00000001 x16:0xfffff922
       30415000	      3040	80003c2c	037dec63	bltu	x27,x23,80003c64	 x27:0x00000001 x23:0x00000000
       30425000	      3041	80003c30	53752097	auipc	x1,0x53752	  x1=0xd3755c2c
       30435000	      3042	80003c34	41118eb3	sub	x29,x3,x17	  x3:0xfffffe5b x17:0x80009f2c x29=0x7fff5f2f
       30445000	      3043	80003c38	00c71193	slli	x3,x14,0xc	 x14:0xffffc4d5  x3=0xfc4d5000
       30455000	      3044	80003c3c	019b1233	sll	x4,x22,x25	 x22:0x396d876f x25:0x00000001  x4=0x72db0ede
       30465000	      3045	80003c40	00b0ea33	or	x20,x1,x11	  x1:0xd3755c2c x11:0xff00013e x20=0xff755d3e
       30475000	      3046	80003c44	00f112b3	sll	x5,x2,x15	  x2:0xffffc700 x15:0x80009fc4  x5=0xfffc7000
       30485000	      3047	80003c48	011f9433	sll	x8,x31,x17	 x31:0x00000000 x17:0x80009f2c  x8=0x00000000
       30495000	      3048	80003c4c	01551133	sll	x2,x10,x21	 x10:0x8000891a x21:0xfa885000  x2=0x8000891a
       30505000	      3049	80003c50	0119c263	blt	x19,x17,80003c54	 x19:0x00000000 x17:0x80009f2c
       30515000	      3050	80003c54	b02a4193	xori	x3,x20,-1278	 x20:0xff755d3e  x3=0x008aa63c
       30525000	      3051	80003c58	411153b3	sra	x7,x2,x17	  x2:0x8000891a x17:0x80009f2c  x7=0xfff80008
       30535000	      3052	80003c5c	2bab6593	ori	x11,x22,698	 x22:0x396d876f x11=0x396d87ff
       30545000	      3053	80003c60	002f9713	slli	x14,x31,0x2	 x31:0x00000000 x14=0x00000000
       30555000	      3054	80003c64	004f36b3	sltu	x13,x30,x4	 x30:0x00000000  x4:0x72db0ede x13=0x00000001
       30565000	      3055	80003c68	003bc533	xor	x10,x23,x3	 x23:0x00000000  x3:0x008aa63c x10=0x008aa63c
       30575000	      3056	80003c6c	0020f1b3	and	x3,x1,x2	  x1:0xd3755c2c  x2:0x8000891a  x3=0x80000808
       30585000	      3057	80003c70	d33aaa13	slti	x20,x21,-717	 x21:0xfa885000 x20=0x00000001
       30595000	      3058	80003c74	44cb3f13	sltiu	x30,x22,1100	 x22:0x396d876f x30=0x00000000
       30605000	      3059	80003c78	00000013	addi	x0,x0,0	  x0:0x00000000
       30615000	      3060	80003c7c	01ac9413	slli	x8,x25,0x1a	 x25:0x00000001  x8=0x04000000
       30625000	      3061	80003c80	00000013	addi	x0,x0,0	  x0:0x00000000
       30635000	      3062	80003c84	01739133	sll	x2,x7,x23	  x7:0xfff80008 x23:0x00000000  x2=0xfff80008
       30645000	      3063	80003c88	01a55b93	srli	x23,x10,0x1a	 x10:0x008aa63c x23=0x00000000
       30655000	      3064	80003c8c	41a05193	srai	x3,x0,0x1a	  x0:0x00000000  x3=0x00000000
       30665000	      3065	80003c90	00f6d493	srli	x9,x13,0xf	 x13:0x00000001  x9=0x00000000
       30675000	      3066	80003c94	01a3f933	and	x18,x7,x26	  x7:0xfff80008 x26:0x00000004 x18=0x00000000
       30685000	      3067	80003c98	407502b3	sub	x5,x10,x7	 x10:0x008aa63c  x7:0xfff80008  x5=0x0092a634
       30695000	      3068	80003c9c	413ed313	srai	x6,x29,0x13	 x29:0x7fff5f2f  x6=0x00000fff
       30705000	      3069	80003ca0	00000013	addi	x0,x0,0	  x0:0x00000000
       30715000	      3070	80003ca4	40be5eb3	sra	x29,x28,x11	 x28:0x00000000 x11:0x396d87ff x29=0x00000000
       30725000	      3071	80003ca8	a3092b93	slti	x23,x18,-1488	 x18:0x00000000 x23=0x00000000
       30735000	      3072	80003cac	003475b3	and	x11,x8,x3	  x8:0x04000000  x3:0x00000000 x11=0x00000000
       30745000	      3073	80003cb0	94abb393	sltiu	x7,x23,-1718	 x23:0x00000000  x7=0x00000001
       30755000	      3074	80003cb4	00000013	addi	x0,x0,0	  x0:0x00000000
       30765000	      3075	80003cb8	02beec63	bltu	x29,x11,80003cf0	 x29:0x00000000 x11:0x00000000
       30775000	      3076	80003cbc	01fca6b3	slt	x13,x25,x31	 x25:0x00000001 x31:0x00000000 x13=0x00000000
       30785000	      3077	80003cc0	001cd663	bge	x25,x1,80003ccc	 x25:0x00000001  x1:0xd3755c2c
       30795000	      3078	00000000	00000013	addi	x0,x0,0	  x0:0x00000000
       30805000	      3079	80003cc8	00000013	addi	x0,x0,0	  x0:0x00000000
       30815000	      3080	80003ccc	4ca37e13	andi	x28,x6,1226	  x6:0x00000fff x28=0x000004ca
       30825000	      3081	80003cd0	012b7233	and	x4,x22,x18	 x22:0x396d876f x18:0x00000000  x4=0x00000000
       30835000	      3082	80003cd4	019a82b3	add	x5,x21,x25	 x21:0xfa885000 x25:0x00000001  x5=0xfa885001
       30845000	      3083	80003cd8	03c0e463	bltu	x1,x28,80003d00	  x1:0xd3755c2c x28:0x000004ca
       30855000	      3084	80003cdc	012bbfb3	sltu	x31,x23,x18	 x23:0x00000000 x18:0x00000000 x31=0x00000000
       30865000	      3085	80003ce0	00452733	slt	x14,x10,x4	 x10:0x008aa63c  x4:0x00000000 x14=0x00000000
       30875000	      3086	80003ce4	003bde33	srl	x28,x23,x3	 x23:0x00000000  x3:0x00000000 x28=0x00000000
       30885000	      3087	80003ce8	40b35033	sra	x0,x6,x11	  x6:0x00000fff x11:0x00000000
       30895000	      3088	80003cec	059ce463	bltu	x25,x25,80003d34	 x25:0x00000001 x25:0x00000001
       30905000	      3089	80003cf0	00d19933	sll	x18,x3,x13	  x3:0x00000000 x13:0x00000000 x18=0x00000000
       30915000	      3090	80003cf4	00a36cb3	or	x25,x6,x10	  x6:0x00000fff x10:0x008aa63c x25=0x008aafff
       30925000	      3091	80003cf8	00c456b3	srl	x13,x8,x12	  x8:0x04000000 x12:0x00000001 x13=0x02000000
       30935000	      3092	80003cfc	00694bb3	xor	x23,x18,x6	 x18:0x00000000  x6:0x00000fff x23=0x00000fff
       30945000	      3093	80003d00	02039e63	bne	x7,x0,80003d3c	  x7:0x00000001  x0:0x00000000
       30955000	      3094	00000000	00000013	addi	x0,x0,0	  x0:0x00000000
       30965000	      3095	80003d38	00000013	addi	x0,x0,0	  x0:0x00000000
       30975000	      3096	80003d3c	009a6bb3	or	x23,x20,x9	 x20:0x00000001  x9:0x00000000 x23=0x00000001
       30985000	      3097	80003d40	01f736b3	sltu	x13,x14,x31	 x14:0x00000000 x31:0x00000000 x13=0x00000000
       30995000	      3098	80003d44	01eb83b3	add	x7,x23,x30	 x23:0x00000001 x30:0x00000000  x7=0x00000001
       31005000	      3099	80003d48	01721cb3	sll	x25,x4,x23	  x4:0x00000000 x23:0x00000001 x25=0x00000000
       31015000	      3100	80003d4c	00b91193	slli	x3,x18,0xb	 x18:0x00000000  x3=0x00000000
       31025000	      3101	80003d50	019d1c33	sll	x24,x26,x25	 x26:0x00000004 x25:0x00000000 x24=0x00000004
       31035000	      3102	80003d54	00bde033	or	x0,x27,x11	 x27:0x00000001 x11:0x00000000
       31045000	      3103	80003d58	c59d9f97	auipc	x31,0xc59d9	 x31=0x459dcd54
       31055000	      3104	80003d5c	521a6817	auipc	x16,0x521a6	 x16=0xd21a9d58
       31065000	      3105	80003d60	418e0533	sub	x10,x28,x24	 x28:0x00000000 x24:0x00000004 x10=0xfffffffc
       31075000	      3106	80003d64	41738933	sub	x18,x7,x23	  x7:0x00000001 x23:0x00000001 x18=0x00000000
       31085000	      3107	80003d68	01cff833	and	x16,x31,x28	 x31:0x459dcd54 x28:0x00000000 x16=0x00000000
       31095000	      3108	80003d6c	0389d063	bge	x19,x24,80003d8c	 x19:0x00000000 x24:0x00000004
       31105000	      3109	80003d70	36e23993	sltiu	x19,x4,878	  x4:0x00000000 x19=0x00000001
       31115000	      3110	80003d74	00d81833	sll	x16,x16,x13	 x16:0x00000000 x13:0x00000000 x16=0x00000000
       31125000	      3111	80003d78	00349f13	slli	x30,x9,0x3	  x9:0x00000000 x30=0x00000000
       31135000	      3112	80003d7c	01be9463	bne	x29,x27,80003d84	 x29:0x00000000 x27:0x00000001
       31145000	      3113	00000000	00000013	addi	x0,x0,0	  x0:0x00000000
       31155000	      3114	80003d80	00000013	addi	x0,x0,0	  x0:0x00000000
       31165000	      3115	80003d84	00b04333	xor	x6,x0,x11	  x0:0x00000000 x11:0x00000000  x6=0x00000000
       31175000	      3116	80003d88	8737e9b7	lui	x19,0x8737e	 x19=0x8737e000
       31185000	      3117	80003d8c	03b35e63	bge	x6,x27,80003dc8	  x6:0x00000000 x27:0x00000001
       31195000	      3118	80003d90	a219c193	xori	x3,x19,-1503	 x19:0x8737e000  x3=0x78c81a21
       31205000	      3119	80003d94	00015033	srl	x0,x2,x0	  x2:0xfff80008  x0:0x00000000
       31215000	      3120	80003d98	402fdeb3	sra	x29,x31,x2	 x31:0x459dcd54  x2:0xfff80008 x29=0x00459dcd
       31225000	      3121	80003d9c	03fe1663	bne	x28,x31,80003dc8	 x28:0x00000000 x31:0x459dcd54
       31235000	      3122	00000000	00000013	addi	x0,x0,0	  x0:0x00000000
       31245000	      3123	80003dc4	00000013	addi	x0,x0,0	  x0:0x00000000
       31255000	      3124	80003dc8	b7a9a117	auipc	x2,0xb7a9a	  x2=0x37a9ddc4
       31265000	      3125	80003dcc	01169233	sll	x4,x13,x17	 x13:0x00000000 x17:0x80009f2c  x4=0x00000000
       31275000	      3126	80003dd0	27fcf913	andi	x18,x25,639	 x25:0x00000000 x18=0x00000000
       31285000	      3127	80003dd4	db7765b7	lui	x11,0xdb776	 x11=0xdb776000
       31295000	      3128	80003dd8	9eff6d93	ori	x27,x30,-1553	 x30:0x00000000 x27=0xfffff9ef
       31305000	      3129	80003ddc	0043dc13	srli	x24,x7,0x4	  x7:0x00000001 x24=0x00000000
       31315000	      3130	80003de0	30181037	lui	x0,0x30181	
       31325000	      3131	80003de4	02ced063	bge	x29,x12,80003e04	 x29:0x00459dcd x12:0x00000001
       31335000	      3132	00000000	00000013	addi	x0,x0,0	  x0:0x00000000
       31345000	      3133	80003e00	00000013	addi	x0,x0,0	  x0:0x00000000
       31355000	      3134	80003e04	033dd863	bge	x27,x19,80003e34	 x27:0xfffff9ef x19:0x8737e000
       31365000	      3135	00000000	00000013	addi	x0,x0,0	  x0:0x00000000
       31375000	      3136	80003e30	00000013	addi	x0,x0,0	  x0:0x00000000
       31385000	      3137	80003e34	d0008597	auipc	x11,0xd0008	 x11=0x5000be30
       31395000	      3138	80003e38	01b08f33	add	x30,x1,x27	  x1:0xd3755c2c x27:0xfffff9ef x30=0xd375561b
       31405000	      3139	80003e3c	013ee5b3	or	x11,x29,x19	 x29:0x00459dcd x19:0x8737e000 x11=0x8777fdcd
       31415000	      3140	80003e40	001631b3	sltu	x3,x12,x1	 x12:0x00000001  x1:0xd3755c2c  x3=0x00000001
       31425000	      3141	80003e44	007f0bb3	add	x23,x30,x7	 x30:0xd375561b  x7:0x00000001 x23=0xd375561c
       31435000	      3142	80003e48	01ae1093	slli	x1,x28,0x1a	 x28:0x00000000  x1=0x00000000
       31445000	      3143	80003e4c	038ce263	bltu	x25,x24,80003e70	 x25:0x00000000 x24:0x00000000
       31455000	      3144	80003e50	0147d913	srli	x18,x15,0x14	 x15:0x80009fc4 x18=0x00000800
       31465000	      3145	80003e54	039d0863	beq	x26,x25,80003e84	 x26:0x00000004 x25:0x00000000
       31475000	      3146	80003e58	40ef5b93	srai	x23,x30,0xe	 x30:0xd375561b x23=0xffff4dd5
       31485000	      3147	80003e5c	01aaf733	and	x14,x21,x26	 x21:0xfa885000 x26:0x00000004 x14=0x00000000
       31495000	      3148	80003e60	01cb1863	bne	x22,x28,80003e70	 x22:0x396d876f x28:0x00000000
       31505000	      3149	00000000	00000013	addi	x0,x0,0	  x0:0x00000000
       31515000	      3150	80003e6c	00000013	addi	x0,x0,0	  x0:0x00000000
       31525000	      3151	80003e70	4034d0b3	sra	x1,x9,x3	  x9:0x00000000  x3:0x00000001  x1=0x00000000
       31535000	      3152	80003e74	5a0a4693	xori	x13,x20,1440	 x20:0x00000001 x13=0x000005a1
       31545000	      3153	80003e78	5a930913	addi	x18,x6,1449	  x6:0x00000000 x18=0x000005a9
       31555000	      3154	80003e7c	db0a3c13	sltiu	x24,x20,-592	 x20:0x00000001 x24=0x00000001
       31565000	      3155	80003e80	476ec993	xori	x19,x29,1142	 x29:0x00459dcd x19=0x004599bb
       31575000	      3156	80003e84	30474913	xori	x18,x14,772	 x14:0x00000000 x18=0x00000304
       31585000	      3157	80003e88	00000013	addi	x0,x0,0	  x0:0x00000000
       31595000	      3158	80003e8c	03f39063	bne	x7,x31,80003eac	  x7:0x00000001 x31:0x459dcd54
       31605000	      3159	00000000	00000013	addi	x0,x0,0	  x0:0x00000000
       31615000	      3160	80003ea8	00000013	addi	x0,x0,0	  x0:0x00000000
       31625000	      3161	80003eac	0174dab3	srl	x21,x9,x23	  x9:0x00000000 x23:0xffff4dd5 x21=0x00000000
       31635000	      3162	80003eb0	01e2c9b3	xor	x19,x5,x30	  x5:0xfa885001 x30:0xd375561b x19=0x29fd061a
       31645000	      3163	80003eb4	00f6ac33	slt	x24,x13,x15	 x13:0x000005a1 x15:0x80009fc4 x24=0x00000000
       31655000	      3164	80003eb8	03447463	bgeu	x8,x20,80003ee0	  x8:0x04000000 x20:0x00000001
       31665000	      3165	00000000	00000013	addi	x0,x0,0	  x0:0x00000000
       31675000	      3166	80003edc	00000013	addi	x0,x0,0	  x0:0x00000000
       31685000	      3167	80003ee0	e48b0937	lui	x18,0xe48b0	 x18=0xe48b0000
       31695000	      3168	80003ee4	412ad613	srai	x12,x21,0x12	 x21:0x00000000 x12=0x00000000
       31705000	      3169	80003ee8	017f5233	srl	x4,x30,x23	 x30:0xd375561b x23:0xffff4dd5  x4=0x0000069b
       31715000	      3170	80003eec	41a58633	sub	x12,x11,x26	 x11:0x8777fdcd x26:0x00000004 x12=0x8777fdc9
       31725000	      3171	80003ef0	02305c63	bge	x0,x3,80003f28	  x0:0x00000000  x3:0x00000001
       31735000	      3172	80003ef4	011c3833	sltu	x16,x24,x17	 x24:0x00000000 x17:0x80009f2c x16=0x00000001
       31745000	      3173	80003ef8	e7c14f93	xori	x31,x2,-388	  x2:0x37a9ddc4 x31=0xc85623b8
       31755000	      3174	80003efc	01957db3	and	x27,x10,x25	 x10:0xfffffffc x25:0x00000000 x27=0x00000000
       31765000	      3175	80003f00	01d83433	sltu	x8,x16,x29	 x16:0x00000001 x29:0x00459dcd  x8=0x00000001
       31775000	      3176	80003f04	0371c463	blt	x3,x23,80003f2c	  x3:0x00000001 x23:0xffff4dd5
       31785000	      3177	80003f08	021f8063	beq	x31,x1,80003f28	 x31:0xc85623b8  x1:0x00000000
       31795000	      3178	80003f0c	41e5da13	srai	x20,x11,0x1e	 x11:0x8777fdcd x20=0xfffffffe
       31805000	      3179	80003f10	1e40f993	andi	x19,x1,484	  x1:0x00000000 x19=0x00000000
       31815000	      3180	80003f14	01371293	slli	x5,x14,0x13	 x14:0x00000000  x5=0x00000000
       31825000	      3181	80003f18	03967063	bgeu	x12,x25,80003f38	 x12:0x8777fdc9 x25:0x00000000
       31835000	      3182	00000000	00000013	addi	x0,x0,0	  x0:0x00000000
       31845000	      3183	80003f34	00000013	addi	x0,x0,0	  x0:0x00000000
       31855000	      3184	80003f38	007c1663	bne	x24,x7,80003f44	 x24:0x00000000  x7:0x00000001
       31865000	      3185	00000000	00000013	addi	x0,x0,0	  x0:0x00000000
       31875000	      3186	80003f40	00000013	addi	x0,x0,0	  x0:0x00000000
       31885000	      3187	80003f44	03ad4463	blt	x26,x26,80003f6c	 x26:0x00000004 x26:0x00000004
       31895000	      3188	80003f48	01e1d393	srli	x7,x3,0x1e	  x3:0x00000001  x7=0x00000000
       31905000	      3189	80003f4c	04a19463	bne	x3,x10,80003f94	  x3:0x00000001 x10:0xfffffffc
       31915000	      3190	00000000	00000013	addi	x0,x0,0	  x0:0x00000000
       31925000	      3191	80003f90	00000013	addi	x0,x0,0	  x0:0x00000000
       31935000	      3192	80003f94	932a6593	ori	x11,x20,-1742	 x20:0xfffffffe x11=0xfffffffe
       31945000	      3193	80003f98	0109abb3	slt	x23,x19,x16	 x19:0x00000000 x16:0x00000001 x23=0x00000001
       31955000	      3194	80003f9c	401ed613	srai	x12,x29,0x1	 x29:0x00459dcd x12=0x0022cee6
       31965000	      3195	80003fa0	40015813	srai	x16,x2,0x0	  x2:0x37a9ddc4 x16=0x37a9ddc4
       31975000	      3196	80003fa4	c8b78093	addi	x1,x15,-885	 x15:0x80009fc4  x1=0x80009c4f
       31985000	      3197	80003fa8	01ed4833	xor	x16,x26,x30	 x26:0x00000004 x30:0xd375561b x16=0xd375561f
       31995000	      3198	80003fac	aa21e413	ori	x8,x3,-1374	  x3:0x00000001  x8=0xfffffaa3
       32005000	      3199	80003fb0	06e13213	sltiu	x4,x2,110	  x2:0x37a9ddc4  x4=0x00000000
       32015000	      3200	80003fb4	40d0dbb3	sra	x23,x1,x13	  x1:0x80009c4f x13:0x000005a1 x23=0xc0004e27
       32025000	      3201	80003fb8	14355597	auipc	x11,0x14355	 x11=0x94358fb4
       32035000	      3202	80003fbc	04f3f863	bgeu	x7,x15,8000400c	  x7:0x00000000 x15:0x80009fc4
       32045000	      3203	80003fc0	80fcdfb7	lui	x31,0x80fcd	 x31=0x80fcd000
       32055000	      3204	80003fc4	00e2d913	srli	x18,x5,0xe	  x5:0x00000000 x18=0x00000000
       32065000	      3205	80003fc8	d094acb7	lui	x25,0xd094a	 x25=0xd094a000
       32075000	      3206	80003fcc	0126d463	bge	x13,x18,80003fd4	 x13:0x000005a1 x18:0x00000000
       32085000	      3207	00000000	00000013	addi	x0,x0,0	  x0:0x00000000
       32095000	      3208	80003fd0	00000013	addi	x0,x0,0	  x0:0x00000000
       32105000	      3209	80003fd4	0331f063	bgeu	x3,x19,80003ff4	  x3:0x00000001 x19:0x00000000
       32115000	      3210	00000000	00000013	addi	x0,x0,0	  x0:0x00000000
       32125000	      3211	80003ff0	00000013	addi	x0,x0,0	  x0:0x00000000
       32135000	      3212	80003ff4	19b9a493	slti	x9,x19,411	 x19:0x00000000  x9=0x00000001
       32145000	      3213	80003ff8	005e9393	slli	x7,x29,0x5	 x29:0x00459dcd  x7=0x08b3b9a0
       32155000	      3214	80003ffc	01add4b3	srl	x9,x27,x26	 x27:0x00000000 x26:0x00000004  x9=0x00000000
       32165000	      3215	80004000	00b6b033	sltu	x0,x13,x11	 x13:0x000005a1 x11:0x94358fb4
       32175000	      3216	80004004	8d31bd93	sltiu	x27,x3,-1837	  x3:0x00000001 x27=0x00000001
       32185000	      3217	80004008	252e2d93	slti	x27,x28,594	 x28:0x00000000 x27=0x00000001
       32195000	      3218	8000400c	00d51463	bne	x10,x13,80004014	 x10:0xfffffffc x13:0x000005a1
       32205000	      3219	00000000	00000013	addi	x0,x0,0	  x0:0x00000000
       32215000	      3220	80004010	00000013	addi	x0,x0,0	  x0:0x00000000
       32225000	      3221	80004014	0ceaa413	slti	x8,x21,206	 x21:0x00000000  x8=0x00000001
       32235000	      3222	80004018	0008d013	srli	x0,x17,0x0	 x17:0x80009f2c
       32245000	      3223	8000401c	5208de97	auipc	x29,0x5208d	 x29=0xd2091018
       32255000	      3224	80004020	be0bf0b7	lui	x1,0xbe0bf	  x1=0xbe0bf000
       32265000	      3225	80004024	f5e54113	xori	x2,x10,-162	 x10:0xfffffffc  x2=0x000000a2
       32275000	      3226	80004028	01639463	bne	x7,x22,80004030	  x7:0x08b3b9a0 x22:0x396d876f
       32285000	      3227	00000000	00000013	addi	x0,x0,0	  x0:0x00000000
       32295000	      3228	8000402c	00000013	addi	x0,x0,0	  x0:0x00000000
       32305000	      3229	80004030	02891e63	bne	x18,x8,8000406c	 x18:0x00000000  x8:0x00000001
       32315000	      3230	00000000	00000013	addi	x0,x0,0	  x0:0x00000000
       32325000	      3231	80004068	00000013	addi	x0,x0,0	  x0:0x00000000
       32335000	      3232	8000406c	22eaa417	auipc	x8,0x22eaa	  x8=0xa2eae068
       32345000	      3233	80004070	00000013	addi	x0,x0,0	  x0:0x00000000
       32355000	      3234	80004074	14f63213	sltiu	x4,x12,335	 x12:0x0022cee6  x4=0x00000000
       32365000	      3235	80004078	0082d493	srli	x9,x5,0x8	  x5:0x00000000  x9=0x00000000
       32375000	      3236	8000407c	00e52f33	slt	x30,x10,x14	 x10:0xfffffffc x14:0x00000000 x30=0x00000001
       32385000	      3237	80004080	01e51b93	slli	x23,x10,0x1e	 x10:0xfffffffc x23=0x00000000
       32395000	      3238	80004084	0099db13	srli	x22,x19,0x9	 x19:0x00000000 x22=0x00000000
       32405000	      3239	80004088	0393d663	bge	x7,x25,800040b4	  x7:0x08b3b9a0 x25:0xd094a000
       32415000	      3240	00000000	00000013	addi	x0,x0,0	  x0:0x00000000
       32425000	      3241	800040b0	00000013	addi	x0,x0,0	  x0:0x00000000
       32435000	      3242	800040b4	03bbc463	blt	x23,x27,800040dc	 x23:0x00000000 x27:0x00000001
       32445000	      3243	00000000	00000013	addi	x0,x0,0	  x0:0x00000000
       32455000	      3244	800040d8	00000013	addi	x0,x0,0	  x0:0x00000000
       32465000	      3245	800040dc	c17ce813	ori	x16,x25,-1001	 x25:0xd094a000 x16=0xfffffc17
       32475000	      3246	800040e0	00d65093	srli	x1,x12,0xd	 x12:0x0022cee6  x1=0x00000116
       32485000	      3247	800040e4	017a21b3	slt	x3,x20,x23	 x20:0xfffffffe x23:0x00000000  x3=0x00000001
       32495000	      3248	800040e8	00b55463	bge	x10,x11,800040f0	 x10:0xfffffffc x11:0x94358fb4
       32505000	      3249	00000000	00000013	addi	x0,x0,0	  x0:0x00000000
       32515000	      3250	800040ec	00000013	addi	x0,x0,0	  x0:0x00000000
       32525000	      3251	800040f0	403f8133	sub	x2,x31,x3	 x31:0x80fcd000  x3:0x00000001  x2=0x80fccfff
       32535000	      3252	800040f4	40bb5313	srai	x6,x22,0xb	 x22:0x00000000  x6=0x00000000
       32545000	      3253	800040f8	0080ca33	xor	x20,x1,x8	  x1:0x00000116  x8:0xa2eae068 x20=0xa2eae17e
       32555000	      3254	800040fc	01589293	slli	x5,x17,0x15	 x17:0x80009f2c  x5=0xe5800000
       32565000	      3255	80004100	4ebd3913	sltiu	x18,x26,1259	 x26:0x00000004 x18=0x00000001
       32575000	      3256	80004104	01e90833	add	x16,x18,x30	 x18:0x00000001 x30:0x00000001 x16=0x00000002
       32585000	      3257	80004108	00aa5093	srli	x1,x20,0xa	 x20:0xa2eae17e  x1=0x0028bab8
       32595000	      3258	8000410c	43cda493	slti	x9,x27,1084	 x27:0x00000001  x9=0x00000001
       32605000	      3259	80004110	f70b3493	sltiu	x9,x22,-144	 x22:0x00000000  x9=0x00000001
       32615000	      3260	80004114	68804017	auipc	x0,0x68804	
       32625000	      3261	80004118	00badb33	srl	x22,x21,x11	 x21:0x00000000 x11:0x94358fb4 x22=0x00000000
       32635000	      3262	8000411c	b0e41f37	lui	x30,0xb0e41	 x30=0xb0e41000
       32645000	      3263	80004120	31cd3493	sltiu	x9,x26,796	 x26:0x00000004  x9=0x00000001
       32655000	      3264	80004124	01581863	bne	x16,x21,80004134	 x16:0x00000002 x21:0x00000000
       32665000	      3265	00000000	00000013	addi	x0,x0,0	  x0:0x00000000
       32675000	      3266	80004130	00000013	addi	x0,x0,0	  x0:0x00000000
       32685000	      3267	80004134	40098ab3	sub	x21,x19,x0	 x19:0x00000000  x0:0x00000000 x21=0x00000000
       32695000	      3268	80004138	0057bb33	sltu	x22,x15,x5	 x15:0x80009fc4  x5:0xe5800000 x22=0x00000001
       32705000	      3269	8000413c	0237d463	bge	x15,x3,80004164	 x15:0x80009fc4  x3:0x00000001
       32715000	      3270	80004140	f3873013	sltiu	x0,x14,-200	 x14:0x00000000
       32725000	      3271	80004144	a2599fb7	lui	x31,0xa2599	 x31=0xa2599000
       32735000	      3272	80004148	026c4263	blt	x24,x6,8000416c	 x24:0x00000000  x6:0x00000000
       32745000	      3273	8000414c	007da033	slt	x0,x27,x7	 x27:0x00000001  x7:0x08b3b9a0
       32755000	      3274	80004150	01aedf33	srl	x30,x29,x26	 x29:0xd2091018 x26:0x00000004 x30=0x0d209101
       32765000	      3275	80004154	02674c63	blt	x14,x6,8000418c	 x14:0x00000000  x6:0x00000000
       32775000	      3276	80004158	01de64b3	or	x9,x28,x29	 x28:0x00000000 x29:0xd2091018  x9=0xd2091018
       32785000	      3277	8000415c	00752a33	slt	x20,x10,x7	 x10:0xfffffffc  x7:0x08b3b9a0 x20=0x00000001
       32795000	      3278	80004160	40f05133	sra	x2,x0,x15	  x0:0x00000000 x15:0x80009fc4  x2=0x00000000
       32805000	      3279	80004164	012b51b3	srl	x3,x22,x18	 x22:0x00000001 x18:0x00000001  x3=0x00000000
       32815000	      3280	80004168	00000013	addi	x0,x0,0	  x0:0x00000000
       32825000	      3281	8000416c	00b6e533	or	x10,x13,x11	 x13:0x000005a1 x11:0x94358fb4 x10=0x94358fb5
       32835000	      3282	80004170	03fa5c63	bge	x20,x31,800041a8	 x20:0x00000001 x31:0xa2599000
       32845000	      3283	00000000	00000013	addi	x0,x0,0	  x0:0x00000000
       32855000	      3284	800041a4	00000013	addi	x0,x0,0	  x0:0x00000000
       32865000	      3285	800041a8	9af8f693	andi	x13,x17,-1617	 x17:0x80009f2c x13=0x8000992c
       32875000	      3286	800041ac	98d3c213	xori	x4,x7,-1651	  x7:0x08b3b9a0  x4=0xf74c402d
       32885000	      3287	800041b0	0152d213	srli	x4,x5,0x15	  x5:0xe5800000  x4=0x0000072c
       32895000	      3288	800041b4	01c7b033	sltu	x0,x15,x28	 x15:0x80009fc4 x28:0x00000000
       32905000	      3289	800041b8	add60013	addi	x0,x12,-1315	 x12:0x0022cee6
       32915000	      3290	800041bc	00857663	bgeu	x10,x8,800041c8	 x10:0x94358fb5  x8:0xa2eae068
       32925000	      3291	800041c0	02537863	bgeu	x6,x5,800041f0	  x6:0x00000000  x5:0xe5800000
       32935000	      3292	800041c4	01bd60b3	or	x1,x26,x27	 x26:0x00000004 x27:0x00000001  x1=0x00000005
       32945000	      3293	800041c8	01fa63b3	or	x7,x20,x31	 x20:0x00000001 x31:0xa2599000  x7=0xa2599001
       32955000	      3294	800041cc	9c723693	sltiu	x13,x4,-1593	  x4:0x0000072c x13=0x00000001
       32965000	      3295	800041d0	016ed493	srli	x9,x29,0x16	 x29:0xd2091018  x9=0x00000348
       32975000	      3296	800041d4	41b38033	sub	x0,x7,x27	  x7:0xa2599001 x27:0x00000001
       32985000	      3297	800041d8	83f93393	sltiu	x7,x18,-1985	 x18:0x00000001  x7=0x00000001
       32995000	      3298	800041dc	03e8ee63	bltu	x17,x30,80004218	 x17:0x80009f2c x30:0x0d209101
       33005000	      3299	800041e0	02ce1c63	bne	x28,x12,80004218	 x28:0x00000000 x12:0x0022cee6
       33015000	      3300	00000000	00000013	addi	x0,x0,0	  x0:0x00000000
       33025000	      3301	80004214	00000013	addi	x0,x0,0	  x0:0x00000000
       33035000	      3302	80004218	005a7c33	and	x24,x20,x5	 x20:0x00000001  x5:0xe5800000 x24=0x00000000
       33045000	      3303	8000421c	0163e4b3	or	x9,x7,x22	  x7:0x00000001 x22:0x00000001  x9=0x00000001
       33055000	      3304	80004220	01a6ebb3	or	x23,x13,x26	 x13:0x00000001 x26:0x00000004 x23=0x00000005
       33065000	      3305	80004224	0070bf33	sltu	x30,x1,x7	  x1:0x00000005  x7:0x00000001 x30=0x00000000
       33075000	      3306	80004228	004c8f33	add	x30,x25,x4	 x25:0xd094a000  x4:0x0000072c x30=0xd094a72c
       33085000	      3307	8000422c	00000013	addi	x0,x0,0	  x0:0x00000000
       33095000	      3308	80004230	04a15463	bge	x2,x10,80004278	  x2:0x00000000 x10:0x94358fb5
       33105000	      3309	00000000	00000013	addi	x0,x0,0	  x0:0x00000000
       33115000	      3310	80004274	00000013	addi	x0,x0,0	  x0:0x00000000
       33125000	      3311	80004278	41745413	srai	x8,x8,0x17	  x8:0xa2eae068  x8=0xffffff45
       33135000	      3312	8000427c	01cef533	and	x10,x29,x28	 x29:0xd2091018 x28:0x00000000 x10=0x00000000
       33145000	      3313	80004280	6646ec93	ori	x25,x13,1636	 x13:0x00000001 x25=0x00000665
       33155000	      3314	80004284	0229e863	bltu	x19,x2,800042b4	 x19:0x00000000  x2:0x00000000
       33165000	      3315	80004288	40818b33	sub	x22,x3,x8	  x3:0x00000000  x8:0xffffff45 x22=0x000000bb
       33175000	      3316	8000428c	bc254317	auipc	x6,0xbc254	  x6=0x3c258288
       33185000	      3317	80004290	301d6293	ori	x5,x26,769	 x26:0x00000004  x5=0x00000305
       33195000	      3318	80004294	0227d063	bge	x15,x2,800042b4	 x15:0x80009fc4  x2:0x00000000
       33205000	      3319	80004298	03bf6463	bltu	x30,x27,800042c0	 x30:0xd094a72c x27:0x00000001
       33215000	      3320	8000429c	9a0ba713	slti	x14,x23,-1632	 x23:0x00000005 x14=0x00000000
       33225000	      3321	800042a0	c1324a13	xori	x20,x4,-1005	  x4:0x0000072c x20=0xfffffb3f
       33235000	      3322	800042a4	41945533	sra	x10,x8,x25	  x8:0xffffff45 x25:0x00000665 x10=0xfffffffa
       33245000	      3323	800042a8	01865633	srl	x12,x12,x24	 x12:0x0022cee6 x24:0x00000000 x12=0x0022cee6
       33255000	      3324	800042ac	9f8d7613	andi	x12,x26,-1544	 x26:0x00000004 x12=0x00000000
       33265000	      3325	800042b0	013106b3	add	x13,x2,x19	  x2:0x00000000 x19:0x00000000 x13=0x00000000
       33275000	      3326	800042b4	41a6d593	srai	x11,x13,0x1a	 x13:0x00000000 x11=0x00000000
       33285000	      3327	800042b8	01f93133	sltu	x2,x18,x31	 x18:0x00000001 x31:0xa2599000  x2=0x00000001
       33295000	      3328	800042bc	40ded513	srai	x10,x29,0xd	 x29:0xd2091018 x10=0xfffe9048
       33305000	      3329	800042c0	4081d493	srai	x9,x3,0x8	  x3:0x00000000  x9=0x00000000
       33315000	      3330	800042c4	03360e63	beq	x12,x19,80004300	 x12:0x00000000 x19:0x00000000
       33325000	      3331	00000000	00000013	addi	x0,x0,0	  x0:0x00000000
       33335000	      3332	800042fc	00000013	addi	x0,x0,0	  x0:0x00000000
       33345000	      3333	80004300	f2ac8337	lui	x6,0xf2ac8	  x6=0xf2ac8000
       33355000	      3334	80004304	03b26663	bltu	x4,x27,80004330	  x4:0x0000072c x27:0x00000001
       33365000	      3335	80004308	00000013	addi	x0,x0,0	  x0:0x00000000
       33375000	      3336	8000430c	00000013	addi	x0,x0,0	  x0:0x00000000
       33385000	      3337	80004310	02ea1863	bne	x20,x14,80004340	 x20:0xfffffb3f x14:0x00000000
       33395000	      3338	00000000	00000013	addi	x0,x0,0	  x0:0x00000000
       33405000	      3339	8000433c	00000013	addi	x0,x0,0	  x0:0x00000000
       33415000	      3340	80004340	04771263	bne	x14,x7,80004384	 x14:0x00000000  x7:0x00000001
       33425000	      3341	00000000	00000013	addi	x0,x0,0	  x0:0x00000000
       33435000	      3342	80004380	00000013	addi	x0,x0,0	  x0:0x00000000
       33445000	      3343	80004384	bc893093	sltiu	x1,x18,-1080	 x18:0x00000001  x1=0x00000001
       33455000	      3344	80004388	016f59b3	srl	x19,x30,x22	 x30:0xd094a72c x22:0x000000bb x19=0x0000001a
       33465000	      3345	8000438c	01f19093	slli	x1,x3,0x1f	  x3:0x00000000  x1=0x00000000
       33475000	      3346	80004390	1360a293	slti	x5,x1,310	  x1:0x00000000  x5=0x00000001
       33485000	      3347	80004394	00c8da13	srli	x20,x17,0xc	 x17:0x80009f2c x20=0x00080009
       33495000	      3348	80004398	01534eb3	xor	x29,x6,x21	  x6:0xf2ac8000 x21:0x00000000 x29=0xf2ac8000
       33505000	      3349	8000439c	03ccdc63	bge	x25,x28,800043d4	 x25:0x00000665 x28:0x00000000
       33515000	      3350	00000000	00000013	addi	x0,x0,0	  x0:0x00000000
       33525000	      3351	800043d0	00000013	addi	x0,x0,0	  x0:0x00000000
       33535000	      3352	800043d4	0025ef33	or	x30,x11,x2	 x11:0x00000000  x2:0x00000001 x30=0x00000001
       33545000	      3353	800043d8	001b1eb3	sll	x29,x22,x1	 x22:0x000000bb  x1:0x00000000 x29=0x000000bb
       33555000	      3354	800043dc	01a7be33	sltu	x28,x15,x26	 x15:0x80009fc4 x26:0x00000004 x28=0x00000000
       33565000	      3355	800043e0	028f7063	bgeu	x30,x8,80004400	 x30:0x00000001  x8:0xffffff45
       33575000	      3356	800043e4	8090bc13	sltiu	x24,x1,-2039	  x1:0x00000000 x24=0x00000001
       33585000	      3357	800043e8	0115b1b3	sltu	x3,x11,x17	 x11:0x00000000 x17:0x80009f2c  x3=0x00000001
       33595000	      3358	800043ec	03c7d063	bge	x15,x28,8000440c	 x15:0x80009fc4 x28:0x00000000
       33605000	      3359	800043f0	00296e33	or	x28,x18,x2	 x18:0x00000001  x2:0x00000001 x28=0x00000001
       33615000	      3360	800043f4	02616463	bltu	x2,x6,8000441c	  x2:0x00000001  x6:0xf2ac8000
       33625000	      3361	00000000	00000013	addi	x0,x0,0	  x0:0x00000000
       33635000	      3362	80004418	00000013	addi	x0,x0,0	  x0:0x00000000
       33645000	      3363	8000441c	fdf43c93	sltiu	x25,x8,-33	  x8:0xffffff45 x25=0x00000001
       33655000	      3364	80004420	c9ef3593	sltiu	x11,x30,-866	 x30:0x00000001 x11=0x00000001
       33665000	      3365	80004424	40360633	sub	x12,x12,x3	 x12:0x00000000  x3:0x00000001 x12=0xffffffff
       33675000	      3366	80004428	0007fa63	bgeu	x15,x0,8000443c	 x15:0x80009fc4  x0:0x00000000
       33685000	      3367	00000000	00000013	addi	x0,x0,0	  x0:0x00000000
       33695000	      3368	80004438	00000013	addi	x0,x0,0	  x0:0x00000000
       33705000	      3369	8000443c	e6aee393	ori	x7,x29,-406	 x29:0x000000bb  x7=0xfffffefb
       33715000	      3370	80004440	c01ea193	slti	x3,x29,-1023	 x29:0x000000bb  x3=0x00000000
       33725000	      3371	80004444	00698333	add	x6,x19,x6	 x19:0x0000001a  x6:0xf2ac8000  x6=0xf2ac801a
       33735000	      3372	80004448	00004497	auipc	x9,0x4	  x9=0x80008444
       33745000	      3373	8000444c	1f548493	addi	x9,x9,501	  x9:0x80008444  x9=0x80008639
       33755000	      3374	80004450	13048283	lb	x5,304(x9)	  x9:0x80008639  x5=0xffffffff PA:0x80008769
       33765000	      3375	80004454	6a396113	ori	x2,x18,1699	 x18:0x00000001  x2=0x000006a3
       33775000	      3376	80004458	e6e497a3	sh	x14,-401(x9)	  x9:0x80008639 x14:0x00000000 PA:0x800084a8
       33785000	      3377	8000445c	5dc4a937	lui	x18,0x5dc4a	 x18=0x5dc4a000
       33795000	      3378	80004460	e1c4c003	lbu	x0,-484(x9)	  x9:0x80008639 PA:0x80008455
       33805000	      3379	80004464	16d49f03	lh	x30,365(x9)	  x9:0x80008639 x30=0xffffef2d PA:0x800087a6
       33815000	      3380	80004468	00bb0f33	add	x30,x22,x11	 x22:0x000000bb x11:0x00000001 x30=0x000000bc
       33825000	      3381	8000446c	7ce6d997	auipc	x19,0x7ce6d	 x19=0xfce71468
       33835000	      3382	80004470	cfc49ea3	sh	x28,-771(x9)	  x9:0x80008639 x28:0x00000001 PA:0x80008336
       33845000	      3383	80004474	07c4c203	lbu	x4,124(x9)	  x9:0x80008639  x4=0x0000000c PA:0x800086b5
       33855000	      3384	80004478	00000013	addi	x0,x0,0	  x0:0x00000000
       33865000	      3385	8000447c	ccd4cb03	lbu	x22,-819(x9)	  x9:0x80008639 x22=0x000000f3 PA:0x80008306
       33875000	      3386	80004480	10f4d503	lhu	x10,271(x9)	  x9:0x80008639 x10=0x00005000 PA:0x80008748
       33885000	      3387	80004484	dc04cd83	lbu	x27,-576(x9)	  x9:0x80008639 x27=0x000000d7 PA:0x800083f9
       33895000	      3388	80004488	01008833	add	x16,x1,x16	  x1:0x00000000 x16:0x00000002 x16=0x00000002
       33905000	      3389	8000448c	fee4ada3	sw	x14,-5(x9)	  x9:0x80008639 x14:0x00000000 PA:0x80008634
       33915000	      3390	80004490	010a63b3	or	x7,x20,x16	 x20:0x00080009 x16:0x00000002  x7=0x0008000b
       33925000	      3391	80004494	e59492a3	sh	x25,-443(x9)	  x9:0x80008639 x25:0x00000001 PA:0x8000847e
       33935000	      3392	80004498	38697e93	andi	x29,x18,902	 x18:0x5dc4a000 x29=0x00000000
       33945000	      3393	8000449c	00000013	addi	x0,x0,0	  x0:0x00000000
       33955000	      3394	800044a0	0c44ca83	lbu	x21,196(x9)	  x9:0x80008639 x21=0x00000085 PA:0x800086fd
       33965000	      3395	800044a4	4022d9b3	sra	x19,x5,x2	  x5:0xffffffff  x2:0x000006a3 x19=0xffffffff
       33975000	      3396	800044a8	adb48e23	sb	x27,-1316(x9)	  x9:0x80008639 x27:0x000000d7 PA:0x80008115
       33985000	      3397	800044ac	1da4c003	lbu	x0,474(x9)	  x9:0x80008639 PA:0x80008813
       33995000	      3398	800044b0	1c6490a3	sh	x6,449(x9)	  x9:0x80008639  x6:0xf2ac801a PA:0x800087fa
       34005000	      3399	800044b4	e9048c83	lb	x25,-368(x9)	  x9:0x80008639 x25=0x00000049 PA:0x800084c9
       34015000	      3400	800044b8	076492a3	sh	x22,101(x9)	  x9:0x80008639 x22:0x000000f3 PA:0x8000869e
       34025000	      3401	800044bc	cab93013	sltiu	x0,x18,-853	 x18:0x5dc4a000
       34035000	      3402	800044c0	ac348e23	sb	x3,-1316(x9)	  x9:0x80008639  x3:0x00000000 PA:0x80008115
       34045000	      3403	800044c4	003c9f93	slli	x31,x25,0x3	 x25:0x00000049 x31=0x00000248
       34055000	      3404	800044c8	0d948523	sb	x25,202(x9)	  x9:0x80008639 x25:0x00000049 PA:0x80008703
       34065000	      3405	800044cc	fcc48683	lb	x13,-52(x9)	  x9:0x80008639 x13=0xffffffb0 PA:0x80008605
       34075000	      3406	800044d0	03f7c063	blt	x15,x31,800044f0	 x15:0x80009fc4 x31:0x00000248
       34085000	      3407	00000000	00000013	addi	x0,x0,0	  x0:0x00000000
       34095000	      3408	800044ec	00000013	addi	x0,x0,0	  x0:0x00000000
       34105000	      3409	800044f0	0334d463	bge	x9,x19,80004518	  x9:0x80008639 x19:0xffffffff
       34115000	      3410	800044f4	039d6263	bltu	x26,x25,80004518	 x26:0x00000004 x25:0x00000049
       34125000	      3411	00000000	00000013	addi	x0,x0,0	  x0:0x00000000
       34135000	      3412	80004514	00000013	addi	x0,x0,0	  x0:0x00000000
       34145000	      3413	80004518	a7e8e693	ori	x13,x17,-1410	 x17:0x80009f2c x13=0xffffff7e
       34155000	      3414	8000451c	016c5a33	srl	x20,x24,x22	 x24:0x00000001 x22:0x000000f3 x20=0x00000000
       34165000	      3415	80004520	00000013	addi	x0,x0,0	  x0:0x00000000
       34175000	      3416	80004524	0130da33	srl	x20,x1,x19	  x1:0x00000000 x19:0xffffffff x20=0x00000000
       34185000	      3417	80004528	d7abb593	sltiu	x11,x23,-646	 x23:0x00000005 x11=0x00000001
       34195000	      3418	8000452c	00000013	addi	x0,x0,0	  x0:0x00000000
       34205000	      3419	80004530	4072d993	srai	x19,x5,0x7	  x5:0xffffffff x19=0xffffffff
       34215000	      3420	80004534	192a4693	xori	x13,x20,402	 x20:0x00000000 x13=0x00000192
       34225000	      3421	80004538	533e3613	sltiu	x12,x28,1331	 x28:0x00000001 x12=0x00000001
       34235000	      3422	8000453c	03c8c063	blt	x17,x28,8000455c	 x17:0x80009f2c x28:0x00000001
       34245000	      3423	00000000	00000013	addi	x0,x0,0	  x0:0x00000000
       34255000	      3424	80004558	00000013	addi	x0,x0,0	  x0:0x00000000
       34265000	      3425	8000455c	41290533	sub	x10,x18,x18	 x18:0x5dc4a000 x18:0x5dc4a000 x10=0x00000000
       34275000	      3426	80004560	03abfc63	bgeu	x23,x26,80004598	 x23:0x00000005 x26:0x00000004
       34285000	      3427	00000000	00000013	addi	x0,x0,0	  x0:0x00000000
       34295000	      3428	80004594	00000013	addi	x0,x0,0	  x0:0x00000000
       34305000	      3429	80004598	41e9db13	srai	x22,x19,0x1e	 x19:0xffffffff x22=0xffffffff
       34315000	      3430	8000459c	052baa13	slti	x20,x23,82	 x23:0x00000005 x20=0x00000001
       34325000	      3431	800045a0	0154c6b3	xor	x13,x9,x21	  x9:0x80008639 x21:0x00000085 x13=0x800086bc
       34335000	      3432	800045a4	00004117	auipc	x2,0x4	  x2=0x800085a0
       34345000	      3433	800045a8	4af10113	addi	x2,x2,1199	  x2:0x800085a0  x2=0x80008a4f
       34355000	      3434	800045ac	41cc0933	sub	x18,x24,x28	 x24:0x00000001 x28:0x00000001 x18=0x00000000
       34365000	      3435	800045b0	0f9c4993	xori	x19,x24,249	 x24:0x00000001 x19=0x000000f8
       34375000	      3436	800045b4	00269cb3	sll	x25,x13,x2	 x13:0x800086bc  x2:0x80008a4f x25=0x435e0000
       34385000	      3437	800045b8	56b5a813	slti	x16,x11,1387	 x11:0x00000001 x16=0x00000001
       34395000	      3438	800045bc	ff511283	lh	x5,-11(x2)	  x2:0x80008a4f  x5=0xffffb2cb PA:0x80008a44
       34405000	      3439	800045c0	00f15083	lhu	x1,15(x2)	  x2:0x80008a4f  x1=0x00001406 PA:0x80008a5e
       34415000	      3440	800045c4	ff311583	lh	x11,-13(x2)	  x2:0x80008a4f x11=0xffffe9c4 PA:0x80008a42
       34425000	      3441	800045c8	2e2b30b7	lui	x1,0x2e2b3	  x1=0x2e2b3000
       34435000	      3442	800045cc	ff610e83	lb	x29,-10(x2)	  x2:0x80008a4f x29=0xffffffb2 PA:0x80008a45
       34445000	      3443	800045d0	ffc10683	lb	x13,-4(x2)	  x2:0x80008a4f x13=0x00000044 PA:0x80008a4b
       34455000	      3444	800045d4	00000013	addi	x0,x0,0	  x0:0x00000000
       34465000	      3445	800045d8	00df02b3	add	x5,x30,x13	 x30:0x000000bc x13:0x00000044  x5=0x00000100
       34475000	      3446	800045dc	00210823	sb	x2,16(x2)	  x2:0x80008a4f  x2:0x80008a4f PA:0x80008a5f
       34485000	      3447	800045e0	ffc10583	lb	x11,-4(x2)	  x2:0x80008a4f x11=0x00000044 PA:0x80008a4b
       34495000	      3448	800045e4	41065eb3	sra	x29,x12,x16	 x12:0x00000001 x16:0x00000001 x29=0x00000000
       34505000	      3449	800045e8	0061d6b3	srl	x13,x3,x6	  x3:0x00000000  x6:0xf2ac801a x13=0x00000000
       34515000	      3450	800045ec	00a14c03	lbu	x24,10(x2)	  x2:0x80008a4f x24=0x000000d7 PA:0x80008a59
       34525000	      3451	800045f0	00028633	add	x12,x5,x0	  x5:0x00000100  x0:0x00000000 x12=0x00000100
       34535000	      3452	800045f4	00210083	lb	x1,2(x2)	  x2:0x80008a4f  x1=0x0000005a PA:0x80008a51
       34545000	      3453	800045f8	fec10823	sb	x12,-16(x2)	  x2:0x80008a4f x12:0x00000100 PA:0x80008a3f
       34555000	      3454	800045fc	95770393	addi	x7,x14,-1705	 x14:0x00000000  x7=0xfffff957
       34565000	      3455	80004600	24909a97	auipc	x21,0x24909	 x21=0xa490d5fc
       34575000	      3456	80004604	f6832693	slti	x13,x6,-152	  x6:0xf2ac801a x13=0x00000001
       34585000	      3457	80004608	013100a3	sb	x19,1(x2)	  x2:0x80008a4f x19:0x000000f8 PA:0x80008a50
       34595000	      3458	8000460c	4026d713	srai	x14,x13,0x2	 x13:0x00000001 x14=0x00000000
       34605000	      3459	80004610	ff811ea3	sh	x24,-3(x2)	  x2:0x80008a4f x24:0x000000d7 PA:0x80008a4c
       34615000	      3460	80004614	4024de13	srai	x28,x9,0x2	  x9:0x80008639 x28=0xe000218e
       34625000	      3461	80004618	9db724b7	lui	x9,0x9db72	  x9=0x9db72000
       34635000	      3462	8000461c	005126a3	sw	x5,13(x2)	  x2:0x80008a4f  x5:0x00000100 PA:0x80008a5c
       34645000	      3463	80004620	ff314003	lbu	x0,-13(x2)	  x2:0x80008a4f PA:0x80008a42
       34655000	      3464	80004624	ff914b83	lbu	x23,-7(x2)	  x2:0x80008a4f x23=0x000000f3 PA:0x80008a48
       34665000	      3465	00000000	00000013	addi	x0,x0,0	  x0:0x00000000
       34675000	      3466	80004628	01fbb5b3	sltu	x11,x23,x31	 x23:0x000000f3 x31:0x00000248 x11=0x00000001
       34685000	      3467	8000462c	0fe32413	slti	x8,x6,254	  x6:0xf2ac801a  x8=0x00000001
       34695000	      3468	80004630	4175d713	srai	x14,x11,0x17	 x11:0x00000001 x14=0x00000000
       34705000	      3469	80004634	01d2f033	and	x0,x5,x29	  x5:0x00000100 x29:0x00000000
       34715000	      3470	80004638	02a09863	bne	x1,x10,80004668	  x1:0x0000005a x10:0x00000000
       34725000	      3471	00000000	00000013	addi	x0,x0,0	  x0:0x00000000
       34735000	      3472	80004664	00000013	addi	x0,x0,0	  x0:0x00000000
       34745000	      3473	80004668	9ed36413	ori	x8,x6,-1555	  x6:0xf2ac801a  x8=0xfffff9ff
       34755000	      3474	8000466c	0027d933	srl	x18,x15,x2	 x15:0x80009fc4  x2:0x80008a4f x18=0x00010001
       34765000	      3475	80004670	ad766c13	ori	x24,x12,-1321	 x12:0x00000100 x24=0xfffffbd7
       34775000	      3476	80004674	00f75eb3	srl	x29,x14,x15	 x14:0x00000000 x15:0x80009fc4 x29=0x00000000
       34785000	      3477	80004678	017d4b33	xor	x22,x26,x23	 x26:0x00000004 x23:0x000000f3 x22=0x000000f7
       34795000	      3478	8000467c	00cc0a63	beq	x24,x12,80004690	 x24:0xfffffbd7 x12:0x00000100
       34805000	      3479	80004680	00b960b3	or	x1,x18,x11	 x18:0x00010001 x11:0x00000001  x1=0x00010001
       34815000	      3480	80004684	66fd0c97	auipc	x25,0x66fd0	 x25=0xe6fd4680
       34825000	      3481	80004688	416b5593	srai	x11,x22,0x16	 x22:0x000000f7 x11=0x00000000
       34835000	      3482	8000468c	ad8ccf93	xori	x31,x25,-1320	 x25:0xe6fd4680 x31=0x1902bc58
       34845000	      3483	80004690	96f1ccb7	lui	x25,0x96f1c	 x25=0x96f1c000
       34855000	      3484	80004694	566ae413	ori	x8,x21,1382	 x21:0xa490d5fc  x8=0xa490d5fe
       34865000	      3485	80004698	01ba7b33	and	x22,x20,x27	 x20:0x00000001 x27:0x000000d7 x22=0x00000001
       34875000	      3486	8000469c	004a4463	blt	x20,x4,800046a4	 x20:0x00000001  x4:0x0000000c
       34885000	      3487	00000000	00000013	addi	x0,x0,0	  x0:0x00000000
       34895000	      3488	800046a0	00000013	addi	x0,x0,0	  x0:0x00000000
       34905000	      3489	800046a4	40735113	srai	x2,x6,0x7	  x6:0xf2ac801a  x2=0xffe55900
       34915000	      3490	800046a8	9a4b5a97	auipc	x21,0x9a4b5	 x21=0x1a4b96a4
       34925000	      3491	800046ac	5440e213	ori	x4,x1,1348	  x1:0x00010001  x4=0x00010545
       34935000	      3492	800046b0	1660b213	sltiu	x4,x1,358	  x1:0x00010001  x4=0x00000000
       34945000	      3493	800046b4	40b75b93	srai	x23,x14,0xb	 x14:0x00000000 x23=0x00000000
       34955000	      3494	800046b8	41060bb3	sub	x23,x12,x16	 x12:0x00000100 x16:0x00000001 x23=0x000000ff
       34965000	      3495	800046bc	01dbefb3	or	x31,x23,x29	 x23:0x000000ff x29:0x00000000 x31=0x000000ff
       34975000	      3496	800046c0	7ac6e013	ori	x0,x13,1964	 x13:0x00000001
       34985000	      3497	800046c4	01a00a63	beq	x0,x26,800046d8	  x0:0x00000000 x26:0x00000004
       34995000	      3498	800046c8	0cb31a63	bne	x6,x11,8000479c	  x6:0xf2ac801a x11:0x00000000
       35005000	      3499	00000000	00000013	addi	x0,x0,0	  x0:0x00000000
       35015000	      3500	80004798	00000013	addi	x0,x0,0	  x0:0x00000000
       35025000	      3501	8000479c	d323f313	andi	x6,x7,-718	  x7:0xfffff957  x6=0xfffff912
       35035000	      3502	800047a0	024f1263	bne	x30,x4,800047c4	 x30:0x000000bc  x4:0x00000000
       35045000	      3503	00000000	00000013	addi	x0,x0,0	  x0:0x00000000
       35055000	      3504	800047c0	00000013	addi	x0,x0,0	  x0:0x00000000
       35065000	      3505	800047c4	3b89ea37	lui	x20,0x3b89e	 x20=0x3b89e000
       35075000	      3506	800047c8	02f9d463	bge	x19,x15,800047f0	 x19:0x000000f8 x15:0x80009fc4
       35085000	      3507	00000000	00000013	addi	x0,x0,0	  x0:0x00000000
       35095000	      3508	800047ec	00000013	addi	x0,x0,0	  x0:0x00000000
       35105000	      3509	800047f0	dafe5837	lui	x16,0xdafe5	 x16=0xdafe5000
       35115000	      3510	800047f4	02c07c63	bgeu	x0,x12,8000482c	  x0:0x00000000 x12:0x00000100
       35125000	      3511	800047f8	01c0f6b3	and	x13,x1,x28	  x1:0x00010001 x28:0xe000218e x13=0x00000000
       35135000	      3512	800047fc	009920b3	slt	x1,x18,x9	 x18:0x00010001  x9:0x9db72000  x1=0x00000000
       35145000	      3513	80004800	413f0eb3	sub	x29,x30,x19	 x30:0x000000bc x19:0x000000f8 x29=0xffffffc4
       35155000	      3514	80004804	028a5063	bge	x20,x8,80004824	 x20:0x3b89e000  x8:0xa490d5fe
       35165000	      3515	00000000	00000013	addi	x0,x0,0	  x0:0x00000000
       35175000	      3516	80004820	00000013	addi	x0,x0,0	  x0:0x00000000
       35185000	      3517	80004824	4149d133	sra	x2,x19,x20	 x19:0x000000f8 x20:0x3b89e000  x2=0x000000f8
       35195000	      3518	80004828	01b9ce33	xor	x28,x19,x27	 x19:0x000000f8 x27:0x000000d7 x28=0x0000002f
       35205000	      3519	8000482c	014360b3	or	x1,x6,x20	  x6:0xfffff912 x20:0x3b89e000  x1=0xfffff912
       35215000	      3520	80004830	02bf4e63	blt	x30,x11,8000486c	 x30:0x000000bc x11:0x00000000
       35225000	      3521	80004834	00aada33	srl	x20,x21,x10	 x21:0x1a4b96a4 x10:0x00000000 x20=0x1a4b96a4
       35235000	      3522	80004838	403e8ab3	sub	x21,x29,x3	 x29:0xffffffc4  x3:0x00000000 x21=0xffffffc4
       35245000	      3523	8000483c	02528e63	beq	x5,x5,80004878	  x5:0x00000100  x5:0x00000100
       35255000	      3524	00000000	00000013	addi	x0,x0,0	  x0:0x00000000
       35265000	      3525	80004874	00000013	addi	x0,x0,0	  x0:0x00000000
       35275000	      3526	80004878	41e75093	srai	x1,x14,0x1e	 x14:0x00000000  x1=0x00000000
       35285000	      3527	8000487c	dbd4e513	ori	x10,x9,-579	  x9:0x9db72000 x10=0xfffffdbd
       35295000	      3528	80004880	03236c63	bltu	x6,x18,800048b8	  x6:0xfffff912 x18:0x00010001
       35305000	      3529	80004884	02fe4063	blt	x28,x15,800048a4	 x28:0x0000002f x15:0x80009fc4
       35315000	      3530	80004888	0137ba33	sltu	x20,x15,x19	 x15:0x80009fc4 x19:0x000000f8 x20=0x00000000
       35325000	      3531	8000488c	016003b3	add	x7,x0,x22	  x0:0x00000000 x22:0x00000001  x7=0x00000001
       35335000	      3532	80004890	015886b3	add	x13,x17,x21	 x17:0x80009f2c x21:0xffffffc4 x13=0x80009ef0
       35345000	      3533	80004894	034ee063	bltu	x29,x20,800048b4	 x29:0xffffffc4 x20:0x00000000
       35355000	      3534	80004898	01a1b633	sltu	x12,x3,x26	  x3:0x00000000 x26:0x00000004 x12=0x00000001
       35365000	      3535	8000489c	018f5333	srl	x6,x30,x24	 x30:0x000000bc x24:0xfffffbd7  x6=0x00000000
       35375000	      3536	800048a0	cdcd0413	addi	x8,x26,-804	 x26:0x00000004  x8=0xfffffce0
       35385000	      3537	800048a4	00cb6433	or	x8,x22,x12	 x22:0x00000001 x12:0x00000001  x8=0x00000001
       35395000	      3538	800048a8	011ac333	xor	x6,x21,x17	 x21:0xffffffc4 x17:0x80009f2c  x6=0x7fff60e8
       35405000	      3539	800048ac	01270463	beq	x14,x18,800048b4	 x14:0x00000000 x18:0x00010001
       35415000	      3540	800048b0	b6e02a93	slti	x21,x0,-1170	  x0:0x00000000 x21=0x00000000
       35425000	      3541	800048b4	00771733	sll	x14,x14,x7	 x14:0x00000000  x7:0x00000001 x14=0x00000000
       35435000	      3542	800048b8	54adee93	ori	x29,x27,1354	 x27:0x000000d7 x29=0x000005df
       35445000	      3543	800048bc	83dc0593	addi	x11,x24,-1987	 x24:0xfffffbd7 x11=0xfffff414
       35455000	      3544	800048c0	5e2ede37	lui	x28,0x5e2ed	 x28=0x5e2ed000
       35465000	      3545	800048c4	7d1d4b13	xori	x22,x26,2001	 x26:0x00000004 x22=0x000007d5
       35475000	      3546	800048c8	00df9813	slli	x16,x31,0xd	 x31:0x000000ff x16=0x001fe000
       35485000	      3547	800048cc	4b403913	sltiu	x18,x0,1204	  x0:0x00000000 x18=0x00000001
       35495000	      3548	800048d0	01fdc033	xor	x0,x27,x31	 x27:0x000000d7 x31:0x000000ff
       35505000	      3549	800048d4	025bce63	blt	x23,x5,80004910	 x23:0x000000ff  x5:0x00000100
       35515000	      3550	00000000	00000013	addi	x0,x0,0	  x0:0x00000000
       35525000	      3551	8000490c	00000013	addi	x0,x0,0	  x0:0x00000000
       35535000	      3552	80004910	00000013	addi	x0,x0,0	  x0:0x00000000
       35545000	      3553	80004914	ff53a313	slti	x6,x7,-11	  x7:0x00000001  x6=0x00000000
       35555000	      3554	80004918	6aca4193	xori	x3,x20,1708	 x20:0x00000000  x3=0x000006ac
       35565000	      3555	8000491c	41c45213	srai	x4,x8,0x1c	  x8:0x00000001  x4=0x00000000
       35575000	      3556	80004920	01775193	srli	x3,x14,0x17	 x14:0x00000000  x3=0x00000000
       35585000	      3557	80004924	009f4e33	xor	x28,x30,x9	 x30:0x000000bc  x9:0x9db72000 x28=0x9db720bc
       35595000	      3558	80004928	02ee0c63	beq	x28,x14,80004960	 x28:0x9db720bc x14:0x00000000
       35605000	      3559	8000492c	03b90063	beq	x18,x27,8000494c	 x18:0x00000001 x27:0x000000d7
       35615000	      3560	80004930	b5e77613	andi	x12,x14,-1186	 x14:0x00000000 x12=0x00000000
       35625000	      3561	80004934	017761b3	or	x3,x14,x23	 x14:0x00000000 x23:0x000000ff  x3=0x000000ff
       35635000	      3562	80004938	01191733	sll	x14,x18,x17	 x18:0x00000001 x17:0x80009f2c x14=0x00001000
       35645000	      3563	8000493c	01abc2b3	xor	x5,x23,x26	 x23:0x000000ff x26:0x00000004  x5=0x000000fb
       35655000	      3564	80004940	011f8b33	add	x22,x31,x17	 x31:0x000000ff x17:0x80009f2c x22=0x8000a02b
       35665000	      3565	80004944	0007a1b3	slt	x3,x15,x0	 x15:0x80009fc4  x0:0x00000000  x3=0x00000001
       35675000	      3566	80004948	003554b3	srl	x9,x10,x3	 x10:0xfffffdbd  x3:0x00000001  x9=0x7ffffede
       35685000	      3567	8000494c	013c1f93	slli	x31,x24,0x13	 x24:0xfffffbd7 x31=0xdeb80000
       35695000	      3568	80004950	ea336993	ori	x19,x6,-349	  x6:0x00000000 x19=0xfffffea3
       35705000	      3569	80004954	007be863	bltu	x23,x7,80004964	 x23:0x000000ff  x7:0x00000001
       35715000	      3570	80004958	6dd7fd93	andi	x27,x15,1757	 x15:0x80009fc4 x27=0x000006c4
       35725000	      3571	8000495c	11006b13	ori	x22,x0,272	  x0:0x00000000 x22=0x00000110
       35735000	      3572	80004960	000333b3	sltu	x7,x6,x0	  x6:0x00000000  x0:0x00000000  x7=0x00000000
       35745000	      3573	80004964	01dc5593	srli	x11,x24,0x1d	 x24:0xfffffbd7 x11=0x00000007
       35755000	      3574	80004968	00a310b3	sll	x1,x6,x10	  x6:0x00000000 x10:0xfffffdbd  x1=0x00000000
       35765000	      3575	8000496c	03e59463	bne	x11,x30,80004994	 x11:0x00000007 x30:0x000000bc
       35775000	      3576	00000000	00000013	addi	x0,x0,0	  x0:0x00000000
       35785000	      3577	80004990	00000013	addi	x0,x0,0	  x0:0x00000000
       35795000	      3578	80004994	0148d393	srli	x7,x17,0x14	 x17:0x80009f2c  x7=0x00000800
       35805000	      3579	80004998	00c630b3	sltu	x1,x12,x12	 x12:0x00000000 x12:0x00000000  x1=0x00000000
       35815000	      3580	8000499c	0332c863	blt	x5,x19,800049cc	  x5:0x000000fb x19:0xfffffea3
       35825000	      3581	800049a0	92ecc613	xori	x12,x25,-1746	 x25:0x96f1c000 x12=0x690e392e
       35835000	      3582	800049a4	03a3d463	bge	x7,x26,800049cc	  x7:0x00000800 x26:0x00000004
       35845000	      3583	00000000	00000013	addi	x0,x0,0	  x0:0x00000000
       35855000	      3584	800049c8	00000013	addi	x0,x0,0	  x0:0x00000000
       35865000	      3585	800049cc	e2217493	andi	x9,x2,-478	  x2:0x000000f8  x9=0x00000020
       35875000	      3586	800049d0	00f774b3	and	x9,x14,x15	 x14:0x00001000 x15:0x80009fc4  x9=0x00001000
       35885000	      3587	800049d4	01395613	srli	x12,x18,0x13	 x18:0x00000001 x12=0x00000000
       35895000	      3588	800049d8	03464c63	blt	x12,x20,80004a10	 x12:0x00000000 x20:0x00000000
       35905000	      3589	800049dc	00000013	addi	x0,x0,0	  x0:0x00000000
       35915000	      3590	800049e0	001a94b3	sll	x9,x21,x1	 x21:0x00000000  x1:0x00000000  x9=0x00000000
       35925000	      3591	800049e4	00000013	addi	x0,x0,0	  x0:0x00000000
       35935000	      3592	800049e8	00101633	sll	x12,x0,x1	  x0:0x00000000  x1:0x00000000 x12=0x00000000
       35945000	      3593	800049ec	03311863	bne	x2,x19,80004a1c	  x2:0x000000f8 x19:0xfffffea3
       35955000	      3594	00000000	00000013	addi	x0,x0,0	  x0:0x00000000
       35965000	      3595	80004a18	00000013	addi	x0,x0,0	  x0:0x00000000
       35975000	      3596	80004a1c	00000013	addi	x0,x0,0	  x0:0x00000000
       35985000	      3597	80004a20	e95c3a13	sltiu	x20,x24,-363	 x24:0xfffffbd7 x20=0x00000001
       35995000	      3598	80004a24	762fc813	xori	x16,x31,1890	 x31:0xdeb80000 x16=0xdeb80762
       36005000	      3599	80004a28	01cf1733	sll	x14,x30,x28	 x30:0x000000bc x28:0x9db720bc x14=0xc0000000
       36015000	      3600	80004a2c	00a85333	srl	x6,x16,x10	 x16:0xdeb80762 x10:0xfffffdbd  x6=0x00000006
       36025000	      3601	80004a30	016a3a33	sltu	x20,x20,x22	 x20:0x00000001 x22:0x00000110 x20=0x00000001
       36035000	      3602	80004a34	91b69097	auipc	x1,0x91b69	  x1=0x11b6da30
       36045000	      3603	80004a38	41145fb3	sra	x31,x8,x17	  x8:0x00000001 x17:0x80009f2c x31=0x00000000
       36055000	      3604	80004a3c	00b73a33	sltu	x20,x14,x11	 x14:0xc0000000 x11:0x00000007 x20=0x00000000
       36065000	      3605	80004a40	00e33ab3	sltu	x21,x6,x14	  x6:0x00000006 x14:0xc0000000 x21=0x00000001
       36075000	      3606	80004a44	01d71293	slli	x5,x14,0x1d	 x14:0xc0000000  x5=0x00000000
       36085000	      3607	80004a48	408f5a93	srai	x21,x30,0x8	 x30:0x000000bc x21=0x00000000
       36095000	      3608	80004a4c	c0ad8493	addi	x9,x27,-1014	 x27:0x000006c4  x9=0x000002ce
       36105000	      3609	80004a50	00000013	addi	x0,x0,0	  x0:0x00000000
       36115000	      3610	80004a54	00b37463	bgeu	x6,x11,80004a5c	  x6:0x00000006 x11:0x00000007
       36125000	      3611	80004a58	003ab533	sltu	x10,x21,x3	 x21:0x00000000  x3:0x00000001 x10=0x00000001
       36135000	      3612	80004a5c	017a7433	and	x8,x20,x23	 x20:0x00000000 x23:0x000000ff  x8=0x00000000
       36145000	      3613	80004a60	00959a13	slli	x20,x11,0x9	 x11:0x00000007 x20=0x00000e00
       36155000	      3614	80004a64	04d69863	bne	x13,x13,80004ab4	 x13:0x80009ef0 x13:0x80009ef0
       36165000	      3615	80004a68	00000013	addi	x0,x0,0	  x0:0x00000000
       36175000	      3616	80004a6c	30d17b93	andi	x23,x2,781	  x2:0x000000f8 x23=0x00000008
       36185000	      3617	80004a70	003ab633	sltu	x12,x21,x3	 x21:0x00000000  x3:0x00000001 x12=0x00000001
       36195000	      3618	80004a74	005ef033	and	x0,x29,x5	 x29:0x000005df  x5:0x00000000
       36205000	      3619	80004a78	0475d263	bge	x11,x7,80004abc	 x11:0x00000007  x7:0x00000800
       36215000	      3620	80004a7c	00f2cb33	xor	x22,x5,x15	  x5:0x00000000 x15:0x80009fc4 x22=0x80009fc4
       36225000	      3621	80004a80	f508fa37	lui	x20,0xf508f	 x20=0xf508f000
       36235000	      3622	80004a84	0da43a13	sltiu	x20,x8,218	  x8:0x00000000 x20=0x00000001
       36245000	      3623	80004a88	c12aa193	slti	x3,x21,-1006	 x21:0x00000000  x3=0x00000000
       36255000	      3624	80004a8c	f5704e93	xori	x29,x0,-169	  x0:0x00000000 x29=0xffffff57
       36265000	      3625	80004a90	1a3e4e17	auipc	x28,0x1a3e4	 x28=0x9a3e8a8c
       36275000	      3626	80004a94	001a9b33	sll	x22,x21,x1	 x21:0x00000000  x1:0x11b6da30 x22=0x00000000
       36285000	      3627	80004a98	152ae113	ori	x2,x21,338	 x21:0x00000000  x2=0x00000152
       36295000	      3628	80004a9c	da2c1197	auipc	x3,0xda2c1	  x3=0x5a2c5a98
       36305000	      3629	80004aa0	0162d533	srl	x10,x5,x22	  x5:0x00000000 x22:0x00000000 x10=0x00000000
       36315000	      3630	80004aa4	0077f133	and	x2,x15,x7	 x15:0x80009fc4  x7:0x00000800  x2=0x00000800
       36325000	      3631	80004aa8	014a1433	sll	x8,x20,x20	 x20:0x00000001 x20:0x00000001  x8=0x00000002
       36335000	      3632	80004aac	0056b2b3	sltu	x5,x13,x5	 x13:0x80009ef0  x5:0x00000000  x5=0x00000000
       36345000	      3633	80004ab0	75938f93	addi	x31,x7,1881	  x7:0x00000800 x31=0x00000f59
       36355000	      3634	80004ab4	9c703693	sltiu	x13,x0,-1593	  x0:0x00000000 x13=0x00000001
       36365000	      3635	80004ab8	00caa333	slt	x6,x21,x12	 x21:0x00000000 x12:0x00000001  x6=0x00000001
       36375000	      3636	80004abc	4fcd7a13	andi	x20,x26,1276	 x26:0x00000004 x20=0x00000004
       36385000	      3637	80004ac0	00d61293	slli	x5,x12,0xd	 x12:0x00000001  x5=0x00002000
       36395000	      3638	80004ac4	01597233	and	x4,x18,x21	 x18:0x00000001 x21:0x00000000  x4=0x00000000
       36405000	      3639	80004ac8	9b6f0b93	addi	x23,x30,-1610	 x30:0x000000bc x23=0xfffffa72
       36415000	      3640	80004acc	01995013	srli	x0,x18,0x19	 x18:0x00000001
       36425000	      3641	80004ad0	00e5cf33	xor	x30,x11,x14	 x11:0x00000007 x14:0xc0000000 x30=0xc0000007
       36435000	      3642	80004ad4	409055b3	sra	x11,x0,x9	  x0:0x00000000  x9:0x000002ce x11=0x00000000
       36445000	      3643	80004ad8	01d75663	bge	x14,x29,80004ae4	 x14:0xc0000000 x29:0xffffff57
       36455000	      3644	80004adc	4023d2b3	sra	x5,x7,x2	  x7:0x00000800  x2:0x00000800  x5=0x00000800
       36465000	      3645	80004ae0	41455513	srai	x10,x10,0x14	 x10:0x00000000 x10=0x00000000
       36475000	      3646	80004ae4	01b09a63	bne	x1,x27,80004af8	  x1:0x11b6da30 x27:0x000006c4
       36485000	      3647	00000000	00000013	addi	x0,x0,0	  x0:0x00000000
       36495000	      3648	80004af4	00000013	addi	x0,x0,0	  x0:0x00000000
       36505000	      3649	80004af8	02bdd863	bge	x27,x11,80004b28	 x27:0x000006c4 x11:0x00000000
       36515000	      3650	00000000	00000013	addi	x0,x0,0	  x0:0x00000000
       36525000	      3651	80004b24	00000013	addi	x0,x0,0	  x0:0x00000000
       36535000	      3652	80004b28	00101813	slli	x16,x0,0x1	  x0:0x00000000 x16=0x00000000
       36545000	      3653	80004b2c	4066d1b3	sra	x3,x13,x6	 x13:0x00000001  x6:0x00000001  x3=0x00000000
       36555000	      3654	80004b30	00145493	srli	x9,x8,0x1	  x8:0x00000002  x9=0x00000001
       36565000	      3655	80004b34	e50dea13	ori	x20,x27,-432	 x27:0x000006c4 x20=0xfffffed4
       36575000	      3656	80004b38	3b803a13	sltiu	x20,x0,952	  x0:0x00000000 x20=0x00000001
       36585000	      3657	80004b3c	00239a63	bne	x7,x2,80004b50	  x7:0x00000800  x2:0x00000800
       36595000	      3658	80004b40	01f59c13	slli	x24,x11,0x1f	 x11:0x00000000 x24=0x00000000
       36605000	      3659	80004b44	007e9193	slli	x3,x29,0x7	 x29:0xffffff57  x3=0xffffab80
       36615000	      3660	80004b48	d4c22493	slti	x9,x4,-692	  x4:0x00000000  x9=0x00000000
       36625000	      3661	80004b4c	40615093	srai	x1,x2,0x6	  x2:0x00000800  x1=0x00000020
       36635000	      3662	80004b50	00629d93	slli	x27,x5,0x6	  x5:0x00000800 x27=0x00020000
       36645000	      3663	80004b54	05798263	beq	x19,x23,80004b98	 x19:0xfffffea3 x23:0xfffffa72
       36655000	      3664	80004b58	0175d513	srli	x10,x11,0x17	 x11:0x00000000 x10=0x00000000
       36665000	      3665	80004b5c	01fcd833	srl	x16,x25,x31	 x25:0x96f1c000 x31:0x00000f59 x16=0x0000004b
       36675000	      3666	80004b60	0289c463	blt	x19,x8,80004b88	 x19:0xfffffea3  x8:0x00000002
       36685000	      3667	00000000	00000013	addi	x0,x0,0	  x0:0x00000000
       36695000	      3668	80004b84	00000013	addi	x0,x0,0	  x0:0x00000000
       36705000	      3669	80004b88	008a1293	slli	x5,x20,0x8	 x20:0x00000001  x5=0x00000100
       36715000	      3670	80004b8c	402e5613	srai	x12,x28,0x2	 x28:0x9a3e8a8c x12=0xe68fa2a3
       36725000	      3671	80004b90	01e125b3	slt	x11,x2,x30	  x2:0x00000800 x30:0xc0000007 x11=0x00000000
       36735000	      3672	80004b94	bf31fc13	andi	x24,x3,-1037	  x3:0xffffab80 x24=0xffffab80
       36745000	      3673	80004b98	015563b3	or	x7,x10,x21	 x10:0x00000000 x21:0x00000000  x7=0x00000000
       36755000	      3674	80004b9c	00d45613	srli	x12,x8,0xd	  x8:0x00000002 x12=0x00000000
       36765000	      3675	80004ba0	548a7b93	andi	x23,x20,1352	 x20:0x00000001 x23=0x00000000
       36775000	      3676	80004ba4	00000013	addi	x0,x0,0	  x0:0x00000000
       36785000	      3677	80004ba8	01747a63	bgeu	x8,x23,80004bbc	  x8:0x00000002 x23:0x00000000
       36795000	      3678	00000000	00000013	addi	x0,x0,0	  x0:0x00000000
       36805000	      3679	80004bb8	00000013	addi	x0,x0,0	  x0:0x00000000
       36815000	      3680	80004bbc	01b7cab3	xor	x21,x15,x27	 x15:0x80009fc4 x27:0x00020000 x21=0x80029fc4
       36825000	      3681	80004bc0	00af9013	slli	x0,x31,0xa	 x31:0x00000f59
       36835000	      3682	80004bc4	000d93b3	sll	x7,x27,x0	 x27:0x00020000  x0:0x00000000  x7=0x00020000
       36845000	      3683	80004bc8	41835533	sra	x10,x6,x24	  x6:0x00000001 x24:0xffffab80 x10=0x00000001
       36855000	      3684	80004bcc	00cb7e33	and	x28,x22,x12	 x22:0x00000000 x12:0x00000000 x28=0x00000000
       36865000	      3685	80004bd0	02fb4063	blt	x22,x15,80004bf0	 x22:0x00000000 x15:0x80009fc4
       36875000	      3686	80004bd4	015b9cb3	sll	x25,x23,x21	 x23:0x00000000 x21:0x80029fc4 x25=0x00000000
       36885000	      3687	80004bd8	001b4c13	xori	x24,x22,1	 x22:0x00000000 x24=0x00000001
       36895000	      3688	80004bdc	40dc5e33	sra	x28,x24,x13	 x24:0x00000001 x13:0x00000001 x28=0x00000000
       36905000	      3689	80004be0	00000013	addi	x0,x0,0	  x0:0x00000000
       36915000	      3690	80004be4	00b39513	slli	x10,x7,0xb	  x7:0x00020000 x10=0x10000000
       36925000	      3691	80004be8	025f7463	bgeu	x30,x5,80004c10	 x30:0xc0000007  x5:0x00000100
       36935000	      3692	00000000	00000013	addi	x0,x0,0	  x0:0x00000000
       36945000	      3693	80004c0c	00000013	addi	x0,x0,0	  x0:0x00000000
       36955000	      3694	80004c10	00bb16b3	sll	x13,x22,x11	 x22:0x00000000 x11:0x00000000 x13=0x00000000
       36965000	      3695	80004c14	00000013	addi	x0,x0,0	  x0:0x00000000
       36975000	      3696	80004c18	5b222193	slti	x3,x4,1458	  x4:0x00000000  x3=0x00000001
       36985000	      3697	80004c1c	001da1b3	slt	x3,x27,x1	 x27:0x00020000  x1:0x00000020  x3=0x00000000
       36995000	      3698	80004c20	8605c497	auipc	x9,0x8605c	  x9=0x06060c1c
       37005000	      3699	80004c24	012b5db3	srl	x27,x22,x18	 x22:0x00000000 x18:0x00000001 x27=0x00000000
       37015000	      3700	80004c28	00000013	addi	x0,x0,0	  x0:0x00000000
       37025000	      3701	80004c2c	032bd063	bge	x23,x18,80004c4c	 x23:0x00000000 x18:0x00000001
       37035000	      3702	80004c30	006fa433	slt	x8,x31,x6	 x31:0x00000f59  x6:0x00000001  x8=0x00000000
       37045000	      3703	80004c34	5ca26c13	ori	x24,x4,1482	  x4:0x00000000 x24=0x000005ca
       37055000	      3704	80004c38	91f34693	xori	x13,x6,-1761	  x6:0x00000001 x13=0xfffff91e
       37065000	      3705	80004c3c	92933113	sltiu	x2,x6,-1751	  x6:0x00000001  x2=0x00000001
       37075000	      3706	80004c40	41230833	sub	x16,x6,x18	  x6:0x00000001 x18:0x00000001 x16=0x00000000
       37085000	      3707	80004c44	0093d113	srli	x2,x7,0x9	  x7:0x00020000  x2=0x00000100
       37095000	      3708	80004c48	01341663	bne	x8,x19,80004c54	  x8:0x00000000 x19:0xfffffea3
       37105000	      3709	00000000	00000013	addi	x0,x0,0	  x0:0x00000000
       37115000	      3710	80004c50	00000013	addi	x0,x0,0	  x0:0x00000000
       37125000	      3711	80004c54	00ee65b3	or	x11,x28,x14	 x28:0x00000000 x14:0xc0000000 x11=0xc0000000
       37135000	      3712	80004c58	010761b3	or	x3,x14,x16	 x14:0xc0000000 x16:0x00000000  x3=0xc0000000
       37145000	      3713	80004c5c	60b62837	lui	x16,0x60b62	 x16=0x60b62000
       37155000	      3714	80004c60	404e8b33	sub	x22,x29,x4	 x29:0xffffff57  x4:0x00000000 x22=0xffffff57
       37165000	      3715	80004c64	710eb593	sltiu	x11,x29,1808	 x29:0xffffff57 x11=0x00000000
       37175000	      3716	80004c68	8ed96f97	auipc	x31,0x8ed96	 x31=0x0ed9ac64
       37185000	      3717	80004c6c	00bb1463	bne	x22,x11,80004c74	 x22:0xffffff57 x11:0x00000000
       37195000	      3718	00000000	00000013	addi	x0,x0,0	  x0:0x00000000
       37205000	      3719	80004c70	00000013	addi	x0,x0,0	  x0:0x00000000
       37215000	      3720	80004c74	0274fe63	bgeu	x9,x7,80004cb0	  x9:0x06060c1c  x7:0x00020000
       37225000	      3721	00000000	00000013	addi	x0,x0,0	  x0:0x00000000
       37235000	      3722	80004cac	00000013	addi	x0,x0,0	  x0:0x00000000
       37245000	      3723	80004cb0	016f1133	sll	x2,x30,x22	 x30:0xc0000007 x22:0xffffff57  x2=0x03800000
       37255000	      3724	80004cb4	02fb8663	beq	x23,x15,80004ce0	 x23:0x00000000 x15:0x80009fc4
       37265000	      3725	80004cb8	00caf863	bgeu	x21,x12,80004cc8	 x21:0x80029fc4 x12:0x00000000
       37275000	      3726	00000000	00000013	addi	x0,x0,0	  x0:0x00000000
       37285000	      3727	80004cc4	00000013	addi	x0,x0,0	  x0:0x00000000
       37295000	      3728	80004cc8	03acec63	bltu	x25,x26,80004d00	 x25:0x00000000 x26:0x00000004
       37305000	      3729	00000000	00000013	addi	x0,x0,0	  x0:0x00000000
       37315000	      3730	80004cfc	00000013	addi	x0,x0,0	  x0:0x00000000
       37325000	      3731	80004d00	032fe663	bltu	x31,x18,80004d2c	 x31:0x0ed9ac64 x18:0x00000001
       37335000	      3732	80004d04	02160063	beq	x12,x1,80004d24	 x12:0x00000000  x1:0x00000020
       37345000	      3733	80004d08	3e3e6d93	ori	x27,x28,995	 x28:0x00000000 x27=0x000003e3
       37355000	      3734	80004d0c	2cecff13	andi	x30,x25,718	 x25:0x00000000 x30=0x00000000
       37365000	      3735	80004d10	41e5d293	srai	x5,x11,0x1e	 x11:0x00000000  x5=0x00000000
       37375000	      3736	80004d14	0214ee63	bltu	x9,x1,80004d50	  x9:0x06060c1c  x1:0x00000020
       37385000	      3737	80004d18	0490f213	andi	x4,x1,73	  x1:0x00000020  x4=0x00000000
       37395000	      3738	80004d1c	400e5ab3	sra	x21,x28,x0	 x28:0x00000000  x0:0x00000000 x21=0x00000000
       37405000	      3739	80004d20	008f7a33	and	x20,x30,x8	 x30:0x00000000  x8:0x00000000 x20=0x00000000
       37415000	      3740	80004d24	88b36a13	ori	x20,x6,-1909	  x6:0x00000001 x20=0xfffff88b
       37425000	      3741	80004d28	01e8da93	srli	x21,x17,0x1e	 x17:0x80009f2c x21=0x00000002
       37435000	      3742	80004d2c	03e04463	blt	x0,x30,80004d54	  x0:0x00000000 x30:0x00000000
       37445000	      3743	80004d30	41eedcb3	sra	x25,x29,x30	 x29:0xffffff57 x30:0x00000000 x25=0xffffff57
       37455000	      3744	80004d34	01a4d6b3	srl	x13,x9,x26	  x9:0x06060c1c x26:0x00000004 x13=0x006060c1
       37465000	      3745	80004d38	41b35e13	srai	x28,x6,0x1b	  x6:0x00000001 x28=0x00000000
       37475000	      3746	80004d3c	01e72333	slt	x6,x14,x30	 x14:0xc0000000 x30:0x00000000  x6=0x00000001
       37485000	      3747	80004d40	019c53b3	srl	x7,x24,x25	 x24:0x000005ca x25:0xffffff57  x7=0x00000000
       37495000	      3748	80004d44	00000013	addi	x0,x0,0	  x0:0x00000000
       37505000	      3749	80004d48	01444c33	xor	x24,x8,x20	  x8:0x00000000 x20:0xfffff88b x24=0xfffff88b
       37515000	      3750	80004d4c	00455a63	bge	x10,x4,80004d60	 x10:0x10000000  x4:0x00000000
       37525000	      3751	00000000	00000013	addi	x0,x0,0	  x0:0x00000000
       37535000	      3752	80004d5c	00000013	addi	x0,x0,0	  x0:0x00000000
       37545000	      3753	80004d60	05237463	bgeu	x6,x18,80004da8	  x6:0x00000001 x18:0x00000001
       37555000	      3754	00000000	00000013	addi	x0,x0,0	  x0:0x00000000
       37565000	      3755	80004da4	00000013	addi	x0,x0,0	  x0:0x00000000
       37575000	      3756	80004da8	9a66f313	andi	x6,x13,-1626	 x13:0x006060c1  x6=0x00606080
       37585000	      3757	80004dac	415b5393	srai	x7,x22,0x15	 x22:0xffffff57  x7=0xffffffff
       37595000	      3758	80004db0	e0c399b7	lui	x19,0xe0c39	 x19=0xe0c39000
       37605000	      3759	80004db4	41c2da33	sra	x20,x5,x28	  x5:0x00000000 x28:0x00000000 x20=0x00000000
       37615000	      3760	80004db8	41245193	srai	x3,x8,0x12	  x8:0x00000000  x3=0x00000000
       37625000	      3761	80004dbc	390f3e13	sltiu	x28,x30,912	 x30:0x00000000 x28=0x00000001
       37635000	      3762	80004dc0	00464933	xor	x18,x12,x4	 x12:0x00000000  x4:0x00000000 x18=0x00000000
       37645000	      3763	80004dc4	00d49a93	slli	x21,x9,0xd	  x9:0x06060c1c x21=0xc1838000
       37655000	      3764	80004dc8	00fcb4b3	sltu	x9,x25,x15	 x25:0xffffff57 x15:0x80009fc4  x9=0x00000000
       37665000	      3765	80004dcc	0017fbb3	and	x23,x15,x1	 x15:0x80009fc4  x1:0x00000020 x23=0x00000000
       37675000	      3766	80004dd0	eb946613	ori	x12,x8,-327	  x8:0x00000000 x12=0xfffffeb9
       37685000	      3767	80004dd4	68a8a413	slti	x8,x17,1674	 x17:0x80009f2c  x8=0x00000001
       37695000	      3768	80004dd8	ba604813	xori	x16,x0,-1114	  x0:0x00000000 x16=0xfffffba6
       37705000	      3769	80004ddc	01c99b93	slli	x23,x19,0x1c	 x19:0xe0c39000 x23=0x00000000
       37715000	      3770	80004de0	00dadc93	srli	x25,x21,0xd	 x21:0xc1838000 x25=0x00060c1c
       37725000	      3771	80004de4	40e3da93	srai	x21,x7,0xe	  x7:0xffffffff x21=0xffffffff
       37735000	      3772	80004de8	018aa3b3	slt	x7,x21,x24	 x21:0xffffffff x24:0xfffff88b  x7=0x00000000
       37745000	      3773	80004dec	037ed063	bge	x29,x23,80004e0c	 x29:0xffffff57 x23:0x00000000
       37755000	      3774	80004df0	40c88b33	sub	x22,x17,x12	 x17:0x80009f2c x12:0xfffffeb9 x22=0x8000a073
       37765000	      3775	80004df4	00353e33	sltu	x28,x10,x3	 x10:0x10000000  x3:0x00000000 x28=0x00000000
       37775000	      3776	80004df8	010461b3	or	x3,x8,x16	  x8:0x00000001 x16:0xfffffba6  x3=0xfffffba7
       37785000	      3777	80004dfc	00f13fb3	sltu	x31,x2,x15	  x2:0x03800000 x15:0x80009fc4 x31=0x00000001
       37795000	      3778	80004e00	0082a033	slt	x0,x5,x8	  x5:0x00000000  x8:0x00000001
       37805000	      3779	80004e04	02547063	bgeu	x8,x5,80004e24	  x8:0x00000001  x5:0x00000000
       37815000	      3780	00000000	00000013	addi	x0,x0,0	  x0:0x00000000
       37825000	      3781	80004e20	00000013	addi	x0,x0,0	  x0:0x00000000
       37835000	      3782	80004e24	20cebc13	sltiu	x24,x29,524	 x29:0xffffff57 x24=0x00000000
       37845000	      3783	80004e28	fe266c93	ori	x25,x12,-30	 x12:0xfffffeb9 x25=0xfffffffb
       37855000	      3784	80004e2c	4170de33	sra	x28,x1,x23	  x1:0x00000020 x23:0x00000000 x28=0x00000020
       37865000	      3785	80004e30	02fdf263	bgeu	x27,x15,80004e54	 x27:0x000003e3 x15:0x80009fc4
       37875000	      3786	80004e34	010a1c13	slli	x24,x20,0x10	 x20:0x00000000 x24=0x00000000
       37885000	      3787	80004e38	40190633	sub	x12,x18,x1	 x18:0x00000000  x1:0x00000020 x12=0xffffffe0
       37895000	      3788	80004e3c	01e0ac33	slt	x24,x1,x30	  x1:0x00000020 x30:0x00000000 x24=0x00000000
       37905000	      3789	80004e40	0c62fa13	andi	x20,x5,198	  x5:0x00000000 x20=0x00000000
       37915000	      3790	80004e44	9acd2393	slti	x7,x26,-1620	 x26:0x00000004  x7=0x00000000
       37925000	      3791	80004e48	02150463	beq	x10,x1,80004e70	 x10:0x10000000  x1:0x00000020
       37935000	      3792	80004e4c	0099ebb3	or	x23,x19,x9	 x19:0xe0c39000  x9:0x00000000 x23=0xe0c39000
       37945000	      3793	80004e50	017756b3	srl	x13,x14,x23	 x14:0xc0000000 x23:0xe0c39000 x13=0xc0000000
       37955000	      3794	80004e54	02da4c63	blt	x20,x13,80004e8c	 x20:0x00000000 x13:0xc0000000
       37965000	      3795	80004e58	f43ef293	andi	x5,x29,-189	 x29:0xffffff57  x5=0xffffff43
       37975000	      3796	80004e5c	018e8933	add	x18,x29,x24	 x29:0xffffff57 x24:0x00000000 x18=0xffffff57
       37985000	      3797	80004e60	09503c37	lui	x24,0x9503	 x24=0x09503000
       37995000	      3798	80004e64	000da0b3	slt	x1,x27,x0	 x27:0x000003e3  x0:0x00000000  x1=0x00000000
       38005000	      3799	80004e68	2c6f0413	addi	x8,x30,710	 x30:0x00000000  x8=0x000002c6
       38015000	      3800	80004e6c	00f7fa63	bgeu	x15,x15,80004e80	 x15:0x80009fc4 x15:0x80009fc4
       38025000	      3801	00000000	00000013	addi	x0,x0,0	  x0:0x00000000
       38035000	      3802	80004e7c	00000013	addi	x0,x0,0	  x0:0x00000000
       38045000	      3803	80004e80	00df3433	sltu	x8,x30,x13	 x30:0x00000000 x13:0xc0000000  x8=0x00000001
       38055000	      3804	80004e84	1be2fe93	andi	x29,x5,446	  x5:0xffffff43 x29=0x00000102
       38065000	      3805	80004e88	d0732493	slti	x9,x6,-761	  x6:0x00606080  x9=0x00000000
       38075000	      3806	80004e8c	01341693	slli	x13,x8,0x13	  x8:0x00000001 x13=0x00080000
       38085000	      3807	80004e90	c81f3c13	sltiu	x24,x30,-895	 x30:0x00000000 x24=0x00000001
       38095000	      3808	80004e94	0437c863	blt	x15,x3,80004ee4	 x15:0x80009fc4  x3:0xfffffba7
       38105000	      3809	00000000	00000013	addi	x0,x0,0	  x0:0x00000000
       38115000	      3810	80004ee0	00000013	addi	x0,x0,0	  x0:0x00000000
       38125000	      3811	80004ee4	419a83b3	sub	x7,x21,x25	 x21:0xffffffff x25:0xfffffffb  x7=0x00000004
       38135000	      3812	80004ee8	01bf8663	beq	x31,x27,80004ef4	 x31:0x00000001 x27:0x000003e3
       38145000	      3813	80004eec	495b4693	xori	x13,x22,1173	 x22:0x8000a073 x13=0x8000a4e6
       38155000	      3814	80004ef0	3d61bc17	auipc	x24,0x3d61b	 x24=0xbd61feec
       38165000	      3815	80004ef4	0069e863	bltu	x19,x6,80004f04	 x19:0xe0c39000  x6:0x00606080
       38175000	      3816	80004ef8	00000013	addi	x0,x0,0	  x0:0x00000000
       38185000	      3817	80004efc	028e8c63	beq	x29,x8,80004f34	 x29:0x00000102  x8:0x00000001
       38195000	      3818	80004f00	409859b3	sra	x19,x16,x9	 x16:0xfffffba6  x9:0x00000000 x19=0xfffffba6
       38205000	      3819	80004f04	403cd393	srai	x7,x25,0x3	 x25:0xfffffffb  x7=0xffffffff
       38215000	      3820	80004f08	665f6397	auipc	x7,0x665f6	  x7=0xe65faf04
       38225000	      3821	80004f0c	00af5433	srl	x8,x30,x10	 x30:0x00000000 x10:0x10000000  x8=0x00000000
       38235000	      3822	80004f10	039fe063	bltu	x31,x25,80004f30	 x31:0x00000001 x25:0xfffffffb
       38245000	      3823	00000000	00000013	addi	x0,x0,0	  x0:0x00000000
       38255000	      3824	80004f2c	00000013	addi	x0,x0,0	  x0:0x00000000
       38265000	      3825	80004f30	02dcd463	bge	x25,x13,80004f58	 x25:0xfffffffb x13:0x8000a4e6
       38275000	      3826	00000000	00000013	addi	x0,x0,0	  x0:0x00000000
       38285000	      3827	80004f54	00000013	addi	x0,x0,0	  x0:0x00000000
       38295000	      3828	80004f58	005af463	bgeu	x21,x5,80004f60	 x21:0xffffffff  x5:0xffffff43
       38305000	      3829	00000000	00000013	addi	x0,x0,0	  x0:0x00000000
       38315000	      3830	80004f5c	00000013	addi	x0,x0,0	  x0:0x00000000
       38325000	      3831	80004f60	c9f56013	ori	x0,x10,-865	 x10:0x10000000
       38335000	      3832	80004f64	0052bc33	sltu	x24,x5,x5	  x5:0xffffff43  x5:0xffffff43 x24=0x00000000
       38345000	      3833	80004f68	003ee733	or	x14,x29,x3	 x29:0x00000102  x3:0xfffffba7 x14=0xfffffba7
       38355000	      3834	80004f6c	034a4e63	blt	x20,x20,80004fa8	 x20:0x00000000 x20:0x00000000
       38365000	      3835	80004f70	01b19b33	sll	x22,x3,x27	  x3:0xfffffba7 x27:0x000003e3 x22=0xffffdd38
       38375000	      3836	80004f74	41ae05b3	sub	x11,x28,x26	 x28:0x00000020 x26:0x00000004 x11=0x0000001c
       38385000	      3837	80004f78	013c31b3	sltu	x3,x24,x19	 x24:0x00000000 x19:0xfffffba6  x3=0x00000001
       38395000	      3838	80004f7c	1758a213	slti	x4,x17,373	 x17:0x80009f2c  x4=0x00000001
       38405000	      3839	80004f80	000c9013	slli	x0,x25,0x0	 x25:0xfffffffb
       38415000	      3840	80004f84	000e8533	add	x10,x29,x0	 x29:0x00000102  x0:0x00000000 x10=0x00000102
       38425000	      3841	80004f88	dd733113	sltiu	x2,x6,-553	  x6:0x00606080  x2=0x00000001
       38435000	      3842	80004f8c	01481a63	bne	x16,x20,80004fa0	 x16:0xfffffba6 x20:0x00000000
       38445000	      3843	00000000	00000013	addi	x0,x0,0	  x0:0x00000000
       38455000	      3844	80004f9c	00000013	addi	x0,x0,0	  x0:0x00000000
       38465000	      3845	80004fa0	40395513	srai	x10,x18,0x3	 x18:0xffffff57 x10=0xffffffea
       38475000	      3846	80004fa4	41090033	sub	x0,x18,x16	 x18:0xffffff57 x16:0xfffffba6
       38485000	      3847	80004fa8	02f24063	blt	x4,x15,80004fc8	  x4:0x00000001 x15:0x80009fc4
       38495000	      3848	80004fac	212b0e93	addi	x29,x22,530	 x22:0xffffdd38 x29=0xffffdf4a
       38505000	      3849	80004fb0	01fd1b33	sll	x22,x26,x31	 x26:0x00000004 x31:0x00000001 x22=0x00000008
       38515000	      3850	80004fb4	01149413	slli	x8,x9,0x11	  x9:0x00000000  x8=0x00000000
       38525000	      3851	80004fb8	00b1b333	sltu	x6,x3,x11	  x3:0x00000001 x11:0x0000001c  x6=0x00000001
       38535000	      3852	80004fbc	01b19eb3	sll	x29,x3,x27	  x3:0x00000001 x27:0x000003e3 x29=0x00000008
       38545000	      3853	80004fc0	9440cc93	xori	x25,x1,-1724	  x1:0x00000000 x25=0xfffff944
       38555000	      3854	80004fc4	711b0213	addi	x4,x22,1809	 x22:0x00000008  x4=0x00000719
       38565000	      3855	80004fc8	02bb0c63	beq	x22,x11,80005000	 x22:0x00000008 x11:0x0000001c
       38575000	      3856	80004fcc	c28c4993	xori	x19,x24,-984	 x24:0x00000000 x19=0xfffffc28
       38585000	      3857	80004fd0	1bcc9f97	auipc	x31,0x1bcc9	 x31=0x9bccdfcc
       38595000	      3858	80004fd4	017cca63	blt	x25,x23,80004fe8	 x25:0xfffff944 x23:0xe0c39000
       38605000	      3859	80004fd8	03490063	beq	x18,x20,80004ff8	 x18:0xffffff57 x20:0x00000000
       38615000	      3860	80004fdc	40e182b3	sub	x5,x3,x14	  x3:0x00000001 x14:0xfffffba7  x5=0x0000045a
       38625000	      3861	80004fe0	02e60e63	beq	x12,x14,8000501c	 x12:0xffffffe0 x14:0xfffffba7
       38635000	      3862	80004fe4	01941593	slli	x11,x8,0x19	  x8:0x00000000 x11=0x00000000
       38645000	      3863	80004fe8	d51aae93	slti	x29,x21,-687	 x21:0xffffffff x29=0x00000000
       38655000	      3864	80004fec	0143aa33	slt	x20,x7,x20	  x7:0xe65faf04 x20:0x00000000 x20=0x00000001
       38665000	      3865	80004ff0	c1e683b7	lui	x7,0xc1e68	  x7=0xc1e68000
       38675000	      3866	80004ff4	01118863	beq	x3,x17,80005004	  x3:0x00000001 x17:0x80009f2c
       38685000	      3867	80004ff8	e0462993	slti	x19,x12,-508	 x12:0xffffffe0 x19=0x00000000
       38695000	      3868	80004ffc	41e55533	sra	x10,x10,x30	 x10:0xffffffea x30:0x00000000 x10=0xffffffea
       38705000	      3869	80005000	03555863	bge	x10,x21,80005030	 x10:0xffffffea x21:0xffffffff
       38715000	      3870	80005004	32b67b93	andi	x23,x12,811	 x12:0xffffffe0 x23=0x00000320
       38725000	      3871	80005008	401151b3	sra	x3,x2,x1	  x2:0x00000001  x1:0x00000000  x3=0x00000001
       38735000	      3872	8000500c	00eb4b33	xor	x22,x22,x14	 x22:0x00000008 x14:0xfffffba7 x22=0xfffffbaf
       38745000	      3873	80005010	962b6013	ori	x0,x22,-1694	 x22:0xfffffbaf
       38755000	      3874	80005014	00000013	addi	x0,x0,0	  x0:0x00000000
       38765000	      3875	80005018	03e4d863	bge	x9,x30,80005048	  x9:0x00000000 x30:0x00000000
       38775000	      3876	00000000	00000013	addi	x0,x0,0	  x0:0x00000000
       38785000	      3877	80005044	00000013	addi	x0,x0,0	  x0:0x00000000
       38795000	      3878	80005048	034fdc63	bge	x31,x20,80005080	 x31:0x9bccdfcc x20:0x00000001
       38805000	      3879	8000504c	44ac0393	addi	x7,x24,1098	 x24:0x00000000  x7=0x0000044a
       38815000	      3880	80005050	00660f33	add	x30,x12,x6	 x12:0xffffffe0  x6:0x00000001 x30=0xffffffe1
       38825000	      3881	80005054	41f18733	sub	x14,x3,x31	  x3:0x00000001 x31:0x9bccdfcc x14=0x64332035
       38835000	      3882	80005058	00000013	addi	x0,x0,0	  x0:0x00000000
       38845000	      3883	8000505c	007bc633	xor	x12,x23,x7	 x23:0x00000320  x7:0x0000044a x12=0x0000076a
       38855000	      3884	80005060	00afc233	xor	x4,x31,x10	 x31:0x9bccdfcc x10:0xffffffea  x4=0x64332026
       38865000	      3885	80005064	01939633	sll	x12,x7,x25	  x7:0x0000044a x25:0xfffff944 x12=0x000044a0
       38875000	      3886	80005068	41485493	srai	x9,x16,0x14	 x16:0xfffffba6  x9=0xffffffff
       38885000	      3887	8000506c	554eb697	auipc	x13,0x554eb	 x13=0xd54f0068
       38895000	      3888	80005070	308ea613	slti	x12,x29,776	 x29:0x00000000 x12=0x00000001
       38905000	      3889	80005074	024a7063	bgeu	x20,x4,80005094	 x20:0x00000001  x4:0x64332026
       38915000	      3890	80005078	b9beeb97	auipc	x23,0xb9bee	 x23=0x39bf3074
       38925000	      3891	8000507c	01ee4263	blt	x28,x30,80005080	 x28:0x00000020 x30:0xffffffe1
       38935000	      3892	80005080	00ab16b3	sll	x13,x22,x10	 x22:0xfffffbaf x10:0xffffffea x13=0xffeebc00
       38945000	      3893	80005084	40abde33	sra	x28,x23,x10	 x23:0x39bf3074 x10:0xffffffea x28=0x000e6fcc
       38955000	      3894	80005088	50e0f513	andi	x10,x1,1294	  x1:0x00000000 x10=0x00000000
       38965000	      3895	8000508c	8a523c93	sltiu	x25,x4,-1883	  x4:0x64332026 x25=0x00000001
       38975000	      3896	80005090	01dc7533	and	x10,x24,x29	 x24:0x00000000 x29:0x00000000 x10=0x00000000
       38985000	      3897	80005094	00511913	slli	x18,x2,0x5	  x2:0x00000001 x18=0x00000020
       38995000	      3898	80005098	9fd14e13	xori	x28,x2,-1539	  x2:0x00000001 x28=0xfffff9fc
       39005000	      3899	8000509c	5dedc193	xori	x3,x27,1502	 x27:0x000003e3  x3=0x0000063d
       39015000	      3900	800050a0	02d86263	bltu	x16,x13,800050c4	 x16:0xfffffba6 x13:0xffeebc00
       39025000	      3901	800050a4	41570b33	sub	x22,x14,x21	 x14:0x64332035 x21:0xffffffff x22=0x64332036
       39035000	      3902	800050a8	01d78463	beq	x15,x29,800050b0	 x15:0x80009fc4 x29:0x00000000
       39045000	      3903	800050ac	01c75b93	srli	x23,x14,0x1c	 x14:0x64332035 x23=0x00000006
       39055000	      3904	800050b0	00000013	addi	x0,x0,0	  x0:0x00000000
       39065000	      3905	800050b4	03b5d663	bge	x11,x27,800050e0	 x11:0x00000000 x27:0x000003e3
       39075000	      3906	800050b8	367ca593	slti	x11,x25,871	 x25:0x00000001 x11=0x00000001
       39085000	      3907	800050bc	02701463	bne	x0,x7,800050e4	  x0:0x00000000  x7:0x0000044a
       39095000	      3908	00000000	00000013	addi	x0,x0,0	  x0:0x00000000
       39105000	      3909	800050e0	00000013	addi	x0,x0,0	  x0:0x00000000
       39115000	      3910	800050e4	03b65463	bge	x12,x27,8000510c	 x12:0x00000001 x27:0x000003e3
       39125000	      3911	800050e8	019c5bb3	srl	x23,x24,x25	 x24:0x00000000 x25:0x00000001 x23=0x00000000
       39135000	      3912	800050ec	a2fdd117	auipc	x2,0xa2fdd	  x2=0x22fe20e8
       39145000	      3913	800050f0	013a9133	sll	x2,x21,x19	 x21:0xffffffff x19:0x00000000  x2=0xffffffff
       39155000	      3914	800050f4	4eac0693	addi	x13,x24,1258	 x24:0x00000000 x13=0x000004ea
       39165000	      3915	800050f8	599e7f13	andi	x30,x28,1433	 x28:0xfffff9fc x30=0x00000198
       39175000	      3916	800050fc	009ad3b3	srl	x7,x21,x9	 x21:0xffffffff  x9:0xffffffff  x7=0x00000001
       39185000	      3917	80005100	027ed663	bge	x29,x7,8000512c	 x29:0x00000000  x7:0x00000001
       39195000	      3918	80005104	008919b3	sll	x19,x18,x8	 x18:0x00000020  x8:0x00000000 x19=0x00000020
       39205000	      3919	80005108	409e0433	sub	x8,x28,x9	 x28:0xfffff9fc  x9:0xffffffff  x8=0xfffff9fd
       39215000	      3920	8000510c	7899c413	xori	x8,x19,1929	 x19:0x00000020  x8=0x000007a9
       39225000	      3921	80005110	00ebd663	bge	x23,x14,8000511c	 x23:0x00000000 x14:0x64332035
       39235000	      3922	80005114	41835233	sra	x4,x6,x24	  x6:0x00000001 x24:0x00000000  x4=0x00000001
       39245000	      3923	80005118	00469813	slli	x16,x13,0x4	 x13:0x000004ea x16=0x00004ea0
       39255000	      3924	8000511c	22c26e97	auipc	x29,0x22c26	 x29=0xa2c2b118
       39265000	      3925	80005120	90868b13	addi	x22,x13,-1784	 x13:0x000004ea x22=0xfffffdf2
       39275000	      3926	80005124	02ed7063	bgeu	x26,x14,80005144	 x26:0x00000004 x14:0x64332035
       39285000	      3927	80005128	274e0093	addi	x1,x28,628	 x28:0xfffff9fc  x1=0xfffffc70
       39295000	      3928	8000512c	01a10463	beq	x2,x26,80005134	  x2:0xffffffff x26:0x00000004
       39305000	      3929	80005130	02985463	bge	x16,x9,80005158	 x16:0x00004ea0  x9:0xffffffff
       39315000	      3930	00000000	00000013	addi	x0,x0,0	  x0:0x00000000
       39325000	      3931	80005154	00000013	addi	x0,x0,0	  x0:0x00000000
       39335000	      3932	80005158	6550e917	auipc	x18,0x6550e	 x18=0xe5513154
       39345000	      3933	8000515c	1441b093	sltiu	x1,x3,324	  x3:0x0000063d  x1=0x00000000
       39355000	      3934	80005160	0541e863	bltu	x3,x20,800051b0	  x3:0x0000063d x20:0x00000001
       39365000	      3935	80005164	00000013	addi	x0,x0,0	  x0:0x00000000
       39375000	      3936	80005168	01805993	srli	x19,x0,0x18	  x0:0x00000000 x19=0x00000000
       39385000	      3937	8000516c	4116d833	sra	x16,x13,x17	 x13:0x000004ea x17:0x80009f2c x16=0x00000000
       39395000	      3938	80005170	0505b093	sltiu	x1,x11,80	 x11:0x00000001  x1=0x00000001
       39405000	      3939	80005174	000e1813	slli	x16,x28,0x0	 x28:0xfffff9fc x16=0xfffff9fc
       39415000	      3940	80005178	02fc1063	bne	x24,x15,80005198	 x24:0x00000000 x15:0x80009fc4
       39425000	      3941	00000000	00000013	addi	x0,x0,0	  x0:0x00000000
       39435000	      3942	80005194	00000013	addi	x0,x0,0	  x0:0x00000000
       39445000	      3943	80005198	96befc93	andi	x25,x29,-1685	 x29:0xa2c2b118 x25=0xa2c2b108
       39455000	      3944	8000519c	ec03edb7	lui	x27,0xec03e	 x27=0xec03e000
       39465000	      3945	800051a0	00cbf233	and	x4,x23,x12	 x23:0x00000000 x12:0x00000001  x4=0x00000000
       39475000	      3946	800051a4	01952733	slt	x14,x10,x25	 x10:0x00000000 x25:0xa2c2b108 x14=0x00000000
       39485000	      3947	800051a8	02541063	bne	x8,x5,800051c8	  x8:0x000007a9  x5:0x0000045a
       39495000	      3948	00000000	00000013	addi	x0,x0,0	  x0:0x00000000
       39505000	      3949	800051c4	00000013	addi	x0,x0,0	  x0:0x00000000
       39515000	      3950	800051c8	98fe2113	slti	x2,x28,-1649	 x28:0xfffff9fc  x2=0x00000000
       39525000	      3951	800051cc	027a7863	bgeu	x20,x7,800051fc	 x20:0x00000001  x7:0x00000001
       39535000	      3952	00000000	00000013	addi	x0,x0,0	  x0:0x00000000
       39545000	      3953	800051f8	00000013	addi	x0,x0,0	  x0:0x00000000
       39555000	      3954	800051fc	0062fa63	bgeu	x5,x6,80005210	  x5:0x0000045a  x6:0x00000001
       39565000	      3955	00000000	00000013	addi	x0,x0,0	  x0:0x00000000
       39575000	      3956	8000520c	00000013	addi	x0,x0,0	  x0:0x00000000
       39585000	      3957	80005210	02da0463	beq	x20,x13,80005238	 x20:0x00000001 x13:0x000004ea
       39595000	      3958	80005214	21202337	lui	x6,0x21202	  x6=0x21202000
       39605000	      3959	80005218	011773b3	and	x7,x14,x17	 x14:0x00000000 x17:0x80009f2c  x7=0x00000000
       39615000	      3960	8000521c	03c91063	bne	x18,x28,8000523c	 x18:0xe5513154 x28:0xfffff9fc
       39625000	      3961	00000000	00000013	addi	x0,x0,0	  x0:0x00000000
       39635000	      3962	80005238	00000013	addi	x0,x0,0	  x0:0x00000000
       39645000	      3963	8000523c	00f56eb3	or	x29,x10,x15	 x10:0x00000000 x15:0x80009fc4 x29=0x80009fc4
       39655000	      3964	80005240	00e3f463	bgeu	x7,x14,80005248	  x7:0x00000000 x14:0x00000000
       39665000	      3965	00000000	00000013	addi	x0,x0,0	  x0:0x00000000
       39675000	      3966	80005244	00000013	addi	x0,x0,0	  x0:0x00000000
       39685000	      3967	80005248	ed107c13	andi	x24,x0,-303	  x0:0x00000000 x24=0x00000000
       39695000	      3968	8000524c	40cd53b3	sra	x7,x26,x12	 x26:0x00000004 x12:0x00000001  x7=0x00000002
       39705000	      3969	80005250	0076d413	srli	x8,x13,0x7	 x13:0x000004ea  x8=0x00000009
       39715000	      3970	80005254	01962033	slt	x0,x12,x25	 x12:0x00000001 x25:0xa2c2b108
       39725000	      3971	80005258	2a4b56b7	lui	x13,0x2a4b5	 x13=0x2a4b5000
       39735000	      3972	8000525c	0071c433	xor	x8,x3,x7	  x3:0x0000063d  x7:0x00000002  x8=0x0000063f
       39745000	      3973	80005260	00d31eb3	sll	x29,x6,x13	  x6:0x21202000 x13:0x2a4b5000 x29=0x21202000
       39755000	      3974	80005264	0087f463	bgeu	x15,x8,8000526c	 x15:0x80009fc4  x8:0x0000063f
       39765000	      3975	00000000	00000013	addi	x0,x0,0	  x0:0x00000000
       39775000	      3976	80005268	00000013	addi	x0,x0,0	  x0:0x00000000
       39785000	      3977	8000526c	1ef34c93	xori	x25,x6,495	  x6:0x21202000 x25=0x212021ef
       39795000	      3978	80005270	026cf263	bgeu	x25,x6,80005294	 x25:0x212021ef  x6:0x21202000
       39805000	      3979	00000000	00000013	addi	x0,x0,0	  x0:0x00000000
       39815000	      3980	80005290	00000013	addi	x0,x0,0	  x0:0x00000000
       39825000	      3981	80005294	00000013	addi	x0,x0,0	  x0:0x00000000
       39835000	      3982	80005298	41b1dd93	srai	x27,x3,0x1b	  x3:0x0000063d x27=0x00000000
       39845000	      3983	8000529c	0218fc63	bgeu	x17,x1,800052d4	 x17:0x80009f2c  x1:0x00000001
       39855000	      3984	00000000	00000013	addi	x0,x0,0	  x0:0x00000000
       39865000	      3985	800052d0	00000013	addi	x0,x0,0	  x0:0x00000000
       39875000	      3986	800052d4	416d8ab3	sub	x21,x27,x22	 x27:0x00000000 x22:0xfffffdf2 x21=0x0000020e
       39885000	      3987	800052d8	01cc5913	srli	x18,x24,0x1c	 x24:0x00000000 x18=0x00000000
       39895000	      3988	800052dc	418a8a33	sub	x20,x21,x24	 x21:0x0000020e x24:0x00000000 x20=0x0000020e
       39905000	      3989	800052e0	01c5a6b3	slt	x13,x11,x28	 x11:0x00000001 x28:0xfffff9fc x13=0x00000000
       39915000	      3990	800052e4	3e83ac93	slti	x25,x7,1000	  x7:0x00000002 x25=0x00000001
       39925000	      3991	800052e8	99424093	xori	x1,x4,-1644	  x4:0x00000000  x1=0xfffff994
       39935000	      3992	800052ec	02cc8e63	beq	x25,x12,80005328	 x25:0x00000001 x12:0x00000001
       39945000	      3993	00000000	00000013	addi	x0,x0,0	  x0:0x00000000
       39955000	      3994	80005324	00000013	addi	x0,x0,0	  x0:0x00000000
       39965000	      3995	80005328	00ccccb3	xor	x25,x25,x12	 x25:0x00000001 x12:0x00000001 x25=0x00000000
       39975000	      3996	8000532c	012a8433	add	x8,x21,x18	 x21:0x0000020e x18:0x00000000  x8=0x0000020e
       39985000	      3997	80005330	0324e663	bltu	x9,x18,8000535c	  x9:0xffffffff x18:0x00000000
       39995000	      3998	80005334	001b6433	or	x8,x22,x1	 x22:0xfffffdf2  x1:0xfffff994  x8=0xfffffdf6
       40005000	      3999	80005338	008b7bb3	and	x23,x22,x8	 x22:0xfffffdf2  x8:0xfffffdf6 x23=0xfffffdf2
       40015000	      4000	8000533c	01e959b3	srl	x19,x18,x30	 x18:0x00000000 x30:0x00000198 x19=0x00000000
       40025000	      4001	80005340	380b7213	andi	x4,x22,896	 x22:0xfffffdf2  x4=0x00000180
       40035000	      4002	80005344	02571e63	bne	x14,x5,80005380	 x14:0x00000000  x5:0x0000045a
       40045000	      4003	00000000	00000013	addi	x0,x0,0	  x0:0x00000000
       40055000	      4004	8000537c	00000013	addi	x0,x0,0	  x0:0x00000000
       40065000	      4005	80005380	0194b5b3	sltu	x11,x9,x25	  x9:0xffffffff x25:0x00000000 x11=0x00000000
       40075000	      4006	80005384	02d27063	bgeu	x4,x13,800053a4	  x4:0x00000180 x13:0x00000000
       40085000	      4007	00000000	00000013	addi	x0,x0,0	  x0:0x00000000
       40095000	      4008	800053a0	00000013	addi	x0,x0,0	  x0:0x00000000
       40105000	      4009	800053a4	002b2eb3	slt	x29,x22,x2	 x22:0xfffffdf2  x2:0x00000000 x29=0x00000001
       40115000	      4010	800053a8	d093cb13	xori	x22,x7,-759	  x7:0x00000002 x22=0xfffffd0b
       40125000	      4011	800053ac	01f4bb33	sltu	x22,x9,x31	  x9:0xffffffff x31:0x9bccdfcc x22=0x00000000
       40135000	      4012	800053b0	c7f16913	ori	x18,x2,-897	  x2:0x00000000 x18=0xfffffc7f
       40145000	      4013	800053b4	00e1cfb3	xor	x31,x3,x14	  x3:0x0000063d x14:0x00000000 x31=0x0000063d
       40155000	      4014	800053b8	0369f263	bgeu	x19,x22,800053dc	 x19:0x00000000 x22:0x00000000
       40165000	      4015	00000000	00000013	addi	x0,x0,0	  x0:0x00000000
       40175000	      4016	800053d8	00000013	addi	x0,x0,0	  x0:0x00000000
       40185000	      4017	800053dc	2a9f7693	andi	x13,x30,681	 x30:0x00000198 x13=0x00000088
       40195000	      4018	800053e0	00000013	addi	x0,x0,0	  x0:0x00000000
       40205000	      4019	800053e4	022b6063	bltu	x22,x2,80005404	 x22:0x00000000  x2:0x00000000
       40215000	      4020	800053e8	03814463	blt	x2,x24,80005410	  x2:0x00000000 x24:0x00000000
       40225000	      4021	800053ec	013a7333	and	x6,x20,x19	 x20:0x0000020e x19:0x00000000  x6=0x00000000
       40235000	      4022	800053f0	bae50f93	addi	x31,x10,-1106	 x10:0x00000000 x31=0xfffffbae
       40245000	      4023	800053f4	01c80463	beq	x16,x28,800053fc	 x16:0xfffff9fc x28:0xfffff9fc
       40255000	      4024	00000000	00000013	addi	x0,x0,0	  x0:0x00000000
       40265000	      4025	800053f8	00000013	addi	x0,x0,0	  x0:0x00000000
       40275000	      4026	800053fc	01325bb3	srl	x23,x4,x19	  x4:0x00000180 x19:0x00000000 x23=0x00000180
       40285000	      4027	80005400	0811da63	bge	x3,x1,80005494	  x3:0x0000063d  x1:0xfffff994
       40295000	      4028	00000000	00000013	addi	x0,x0,0	  x0:0x00000000
       40305000	      4029	80005490	00000013	addi	x0,x0,0	  x0:0x00000000
       40315000	      4030	80005494	013225b3	slt	x11,x4,x19	  x4:0x00000180 x19:0x00000000 x11=0x00000000
       40325000	      4031	80005498	00000013	addi	x0,x0,0	  x0:0x00000000
       40335000	      4032	8000549c	fd476013	ori	x0,x14,-44	 x14:0x00000000
       40345000	      4033	800054a0	02250e63	beq	x10,x2,800054dc	 x10:0x00000000  x2:0x00000000
       40355000	      4034	00000000	00000013	addi	x0,x0,0	  x0:0x00000000
       40365000	      4035	800054d8	00000013	addi	x0,x0,0	  x0:0x00000000
       40375000	      4036	800054dc	feb33b13	sltiu	x22,x6,-21	  x6:0x00000000 x22=0x00000001
       40385000	      4037	800054e0	01f3d913	srli	x18,x7,0x1f	  x7:0x00000002 x18=0x00000000
       40395000	      4038	800054e4	018222b3	slt	x5,x4,x24	  x4:0x00000180 x24:0x00000000  x5=0x00000000
       40405000	      4039	800054e8	40e7d5b3	sra	x11,x15,x14	 x15:0x80009fc4 x14:0x00000000 x11=0x80009fc4
       40415000	      4040	800054ec	aa37c437	lui	x8,0xaa37c	  x8=0xaa37c000
       40425000	      4041	800054f0	01303bb3	sltu	x23,x0,x19	  x0:0x00000000 x19:0x00000000 x23=0x00000000
       40435000	      4042	800054f4	8eac39b7	lui	x19,0x8eac3	 x19=0x8eac3000
       40445000	      4043	800054f8	009cf5b3	and	x11,x25,x9	 x25:0x00000000  x9:0xffffffff x11=0x00000000
       40455000	      4044	800054fc	005e05b3	add	x11,x28,x5	 x28:0xfffff9fc  x5:0x00000000 x11=0xfffff9fc
       40465000	      4045	80005500	01f60f33	add	x30,x12,x31	 x12:0x00000001 x31:0xfffffbae x30=0xfffffbaf
       40475000	      4046	80005504	28769bb7	lui	x23,0x28769	 x23=0x28769000
       40485000	      4047	80005508	b3f57193	andi	x3,x10,-1217	 x10:0x00000000  x3=0x00000000
       40495000	      4048	8000550c	0010e733	or	x14,x1,x1	  x1:0xfffff994  x1:0xfffff994 x14=0xfffff994
       40505000	      4049	80005510	01775293	srli	x5,x14,0x17	 x14:0xfffff994  x5=0x000001ff
       40515000	      4050	80005514	013fc133	xor	x2,x31,x19	 x31:0xfffffbae x19:0x8eac3000  x2=0x7153cbae
       40525000	      4051	80005518	010c3233	sltu	x4,x24,x16	 x24:0x00000000 x16:0xfffff9fc  x4=0x00000001
       40535000	      4052	8000551c	d0277e13	andi	x28,x14,-766	 x14:0xfffff994 x28=0xfffff900
       40545000	      4053	80005520	01cf1b13	slli	x22,x30,0x1c	 x30:0xfffffbaf x22=0xf0000000
       40555000	      4054	80005524	3e3a7393	andi	x7,x20,995	 x20:0x0000020e  x7=0x00000202
       40565000	      4055	80005528	b2b25537	lui	x10,0xb2b25	 x10=0xb2b25000
       40575000	      4056	8000552c	77767697	auipc	x13,0x77767	 x13=0xf776c528
       40585000	      4057	80005530	03fe4863	blt	x28,x31,80005560	 x28:0xfffff900 x31:0xfffffbae
       40595000	      4058	00000000	00000013	addi	x0,x0,0	  x0:0x00000000
       40605000	      4059	8000555c	00000013	addi	x0,x0,0	  x0:0x00000000
       40615000	      4060	80005560	04a2f513	andi	x10,x5,74	  x5:0x000001ff x10=0x0000004a
       40625000	      4061	80005564	41690233	sub	x4,x18,x22	 x18:0x00000000 x22:0xf0000000  x4=0x10000000
       40635000	      4062	80005568	0f048463	beq	x9,x16,80005650	  x9:0xffffffff x16:0xfffff9fc
       40645000	      4063	8000556c	0c67f063	bgeu	x15,x6,8000562c	 x15:0x80009fc4  x6:0x00000000
       40655000	      4064	00000000	00000013	addi	x0,x0,0	  x0:0x00000000
       40665000	      4065	80005628	00000013	addi	x0,x0,0	  x0:0x00000000
       40675000	      4066	8000562c	015b9eb3	sll	x29,x23,x21	 x23:0x28769000 x21:0x0000020e x29=0xa4000000
       40685000	      4067	80005630	01339a63	bne	x7,x19,80005644	  x7:0x00000202 x19:0x8eac3000
       40695000	      4068	00000000	00000013	addi	x0,x0,0	  x0:0x00000000
       40705000	      4069	80005640	00000013	addi	x0,x0,0	  x0:0x00000000
       40715000	      4070	80005644	0200cc63	blt	x1,x0,8000567c	  x1:0xfffff994  x0:0x00000000
       40725000	      4071	00000000	00000013	addi	x0,x0,0	  x0:0x00000000
       40735000	      4072	80005678	00000013	addi	x0,x0,0	  x0:0x00000000
       40745000	      4073	8000567c	c4036f93	ori	x31,x6,-960	  x6:0x00000000 x31=0xfffffc40
       40755000	      4074	80005680	00000013	addi	x0,x0,0	  x0:0x00000000
       40765000	      4075	80005684	633106b7	lui	x13,0x63310	 x13=0x63310000
       40775000	      4076	80005688	01211cb3	sll	x25,x2,x18	  x2:0x7153cbae x18:0x00000000 x25=0x7153cbae
       40785000	      4077	8000568c	f0967093	andi	x1,x12,-247	 x12:0x00000001  x1=0x00000001
       40795000	      4078	80005690	02ee7463	bgeu	x28,x14,800056b8	 x28:0xfffff900 x14:0xfffff994
       40805000	      4079	80005694	2f6ee037	lui	x0,0x2f6ee	
       40815000	      4080	80005698	c67f6613	ori	x12,x30,-921	 x30:0xfffffbaf x12=0xffffffef
       40825000	      4081	8000569c	018a1f13	slli	x30,x20,0x18	 x20:0x0000020e x30=0x0e000000
       40835000	      4082	800056a0	3cb12bb7	lui	x23,0x3cb12	 x23=0x3cb12000
       40845000	      4083	800056a4	4b2c7913	andi	x18,x24,1202	 x24:0x00000000 x18=0x00000000
       40855000	      4084	800056a8	e79e8393	addi	x7,x29,-391	 x29:0xa4000000  x7=0xa3fffe79
       40865000	      4085	800056ac	f10492b7	lui	x5,0xf1049	  x5=0xf1049000
       40875000	      4086	800056b0	018725b3	slt	x11,x14,x24	 x14:0xfffff994 x24:0x00000000 x11=0x00000001
       40885000	      4087	800056b4	01069fb3	sll	x31,x13,x16	 x13:0x63310000 x16:0xfffff9fc x31=0x00000000
       40895000	      4088	800056b8	dc00a413	slti	x8,x1,-576	  x1:0x00000001  x8=0x00000000
       40905000	      4089	800056bc	01f01333	sll	x6,x0,x31	  x0:0x00000000 x31:0x00000000  x6=0x00000000
       40915000	      4090	800056c0	00a20463	beq	x4,x10,800056c8	  x4:0x10000000 x10:0x0000004a
       40925000	      4091	800056c4	01e152b3	srl	x5,x2,x30	  x2:0x7153cbae x30:0x0e000000  x5=0x7153cbae
       40935000	      4092	800056c8	008bdf13	srli	x30,x23,0x8	 x23:0x3cb12000 x30=0x003cb120
       40945000	      4093	800056cc	883abe13	sltiu	x28,x21,-1917	 x21:0x0000020e x28=0x00000001
       40955000	      4094	800056d0	03aafe63	bgeu	x21,x26,8000570c	 x21:0x0000020e x26:0x00000004
       40965000	      4095	00000000	00000013	addi	x0,x0,0	  x0:0x00000000
       40975000	      4096	80005708	00000013	addi	x0,x0,0	  x0:0x00000000
       40985000	      4097	8000570c	00000013	addi	x0,x0,0	  x0:0x00000000
       40995000	      4098	80005710	c8fa3a13	sltiu	x20,x20,-881	 x20:0x0000020e x20=0x00000001
       41005000	      4099	80005714	0161c9b3	xor	x19,x3,x22	  x3:0x00000000 x22:0xf0000000 x19=0xf0000000
       41015000	      4100	80005718	02888e63	beq	x17,x8,80005754	 x17:0x80009f2c  x8:0x00000000
       41025000	      4101	8000571c	01458863	beq	x11,x20,8000572c	 x11:0x00000001 x20:0x00000001
       41035000	      4102	00000000	00000013	addi	x0,x0,0	  x0:0x00000000
       41045000	      4103	80005728	00000013	addi	x0,x0,0	  x0:0x00000000
       41055000	      4104	8000572c	e9ed7a13	andi	x20,x26,-354	 x26:0x00000004 x20=0x00000004
       41065000	      4105	80005730	02125263	bge	x4,x1,80005754	  x4:0x10000000  x1:0x00000001
       41075000	      4106	00000000	00000013	addi	x0,x0,0	  x0:0x00000000
       41085000	      4107	80005750	00000013	addi	x0,x0,0	  x0:0x00000000
       41095000	      4108	80005754	03990063	beq	x18,x25,80005774	 x18:0x00000000 x25:0x7153cbae
       41105000	      4109	80005758	03e49863	bne	x9,x30,80005788	  x9:0xffffffff x30:0x003cb120
       41115000	      4110	00000000	00000013	addi	x0,x0,0	  x0:0x00000000
       41125000	      4111	80005784	00000013	addi	x0,x0,0	  x0:0x00000000
       41135000	      4112	80005788	014c5a13	srli	x20,x24,0x14	 x24:0x00000000 x20=0x00000000
       41145000	      4113	8000578c	03749c63	bne	x9,x23,800057c4	  x9:0xffffffff x23:0x3cb12000
       41155000	      4114	00000000	00000013	addi	x0,x0,0	  x0:0x00000000
       41165000	      4115	800057c0	00000013	addi	x0,x0,0	  x0:0x00000000
       41175000	      4116	800057c4	599fc2b7	lui	x5,0x599fc	  x5=0x599fc000
       41185000	      4117	800057c8	01839c93	slli	x25,x7,0x18	  x7:0xa3fffe79 x25=0x79000000
       41195000	      4118	800057cc	b1d9f0b7	lui	x1,0xb1d9f	  x1=0xb1d9f000
       41205000	      4119	800057d0	408ddcb3	sra	x25,x27,x8	 x27:0x00000000  x8:0x00000000 x25=0x00000000
       41215000	      4120	800057d4	49144a93	xori	x21,x8,1169	  x8:0x00000000 x21=0x00000491
       41225000	      4121	800057d8	84364d93	xori	x27,x12,-1981	 x12:0xffffffef x27=0x000007ac
       41235000	      4122	800057dc	02234663	blt	x6,x2,80005808	  x6:0x00000000  x2:0x7153cbae
       41245000	      4123	00000000	00000013	addi	x0,x0,0	  x0:0x00000000
       41255000	      4124	80005804	00000013	addi	x0,x0,0	  x0:0x00000000
       41265000	      4125	80005808	4b649217	auipc	x4,0x4b649	  x4=0xcb64e804
       41275000	      4126	8000580c	016f1c93	slli	x25,x30,0x16	 x30:0x003cb120 x25=0x48000000
       41285000	      4127	80005810	01935b13	srli	x22,x6,0x19	  x6:0x00000000 x22=0x00000000
       41295000	      4128	80005814	02539c63	bne	x7,x5,8000584c	  x7:0xa3fffe79  x5:0x599fc000
       41305000	      4129	00000000	00000013	addi	x0,x0,0	  x0:0x00000000
       41315000	      4130	80005848	00000013	addi	x0,x0,0	  x0:0x00000000
       41325000	      4131	8000584c	00bca633	slt	x12,x25,x11	 x25:0x48000000 x11:0x00000001 x12=0x00000000
       41335000	      4132	80005850	019a4bb3	xor	x23,x20,x25	 x20:0x00000000 x25:0x48000000 x23=0x48000000
       41345000	      4133	80005854	7d16c093	xori	x1,x13,2001	 x13:0x63310000  x1=0x633107d1
       41355000	      4134	80005858	00000013	addi	x0,x0,0	  x0:0x00000000
       41365000	      4135	8000585c	00fc81b3	add	x3,x25,x15	 x25:0x48000000 x15:0x80009fc4  x3=0xc8009fc4
       41375000	      4136	80005860	0042dcb3	srl	x25,x5,x4	  x5:0x599fc000  x4:0xcb64e804 x25=0x0599fc00
       41385000	      4137	80005864	0070aeb3	slt	x29,x1,x7	  x1:0x633107d1  x7:0xa3fffe79 x29=0x00000000
       41395000	      4138	80005868	015e7bb3	and	x23,x28,x21	 x28:0x00000001 x21:0x00000491 x23=0x00000001
       41405000	      4139	8000586c	40ec00b3	sub	x1,x24,x14	 x24:0x00000000 x14:0xfffff994  x1=0x0000066c
       41415000	      4140	80005870	01d61113	slli	x2,x12,0x1d	 x12:0x00000000  x2=0x00000000
       41425000	      4141	80005874	00c17a63	bgeu	x2,x12,80005888	  x2:0x00000000 x12:0x00000000
       41435000	      4142	00000000	00000013	addi	x0,x0,0	  x0:0x00000000
       41445000	      4143	80005884	00000013	addi	x0,x0,0	  x0:0x00000000
       41455000	      4144	80005888	03c3cc63	blt	x7,x28,800058c0	  x7:0xa3fffe79 x28:0x00000001
       41465000	      4145	00000000	00000013	addi	x0,x0,0	  x0:0x00000000
       41475000	      4146	800058bc	00000013	addi	x0,x0,0	  x0:0x00000000
       41485000	      4147	800058c0	0159ec33	or	x24,x19,x21	 x19:0xf0000000 x21:0x00000491 x24=0xf0000491
       41495000	      4148	800058c4	01296463	bltu	x18,x18,800058cc	 x18:0x00000000 x18:0x00000000
       41505000	      4149	800058c8	0134c3b3	xor	x7,x9,x19	  x9:0xffffffff x19:0xf0000000  x7=0x0fffffff
       41515000	      4150	800058cc	0165f0b3	and	x1,x11,x22	 x11:0x00000001 x22:0x00000000  x1=0x00000000
       41525000	      4151	800058d0	4090d713	srai	x14,x1,0x9	  x1:0x00000000 x14=0x00000000
       41535000	      4152	800058d4	02b5f063	bgeu	x11,x11,800058f4	 x11:0x00000001 x11:0x00000001
       41545000	      4153	00000000	00000013	addi	x0,x0,0	  x0:0x00000000
       41555000	      4154	800058f0	00000013	addi	x0,x0,0	  x0:0x00000000
       41565000	      4155	800058f4	01e0b133	sltu	x2,x1,x30	  x1:0x00000000 x30:0x003cb120  x2=0x00000001
       41575000	      4156	800058f8	40838633	sub	x12,x7,x8	  x7:0x0fffffff  x8:0x00000000 x12=0x0fffffff
       41585000	      4157	800058fc	01b86e33	or	x28,x16,x27	 x16:0xfffff9fc x27:0x000007ac x28=0xfffffffc
       41595000	      4158	80005900	0181ee33	or	x28,x3,x24	  x3:0xc8009fc4 x24:0xf0000491 x28=0xf8009fd5
       41605000	      4159	80005904	00edf2b3	and	x5,x27,x14	 x27:0x000007ac x14:0x00000000  x5=0x00000000
       41615000	      4160	80005908	02cc1e63	bne	x24,x12,80005944	 x24:0xf0000491 x12:0x0fffffff
       41625000	      4161	00000000	00000013	addi	x0,x0,0	  x0:0x00000000
       41635000	      4162	80005940	00000013	addi	x0,x0,0	  x0:0x00000000
       41645000	      4163	80005944	4164d293	srai	x5,x9,0x16	  x9:0xffffffff  x5=0xffffffff
       41655000	      4164	80005948	dae64213	xori	x4,x12,-594	 x12:0x0fffffff  x4=0xf0000251
       41665000	      4165	8000594c	eb1b2413	slti	x8,x22,-335	 x22:0x00000000  x8=0x00000000
       41675000	      4166	80005950	88722813	slti	x16,x4,-1913	  x4:0xf0000251 x16=0x00000001
       41685000	      4167	80005954	01ea4c33	xor	x24,x20,x30	 x20:0x00000000 x30:0x003cb120 x24=0x003cb120
       41695000	      4168	80005958	41b35b93	srai	x23,x6,0x1b	  x6:0x00000000 x23=0x00000000
       41705000	      4169	8000595c	56d42193	slti	x3,x8,1389	  x8:0x00000000  x3=0x00000001
       41715000	      4170	80005960	40555913	srai	x18,x10,0x5	 x10:0x0000004a x18=0x00000002
       41725000	      4171	80005964	01de2a33	slt	x20,x28,x29	 x28:0xf8009fd5 x29:0x00000000 x20=0x00000001
       41735000	      4172	80005968	d352c513	xori	x10,x5,-715	  x5:0xffffffff x10=0x000002ca
       41745000	      4173	8000596c	00aa5993	srli	x19,x20,0xa	 x20:0x00000001 x19=0x00000000
       41755000	      4174	80005970	00000013	addi	x0,x0,0	  x0:0x00000000
       41765000	      4175	80005974	af8ab9b7	lui	x19,0xaf8ab	 x19=0xaf8ab000
       41775000	      4176	80005978	05c7c263	blt	x15,x28,800059bc	 x15:0x80009fc4 x28:0xf8009fd5
       41785000	      4177	00000000	00000013	addi	x0,x0,0	  x0:0x00000000
       41795000	      4178	800059b8	00000013	addi	x0,x0,0	  x0:0x00000000
       41805000	      4179	800059bc	015d1293	slli	x5,x26,0x15	 x26:0x00000004  x5=0x00800000
       41815000	      4180	800059c0	0d824e13	xori	x28,x4,216	  x4:0xf0000251 x28=0xf0000289
       41825000	      4181	800059c4	011af913	andi	x18,x21,17	 x21:0x00000491 x18=0x00000011
       41835000	      4182	800059c8	7b9fa993	slti	x19,x31,1977	 x31:0x00000000 x19=0x00000001
       41845000	      4183	800059cc	9f01aa93	slti	x21,x3,-1552	  x3:0x00000001 x21=0x00000000
       41855000	      4184	800059d0	03179e63	bne	x15,x17,80005a0c	 x15:0x80009fc4 x17:0x80009f2c
       41865000	      4185	00000000	00000013	addi	x0,x0,0	  x0:0x00000000
       41875000	      4186	80005a08	00000013	addi	x0,x0,0	  x0:0x00000000
       41885000	      4187	80005a0c	4d3d0813	addi	x16,x26,1235	 x26:0x00000004 x16=0x000004d7
       41895000	      4188	80005a10	026a6063	bltu	x20,x6,80005a30	 x20:0x00000001  x6:0x00000000
       41905000	      4189	80005a14	00ffc663	blt	x31,x15,80005a20	 x31:0x00000000 x15:0x80009fc4
       41915000	      4190	80005a18	881f4b93	xori	x23,x30,-1919	 x30:0x003cb120 x23=0xffc349a1
       41925000	      4191	80005a1c	00000013	addi	x0,x0,0	  x0:0x00000000
       41935000	      4192	80005a20	00063733	sltu	x14,x12,x0	 x12:0x0fffffff  x0:0x00000000 x14=0x00000000
       41945000	      4193	80005a24	00fcdc93	srli	x25,x25,0xf	 x25:0x0599fc00 x25=0x00000b33
       41955000	      4194	80005a28	01791633	sll	x12,x18,x23	 x18:0x00000011 x23:0xffc349a1 x12=0x00000022
       41965000	      4195	80005a2c	0060d933	srl	x18,x1,x6	  x1:0x00000000  x6:0x00000000 x18=0x00000000
       41975000	      4196	80005a30	02b95c63	bge	x18,x11,80005a68	 x18:0x00000000 x11:0x00000001
       41985000	      4197	80005a34	03e49863	bne	x9,x30,80005a64	  x9:0xffffffff x30:0x003cb120
       41995000	      4198	00000000	00000013	addi	x0,x0,0	  x0:0x00000000
       42005000	      4199	80005a60	00000013	addi	x0,x0,0	  x0:0x00000000
       42015000	      4200	80005a64	c81b6f93	ori	x31,x22,-895	 x22:0x00000000 x31=0xfffffc81
       42025000	      4201	80005a68	00665013	srli	x0,x12,0x6	 x12:0x00000022
       42035000	      4202	80005a6c	1ac38813	addi	x16,x7,428	  x7:0x0fffffff x16=0x100001ab
       42045000	      4203	80005a70	032b8e63	beq	x23,x18,80005aac	 x23:0xffc349a1 x18:0x00000000
       42055000	      4204	80005a74	00b13a33	sltu	x20,x2,x11	  x2:0x00000001 x11:0x00000001 x20=0x00000000
       42065000	      4205	80005a78	01183633	sltu	x12,x16,x17	 x16:0x100001ab x17:0x80009f2c x12=0x00000001
       42075000	      4206	80005a7c	0137d863	bge	x15,x19,80005a8c	 x15:0x80009fc4 x19:0x00000001
       42085000	      4207	80005a80	dc276413	ori	x8,x14,-574	 x14:0x00000000  x8=0xfffffdc2
       42095000	      4208	80005a84	40cad833	sra	x16,x21,x12	 x21:0x00000000 x12:0x00000001 x16=0x00000000
       42105000	      4209	80005a88	00cfd233	srl	x4,x31,x12	 x31:0xfffffc81 x12:0x00000001  x4=0x7ffffe40
       42115000	      4210	80005a8c	01c864b3	or	x9,x16,x28	 x16:0x00000000 x28:0xf0000289  x9=0xf0000289
       42125000	      4211	80005a90	0377c463	blt	x15,x23,80005ab8	 x15:0x80009fc4 x23:0xffc349a1
       42135000	      4212	00000000	00000013	addi	x0,x0,0	  x0:0x00000000
       42145000	      4213	80005ab4	00000013	addi	x0,x0,0	  x0:0x00000000
       42155000	      4214	80005ab8	94b46293	ori	x5,x8,-1717	  x8:0xfffffdc2  x5=0xfffffdcb
       42165000	      4215	80005abc	001a4933	xor	x18,x20,x1	 x20:0x00000000  x1:0x00000000 x18=0x00000000
       42175000	      4216	80005ac0	023c6e63	bltu	x24,x3,80005afc	 x24:0x003cb120  x3:0x00000001
       42185000	      4217	80005ac4	4145d293	srai	x5,x11,0x14	 x11:0x00000001  x5=0x00000000
       42195000	      4218	80005ac8	00882f33	slt	x30,x16,x8	 x16:0x00000000  x8:0xfffffdc2 x30=0x00000000
       42205000	      4219	80005acc	01e2d3b3	srl	x7,x5,x30	  x5:0x00000000 x30:0x00000000  x7=0x00000000
       42215000	      4220	80005ad0	4076d333	sra	x6,x13,x7	 x13:0x63310000  x7:0x00000000  x6=0x63310000
       42225000	      4221	80005ad4	00bcf463	bgeu	x25,x11,80005adc	 x25:0x00000b33 x11:0x00000001
       42235000	      4222	00000000	00000013	addi	x0,x0,0	  x0:0x00000000
       42245000	      4223	80005ad8	00000013	addi	x0,x0,0	  x0:0x00000000
       42255000	      4224	80005adc	0133e2b3	or	x5,x7,x19	  x7:0x00000000 x19:0x00000001  x5=0x00000001
       42265000	      4225	80005ae0	00689cb3	sll	x25,x17,x6	 x17:0x80009f2c  x6:0x63310000 x25=0x80009f2c
       42275000	      4226	80005ae4	c8740693	addi	x13,x8,-889	  x8:0xfffffdc2 x13=0xfffffa49
       42285000	      4227	80005ae8	c76b8e97	auipc	x29,0xc76b8	 x29=0x476bdae4
       42295000	      4228	80005aec	014100b3	add	x1,x2,x20	  x2:0x00000001 x20:0x00000000  x1=0x00000001
       42305000	      4229	80005af0	4112d193	srai	x3,x5,0x11	  x5:0x00000001  x3=0x00000000
       42315000	      4230	80005af4	37ef8293	addi	x5,x31,894	 x31:0xfffffc81  x5=0xffffffff
       42325000	      4231	80005af8	055fc463	blt	x31,x21,80005b40	 x31:0xfffffc81 x21:0x00000000
       42335000	      4232	00000000	00000013	addi	x0,x0,0	  x0:0x00000000
       42345000	      4233	80005b3c	00000013	addi	x0,x0,0	  x0:0x00000000
       42355000	      4234	80005b40	50424993	xori	x19,x4,1284	  x4:0x7ffffe40 x19=0x7ffffb44
       42365000	      4235	80005b44	03180063	beq	x16,x17,80005b64	 x16:0x00000000 x17:0x80009f2c
       42375000	      4236	80005b48	00998ab3	add	x21,x19,x9	 x19:0x7ffffb44  x9:0xf0000289 x21=0x6ffffdcd
       42385000	      4237	80005b4c	013ecbb3	xor	x23,x29,x19	 x29:0x476bdae4 x19:0x7ffffb44 x23=0x389421a0
       42395000	      4238	80005b50	01988633	add	x12,x17,x25	 x17:0x80009f2c x25:0x80009f2c x12=0x00013e58
       42405000	      4239	80005b54	00f6e933	or	x18,x13,x15	 x13:0xfffffa49 x15:0x80009fc4 x18=0xffffffcd
       42415000	      4240	80005b58	02338463	beq	x7,x3,80005b80	  x7:0x00000000  x3:0x00000000
       42425000	      4241	00000000	00000013	addi	x0,x0,0	  x0:0x00000000
       42435000	      4242	80005b7c	00000013	addi	x0,x0,0	  x0:0x00000000
       42445000	      4243	80005b80	785e7bb7	lui	x23,0x785e7	 x23=0x785e7000
       42455000	      4244	80005b84	01b24233	xor	x4,x4,x27	  x4:0x7ffffe40 x27:0x000007ac  x4=0x7ffff9ec
       42465000	      4245	80005b88	00f81513	slli	x10,x16,0xf	 x16:0x00000000 x10=0x00000000
       42475000	      4246	80005b8c	37c10293	addi	x5,x2,892	  x2:0x00000001  x5=0x0000037d
       42485000	      4247	80005b90	01521f33	sll	x30,x4,x21	  x4:0x7ffff9ec x21:0x6ffffdcd x30=0xff3d8000
       42495000	      4248	80005b94	01a61113	slli	x2,x12,0x1a	 x12:0x00013e58  x2=0x60000000
       42505000	      4249	80005b98	73bb0f97	auipc	x31,0x73bb0	 x31=0xf3bb5b94
       42515000	      4250	80005b9c	01565f13	srli	x30,x12,0x15	 x12:0x00013e58 x30=0x00000000
       42525000	      4251	80005ba0	00000013	addi	x0,x0,0	  x0:0x00000000
       42535000	      4252	80005ba4	000c7663	bgeu	x24,x0,80005bb0	 x24:0x003cb120  x0:0x00000000
       42545000	      4253	00000000	00000013	addi	x0,x0,0	  x0:0x00000000
       42555000	      4254	80005bac	00000013	addi	x0,x0,0	  x0:0x00000000
       42565000	      4255	80005bb0	0121d593	srli	x11,x3,0x12	  x3:0x00000000 x11=0x00000000
       42575000	      4256	80005bb4	014cf433	and	x8,x25,x20	 x25:0x80009f2c x20:0x00000000  x8=0x00000000
       42585000	      4257	80005bb8	0048a083	lw	x1,4(x17)	 x17:0x80009f2c  x1=0x80005cf4 PA:0x80009f30
       42595000	      4258	80005bbc	6a013db7	lui	x27,0x6a013	 x27=0x6a013000
       42605000	      4259	80005bc0	0135b3b3	sltu	x7,x11,x19	 x11:0x00000000 x19:0x7ffffb44  x7=0x00000001
       42615000	      4260	80005bc4	03488893	addi	x17,x17,52	 x17:0x80009f2c x17=0x80009f60
       42625000	      4261	80005bc8	41215813	srai	x16,x2,0x12	  x2:0x60000000 x16=0x00001800
       42635000	      4262	80005bcc	00e42cb3	slt	x25,x8,x14	  x8:0x00000000 x14:0x00000000 x25=0x00000000
       42645000	      4263	80005bd0	01088f33	add	x30,x17,x16	 x17:0x80009f60 x16:0x00001800 x30=0x8000b760
       42655000	      4264	80005bd4	00108413	addi	x8,x1,1	  x1:0x80005cf4  x8=0x80005cf5
       42665000	      4265	80005bd8	00040467	jalr	x8,x8,0	  x8:0x80005cf5  x8=0x80005bd8
       42675000	      4266	00000000	00000013	addi	x0,x0,0	  x0:0x00000000
       42685000	      4267	80005cf4	00000013	addi	x0,x0,0	  x0:0x00000000
       42695000	      4268	80005cf8	00ee5193	srli	x3,x28,0xe	 x28:0xf0000289  x3=0x0003c000
       42705000	      4269	80005cfc	0254e463	bltu	x9,x5,80005d24	  x9:0xf0000289  x5:0x0000037d
       42715000	      4270	80005d00	415a0633	sub	x12,x20,x21	 x20:0x00000000 x21:0x6ffffdcd x12=0x90000233
       42725000	      4271	80005d04	7960ca93	xori	x21,x1,1942	  x1:0x80005cf4 x21=0x80005b62
       42735000	      4272	80005d08	ad283593	sltiu	x11,x16,-1326	 x16:0x00001800 x11=0x00000001
       42745000	      4273	80005d0c	01ab22b3	slt	x5,x22,x26	 x22:0x00000000 x26:0x00000004  x5=0x00000001
       42755000	      4274	80005d10	f626e213	ori	x4,x13,-158	 x13:0xfffffa49  x4=0xffffff6b
       42765000	      4275	80005d14	d45bbe37	lui	x28,0xd45bb	 x28=0xd45bb000
       42775000	      4276	80005d18	40315133	sra	x2,x2,x3	  x2:0x60000000  x3:0x0003c000  x2=0x60000000
       42785000	      4277	80005d1c	01fa6b33	or	x22,x20,x31	 x20:0x00000000 x31:0xf3bb5b94 x22=0xf3bb5b94
       42795000	      4278	80005d20	eedcea13	ori	x20,x25,-275	 x25:0x00000000 x20=0xfffffeed
       42805000	      4279	80005d24	d20fa0ef	jal	x1,80005d24	  x1=0x80005d24
       42815000	      4280	00000000	00000013	addi	x0,x0,0	  x0:0x00000000
       42825000	      4281	80000240	00000013	addi	x0,x0,0	  x0:0x00000000
       42835000	      4282	80000244	fcc88893	addi	x17,x17,-52	 x17:0x80009f60 x17=0x80009f2c
       42845000	      4283	80000248	01a5db33	srl	x22,x11,x26	 x11:0x00000001 x26:0x00000004 x22=0x00000000
       42855000	      4284	8000024c	00316933	or	x18,x2,x3	  x2:0x60000000  x3:0x0003c000 x18=0x6003c000
       42865000	      4285	80000250	19a96c13	ori	x24,x18,410	 x18:0x6003c000 x24=0x6003c19a
       42875000	      4286	80000254	ff02dab7	lui	x21,0xff02d	 x21=0xff02d000
       42885000	      4287	80000258	00f86bb3	or	x23,x16,x15	 x16:0x00001800 x15:0x80009fc4 x23=0x80009fc4
       42895000	      4288	8000025c	011e5f33	srl	x30,x28,x17	 x28:0xd45bb000 x17:0x80009f2c x30=0x000d45bb
       42905000	      4289	80000260	0b8a4c93	xori	x25,x20,184	 x20:0xfffffeed x25=0xfffffe55
       42915000	      4290	80000264	0018a223	sw	x1,4(x17)	 x17:0x80009f2c  x1:0x80005d24 PA:0x80009f30
       42925000	      4291	80000268	0110ecb3	or	x25,x1,x17	  x1:0x80005d24 x17:0x80009f2c x25=0x8000df2c
       42935000	      4292	8000026c	41615e13	srai	x28,x2,0x16	  x2:0x60000000 x28=0x00000180
       42945000	      4293	80000270	00008117	auipc	x2,0x8	  x2=0x8000826c
       42955000	      4294	80000274	50b10113	addi	x2,x2,1291	  x2:0x8000826c  x2=0x80008777
       42965000	      4295	80000278	00110223	sb	x1,4(x2)	  x2:0x80008777  x1:0x80005d24 PA:0x8000877b
       42975000	      4296	8000027c	a9d34093	xori	x1,x6,-1379	  x6:0x63310000  x1=0x9ccefa9d
       42985000	      4297	80000280	07750193	addi	x3,x10,119	 x10:0x00000000  x3=0x00000077
       42995000	      4298	80000284	6a81aa13	slti	x20,x3,1704	  x3:0x00000077 x20=0x00000001
       43005000	      4299	80000288	6cd58993	addi	x19,x11,1741	 x11:0x00000001 x19=0x000006ce
       43015000	      4300	8000028c	ff414803	lbu	x16,-12(x2)	  x2:0x80008777 x16=0x00000000 PA:0x8000876b
       43025000	      4301	80000290	00dd40b3	xor	x1,x26,x13	 x26:0x00000004 x13:0xfffffa49  x1=0xfffffa4d
       43035000	      4302	80000294	692d9f97	auipc	x31,0x692d9	 x31=0xe92d9290
       43045000	      4303	80000298	fff14a83	lbu	x21,-1(x2)	  x2:0x80008777 x21=0x0000004b PA:0x80008776
       43055000	      4304	8000029c	00f584b3	add	x9,x11,x15	 x11:0x00000001 x15:0x80009fc4  x9=0x80009fc5
       43065000	      4305	800002a0	00210403	lb	x8,2(x2)	  x2:0x80008777  x8=0xffffff84 PA:0x80008779
       43075000	      4306	800002a4	0011f233	and	x4,x3,x1	  x3:0x00000077  x1:0xfffffa4d  x4=0x00000045
       43085000	      4307	800002a8	00f6d913	srli	x18,x13,0xf	 x13:0xfffffa49 x18=0x0001ffff
       43095000	      4308	800002ac	014ff833	and	x16,x31,x20	 x31:0xe92d9290 x20:0x00000001 x16=0x00000000
       43105000	      4309	800002b0	01014a83	lbu	x21,16(x2)	  x2:0x80008777 x21=0x0000002c PA:0x80008787
       43115000	      4310	800002b4	0078ff33	and	x30,x17,x7	 x17:0x80009f2c  x7:0x00000001 x30=0x00000000
       43125000	      4311	800002b8	01947eb3	and	x29,x8,x25	  x8:0xffffff84 x25:0x8000df2c x29=0x8000df04
       43135000	      4312	800002bc	01c10123	sb	x28,2(x2)	  x2:0x80008777 x28:0x00000180 PA:0x80008779
       43145000	      4313	800002c0	ff010083	lb	x1,-16(x2)	  x2:0x80008777  x1=0xffffffb4 PA:0x80008767
       43155000	      4314	800002c4	ffb10083	lb	x1,-5(x2)	  x2:0x80008777  x1=0x00000030 PA:0x80008772
       43165000	      4315	800002c8	017a7033	and	x0,x20,x23	 x20:0x00000001 x23:0x80009fc4
       43175000	      4316	800002cc	01948933	add	x18,x9,x25	  x9:0x80009fc5 x25:0x8000df2c x18=0x00017ef1
       43185000	      4317	800002d0	412edd93	srai	x27,x29,0x12	 x29:0x8000df04 x27=0xffffe000
       43195000	      4318	800002d4	00014c03	lbu	x24,0(x2)	  x2:0x80008777 x24=0x00000009 PA:0x80008777
       43205000	      4319	800002d8	ff110e23	sb	x17,-4(x2)	  x2:0x80008777 x17:0x80009f2c PA:0x80008773
       43215000	      4320	800002dc	fef10ba3	sb	x15,-9(x2)	  x2:0x80008777 x15:0x80009fc4 PA:0x8000876e
       43225000	      4321	800002e0	00e14f03	lbu	x30,14(x2)	  x2:0x80008777 x30=0x00000050 PA:0x80008785
       43235000	      4322	800002e4	01a120a3	sw	x26,1(x2)	  x2:0x80008777 x26:0x00000004 PA:0x80008778
       43245000	      4323	800002e8	00715683	lhu	x13,7(x2)	  x2:0x80008777 x13=0x00004b47 PA:0x8000877e
       43255000	      4324	00000000	00000013	addi	x0,x0,0	  x0:0x00000000
       43265000	      4325	800002ec	4086df13	srai	x30,x13,0x8	 x13:0x00004b47 x30=0x0000004b
       43275000	      4326	800002f0	009120a3	sw	x9,1(x2)	  x2:0x80008777  x9:0x80009fc5 PA:0x80008778
       43285000	      4327	800002f4	00315b03	lhu	x22,3(x2)	  x2:0x80008777 x22=0x00008000 PA:0x8000877a
       43295000	      4328	800002f8	41ec81b3	sub	x3,x25,x30	 x25:0x8000df2c x30:0x0000004b  x3=0x8000dee1
       43305000	      4329	800002fc	00800c33	add	x24,x0,x8	  x0:0x00000000  x8:0xffffff84 x24=0xffffff84
       43315000	      4330	80000300	01110823	sb	x17,16(x2)	  x2:0x80008777 x17:0x80009f2c PA:0x80008787
       43325000	      4331	80000304	00008117	auipc	x2,0x8	  x2=0x80008300
       43335000	      4332	80000308	f3a10113	addi	x2,x2,-198	  x2:0x80008300  x2=0x8000823a
       43345000	      4333	8000030c	fb1b7213	andi	x4,x22,-79	 x22:0x00008000  x4=0x00008000
       43355000	      4334	80000310	018c5813	srli	x16,x24,0x18	 x24:0xffffff84 x16=0x000000ff
       43365000	      4335	80000314	f2514c03	lbu	x24,-219(x2)	  x2:0x8000823a x24=0x0000000a PA:0x8000815f
       43375000	      4336	80000318	f2410f83	lb	x31,-220(x2)	  x2:0x8000823a x31=0x00000040 PA:0x8000815e
       43385000	      4337	8000031c	f1e15003	lhu	x0,-226(x2)	  x2:0x8000823a PA:0x80008158
       43395000	      4338	80000320	00475e33	srl	x28,x14,x4	 x14:0x00000000  x4:0x00008000 x28=0x00000000
       43405000	      4339	80000324	f9d10c03	lb	x24,-99(x2)	  x2:0x8000823a x24=0xffffffc3 PA:0x800081d7
       43415000	      4340	80000328	7e32b313	sltiu	x6,x5,2019	  x5:0x00000001  x6=0x00000001
       43425000	      4341	8000032c	ff310b23	sb	x19,-10(x2)	  x2:0x8000823a x19:0x000006ce PA:0x80008230
       43435000	      4342	80000330	014ddeb3	srl	x29,x27,x20	 x27:0xffffe000 x20:0x00000001 x29=0x7ffff000
       43445000	      4343	80000334	419ad433	sra	x8,x21,x25	 x21:0x0000002c x25:0x8000df2c  x8=0x00000000
       43455000	      4344	80000338	41c3df33	sra	x30,x7,x28	  x7:0x00000001 x28:0x00000000 x30=0x00000001
       43465000	      4345	8000033c	00bae933	or	x18,x21,x11	 x21:0x0000002c x11:0x00000001 x18=0x0000002d
       43475000	      4346	80000340	a1237c13	andi	x24,x6,-1518	  x6:0x00000001 x24=0x00000000
       43485000	      4347	80000344	08a14903	lbu	x18,138(x2)	  x2:0x8000823a x18=0x000000d9 PA:0x800082c4
       43495000	      4348	80000348	017209b3	add	x19,x4,x23	  x4:0x00008000 x23:0x80009fc4 x19=0x80011fc4
       43505000	      4349	8000034c	0d514403	lbu	x8,213(x2)	  x2:0x8000823a  x8=0x00000088 PA:0x8000830f
       43515000	      4350	80000350	01049b13	slli	x22,x9,0x10	  x9:0x80009fc5 x22=0x9fc50000
       43525000	      4351	80000354	f8d10703	lb	x14,-115(x2)	  x2:0x8000823a x14=0x0000005b PA:0x800081c7
       43535000	      4352	80000358	a5dce993	ori	x19,x25,-1443	 x25:0x8000df2c x19=0xffffff7d
       43545000	      4353	8000035c	00056933	or	x18,x10,x0	 x10:0x00000000  x0:0x00000000 x18=0x00000000
       43555000	      4354	80000360	01445993	srli	x19,x8,0x14	  x8:0x00000088 x19=0x00000000
       43565000	      4355	80000364	56dba337	lui	x6,0x56dba	  x6=0x56dba000
       43575000	      4356	80000368	bd963ab7	lui	x21,0xbd963	 x21=0xbd963000
       43585000	      4357	8000036c	00fec333	xor	x6,x29,x15	 x29:0x7ffff000 x15:0x80009fc4  x6=0xffff6fc4
       43595000	      4358	80000370	03011003	lh	x0,48(x2)	  x2:0x8000823a PA:0x8000826a
       43605000	      4359	80000374	fff105a3	sb	x31,-21(x2)	  x2:0x8000823a x31:0x00000040 PA:0x80008225
       43615000	      4360	80000378	00000013	addi	x0,x0,0	  x0:0x00000000
       43625000	      4361	8000037c	7c6e6593	ori	x11,x28,1990	 x28:0x00000000 x11=0x000007c6
       43635000	      4362	80000380	40bc8fb3	sub	x31,x25,x11	 x25:0x8000df2c x11:0x000007c6 x31=0x8000d766
       43645000	      4363	80000384	fb914a83	lbu	x21,-71(x2)	  x2:0x8000823a x21=0x0000009c PA:0x800081f3
       43655000	      4364	80000388	6c174413	xori	x8,x14,1729	 x14:0x0000005b  x8=0x0000069a
       43665000	      4365	8000038c	00944433	xor	x8,x8,x9	  x8:0x0000069a  x9:0x80009fc5  x8=0x8000995f
       43675000	      4366	80000390	fd914b83	lbu	x23,-39(x2)	  x2:0x8000823a x23=0x00000057 PA:0x80008213
       43685000	      4367	80000394	006ed713	srli	x14,x29,0x6	 x29:0x7ffff000 x14=0x01ffffc0
       43695000	      4368	80000398	010d9813	slli	x16,x27,0x10	 x27:0xffffe000 x16=0xe0000000
       43705000	      4369	8000039c	f9d109a3	sb	x29,-109(x2)	  x2:0x8000823a x29:0x7ffff000 PA:0x800081cd
       43715000	      4370	800003a0	00008c97	auipc	x25,0x8	 x25=0x8000839c
       43725000	      4371	800003a4	e3ac8c93	addi	x25,x25,-454	 x25:0x8000839c x25=0x800081d6
       43735000	      4372	800003a8	2a0c9f23	sh	x0,702(x25)	 x25:0x800081d6  x0:0x00000000 PA:0x80008494
       43745000	      4373	800003ac	00f89e13	slli	x28,x17,0xf	 x17:0x80009f2c x28=0x4f960000
       43755000	      4374	800003b0	838bb993	sltiu	x19,x23,-1992	 x23:0x00000057 x19=0x00000001
       43765000	      4375	800003b4	09ec81a3	sb	x30,131(x25)	 x25:0x800081d6 x30:0x00000001 PA:0x80008259
       43775000	      4376	800003b8	240c9983	lh	x19,576(x25)	 x25:0x800081d6 x19=0xfffffc9c PA:0x80008416
       43785000	      4377	800003bc	0145c9b3	xor	x19,x11,x20	 x11:0x000007c6 x20:0x00000001 x19=0x000007c7
       43795000	      4378	800003c0	00c45813	srli	x16,x8,0xc	  x8:0x8000995f x16=0x00080009
       43805000	      4379	800003c4	017f2033	slt	x0,x30,x23	 x30:0x00000001 x23:0x00000057
       43815000	      4380	800003c8	01a70fb3	add	x31,x14,x26	 x14:0x01ffffc0 x26:0x00000004 x31=0x01ffffc4
       43825000	      4381	800003cc	aec20413	addi	x8,x4,-1300	  x4:0x00008000  x8=0x00007aec
       43835000	      4382	800003d0	00e3ce33	xor	x28,x7,x14	  x7:0x00000001 x14:0x01ffffc0 x28=0x01ffffc1
       43845000	      4383	800003d4	1a1ccb03	lbu	x22,417(x25)	 x25:0x800081d6 x22=0x000000ff PA:0x80008377
       43855000	      4384	800003d8	01f4bab3	sltu	x21,x9,x31	  x9:0x80009fc5 x31:0x01ffffc4 x21=0x00000000
       43865000	      4385	800003dc	218c84a3	sb	x24,521(x25)	 x25:0x800081d6 x24:0x00000000 PA:0x800083df
       43875000	      4386	800003e0	0023ab33	slt	x22,x7,x2	  x7:0x00000001  x2:0x8000823a x22=0x00000000
       43885000	      4387	800003e4	2b6cdf03	lhu	x30,694(x25)	 x25:0x800081d6 x30=0x00003a21 PA:0x8000848c
       43895000	      4388	800003e8	2d9c8683	lb	x13,729(x25)	 x25:0x800081d6 x13=0xfffffff0 PA:0x800084af
       43905000	      4389	800003ec	f95c8ea3	sb	x21,-99(x25)	 x25:0x800081d6 x21:0x00000000 PA:0x80008173
       43915000	      4390	800003f0	4088d993	srai	x19,x17,0x8	 x17:0x80009f2c x19=0xff80009f
       43925000	      4391	800003f4	49a08237	lui	x4,0x49a08	  x4=0x49a08000
       43935000	      4392	800003f8	f7000113	addi	x2,x0,-144	  x0:0x00000000  x2=0xffffff70
       43945000	      4393	800003fc	00f0beb3	sltu	x29,x1,x15	  x1:0x00000030 x15:0x80009fc4 x29=0x00000001
       43955000	      4394	80000400	2a4c88a3	sb	x4,689(x25)	 x25:0x800081d6  x4:0x49a08000 PA:0x80008487
       43965000	      4395	80000404	14f87e37	lui	x28,0x14f87	 x28=0x14f87000
       43975000	      4396	80000408	3aec8423	sb	x14,936(x25)	 x25:0x800081d6 x14:0x01ffffc0 PA:0x8000857e
       43985000	      4397	8000040c	5cfc8283	lb	x5,1487(x25)	 x25:0x800081d6  x5=0xffffffaf PA:0x800087a5
       43995000	      4398	80000410	003f51b3	srl	x3,x30,x3	 x30:0x00003a21  x3:0x8000dee1  x3=0x00001d10
       44005000	      4399	80000414	fa786113	ori	x2,x16,-89	 x16:0x00080009  x2=0xffffffaf
       44015000	      4400	80000418	f99c8183	lb	x3,-103(x25)	 x25:0x800081d6  x3=0xffffffeb PA:0x8000816f
       44025000	      4401	8000041c	30dc9223	sh	x13,772(x25)	 x25:0x800081d6 x13:0xfffffff0 PA:0x800084da
       44035000	      4402	80000420	0004ebb3	or	x23,x9,x0	  x9:0x80009fc5  x0:0x00000000 x23=0x80009fc5
       44045000	      4403	80000424	47ac8ca3	sb	x26,1145(x25)	 x25:0x800081d6 x26:0x00000004 PA:0x8000864f
       44055000	      4404	80000428	210c9023	sh	x16,512(x25)	 x25:0x800081d6 x16:0x00080009 PA:0x800083d6
       44065000	      4405	8000042c	00fa3bb3	sltu	x23,x20,x15	 x20:0x00000001 x15:0x80009fc4 x23=0x00000001
       44075000	      4406	80000430	f28ccb03	lbu	x22,-216(x25)	 x25:0x800081d6 x22=0x00000041 PA:0x800080fe
       44085000	      4407	80000434	e97c9c23	sh	x23,-360(x25)	 x25:0x800081d6 x23:0x00000001 PA:0x8000806e
       44095000	      4408	80000438	537c8e83	lb	x29,1335(x25)	 x25:0x800081d6 x29=0xfffffff2 PA:0x8000870d
       44105000	      4409	8000043c	00305233	srl	x4,x0,x3	  x0:0x00000000  x3:0xffffffeb  x4=0x00000000
       44115000	      4410	80000440	0171da33	srl	x20,x3,x23	  x3:0xffffffeb x23:0x00000001 x20=0x7ffffff5
       44125000	      4411	80000444	00e75593	srli	x11,x14,0xe	 x14:0x01ffffc0 x11=0x000007ff
       44135000	      4412	80000448	e9fcc103	lbu	x2,-353(x25)	 x25:0x800081d6  x2=0x00000025 PA:0x80008075
       44145000	      4413	8000044c	ae38a937	lui	x18,0xae38a	 x18=0xae38a000
       44155000	      4414	80000450	416d0f33	sub	x30,x26,x22	 x26:0x00000004 x22:0x00000041 x30=0xffffffc3
       44165000	      4415	80000454	fe7cc403	lbu	x8,-25(x25)	 x25:0x800081d6  x8=0x000000ff PA:0x800081bd
       44175000	      4416	80000458	01bb1233	sll	x4,x22,x27	 x22:0x00000041 x27:0xffffe000  x4=0x00000041
       44185000	      4417	8000045c	175c8d83	lb	x27,373(x25)	 x25:0x800081d6 x27=0x0000003e PA:0x8000834b
       44195000	      4418	80000460	0a9cc203	lbu	x4,169(x25)	 x25:0x800081d6  x4=0x000000a4 PA:0x8000827f
       44205000	      4419	80000464	79f2f913	andi	x18,x5,1951	  x5:0xffffffaf x18=0x0000078f
       44215000	      4420	80000468	4afc8d83	lb	x27,1199(x25)	 x25:0x800081d6 x27=0xffffff88 PA:0x80008685
       44225000	      4421	8000046c	56cc9983	lh	x19,1388(x25)	 x25:0x800081d6 x19=0x00000000 PA:0x80008742
       44235000	      4422	80000470	815af213	andi	x4,x21,-2027	 x21:0x00000000  x4=0x00000000
       44245000	      4423	80000474	2e1c8ca3	sb	x1,761(x25)	 x25:0x800081d6  x1:0x00000030 PA:0x800084cf
       44255000	      4424	80000478	50dc8c03	lb	x24,1293(x25)	 x25:0x800081d6 x24=0x00000028 PA:0x800086e3
       44265000	      4425	8000047c	3eacc703	lbu	x14,1002(x25)	 x25:0x800081d6 x14=0x00000015 PA:0x800085c0
       44275000	      4426	80000480	435c80a3	sb	x21,1057(x25)	 x25:0x800081d6 x21:0x00000000 PA:0x800085f7
       44285000	      4427	80000484	c5377993	andi	x19,x14,-941	 x14:0x00000015 x19=0x00000011
       44295000	      4428	80000488	182ca083	lw	x1,386(x25)	 x25:0x800081d6  x1=0x1f216492 PA:0x80008358
       44305000	      4429	00000000	00000013	addi	x0,x0,0	  x0:0x00000000
       44315000	      4430	8000048c	00008a17	auipc	x20,0x8	 x20=0x80008488
       44325000	      4431	80000490	63ea0a13	addi	x20,x20,1598	 x20:0x80008488 x20=0x80008ac6
       44335000	      4432	80000494	0cba0583	lb	x11,203(x20)	 x20:0x80008ac6 x11=0xffffff9b PA:0x80008b91
       44345000	      4433	80000498	074a06a3	sb	x20,109(x20)	 x20:0x80008ac6 x20:0x80008ac6 PA:0x80008b33
       44355000	      4434	8000049c	0135e233	or	x4,x11,x19	 x11:0xffffff9b x19:0x00000011  x4=0xffffff9b
       44365000	      4435	800004a0	fd4a5983	lhu	x19,-44(x20)	 x20:0x80008ac6 x19=0x00008575 PA:0x80008a9a
       44375000	      4436	800004a4	f7ba0903	lb	x18,-133(x20)	 x20:0x80008ac6 x18=0xffffffd3 PA:0x80008a41
       44385000	      4437	800004a8	05fa0903	lb	x18,95(x20)	 x20:0x80008ac6 x18=0xffffffff PA:0x80008b25
       44395000	      4438	800004ac	00000013	addi	x0,x0,0	  x0:0x00000000
       44405000	      4439	800004b0	019c5133	srl	x2,x24,x25	 x24:0x00000028 x25:0x800081d6  x2=0x00000000
       44415000	      4440	800004b4	f92a4103	lbu	x2,-110(x20)	 x20:0x80008ac6  x2=0x00000030 PA:0x80008a58
       44425000	      4441	800004b8	00baa5b3	slt	x11,x21,x11	 x21:0x00000000 x11:0xffffff9b x11=0x00000000
       44435000	      4442	800004bc	fb0a0683	lb	x13,-80(x20)	 x20:0x80008ac6 x13=0x00000048 PA:0x80008a76
       44445000	      4443	800004c0	091a0403	lb	x8,145(x20)	 x20:0x80008ac6  x8=0xffffffcb PA:0x80008b57
       44455000	      4444	800004c4	b9b5eb13	ori	x22,x11,-1125	 x11:0x00000000 x22=0xfffffb9b
       44465000	      4445	800004c8	01690033	add	x0,x18,x22	 x18:0xffffffff x22:0xfffffb9b
       44475000	      4446	800004cc	098a5403	lhu	x8,152(x20)	 x20:0x80008ac6  x8=0x0000cd36 PA:0x80008b5e
       44485000	      4447	800004d0	00e09913	slli	x18,x1,0xe	  x1:0x1f216492 x18=0x59248000
       44495000	      4448	800004d4	6986a813	slti	x16,x13,1688	 x13:0x00000048 x16=0x00000001
       44505000	      4449	800004d8	f74d9237	lui	x4,0xf74d9	  x4=0xf74d9000
       44515000	      4450	800004dc	41995db3	sra	x27,x18,x25	 x18:0x59248000 x25:0x800081d6 x27=0x00000164
       44525000	      4451	800004e0	037a4083	lbu	x1,55(x20)	 x20:0x80008ac6  x1=0x00000015 PA:0x80008afd
       44535000	      4452	800004e4	088a5003	lhu	x0,136(x20)	 x20:0x80008ac6 PA:0x80008b4e
       44545000	      4453	800004e8	0a3a0c03	lb	x24,163(x20)	 x20:0x80008ac6 x24=0xffffffc6 PA:0x80008b69
       44555000	      4454	800004ec	00c00133	add	x2,x0,x12	  x0:0x00000000 x12:0x90000233  x2=0x90000233
       44565000	      4455	800004f0	01c9f133	and	x2,x19,x28	 x19:0x00008575 x28:0x14f87000  x2=0x00000000
       44575000	      4456	800004f4	01440cb3	add	x25,x8,x20	  x8:0x0000cd36 x20:0x80008ac6 x25=0x800157fc
       44585000	      4457	800004f8	f38a1683	lh	x13,-200(x20)	 x20:0x80008ac6 x13=0x0000140f PA:0x800089fe
       44595000	      4458	800004fc	f79a4703	lbu	x14,-135(x20)	 x20:0x80008ac6 x14=0x00000000 PA:0x80008a3f
       44605000	      4459	80000500	00008817	auipc	x16,0x8	 x16=0x800084fc
       44615000	      4460	80000504	78480813	addi	x16,x16,1924	 x16:0x800084fc x16=0x80008c80
       44625000	      4461	80000508	33085303	lhu	x6,816(x16)	 x16:0x80008c80  x6=0x00000038 PA:0x80008fb0
       44635000	      4462	8000050c	0135d693	srli	x13,x11,0x13	 x11:0x00000000 x13=0x00000000
       44645000	      4463	80000510	004f1f93	slli	x31,x30,0x4	 x30:0xffffffc3 x31=0xfffffc30
       44655000	      4464	80000514	0114db13	srli	x22,x9,0x11	  x9:0x80009fc5 x22=0x00004000
       44665000	      4465	80000518	004abfb3	sltu	x31,x21,x4	 x21:0x00000000  x4:0xf74d9000 x31=0x00000001
       44675000	      4466	8000051c	000d59b3	srl	x19,x26,x0	 x26:0x00000004  x0:0x00000000 x19=0x00000004
       44685000	      4467	80000520	bf180283	lb	x5,-1039(x16)	 x16:0x80008c80  x5=0xffffffb1 PA:0x80008871
       44695000	      4468	80000524	40700733	sub	x14,x0,x7	  x0:0x00000000  x7:0x00000001 x14=0xffffffff
       44705000	      4469	80000528	04881023	sh	x8,64(x16)	 x16:0x80008c80  x8:0x0000cd36 PA:0x80008cc0
       44715000	      4470	8000052c	ea881d23	sh	x8,-326(x16)	 x16:0x80008c80  x8:0x0000cd36 PA:0x80008b3a
       44725000	      4471	80000530	dc9803a3	sb	x9,-569(x16)	 x16:0x80008c80  x9:0x80009fc5 PA:0x80008a47
       44735000	      4472	80000534	d9284983	lbu	x19,-622(x16)	 x16:0x80008c80 x19=0x000000c9 PA:0x80008a12
       44745000	      4473	80000538	d1c80fa3	sb	x28,-737(x16)	 x16:0x80008c80 x28:0x14f87000 PA:0x8000899f
       44755000	      4474	8000053c	ef885a83	lhu	x21,-264(x16)	 x16:0x80008c80 x21=0x0000f6d9 PA:0x80008b78
       44765000	      4475	80000540	ee781423	sh	x7,-280(x16)	 x16:0x80008c80  x7:0x00000001 PA:0x80008b68
       44775000	      4476	80000544	15480083	lb	x1,340(x16)	 x16:0x80008c80  x1=0xffffffa6 PA:0x80008dd4
       44785000	      4477	80000548	012e36b3	sltu	x13,x28,x18	 x28:0x14f87000 x18:0x59248000 x13=0x00000001
       44795000	      4478	8000054c	01c84103	lbu	x2,28(x16)	 x16:0x80008c80  x2=0x000000c4 PA:0x80008c9c
       44805000	      4479	80000550	409586b3	sub	x13,x11,x9	 x11:0x00000000  x9:0x80009fc5 x13=0x7fff603b
       44815000	      4480	80000554	ff982a23	sw	x25,-12(x16)	 x16:0x80008c80 x25:0x800157fc PA:0x80008c74
       44825000	      4481	80000558	c9584403	lbu	x8,-875(x16)	 x16:0x80008c80  x8=0x000000c3 PA:0x80008915
       44835000	      4482	8000055c	00705913	srli	x18,x0,0x7	  x0:0x00000000 x18=0x00000000
       44845000	      4483	80000560	bf584383	lbu	x7,-1035(x16)	 x16:0x80008c80  x7=0x00000061 PA:0x80008875
       44855000	      4484	80000564	32285683	lhu	x13,802(x16)	 x16:0x80008c80 x13=0x0000c612 PA:0x80008fa2
       44865000	      4485	80000568	01ad1993	slli	x19,x26,0x1a	 x26:0x00000004 x19=0x10000000
       44875000	      4486	8000056c	1f4805a3	sb	x20,491(x16)	 x16:0x80008c80 x20:0x80008ac6 PA:0x80008e6b
       44885000	      4487	80000570	01537fb3	and	x31,x6,x21	  x6:0x00000038 x21:0x0000f6d9 x31=0x00000018
       44895000	      4488	80000574	d4e85483	lhu	x9,-690(x16)	 x16:0x80008c80  x9=0x0000212e PA:0x800089ce
       44905000	      4489	80000578	00c65f93	srli	x31,x12,0xc	 x12:0x90000233 x31=0x00090000
       44915000	      4490	8000057c	41b05db3	sra	x27,x0,x27	  x0:0x00000000 x27:0x00000164 x27=0x00000000
       44925000	      4491	80000580	11d84b03	lbu	x22,285(x16)	 x16:0x80008c80 x22=0x00000069 PA:0x80008d9d
       44935000	      4492	80000584	01f84003	lbu	x0,31(x16)	 x16:0x80008c80 PA:0x80008c9f
       44945000	      4493	80000588	0bc84583	lbu	x11,188(x16)	 x16:0x80008c80 x11=0x0000002d PA:0x80008d3c
       44955000	      4494	8000058c	f6280203	lb	x4,-158(x16)	 x16:0x80008c80  x4=0x0000002a PA:0x80008be2
       44965000	      4495	80000590	01c01a33	sll	x20,x0,x28	  x0:0x00000000 x28:0x14f87000 x20=0x00000000
       44975000	      4496	80000594	00199a33	sll	x20,x19,x1	 x19:0x10000000  x1:0xffffffa6 x20=0x00000000
       44985000	      4497	80000598	1ee264b7	lui	x9,0x1ee26	  x9=0x1ee26000
       44995000	      4498	8000059c	4065dd93	srai	x27,x11,0x6	 x11:0x0000002d x27=0x00000000
       45005000	      4499	800005a0	25084083	lbu	x1,592(x16)	 x16:0x80008c80  x1=0x000000d8 PA:0x80008ed0
       45015000	      4500	800005a4	de281d23	sh	x2,-518(x16)	 x16:0x80008c80  x2:0x000000c4 PA:0x80008a7a
       45025000	      4501	800005a8	20481583	lh	x11,516(x16)	 x16:0x80008c80 x11=0xfffff8ae PA:0x80008e84
       45035000	      4502	800005ac	017709b3	add	x19,x14,x23	 x14:0xffffffff x23:0x00000001 x19=0x00000000
       45045000	      4503	800005b0	34c804a3	sb	x12,841(x16)	 x16:0x80008c80 x12:0x90000233 PA:0x80008fc9
       45055000	      4504	800005b4	2f580e03	lb	x28,757(x16)	 x16:0x80008c80 x28=0xffffffb7 PA:0x80008f75
       45065000	      4505	800005b8	85e0fb13	andi	x22,x1,-1954	  x1:0x000000d8 x22=0x00000058
       45075000	      4506	800005bc	be880d83	lb	x27,-1048(x16)	 x16:0x80008c80 x27=0xffffff86 PA:0x80008868
       45085000	      4507	800005c0	00008f17	auipc	x30,0x8	 x30=0x800085bc
       45095000	      4508	800005c4	fc9f0f13	addi	x30,x30,-55	 x30:0x800085bc x30=0x80008585
       45105000	      4509	800005c8	a68865b7	lui	x11,0xa6886	 x11=0xa6886000
       45115000	      4510	800005cc	d76f0d23	sb	x22,-646(x30)	 x30:0x80008585 x22:0x00000058 PA:0x800082ff
       45125000	      4511	800005d0	f57c0b97	auipc	x23,0xf57c0	 x23=0x757c05cc
       45135000	      4512	800005d4	b66f0ba3	sb	x6,-1161(x30)	 x30:0x80008585  x6:0x00000038 PA:0x800080fc
       45145000	      4513	800005d8	b1c97913	andi	x18,x18,-1252	 x18:0x00000000 x18=0x00000000
       45155000	      4514	800005dc	00000013	addi	x0,x0,0	  x0:0x00000000
       45165000	      4515	800005e0	c55f1583	lh	x11,-939(x30)	 x30:0x80008585 x11=0xffff9e37 PA:0x800081da
       45175000	      4516	800005e4	d6c3d617	auipc	x12,0xd6c3d	 x12=0x56c3d5e0
       45185000	      4517	800005e8	059f4e83	lbu	x29,89(x30)	 x30:0x80008585 x29=0x000000ef PA:0x800085de
       45195000	      4518	800005ec	0b0f4e03	lbu	x28,176(x30)	 x30:0x80008585 x28=0x00000000 PA:0x80008635
       45205000	      4519	800005f0	55f94f93	xori	x31,x18,1375	 x18:0x00000000 x31=0x0000055f
       45215000	      4520	800005f4	4000d9b3	sra	x19,x1,x0	  x1:0x000000d8  x0:0x00000000 x19=0x000000d8
       45225000	      4521	800005f8	e63e4213	xori	x4,x28,-413	 x28:0x00000000  x4=0xfffffe63
       45235000	      4522	800005fc	1cef0623	sb	x14,460(x30)	 x30:0x80008585 x14:0xffffffff PA:0x80008751
       45245000	      4523	80000600	ac5f0383	lb	x7,-1339(x30)	 x30:0x80008585  x7=0x0000006f PA:0x8000804a
       45255000	      4524	80000604	3c11d917	auipc	x18,0x3c11d	 x18=0xbc11d600
       45265000	      4525	80000608	afef4c83	lbu	x25,-1282(x30)	 x30:0x80008585 x25=0x00000051 PA:0x80008083
       45275000	      4526	8000060c	1ddf1683	lh	x13,477(x30)	 x30:0x80008585 x13=0x00006f85 PA:0x80008762
       45285000	      4527	80000610	f0af4c03	lbu	x24,-246(x30)	 x30:0x80008585 x24=0x00000061 PA:0x8000848f
       45295000	      4528	80000614	002474b3	and	x9,x8,x2	  x8:0x000000c3  x2:0x000000c4  x9=0x000000c0
       45305000	      4529	80000618	da4f12a3	sh	x4,-603(x30)	 x30:0x80008585  x4:0xfffffe63 PA:0x8000832a
       45315000	      4530	8000061c	e63f0a83	lb	x21,-413(x30)	 x30:0x80008585 x21=0xffffffbc PA:0x800083e8
       45325000	      4531	80000620	001b74b3	and	x9,x22,x1	 x22:0x00000058  x1:0x000000d8  x9=0x00000058
       45335000	      4532	80000624	90b77813	andi	x16,x14,-1781	 x14:0xffffffff x16=0xfffff90b
       45345000	      4533	80000628	b09f0b23	sb	x9,-1258(x30)	 x30:0x80008585  x9:0x00000058 PA:0x8000809b
       45355000	      4534	8000062c	ef8f21a3	sw	x24,-285(x30)	 x30:0x80008585 x24:0x00000061 PA:0x80008468
       45365000	      4535	80000630	c77f08a3	sb	x23,-911(x30)	 x30:0x80008585 x23:0x757c05cc PA:0x800081f6
       45375000	      4536	80000634	41c70c33	sub	x24,x14,x28	 x14:0xffffffff x28:0x00000000 x24=0xffffffff
       45385000	      4537	80000638	aaaeef93	ori	x31,x29,-1366	 x29:0x000000ef x31=0xfffffaef
       45395000	      4538	8000063c	ca1f4583	lbu	x11,-863(x30)	 x30:0x80008585 x11=0x00000037 PA:0x80008226
       45405000	      4539	80000640	d2cf4583	lbu	x11,-724(x30)	 x30:0x80008585 x11=0x0000004f PA:0x800082b1
       45415000	      4540	80000644	08ef0023	sb	x14,128(x30)	 x30:0x80008585 x14:0xffffffff PA:0x80008605
       45425000	      4541	80000648	f49f5c03	lhu	x24,-183(x30)	 x30:0x80008585 x24=0x0000300a PA:0x800084ce
       45435000	      4542	8000064c	140f0c23	sb	x0,344(x30)	 x30:0x80008585  x0:0x00000000 PA:0x800086dd
       45445000	      4543	80000650	f5af4383	lbu	x7,-166(x30)	 x30:0x80008585  x7=0x00000030 PA:0x800084df
       45455000	      4544	80000654	1fdf0a03	lb	x20,509(x30)	 x30:0x80008585 x20=0x00000063 PA:0x80008782
       45465000	      4545	80000658	1a1f0623	sb	x1,428(x30)	 x30:0x80008585  x1:0x000000d8 PA:0x80008731
       45475000	      4546	8000065c	1a9f4483	lbu	x9,425(x30)	 x30:0x80008585  x9=0x000000ff PA:0x8000872e
       45485000	      4547	80000660	135f5983	lhu	x19,309(x30)	 x30:0x80008585 x19=0x00008d97 PA:0x800086ba
       45495000	      4548	80000664	e8af0b83	lb	x23,-374(x30)	 x30:0x80008585 x23=0xfffffffb PA:0x8000840f
       45505000	      4549	80000668	00008617	auipc	x12,0x8	 x12=0x80008664
       45515000	      4550	8000066c	c8a60613	addi	x12,x12,-886	 x12:0x80008664 x12=0x800082ee
       45525000	      4551	80000670	fe364703	lbu	x14,-29(x12)	 x12:0x800082ee x14=0x0000006f PA:0x800082d1
       45535000	      4552	80000674	01a415b3	sll	x11,x8,x26	  x8:0x000000c3 x26:0x00000004 x11=0x00000c30
       45545000	      4553	80000678	01560f83	lb	x31,21(x12)	 x12:0x800082ee x31=0xffffffbc PA:0x80008303
       45555000	      4554	8000067c	415e80b3	sub	x1,x29,x21	 x29:0x000000ef x21:0xffffffbc  x1=0x00000133
       45565000	      4555	80000680	03164403	lbu	x8,49(x12)	 x12:0x800082ee  x8=0x00000000 PA:0x8000831f
       45575000	      4556	00000000	00000013	addi	x0,x0,0	  x0:0x00000000
       45585000	      4557	80000684	00861b83	lh	x23,8(x12)	 x12:0x800082ee x23=0xffffd9bd PA:0x800082f6
       45595000	      4558	80000688	00b61823	sh	x11,16(x12)	 x12:0x800082ee x11:0x00000c30 PA:0x800082fe
       45605000	      4559	8000068c	000efa33	and	x20,x29,x0	 x29:0x000000ef  x0:0x00000000 x20=0x00000000
       45615000	      4560	80000690	015110b3	sll	x1,x2,x21	  x2:0x000000c4 x21:0xffffffbc  x1=0x40000000
       45625000	      4561	80000694	007450b3	srl	x1,x8,x7	  x8:0x00000000  x7:0x00000030  x1=0x00000000
       45635000	      4562	80000698	01c61b83	lh	x23,28(x12)	 x12:0x800082ee x23=0xffff9d3a PA:0x8000830a
       45645000	      4563	8000069c	ffe61e23	sh	x30,-4(x12)	 x12:0x800082ee x30:0x80008585 PA:0x800082ea
       45655000	      4564	800006a0	00465c03	lhu	x24,4(x12)	 x12:0x800082ee x24=0x0000a8a1 PA:0x800082f2
       45665000	      4565	800006a4	fef60c23	sb	x15,-8(x12)	 x12:0x800082ee x15:0x80009fc4 PA:0x800082e6
       45675000	      4566	800006a8	02764903	lbu	x18,39(x12)	 x12:0x800082ee x18=0x00000079 PA:0x80008315
       45685000	      4567	800006ac	40fcd513	srai	x10,x25,0xf	 x25:0x00000051 x10=0x00000000
       45695000	      4568	800006b0	ffe64383	lbu	x7,-2(x12)	 x12:0x800082ee  x7=0x00000017 PA:0x800082ec
       45705000	      4569	800006b4	00a61123	sh	x10,2(x12)	 x12:0x800082ee x10:0x00000000 PA:0x800082f0
       45715000	      4570	800006b8	02461403	lh	x8,36(x12)	 x12:0x800082ee  x8=0x000044a5 PA:0x80008312
       45725000	      4571	800006bc	40790993	addi	x19,x18,1031	 x18:0x00000079 x19=0x00000480
       45735000	      4572	800006c0	4059dc13	srai	x24,x19,0x5	 x19:0x00000480 x24=0x00000024
       45745000	      4573	800006c4	006e9b13	slli	x22,x29,0x6	 x29:0x000000ef x22=0x00003bc0
       45755000	      4574	800006c8	41660c33	sub	x24,x12,x22	 x12:0x800082ee x22:0x00003bc0 x24=0x8000472e
       45765000	      4575	800006cc	01560aa3	sb	x21,21(x12)	 x12:0x800082ee x21:0xffffffbc PA:0x80008303
       45775000	      4576	800006d0	12fd6a93	ori	x21,x26,303	 x26:0x00000004 x21=0x0000012f
       45785000	      4577	800006d4	01e2bab3	sltu	x21,x5,x30	  x5:0xffffffb1 x30:0x80008585 x21=0x00000000
       45795000	      4578	800006d8	00278233	add	x4,x15,x2	 x15:0x80009fc4  x2:0x000000c4  x4=0x8000a088
       45805000	      4579	800006dc	8604fe13	andi	x28,x9,-1952	  x9:0x000000ff x28=0x00000060
       45815000	      4580	800006e0	fde60b03	lb	x22,-34(x12)	 x12:0x800082ee x22=0x0000005e PA:0x800082cc
       45825000	      4581	800006e4	00008117	auipc	x2,0x8	  x2=0x800086e0
       45835000	      4582	800006e8	f7910113	addi	x2,x2,-135	  x2:0x800086e0  x2=0x80008659
       45845000	      4583	800006ec	03110323	sb	x17,38(x2)	  x2:0x80008659 x17:0x80009f2c PA:0x8000867f
       45855000	      4584	800006f0	bfe14083	lbu	x1,-1026(x2)	  x2:0x80008659  x1=0x000000ab PA:0x80008257
       45865000	      4585	800006f4	00000013	addi	x0,x0,0	  x0:0x00000000
       45875000	      4586	800006f8	a7c14083	lbu	x1,-1412(x2)	  x2:0x80008659  x1=0x0000006a PA:0x800080d5
       45885000	      4587	800006fc	f2210ea3	sb	x2,-195(x2)	  x2:0x80008659  x2:0x80008659 PA:0x80008596
       45895000	      4588	80000700	cd511e03	lh	x28,-811(x2)	  x2:0x80008659 x28=0xffffa5c2 PA:0x8000832e
       45905000	      4589	80000704	01041693	slli	x13,x8,0x10	  x8:0x000044a5 x13=0x44a50000
       45915000	      4590	80000708	006cf433	and	x8,x25,x6	 x25:0x00000051  x6:0x00000038  x8=0x00000010
       45925000	      4591	8000070c	c7314503	lbu	x10,-909(x2)	  x2:0x80008659 x10=0x0000005e PA:0x800082cc
       45935000	      4592	80000710	b6710823	sb	x7,-1168(x2)	  x2:0x80008659  x7:0x00000017 PA:0x800081c9
       45945000	      4593	80000714	0097c833	xor	x16,x15,x9	 x15:0x80009fc4  x9:0x000000ff x16=0x80009f3b
       45955000	      4594	80000718	d4410603	lb	x12,-700(x2)	  x2:0x80008659 x12=0x00000012 PA:0x8000839d
       45965000	      4595	8000071c	00345d93	srli	x27,x8,0x3	  x8:0x00000010 x27=0x00000002
       45975000	      4596	80000720	25accd93	xori	x27,x25,602	 x25:0x00000051 x27=0x0000020b
       45985000	      4597	80000724	fca10523	sb	x10,-54(x2)	  x2:0x80008659 x10:0x0000005e PA:0x80008623
       45995000	      4598	80000728	411553b3	sra	x7,x10,x17	 x10:0x0000005e x17:0x80009f2c  x7=0x00000000
       46005000	      4599	8000072c	a8f4b593	sltiu	x11,x9,-1393	  x9:0x000000ff x11=0x00000001
       46015000	      4600	80000730	d8f11f03	lh	x30,-625(x2)	  x2:0x80008659 x30=0xffffc3bc PA:0x800083e8
       46025000	      4601	80000734	0ac10b83	lb	x23,172(x2)	  x2:0x80008659 x23=0xfffffff0 PA:0x80008705
       46035000	      4602	80000738	00ab6233	or	x4,x22,x10	 x22:0x0000005e x10:0x0000005e  x4=0x0000005e
       46045000	      4603	8000073c	41375e33	sra	x28,x14,x19	 x14:0x0000006f x19:0x00000480 x28=0x0000006f
       46055000	      4604	80000740	e42ee093	ori	x1,x29,-446	 x29:0x000000ef  x1=0xfffffeef
       46065000	      4605	80000744	40875633	sra	x12,x14,x8	 x14:0x0000006f  x8:0x00000010 x12=0x00000000
       46075000	      4606	80000748	e9a10d83	lb	x27,-358(x2)	  x2:0x80008659 x27=0xffffffd1 PA:0x800084f3
       46085000	      4607	8000074c	010a6cb3	or	x25,x20,x16	 x20:0x00000000 x16:0x80009f3b x25=0x80009f3b
       46095000	      4608	80000750	00d29e93	slli	x29,x5,0xd	  x5:0xffffffb1 x29=0xfff62000
       46105000	      4609	80000754	d9311403	lh	x8,-621(x2)	  x2:0x80008659  x8=0x00005816 PA:0x800083ec
       46115000	      4610	80000758	1b611aa3	sh	x22,437(x2)	  x2:0x80008659 x22:0x0000005e PA:0x8000880e
       46125000	      4611	8000075c	00cfac33	slt	x24,x31,x12	 x31:0xffffffbc x12:0x00000000 x24=0x00000001
       46135000	      4612	80000760	01f95713	srli	x14,x18,0x1f	 x18:0x00000079 x14=0x00000000
       46145000	      4613	80000764	000b2c33	slt	x24,x22,x0	 x22:0x0000005e  x0:0x00000000 x24=0x00000000
       46155000	      4614	80000768	0032c9b3	xor	x19,x5,x3	  x5:0xffffffb1  x3:0xffffffeb x19=0x0000005a
       46165000	      4615	8000076c	41138c33	sub	x24,x7,x17	  x7:0x00000000 x17:0x80009f2c x24=0x7fff60d4
       46175000	      4616	80000770	004db1b3	sltu	x3,x27,x4	 x27:0xffffffd1  x4:0x0000005e  x3=0x00000000
       46185000	      4617	80000774	4665e013	ori	x0,x11,1126	 x11:0x00000001
       46195000	      4618	80000778	f4614503	lbu	x10,-186(x2)	  x2:0x80008659 x10=0x0000000b PA:0x8000859f
       46205000	      4619	8000077c	01610303	lb	x6,22(x2)	  x2:0x80008659  x6=0x0000004d PA:0x8000866f
       46215000	      4620	80000780	00008217	auipc	x4,0x8	  x4=0x8000877c
       46225000	      4621	80000784	97520213	addi	x4,x4,-1675	  x4:0x8000877c  x4=0x800080f1
       46235000	      4622	80000788	0e66e093	ori	x1,x13,230	 x13:0x44a50000  x1=0x44a500e6
       46245000	      4623	8000078c	dcca6493	ori	x9,x20,-564	 x20:0x00000000  x9=0xfffffdcc
       46255000	      4624	80000790	00000013	addi	x0,x0,0	  x0:0x00000000
       46265000	      4625	80000794	fed20083	lb	x1,-19(x4)	  x4:0x800080f1  x1=0xfffffff0 PA:0x800080de
       46275000	      4626	80000798	fcc20283	lb	x5,-52(x4)	  x4:0x800080f1  x5=0xffffff86 PA:0x800080bd
       46285000	      4627	8000079c	111f7d97	auipc	x27,0x111f7	 x27=0x911f7798
       46295000	      4628	800007a0	02224583	lbu	x11,34(x4)	  x4:0x800080f1 x11=0x00000024 PA:0x80008113
       46305000	      4629	800007a4	411f5db3	sra	x27,x30,x17	 x30:0xffffc3bc x17:0x80009f2c x27=0xfffffffc
       46315000	      4630	800007a8	01125083	lhu	x1,17(x4)	  x4:0x800080f1  x1=0x0000153c PA:0x80008102
       46325000	      4631	800007ac	007d26b3	slt	x13,x26,x7	 x26:0x00000004  x7:0x00000000 x13=0x00000000
       46335000	      4632	800007b0	fe020723	sb	x0,-18(x4)	  x4:0x800080f1  x0:0x00000000 PA:0x800080df
       46345000	      4633	800007b4	4019d6b3	sra	x13,x19,x1	 x19:0x0000005a  x1:0x0000153c x13=0x00000000
       46355000	      4634	800007b8	66f78c93	addi	x25,x15,1647	 x15:0x80009fc4 x25=0x8000a633
       46365000	      4635	800007bc	c8edf113	andi	x2,x27,-882	 x27:0xfffffffc  x2=0xfffffc8c
       46375000	      4636	800007c0	0bf20603	lb	x12,191(x4)	  x4:0x800080f1 x12=0xffffffed PA:0x800081b0
       46385000	      4637	00000000	00000013	addi	x0,x0,0	  x0:0x00000000
       46395000	      4638	800007c4	40c2dd93	srai	x27,x5,0xc	  x5:0xffffff86 x27=0xffffffff
       46405000	      4639	800007c8	fc720283	lb	x5,-57(x4)	  x4:0x800080f1  x5=0xffffff88 PA:0x800080b8
       46415000	      4640	800007cc	f6420603	lb	x12,-156(x4)	  x4:0x800080f1 x12=0xffffffc3 PA:0x80008055
       46425000	      4641	800007d0	404bdbb3	sra	x23,x23,x4	 x23:0xfffffff0  x4:0x800080f1 x23=0xffffffff
       46435000	      4642	800007d4	03b24c83	lbu	x25,59(x4)	  x4:0x800080f1 x25=0x000000cd PA:0x8000812c
       46445000	      4643	800007d8	f69204a3	sb	x9,-151(x4)	  x4:0x800080f1  x9:0xfffffdcc PA:0x8000805a
       46455000	      4644	800007dc	7e2fba93	sltiu	x21,x31,2018	 x31:0xffffffbc x21=0x00000000
       46465000	      4645	800007e0	fe320483	lb	x9,-29(x4)	  x4:0x800080f1  x9=0x00000055 PA:0x800080d4
       46475000	      4646	800007e4	f6d21fa3	sh	x13,-129(x4)	  x4:0x800080f1 x13:0x00000000 PA:0x80008070
       46485000	      4647	800007e8	0b824983	lbu	x19,184(x4)	  x4:0x800080f1 x19=0x000000ef PA:0x800081a9
       46495000	      4648	800007ec	06020423	sb	x0,104(x4)	  x4:0x800080f1  x0:0x00000000 PA:0x80008159
       46505000	      4649	800007f0	0bd21103	lh	x2,189(x4)	  x4:0x800080f1  x2=0xffff8a6f PA:0x800081ae
       46515000	      4650	800007f4	0d0204a3	sb	x16,201(x4)	  x4:0x800080f1 x16:0x80009f3b PA:0x800081ba
       46525000	      4651	800007f8	1d898a13	addi	x20,x19,472	 x19:0x000000ef x20=0x000002c7
       46535000	      4652	800007fc	00000013	addi	x0,x0,0	  x0:0x00000000
       46545000	      4653	80000800	0fd20803	lb	x16,253(x4)	  x4:0x800080f1 x16=0xffffffe5 PA:0x800081ee
       46555000	      4654	80000804	ff920f03	lb	x30,-7(x4)	  x4:0x800080f1 x30=0x0000000a PA:0x800080ea
       46565000	      4655	80000808	0050d733	srl	x14,x1,x5	  x1:0x0000153c  x5:0xffffff88 x14=0x00000015
       46575000	      4656	8000080c	007646b3	xor	x13,x12,x7	 x12:0xffffffc3  x7:0x00000000 x13=0xffffffc3
       46585000	      4657	80000810	01b24103	lbu	x2,27(x4)	  x4:0x800080f1  x2=0x000000d8 PA:0x8000810c
       46595000	      4658	80000814	01521383	lh	x7,21(x4)	  x4:0x800080f1  x7=0x00004521 PA:0x80008106
       46605000	      4659	80000818	00b11833	sll	x16,x2,x11	  x2:0x000000d8 x11:0x00000024 x16=0x00000d80
       46615000	      4660	8000081c	f5a20003	lb	x0,-166(x4)	  x4:0x800080f1 PA:0x8000804b
       46625000	      4661	80000820	ffb20823	sb	x27,-16(x4)	  x4:0x800080f1 x27:0xffffffff PA:0x800080e1
       46635000	      4662	80000824	0c420023	sb	x4,192(x4)	  x4:0x800080f1  x4:0x800080f1 PA:0x800081b1
       46645000	      4663	80000828	015a9813	slli	x16,x21,0x15	 x21:0x00000000 x16=0x00000000
       46655000	      4664	8000082c	00e1f933	and	x18,x3,x14	  x3:0x00000000 x14:0x00000015 x18=0x00000000
       46665000	      4665	80000830	f7c20303	lb	x6,-132(x4)	  x4:0x800080f1  x6=0x00000073 PA:0x8000806d
       46675000	      4666	80000834	00f00933	add	x18,x0,x15	  x0:0x00000000 x15:0x80009fc4 x18=0x80009fc4
       46685000	      4667	80000838	05921483	lh	x9,89(x4)	  x4:0x800080f1  x9=0xffffd680 PA:0x8000814a
       46695000	      4668	8000083c	00008597	auipc	x11,0x8	 x11=0x80008838
       46705000	      4669	80000840	0f258593	addi	x11,x11,242	 x11:0x80008838 x11=0x8000892a
       46715000	      4670	80000844	ff059483	lh	x9,-16(x11)	 x11:0x8000892a  x9=0xffffde91 PA:0x8000891a
       46725000	      4671	80000848	74bbae37	lui	x28,0x74bba	 x28=0x74bba000
       46735000	      4672	8000084c	00f5a523	sw	x15,10(x11)	 x11:0x8000892a x15:0x80009fc4 PA:0x80008934
       46745000	      4673	80000850	00f58403	lb	x8,15(x11)	 x11:0x8000892a  x8=0x00000002 PA:0x80008939
       46755000	      4674	80000854	01158323	sb	x17,6(x11)	 x11:0x8000892a x17:0x80009f2c PA:0x80008930
       46765000	      4675	80000858	01f5a123	sw	x31,2(x11)	 x11:0x8000892a x31:0xffffffbc PA:0x8000892c
       46775000	      4676	8000085c	5c622493	slti	x9,x4,1478	  x4:0x800080f1  x9=0x00000001
       46785000	      4677	80000860	00958403	lb	x8,9(x11)	 x11:0x8000892a  x8=0x00000004 PA:0x80008933
       46795000	      4678	80000864	ff45d703	lhu	x14,-12(x11)	 x11:0x8000892a x14=0x000014c6 PA:0x8000891e
       46805000	      4679	80000868	004580a3	sb	x4,1(x11)	 x11:0x8000892a  x4:0x800080f1 PA:0x8000892b
       46815000	      4680	8000086c	01a584a3	sb	x26,9(x11)	 x11:0x8000892a x26:0x00000004 PA:0x80008933
       46825000	      4681	80000870	40fe8e33	sub	x28,x29,x15	 x29:0xfff62000 x15:0x80009fc4 x28=0x7ff5803c
       46835000	      4682	80000874	00f5ce03	lbu	x28,15(x11)	 x11:0x8000892a x28=0x00000002 PA:0x80008939
       46845000	      4683	80000878	0005dc83	lhu	x25,0(x11)	 x11:0x8000892a x25=0x0000f1f0 PA:0x8000892a
       46855000	      4684	8000087c	41218bb3	sub	x23,x3,x18	  x3:0x00000000 x18:0x80009fc4 x23=0x7fff603c
       46865000	      4685	80000880	00e58483	lb	x9,14(x11)	 x11:0x8000892a  x9=0xffffffc7 PA:0x80008938
       46875000	      4686	80000884	91d08713	addi	x14,x1,-1763	  x1:0x0000153c x14=0x00000e59
       46885000	      4687	80000888	ffc58b23	sb	x28,-10(x11)	 x11:0x8000892a x28:0x00000002 PA:0x80008920
       46895000	      4688	8000088c	00259803	lh	x16,2(x11)	 x11:0x8000892a x16=0xffffffbc PA:0x8000892c
       46905000	      4689	80000890	ffe5ac83	lw	x25,-2(x11)	 x11:0x8000892a x25=0xf1f016a6 PA:0x80008928
       46915000	      4690	80000894	96d36813	ori	x16,x6,-1683	  x6:0x00000073 x16=0xfffff97f
       46925000	      4691	80000898	01459723	sh	x20,14(x11)	 x11:0x8000892a x20:0x000002c7 PA:0x80008938
       46935000	      4692	8000089c	ff358f03	lb	x30,-13(x11)	 x11:0x8000892a x30=0x00000014 PA:0x8000891d
       46945000	      4693	800008a0	fe858da3	sb	x8,-5(x11)	 x11:0x8000892a  x8:0x00000004 PA:0x80008925
       46955000	      4694	800008a4	0025c183	lbu	x3,2(x11)	 x11:0x8000892a  x3=0x000000bc PA:0x8000892c
       46965000	      4695	800008a8	ff15c903	lbu	x18,-15(x11)	 x11:0x8000892a x18=0x000000de PA:0x8000891b
       46975000	      4696	800008ac	01ba3bb3	sltu	x23,x20,x27	 x20:0x000002c7 x27:0xffffffff x23=0x00000001
       46985000	      4697	800008b0	01571633	sll	x12,x14,x21	 x14:0x00000e59 x21:0x00000000 x12=0x00000e59
       46995000	      4698	800008b4	a91e0613	addi	x12,x28,-1391	 x28:0x00000002 x12=0xfffffa93
       47005000	      4699	800008b8	ff45d303	lhu	x6,-12(x11)	 x11:0x8000892a  x6=0x000014c6 PA:0x8000891e
       47015000	      4700	800008bc	00758a83	lb	x21,7(x11)	 x11:0x8000892a x21=0xffffffd4 PA:0x80008931
       47025000	      4701	800008c0	00724933	xor	x18,x4,x7	  x4:0x800080f1  x7:0x00004521 x18=0x8000c5d0
       47035000	      4702	800008c4	00758e83	lb	x29,7(x11)	 x11:0x8000892a x29=0xffffffd4 PA:0x80008931
       47045000	      4703	800008c8	01558423	sb	x21,8(x11)	 x11:0x8000892a x21:0xffffffd4 PA:0x80008932
       47055000	      4704	800008cc	aec533b7	lui	x7,0xaec53	  x7=0xaec53000
       47065000	      4705	800008d0	009581a3	sb	x9,3(x11)	 x11:0x8000892a  x9:0xffffffc7 PA:0x8000892d
       47075000	      4706	800008d4	00007d97	auipc	x27,0x7	 x27=0x800078d0
       47085000	      4707	800008d8	79bd8d93	addi	x27,x27,1947	 x27:0x800078d0 x27=0x8000806b
       47095000	      4708	800008dc	006961b3	or	x3,x18,x6	 x18:0x8000c5d0  x6:0x000014c6  x3=0x8000d5d6
       47105000	      4709	800008e0	000521b3	slt	x3,x10,x0	 x10:0x0000000b  x0:0x00000000  x3=0x00000000
       47115000	      4710	800008e4	00000013	addi	x0,x0,0	  x0:0x00000000
       47125000	      4711	800008e8	00ed8903	lb	x18,14(x27)	 x27:0x8000806b x18=0xffffffeb PA:0x80008079
       47135000	      4712	800008ec	8d45e217	auipc	x4,0x8d45e	  x4=0x0d45e8e8
       47145000	      4713	800008f0	01280233	add	x4,x16,x18	 x16:0xfffff97f x18:0xffffffeb  x4=0xfffff96a
       47155000	      4714	800008f4	fedda8a3	sw	x13,-15(x27)	 x27:0x8000806b x13:0xffffffc3 PA:0x8000805c
       47165000	      4715	800008f8	003d95a3	sh	x3,11(x27)	 x27:0x8000806b  x3:0x00000000 PA:0x80008076
       47175000	      4716	800008fc	005d8c03	lb	x24,5(x27)	 x27:0x8000806b x24=0x00000000 PA:0x80008070
       47185000	      4717	80000900	002dc683	lbu	x13,2(x27)	 x27:0x8000806b x13=0x00000073 PA:0x8000806d
       47195000	      4718	80000904	008dcb03	lbu	x22,8(x27)	 x27:0x8000806b x22=0x0000002f PA:0x80008073
       47205000	      4719	80000908	018a0333	add	x6,x20,x24	 x20:0x000002c7 x24:0x00000000  x6=0x000002c7
       47215000	      4720	8000090c	feed99a3	sh	x14,-13(x27)	 x27:0x8000806b x14:0x00000e59 PA:0x8000805e
       47225000	      4721	80000910	fe2d8fa3	sb	x2,-1(x27)	 x27:0x8000806b  x2:0x000000d8 PA:0x8000806a
       47235000	      4722	80000914	ff8d8203	lb	x4,-8(x27)	 x27:0x8000806b  x4=0x00000005 PA:0x80008063
       47245000	      4723	80000918	000dcf83	lbu	x31,0(x27)	 x27:0x8000806b x31=0x00000001 PA:0x8000806b
       47255000	      4724	8000091c	004d91a3	sh	x4,3(x27)	 x27:0x8000806b  x4:0x00000005 PA:0x8000806e
       47265000	      4725	80000920	ff2d9ea3	sh	x18,-3(x27)	 x27:0x8000806b x18:0xffffffeb PA:0x80008068
       47275000	      4726	80000924	fe6d8a23	sb	x6,-12(x27)	 x27:0x8000806b  x6:0x000002c7 PA:0x8000805f
       47285000	      4727	80000928	ffddc203	lbu	x4,-3(x27)	 x27:0x8000806b  x4=0x000000eb PA:0x80008068
       47295000	      4728	8000092c	ffcd8103	lb	x2,-4(x27)	 x27:0x8000806b  x2=0x0000002f PA:0x80008067
       47305000	      4729	80000930	001da503	lw	x10,1(x27)	 x27:0x8000806b x10=0x00057318 PA:0x8000806c
       47315000	      4730	80000934	00bddb83	lhu	x23,11(x27)	 x27:0x8000806b x23=0x00000000 PA:0x80008076
       47325000	      4731	80000938	01e511b3	sll	x3,x10,x30	 x10:0x00057318 x30:0x00000014  x3=0x31800000
       47335000	      4732	8000093c	ff6d8183	lb	x3,-10(x27)	 x27:0x8000806b  x3=0x0000002c PA:0x80008061
       47345000	      4733	80000940	004dc183	lbu	x3,4(x27)	 x27:0x8000806b  x3=0x00000000 PA:0x8000806f
       47355000	      4734	80000944	00adc503	lbu	x10,10(x27)	 x27:0x8000806b x10=0x00000025 PA:0x80008075
       47365000	      4735	80000948	004d8c83	lb	x25,4(x27)	 x27:0x8000806b x25=0x00000000 PA:0x8000806f
       47375000	      4736	8000094c	ffbdd183	lhu	x3,-5(x27)	 x27:0x8000806b  x3=0x00002f73 PA:0x80008066
       47385000	      4737	80000950	014864b3	or	x9,x16,x20	 x16:0xfffff97f x20:0x000002c7  x9=0xfffffbff
       47395000	      4738	80000954	ffbd9f83	lh	x31,-5(x27)	 x27:0x8000806b x31=0x00002f73 PA:0x80008066
       47405000	      4739	80000958	00ddcc83	lbu	x25,13(x27)	 x27:0x8000806b x25=0x0000004a PA:0x80008078
       47415000	      4740	8000095c	0c9a3f13	sltiu	x30,x20,201	 x20:0x000002c7 x30=0x00000000
       47425000	      4741	80000960	014ed3b3	srl	x7,x29,x20	 x29:0xffffffd4 x20:0x000002c7  x7=0x01ffffff
       47435000	      4742	80000964	ff5d9303	lh	x6,-11(x27)	 x27:0x8000806b  x6=0x00002c42 PA:0x80008060
       47445000	      4743	80000968	ffbd9403	lh	x8,-5(x27)	 x27:0x8000806b  x8=0x00002f73 PA:0x80008066
       47455000	      4744	8000096c	ffed8683	lb	x13,-2(x27)	 x27:0x8000806b x13=0xffffffff PA:0x80008069
       47465000	      4745	80000970	ffcd8c03	lb	x24,-4(x27)	 x27:0x8000806b x24=0x0000002f PA:0x80008067
       47475000	      4746	00000000	00000013	addi	x0,x0,0	  x0:0x00000000
       47485000	      4747	80000974	ff8d8083	lb	x1,-8(x27)	 x27:0x8000806b  x1=0x00000005 PA:0x80008063
       47495000	      4748	00000000	00000013	addi	x0,x0,0	  x0:0x00000000
       47505000	      4749	80000978	00008117	auipc	x2,0x8	  x2=0x80008974
       47515000	      4750	8000097c	d2110113	addi	x2,x2,-735	  x2:0x80008974  x2=0x80008695
       47525000	      4751	80000980	00ed9313	slli	x6,x27,0xe	 x27:0x8000806b  x6=0x201ac000
       47535000	      4752	80000984	01e102a3	sb	x30,5(x2)	  x2:0x80008695 x30:0x00000000 PA:0x8000869a
       47545000	      4753	80000988	00314203	lbu	x4,3(x2)	  x2:0x80008695  x4=0x000000df PA:0x80008698
       47555000	      4754	8000098c	00000013	addi	x0,x0,0	  x0:0x00000000
       47565000	      4755	80000990	00614c03	lbu	x24,6(x2)	  x2:0x80008695 x24=0x000000be PA:0x8000869b
       47575000	      4756	80000994	00783233	sltu	x4,x16,x7	 x16:0xfffff97f  x7:0x01ffffff  x4=0x00000000
       47585000	      4757	80000998	d5c11617	auipc	x12,0xd5c11	 x12=0x55c11994
       47595000	      4758	8000099c	ff915403	lhu	x8,-7(x2)	  x2:0x80008695  x8=0x0000b5fa PA:0x8000868e
       47605000	      4759	800009a0	01910723	sb	x25,14(x2)	  x2:0x80008695 x25:0x0000004a PA:0x800086a3
       47615000	      4760	800009a4	01f03533	sltu	x10,x0,x31	  x0:0x00000000 x31:0x00002f73 x10=0x00000001
       47625000	      4761	800009a8	010b1c93	slli	x25,x22,0x10	 x22:0x0000002f x25=0x002f0000
       47635000	      4762	800009ac	0034be33	sltu	x28,x9,x3	  x9:0xfffffbff  x3:0x00002f73 x28=0x00000000
       47645000	      4763	800009b0	ff510a03	lb	x20,-11(x2)	  x2:0x80008695 x20=0xffffff9d PA:0x8000868a
       47655000	      4764	800009b4	00000013	addi	x0,x0,0	  x0:0x00000000
       47665000	      4765	800009b8	00e14f83	lbu	x31,14(x2)	  x2:0x80008695 x31=0x0000004a PA:0x800086a3
       47675000	      4766	800009bc	013106a3	sb	x19,13(x2)	  x2:0x80008695 x19:0x000000ef PA:0x800086a2
       47685000	      4767	800009c0	ff911603	lh	x12,-7(x2)	  x2:0x80008695 x12=0xffffb5fa PA:0x8000868e
       47695000	      4768	800009c4	41c05013	srai	x0,x0,0x1c	  x0:0x00000000
       47705000	      4769	800009c8	019fa733	slt	x14,x31,x25	 x31:0x0000004a x25:0x002f0000 x14=0x00000001
       47715000	      4770	800009cc	00397533	and	x10,x18,x3	 x18:0xffffffeb  x3:0x00002f73 x10=0x00002f63
       47725000	      4771	800009d0	405ad613	srai	x12,x21,0x5	 x21:0xffffffd4 x12=0xfffffffe
       47735000	      4772	800009d4	00a117a3	sh	x10,15(x2)	  x2:0x80008695 x10:0x00002f63 PA:0x800086a4
       47745000	      4773	800009d8	40e0de93	srai	x29,x1,0xe	  x1:0x00000005 x29=0x00000000
       47755000	      4774	800009dc	19f4cb13	xori	x22,x9,415	  x9:0xfffffbff x22=0xfffffa60
       47765000	      4775	800009e0	a7802513	slti	x10,x0,-1416	  x0:0x00000000 x10=0x00000000
       47775000	      4776	800009e4	fe310b23	sb	x3,-10(x2)	  x2:0x80008695  x3:0x00002f73 PA:0x8000868b
       47785000	      4777	800009e8	00911683	lh	x13,9(x2)	  x2:0x80008695 x13=0x000000f3 PA:0x8000869e
       47795000	      4778	800009ec	017be733	or	x14,x23,x23	 x23:0x00000000 x23:0x00000000 x14=0x00000000
       47805000	      4779	800009f0	004bdf13	srli	x30,x23,0x4	 x23:0x00000000 x30=0x00000000
       47815000	      4780	800009f4	ffa10f03	lb	x30,-6(x2)	  x2:0x80008695 x30=0xffffffb5 PA:0x8000868f
       47825000	      4781	800009f8	ff710c03	lb	x24,-9(x2)	  x2:0x80008695 x24=0xffffffa9 PA:0x8000868c
       47835000	      4782	800009fc	ff715e03	lhu	x28,-9(x2)	  x2:0x80008695 x28=0x000050a9 PA:0x8000868c
       47845000	      4783	80000a00	00008e97	auipc	x29,0x8	 x29=0x800089fc
       47855000	      4784	80000a04	d46e8e93	addi	x29,x29,-698	 x29:0x800089fc x29=0x80008742
       47865000	      4785	80000a08	40b682b3	sub	x5,x13,x11	 x13:0x000000f3 x11:0x8000892a  x5=0x7fff77c9
       47875000	      4786	80000a0c	0095ae33	slt	x28,x11,x9	 x11:0x8000892a  x9:0xfffffbff x28=0x00000001
       47885000	      4787	80000a10	0117f733	and	x14,x15,x17	 x15:0x80009fc4 x17:0x80009f2c x14=0x80009f04
       47895000	      4788	80000a14	4d1cb497	auipc	x9,0x4d1cb	  x9=0xcd1cba10
       47905000	      4789	80000a18	036ecf03	lbu	x30,54(x29)	 x29:0x80008742 x30=0x000000c5 PA:0x80008778
       47915000	      4790	80000a1c	00f27e33	and	x28,x4,x15	  x4:0x00000000 x15:0x80009fc4 x28=0x00000000
       47925000	      4791	80000a20	02aec683	lbu	x13,42(x29)	 x29:0x80008742 x13=0x00000098 PA:0x8000876c
       47935000	      4792	80000a24	ff6e9b83	lh	x23,-10(x29)	 x29:0x80008742 x23=0x00004258 PA:0x80008738
       47945000	      4793	80000a28	027ea323	sw	x7,38(x29)	 x29:0x80008742  x7:0x01ffffff PA:0x80008768
       47955000	      4794	80000a2c	01ef90b3	sll	x1,x31,x30	 x31:0x0000004a x30:0x000000c5  x1=0x00000940
       47965000	      4795	80000a30	00cbabb3	slt	x23,x23,x12	 x23:0x00004258 x12:0xfffffffe x23=0x00000000
       47975000	      4796	80000a34	02decb03	lbu	x22,45(x29)	 x29:0x80008742 x22=0x0000003c PA:0x8000876f
       47985000	      4797	80000a38	fececd83	lbu	x27,-20(x29)	 x29:0x80008742 x27=0x000000ff PA:0x8000872e
       47995000	      4798	80000a3c	073c2713	slti	x14,x24,115	 x24:0xffffffa9 x14=0x00000001
       48005000	      4799	80000a40	00000013	addi	x0,x0,0	  x0:0x00000000
       48015000	      4800	80000a44	41f609b3	sub	x19,x12,x31	 x12:0xfffffffe x31:0x0000004a x19=0xffffffb4
       48025000	      4801	80000a48	003e8003	lb	x0,3(x29)	 x29:0x80008742 PA:0x80008745
       48035000	      4802	80000a4c	02be8a03	lb	x20,43(x29)	 x29:0x80008742 x20=0xffffffc6 PA:0x8000876d
       48045000	      4803	80000a50	fe2e9b03	lh	x22,-30(x29)	 x29:0x80008742 x22=0xffffb9c4 PA:0x80008724
       48055000	      4804	80000a54	412856b3	sra	x13,x16,x18	 x16:0xfffff97f x18:0xffffffeb x13=0xffffffff
       48065000	      4805	80000a58	00c21413	slli	x8,x4,0xc	  x4:0x00000000  x8=0x00000000
       48075000	      4806	80000a5c	fe7e8f83	lb	x31,-25(x29)	 x29:0x80008742 x31=0x00000001 PA:0x80008729
       48085000	      4807	80000a60	01278333	add	x6,x15,x18	 x15:0x80009fc4 x18:0xffffffeb  x6=0x80009faf
       48095000	      4808	80000a64	0108e5b3	or	x11,x17,x16	 x17:0x80009f2c x16:0xfffff97f x11=0xffffff7f
       48105000	      4809	80000a68	feeeaf23	sw	x14,-2(x29)	 x29:0x80008742 x14:0x00000001 PA:0x80008740
       48115000	      4810	80000a6c	024e8383	lb	x7,36(x29)	 x29:0x80008742  x7=0x00000043 PA:0x80008766
       48125000	      4811	80000a70	ffde8ba3	sb	x29,-9(x29)	 x29:0x80008742 x29:0x80008742 PA:0x80008739
       48135000	      4812	80000a74	011f1b33	sll	x22,x30,x17	 x30:0x000000c5 x17:0x80009f2c x22=0x000c5000
       48145000	      4813	80000a78	007ea523	sw	x7,10(x29)	 x29:0x80008742  x7:0x00000043 PA:0x8000874c
       48155000	      4814	80000a7c	187d2f93	slti	x31,x26,391	 x26:0x00000004 x31=0x00000001
       48165000	      4815	80000a80	001e9223	sh	x1,4(x29)	 x29:0x80008742  x1:0x00000940 PA:0x80008746
       48175000	      4816	80000a84	00e46633	or	x12,x8,x14	  x8:0x00000000 x14:0x00000001 x12=0x00000001
       48185000	      4817	80000a88	011205b3	add	x11,x4,x17	  x4:0x00000000 x17:0x80009f2c x11=0x80009f2c
       48195000	      4818	80000a8c	01f07733	and	x14,x0,x31	  x0:0x00000000 x31:0x00000001 x14=0x00000000
       48205000	      4819	80000a90	02fece03	lbu	x28,47(x29)	 x29:0x80008742 x28=0x000000d7 PA:0x80008771
       48215000	      4820	80000a94	8d3db213	sltiu	x4,x27,-1837	 x27:0x000000ff  x4=0x00000001
       48225000	      4821	80000a98	fe4e83a3	sb	x4,-25(x29)	 x29:0x80008742  x4:0x00000001 PA:0x80008729
       48235000	      4822	80000a9c	ff4ec183	lbu	x3,-12(x29)	 x29:0x80008742  x3=0x00000075 PA:0x80008736
       48245000	      4823	80000aa0	fc6e8d83	lb	x27,-58(x29)	 x29:0x80008742 x27=0xffffffb8 PA:0x80008708
       48255000	      4824	80000aa4	005aef33	or	x30,x21,x5	 x21:0xffffffd4  x5:0x7fff77c9 x30=0xffffffdd
       48265000	      4825	80000aa8	40170333	sub	x6,x14,x1	 x14:0x00000000  x1:0x00000940  x6=0xfffff6c0
       48275000	      4826	80000aac	ff5ea523	sw	x21,-22(x29)	 x29:0x80008742 x21:0xffffffd4 PA:0x8000872c
       48285000	      4827	80000ab0	01e58b33	add	x22,x11,x30	 x11:0x80009f2c x30:0xffffffdd x22=0x80009f09
       48295000	      4828	80000ab4	00d6a5b3	slt	x11,x13,x13	 x13:0xffffffff x13:0xffffffff x11=0x00000000
       48305000	      4829	80000ab8	037e84a3	sb	x23,41(x29)	 x29:0x80008742 x23:0x00000000 PA:0x8000876b
       48315000	      4830	80000abc	fcbe80a3	sb	x11,-63(x29)	 x29:0x80008742 x11:0x00000000 PA:0x80008703
       48325000	      4831	80000ac0	017e8683	lb	x13,23(x29)	 x29:0x80008742 x13=0xffffffa8 PA:0x80008759
       48335000	      4832	80000ac4	00007e17	auipc	x28,0x7	 x28=0x80007ac0
       48345000	      4833	80000ac8	703e0e13	addi	x28,x28,1795	 x28:0x80007ac0 x28=0x800081c3
       48355000	      4834	80000acc	00000013	addi	x0,x0,0	  x0:0x00000000
       48365000	      4835	80000ad0	00f3a3b3	slt	x7,x7,x15	  x7:0x00000043 x15:0x80009fc4  x7=0x00000000
       48375000	      4836	80000ad4	4d4e0183	lb	x3,1236(x28)	 x28:0x800081c3  x3=0x00000064 PA:0x80008697
       48385000	      4837	80000ad8	17be1b03	lh	x22,379(x28)	 x28:0x800081c3 x22=0x0000619a PA:0x8000833e
       48395000	      4838	80000adc	495e01a3	sb	x21,1155(x28)	 x28:0x800081c3 x21:0xffffffd4 PA:0x80008646
       48405000	      4839	80000ae0	00569913	slli	x18,x13,0x5	 x13:0xffffffa8 x18=0xfffff500
       48415000	      4840	80000ae4	614e4403	lbu	x8,1556(x28)	 x28:0x800081c3  x8=0x00000003 PA:0x800087d7
       48425000	      4841	80000ae8	002d9193	slli	x3,x27,0x2	 x27:0xffffffb8  x3=0xfffffee0
       48435000	      4842	80000aec	f1052193	slti	x3,x10,-240	 x10:0x00000000  x3=0x00000000
       48445000	      4843	80000af0	fa4e0503	lb	x10,-92(x28)	 x28:0x800081c3 x10=0x00000068 PA:0x80008167
       48455000	      4844	80000af4	01237b33	and	x22,x6,x18	  x6:0xfffff6c0 x18:0xfffff500 x22=0xfffff400
       48465000	      4845	80000af8	586e4f03	lbu	x30,1414(x28)	 x28:0x800081c3 x30=0x00000050 PA:0x80008749
       48475000	      4846	80000afc	081e0b23	sb	x1,150(x28)	 x28:0x800081c3  x1:0x00000940 PA:0x80008259
       48485000	      4847	80000b00	5614ea13	ori	x20,x9,1377	  x9:0xcd1cba10 x20=0xcd1cbf71
       48495000	      4848	80000b04	5a3e0103	lb	x2,1443(x28)	 x28:0x800081c3  x2=0x00000043 PA:0x80008766
       48505000	      4849	80000b08	00844233	xor	x4,x8,x8	  x8:0x00000003  x8:0x00000003  x4=0x00000000
       48515000	      4850	80000b0c	4131d9b3	sra	x19,x3,x19	  x3:0x00000000 x19:0xffffffb4 x19=0x00000000
       48525000	      4851	80000b10	00872fb3	slt	x31,x14,x8	 x14:0x00000000  x8:0x00000003 x31=0x00000001
       48535000	      4852	80000b14	01181193	slli	x3,x16,0x11	 x16:0xfffff97f  x3=0xf2fe0000
       48545000	      4853	80000b18	8c756b93	ori	x23,x10,-1849	 x10:0x00000068 x23=0xfffff8ef
       48555000	      4854	80000b1c	b69dac13	slti	x24,x27,-1175	 x27:0xffffffb8 x24=0x00000000
       48565000	      4855	80000b20	0066d413	srli	x8,x13,0x6	 x13:0xffffffa8  x8=0x03fffffe
       48575000	      4856	80000b24	078e4f03	lbu	x30,120(x28)	 x28:0x800081c3 x30=0x00000080 PA:0x8000823b
       48585000	      4857	80000b28	2c9e5b83	lhu	x23,713(x28)	 x28:0x800081c3 x23=0x00003a21 PA:0x8000848c
       48595000	      4858	80000b2c	159e0e23	sb	x25,348(x28)	 x28:0x800081c3 x25:0x002f0000 PA:0x8000831f
       48605000	      4859	80000b30	00e7db33	srl	x22,x15,x14	 x15:0x80009fc4 x14:0x00000000 x22=0x80009fc4
       48615000	      4860	80000b34	0014af33	slt	x30,x9,x1	  x9:0xcd1cba10  x1:0x00000940 x30=0x00000001
       48625000	      4861	80000b38	49ce4503	lbu	x10,1180(x28)	 x28:0x800081c3 x10=0x00000070 PA:0x8000865f
       48635000	      4862	80000b3c	00008917	auipc	x18,0x8	 x18=0x80008b38
       48645000	      4863	80000b40	1b290913	addi	x18,x18,434	 x18:0x80008b38 x18=0x80008cea
       48655000	      4864	80000b44	00752cb3	slt	x25,x10,x7	 x10:0x00000070  x7:0x00000000 x25=0x00000000
       48665000	      4865	80000b48	0e490023	sb	x4,224(x18)	 x18:0x80008cea  x4:0x00000000 PA:0x80008dca
       48675000	      4866	80000b4c	0ff904a3	sb	x31,233(x18)	 x18:0x80008cea x31:0x00000001 PA:0x80008dd3
       48685000	      4867	80000b50	01881a33	sll	x20,x16,x24	 x16:0xfffff97f x24:0x00000000 x20=0xfffff97f
       48695000	      4868	80000b54	f5aba393	slti	x7,x23,-166	 x23:0x00003a21  x7=0x00000000
       48705000	      4869	80000b58	019da033	slt	x0,x27,x25	 x27:0xffffffb8 x25:0x00000000
       48715000	      4870	80000b5c	c6f82b13	slti	x22,x16,-913	 x16:0xfffff97f x22=0x00000001
       48725000	      4871	80000b60	f0b90703	lb	x14,-245(x18)	 x18:0x80008cea x14=0xffffffe4 PA:0x80008bf5
       48735000	      4872	80000b64	03d909a3	sb	x29,51(x18)	 x18:0x80008cea x29:0x80008742 PA:0x80008d1d
       48745000	      4873	80000b68	40f7d013	srai	x0,x15,0xf	 x15:0x80009fc4
       48755000	      4874	80000b6c	007d65b3	or	x11,x26,x7	 x26:0x00000004  x7:0x00000000 x11=0x00000004
       48765000	      4875	80000b70	0098a533	slt	x10,x17,x9	 x17:0x80009f2c  x9:0xcd1cba10 x10=0x00000001
       48775000	      4876	80000b74	02490a03	lb	x20,36(x18)	 x18:0x80008cea x20=0xffffffb2 PA:0x80008d0e
       48785000	      4877	80000b78	f0295c83	lhu	x25,-254(x18)	 x18:0x80008cea x25=0x00000c49 PA:0x80008bec
       48795000	      4878	80000b7c	08091203	lh	x4,128(x18)	 x18:0x80008cea  x4=0xffffc659 PA:0x80008d6a
       48805000	      4879	80000b80	fec91a23	sh	x12,-12(x18)	 x18:0x80008cea x12:0x00000001 PA:0x80008cde
       48815000	      4880	80000b84	00d59613	slli	x12,x11,0xd	 x11:0x00000004 x12=0x00008000
       48825000	      4881	80000b88	013d59b3	srl	x19,x26,x19	 x26:0x00000004 x19:0x00000000 x19=0x00000004
       48835000	      4882	80000b8c	00f90303	lb	x6,15(x18)	 x18:0x80008cea  x6=0xffffffca PA:0x80008cf9
       48845000	      4883	80000b90	474f0617	auipc	x12,0x474f0	 x12=0xc74f0b8c
       48855000	      4884	80000b94	f2d90603	lb	x12,-211(x18)	 x18:0x80008cea x12=0xffffffc4 PA:0x80008c17
       48865000	      4885	80000b98	00413a33	sltu	x20,x2,x4	  x2:0x00000043  x4:0xffffc659 x20=0x00000001
       48875000	      4886	80000b9c	0ed90c83	lb	x25,237(x18)	 x18:0x80008cea x25=0x0000003b PA:0x80008dd7
       48885000	      4887	80000ba0	06790ea3	sb	x7,125(x18)	 x18:0x80008cea  x7:0x00000000 PA:0x80008d67
       48895000	      4888	80000ba4	400101b3	sub	x3,x2,x0	  x2:0x00000043  x0:0x00000000  x3=0x00000043
       48905000	      4889	80000ba8	fcb904a3	sb	x11,-55(x18)	 x18:0x80008cea x11:0x00000004 PA:0x80008cb3
       48915000	      4890	80000bac	00853333	sltu	x6,x10,x8	 x10:0x00000001  x8:0x03fffffe  x6=0x00000001
       48925000	      4891	80000bb0	f3690803	lb	x16,-202(x18)	 x18:0x80008cea x16=0x00000005 PA:0x80008c20
       48935000	      4892	80000bb4	00aa9233	sll	x4,x21,x10	 x21:0xffffffd4 x10:0x00000001  x4=0xffffffa8
       48945000	      4893	80000bb8	01535f13	srli	x30,x6,0x15	  x6:0x00000001 x30=0x00000000
       48955000	      4894	80000bbc	00a01a13	slli	x20,x0,0xa	  x0:0x00000000 x20=0x00000000
       48965000	      4895	80000bc0	fb6e6513	ori	x10,x28,-74	 x28:0x800081c3 x10=0xfffffff7
       48975000	      4896	80000bc4	00000013	addi	x0,x0,0	  x0:0x00000000
       48985000	      4897	80000bc8	fa491d83	lh	x27,-92(x18)	 x18:0x80008cea x27=0x00001d07 PA:0x80008c8e
       48995000	      4898	80000bcc	7763b493	sltiu	x9,x7,1910	  x7:0x00000000  x9=0x00000001
       49005000	      4899	80000bd0	84a3ec13	ori	x24,x7,-1974	  x7:0x00000000 x24=0xfffff84a
       49015000	      4900	80000bd4	054900a3	sb	x20,65(x18)	 x18:0x80008cea x20:0x00000000 PA:0x80008d2b
       49025000	      4901	80000bd8	c9ef2c93	slti	x25,x30,-866	 x30:0x00000000 x25=0x00000000
       49035000	      4902	80000bdc	0e8907a3	sb	x8,239(x18)	 x18:0x80008cea  x8:0x03fffffe PA:0x80008dd9
       49045000	      4903	80000be0	8a108693	addi	x13,x1,-1887	  x1:0x00000940 x13=0x000001e1
       49055000	      4904	80000be4	40195a93	srai	x21,x18,0x1	 x18:0x80008cea x21=0xc0004675
       49065000	      4905	80000be8	00000013	addi	x0,x0,0	  x0:0x00000000
       49075000	      4906	80000bec	c7db3413	sltiu	x8,x22,-899	 x22:0x00000001  x8=0x00000001
       49085000	      4907	80000bf0	0f292b83	lw	x23,242(x18)	 x18:0x80008cea x23=0x6bbca56e PA:0x80008ddc
       49095000	      4908	80000bf4	fc394203	lbu	x4,-61(x18)	 x18:0x80008cea  x4=0x0000001a PA:0x80008cad
       49105000	      4909	80000bf8	f1f94e83	lbu	x29,-225(x18)	 x18:0x80008cea x29=0x000000e4 PA:0x80008c09
       49115000	      4910	80000bfc	041904a3	sb	x1,73(x18)	 x18:0x80008cea  x1:0x00000940 PA:0x80008d33
       49125000	      4911	80000c00	f2291e03	lh	x28,-222(x18)	 x18:0x80008cea x28=0x00005a90 PA:0x80008c0c
       49135000	      4912	80000c04	0e690a03	lb	x20,230(x18)	 x18:0x80008cea x20=0xffffffc6 PA:0x80008dd0
       49145000	      4913	80000c08	fe190683	lb	x13,-31(x18)	 x18:0x80008cea x13=0x00000041 PA:0x80008ccb
       49155000	      4914	80000c0c	00007e97	auipc	x29,0x7	 x29=0x80007c08
       49165000	      4915	80000c10	63fe8e93	addi	x29,x29,1599	 x29:0x80007c08 x29=0x80008247
       49175000	      4916	80000c14	015e8633	add	x12,x29,x21	 x29:0x80008247 x21:0xc0004675 x12=0x4000c8bc
       49185000	      4917	80000c18	01e95193	srli	x3,x18,0x1e	 x18:0x80008cea  x3=0x00000002
       49195000	      4918	80000c1c	ff6e8103	lb	x2,-10(x29)	 x29:0x80008247  x2=0x0000002c PA:0x8000823d
       49205000	      4919	80000c20	ff8e8b83	lb	x23,-8(x29)	 x29:0x80008247 x23=0x0000000a PA:0x8000823f
       49215000	      4920	80000c24	ff0e8583	lb	x11,-16(x29)	 x29:0x80008247 x11=0x00000000 PA:0x80008237
       49225000	      4921	80000c28	016ac5b3	xor	x11,x21,x22	 x21:0xc0004675 x22:0x00000001 x11=0xc0004674
       49235000	      4922	80000c2c	ad80ba93	sltiu	x21,x1,-1320	  x1:0x00000940 x21=0x00000001
       49245000	      4923	80000c30	f9d56b13	ori	x22,x10,-99	 x10:0xfffffff7 x22=0xffffffff
       49255000	      4924	80000c34	fe2e8a23	sb	x2,-12(x29)	 x29:0x80008247  x2:0x0000002c PA:0x8000823b
       49265000	      4925	80000c38	009e8483	lb	x9,9(x29)	 x29:0x80008247  x9=0x0000004a PA:0x80008250
       49275000	      4926	00000000	00000013	addi	x0,x0,0	  x0:0x00000000
       49285000	      4927	80000c3c	01449f33	sll	x30,x9,x20	  x9:0x0000004a x20:0xffffffc6 x30=0x00001280
       49295000	      4928	80000c40	fe7eaca3	sw	x7,-7(x29)	 x29:0x80008247  x7:0x00000000 PA:0x80008240
       49305000	      4929	80000c44	ff1eaa03	lw	x20,-15(x29)	 x29:0x80008247 x20=0x2cb1dbfb PA:0x80008238
       49315000	      4930	80000c48	fe1e8a23	sb	x1,-12(x29)	 x29:0x80008247  x1:0x00000940 PA:0x8000823b
       49325000	      4931	80000c4c	00ae8b83	lb	x23,10(x29)	 x29:0x80008247 x23=0x00000014 PA:0x80008251
       49335000	      4932	80000c50	6d2b2013	slti	x0,x22,1746	 x22:0xffffffff
       49345000	      4933	80000c54	01b801b3	add	x3,x16,x27	 x16:0x00000005 x27:0x00001d07  x3=0x00001d0c
       49355000	      4934	80000c58	d4f73713	sltiu	x14,x14,-689	 x14:0xffffffe4 x14=0x00000000
       49365000	      4935	80000c5c	0b49b517	auipc	x10,0xb49b	 x10=0x8b49bc58
       49375000	      4936	80000c60	4045dcb3	sra	x25,x11,x4	 x11:0xc0004674  x4:0x0000001a x25=0xfffffff0
       49385000	      4937	80000c64	002e8c03	lb	x24,2(x29)	 x29:0x80008247 x24=0xffffffea PA:0x80008249
       49395000	      4938	80000c68	ff9e8483	lb	x9,-7(x29)	 x29:0x80008247  x9=0x00000000 PA:0x80008240
       49405000	      4939	80000c6c	00aa3033	sltu	x0,x20,x10	 x20:0x2cb1dbfb x10:0x8b49bc58
       49415000	      4940	80000c70	ff3e8e23	sb	x19,-4(x29)	 x29:0x80008247 x19:0x00000004 PA:0x80008243
       49425000	      4941	80000c74	fe7e8823	sb	x7,-16(x29)	 x29:0x80008247  x7:0x00000000 PA:0x80008237
       49435000	      4942	80000c78	0149b1b3	sltu	x3,x19,x20	 x19:0x00000004 x20:0x2cb1dbfb  x3=0x00000001
       49445000	      4943	80000c7c	ddbbc113	xori	x2,x23,-549	 x23:0x00000014  x2=0xfffffdcf
       49455000	      4944	80000c80	01aa3c33	sltu	x24,x20,x26	 x20:0x2cb1dbfb x26:0x00000004 x24=0x00000000
       49465000	      4945	80000c84	70e88e13	addi	x28,x17,1806	 x17:0x80009f2c x28=0x8000a63a
       49475000	      4946	80000c88	ff5e8d23	sb	x21,-6(x29)	 x29:0x80008247 x21:0x00000001 PA:0x80008241
       49485000	      4947	80000c8c	00237ab3	and	x21,x6,x2	  x6:0x00000001  x2:0xfffffdcf x21=0x00000001
       49495000	      4948	80000c90	bc4f7537	lui	x10,0xbc4f7	 x10=0xbc4f7000
       49505000	      4949	80000c94	3d3ea413	slti	x8,x29,979	 x29:0x80008247  x8=0x00000001
       49515000	      4950	80000c98	404c89b3	sub	x19,x25,x4	 x25:0xfffffff0  x4:0x0000001a x19=0xffffffd6
       49525000	      4951	80000c9c	fe7e8b23	sb	x7,-10(x29)	 x29:0x80008247  x7:0x00000000 PA:0x8000823d
       49535000	      4952	80000ca0	ff7e9da3	sh	x23,-5(x29)	 x29:0x80008247 x23:0x00000014 PA:0x80008242
       49545000	      4953	80000ca4	ff0ecd83	lbu	x27,-16(x29)	 x29:0x80008247 x27=0x00000000 PA:0x80008237
       49555000	      4954	80000ca8	ff2ecb83	lbu	x23,-14(x29)	 x29:0x80008247 x23=0x000000db PA:0x80008239
       49565000	      4955	80000cac	012d6833	or	x16,x26,x18	 x26:0x00000004 x18:0x80008cea x16=0x80008cee
       49575000	      4956	80000cb0	4b88a137	lui	x2,0x4b88a	  x2=0x4b88a000
       49585000	      4957	80000cb4	ff9e9183	lh	x3,-7(x29)	 x29:0x80008247  x3=0x00000100 PA:0x80008240
       49595000	      4958	80000cb8	ff0e8383	lb	x7,-16(x29)	 x29:0x80008247  x7=0x00000000 PA:0x80008237
       49605000	      4959	80000cbc	005e8283	lb	x5,5(x29)	 x29:0x80008247  x5=0xffffff9b PA:0x8000824c
       49615000	      4960	80000cc0	01cc0033	add	x0,x24,x28	 x24:0x00000000 x28:0x8000a63a
       49625000	      4961	80000cc4	012e8123	sb	x18,2(x29)	 x29:0x80008247 x18:0x80008cea PA:0x80008249
       49635000	      4962	80000cc8	00ce8f83	lb	x31,12(x29)	 x29:0x80008247 x31=0x00000011 PA:0x80008253
       49645000	      4963	80000ccc	ff1e8b23	sb	x17,-10(x29)	 x29:0x80008247 x17:0x80009f2c PA:0x8000823d
       49655000	      4964	80000cd0	ff7e9103	lh	x2,-9(x29)	 x29:0x80008247  x2=0x00000afc PA:0x8000823e
       49665000	      4965	80000cd4	5a77ea13	ori	x20,x15,1447	 x15:0x80009fc4 x20=0x80009fe7
       49675000	      4966	80000cd8	40270c33	sub	x24,x14,x2	 x14:0x00000000  x2:0x00000afc x24=0xfffff504
       49685000	      4967	80000cdc	0063c233	xor	x4,x7,x6	  x7:0x00000000  x6:0x00000001  x4=0x00000001
       49695000	      4968	80000ce0	fffe9b83	lh	x23,-1(x29)	 x29:0x80008247 x23=0xfffffc07 PA:0x80008246
       49705000	      4969	80000ce4	00ae8503	lb	x10,10(x29)	 x29:0x80008247 x10=0x00000014 PA:0x80008251
       49715000	      4970	80000ce8	009ec6b3	xor	x13,x29,x9	 x29:0x80008247  x9:0x00000000 x13=0x80008247
       49725000	      4971	80000cec	c36b2f93	slti	x31,x22,-970	 x22:0xffffffff x31=0x00000000
       49735000	      4972	80000cf0	007e9f83	lh	x31,7(x29)	 x29:0x80008247 x31=0x00000a8b PA:0x8000824e
       49745000	      4973	80000cf4	00008417	auipc	x8,0x8	  x8=0x80008cf0
       49755000	      4974	80000cf8	03d40413	addi	x8,x8,61	  x8:0x80008cf0  x8=0x80008d2d
       49765000	      4975	80000cfc	01040823	sb	x16,16(x8)	  x8:0x80008d2d x16:0x80008cee PA:0x80008d3d
       49775000	      4976	80000d00	00344c03	lbu	x24,3(x8)	  x8:0x80008d2d x24=0x0000004d PA:0x80008d30
       49785000	      4977	80000d04	4174d713	srai	x14,x9,0x17	  x9:0x00000000 x14=0x00000000
       49795000	      4978	80000d08	0108a0b3	slt	x1,x17,x16	 x17:0x80009f2c x16:0x80008cee  x1=0x00000000
       49805000	      4979	80000d0c	ffa41da3	sh	x26,-5(x8)	  x8:0x80008d2d x26:0x00000004 PA:0x80008d28
       49815000	      4980	80000d10	00c44603	lbu	x12,12(x8)	  x8:0x80008d2d x12=0x00000052 PA:0x80008d39
       49825000	      4981	80000d14	00640e03	lb	x28,6(x8)	  x8:0x80008d2d x28=0x00000040 PA:0x80008d33
       49835000	      4982	80000d18	00d02f33	slt	x30,x0,x13	  x0:0x00000000 x13:0x80008247 x30=0x00000000
       49845000	      4983	80000d1c	000fdf93	srli	x31,x31,0x0	 x31:0x00000a8b x31=0x00000a8b
       49855000	      4984	80000d20	ffd40f83	lb	x31,-3(x8)	  x8:0x80008d2d x31=0x0000001e PA:0x80008d2a
       49865000	      4985	80000d24	00544e83	lbu	x29,5(x8)	  x8:0x80008d2d x29=0x000000e7 PA:0x80008d32
       49875000	      4986	80000d28	ff140603	lb	x12,-15(x8)	  x8:0x80008d2d x12=0xffffffda PA:0x80008d1e
       49885000	      4987	80000d2c	fff42f83	lw	x31,-1(x8)	  x8:0x80008d2d x31=0x010400e7 PA:0x80008d2c
       49895000	      4988	80000d30	27b072b7	lui	x5,0x27b07	  x5=0x27b07000
       49905000	      4989	80000d34	00944e83	lbu	x29,9(x8)	  x8:0x80008d2d x29=0x00000004 PA:0x80008d36
       49915000	      4990	80000d38	ff340083	lb	x1,-13(x8)	  x8:0x80008d2d  x1=0xffffffbd PA:0x80008d20
       49925000	      4991	80000d3c	ffb42f03	lw	x30,-5(x8)	  x8:0x80008d2d x30=0x001e0004 PA:0x80008d28
       49935000	      4992	80000d40	00040683	lb	x13,0(x8)	  x8:0x80008d2d x13=0x00000000 PA:0x80008d2d
       49945000	      4993	80000d44	ffa44603	lbu	x12,-6(x8)	  x8:0x80008d2d x12=0x000000bd PA:0x80008d27
       49955000	      4994	80000d48	01ef9033	sll	x0,x31,x30	 x31:0x010400e7 x30:0x001e0004
       49965000	      4995	80000d4c	00340023	sb	x3,0(x8)	  x8:0x80008d2d  x3:0x00000100 PA:0x80008d2d
       49975000	      4996	80000d50	ffa44183	lbu	x3,-6(x8)	  x8:0x80008d2d  x3=0x000000bd PA:0x80008d27
       49985000	      4997	80000d54	00140e03	lb	x28,1(x8)	  x8:0x80008d2d x28=0x00000004 PA:0x80008d2e
       49995000	      4998	80000d58	01a400a3	sb	x26,1(x8)	  x8:0x80008d2d x26:0x00000004 PA:0x80008d2e
       50005000	      4999	80000d5c	01240423	sb	x18,8(x8)	  x8:0x80008d2d x18:0x80008cea PA:0x80008d35
       50015000	      5000	80000d60	5c31d537	lui	x10,0x5c31d	 x10=0x5c31d000
       50025000	      5001	80000d64	00244103	lbu	x2,2(x8)	  x8:0x80008d2d  x2=0x00000001 PA:0x80008d2f
       50035000	      5002	00000000	00000013	addi	x0,x0,0	  x0:0x00000000
       50045000	      5003	80000d68	1a27bf93	sltiu	x31,x15,418	 x15:0x80009fc4 x31=0x00000000
       50055000	      5004	80000d6c	ffc44383	lbu	x7,-4(x8)	  x8:0x80008d2d  x7=0x00000000 PA:0x80008d29
       50065000	      5005	80000d70	00000013	addi	x0,x0,0	  x0:0x00000000
       50075000	      5006	80000d74	41e30b33	sub	x22,x6,x30	  x6:0x00000001 x30:0x001e0004 x22=0xffe1fffd
       50085000	      5007	80000d78	006625b3	slt	x11,x12,x6	 x12:0x000000bd  x6:0x00000001 x11=0x00000000
       50095000	      5008	80000d7c	fe840a23	sb	x8,-12(x8)	  x8:0x80008d2d  x8:0x80008d2d PA:0x80008d21
       50105000	      5009	80000d80	00344003	lbu	x0,3(x8)	  x8:0x80008d2d PA:0x80008d30
       50115000	      5010	80000d84	01a13b33	sltu	x22,x2,x26	  x2:0x00000001 x26:0x00000004 x22=0x00000001
       50125000	      5011	80000d88	ff440fa3	sb	x20,-1(x8)	  x8:0x80008d2d x20:0x80009fe7 PA:0x80008d2c
       50135000	      5012	80000d8c	967c6b93	ori	x23,x24,-1689	 x24:0x0000004d x23=0xfffff96f
       50145000	      5013	80000d90	00c44d83	lbu	x27,12(x8)	  x8:0x80008d2d x27=0x00000052 PA:0x80008d39
       50155000	      5014	80000d94	01040a83	lb	x21,16(x8)	  x8:0x80008d2d x21=0xffffffee PA:0x80008d3d
       50165000	      5015	80000d98	01040103	lb	x2,16(x8)	  x8:0x80008d2d  x2=0xffffffee PA:0x80008d3d
       50175000	      5016	80000d9c	005730b3	sltu	x1,x14,x5	 x14:0x00000000  x5:0x27b07000  x1=0x00000001
       50185000	      5017	80000da0	00345a03	lhu	x20,3(x8)	  x8:0x80008d2d x20=0x0000594d PA:0x80008d30
       50195000	      5018	80000da4	41dad133	sra	x2,x21,x29	 x21:0xffffffee x29:0x00000004  x2=0xfffffffe
       50205000	      5019	80000da8	419db817	auipc	x16,0x419db	 x16=0xc19dbda4
       50215000	      5020	80000dac	008427a3	sw	x8,15(x8)	  x8:0x80008d2d  x8:0x80008d2d PA:0x80008d3c
       50225000	      5021	80000db0	00007097	auipc	x1,0x7	  x1=0x80007dac
       50235000	      5022	80000db4	7a208093	addi	x1,x1,1954	  x1:0x80007dac  x1=0x8000854e
       50245000	      5023	80000db8	03e0d303	lhu	x6,62(x1)	  x1:0x8000854e  x6=0x00008a50 PA:0x8000858c
       50255000	      5024	80000dbc	0011f4b3	and	x9,x3,x1	  x3:0x000000bd  x1:0x8000854e  x9=0x0000000c
       50265000	      5025	80000dc0	fee0db03	lhu	x22,-18(x1)	  x1:0x8000854e x22=0x00002900 PA:0x8000853c
       50275000	      5026	80000dc4	017e9613	slli	x12,x29,0x17	 x29:0x00000004 x12=0x02000000
       50285000	      5027	80000dc8	ff9080a3	sb	x25,-31(x1)	  x1:0x8000854e x25:0xfffffff0 PA:0x8000852f
       50295000	      5028	80000dcc	9eb44f93	xori	x31,x8,-1557	  x8:0x80008d2d x31=0x7fff74c6
       50305000	      5029	80000dd0	fc80c903	lbu	x18,-56(x1)	  x1:0x8000854e x18=0x000000c6 PA:0x80008516
       50315000	      5030	80000dd4	0050c983	lbu	x19,5(x1)	  x1:0x8000854e x19=0x00000028 PA:0x80008553
       50325000	      5031	80000dd8	fc408f83	lb	x31,-60(x1)	  x1:0x8000854e x31=0x00000011 PA:0x80008512
       50335000	      5032	80000ddc	01a401b3	add	x3,x8,x26	  x8:0x80008d2d x26:0x00000004  x3=0x80008d31
       50345000	      5033	80000de0	00a09503	lh	x10,10(x1)	  x1:0x8000854e x10=0x00003ec1 PA:0x80008558
       50355000	      5034	80000de4	01681a33	sll	x20,x16,x22	 x16:0xc19dbda4 x22:0x00002900 x20=0xc19dbda4
       50365000	      5035	80000de8	01508203	lb	x4,21(x1)	  x1:0x8000854e  x4=0xffffffc7 PA:0x80008563
       50375000	      5036	80000dec	412c8fb3	sub	x31,x25,x18	 x25:0xfffffff0 x18:0x000000c6 x31=0xffffff2a
       50385000	      5037	80000df0	6b5c4f93	xori	x31,x24,1717	 x24:0x0000004d x31=0x000006f8
       50395000	      5038	80000df4	ba35e417	auipc	x8,0xba35e	  x8=0x3a35edf0
       50405000	      5039	80000df8	419186b3	sub	x13,x3,x25	  x3:0x80008d31 x25:0xfffffff0 x13=0x80008d41
       50415000	      5040	80000dfc	01f4b3b3	sltu	x7,x9,x31	  x9:0x0000000c x31:0x000006f8  x7=0x00000001
       50425000	      5041	80000e00	02108c03	lb	x24,33(x1)	  x1:0x8000854e x24=0x00000038 PA:0x8000856f
       50435000	      5042	80000e04	fef0c483	lbu	x9,-17(x1)	  x1:0x8000854e  x9=0x00000029 PA:0x8000853d
       50445000	      5043	80000e08	9bf02913	slti	x18,x0,-1601	  x0:0x00000000 x18=0x00000000
       50455000	      5044	80000e0c	0400c683	lbu	x13,64(x1)	  x1:0x8000854e x13=0x00000004 PA:0x8000858e
       50465000	      5045	80000e10	c3196f13	ori	x30,x18,-975	 x18:0x00000000 x30=0xfffffc31
       50475000	      5046	80000e14	01e999b3	sll	x19,x19,x30	 x19:0x00000028 x30:0xfffffc31 x19=0x00500000
       50485000	      5047	80000e18	009573b3	and	x7,x10,x9	 x10:0x00003ec1  x9:0x00000029  x7=0x00000001
       50495000	      5048	80000e1c	ffc08383	lb	x7,-4(x1)	  x1:0x8000854e  x7=0x00000052 PA:0x8000854a
       50505000	      5049	80000e20	fec08723	sb	x12,-18(x1)	  x1:0x8000854e x12:0x02000000 PA:0x8000853c
       50515000	      5050	80000e24	feb0c383	lbu	x7,-21(x1)	  x1:0x8000854e  x7=0x000000dc PA:0x80008539
       50525000	      5051	80000e28	005abe33	sltu	x28,x21,x5	 x21:0xffffffee  x5:0x27b07000 x28=0x00000000
       50535000	      5052	80000e2c	019b0633	add	x12,x22,x25	 x22:0x00002900 x25:0xfffffff0 x12=0x000028f0
       50545000	      5053	80000e30	ca519417	auipc	x8,0xca519	  x8=0x4a519e2c
       50555000	      5054	80000e34	78736a13	ori	x20,x6,1927	  x6:0x00008a50 x20=0x00008fd7
       50565000	      5055	80000e38	48a2b713	sltiu	x14,x5,1162	  x5:0x27b07000 x14=0x00000000
       50575000	      5056	80000e3c	04009f03	lh	x30,64(x1)	  x1:0x8000854e x30=0xffffc304 PA:0x8000858e
       50585000	      5057	80000e40	40170933	sub	x18,x14,x1	 x14:0x00000000  x1:0x8000854e x18=0x7fff7ab2
       50595000	      5058	80000e44	01999113	slli	x2,x19,0x19	 x19:0x00500000  x2=0x00000000
       50605000	      5059	80000e48	660baf93	slti	x31,x23,1632	 x23:0xfffff96f x31=0x00000001
       50615000	      5060	80000e4c	af3b0913	addi	x18,x22,-1293	 x22:0x00002900 x18=0x000023f3
       50625000	      5061	80000e50	fe40c503	lbu	x10,-28(x1)	  x1:0x8000854e x10=0x000000e7 PA:0x80008532
       50635000	      5062	80000e54	c966ec13	ori	x24,x13,-874	 x13:0x00000004 x24=0xfffffc96
       50645000	      5063	80000e58	ff00ce83	lbu	x29,-16(x1)	  x1:0x8000854e x29=0x0000000a PA:0x8000853e
       50655000	      5064	80000e5c	01ba63b3	or	x7,x20,x27	 x20:0x00008fd7 x27:0x00000052  x7=0x00008fd7
       50665000	      5065	80000e60	03d0cc03	lbu	x24,61(x1)	  x1:0x8000854e x24=0x000000d0 PA:0x8000858b
       50675000	      5066	80000e64	02e08c03	lb	x24,46(x1)	  x1:0x8000854e x24=0x00000069 PA:0x8000857c
       50685000	      5067	80000e68	fe108ca3	sb	x1,-7(x1)	  x1:0x8000854e  x1:0x8000854e PA:0x80008547
       50695000	      5068	80000e6c	00008497	auipc	x9,0x8	  x9=0x80008e68
       50705000	      5069	80000e70	a2348493	addi	x9,x9,-1501	  x9:0x80008e68  x9=0x8000888b
       50715000	      5070	80000e74	05148023	sb	x17,64(x9)	  x9:0x8000888b x17:0x80009f2c PA:0x800088cb
       50725000	      5071	80000e78	4035da93	srai	x21,x11,0x3	 x11:0x00000000 x21=0x00000000
       50735000	      5072	80000e7c	02f48383	lb	x7,47(x9)	  x9:0x8000888b  x7=0xffffffd3 PA:0x800088ba
       50745000	      5073	80000e80	f9f4d283	lhu	x5,-97(x9)	  x9:0x8000888b  x5=0x0000e65b PA:0x8000882a
       50755000	      5074	80000e84	40a05b13	srai	x22,x0,0xa	  x0:0x00000000 x22=0x00000000
       50765000	      5075	80000e88	001a9eb3	sll	x29,x21,x1	 x21:0x00000000  x1:0x8000854e x29=0x00000000
       50775000	      5076	80000e8c	0154a983	lw	x19,21(x9)	  x9:0x8000888b x19=0xe09a5aa1 PA:0x800088a0
       50785000	      5077	80000e90	01d333b3	sltu	x7,x6,x29	  x6:0x00008a50 x29:0x00000000  x7=0x00000000
       50795000	      5078	80000e94	53113b13	sltiu	x22,x2,1329	  x2:0x00000000 x22=0x00000001
       50805000	      5079	80000e98	016d2113	slti	x2,x26,22	 x26:0x00000004  x2=0x00000001
       50815000	      5080	80000e9c	fba4c403	lbu	x8,-70(x9)	  x9:0x8000888b  x8=0x000000af PA:0x80008845
       50825000	      5081	80000ea0	01dfd3b3	srl	x7,x31,x29	 x31:0x00000001 x29:0x00000000  x7=0x00000001
       50835000	      5082	80000ea4	0c64ce03	lbu	x28,198(x9)	  x9:0x8000888b x28=0x000000b3 PA:0x80008951
       50845000	      5083	80000ea8	0ae4c103	lbu	x2,174(x9)	  x9:0x8000888b  x2=0x00000002 PA:0x80008939
       50855000	      5084	80000eac	acc86217	auipc	x4,0xacc86	  x4=0x2cc86ea8
       50865000	      5085	80000eb0	0ba48403	lb	x8,186(x9)	  x9:0x8000888b  x8=0x0000004b PA:0x80008945
       50875000	      5086	80000eb4	76ac2437	lui	x8,0x76ac2	  x8=0x76ac2000
       50885000	      5087	80000eb8	fc74ca83	lbu	x21,-57(x9)	  x9:0x8000888b x21=0x000000b9 PA:0x80008852
       50895000	      5088	80000ebc	04f48923	sb	x15,82(x9)	  x9:0x8000888b x15:0x80009fc4 PA:0x800088dd
       50905000	      5089	80000ec0	04f4ca83	lbu	x21,79(x9)	  x9:0x8000888b x21=0x000000e5 PA:0x800088da
       50915000	      5090	80000ec4	40e05813	srai	x16,x0,0xe	  x0:0x00000000 x16=0x00000000
       50925000	      5091	80000ec8	006d0533	add	x10,x26,x6	 x26:0x00000004  x6:0x00008a50 x10=0x00008a54
       50935000	      5092	80000ecc	009ed093	srli	x1,x29,0x9	 x29:0x00000000  x1=0x00000000
       50945000	      5093	80000ed0	e0406f17	auipc	x30,0xe0406	 x30=0x60406ecc
       50955000	      5094	80000ed4	b1a13213	sltiu	x4,x2,-1254	  x2:0x00000002  x4=0x00000001
       50965000	      5095	80000ed8	e92b2013	slti	x0,x22,-366	 x22:0x00000001
       50975000	      5096	80000edc	00000013	addi	x0,x0,0	  x0:0x00000000
       50985000	      5097	80000ee0	fb24cc03	lbu	x24,-78(x9)	  x9:0x8000888b x24=0x00000085 PA:0x8000883d
       50995000	      5098	80000ee4	f9c4ca03	lbu	x20,-100(x9)	  x9:0x8000888b x20=0x000000f1 PA:0x80008827
       51005000	      5099	80000ee8	010051b3	srl	x3,x0,x16	  x0:0x00000000 x16:0x00000000  x3=0x00000000
       51015000	      5100	80000eec	0884c903	lbu	x18,136(x9)	  x9:0x8000888b x18=0x000000e3 PA:0x80008913
       51025000	      5101	80000ef0	04048a23	sb	x0,84(x9)	  x9:0x8000888b  x0:0x00000000 PA:0x800088df
       51035000	      5102	80000ef4	412c5c93	srai	x25,x24,0x12	 x24:0x00000085 x25=0x00000000
       51045000	      5103	80000ef8	40b756b3	sra	x13,x14,x11	 x14:0x00000000 x11:0x00000000 x13=0x00000000
       51055000	      5104	80000efc	f8e4c403	lbu	x8,-114(x9)	  x9:0x8000888b  x8=0x000000b7 PA:0x80008819
       51065000	      5105	80000f00	013dacb3	slt	x25,x27,x19	 x27:0x00000052 x19:0xe09a5aa1 x25=0x00000000
       51075000	      5106	80000f04	e5791197	auipc	x3,0xe5791	  x3=0x65791f00
       51085000	      5107	80000f08	0de48e83	lb	x29,222(x9)	  x9:0x8000888b x29=0x0000002d PA:0x80008969
       51095000	      5108	80000f0c	00e809b3	add	x19,x16,x14	 x16:0x00000000 x14:0x00000000 x19=0x00000000
       51105000	      5109	80000f10	0be48103	lb	x2,190(x9)	  x9:0x8000888b  x2=0x0000002e PA:0x80008949
       51115000	      5110	80000f14	01da1a33	sll	x20,x20,x29	 x20:0x000000f1 x29:0x0000002d x20=0x001e2000
       51125000	      5111	80000f18	05d4c203	lbu	x4,93(x9)	  x9:0x8000888b  x4=0x00000065 PA:0x800088e8
       51135000	      5112	80000f1c	00f16e33	or	x28,x2,x15	  x2:0x0000002e x15:0x80009fc4 x28=0x80009fee
       51145000	      5113	80000f20	0e34c083	lbu	x1,227(x9)	  x9:0x8000888b  x1=0x000000a5 PA:0x8000896e
       51155000	      5114	80000f24	01da5293	srli	x5,x20,0x1d	 x20:0x001e2000  x5=0x00000000
       51165000	      5115	80000f28	fce48683	lb	x13,-50(x9)	  x9:0x8000888b x13=0xffffffba PA:0x80008859
       51175000	      5116	80000f2c	40e20fb3	sub	x31,x4,x14	  x4:0x00000065 x14:0x00000000 x31=0x00000065
       51185000	      5117	80000f30	0964c903	lbu	x18,150(x9)	  x9:0x8000888b x18=0x000000f3 PA:0x80008921
       51195000	      5118	80000f34	fee49da3	sh	x14,-5(x9)	  x9:0x8000888b x14:0x00000000 PA:0x80008886
       51205000	      5119	80000f38	031493a3	sh	x17,39(x9)	  x9:0x8000888b x17:0x80009f2c PA:0x800088b2
       51215000	      5120	80000f3c	f9f4aaa3	sw	x31,-107(x9)	  x9:0x8000888b x31:0x00000065 PA:0x80008820
       51225000	      5121	80000f40	00007117	auipc	x2,0x7	  x2=0x80007f3c
       51235000	      5122	80000f44	21610113	addi	x2,x2,534	  x2:0x80007f3c  x2=0x80008152
       51245000	      5123	80000f48	008a1b13	slli	x22,x20,0x8	 x20:0x001e2000 x22=0x1e200000
       51255000	      5124	80000f4c	01015d83	lhu	x27,16(x2)	  x2:0x80008152 x27=0x0000001e PA:0x80008162
       51265000	      5125	80000f50	6347bc93	sltiu	x25,x15,1588	 x15:0x80009fc4 x25=0x00000000
       51275000	      5126	80000f54	782f7413	andi	x8,x30,1922	 x30:0x60406ecc  x8=0x00000680
       51285000	      5127	80000f58	356d6d93	ori	x27,x26,854	 x26:0x00000004 x27=0x00000356
       51295000	      5128	80000f5c	01c45b33	srl	x22,x8,x28	  x8:0x00000680 x28:0x80009fee x22=0x00000000
       51305000	      5129	80000f60	6be06293	ori	x5,x0,1726	  x0:0x00000000  x5=0x000006be
       51315000	      5130	80000f64	40b6d213	srai	x4,x13,0xb	 x13:0xffffffba  x4=0xffffffff
       51325000	      5131	80000f68	00f14483	lbu	x9,15(x2)	  x2:0x80008152  x9=0x00000020 PA:0x80008161
       51335000	      5132	80000f6c	ffe14b03	lbu	x22,-2(x2)	  x2:0x80008152 x22=0x00000005 PA:0x80008150
       51345000	      5133	80000f70	019dc4b3	xor	x9,x27,x25	 x27:0x00000356 x25:0x00000000  x9=0x00000356
       51355000	      5134	80000f74	00b569b3	or	x19,x10,x11	 x10:0x00008a54 x11:0x00000000 x19=0x00008a54
       51365000	      5135	80000f78	6d020993	addi	x19,x4,1744	  x4:0xffffffff x19=0x000006cf
       51375000	      5136	80000f7c	ffe11a83	lh	x21,-2(x2)	  x2:0x80008152 x21=0x00002d05 PA:0x80008150
       51385000	      5137	80000f80	ff615a83	lhu	x21,-10(x2)	  x2:0x80008152 x21=0x0000fcad PA:0x80008148
       51395000	      5138	00000000	00000013	addi	x0,x0,0	  x0:0x00000000
       51405000	      5139	80000f84	47bac297	auipc	x5,0x47bac	  x5=0xc7bacf80
       51415000	      5140	80000f88	01412723	sw	x20,14(x2)	  x2:0x80008152 x20:0x001e2000 PA:0x80008160
       51425000	      5141	80000f8c	ffa12903	lw	x18,-6(x2)	  x2:0x80008152 x18=0x18005605 PA:0x8000814c
       51435000	      5142	80000f90	00c15283	lhu	x5,12(x2)	  x2:0x80008152  x5=0x00000a40 PA:0x8000815e
       51445000	      5143	80000f94	01e55033	srl	x0,x10,x30	 x10:0x00008a54 x30:0x60406ecc
       51455000	      5144	80000f98	415f5613	srai	x12,x30,0x15	 x30:0x60406ecc x12=0x00000302
       51465000	      5145	80000f9c	00a11803	lh	x16,10(x2)	  x2:0x80008152 x16=0xffff8408 PA:0x8000815c
       51475000	      5146	80000fa0	00b10283	lb	x5,11(x2)	  x2:0x80008152  x5=0xffffff84 PA:0x8000815d
       51485000	      5147	80000fa4	4146df93	srai	x31,x13,0x14	 x13:0xffffffba x31=0xffffffff
       51495000	      5148	80000fa8	ff610d23	sb	x22,-6(x2)	  x2:0x80008152 x22:0x00000005 PA:0x8000814c
       51505000	      5149	80000fac	00ada3b3	slt	x7,x27,x10	 x27:0x00000356 x10:0x00008a54  x7=0x00000001
       51515000	      5150	80000fb0	41d4d2b3	sra	x5,x9,x29	  x9:0x00000356 x29:0x0000002d  x5=0x00000000
       51525000	      5151	80000fb4	0106abb3	slt	x23,x13,x16	 x13:0xffffffba x16:0xffff8408 x23=0x00000000
       51535000	      5152	80000fb8	1331a593	slti	x11,x3,307	  x3:0x65791f00 x11=0x00000000
       51545000	      5153	80000fbc	00811c03	lh	x24,8(x2)	  x2:0x80008152 x24=0x00001b32 PA:0x8000815a
       51555000	      5154	80000fc0	00008117	auipc	x2,0x8	  x2=0x80008fbc
       51565000	      5155	80000fc4	f9310113	addi	x2,x2,-109	  x2:0x80008fbc  x2=0x80008f4f
       51575000	      5156	80000fc8	14e30e93	addi	x29,x6,334	  x6:0x00008a50 x29=0x00008b9e
       51585000	      5157	80000fcc	ffb11f83	lh	x31,-5(x2)	  x2:0x80008f4f x31=0x00000000 PA:0x80008f4a
       51595000	      5158	80000fd0	000075b3	and	x11,x0,x0	  x0:0x00000000  x0:0x00000000 x11=0x00000000
       51605000	      5159	80000fd4	00000013	addi	x0,x0,0	  x0:0x00000000
       51615000	      5160	80000fd8	014b5393	srli	x7,x22,0x14	 x22:0x00000005  x7=0x00000000
       51625000	      5161	80000fdc	ffa11fa3	sh	x26,-1(x2)	  x2:0x80008f4f x26:0x00000004 PA:0x80008f4e
       51635000	      5162	80000fe0	c3786b13	ori	x22,x16,-969	 x16:0xffff8408 x22=0xfffffc3f
       51645000	      5163	80000fe4	ff315903	lhu	x18,-13(x2)	  x2:0x80008f4f x18=0x0000bf53 PA:0x80008f42
       51655000	      5164	80000fe8	ff014c03	lbu	x24,-16(x2)	  x2:0x80008f4f x24=0x00000000 PA:0x80008f3f
       51665000	      5165	80000fec	7b1b6313	ori	x6,x22,1969	 x22:0xfffffc3f  x6=0xffffffbf
       51675000	      5166	80000ff0	00b10283	lb	x5,11(x2)	  x2:0x80008f4f  x5=0xffffff8b PA:0x80008f5a
       51685000	      5167	80000ff4	4164dab3	sra	x21,x9,x22	  x9:0x00000356 x22:0xfffffc3f x21=0x00000000
       51695000	      5168	80000ff8	013b9db3	sll	x27,x23,x19	 x23:0x00000000 x19:0x000006cf x27=0x00000000
       51705000	      5169	80000ffc	01b10823	sb	x27,16(x2)	  x2:0x80008f4f x27:0x00000000 PA:0x80008f5f
       51715000	      5170	80001000	ff814683	lbu	x13,-8(x2)	  x2:0x80008f4f x13=0x00000000 PA:0x80008f47
       51725000	      5171	80001004	fee10c23	sb	x14,-8(x2)	  x2:0x80008f4f x14:0x00000000 PA:0x80008f47
       51735000	      5172	80001008	0066d213	srli	x4,x13,0x6	 x13:0x00000000  x4=0x00000000
       51745000	      5173	8000100c	019101a3	sb	x25,3(x2)	  x2:0x80008f4f x25:0x00000000 PA:0x80008f52
       51755000	      5174	80001010	c8bbb693	sltiu	x13,x23,-885	 x23:0x00000000 x13=0x00000001
       51765000	      5175	80001014	00e292b3	sll	x5,x5,x14	  x5:0xffffff8b x14:0x00000000  x5=0xffffff8b
       51775000	      5176	80001018	b28d6993	ori	x19,x26,-1240	 x26:0x00000004 x19=0xfffffb2c
       51785000	      5177	8000101c	bcf13d93	sltiu	x27,x2,-1073	  x2:0x80008f4f x27=0x00000001
       51795000	      5178	80001020	d499c493	xori	x9,x19,-695	 x19:0xfffffb2c  x9=0x00000665
       51805000	      5179	80001024	ff510823	sb	x21,-16(x2)	  x2:0x80008f4f x21:0x00000000 PA:0x80008f3f
       51815000	      5180	80001028	00b11a03	lh	x20,11(x2)	  x2:0x80008f4f x20=0xffff828b PA:0x80008f5a
       51825000	      5181	8000102c	ff210f83	lb	x31,-14(x2)	  x2:0x80008f4f x31=0xffffffff PA:0x80008f41
       51835000	      5182	80001030	00cc1413	slli	x8,x24,0xc	 x24:0x00000000  x8=0x00000000
       51845000	      5183	80001034	019935b3	sltu	x11,x18,x25	 x18:0x0000bf53 x25:0x00000000 x11=0x00000000
       51855000	      5184	80001038	00c10d83	lb	x27,12(x2)	  x2:0x80008f4f x27=0xffffff82 PA:0x80008f5b
       51865000	      5185	8000103c	fe610a23	sb	x6,-12(x2)	  x2:0x80008f4f  x6:0xffffffbf PA:0x80008f43
       51875000	      5186	80001040	00014403	lbu	x8,0(x2)	  x2:0x80008f4f  x8=0x00000000 PA:0x80008f4f
       51885000	      5187	80001044	40e55093	srai	x1,x10,0xe	 x10:0x00008a54  x1=0x00000002
       51895000	      5188	80001048	00910a03	lb	x20,9(x2)	  x2:0x80008f4f x20=0xffffffea PA:0x80008f58
       51905000	      5189	00000000	00000013	addi	x0,x0,0	  x0:0x00000000
       51915000	      5190	8000104c	014f2e33	slt	x28,x30,x20	 x30:0x60406ecc x20:0xffffffea x28=0x00000000
       51925000	      5191	80001050	ffc11da3	sh	x28,-5(x2)	  x2:0x80008f4f x28:0x00000000 PA:0x80008f4a
       51935000	      5192	80001054	eefe8513	addi	x10,x29,-273	 x29:0x00008b9e x10=0x00008a8d
       51945000	      5193	80001058	003103a3	sb	x3,7(x2)	  x2:0x80008f4f  x3:0x65791f00 PA:0x80008f56
       51955000	      5194	8000105c	01014c83	lbu	x25,16(x2)	  x2:0x80008f4f x25=0x00000000 PA:0x80008f5f
       51965000	      5195	80001060	00be5093	srli	x1,x28,0xb	 x28:0x00000000  x1=0x00000000
       51975000	      5196	80001064	41dede13	srai	x28,x29,0x1d	 x29:0x00008b9e x28=0x00000000
       51985000	      5197	80001068	00969913	slli	x18,x13,0x9	 x13:0x00000001 x18=0x00000200
       51995000	      5198	8000106c	01210523	sb	x18,10(x2)	  x2:0x80008f4f x18:0x00000200 PA:0x80008f59
       52005000	      5199	80001070	000a9f93	slli	x31,x21,0x0	 x21:0x00000000 x31=0x00000000
       52015000	      5200	80001074	00b14b83	lbu	x23,11(x2)	  x2:0x80008f4f x23=0x0000008b PA:0x80008f5a
       52025000	      5201	80001078	ffa10f23	sb	x26,-2(x2)	  x2:0x80008f4f x26:0x00000004 PA:0x80008f4d
       52035000	      5202	8000107c	40f25eb3	sra	x29,x4,x15	  x4:0x00000000 x15:0x80009fc4 x29=0x00000000
       52045000	      5203	80001080	00510523	sb	x5,10(x2)	  x2:0x80008f4f  x5:0xffffff8b PA:0x80008f59
       52055000	      5204	80001084	ff114a83	lbu	x21,-15(x2)	  x2:0x80008f4f x21=0x000000ad PA:0x80008f40
       52065000	      5205	80001088	00008117	auipc	x2,0x8	  x2=0x80009084
       52075000	      5206	8000108c	d5d10113	addi	x2,x2,-675	  x2:0x80009084  x2=0x80008de1
       52085000	      5207	80001090	f64116a3	sh	x4,-147(x2)	  x2:0x80008de1  x4:0x00000000 PA:0x80008d4e
       52095000	      5208	80001094	01ff4eb3	xor	x29,x30,x31	 x30:0x60406ecc x31:0x00000000 x29=0x60406ecc
       52105000	      5209	80001098	f6f10083	lb	x1,-145(x2)	  x2:0x80008de1  x1=0x00000047 PA:0x80008d50
       52115000	      5210	8000109c	01245693	srli	x13,x8,0x12	  x8:0x00000000 x13=0x00000000
       52125000	      5211	800010a0	0fd112a3	sh	x29,229(x2)	  x2:0x80008de1 x29:0x60406ecc PA:0x80008ec6
       52135000	      5212	800010a4	40dd8033	sub	x0,x27,x13	 x27:0xffffff82 x13:0x00000000
       52145000	      5213	800010a8	0ec10c03	lb	x24,236(x2)	  x2:0x80008de1 x24=0xffffffc0 PA:0x80008ecd
       52155000	      5214	800010ac	f9110383	lb	x7,-111(x2)	  x2:0x80008de1  x7=0xffffff84 PA:0x80008d72
       52165000	      5215	800010b0	01214683	lbu	x13,18(x2)	  x2:0x80008de1 x13=0x00000085 PA:0x80008df3
       52175000	      5216	800010b4	5f29e093	ori	x1,x19,1522	 x19:0xfffffb2c  x1=0xfffffffe
       52185000	      5217	800010b8	06e14603	lbu	x12,110(x2)	  x2:0x80008de1 x12=0x000000ba PA:0x80008e4f
       52195000	      5218	800010bc	00000013	addi	x0,x0,0	  x0:0x00000000
       52205000	      5219	800010c0	00f14183	lbu	x3,15(x2)	  x2:0x80008de1  x3=0x00000055 PA:0x80008df0
       52215000	      5220	800010c4	41830f33	sub	x30,x6,x24	  x6:0xffffffbf x24:0xffffffc0 x30=0xffffffff
       52225000	      5221	800010c8	04715603	lhu	x12,71(x2)	  x2:0x80008de1 x12=0x00003a7a PA:0x80008e28
       52235000	      5222	800010cc	04f10c23	sb	x15,88(x2)	  x2:0x80008de1 x15:0x80009fc4 PA:0x80008e39
       52245000	      5223	800010d0	01e8e433	or	x8,x17,x30	 x17:0x80009f2c x30:0xffffffff  x8=0xffffffff
       52255000	      5224	800010d4	01e10303	lb	x6,30(x2)	  x2:0x80008de1  x6=0x0000003e PA:0x80008dff
       52265000	      5225	800010d8	019a9513	slli	x10,x21,0x19	 x21:0x000000ad x10=0x5a000000
       52275000	      5226	800010dc	02c10923	sb	x12,50(x2)	  x2:0x80008de1 x12:0x00003a7a PA:0x80008e13
       52285000	      5227	800010e0	00542233	slt	x4,x8,x5	  x8:0xffffffff  x5:0xffffff8b  x4=0x00000000
       52295000	      5228	800010e4	01e839b3	sltu	x19,x16,x30	 x16:0xffff8408 x30:0xffffffff x19=0x00000001
       52305000	      5229	800010e8	f2a10623	sb	x10,-212(x2)	  x2:0x80008de1 x10:0x5a000000 PA:0x80008d0d
       52315000	      5230	800010ec	0ab11ea3	sh	x11,189(x2)	  x2:0x80008de1 x11:0x00000000 PA:0x80008e9e
       52325000	      5231	800010f0	016b7fb3	and	x31,x22,x22	 x22:0xfffffc3f x22:0xfffffc3f x31=0xfffffc3f
       52335000	      5232	800010f4	001634b3	sltu	x9,x12,x1	 x12:0x00003a7a  x1:0xfffffffe  x9=0x00000001
       52345000	      5233	800010f8	003cf0b3	and	x1,x25,x3	 x25:0x00000000  x3:0x00000055  x1=0x00000000
       52355000	      5234	800010fc	41135b93	srai	x23,x6,0x11	  x6:0x0000003e x23=0x00000000
       52365000	      5235	80001100	000e9f33	sll	x30,x29,x0	 x29:0x60406ecc  x0:0x00000000 x30=0x60406ecc
       52375000	      5236	80001104	f3312383	lw	x7,-205(x2)	  x2:0x80008de1  x7=0xba697c03 PA:0x80008d14
       52385000	      5237	80001108	014b1c13	slli	x24,x22,0x14	 x22:0xfffffc3f x24=0xc3f00000
       52395000	      5238	8000110c	f5310723	sb	x19,-178(x2)	  x2:0x80008de1 x19:0x00000001 PA:0x80008d2f
       52405000	      5239	80001110	07110d23	sb	x17,122(x2)	  x2:0x80008de1 x17:0x80009f2c PA:0x80008e5b
       52415000	      5240	80001114	00f28833	add	x16,x5,x15	  x5:0xffffff8b x15:0x80009fc4 x16=0x80009f4f
       52425000	      5241	80001118	01978c33	add	x24,x15,x25	 x15:0x80009fc4 x25:0x00000000 x24=0x80009fc4
       52435000	      5242	8000111c	01038cb3	add	x25,x7,x16	  x7:0xba697c03 x16:0x80009f4f x25=0x3a6a1b52
       52445000	      5243	80001120	0ed10083	lb	x1,237(x2)	  x2:0x80008de1  x1=0xffffff96 PA:0x80008ece
       52455000	      5244	80001124	0d310603	lb	x12,211(x2)	  x2:0x80008de1 x12=0xffffffcb PA:0x80008eb4
       52465000	      5245	80001128	f2715f03	lhu	x30,-217(x2)	  x2:0x80008de1 x30=0x0000a79d PA:0x80008d08
       52475000	      5246	8000112c	0a311283	lh	x5,163(x2)	  x2:0x80008de1  x5=0xfffff8ae PA:0x80008e84
       52485000	      5247	80001130	06e14303	lbu	x6,110(x2)	  x2:0x80008de1  x6=0x000000ba PA:0x80008e4f
       52495000	      5248	80001134	00a6db93	srli	x23,x13,0xa	 x13:0x00000085 x23=0x00000000
       52505000	      5249	80001138	48904b93	xori	x23,x0,1161	  x0:0x00000000 x23=0x00000489
       52515000	      5250	8000113c	00000013	addi	x0,x0,0	  x0:0x00000000
       52525000	      5251	80001140	11413e13	sltiu	x28,x2,276	  x2:0x80008de1 x28=0x00000000
       52535000	      5252	80001144	40485813	srai	x16,x16,0x4	 x16:0x80009f4f x16=0xf80009f4
       52545000	      5253	80001148	030c4663	blt	x24,x16,80001174	 x24:0x80009fc4 x16:0xf80009f4
       52555000	      5254	00000000	00000013	addi	x0,x0,0	  x0:0x00000000
       52565000	      5255	80001170	00000013	addi	x0,x0,0	  x0:0x00000000
       52575000	      5256	80001174	024cd663	bge	x25,x4,800011a0	 x25:0x3a6a1b52  x4:0x00000000
       52585000	      5257	00000000	00000013	addi	x0,x0,0	  x0:0x00000000
       52595000	      5258	8000119c	00000013	addi	x0,x0,0	  x0:0x00000000
       52605000	      5259	800011a0	00213033	sltu	x0,x2,x2	  x2:0x80008de1  x2:0x80008de1
       52615000	      5260	800011a4	005f8c33	add	x24,x31,x5	 x31:0xfffffc3f  x5:0xfffff8ae x24=0xfffff4ed
       52625000	      5261	800011a8	011c1b33	sll	x22,x24,x17	 x24:0xfffff4ed x17:0x80009f2c x22=0xff4ed000
       52635000	      5262	800011ac	da5a7693	andi	x13,x20,-603	 x20:0xffffffea x13=0xfffffda0
       52645000	      5263	800011b0	03a3ce63	blt	x7,x26,800011ec	  x7:0xba697c03 x26:0x00000004
       52655000	      5264	00000000	00000013	addi	x0,x0,0	  x0:0x00000000
       52665000	      5265	800011e8	00000013	addi	x0,x0,0	  x0:0x00000000
       52675000	      5266	800011ec	b8b38e93	addi	x29,x7,-1141	  x7:0xba697c03 x29=0xba69778e
       52685000	      5267	800011f0	7eae2db7	lui	x27,0x7eae2	 x27=0x7eae2000
       52695000	      5268	800011f4	022cd063	bge	x25,x2,80001214	 x25:0x3a6a1b52  x2:0x80008de1
       52705000	      5269	00000000	00000013	addi	x0,x0,0	  x0:0x00000000
       52715000	      5270	80001210	00000013	addi	x0,x0,0	  x0:0x00000000
       52725000	      5271	80001214	86d00e93	addi	x29,x0,-1939	  x0:0x00000000 x29=0xfffff86d
       52735000	      5272	80001218	01598033	add	x0,x19,x21	 x19:0x00000001 x21:0x000000ad
       52745000	      5273	8000121c	02fe1e63	bne	x28,x15,80001258	 x28:0x00000000 x15:0x80009fc4
       52755000	      5274	00000000	00000013	addi	x0,x0,0	  x0:0x00000000
       52765000	      5275	80001254	00000013	addi	x0,x0,0	  x0:0x00000000
       52775000	      5276	80001258	015e0b33	add	x22,x28,x21	 x28:0x00000000 x21:0x000000ad x22=0x000000ad
       52785000	      5277	8000125c	4dbbe993	ori	x19,x23,1243	 x23:0x00000489 x19=0x000004db
       52795000	      5278	80001260	025a7063	bgeu	x20,x5,80001280	 x20:0xffffffea  x5:0xfffff8ae
       52805000	      5279	00000000	00000013	addi	x0,x0,0	  x0:0x00000000
       52815000	      5280	8000127c	00000013	addi	x0,x0,0	  x0:0x00000000
       52825000	      5281	80001280	c0542013	slti	x0,x8,-1019	  x8:0xffffffff
       52835000	      5282	80001284	00000013	addi	x0,x0,0	  x0:0x00000000
       52845000	      5283	80001288	01e81eb3	sll	x29,x16,x30	 x16:0xf80009f4 x30:0x0000a79d x29=0x80000000
       52855000	      5284	8000128c	1e44f813	andi	x16,x9,484	  x9:0x00000001 x16=0x00000000
       52865000	      5285	80001290	1dabad93	slti	x27,x23,474	 x23:0x00000489 x27=0x00000000
       52875000	      5286	80001294	88245bb7	lui	x23,0x88245	 x23=0x88245000
       52885000	      5287	80001298	40715b13	srai	x22,x2,0x7	  x2:0x80008de1 x22=0xff00011b
       52895000	      5288	8000129c	41305c93	srai	x25,x0,0x13	  x0:0x00000000 x25=0x00000000
       52905000	      5289	800012a0	00bdc463	blt	x27,x11,800012a8	 x27:0x00000000 x11:0x00000000
       52915000	      5290	800012a4	00edb5b3	sltu	x11,x27,x14	 x27:0x00000000 x14:0x00000000 x11=0x00000000
       52925000	      5291	800012a8	02f87463	bgeu	x16,x15,800012d0	 x16:0x00000000 x15:0x80009fc4
       52935000	      5292	800012ac	1402ec13	ori	x24,x5,320	  x5:0xfffff8ae x24=0xfffff9ee
       52945000	      5293	800012b0	01693c33	sltu	x24,x18,x22	 x18:0x00000200 x22:0xff00011b x24=0x00000001
       52955000	      5294	800012b4	0230c863	blt	x1,x3,800012e4	  x1:0xffffff96  x3:0x00000055
       52965000	      5295	00000000	00000013	addi	x0,x0,0	  x0:0x00000000
       52975000	      5296	800012e0	00000013	addi	x0,x0,0	  x0:0x00000000
       52985000	      5297	800012e4	f0cffc13	andi	x24,x31,-244	 x31:0xfffffc3f x24=0xfffffc0c
       52995000	      5298	800012e8	41c8d2b3	sra	x5,x17,x28	 x17:0x80009f2c x28:0x00000000  x5=0x80009f2c
       53005000	      5299	800012ec	cf31a213	slti	x4,x3,-781	  x3:0x00000055  x4=0x00000000
       53015000	      5300	800012f0	00a251b3	srl	x3,x4,x10	  x4:0x00000000 x10:0x5a000000  x3=0x00000000
       53025000	      5301	800012f4	011bea33	or	x20,x23,x17	 x23:0x88245000 x17:0x80009f2c x20=0x8824df2c
       53035000	      5302	800012f8	01b63eb3	sltu	x29,x12,x27	 x12:0xffffffcb x27:0x00000000 x29=0x00000000
       53045000	      5303	800012fc	0c3e9263	bne	x29,x3,800013c0	 x29:0x00000000  x3:0x00000000
       53055000	      5304	80001300	00007117	auipc	x2,0x7	  x2=0x800082fc
       53065000	      5305	80001304	13f10113	addi	x2,x2,319	  x2:0x800082fc  x2=0x8000843b
       53075000	      5306	80001308	0e9fbc17	auipc	x24,0xe9fb	 x24=0x8e9fc304
       53085000	      5307	8000130c	40c60f33	sub	x30,x12,x12	 x12:0xffffffcb x12:0xffffffcb x30=0x00000000
       53095000	      5308	80001310	2b1110a3	sh	x17,673(x2)	  x2:0x8000843b x17:0x80009f2c PA:0x800086dc
       53105000	      5309	80001314	158119a3	sh	x24,339(x2)	  x2:0x8000843b x24:0x8e9fc304 PA:0x8000858e
       53115000	      5310	80001318	26610f03	lb	x30,614(x2)	  x2:0x8000843b x30=0xffffffdb PA:0x800086a1
       53125000	      5311	8000131c	017ed433	srl	x8,x29,x23	 x29:0x00000000 x23:0x88245000  x8=0x00000000
       53135000	      5312	80001320	0157d513	srli	x10,x15,0x15	 x15:0x80009fc4 x10=0x00000400
       53145000	      5313	80001324	0a512703	lw	x14,165(x2)	  x2:0x8000843b x14=0x88ca6a48 PA:0x800084e0
       53155000	      5314	80001328	f0810403	lb	x8,-248(x2)	  x2:0x8000843b  x8=0xffffff84 PA:0x80008343
       53165000	      5315	00000000	00000013	addi	x0,x0,0	  x0:0x00000000
       53175000	      5316	8000132c	0e80c693	xori	x13,x1,232	  x1:0xffffff96 x13=0xffffff7e
       53185000	      5317	80001330	c0f14583	lbu	x11,-1009(x2)	  x2:0x8000843b x11=0x0000006f PA:0x8000804a
       53195000	      5318	80001334	2d314a03	lbu	x20,723(x2)	  x2:0x8000843b x20=0x000000c1 PA:0x8000870e
       53205000	      5319	80001338	76c38693	addi	x13,x7,1900	  x7:0xba697c03 x13=0xba69836f
       53215000	      5320	8000133c	cfc116a3	sh	x28,-787(x2)	  x2:0x8000843b x28:0x00000000 PA:0x80008128
       53225000	      5321	80001340	e5b14303	lbu	x6,-421(x2)	  x2:0x8000843b  x6=0x00000063 PA:0x80008296
       53235000	      5322	80001344	0147e6b3	or	x13,x15,x20	 x15:0x80009fc4 x20:0x000000c1 x13=0x80009fc5
       53245000	      5323	80001348	fd614983	lbu	x19,-42(x2)	  x2:0x8000843b x19=0x00000079 PA:0x80008411
       53255000	      5324	8000134c	fad10ba3	sb	x13,-73(x2)	  x2:0x8000843b x13:0x80009fc5 PA:0x800083f2
       53265000	      5325	80001350	9b343913	sltiu	x18,x8,-1613	  x8:0xffffff84 x18=0x00000000
       53275000	      5326	80001354	0108cab3	xor	x21,x17,x16	 x17:0x80009f2c x16:0x00000000 x21=0x80009f2c
       53285000	      5327	80001358	34e10f03	lb	x30,846(x2)	  x2:0x8000843b x30=0xffffffba PA:0x80008789
       53295000	      5328	8000135c	1c315e83	lhu	x29,451(x2)	  x2:0x8000843b x29=0x00004e2f PA:0x800085fe
       53305000	      5329	80001360	015d5933	srl	x18,x26,x21	 x26:0x00000004 x21:0x80009f2c x18=0x00000000
       53315000	      5330	80001364	00000013	addi	x0,x0,0	  x0:0x00000000
       53325000	      5331	80001368	00000013	addi	x0,x0,0	  x0:0x00000000
       53335000	      5332	8000136c	317126a3	sw	x23,781(x2)	  x2:0x8000843b x23:0x88245000 PA:0x80008748
       53345000	      5333	80001370	19e10123	sb	x30,386(x2)	  x2:0x8000843b x30:0xffffffba PA:0x800085bd
       53355000	      5334	80001374	000454b3	srl	x9,x8,x0	  x8:0xffffff84  x0:0x00000000  x9=0xffffff84
       53365000	      5335	80001378	5d6701b7	lui	x3,0x5d670	  x3=0x5d670000
       53375000	      5336	8000137c	1ce14f03	lbu	x30,462(x2)	  x2:0x8000843b x30=0x000000aa PA:0x80008609
       53385000	      5337	80001380	0110e3b3	or	x7,x1,x17	  x1:0xffffff96 x17:0x80009f2c  x7=0xffffffbe
       53395000	      5338	80001384	f0714203	lbu	x4,-249(x2)	  x2:0x8000843b  x4=0x00000041 PA:0x80008342
       53405000	      5339	80001388	013fe4b3	or	x9,x31,x19	 x31:0xfffffc3f x19:0x00000079  x9=0xfffffc7f
       53415000	      5340	8000138c	4036d393	srai	x7,x13,0x3	 x13:0x80009fc5  x7=0xf00013f8
       53425000	      5341	80001390	00d0f9b3	and	x19,x1,x13	  x1:0xffffff96 x13:0x80009fc5 x19=0x80009f84
       53435000	      5342	80001394	2fa10023	sb	x26,736(x2)	  x2:0x8000843b x26:0x00000004 PA:0x8000871b
       53445000	      5343	80001398	00000013	addi	x0,x0,0	  x0:0x00000000
       53455000	      5344	8000139c	405553b3	sra	x7,x10,x5	 x10:0x00000400  x5:0x80009f2c  x7=0x00000000
       53465000	      5345	800013a0	07876f13	ori	x30,x14,120	 x14:0x88ca6a48 x30=0x88ca6a78
       53475000	      5346	800013a4	01e31093	slli	x1,x6,0x1e	  x6:0x00000063  x1=0xc0000000
       53485000	      5347	800013a8	41ad8fb3	sub	x31,x27,x26	 x27:0x00000000 x26:0x00000004 x31=0xfffffffc
       53495000	      5348	800013ac	f3814583	lbu	x11,-200(x2)	  x2:0x8000843b x11=0x000000b5 PA:0x80008373
       53505000	      5349	800013b0	000d40b3	xor	x1,x26,x0	 x26:0x00000004  x0:0x00000000  x1=0x00000004
       53515000	      5350	800013b4	933a4313	xori	x6,x20,-1741	 x20:0x000000c1  x6=0xfffff9f2
       53525000	      5351	800013b8	852d4213	xori	x4,x26,-1966	 x26:0x00000004  x4=0xfffff856
       53535000	      5352	800013bc	01a082b3	add	x5,x1,x26	  x1:0x00000004 x26:0x00000004  x5=0x00000008
       53545000	      5353	800013c0	68002713	slti	x14,x0,1664	  x0:0x00000000 x14=0x00000001
       53555000	      5354	800013c4	00000013	addi	x0,x0,0	  x0:0x00000000
       53565000	      5355	800013c8	00931433	sll	x8,x6,x9	  x6:0xfffff9f2  x9:0xfffffc7f  x8=0x00000000
       53575000	      5356	800013cc	02e94063	blt	x18,x14,800013ec	 x18:0x00000000 x14:0x00000001
       53585000	      5357	00000000	00000013	addi	x0,x0,0	  x0:0x00000000
       53595000	      5358	800013e8	00000013	addi	x0,x0,0	  x0:0x00000000
       53605000	      5359	800013ec	01f339b3	sltu	x19,x6,x31	  x6:0xfffff9f2 x31:0xfffffffc x19=0x00000001
       53615000	      5360	800013f0	00def833	and	x16,x29,x13	 x29:0x00004e2f x13:0x80009fc5 x16=0x00000e05
       53625000	      5361	800013f4	40935993	srai	x19,x6,0x9	  x6:0xfffff9f2 x19=0xfffffffc
       53635000	      5362	800013f8	400cd1b3	sra	x3,x25,x0	 x25:0x00000000  x0:0x00000000  x3=0x00000000
       53645000	      5363	800013fc	014cde93	srli	x29,x25,0x14	 x25:0x00000000 x29=0x00000000
       53655000	      5364	80001400	019764b3	or	x9,x14,x25	 x14:0x00000001 x25:0x00000000  x9=0x00000001
       53665000	      5365	80001404	f158ff93	andi	x31,x17,-235	 x17:0x80009f2c x31=0x80009f04
       53675000	      5366	80001408	013104b3	add	x9,x2,x19	  x2:0x8000843b x19:0xfffffffc  x9=0x80008437
       53685000	      5367	8000140c	4156d1b3	sra	x3,x13,x21	 x13:0x80009fc5 x21:0x80009f2c  x3=0xfff80009
       53695000	      5368	80001410	00a9e333	or	x6,x19,x10	 x19:0xfffffffc x10:0x00000400  x6=0xfffffffc
       53705000	      5369	80001414	00bb7663	bgeu	x22,x11,80001420	 x22:0xff00011b x11:0x000000b5
       53715000	      5370	00000000	00000013	addi	x0,x0,0	  x0:0x00000000
       53725000	      5371	8000141c	00000013	addi	x0,x0,0	  x0:0x00000000
       53735000	      5372	80001420	014b3a33	sltu	x20,x22,x20	 x22:0xff00011b x20:0x000000c1 x20=0x00000000
       53745000	      5373	80001424	76233813	sltiu	x16,x6,1890	  x6:0xfffffffc x16=0x00000000
       53755000	      5374	80001428	500e6b13	ori	x22,x28,1280	 x28:0x00000000 x22=0x00000500
       53765000	      5375	8000142c	019e6833	or	x16,x28,x25	 x28:0x00000000 x25:0x00000000 x16=0x00000000
       53775000	      5376	80001430	03d25863	bge	x4,x29,80001460	  x4:0xfffff856 x29:0x00000000
       53785000	      5377	80001434	00000013	addi	x0,x0,0	  x0:0x00000000
       53795000	      5378	80001438	e890f713	andi	x14,x1,-375	  x1:0x00000004 x14=0x00000000
       53805000	      5379	8000143c	04761263	bne	x12,x7,80001480	 x12:0xffffffcb  x7:0x00000000
       53815000	      5380	00000000	00000013	addi	x0,x0,0	  x0:0x00000000
       53825000	      5381	8000147c	00000013	addi	x0,x0,0	  x0:0x00000000
       53835000	      5382	80001480	d10ef093	andi	x1,x29,-752	 x29:0x00000000  x1=0x00000000
       53845000	      5383	80001484	016ba833	slt	x16,x23,x22	 x23:0x88245000 x22:0x00000500 x16=0x00000001
       53855000	      5384	80001488	00357cb3	and	x25,x10,x3	 x10:0x00000400  x3:0xfff80009 x25=0x00000000
       53865000	      5385	8000148c	823cba93	sltiu	x21,x25,-2013	 x25:0x00000000 x21=0x00000001
       53875000	      5386	80001490	00b3b533	sltu	x10,x7,x11	  x7:0x00000000 x11:0x000000b5 x10=0x00000001
       53885000	      5387	80001494	010e6463	bltu	x28,x16,8000149c	 x28:0x00000000 x16:0x00000001
       53895000	      5388	00000000	00000013	addi	x0,x0,0	  x0:0x00000000
       53905000	      5389	80001498	00000013	addi	x0,x0,0	  x0:0x00000000
       53915000	      5390	8000149c	3d0e3f13	sltiu	x30,x28,976	 x28:0x00000000 x30=0x00000001
       53925000	      5391	800014a0	16998293	addi	x5,x19,361	 x19:0xfffffffc  x5=0x00000165
       53935000	      5392	800014a4	001eea63	bltu	x29,x1,800014b8	 x29:0x00000000  x1:0x00000000
       53945000	      5393	800014a8	0270c663	blt	x1,x7,800014d4	  x1:0x00000000  x7:0x00000000
       53955000	      5394	800014ac	02755c63	bge	x10,x7,800014e4	 x10:0x00000001  x7:0x00000000
       53965000	      5395	00000000	00000013	addi	x0,x0,0	  x0:0x00000000
       53975000	      5396	800014e0	00000013	addi	x0,x0,0	  x0:0x00000000
       53985000	      5397	800014e4	c022da37	lui	x20,0xc022d	 x20=0xc022d000
       53995000	      5398	800014e8	41a9df93	srai	x31,x19,0x1a	 x19:0xfffffffc x31=0xffffffff
       54005000	      5399	800014ec	0405c863	blt	x11,x0,8000153c	 x11:0x000000b5  x0:0x00000000
       54015000	      5400	800014f0	00a00bb3	add	x23,x0,x10	  x0:0x00000000 x10:0x00000001 x23=0x00000001
       54025000	      5401	800014f4	022fe863	bltu	x31,x2,80001524	 x31:0xffffffff  x2:0x8000843b
       54035000	      5402	800014f8	9d094f13	xori	x30,x18,-1584	 x18:0x00000000 x30=0xfffff9d0
       54045000	      5403	800014fc	c078c117	auipc	x2,0xc078c	  x2=0x4078d4f8
       54055000	      5404	80001500	03827c63	bgeu	x4,x24,80001538	  x4:0xfffff856 x24:0x8e9fc304
       54065000	      5405	00000000	00000013	addi	x0,x0,0	  x0:0x00000000
       54075000	      5406	80001534	00000013	addi	x0,x0,0	  x0:0x00000000
       54085000	      5407	80001538	9ac66293	ori	x5,x12,-1620	 x12:0xffffffcb  x5=0xffffffef
       54095000	      5408	8000153c	00000013	addi	x0,x0,0	  x0:0x00000000
       54105000	      5409	80001540	c8148113	addi	x2,x9,-895	  x9:0x80008437  x2=0x800080b8
       54115000	      5410	80001544	01780033	add	x0,x16,x23	 x16:0x00000001 x23:0x00000001
       54125000	      5411	80001548	006dbeb3	sltu	x29,x27,x6	 x27:0x00000000  x6:0xfffffffc x29=0x00000001
       54135000	      5412	8000154c	011a2c33	slt	x24,x20,x17	 x20:0xc022d000 x17:0x80009f2c x24=0x00000000
       54145000	      5413	80001550	01100833	add	x16,x0,x17	  x0:0x00000000 x17:0x80009f2c x16=0x80009f2c
       54155000	      5414	80001554	00abaab3	slt	x21,x23,x10	 x23:0x00000001 x10:0x00000001 x21=0x00000000
       54165000	      5415	80001558	012d1eb3	sll	x29,x26,x18	 x26:0x00000004 x18:0x00000000 x29=0x00000004
       54175000	      5416	8000155c	0370e063	bltu	x1,x23,8000157c	  x1:0x00000000 x23:0x00000001
       54185000	      5417	00000000	00000013	addi	x0,x0,0	  x0:0x00000000
       54195000	      5418	80001578	00000013	addi	x0,x0,0	  x0:0x00000000
       54205000	      5419	8000157c	0006fdb3	and	x27,x13,x0	 x13:0x80009fc5  x0:0x00000000 x27=0x00000000
       54215000	      5420	80001580	01751c13	slli	x24,x10,0x17	 x10:0x00000001 x24=0x00800000
       54225000	      5421	80001584	032cf463	bgeu	x25,x18,800015ac	 x25:0x00000000 x18:0x00000000
       54235000	      5422	00000000	00000013	addi	x0,x0,0	  x0:0x00000000
       54245000	      5423	800015a8	00000013	addi	x0,x0,0	  x0:0x00000000
       54255000	      5424	800015ac	005d36b3	sltu	x13,x26,x5	 x26:0x00000004  x5:0xffffffef x13=0x00000001
       54265000	      5425	800015b0	01376863	bltu	x14,x19,800015c0	 x14:0x00000000 x19:0xfffffffc
       54275000	      5426	00000000	00000013	addi	x0,x0,0	  x0:0x00000000
       54285000	      5427	800015bc	00000013	addi	x0,x0,0	  x0:0x00000000
       54295000	      5428	800015c0	0216e863	bltu	x13,x1,800015f0	 x13:0x00000001  x1:0x00000000
       54305000	      5429	800015c4	19516413	ori	x8,x2,405	  x2:0x800080b8  x8=0x800081bd
       54315000	      5430	800015c8	01afbeb3	sltu	x29,x31,x26	 x31:0xffffffff x26:0x00000004 x29=0x00000000
       54325000	      5431	800015cc	013e5cb3	srl	x25,x28,x19	 x28:0x00000000 x19:0xfffffffc x25=0x00000000
       54335000	      5432	800015d0	00fb56b3	srl	x13,x22,x15	 x22:0x00000500 x15:0x80009fc4 x13=0x00000050
       54345000	      5433	800015d4	9a9a7a93	andi	x21,x20,-1623	 x20:0xc022d000 x21=0xc022d000
       54355000	      5434	800015d8	0152deb3	srl	x29,x5,x21	  x5:0xffffffef x21:0xc022d000 x29=0xffffffef
       54365000	      5435	800015dc	4044d833	sra	x16,x9,x4	  x9:0x80008437  x4:0xfffff856 x16=0xfffffe00
       54375000	      5436	800015e0	0962c193	xori	x3,x5,150	  x5:0xffffffef  x3=0xffffff79
       54385000	      5437	800015e4	ce0c3a93	sltiu	x21,x24,-800	 x24:0x00800000 x21=0x00000001
       54395000	      5438	800015e8	00000013	addi	x0,x0,0	  x0:0x00000000
       54405000	      5439	800015ec	91da4537	lui	x10,0x91da4	 x10=0x91da4000
       54415000	      5440	800015f0	01e8f463	bgeu	x17,x30,800015f8	 x17:0x80009f2c x30:0xfffff9d0
       54425000	      5441	800015f4	004476b3	and	x13,x8,x4	  x8:0x800081bd  x4:0xfffff856 x13=0x80008014
       54435000	      5442	800015f8	33b63e93	sltiu	x29,x12,827	 x12:0xffffffcb x29=0x00000000
       54445000	      5443	800015fc	01899213	slli	x4,x19,0x18	 x19:0xfffffffc  x4=0xfc000000
       54455000	      5444	80001600	00059613	slli	x12,x11,0x0	 x11:0x000000b5 x12=0x000000b5
       54465000	      5445	80001604	005b75b3	and	x11,x22,x5	 x22:0x00000500  x5:0xffffffef x11=0x00000500
       54475000	      5446	80001608	04d7f463	bgeu	x15,x13,80001650	 x15:0x80009fc4 x13:0x80008014
       54485000	      5447	00000000	00000013	addi	x0,x0,0	  x0:0x00000000
       54495000	      5448	8000164c	00000013	addi	x0,x0,0	  x0:0x00000000
       54505000	      5449	80001650	404383b3	sub	x7,x7,x4	  x7:0x00000000  x4:0xfc000000  x7=0x04000000
       54515000	      5450	80001654	00ce8033	add	x0,x29,x12	 x29:0x00000000 x12:0x000000b5
       54525000	      5451	80001658	00b8aa33	slt	x20,x17,x11	 x17:0x80009f2c x11:0x00000500 x20=0x00000001
       54535000	      5452	8000165c	4065d013	srai	x0,x11,0x6	 x11:0x00000500
       54545000	      5453	80001660	42a44017	auipc	x0,0x42a44	
       54555000	      5454	80001664	ada6a393	slti	x7,x13,-1318	 x13:0x80008014  x7=0x00000001
       54565000	      5455	80001668	8ea90b93	addi	x23,x18,-1814	 x18:0x00000000 x23=0xfffff8ea
       54575000	      5456	8000166c	0c1fac13	slti	x24,x31,193	 x31:0xffffffff x24=0x00000001
       54585000	      5457	80001670	015d1ab3	sll	x21,x26,x21	 x26:0x00000004 x21:0x00000001 x21=0x00000008
       54595000	      5458	80001674	40480ab3	sub	x21,x16,x4	 x16:0xfffffe00  x4:0xfc000000 x21=0x03fffe00
       54605000	      5459	80001678	00580593	addi	x11,x16,5	 x16:0xfffffe00 x11=0xfffffe05
       54615000	      5460	8000167c	40a85eb3	sra	x29,x16,x10	 x16:0xfffffe00 x10:0x91da4000 x29=0xfffffe00
       54625000	      5461	80001680	00e40663	beq	x8,x14,8000168c	  x8:0x800081bd x14:0x00000000
       54635000	      5462	80001684	1925c913	xori	x18,x11,402	 x11:0xfffffe05 x18=0xffffff97
       54645000	      5463	80001688	412b0833	sub	x16,x22,x18	 x22:0x00000500 x18:0xffffff97 x16=0x00000569
       54655000	      5464	8000168c	3d2d8d93	addi	x27,x27,978	 x27:0x00000000 x27=0x000003d2
       54665000	      5465	80001690	03949e63	bne	x9,x25,800016cc	  x9:0x80008437 x25:0x00000000
       54675000	      5466	00000000	00000013	addi	x0,x0,0	  x0:0x00000000
       54685000	      5467	800016c8	00000013	addi	x0,x0,0	  x0:0x00000000
       54695000	      5468	800016cc	01bd5b13	srli	x22,x26,0x1b	 x26:0x00000004 x22=0x00000000
       54705000	      5469	800016d0	77a60b13	addi	x22,x12,1914	 x12:0x000000b5 x22=0x0000082f
       54715000	      5470	800016d4	00000013	addi	x0,x0,0	  x0:0x00000000
       54725000	      5471	800016d8	00e52eb3	slt	x29,x10,x14	 x10:0x91da4000 x14:0x00000000 x29=0x00000001
       54735000	      5472	800016dc	01c28133	add	x2,x5,x28	  x5:0xffffffef x28:0x00000000  x2=0xffffffef
       54745000	      5473	800016e0	403fd9b3	sra	x19,x31,x3	 x31:0xffffffff  x3:0xffffff79 x19=0xffffffff
       54755000	      5474	800016e4	026a7e63	bgeu	x20,x6,80001720	 x20:0x00000001  x6:0xfffffffc
       54765000	      5475	800016e8	03449e63	bne	x9,x20,80001724	  x9:0x80008437 x20:0x00000001
       54775000	      5476	00000000	00000013	addi	x0,x0,0	  x0:0x00000000
       54785000	      5477	80001720	00000013	addi	x0,x0,0	  x0:0x00000000
       54795000	      5478	80001724	00c5a533	slt	x10,x11,x12	 x11:0xfffffe05 x12:0x000000b5 x10=0x00000001
       54805000	      5479	80001728	0463d863	bge	x7,x6,80001778	  x7:0x00000001  x6:0xfffffffc
       54815000	      5480	00000000	00000013	addi	x0,x0,0	  x0:0x00000000
       54825000	      5481	80001774	00000013	addi	x0,x0,0	  x0:0x00000000
       54835000	      5482	80001778	01cb96b3	sll	x13,x23,x28	 x23:0xfffff8ea x28:0x00000000 x13=0xfffff8ea
       54845000	      5483	8000177c	9c9b1637	lui	x12,0x9c9b1	 x12=0x9c9b1000
       54855000	      5484	80001780	00007f97	auipc	x31,0x7	 x31=0x8000877c
       54865000	      5485	80001784	49af8f93	addi	x31,x31,1178	 x31:0x8000877c x31=0x80008c16
       54875000	      5486	80001788	010484b3	add	x9,x9,x16	  x9:0x80008437 x16:0x00000569  x9=0x800089a0
       54885000	      5487	8000178c	d6afd603	lhu	x12,-662(x31)	 x31:0x80008c16 x12=0x0000b9c0 PA:0x80008980
       54895000	      5488	80001790	dbe50d93	addi	x27,x10,-578	 x10:0x00000001 x27=0xfffffdbf
       54905000	      5489	80001794	40c2dc13	srai	x24,x5,0xc	  x5:0xffffffef x24=0xffffffff
       54915000	      5490	80001798	c4cf8603	lb	x12,-948(x31)	 x31:0x80008c16 x12=0xffffffda PA:0x80008862
       54925000	      5491	8000179c	1a1f8323	sb	x1,422(x31)	 x31:0x80008c16  x1:0x00000000 PA:0x80008dbc
       54935000	      5492	800017a0	c7df8303	lb	x6,-899(x31)	 x31:0x80008c16  x6=0x00000015 PA:0x80008893
       54945000	      5493	800017a4	041f8083	lb	x1,65(x31)	 x31:0x80008c16  x1=0x0000005c PA:0x80008c57
       54955000	      5494	800017a8	015e1b33	sll	x22,x28,x21	 x28:0x00000000 x21:0x03fffe00 x22=0x00000000
       54965000	      5495	800017ac	e44f9083	lh	x1,-444(x31)	 x31:0x80008c16  x1=0xffffa35c PA:0x80008a5a
       54975000	      5496	800017b0	01883a33	sltu	x20,x16,x24	 x16:0x00000569 x24:0xffffffff x20=0x00000001
       54985000	      5497	800017b4	01e41e13	slli	x28,x8,0x1e	  x8:0x800081bd x28=0x40000000
       54995000	      5498	800017b8	412a0133	sub	x2,x20,x18	 x20:0x00000001 x18:0xffffff97  x2=0x0000006a
       55005000	      5499	800017bc	01bd7b33	and	x22,x26,x27	 x26:0x00000004 x27:0xfffffdbf x22=0x00000004
       55015000	      5500	800017c0	cc2f9c83	lh	x25,-830(x31)	 x31:0x80008c16 x25=0x00004b25 PA:0x800088d8
       55025000	      5501	800017c4	0bff9b23	sh	x31,182(x31)	 x31:0x80008c16 x31:0x80008c16 PA:0x80008ccc
       55035000	      5502	800017c8	f0bfca03	lbu	x20,-245(x31)	 x31:0x80008c16 x20=0x00000069 PA:0x80008b21
       55045000	      5503	800017cc	11cf8ba3	sb	x28,279(x31)	 x31:0x80008c16 x28:0x40000000 PA:0x80008d2d
       55055000	      5504	800017d0	01ef3633	sltu	x12,x30,x30	 x30:0xfffff9d0 x30:0xfffff9d0 x12=0x00000000
       55065000	      5505	800017d4	1f0fc303	lbu	x6,496(x31)	 x31:0x80008c16  x6=0x00000037 PA:0x80008e06
       55075000	      5506	800017d8	41b90db3	sub	x27,x18,x27	 x18:0xffffff97 x27:0xfffffdbf x27=0x000001d8
       55085000	      5507	800017dc	01436bb3	or	x23,x6,x20	  x6:0x00000037 x20:0x00000069 x23=0x0000007f
       55095000	      5508	800017e0	00000013	addi	x0,x0,0	  x0:0x00000000
       55105000	      5509	800017e4	df2fc183	lbu	x3,-526(x31)	 x31:0x80008c16  x3=0x000000ec PA:0x80008a08
       55115000	      5510	00000000	00000013	addi	x0,x0,0	  x0:0x00000000
       55125000	      5511	800017e8	e43f8003	lb	x0,-445(x31)	 x31:0x80008c16 PA:0x80008a59
       55135000	      5512	800017ec	110f8023	sb	x16,256(x31)	 x31:0x80008c16 x16:0x00000569 PA:0x80008d16
       55145000	      5513	800017f0	346f8283	lb	x5,838(x31)	 x31:0x80008c16  x5=0xffffffd8 PA:0x80008f5c
       55155000	      5514	800017f4	184f9c23	sh	x4,408(x31)	 x31:0x80008c16  x4:0xfc000000 PA:0x80008dae
       55165000	      5515	800017f8	f39c0813	addi	x16,x24,-199	 x24:0xffffffff x16=0xffffff38
       55175000	      5516	800017fc	4126de33	sra	x28,x13,x18	 x13:0xfffff8ea x18:0xffffff97 x28=0xffffffff
       55185000	      5517	80001800	930d4f13	xori	x30,x26,-1744	 x26:0x00000004 x30=0xfffff934
       55195000	      5518	80001804	098f8683	lb	x13,152(x31)	 x31:0x80008c16 x13=0xffffffe7 PA:0x80008cae
       55205000	      5519	80001808	979a7693	andi	x13,x20,-1671	 x20:0x00000069 x13=0x00000069
       55215000	      5520	8000180c	ddaf9303	lh	x6,-550(x31)	 x31:0x80008c16  x6=0xffffc84a PA:0x800089f0
       55225000	      5521	80001810	ec7fca83	lbu	x21,-313(x31)	 x31:0x80008c16 x21=0x000000ad PA:0x80008add
       55235000	      5522	80001814	01088a33	add	x20,x17,x16	 x17:0x80009f2c x16:0xffffff38 x20=0x80009e64
       55245000	      5523	80001818	359fc003	lbu	x0,857(x31)	 x31:0x80008c16 PA:0x80008f6f
       55255000	      5524	8000181c	dc5f8b23	sb	x5,-554(x31)	 x31:0x80008c16  x5:0xffffffd8 PA:0x800089ec
       55265000	      5525	80001820	412fd393	srai	x7,x31,0x12	 x31:0x80008c16  x7=0xffffe000
       55275000	      5526	80001824	dcafa923	sw	x10,-558(x31)	 x31:0x80008c16 x10:0x00000001 PA:0x800089e8
       55285000	      5527	80001828	2a5f8da3	sb	x5,699(x31)	 x31:0x80008c16  x5:0xffffffd8 PA:0x80008ed1
       55295000	      5528	8000182c	e01fc503	lbu	x10,-511(x31)	 x31:0x80008c16 x10=0x00000020 PA:0x80008a17
       55305000	      5529	80001830	e373e393	ori	x7,x7,-457	  x7:0xffffe000  x7=0xfffffe37
       55315000	      5530	80001834	05408593	addi	x11,x1,84	  x1:0xffffa35c x11=0xffffa3b0
       55325000	      5531	80001838	2d7fc483	lbu	x9,727(x31)	 x31:0x80008c16  x9=0x00000000 PA:0x80008eed
       55335000	      5532	8000183c	041f8283	lb	x5,65(x31)	 x31:0x80008c16  x5=0x0000005c PA:0x80008c57
       55345000	      5533	80001840	f39f89a3	sb	x25,-205(x31)	 x31:0x80008c16 x25:0x00004b25 PA:0x80008b49
       55355000	      5534	80001844	018f9683	lh	x13,24(x31)	 x31:0x80008c16 x13=0xffffad32 PA:0x80008c2e
       55365000	      5535	80001848	fd9fc803	lbu	x16,-39(x31)	 x31:0x80008c16 x16=0x00000048 PA:0x80008bef
       55375000	      5536	8000184c	db6fd403	lhu	x8,-586(x31)	 x31:0x80008c16  x8=0x00006273 PA:0x800089cc
       55385000	      5537	80001850	001bda63	bge	x23,x1,80001864	 x23:0x0000007f  x1:0xffffa35c
       55395000	      5538	00000000	00000013	addi	x0,x0,0	  x0:0x00000000
       55405000	      5539	80001860	00000013	addi	x0,x0,0	  x0:0x00000000
       55415000	      5540	80001864	01074533	xor	x10,x14,x16	 x14:0x00000000 x16:0x00000048 x10=0x00000048
       55425000	      5541	80001868	006da3b3	slt	x7,x27,x6	 x27:0x000001d8  x6:0xffffc84a  x7=0x00000000
       55435000	      5542	8000186c	400a7b93	andi	x23,x20,1024	 x20:0x80009e64 x23=0x00000400
       55445000	      5543	80001870	0171a233	slt	x4,x3,x23	  x3:0x000000ec x23:0x00000400  x4=0x00000001
       55455000	      5544	80001874	00195133	srl	x2,x18,x1	 x18:0xffffff97  x1:0xffffa35c  x2=0x0000000f
       55465000	      5545	80001878	03d65e63	bge	x12,x29,800018b4	 x12:0x00000000 x29:0x00000001
       55475000	      5546	8000187c	9e4b0093	addi	x1,x22,-1564	 x22:0x00000004  x1=0xfffff9e8
       55485000	      5547	80001880	00c13db3	sltu	x27,x2,x12	  x2:0x0000000f x12:0x00000000 x27=0x00000000
       55495000	      5548	80001884	41820e33	sub	x28,x4,x24	  x4:0x00000001 x24:0xffffffff x28=0x00000002
       55505000	      5549	80001888	01c89e93	slli	x29,x17,0x1c	 x17:0x80009f2c x29=0xc0000000
       55515000	      5550	8000188c	008f0c33	add	x24,x30,x8	 x30:0xfffff934  x8:0x00006273 x24=0x00005ba7
       55525000	      5551	80001890	0056d293	srli	x5,x13,0x5	 x13:0xffffad32  x5=0x07fffd69
       55535000	      5552	80001894	01b7e4b3	or	x9,x15,x27	 x15:0x80009fc4 x27:0x00000000  x9=0x80009fc4
       55545000	      5553	80001898	022f8463	beq	x31,x2,800018c0	 x31:0x80008c16  x2:0x0000000f
       55555000	      5554	8000189c	01790933	add	x18,x18,x23	 x18:0xffffff97 x23:0x00000400 x18=0x00000397
       55565000	      5555	800018a0	41495b13	srai	x22,x18,0x14	 x18:0x00000397 x22=0x00000000
       55575000	      5556	800018a4	4802c497	auipc	x9,0x4802c	  x9=0xc802d8a0
       55585000	      5557	800018a8	013b93b3	sll	x7,x23,x19	 x23:0x00000400 x19:0xffffffff  x7=0x00000000
       55595000	      5558	800018ac	00dfd663	bge	x31,x13,800018b8	 x31:0x80008c16 x13:0xffffad32
       55605000	      5559	800018b0	1076c413	xori	x8,x13,263	 x13:0xffffad32  x8=0xffffac35
       55615000	      5560	800018b4	54106493	ori	x9,x0,1345	  x0:0x00000000  x9=0x00000541
       55625000	      5561	800018b8	0c4d0993	addi	x19,x26,196	 x26:0x00000004 x19=0x000000c8
       55635000	      5562	800018bc	9a11a193	slti	x3,x3,-1631	  x3:0x000000ec  x3=0x00000000
       55645000	      5563	800018c0	48e1da97	auipc	x21,0x48e1d	 x21=0xc8e1e8bc
       55655000	      5564	800018c4	011d1b13	slli	x22,x26,0x11	 x26:0x00000004 x22=0x00080000
       55665000	      5565	800018c8	02fa5463	bge	x20,x15,800018f0	 x20:0x80009e64 x15:0x80009fc4
       55675000	      5566	800018cc	01711413	slli	x8,x2,0x17	  x2:0x0000000f  x8=0x07800000
       55685000	      5567	800018d0	039d0c63	beq	x26,x25,80001908	 x26:0x00000004 x25:0x00004b25
       55695000	      5568	800018d4	5cc1a293	slti	x5,x3,1484	  x3:0x00000000  x5=0x00000001
       55705000	      5569	800018d8	01ebf863	bgeu	x23,x30,800018e8	 x23:0x00000400 x30:0xfffff934
       55715000	      5570	800018dc	f6646a97	auipc	x21,0xf6646	 x21=0x766478d8
       55725000	      5571	800018e0	024d9463	bne	x27,x4,80001908	 x27:0x00000000  x4:0x00000001
       55735000	      5572	00000000	00000013	addi	x0,x0,0	  x0:0x00000000
       55745000	      5573	80001904	00000013	addi	x0,x0,0	  x0:0x00000000
       55755000	      5574	80001908	40075a33	sra	x20,x14,x0	 x14:0x00000000  x0:0x00000000 x20=0x00000000
       55765000	      5575	8000190c	0005ecb3	or	x25,x11,x0	 x11:0xffffa3b0  x0:0x00000000 x25=0xffffa3b0
       55775000	      5576	80001910	84057a97	auipc	x21,0x84057	 x21=0x0405890c
       55785000	      5577	80001914	408a0fb3	sub	x31,x20,x8	 x20:0x00000000  x8:0x07800000 x31=0xf8800000
       55795000	      5578	80001918	40745e93	srai	x29,x8,0x7	  x8:0x07800000 x29=0x000f0000
       55805000	      5579	8000191c	40855993	srai	x19,x10,0x8	 x10:0x00000048 x19=0x00000000
       55815000	      5580	80001920	003ef263	bgeu	x29,x3,80001924	 x29:0x000f0000  x3:0x00000000
       55825000	      5581	00000000	00000013	addi	x0,x0,0	  x0:0x00000000
       55835000	      5582	80001920	00000013	addi	x0,x0,0	  x0:0x00000000
       55845000	      5583	80001924	4165da93	srai	x21,x11,0x16	 x11:0xffffa3b0 x21=0xffffffff
       55855000	      5584	80001928	01a3e2b3	or	x5,x7,x26	  x7:0x00000000 x26:0x00000004  x5=0x00000004
       55865000	      5585	8000192c	2d51c293	xori	x5,x3,725	  x3:0x00000000  x5=0x000002d5
       55875000	      5586	80001930	408a8a33	sub	x20,x21,x8	 x21:0xffffffff  x8:0x07800000 x20=0xf87fffff
       55885000	      5587	80001934	19c201b7	lui	x3,0x19c20	  x3=0x19c20000
       55895000	      5588	80001938	00307033	and	x0,x0,x3	  x0:0x00000000  x3:0x19c20000
       55905000	      5589	8000193c	01594eb3	xor	x29,x18,x21	 x18:0x00000397 x21:0xffffffff x29=0xfffffc68
       55915000	      5590	80001940	019aa0b3	slt	x1,x21,x25	 x21:0xffffffff x25:0xffffa3b0  x1=0x00000000
       55925000	      5591	80001944	d2fb5717	auipc	x14,0xd2fb5	 x14=0x52fb6940
       55935000	      5592	80001948	00f6b333	sltu	x6,x13,x15	 x13:0xffffad32 x15:0x80009fc4  x6=0x00000000
       55945000	      5593	8000194c	048e8263	beq	x29,x8,80001990	 x29:0xfffffc68  x8:0x07800000
       55955000	      5594	80001950	018b5593	srli	x11,x22,0x18	 x22:0x00080000 x11=0x00000000
       55965000	      5595	80001954	00cf1b13	slli	x22,x30,0xc	 x30:0xfffff934 x22=0xff934000
       55975000	      5596	80001958	000edf93	srli	x31,x29,0x0	 x29:0xfffffc68 x31=0xfffffc68
       55985000	      5597	8000195c	bec08137	lui	x2,0xbec08	  x2=0xbec08000
       55995000	      5598	80001960	000a8fb3	add	x31,x21,x0	 x21:0xffffffff  x0:0x00000000 x31=0xffffffff
       56005000	      5599	80001964	01256033	or	x0,x10,x18	 x10:0x00000048 x18:0x00000397
       56015000	      5600	80001968	01c40fb3	add	x31,x8,x28	  x8:0x07800000 x28:0x00000002 x31=0x07800002
       56025000	      5601	8000196c	02c98063	beq	x19,x12,8000198c	 x19:0x00000000 x12:0x00000000
       56035000	      5602	00000000	00000013	addi	x0,x0,0	  x0:0x00000000
       56045000	      5603	80001988	00000013	addi	x0,x0,0	  x0:0x00000000
       56055000	      5604	8000198c	01cadeb3	srl	x29,x21,x28	 x21:0xffffffff x28:0x00000002 x29=0x3fffffff
       56065000	      5605	80001990	003ac2b3	xor	x5,x21,x3	 x21:0xffffffff  x3:0x19c20000  x5=0xe63dffff
       56075000	      5606	80001994	01df5f33	srl	x30,x30,x29	 x30:0xfffff934 x29:0x3fffffff x30=0x00000001
       56085000	      5607	80001998	02f1f063	bgeu	x3,x15,800019b8	  x3:0x19c20000 x15:0x80009fc4
       56095000	      5608	8000199c	00abb433	sltu	x8,x23,x10	 x23:0x00000400 x10:0x00000048  x8=0x00000000
       56105000	      5609	800019a0	00506c33	or	x24,x0,x5	  x0:0x00000000  x5:0xe63dffff x24=0xe63dffff
       56115000	      5610	800019a4	008ddbb3	srl	x23,x27,x8	 x27:0x00000000  x8:0x00000000 x23=0x00000000
       56125000	      5611	800019a8	ab69cb13	xori	x22,x19,-1354	 x19:0x00000000 x22=0xfffffab6
       56135000	      5612	800019ac	41060eb3	sub	x29,x12,x16	 x12:0x00000000 x16:0x00000048 x29=0xffffffb8
       56145000	      5613	800019b0	02b261b7	lui	x3,0x2b26	  x3=0x02b26000
       56155000	      5614	800019b4	02a70663	beq	x14,x10,800019e0	 x14:0x52fb6940 x10:0x00000048
       56165000	      5615	800019b8	013093b3	sll	x7,x1,x19	  x1:0x00000000 x19:0x00000000  x7=0x00000000
       56175000	      5616	800019bc	01d65413	srli	x8,x12,0x1d	 x12:0x00000000  x8=0x00000000
       56185000	      5617	800019c0	00b6d713	srli	x14,x13,0xb	 x13:0xffffad32 x14=0x001ffff5
       56195000	      5618	800019c4	4065d6b3	sra	x13,x11,x6	 x11:0x00000000  x6:0x00000000 x13=0x00000000
       56205000	      5619	800019c8	a40d8917	auipc	x18,0xa40d8	 x18=0x240d99c4
       56215000	      5620	800019cc	004061b3	or	x3,x0,x4	  x0:0x00000000  x4:0x00000001  x3=0x00000001
       56225000	      5621	800019d0	01df7463	bgeu	x30,x29,800019d8	 x30:0x00000001 x29:0xffffffb8
       56235000	      5622	800019d4	01491463	bne	x18,x20,800019dc	 x18:0x240d99c4 x20:0xf87fffff
       56245000	      5623	00000000	00000013	addi	x0,x0,0	  x0:0x00000000
       56255000	      5624	800019d8	00000013	addi	x0,x0,0	  x0:0x00000000
       56265000	      5625	800019dc	4100df33	sra	x30,x1,x16	  x1:0x00000000 x16:0x00000048 x30=0x00000000
       56275000	      5626	800019e0	01c98533	add	x10,x19,x28	 x19:0x00000000 x28:0x00000002 x10=0x00000002
       56285000	      5627	800019e4	0181d613	srli	x12,x3,0x18	  x3:0x00000001 x12=0x00000000
       56295000	      5628	800019e8	66ceb693	sltiu	x13,x29,1644	 x29:0xffffffb8 x13=0x00000000
       56305000	      5629	800019ec	f86b8213	addi	x4,x23,-122	 x23:0x00000000  x4=0xffffff86
       56315000	      5630	800019f0	011e5f93	srli	x31,x28,0x11	 x28:0x00000002 x31=0x00000000
       56325000	      5631	800019f4	036df863	bgeu	x27,x22,80001a24	 x27:0x00000000 x22:0xfffffab6
       56335000	      5632	800019f8	00000013	addi	x0,x0,0	  x0:0x00000000
       56345000	      5633	800019fc	021a0663	beq	x20,x1,80001a28	 x20:0xf87fffff  x1:0x00000000
       56355000	      5634	80001a00	018c2333	slt	x6,x24,x24	 x24:0xe63dffff x24:0xe63dffff  x6=0x00000000
       56365000	      5635	80001a04	032ad063	bge	x21,x18,80001a24	 x21:0xffffffff x18:0x240d99c4
       56375000	      5636	80001a08	02229463	bne	x5,x2,80001a30	  x5:0xe63dffff  x2:0xbec08000
       56385000	      5637	00000000	00000013	addi	x0,x0,0	  x0:0x00000000
       56395000	      5638	80001a2c	00000013	addi	x0,x0,0	  x0:0x00000000
       56405000	      5639	80001a30	01dc9d93	slli	x27,x25,0x1d	 x25:0xffffa3b0 x27=0x00000000
       56415000	      5640	80001a34	01b65cb3	srl	x25,x12,x27	 x12:0x00000000 x27:0x00000000 x25=0x00000000
       56425000	      5641	80001a38	00d70cb3	add	x25,x14,x13	 x14:0x001ffff5 x13:0x00000000 x25=0x001ffff5
       56435000	      5642	80001a3c	2cefaf93	slti	x31,x31,718	 x31:0x00000000 x31=0x00000001
       56445000	      5643	80001a40	01867c33	and	x24,x12,x24	 x12:0x00000000 x24:0xe63dffff x24=0x00000000
       56455000	      5644	80001a44	00a830b3	sltu	x1,x16,x10	 x16:0x00000048 x10:0x00000002  x1=0x00000000
       56465000	      5645	80001a48	c6418713	addi	x14,x3,-924	  x3:0x00000001 x14=0xfffffc65
       56475000	      5646	80001a4c	40275a13	srai	x20,x14,0x2	 x14:0xfffffc65 x20=0xffffff19
       56485000	      5647	80001a50	635c0b93	addi	x23,x24,1589	 x24:0x00000000 x23=0x00000635
       56495000	      5648	80001a54	406f03b3	sub	x7,x30,x6	 x30:0x00000000  x6:0x00000000  x7=0x00000000
       56505000	      5649	80001a58	03c3e663	bltu	x7,x28,80001a84	  x7:0x00000000 x28:0x00000002
       56515000	      5650	00000000	00000013	addi	x0,x0,0	  x0:0x00000000
       56525000	      5651	80001a80	00000013	addi	x0,x0,0	  x0:0x00000000
       56535000	      5652	80001a84	3ce73393	sltiu	x7,x14,974	 x14:0xfffffc65  x7=0x00000000
       56545000	      5653	80001a88	00eac1b3	xor	x3,x21,x14	 x21:0xffffffff x14:0xfffffc65  x3=0x0000039a
       56555000	      5654	80001a8c	00306463	bltu	x0,x3,80001a94	  x0:0x00000000  x3:0x0000039a
       56565000	      5655	00000000	00000013	addi	x0,x0,0	  x0:0x00000000
       56575000	      5656	80001a90	00000013	addi	x0,x0,0	  x0:0x00000000
       56585000	      5657	80001a94	016dbeb3	sltu	x29,x27,x22	 x27:0x00000000 x22:0xfffffab6 x29=0x00000001
       56595000	      5658	80001a98	00a21f33	sll	x30,x4,x10	  x4:0xffffff86 x10:0x00000002 x30=0xfffffe18
       56605000	      5659	80001a9c	90a18b93	addi	x23,x3,-1782	  x3:0x0000039a x23=0xfffffca4
       56615000	      5660	80001aa0	01d1ce33	xor	x28,x3,x29	  x3:0x0000039a x29:0x00000001 x28=0x0000039b
       56625000	      5661	80001aa4	0004a0b3	slt	x1,x9,x0	  x9:0x00000541  x0:0x00000000  x1=0x00000000
       56635000	      5662	80001aa8	a5943913	sltiu	x18,x8,-1447	  x8:0x00000000 x18=0x00000001
       56645000	      5663	80001aac	024c0c63	beq	x24,x4,80001ae4	 x24:0x00000000  x4:0xffffff86
       56655000	      5664	80001ab0	006f4a33	xor	x20,x30,x6	 x30:0xfffffe18  x6:0x00000000 x20=0xfffffe18
       56665000	      5665	80001ab4	001c1413	slli	x8,x24,0x1	 x24:0x00000000  x8=0x00000000
       56675000	      5666	80001ab8	0fba2493	slti	x9,x20,251	 x20:0xfffffe18  x9=0x00000001
       56685000	      5667	80001abc	00f4b633	sltu	x12,x9,x15	  x9:0x00000001 x15:0x80009fc4 x12=0x00000001
       56695000	      5668	80001ac0	0252c863	blt	x5,x5,80001af0	  x5:0xe63dffff  x5:0xe63dffff
       56705000	      5669	80001ac4	015b0663	beq	x22,x21,80001ad0	 x22:0xfffffab6 x21:0xffffffff
       56715000	      5670	80001ac8	02f99663	bne	x19,x15,80001af4	 x19:0x00000000 x15:0x80009fc4
       56725000	      5671	00000000	00000013	addi	x0,x0,0	  x0:0x00000000
       56735000	      5672	80001af0	00000013	addi	x0,x0,0	  x0:0x00000000
       56745000	      5673	80001af4	017c1f33	sll	x30,x24,x23	 x24:0x00000000 x23:0xfffffca4 x30=0x00000000
       56755000	      5674	80001af8	a92e8593	addi	x11,x29,-1390	 x29:0x00000001 x11=0xfffffa93
       56765000	      5675	80001afc	01cc1f93	slli	x31,x24,0x1c	 x24:0x00000000 x31=0x00000000
       56775000	      5676	80001b00	03910263	beq	x2,x25,80001b24	  x2:0xbec08000 x25:0x001ffff5
       56785000	      5677	80001b04	03b46e63	bltu	x8,x27,80001b40	  x8:0x00000000 x27:0x00000000
       56795000	      5678	80001b08	00b76a33	or	x20,x14,x11	 x14:0xfffffc65 x11:0xfffffa93 x20=0xfffffef7
       56805000	      5679	80001b0c	3f638293	addi	x5,x7,1014	  x7:0x00000000  x5=0x000003f6
       56815000	      5680	80001b10	415f52b3	sra	x5,x30,x21	 x30:0x00000000 x21:0xffffffff  x5=0x00000000
       56825000	      5681	80001b14	c78e9517	auipc	x10,0xc78e9	 x10=0x478eab10
       56835000	      5682	80001b18	013fe033	or	x0,x31,x19	 x31:0x00000000 x19:0x00000000
       56845000	      5683	80001b1c	00b54933	xor	x18,x10,x11	 x10:0x478eab10 x11:0xfffffa93 x18=0xb8715183
       56855000	      5684	80001b20	413259b3	sra	x19,x4,x19	  x4:0xffffff86 x19:0x00000000 x19=0xffffff86
       56865000	      5685	80001b24	03eb8063	beq	x23,x30,80001b44	 x23:0xfffffca4 x30:0x00000000
       56875000	      5686	80001b28	01589bb3	sll	x23,x17,x21	 x17:0x80009f2c x21:0xffffffff x23=0x00000000
       56885000	      5687	80001b2c	41ef0233	sub	x4,x30,x30	 x30:0x00000000 x30:0x00000000  x4=0x00000000
       56895000	      5688	80001b30	03db7463	bgeu	x22,x29,80001b58	 x22:0xfffffab6 x29:0x00000001
       56905000	      5689	00000000	00000013	addi	x0,x0,0	  x0:0x00000000
       56915000	      5690	80001b54	00000013	addi	x0,x0,0	  x0:0x00000000
       56925000	      5691	80001b58	4c7faa13	slti	x20,x31,1223	 x31:0x00000000 x20=0x00000001
       56935000	      5692	80001b5c	5d202e13	slti	x28,x0,1490	  x0:0x00000000 x28=0x00000001
       56945000	      5693	80001b60	0002a033	slt	x0,x5,x0	  x5:0x00000000  x0:0x00000000
       56955000	      5694	80001b64	00ac0b33	add	x22,x24,x10	 x24:0x00000000 x10:0x478eab10 x22=0x478eab10
       56965000	      5695	80001b68	509a8c13	addi	x24,x21,1289	 x21:0xffffffff x24=0x00000508
       56975000	      5696	80001b6c	011596b3	sll	x13,x11,x17	 x11:0xfffffa93 x17:0x80009f2c x13=0xffa93000
       56985000	      5697	80001b70	29798813	addi	x16,x19,663	 x19:0xffffff86 x16=0x0000021d
       56995000	      5698	80001b74	00234bb3	xor	x23,x6,x2	  x6:0x00000000  x2:0xbec08000 x23=0xbec08000
       57005000	      5699	80001b78	484e49b7	lui	x19,0x484e4	 x19=0x484e4000
       57015000	      5700	80001b7c	0ebffc93	andi	x25,x31,235	 x31:0x00000000 x25=0x00000000
       57025000	      5701	80001b80	7c8c7e93	andi	x29,x24,1992	 x24:0x00000508 x29=0x00000508
       57035000	      5702	80001b84	44e90413	addi	x8,x18,1102	 x18:0xb8715183  x8=0xb87155d1
       57045000	      5703	80001b88	00221cb3	sll	x25,x4,x2	  x4:0x00000000  x2:0xbec08000 x25=0x00000000
       57055000	      5704	80001b8c	80d08bb7	lui	x23,0x80d08	 x23=0x80d08000
       57065000	      5705	80001b90	000a8a63	beq	x21,x0,80001ba4	 x21:0xffffffff  x0:0x00000000
       57075000	      5706	80001b94	027e9063	bne	x29,x7,80001bb4	 x29:0x00000508  x7:0x00000000
       57085000	      5707	00000000	00000013	addi	x0,x0,0	  x0:0x00000000
       57095000	      5708	80001bb0	00000013	addi	x0,x0,0	  x0:0x00000000
       57105000	      5709	80001bb4	0322c263	blt	x5,x18,80001bd8	  x5:0x00000000 x18:0xb8715183
       57115000	      5710	80001bb8	01499933	sll	x18,x19,x20	 x19:0x484e4000 x20:0x00000001 x18=0x909c8000
       57125000	      5711	80001bbc	400a8133	sub	x2,x21,x0	 x21:0xffffffff  x0:0x00000000  x2=0xffffffff
       57135000	      5712	80001bc0	6dd28717	auipc	x14,0x6dd28	 x14=0xedd29bbc
       57145000	      5713	80001bc4	00d75693	srli	x13,x14,0xd	 x14:0xedd29bbc x13=0x00076e94
       57155000	      5714	80001bc8	01967133	and	x2,x12,x25	 x12:0x00000001 x25:0x00000000  x2=0x00000000
       57165000	      5715	80001bcc	87d80113	addi	x2,x16,-1923	 x16:0x0000021d  x2=0xfffffa9a
       57175000	      5716	80001bd0	00f21ab3	sll	x21,x4,x15	  x4:0x00000000 x15:0x80009fc4 x21=0x00000000
       57185000	      5717	80001bd4	7d183e93	sltiu	x29,x16,2001	 x16:0x0000021d x29=0x00000001
       57195000	      5718	80001bd8	01de6c33	or	x24,x28,x29	 x28:0x00000001 x29:0x00000001 x24=0x00000001
       57205000	      5719	80001bdc	f1b1cc93	xori	x25,x3,-229	  x3:0x0000039a x25=0xfffffc81
       57215000	      5720	80001be0	40b3d613	srai	x12,x7,0xb	  x7:0x00000000 x12=0x00000000
       57225000	      5721	80001be4	0051f5b3	and	x11,x3,x5	  x3:0x0000039a  x5:0x00000000 x11=0x00000000
       57235000	      5722	80001be8	13ca7213	andi	x4,x20,316	 x20:0x00000001  x4=0x00000000
       57245000	      5723	80001bec	228aa593	slti	x11,x21,552	 x21:0x00000000 x11=0x00000001
       57255000	      5724	80001bf0	0f9e0993	addi	x19,x28,249	 x28:0x00000001 x19=0x000000fa
       57265000	      5725	80001bf4	016a62b3	or	x5,x20,x22	 x20:0x00000001 x22:0x478eab10  x5=0x478eab11
       57275000	      5726	80001bf8	00000013	addi	x0,x0,0	  x0:0x00000000
       57285000	      5727	80001bfc	6712d917	auipc	x18,0x6712d	 x18=0xe712ebf8
       57295000	      5728	80001c00	01989233	sll	x4,x17,x25	 x17:0x80009f2c x25:0xfffffc81  x4=0x00013e58
       57305000	      5729	80001c04	00bd0f33	add	x30,x26,x11	 x26:0x00000004 x11:0x00000001 x30=0x00000005
       57315000	      5730	80001c08	1acf7693	andi	x13,x30,428	 x30:0x00000005 x13=0x00000004
       57325000	      5731	80001c0c	ce7fc937	lui	x18,0xce7fc	 x18=0xce7fc000
       57335000	      5732	80001c10	02805063	bge	x0,x8,80001c30	  x0:0x00000000  x8:0xb87155d1
       57345000	      5733	00000000	00000013	addi	x0,x0,0	  x0:0x00000000
       57355000	      5734	80001c2c	00000013	addi	x0,x0,0	  x0:0x00000000
       57365000	      5735	80001c30	028e6e63	bltu	x28,x8,80001c6c	 x28:0x00000001  x8:0xb87155d1
       57375000	      5736	00000000	00000013	addi	x0,x0,0	  x0:0x00000000
       57385000	      5737	80001c68	00000013	addi	x0,x0,0	  x0:0x00000000
       57395000	      5738	80001c6c	037f1063	bne	x30,x23,80001c8c	 x30:0x00000005 x23:0x80d08000
       57405000	      5739	00000000	00000013	addi	x0,x0,0	  x0:0x00000000
       57415000	      5740	80001c88	00000013	addi	x0,x0,0	  x0:0x00000000
       57425000	      5741	80001c8c	0d635263	bge	x6,x22,80001d50	  x6:0x00000000 x22:0x478eab10
       57435000	      5742	80001c90	0d11da63	bge	x3,x17,80001d64	  x3:0x0000039a x17:0x80009f2c
       57445000	      5743	00000000	00000013	addi	x0,x0,0	  x0:0x00000000
       57455000	      5744	80001d60	00000013	addi	x0,x0,0	  x0:0x00000000
       57465000	      5745	80001d64	01419a33	sll	x20,x3,x20	  x3:0x0000039a x20:0x00000001 x20=0x00000734
       57475000	      5746	80001d68	e4becd93	xori	x27,x29,-437	 x29:0x00000001 x27=0xfffffe4a
       57485000	      5747	80001d6c	00471693	slli	x13,x14,0x4	 x14:0xedd29bbc x13=0xdd29bbc0
       57495000	      5748	80001d70	0168bc33	sltu	x24,x17,x22	 x17:0x80009f2c x22:0x478eab10 x24=0x00000000
       57505000	      5749	80001d74	00ad8eb3	add	x29,x27,x10	 x27:0xfffffe4a x10:0x478eab10 x29=0x478ea95a
       57515000	      5750	80001d78	5a620313	addi	x6,x4,1446	  x4:0x00013e58  x6=0x000143fe
       57525000	      5751	80001d7c	005662b3	or	x5,x12,x5	 x12:0x00000000  x5:0x478eab11  x5=0x478eab11
       57535000	      5752	80001d80	014481b3	add	x3,x9,x20	  x9:0x00000001 x20:0x00000734  x3=0x00000735
       57545000	      5753	80001d84	00795db3	srl	x27,x18,x7	 x18:0xce7fc000  x7:0x00000000 x27=0xce7fc000
       57555000	      5754	80001d88	00ef4a63	blt	x30,x14,80001d9c	 x30:0x00000005 x14:0xedd29bbc
       57565000	      5755	80001d8c	01dcacb3	slt	x25,x25,x29	 x25:0xfffffc81 x29:0x478ea95a x25=0x00000001
       57575000	      5756	80001d90	c90e2313	slti	x6,x28,-880	 x28:0x00000001  x6=0x00000000
       57585000	      5757	80001d94	004e4db3	xor	x27,x28,x4	 x28:0x00000001  x4:0x00013e58 x27=0x00013e59
       57595000	      5758	80001d98	713aa693	slti	x13,x21,1811	 x21:0x00000000 x13=0x00000001
       57605000	      5759	80001d9c	007bb6b3	sltu	x13,x23,x7	 x23:0x80d08000  x7:0x00000000 x13=0x00000000
       57615000	      5760	80001da0	00178463	beq	x15,x1,80001da8	 x15:0x80009fc4  x1:0x00000000
       57625000	      5761	80001da4	00f10f33	add	x30,x2,x15	  x2:0xfffffa9a x15:0x80009fc4 x30=0x80009a5e
       57635000	      5762	80001da8	7dab4093	xori	x1,x22,2010	 x22:0x478eab10  x1=0x478eacca
       57645000	      5763	80001dac	b7b18313	addi	x6,x3,-1157	  x3:0x00000735  x6=0x000002b0
       57655000	      5764	80001db0	01c19463	bne	x3,x28,80001db8	  x3:0x00000735 x28:0x00000001
       57665000	      5765	00000000	00000013	addi	x0,x0,0	  x0:0x00000000
       57675000	      5766	80001db4	00000013	addi	x0,x0,0	  x0:0x00000000
       57685000	      5767	80001db8	028c5663	bge	x24,x8,80001de4	 x24:0x00000000  x8:0xb87155d1
       57695000	      5768	00000000	00000013	addi	x0,x0,0	  x0:0x00000000
       57705000	      5769	80001de0	00000013	addi	x0,x0,0	  x0:0x00000000
       57715000	      5770	80001de4	22000297	auipc	x5,0x22000	  x5=0xa2001de0
       57725000	      5771	80001de8	4131d293	srai	x5,x3,0x13	  x3:0x00000735  x5=0x00000000
       57735000	      5772	80001dec	412d5eb3	sra	x29,x26,x18	 x26:0x00000004 x18:0xce7fc000 x29=0x00000004
       57745000	      5773	80001df0	6e44e9b7	lui	x19,0x6e44e	 x19=0x6e44e000
       57755000	      5774	80001df4	00327a33	and	x20,x4,x3	  x4:0x00013e58  x3:0x00000735 x20=0x00000610
       57765000	      5775	80001df8	03e70063	beq	x14,x30,80001e18	 x14:0xedd29bbc x30:0x80009a5e
       57775000	      5776	80001dfc	013fc033	xor	x0,x31,x19	 x31:0x00000000 x19:0x6e44e000
       57785000	      5777	80001e00	02197863	bgeu	x18,x1,80001e30	 x18:0xce7fc000  x1:0x478eacca
       57795000	      5778	00000000	00000013	addi	x0,x0,0	  x0:0x00000000
       57805000	      5779	80001e2c	00000013	addi	x0,x0,0	  x0:0x00000000
       57815000	      5780	80001e30	42313093	sltiu	x1,x2,1059	  x2:0xfffffa9a  x1=0x00000000
       57825000	      5781	80001e34	bab37c93	andi	x25,x6,-1109	  x6:0x000002b0 x25=0x000002a0
       57835000	      5782	80001e38	00031a63	bne	x6,x0,80001e4c	  x6:0x000002b0  x0:0x00000000
       57845000	      5783	00000000	00000013	addi	x0,x0,0	  x0:0x00000000
       57855000	      5784	80001e48	00000013	addi	x0,x0,0	  x0:0x00000000
       57865000	      5785	80001e4c	01933417	auipc	x8,0x1933	  x8=0x81934e48
       57875000	      5786	80001e50	00eb3333	sltu	x6,x22,x14	 x22:0x478eab10 x14:0xedd29bbc  x6=0x00000001
       57885000	      5787	80001e54	014ad713	srli	x14,x21,0x14	 x21:0x00000000 x14=0x00000000
       57895000	      5788	80001e58	9a4ce293	ori	x5,x25,-1628	 x25:0x000002a0  x5=0xfffffba4
       57905000	      5789	80001e5c	00f52b33	slt	x22,x10,x15	 x10:0x478eab10 x15:0x80009fc4 x22=0x00000000
       57915000	      5790	80001e60	007f1f93	slli	x31,x30,0x7	 x30:0x80009a5e x31=0x004d2f00
       57925000	      5791	80001e64	412b5c33	sra	x24,x22,x18	 x22:0x00000000 x18:0xce7fc000 x24=0x00000000
       57935000	      5792	80001e68	036ae463	bltu	x21,x22,80001e90	 x21:0x00000000 x22:0x00000000
       57945000	      5793	80001e6c	00d74463	blt	x14,x13,80001e74	 x14:0x00000000 x13:0x00000000
       57955000	      5794	80001e70	007c7863	bgeu	x24,x7,80001e80	 x24:0x00000000  x7:0x00000000
       57965000	      5795	00000000	00000013	addi	x0,x0,0	  x0:0x00000000
       57975000	      5796	80001e7c	00000013	addi	x0,x0,0	  x0:0x00000000
       57985000	      5797	80001e80	01d69c13	slli	x24,x13,0x1d	 x13:0x00000000 x24=0x00000000
       57995000	      5798	80001e84	00000013	addi	x0,x0,0	  x0:0x00000000
       58005000	      5799	80001e88	00eb69b3	or	x19,x22,x14	 x22:0x00000000 x14:0x00000000 x19=0x00000000
       58015000	      5800	80001e8c	3544be93	sltiu	x29,x9,852	  x9:0x00000001 x29=0x00000001
       58025000	      5801	80001e90	01234533	xor	x10,x6,x18	  x6:0x00000001 x18:0xce7fc000 x10=0xce7fc001
       58035000	      5802	80001e94	00284633	xor	x12,x16,x2	 x16:0x0000021d  x2:0xfffffa9a x12=0xfffff887
       58045000	      5803	80001e98	01951293	slli	x5,x10,0x19	 x10:0xce7fc001  x5=0x02000000
       58055000	      5804	80001e9c	43c76117	auipc	x2,0x43c76	  x2=0xc3c77e98
       58065000	      5805	80001ea0	00d8b3b3	sltu	x7,x17,x13	 x17:0x80009f2c x13:0x00000000  x7=0x00000000
       58075000	      5806	80001ea4	004bbfb3	sltu	x31,x23,x4	 x23:0x80d08000  x4:0x00013e58 x31=0x00000000
       58085000	      5807	80001ea8	f76c3813	sltiu	x16,x24,-138	 x24:0x00000000 x16=0x00000001
       58095000	      5808	80001eac	02935063	bge	x6,x9,80001ecc	  x6:0x00000001  x9:0x00000001
       58105000	      5809	00000000	00000013	addi	x0,x0,0	  x0:0x00000000
       58115000	      5810	80001ec8	00000013	addi	x0,x0,0	  x0:0x00000000
       58125000	      5811	80001ecc	007429b3	slt	x19,x8,x7	  x8:0x81934e48  x7:0x00000000 x19=0x00000001
       58135000	      5812	80001ed0	02ca9063	bne	x21,x12,80001ef0	 x21:0x00000000 x12:0xfffff887
       58145000	      5813	00000000	00000013	addi	x0,x0,0	  x0:0x00000000
       58155000	      5814	80001eec	00000013	addi	x0,x0,0	  x0:0x00000000
       58165000	      5815	80001ef0	401c56b3	sra	x13,x24,x1	 x24:0x00000000  x1:0x00000000 x13=0x00000000
       58175000	      5816	80001ef4	02158463	beq	x11,x1,80001f1c	 x11:0x00000001  x1:0x00000000
       58185000	      5817	80001ef8	039ece63	blt	x29,x25,80001f34	 x29:0x00000001 x25:0x000002a0
       58195000	      5818	00000000	00000013	addi	x0,x0,0	  x0:0x00000000
       58205000	      5819	80001f30	00000013	addi	x0,x0,0	  x0:0x00000000
       58215000	      5820	80001f34	027b8063	beq	x23,x7,80001f54	 x23:0x80d08000  x7:0x00000000
       58225000	      5821	80001f38	4d9d8513	addi	x10,x27,1241	 x27:0x00013e59 x10=0x00014332
       58235000	      5822	80001f3c	94f57993	andi	x19,x10,-1713	 x10:0x00014332 x19=0x00014102
       58245000	      5823	80001f40	00366033	or	x0,x12,x3	 x12:0xfffff887  x3:0x00000735
       58255000	      5824	80001f44	00000013	addi	x0,x0,0	  x0:0x00000000
       58265000	      5825	80001f48	f327ab13	slti	x22,x15,-206	 x15:0x80009fc4 x22=0x00000001
       58275000	      5826	80001f4c	a77a4e17	auipc	x28,0xa77a4	 x28=0x277a5f48
       58285000	      5827	80001f50	011c5593	srli	x11,x24,0x11	 x24:0x00000000 x11=0x00000000
       58295000	      5828	80001f54	026eec63	bltu	x29,x6,80001f8c	 x29:0x00000001  x6:0x00000001
       58305000	      5829	80001f58	dec23117	auipc	x2,0xdec23	  x2=0x5ec24f54
       58315000	      5830	80001f5c	4128d313	srai	x6,x17,0x12	 x17:0x80009f2c  x6=0xffffe000
       58325000	      5831	80001f60	00250233	add	x4,x10,x2	 x10:0x00014332  x2:0x5ec24f54  x4=0x5ec39286
       58335000	      5832	80001f64	00c2ac33	slt	x24,x5,x12	  x5:0x02000000 x12:0xfffff887 x24=0x00000000
       58345000	      5833	80001f68	c2cdcab7	lui	x21,0xc2cdc	 x21=0xc2cdc000
       58355000	      5834	80001f6c	003a54b3	srl	x9,x20,x3	 x20:0x00000610  x3:0x00000735  x9=0x00000000
       58365000	      5835	80001f70	098d7613	andi	x12,x26,152	 x26:0x00000004 x12=0x00000000
       58375000	      5836	80001f74	01325a63	bge	x4,x19,80001f88	  x4:0x5ec39286 x19:0x00014102
       58385000	      5837	00000000	00000013	addi	x0,x0,0	  x0:0x00000000
       58395000	      5838	80001f84	00000013	addi	x0,x0,0	  x0:0x00000000
       58405000	      5839	80001f88	2725ab13	slti	x22,x11,626	 x11:0x00000000 x22=0x00000001
       58415000	      5840	80001f8c	492e4093	xori	x1,x28,1170	 x28:0x277a5f48  x1=0x277a5bda
       58425000	      5841	80001f90	405b8db3	sub	x27,x23,x5	 x23:0x80d08000  x5:0x02000000 x27=0x7ed08000
       58435000	      5842	80001f94	011ef233	and	x4,x29,x17	 x29:0x00000001 x17:0x80009f2c  x4=0x00000000
       58445000	      5843	80001f98	001fd533	srl	x10,x31,x1	 x31:0x00000000  x1:0x277a5bda x10=0x00000000
       58455000	      5844	80001f9c	006a9593	slli	x11,x21,0x6	 x21:0xc2cdc000 x11=0xb3700000
       58465000	      5845	80001fa0	023b8463	beq	x23,x3,80001fc8	 x23:0x80d08000  x3:0x00000735
       58475000	      5846	80001fa4	40bbd293	srai	x5,x23,0xb	 x23:0x80d08000  x5=0xfff01a10
       58485000	      5847	80001fa8	95d16513	ori	x10,x2,-1699	  x2:0x5ec24f54 x10=0xffffff5d
       58495000	      5848	80001fac	03930e63	beq	x6,x25,80001fe8	  x6:0xffffe000 x25:0x000002a0
       58505000	      5849	80001fb0	00d7d463	bge	x15,x13,80001fb8	 x15:0x80009fc4 x13:0x00000000
       58515000	      5850	80001fb4	0188b6b3	sltu	x13,x17,x24	 x17:0x80009f2c x24:0x00000000 x13=0x00000000
       58525000	      5851	80001fb8	99c40593	addi	x11,x8,-1636	  x8:0x81934e48 x11=0x819347e4
       58535000	      5852	80001fbc	2acae193	ori	x3,x21,684	 x21:0xc2cdc000  x3=0xc2cdc2ac
       58545000	      5853	80001fc0	01777433	and	x8,x14,x23	 x14:0x00000000 x23:0x80d08000  x8=0x00000000
       58555000	      5854	80001fc4	03856463	bltu	x10,x24,80001fec	 x10:0xffffff5d x24:0x00000000
       58565000	      5855	80001fc8	0001d813	srli	x16,x3,0x0	  x3:0xc2cdc2ac x16=0xc2cdc2ac
       58575000	      5856	80001fcc	40775593	srai	x11,x14,0x7	 x14:0x00000000 x11=0x00000000
       58585000	      5857	80001fd0	03568063	beq	x13,x21,80001ff0	 x13:0x00000000 x21:0xc2cdc000
       58595000	      5858	80001fd4	01192533	slt	x10,x18,x17	 x18:0xce7fc000 x17:0x80009f2c x10=0x00000000
       58605000	      5859	80001fd8	373df913	andi	x18,x27,883	 x27:0x7ed08000 x18=0x00000000
       58615000	      5860	80001fdc	3ec63593	sltiu	x11,x12,1004	 x12:0x00000000 x11=0x00000001
       58625000	      5861	80001fe0	a45c7813	andi	x16,x24,-1467	 x24:0x00000000 x16=0x00000000
       58635000	      5862	80001fe4	00b98463	beq	x19,x11,80001fec	 x19:0x00014102 x11:0x00000001
       58645000	      5863	80001fe8	4bc0d817	auipc	x16,0x4bc0d	 x16=0xcbc0efe4
       58655000	      5864	80001fec	043bf263	bgeu	x23,x3,80002030	 x23:0x80d08000  x3:0xc2cdc2ac
       58665000	      5865	80001ff0	8bd53313	sltiu	x6,x10,-1859	 x10:0x00000000  x6=0x00000001
       58675000	      5866	80001ff4	41908f33	sub	x30,x1,x25	  x1:0x277a5bda x25:0x000002a0 x30=0x277a593a
       58685000	      5867	80001ff8	40c1d433	sra	x8,x3,x12	  x3:0xc2cdc2ac x12:0x00000000  x8=0xc2cdc2ac
       58695000	      5868	80001ffc	44c6bd93	sltiu	x27,x13,1100	 x13:0x00000000 x27=0x00000001
       58705000	      5869	80002000	009185b3	add	x11,x3,x9	  x3:0xc2cdc2ac  x9:0x00000000 x11=0xc2cdc2ac
       58715000	      5870	80002004	003531b3	sltu	x3,x10,x3	 x10:0x00000000  x3:0xc2cdc2ac  x3=0x00000001
       58725000	      5871	80002008	0173ca33	xor	x20,x7,x23	  x7:0x00000000 x23:0x80d08000 x20=0x80d08000
       58735000	      5872	8000200c	01ccd913	srli	x18,x25,0x1c	 x25:0x000002a0 x18=0x00000000
       58745000	      5873	80002010	6e5a4e93	xori	x29,x20,1765	 x20:0x80d08000 x29=0x80d086e5
       58755000	      5874	80002014	00b59713	slli	x14,x11,0xb	 x11:0xc2cdc2ac x14=0x6e156000
       58765000	      5875	80002018	e2a7ab13	slti	x22,x15,-470	 x15:0x80009fc4 x22=0x00000001
       58775000	      5876	8000201c	00f53933	sltu	x18,x10,x15	 x10:0x00000000 x15:0x80009fc4 x18=0x00000001
       58785000	      5877	80002020	45d73a37	lui	x20,0x45d73	 x20=0x45d73000
       58795000	      5878	80002024	034d6e63	bltu	x26,x20,80002060	 x26:0x00000004 x20:0x45d73000
       58805000	      5879	00000000	00000013	addi	x0,x0,0	  x0:0x00000000
       58815000	      5880	8000205c	00000013	addi	x0,x0,0	  x0:0x00000000
       58825000	      5881	80002060	4048dd93	srai	x27,x17,0x4	 x17:0x80009f2c x27=0xf80009f2
       58835000	      5882	80002064	03908863	beq	x1,x25,80002094	  x1:0x277a5bda x25:0x000002a0
       58845000	      5883	80002068	03f74663	blt	x14,x31,80002094	 x14:0x6e156000 x31:0x00000000
       58855000	      5884	8000206c	00a59a63	bne	x11,x10,80002080	 x11:0xc2cdc2ac x10:0x00000000
       58865000	      5885	00000000	00000013	addi	x0,x0,0	  x0:0x00000000
       58875000	      5886	8000207c	00000013	addi	x0,x0,0	  x0:0x00000000
       58885000	      5887	80002080	6ee44137	lui	x2,0x6ee44	  x2=0x6ee44000
       58895000	      5888	80002084	41545e33	sra	x28,x8,x21	  x8:0xc2cdc2ac x21:0xc2cdc000 x28=0xc2cdc2ac
       58905000	      5889	80002088	0d99c063	blt	x19,x25,80002148	 x19:0x00014102 x25:0x000002a0
       58915000	      5890	8000208c	03ad5263	bge	x26,x26,800020b0	 x26:0x00000004 x26:0x00000004
       58925000	      5891	00000000	00000013	addi	x0,x0,0	  x0:0x00000000
       58935000	      5892	800020ac	00000013	addi	x0,x0,0	  x0:0x00000000
       58945000	      5893	800020b0	015bc333	xor	x6,x23,x21	 x23:0x80d08000 x21:0xc2cdc000  x6=0x421d4000
       58955000	      5894	800020b4	01272133	slt	x2,x14,x18	 x14:0x6e156000 x18:0x00000001  x2=0x00000000
       58965000	      5895	800020b8	41025b93	srai	x23,x4,0x10	  x4:0x00000000 x23=0x00000000
       58975000	      5896	800020bc	087c0c63	beq	x24,x7,80002154	 x24:0x00000000  x7:0x00000000
       58985000	      5897	00000000	00000013	addi	x0,x0,0	  x0:0x00000000
       58995000	      5898	80002150	00000013	addi	x0,x0,0	  x0:0x00000000
       59005000	      5899	80002154	59b8a993	slti	x19,x17,1435	 x17:0x80009f2c x19=0x00000001
       59015000	      5900	80002158	70f0c593	xori	x11,x1,1807	  x1:0x277a5bda x11=0x277a5cd5
       59025000	      5901	8000215c	03c89263	bne	x17,x28,80002180	 x17:0x80009f2c x28:0xc2cdc2ac
       59035000	      5902	00000000	00000013	addi	x0,x0,0	  x0:0x00000000
       59045000	      5903	8000217c	00000013	addi	x0,x0,0	  x0:0x00000000
       59055000	      5904	80002180	4835fc13	andi	x24,x11,1155	 x11:0x277a5cd5 x24=0x00000481
       59065000	      5905	80002184	8b624493	xori	x9,x4,-1866	  x4:0x00000000  x9=0xfffff8b6
       59075000	      5906	80002188	da2c85b7	lui	x11,0xda2c8	 x11=0xda2c8000
       59085000	      5907	8000218c	00ef9e93	slli	x29,x31,0xe	 x31:0x00000000 x29=0x00000000
       59095000	      5908	80002190	00000013	addi	x0,x0,0	  x0:0x00000000
       59105000	      5909	80002194	00d84663	blt	x16,x13,800021a0	 x16:0xcbc0efe4 x13:0x00000000
       59115000	      5910	00000000	00000013	addi	x0,x0,0	  x0:0x00000000
       59125000	      5911	8000219c	00000013	addi	x0,x0,0	  x0:0x00000000
       59135000	      5912	800021a0	0041a0b3	slt	x1,x3,x4	  x3:0x00000001  x4:0x00000000  x1=0x00000000
       59145000	      5913	800021a4	415e5313	srai	x6,x28,0x15	 x28:0xc2cdc2ac  x6=0xfffffe16
       59155000	      5914	800021a8	02fd7463	bgeu	x26,x15,800021d0	 x26:0x00000004 x15:0x80009fc4
       59165000	      5915	800021ac	01361213	slli	x4,x12,0x13	 x12:0x00000000  x4=0x00000000
       59175000	      5916	800021b0	00000013	addi	x0,x0,0	  x0:0x00000000
       59185000	      5917	800021b4	04272d93	slti	x27,x14,66	 x14:0x6e156000 x27=0x00000000
       59195000	      5918	800021b8	0011e033	or	x0,x3,x1	  x3:0x00000001  x1:0x00000000
       59205000	      5919	800021bc	999d2f93	slti	x31,x26,-1639	 x26:0x00000004 x31=0x00000000
       59215000	      5920	800021c0	00b5d693	srli	x13,x11,0xb	 x11:0xda2c8000 x13=0x001b4590
       59225000	      5921	800021c4	d16be213	ori	x4,x23,-746	 x23:0x00000000  x4=0xfffffd16
       59235000	      5922	800021c8	00e83433	sltu	x8,x16,x14	 x16:0xcbc0efe4 x14:0x6e156000  x8=0x00000000
       59245000	      5923	800021cc	04bb4263	blt	x22,x11,80002210	 x22:0x00000001 x11:0xda2c8000
       59255000	      5924	800021d0	a3ad7693	andi	x13,x26,-1478	 x26:0x00000004 x13=0x00000000
       59265000	      5925	800021d4	035b9463	bne	x23,x21,800021fc	 x23:0x00000000 x21:0xc2cdc000
       59275000	      5926	00000000	00000013	addi	x0,x0,0	  x0:0x00000000
       59285000	      5927	800021f8	00000013	addi	x0,x0,0	  x0:0x00000000
       59295000	      5928	800021fc	f3cee317	auipc	x6,0xf3cee	  x6=0x73cf01f8
       59305000	      5929	80002200	84b94a93	xori	x21,x18,-1973	 x18:0x00000001 x21=0xfffff84a
       59315000	      5930	80002204	01f09333	sll	x6,x1,x31	  x1:0x00000000 x31:0x00000000  x6=0x00000000
       59325000	      5931	80002208	00000013	addi	x0,x0,0	  x0:0x00000000
       59335000	      5932	8000220c	03fc1463	bne	x24,x31,80002234	 x24:0x00000481 x31:0x00000000
       59345000	      5933	00000000	00000013	addi	x0,x0,0	  x0:0x00000000
       59355000	      5934	80002230	00000013	addi	x0,x0,0	  x0:0x00000000
       59365000	      5935	80002234	00e0fcb3	and	x25,x1,x14	  x1:0x00000000 x14:0x6e156000 x25=0x00000000
       59375000	      5936	80002238	015392b3	sll	x5,x7,x21	  x7:0x00000000 x21:0xfffff84a  x5=0x00000000
       59385000	      5937	8000223c	02c44c63	blt	x8,x12,80002274	  x8:0x00000000 x12:0x00000000
       59395000	      5938	80002240	a735a093	slti	x1,x11,-1421	 x11:0xda2c8000  x1=0x00000001
       59405000	      5939	80002244	00dcae33	slt	x28,x25,x13	 x25:0x00000000 x13:0x00000000 x28=0x00000000
       59415000	      5940	80002248	002cbbb3	sltu	x23,x25,x2	 x25:0x00000000  x2:0x00000000 x23=0x00000000
       59425000	      5941	8000224c	00795bb3	srl	x23,x18,x7	 x18:0x00000001  x7:0x00000000 x23=0x00000001
       59435000	      5942	80002250	006bf433	and	x8,x23,x6	 x23:0x00000001  x6:0x00000000  x8=0x00000000
       59445000	      5943	80002254	01975863	bge	x14,x25,80002264	 x14:0x6e156000 x25:0x00000000
       59455000	      5944	00000000	00000013	addi	x0,x0,0	  x0:0x00000000
       59465000	      5945	80002260	00000013	addi	x0,x0,0	  x0:0x00000000
       59475000	      5946	80002264	00ad0263	beq	x26,x10,80002268	 x26:0x00000004 x10:0x00000000
       59485000	      5947	80002268	41d75313	srai	x6,x14,0x1d	 x14:0x6e156000  x6=0x00000003
       59495000	      5948	8000226c	00f75e13	srli	x28,x14,0xf	 x14:0x6e156000 x28=0x0000dc2a
       59505000	      5949	80002270	0155d0b3	srl	x1,x11,x21	 x11:0xda2c8000 x21:0xfffff84a  x1=0x00368b20
       59515000	      5950	80002274	01395a33	srl	x20,x18,x19	 x18:0x00000001 x19:0x00000001 x20=0x00000000
       59525000	      5951	80002278	01c82a33	slt	x20,x16,x28	 x16:0xcbc0efe4 x28:0x0000dc2a x20=0x00000001
       59535000	      5952	8000227c	5de92113	slti	x2,x18,1502	 x18:0x00000001  x2=0x00000001
       59545000	      5953	80002280	73ecf937	lui	x18,0x73ecf	 x18=0x73ecf000
       59555000	      5954	80002284	41ec5233	sra	x4,x24,x30	 x24:0x00000481 x30:0x277a593a  x4=0x00000000
       59565000	      5955	80002288	19e14093	xori	x1,x2,414	  x2:0x00000001  x1=0x0000019f
       59575000	      5956	8000228c	007571b3	and	x3,x10,x7	 x10:0x00000000  x7:0x00000000  x3=0x00000000
       59585000	      5957	80002290	02c2e063	bltu	x5,x12,800022b0	  x5:0x00000000 x12:0x00000000
       59595000	      5958	80002294	4c493c13	sltiu	x24,x18,1220	 x18:0x73ecf000 x24=0x00000000
       59605000	      5959	80002298	82945bb7	lui	x23,0x82945	 x23=0x82945000
       59615000	      5960	8000229c	c803c693	xori	x13,x7,-896	  x7:0x00000000 x13=0xfffffc80
       59625000	      5961	800022a0	025ad863	bge	x21,x5,800022d0	 x21:0xfffff84a  x5:0x00000000
       59635000	      5962	800022a4	00e36933	or	x18,x6,x14	  x6:0x00000003 x14:0x6e156000 x18=0x6e156003
       59645000	      5963	800022a8	030dfe63	bgeu	x27,x16,800022e4	 x27:0x00000000 x16:0xcbc0efe4
       59655000	      5964	800022ac	01def463	bgeu	x29,x29,800022b4	 x29:0x00000000 x29:0x00000000
       59665000	      5965	00000000	00000013	addi	x0,x0,0	  x0:0x00000000
       59675000	      5966	800022b0	00000013	addi	x0,x0,0	  x0:0x00000000
       59685000	      5967	800022b4	00000013	addi	x0,x0,0	  x0:0x00000000
       59695000	      5968	800022b8	aeb90cb7	lui	x25,0xaeb90	 x25=0xaeb90000
       59705000	      5969	800022bc	00b56b33	or	x22,x10,x11	 x10:0x00000000 x11:0xda2c8000 x22=0xda2c8000
       59715000	      5970	800022c0	415c0bb3	sub	x23,x24,x21	 x24:0x00000000 x21:0xfffff84a x23=0x000007b6
       59725000	      5971	800022c4	412fd733	sra	x14,x31,x18	 x31:0x00000000 x18:0x6e156003 x14=0x00000000
       59735000	      5972	800022c8	01271e13	slli	x28,x14,0x12	 x14:0x00000000 x28=0x00000000
       59745000	      5973	800022cc	0343d663	bge	x7,x20,800022f8	  x7:0x00000000 x20:0x00000001
       59755000	      5974	800022d0	2e24cd93	xori	x27,x9,738	  x9:0xfffff8b6 x27=0xfffffa54
       59765000	      5975	800022d4	01fbebb3	or	x23,x23,x31	 x23:0x000007b6 x31:0x00000000 x23=0x000007b6
       59775000	      5976	800022d8	004adf13	srli	x30,x21,0x4	 x21:0xfffff84a x30=0x0fffff84
       59785000	      5977	800022dc	00b2b0b3	sltu	x1,x5,x11	  x5:0x00000000 x11:0xda2c8000  x1=0x00000001
       59795000	      5978	800022e0	018c0bb3	add	x23,x24,x24	 x24:0x00000000 x24:0x00000000 x23=0x00000000
       59805000	      5979	800022e4	05ba4463	blt	x20,x27,8000232c	 x20:0x00000001 x27:0xfffffa54
       59815000	      5980	800022e8	413e5e33	sra	x28,x28,x19	 x28:0x00000000 x19:0x00000001 x28=0x00000000
       59825000	      5981	800022ec	b8cbca93	xori	x21,x23,-1140	 x23:0x00000000 x21=0xfffffb8c
       59835000	      5982	800022f0	4166d913	srai	x18,x13,0x16	 x13:0xfffffc80 x18=0xffffffff
       59845000	      5983	800022f4	00e25a93	srli	x21,x4,0xe	  x4:0x00000000 x21=0x00000000
       59855000	      5984	800022f8	40eb5033	sra	x0,x22,x14	 x22:0xda2c8000 x14:0x00000000
       59865000	      5985	800022fc	01dddf33	srl	x30,x27,x29	 x27:0xfffffa54 x29:0x00000000 x30=0xfffffa54
       59875000	      5986	80002300	01d1cab3	xor	x21,x3,x29	  x3:0x00000000 x29:0x00000000 x21=0x00000000
       59885000	      5987	80002304	01601933	sll	x18,x0,x22	  x0:0x00000000 x22:0xda2c8000 x18=0x00000000
       59895000	      5988	80002308	007fb4b3	sltu	x9,x31,x7	 x31:0x00000000  x7:0x00000000  x9=0x00000000
       59905000	      5989	8000230c	03f70063	beq	x14,x31,8000232c	 x14:0x00000000 x31:0x00000000
       59915000	      5990	00000000	00000013	addi	x0,x0,0	  x0:0x00000000
       59925000	      5991	80002328	00000013	addi	x0,x0,0	  x0:0x00000000
       59935000	      5992	8000232c	00000013	addi	x0,x0,0	  x0:0x00000000
       59945000	      5993	80002330	9871be37	lui	x28,0x9871b	 x28=0x9871b000
       59955000	      5994	80002334	00000013	addi	x0,x0,0	  x0:0x00000000
       59965000	      5995	80002338	003f2633	slt	x12,x30,x3	 x30:0xfffffa54  x3:0x00000000 x12=0x00000001
       59975000	      5996	8000233c	01803033	sltu	x0,x0,x24	  x0:0x00000000 x24:0x00000000
       59985000	      5997	80002340	40c555b3	sra	x11,x10,x12	 x10:0x00000000 x12:0x00000001 x11=0x00000000
       59995000	      5998	80002344	02a6e463	bltu	x13,x10,8000236c	 x13:0xfffffc80 x10:0x00000000
       60005000	      5999	80002348	e345c393	xori	x7,x11,-460	 x11:0x00000000  x7=0xfffffe34
       60015000	      6000	8000234c	016901b3	add	x3,x18,x22	 x18:0x00000000 x22:0xda2c8000  x3=0xda2c8000
       60025000	      6001	80002350	01cd9013	slli	x0,x27,0x1c	 x27:0xfffffa54
       60035000	      6002	80002354	00769f13	slli	x30,x13,0x7	 x13:0xfffffc80 x30=0xfffe4000
       60045000	      6003	80002358	00a8e133	or	x2,x17,x10	 x17:0x80009f2c x10:0x00000000  x2=0x80009f2c
       60055000	      6004	8000235c	00c24463	blt	x4,x12,80002364	  x4:0x00000000 x12:0x00000001
       60065000	      6005	00000000	00000013	addi	x0,x0,0	  x0:0x00000000
       60075000	      6006	80002360	00000013	addi	x0,x0,0	  x0:0x00000000
       60085000	      6007	80002364	01ffe9b3	or	x19,x31,x31	 x31:0x00000000 x31:0x00000000 x19=0x00000000
       60095000	      6008	80002368	017b8e33	add	x28,x23,x23	 x23:0x00000000 x23:0x00000000 x28=0x00000000
       60105000	      6009	8000236c	a53c2bb7	lui	x23,0xa53c2	 x23=0xa53c2000
       60115000	      6010	80002370	5b5930b7	lui	x1,0x5b593	  x1=0x5b593000
       60125000	      6011	80002374	413586b3	sub	x13,x11,x19	 x11:0x00000000 x19:0x00000000 x13=0x00000000
       60135000	      6012	80002378	d0c13e93	sltiu	x29,x2,-756	  x2:0x80009f2c x29=0x00000001
       60145000	      6013	8000237c	dfad7393	andi	x7,x26,-518	 x26:0x00000004  x7=0x00000000
       60155000	      6014	80002380	00cb71b3	and	x3,x22,x12	 x22:0xda2c8000 x12:0x00000001  x3=0x00000000
       60165000	      6015	80002384	05118863	beq	x3,x17,800023d4	  x3:0x00000000 x17:0x80009f2c
       60175000	      6016	80002388	40ef51b3	sra	x3,x30,x14	 x30:0xfffe4000 x14:0x00000000  x3=0xfffe4000
       60185000	      6017	8000238c	00d9a633	slt	x12,x19,x13	 x19:0x00000000 x13:0x00000000 x12=0x00000000
       60195000	      6018	80002390	01ff7463	bgeu	x30,x31,80002398	 x30:0xfffe4000 x31:0x00000000
       60205000	      6019	00000000	00000013	addi	x0,x0,0	  x0:0x00000000
       60215000	      6020	80002394	00000013	addi	x0,x0,0	  x0:0x00000000
       60225000	      6021	80002398	037b4c63	blt	x22,x23,800023d0	 x22:0xda2c8000 x23:0xa53c2000
       60235000	      6022	8000239c	4099d033	sra	x0,x19,x9	 x19:0x00000000  x9:0x00000000
       60245000	      6023	800023a0	00321bb3	sll	x23,x4,x3	  x4:0x00000000  x3:0xfffe4000 x23=0x00000000
       60255000	      6024	800023a4	f35df217	auipc	x4,0xf35df	  x4=0x735e13a0
       60265000	      6025	800023a8	015e9413	slli	x8,x29,0x15	 x29:0x00000001  x8=0x00200000
       60275000	      6026	800023ac	00ce6633	or	x12,x28,x12	 x28:0x00000000 x12:0x00000000 x12=0x00000000
       60285000	      6027	800023b0	01488033	add	x0,x17,x20	 x17:0x80009f2c x20:0x00000001
       60295000	      6028	800023b4	21b3a293	slti	x5,x7,539	  x7:0x00000000  x5=0x00000001
       60305000	      6029	800023b8	00becfb3	xor	x31,x29,x11	 x29:0x00000001 x11:0x00000000 x31=0x00000001
       60315000	      6030	800023bc	e8447093	andi	x1,x8,-380	  x8:0x00200000  x1=0x00200000
       60325000	      6031	800023c0	89b6c613	xori	x12,x13,-1893	 x13:0x00000000 x12=0xfffff89b
       60335000	      6032	800023c4	41ad5333	sra	x6,x26,x26	 x26:0x00000004 x26:0x00000004  x6=0x00000000
       60345000	      6033	800023c8	01169693	slli	x13,x13,0x11	 x13:0x00000000 x13=0x00000000
       60355000	      6034	800023cc	01db5e33	srl	x28,x22,x29	 x22:0xda2c8000 x29:0x00000001 x28=0x6d164000
       60365000	      6035	800023d0	07ee7737	lui	x14,0x7ee7	 x14=0x07ee7000
       60375000	      6036	800023d4	02711663	bne	x2,x7,80002400	  x2:0x80009f2c  x7:0x00000000
       60385000	      6037	00000000	00000013	addi	x0,x0,0	  x0:0x00000000
       60395000	      6038	800023fc	00000013	addi	x0,x0,0	  x0:0x00000000
       60405000	      6039	80002400	0114ca63	blt	x9,x17,80002414	  x9:0x00000000 x17:0x80009f2c
       60415000	      6040	80002404	0283f063	bgeu	x7,x8,80002424	  x7:0x00000000  x8:0x00200000
       60425000	      6041	80002408	0199ea63	bltu	x19,x25,8000241c	 x19:0x00000000 x25:0xaeb90000
       60435000	      6042	00000000	00000013	addi	x0,x0,0	  x0:0x00000000
       60445000	      6043	80002418	00000013	addi	x0,x0,0	  x0:0x00000000
       60455000	      6044	8000241c	00d7e933	or	x18,x15,x13	 x15:0x80009fc4 x13:0x00000000 x18=0x80009fc4
       60465000	      6045	80002420	001646b3	xor	x13,x12,x1	 x12:0xfffff89b  x1:0x00200000 x13=0xffdff89b
       60475000	      6046	80002424	0098a333	slt	x6,x17,x9	 x17:0x80009f2c  x9:0x00000000  x6=0x00000001
       60485000	      6047	80002428	41018533	sub	x10,x3,x16	  x3:0xfffe4000 x16:0xcbc0efe4 x10=0x343d501c
       60495000	      6048	8000242c	01ec9033	sll	x0,x25,x30	 x25:0xaeb90000 x30:0xfffe4000
       60505000	      6049	80002430	419ad933	sra	x18,x21,x25	 x21:0x00000000 x25:0xaeb90000 x18=0x00000000
       60515000	      6050	80002434	a4290113	addi	x2,x18,-1470	 x18:0x00000000  x2=0xfffffa42
       60525000	      6051	80002438	0371ec63	bltu	x3,x23,80002470	  x3:0xfffe4000 x23:0x00000000
       60535000	      6052	8000243c	f314d397	auipc	x7,0xf314d	  x7=0x7314f438
       60545000	      6053	80002440	05dc0b13	addi	x22,x24,93	 x24:0x00000000 x22=0x0000005d
       60555000	      6054	80002444	03686e63	bltu	x16,x22,80002480	 x16:0xcbc0efe4 x22:0x0000005d
       60565000	      6055	80002448	48218b13	addi	x22,x3,1154	  x3:0xfffe4000 x22=0xfffe4482
       60575000	      6056	8000244c	543dfc93	andi	x25,x27,1347	 x27:0xfffffa54 x25=0x00000040
       60585000	      6057	80002450	017015b3	sll	x11,x0,x23	  x0:0x00000000 x23:0x00000000 x11=0x00000000
       60595000	      6058	80002454	96923c93	sltiu	x25,x4,-1687	  x4:0x735e13a0 x25=0x00000001
       60605000	      6059	80002458	1949a613	slti	x12,x19,404	 x19:0x00000000 x12=0x00000001
       60615000	      6060	8000245c	1ab7f5b7	lui	x11,0x1ab7f	 x11=0x1ab7f000
       60625000	      6061	80002460	415b5093	srai	x1,x22,0x15	 x22:0xfffe4482  x1=0xffffffff
       60635000	      6062	80002464	40bd5213	srai	x4,x26,0xb	 x26:0x00000004  x4=0x00000000
       60645000	      6063	80002468	f237e993	ori	x19,x15,-221	 x15:0x80009fc4 x19=0xffffffe7
       60655000	      6064	8000246c	01da9d93	slli	x27,x21,0x1d	 x21:0x00000000 x27=0x00000000
       60665000	      6065	80002470	0b84aa93	slti	x21,x9,184	  x9:0x00000000 x21=0x00000001
       60675000	      6066	80002474	006d3233	sltu	x4,x26,x6	 x26:0x00000004  x6:0x00000001  x4=0x00000000
       60685000	      6067	80002478	8b06ff93	andi	x31,x13,-1872	 x13:0xffdff89b x31=0xffdff890
       60695000	      6068	8000247c	01195533	srl	x10,x18,x17	 x18:0x00000000 x17:0x80009f2c x10=0x00000000
       60705000	      6069	80002480	03906063	bltu	x0,x25,800024a0	  x0:0x00000000 x25:0x00000001
       60715000	      6070	00000000	00000013	addi	x0,x0,0	  x0:0x00000000
       60725000	      6071	8000249c	00000013	addi	x0,x0,0	  x0:0x00000000
       60735000	      6072	800024a0	c2bf2693	slti	x13,x30,-981	 x30:0xfffe4000 x13=0x00000001
       60745000	      6073	800024a4	0009b033	sltu	x0,x19,x0	 x19:0xffffffe7  x0:0x00000000
       60755000	      6074	800024a8	02cf4463	blt	x30,x12,800024d0	 x30:0xfffe4000 x12:0x00000001
       60765000	      6075	00000000	00000013	addi	x0,x0,0	  x0:0x00000000
       60775000	      6076	800024cc	00000013	addi	x0,x0,0	  x0:0x00000000
       60785000	      6077	800024d0	0fc52e93	slti	x29,x10,252	 x10:0x00000000 x29=0x00000001
       60795000	      6078	800024d4	00df2233	slt	x4,x30,x13	 x30:0xfffe4000 x13:0x00000001  x4=0x00000001
       60805000	      6079	800024d8	405e0f33	sub	x30,x28,x5	 x28:0x6d164000  x5:0x00000001 x30=0x6d163fff
       60815000	      6080	800024dc	33d24b93	xori	x23,x4,829	  x4:0x00000001 x23=0x0000033c
       60825000	      6081	800024e0	eee50f93	addi	x31,x10,-274	 x10:0x00000000 x31=0xfffffeee
       60835000	      6082	800024e4	022f0063	beq	x30,x2,80002504	 x30:0x6d163fff  x2:0xfffffa42
       60845000	      6083	800024e8	01a39013	slli	x0,x7,0x1a	  x7:0x7314f438
       60855000	      6084	800024ec	ce4853b7	lui	x7,0xce485	  x7=0xce485000
       60865000	      6085	800024f0	410a0b33	sub	x22,x20,x16	 x20:0x00000001 x16:0xcbc0efe4 x22=0x343f101d
       60875000	      6086	800024f4	018789b3	add	x19,x15,x24	 x15:0x80009fc4 x24:0x00000000 x19=0x80009fc4
       60885000	      6087	800024f8	d92f19b7	lui	x19,0xd92f1	 x19=0xd92f1000
       60895000	      6088	800024fc	057cd463	bge	x25,x23,80002544	 x25:0x00000001 x23:0x0000033c
       60905000	      6089	80002500	ea824613	xori	x12,x4,-344	  x4:0x00000001 x12=0xfffffea9
       60915000	      6090	80002504	9d85c613	xori	x12,x11,-1576	 x11:0x1ab7f000 x12=0xe54809d8
       60925000	      6091	80002508	03b57063	bgeu	x10,x27,80002528	 x10:0x00000000 x27:0x00000000
       60935000	      6092	00000000	00000013	addi	x0,x0,0	  x0:0x00000000
       60945000	      6093	80002524	00000013	addi	x0,x0,0	  x0:0x00000000
       60955000	      6094	80002528	01e86333	or	x6,x16,x30	 x16:0xcbc0efe4 x30:0x6d163fff  x6=0xefd6ffff
       60965000	      6095	8000252c	00829613	slli	x12,x5,0x8	  x5:0x00000001 x12=0x00000100
       60975000	      6096	80002530	00ed65b3	or	x11,x26,x14	 x26:0x00000004 x14:0x07ee7000 x11=0x07ee7004
       60985000	      6097	80002534	015643b3	xor	x7,x12,x21	 x12:0x00000100 x21:0x00000001  x7=0x00000101
       60995000	      6098	80002538	03a9ee63	bltu	x19,x26,80002574	 x19:0xd92f1000 x26:0x00000004
       61005000	      6099	8000253c	01b46463	bltu	x8,x27,80002544	  x8:0x00200000 x27:0x00000000
       61015000	      6100	80002540	00bb4033	xor	x0,x22,x11	 x22:0x343f101d x11:0x07ee7004
       61025000	      6101	80002544	71b33213	sltiu	x4,x6,1819	  x6:0xefd6ffff  x4=0x00000000
       61035000	      6102	80002548	00000013	addi	x0,x0,0	  x0:0x00000000
       61045000	      6103	8000254c	0341d663	bge	x3,x20,80002578	  x3:0xfffe4000 x20:0x00000001
       61055000	      6104	80002550	0129d193	srli	x3,x19,0x12	 x19:0xd92f1000  x3=0x0000364b
       61065000	      6105	80002554	ebf29137	lui	x2,0xebf29	  x2=0xebf29000
       61075000	      6106	80002558	0015ea63	bltu	x11,x1,8000256c	 x11:0x07ee7004  x1:0xffffffff
       61085000	      6107	00000000	00000013	addi	x0,x0,0	  x0:0x00000000
       61095000	      6108	80002568	00000013	addi	x0,x0,0	  x0:0x00000000
       61105000	      6109	8000256c	01f7f033	and	x0,x15,x31	 x15:0x80009fc4 x31:0xfffffeee
       61115000	      6110	80002570	00000013	addi	x0,x0,0	  x0:0x00000000
       61125000	      6111	80002574	d3e26a93	ori	x21,x4,-706	  x4:0x00000000 x21=0xfffffd3e
       61135000	      6112	80002578	40788bb3	sub	x23,x17,x7	 x17:0x80009f2c  x7:0x00000101 x23=0x80009e2b
       61145000	      6113	8000257c	00627c33	and	x24,x4,x6	  x4:0x00000000  x6:0xefd6ffff x24=0x00000000
       61155000	      6114	80002580	66492493	slti	x9,x18,1636	 x18:0x00000000  x9=0x00000001
       61165000	      6115	80002584	01d1e863	bltu	x3,x29,80002594	  x3:0x0000364b x29:0x00000001
       61175000	      6116	80002588	f9aac493	xori	x9,x21,-102	 x21:0xfffffd3e  x9=0x000002a4
       61185000	      6117	8000258c	00d19493	slli	x9,x3,0xd	  x3:0x0000364b  x9=0x06c96000
       61195000	      6118	80002590	2f41a697	auipc	x13,0x2f41a	 x13=0xaf41c58c
       61205000	      6119	80002594	007c5233	srl	x4,x24,x7	 x24:0x00000000  x7:0x00000101  x4=0x00000000
       61215000	      6120	80002598	00f35263	bge	x6,x15,8000259c	  x6:0xefd6ffff x15:0x80009fc4
       61225000	      6121	00000000	00000013	addi	x0,x0,0	  x0:0x00000000
       61235000	      6122	80002598	00000013	addi	x0,x0,0	  x0:0x00000000
       61245000	      6123	8000259c	0351c263	blt	x3,x21,800025c0	  x3:0x0000364b x21:0xfffffd3e
       61255000	      6124	800025a0	028c9e63	bne	x25,x8,800025dc	 x25:0x00000001  x8:0x00200000
       61265000	      6125	00000000	00000013	addi	x0,x0,0	  x0:0x00000000
       61275000	      6126	800025d8	00000013	addi	x0,x0,0	  x0:0x00000000
       61285000	      6127	800025dc	000c44b3	xor	x9,x24,x0	 x24:0x00000000  x0:0x00000000  x9=0x00000000
       61295000	      6128	800025e0	007614b3	sll	x9,x12,x7	 x12:0x00000100  x7:0x00000101  x9=0x00000200
       61305000	      6129	800025e4	c932ab93	slti	x23,x5,-877	  x5:0x00000001 x23=0x00000000
       61315000	      6130	800025e8	01fea2b3	slt	x5,x29,x31	 x29:0x00000001 x31:0xfffffeee  x5=0x00000000
       61325000	      6131	800025ec	40e4db93	srai	x23,x9,0xe	  x9:0x00000200 x23=0x00000000
       61335000	      6132	800025f0	fe268193	addi	x3,x13,-30	 x13:0xaf41c58c  x3=0xaf41c56e
       61345000	      6133	800025f4	41418333	sub	x6,x3,x20	  x3:0xaf41c56e x20:0x00000001  x6=0xaf41c56d
       61355000	      6134	800025f8	0276c463	blt	x13,x7,80002620	 x13:0xaf41c58c  x7:0x00000101
       61365000	      6135	00000000	00000013	addi	x0,x0,0	  x0:0x00000000
       61375000	      6136	8000261c	00000013	addi	x0,x0,0	  x0:0x00000000
       61385000	      6137	80002620	019e10b3	sll	x1,x28,x25	 x28:0x6d164000 x25:0x00000001  x1=0xda2c8000
       61395000	      6138	80002624	d5c82293	slti	x5,x16,-676	 x16:0xcbc0efe4  x5=0x00000001
       61405000	      6139	80002628	0168aa33	slt	x20,x17,x22	 x17:0x80009f2c x22:0x343f101d x20=0x00000001
       61415000	      6140	8000262c	d49f4013	xori	x0,x30,-695	 x30:0x6d163fff
       61425000	      6141	80002630	00000013	addi	x0,x0,0	  x0:0x00000000
       61435000	      6142	80002634	6771bc13	sltiu	x24,x3,1655	  x3:0xaf41c56e x24=0x00000000
       61445000	      6143	80002638	01662933	slt	x18,x12,x22	 x12:0x00000100 x22:0x343f101d x18=0x00000001
       61455000	      6144	8000263c	00215433	srl	x8,x2,x2	  x2:0xebf29000  x2:0xebf29000  x8=0xebf29000
       61465000	      6145	80002640	00000013	addi	x0,x0,0	  x0:0x00000000
       61475000	      6146	80002644	4158ddb3	sra	x27,x17,x21	 x17:0x80009f2c x21:0xfffffd3e x27=0xfffffffe
       61485000	      6147	80002648	54aebf93	sltiu	x31,x29,1354	 x29:0x00000001 x31=0x00000001
       61495000	      6148	8000264c	00699663	bne	x19,x6,80002658	 x19:0xd92f1000  x6:0xaf41c56d
       61505000	      6149	00000000	00000013	addi	x0,x0,0	  x0:0x00000000
       61515000	      6150	80002654	00000013	addi	x0,x0,0	  x0:0x00000000
       61525000	      6151	80002658	01e87fb3	and	x31,x16,x30	 x16:0xcbc0efe4 x30:0x6d163fff x31=0x49002fe4
       61535000	      6152	8000265c	01bed913	srli	x18,x29,0x1b	 x29:0x00000001 x18=0x00000000
       61545000	      6153	80002660	00d81993	slli	x19,x16,0xd	 x16:0xcbc0efe4 x19=0x1dfc8000
       61555000	      6154	80002664	01f48433	add	x8,x9,x31	  x9:0x00000200 x31:0x49002fe4  x8=0x490031e4
       61565000	      6155	80002668	03019063	bne	x3,x16,80002688	  x3:0xaf41c56e x16:0xcbc0efe4
       61575000	      6156	00000000	00000013	addi	x0,x0,0	  x0:0x00000000
       61585000	      6157	80002684	00000013	addi	x0,x0,0	  x0:0x00000000
       61595000	      6158	80002688	bf8ba597	auipc	x11,0xbf8ba	 x11=0x3f8bc684
       61605000	      6159	8000268c	028f8863	beq	x31,x8,800026bc	 x31:0x49002fe4  x8:0x490031e4
       61615000	      6160	80002690	00b8a1b3	slt	x3,x17,x11	 x17:0x80009f2c x11:0x3f8bc684  x3=0x00000001
       61625000	      6161	80002694	fd80bc13	sltiu	x24,x1,-40	  x1:0xda2c8000 x24=0x00000001
       61635000	      6162	80002698	009650b3	srl	x1,x12,x9	 x12:0x00000100  x9:0x00000200  x1=0x00000100
       61645000	      6163	8000269c	41905993	srai	x19,x0,0x19	  x0:0x00000000 x19=0x00000000
       61655000	      6164	800026a0	41420eb3	sub	x29,x4,x20	  x4:0x00000000 x20:0x00000001 x29=0xffffffff
       61665000	      6165	800026a4	47a74c93	xori	x25,x14,1146	 x14:0x07ee7000 x25=0x07ee747a
       61675000	      6166	800026a8	143b2493	slti	x9,x22,323	 x22:0x343f101d  x9=0x00000000
       61685000	      6167	800026ac	015b1463	bne	x22,x21,800026b4	 x22:0x343f101d x21:0xfffffd3e
       61695000	      6168	00000000	00000013	addi	x0,x0,0	  x0:0x00000000
       61705000	      6169	800026b0	00000013	addi	x0,x0,0	  x0:0x00000000
       61715000	      6170	800026b4	43667313	andi	x6,x12,1078	 x12:0x00000100  x6=0x00000000
       61725000	      6171	800026b8	00b95db3	srl	x27,x18,x11	 x18:0x00000000 x11:0x3f8bc684 x27=0x00000000
       61735000	      6172	800026bc	0166cfb3	xor	x31,x13,x22	 x13:0xaf41c58c x22:0x343f101d x31=0x9b7ed591
       61745000	      6173	800026c0	03cb4863	blt	x22,x28,800026f0	 x22:0x343f101d x28:0x6d164000
       61755000	      6174	00000000	00000013	addi	x0,x0,0	  x0:0x00000000
       61765000	      6175	800026ec	00000013	addi	x0,x0,0	  x0:0x00000000
       61775000	      6176	800026f0	01ac5d93	srli	x27,x24,0x1a	 x24:0x00000001 x27=0x00000000
       61785000	      6177	800026f4	b64c0997	auipc	x19,0xb64c0	 x19=0x364c26f0
       61795000	      6178	800026f8	41c25c93	srai	x25,x4,0x1c	  x4:0x00000000 x25=0x00000000
       61805000	      6179	800026fc	01379833	sll	x16,x15,x19	 x15:0x80009fc4 x19:0x364c26f0 x16=0x9fc40000
       61815000	      6180	80002700	00035213	srli	x4,x6,0x0	  x6:0x00000000  x4=0x00000000
       61825000	      6181	80002704	00000013	addi	x0,x0,0	  x0:0x00000000
       61835000	      6182	80002708	017d39b3	sltu	x19,x26,x23	 x26:0x00000004 x23:0x00000000 x19=0x00000000
       61845000	      6183	8000270c	03524063	blt	x4,x21,8000272c	  x4:0x00000000 x21:0xfffffd3e
       61855000	      6184	80002710	d3895c97	auipc	x25,0xd3895	 x25=0x5389770c
       61865000	      6185	80002714	0305c463	blt	x11,x16,8000273c	 x11:0x3f8bc684 x16:0x9fc40000
       61875000	      6186	80002718	76b4ef37	lui	x30,0x76b4e	 x30=0x76b4e000
       61885000	      6187	8000271c	4a70ec93	ori	x25,x1,1191	  x1:0x00000100 x25=0x000005a7
       61895000	      6188	80002720	d4f9ec37	lui	x24,0xd4f9e	 x24=0xd4f9e000
       61905000	      6189	80002724	00000013	addi	x0,x0,0	  x0:0x00000000
       61915000	      6190	80002728	0063a733	slt	x14,x7,x6	  x7:0x00000101  x6:0x00000000 x14=0x00000000
       61925000	      6191	8000272c	66246313	ori	x6,x8,1634	  x8:0x490031e4  x6=0x490037e6
       61935000	      6192	80002730	0073de93	srli	x29,x7,0x7	  x7:0x00000101 x29=0x00000002
       61945000	      6193	80002734	d9028113	addi	x2,x5,-624	  x5:0x00000001  x2=0xfffffd91
       61955000	      6194	80002738	00661613	slli	x12,x12,0x6	 x12:0x00000100 x12=0x00004000
       61965000	      6195	8000273c	01b332b3	sltu	x5,x6,x27	  x6:0x490037e6 x27:0x00000000  x5=0x00000000
       61975000	      6196	80002740	02ed9463	bne	x27,x14,80002768	 x27:0x00000000 x14:0x00000000
       61985000	      6197	80002744	9bdb6c93	ori	x25,x22,-1603	 x22:0x343f101d x25=0xfffff9bd
       61995000	      6198	80002748	017ba333	slt	x6,x23,x23	 x23:0x00000000 x23:0x00000000  x6=0x00000000
       62005000	      6199	8000274c	05580863	beq	x16,x21,8000279c	 x16:0x9fc40000 x21:0xfffffd3e
       62015000	      6200	80002750	017c9d93	slli	x27,x25,0x17	 x25:0xfffff9bd x27=0xde800000
       62025000	      6201	80002754	404a5193	srai	x3,x20,0x4	 x20:0x00000001  x3=0x00000000
       62035000	      6202	80002758	03914463	blt	x2,x25,80002780	  x2:0xfffffd91 x25:0xfffff9bd
       62045000	      6203	8000275c	ed8dff93	andi	x31,x27,-296	 x27:0xde800000 x31=0xde800000
       62055000	      6204	80002760	a3393bb7	lui	x23,0xa3393	 x23=0xa3393000
       62065000	      6205	80002764	0154afb3	slt	x31,x9,x21	  x9:0x00000000 x21:0xfffffd3e x31=0x00000000
       62075000	      6206	80002768	3278f813	andi	x16,x17,807	 x17:0x80009f2c x16=0x00000324
       62085000	      6207	8000276c	00cc5a33	srl	x20,x24,x12	 x24:0xd4f9e000 x12:0x00004000 x20=0xd4f9e000
       62095000	      6208	80002770	01458f33	add	x30,x11,x20	 x11:0x3f8bc684 x20:0xd4f9e000 x30=0x1485a684
       62105000	      6209	80002774	014ce033	or	x0,x25,x20	 x25:0xfffff9bd x20:0xd4f9e000
       62115000	      6210	80002778	0663c493	xori	x9,x7,102	  x7:0x00000101  x9=0x00000167
       62125000	      6211	8000277c	0128fa33	and	x20,x17,x18	 x17:0x80009f2c x18:0x00000000 x20=0x00000000
       62135000	      6212	80002780	01d199b3	sll	x19,x3,x29	  x3:0x00000000 x29:0x00000002 x19=0x00000000
       62145000	      6213	80002784	009eeab3	or	x21,x29,x9	 x29:0x00000002  x9:0x00000167 x21=0x00000167
       62155000	      6214	80002788	0131a433	slt	x8,x3,x19	  x3:0x00000000 x19:0x00000000  x8=0x00000000
       62165000	      6215	8000278c	018cca63	blt	x25,x24,800027a0	 x25:0xfffff9bd x24:0xd4f9e000
       62175000	      6216	80002790	6573ad93	slti	x27,x7,1623	  x7:0x00000101 x27=0x00000001
       62185000	      6217	80002794	00000013	addi	x0,x0,0	  x0:0x00000000
       62195000	      6218	80002798	02486063	bltu	x16,x4,800027b8	 x16:0x00000324  x4:0x00000000
       62205000	      6219	8000279c	4071d913	srai	x18,x3,0x7	  x3:0x00000000 x18=0x00000000
       62215000	      6220	800027a0	254cae13	slti	x28,x25,596	 x25:0xfffff9bd x28=0x00000001
       62225000	      6221	800027a4	026f5663	bge	x30,x6,800027d0	 x30:0x1485a684  x6:0x00000000
       62235000	      6222	00000000	00000013	addi	x0,x0,0	  x0:0x00000000
       62245000	      6223	800027cc	00000013	addi	x0,x0,0	  x0:0x00000000
       62255000	      6224	800027d0	40220b33	sub	x22,x4,x2	  x4:0x00000000  x2:0xfffffd91 x22=0x0000026f
       62265000	      6225	800027d4	05aa0263	beq	x20,x26,80002818	 x20:0x00000000 x26:0x00000004
       62275000	      6226	800027d8	000b5533	srl	x10,x22,x0	 x22:0x0000026f  x0:0x00000000 x10=0x0000026f
       62285000	      6227	800027dc	01ef9633	sll	x12,x31,x30	 x31:0x00000000 x30:0x1485a684 x12=0x00000000
       62295000	      6228	800027e0	035afe63	bgeu	x21,x21,8000281c	 x21:0x00000167 x21:0x00000167
       62305000	      6229	00000000	00000013	addi	x0,x0,0	  x0:0x00000000
       62315000	      6230	80002818	00000013	addi	x0,x0,0	  x0:0x00000000
       62325000	      6231	8000281c	00054f33	xor	x30,x10,x0	 x10:0x0000026f  x0:0x00000000 x30=0x0000026f
       62335000	      6232	80002820	0086feb3	and	x29,x13,x8	 x13:0xaf41c58c  x8:0x00000000 x29=0x00000000
       62345000	      6233	80002824	c6ec3913	sltiu	x18,x24,-914	 x24:0xd4f9e000 x18=0x00000001
       62355000	      6234	80002828	214e4597	auipc	x11,0x214e4	 x11=0xa14e6824
       62365000	      6235	8000282c	13754e97	auipc	x29,0x13754	 x29=0x93756828
       62375000	      6236	80002830	003d4fb3	xor	x31,x26,x3	 x26:0x00000004  x3:0x00000000 x31=0x00000004
       62385000	      6237	80002834	012cd233	srl	x4,x25,x18	 x25:0xfffff9bd x18:0x00000001  x4=0x7ffffcde
       62395000	      6238	80002838	04ed0463	beq	x26,x14,80002880	 x26:0x00000004 x14:0x00000000
       62405000	      6239	8000283c	0002d463	bge	x5,x0,80002844	  x5:0x00000000  x0:0x00000000
       62415000	      6240	00000000	00000013	addi	x0,x0,0	  x0:0x00000000
       62425000	      6241	80002840	00000013	addi	x0,x0,0	  x0:0x00000000
       62435000	      6242	80002844	001b1713	slli	x14,x22,0x1	 x22:0x0000026f x14=0x000004de
       62445000	      6243	80002848	01901c93	slli	x25,x0,0x19	  x0:0x00000000 x25=0x00000000
       62455000	      6244	8000284c	640b6b13	ori	x22,x22,1600	 x22:0x0000026f x22=0x0000066f
       62465000	      6245	80002850	e9b23313	sltiu	x6,x4,-357	  x4:0x7ffffcde  x6=0x00000001
       62475000	      6246	80002854	01df9eb3	sll	x29,x31,x29	 x31:0x00000004 x29:0x93756828 x29=0x00000400
       62485000	      6247	80002858	40205433	sra	x8,x0,x2	  x0:0x00000000  x2:0xfffffd91  x8=0x00000000
       62495000	      6248	8000285c	03a7ee63	bltu	x15,x26,80002898	 x15:0x80009fc4 x26:0x00000004
       62505000	      6249	80002860	0b8d2f93	slti	x31,x26,184	 x26:0x00000004 x31=0x00000001
       62515000	      6250	80002864	011159b3	srl	x19,x2,x17	  x2:0xfffffd91 x17:0x80009f2c x19=0x000fffff
       62525000	      6251	80002868	e2a93593	sltiu	x11,x18,-470	 x18:0x00000001 x11=0x00000001
       62535000	      6252	8000286c	4011d013	srai	x0,x3,0x1	  x3:0x00000000
       62545000	      6253	80002870	30760b13	addi	x22,x12,775	 x12:0x00000000 x22=0x00000307
       62555000	      6254	80002874	00000013	addi	x0,x0,0	  x0:0x00000000
       62565000	      6255	80002878	41e95e93	srai	x29,x18,0x1e	 x18:0x00000001 x29=0x00000000
       62575000	      6256	8000287c	004bdcb3	srl	x25,x23,x4	 x23:0xa3393000  x4:0x7ffffcde x25=0x00000002
       62585000	      6257	80002880	00ab7463	bgeu	x22,x10,80002888	 x22:0x00000307 x10:0x0000026f
       62595000	      6258	00000000	00000013	addi	x0,x0,0	  x0:0x00000000
       62605000	      6259	80002884	00000013	addi	x0,x0,0	  x0:0x00000000
       62615000	      6260	80002888	00bf6a63	bltu	x30,x11,8000289c	 x30:0x0000026f x11:0x00000001
       62625000	      6261	8000288c	ee5f2293	slti	x5,x30,-283	 x30:0x0000026f  x5=0x00000000
       62635000	      6262	80002890	03caf063	bgeu	x21,x28,800028b0	 x21:0x00000167 x28:0x00000001
       62645000	      6263	00000000	00000013	addi	x0,x0,0	  x0:0x00000000
       62655000	      6264	800028ac	00000013	addi	x0,x0,0	  x0:0x00000000
       62665000	      6265	800028b0	03c99863	bne	x19,x28,800028e0	 x19:0x000fffff x28:0x00000001
       62675000	      6266	00000000	00000013	addi	x0,x0,0	  x0:0x00000000
       62685000	      6267	800028dc	00000013	addi	x0,x0,0	  x0:0x00000000
       62695000	      6268	800028e0	01a533b3	sltu	x7,x10,x26	 x10:0x0000026f x26:0x00000004  x7=0x00000000
       62705000	      6269	800028e4	41448133	sub	x2,x9,x20	  x9:0x00000167 x20:0x00000000  x2=0x00000167
       62715000	      6270	800028e8	402bdab3	sra	x21,x23,x2	 x23:0xa3393000  x2:0x00000167 x21=0xff467260
       62725000	      6271	800028ec	409050b3	sra	x1,x0,x9	  x0:0x00000000  x9:0x00000167  x1=0x00000000
       62735000	      6272	800028f0	01cf2f33	slt	x30,x30,x28	 x30:0x0000026f x28:0x00000001 x30=0x00000000
       62745000	      6273	800028f4	01d7a4b3	slt	x9,x15,x29	 x15:0x80009fc4 x29:0x00000000  x9=0x00000001
       62755000	      6274	800028f8	003d6633	or	x12,x26,x3	 x26:0x00000004  x3:0x00000000 x12=0x00000004
       62765000	      6275	800028fc	5b01bf13	sltiu	x30,x3,1456	  x3:0x00000000 x30=0x00000001
       62775000	      6276	80002900	010d5313	srli	x6,x26,0x10	 x26:0x00000004  x6=0x00000000
       62785000	      6277	80002904	00766c33	or	x24,x12,x7	 x12:0x00000004  x7:0x00000000 x24=0x00000004
       62795000	      6278	80002908	03bb0c63	beq	x22,x27,80002940	 x22:0x00000307 x27:0x00000001
       62805000	      6279	8000290c	0180bb33	sltu	x22,x1,x24	  x1:0x00000000 x24:0x00000004 x22=0x00000001
       62815000	      6280	80002910	01c10263	beq	x2,x28,80002914	  x2:0x00000167 x28:0x00000001
       62825000	      6281	80002914	01a7b6b3	sltu	x13,x15,x26	 x15:0x80009fc4 x26:0x00000004 x13=0x00000000
       62835000	      6282	80002918	00000013	addi	x0,x0,0	  x0:0x00000000
       62845000	      6283	8000291c	01cc3333	sltu	x6,x24,x28	 x24:0x00000004 x28:0x00000001  x6=0x00000000
       62855000	      6284	80002920	01039413	slli	x8,x7,0x10	  x7:0x00000000  x8=0x00000000
       62865000	      6285	80002924	00deccb3	xor	x25,x29,x13	 x29:0x00000000 x13:0x00000000 x25=0x00000000
       62875000	      6286	80002928	00b633b3	sltu	x7,x12,x11	 x12:0x00000004 x11:0x00000001  x7=0x00000000
       62885000	      6287	8000292c	01a78863	beq	x15,x26,8000293c	 x15:0x80009fc4 x26:0x00000004
       62895000	      6288	80002930	411783b3	sub	x7,x15,x17	 x15:0x80009fc4 x17:0x80009f2c  x7=0x00000098
       62905000	      6289	80002934	ba123d93	sltiu	x27,x4,-1119	  x4:0x7ffffcde x27=0x00000001
       62915000	      6290	80002938	8fc5c813	xori	x16,x11,-1796	 x11:0x00000001 x16=0xfffff8fd
       62925000	      6291	8000293c	015a09b3	add	x19,x20,x21	 x20:0x00000000 x21:0xff467260 x19=0xff467260
       62935000	      6292	80002940	40d30e33	sub	x28,x6,x13	  x6:0x00000000 x13:0x00000000 x28=0x00000000
       62945000	      6293	80002944	03621063	bne	x4,x22,80002964	  x4:0x7ffffcde x22:0x00000001
       62955000	      6294	00000000	00000013	addi	x0,x0,0	  x0:0x00000000
       62965000	      6295	80002960	00000013	addi	x0,x0,0	  x0:0x00000000
       62975000	      6296	80002964	01f26633	or	x12,x4,x31	  x4:0x7ffffcde x31:0x00000001 x12=0x7ffffcdf
       62985000	      6297	80002968	224d7297	auipc	x5,0x224d7	  x5=0xa24d9964
       62995000	      6298	8000296c	014965b3	or	x11,x18,x20	 x18:0x00000001 x20:0x00000000 x11=0x00000001
       63005000	      6299	80002970	02044e63	blt	x8,x0,800029ac	  x8:0x00000000  x0:0x00000000
       63015000	      6300	80002974	403eda13	srai	x20,x29,0x3	 x29:0x00000000 x20=0x00000000
       63025000	      6301	80002978	00000013	addi	x0,x0,0	  x0:0x00000000
       63035000	      6302	8000297c	00dd96b3	sll	x13,x27,x13	 x27:0x00000001 x13:0x00000000 x13=0x00000001
       63045000	      6303	80002980	01539013	slli	x0,x7,0x15	  x7:0x00000098
       63055000	      6304	80002984	40c35293	srai	x5,x6,0xc	  x6:0x00000000  x5=0x00000000
       63065000	      6305	80002988	22f2f313	andi	x6,x5,559	  x5:0x00000000  x6=0x00000000
       63075000	      6306	8000298c	02bcc863	blt	x25,x11,800029bc	 x25:0x00000000 x11:0x00000001
       63085000	      6307	00000000	00000013	addi	x0,x0,0	  x0:0x00000000
       63095000	      6308	800029b8	00000013	addi	x0,x0,0	  x0:0x00000000
       63105000	      6309	800029bc	480d3e13	sltiu	x28,x26,1152	 x26:0x00000004 x28=0x00000001
       63115000	      6310	800029c0	00e6ef33	or	x30,x13,x14	 x13:0x00000001 x14:0x000004de x30=0x000004df
       63125000	      6311	800029c4	00cf1fb3	sll	x31,x30,x12	 x30:0x000004df x12:0x7ffffcdf x31=0x80000000
       63135000	      6312	800029c8	e922f393	andi	x7,x5,-366	  x5:0x00000000  x7=0x00000000
       63145000	      6313	800029cc	41325233	sra	x4,x4,x19	  x4:0x7ffffcde x19:0xff467260  x4=0x7ffffcde
       63155000	      6314	800029d0	037c9c63	bne	x25,x23,80002a08	 x25:0x00000000 x23:0xa3393000
       63165000	      6315	00000000	00000013	addi	x0,x0,0	  x0:0x00000000
       63175000	      6316	80002a04	00000013	addi	x0,x0,0	  x0:0x00000000
       63185000	      6317	80002a08	00a11eb3	sll	x29,x2,x10	  x2:0x00000167 x10:0x0000026f x29=0x00b38000
       63195000	      6318	80002a0c	04fa0593	addi	x11,x20,79	 x20:0x00000000 x11=0x0000004f
       63205000	      6319	80002a10	0320f663	bgeu	x1,x18,80002a3c	  x1:0x00000000 x18:0x00000001
       63215000	      6320	80002a14	86a046b7	lui	x13,0x86a04	 x13=0x86a04000
       63225000	      6321	80002a18	3e57a593	slti	x11,x15,997	 x15:0x80009fc4 x11=0x00000001
       63235000	      6322	80002a1c	00d83333	sltu	x6,x16,x13	 x16:0xfffff8fd x13:0x86a04000  x6=0x00000000
       63245000	      6323	80002a20	0072e0b3	or	x1,x5,x7	  x5:0x00000000  x7:0x00000000  x1=0x00000000
       63255000	      6324	80002a24	00709993	slli	x19,x1,0x7	  x1:0x00000000 x19=0x00000000
       63265000	      6325	80002a28	00d41933	sll	x18,x8,x13	  x8:0x00000000 x13:0x86a04000 x18=0x00000000
       63275000	      6326	80002a2c	40f156b3	sra	x13,x2,x15	  x2:0x00000167 x15:0x80009fc4 x13=0x00000016
       63285000	      6327	80002a30	02f89c63	bne	x17,x15,80002a68	 x17:0x80009f2c x15:0x80009fc4
       63295000	      6328	00000000	00000013	addi	x0,x0,0	  x0:0x00000000
       63305000	      6329	80002a64	00000013	addi	x0,x0,0	  x0:0x00000000
       63315000	      6330	80002a68	404086b3	sub	x13,x1,x4	  x1:0x00000000  x4:0x7ffffcde x13=0x80000322
       63325000	      6331	80002a6c	d6750113	addi	x2,x10,-665	 x10:0x0000026f  x2=0xffffffd6
       63335000	      6332	80002a70	419fd033	sra	x0,x31,x25	 x31:0x80000000 x25:0x00000000
       63345000	      6333	80002a74	01e4e463	bltu	x9,x30,80002a7c	  x9:0x00000001 x30:0x000004df
       63355000	      6334	00000000	00000013	addi	x0,x0,0	  x0:0x00000000
       63365000	      6335	80002a78	00000013	addi	x0,x0,0	  x0:0x00000000
       63375000	      6336	80002a7c	7b917a17	auipc	x20,0x7b917	 x20=0xfb919a78
       63385000	      6337	80002a80	0ebb6663	bltu	x22,x11,80002b6c	 x22:0x00000001 x11:0x00000001
       63395000	      6338	80002a84	dee2e993	ori	x19,x5,-530	  x5:0x00000000 x19=0xfffffdee
       63405000	      6339	80002a88	00a0ecb3	or	x25,x1,x10	  x1:0x00000000 x10:0x0000026f x25=0x0000026f
       63415000	      6340	80002a8c	41690f33	sub	x30,x18,x22	 x18:0x00000000 x22:0x00000001 x30=0xffffffff
       63425000	      6341	80002a90	4141d813	srai	x16,x3,0x14	  x3:0x00000000 x16=0x00000000
       63435000	      6342	80002a94	00006917	auipc	x18,0x6	 x18=0x80008a90
       63445000	      6343	80002a98	2ad90913	addi	x18,x18,685	 x18:0x80008a90 x18=0x80008d3d
       63455000	      6344	80002a9c	00aad713	srli	x14,x21,0xa	 x21:0xff467260 x14=0x003fd19c
       63465000	      6345	80002aa0	06595503	lhu	x10,101(x18)	 x18:0x80008d3d x10=0x0000d5b0 PA:0x80008da2
       63475000	      6346	80002aa4	0ab94a03	lbu	x20,171(x18)	 x18:0x80008d3d x20=0x00000055 PA:0x80008de8
       63485000	      6347	80002aa8	ff894f83	lbu	x31,-8(x18)	 x18:0x80008d3d x31=0x000000ea PA:0x80008d35
       63495000	      6348	80002aac	02694a83	lbu	x21,38(x18)	 x18:0x80008d3d x21=0x00000003 PA:0x80008d63
       63505000	      6349	80002ab0	07994a83	lbu	x21,121(x18)	 x18:0x80008d3d x21=0x0000006d PA:0x80008db6
       63515000	      6350	80002ab4	f5490b23	sb	x20,-170(x18)	 x18:0x80008d3d x20:0x00000055 PA:0x80008c93
       63525000	      6351	80002ab8	33fc1c97	auipc	x25,0x33fc1	 x25=0xb3fc3ab4
       63535000	      6352	80002abc	439a6e93	ori	x29,x20,1081	 x20:0x00000055 x29=0x0000047d
       63545000	      6353	80002ac0	f8490923	sb	x4,-110(x18)	 x18:0x80008d3d  x4:0x7ffffcde PA:0x80008ccf
       63555000	      6354	80002ac4	00d83533	sltu	x10,x16,x13	 x16:0x00000000 x13:0x80000322 x10=0x00000001
       63565000	      6355	80002ac8	4013df33	sra	x30,x7,x1	  x7:0x00000000  x1:0x00000000 x30=0x00000000
       63575000	      6356	80002acc	08d91b83	lh	x23,141(x18)	 x18:0x80008d3d x23=0xffff8500 PA:0x80008dca
       63585000	      6357	80002ad0	41b95c93	srai	x25,x18,0x1b	 x18:0x80008d3d x25=0xfffffff0
       63595000	      6358	80002ad4	00f606b3	add	x13,x12,x15	 x12:0x7ffffcdf x15:0x80009fc4 x13=0x00009ca3
       63605000	      6359	80002ad8	f5791e83	lh	x29,-169(x18)	 x18:0x80008d3d x29=0x0000792a PA:0x80008c94
       63615000	      6360	80002adc	f3f94b83	lbu	x23,-193(x18)	 x18:0x80008d3d x23=0x000000bc PA:0x80008c7c
       63625000	      6361	80002ae0	05e90ca3	sb	x30,89(x18)	 x18:0x80008d3d x30:0x00000000 PA:0x80008d96
       63635000	      6362	80002ae4	faa90103	lb	x2,-86(x18)	 x18:0x80008d3d  x2=0xffffffdd PA:0x80008ce7
       63645000	      6363	80002ae8	f4a94e83	lbu	x29,-182(x18)	 x18:0x80008d3d x29=0x00000092 PA:0x80008c87
       63655000	      6364	80002aec	87607093	andi	x1,x0,-1930	  x0:0x00000000  x1=0x00000000
       63665000	      6365	80002af0	248ec813	xori	x16,x29,584	 x29:0x00000092 x16=0x000002da
       63675000	      6366	80002af4	00000013	addi	x0,x0,0	  x0:0x00000000
       63685000	      6367	80002af8	00974ab3	xor	x21,x14,x9	 x14:0x003fd19c  x9:0x00000001 x21=0x003fd19d
       63695000	      6368	80002afc	00325a93	srli	x21,x4,0x3	  x4:0x7ffffcde x21=0x0fffff9b
       63705000	      6369	80002b00	04b91ea3	sh	x11,93(x18)	 x18:0x80008d3d x11:0x00000001 PA:0x80008d9a
       63715000	      6370	80002b04	fdb90983	lb	x19,-37(x18)	 x18:0x80008d3d x19=0xffffffd4 PA:0x80008d18
       63725000	      6371	80002b08	0a894b03	lbu	x22,168(x18)	 x18:0x80008d3d x22=0x00000084 PA:0x80008de5
       63735000	      6372	80002b0c	0ca90503	lb	x10,202(x18)	 x18:0x80008d3d x10=0xffffff82 PA:0x80008e07
       63745000	      6373	80002b10	4198dfb3	sra	x31,x17,x25	 x17:0x80009f2c x25:0xfffffff0 x31=0xffff8000
       63755000	      6374	80002b14	01ca7f33	and	x30,x20,x28	 x20:0x00000055 x28:0x00000001 x30=0x00000001
       63765000	      6375	80002b18	fd994b83	lbu	x23,-39(x18)	 x18:0x80008d3d x23=0x00000069 PA:0x80008d16
       63775000	      6376	80002b1c	08a94703	lbu	x14,138(x18)	 x18:0x80008d3d x14=0x000000de PA:0x80008dc7
       63785000	      6377	80002b20	41bbde93	srai	x29,x23,0x1b	 x23:0x00000069 x29=0x00000000
       63795000	      6378	80002b24	00b94183	lbu	x3,11(x18)	 x18:0x80008d3d  x3=0x00000025 PA:0x80008d48
       63805000	      6379	80002b28	f7413c93	sltiu	x25,x2,-140	  x2:0xffffffdd x25=0x00000000
       63815000	      6380	80002b2c	f2f95503	lhu	x10,-209(x18)	 x18:0x80008d3d x10=0x0000b803 PA:0x80008c6c
       63825000	      6381	80002b30	04390023	sb	x3,64(x18)	 x18:0x80008d3d  x3:0x00000025 PA:0x80008d7d
       63835000	      6382	80002b34	ff396113	ori	x2,x18,-13	 x18:0x80008d3d  x2=0xffffffff
       63845000	      6383	80002b38	008744b3	xor	x9,x14,x8	 x14:0x000000de  x8:0x00000000  x9=0x000000de
       63855000	      6384	80002b3c	0e995b03	lhu	x22,233(x18)	 x18:0x80008d3d x22=0x0000abd7 PA:0x80008e26
       63865000	      6385	80002b40	00090403	lb	x8,0(x18)	 x18:0x80008d3d  x8=0xffffff8d PA:0x80008d3d
       63875000	      6386	80002b44	04e94b03	lbu	x22,78(x18)	 x18:0x80008d3d x22=0x000000b7 PA:0x80008d8b
       63885000	      6387	80002b48	01d90383	lb	x7,29(x18)	 x18:0x80008d3d  x7=0x00000061 PA:0x80008d5a
       63895000	      6388	80002b4c	05690823	sb	x22,80(x18)	 x18:0x80008d3d x22:0x000000b7 PA:0x80008d8d
       63905000	      6389	80002b50	14a6bd93	sltiu	x27,x13,330	 x13:0x00009ca3 x27=0x00000000
       63915000	      6390	80002b54	012a7ab3	and	x21,x20,x18	 x20:0x00000055 x18:0x80008d3d x21=0x00000015
       63925000	      6391	80002b58	02617063	bgeu	x2,x6,80002b78	  x2:0xffffffff  x6:0x00000000
       63935000	      6392	00000000	00000013	addi	x0,x0,0	  x0:0x00000000
       63945000	      6393	80002b74	00000013	addi	x0,x0,0	  x0:0x00000000
       63955000	      6394	80002b78	00c29193	slli	x3,x5,0xc	  x5:0x00000000  x3=0x00000000
       63965000	      6395	80002b7c	03574063	blt	x14,x21,80002b9c	 x14:0x000000de x21:0x00000015
       63975000	      6396	80002b80	00000013	addi	x0,x0,0	  x0:0x00000000
       63985000	      6397	80002b84	417fd213	srai	x4,x31,0x17	 x31:0xffff8000  x4=0xffffffff
       63995000	      6398	80002b88	00531713	slli	x14,x6,0x5	  x6:0x00000000 x14=0x00000000
       64005000	      6399	80002b8c	8ed85f17	auipc	x30,0x8ed85	 x30=0x0ed87b88
       64015000	      6400	80002b90	0188adb3	slt	x27,x17,x24	 x17:0x80009f2c x24:0x00000004 x27=0x00000001
       64025000	      6401	80002b94	0215d463	bge	x11,x1,80002bbc	 x11:0x00000001  x1:0x00000000
       64035000	      6402	00000000	00000013	addi	x0,x0,0	  x0:0x00000000
       64045000	      6403	80002bb8	00000013	addi	x0,x0,0	  x0:0x00000000
       64055000	      6404	80002bbc	025b7063	bgeu	x22,x5,80002bdc	 x22:0x000000b7  x5:0x00000000
       64065000	      6405	00000000	00000013	addi	x0,x0,0	  x0:0x00000000
       64075000	      6406	80002bd8	00000013	addi	x0,x0,0	  x0:0x00000000
       64085000	      6407	80002bdc	006b5f33	srl	x30,x22,x6	 x22:0x000000b7  x6:0x00000000 x30=0x000000b7
       64095000	      6408	80002be0	41675913	srai	x18,x14,0x16	 x14:0x00000000 x18=0x00000000
       64105000	      6409	80002be4	02bf4863	blt	x30,x11,80002c14	 x30:0x000000b7 x11:0x00000001
       64115000	      6410	80002be8	d4c5f413	andi	x8,x11,-692	 x11:0x00000001  x8=0x00000000
       64125000	      6411	80002bec	006e8db3	add	x27,x29,x6	 x29:0x00000000  x6:0x00000000 x27=0x00000000
       64135000	      6412	80002bf0	00000013	addi	x0,x0,0	  x0:0x00000000
       64145000	      6413	80002bf4	01c106b3	add	x13,x2,x28	  x2:0xffffffff x28:0x00000001 x13=0x00000000
       64155000	      6414	80002bf8	003bee33	or	x28,x23,x3	 x23:0x00000069  x3:0x00000000 x28=0x00000069
       64165000	      6415	80002bfc	590d4313	xori	x6,x26,1424	 x26:0x00000004  x6=0x00000594
       64175000	      6416	80002c00	017fb2b3	sltu	x5,x31,x23	 x31:0xffff8000 x23:0x00000069  x5=0x00000000
       64185000	      6417	80002c04	05527463	bgeu	x4,x21,80002c4c	  x4:0xffffffff x21:0x00000015
       64195000	      6418	00000000	00000013	addi	x0,x0,0	  x0:0x00000000
       64205000	      6419	80002c48	00000013	addi	x0,x0,0	  x0:0x00000000
       64215000	      6420	80002c4c	3e2bc393	xori	x7,x23,994	 x23:0x00000069  x7=0x0000038b
       64225000	      6421	80002c50	0e19b713	sltiu	x14,x19,225	 x19:0xffffffd4 x14=0x00000000
       64235000	      6422	80002c54	01c37fb3	and	x31,x6,x28	  x6:0x00000594 x28:0x00000069 x31=0x00000000
       64245000	      6423	80002c58	017ad493	srli	x9,x21,0x17	 x21:0x00000015  x9=0x00000000
       64255000	      6424	80002c5c	03dd0e63	beq	x26,x29,80002c98	 x26:0x00000004 x29:0x00000000
       64265000	      6425	80002c60	014b1313	slli	x6,x22,0x14	 x22:0x000000b7  x6=0x0b700000
       64275000	      6426	80002c64	869412b7	lui	x5,0x86941	  x5=0x86941000
       64285000	      6427	80002c68	04777863	bgeu	x14,x7,80002cb8	 x14:0x00000000  x7:0x0000038b
       64295000	      6428	80002c6c	002c5333	srl	x6,x24,x2	 x24:0x00000004  x2:0xffffffff  x6=0x00000000
       64305000	      6429	80002c70	013bb933	sltu	x18,x23,x19	 x23:0x00000069 x19:0xffffffd4 x18=0x00000001
       64315000	      6430	80002c74	4a1de193	ori	x3,x27,1185	 x27:0x00000000  x3=0x000004a1
       64325000	      6431	80002c78	cf3b1517	auipc	x10,0xcf3b1	 x10=0x4f3b3c74
       64335000	      6432	80002c7c	cbe34f97	auipc	x31,0xcbe34	 x31=0x4be36c78
       64345000	      6433	80002c80	41545f93	srai	x31,x8,0x15	  x8:0x00000000 x31=0x00000000
       64355000	      6434	80002c84	00ed83b3	add	x7,x27,x14	 x27:0x00000000 x14:0x00000000  x7=0x00000000
       64365000	      6435	80002c88	ce513313	sltiu	x6,x2,-795	  x2:0xffffffff  x6=0x00000000
       64375000	      6436	80002c8c	00ddbe33	sltu	x28,x27,x13	 x27:0x00000000 x13:0x00000000 x28=0x00000000
       64385000	      6437	80002c90	011e46b3	xor	x13,x28,x17	 x28:0x00000000 x17:0x80009f2c x13=0x80009f2c
       64395000	      6438	80002c94	02a2c863	blt	x5,x10,80002cc4	  x5:0x86941000 x10:0x4f3b3c74
       64405000	      6439	00000000	00000013	addi	x0,x0,0	  x0:0x00000000
       64415000	      6440	80002cc0	00000013	addi	x0,x0,0	  x0:0x00000000
       64425000	      6441	80002cc4	009cb633	sltu	x12,x25,x9	 x25:0x00000000  x9:0x00000000 x12=0x00000000
       64435000	      6442	80002cc8	726f8f93	addi	x31,x31,1830	 x31:0x00000000 x31=0x00000726
       64445000	      6443	80002ccc	a00a3693	sltiu	x13,x20,-1536	 x20:0x00000055 x13=0x00000001
       64455000	      6444	80002cd0	412209b3	sub	x19,x4,x18	  x4:0xffffffff x18:0x00000001 x19=0xfffffffe
       64465000	      6445	80002cd4	d0008813	addi	x16,x1,-768	  x1:0x00000000 x16=0xfffffd00
       64475000	      6446	80002cd8	00000013	addi	x0,x0,0	  x0:0x00000000
       64485000	      6447	80002cdc	71148a97	auipc	x21,0x71148	 x21=0xf114acd8
       64495000	      6448	80002ce0	0344c263	blt	x9,x20,80002d04	  x9:0x00000000 x20:0x00000055
       64505000	      6449	00000000	00000013	addi	x0,x0,0	  x0:0x00000000
       64515000	      6450	80002d00	00000013	addi	x0,x0,0	  x0:0x00000000
       64525000	      6451	80002d04	a7f4a737	lui	x14,0xa7f4a	 x14=0xa7f4a000
       64535000	      6452	80002d08	01a49b33	sll	x22,x9,x26	  x9:0x00000000 x26:0x00000004 x22=0x00000000
       64545000	      6453	80002d0c	5331a413	slti	x8,x3,1331	  x3:0x000004a1  x8=0x00000001
       64555000	      6454	80002d10	01449463	bne	x9,x20,80002d18	  x9:0x00000000 x20:0x00000055
       64565000	      6455	00000000	00000013	addi	x0,x0,0	  x0:0x00000000
       64575000	      6456	80002d14	00000013	addi	x0,x0,0	  x0:0x00000000
       64585000	      6457	80002d18	014d9b13	slli	x22,x27,0x14	 x27:0x00000000 x22=0x00000000
       64595000	      6458	80002d1c	4b0bc593	xori	x11,x23,1200	 x23:0x00000069 x11=0x000004d9
       64605000	      6459	80002d20	017d1313	slli	x6,x26,0x17	 x26:0x00000004  x6=0x02000000
       64615000	      6460	80002d24	00011bb3	sll	x23,x2,x0	  x2:0xffffffff  x0:0x00000000 x23=0xffffffff
       64625000	      6461	80002d28	016c7863	bgeu	x24,x22,80002d38	 x24:0x00000004 x22:0x00000000
       64635000	      6462	00000000	00000013	addi	x0,x0,0	  x0:0x00000000
       64645000	      6463	80002d34	00000013	addi	x0,x0,0	  x0:0x00000000
       64655000	      6464	80002d38	45ba7613	andi	x12,x20,1115	 x20:0x00000055 x12=0x00000051
       64665000	      6465	80002d3c	03a54c63	blt	x10,x26,80002d74	 x10:0x4f3b3c74 x26:0x00000004
       64675000	      6466	80002d40	021f8463	beq	x31,x1,80002d68	 x31:0x00000726  x1:0x00000000
       64685000	      6467	80002d44	00105c93	srli	x25,x0,0x1	  x0:0x00000000 x25=0x00000000
       64695000	      6468	80002d48	40e3d693	srai	x13,x7,0xe	  x7:0x00000000 x13=0x00000000
       64705000	      6469	80002d4c	41788db3	sub	x27,x17,x23	 x17:0x80009f2c x23:0xffffffff x27=0x80009f2d
       64715000	      6470	80002d50	7ef78093	addi	x1,x15,2031	 x15:0x80009fc4  x1=0x8000a7b3
       64725000	      6471	80002d54	018c81b3	add	x3,x25,x24	 x25:0x00000000 x24:0x00000004  x3=0x00000004
       64735000	      6472	80002d58	005aa3b3	slt	x7,x21,x5	 x21:0xf114acd8  x5:0x86941000  x7=0x00000000
       64745000	      6473	80002d5c	41abd0b3	sra	x1,x23,x26	 x23:0xffffffff x26:0x00000004  x1=0xffffffff
       64755000	      6474	80002d60	197e8e97	auipc	x29,0x197e8	 x29=0x997ead5c
       64765000	      6475	80002d64	01eb1033	sll	x0,x22,x30	 x22:0x00000000 x30:0x000000b7
       64775000	      6476	80002d68	007cd293	srli	x5,x25,0x7	 x25:0x00000000  x5=0x00000000
       64785000	      6477	80002d6c	a8207a93	andi	x21,x0,-1406	  x0:0x00000000 x21=0x00000000
       64795000	      6478	80002d70	00000013	addi	x0,x0,0	  x0:0x00000000
       64805000	      6479	80002d74	015f9e13	slli	x28,x31,0x15	 x31:0x00000726 x28=0xe4c00000
       64815000	      6480	80002d78	03770663	beq	x14,x23,80002da4	 x14:0xa7f4a000 x23:0xffffffff
       64825000	      6481	80002d7c	5fa96713	ori	x14,x18,1530	 x18:0x00000001 x14=0x000005fb
       64835000	      6482	80002d80	019dba33	sltu	x20,x27,x25	 x27:0x80009f2d x25:0x00000000 x20=0x00000000
       64845000	      6483	80002d84	0014c463	blt	x9,x1,80002d8c	  x9:0x00000000  x1:0xffffffff
       64855000	      6484	80002d88	012966b3	or	x13,x18,x18	 x18:0x00000001 x18:0x00000001 x13=0x00000001
       64865000	      6485	80002d8c	0054fa63	bgeu	x9,x5,80002da0	  x9:0x00000000  x5:0x00000000
       64875000	      6486	00000000	00000013	addi	x0,x0,0	  x0:0x00000000
       64885000	      6487	80002d9c	00000013	addi	x0,x0,0	  x0:0x00000000
       64895000	      6488	80002da0	006b0ab3	add	x21,x22,x6	 x22:0x00000000  x6:0x02000000 x21=0x02000000
       64905000	      6489	80002da4	001a5b13	srli	x22,x20,0x1	 x20:0x00000000 x22=0x00000000
       64915000	      6490	80002da8	402553b3	sra	x7,x10,x2	 x10:0x4f3b3c74  x2:0xffffffff  x7=0x00000000
       64925000	      6491	80002dac	d75ce0b7	lui	x1,0xd75ce	  x1=0xd75ce000
       64935000	      6492	80002db0	dd190193	addi	x3,x18,-559	 x18:0x00000001  x3=0xfffffdd2
       64945000	      6493	80002db4	3e310813	addi	x16,x2,995	  x2:0xffffffff x16=0x000003e2
       64955000	      6494	80002db8	02116063	bltu	x2,x1,80002dd8	  x2:0xffffffff  x1:0xd75ce000
       64965000	      6495	80002dbc	00179113	slli	x2,x15,0x1	 x15:0x80009fc4  x2=0x00013f88
       64975000	      6496	80002dc0	00e68033	add	x0,x13,x14	 x13:0x00000001 x14:0x000005fb
       64985000	      6497	80002dc4	400e0833	sub	x16,x28,x0	 x28:0xe4c00000  x0:0x00000000 x16=0xe4c00000
       64995000	      6498	80002dc8	7637e493	ori	x9,x15,1891	 x15:0x80009fc4  x9=0x80009fe7
       65005000	      6499	80002dcc	00a61f93	slli	x31,x12,0xa	 x12:0x00000051 x31=0x00014400
       65015000	      6500	80002dd0	001db833	sltu	x16,x27,x1	 x27:0x80009f2d  x1:0xd75ce000 x16=0x00000001
       65025000	      6501	80002dd4	8c838597	auipc	x11,0x8c838	 x11=0x0c83add0
       65035000	      6502	80002dd8	02b98e63	beq	x19,x11,80002e14	 x19:0xfffffffe x11:0x0c83add0
       65045000	      6503	80002ddc	00c58033	add	x0,x11,x12	 x11:0x0c83add0 x12:0x00000051
       65055000	      6504	80002de0	025b7663	bgeu	x22,x5,80002e0c	 x22:0x00000000  x5:0x00000000
       65065000	      6505	00000000	00000013	addi	x0,x0,0	  x0:0x00000000
       65075000	      6506	80002e08	00000013	addi	x0,x0,0	  x0:0x00000000
       65085000	      6507	80002e0c	013452b3	srl	x5,x8,x19	  x8:0x00000001 x19:0xfffffffe  x5=0x00000000
       65095000	      6508	80002e10	01f32c33	slt	x24,x6,x31	  x6:0x02000000 x31:0x00014400 x24=0x00000000
       65105000	      6509	80002e14	03a1c063	blt	x3,x26,80002e34	  x3:0xfffffdd2 x26:0x00000004
       65115000	      6510	00000000	00000013	addi	x0,x0,0	  x0:0x00000000
       65125000	      6511	80002e30	00000013	addi	x0,x0,0	  x0:0x00000000
       65135000	      6512	80002e34	01913433	sltu	x8,x2,x25	  x2:0x00013f88 x25:0x00000000  x8=0x00000000
       65145000	      6513	80002e38	01471033	sll	x0,x14,x20	 x14:0x000005fb x20:0x00000000
       65155000	      6514	80002e3c	0ac9e263	bltu	x19,x12,80002ee0	 x19:0xfffffffe x12:0x00000051
       65165000	      6515	80002e40	0b54c863	blt	x9,x21,80002ef0	  x9:0x80009fe7 x21:0x02000000
       65175000	      6516	00000000	00000013	addi	x0,x0,0	  x0:0x00000000
       65185000	      6517	80002eec	00000013	addi	x0,x0,0	  x0:0x00000000
       65195000	      6518	80002ef0	02551063	bne	x10,x5,80002f10	 x10:0x4f3b3c74  x5:0x00000000
       65205000	      6519	00000000	00000013	addi	x0,x0,0	  x0:0x00000000
       65215000	      6520	80002f0c	00000013	addi	x0,x0,0	  x0:0x00000000
       65225000	      6521	80002f10	b1a57c13	andi	x24,x10,-1254	 x10:0x4f3b3c74 x24=0x4f3b3810
       65235000	      6522	80002f14	407d5d93	srai	x27,x26,0x7	 x26:0x00000004 x27=0x00000000
       65245000	      6523	80002f18	05b38863	beq	x7,x27,80002f68	  x7:0x00000000 x27:0x00000000
       65255000	      6524	00000000	00000013	addi	x0,x0,0	  x0:0x00000000
       65265000	      6525	80002f64	00000013	addi	x0,x0,0	  x0:0x00000000
       65275000	      6526	80002f68	14e3f913	andi	x18,x7,334	  x7:0x00000000 x18=0x00000000
       65285000	      6527	80002f6c	00a1a633	slt	x12,x3,x10	  x3:0xfffffdd2 x10:0x4f3b3c74 x12=0x00000001
       65295000	      6528	80002f70	01b21f33	sll	x30,x4,x27	  x4:0xffffffff x27:0x00000000 x30=0xffffffff
       65305000	      6529	80002f74	00000013	addi	x0,x0,0	  x0:0x00000000
       65315000	      6530	80002f78	03bee063	bltu	x29,x27,80002f98	 x29:0x997ead5c x27:0x00000000
       65325000	      6531	80002f7c	a323ee13	ori	x28,x7,-1486	  x7:0x00000000 x28=0xfffffa32
       65335000	      6532	80002f80	0027c3b3	xor	x7,x15,x2	 x15:0x80009fc4  x2:0x00013f88  x7=0x8001a04c
       65345000	      6533	80002f84	af3f8093	addi	x1,x31,-1293	 x31:0x00014400  x1=0x00013ef3
       65355000	      6534	80002f88	00aad663	bge	x21,x10,80002f94	 x21:0x02000000 x10:0x4f3b3c74
       65365000	      6535	80002f8c	3262a113	slti	x2,x5,806	  x5:0x00000000  x2=0x00000001
       65375000	      6536	80002f90	40dbda93	srai	x21,x23,0xd	 x23:0xffffffff x21=0xffffffff
       65385000	      6537	80002f94	40b05233	sra	x4,x0,x11	  x0:0x00000000 x11:0x0c83add0  x4=0x00000000
       65395000	      6538	80002f98	40ca5b13	srai	x22,x20,0xc	 x20:0x00000000 x22=0x00000000
       65405000	      6539	80002f9c	40118533	sub	x10,x3,x1	  x3:0xfffffdd2  x1:0x00013ef3 x10=0xfffebedf
       65415000	      6540	80002fa0	4020d633	sra	x12,x1,x2	  x1:0x00013ef3  x2:0x00000001 x12=0x00009f79
       65425000	      6541	80002fa4	40985db3	sra	x27,x16,x9	 x16:0x00000001  x9:0x80009fe7 x27=0x00000000
       65435000	      6542	80002fa8	03b65c63	bge	x12,x27,80002fe0	 x12:0x00009f79 x27:0x00000000
       65445000	      6543	00000000	00000013	addi	x0,x0,0	  x0:0x00000000
       65455000	      6544	80002fdc	00000013	addi	x0,x0,0	  x0:0x00000000
       65465000	      6545	80002fe0	d2287813	andi	x16,x16,-734	 x16:0x00000001 x16=0x00000000
       65475000	      6546	80002fe4	41135833	sra	x16,x6,x17	  x6:0x02000000 x17:0x80009f2c x16=0x00002000
       65485000	      6547	80002fe8	00ae93b3	sll	x7,x29,x10	 x29:0x997ead5c x10:0xfffebedf  x7=0x00000000
       65495000	      6548	80002fec	411dd913	srai	x18,x27,0x11	 x27:0x00000000 x18=0x00000000
       65505000	      6549	80002ff0	00000013	addi	x0,x0,0	  x0:0x00000000
       65515000	      6550	80002ff4	01ba76b3	and	x13,x20,x27	 x20:0x00000000 x27:0x00000000 x13=0x00000000
       65525000	      6551	80002ff8	0005dbb3	srl	x23,x11,x0	 x11:0x0c83add0  x0:0x00000000 x23=0x0c83add0
       65535000	      6552	80002ffc	c3f2fb13	andi	x22,x5,-961	  x5:0x00000000 x22=0x00000000
       65545000	      6553	80003000	67ece593	ori	x11,x25,1662	 x25:0x00000000 x11=0x0000067e
       65555000	      6554	80003004	00ff9db3	sll	x27,x31,x15	 x31:0x00014400 x15:0x80009fc4 x27=0x00144000
       65565000	      6555	80003008	01f422b3	slt	x5,x8,x31	  x8:0x00000000 x31:0x00014400  x5=0x00000001
       65575000	      6556	8000300c	eba12513	slti	x10,x2,-326	  x2:0x00000001 x10=0x00000000
       65585000	      6557	80003010	02cb8e63	beq	x23,x12,8000304c	 x23:0x0c83add0 x12:0x00009f79
       65595000	      6558	80003014	02a6ec63	bltu	x13,x10,8000304c	 x13:0x00000000 x10:0x00000000
       65605000	      6559	80003018	01048bb3	add	x23,x9,x16	  x9:0x80009fe7 x16:0x00002000 x23=0x8000bfe7
       65615000	      6560	8000301c	41f4d693	srai	x13,x9,0x1f	  x9:0x80009fe7 x13=0xffffffff
       65625000	      6561	80003020	34acea13	ori	x20,x25,842	 x25:0x00000000 x20=0x0000034a
       65635000	      6562	80003024	c996bb13	sltiu	x22,x13,-871	 x13:0xffffffff x22=0x00000000
       65645000	      6563	80003028	013be2b3	or	x5,x23,x19	 x23:0x8000bfe7 x19:0xfffffffe  x5=0xffffffff
       65655000	      6564	8000302c	409a5733	sra	x14,x20,x9	 x20:0x0000034a  x9:0x80009fe7 x14=0x00000006
       65665000	      6565	80003030	002fd933	srl	x18,x31,x2	 x31:0x00014400  x2:0x00000001 x18=0x0000a200
       65675000	      6566	80003034	00186a63	bltu	x16,x1,80003048	 x16:0x00002000  x1:0x00013ef3
       65685000	      6567	00000000	00000013	addi	x0,x0,0	  x0:0x00000000
       65695000	      6568	80003044	00000013	addi	x0,x0,0	  x0:0x00000000
       65705000	      6569	80003048	03c25063	bge	x4,x28,80003068	  x4:0x00000000 x28:0xfffffa32
       65715000	      6570	00000000	00000013	addi	x0,x0,0	  x0:0x00000000
       65725000	      6571	80003064	00000013	addi	x0,x0,0	  x0:0x00000000
       65735000	      6572	80003068	00bd4c33	xor	x24,x26,x11	 x26:0x00000004 x11:0x0000067e x24=0x0000067a
       65745000	      6573	8000306c	0328d663	bge	x17,x18,80003098	 x17:0x80009f2c x18:0x0000a200
       65755000	      6574	80003070	aa20ea37	lui	x20,0xaa20e	 x20=0xaa20e000
       65765000	      6575	80003074	01171e93	slli	x29,x14,0x11	 x14:0x00000006 x29=0x000c0000
       65775000	      6576	80003078	41fed533	sra	x10,x29,x31	 x29:0x000c0000 x31:0x00014400 x10=0x000c0000
       65785000	      6577	8000307c	42d88813	addi	x16,x17,1069	 x17:0x80009f2c x16=0x8000a359
       65795000	      6578	80003080	815a6017	auipc	x0,0x815a6	
       65805000	      6579	80003084	01e39733	sll	x14,x7,x30	  x7:0x00000000 x30:0xffffffff x14=0x00000000
       65815000	      6580	80003088	02ca7863	bgeu	x20,x12,800030b8	 x20:0xaa20e000 x12:0x00009f79
       65825000	      6581	00000000	00000013	addi	x0,x0,0	  x0:0x00000000
       65835000	      6582	800030b4	00000013	addi	x0,x0,0	  x0:0x00000000
       65845000	      6583	800030b8	02267063	bgeu	x12,x2,800030d8	 x12:0x00009f79  x2:0x00000001
       65855000	      6584	00000000	00000013	addi	x0,x0,0	  x0:0x00000000
       65865000	      6585	800030d4	00000013	addi	x0,x0,0	  x0:0x00000000
       65875000	      6586	800030d8	00388333	add	x6,x17,x3	 x17:0x80009f2c  x3:0xfffffdd2  x6=0x80009cfe
       65885000	      6587	800030dc	02054063	blt	x10,x0,800030fc	 x10:0x000c0000  x0:0x00000000
       65895000	      6588	800030e0	01dc10b3	sll	x1,x24,x29	 x24:0x0000067a x29:0x000c0000  x1=0x0000067a
       65905000	      6589	800030e4	019b8463	beq	x23,x25,800030ec	 x23:0x8000bfe7 x25:0x00000000
       65915000	      6590	800030e8	01784ab3	xor	x21,x16,x23	 x16:0x8000a359 x23:0x8000bfe7 x21=0x00001cbe
       65925000	      6591	800030ec	3f168593	addi	x11,x13,1009	 x13:0xffffffff x11=0x000003f0
       65935000	      6592	800030f0	01872cb3	slt	x25,x14,x24	 x14:0x00000000 x24:0x0000067a x25=0x00000001
       65945000	      6593	800030f4	02310063	beq	x2,x3,80003114	  x2:0x00000001  x3:0xfffffdd2
       65955000	      6594	800030f8	020d6663	bltu	x26,x0,80003124	 x26:0x00000004  x0:0x00000000
       65965000	      6595	800030fc	000b6463	bltu	x22,x0,80003104	 x22:0x00000000  x0:0x00000000
       65975000	      6596	80003100	0bebbb37	lui	x22,0xbebb	 x22=0x0bebb000
       65985000	      6597	80003104	00163933	sltu	x18,x12,x1	 x12:0x00009f79  x1:0x0000067a x18=0x00000000
       65995000	      6598	80003108	cf840613	addi	x12,x8,-776	  x8:0x00000000 x12=0xfffffcf8
       66005000	      6599	8000310c	018b72b3	and	x5,x22,x24	 x22:0x0bebb000 x24:0x0000067a  x5=0x00000000
       66015000	      6600	80003110	03099063	bne	x19,x16,80003130	 x19:0xfffffffe x16:0x8000a359
       66025000	      6601	00000000	00000013	addi	x0,x0,0	  x0:0x00000000
       66035000	      6602	8000312c	00000013	addi	x0,x0,0	  x0:0x00000000
       66045000	      6603	80003130	c9fb3593	sltiu	x11,x22,-865	 x22:0x0bebb000 x11=0x00000001
       66055000	      6604	80003134	a1006593	ori	x11,x0,-1520	  x0:0x00000000 x11=0xfffffa10
       66065000	      6605	80003138	087cc013	xori	x0,x25,135	 x25:0x00000001
       66075000	      6606	8000313c	0127eab3	or	x21,x15,x18	 x15:0x80009fc4 x18:0x00000000 x21=0x80009fc4
       66085000	      6607	80003140	0305c463	blt	x11,x16,80003168	 x11:0xfffffa10 x16:0x8000a359
       66095000	      6608	80003144	5af13413	sltiu	x8,x2,1455	  x2:0x00000001  x8=0x00000001
       66105000	      6609	80003148	01b31613	slli	x12,x6,0x1b	  x6:0x80009cfe x12=0xf0000000
       66115000	      6610	8000314c	00b42233	slt	x4,x8,x11	  x8:0x00000001 x11:0xfffffa10  x4=0x00000000
       66125000	      6611	80003150	058d0863	beq	x26,x24,800031a0	 x26:0x00000004 x24:0x0000067a
       66135000	      6612	80003154	41dbd193	srai	x3,x23,0x1d	 x23:0x8000bfe7  x3=0xfffffffc
       66145000	      6613	80003158	000f5b33	srl	x22,x30,x0	 x30:0xffffffff  x0:0x00000000 x22=0xffffffff
       66155000	      6614	8000315c	04675463	bge	x14,x6,800031a4	 x14:0x00000000  x6:0x80009cfe
       66165000	      6615	00000000	00000013	addi	x0,x0,0	  x0:0x00000000
       66175000	      6616	800031a0	00000013	addi	x0,x0,0	  x0:0x00000000
       66185000	      6617	800031a4	01f33933	sltu	x18,x6,x31	  x6:0x80009cfe x31:0x00014400 x18=0x00000000
       66195000	      6618	800031a8	41acd693	srai	x13,x25,0x1a	 x25:0x00000001 x13=0x00000000
       66205000	      6619	800031ac	01884733	xor	x14,x16,x24	 x16:0x8000a359 x24:0x0000067a x14=0x8000a523
       66215000	      6620	800031b0	efddea13	ori	x20,x27,-259	 x27:0x00144000 x20=0xfffffefd
       66225000	      6621	800031b4	41b45f13	srai	x30,x8,0x1b	  x8:0x00000001 x30=0x00000000
       66235000	      6622	800031b8	039f4e63	blt	x30,x25,800031f4	 x30:0x00000000 x25:0x00000001
       66245000	      6623	00000000	00000013	addi	x0,x0,0	  x0:0x00000000
       66255000	      6624	800031f0	00000013	addi	x0,x0,0	  x0:0x00000000
       66265000	      6625	800031f4	01d50f33	add	x30,x10,x29	 x10:0x000c0000 x29:0x000c0000 x30=0x00180000
       66275000	      6626	800031f8	00eadf33	srl	x30,x21,x14	 x21:0x80009fc4 x14:0x8000a523 x30=0x100013f8
       66285000	      6627	800031fc	0071cdb3	xor	x27,x3,x7	  x3:0xfffffffc  x7:0x00000000 x27=0xfffffffc
       66295000	      6628	80003200	fee46593	ori	x11,x8,-18	  x8:0x00000001 x11=0xffffffef
       66305000	      6629	80003204	43e61cb7	lui	x25,0x43e61	 x25=0x43e61000
       66315000	      6630	80003208	f2312f93	slti	x31,x2,-221	  x2:0x00000001 x31=0x00000000
       66325000	      6631	8000320c	54c54013	xori	x0,x10,1356	 x10:0x000c0000
       66335000	      6632	80003210	011f1d93	slli	x27,x30,0x11	 x30:0x100013f8 x27=0x27f00000
       66345000	      6633	80003214	00000013	addi	x0,x0,0	  x0:0x00000000
       66355000	      6634	80003218	00328db3	add	x27,x5,x3	  x5:0x00000000  x3:0xfffffffc x27=0xfffffffc
       66365000	      6635	8000321c	01291a13	slli	x20,x18,0x12	 x18:0x00000000 x20=0x00000000
       66375000	      6636	80003220	02136663	bltu	x6,x1,8000324c	  x6:0x80009cfe  x1:0x0000067a
       66385000	      6637	80003224	677b6593	ori	x11,x22,1655	 x22:0xffffffff x11=0xffffffff
       66395000	      6638	80003228	38f3afb7	lui	x31,0x38f3a	 x31=0x38f3a000
       66405000	      6639	8000322c	00dc4fb3	xor	x31,x24,x13	 x24:0x0000067a x13:0x00000000 x31=0x0000067a
       66415000	      6640	80003230	0302cc63	blt	x5,x16,80003268	  x5:0x00000000 x16:0x8000a359
       66425000	      6641	80003234	00f41463	bne	x8,x15,8000323c	  x8:0x00000001 x15:0x80009fc4
       66435000	      6642	00000000	00000013	addi	x0,x0,0	  x0:0x00000000
       66445000	      6643	80003238	00000013	addi	x0,x0,0	  x0:0x00000000
       66455000	      6644	8000323c	9bc82293	slti	x5,x16,-1604	 x16:0x8000a359  x5=0x00000001
       66465000	      6645	80003240	02b0fe63	bgeu	x1,x11,8000327c	  x1:0x0000067a x11:0xffffffff
       66475000	      6646	80003244	4564c713	xori	x14,x9,1110	  x9:0x80009fe7 x14=0x80009bb1
       66485000	      6647	80003248	00a17a63	bgeu	x2,x10,8000325c	  x2:0x00000001 x10:0x000c0000
       66495000	      6648	8000324c	5047f937	lui	x18,0x5047f	 x18=0x5047f000
       66505000	      6649	80003250	01766f33	or	x30,x12,x23	 x12:0xf0000000 x23:0x8000bfe7 x30=0xf000bfe7
       66515000	      6650	80003254	4997f993	andi	x19,x15,1177	 x15:0x80009fc4 x19=0x00000480
       66525000	      6651	80003258	dc9b6613	ori	x12,x22,-567	 x22:0xffffffff x12=0xffffffff
       66535000	      6652	8000325c	a5ab93b7	lui	x7,0xa5ab9	  x7=0xa5ab9000
       66545000	      6653	80003260	00a99333	sll	x6,x19,x10	 x19:0x00000480 x10:0x000c0000  x6=0x00000480
       66555000	      6654	80003264	01663333	sltu	x6,x12,x22	 x12:0xffffffff x22:0xffffffff  x6=0x00000000
       66565000	      6655	80003268	036f6c63	bltu	x30,x22,800032a0	 x30:0xf000bfe7 x22:0xffffffff
       66575000	      6656	00000000	00000013	addi	x0,x0,0	  x0:0x00000000
       66585000	      6657	8000329c	00000013	addi	x0,x0,0	  x0:0x00000000
       66595000	      6658	800032a0	00b536b3	sltu	x13,x10,x11	 x10:0x000c0000 x11:0xffffffff x13=0x00000001
       66605000	      6659	800032a4	058dc263	blt	x27,x24,800032e8	 x27:0xfffffffc x24:0x0000067a
       66615000	      6660	00000000	00000013	addi	x0,x0,0	  x0:0x00000000
       66625000	      6661	800032e4	00000013	addi	x0,x0,0	  x0:0x00000000
       66635000	      6662	800032e8	033c8463	beq	x25,x19,80003310	 x25:0x43e61000 x19:0x00000480
       66645000	      6663	800032ec	360d1b17	auipc	x22,0x360d1	 x22=0xb60d42e8
       66655000	      6664	800032f0	001479b3	and	x19,x8,x1	  x8:0x00000001  x1:0x0000067a x19=0x00000000
       66665000	      6665	800032f4	fdb9c213	xori	x4,x19,-37	 x19:0x00000000  x4=0xffffffdb
       66675000	      6666	800032f8	01a7ef33	or	x30,x15,x26	 x15:0x80009fc4 x26:0x00000004 x30=0x80009fc4
       66685000	      6667	800032fc	005705b3	add	x11,x14,x5	 x14:0x80009bb1  x5:0x00000001 x11=0x80009bb2
       66695000	      6668	80003300	02989e63	bne	x17,x9,8000333c	 x17:0x80009f2c  x9:0x80009fe7
       66705000	      6669	00000000	00000013	addi	x0,x0,0	  x0:0x00000000
       66715000	      6670	80003338	00000013	addi	x0,x0,0	  x0:0x00000000
       66725000	      6671	8000333c	03027e63	bgeu	x4,x16,80003378	  x4:0xffffffdb x16:0x8000a359
       66735000	      6672	00000000	00000013	addi	x0,x0,0	  x0:0x00000000
       66745000	      6673	80003374	00000013	addi	x0,x0,0	  x0:0x00000000
       66755000	      6674	80003378	404c5d93	srai	x27,x24,0x4	 x24:0x0000067a x27=0x00000067
       66765000	      6675	8000337c	016ee263	bltu	x29,x22,80003380	 x29:0x000c0000 x22:0xb60d42e8
       66775000	      6676	00000000	00000013	addi	x0,x0,0	  x0:0x00000000
       66785000	      6677	8000337c	00000013	addi	x0,x0,0	  x0:0x00000000
       66795000	      6678	80003380	004215b3	sll	x11,x4,x4	  x4:0xffffffdb  x4:0xffffffdb x11=0xd8000000
       66805000	      6679	80003384	e60b0493	addi	x9,x22,-416	 x22:0xb60d42e8  x9=0xb60d4148
       66815000	      6680	80003388	00000013	addi	x0,x0,0	  x0:0x00000000
       66825000	      6681	8000338c	40980733	sub	x14,x16,x9	 x16:0x8000a359  x9:0xb60d4148 x14=0xc9f36211
       66835000	      6682	80003390	03459063	bne	x11,x20,800033b0	 x11:0xd8000000 x20:0x00000000
       66845000	      6683	00000000	00000013	addi	x0,x0,0	  x0:0x00000000
       66855000	      6684	800033ac	00000013	addi	x0,x0,0	  x0:0x00000000
       66865000	      6685	800033b0	0048c333	xor	x6,x17,x4	 x17:0x80009f2c  x4:0xffffffdb  x6=0x7fff60f7
       66875000	      6686	800033b4	a52df193	andi	x3,x27,-1454	 x27:0x00000067  x3=0x00000042
       66885000	      6687	800033b8	01428bb3	add	x23,x5,x20	  x5:0x00000001 x20:0x00000000 x23=0x00000001
       66895000	      6688	800033bc	00d59b33	sll	x22,x11,x13	 x11:0xd8000000 x13:0x00000001 x22=0xb0000000
       66905000	      6689	800033c0	038f9463	bne	x31,x24,800033e8	 x31:0x0000067a x24:0x0000067a
       66915000	      6690	800033c4	56d9fa93	andi	x21,x19,1389	 x19:0x00000000 x21=0x00000000
       66925000	      6691	800033c8	01b2f863	bgeu	x5,x27,800033d8	  x5:0x00000001 x27:0x00000067
       66935000	      6692	800033cc	039e6463	bltu	x28,x25,800033f4	 x28:0xfffffa32 x25:0x43e61000
       66945000	      6693	800033d0	009d49b3	xor	x19,x26,x9	 x26:0x00000004  x9:0xb60d4148 x19=0xb60d414c
       66955000	      6694	800033d4	00220b33	add	x22,x4,x2	  x4:0xffffffdb  x2:0x00000001 x22=0xffffffdc
       66965000	      6695	800033d8	6cf2f593	andi	x11,x5,1743	  x5:0x00000001 x11=0x00000001
       66975000	      6696	800033dc	011dd433	srl	x8,x27,x17	 x27:0x00000067 x17:0x80009f2c  x8=0x00000000
       66985000	      6697	800033e0	01b98a33	add	x20,x19,x27	 x19:0xb60d414c x27:0x00000067 x20=0xb60d41b3
       66995000	      6698	800033e4	90046493	ori	x9,x8,-1792	  x8:0x00000000  x9=0xfffff900
       67005000	      6699	800033e8	029ff863	bgeu	x31,x9,80003418	 x31:0x0000067a  x9:0xfffff900
       67015000	      6700	800033ec	05987463	bgeu	x16,x25,80003434	 x16:0x8000a359 x25:0x43e61000
       67025000	      6701	00000000	00000013	addi	x0,x0,0	  x0:0x00000000
       67035000	      6702	80003430	00000013	addi	x0,x0,0	  x0:0x00000000
       67045000	      6703	80003434	01c30463	beq	x6,x28,8000343c	  x6:0x7fff60f7 x28:0xfffffa32
       67055000	      6704	80003438	00610e33	add	x28,x2,x6	  x2:0x00000001  x6:0x7fff60f7 x28=0x7fff60f8
       67065000	      6705	8000343c	82574f93	xori	x31,x14,-2011	 x14:0xc9f36211 x31=0x360c9a34
       67075000	      6706	80003440	54e9b913	sltiu	x18,x19,1358	 x19:0xb60d414c x18=0x00000000
       67085000	      6707	80003444	6921c293	xori	x5,x3,1682	  x3:0x00000042  x5=0x000006d0
       67095000	      6708	80003448	48e0b493	sltiu	x9,x1,1166	  x1:0x0000067a  x9=0x00000000
       67105000	      6709	8000344c	0148df93	srli	x31,x17,0x14	 x17:0x80009f2c x31=0x00000800
       67115000	      6710	80003450	6239fe13	andi	x28,x19,1571	 x19:0xb60d414c x28=0x00000000
       67125000	      6711	80003454	01597733	and	x14,x18,x21	 x18:0x00000000 x21:0x00000000 x14=0x00000000
       67135000	      6712	80003458	001864b3	or	x9,x16,x1	 x16:0x8000a359  x1:0x0000067a  x9=0x8000a77b
       67145000	      6713	8000345c	01e90e33	add	x28,x18,x30	 x18:0x00000000 x30:0x80009fc4 x28=0x80009fc4
       67155000	      6714	80003460	02d64263	blt	x12,x13,80003484	 x12:0xffffffff x13:0x00000001
       67165000	      6715	00000000	00000013	addi	x0,x0,0	  x0:0x00000000
       67175000	      6716	80003480	00000013	addi	x0,x0,0	  x0:0x00000000
       67185000	      6717	80003484	fba3f537	lui	x10,0xfba3f	 x10=0xfba3f000
       67195000	      6718	80003488	03f1ec63	bltu	x3,x31,800034c0	  x3:0x00000042 x31:0x00000800
       67205000	      6719	00000000	00000013	addi	x0,x0,0	  x0:0x00000000
       67215000	      6720	800034bc	00000013	addi	x0,x0,0	  x0:0x00000000
       67225000	      6721	800034c0	a3004d97	auipc	x27,0xa3004	 x27=0x230074bc
       67235000	      6722	800034c4	dd26a813	slti	x16,x13,-558	 x13:0x00000001 x16=0x00000000
       67245000	      6723	800034c8	03a08063	beq	x1,x26,800034e8	  x1:0x0000067a x26:0x00000004
       67255000	      6724	800034cc	23849137	lui	x2,0x23849	  x2=0x23849000
       67265000	      6725	800034d0	a1aaebb7	lui	x23,0xa1aae	 x23=0xa1aae000
       67275000	      6726	800034d4	00c10a33	add	x20,x2,x12	  x2:0x23849000 x12:0xffffffff x20=0x23848fff
       67285000	      6727	800034d8	03efc463	blt	x31,x30,80003500	 x31:0x00000800 x30:0x80009fc4
       67295000	      6728	800034dc	da9ba637	lui	x12,0xda9ba	 x12=0xda9ba000
       67305000	      6729	800034e0	039e1063	bne	x28,x25,80003500	 x28:0x80009fc4 x25:0x43e61000
       67315000	      6730	00000000	00000013	addi	x0,x0,0	  x0:0x00000000
       67325000	      6731	800034fc	00000013	addi	x0,x0,0	  x0:0x00000000
       67335000	      6732	80003500	02770263	beq	x14,x7,80003524	 x14:0x00000000  x7:0xa5ab9000
       67345000	      6733	80003504	00acde33	srl	x28,x25,x10	 x25:0x43e61000 x10:0xfba3f000 x28=0x43e61000
       67355000	      6734	80003508	40f5d0b3	sra	x1,x11,x15	 x11:0x00000001 x15:0x80009fc4  x1=0x00000000
       67365000	      6735	8000350c	00000013	addi	x0,x0,0	  x0:0x00000000
       67375000	      6736	80003510	01c001b3	add	x3,x0,x28	  x0:0x00000000 x28:0x43e61000  x3=0x43e61000
       67385000	      6737	80003514	0298fc63	bgeu	x17,x9,8000354c	 x17:0x80009f2c  x9:0x8000a77b
       67395000	      6738	80003518	0097c133	xor	x2,x15,x9	 x15:0x80009fc4  x9:0x8000a77b  x2=0x000038bf
       67405000	      6739	8000351c	00ed7863	bgeu	x26,x14,8000352c	 x26:0x00000004 x14:0x00000000
       67415000	      6740	00000000	00000013	addi	x0,x0,0	  x0:0x00000000
       67425000	      6741	80003528	00000013	addi	x0,x0,0	  x0:0x00000000
       67435000	      6742	8000352c	03a24463	blt	x4,x26,80003554	  x4:0xffffffdb x26:0x00000004
       67445000	      6743	00000000	00000013	addi	x0,x0,0	  x0:0x00000000
       67455000	      6744	80003550	00000013	addi	x0,x0,0	  x0:0x00000000
       67465000	      6745	80003554	00ea46b3	xor	x13,x20,x14	 x20:0x23848fff x14:0x00000000 x13=0x23848fff
       67475000	      6746	80003558	03f00863	beq	x0,x31,80003588	  x0:0x00000000 x31:0x00000800
       67485000	      6747	8000355c	3c4c3b93	sltiu	x23,x24,964	 x24:0x0000067a x23=0x00000000
       67495000	      6748	80003560	018c7733	and	x14,x24,x24	 x24:0x0000067a x24:0x0000067a x14=0x0000067a
       67505000	      6749	80003564	002826b3	slt	x13,x16,x2	 x16:0x00000000  x2:0x000038bf x13=0x00000001
       67515000	      6750	80003568	00f49093	slli	x1,x9,0xf	  x9:0x8000a77b  x1=0x53bd8000
       67525000	      6751	8000356c	002f0463	beq	x30,x2,80003574	 x30:0x80009fc4  x2:0x000038bf
       67535000	      6752	80003570	f4da0b13	addi	x22,x20,-179	 x20:0x23848fff x22=0x23848f4c
       67545000	      6753	80003574	01254133	xor	x2,x10,x18	 x10:0xfba3f000 x18:0x00000000  x2=0xfba3f000
       67555000	      6754	80003578	2c076113	ori	x2,x14,704	 x14:0x0000067a  x2=0x000006fa
       67565000	      6755	8000357c	00c112b3	sll	x5,x2,x12	  x2:0x000006fa x12:0xda9ba000  x5=0x000006fa
       67575000	      6756	80003580	41660ab3	sub	x21,x12,x22	 x12:0xda9ba000 x22:0x23848f4c x21=0xb71710b4
       67585000	      6757	80003584	42d68313	addi	x6,x13,1069	 x13:0x00000001  x6=0x0000042e
       67595000	      6758	80003588	00ae0433	add	x8,x28,x10	 x28:0x43e61000 x10:0xfba3f000  x8=0x3f8a0000
       67605000	      6759	8000358c	0127d263	bge	x15,x18,80003590	 x15:0x80009fc4 x18:0x00000000
       67615000	      6760	80003590	010fb9b3	sltu	x19,x31,x16	 x31:0x00000800 x16:0x00000000 x19=0x00000000
       67625000	      6761	80003594	006dc533	xor	x10,x27,x6	 x27:0x230074bc  x6:0x0000042e x10=0x23007092
       67635000	      6762	80003598	bd6a8937	lui	x18,0xbd6a8	 x18=0xbd6a8000
       67645000	      6763	8000359c	b5ebf3b7	lui	x7,0xb5ebf	  x7=0xb5ebf000
       67655000	      6764	800035a0	01609313	slli	x6,x1,0x16	  x1:0x53bd8000  x6=0x00000000
       67665000	      6765	800035a4	01efc2b3	xor	x5,x31,x30	 x31:0x00000800 x30:0x80009fc4  x5=0x800097c4
       67675000	      6766	800035a8	c6a47513	andi	x10,x8,-918	  x8:0x3f8a0000 x10=0x3f8a0000
       67685000	      6767	800035ac	01f9a5b3	slt	x11,x19,x31	 x19:0x00000000 x31:0x00000800 x11=0x00000001
       67695000	      6768	800035b0	0128a633	slt	x12,x17,x18	 x17:0x80009f2c x18:0xbd6a8000 x12=0x00000001
       67705000	      6769	800035b4	519c4d93	xori	x27,x24,1305	 x24:0x0000067a x27=0x00000363
       67715000	      6770	800035b8	d5adc813	xori	x16,x27,-678	 x27:0x00000363 x16=0xfffffe39
       67725000	      6771	800035bc	019195b3	sll	x11,x3,x25	  x3:0x43e61000 x25:0x43e61000 x11=0x43e61000
       67735000	      6772	800035c0	68282237	lui	x4,0x68282	  x4=0x68282000
       67745000	      6773	800035c4	00000013	addi	x0,x0,0	  x0:0x00000000
       67755000	      6774	800035c8	75416b13	ori	x22,x2,1876	  x2:0x000006fa x22=0x000007fe
       67765000	      6775	800035cc	00f34933	xor	x18,x6,x15	  x6:0x00000000 x15:0x80009fc4 x18=0x80009fc4
       67775000	      6776	800035d0	00fe8eb3	add	x29,x29,x15	 x29:0x000c0000 x15:0x80009fc4 x29=0x800c9fc4
       67785000	      6777	800035d4	01319b93	slli	x23,x3,0x13	  x3:0x43e61000 x23=0x80000000
       67795000	      6778	800035d8	1bc62f37	lui	x30,0x1bc62	 x30=0x1bc62000
       67805000	      6779	800035dc	01b23633	sltu	x12,x4,x27	  x4:0x68282000 x27:0x00000363 x12=0x00000000
       67815000	      6780	800035e0	00000013	addi	x0,x0,0	  x0:0x00000000
       67825000	      6781	800035e4	01464c33	xor	x24,x12,x20	 x12:0x00000000 x20:0x23848fff x24=0x23848fff
       67835000	      6782	800035e8	00f046b3	xor	x13,x0,x15	  x0:0x00000000 x15:0x80009fc4 x13=0x80009fc4
       67845000	      6783	800035ec	00000013	addi	x0,x0,0	  x0:0x00000000
       67855000	      6784	800035f0	00b81433	sll	x8,x16,x11	 x16:0xfffffe39 x11:0x43e61000  x8=0xfffffe39
       67865000	      6785	800035f4	01bc70b3	and	x1,x24,x27	 x24:0x23848fff x27:0x00000363  x1=0x00000363
       67875000	      6786	800035f8	037ee463	bltu	x29,x23,80003620	 x29:0x800c9fc4 x23:0x80000000
       67885000	      6787	800035fc	032e8e63	beq	x29,x18,80003638	 x29:0x800c9fc4 x18:0x80009fc4
       67895000	      6788	80003600	41708633	sub	x12,x1,x23	  x1:0x00000363 x23:0x80000000 x12=0x80000363
       67905000	      6789	80003604	b668bfb7	lui	x31,0xb668b	 x31=0xb668b000
       67915000	      6790	80003608	8d34ef93	ori	x31,x9,-1837	  x9:0x8000a77b x31=0xfffffffb
       67925000	      6791	8000360c	00930f33	add	x30,x6,x9	  x6:0x00000000  x9:0x8000a77b x30=0x8000a77b
       67935000	      6792	80003610	01e3eb33	or	x22,x7,x30	  x7:0xb5ebf000 x30:0x8000a77b x22=0xb5ebf77b
       67945000	      6793	80003614	015d94b3	sll	x9,x27,x21	 x27:0x00000363 x21:0xb71710b4  x9=0x36300000
       67955000	      6794	80003618	004ad413	srli	x8,x21,0x4	 x21:0xb71710b4  x8=0x0b71710b
       67965000	      6795	8000361c	41a58033	sub	x0,x11,x26	 x11:0x43e61000 x26:0x00000004
       67975000	      6796	80003620	03ad1e63	bne	x26,x26,8000365c	 x26:0x00000004 x26:0x00000004
       67985000	      6797	80003624	0043d833	srl	x16,x7,x4	  x7:0xb5ebf000  x4:0x68282000 x16=0xb5ebf000
       67995000	      6798	80003628	608a4b93	xori	x23,x20,1544	 x20:0x23848fff x23=0x238489f7
       68005000	      6799	8000362c	00a28733	add	x14,x5,x10	  x5:0x800097c4 x10:0x3f8a0000 x14=0xbf8a97c4
       68015000	      6800	80003630	451ee613	ori	x12,x29,1105	 x29:0x800c9fc4 x12=0x800c9fd5
       68025000	      6801	80003634	00e22db3	slt	x27,x4,x14	  x4:0x68282000 x14:0xbf8a97c4 x27=0x00000000
       68035000	      6802	80003638	40c90eb3	sub	x29,x18,x12	 x18:0x80009fc4 x12:0x800c9fd5 x29=0xfff3ffef
       68045000	      6803	8000363c	01d73cb3	sltu	x25,x14,x29	 x14:0xbf8a97c4 x29:0xfff3ffef x25=0x00000001
       68055000	      6804	80003640	0120af33	slt	x30,x1,x18	  x1:0x00000363 x18:0x80009fc4 x30=0x00000000
       68065000	      6805	80003644	41240db3	sub	x27,x8,x18	  x8:0x0b71710b x18:0x80009fc4 x27=0x8b70d147
       68075000	      6806	80003648	00f6e233	or	x4,x13,x15	 x13:0x80009fc4 x15:0x80009fc4  x4=0x80009fc4
       68085000	      6807	8000364c	3ce07d93	andi	x27,x0,974	  x0:0x00000000 x27=0x00000000
       68095000	      6808	80003650	b96d5597	auipc	x11,0xb96d5	 x11=0x396d864c
       68105000	      6809	80003654	039fc663	blt	x31,x25,80003680	 x31:0xfffffffb x25:0x00000001
       68115000	      6810	00000000	00000013	addi	x0,x0,0	  x0:0x00000000
       68125000	      6811	8000367c	00000013	addi	x0,x0,0	  x0:0x00000000
       68135000	      6812	80003680	034cf063	bgeu	x25,x20,800036a0	 x25:0x00000001 x20:0x23848fff
       68145000	      6813	80003684	c110f693	andi	x13,x1,-1007	  x1:0x00000363 x13=0x00000001
       68155000	      6814	80003688	03e86c63	bltu	x16,x30,800036c0	 x16:0xb5ebf000 x30:0x00000000
       68165000	      6815	8000368c	1ba32f13	slti	x30,x6,442	  x6:0x00000000 x30=0x00000001
       68175000	      6816	80003690	41b8de13	srai	x28,x17,0x1b	 x17:0x80009f2c x28=0xfffffff0
       68185000	      6817	80003694	f6d3aa13	slti	x20,x7,-147	  x7:0xb5ebf000 x20=0x00000001
       68195000	      6818	80003698	d822cb13	xori	x22,x5,-638	  x5:0x800097c4 x22=0x7fff6a46
       68205000	      6819	8000369c	41a50133	sub	x2,x10,x26	 x10:0x3f8a0000 x26:0x00000004  x2=0x3f89fffc
       68215000	      6820	800036a0	05064463	blt	x12,x16,800036e8	 x12:0x800c9fd5 x16:0xb5ebf000
       68225000	      6821	00000000	00000013	addi	x0,x0,0	  x0:0x00000000
       68235000	      6822	800036e4	00000013	addi	x0,x0,0	  x0:0x00000000
       68245000	      6823	800036e8	00396db3	or	x27,x18,x3	 x18:0x80009fc4  x3:0x43e61000 x27=0xc3e69fc4
       68255000	      6824	800036ec	009a9313	slli	x6,x21,0x9	 x21:0xb71710b4  x6=0x2e216800
       68265000	      6825	800036f0	01e81513	slli	x10,x16,0x1e	 x16:0xb5ebf000 x10=0x00000000
       68275000	      6826	800036f4	018766b3	or	x13,x14,x24	 x14:0xbf8a97c4 x24:0x23848fff x13=0xbf8e9fff
       68285000	      6827	800036f8	00000013	addi	x0,x0,0	  x0:0x00000000
       68295000	      6828	800036fc	00b0eb33	or	x22,x1,x11	  x1:0x00000363 x11:0x396d864c x22=0x396d876f
       68305000	      6829	80003700	414155b3	sra	x11,x2,x20	  x2:0x3f89fffc x20:0x00000001 x11=0x1fc4fffe
       68315000	      6830	80003704	00b99813	slli	x16,x19,0xb	 x19:0x00000000 x16=0x00000000
       68325000	      6831	80003708	03a41463	bne	x8,x26,80003730	  x8:0x0b71710b x26:0x00000004
       68335000	      6832	00000000	00000013	addi	x0,x0,0	  x0:0x00000000
       68345000	      6833	8000372c	00000013	addi	x0,x0,0	  x0:0x00000000
       68355000	      6834	80003730	01ea1133	sll	x2,x20,x30	 x20:0x00000001 x30:0x00000001  x2=0x00000002
       68365000	      6835	80003734	00771533	sll	x10,x14,x7	 x14:0xbf8a97c4  x7:0xb5ebf000 x10=0xbf8a97c4
       68375000	      6836	80003738	01ebb0b3	sltu	x1,x23,x30	 x23:0x238489f7 x30:0x00000001  x1=0x00000000
       68385000	      6837	8000373c	03a5f063	bgeu	x11,x26,8000375c	 x11:0x1fc4fffe x26:0x00000004
       68395000	      6838	00000000	00000013	addi	x0,x0,0	  x0:0x00000000
       68405000	      6839	80003758	00000013	addi	x0,x0,0	  x0:0x00000000
       68415000	      6840	8000375c	011031b3	sltu	x3,x0,x17	  x0:0x00000000 x17:0x80009f2c  x3=0x00000001
       68425000	      6841	80003760	3d397d93	andi	x27,x18,979	 x18:0x80009fc4 x27=0x000003c0
       68435000	      6842	80003764	014befb3	or	x31,x23,x20	 x23:0x238489f7 x20:0x00000001 x31=0x238489f7
       68445000	      6843	80003768	02bf7e63	bgeu	x30,x11,800037a4	 x30:0x00000001 x11:0x1fc4fffe
       68455000	      6844	8000376c	89a98a13	addi	x20,x19,-1894	 x19:0x00000000 x20=0xfffff89a
       68465000	      6845	80003770	22d5e393	ori	x7,x11,557	 x11:0x1fc4fffe  x7=0x1fc4ffff
       68475000	      6846	80003774	18bbe213	ori	x4,x23,395	 x23:0x238489f7  x4=0x238489ff
       68485000	      6847	80003778	01dc7a33	and	x20,x24,x29	 x24:0x23848fff x29:0xfff3ffef x20=0x23808fef
       68495000	      6848	8000377c	09750197	auipc	x3,0x9750	  x3=0x89753778
       68505000	      6849	80003780	01d2b233	sltu	x4,x5,x29	  x5:0x800097c4 x29:0xfff3ffef  x4=0x00000001
       68515000	      6850	80003784	01764c33	xor	x24,x12,x23	 x12:0x800c9fd5 x23:0x238489f7 x24=0xa3881622
       68525000	      6851	80003788	e98d9517	auipc	x10,0xe98d9	 x10=0x698dc784
       68535000	      6852	8000378c	35392f17	auipc	x30,0x35392	 x30=0xb5395788
       68545000	      6853	80003790	007e6a63	bltu	x28,x7,800037a4	 x28:0xfffffff0  x7:0x1fc4ffff
       68555000	      6854	80003794	034b0c63	beq	x22,x20,800037cc	 x22:0x396d876f x20:0x23808fef
       68565000	      6855	80003798	01db9fb3	sll	x31,x23,x29	 x23:0x238489f7 x29:0xfff3ffef x31=0x44fb8000
       68575000	      6856	8000379c	016cd413	srli	x8,x25,0x16	 x25:0x00000001  x8=0x00000000
       68585000	      6857	800037a0	41d25ab3	sra	x21,x4,x29	  x4:0x00000001 x29:0xfff3ffef x21=0x00000000
       68595000	      6858	800037a4	00cb0733	add	x14,x22,x12	 x22:0x396d876f x12:0x800c9fd5 x14=0xb97a2744
       68605000	      6859	800037a8	00fe9e33	sll	x28,x29,x15	 x29:0xfff3ffef x15:0x80009fc4 x28=0xff3ffef0
       68615000	      6860	800037ac	01827c13	andi	x24,x4,24	  x4:0x00000001 x24=0x00000000
       68625000	      6861	800037b0	00338433	add	x8,x7,x3	  x7:0x1fc4ffff  x3:0x89753778  x8=0xa93a3777
       68635000	      6862	800037b4	0074eeb3	or	x29,x9,x7	  x9:0x36300000  x7:0x1fc4ffff x29=0x3ff4ffff
       68645000	      6863	800037b8	012f4333	xor	x6,x30,x18	 x30:0xb5395788 x18:0x80009fc4  x6=0x3539c84c
       68655000	      6864	800037bc	4186d4b3	sra	x9,x13,x24	 x13:0xbf8e9fff x24:0x00000000  x9=0xbf8e9fff
       68665000	      6865	800037c0	008f3f13	sltiu	x30,x30,8	 x30:0xb5395788 x30=0x00000000
       68675000	      6866	800037c4	010f5533	srl	x10,x30,x16	 x30:0x00000000 x16:0x00000000 x10=0x00000000
       68685000	      6867	800037c8	ede0e913	ori	x18,x1,-290	  x1:0x00000000 x18=0xfffffede
       68695000	      6868	800037cc	020d1863	bne	x26,x0,800037fc	 x26:0x00000004  x0:0x00000000
       68705000	      6869	00000000	00000013	addi	x0,x0,0	  x0:0x00000000
       68715000	      6870	800037f8	00000013	addi	x0,x0,0	  x0:0x00000000
       68725000	      6871	800037fc	c2a5df17	auipc	x30,0xc2a5d	 x30=0x42a607f8
       68735000	      6872	80003800	006e0eb3	add	x29,x28,x6	 x28:0xff3ffef0  x6:0x3539c84c x29=0x3479c73c
       68745000	      6873	80003804	0074cc33	xor	x24,x9,x7	  x9:0xbf8e9fff  x7:0x1fc4ffff x24=0xa04a6000
       68755000	      6874	80003808	015c66b3	or	x13,x24,x21	 x24:0xa04a6000 x21:0x00000000 x13=0xa04a6000
       68765000	      6875	8000380c	01214f33	xor	x30,x2,x18	  x2:0x00000002 x18:0xfffffede x30=0xfffffedc
       68775000	      6876	80003810	02df9463	bne	x31,x13,80003838	 x31:0x44fb8000 x13:0xa04a6000
       68785000	      6877	00000000	00000013	addi	x0,x0,0	  x0:0x00000000
       68795000	      6878	80003834	00000013	addi	x0,x0,0	  x0:0x00000000
       68805000	      6879	80003838	0105d613	srli	x12,x11,0x10	 x11:0x1fc4fffe x12=0x00001fc4
       68815000	      6880	8000383c	0ad0ba93	sltiu	x21,x1,173	  x1:0x00000000 x21=0x00000001
       68825000	      6881	80003840	0176d313	srli	x6,x13,0x17	 x13:0xa04a6000  x6=0x00000140
       68835000	      6882	80003844	00e4a5b3	slt	x11,x9,x14	  x9:0xbf8e9fff x14:0xb97a2744 x11=0x00000000
       68845000	      6883	80003848	00f66133	or	x2,x12,x15	 x12:0x00001fc4 x15:0x80009fc4  x2=0x80009fc4
       68855000	      6884	8000384c	0009fa63	bgeu	x19,x0,80003860	 x19:0x00000000  x0:0x00000000
       68865000	      6885	00000000	00000013	addi	x0,x0,0	  x0:0x00000000
       68875000	      6886	8000385c	00000013	addi	x0,x0,0	  x0:0x00000000
       68885000	      6887	80003860	01be8463	beq	x29,x27,80003868	 x29:0x3479c73c x27:0x000003c0
       68895000	      6888	80003864	003e5e33	srl	x28,x28,x3	 x28:0xff3ffef0  x3:0x89753778 x28=0x000000ff
       68905000	      6889	80003868	01a2d263	bge	x5,x26,8000386c	  x5:0x800097c4 x26:0x00000004
       68915000	      6890	8000386c	03aa8063	beq	x21,x26,8000388c	 x21:0x00000001 x26:0x00000004
       68925000	      6891	80003870	00000013	addi	x0,x0,0	  x0:0x00000000
       68935000	      6892	80003874	03300863	beq	x0,x19,800038a4	  x0:0x00000000 x19:0x00000000
       68945000	      6893	00000000	00000013	addi	x0,x0,0	  x0:0x00000000
       68955000	      6894	800038a0	00000013	addi	x0,x0,0	  x0:0x00000000
       68965000	      6895	800038a4	41198633	sub	x12,x19,x17	 x19:0x00000000 x17:0x80009f2c x12=0x7fff60d4
       68975000	      6896	800038a8	0172d463	bge	x5,x23,800038b0	  x5:0x800097c4 x23:0x238489f7
       68985000	      6897	800038ac	0118ceb3	xor	x29,x17,x17	 x17:0x80009f2c x17:0x80009f2c x29=0x00000000
       68995000	      6898	800038b0	4007dd93	srai	x27,x15,0x0	 x15:0x80009fc4 x27=0x80009fc4
       69005000	      6899	800038b4	41605993	srai	x19,x0,0x16	  x0:0x00000000 x19=0x00000000
       69015000	      6900	800038b8	db940717	auipc	x14,0xdb940	 x14=0x5b9438b4
       69025000	      6901	800038bc	03d5e463	bltu	x11,x29,800038e4	 x11:0x00000000 x29:0x00000000
       69035000	      6902	800038c0	50918493	addi	x9,x3,1289	  x3:0x89753778  x9=0x89753c81
       69045000	      6903	800038c4	0028bdb3	sltu	x27,x17,x2	 x17:0x80009f2c  x2:0x80009fc4 x27=0x00000001
       69055000	      6904	800038c8	008d9013	slli	x0,x27,0x8	 x27:0x00000001
       69065000	      6905	800038cc	0392d063	bge	x5,x25,800038ec	  x5:0x800097c4 x25:0x00000001
       69075000	      6906	800038d0	316e6713	ori	x14,x28,790	 x28:0x000000ff x14=0x000003ff
       69085000	      6907	800038d4	40a0de13	srai	x28,x1,0xa	  x1:0x00000000 x28=0x00000000
       69095000	      6908	800038d8	0286e137	lui	x2,0x286e	  x2=0x0286e000
       69105000	      6909	800038dc	04859463	bne	x11,x8,80003924	 x11:0x00000000  x8:0xa93a3777
       69115000	      6910	00000000	00000013	addi	x0,x0,0	  x0:0x00000000
       69125000	      6911	80003920	00000013	addi	x0,x0,0	  x0:0x00000000
       69135000	      6912	80003924	a8ba3c13	sltiu	x24,x20,-1397	 x20:0x23808fef x24=0x00000001
       69145000	      6913	80003928	59e85a37	lui	x20,0x59e85	 x20=0x59e85000
       69155000	      6914	8000392c	60d11137	lui	x2,0x60d11	  x2=0x60d11000
       69165000	      6915	80003930	01657833	and	x16,x10,x22	 x10:0x00000000 x22:0x396d876f x16=0x00000000
       69175000	      6916	80003934	019f7263	bgeu	x30,x25,80003938	 x30:0xfffffedc x25:0x00000001
       69185000	      6917	00000000	00000013	addi	x0,x0,0	  x0:0x00000000
       69195000	      6918	80003934	00000013	addi	x0,x0,0	  x0:0x00000000
       69205000	      6919	80003938	4040da33	sra	x20,x1,x4	  x1:0x00000000  x4:0x00000001 x20=0x00000000
       69215000	      6920	8000393c	4164df13	srai	x30,x9,0x16	  x9:0x89753c81 x30=0xfffffe25
       69225000	      6921	80003940	bdf42993	slti	x19,x8,-1057	  x8:0xa93a3777 x19=0x00000001
       69235000	      6922	80003944	77860593	addi	x11,x12,1912	 x12:0x7fff60d4 x11=0x7fff684c
       69245000	      6923	80003948	00b711b3	sll	x3,x14,x11	 x14:0x000003ff x11:0x7fff684c  x3=0x003ff000
       69255000	      6924	8000394c	d3da8493	addi	x9,x21,-707	 x21:0x00000001  x9=0xfffffd3e
       69265000	      6925	80003950	784bf017	auipc	x0,0x784bf	
       69275000	      6926	80003954	aa2d8093	addi	x1,x27,-1374	 x27:0x00000001  x1=0xfffffaa3
       69285000	      6927	80003958	0cf28663	beq	x5,x15,80003a24	  x5:0x800097c4 x15:0x80009fc4
       69295000	      6928	8000395c	40785013	srai	x0,x16,0x7	 x16:0x00000000
       69305000	      6929	80003960	003926b3	slt	x13,x18,x3	 x18:0xfffffede  x3:0x003ff000 x13=0x00000001
       69315000	      6930	80003964	b0d80a13	addi	x20,x16,-1267	 x16:0x00000000 x20=0xfffffb0d
       69325000	      6931	80003968	8050b693	sltiu	x13,x1,-2043	  x1:0xfffffaa3 x13=0x00000000
       69335000	      6932	8000396c	00985033	srl	x0,x16,x9	 x16:0x00000000  x9:0xfffffd3e
       69345000	      6933	80003970	00005397	auipc	x7,0x5	  x7=0x8000896c
       69355000	      6934	80003974	67538393	addi	x7,x7,1653	  x7:0x8000896c  x7=0x80008fe1
       69365000	      6935	80003978	fbe3cc83	lbu	x25,-66(x7)	  x7:0x80008fe1 x25=0x000000a0 PA:0x80008f9f
       69375000	      6936	8000397c	f233af83	lw	x31,-221(x7)	  x7:0x80008fe1 x31=0x68750877 PA:0x80008f04
       69385000	      6937	80003980	f5138103	lb	x2,-175(x7)	  x7:0x80008fe1  x2=0x00000011 PA:0x80008f32
       69395000	      6938	80003984	faa38683	lb	x13,-86(x7)	  x7:0x80008fe1 x13=0xffffffad PA:0x80008f8b
       69405000	      6939	80003988	01060db3	add	x27,x12,x16	 x12:0x7fff60d4 x16:0x00000000 x27=0x7fff60d4
       69415000	      6940	8000398c	f8d39303	lh	x6,-115(x7)	  x7:0x80008fe1  x6=0xffffcfb7 PA:0x80008f6e
       69425000	      6941	80003990	f1738983	lb	x19,-233(x7)	  x7:0x80008fe1 x19=0x00000070 PA:0x80008ef8
       69435000	      6942	80003994	f993cf83	lbu	x31,-103(x7)	  x7:0x80008fe1 x31=0x000000a1 PA:0x80008f7a
       69445000	      6943	80003998	01972333	slt	x6,x14,x25	 x14:0x000003ff x25:0x000000a0  x6=0x00000000
       69455000	      6944	8000399c	41845eb3	sra	x29,x8,x24	  x8:0xa93a3777 x24:0x00000001 x29=0xd49d1bbb
       69465000	      6945	800039a0	402c5513	srai	x10,x24,0x2	 x24:0x00000001 x10=0x00000000
       69475000	      6946	800039a4	6fb3c513	xori	x10,x7,1787	  x7:0x80008fe1 x10=0x8000891a
       69485000	      6947	800039a8	00c61e93	slli	x29,x12,0xc	 x12:0x7fff60d4 x29=0xf60d4000
       69495000	      6948	800039ac	f3939e83	lh	x29,-199(x7)	  x7:0x80008fe1 x29=0xffffb968 PA:0x80008f1a
       69505000	      6949	800039b0	fd33a183	lw	x3,-45(x7)	  x7:0x80008fe1  x3=0xaffd93c7 PA:0x80008fb4
       69515000	      6950	800039b4	e38f6593	ori	x11,x30,-456	 x30:0xfffffe25 x11=0xfffffe3d
       69525000	      6951	800039b8	fcd3a5a3	sw	x13,-53(x7)	  x7:0x80008fe1 x13:0xffffffad PA:0x80008fac
       69535000	      6952	800039bc	fa03a9a3	sw	x0,-77(x7)	  x7:0x80008fe1  x0:0x00000000 PA:0x80008f94
       69545000	      6953	800039c0	a6924e13	xori	x28,x4,-1431	  x4:0x00000001 x28=0xfffffa68
       69555000	      6954	800039c4	93c54c13	xori	x24,x10,-1732	 x10:0x8000891a x24=0x7fff7026
       69565000	      6955	800039c8	f4d39fa3	sh	x13,-161(x7)	  x7:0x80008fe1 x13:0xffffffad PA:0x80008f40
       69575000	      6956	800039cc	3c79ae13	slti	x28,x19,967	 x19:0x00000070 x28=0x00000001
       69585000	      6957	800039d0	f06382a3	sb	x6,-251(x7)	  x7:0x80008fe1  x6:0x00000000 PA:0x80008ee6
       69595000	      6958	800039d4	404a81b3	sub	x3,x21,x4	 x21:0x00000001  x4:0x00000001  x3=0x00000000
       69605000	      6959	800039d8	0065a2b3	slt	x5,x11,x6	 x11:0xfffffe3d  x6:0x00000000  x5=0x00000001
       69615000	      6960	800039dc	fc638fa3	sb	x6,-33(x7)	  x7:0x80008fe1  x6:0x00000000 PA:0x80008fc0
       69625000	      6961	800039e0	01801433	sll	x8,x0,x24	  x0:0x00000000 x24:0x7fff7026  x8=0x00000000
       69635000	      6962	800039e4	fd43c203	lbu	x4,-44(x7)	  x7:0x80008fe1  x4=0x00000093 PA:0x80008fb5
       69645000	      6963	800039e8	fe53cc83	lbu	x25,-27(x7)	  x7:0x80008fe1 x25=0x000000df PA:0x80008fc6
       69655000	      6964	800039ec	fc33aba3	sw	x3,-41(x7)	  x7:0x80008fe1  x3:0x00000000 PA:0x80008fb8
       69665000	      6965	800039f0	f7539103	lh	x2,-139(x7)	  x7:0x80008fe1  x2=0xffffc700 PA:0x80008f56
       69675000	      6966	00000000	00000013	addi	x0,x0,0	  x0:0x00000000
       69685000	      6967	800039f4	3d514713	xori	x14,x2,981	  x2:0xffffc700 x14=0xffffc4d5
       69695000	      6968	800039f8	01fd0f33	add	x30,x26,x31	 x26:0x00000004 x31:0x000000a1 x30=0x000000a5
       69705000	      6969	800039fc	015610b3	sll	x1,x12,x21	 x12:0x7fff60d4 x21:0x00000001  x1=0xfffec1a8
       69715000	      6970	80003a00	f223c283	lbu	x5,-222(x7)	  x7:0x80008fe1  x5=0x000000d1 PA:0x80008f03
       69725000	      6971	80003a04	f043a5a3	sw	x4,-245(x7)	  x7:0x80008fe1  x4:0x00000093 PA:0x80008eec
       69735000	      6972	80003a08	011074b3	and	x9,x0,x17	  x0:0x00000000 x17:0x80009f2c  x9=0x00000000
       69745000	      6973	80003a0c	f5538a23	sb	x21,-172(x7)	  x7:0x80008fe1 x21:0x00000001 PA:0x80008f35
       69755000	      6974	80003a10	f9e3c283	lbu	x5,-98(x7)	  x7:0x80008fe1  x5=0x0000009a PA:0x80008f7f
       69765000	      6975	80003a14	40c18ab3	sub	x21,x3,x12	  x3:0x00000000 x12:0x7fff60d4 x21=0x80009f2c
       69775000	      6976	80003a18	f153d203	lhu	x4,-235(x7)	  x7:0x80008fe1  x4=0x0000c93a PA:0x80008ef6
       69785000	      6977	80003a1c	68f3e193	ori	x3,x7,1679	  x7:0x80008fe1  x3=0x80008fef
       69795000	      6978	80003a20	01f20db3	add	x27,x4,x31	  x4:0x0000c93a x31:0x000000a1 x27=0x0000c9db
       69805000	      6979	80003a24	01057663	bgeu	x10,x16,80003a30	 x10:0x8000891a x16:0x00000000
       69815000	      6980	00000000	00000013	addi	x0,x0,0	  x0:0x00000000
       69825000	      6981	80003a2c	00000013	addi	x0,x0,0	  x0:0x00000000
       69835000	      6982	80003a30	00cbd093	srli	x1,x23,0xc	 x23:0x238489f7  x1=0x00023848
       69845000	      6983	80003a34	01f4db93	srli	x23,x9,0x1f	  x9:0x00000000 x23=0x00000000
       69855000	      6984	80003a38	705a0e93	addi	x29,x20,1797	 x20:0xfffffb0d x29=0x00000212
       69865000	      6985	80003a3c	411cba13	sltiu	x20,x25,1041	 x25:0x000000df x20=0x00000001
       69875000	      6986	80003a40	44ceee13	ori	x28,x29,1100	 x29:0x00000212 x28=0x0000065e
       69885000	      6987	80003a44	404a5413	srai	x8,x20,0x4	 x20:0x00000001  x8=0x00000000
       69895000	      6988	80003a48	40728eb3	sub	x29,x5,x7	  x5:0x0000009a  x7:0x80008fe1 x29=0x7fff70b9
       69905000	      6989	80003a4c	03bc5863	bge	x24,x27,80003a7c	 x24:0x7fff7026 x27:0x0000c9db
       69915000	      6990	00000000	00000013	addi	x0,x0,0	  x0:0x00000000
       69925000	      6991	80003a78	00000013	addi	x0,x0,0	  x0:0x00000000
       69935000	      6992	80003a7c	014a7333	and	x6,x20,x20	 x20:0x00000001 x20:0x00000001  x6=0x00000001
       69945000	      6993	80003a80	4d8ae017	auipc	x0,0x4d8ae	
       69955000	      6994	80003a84	00531193	slli	x3,x6,0x5	  x6:0x00000001  x3=0x00000020
       69965000	      6995	80003a88	0322dc63	bge	x5,x18,80003ac0	  x5:0x0000009a x18:0xfffffede
       69975000	      6996	00000000	00000013	addi	x0,x0,0	  x0:0x00000000
       69985000	      6997	80003abc	00000013	addi	x0,x0,0	  x0:0x00000000
       69995000	      6998	80003ac0	00ec9433	sll	x8,x25,x14	 x25:0x000000df x14:0xffffc4d5  x8=0x1be00000
       70005000	      6999	80003ac4	7e6e2393	slti	x7,x28,2022	 x28:0x0000065e  x7=0x00000001
       70015000	      7000	80003ac8	002f1fb3	sll	x31,x30,x2	 x30:0x000000a5  x2:0xffffc700 x31=0x000000a5
       70025000	      7001	80003acc	01bb9db3	sll	x27,x23,x27	 x23:0x00000000 x27:0x0000c9db x27=0x00000000
       70035000	      7002	80003ad0	032a7463	bgeu	x20,x18,80003af8	 x20:0x00000001 x18:0xfffffede
       70045000	      7003	80003ad4	a37c5c97	auipc	x25,0xa37c5	 x25=0x237c8ad0
       70055000	      7004	80003ad8	039c4463	blt	x24,x25,80003b00	 x24:0x7fff7026 x25:0x237c8ad0
       70065000	      7005	80003adc	40b1d293	srai	x5,x3,0xb	  x3:0x00000020  x5=0x00000000
       70075000	      7006	80003ae0	41875c93	srai	x25,x14,0x18	 x14:0xffffc4d5 x25=0xffffffff
       70085000	      7007	80003ae4	03978e63	beq	x15,x25,80003b20	 x15:0x80009fc4 x25:0xffffffff
       70095000	      7008	80003ae8	01985813	srli	x16,x16,0x19	 x16:0x00000000 x16=0x00000000
       70105000	      7009	80003aec	400bdcb3	sra	x25,x23,x0	 x23:0x00000000  x0:0x00000000 x25=0x00000000
       70115000	      7010	80003af0	9c373493	sltiu	x9,x14,-1597	 x14:0xffffc4d5  x9=0x00000001
       70125000	      7011	80003af4	01cc6f33	or	x30,x24,x28	 x24:0x7fff7026 x28:0x0000065e x30=0x7fff767e
       70135000	      7012	80003af8	003afa63	bgeu	x21,x3,80003b0c	 x21:0x80009f2c  x3:0x00000020
       70145000	      7013	00000000	00000013	addi	x0,x0,0	  x0:0x00000000
       70155000	      7014	80003b08	00000013	addi	x0,x0,0	  x0:0x00000000
       70165000	      7015	80003b0c	01689933	sll	x18,x17,x22	 x17:0x80009f2c x22:0x396d876f x18=0x4f960000
       70175000	      7016	80003b10	02df7c63	bgeu	x30,x13,80003b48	 x30:0x7fff767e x13:0xffffffad
       70185000	      7017	80003b14	013b9a63	bne	x23,x19,80003b28	 x23:0x00000000 x19:0x00000070
       70195000	      7018	00000000	00000013	addi	x0,x0,0	  x0:0x00000000
       70205000	      7019	80003b24	00000013	addi	x0,x0,0	  x0:0x00000000
       70215000	      7020	80003b28	0070c333	xor	x6,x1,x7	  x1:0x00023848  x7:0x00000001  x6=0x00023849
       70225000	      7021	80003b2c	40a0dbb3	sra	x23,x1,x10	  x1:0x00023848 x10:0x8000891a x23=0x00000000
       70235000	      7022	80003b30	40a901b3	sub	x3,x18,x10	 x18:0x4f960000 x10:0x8000891a  x3=0xcf9576e6
       70245000	      7023	80003b34	00c89233	sll	x4,x17,x12	 x17:0x80009f2c x12:0x7fff60d4  x4=0xf2c00000
       70255000	      7024	80003b38	407ad593	srai	x11,x21,0x7	 x21:0x80009f2c x11=0xff00013e
       70265000	      7025	80003b3c	415fda93	srai	x21,x31,0x15	 x31:0x000000a5 x21=0x00000000
       70275000	      7026	80003b40	7560ee37	lui	x28,0x7560e	 x28=0x7560e000
       70285000	      7027	80003b44	33f52613	slti	x12,x10,831	 x10:0x8000891a x12=0x00000001
       70295000	      7028	80003b48	010b9c93	slli	x25,x23,0x10	 x23:0x00000000 x25=0x00000000
       70305000	      7029	80003b4c	4154df13	srai	x30,x9,0x15	  x9:0x00000001 x30=0x00000000
       70315000	      7030	80003b50	006d1c33	sll	x24,x26,x6	 x26:0x00000004  x6:0x00023849 x24=0x00000800
       70325000	      7031	80003b54	00000013	addi	x0,x0,0	  x0:0x00000000
       70335000	      7032	80003b58	03db6863	bltu	x22,x29,80003b88	 x22:0x396d876f x29:0x7fff70b9
       70345000	      7033	00000000	00000013	addi	x0,x0,0	  x0:0x00000000
       70355000	      7034	80003b84	00000013	addi	x0,x0,0	  x0:0x00000000
       70365000	      7035	80003b88	00000013	addi	x0,x0,0	  x0:0x00000000
       70375000	      7036	80003b8c	41d2d9b3	sra	x19,x5,x29	  x5:0x00000000 x29:0x7fff70b9 x19=0x00000000
       70385000	      7037	80003b90	034b6263	bltu	x22,x20,80003bb4	 x22:0x396d876f x20:0x00000001
       70395000	      7038	80003b94	5726be13	sltiu	x28,x13,1394	 x13:0xffffffad x28=0x00000000
       70405000	      7039	80003b98	01e432b3	sltu	x5,x8,x30	  x8:0x1be00000 x30:0x00000000  x5=0x00000000
       70415000	      7040	80003b9c	004ddc13	srli	x24,x27,0x4	 x27:0x00000000 x24=0x00000000
       70425000	      7041	80003ba0	b128ec97	auipc	x25,0xb128e	 x25=0x31291b9c
       70435000	      7042	80003ba4	31f3c093	xori	x1,x7,799	  x7:0x00000001  x1=0x0000031e
       70445000	      7043	80003ba8	8725bf93	sltiu	x31,x11,-1934	 x11:0xff00013e x31=0x00000001
       70455000	      7044	80003bac	0080cfb3	xor	x31,x1,x8	  x1:0x0000031e  x8:0x1be00000 x31=0x1be0031e
       70465000	      7045	80003bb0	02f21e63	bne	x4,x15,80003bec	  x4:0xf2c00000 x15:0x80009fc4
       70475000	      7046	00000000	00000013	addi	x0,x0,0	  x0:0x00000000
       70485000	      7047	80003be8	00000013	addi	x0,x0,0	  x0:0x00000000
       70495000	      7048	80003bec	70d06813	ori	x16,x0,1805	  x0:0x00000000 x16=0x0000070d
       70505000	      7049	80003bf0	41ded813	srai	x16,x29,0x1d	 x29:0x7fff70b9 x16=0x00000003
       70515000	      7050	80003bf4	0220f263	bgeu	x1,x2,80003c18	  x1:0x0000031e  x2:0xffffc700
       70525000	      7051	80003bf8	00000013	addi	x0,x0,0	  x0:0x00000000
       70535000	      7052	80003bfc	c434bd93	sltiu	x27,x9,-957	  x9:0x00000001 x27=0x00000001
       70545000	      7053	80003c00	01f29f93	slli	x31,x5,0x1f	  x5:0x00000000 x31=0x00000000
       70555000	      7054	80003c04	00000013	addi	x0,x0,0	  x0:0x00000000
       70565000	      7055	80003c08	41e05933	sra	x18,x0,x30	  x0:0x00000000 x30:0x00000000 x18=0x00000000
       70575000	      7056	80003c0c	003c1e13	slli	x28,x24,0x3	 x24:0x00000000 x28=0x00000000
       70585000	      7057	80003c10	b1cf3c93	sltiu	x25,x30,-1252	 x30:0x00000000 x25=0x00000001
       70595000	      7058	80003c14	922bc813	xori	x16,x23,-1758	 x23:0x00000000 x16=0xfffff922
       70605000	      7059	80003c18	fa885ab7	lui	x21,0xfa885	 x21=0xfa885000
       70615000	      7060	80003c1c	77984193	xori	x3,x16,1913	 x16:0xfffff922  x3=0xfffffe5b
       70625000	      7061	80003c20	007e80b3	add	x1,x29,x7	 x29:0x7fff70b9  x7:0x00000001  x1=0x7fff70ba
       70635000	      7062	80003c24	0189dc33	srl	x24,x19,x24	 x19:0x00000000 x24:0x00000000 x24=0x00000000
       70645000	      7063	80003c28	03038663	beq	x7,x16,80003c54	  x7:0x00000001 x16:0xfffff922
       70655000	      7064	80003c2c	037dec63	bltu	x27,x23,80003c64	 x27:0x00000001 x23:0x00000000
       70665000	      7065	80003c30	53752097	auipc	x1,0x53752	  x1=0xd3755c2c
       70675000	      7066	80003c34	41118eb3	sub	x29,x3,x17	  x3:0xfffffe5b x17:0x80009f2c x29=0x7fff5f2f
       70685000	      7067	80003c38	00c71193	slli	x3,x14,0xc	 x14:0xffffc4d5  x3=0xfc4d5000
       70695000	      7068	80003c3c	019b1233	sll	x4,x22,x25	 x22:0x396d876f x25:0x00000001  x4=0x72db0ede
       70705000	      7069	80003c40	00b0ea33	or	x20,x1,x11	  x1:0xd3755c2c x11:0xff00013e x20=0xff755d3e
       70715000	      7070	80003c44	00f112b3	sll	x5,x2,x15	  x2:0xffffc700 x15:0x80009fc4  x5=0xfffc7000
       70725000	      7071	80003c48	011f9433	sll	x8,x31,x17	 x31:0x00000000 x17:0x80009f2c  x8=0x00000000
       70735000	      7072	80003c4c	01551133	sll	x2,x10,x21	 x10:0x8000891a x21:0xfa885000  x2=0x8000891a
       70745000	      7073	80003c50	0119c263	blt	x19,x17,80003c54	 x19:0x00000000 x17:0x80009f2c
       70755000	      7074	80003c54	b02a4193	xori	x3,x20,-1278	 x20:0xff755d3e  x3=0x008aa63c
       70765000	      7075	80003c58	411153b3	sra	x7,x2,x17	  x2:0x8000891a x17:0x80009f2c  x7=0xfff80008
       70775000	      7076	80003c5c	2bab6593	ori	x11,x22,698	 x22:0x396d876f x11=0x396d87ff
       70785000	      7077	80003c60	002f9713	slli	x14,x31,0x2	 x31:0x00000000 x14=0x00000000
       70795000	      7078	80003c64	004f36b3	sltu	x13,x30,x4	 x30:0x00000000  x4:0x72db0ede x13=0x00000001
       70805000	      7079	80003c68	003bc533	xor	x10,x23,x3	 x23:0x00000000  x3:0x008aa63c x10=0x008aa63c
       70815000	      7080	80003c6c	0020f1b3	and	x3,x1,x2	  x1:0xd3755c2c  x2:0x8000891a  x3=0x80000808
       70825000	      7081	80003c70	d33aaa13	slti	x20,x21,-717	 x21:0xfa885000 x20=0x00000001
       70835000	      7082	80003c74	44cb3f13	sltiu	x30,x22,1100	 x22:0x396d876f x30=0x00000000
       70845000	      7083	80003c78	00000013	addi	x0,x0,0	  x0:0x00000000
       70855000	      7084	80003c7c	01ac9413	slli	x8,x25,0x1a	 x25:0x00000001  x8=0x04000000
       70865000	      7085	80003c80	00000013	addi	x0,x0,0	  x0:0x00000000
       70875000	      7086	80003c84	01739133	sll	x2,x7,x23	  x7:0xfff80008 x23:0x00000000  x2=0xfff80008
       70885000	      7087	80003c88	01a55b93	srli	x23,x10,0x1a	 x10:0x008aa63c x23=0x00000000
       70895000	      7088	80003c8c	41a05193	srai	x3,x0,0x1a	  x0:0x00000000  x3=0x00000000
       70905000	      7089	80003c90	00f6d493	srli	x9,x13,0xf	 x13:0x00000001  x9=0x00000000
       70915000	      7090	80003c94	01a3f933	and	x18,x7,x26	  x7:0xfff80008 x26:0x00000004 x18=0x00000000
       70925000	      7091	80003c98	407502b3	sub	x5,x10,x7	 x10:0x008aa63c  x7:0xfff80008  x5=0x0092a634
       70935000	      7092	80003c9c	413ed313	srai	x6,x29,0x13	 x29:0x7fff5f2f  x6=0x00000fff
       70945000	      7093	80003ca0	00000013	addi	x0,x0,0	  x0:0x00000000
       70955000	      7094	80003ca4	40be5eb3	sra	x29,x28,x11	 x28:0x00000000 x11:0x396d87ff x29=0x00000000
       70965000	      7095	80003ca8	a3092b93	slti	x23,x18,-1488	 x18:0x00000000 x23=0x00000000
       70975000	      7096	80003cac	003475b3	and	x11,x8,x3	  x8:0x04000000  x3:0x00000000 x11=0x00000000
       70985000	      7097	80003cb0	94abb393	sltiu	x7,x23,-1718	 x23:0x00000000  x7=0x00000001
       70995000	      7098	80003cb4	00000013	addi	x0,x0,0	  x0:0x00000000
       71005000	      7099	80003cb8	02beec63	bltu	x29,x11,80003cf0	 x29:0x00000000 x11:0x00000000
       71015000	      7100	80003cbc	01fca6b3	slt	x13,x25,x31	 x25:0x00000001 x31:0x00000000 x13=0x00000000
       71025000	      7101	80003cc0	001cd663	bge	x25,x1,80003ccc	 x25:0x00000001  x1:0xd3755c2c
       71035000	      7102	00000000	00000013	addi	x0,x0,0	  x0:0x00000000
       71045000	      7103	80003cc8	00000013	addi	x0,x0,0	  x0:0x00000000
       71055000	      7104	80003ccc	4ca37e13	andi	x28,x6,1226	  x6:0x00000fff x28=0x000004ca
       71065000	      7105	80003cd0	012b7233	and	x4,x22,x18	 x22:0x396d876f x18:0x00000000  x4=0x00000000
       71075000	      7106	80003cd4	019a82b3	add	x5,x21,x25	 x21:0xfa885000 x25:0x00000001  x5=0xfa885001
       71085000	      7107	80003cd8	03c0e463	bltu	x1,x28,80003d00	  x1:0xd3755c2c x28:0x000004ca
       71095000	      7108	80003cdc	012bbfb3	sltu	x31,x23,x18	 x23:0x00000000 x18:0x00000000 x31=0x00000000
       71105000	      7109	80003ce0	00452733	slt	x14,x10,x4	 x10:0x008aa63c  x4:0x00000000 x14=0x00000000
       71115000	      7110	80003ce4	003bde33	srl	x28,x23,x3	 x23:0x00000000  x3:0x00000000 x28=0x00000000
       71125000	      7111	80003ce8	40b35033	sra	x0,x6,x11	  x6:0x00000fff x11:0x00000000
       71135000	      7112	80003cec	059ce463	bltu	x25,x25,80003d34	 x25:0x00000001 x25:0x00000001
       71145000	      7113	80003cf0	00d19933	sll	x18,x3,x13	  x3:0x00000000 x13:0x00000000 x18=0x00000000
       71155000	      7114	80003cf4	00a36cb3	or	x25,x6,x10	  x6:0x00000fff x10:0x008aa63c x25=0x008aafff
       71165000	      7115	80003cf8	00c456b3	srl	x13,x8,x12	  x8:0x04000000 x12:0x00000001 x13=0x02000000
       71175000	      7116	80003cfc	00694bb3	xor	x23,x18,x6	 x18:0x00000000  x6:0x00000fff x23=0x00000fff
       71185000	      7117	80003d00	02039e63	bne	x7,x0,80003d3c	  x7:0x00000001  x0:0x00000000
       71195000	      7118	00000000	00000013	addi	x0,x0,0	  x0:0x00000000
       71205000	      7119	80003d38	00000013	addi	x0,x0,0	  x0:0x00000000
       71215000	      7120	80003d3c	009a6bb3	or	x23,x20,x9	 x20:0x00000001  x9:0x00000000 x23=0x00000001
       71225000	      7121	80003d40	01f736b3	sltu	x13,x14,x31	 x14:0x00000000 x31:0x00000000 x13=0x00000000
       71235000	      7122	80003d44	01eb83b3	add	x7,x23,x30	 x23:0x00000001 x30:0x00000000  x7=0x00000001
       71245000	      7123	80003d48	01721cb3	sll	x25,x4,x23	  x4:0x00000000 x23:0x00000001 x25=0x00000000
       71255000	      7124	80003d4c	00b91193	slli	x3,x18,0xb	 x18:0x00000000  x3=0x00000000
       71265000	      7125	80003d50	019d1c33	sll	x24,x26,x25	 x26:0x00000004 x25:0x00000000 x24=0x00000004
       71275000	      7126	80003d54	00bde033	or	x0,x27,x11	 x27:0x00000001 x11:0x00000000
       71285000	      7127	80003d58	c59d9f97	auipc	x31,0xc59d9	 x31=0x459dcd54
       71295000	      7128	80003d5c	521a6817	auipc	x16,0x521a6	 x16=0xd21a9d58
       71305000	      7129	80003d60	418e0533	sub	x10,x28,x24	 x28:0x00000000 x24:0x00000004 x10=0xfffffffc
       71315000	      7130	80003d64	41738933	sub	x18,x7,x23	  x7:0x00000001 x23:0x00000001 x18=0x00000000
       71325000	      7131	80003d68	01cff833	and	x16,x31,x28	 x31:0x459dcd54 x28:0x00000000 x16=0x00000000
       71335000	      7132	80003d6c	0389d063	bge	x19,x24,80003d8c	 x19:0x00000000 x24:0x00000004
       71345000	      7133	80003d70	36e23993	sltiu	x19,x4,878	  x4:0x00000000 x19=0x00000001
       71355000	      7134	80003d74	00d81833	sll	x16,x16,x13	 x16:0x00000000 x13:0x00000000 x16=0x00000000
       71365000	      7135	80003d78	00349f13	slli	x30,x9,0x3	  x9:0x00000000 x30=0x00000000
       71375000	      7136	80003d7c	01be9463	bne	x29,x27,80003d84	 x29:0x00000000 x27:0x00000001
       71385000	      7137	00000000	00000013	addi	x0,x0,0	  x0:0x00000000
       71395000	      7138	80003d80	00000013	addi	x0,x0,0	  x0:0x00000000
       71405000	      7139	80003d84	00b04333	xor	x6,x0,x11	  x0:0x00000000 x11:0x00000000  x6=0x00000000
       71415000	      7140	80003d88	8737e9b7	lui	x19,0x8737e	 x19=0x8737e000
       71425000	      7141	80003d8c	03b35e63	bge	x6,x27,80003dc8	  x6:0x00000000 x27:0x00000001
       71435000	      7142	80003d90	a219c193	xori	x3,x19,-1503	 x19:0x8737e000  x3=0x78c81a21
       71445000	      7143	80003d94	00015033	srl	x0,x2,x0	  x2:0xfff80008  x0:0x00000000
       71455000	      7144	80003d98	402fdeb3	sra	x29,x31,x2	 x31:0x459dcd54  x2:0xfff80008 x29=0x00459dcd
       71465000	      7145	80003d9c	03fe1663	bne	x28,x31,80003dc8	 x28:0x00000000 x31:0x459dcd54
       71475000	      7146	00000000	00000013	addi	x0,x0,0	  x0:0x00000000
       71485000	      7147	80003dc4	00000013	addi	x0,x0,0	  x0:0x00000000
       71495000	      7148	80003dc8	b7a9a117	auipc	x2,0xb7a9a	  x2=0x37a9ddc4
       71505000	      7149	80003dcc	01169233	sll	x4,x13,x17	 x13:0x00000000 x17:0x80009f2c  x4=0x00000000
       71515000	      7150	80003dd0	27fcf913	andi	x18,x25,639	 x25:0x00000000 x18=0x00000000
       71525000	      7151	80003dd4	db7765b7	lui	x11,0xdb776	 x11=0xdb776000
       71535000	      7152	80003dd8	9eff6d93	ori	x27,x30,-1553	 x30:0x00000000 x27=0xfffff9ef
       71545000	      7153	80003ddc	0043dc13	srli	x24,x7,0x4	  x7:0x00000001 x24=0x00000000
       71555000	      7154	80003de0	30181037	lui	x0,0x30181	
       71565000	      7155	80003de4	02ced063	bge	x29,x12,80003e04	 x29:0x00459dcd x12:0x00000001
       71575000	      7156	00000000	00000013	addi	x0,x0,0	  x0:0x00000000
       71585000	      7157	80003e00	00000013	addi	x0,x0,0	  x0:0x00000000
       71595000	      7158	80003e04	033dd863	bge	x27,x19,80003e34	 x27:0xfffff9ef x19:0x8737e000
       71605000	      7159	00000000	00000013	addi	x0,x0,0	  x0:0x00000000
       71615000	      7160	80003e30	00000013	addi	x0,x0,0	  x0:0x00000000
       71625000	      7161	80003e34	d0008597	auipc	x11,0xd0008	 x11=0x5000be30
       71635000	      7162	80003e38	01b08f33	add	x30,x1,x27	  x1:0xd3755c2c x27:0xfffff9ef x30=0xd375561b
       71645000	      7163	80003e3c	013ee5b3	or	x11,x29,x19	 x29:0x00459dcd x19:0x8737e000 x11=0x8777fdcd
       71655000	      7164	80003e40	001631b3	sltu	x3,x12,x1	 x12:0x00000001  x1:0xd3755c2c  x3=0x00000001
       71665000	      7165	80003e44	007f0bb3	add	x23,x30,x7	 x30:0xd375561b  x7:0x00000001 x23=0xd375561c
       71675000	      7166	80003e48	01ae1093	slli	x1,x28,0x1a	 x28:0x00000000  x1=0x00000000
       71685000	      7167	80003e4c	038ce263	bltu	x25,x24,80003e70	 x25:0x00000000 x24:0x00000000
       71695000	      7168	80003e50	0147d913	srli	x18,x15,0x14	 x15:0x80009fc4 x18=0x00000800
       71705000	      7169	80003e54	039d0863	beq	x26,x25,80003e84	 x26:0x00000004 x25:0x00000000
       71715000	      7170	80003e58	40ef5b93	srai	x23,x30,0xe	 x30:0xd375561b x23=0xffff4dd5
       71725000	      7171	80003e5c	01aaf733	and	x14,x21,x26	 x21:0xfa885000 x26:0x00000004 x14=0x00000000
       71735000	      7172	80003e60	01cb1863	bne	x22,x28,80003e70	 x22:0x396d876f x28:0x00000000
       71745000	      7173	00000000	00000013	addi	x0,x0,0	  x0:0x00000000
       71755000	      7174	80003e6c	00000013	addi	x0,x0,0	  x0:0x00000000
       71765000	      7175	80003e70	4034d0b3	sra	x1,x9,x3	  x9:0x00000000  x3:0x00000001  x1=0x00000000
       71775000	      7176	80003e74	5a0a4693	xori	x13,x20,1440	 x20:0x00000001 x13=0x000005a1
       71785000	      7177	80003e78	5a930913	addi	x18,x6,1449	  x6:0x00000000 x18=0x000005a9
       71795000	      7178	80003e7c	db0a3c13	sltiu	x24,x20,-592	 x20:0x00000001 x24=0x00000001
       71805000	      7179	80003e80	476ec993	xori	x19,x29,1142	 x29:0x00459dcd x19=0x004599bb
       71815000	      7180	80003e84	30474913	xori	x18,x14,772	 x14:0x00000000 x18=0x00000304
       71825000	      7181	80003e88	00000013	addi	x0,x0,0	  x0:0x00000000
       71835000	      7182	80003e8c	03f39063	bne	x7,x31,80003eac	  x7:0x00000001 x31:0x459dcd54
       71845000	      7183	00000000	00000013	addi	x0,x0,0	  x0:0x00000000
       71855000	      7184	80003ea8	00000013	addi	x0,x0,0	  x0:0x00000000
       71865000	      7185	80003eac	0174dab3	srl	x21,x9,x23	  x9:0x00000000 x23:0xffff4dd5 x21=0x00000000
       71875000	      7186	80003eb0	01e2c9b3	xor	x19,x5,x30	  x5:0xfa885001 x30:0xd375561b x19=0x29fd061a
       71885000	      7187	80003eb4	00f6ac33	slt	x24,x13,x15	 x13:0x000005a1 x15:0x80009fc4 x24=0x00000000
       71895000	      7188	80003eb8	03447463	bgeu	x8,x20,80003ee0	  x8:0x04000000 x20:0x00000001
       71905000	      7189	00000000	00000013	addi	x0,x0,0	  x0:0x00000000
       71915000	      7190	80003edc	00000013	addi	x0,x0,0	  x0:0x00000000
       71925000	      7191	80003ee0	e48b0937	lui	x18,0xe48b0	 x18=0xe48b0000
       71935000	      7192	80003ee4	412ad613	srai	x12,x21,0x12	 x21:0x00000000 x12=0x00000000
       71945000	      7193	80003ee8	017f5233	srl	x4,x30,x23	 x30:0xd375561b x23:0xffff4dd5  x4=0x0000069b
       71955000	      7194	80003eec	41a58633	sub	x12,x11,x26	 x11:0x8777fdcd x26:0x00000004 x12=0x8777fdc9
       71965000	      7195	80003ef0	02305c63	bge	x0,x3,80003f28	  x0:0x00000000  x3:0x00000001
       71975000	      7196	80003ef4	011c3833	sltu	x16,x24,x17	 x24:0x00000000 x17:0x80009f2c x16=0x00000001
       71985000	      7197	80003ef8	e7c14f93	xori	x31,x2,-388	  x2:0x37a9ddc4 x31=0xc85623b8
       71995000	      7198	80003efc	01957db3	and	x27,x10,x25	 x10:0xfffffffc x25:0x00000000 x27=0x00000000
       72005000	      7199	80003f00	01d83433	sltu	x8,x16,x29	 x16:0x00000001 x29:0x00459dcd  x8=0x00000001
       72015000	      7200	80003f04	0371c463	blt	x3,x23,80003f2c	  x3:0x00000001 x23:0xffff4dd5
       72025000	      7201	80003f08	021f8063	beq	x31,x1,80003f28	 x31:0xc85623b8  x1:0x00000000
       72035000	      7202	80003f0c	41e5da13	srai	x20,x11,0x1e	 x11:0x8777fdcd x20=0xfffffffe
       72045000	      7203	80003f10	1e40f993	andi	x19,x1,484	  x1:0x00000000 x19=0x00000000
       72055000	      7204	80003f14	01371293	slli	x5,x14,0x13	 x14:0x00000000  x5=0x00000000
       72065000	      7205	80003f18	03967063	bgeu	x12,x25,80003f38	 x12:0x8777fdc9 x25:0x00000000
       72075000	      7206	00000000	00000013	addi	x0,x0,0	  x0:0x00000000
       72085000	      7207	80003f34	00000013	addi	x0,x0,0	  x0:0x00000000
       72095000	      7208	80003f38	007c1663	bne	x24,x7,80003f44	 x24:0x00000000  x7:0x00000001
       72105000	      7209	00000000	00000013	addi	x0,x0,0	  x0:0x00000000
       72115000	      7210	80003f40	00000013	addi	x0,x0,0	  x0:0x00000000
       72125000	      7211	80003f44	03ad4463	blt	x26,x26,80003f6c	 x26:0x00000004 x26:0x00000004
       72135000	      7212	80003f48	01e1d393	srli	x7,x3,0x1e	  x3:0x00000001  x7=0x00000000
       72145000	      7213	80003f4c	04a19463	bne	x3,x10,80003f94	  x3:0x00000001 x10:0xfffffffc
       72155000	      7214	00000000	00000013	addi	x0,x0,0	  x0:0x00000000
       72165000	      7215	80003f90	00000013	addi	x0,x0,0	  x0:0x00000000
       72175000	      7216	80003f94	932a6593	ori	x11,x20,-1742	 x20:0xfffffffe x11=0xfffffffe
       72185000	      7217	80003f98	0109abb3	slt	x23,x19,x16	 x19:0x00000000 x16:0x00000001 x23=0x00000001
       72195000	      7218	80003f9c	401ed613	srai	x12,x29,0x1	 x29:0x00459dcd x12=0x0022cee6
       72205000	      7219	80003fa0	40015813	srai	x16,x2,0x0	  x2:0x37a9ddc4 x16=0x37a9ddc4
       72215000	      7220	80003fa4	c8b78093	addi	x1,x15,-885	 x15:0x80009fc4  x1=0x80009c4f
       72225000	      7221	80003fa8	01ed4833	xor	x16,x26,x30	 x26:0x00000004 x30:0xd375561b x16=0xd375561f
       72235000	      7222	80003fac	aa21e413	ori	x8,x3,-1374	  x3:0x00000001  x8=0xfffffaa3
       72245000	      7223	80003fb0	06e13213	sltiu	x4,x2,110	  x2:0x37a9ddc4  x4=0x00000000
       72255000	      7224	80003fb4	40d0dbb3	sra	x23,x1,x13	  x1:0x80009c4f x13:0x000005a1 x23=0xc0004e27
       72265000	      7225	80003fb8	14355597	auipc	x11,0x14355	 x11=0x94358fb4
       72275000	      7226	80003fbc	04f3f863	bgeu	x7,x15,8000400c	  x7:0x00000000 x15:0x80009fc4
       72285000	      7227	80003fc0	80fcdfb7	lui	x31,0x80fcd	 x31=0x80fcd000
       72295000	      7228	80003fc4	00e2d913	srli	x18,x5,0xe	  x5:0x00000000 x18=0x00000000
       72305000	      7229	80003fc8	d094acb7	lui	x25,0xd094a	 x25=0xd094a000
       72315000	      7230	80003fcc	0126d463	bge	x13,x18,80003fd4	 x13:0x000005a1 x18:0x00000000
       72325000	      7231	00000000	00000013	addi	x0,x0,0	  x0:0x00000000
       72335000	      7232	80003fd0	00000013	addi	x0,x0,0	  x0:0x00000000
       72345000	      7233	80003fd4	0331f063	bgeu	x3,x19,80003ff4	  x3:0x00000001 x19:0x00000000
       72355000	      7234	00000000	00000013	addi	x0,x0,0	  x0:0x00000000
       72365000	      7235	80003ff0	00000013	addi	x0,x0,0	  x0:0x00000000
       72375000	      7236	80003ff4	19b9a493	slti	x9,x19,411	 x19:0x00000000  x9=0x00000001
       72385000	      7237	80003ff8	005e9393	slli	x7,x29,0x5	 x29:0x00459dcd  x7=0x08b3b9a0
       72395000	      7238	80003ffc	01add4b3	srl	x9,x27,x26	 x27:0x00000000 x26:0x00000004  x9=0x00000000
       72405000	      7239	80004000	00b6b033	sltu	x0,x13,x11	 x13:0x000005a1 x11:0x94358fb4
       72415000	      7240	80004004	8d31bd93	sltiu	x27,x3,-1837	  x3:0x00000001 x27=0x00000001
       72425000	      7241	80004008	252e2d93	slti	x27,x28,594	 x28:0x00000000 x27=0x00000001
       72435000	      7242	8000400c	00d51463	bne	x10,x13,80004014	 x10:0xfffffffc x13:0x000005a1
       72445000	      7243	00000000	00000013	addi	x0,x0,0	  x0:0x00000000
       72455000	      7244	80004010	00000013	addi	x0,x0,0	  x0:0x00000000
       72465000	      7245	80004014	0ceaa413	slti	x8,x21,206	 x21:0x00000000  x8=0x00000001
       72475000	      7246	80004018	0008d013	srli	x0,x17,0x0	 x17:0x80009f2c
       72485000	      7247	8000401c	5208de97	auipc	x29,0x5208d	 x29=0xd2091018
       72495000	      7248	80004020	be0bf0b7	lui	x1,0xbe0bf	  x1=0xbe0bf000
       72505000	      7249	80004024	f5e54113	xori	x2,x10,-162	 x10:0xfffffffc  x2=0x000000a2
       72515000	      7250	80004028	01639463	bne	x7,x22,80004030	  x7:0x08b3b9a0 x22:0x396d876f
       72525000	      7251	00000000	00000013	addi	x0,x0,0	  x0:0x00000000
       72535000	      7252	8000402c	00000013	addi	x0,x0,0	  x0:0x00000000
       72545000	      7253	80004030	02891e63	bne	x18,x8,8000406c	 x18:0x00000000  x8:0x00000001
       72555000	      7254	00000000	00000013	addi	x0,x0,0	  x0:0x00000000
       72565000	      7255	80004068	00000013	addi	x0,x0,0	  x0:0x00000000
       72575000	      7256	8000406c	22eaa417	auipc	x8,0x22eaa	  x8=0xa2eae068
       72585000	      7257	80004070	00000013	addi	x0,x0,0	  x0:0x00000000
       72595000	      7258	80004074	14f63213	sltiu	x4,x12,335	 x12:0x0022cee6  x4=0x00000000
       72605000	      7259	80004078	0082d493	srli	x9,x5,0x8	  x5:0x00000000  x9=0x00000000
       72615000	      7260	8000407c	00e52f33	slt	x30,x10,x14	 x10:0xfffffffc x14:0x00000000 x30=0x00000001
       72625000	      7261	80004080	01e51b93	slli	x23,x10,0x1e	 x10:0xfffffffc x23=0x00000000
       72635000	      7262	80004084	0099db13	srli	x22,x19,0x9	 x19:0x00000000 x22=0x00000000
       72645000	      7263	80004088	0393d663	bge	x7,x25,800040b4	  x7:0x08b3b9a0 x25:0xd094a000
       72655000	      7264	00000000	00000013	addi	x0,x0,0	  x0:0x00000000
       72665000	      7265	800040b0	00000013	addi	x0,x0,0	  x0:0x00000000
       72675000	      7266	800040b4	03bbc463	blt	x23,x27,800040dc	 x23:0x00000000 x27:0x00000001
       72685000	      7267	00000000	00000013	addi	x0,x0,0	  x0:0x00000000
       72695000	      7268	800040d8	00000013	addi	x0,x0,0	  x0:0x00000000
       72705000	      7269	800040dc	c17ce813	ori	x16,x25,-1001	 x25:0xd094a000 x16=0xfffffc17
       72715000	      7270	800040e0	00d65093	srli	x1,x12,0xd	 x12:0x0022cee6  x1=0x00000116
       72725000	      7271	800040e4	017a21b3	slt	x3,x20,x23	 x20:0xfffffffe x23:0x00000000  x3=0x00000001
       72735000	      7272	800040e8	00b55463	bge	x10,x11,800040f0	 x10:0xfffffffc x11:0x94358fb4
       72745000	      7273	00000000	00000013	addi	x0,x0,0	  x0:0x00000000
       72755000	      7274	800040ec	00000013	addi	x0,x0,0	  x0:0x00000000
       72765000	      7275	800040f0	403f8133	sub	x2,x31,x3	 x31:0x80fcd000  x3:0x00000001  x2=0x80fccfff
       72775000	      7276	800040f4	40bb5313	srai	x6,x22,0xb	 x22:0x00000000  x6=0x00000000
       72785000	      7277	800040f8	0080ca33	xor	x20,x1,x8	  x1:0x00000116  x8:0xa2eae068 x20=0xa2eae17e
       72795000	      7278	800040fc	01589293	slli	x5,x17,0x15	 x17:0x80009f2c  x5=0xe5800000
       72805000	      7279	80004100	4ebd3913	sltiu	x18,x26,1259	 x26:0x00000004 x18=0x00000001
       72815000	      7280	80004104	01e90833	add	x16,x18,x30	 x18:0x00000001 x30:0x00000001 x16=0x00000002
       72825000	      7281	80004108	00aa5093	srli	x1,x20,0xa	 x20:0xa2eae17e  x1=0x0028bab8
       72835000	      7282	8000410c	43cda493	slti	x9,x27,1084	 x27:0x00000001  x9=0x00000001
       72845000	      7283	80004110	f70b3493	sltiu	x9,x22,-144	 x22:0x00000000  x9=0x00000001
       72855000	      7284	80004114	68804017	auipc	x0,0x68804	
       72865000	      7285	80004118	00badb33	srl	x22,x21,x11	 x21:0x00000000 x11:0x94358fb4 x22=0x00000000
       72875000	      7286	8000411c	b0e41f37	lui	x30,0xb0e41	 x30=0xb0e41000
       72885000	      7287	80004120	31cd3493	sltiu	x9,x26,796	 x26:0x00000004  x9=0x00000001
       72895000	      7288	80004124	01581863	bne	x16,x21,80004134	 x16:0x00000002 x21:0x00000000
       72905000	      7289	00000000	00000013	addi	x0,x0,0	  x0:0x00000000
       72915000	      7290	80004130	00000013	addi	x0,x0,0	  x0:0x00000000
       72925000	      7291	80004134	40098ab3	sub	x21,x19,x0	 x19:0x00000000  x0:0x00000000 x21=0x00000000
       72935000	      7292	80004138	0057bb33	sltu	x22,x15,x5	 x15:0x80009fc4  x5:0xe5800000 x22=0x00000001
       72945000	      7293	8000413c	0237d463	bge	x15,x3,80004164	 x15:0x80009fc4  x3:0x00000001
       72955000	      7294	80004140	f3873013	sltiu	x0,x14,-200	 x14:0x00000000
       72965000	      7295	80004144	a2599fb7	lui	x31,0xa2599	 x31=0xa2599000
       72975000	      7296	80004148	026c4263	blt	x24,x6,8000416c	 x24:0x00000000  x6:0x00000000
       72985000	      7297	8000414c	007da033	slt	x0,x27,x7	 x27:0x00000001  x7:0x08b3b9a0
       72995000	      7298	80004150	01aedf33	srl	x30,x29,x26	 x29:0xd2091018 x26:0x00000004 x30=0x0d209101
       73005000	      7299	80004154	02674c63	blt	x14,x6,8000418c	 x14:0x00000000  x6:0x00000000
       73015000	      7300	80004158	01de64b3	or	x9,x28,x29	 x28:0x00000000 x29:0xd2091018  x9=0xd2091018
       73025000	      7301	8000415c	00752a33	slt	x20,x10,x7	 x10:0xfffffffc  x7:0x08b3b9a0 x20=0x00000001
       73035000	      7302	80004160	40f05133	sra	x2,x0,x15	  x0:0x00000000 x15:0x80009fc4  x2=0x00000000
       73045000	      7303	80004164	012b51b3	srl	x3,x22,x18	 x22:0x00000001 x18:0x00000001  x3=0x00000000
       73055000	      7304	80004168	00000013	addi	x0,x0,0	  x0:0x00000000
       73065000	      7305	8000416c	00b6e533	or	x10,x13,x11	 x13:0x000005a1 x11:0x94358fb4 x10=0x94358fb5
       73075000	      7306	80004170	03fa5c63	bge	x20,x31,800041a8	 x20:0x00000001 x31:0xa2599000
       73085000	      7307	00000000	00000013	addi	x0,x0,0	  x0:0x00000000
       73095000	      7308	800041a4	00000013	addi	x0,x0,0	  x0:0x00000000
       73105000	      7309	800041a8	9af8f693	andi	x13,x17,-1617	 x17:0x80009f2c x13=0x8000992c
       73115000	      7310	800041ac	98d3c213	xori	x4,x7,-1651	  x7:0x08b3b9a0  x4=0xf74c402d
       73125000	      7311	800041b0	0152d213	srli	x4,x5,0x15	  x5:0xe5800000  x4=0x0000072c
       73135000	      7312	800041b4	01c7b033	sltu	x0,x15,x28	 x15:0x80009fc4 x28:0x00000000
       73145000	      7313	800041b8	add60013	addi	x0,x12,-1315	 x12:0x0022cee6
       73155000	      7314	800041bc	00857663	bgeu	x10,x8,800041c8	 x10:0x94358fb5  x8:0xa2eae068
       73165000	      7315	800041c0	02537863	bgeu	x6,x5,800041f0	  x6:0x00000000  x5:0xe5800000
       73175000	      7316	800041c4	01bd60b3	or	x1,x26,x27	 x26:0x00000004 x27:0x00000001  x1=0x00000005
       73185000	      7317	800041c8	01fa63b3	or	x7,x20,x31	 x20:0x00000001 x31:0xa2599000  x7=0xa2599001
       73195000	      7318	800041cc	9c723693	sltiu	x13,x4,-1593	  x4:0x0000072c x13=0x00000001
       73205000	      7319	800041d0	016ed493	srli	x9,x29,0x16	 x29:0xd2091018  x9=0x00000348
       73215000	      7320	800041d4	41b38033	sub	x0,x7,x27	  x7:0xa2599001 x27:0x00000001
       73225000	      7321	800041d8	83f93393	sltiu	x7,x18,-1985	 x18:0x00000001  x7=0x00000001
       73235000	      7322	800041dc	03e8ee63	bltu	x17,x30,80004218	 x17:0x80009f2c x30:0x0d209101
       73245000	      7323	800041e0	02ce1c63	bne	x28,x12,80004218	 x28:0x00000000 x12:0x0022cee6
       73255000	      7324	00000000	00000013	addi	x0,x0,0	  x0:0x00000000
       73265000	      7325	80004214	00000013	addi	x0,x0,0	  x0:0x00000000
       73275000	      7326	80004218	005a7c33	and	x24,x20,x5	 x20:0x00000001  x5:0xe5800000 x24=0x00000000
       73285000	      7327	8000421c	0163e4b3	or	x9,x7,x22	  x7:0x00000001 x22:0x00000001  x9=0x00000001
       73295000	      7328	80004220	01a6ebb3	or	x23,x13,x26	 x13:0x00000001 x26:0x00000004 x23=0x00000005
       73305000	      7329	80004224	0070bf33	sltu	x30,x1,x7	  x1:0x00000005  x7:0x00000001 x30=0x00000000
       73315000	      7330	80004228	004c8f33	add	x30,x25,x4	 x25:0xd094a000  x4:0x0000072c x30=0xd094a72c
       73325000	      7331	8000422c	00000013	addi	x0,x0,0	  x0:0x00000000
       73335000	      7332	80004230	04a15463	bge	x2,x10,80004278	  x2:0x00000000 x10:0x94358fb5
       73345000	      7333	00000000	00000013	addi	x0,x0,0	  x0:0x00000000
       73355000	      7334	80004274	00000013	addi	x0,x0,0	  x0:0x00000000
       73365000	      7335	80004278	41745413	srai	x8,x8,0x17	  x8:0xa2eae068  x8=0xffffff45
       73375000	      7336	8000427c	01cef533	and	x10,x29,x28	 x29:0xd2091018 x28:0x00000000 x10=0x00000000
       73385000	      7337	80004280	6646ec93	ori	x25,x13,1636	 x13:0x00000001 x25=0x00000665
       73395000	      7338	80004284	0229e863	bltu	x19,x2,800042b4	 x19:0x00000000  x2:0x00000000
       73405000	      7339	80004288	40818b33	sub	x22,x3,x8	  x3:0x00000000  x8:0xffffff45 x22=0x000000bb
       73415000	      7340	8000428c	bc254317	auipc	x6,0xbc254	  x6=0x3c258288
       73425000	      7341	80004290	301d6293	ori	x5,x26,769	 x26:0x00000004  x5=0x00000305
       73435000	      7342	80004294	0227d063	bge	x15,x2,800042b4	 x15:0x80009fc4  x2:0x00000000
       73445000	      7343	80004298	03bf6463	bltu	x30,x27,800042c0	 x30:0xd094a72c x27:0x00000001
       73455000	      7344	8000429c	9a0ba713	slti	x14,x23,-1632	 x23:0x00000005 x14=0x00000000
       73465000	      7345	800042a0	c1324a13	xori	x20,x4,-1005	  x4:0x0000072c x20=0xfffffb3f
       73475000	      7346	800042a4	41945533	sra	x10,x8,x25	  x8:0xffffff45 x25:0x00000665 x10=0xfffffffa
       73485000	      7347	800042a8	01865633	srl	x12,x12,x24	 x12:0x0022cee6 x24:0x00000000 x12=0x0022cee6
       73495000	      7348	800042ac	9f8d7613	andi	x12,x26,-1544	 x26:0x00000004 x12=0x00000000
       73505000	      7349	800042b0	013106b3	add	x13,x2,x19	  x2:0x00000000 x19:0x00000000 x13=0x00000000
       73515000	      7350	800042b4	41a6d593	srai	x11,x13,0x1a	 x13:0x00000000 x11=0x00000000
       73525000	      7351	800042b8	01f93133	sltu	x2,x18,x31	 x18:0x00000001 x31:0xa2599000  x2=0x00000001
       73535000	      7352	800042bc	40ded513	srai	x10,x29,0xd	 x29:0xd2091018 x10=0xfffe9048
       73545000	      7353	800042c0	4081d493	srai	x9,x3,0x8	  x3:0x00000000  x9=0x00000000
       73555000	      7354	800042c4	03360e63	beq	x12,x19,80004300	 x12:0x00000000 x19:0x00000000
       73565000	      7355	00000000	00000013	addi	x0,x0,0	  x0:0x00000000
       73575000	      7356	800042fc	00000013	addi	x0,x0,0	  x0:0x00000000
       73585000	      7357	80004300	f2ac8337	lui	x6,0xf2ac8	  x6=0xf2ac8000
       73595000	      7358	80004304	03b26663	bltu	x4,x27,80004330	  x4:0x0000072c x27:0x00000001
       73605000	      7359	80004308	00000013	addi	x0,x0,0	  x0:0x00000000
       73615000	      7360	8000430c	00000013	addi	x0,x0,0	  x0:0x00000000
       73625000	      7361	80004310	02ea1863	bne	x20,x14,80004340	 x20:0xfffffb3f x14:0x00000000
       73635000	      7362	00000000	00000013	addi	x0,x0,0	  x0:0x00000000
       73645000	      7363	8000433c	00000013	addi	x0,x0,0	  x0:0x00000000
       73655000	      7364	80004340	04771263	bne	x14,x7,80004384	 x14:0x00000000  x7:0x00000001
       73665000	      7365	00000000	00000013	addi	x0,x0,0	  x0:0x00000000
       73675000	      7366	80004380	00000013	addi	x0,x0,0	  x0:0x00000000
       73685000	      7367	80004384	bc893093	sltiu	x1,x18,-1080	 x18:0x00000001  x1=0x00000001
       73695000	      7368	80004388	016f59b3	srl	x19,x30,x22	 x30:0xd094a72c x22:0x000000bb x19=0x0000001a
       73705000	      7369	8000438c	01f19093	slli	x1,x3,0x1f	  x3:0x00000000  x1=0x00000000
       73715000	      7370	80004390	1360a293	slti	x5,x1,310	  x1:0x00000000  x5=0x00000001
       73725000	      7371	80004394	00c8da13	srli	x20,x17,0xc	 x17:0x80009f2c x20=0x00080009
       73735000	      7372	80004398	01534eb3	xor	x29,x6,x21	  x6:0xf2ac8000 x21:0x00000000 x29=0xf2ac8000
       73745000	      7373	8000439c	03ccdc63	bge	x25,x28,800043d4	 x25:0x00000665 x28:0x00000000
       73755000	      7374	00000000	00000013	addi	x0,x0,0	  x0:0x00000000
       73765000	      7375	800043d0	00000013	addi	x0,x0,0	  x0:0x00000000
       73775000	      7376	800043d4	0025ef33	or	x30,x11,x2	 x11:0x00000000  x2:0x00000001 x30=0x00000001
       73785000	      7377	800043d8	001b1eb3	sll	x29,x22,x1	 x22:0x000000bb  x1:0x00000000 x29=0x000000bb
       73795000	      7378	800043dc	01a7be33	sltu	x28,x15,x26	 x15:0x80009fc4 x26:0x00000004 x28=0x00000000
       73805000	      7379	800043e0	028f7063	bgeu	x30,x8,80004400	 x30:0x00000001  x8:0xffffff45
       73815000	      7380	800043e4	8090bc13	sltiu	x24,x1,-2039	  x1:0x00000000 x24=0x00000001
       73825000	      7381	800043e8	0115b1b3	sltu	x3,x11,x17	 x11:0x00000000 x17:0x80009f2c  x3=0x00000001
       73835000	      7382	800043ec	03c7d063	bge	x15,x28,8000440c	 x15:0x80009fc4 x28:0x00000000
       73845000	      7383	800043f0	00296e33	or	x28,x18,x2	 x18:0x00000001  x2:0x00000001 x28=0x00000001
       73855000	      7384	800043f4	02616463	bltu	x2,x6,8000441c	  x2:0x00000001  x6:0xf2ac8000
       73865000	      7385	00000000	00000013	addi	x0,x0,0	  x0:0x00000000
       73875000	      7386	80004418	00000013	addi	x0,x0,0	  x0:0x00000000
       73885000	      7387	8000441c	fdf43c93	sltiu	x25,x8,-33	  x8:0xffffff45 x25=0x00000001
       73895000	      7388	80004420	c9ef3593	sltiu	x11,x30,-866	 x30:0x00000001 x11=0x00000001
       73905000	      7389	80004424	40360633	sub	x12,x12,x3	 x12:0x00000000  x3:0x00000001 x12=0xffffffff
       73915000	      7390	80004428	0007fa63	bgeu	x15,x0,8000443c	 x15:0x80009fc4  x0:0x00000000
       73925000	      7391	00000000	00000013	addi	x0,x0,0	  x0:0x00000000
       73935000	      7392	80004438	00000013	addi	x0,x0,0	  x0:0x00000000
       73945000	      7393	8000443c	e6aee393	ori	x7,x29,-406	 x29:0x000000bb  x7=0xfffffefb
       73955000	      7394	80004440	c01ea193	slti	x3,x29,-1023	 x29:0x000000bb  x3=0x00000000
       73965000	      7395	80004444	00698333	add	x6,x19,x6	 x19:0x0000001a  x6:0xf2ac8000  x6=0xf2ac801a
       73975000	      7396	80004448	00004497	auipc	x9,0x4	  x9=0x80008444
       73985000	      7397	8000444c	1f548493	addi	x9,x9,501	  x9:0x80008444  x9=0x80008639
       73995000	      7398	80004450	13048283	lb	x5,304(x9)	  x9:0x80008639  x5=0xffffffff PA:0x80008769
       74005000	      7399	80004454	6a396113	ori	x2,x18,1699	 x18:0x00000001  x2=0x000006a3
       74015000	      7400	80004458	e6e497a3	sh	x14,-401(x9)	  x9:0x80008639 x14:0x00000000 PA:0x800084a8
       74025000	      7401	8000445c	5dc4a937	lui	x18,0x5dc4a	 x18=0x5dc4a000
       74035000	      7402	80004460	e1c4c003	lbu	x0,-484(x9)	  x9:0x80008639 PA:0x80008455
       74045000	      7403	80004464	16d49f03	lh	x30,365(x9)	  x9:0x80008639 x30=0xffffef2d PA:0x800087a6
       74055000	      7404	80004468	00bb0f33	add	x30,x22,x11	 x22:0x000000bb x11:0x00000001 x30=0x000000bc
       74065000	      7405	8000446c	7ce6d997	auipc	x19,0x7ce6d	 x19=0xfce71468
       74075000	      7406	80004470	cfc49ea3	sh	x28,-771(x9)	  x9:0x80008639 x28:0x00000001 PA:0x80008336
       74085000	      7407	80004474	07c4c203	lbu	x4,124(x9)	  x9:0x80008639  x4=0x0000000c PA:0x800086b5
       74095000	      7408	80004478	00000013	addi	x0,x0,0	  x0:0x00000000
       74105000	      7409	8000447c	ccd4cb03	lbu	x22,-819(x9)	  x9:0x80008639 x22=0x000000f3 PA:0x80008306
       74115000	      7410	80004480	10f4d503	lhu	x10,271(x9)	  x9:0x80008639 x10=0x00005000 PA:0x80008748
       74125000	      7411	80004484	dc04cd83	lbu	x27,-576(x9)	  x9:0x80008639 x27=0x000000d7 PA:0x800083f9
       74135000	      7412	80004488	01008833	add	x16,x1,x16	  x1:0x00000000 x16:0x00000002 x16=0x00000002
       74145000	      7413	8000448c	fee4ada3	sw	x14,-5(x9)	  x9:0x80008639 x14:0x00000000 PA:0x80008634
       74155000	      7414	80004490	010a63b3	or	x7,x20,x16	 x20:0x00080009 x16:0x00000002  x7=0x0008000b
       74165000	      7415	80004494	e59492a3	sh	x25,-443(x9)	  x9:0x80008639 x25:0x00000001 PA:0x8000847e
       74175000	      7416	80004498	38697e93	andi	x29,x18,902	 x18:0x5dc4a000 x29=0x00000000
       74185000	      7417	8000449c	00000013	addi	x0,x0,0	  x0:0x00000000
       74195000	      7418	800044a0	0c44ca83	lbu	x21,196(x9)	  x9:0x80008639 x21=0x00000085 PA:0x800086fd
       74205000	      7419	800044a4	4022d9b3	sra	x19,x5,x2	  x5:0xffffffff  x2:0x000006a3 x19=0xffffffff
       74215000	      7420	800044a8	adb48e23	sb	x27,-1316(x9)	  x9:0x80008639 x27:0x000000d7 PA:0x80008115
       74225000	      7421	800044ac	1da4c003	lbu	x0,474(x9)	  x9:0x80008639 PA:0x80008813
       74235000	      7422	800044b0	1c6490a3	sh	x6,449(x9)	  x9:0x80008639  x6:0xf2ac801a PA:0x800087fa
       74245000	      7423	800044b4	e9048c83	lb	x25,-368(x9)	  x9:0x80008639 x25=0x00000049 PA:0x800084c9
       74255000	      7424	800044b8	076492a3	sh	x22,101(x9)	  x9:0x80008639 x22:0x000000f3 PA:0x8000869e
       74265000	      7425	800044bc	cab93013	sltiu	x0,x18,-853	 x18:0x5dc4a000
       74275000	      7426	800044c0	ac348e23	sb	x3,-1316(x9)	  x9:0x80008639  x3:0x00000000 PA:0x80008115
       74285000	      7427	800044c4	003c9f93	slli	x31,x25,0x3	 x25:0x00000049 x31=0x00000248
       74295000	      7428	800044c8	0d948523	sb	x25,202(x9)	  x9:0x80008639 x25:0x00000049 PA:0x80008703
       74305000	      7429	800044cc	fcc48683	lb	x13,-52(x9)	  x9:0x80008639 x13=0xffffffff PA:0x80008605
       74315000	      7430	800044d0	03f7c063	blt	x15,x31,800044f0	 x15:0x80009fc4 x31:0x00000248
       74325000	      7431	00000000	00000013	addi	x0,x0,0	  x0:0x00000000
       74335000	      7432	800044ec	00000013	addi	x0,x0,0	  x0:0x00000000
       74345000	      7433	800044f0	0334d463	bge	x9,x19,80004518	  x9:0x80008639 x19:0xffffffff
       74355000	      7434	800044f4	039d6263	bltu	x26,x25,80004518	 x26:0x00000004 x25:0x00000049
       74365000	      7435	00000000	00000013	addi	x0,x0,0	  x0:0x00000000
       74375000	      7436	80004514	00000013	addi	x0,x0,0	  x0:0x00000000
       74385000	      7437	80004518	a7e8e693	ori	x13,x17,-1410	 x17:0x80009f2c x13=0xffffff7e
       74395000	      7438	8000451c	016c5a33	srl	x20,x24,x22	 x24:0x00000001 x22:0x000000f3 x20=0x00000000
       74405000	      7439	80004520	00000013	addi	x0,x0,0	  x0:0x00000000
       74415000	      7440	80004524	0130da33	srl	x20,x1,x19	  x1:0x00000000 x19:0xffffffff x20=0x00000000
       74425000	      7441	80004528	d7abb593	sltiu	x11,x23,-646	 x23:0x00000005 x11=0x00000001
       74435000	      7442	8000452c	00000013	addi	x0,x0,0	  x0:0x00000000
       74445000	      7443	80004530	4072d993	srai	x19,x5,0x7	  x5:0xffffffff x19=0xffffffff
       74455000	      7444	80004534	192a4693	xori	x13,x20,402	 x20:0x00000000 x13=0x00000192
       74465000	      7445	80004538	533e3613	sltiu	x12,x28,1331	 x28:0x00000001 x12=0x00000001
       74475000	      7446	8000453c	03c8c063	blt	x17,x28,8000455c	 x17:0x80009f2c x28:0x00000001
       74485000	      7447	00000000	00000013	addi	x0,x0,0	  x0:0x00000000
       74495000	      7448	80004558	00000013	addi	x0,x0,0	  x0:0x00000000
       74505000	      7449	8000455c	41290533	sub	x10,x18,x18	 x18:0x5dc4a000 x18:0x5dc4a000 x10=0x00000000
       74515000	      7450	80004560	03abfc63	bgeu	x23,x26,80004598	 x23:0x00000005 x26:0x00000004
       74525000	      7451	00000000	00000013	addi	x0,x0,0	  x0:0x00000000
       74535000	      7452	80004594	00000013	addi	x0,x0,0	  x0:0x00000000
       74545000	      7453	80004598	41e9db13	srai	x22,x19,0x1e	 x19:0xffffffff x22=0xffffffff
       74555000	      7454	8000459c	052baa13	slti	x20,x23,82	 x23:0x00000005 x20=0x00000001
       74565000	      7455	800045a0	0154c6b3	xor	x13,x9,x21	  x9:0x80008639 x21:0x00000085 x13=0x800086bc
       74575000	      7456	800045a4	00004117	auipc	x2,0x4	  x2=0x800085a0
       74585000	      7457	800045a8	4af10113	addi	x2,x2,1199	  x2:0x800085a0  x2=0x80008a4f
       74595000	      7458	800045ac	41cc0933	sub	x18,x24,x28	 x24:0x00000001 x28:0x00000001 x18=0x00000000
       74605000	      7459	800045b0	0f9c4993	xori	x19,x24,249	 x24:0x00000001 x19=0x000000f8
       74615000	      7460	800045b4	00269cb3	sll	x25,x13,x2	 x13:0x800086bc  x2:0x80008a4f x25=0x435e0000
       74625000	      7461	800045b8	56b5a813	slti	x16,x11,1387	 x11:0x00000001 x16=0x00000001
       74635000	      7462	800045bc	ff511283	lh	x5,-11(x2)	  x2:0x80008a4f  x5=0xffffb2cb PA:0x80008a44
       74645000	      7463	800045c0	00f15083	lhu	x1,15(x2)	  x2:0x80008a4f  x1=0x00000000 PA:0x80008a5e
       74655000	      7464	800045c4	ff311583	lh	x11,-13(x2)	  x2:0x80008a4f x11=0xffffe9c4 PA:0x80008a42
       74665000	      7465	800045c8	2e2b30b7	lui	x1,0x2e2b3	  x1=0x2e2b3000
       74675000	      7466	800045cc	ff610e83	lb	x29,-10(x2)	  x2:0x80008a4f x29=0xffffffb2 PA:0x80008a45
       74685000	      7467	800045d0	ffc10683	lb	x13,-4(x2)	  x2:0x80008a4f x13=0x00000044 PA:0x80008a4b
       74695000	      7468	800045d4	00000013	addi	x0,x0,0	  x0:0x00000000
       74705000	      7469	800045d8	00df02b3	add	x5,x30,x13	 x30:0x000000bc x13:0x00000044  x5=0x00000100
       74715000	      7470	800045dc	00210823	sb	x2,16(x2)	  x2:0x80008a4f  x2:0x80008a4f PA:0x80008a5f
       74725000	      7471	800045e0	ffc10583	lb	x11,-4(x2)	  x2:0x80008a4f x11=0x00000044 PA:0x80008a4b
       74735000	      7472	800045e4	41065eb3	sra	x29,x12,x16	 x12:0x00000001 x16:0x00000001 x29=0x00000000
       74745000	      7473	800045e8	0061d6b3	srl	x13,x3,x6	  x3:0x00000000  x6:0xf2ac801a x13=0x00000000
       74755000	      7474	800045ec	00a14c03	lbu	x24,10(x2)	  x2:0x80008a4f x24=0x000000d7 PA:0x80008a59
       74765000	      7475	800045f0	00028633	add	x12,x5,x0	  x5:0x00000100  x0:0x00000000 x12=0x00000100
       74775000	      7476	800045f4	00210083	lb	x1,2(x2)	  x2:0x80008a4f  x1=0x0000005a PA:0x80008a51
       74785000	      7477	800045f8	fec10823	sb	x12,-16(x2)	  x2:0x80008a4f x12:0x00000100 PA:0x80008a3f
       74795000	      7478	800045fc	95770393	addi	x7,x14,-1705	 x14:0x00000000  x7=0xfffff957
       74805000	      7479	80004600	24909a97	auipc	x21,0x24909	 x21=0xa490d5fc
       74815000	      7480	80004604	f6832693	slti	x13,x6,-152	  x6:0xf2ac801a x13=0x00000001
       74825000	      7481	80004608	013100a3	sb	x19,1(x2)	  x2:0x80008a4f x19:0x000000f8 PA:0x80008a50
       74835000	      7482	8000460c	4026d713	srai	x14,x13,0x2	 x13:0x00000001 x14=0x00000000
       74845000	      7483	80004610	ff811ea3	sh	x24,-3(x2)	  x2:0x80008a4f x24:0x000000d7 PA:0x80008a4c
       74855000	      7484	80004614	4024de13	srai	x28,x9,0x2	  x9:0x80008639 x28=0xe000218e
       74865000	      7485	80004618	9db724b7	lui	x9,0x9db72	  x9=0x9db72000
       74875000	      7486	8000461c	005126a3	sw	x5,13(x2)	  x2:0x80008a4f  x5:0x00000100 PA:0x80008a5c
       74885000	      7487	80004620	ff314003	lbu	x0,-13(x2)	  x2:0x80008a4f PA:0x80008a42
       74895000	      7488	80004624	ff914b83	lbu	x23,-7(x2)	  x2:0x80008a4f x23=0x000000f3 PA:0x80008a48
       74905000	      7489	00000000	00000013	addi	x0,x0,0	  x0:0x00000000
       74915000	      7490	80004628	01fbb5b3	sltu	x11,x23,x31	 x23:0x000000f3 x31:0x00000248 x11=0x00000001
       74925000	      7491	8000462c	0fe32413	slti	x8,x6,254	  x6:0xf2ac801a  x8=0x00000001
       74935000	      7492	80004630	4175d713	srai	x14,x11,0x17	 x11:0x00000001 x14=0x00000000
       74945000	      7493	80004634	01d2f033	and	x0,x5,x29	  x5:0x00000100 x29:0x00000000
       74955000	      7494	80004638	02a09863	bne	x1,x10,80004668	  x1:0x0000005a x10:0x00000000
       74965000	      7495	00000000	00000013	addi	x0,x0,0	  x0:0x00000000
       74975000	      7496	80004664	00000013	addi	x0,x0,0	  x0:0x00000000
       74985000	      7497	80004668	9ed36413	ori	x8,x6,-1555	  x6:0xf2ac801a  x8=0xfffff9ff
       74995000	      7498	8000466c	0027d933	srl	x18,x15,x2	 x15:0x80009fc4  x2:0x80008a4f x18=0x00010001
       75005000	      7499	80004670	ad766c13	ori	x24,x12,-1321	 x12:0x00000100 x24=0xfffffbd7
       75015000	      7500	80004674	00f75eb3	srl	x29,x14,x15	 x14:0x00000000 x15:0x80009fc4 x29=0x00000000
       75025000	      7501	80004678	017d4b33	xor	x22,x26,x23	 x26:0x00000004 x23:0x000000f3 x22=0x000000f7
       75035000	      7502	8000467c	00cc0a63	beq	x24,x12,80004690	 x24:0xfffffbd7 x12:0x00000100
       75045000	      7503	80004680	00b960b3	or	x1,x18,x11	 x18:0x00010001 x11:0x00000001  x1=0x00010001
       75055000	      7504	80004684	66fd0c97	auipc	x25,0x66fd0	 x25=0xe6fd4680
       75065000	      7505	80004688	416b5593	srai	x11,x22,0x16	 x22:0x000000f7 x11=0x00000000
       75075000	      7506	8000468c	ad8ccf93	xori	x31,x25,-1320	 x25:0xe6fd4680 x31=0x1902bc58
       75085000	      7507	80004690	96f1ccb7	lui	x25,0x96f1c	 x25=0x96f1c000
       75095000	      7508	80004694	566ae413	ori	x8,x21,1382	 x21:0xa490d5fc  x8=0xa490d5fe
       75105000	      7509	80004698	01ba7b33	and	x22,x20,x27	 x20:0x00000001 x27:0x000000d7 x22=0x00000001
       75115000	      7510	8000469c	004a4463	blt	x20,x4,800046a4	 x20:0x00000001  x4:0x0000000c
       75125000	      7511	00000000	00000013	addi	x0,x0,0	  x0:0x00000000
       75135000	      7512	800046a0	00000013	addi	x0,x0,0	  x0:0x00000000
       75145000	      7513	800046a4	40735113	srai	x2,x6,0x7	  x6:0xf2ac801a  x2=0xffe55900
       75155000	      7514	800046a8	9a4b5a97	auipc	x21,0x9a4b5	 x21=0x1a4b96a4
       75165000	      7515	800046ac	5440e213	ori	x4,x1,1348	  x1:0x00010001  x4=0x00010545
       75175000	      7516	800046b0	1660b213	sltiu	x4,x1,358	  x1:0x00010001  x4=0x00000000
       75185000	      7517	800046b4	40b75b93	srai	x23,x14,0xb	 x14:0x00000000 x23=0x00000000
       75195000	      7518	800046b8	41060bb3	sub	x23,x12,x16	 x12:0x00000100 x16:0x00000001 x23=0x000000ff
       75205000	      7519	800046bc	01dbefb3	or	x31,x23,x29	 x23:0x000000ff x29:0x00000000 x31=0x000000ff
       75215000	      7520	800046c0	7ac6e013	ori	x0,x13,1964	 x13:0x00000001
       75225000	      7521	800046c4	01a00a63	beq	x0,x26,800046d8	  x0:0x00000000 x26:0x00000004
       75235000	      7522	800046c8	0cb31a63	bne	x6,x11,8000479c	  x6:0xf2ac801a x11:0x00000000
       75245000	      7523	00000000	00000013	addi	x0,x0,0	  x0:0x00000000
       75255000	      7524	80004798	00000013	addi	x0,x0,0	  x0:0x00000000
       75265000	      7525	8000479c	d323f313	andi	x6,x7,-718	  x7:0xfffff957  x6=0xfffff912
       75275000	      7526	800047a0	024f1263	bne	x30,x4,800047c4	 x30:0x000000bc  x4:0x00000000
       75285000	      7527	00000000	00000013	addi	x0,x0,0	  x0:0x00000000
       75295000	      7528	800047c0	00000013	addi	x0,x0,0	  x0:0x00000000
       75305000	      7529	800047c4	3b89ea37	lui	x20,0x3b89e	 x20=0x3b89e000
       75315000	      7530	800047c8	02f9d463	bge	x19,x15,800047f0	 x19:0x000000f8 x15:0x80009fc4
       75325000	      7531	00000000	00000013	addi	x0,x0,0	  x0:0x00000000
       75335000	      7532	800047ec	00000013	addi	x0,x0,0	  x0:0x00000000
       75345000	      7533	800047f0	dafe5837	lui	x16,0xdafe5	 x16=0xdafe5000
       75355000	      7534	800047f4	02c07c63	bgeu	x0,x12,8000482c	  x0:0x00000000 x12:0x00000100
       75365000	      7535	800047f8	01c0f6b3	and	x13,x1,x28	  x1:0x00010001 x28:0xe000218e x13=0x00000000
       75375000	      7536	800047fc	009920b3	slt	x1,x18,x9	 x18:0x00010001  x9:0x9db72000  x1=0x00000000
       75385000	      7537	80004800	413f0eb3	sub	x29,x30,x19	 x30:0x000000bc x19:0x000000f8 x29=0xffffffc4
       75395000	      7538	80004804	028a5063	bge	x20,x8,80004824	 x20:0x3b89e000  x8:0xa490d5fe
       75405000	      7539	00000000	00000013	addi	x0,x0,0	  x0:0x00000000
       75415000	      7540	80004820	00000013	addi	x0,x0,0	  x0:0x00000000
       75425000	      7541	80004824	4149d133	sra	x2,x19,x20	 x19:0x000000f8 x20:0x3b89e000  x2=0x000000f8
       75435000	      7542	80004828	01b9ce33	xor	x28,x19,x27	 x19:0x000000f8 x27:0x000000d7 x28=0x0000002f
       75445000	      7543	8000482c	014360b3	or	x1,x6,x20	  x6:0xfffff912 x20:0x3b89e000  x1=0xfffff912
       75455000	      7544	80004830	02bf4e63	blt	x30,x11,8000486c	 x30:0x000000bc x11:0x00000000
       75465000	      7545	80004834	00aada33	srl	x20,x21,x10	 x21:0x1a4b96a4 x10:0x00000000 x20=0x1a4b96a4
       75475000	      7546	80004838	403e8ab3	sub	x21,x29,x3	 x29:0xffffffc4  x3:0x00000000 x21=0xffffffc4
       75485000	      7547	8000483c	02528e63	beq	x5,x5,80004878	  x5:0x00000100  x5:0x00000100
       75495000	      7548	00000000	00000013	addi	x0,x0,0	  x0:0x00000000
       75505000	      7549	80004874	00000013	addi	x0,x0,0	  x0:0x00000000
       75515000	      7550	80004878	41e75093	srai	x1,x14,0x1e	 x14:0x00000000  x1=0x00000000
       75525000	      7551	8000487c	dbd4e513	ori	x10,x9,-579	  x9:0x9db72000 x10=0xfffffdbd
       75535000	      7552	80004880	03236c63	bltu	x6,x18,800048b8	  x6:0xfffff912 x18:0x00010001
       75545000	      7553	80004884	02fe4063	blt	x28,x15,800048a4	 x28:0x0000002f x15:0x80009fc4
       75555000	      7554	80004888	0137ba33	sltu	x20,x15,x19	 x15:0x80009fc4 x19:0x000000f8 x20=0x00000000
       75565000	      7555	8000488c	016003b3	add	x7,x0,x22	  x0:0x00000000 x22:0x00000001  x7=0x00000001
       75575000	      7556	80004890	015886b3	add	x13,x17,x21	 x17:0x80009f2c x21:0xffffffc4 x13=0x80009ef0
       75585000	      7557	80004894	034ee063	bltu	x29,x20,800048b4	 x29:0xffffffc4 x20:0x00000000
       75595000	      7558	80004898	01a1b633	sltu	x12,x3,x26	  x3:0x00000000 x26:0x00000004 x12=0x00000001
       75605000	      7559	8000489c	018f5333	srl	x6,x30,x24	 x30:0x000000bc x24:0xfffffbd7  x6=0x00000000
       75615000	      7560	800048a0	cdcd0413	addi	x8,x26,-804	 x26:0x00000004  x8=0xfffffce0
       75625000	      7561	800048a4	00cb6433	or	x8,x22,x12	 x22:0x00000001 x12:0x00000001  x8=0x00000001
       75635000	      7562	800048a8	011ac333	xor	x6,x21,x17	 x21:0xffffffc4 x17:0x80009f2c  x6=0x7fff60e8
       75645000	      7563	800048ac	01270463	beq	x14,x18,800048b4	 x14:0x00000000 x18:0x00010001
       75655000	      7564	800048b0	b6e02a93	slti	x21,x0,-1170	  x0:0x00000000 x21=0x00000000
       75665000	      7565	800048b4	00771733	sll	x14,x14,x7	 x14:0x00000000  x7:0x00000001 x14=0x00000000
       75675000	      7566	800048b8	54adee93	ori	x29,x27,1354	 x27:0x000000d7 x29=0x000005df
       75685000	      7567	800048bc	83dc0593	addi	x11,x24,-1987	 x24:0xfffffbd7 x11=0xfffff414
       75695000	      7568	800048c0	5e2ede37	lui	x28,0x5e2ed	 x28=0x5e2ed000
       75705000	      7569	800048c4	7d1d4b13	xori	x22,x26,2001	 x26:0x00000004 x22=0x000007d5
       75715000	      7570	800048c8	00df9813	slli	x16,x31,0xd	 x31:0x000000ff x16=0x001fe000
       75725000	      7571	800048cc	4b403913	sltiu	x18,x0,1204	  x0:0x00000000 x18=0x00000001
       75735000	      7572	800048d0	01fdc033	xor	x0,x27,x31	 x27:0x000000d7 x31:0x000000ff
       75745000	      7573	800048d4	025bce63	blt	x23,x5,80004910	 x23:0x000000ff  x5:0x00000100
       75755000	      7574	00000000	00000013	addi	x0,x0,0	  x0:0x00000000
       75765000	      7575	8000490c	00000013	addi	x0,x0,0	  x0:0x00000000
       75775000	      7576	80004910	00000013	addi	x0,x0,0	  x0:0x00000000
       75785000	      7577	80004914	ff53a313	slti	x6,x7,-11	  x7:0x00000001  x6=0x00000000
       75795000	      7578	80004918	6aca4193	xori	x3,x20,1708	 x20:0x00000000  x3=0x000006ac
       75805000	      7579	8000491c	41c45213	srai	x4,x8,0x1c	  x8:0x00000001  x4=0x00000000
       75815000	      7580	80004920	01775193	srli	x3,x14,0x17	 x14:0x00000000  x3=0x00000000
       75825000	      7581	80004924	009f4e33	xor	x28,x30,x9	 x30:0x000000bc  x9:0x9db72000 x28=0x9db720bc
       75835000	      7582	80004928	02ee0c63	beq	x28,x14,80004960	 x28:0x9db720bc x14:0x00000000
       75845000	      7583	8000492c	03b90063	beq	x18,x27,8000494c	 x18:0x00000001 x27:0x000000d7
       75855000	      7584	80004930	b5e77613	andi	x12,x14,-1186	 x14:0x00000000 x12=0x00000000
       75865000	      7585	80004934	017761b3	or	x3,x14,x23	 x14:0x00000000 x23:0x000000ff  x3=0x000000ff
       75875000	      7586	80004938	01191733	sll	x14,x18,x17	 x18:0x00000001 x17:0x80009f2c x14=0x00001000
       75885000	      7587	8000493c	01abc2b3	xor	x5,x23,x26	 x23:0x000000ff x26:0x00000004  x5=0x000000fb
       75895000	      7588	80004940	011f8b33	add	x22,x31,x17	 x31:0x000000ff x17:0x80009f2c x22=0x8000a02b
       75905000	      7589	80004944	0007a1b3	slt	x3,x15,x0	 x15:0x80009fc4  x0:0x00000000  x3=0x00000001
       75915000	      7590	80004948	003554b3	srl	x9,x10,x3	 x10:0xfffffdbd  x3:0x00000001  x9=0x7ffffede
       75925000	      7591	8000494c	013c1f93	slli	x31,x24,0x13	 x24:0xfffffbd7 x31=0xdeb80000
       75935000	      7592	80004950	ea336993	ori	x19,x6,-349	  x6:0x00000000 x19=0xfffffea3
       75945000	      7593	80004954	007be863	bltu	x23,x7,80004964	 x23:0x000000ff  x7:0x00000001
       75955000	      7594	80004958	6dd7fd93	andi	x27,x15,1757	 x15:0x80009fc4 x27=0x000006c4
       75965000	      7595	8000495c	11006b13	ori	x22,x0,272	  x0:0x00000000 x22=0x00000110
       75975000	      7596	80004960	000333b3	sltu	x7,x6,x0	  x6:0x00000000  x0:0x00000000  x7=0x00000000
       75985000	      7597	80004964	01dc5593	srli	x11,x24,0x1d	 x24:0xfffffbd7 x11=0x00000007
       75995000	      7598	80004968	00a310b3	sll	x1,x6,x10	  x6:0x00000000 x10:0xfffffdbd  x1=0x00000000
       76005000	      7599	8000496c	03e59463	bne	x11,x30,80004994	 x11:0x00000007 x30:0x000000bc
       76015000	      7600	00000000	00000013	addi	x0,x0,0	  x0:0x00000000
       76025000	      7601	80004990	00000013	addi	x0,x0,0	  x0:0x00000000
       76035000	      7602	80004994	0148d393	srli	x7,x17,0x14	 x17:0x80009f2c  x7=0x00000800
       76045000	      7603	80004998	00c630b3	sltu	x1,x12,x12	 x12:0x00000000 x12:0x00000000  x1=0x00000000
       76055000	      7604	8000499c	0332c863	blt	x5,x19,800049cc	  x5:0x000000fb x19:0xfffffea3
       76065000	      7605	800049a0	92ecc613	xori	x12,x25,-1746	 x25:0x96f1c000 x12=0x690e392e
       76075000	      7606	800049a4	03a3d463	bge	x7,x26,800049cc	  x7:0x00000800 x26:0x00000004
       76085000	      7607	00000000	00000013	addi	x0,x0,0	  x0:0x00000000
       76095000	      7608	800049c8	00000013	addi	x0,x0,0	  x0:0x00000000
       76105000	      7609	800049cc	e2217493	andi	x9,x2,-478	  x2:0x000000f8  x9=0x00000020
       76115000	      7610	800049d0	00f774b3	and	x9,x14,x15	 x14:0x00001000 x15:0x80009fc4  x9=0x00001000
       76125000	      7611	800049d4	01395613	srli	x12,x18,0x13	 x18:0x00000001 x12=0x00000000
       76135000	      7612	800049d8	03464c63	blt	x12,x20,80004a10	 x12:0x00000000 x20:0x00000000
       76145000	      7613	800049dc	00000013	addi	x0,x0,0	  x0:0x00000000
       76155000	      7614	800049e0	001a94b3	sll	x9,x21,x1	 x21:0x00000000  x1:0x00000000  x9=0x00000000
       76165000	      7615	800049e4	00000013	addi	x0,x0,0	  x0:0x00000000
       76175000	      7616	800049e8	00101633	sll	x12,x0,x1	  x0:0x00000000  x1:0x00000000 x12=0x00000000
       76185000	      7617	800049ec	03311863	bne	x2,x19,80004a1c	  x2:0x000000f8 x19:0xfffffea3
       76195000	      7618	00000000	00000013	addi	x0,x0,0	  x0:0x00000000
       76205000	      7619	80004a18	00000013	addi	x0,x0,0	  x0:0x00000000
       76215000	      7620	80004a1c	00000013	addi	x0,x0,0	  x0:0x00000000
       76225000	      7621	80004a20	e95c3a13	sltiu	x20,x24,-363	 x24:0xfffffbd7 x20=0x00000001
       76235000	      7622	80004a24	762fc813	xori	x16,x31,1890	 x31:0xdeb80000 x16=0xdeb80762
       76245000	      7623	80004a28	01cf1733	sll	x14,x30,x28	 x30:0x000000bc x28:0x9db720bc x14=0xc0000000
       76255000	      7624	80004a2c	00a85333	srl	x6,x16,x10	 x16:0xdeb80762 x10:0xfffffdbd  x6=0x00000006
       76265000	      7625	80004a30	016a3a33	sltu	x20,x20,x22	 x20:0x00000001 x22:0x00000110 x20=0x00000001
       76275000	      7626	80004a34	91b69097	auipc	x1,0x91b69	  x1=0x11b6da30
       76285000	      7627	80004a38	41145fb3	sra	x31,x8,x17	  x8:0x00000001 x17:0x80009f2c x31=0x00000000
       76295000	      7628	80004a3c	00b73a33	sltu	x20,x14,x11	 x14:0xc0000000 x11:0x00000007 x20=0x00000000
       76305000	      7629	80004a40	00e33ab3	sltu	x21,x6,x14	  x6:0x00000006 x14:0xc0000000 x21=0x00000001
       76315000	      7630	80004a44	01d71293	slli	x5,x14,0x1d	 x14:0xc0000000  x5=0x00000000
       76325000	      7631	80004a48	408f5a93	srai	x21,x30,0x8	 x30:0x000000bc x21=0x00000000
       76335000	      7632	80004a4c	c0ad8493	addi	x9,x27,-1014	 x27:0x000006c4  x9=0x000002ce
       76345000	      7633	80004a50	00000013	addi	x0,x0,0	  x0:0x00000000
       76355000	      7634	80004a54	00b37463	bgeu	x6,x11,80004a5c	  x6:0x00000006 x11:0x00000007
       76365000	      7635	80004a58	003ab533	sltu	x10,x21,x3	 x21:0x00000000  x3:0x00000001 x10=0x00000001
       76375000	      7636	80004a5c	017a7433	and	x8,x20,x23	 x20:0x00000000 x23:0x000000ff  x8=0x00000000
       76385000	      7637	80004a60	00959a13	slli	x20,x11,0x9	 x11:0x00000007 x20=0x00000e00
       76395000	      7638	80004a64	04d69863	bne	x13,x13,80004ab4	 x13:0x80009ef0 x13:0x80009ef0
       76405000	      7639	80004a68	00000013	addi	x0,x0,0	  x0:0x00000000
       76415000	      7640	80004a6c	30d17b93	andi	x23,x2,781	  x2:0x000000f8 x23=0x00000008
       76425000	      7641	80004a70	003ab633	sltu	x12,x21,x3	 x21:0x00000000  x3:0x00000001 x12=0x00000001
       76435000	      7642	80004a74	005ef033	and	x0,x29,x5	 x29:0x000005df  x5:0x00000000
       76445000	      7643	80004a78	0475d263	bge	x11,x7,80004abc	 x11:0x00000007  x7:0x00000800
       76455000	      7644	80004a7c	00f2cb33	xor	x22,x5,x15	  x5:0x00000000 x15:0x80009fc4 x22=0x80009fc4
       76465000	      7645	80004a80	f508fa37	lui	x20,0xf508f	 x20=0xf508f000
       76475000	      7646	80004a84	0da43a13	sltiu	x20,x8,218	  x8:0x00000000 x20=0x00000001
       76485000	      7647	80004a88	c12aa193	slti	x3,x21,-1006	 x21:0x00000000  x3=0x00000000
       76495000	      7648	80004a8c	f5704e93	xori	x29,x0,-169	  x0:0x00000000 x29=0xffffff57
       76505000	      7649	80004a90	1a3e4e17	auipc	x28,0x1a3e4	 x28=0x9a3e8a8c
       76515000	      7650	80004a94	001a9b33	sll	x22,x21,x1	 x21:0x00000000  x1:0x11b6da30 x22=0x00000000
       76525000	      7651	80004a98	152ae113	ori	x2,x21,338	 x21:0x00000000  x2=0x00000152
       76535000	      7652	80004a9c	da2c1197	auipc	x3,0xda2c1	  x3=0x5a2c5a98
       76545000	      7653	80004aa0	0162d533	srl	x10,x5,x22	  x5:0x00000000 x22:0x00000000 x10=0x00000000
       76555000	      7654	80004aa4	0077f133	and	x2,x15,x7	 x15:0x80009fc4  x7:0x00000800  x2=0x00000800
       76565000	      7655	80004aa8	014a1433	sll	x8,x20,x20	 x20:0x00000001 x20:0x00000001  x8=0x00000002
       76575000	      7656	80004aac	0056b2b3	sltu	x5,x13,x5	 x13:0x80009ef0  x5:0x00000000  x5=0x00000000
       76585000	      7657	80004ab0	75938f93	addi	x31,x7,1881	  x7:0x00000800 x31=0x00000f59
       76595000	      7658	80004ab4	9c703693	sltiu	x13,x0,-1593	  x0:0x00000000 x13=0x00000001
       76605000	      7659	80004ab8	00caa333	slt	x6,x21,x12	 x21:0x00000000 x12:0x00000001  x6=0x00000001
       76615000	      7660	80004abc	4fcd7a13	andi	x20,x26,1276	 x26:0x00000004 x20=0x00000004
       76625000	      7661	80004ac0	00d61293	slli	x5,x12,0xd	 x12:0x00000001  x5=0x00002000
       76635000	      7662	80004ac4	01597233	and	x4,x18,x21	 x18:0x00000001 x21:0x00000000  x4=0x00000000
       76645000	      7663	80004ac8	9b6f0b93	addi	x23,x30,-1610	 x30:0x000000bc x23=0xfffffa72
       76655000	      7664	80004acc	01995013	srli	x0,x18,0x19	 x18:0x00000001
       76665000	      7665	80004ad0	00e5cf33	xor	x30,x11,x14	 x11:0x00000007 x14:0xc0000000 x30=0xc0000007
       76675000	      7666	80004ad4	409055b3	sra	x11,x0,x9	  x0:0x00000000  x9:0x000002ce x11=0x00000000
       76685000	      7667	80004ad8	01d75663	bge	x14,x29,80004ae4	 x14:0xc0000000 x29:0xffffff57
       76695000	      7668	80004adc	4023d2b3	sra	x5,x7,x2	  x7:0x00000800  x2:0x00000800  x5=0x00000800
       76705000	      7669	80004ae0	41455513	srai	x10,x10,0x14	 x10:0x00000000 x10=0x00000000
       76715000	      7670	80004ae4	01b09a63	bne	x1,x27,80004af8	  x1:0x11b6da30 x27:0x000006c4
       76725000	      7671	00000000	00000013	addi	x0,x0,0	  x0:0x00000000
       76735000	      7672	80004af4	00000013	addi	x0,x0,0	  x0:0x00000000
       76745000	      7673	80004af8	02bdd863	bge	x27,x11,80004b28	 x27:0x000006c4 x11:0x00000000
       76755000	      7674	00000000	00000013	addi	x0,x0,0	  x0:0x00000000
       76765000	      7675	80004b24	00000013	addi	x0,x0,0	  x0:0x00000000
       76775000	      7676	80004b28	00101813	slli	x16,x0,0x1	  x0:0x00000000 x16=0x00000000
       76785000	      7677	80004b2c	4066d1b3	sra	x3,x13,x6	 x13:0x00000001  x6:0x00000001  x3=0x00000000
       76795000	      7678	80004b30	00145493	srli	x9,x8,0x1	  x8:0x00000002  x9=0x00000001
       76805000	      7679	80004b34	e50dea13	ori	x20,x27,-432	 x27:0x000006c4 x20=0xfffffed4
       76815000	      7680	80004b38	3b803a13	sltiu	x20,x0,952	  x0:0x00000000 x20=0x00000001
       76825000	      7681	80004b3c	00239a63	bne	x7,x2,80004b50	  x7:0x00000800  x2:0x00000800
       76835000	      7682	80004b40	01f59c13	slli	x24,x11,0x1f	 x11:0x00000000 x24=0x00000000
       76845000	      7683	80004b44	007e9193	slli	x3,x29,0x7	 x29:0xffffff57  x3=0xffffab80
       76855000	      7684	80004b48	d4c22493	slti	x9,x4,-692	  x4:0x00000000  x9=0x00000000
       76865000	      7685	80004b4c	40615093	srai	x1,x2,0x6	  x2:0x00000800  x1=0x00000020
       76875000	      7686	80004b50	00629d93	slli	x27,x5,0x6	  x5:0x00000800 x27=0x00020000
       76885000	      7687	80004b54	05798263	beq	x19,x23,80004b98	 x19:0xfffffea3 x23:0xfffffa72
       76895000	      7688	80004b58	0175d513	srli	x10,x11,0x17	 x11:0x00000000 x10=0x00000000
       76905000	      7689	80004b5c	01fcd833	srl	x16,x25,x31	 x25:0x96f1c000 x31:0x00000f59 x16=0x0000004b
       76915000	      7690	80004b60	0289c463	blt	x19,x8,80004b88	 x19:0xfffffea3  x8:0x00000002
       76925000	      7691	00000000	00000013	addi	x0,x0,0	  x0:0x00000000
       76935000	      7692	80004b84	00000013	addi	x0,x0,0	  x0:0x00000000
       76945000	      7693	80004b88	008a1293	slli	x5,x20,0x8	 x20:0x00000001  x5=0x00000100
       76955000	      7694	80004b8c	402e5613	srai	x12,x28,0x2	 x28:0x9a3e8a8c x12=0xe68fa2a3
       76965000	      7695	80004b90	01e125b3	slt	x11,x2,x30	  x2:0x00000800 x30:0xc0000007 x11=0x00000000
       76975000	      7696	80004b94	bf31fc13	andi	x24,x3,-1037	  x3:0xffffab80 x24=0xffffab80
       76985000	      7697	80004b98	015563b3	or	x7,x10,x21	 x10:0x00000000 x21:0x00000000  x7=0x00000000
       76995000	      7698	80004b9c	00d45613	srli	x12,x8,0xd	  x8:0x00000002 x12=0x00000000
       77005000	      7699	80004ba0	548a7b93	andi	x23,x20,1352	 x20:0x00000001 x23=0x00000000
       77015000	      7700	80004ba4	00000013	addi	x0,x0,0	  x0:0x00000000
       77025000	      7701	80004ba8	01747a63	bgeu	x8,x23,80004bbc	  x8:0x00000002 x23:0x00000000
       77035000	      7702	00000000	00000013	addi	x0,x0,0	  x0:0x00000000
       77045000	      7703	80004bb8	00000013	addi	x0,x0,0	  x0:0x00000000
       77055000	      7704	80004bbc	01b7cab3	xor	x21,x15,x27	 x15:0x80009fc4 x27:0x00020000 x21=0x80029fc4
       77065000	      7705	80004bc0	00af9013	slli	x0,x31,0xa	 x31:0x00000f59
       77075000	      7706	80004bc4	000d93b3	sll	x7,x27,x0	 x27:0x00020000  x0:0x00000000  x7=0x00020000
       77085000	      7707	80004bc8	41835533	sra	x10,x6,x24	  x6:0x00000001 x24:0xffffab80 x10=0x00000001
       77095000	      7708	80004bcc	00cb7e33	and	x28,x22,x12	 x22:0x00000000 x12:0x00000000 x28=0x00000000
       77105000	      7709	80004bd0	02fb4063	blt	x22,x15,80004bf0	 x22:0x00000000 x15:0x80009fc4
       77115000	      7710	80004bd4	015b9cb3	sll	x25,x23,x21	 x23:0x00000000 x21:0x80029fc4 x25=0x00000000
       77125000	      7711	80004bd8	001b4c13	xori	x24,x22,1	 x22:0x00000000 x24=0x00000001
       77135000	      7712	80004bdc	40dc5e33	sra	x28,x24,x13	 x24:0x00000001 x13:0x00000001 x28=0x00000000
       77145000	      7713	80004be0	00000013	addi	x0,x0,0	  x0:0x00000000
       77155000	      7714	80004be4	00b39513	slli	x10,x7,0xb	  x7:0x00020000 x10=0x10000000
       77165000	      7715	80004be8	025f7463	bgeu	x30,x5,80004c10	 x30:0xc0000007  x5:0x00000100
       77175000	      7716	00000000	00000013	addi	x0,x0,0	  x0:0x00000000
       77185000	      7717	80004c0c	00000013	addi	x0,x0,0	  x0:0x00000000
       77195000	      7718	80004c10	00bb16b3	sll	x13,x22,x11	 x22:0x00000000 x11:0x00000000 x13=0x00000000
       77205000	      7719	80004c14	00000013	addi	x0,x0,0	  x0:0x00000000
       77215000	      7720	80004c18	5b222193	slti	x3,x4,1458	  x4:0x00000000  x3=0x00000001
       77225000	      7721	80004c1c	001da1b3	slt	x3,x27,x1	 x27:0x00020000  x1:0x00000020  x3=0x00000000
       77235000	      7722	80004c20	8605c497	auipc	x9,0x8605c	  x9=0x06060c1c
       77245000	      7723	80004c24	012b5db3	srl	x27,x22,x18	 x22:0x00000000 x18:0x00000001 x27=0x00000000
       77255000	      7724	80004c28	00000013	addi	x0,x0,0	  x0:0x00000000
       77265000	      7725	80004c2c	032bd063	bge	x23,x18,80004c4c	 x23:0x00000000 x18:0x00000001
       77275000	      7726	80004c30	006fa433	slt	x8,x31,x6	 x31:0x00000f59  x6:0x00000001  x8=0x00000000
       77285000	      7727	80004c34	5ca26c13	ori	x24,x4,1482	  x4:0x00000000 x24=0x000005ca
       77295000	      7728	80004c38	91f34693	xori	x13,x6,-1761	  x6:0x00000001 x13=0xfffff91e
       77305000	      7729	80004c3c	92933113	sltiu	x2,x6,-1751	  x6:0x00000001  x2=0x00000001
       77315000	      7730	80004c40	41230833	sub	x16,x6,x18	  x6:0x00000001 x18:0x00000001 x16=0x00000000
       77325000	      7731	80004c44	0093d113	srli	x2,x7,0x9	  x7:0x00020000  x2=0x00000100
       77335000	      7732	80004c48	01341663	bne	x8,x19,80004c54	  x8:0x00000000 x19:0xfffffea3
       77345000	      7733	00000000	00000013	addi	x0,x0,0	  x0:0x00000000
       77355000	      7734	80004c50	00000013	addi	x0,x0,0	  x0:0x00000000
       77365000	      7735	80004c54	00ee65b3	or	x11,x28,x14	 x28:0x00000000 x14:0xc0000000 x11=0xc0000000
       77375000	      7736	80004c58	010761b3	or	x3,x14,x16	 x14:0xc0000000 x16:0x00000000  x3=0xc0000000
       77385000	      7737	80004c5c	60b62837	lui	x16,0x60b62	 x16=0x60b62000
       77395000	      7738	80004c60	404e8b33	sub	x22,x29,x4	 x29:0xffffff57  x4:0x00000000 x22=0xffffff57
       77405000	      7739	80004c64	710eb593	sltiu	x11,x29,1808	 x29:0xffffff57 x11=0x00000000
       77415000	      7740	80004c68	8ed96f97	auipc	x31,0x8ed96	 x31=0x0ed9ac64
       77425000	      7741	80004c6c	00bb1463	bne	x22,x11,80004c74	 x22:0xffffff57 x11:0x00000000
       77435000	      7742	00000000	00000013	addi	x0,x0,0	  x0:0x00000000
       77445000	      7743	80004c70	00000013	addi	x0,x0,0	  x0:0x00000000
       77455000	      7744	80004c74	0274fe63	bgeu	x9,x7,80004cb0	  x9:0x06060c1c  x7:0x00020000
       77465000	      7745	00000000	00000013	addi	x0,x0,0	  x0:0x00000000
       77475000	      7746	80004cac	00000013	addi	x0,x0,0	  x0:0x00000000
       77485000	      7747	80004cb0	016f1133	sll	x2,x30,x22	 x30:0xc0000007 x22:0xffffff57  x2=0x03800000
       77495000	      7748	80004cb4	02fb8663	beq	x23,x15,80004ce0	 x23:0x00000000 x15:0x80009fc4
       77505000	      7749	80004cb8	00caf863	bgeu	x21,x12,80004cc8	 x21:0x80029fc4 x12:0x00000000
       77515000	      7750	00000000	00000013	addi	x0,x0,0	  x0:0x00000000
       77525000	      7751	80004cc4	00000013	addi	x0,x0,0	  x0:0x00000000
       77535000	      7752	80004cc8	03acec63	bltu	x25,x26,80004d00	 x25:0x00000000 x26:0x00000004
       77545000	      7753	00000000	00000013	addi	x0,x0,0	  x0:0x00000000
       77555000	      7754	80004cfc	00000013	addi	x0,x0,0	  x0:0x00000000
       77565000	      7755	80004d00	032fe663	bltu	x31,x18,80004d2c	 x31:0x0ed9ac64 x18:0x00000001
       77575000	      7756	80004d04	02160063	beq	x12,x1,80004d24	 x12:0x00000000  x1:0x00000020
       77585000	      7757	80004d08	3e3e6d93	ori	x27,x28,995	 x28:0x00000000 x27=0x000003e3
       77595000	      7758	80004d0c	2cecff13	andi	x30,x25,718	 x25:0x00000000 x30=0x00000000
       77605000	      7759	80004d10	41e5d293	srai	x5,x11,0x1e	 x11:0x00000000  x5=0x00000000
       77615000	      7760	80004d14	0214ee63	bltu	x9,x1,80004d50	  x9:0x06060c1c  x1:0x00000020
       77625000	      7761	80004d18	0490f213	andi	x4,x1,73	  x1:0x00000020  x4=0x00000000
       77635000	      7762	80004d1c	400e5ab3	sra	x21,x28,x0	 x28:0x00000000  x0:0x00000000 x21=0x00000000
       77645000	      7763	80004d20	008f7a33	and	x20,x30,x8	 x30:0x00000000  x8:0x00000000 x20=0x00000000
       77655000	      7764	80004d24	88b36a13	ori	x20,x6,-1909	  x6:0x00000001 x20=0xfffff88b
       77665000	      7765	80004d28	01e8da93	srli	x21,x17,0x1e	 x17:0x80009f2c x21=0x00000002
       77675000	      7766	80004d2c	03e04463	blt	x0,x30,80004d54	  x0:0x00000000 x30:0x00000000
       77685000	      7767	80004d30	41eedcb3	sra	x25,x29,x30	 x29:0xffffff57 x30:0x00000000 x25=0xffffff57
       77695000	      7768	80004d34	01a4d6b3	srl	x13,x9,x26	  x9:0x06060c1c x26:0x00000004 x13=0x006060c1
       77705000	      7769	80004d38	41b35e13	srai	x28,x6,0x1b	  x6:0x00000001 x28=0x00000000
       77715000	      7770	80004d3c	01e72333	slt	x6,x14,x30	 x14:0xc0000000 x30:0x00000000  x6=0x00000001
       77725000	      7771	80004d40	019c53b3	srl	x7,x24,x25	 x24:0x000005ca x25:0xffffff57  x7=0x00000000
       77735000	      7772	80004d44	00000013	addi	x0,x0,0	  x0:0x00000000
       77745000	      7773	80004d48	01444c33	xor	x24,x8,x20	  x8:0x00000000 x20:0xfffff88b x24=0xfffff88b
       77755000	      7774	80004d4c	00455a63	bge	x10,x4,80004d60	 x10:0x10000000  x4:0x00000000
       77765000	      7775	00000000	00000013	addi	x0,x0,0	  x0:0x00000000
       77775000	      7776	80004d5c	00000013	addi	x0,x0,0	  x0:0x00000000
       77785000	      7777	80004d60	05237463	bgeu	x6,x18,80004da8	  x6:0x00000001 x18:0x00000001
       77795000	      7778	00000000	00000013	addi	x0,x0,0	  x0:0x00000000
       77805000	      7779	80004da4	00000013	addi	x0,x0,0	  x0:0x00000000
       77815000	      7780	80004da8	9a66f313	andi	x6,x13,-1626	 x13:0x006060c1  x6=0x00606080
       77825000	      7781	80004dac	415b5393	srai	x7,x22,0x15	 x22:0xffffff57  x7=0xffffffff
       77835000	      7782	80004db0	e0c399b7	lui	x19,0xe0c39	 x19=0xe0c39000
       77845000	      7783	80004db4	41c2da33	sra	x20,x5,x28	  x5:0x00000000 x28:0x00000000 x20=0x00000000
       77855000	      7784	80004db8	41245193	srai	x3,x8,0x12	  x8:0x00000000  x3=0x00000000
       77865000	      7785	80004dbc	390f3e13	sltiu	x28,x30,912	 x30:0x00000000 x28=0x00000001
       77875000	      7786	80004dc0	00464933	xor	x18,x12,x4	 x12:0x00000000  x4:0x00000000 x18=0x00000000
       77885000	      7787	80004dc4	00d49a93	slli	x21,x9,0xd	  x9:0x06060c1c x21=0xc1838000
       77895000	      7788	80004dc8	00fcb4b3	sltu	x9,x25,x15	 x25:0xffffff57 x15:0x80009fc4  x9=0x00000000
       77905000	      7789	80004dcc	0017fbb3	and	x23,x15,x1	 x15:0x80009fc4  x1:0x00000020 x23=0x00000000
       77915000	      7790	80004dd0	eb946613	ori	x12,x8,-327	  x8:0x00000000 x12=0xfffffeb9
       77925000	      7791	80004dd4	68a8a413	slti	x8,x17,1674	 x17:0x80009f2c  x8=0x00000001
       77935000	      7792	80004dd8	ba604813	xori	x16,x0,-1114	  x0:0x00000000 x16=0xfffffba6
       77945000	      7793	80004ddc	01c99b93	slli	x23,x19,0x1c	 x19:0xe0c39000 x23=0x00000000
       77955000	      7794	80004de0	00dadc93	srli	x25,x21,0xd	 x21:0xc1838000 x25=0x00060c1c
       77965000	      7795	80004de4	40e3da93	srai	x21,x7,0xe	  x7:0xffffffff x21=0xffffffff
       77975000	      7796	80004de8	018aa3b3	slt	x7,x21,x24	 x21:0xffffffff x24:0xfffff88b  x7=0x00000000
       77985000	      7797	80004dec	037ed063	bge	x29,x23,80004e0c	 x29:0xffffff57 x23:0x00000000
       77995000	      7798	80004df0	40c88b33	sub	x22,x17,x12	 x17:0x80009f2c x12:0xfffffeb9 x22=0x8000a073
       78005000	      7799	80004df4	00353e33	sltu	x28,x10,x3	 x10:0x10000000  x3:0x00000000 x28=0x00000000
       78015000	      7800	80004df8	010461b3	or	x3,x8,x16	  x8:0x00000001 x16:0xfffffba6  x3=0xfffffba7
       78025000	      7801	80004dfc	00f13fb3	sltu	x31,x2,x15	  x2:0x03800000 x15:0x80009fc4 x31=0x00000001
       78035000	      7802	80004e00	0082a033	slt	x0,x5,x8	  x5:0x00000000  x8:0x00000001
       78045000	      7803	80004e04	02547063	bgeu	x8,x5,80004e24	  x8:0x00000001  x5:0x00000000
       78055000	      7804	00000000	00000013	addi	x0,x0,0	  x0:0x00000000
       78065000	      7805	80004e20	00000013	addi	x0,x0,0	  x0:0x00000000
       78075000	      7806	80004e24	20cebc13	sltiu	x24,x29,524	 x29:0xffffff57 x24=0x00000000
       78085000	      7807	80004e28	fe266c93	ori	x25,x12,-30	 x12:0xfffffeb9 x25=0xfffffffb
       78095000	      7808	80004e2c	4170de33	sra	x28,x1,x23	  x1:0x00000020 x23:0x00000000 x28=0x00000020
       78105000	      7809	80004e30	02fdf263	bgeu	x27,x15,80004e54	 x27:0x000003e3 x15:0x80009fc4
       78115000	      7810	80004e34	010a1c13	slli	x24,x20,0x10	 x20:0x00000000 x24=0x00000000
       78125000	      7811	80004e38	40190633	sub	x12,x18,x1	 x18:0x00000000  x1:0x00000020 x12=0xffffffe0
       78135000	      7812	80004e3c	01e0ac33	slt	x24,x1,x30	  x1:0x00000020 x30:0x00000000 x24=0x00000000
       78145000	      7813	80004e40	0c62fa13	andi	x20,x5,198	  x5:0x00000000 x20=0x00000000
       78155000	      7814	80004e44	9acd2393	slti	x7,x26,-1620	 x26:0x00000004  x7=0x00000000
       78165000	      7815	80004e48	02150463	beq	x10,x1,80004e70	 x10:0x10000000  x1:0x00000020
       78175000	      7816	80004e4c	0099ebb3	or	x23,x19,x9	 x19:0xe0c39000  x9:0x00000000 x23=0xe0c39000
       78185000	      7817	80004e50	017756b3	srl	x13,x14,x23	 x14:0xc0000000 x23:0xe0c39000 x13=0xc0000000
       78195000	      7818	80004e54	02da4c63	blt	x20,x13,80004e8c	 x20:0x00000000 x13:0xc0000000
       78205000	      7819	80004e58	f43ef293	andi	x5,x29,-189	 x29:0xffffff57  x5=0xffffff43
       78215000	      7820	80004e5c	018e8933	add	x18,x29,x24	 x29:0xffffff57 x24:0x00000000 x18=0xffffff57
       78225000	      7821	80004e60	09503c37	lui	x24,0x9503	 x24=0x09503000
       78235000	      7822	80004e64	000da0b3	slt	x1,x27,x0	 x27:0x000003e3  x0:0x00000000  x1=0x00000000
       78245000	      7823	80004e68	2c6f0413	addi	x8,x30,710	 x30:0x00000000  x8=0x000002c6
       78255000	      7824	80004e6c	00f7fa63	bgeu	x15,x15,80004e80	 x15:0x80009fc4 x15:0x80009fc4
       78265000	      7825	00000000	00000013	addi	x0,x0,0	  x0:0x00000000
       78275000	      7826	80004e7c	00000013	addi	x0,x0,0	  x0:0x00000000
       78285000	      7827	80004e80	00df3433	sltu	x8,x30,x13	 x30:0x00000000 x13:0xc0000000  x8=0x00000001
       78295000	      7828	80004e84	1be2fe93	andi	x29,x5,446	  x5:0xffffff43 x29=0x00000102
       78305000	      7829	80004e88	d0732493	slti	x9,x6,-761	  x6:0x00606080  x9=0x00000000
       78315000	      7830	80004e8c	01341693	slli	x13,x8,0x13	  x8:0x00000001 x13=0x00080000
       78325000	      7831	80004e90	c81f3c13	sltiu	x24,x30,-895	 x30:0x00000000 x24=0x00000001
       78335000	      7832	80004e94	0437c863	blt	x15,x3,80004ee4	 x15:0x80009fc4  x3:0xfffffba7
       78345000	      7833	00000000	00000013	addi	x0,x0,0	  x0:0x00000000
       78355000	      7834	80004ee0	00000013	addi	x0,x0,0	  x0:0x00000000
       78365000	      7835	80004ee4	419a83b3	sub	x7,x21,x25	 x21:0xffffffff x25:0xfffffffb  x7=0x00000004
       78375000	      7836	80004ee8	01bf8663	beq	x31,x27,80004ef4	 x31:0x00000001 x27:0x000003e3
       78385000	      7837	80004eec	495b4693	xori	x13,x22,1173	 x22:0x8000a073 x13=0x8000a4e6
       78395000	      7838	80004ef0	3d61bc17	auipc	x24,0x3d61b	 x24=0xbd61feec
       78405000	      7839	80004ef4	0069e863	bltu	x19,x6,80004f04	 x19:0xe0c39000  x6:0x00606080
       78415000	      7840	80004ef8	00000013	addi	x0,x0,0	  x0:0x00000000
       78425000	      7841	80004efc	028e8c63	beq	x29,x8,80004f34	 x29:0x00000102  x8:0x00000001
       78435000	      7842	80004f00	409859b3	sra	x19,x16,x9	 x16:0xfffffba6  x9:0x00000000 x19=0xfffffba6
       78445000	      7843	80004f04	403cd393	srai	x7,x25,0x3	 x25:0xfffffffb  x7=0xffffffff
       78455000	      7844	80004f08	665f6397	auipc	x7,0x665f6	  x7=0xe65faf04
       78465000	      7845	80004f0c	00af5433	srl	x8,x30,x10	 x30:0x00000000 x10:0x10000000  x8=0x00000000
       78475000	      7846	80004f10	039fe063	bltu	x31,x25,80004f30	 x31:0x00000001 x25:0xfffffffb
       78485000	      7847	00000000	00000013	addi	x0,x0,0	  x0:0x00000000
       78495000	      7848	80004f2c	00000013	addi	x0,x0,0	  x0:0x00000000
       78505000	      7849	80004f30	02dcd463	bge	x25,x13,80004f58	 x25:0xfffffffb x13:0x8000a4e6
       78515000	      7850	00000000	00000013	addi	x0,x0,0	  x0:0x00000000
       78525000	      7851	80004f54	00000013	addi	x0,x0,0	  x0:0x00000000
       78535000	      7852	80004f58	005af463	bgeu	x21,x5,80004f60	 x21:0xffffffff  x5:0xffffff43
       78545000	      7853	00000000	00000013	addi	x0,x0,0	  x0:0x00000000
       78555000	      7854	80004f5c	00000013	addi	x0,x0,0	  x0:0x00000000
       78565000	      7855	80004f60	c9f56013	ori	x0,x10,-865	 x10:0x10000000
       78575000	      7856	80004f64	0052bc33	sltu	x24,x5,x5	  x5:0xffffff43  x5:0xffffff43 x24=0x00000000
       78585000	      7857	80004f68	003ee733	or	x14,x29,x3	 x29:0x00000102  x3:0xfffffba7 x14=0xfffffba7
       78595000	      7858	80004f6c	034a4e63	blt	x20,x20,80004fa8	 x20:0x00000000 x20:0x00000000
       78605000	      7859	80004f70	01b19b33	sll	x22,x3,x27	  x3:0xfffffba7 x27:0x000003e3 x22=0xffffdd38
       78615000	      7860	80004f74	41ae05b3	sub	x11,x28,x26	 x28:0x00000020 x26:0x00000004 x11=0x0000001c
       78625000	      7861	80004f78	013c31b3	sltu	x3,x24,x19	 x24:0x00000000 x19:0xfffffba6  x3=0x00000001
       78635000	      7862	80004f7c	1758a213	slti	x4,x17,373	 x17:0x80009f2c  x4=0x00000001
       78645000	      7863	80004f80	000c9013	slli	x0,x25,0x0	 x25:0xfffffffb
       78655000	      7864	80004f84	000e8533	add	x10,x29,x0	 x29:0x00000102  x0:0x00000000 x10=0x00000102
       78665000	      7865	80004f88	dd733113	sltiu	x2,x6,-553	  x6:0x00606080  x2=0x00000001
       78675000	      7866	80004f8c	01481a63	bne	x16,x20,80004fa0	 x16:0xfffffba6 x20:0x00000000
       78685000	      7867	00000000	00000013	addi	x0,x0,0	  x0:0x00000000
       78695000	      7868	80004f9c	00000013	addi	x0,x0,0	  x0:0x00000000
       78705000	      7869	80004fa0	40395513	srai	x10,x18,0x3	 x18:0xffffff57 x10=0xffffffea
       78715000	      7870	80004fa4	41090033	sub	x0,x18,x16	 x18:0xffffff57 x16:0xfffffba6
       78725000	      7871	80004fa8	02f24063	blt	x4,x15,80004fc8	  x4:0x00000001 x15:0x80009fc4
       78735000	      7872	80004fac	212b0e93	addi	x29,x22,530	 x22:0xffffdd38 x29=0xffffdf4a
       78745000	      7873	80004fb0	01fd1b33	sll	x22,x26,x31	 x26:0x00000004 x31:0x00000001 x22=0x00000008
       78755000	      7874	80004fb4	01149413	slli	x8,x9,0x11	  x9:0x00000000  x8=0x00000000
       78765000	      7875	80004fb8	00b1b333	sltu	x6,x3,x11	  x3:0x00000001 x11:0x0000001c  x6=0x00000001
       78775000	      7876	80004fbc	01b19eb3	sll	x29,x3,x27	  x3:0x00000001 x27:0x000003e3 x29=0x00000008
       78785000	      7877	80004fc0	9440cc93	xori	x25,x1,-1724	  x1:0x00000000 x25=0xfffff944
       78795000	      7878	80004fc4	711b0213	addi	x4,x22,1809	 x22:0x00000008  x4=0x00000719
       78805000	      7879	80004fc8	02bb0c63	beq	x22,x11,80005000	 x22:0x00000008 x11:0x0000001c
       78815000	      7880	80004fcc	c28c4993	xori	x19,x24,-984	 x24:0x00000000 x19=0xfffffc28
       78825000	      7881	80004fd0	1bcc9f97	auipc	x31,0x1bcc9	 x31=0x9bccdfcc
       78835000	      7882	80004fd4	017cca63	blt	x25,x23,80004fe8	 x25:0xfffff944 x23:0xe0c39000
       78845000	      7883	80004fd8	03490063	beq	x18,x20,80004ff8	 x18:0xffffff57 x20:0x00000000
       78855000	      7884	80004fdc	40e182b3	sub	x5,x3,x14	  x3:0x00000001 x14:0xfffffba7  x5=0x0000045a
       78865000	      7885	80004fe0	02e60e63	beq	x12,x14,8000501c	 x12:0xffffffe0 x14:0xfffffba7
       78875000	      7886	80004fe4	01941593	slli	x11,x8,0x19	  x8:0x00000000 x11=0x00000000
       78885000	      7887	80004fe8	d51aae93	slti	x29,x21,-687	 x21:0xffffffff x29=0x00000000
       78895000	      7888	80004fec	0143aa33	slt	x20,x7,x20	  x7:0xe65faf04 x20:0x00000000 x20=0x00000001
       78905000	      7889	80004ff0	c1e683b7	lui	x7,0xc1e68	  x7=0xc1e68000
       78915000	      7890	80004ff4	01118863	beq	x3,x17,80005004	  x3:0x00000001 x17:0x80009f2c
       78925000	      7891	80004ff8	e0462993	slti	x19,x12,-508	 x12:0xffffffe0 x19=0x00000000
       78935000	      7892	80004ffc	41e55533	sra	x10,x10,x30	 x10:0xffffffea x30:0x00000000 x10=0xffffffea
       78945000	      7893	80005000	03555863	bge	x10,x21,80005030	 x10:0xffffffea x21:0xffffffff
       78955000	      7894	80005004	32b67b93	andi	x23,x12,811	 x12:0xffffffe0 x23=0x00000320
       78965000	      7895	80005008	401151b3	sra	x3,x2,x1	  x2:0x00000001  x1:0x00000000  x3=0x00000001
       78975000	      7896	8000500c	00eb4b33	xor	x22,x22,x14	 x22:0x00000008 x14:0xfffffba7 x22=0xfffffbaf
       78985000	      7897	80005010	962b6013	ori	x0,x22,-1694	 x22:0xfffffbaf
       78995000	      7898	80005014	00000013	addi	x0,x0,0	  x0:0x00000000
       79005000	      7899	80005018	03e4d863	bge	x9,x30,80005048	  x9:0x00000000 x30:0x00000000
       79015000	      7900	00000000	00000013	addi	x0,x0,0	  x0:0x00000000
       79025000	      7901	80005044	00000013	addi	x0,x0,0	  x0:0x00000000
       79035000	      7902	80005048	034fdc63	bge	x31,x20,80005080	 x31:0x9bccdfcc x20:0x00000001
       79045000	      7903	8000504c	44ac0393	addi	x7,x24,1098	 x24:0x00000000  x7=0x0000044a
       79055000	      7904	80005050	00660f33	add	x30,x12,x6	 x12:0xffffffe0  x6:0x00000001 x30=0xffffffe1
       79065000	      7905	80005054	41f18733	sub	x14,x3,x31	  x3:0x00000001 x31:0x9bccdfcc x14=0x64332035
       79075000	      7906	80005058	00000013	addi	x0,x0,0	  x0:0x00000000
       79085000	      7907	8000505c	007bc633	xor	x12,x23,x7	 x23:0x00000320  x7:0x0000044a x12=0x0000076a
       79095000	      7908	80005060	00afc233	xor	x4,x31,x10	 x31:0x9bccdfcc x10:0xffffffea  x4=0x64332026
       79105000	      7909	80005064	01939633	sll	x12,x7,x25	  x7:0x0000044a x25:0xfffff944 x12=0x000044a0
       79115000	      7910	80005068	41485493	srai	x9,x16,0x14	 x16:0xfffffba6  x9=0xffffffff
       79125000	      7911	8000506c	554eb697	auipc	x13,0x554eb	 x13=0xd54f0068
       79135000	      7912	80005070	308ea613	slti	x12,x29,776	 x29:0x00000000 x12=0x00000001
       79145000	      7913	80005074	024a7063	bgeu	x20,x4,80005094	 x20:0x00000001  x4:0x64332026
       79155000	      7914	80005078	b9beeb97	auipc	x23,0xb9bee	 x23=0x39bf3074
       79165000	      7915	8000507c	01ee4263	blt	x28,x30,80005080	 x28:0x00000020 x30:0xffffffe1
       79175000	      7916	80005080	00ab16b3	sll	x13,x22,x10	 x22:0xfffffbaf x10:0xffffffea x13=0xffeebc00
       79185000	      7917	80005084	40abde33	sra	x28,x23,x10	 x23:0x39bf3074 x10:0xffffffea x28=0x000e6fcc
       79195000	      7918	80005088	50e0f513	andi	x10,x1,1294	  x1:0x00000000 x10=0x00000000
       79205000	      7919	8000508c	8a523c93	sltiu	x25,x4,-1883	  x4:0x64332026 x25=0x00000001
       79215000	      7920	80005090	01dc7533	and	x10,x24,x29	 x24:0x00000000 x29:0x00000000 x10=0x00000000
       79225000	      7921	80005094	00511913	slli	x18,x2,0x5	  x2:0x00000001 x18=0x00000020
       79235000	      7922	80005098	9fd14e13	xori	x28,x2,-1539	  x2:0x00000001 x28=0xfffff9fc
       79245000	      7923	8000509c	5dedc193	xori	x3,x27,1502	 x27:0x000003e3  x3=0x0000063d
       79255000	      7924	800050a0	02d86263	bltu	x16,x13,800050c4	 x16:0xfffffba6 x13:0xffeebc00
       79265000	      7925	800050a4	41570b33	sub	x22,x14,x21	 x14:0x64332035 x21:0xffffffff x22=0x64332036
       79275000	      7926	800050a8	01d78463	beq	x15,x29,800050b0	 x15:0x80009fc4 x29:0x00000000
       79285000	      7927	800050ac	01c75b93	srli	x23,x14,0x1c	 x14:0x64332035 x23=0x00000006
       79295000	      7928	800050b0	00000013	addi	x0,x0,0	  x0:0x00000000
       79305000	      7929	800050b4	03b5d663	bge	x11,x27,800050e0	 x11:0x00000000 x27:0x000003e3
       79315000	      7930	800050b8	367ca593	slti	x11,x25,871	 x25:0x00000001 x11=0x00000001
       79325000	      7931	800050bc	02701463	bne	x0,x7,800050e4	  x0:0x00000000  x7:0x0000044a
       79335000	      7932	00000000	00000013	addi	x0,x0,0	  x0:0x00000000
       79345000	      7933	800050e0	00000013	addi	x0,x0,0	  x0:0x00000000
       79355000	      7934	800050e4	03b65463	bge	x12,x27,8000510c	 x12:0x00000001 x27:0x000003e3
       79365000	      7935	800050e8	019c5bb3	srl	x23,x24,x25	 x24:0x00000000 x25:0x00000001 x23=0x00000000
       79375000	      7936	800050ec	a2fdd117	auipc	x2,0xa2fdd	  x2=0x22fe20e8
       79385000	      7937	800050f0	013a9133	sll	x2,x21,x19	 x21:0xffffffff x19:0x00000000  x2=0xffffffff
       79395000	      7938	800050f4	4eac0693	addi	x13,x24,1258	 x24:0x00000000 x13=0x000004ea
       79405000	      7939	800050f8	599e7f13	andi	x30,x28,1433	 x28:0xfffff9fc x30=0x00000198
       79415000	      7940	800050fc	009ad3b3	srl	x7,x21,x9	 x21:0xffffffff  x9:0xffffffff  x7=0x00000001
       79425000	      7941	80005100	027ed663	bge	x29,x7,8000512c	 x29:0x00000000  x7:0x00000001
       79435000	      7942	80005104	008919b3	sll	x19,x18,x8	 x18:0x00000020  x8:0x00000000 x19=0x00000020
       79445000	      7943	80005108	409e0433	sub	x8,x28,x9	 x28:0xfffff9fc  x9:0xffffffff  x8=0xfffff9fd
       79455000	      7944	8000510c	7899c413	xori	x8,x19,1929	 x19:0x00000020  x8=0x000007a9
       79465000	      7945	80005110	00ebd663	bge	x23,x14,8000511c	 x23:0x00000000 x14:0x64332035
       79475000	      7946	80005114	41835233	sra	x4,x6,x24	  x6:0x00000001 x24:0x00000000  x4=0x00000001
       79485000	      7947	80005118	00469813	slli	x16,x13,0x4	 x13:0x000004ea x16=0x00004ea0
       79495000	      7948	8000511c	22c26e97	auipc	x29,0x22c26	 x29=0xa2c2b118
       79505000	      7949	80005120	90868b13	addi	x22,x13,-1784	 x13:0x000004ea x22=0xfffffdf2
       79515000	      7950	80005124	02ed7063	bgeu	x26,x14,80005144	 x26:0x00000004 x14:0x64332035
       79525000	      7951	80005128	274e0093	addi	x1,x28,628	 x28:0xfffff9fc  x1=0xfffffc70
       79535000	      7952	8000512c	01a10463	beq	x2,x26,80005134	  x2:0xffffffff x26:0x00000004
       79545000	      7953	80005130	02985463	bge	x16,x9,80005158	 x16:0x00004ea0  x9:0xffffffff
       79555000	      7954	00000000	00000013	addi	x0,x0,0	  x0:0x00000000
       79565000	      7955	80005154	00000013	addi	x0,x0,0	  x0:0x00000000
       79575000	      7956	80005158	6550e917	auipc	x18,0x6550e	 x18=0xe5513154
       79585000	      7957	8000515c	1441b093	sltiu	x1,x3,324	  x3:0x0000063d  x1=0x00000000
       79595000	      7958	80005160	0541e863	bltu	x3,x20,800051b0	  x3:0x0000063d x20:0x00000001
       79605000	      7959	80005164	00000013	addi	x0,x0,0	  x0:0x00000000
       79615000	      7960	80005168	01805993	srli	x19,x0,0x18	  x0:0x00000000 x19=0x00000000
       79625000	      7961	8000516c	4116d833	sra	x16,x13,x17	 x13:0x000004ea x17:0x80009f2c x16=0x00000000
       79635000	      7962	80005170	0505b093	sltiu	x1,x11,80	 x11:0x00000001  x1=0x00000001
       79645000	      7963	80005174	000e1813	slli	x16,x28,0x0	 x28:0xfffff9fc x16=0xfffff9fc
       79655000	      7964	80005178	02fc1063	bne	x24,x15,80005198	 x24:0x00000000 x15:0x80009fc4
       79665000	      7965	00000000	00000013	addi	x0,x0,0	  x0:0x00000000
       79675000	      7966	80005194	00000013	addi	x0,x0,0	  x0:0x00000000
       79685000	      7967	80005198	96befc93	andi	x25,x29,-1685	 x29:0xa2c2b118 x25=0xa2c2b108
       79695000	      7968	8000519c	ec03edb7	lui	x27,0xec03e	 x27=0xec03e000
       79705000	      7969	800051a0	00cbf233	and	x4,x23,x12	 x23:0x00000000 x12:0x00000001  x4=0x00000000
       79715000	      7970	800051a4	01952733	slt	x14,x10,x25	 x10:0x00000000 x25:0xa2c2b108 x14=0x00000000
       79725000	      7971	800051a8	02541063	bne	x8,x5,800051c8	  x8:0x000007a9  x5:0x0000045a
       79735000	      7972	00000000	00000013	addi	x0,x0,0	  x0:0x00000000
       79745000	      7973	800051c4	00000013	addi	x0,x0,0	  x0:0x00000000
       79755000	      7974	800051c8	98fe2113	slti	x2,x28,-1649	 x28:0xfffff9fc  x2=0x00000000
       79765000	      7975	800051cc	027a7863	bgeu	x20,x7,800051fc	 x20:0x00000001  x7:0x00000001
       79775000	      7976	00000000	00000013	addi	x0,x0,0	  x0:0x00000000
       79785000	      7977	800051f8	00000013	addi	x0,x0,0	  x0:0x00000000
       79795000	      7978	800051fc	0062fa63	bgeu	x5,x6,80005210	  x5:0x0000045a  x6:0x00000001
       79805000	      7979	00000000	00000013	addi	x0,x0,0	  x0:0x00000000
       79815000	      7980	8000520c	00000013	addi	x0,x0,0	  x0:0x00000000
       79825000	      7981	80005210	02da0463	beq	x20,x13,80005238	 x20:0x00000001 x13:0x000004ea
       79835000	      7982	80005214	21202337	lui	x6,0x21202	  x6=0x21202000
       79845000	      7983	80005218	011773b3	and	x7,x14,x17	 x14:0x00000000 x17:0x80009f2c  x7=0x00000000
       79855000	      7984	8000521c	03c91063	bne	x18,x28,8000523c	 x18:0xe5513154 x28:0xfffff9fc
       79865000	      7985	00000000	00000013	addi	x0,x0,0	  x0:0x00000000
       79875000	      7986	80005238	00000013	addi	x0,x0,0	  x0:0x00000000
       79885000	      7987	8000523c	00f56eb3	or	x29,x10,x15	 x10:0x00000000 x15:0x80009fc4 x29=0x80009fc4
       79895000	      7988	80005240	00e3f463	bgeu	x7,x14,80005248	  x7:0x00000000 x14:0x00000000
       79905000	      7989	00000000	00000013	addi	x0,x0,0	  x0:0x00000000
       79915000	      7990	80005244	00000013	addi	x0,x0,0	  x0:0x00000000
       79925000	      7991	80005248	ed107c13	andi	x24,x0,-303	  x0:0x00000000 x24=0x00000000
       79935000	      7992	8000524c	40cd53b3	sra	x7,x26,x12	 x26:0x00000004 x12:0x00000001  x7=0x00000002
       79945000	      7993	80005250	0076d413	srli	x8,x13,0x7	 x13:0x000004ea  x8=0x00000009
       79955000	      7994	80005254	01962033	slt	x0,x12,x25	 x12:0x00000001 x25:0xa2c2b108
       79965000	      7995	80005258	2a4b56b7	lui	x13,0x2a4b5	 x13=0x2a4b5000
       79975000	      7996	8000525c	0071c433	xor	x8,x3,x7	  x3:0x0000063d  x7:0x00000002  x8=0x0000063f
       79985000	      7997	80005260	00d31eb3	sll	x29,x6,x13	  x6:0x21202000 x13:0x2a4b5000 x29=0x21202000
       79995000	      7998	80005264	0087f463	bgeu	x15,x8,8000526c	 x15:0x80009fc4  x8:0x0000063f
       80005000	      7999	00000000	00000013	addi	x0,x0,0	  x0:0x00000000
       80015000	      8000	80005268	00000013	addi	x0,x0,0	  x0:0x00000000
       80025000	      8001	8000526c	1ef34c93	xori	x25,x6,495	  x6:0x21202000 x25=0x212021ef
       80035000	      8002	80005270	026cf263	bgeu	x25,x6,80005294	 x25:0x212021ef  x6:0x21202000
       80045000	      8003	00000000	00000013	addi	x0,x0,0	  x0:0x00000000
       80055000	      8004	80005290	00000013	addi	x0,x0,0	  x0:0x00000000
       80065000	      8005	80005294	00000013	addi	x0,x0,0	  x0:0x00000000
       80075000	      8006	80005298	41b1dd93	srai	x27,x3,0x1b	  x3:0x0000063d x27=0x00000000
       80085000	      8007	8000529c	0218fc63	bgeu	x17,x1,800052d4	 x17:0x80009f2c  x1:0x00000001
       80095000	      8008	00000000	00000013	addi	x0,x0,0	  x0:0x00000000
       80105000	      8009	800052d0	00000013	addi	x0,x0,0	  x0:0x00000000
       80115000	      8010	800052d4	416d8ab3	sub	x21,x27,x22	 x27:0x00000000 x22:0xfffffdf2 x21=0x0000020e
       80125000	      8011	800052d8	01cc5913	srli	x18,x24,0x1c	 x24:0x00000000 x18=0x00000000
       80135000	      8012	800052dc	418a8a33	sub	x20,x21,x24	 x21:0x0000020e x24:0x00000000 x20=0x0000020e
       80145000	      8013	800052e0	01c5a6b3	slt	x13,x11,x28	 x11:0x00000001 x28:0xfffff9fc x13=0x00000000
       80155000	      8014	800052e4	3e83ac93	slti	x25,x7,1000	  x7:0x00000002 x25=0x00000001
       80165000	      8015	800052e8	99424093	xori	x1,x4,-1644	  x4:0x00000000  x1=0xfffff994
       80175000	      8016	800052ec	02cc8e63	beq	x25,x12,80005328	 x25:0x00000001 x12:0x00000001
       80185000	      8017	00000000	00000013	addi	x0,x0,0	  x0:0x00000000
       80195000	      8018	80005324	00000013	addi	x0,x0,0	  x0:0x00000000
       80205000	      8019	80005328	00ccccb3	xor	x25,x25,x12	 x25:0x00000001 x12:0x00000001 x25=0x00000000
       80215000	      8020	8000532c	012a8433	add	x8,x21,x18	 x21:0x0000020e x18:0x00000000  x8=0x0000020e
       80225000	      8021	80005330	0324e663	bltu	x9,x18,8000535c	  x9:0xffffffff x18:0x00000000
       80235000	      8022	80005334	001b6433	or	x8,x22,x1	 x22:0xfffffdf2  x1:0xfffff994  x8=0xfffffdf6
       80245000	      8023	80005338	008b7bb3	and	x23,x22,x8	 x22:0xfffffdf2  x8:0xfffffdf6 x23=0xfffffdf2
       80255000	      8024	8000533c	01e959b3	srl	x19,x18,x30	 x18:0x00000000 x30:0x00000198 x19=0x00000000
       80265000	      8025	80005340	380b7213	andi	x4,x22,896	 x22:0xfffffdf2  x4=0x00000180
       80275000	      8026	80005344	02571e63	bne	x14,x5,80005380	 x14:0x00000000  x5:0x0000045a
       80285000	      8027	00000000	00000013	addi	x0,x0,0	  x0:0x00000000
       80295000	      8028	8000537c	00000013	addi	x0,x0,0	  x0:0x00000000
       80305000	      8029	80005380	0194b5b3	sltu	x11,x9,x25	  x9:0xffffffff x25:0x00000000 x11=0x00000000
       80315000	      8030	80005384	02d27063	bgeu	x4,x13,800053a4	  x4:0x00000180 x13:0x00000000
       80325000	      8031	00000000	00000013	addi	x0,x0,0	  x0:0x00000000
       80335000	      8032	800053a0	00000013	addi	x0,x0,0	  x0:0x00000000
       80345000	      8033	800053a4	002b2eb3	slt	x29,x22,x2	 x22:0xfffffdf2  x2:0x00000000 x29=0x00000001
       80355000	      8034	800053a8	d093cb13	xori	x22,x7,-759	  x7:0x00000002 x22=0xfffffd0b
       80365000	      8035	800053ac	01f4bb33	sltu	x22,x9,x31	  x9:0xffffffff x31:0x9bccdfcc x22=0x00000000
       80375000	      8036	800053b0	c7f16913	ori	x18,x2,-897	  x2:0x00000000 x18=0xfffffc7f
       80385000	      8037	800053b4	00e1cfb3	xor	x31,x3,x14	  x3:0x0000063d x14:0x00000000 x31=0x0000063d
       80395000	      8038	800053b8	0369f263	bgeu	x19,x22,800053dc	 x19:0x00000000 x22:0x00000000
       80405000	      8039	00000000	00000013	addi	x0,x0,0	  x0:0x00000000
       80415000	      8040	800053d8	00000013	addi	x0,x0,0	  x0:0x00000000
       80425000	      8041	800053dc	2a9f7693	andi	x13,x30,681	 x30:0x00000198 x13=0x00000088
       80435000	      8042	800053e0	00000013	addi	x0,x0,0	  x0:0x00000000
       80445000	      8043	800053e4	022b6063	bltu	x22,x2,80005404	 x22:0x00000000  x2:0x00000000
       80455000	      8044	800053e8	03814463	blt	x2,x24,80005410	  x2:0x00000000 x24:0x00000000
       80465000	      8045	800053ec	013a7333	and	x6,x20,x19	 x20:0x0000020e x19:0x00000000  x6=0x00000000
       80475000	      8046	800053f0	bae50f93	addi	x31,x10,-1106	 x10:0x00000000 x31=0xfffffbae
       80485000	      8047	800053f4	01c80463	beq	x16,x28,800053fc	 x16:0xfffff9fc x28:0xfffff9fc
       80495000	      8048	00000000	00000013	addi	x0,x0,0	  x0:0x00000000
       80505000	      8049	800053f8	00000013	addi	x0,x0,0	  x0:0x00000000
       80515000	      8050	800053fc	01325bb3	srl	x23,x4,x19	  x4:0x00000180 x19:0x00000000 x23=0x00000180
       80525000	      8051	80005400	0811da63	bge	x3,x1,80005494	  x3:0x0000063d  x1:0xfffff994
       80535000	      8052	00000000	00000013	addi	x0,x0,0	  x0:0x00000000
       80545000	      8053	80005490	00000013	addi	x0,x0,0	  x0:0x00000000
       80555000	      8054	80005494	013225b3	slt	x11,x4,x19	  x4:0x00000180 x19:0x00000000 x11=0x00000000
       80565000	      8055	80005498	00000013	addi	x0,x0,0	  x0:0x00000000
       80575000	      8056	8000549c	fd476013	ori	x0,x14,-44	 x14:0x00000000
       80585000	      8057	800054a0	02250e63	beq	x10,x2,800054dc	 x10:0x00000000  x2:0x00000000
       80595000	      8058	00000000	00000013	addi	x0,x0,0	  x0:0x00000000
       80605000	      8059	800054d8	00000013	addi	x0,x0,0	  x0:0x00000000
       80615000	      8060	800054dc	feb33b13	sltiu	x22,x6,-21	  x6:0x00000000 x22=0x00000001
       80625000	      8061	800054e0	01f3d913	srli	x18,x7,0x1f	  x7:0x00000002 x18=0x00000000
       80635000	      8062	800054e4	018222b3	slt	x5,x4,x24	  x4:0x00000180 x24:0x00000000  x5=0x00000000
       80645000	      8063	800054e8	40e7d5b3	sra	x11,x15,x14	 x15:0x80009fc4 x14:0x00000000 x11=0x80009fc4
       80655000	      8064	800054ec	aa37c437	lui	x8,0xaa37c	  x8=0xaa37c000
       80665000	      8065	800054f0	01303bb3	sltu	x23,x0,x19	  x0:0x00000000 x19:0x00000000 x23=0x00000000
       80675000	      8066	800054f4	8eac39b7	lui	x19,0x8eac3	 x19=0x8eac3000
       80685000	      8067	800054f8	009cf5b3	and	x11,x25,x9	 x25:0x00000000  x9:0xffffffff x11=0x00000000
       80695000	      8068	800054fc	005e05b3	add	x11,x28,x5	 x28:0xfffff9fc  x5:0x00000000 x11=0xfffff9fc
       80705000	      8069	80005500	01f60f33	add	x30,x12,x31	 x12:0x00000001 x31:0xfffffbae x30=0xfffffbaf
       80715000	      8070	80005504	28769bb7	lui	x23,0x28769	 x23=0x28769000
       80725000	      8071	80005508	b3f57193	andi	x3,x10,-1217	 x10:0x00000000  x3=0x00000000
       80735000	      8072	8000550c	0010e733	or	x14,x1,x1	  x1:0xfffff994  x1:0xfffff994 x14=0xfffff994
       80745000	      8073	80005510	01775293	srli	x5,x14,0x17	 x14:0xfffff994  x5=0x000001ff
       80755000	      8074	80005514	013fc133	xor	x2,x31,x19	 x31:0xfffffbae x19:0x8eac3000  x2=0x7153cbae
       80765000	      8075	80005518	010c3233	sltu	x4,x24,x16	 x24:0x00000000 x16:0xfffff9fc  x4=0x00000001
       80775000	      8076	8000551c	d0277e13	andi	x28,x14,-766	 x14:0xfffff994 x28=0xfffff900
       80785000	      8077	80005520	01cf1b13	slli	x22,x30,0x1c	 x30:0xfffffbaf x22=0xf0000000
       80795000	      8078	80005524	3e3a7393	andi	x7,x20,995	 x20:0x0000020e  x7=0x00000202
       80805000	      8079	80005528	b2b25537	lui	x10,0xb2b25	 x10=0xb2b25000
       80815000	      8080	8000552c	77767697	auipc	x13,0x77767	 x13=0xf776c528
       80825000	      8081	80005530	03fe4863	blt	x28,x31,80005560	 x28:0xfffff900 x31:0xfffffbae
       80835000	      8082	00000000	00000013	addi	x0,x0,0	  x0:0x00000000
       80845000	      8083	8000555c	00000013	addi	x0,x0,0	  x0:0x00000000
       80855000	      8084	80005560	04a2f513	andi	x10,x5,74	  x5:0x000001ff x10=0x0000004a
       80865000	      8085	80005564	41690233	sub	x4,x18,x22	 x18:0x00000000 x22:0xf0000000  x4=0x10000000
       80875000	      8086	80005568	0f048463	beq	x9,x16,80005650	  x9:0xffffffff x16:0xfffff9fc
       80885000	      8087	8000556c	0c67f063	bgeu	x15,x6,8000562c	 x15:0x80009fc4  x6:0x00000000
       80895000	      8088	00000000	00000013	addi	x0,x0,0	  x0:0x00000000
       80905000	      8089	80005628	00000013	addi	x0,x0,0	  x0:0x00000000
       80915000	      8090	8000562c	015b9eb3	sll	x29,x23,x21	 x23:0x28769000 x21:0x0000020e x29=0xa4000000
       80925000	      8091	80005630	01339a63	bne	x7,x19,80005644	  x7:0x00000202 x19:0x8eac3000
       80935000	      8092	00000000	00000013	addi	x0,x0,0	  x0:0x00000000
       80945000	      8093	80005640	00000013	addi	x0,x0,0	  x0:0x00000000
       80955000	      8094	80005644	0200cc63	blt	x1,x0,8000567c	  x1:0xfffff994  x0:0x00000000
       80965000	      8095	00000000	00000013	addi	x0,x0,0	  x0:0x00000000
       80975000	      8096	80005678	00000013	addi	x0,x0,0	  x0:0x00000000
       80985000	      8097	8000567c	c4036f93	ori	x31,x6,-960	  x6:0x00000000 x31=0xfffffc40
       80995000	      8098	80005680	00000013	addi	x0,x0,0	  x0:0x00000000
       81005000	      8099	80005684	633106b7	lui	x13,0x63310	 x13=0x63310000
       81015000	      8100	80005688	01211cb3	sll	x25,x2,x18	  x2:0x7153cbae x18:0x00000000 x25=0x7153cbae
       81025000	      8101	8000568c	f0967093	andi	x1,x12,-247	 x12:0x00000001  x1=0x00000001
       81035000	      8102	80005690	02ee7463	bgeu	x28,x14,800056b8	 x28:0xfffff900 x14:0xfffff994
       81045000	      8103	80005694	2f6ee037	lui	x0,0x2f6ee	
       81055000	      8104	80005698	c67f6613	ori	x12,x30,-921	 x30:0xfffffbaf x12=0xffffffef
       81065000	      8105	8000569c	018a1f13	slli	x30,x20,0x18	 x20:0x0000020e x30=0x0e000000
       81075000	      8106	800056a0	3cb12bb7	lui	x23,0x3cb12	 x23=0x3cb12000
       81085000	      8107	800056a4	4b2c7913	andi	x18,x24,1202	 x24:0x00000000 x18=0x00000000
       81095000	      8108	800056a8	e79e8393	addi	x7,x29,-391	 x29:0xa4000000  x7=0xa3fffe79
       81105000	      8109	800056ac	f10492b7	lui	x5,0xf1049	  x5=0xf1049000
       81115000	      8110	800056b0	018725b3	slt	x11,x14,x24	 x14:0xfffff994 x24:0x00000000 x11=0x00000001
       81125000	      8111	800056b4	01069fb3	sll	x31,x13,x16	 x13:0x63310000 x16:0xfffff9fc x31=0x00000000
       81135000	      8112	800056b8	dc00a413	slti	x8,x1,-576	  x1:0x00000001  x8=0x00000000
       81145000	      8113	800056bc	01f01333	sll	x6,x0,x31	  x0:0x00000000 x31:0x00000000  x6=0x00000000
       81155000	      8114	800056c0	00a20463	beq	x4,x10,800056c8	  x4:0x10000000 x10:0x0000004a
       81165000	      8115	800056c4	01e152b3	srl	x5,x2,x30	  x2:0x7153cbae x30:0x0e000000  x5=0x7153cbae
       81175000	      8116	800056c8	008bdf13	srli	x30,x23,0x8	 x23:0x3cb12000 x30=0x003cb120
       81185000	      8117	800056cc	883abe13	sltiu	x28,x21,-1917	 x21:0x0000020e x28=0x00000001
       81195000	      8118	800056d0	03aafe63	bgeu	x21,x26,8000570c	 x21:0x0000020e x26:0x00000004
       81205000	      8119	00000000	00000013	addi	x0,x0,0	  x0:0x00000000
       81215000	      8120	80005708	00000013	addi	x0,x0,0	  x0:0x00000000
       81225000	      8121	8000570c	00000013	addi	x0,x0,0	  x0:0x00000000
       81235000	      8122	80005710	c8fa3a13	sltiu	x20,x20,-881	 x20:0x0000020e x20=0x00000001
       81245000	      8123	80005714	0161c9b3	xor	x19,x3,x22	  x3:0x00000000 x22:0xf0000000 x19=0xf0000000
       81255000	      8124	80005718	02888e63	beq	x17,x8,80005754	 x17:0x80009f2c  x8:0x00000000
       81265000	      8125	8000571c	01458863	beq	x11,x20,8000572c	 x11:0x00000001 x20:0x00000001
       81275000	      8126	00000000	00000013	addi	x0,x0,0	  x0:0x00000000
       81285000	      8127	80005728	00000013	addi	x0,x0,0	  x0:0x00000000
       81295000	      8128	8000572c	e9ed7a13	andi	x20,x26,-354	 x26:0x00000004 x20=0x00000004
       81305000	      8129	80005730	02125263	bge	x4,x1,80005754	  x4:0x10000000  x1:0x00000001
       81315000	      8130	00000000	00000013	addi	x0,x0,0	  x0:0x00000000
       81325000	      8131	80005750	00000013	addi	x0,x0,0	  x0:0x00000000
       81335000	      8132	80005754	03990063	beq	x18,x25,80005774	 x18:0x00000000 x25:0x7153cbae
       81345000	      8133	80005758	03e49863	bne	x9,x30,80005788	  x9:0xffffffff x30:0x003cb120
       81355000	      8134	00000000	00000013	addi	x0,x0,0	  x0:0x00000000
       81365000	      8135	80005784	00000013	addi	x0,x0,0	  x0:0x00000000
       81375000	      8136	80005788	014c5a13	srli	x20,x24,0x14	 x24:0x00000000 x20=0x00000000
       81385000	      8137	8000578c	03749c63	bne	x9,x23,800057c4	  x9:0xffffffff x23:0x3cb12000
       81395000	      8138	00000000	00000013	addi	x0,x0,0	  x0:0x00000000
       81405000	      8139	800057c0	00000013	addi	x0,x0,0	  x0:0x00000000
       81415000	      8140	800057c4	599fc2b7	lui	x5,0x599fc	  x5=0x599fc000
       81425000	      8141	800057c8	01839c93	slli	x25,x7,0x18	  x7:0xa3fffe79 x25=0x79000000
       81435000	      8142	800057cc	b1d9f0b7	lui	x1,0xb1d9f	  x1=0xb1d9f000
       81445000	      8143	800057d0	408ddcb3	sra	x25,x27,x8	 x27:0x00000000  x8:0x00000000 x25=0x00000000
       81455000	      8144	800057d4	49144a93	xori	x21,x8,1169	  x8:0x00000000 x21=0x00000491
       81465000	      8145	800057d8	84364d93	xori	x27,x12,-1981	 x12:0xffffffef x27=0x000007ac
       81475000	      8146	800057dc	02234663	blt	x6,x2,80005808	  x6:0x00000000  x2:0x7153cbae
       81485000	      8147	00000000	00000013	addi	x0,x0,0	  x0:0x00000000
       81495000	      8148	80005804	00000013	addi	x0,x0,0	  x0:0x00000000
       81505000	      8149	80005808	4b649217	auipc	x4,0x4b649	  x4=0xcb64e804
       81515000	      8150	8000580c	016f1c93	slli	x25,x30,0x16	 x30:0x003cb120 x25=0x48000000
       81525000	      8151	80005810	01935b13	srli	x22,x6,0x19	  x6:0x00000000 x22=0x00000000
       81535000	      8152	80005814	02539c63	bne	x7,x5,8000584c	  x7:0xa3fffe79  x5:0x599fc000
       81545000	      8153	00000000	00000013	addi	x0,x0,0	  x0:0x00000000
       81555000	      8154	80005848	00000013	addi	x0,x0,0	  x0:0x00000000
       81565000	      8155	8000584c	00bca633	slt	x12,x25,x11	 x25:0x48000000 x11:0x00000001 x12=0x00000000
       81575000	      8156	80005850	019a4bb3	xor	x23,x20,x25	 x20:0x00000000 x25:0x48000000 x23=0x48000000
       81585000	      8157	80005854	7d16c093	xori	x1,x13,2001	 x13:0x63310000  x1=0x633107d1
       81595000	      8158	80005858	00000013	addi	x0,x0,0	  x0:0x00000000
       81605000	      8159	8000585c	00fc81b3	add	x3,x25,x15	 x25:0x48000000 x15:0x80009fc4  x3=0xc8009fc4
       81615000	      8160	80005860	0042dcb3	srl	x25,x5,x4	  x5:0x599fc000  x4:0xcb64e804 x25=0x0599fc00
       81625000	      8161	80005864	0070aeb3	slt	x29,x1,x7	  x1:0x633107d1  x7:0xa3fffe79 x29=0x00000000
       81635000	      8162	80005868	015e7bb3	and	x23,x28,x21	 x28:0x00000001 x21:0x00000491 x23=0x00000001
       81645000	      8163	8000586c	40ec00b3	sub	x1,x24,x14	 x24:0x00000000 x14:0xfffff994  x1=0x0000066c
       81655000	      8164	80005870	01d61113	slli	x2,x12,0x1d	 x12:0x00000000  x2=0x00000000
       81665000	      8165	80005874	00c17a63	bgeu	x2,x12,80005888	  x2:0x00000000 x12:0x00000000
       81675000	      8166	00000000	00000013	addi	x0,x0,0	  x0:0x00000000
       81685000	      8167	80005884	00000013	addi	x0,x0,0	  x0:0x00000000
       81695000	      8168	80005888	03c3cc63	blt	x7,x28,800058c0	  x7:0xa3fffe79 x28:0x00000001
       81705000	      8169	00000000	00000013	addi	x0,x0,0	  x0:0x00000000
       81715000	      8170	800058bc	00000013	addi	x0,x0,0	  x0:0x00000000
       81725000	      8171	800058c0	0159ec33	or	x24,x19,x21	 x19:0xf0000000 x21:0x00000491 x24=0xf0000491
       81735000	      8172	800058c4	01296463	bltu	x18,x18,800058cc	 x18:0x00000000 x18:0x00000000
       81745000	      8173	800058c8	0134c3b3	xor	x7,x9,x19	  x9:0xffffffff x19:0xf0000000  x7=0x0fffffff
       81755000	      8174	800058cc	0165f0b3	and	x1,x11,x22	 x11:0x00000001 x22:0x00000000  x1=0x00000000
       81765000	      8175	800058d0	4090d713	srai	x14,x1,0x9	  x1:0x00000000 x14=0x00000000
       81775000	      8176	800058d4	02b5f063	bgeu	x11,x11,800058f4	 x11:0x00000001 x11:0x00000001
       81785000	      8177	00000000	00000013	addi	x0,x0,0	  x0:0x00000000
       81795000	      8178	800058f0	00000013	addi	x0,x0,0	  x0:0x00000000
       81805000	      8179	800058f4	01e0b133	sltu	x2,x1,x30	  x1:0x00000000 x30:0x003cb120  x2=0x00000001
       81815000	      8180	800058f8	40838633	sub	x12,x7,x8	  x7:0x0fffffff  x8:0x00000000 x12=0x0fffffff
       81825000	      8181	800058fc	01b86e33	or	x28,x16,x27	 x16:0xfffff9fc x27:0x000007ac x28=0xfffffffc
       81835000	      8182	80005900	0181ee33	or	x28,x3,x24	  x3:0xc8009fc4 x24:0xf0000491 x28=0xf8009fd5
       81845000	      8183	80005904	00edf2b3	and	x5,x27,x14	 x27:0x000007ac x14:0x00000000  x5=0x00000000
       81855000	      8184	80005908	02cc1e63	bne	x24,x12,80005944	 x24:0xf0000491 x12:0x0fffffff
       81865000	      8185	00000000	00000013	addi	x0,x0,0	  x0:0x00000000
       81875000	      8186	80005940	00000013	addi	x0,x0,0	  x0:0x00000000
       81885000	      8187	80005944	4164d293	srai	x5,x9,0x16	  x9:0xffffffff  x5=0xffffffff
       81895000	      8188	80005948	dae64213	xori	x4,x12,-594	 x12:0x0fffffff  x4=0xf0000251
       81905000	      8189	8000594c	eb1b2413	slti	x8,x22,-335	 x22:0x00000000  x8=0x00000000
       81915000	      8190	80005950	88722813	slti	x16,x4,-1913	  x4:0xf0000251 x16=0x00000001
       81925000	      8191	80005954	01ea4c33	xor	x24,x20,x30	 x20:0x00000000 x30:0x003cb120 x24=0x003cb120
       81935000	      8192	80005958	41b35b93	srai	x23,x6,0x1b	  x6:0x00000000 x23=0x00000000
       81945000	      8193	8000595c	56d42193	slti	x3,x8,1389	  x8:0x00000000  x3=0x00000001
       81955000	      8194	80005960	40555913	srai	x18,x10,0x5	 x10:0x0000004a x18=0x00000002
       81965000	      8195	80005964	01de2a33	slt	x20,x28,x29	 x28:0xf8009fd5 x29:0x00000000 x20=0x00000001
       81975000	      8196	80005968	d352c513	xori	x10,x5,-715	  x5:0xffffffff x10=0x000002ca
       81985000	      8197	8000596c	00aa5993	srli	x19,x20,0xa	 x20:0x00000001 x19=0x00000000
       81995000	      8198	80005970	00000013	addi	x0,x0,0	  x0:0x00000000
       82005000	      8199	80005974	af8ab9b7	lui	x19,0xaf8ab	 x19=0xaf8ab000
       82015000	      8200	80005978	05c7c263	blt	x15,x28,800059bc	 x15:0x80009fc4 x28:0xf8009fd5
       82025000	      8201	00000000	00000013	addi	x0,x0,0	  x0:0x00000000
       82035000	      8202	800059b8	00000013	addi	x0,x0,0	  x0:0x00000000
       82045000	      8203	800059bc	015d1293	slli	x5,x26,0x15	 x26:0x00000004  x5=0x00800000
       82055000	      8204	800059c0	0d824e13	xori	x28,x4,216	  x4:0xf0000251 x28=0xf0000289
       82065000	      8205	800059c4	011af913	andi	x18,x21,17	 x21:0x00000491 x18=0x00000011
       82075000	      8206	800059c8	7b9fa993	slti	x19,x31,1977	 x31:0x00000000 x19=0x00000001
       82085000	      8207	800059cc	9f01aa93	slti	x21,x3,-1552	  x3:0x00000001 x21=0x00000000
       82095000	      8208	800059d0	03179e63	bne	x15,x17,80005a0c	 x15:0x80009fc4 x17:0x80009f2c
       82105000	      8209	00000000	00000013	addi	x0,x0,0	  x0:0x00000000
       82115000	      8210	80005a08	00000013	addi	x0,x0,0	  x0:0x00000000
       82125000	      8211	80005a0c	4d3d0813	addi	x16,x26,1235	 x26:0x00000004 x16=0x000004d7
       82135000	      8212	80005a10	026a6063	bltu	x20,x6,80005a30	 x20:0x00000001  x6:0x00000000
       82145000	      8213	80005a14	00ffc663	blt	x31,x15,80005a20	 x31:0x00000000 x15:0x80009fc4
       82155000	      8214	80005a18	881f4b93	xori	x23,x30,-1919	 x30:0x003cb120 x23=0xffc349a1
       82165000	      8215	80005a1c	00000013	addi	x0,x0,0	  x0:0x00000000
       82175000	      8216	80005a20	00063733	sltu	x14,x12,x0	 x12:0x0fffffff  x0:0x00000000 x14=0x00000000
       82185000	      8217	80005a24	00fcdc93	srli	x25,x25,0xf	 x25:0x0599fc00 x25=0x00000b33
       82195000	      8218	80005a28	01791633	sll	x12,x18,x23	 x18:0x00000011 x23:0xffc349a1 x12=0x00000022
       82205000	      8219	80005a2c	0060d933	srl	x18,x1,x6	  x1:0x00000000  x6:0x00000000 x18=0x00000000
       82215000	      8220	80005a30	02b95c63	bge	x18,x11,80005a68	 x18:0x00000000 x11:0x00000001
       82225000	      8221	80005a34	03e49863	bne	x9,x30,80005a64	  x9:0xffffffff x30:0x003cb120
       82235000	      8222	00000000	00000013	addi	x0,x0,0	  x0:0x00000000
       82245000	      8223	80005a60	00000013	addi	x0,x0,0	  x0:0x00000000
       82255000	      8224	80005a64	c81b6f93	ori	x31,x22,-895	 x22:0x00000000 x31=0xfffffc81
       82265000	      8225	80005a68	00665013	srli	x0,x12,0x6	 x12:0x00000022
       82275000	      8226	80005a6c	1ac38813	addi	x16,x7,428	  x7:0x0fffffff x16=0x100001ab
       82285000	      8227	80005a70	032b8e63	beq	x23,x18,80005aac	 x23:0xffc349a1 x18:0x00000000
       82295000	      8228	80005a74	00b13a33	sltu	x20,x2,x11	  x2:0x00000001 x11:0x00000001 x20=0x00000000
       82305000	      8229	80005a78	01183633	sltu	x12,x16,x17	 x16:0x100001ab x17:0x80009f2c x12=0x00000001
       82315000	      8230	80005a7c	0137d863	bge	x15,x19,80005a8c	 x15:0x80009fc4 x19:0x00000001
       82325000	      8231	80005a80	dc276413	ori	x8,x14,-574	 x14:0x00000000  x8=0xfffffdc2
       82335000	      8232	80005a84	40cad833	sra	x16,x21,x12	 x21:0x00000000 x12:0x00000001 x16=0x00000000
       82345000	      8233	80005a88	00cfd233	srl	x4,x31,x12	 x31:0xfffffc81 x12:0x00000001  x4=0x7ffffe40
       82355000	      8234	80005a8c	01c864b3	or	x9,x16,x28	 x16:0x00000000 x28:0xf0000289  x9=0xf0000289
       82365000	      8235	80005a90	0377c463	blt	x15,x23,80005ab8	 x15:0x80009fc4 x23:0xffc349a1
       82375000	      8236	00000000	00000013	addi	x0,x0,0	  x0:0x00000000
       82385000	      8237	80005ab4	00000013	addi	x0,x0,0	  x0:0x00000000
       82395000	      8238	80005ab8	94b46293	ori	x5,x8,-1717	  x8:0xfffffdc2  x5=0xfffffdcb
       82405000	      8239	80005abc	001a4933	xor	x18,x20,x1	 x20:0x00000000  x1:0x00000000 x18=0x00000000
       82415000	      8240	80005ac0	023c6e63	bltu	x24,x3,80005afc	 x24:0x003cb120  x3:0x00000001
       82425000	      8241	80005ac4	4145d293	srai	x5,x11,0x14	 x11:0x00000001  x5=0x00000000
       82435000	      8242	80005ac8	00882f33	slt	x30,x16,x8	 x16:0x00000000  x8:0xfffffdc2 x30=0x00000000
       82445000	      8243	80005acc	01e2d3b3	srl	x7,x5,x30	  x5:0x00000000 x30:0x00000000  x7=0x00000000
       82455000	      8244	80005ad0	4076d333	sra	x6,x13,x7	 x13:0x63310000  x7:0x00000000  x6=0x63310000
       82465000	      8245	80005ad4	00bcf463	bgeu	x25,x11,80005adc	 x25:0x00000b33 x11:0x00000001
       82475000	      8246	00000000	00000013	addi	x0,x0,0	  x0:0x00000000
       82485000	      8247	80005ad8	00000013	addi	x0,x0,0	  x0:0x00000000
       82495000	      8248	80005adc	0133e2b3	or	x5,x7,x19	  x7:0x00000000 x19:0x00000001  x5=0x00000001
       82505000	      8249	80005ae0	00689cb3	sll	x25,x17,x6	 x17:0x80009f2c  x6:0x63310000 x25=0x80009f2c
       82515000	      8250	80005ae4	c8740693	addi	x13,x8,-889	  x8:0xfffffdc2 x13=0xfffffa49
       82525000	      8251	80005ae8	c76b8e97	auipc	x29,0xc76b8	 x29=0x476bdae4
       82535000	      8252	80005aec	014100b3	add	x1,x2,x20	  x2:0x00000001 x20:0x00000000  x1=0x00000001
       82545000	      8253	80005af0	4112d193	srai	x3,x5,0x11	  x5:0x00000001  x3=0x00000000
       82555000	      8254	80005af4	37ef8293	addi	x5,x31,894	 x31:0xfffffc81  x5=0xffffffff
       82565000	      8255	80005af8	055fc463	blt	x31,x21,80005b40	 x31:0xfffffc81 x21:0x00000000
       82575000	      8256	00000000	00000013	addi	x0,x0,0	  x0:0x00000000
       82585000	      8257	80005b3c	00000013	addi	x0,x0,0	  x0:0x00000000
       82595000	      8258	80005b40	50424993	xori	x19,x4,1284	  x4:0x7ffffe40 x19=0x7ffffb44
       82605000	      8259	80005b44	03180063	beq	x16,x17,80005b64	 x16:0x00000000 x17:0x80009f2c
       82615000	      8260	80005b48	00998ab3	add	x21,x19,x9	 x19:0x7ffffb44  x9:0xf0000289 x21=0x6ffffdcd
       82625000	      8261	80005b4c	013ecbb3	xor	x23,x29,x19	 x29:0x476bdae4 x19:0x7ffffb44 x23=0x389421a0
       82635000	      8262	80005b50	01988633	add	x12,x17,x25	 x17:0x80009f2c x25:0x80009f2c x12=0x00013e58
       82645000	      8263	80005b54	00f6e933	or	x18,x13,x15	 x13:0xfffffa49 x15:0x80009fc4 x18=0xffffffcd
       82655000	      8264	80005b58	02338463	beq	x7,x3,80005b80	  x7:0x00000000  x3:0x00000000
       82665000	      8265	00000000	00000013	addi	x0,x0,0	  x0:0x00000000
       82675000	      8266	80005b7c	00000013	addi	x0,x0,0	  x0:0x00000000
       82685000	      8267	80005b80	785e7bb7	lui	x23,0x785e7	 x23=0x785e7000
       82695000	      8268	80005b84	01b24233	xor	x4,x4,x27	  x4:0x7ffffe40 x27:0x000007ac  x4=0x7ffff9ec
       82705000	      8269	80005b88	00f81513	slli	x10,x16,0xf	 x16:0x00000000 x10=0x00000000
       82715000	      8270	80005b8c	37c10293	addi	x5,x2,892	  x2:0x00000001  x5=0x0000037d
       82725000	      8271	80005b90	01521f33	sll	x30,x4,x21	  x4:0x7ffff9ec x21:0x6ffffdcd x30=0xff3d8000
       82735000	      8272	80005b94	01a61113	slli	x2,x12,0x1a	 x12:0x00013e58  x2=0x60000000
       82745000	      8273	80005b98	73bb0f97	auipc	x31,0x73bb0	 x31=0xf3bb5b94
       82755000	      8274	80005b9c	01565f13	srli	x30,x12,0x15	 x12:0x00013e58 x30=0x00000000
       82765000	      8275	80005ba0	00000013	addi	x0,x0,0	  x0:0x00000000
       82775000	      8276	80005ba4	000c7663	bgeu	x24,x0,80005bb0	 x24:0x003cb120  x0:0x00000000
       82785000	      8277	00000000	00000013	addi	x0,x0,0	  x0:0x00000000
       82795000	      8278	80005bac	00000013	addi	x0,x0,0	  x0:0x00000000
       82805000	      8279	80005bb0	0121d593	srli	x11,x3,0x12	  x3:0x00000000 x11=0x00000000
       82815000	      8280	80005bb4	014cf433	and	x8,x25,x20	 x25:0x80009f2c x20:0x00000000  x8=0x00000000
       82825000	      8281	80005bb8	0048a083	lw	x1,4(x17)	 x17:0x80009f2c  x1=0x80005d24 PA:0x80009f30
       82835000	      8282	80005bbc	6a013db7	lui	x27,0x6a013	 x27=0x6a013000
       82845000	      8283	80005bc0	0135b3b3	sltu	x7,x11,x19	 x11:0x00000000 x19:0x7ffffb44  x7=0x00000001
       82855000	      8284	80005bc4	03488893	addi	x17,x17,52	 x17:0x80009f2c x17=0x80009f60
       82865000	      8285	80005bc8	41215813	srai	x16,x2,0x12	  x2:0x60000000 x16=0x00001800
       82875000	      8286	80005bcc	00e42cb3	slt	x25,x8,x14	  x8:0x00000000 x14:0x00000000 x25=0x00000000
       82885000	      8287	80005bd0	01088f33	add	x30,x17,x16	 x17:0x80009f60 x16:0x00001800 x30=0x8000b760
       82895000	      8288	80005bd4	00108413	addi	x8,x1,1	  x1:0x80005d24  x8=0x80005d25
       82905000	      8289	80005bd8	00040467	jalr	x8,x8,0	  x8:0x80005d25  x8=0x80005bd8
       82915000	      8290	00000000	00000013	addi	x0,x0,0	  x0:0x00000000
       82925000	      8291	80005d24	00000013	addi	x0,x0,0	  x0:0x00000000
       82935000	      8292	80005d28	00c4d093	srli	x1,x9,0xc	  x9:0xf0000289  x1=0x000f0000
       82945000	      8293	80005d2c	00000117	auipc	x2,0x0	  x2=0x80005d28
       82955000	      8294	80005d30	eb010113	addi	x2,x2,-336	  x2:0x80005d28  x2=0x80005bd8
       82965000	      8295	80005d34	01c14c33	xor	x24,x2,x28	  x2:0x80005bd8 x28:0xf0000289 x24=0x70005951
       82975000	      8296	80005d38	019c3733	sltu	x14,x24,x25	 x24:0x70005951 x25:0x00000000 x14=0x00000000
       82985000	      8297	80005d3c	01674e33	xor	x28,x14,x22	 x14:0x00000000 x22:0x00000000 x28=0x00000000
       82995000	      8298	80005d40	12110113	addi	x2,x2,289	  x2:0x80005bd8  x2=0x80005cf9
       83005000	      8299	80005d44	4049d093	srai	x1,x19,0x4	 x19:0x7ffffb44  x1=0x07ffffb4
       83015000	      8300	80005d48	ab37fb13	andi	x22,x15,-1357	 x15:0x80009fc4 x22=0x80009a80
       83025000	      8301	80005d4c	00fcf863	bgeu	x25,x15,80005d5c	 x25:0x00000000 x15:0x80009fc4
       83035000	      8302	80005d50	0169ec33	or	x24,x19,x22	 x19:0x7ffffb44 x22:0x80009a80 x24=0xfffffbc4
       83045000	      8303	80005d54	d25fa213	slti	x4,x31,-731	 x31:0xf3bb5b94  x4=0x00000001
       83055000	      8304	80005d58	00edf333	and	x6,x27,x14	 x27:0x6a013000 x14:0x00000000  x6=0x00000000
       83065000	      8305	80005d5c	ee0100e7	jalr	x1,x2,-288	  x2:0x80005cf9  x1=0x80005d5c
       83075000	      8306	00000000	00000013	addi	x0,x0,0	  x0:0x00000000
       83085000	      8307	80005bd8	00000013	addi	x0,x0,0	  x0:0x00000000
       83095000	      8308	80005bdc	0115c263	blt	x11,x17,80005be0	 x11:0x00000000 x17:0x80009f60
       83105000	      8309	80005be0	fc888893	addi	x17,x17,-56	 x17:0x80009f60 x17=0x80009f28
       83115000	      8310	80005be4	410a0233	sub	x4,x20,x16	 x20:0x00000000 x16:0x00001800  x4=0xffffe800
       83125000	      8311	80005be8	0018a223	sw	x1,4(x17)	 x17:0x80009f28  x1:0x80005d5c PA:0x80009f2c
       83135000	      8312	80005bec	40228f33	sub	x30,x5,x2	  x5:0x0000037d  x2:0x80005cf9 x30=0x7fffa684
       83145000	      8313	80005bf0	6d7cac13	slti	x24,x25,1751	 x25:0x00000000 x24=0x00000001
       83155000	      8314	80005bf4	01814a63	blt	x2,x24,80005c08	  x2:0x80005cf9 x24:0x00000001
       83165000	      8315	00000000	00000013	addi	x0,x0,0	  x0:0x00000000
       83175000	      8316	80005c04	00000013	addi	x0,x0,0	  x0:0x00000000
       83185000	      8317	80005c08	01849993	slli	x19,x9,0x18	  x9:0xf0000289 x19=0x89000000
       83195000	      8318	80005c0c	01e8acb3	slt	x25,x17,x30	 x17:0x80009f28 x30:0x7fffa684 x25=0x00000001
       83205000	      8319	80005c10	016732b3	sltu	x5,x14,x22	 x14:0x00000000 x22:0x80009a80  x5=0x00000001
       83215000	      8320	80005c14	78050393	addi	x7,x10,1920	 x10:0x00000000  x7=0x00000780
       83225000	      8321	80005c18	017bd233	srl	x4,x23,x23	 x23:0x785e7000 x23:0x785e7000  x4=0x785e7000
       83235000	      8322	80005c1c	0048a083	lw	x1,4(x17)	 x17:0x80009f28  x1=0x80005d5c PA:0x80009f2c
       83245000	      8323	80005c20	4189db93	srai	x23,x19,0x18	 x19:0x89000000 x23=0xffffff89
       83255000	      8324	80005c24	40ecd633	sra	x12,x25,x14	 x25:0x00000001 x14:0x00000000 x12=0x00000001
       83265000	      8325	80005c28	f5902437	lui	x8,0xf5902	  x8=0xf5902000
       83275000	      8326	80005c2c	013a5313	srli	x6,x20,0x13	 x20:0x00000000  x6=0x00000000
       83285000	      8327	80005c30	004eaf33	slt	x30,x29,x4	 x29:0x476bdae4  x4:0x785e7000 x30=0x00000001
       83295000	      8328	80005c34	9f9e7493	andi	x9,x28,-1543	 x28:0x00000000  x9=0x00000000
       83305000	      8329	80005c38	0001feb3	and	x29,x3,x0	  x3:0x00000000  x0:0x00000000 x29=0x00000000
       83315000	      8330	80005c3c	03888893	addi	x17,x17,56	 x17:0x80009f28 x17=0x80009f60
       83325000	      8331	80005c40	c84bba13	sltiu	x20,x23,-892	 x23:0xffffff89 x20=0x00000000
       83335000	      8332	80005c44	00108d93	addi	x27,x1,1	  x1:0x80005d5c x27=0x80005d5d
       83345000	      8333	80005c48	000d8de7	jalr	x27,x27,0	 x27:0x80005d5d x27=0x80005c48
       83355000	      8334	00000000	00000013	addi	x0,x0,0	  x0:0x00000000
       83365000	      8335	80005d5c	00000013	addi	x0,x0,0	  x0:0x00000000
       83375000	      8336	80005d60	003a4f33	xor	x30,x20,x3	 x20:0x00000000  x3:0x00000000 x30=0x00000000
       83385000	      8337	80005d64	00000b97	auipc	x23,0x0	 x23=0x80005d60
       83395000	      8338	80005d68	674b8b93	addi	x23,x23,1652	 x23:0x80005d60 x23=0x800063d4
       83405000	      8339	80005d6c	08354713	xori	x14,x10,131	 x10:0x00000000 x14=0x00000083
       83415000	      8340	80005d70	c4ec2a37	lui	x20,0xc4ec2	 x20=0xc4ec2000
       83425000	      8341	80005d74	00ec96b3	sll	x13,x25,x14	 x25:0x00000001 x14:0x00000083 x13=0x00000008
       83435000	      8342	80005d78	7c96deb7	lui	x29,0x7c96d	 x29=0x7c96d000
       83445000	      8343	80005d7c	a61eae13	slti	x28,x29,-1439	 x29:0x7c96d000 x28=0x00000000
       83455000	      8344	80005d80	40d35ab3	sra	x21,x6,x13	  x6:0x00000000 x13:0x00000008 x21=0x00000000
       83465000	      8345	80005d84	d1db8b93	addi	x23,x23,-739	 x23:0x800063d4 x23=0x800060f1
       83475000	      8346	80005d88	1461e693	ori	x13,x3,326	  x3:0x00000000 x13=0x00000146
       83485000	      8347	80005d8c	2e4b80e7	jalr	x1,x23,740	 x23:0x800060f1  x1=0x80005d8c
       83495000	      8348	00000000	00000013	addi	x0,x0,0	  x0:0x00000000
       83505000	      8349	800063d4	00000013	addi	x0,x0,0	  x0:0x00000000
       83515000	      8350	800063d8	0191a033	slt	x0,x3,x25	  x3:0x00000000 x25:0x00000001
       83525000	      8351	800063dc	00000013	addi	x0,x0,0	  x0:0x00000000
       83535000	      8352	800063e0	007c5b93	srli	x23,x24,0x7	 x24:0x00000001 x23=0x00000000
       83545000	      8353	800063e4	fec88893	addi	x17,x17,-20	 x17:0x80009f60 x17=0x80009f4c
       83555000	      8354	800063e8	0018a223	sw	x1,4(x17)	 x17:0x80009f4c  x1:0x80005d8c PA:0x80009f50
       83565000	      8355	800063ec	d0f24e13	xori	x28,x4,-753	  x4:0x785e7000 x28=0x87a18d0f
       83575000	      8356	800063f0	01cc15b3	sll	x11,x24,x28	 x24:0x00000001 x28:0x87a18d0f x11=0x00008000
       83585000	      8357	800063f4	01d8a433	slt	x8,x17,x29	 x17:0x80009f4c x29:0x7c96d000  x8=0x00000001
       83595000	      8358	800063f8	012f6333	or	x6,x30,x18	 x30:0x00000000 x18:0xffffffcd  x6=0xffffffcd
       83605000	      8359	800063fc	04f07c93	andi	x25,x0,79	  x0:0x00000000 x25=0x00000000
       83615000	      8360	80006400	9ad5c813	xori	x16,x11,-1619	 x11:0x00008000 x16=0xffff79ad
       83625000	      8361	80006404	2a8e8093	addi	x1,x29,680	 x29:0x7c96d000  x1=0x7c96d2a8
       83635000	      8362	80006408	686b4593	xori	x11,x22,1670	 x22:0x80009a80 x11=0x80009c06
       83645000	      8363	8000640c	00fb6f33	or	x30,x22,x15	 x22:0x80009a80 x15:0x80009fc4 x30=0x80009fc4
       83655000	      8364	80006410	00519ab3	sll	x21,x3,x5	  x3:0x00000000  x5:0x00000001 x21=0x00000000
       83665000	      8365	80006414	01947e63	bgeu	x8,x25,80006430	  x8:0x00000001 x25:0x00000000
       83675000	      8366	00000000	00000013	addi	x0,x0,0	  x0:0x00000000
       83685000	      8367	8000642c	00000013	addi	x0,x0,0	  x0:0x00000000
       83695000	      8368	80006430	01ea1493	slli	x9,x20,0x1e	 x20:0xc4ec2000  x9=0x00000000
       83705000	      8369	80006434	00000013	addi	x0,x0,0	  x0:0x00000000
       83715000	      8370	80006438	00a994b3	sll	x9,x19,x10	 x19:0x89000000 x10:0x00000000  x9=0x89000000
       83725000	      8371	8000643c	401a50b3	sra	x1,x20,x1	 x20:0xc4ec2000  x1:0x7c96d2a8  x1=0xffc4ec20
       83735000	      8372	80006440	00f42933	slt	x18,x8,x15	  x8:0x00000001 x15:0x80009fc4 x18=0x00000000
       83745000	      8373	80006444	0135bc33	sltu	x24,x11,x19	 x11:0x80009c06 x19:0x89000000 x24=0x00000001
       83755000	      8374	80006448	00d84463	blt	x16,x13,80006450	 x16:0xffff79ad x13:0x00000146
       83765000	      8375	00000000	00000013	addi	x0,x0,0	  x0:0x00000000
       83775000	      8376	8000644c	00000013	addi	x0,x0,0	  x0:0x00000000
       83785000	      8377	80006450	d7b40293	addi	x5,x8,-645	  x8:0x00000001  x5=0xfffffd7c
       83795000	      8378	80006454	bad67413	andi	x8,x12,-1107	 x12:0x00000001  x8=0x00000001
       83805000	      8379	80006458	00e7d4b3	srl	x9,x15,x14	 x15:0x80009fc4 x14:0x00000083  x9=0x100013f8
       83815000	      8380	8000645c	019d3633	sltu	x12,x26,x25	 x26:0x00000004 x25:0x00000000 x12=0x00000000
       83825000	      8381	80006460	91ef5917	auipc	x18,0x91ef5	 x18=0x11efb45c
       83835000	      8382	80006464	1d83bd93	sltiu	x27,x7,472	  x7:0x00000780 x27=0x00000000
       83845000	      8383	80006468	3dabcf13	xori	x30,x23,986	 x23:0x00000000 x30=0x000003da
       83855000	      8384	8000646c	004bd4b3	srl	x9,x23,x4	 x23:0x00000000  x4:0x785e7000  x9=0x00000000
       83865000	      8385	80006470	0048a083	lw	x1,4(x17)	 x17:0x80009f4c  x1=0x80005d8c PA:0x80009f50
       83875000	      8386	80006474	b70abc13	sltiu	x24,x21,-1168	 x21:0x00000000 x24=0x00000001
       83885000	      8387	80006478	01488893	addi	x17,x17,20	 x17:0x80009f4c x17=0x80009f60
       83895000	      8388	8000647c	409f0333	sub	x6,x30,x9	 x30:0x000003da  x9:0x00000000  x6=0x000003da
       83905000	      8389	80006480	00008a93	addi	x21,x1,0	  x1:0x80005d8c x21=0x80005d8c
       83915000	      8390	80006484	000a8ae7	jalr	x21,x21,0	 x21:0x80005d8c x21=0x80006484
       83925000	      8391	00000000	00000013	addi	x0,x0,0	  x0:0x00000000
       83935000	      8392	80005d8c	00000013	addi	x0,x0,0	  x0:0x00000000
       83945000	      8393	80005d90	01cd2333	slt	x6,x26,x28	 x26:0x00000004 x28:0x87a18d0f  x6=0x00000000
       83955000	      8394	80005d94	012443b3	xor	x7,x8,x18	  x8:0x00000001 x18:0x11efb45c  x7=0x11efb45d
       83965000	      8395	80005d98	0149dab3	srl	x21,x19,x20	 x19:0x89000000 x20:0xc4ec2000 x21=0x89000000
       83975000	      8396	80005d9c	88a2c013	xori	x0,x5,-1910	  x5:0xfffffd7c
       83985000	      8397	80005da0	00001197	auipc	x3,0x1	  x3=0x80006d9c
       83995000	      8398	80005da4	e7018193	addi	x3,x3,-400	  x3:0x80006d9c  x3=0x80006c0c
       84005000	      8399	80005da8	012a0a33	add	x20,x20,x18	 x20:0xc4ec2000 x18:0x11efb45c x20=0xd6dbd45c
       84015000	      8400	80005dac	d4f18193	addi	x3,x3,-689	  x3:0x80006c0c  x3=0x8000695b
       84025000	      8401	80005db0	008a6eb3	or	x29,x20,x8	 x20:0xd6dbd45c  x8:0x00000001 x29=0xd6dbd45d
       84035000	      8402	80005db4	e1e6e013	ori	x0,x13,-482	 x13:0x00000146
       84045000	      8403	80005db8	00c2aab3	slt	x21,x5,x12	  x5:0xfffffd7c x12:0x00000000 x21=0x00000001
       84055000	      8404	80005dbc	ee870913	addi	x18,x14,-280	 x14:0x00000083 x18=0xffffff6b
       84065000	      8405	80005dc0	2b1180e7	jalr	x1,x3,689	  x3:0x8000695b  x1=0x80005dc0
       84075000	      8406	00000000	00000013	addi	x0,x0,0	  x0:0x00000000
       84085000	      8407	80006c0c	00000013	addi	x0,x0,0	  x0:0x00000000
       84095000	      8408	80006c10	005d7c33	and	x24,x26,x5	 x26:0x00000004  x5:0xfffffd7c x24=0x00000004
       84105000	      8409	80006c14	1020b913	sltiu	x18,x1,258	  x1:0x80005dc0 x18=0x00000000
       84115000	      8410	80006c18	01e76463	bltu	x14,x30,80006c20	 x14:0x00000083 x30:0x000003da
       84125000	      8411	00000000	00000013	addi	x0,x0,0	  x0:0x00000000
       84135000	      8412	80006c1c	00000013	addi	x0,x0,0	  x0:0x00000000
       84145000	      8413	80006c20	fe888893	addi	x17,x17,-24	 x17:0x80009f60 x17=0x80009f48
       84155000	      8414	80006c24	0018a223	sw	x1,4(x17)	 x17:0x80009f48  x1:0x80005dc0 PA:0x80009f4c
       84165000	      8415	80006c28	c9beee97	auipc	x29,0xc9bee	 x29=0x49bf4c24
       84175000	      8416	80006c2c	00161513	slli	x10,x12,0x1	 x12:0x00000000 x10=0x00000000
       84185000	      8417	80006c30	00876bb3	or	x23,x14,x8	 x14:0x00000083  x8:0x00000001 x23=0x00000083
       84195000	      8418	80006c34	004a1a63	bne	x20,x4,80006c48	 x20:0xd6dbd45c  x4:0x785e7000
       84205000	      8419	00000000	00000013	addi	x0,x0,0	  x0:0x00000000
       84215000	      8420	80006c44	00000013	addi	x0,x0,0	  x0:0x00000000
       84225000	      8421	80006c48	e16d4393	xori	x7,x26,-490	 x26:0x00000004  x7=0xfffffe12
       84235000	      8422	80006c4c	01345713	srli	x14,x8,0x13	  x8:0x00000001 x14=0x00000000
       84245000	      8423	80006c50	00eb0463	beq	x22,x14,80006c58	 x22:0x80009a80 x14:0x00000000
       84255000	      8424	80006c54	01c6c633	xor	x12,x13,x28	 x13:0x00000146 x28:0x87a18d0f x12=0x87a18c49
       84265000	      8425	80006c58	4164d6b3	sra	x13,x9,x22	  x9:0x00000000 x22:0x80009a80 x13=0x00000000
       84275000	      8426	80006c5c	0048a083	lw	x1,4(x17)	 x17:0x80009f48  x1=0x80005dc0 PA:0x80009f4c
       84285000	      8427	80006c60	e6928413	addi	x8,x5,-407	  x5:0xfffffd7c  x8=0xfffffbe5
       84295000	      8428	80006c64	a2fbc613	xori	x12,x23,-1489	 x23:0x00000083 x12=0xfffffaac
       84305000	      8429	80006c68	01888893	addi	x17,x17,24	 x17:0x80009f48 x17=0x80009f60
       84315000	      8430	80006c6c	4025de13	srai	x28,x11,0x2	 x11:0x80009c06 x28=0xe0002701
       84325000	      8431	80006c70	40a0d513	srai	x10,x1,0xa	  x1:0x80005dc0 x10=0xffe00017
       84335000	      8432	80006c74	00108b13	addi	x22,x1,1	  x1:0x80005dc0 x22=0x80005dc1
       84345000	      8433	80006c78	000b0b67	jalr	x22,x22,0	 x22:0x80005dc1 x22=0x80006c78
       84355000	      8434	00000000	00000013	addi	x0,x0,0	  x0:0x00000000
       84365000	      8435	80005dc0	00000013	addi	x0,x0,0	  x0:0x00000000
       84375000	      8436	80005dc4	00003b97	auipc	x23,0x3	 x23=0x80008dc0
       84385000	      8437	80005dc8	b21b8b93	addi	x23,x23,-1247	 x23:0x80008dc0 x23=0x800088e1
       84395000	      8438	80005dcc	453bc383	lbu	x7,1107(x23)	 x23:0x800088e1  x7=0x00000091 PA:0x80008d34
       84405000	      8439	80005dd0	d71ca193	slti	x3,x25,-655	 x25:0x00000000  x3=0x00000000
       84415000	      8440	80005dd4	4cdb8b23	sb	x13,1238(x23)	 x23:0x800088e1 x13:0x00000000 PA:0x80008db7
       84425000	      8441	80005dd8	5b8bac13	slti	x24,x23,1464	 x23:0x800088e1 x24=0x00000001
       84435000	      8442	80005ddc	630b8903	lb	x18,1584(x23)	 x23:0x800088e1 x18=0x00000027 PA:0x80008f11
       84445000	      8443	80005de0	010261b3	or	x3,x4,x16	  x4:0x785e7000 x16:0xffff79ad  x3=0xffff79ad
       84455000	      8444	80005de4	2b886393	ori	x7,x16,696	 x16:0xffff79ad  x7=0xffff7bbd
       84465000	      8445	80005de8	a7256e13	ori	x28,x10,-1422	 x10:0xffe00017 x28=0xfffffa77
       84475000	      8446	80005dec	339b8a23	sb	x25,820(x23)	 x23:0x800088e1 x25:0x00000000 PA:0x80008c15
       84485000	      8447	80005df0	40385813	srai	x16,x16,0x3	 x16:0xffff79ad x16=0xffffef35
       84495000	      8448	80005df4	002d3c33	sltu	x24,x26,x2	 x26:0x00000004  x2:0x80005cf9 x24=0x00000001
       84505000	      8449	80005df8	5d667c13	andi	x24,x12,1494	 x12:0xfffffaac x24=0x00000084
       84515000	      8450	80005dfc	01ced313	srli	x6,x29,0x1c	 x29:0x49bf4c24  x6=0x00000004
       84525000	      8451	80005e00	410b8e23	sb	x16,1052(x23)	 x23:0x800088e1 x16:0xffffef35 PA:0x80008cfd
       84535000	      8452	80005e04	656b8683	lb	x13,1622(x23)	 x23:0x800088e1 x13=0xffffffa9 PA:0x80008f37
       84545000	      8453	80005e08	3e6b8723	sb	x6,1006(x23)	 x23:0x800088e1  x6:0x00000004 PA:0x80008ccf
       84555000	      8454	80005e0c	414ed933	sra	x18,x29,x20	 x29:0x49bf4c24 x20:0xd6dbd45c x18=0x00000004
       84565000	      8455	80005e10	15cb8103	lb	x2,348(x23)	 x23:0x800088e1  x2=0xffffffd6 PA:0x80008a3d
       84575000	      8456	80005e14	08eb8123	sb	x14,130(x23)	 x23:0x800088e1 x14:0x00000000 PA:0x80008963
       84585000	      8457	80005e18	377fdc37	lui	x24,0x377fd	 x24=0x377fd000
       84595000	      8458	80005e1c	4e6b88a3	sb	x6,1265(x23)	 x23:0x800088e1  x6:0x00000004 PA:0x80008dd2
       84605000	      8459	80005e20	002f79b3	and	x19,x30,x2	 x30:0x000003da  x2:0xffffffd6 x19=0x000003d2
       84615000	      8460	80005e24	40545313	srai	x6,x8,0x5	  x8:0xfffffbe5  x6=0xffffffdf
       84625000	      8461	80005e28	0011ccb3	xor	x25,x3,x1	  x3:0xffff79ad  x1:0x80005dc0 x25=0x7fff246d
       84635000	      8462	80005e2c	3c4b97a3	sh	x4,975(x23)	 x23:0x800088e1  x4:0x785e7000 PA:0x80008cb0
       84645000	      8463	80005e30	00003d97	auipc	x27,0x3	 x27=0x80008e2c
       84655000	      8464	80005e34	a36d8d93	addi	x27,x27,-1482	 x27:0x80008e2c x27=0x80008862
       84665000	      8465	80005e38	f8fc03b7	lui	x7,0xf8fc0	  x7=0xf8fc0000
       84675000	      8466	80005e3c	e231e593	ori	x11,x3,-477	  x3:0xffff79ad x11=0xffffffaf
       84685000	      8467	80005e40	006da203	lw	x4,6(x27)	 x27:0x80008862  x4=0x410d6086 PA:0x80008868
       84695000	      8468	80005e44	0156d013	srli	x0,x13,0x15	 x13:0xffffffa9
       84705000	      8469	80005e48	41970eb3	sub	x29,x14,x25	 x14:0x00000000 x25:0x7fff246d x29=0x8000db93
       84715000	      8470	80005e4c	00589c33	sll	x24,x17,x5	 x17:0x80009f60  x5:0xfffffd7c x24=0x00000000
       84725000	      8471	80005e50	0c7a2c97	auipc	x25,0xc7a2	 x25=0x8c7a7e4c
       84735000	      8472	80005e54	078d8583	lb	x11,120(x27)	 x27:0x80008862 x11=0xffffffe5 PA:0x800088da
       84745000	      8473	80005e58	9c718c93	addi	x25,x3,-1593	  x3:0xffff79ad x25=0xffff7374
       84755000	      8474	80005e5c	090d84a3	sb	x16,137(x27)	 x27:0x80008862 x16:0xffffef35 PA:0x800088eb
       84765000	      8475	80005e60	0193f6b3	and	x13,x7,x25	  x7:0xf8fc0000 x25:0xffff7374 x13=0xf8fc0000
       84775000	      8476	80005e64	fe4dc103	lbu	x2,-28(x27)	 x27:0x80008862  x2=0x0000006e PA:0x80008846
       84785000	      8477	80005e68	01969813	slli	x16,x13,0x19	 x13:0xf8fc0000 x16=0x00000000
       84795000	      8478	80005e6c	0d4d8f03	lb	x30,212(x27)	 x27:0x80008862 x30=0x00000000 PA:0x80008936
       84805000	      8479	80005e70	01db44b3	xor	x9,x22,x29	 x22:0x80006c78 x29:0x8000db93  x9=0x0000b7eb
       84815000	      8480	80005e74	ce7d6393	ori	x7,x26,-793	 x26:0x00000004  x7=0xfffffce7
       84825000	      8481	80005e78	4122d313	srai	x6,x5,0x12	  x5:0xfffffd7c  x6=0xffffffff
       84835000	      8482	80005e7c	01611833	sll	x16,x2,x22	  x2:0x0000006e x22:0x80006c78 x16=0x6e000000
       84845000	      8483	80005e80	fd8d8703	lb	x14,-40(x27)	 x27:0x80008862 x14=0x0000001b PA:0x8000883a
       84855000	      8484	80005e84	f3042813	slti	x16,x8,-208	  x8:0xfffffbe5 x16=0x00000001
       84865000	      8485	80005e88	002c52b3	srl	x5,x24,x2	 x24:0x00000000  x2:0x0000006e  x5=0x00000000
       84875000	      8486	80005e8c	08edc803	lbu	x16,142(x27)	 x27:0x80008862 x16=0x000000cc PA:0x800088f0
       84885000	      8487	00000000	00000013	addi	x0,x0,0	  x0:0x00000000
       84895000	      8488	80005e90	b9080c13	addi	x24,x16,-1136	 x16:0x000000cc x24=0xfffffc5c
       84905000	      8489	80005e94	045da723	sw	x5,78(x27)	 x27:0x80008862  x5:0x00000000 PA:0x800088b0
       84915000	      8490	80005e98	026d8723	sb	x6,46(x27)	 x27:0x80008862  x6:0xffffffff PA:0x80008890
       84925000	      8491	80005e9c	afaa3193	sltiu	x3,x20,-1286	 x20:0xd6dbd45c  x3=0x00000001
       84935000	      8492	80005ea0	8c19b493	sltiu	x9,x19,-1855	 x19:0x000003d2  x9=0x00000001
       84945000	      8493	80005ea4	03dd8c83	lb	x25,61(x27)	 x27:0x80008862 x25=0x00000062 PA:0x8000889f
       84955000	      8494	80005ea8	febd8583	lb	x11,-21(x27)	 x27:0x80008862 x11=0xffffffca PA:0x8000884d
       84965000	      8495	80005eac	0f6d8ca3	sb	x22,249(x27)	 x27:0x80008862 x22:0x80006c78 PA:0x8000895b
       84975000	      8496	80005eb0	0244d263	bge	x9,x4,80005ed4	  x9:0x00000001  x4:0x410d6086
       84985000	      8497	80005eb4	0010e6b3	or	x13,x1,x1	  x1:0x80005dc0  x1:0x80005dc0 x13=0x80005dc0
       84995000	      8498	80005eb8	000eca33	xor	x20,x29,x0	 x29:0x8000db93  x0:0x00000000 x20=0x8000db93
       85005000	      8499	80005ebc	036c7063	bgeu	x24,x22,80005edc	 x24:0xfffffc5c x22:0x80006c78
       85015000	      8500	00000000	00000013	addi	x0,x0,0	  x0:0x00000000
       85025000	      8501	80005ed8	00000013	addi	x0,x0,0	  x0:0x00000000
       85035000	      8502	80005edc	7db3e813	ori	x16,x7,2011	  x7:0xfffffce7 x16=0xffffffff
       85045000	      8503	80005ee0	01ff1f13	slli	x30,x30,0x1f	 x30:0x00000000 x30=0x00000000
       85055000	      8504	80005ee4	0160a5b3	slt	x11,x1,x22	  x1:0x80005dc0 x22:0x80006c78 x11=0x00000001
       85065000	      8505	80005ee8	00191f13	slli	x30,x18,0x1	 x18:0x00000004 x30=0x00000008
       85075000	      8506	80005eec	05570063	beq	x14,x21,80005f2c	 x14:0x0000001b x21:0x00000001
       85085000	      8507	80005ef0	03c5d463	bge	x11,x28,80005f18	 x11:0x00000001 x28:0xfffffa77
       85095000	      8508	00000000	00000013	addi	x0,x0,0	  x0:0x00000000
       85105000	      8509	80005f14	00000013	addi	x0,x0,0	  x0:0x00000000
       85115000	      8510	80005f18	401d5693	srai	x13,x26,0x1	 x26:0x00000004 x13=0x00000002
       85125000	      8511	80005f1c	00d41b33	sll	x22,x8,x13	  x8:0xfffffbe5 x13:0x00000002 x22=0xffffef94
       85135000	      8512	80005f20	00943933	sltu	x18,x8,x9	  x8:0xfffffbe5  x9:0x00000001 x18=0x00000000
       85145000	      8513	80005f24	007531b3	sltu	x3,x10,x7	 x10:0xffe00017  x7:0xfffffce7  x3=0x00000001
       85155000	      8514	80005f28	00541663	bne	x8,x5,80005f34	  x8:0xfffffbe5  x5:0x00000000
       85165000	      8515	00000000	00000013	addi	x0,x0,0	  x0:0x00000000
       85175000	      8516	80005f30	00000013	addi	x0,x0,0	  x0:0x00000000
       85185000	      8517	80005f34	1f6c9cb7	lui	x25,0x1f6c9	 x25=0x1f6c9000
       85195000	      8518	80005f38	46cfea13	ori	x20,x31,1132	 x31:0xf3bb5b94 x20=0xf3bb5ffc
       85205000	      8519	80005f3c	00557633	and	x12,x10,x5	 x10:0xffe00017  x5:0x00000000 x12=0x00000000
       85215000	      8520	80005f40	3951ddb7	lui	x27,0x3951d	 x27=0x3951d000
       85225000	      8521	80005f44	00728f33	add	x30,x5,x7	  x5:0x00000000  x7:0xfffffce7 x30=0xfffffce7
       85235000	      8522	80005f48	401150b3	sra	x1,x2,x1	  x2:0x0000006e  x1:0x80005dc0  x1=0x0000006e
       85245000	      8523	80005f4c	fe99a193	slti	x3,x19,-23	 x19:0x000003d2  x3=0x00000000
       85255000	      8524	80005f50	019295b3	sll	x11,x5,x25	  x5:0x00000000 x25:0x1f6c9000 x11=0x00000000
       85265000	      8525	80005f54	00aade33	srl	x28,x21,x10	 x21:0x00000001 x10:0xffe00017 x28=0x00000000
       85275000	      8526	80005f58	001c9533	sll	x10,x25,x1	 x25:0x1f6c9000  x1:0x0000006e x10=0x24000000
       85285000	      8527	80005f5c	00475413	srli	x8,x14,0x4	 x14:0x0000001b  x8=0x00000001
       85295000	      8528	80005f60	40a6d933	sra	x18,x13,x10	 x13:0x00000002 x10:0x24000000 x18=0x00000002
       85305000	      8529	80005f64	00a71813	slli	x16,x14,0xa	 x14:0x0000001b x16=0x00006c00
       85315000	      8530	80005f68	018d2db3	slt	x27,x26,x24	 x26:0x00000004 x24:0xfffffc5c x27=0x00000000
       85325000	      8531	80005f6c	008b0933	add	x18,x22,x8	 x22:0xffffef94  x8:0x00000001 x18=0xffffef95
       85335000	      8532	80005f70	01fb6db3	or	x27,x22,x31	 x22:0xffffef94 x31:0xf3bb5b94 x27=0xffffff94
       85345000	      8533	80005f74	41e2d093	srai	x1,x5,0x1e	  x5:0x00000000  x1=0x00000000
       85355000	      8534	80005f78	9a9c8513	addi	x10,x25,-1623	 x25:0x1f6c9000 x10=0x1f6c89a9
       85365000	      8535	80005f7c	0025e433	or	x8,x11,x2	 x11:0x00000000  x2:0x0000006e  x8=0x0000006e
       85375000	      8536	80005f80	00000b97	auipc	x23,0x0	 x23=0x80005f7c
       85385000	      8537	80005f84	6fcb8b93	addi	x23,x23,1788	 x23:0x80005f7c x23=0x80006678
       85395000	      8538	80005f88	0062ddb3	srl	x27,x5,x6	  x5:0x00000000  x6:0xffffffff x27=0x00000000
       85405000	      8539	80005f8c	3a408413	addi	x8,x1,932	  x1:0x00000000  x8=0x000003a4
       85415000	      8540	80005f90	dafb8b93	addi	x23,x23,-593	 x23:0x80006678 x23=0x80006427
       85425000	      8541	80005f94	00528b33	add	x22,x5,x5	  x5:0x00000000  x5:0x00000000 x22=0x00000000
       85435000	      8542	80005f98	252b80e7	jalr	x1,x23,594	 x23:0x80006427  x1=0x80005f98
       85445000	      8543	00000000	00000013	addi	x0,x0,0	  x0:0x00000000
       85455000	      8544	80006678	00000013	addi	x0,x0,0	  x0:0x00000000
       85465000	      8545	8000667c	00000013	addi	x0,x0,0	  x0:0x00000000
       85475000	      8546	80006680	fe488893	addi	x17,x17,-28	 x17:0x80009f60 x17=0x80009f44
       85485000	      8547	80006684	0018a223	sw	x1,4(x17)	 x17:0x80009f44  x1:0x80005f98 PA:0x80009f48
       85495000	      8548	80006688	00803833	sltu	x16,x0,x8	  x0:0x00000000  x8:0x000003a4 x16=0x00000001
       85505000	      8549	8000668c	f953a913	slti	x18,x7,-107	  x7:0xfffffce7 x18=0x00000001
       85515000	      8550	80006690	01f4fa63	bgeu	x9,x31,800066a4	  x9:0x00000001 x31:0xf3bb5b94
       85525000	      8551	80006694	00099533	sll	x10,x19,x0	 x19:0x000003d2  x0:0x00000000 x10=0x000003d2
       85535000	      8552	80006698	41828033	sub	x0,x5,x24	  x5:0x00000000 x24:0xfffffc5c
       85545000	      8553	8000669c	00000013	addi	x0,x0,0	  x0:0x00000000
       85555000	      8554	800066a0	40aa5613	srai	x12,x20,0xa	 x20:0xf3bb5ffc x12=0xfffceed7
       85565000	      8555	800066a4	01fac463	blt	x21,x31,800066ac	 x21:0x00000001 x31:0xf3bb5b94
       85575000	      8556	800066a8	01589b93	slli	x23,x17,0x15	 x17:0x80009f44 x23=0xe8800000
       85585000	      8557	800066ac	00120f33	add	x30,x4,x1	  x4:0x410d6086  x1:0x80005f98 x30=0xc10dc01e
       85595000	      8558	800066b0	00f15033	srl	x0,x2,x15	  x2:0x0000006e x15:0x80009fc4
       85605000	      8559	800066b4	020cd263	bge	x25,x0,800066d8	 x25:0x1f6c9000  x0:0x00000000
       85615000	      8560	00000000	00000013	addi	x0,x0,0	  x0:0x00000000
       85625000	      8561	800066d4	00000013	addi	x0,x0,0	  x0:0x00000000
       85635000	      8562	800066d8	b67f3413	sltiu	x8,x30,-1177	 x30:0xc10dc01e  x8=0x00000001
       85645000	      8563	800066dc	009c5663	bge	x24,x9,800066e8	 x24:0xfffffc5c  x9:0x00000001
       85655000	      8564	800066e0	2718c693	xori	x13,x17,625	 x17:0x80009f44 x13=0x80009d35
       85665000	      8565	800066e4	6e22e713	ori	x14,x5,1762	  x5:0x00000000 x14=0x000006e2
       85675000	      8566	800066e8	40e9d533	sra	x10,x19,x14	 x19:0x000003d2 x14:0x000006e2 x10=0x000000f4
       85685000	      8567	800066ec	96260913	addi	x18,x12,-1694	 x12:0xfffceed7 x18=0xfffce839
       85695000	      8568	800066f0	0048a083	lw	x1,4(x17)	 x17:0x80009f44  x1=0x80005f98 PA:0x80009f48
       85705000	      8569	800066f4	a5630e13	addi	x28,x6,-1450	  x6:0xffffffff x28=0xfffffa55
       85715000	      8570	800066f8	dfe70513	addi	x10,x14,-514	 x14:0x000006e2 x10=0x000004e0
       85725000	      8571	800066fc	9caaa413	slti	x8,x21,-1590	 x21:0x00000001  x8=0x00000000
       85735000	      8572	80006700	01c88893	addi	x17,x17,28	 x17:0x80009f44 x17=0x80009f60
       85745000	      8573	80006704	1a9fa413	slti	x8,x31,425	 x31:0xf3bb5b94  x8=0x00000001
       85755000	      8574	80006708	011046b3	xor	x13,x0,x17	  x0:0x00000000 x17:0x80009f60 x13=0x80009f60
       85765000	      8575	8000670c	00108813	addi	x16,x1,1	  x1:0x80005f98 x16=0x80005f99
       85775000	      8576	80006710	00080867	jalr	x16,x16,0	 x16:0x80005f99 x16=0x80006710
       85785000	      8577	00000000	00000013	addi	x0,x0,0	  x0:0x00000000
       85795000	      8578	80005f98	00000013	addi	x0,x0,0	  x0:0x00000000
       85805000	      8579	80005f9c	f4667013	andi	x0,x12,-186	 x12:0xfffceed7
       85815000	      8580	80005fa0	419cd693	srai	x13,x25,0x19	 x25:0x1f6c9000 x13=0x0000000f
       85825000	      8581	80005fa4	3887fa93	andi	x21,x15,904	 x15:0x80009fc4 x21=0x00000380
       85835000	      8582	80005fa8	01a8d633	srl	x12,x17,x26	 x17:0x80009f60 x26:0x00000004 x12=0x080009f6
       85845000	      8583	80005fac	00000013	addi	x0,x0,0	  x0:0x00000000
       85855000	      8584	80005fb0	00aa9993	slli	x19,x21,0xa	 x21:0x00000380 x19=0x000e0000
       85865000	      8585	80005fb4	00071e13	slli	x28,x14,0x0	 x14:0x000006e2 x28=0x000006e2
       85875000	      8586	80005fb8	011b3b33	sltu	x22,x22,x17	 x22:0x00000000 x17:0x80009f60 x22=0x00000001
       85885000	      8587	80005fbc	00000013	addi	x0,x0,0	  x0:0x00000000
       85895000	      8588	80005fc0	0266e663	bltu	x13,x6,80005fec	 x13:0x0000000f  x6:0xffffffff
       85905000	      8589	00000000	00000013	addi	x0,x0,0	  x0:0x00000000
       85915000	      8590	80005fe8	00000013	addi	x0,x0,0	  x0:0x00000000
       85925000	      8591	80005fec	e2c5c813	xori	x16,x11,-468	 x11:0x00000000 x16=0xfffffe2c
       85935000	      8592	80005ff0	00000013	addi	x0,x0,0	  x0:0x00000000
       85945000	      8593	80005ff4	341fe337	lui	x6,0x341fe	  x6=0x341fe000
       85955000	      8594	80005ff8	a218af93	slti	x31,x17,-1503	 x17:0x80009f60 x31=0x00000001
       85965000	      8595	80005ffc	40e482b3	sub	x5,x9,x14	  x9:0x00000001 x14:0x000006e2  x5=0xfffff91f
       85975000	      8596	80006000	00575db3	srl	x27,x14,x5	 x14:0x000006e2  x5:0xfffff91f x27=0x00000000
       85985000	      8597	80006004	00000013	addi	x0,x0,0	  x0:0x00000000
       85995000	      8598	80006008	005cd263	bge	x25,x5,8000600c	 x25:0x1f6c9000  x5:0xfffff91f
       86005000	      8599	00000000	00000013	addi	x0,x0,0	  x0:0x00000000
       86015000	      8600	80006008	00000013	addi	x0,x0,0	  x0:0x00000000
       86025000	      8601	8000600c	c3483197	auipc	x3,0xc3483	  x3=0x43489008
       86035000	      8602	80006010	00888c63	beq	x17,x8,80006028	 x17:0x80009f60  x8:0x00000001
       86045000	      8603	80006014	00ebb133	sltu	x2,x23,x14	 x23:0xe8800000 x14:0x000006e2  x2=0x00000000
       86055000	      8604	80006018	007b5eb3	srl	x29,x22,x7	 x22:0x00000001  x7:0xfffffce7 x29=0x00000000
       86065000	      8605	8000601c	edb27e93	andi	x29,x4,-293	  x4:0x410d6086 x29=0x410d6082
       86075000	      8606	80006020	0218fe63	bgeu	x17,x1,8000605c	 x17:0x80009f60  x1:0x80005f98
       86085000	      8607	00000000	00000013	addi	x0,x0,0	  x0:0x00000000
       86095000	      8608	80006058	00000013	addi	x0,x0,0	  x0:0x00000000
       86105000	      8609	8000605c	990c3213	sltiu	x4,x24,-1648	 x24:0xfffffc5c  x4=0x00000000
       86115000	      8610	80006060	41aa5393	srai	x7,x20,0x1a	 x20:0xf3bb5ffc  x7=0xfffffffc
       86125000	      8611	80006064	fb8dc113	xori	x2,x27,-72	 x27:0x00000000  x2=0xffffffb8
       86135000	      8612	80006068	983f0393	addi	x7,x30,-1661	 x30:0xc10dc01e  x7=0xc10db9a1
       86145000	      8613	8000606c	00000013	addi	x0,x0,0	  x0:0x00000000
       86155000	      8614	80006070	00a629b3	slt	x19,x12,x10	 x12:0x080009f6 x10:0x000004e0 x19=0x00000000
       86165000	      8615	80006074	00000013	addi	x0,x0,0	  x0:0x00000000
       86175000	      8616	80006078	0010c863	blt	x1,x1,80006088	  x1:0x80005f98  x1:0x80005f98
       86185000	      8617	8000607c	00000013	addi	x0,x0,0	  x0:0x00000000
       86195000	      8618	80006080	01161ab3	sll	x21,x12,x17	 x12:0x080009f6 x17:0x80009f60 x21=0x080009f6
       86205000	      8619	80006084	cac96293	ori	x5,x18,-852	 x18:0xfffce839  x5=0xfffffcbd
       86215000	      8620	80006088	400000ef	jal	x1,80006088	  x1=0x80006088
       86225000	      8621	00000000	00000013	addi	x0,x0,0	  x0:0x00000000
       86235000	      8622	80006484	00000013	addi	x0,x0,0	  x0:0x00000000
       86245000	      8623	80006488	005c8a63	beq	x25,x5,8000649c	 x25:0x1f6c9000  x5:0xfffffcbd
       86255000	      8624	8000648c	009eeab3	or	x21,x29,x9	 x29:0x410d6082  x9:0x00000001 x21=0x410d6083
       86265000	      8625	80006490	f1997397	auipc	x7,0xf1997	  x7=0x7199d48c
       86275000	      8626	80006494	411a5813	srai	x16,x20,0x11	 x20:0xf3bb5ffc x16=0xfffff9dd
       86285000	      8627	80006498	16846513	ori	x10,x8,360	  x8:0x00000001 x10=0x00000169
       86295000	      8628	8000649c	fdc88893	addi	x17,x17,-36	 x17:0x80009f60 x17=0x80009f3c
       86305000	      8629	800064a0	0018a223	sw	x1,4(x17)	 x17:0x80009f3c  x1:0x80006088 PA:0x80009f40
       86315000	      8630	800064a4	00ddc9b3	xor	x19,x27,x13	 x27:0x00000000 x13:0x0000000f x19=0x0000000f
       86325000	      8631	800064a8	0084d713	srli	x14,x9,0x8	  x9:0x00000001 x14=0x00000000
       86335000	      8632	800064ac	01b1b5b3	sltu	x11,x3,x27	  x3:0x43489008 x27:0x00000000 x11=0x00000000
       86345000	      8633	800064b0	050e8063	beq	x29,x16,800064f0	 x29:0x410d6082 x16:0xfffff9dd
       86355000	      8634	800064b4	401a0eb3	sub	x29,x20,x1	 x20:0xf3bb5ffc  x1:0x80006088 x29=0x73baff74
       86365000	      8635	800064b8	000d05b3	add	x11,x26,x0	 x26:0x00000004  x0:0x00000000 x11=0x00000004
       86375000	      8636	800064bc	0072c1b3	xor	x3,x5,x7	  x5:0xfffffcbd  x7:0x7199d48c  x3=0x8e662831
       86385000	      8637	800064c0	017294b3	sll	x9,x5,x23	  x5:0xfffffcbd x23:0xe8800000  x9=0xfffffcbd
       86395000	      8638	800064c4	00f75e63	bge	x14,x15,800064e0	 x14:0x00000000 x15:0x80009fc4
       86405000	      8639	00000000	00000013	addi	x0,x0,0	  x0:0x00000000
       86415000	      8640	800064dc	00000013	addi	x0,x0,0	  x0:0x00000000
       86425000	      8641	800064e0	e37b3f93	sltiu	x31,x22,-457	 x22:0x00000001 x31=0x00000001
       86435000	      8642	800064e4	00000013	addi	x0,x0,0	  x0:0x00000000
       86445000	      8643	800064e8	01513533	sltu	x10,x2,x21	  x2:0xffffffb8 x21:0x410d6083 x10=0x00000000
       86455000	      8644	800064ec	0121ce63	blt	x3,x18,80006508	  x3:0x8e662831 x18:0xfffce839
       86465000	      8645	00000000	00000013	addi	x0,x0,0	  x0:0x00000000
       86475000	      8646	80006504	00000013	addi	x0,x0,0	  x0:0x00000000
       86485000	      8647	80006508	8ffbaa13	slti	x20,x23,-1793	 x23:0xe8800000 x20=0x00000001
       86495000	      8648	8000650c	00943533	sltu	x10,x8,x9	  x8:0x00000001  x9:0xfffffcbd x10=0x00000001
       86505000	      8649	80006510	01e95613	srli	x12,x18,0x1e	 x18:0xfffce839 x12=0x00000003
       86515000	      8650	80006514	00000013	addi	x0,x0,0	  x0:0x00000000
       86525000	      8651	80006518	02e9c063	blt	x19,x14,80006538	 x19:0x0000000f x14:0x00000000
       86535000	      8652	8000651c	419cd593	srai	x11,x25,0x19	 x25:0x1f6c9000 x11=0x0000000f
       86545000	      8653	80006520	01521033	sll	x0,x4,x21	  x4:0x00000000 x21:0x410d6083
       86555000	      8654	80006524	40bc0e33	sub	x28,x24,x11	 x24:0xfffffc5c x11:0x0000000f x28=0xfffffc4d
       86565000	      8655	80006528	00105333	srl	x6,x0,x1	  x0:0x00000000  x1:0x80006088  x6=0x00000000
       86575000	      8656	8000652c	402dd0b3	sra	x1,x27,x2	 x27:0x00000000  x2:0xffffffb8  x1=0x00000000
       86585000	      8657	80006530	01e50b33	add	x22,x10,x30	 x10:0x00000001 x30:0xc10dc01e x22=0xc10dc01f
       86595000	      8658	80006534	404d8033	sub	x0,x27,x4	 x27:0x00000000  x4:0x00000000
       86605000	      8659	80006538	01432133	slt	x2,x6,x20	  x6:0x00000000 x20:0x00000001  x2=0x00000001
       86615000	      8660	8000653c	41fad413	srai	x8,x21,0x1f	 x21:0x410d6083  x8=0x00000000
       86625000	      8661	80006540	01753033	sltu	x0,x10,x23	 x10:0x00000001 x23:0xe8800000
       86635000	      8662	80006544	01f09033	sll	x0,x1,x31	  x1:0x00000000 x31:0x00000001
       86645000	      8663	80006548	0048a083	lw	x1,4(x17)	 x17:0x80009f3c  x1=0x80006088 PA:0x80009f40
       86655000	      8664	8000654c	01667333	and	x6,x12,x22	 x12:0x00000003 x22:0xc10dc01f  x6=0x00000003
       86665000	      8665	80006550	01fca933	slt	x18,x25,x31	 x25:0x1f6c9000 x31:0x00000001 x18=0x00000000
       86675000	      8666	80006554	02488893	addi	x17,x17,36	 x17:0x80009f3c x17=0x80009f60
       86685000	      8667	80006558	67c16293	ori	x5,x2,1660	  x2:0x00000001  x5=0x0000067d
       86695000	      8668	8000655c	412f5593	srai	x11,x30,0x12	 x30:0xc10dc01e x11=0xfffff043
       86705000	      8669	80006560	00008b13	addi	x22,x1,0	  x1:0x80006088 x22=0x80006088
       86715000	      8670	80006564	000b0b67	jalr	x22,x22,0	 x22:0x80006088 x22=0x80006564
       86725000	      8671	00000000	00000013	addi	x0,x0,0	  x0:0x00000000
       86735000	      8672	80006088	00000013	addi	x0,x0,0	  x0:0x00000000
       86745000	      8673	8000608c	007dd4b3	srl	x9,x27,x7	 x27:0x00000000  x7:0x7199d48c  x9=0x00000000
       86755000	      8674	80006090	097be063	bltu	x23,x23,80006110	 x23:0xe8800000 x23:0xe8800000
       86765000	      8675	80006094	017b43b3	xor	x7,x22,x23	 x22:0x80006564 x23:0xe8800000  x7=0x68806564
       86775000	      8676	80006098	a89b3393	sltiu	x7,x22,-1399	 x22:0x80006564  x7=0x00000001
       86785000	      8677	8000609c	061b5663	bge	x22,x1,80006108	 x22:0x80006564  x1:0x80006088
       86795000	      8678	00000000	00000013	addi	x0,x0,0	  x0:0x00000000
       86805000	      8679	80006104	00000013	addi	x0,x0,0	  x0:0x00000000
       86815000	      8680	80006108	01365693	srli	x13,x12,0x13	 x12:0x00000003 x13=0x00000000
       86825000	      8681	8000610c	01f6e0b3	or	x1,x13,x31	 x13:0x00000000 x31:0x00000001  x1=0x00000001
       86835000	      8682	80006110	019bdb33	srl	x22,x23,x25	 x23:0xe8800000 x25:0x1f6c9000 x22=0xe8800000
       86845000	      8683	80006114	02938c63	beq	x7,x9,8000614c	  x7:0x00000001  x9:0x00000000
       86855000	      8684	80006118	019d46b3	xor	x13,x26,x25	 x26:0x00000004 x25:0x1f6c9000 x13=0x1f6c9004
       86865000	      8685	8000611c	01b6f663	bgeu	x13,x27,80006128	 x13:0x1f6c9004 x27:0x00000000
       86875000	      8686	00000000	00000013	addi	x0,x0,0	  x0:0x00000000
       86885000	      8687	80006124	00000013	addi	x0,x0,0	  x0:0x00000000
       86895000	      8688	80006128	003442b3	xor	x5,x8,x3	  x8:0x00000000  x3:0x8e662831  x5=0x8e662831
       86905000	      8689	8000612c	00764263	blt	x12,x7,80006130	 x12:0x00000003  x7:0x00000001
       86915000	      8690	80006130	fa47a593	slti	x11,x15,-92	 x15:0x80009fc4 x11=0x00000001
       86925000	      8691	80006134	004cd733	srl	x14,x25,x4	 x25:0x1f6c9000  x4:0x00000000 x14=0x1f6c9000
       86935000	      8692	80006138	990b0a13	addi	x20,x22,-1648	 x22:0xe8800000 x20=0xe87ff990
       86945000	      8693	8000613c	46ea2693	slti	x13,x20,1134	 x20:0xe87ff990 x13=0x00000001
       86955000	      8694	80006140	1afce913	ori	x18,x25,431	 x25:0x1f6c9000 x18=0x1f6c91af
       86965000	      8695	80006144	01f52633	slt	x12,x10,x31	 x10:0x00000001 x31:0x00000001 x12=0x00000000
       86975000	      8696	80006148	01b20f33	add	x30,x4,x27	  x4:0x00000000 x27:0x00000000 x30=0x00000000
       86985000	      8697	8000614c	8140ff17	auipc	x30,0x8140f	 x30=0x01415148
       86995000	      8698	80006150	04d06663	bltu	x0,x13,8000619c	  x0:0x00000000 x13:0x00000001
       87005000	      8699	00000000	00000013	addi	x0,x0,0	  x0:0x00000000
       87015000	      8700	80006198	00000013	addi	x0,x0,0	  x0:0x00000000
       87025000	      8701	8000619c	32ca79b7	lui	x19,0x32ca7	 x19=0x32ca7000
       87035000	      8702	800061a0	0013d263	bge	x7,x1,800061a4	  x7:0x00000001  x1:0x00000001
       87045000	      8703	00000000	00000013	addi	x0,x0,0	  x0:0x00000000
       87055000	      8704	800061a0	00000013	addi	x0,x0,0	  x0:0x00000000
       87065000	      8705	800061a4	41fd0833	sub	x16,x26,x31	 x26:0x00000004 x31:0x00000001 x16=0x00000003
       87075000	      8706	800061a8	00000013	addi	x0,x0,0	  x0:0x00000000
       87085000	      8707	800061ac	b44abb13	sltiu	x22,x21,-1212	 x21:0x410d6083 x22=0x00000001
       87095000	      8708	800061b0	40d30833	sub	x16,x6,x13	  x6:0x00000003 x13:0x00000001 x16=0x00000002
       87105000	      8709	800061b4	0094d2b3	srl	x5,x9,x9	  x9:0x00000000  x9:0x00000000  x5=0x00000000
       87115000	      8710	800061b8	40a00eb3	sub	x29,x0,x10	  x0:0x00000000 x10:0x00000001 x29=0xffffffff
       87125000	      8711	800061bc	0176d9b3	srl	x19,x13,x23	 x13:0x00000001 x23:0xe8800000 x19=0x00000001
       87135000	      8712	800061c0	00802633	slt	x12,x0,x8	  x0:0x00000000  x8:0x00000000 x12=0x00000000
       87145000	      8713	800061c4	465a6e37	lui	x28,0x465a6	 x28=0x465a6000
       87155000	      8714	800061c8	029b4463	blt	x22,x9,800061f0	 x22:0x00000001  x9:0x00000000
       87165000	      8715	800061cc	0029bc33	sltu	x24,x19,x2	 x19:0x00000001  x2:0x00000001 x24=0x00000000
       87175000	      8716	800061d0	40fbdc93	srai	x25,x23,0xf	 x23:0xe8800000 x25=0xffffd100
       87185000	      8717	800061d4	03807a63	bgeu	x0,x24,80006208	  x0:0x00000000 x24:0x00000000
       87195000	      8718	00000000	00000013	addi	x0,x0,0	  x0:0x00000000
       87205000	      8719	80006204	00000013	addi	x0,x0,0	  x0:0x00000000
       87215000	      8720	80006208	0372cc63	blt	x5,x23,80006240	  x5:0x00000000 x23:0xe8800000
       87225000	      8721	8000620c	9f16cc93	xori	x25,x13,-1551	 x13:0x00000001 x25=0xfffff9f0
       87235000	      8722	80006210	58ef8c13	addi	x24,x31,1422	 x31:0x00000001 x24=0x0000058f
       87245000	      8723	80006214	00758a33	add	x20,x11,x7	 x11:0x00000001  x7:0x00000001 x20=0x00000002
       87255000	      8724	80006218	00735db3	srl	x27,x6,x7	  x6:0x00000003  x7:0x00000001 x27=0x00000001
       87265000	      8725	8000621c	01fef4b3	and	x9,x29,x31	 x29:0xffffffff x31:0x00000001  x9=0x00000001
       87275000	      8726	80006220	016ffc33	and	x24,x31,x22	 x31:0x00000001 x22:0x00000001 x24=0x00000001
       87285000	      8727	80006224	008a1663	bne	x20,x8,80006230	 x20:0x00000002  x8:0x00000000
       87295000	      8728	00000000	00000013	addi	x0,x0,0	  x0:0x00000000
       87305000	      8729	8000622c	00000013	addi	x0,x0,0	  x0:0x00000000
       87315000	      8730	80006230	02b41c63	bne	x8,x11,80006268	  x8:0x00000000 x11:0x00000001
       87325000	      8731	00000000	00000013	addi	x0,x0,0	  x0:0x00000000
       87335000	      8732	80006264	00000013	addi	x0,x0,0	  x0:0x00000000
       87345000	      8733	80006268	417a0eb3	sub	x29,x20,x23	 x20:0x00000002 x23:0xe8800000 x29=0x17800002
       87355000	      8734	8000626c	017cee63	bltu	x25,x23,80006288	 x25:0xfffff9f0 x23:0xe8800000
       87365000	      8735	80006270	001efc63	bgeu	x29,x1,80006288	 x29:0x17800002  x1:0x00000001
       87375000	      8736	00000000	00000013	addi	x0,x0,0	  x0:0x00000000
       87385000	      8737	80006284	00000013	addi	x0,x0,0	  x0:0x00000000
       87395000	      8738	80006288	7edc8f13	addi	x30,x25,2029	 x25:0xfffff9f0 x30=0x000001dd
       87405000	      8739	8000628c	01f7f2b3	and	x5,x15,x31	 x15:0x80009fc4 x31:0x00000001  x5=0x00000000
       87415000	      8740	80006290	71164413	xori	x8,x12,1809	 x12:0x00000000  x8=0x00000711
       87425000	      8741	80006294	088e1997	auipc	x19,0x88e1	 x19=0x888e7290
       87435000	      8742	80006298	683eec13	ori	x24,x29,1667	 x29:0x17800002 x24=0x17800683
       87445000	      8743	8000629c	00f0d533	srl	x10,x1,x15	  x1:0x00000001 x15:0x80009fc4 x10=0x00000000
       87455000	      8744	800062a0	00405513	srli	x10,x0,0x4	  x0:0x00000000 x10=0x00000000
       87465000	      8745	800062a4	0009d113	srli	x2,x19,0x0	 x19:0x888e7290  x2=0x888e7290
       87475000	      8746	800062a8	01cc3733	sltu	x14,x24,x28	 x24:0x17800683 x28:0x465a6000 x14=0x00000001
       87485000	      8747	800062ac	001df663	bgeu	x27,x1,800062b8	 x27:0x00000001  x1:0x00000001
       87495000	      8748	00000000	00000013	addi	x0,x0,0	  x0:0x00000000
       87505000	      8749	800062b4	00000013	addi	x0,x0,0	  x0:0x00000000
       87515000	      8750	800062b8	69624513	xori	x10,x4,1686	  x4:0x00000000 x10=0x00000696
       87525000	      8751	800062bc	00985713	srli	x14,x16,0x9	 x16:0x00000002 x14=0x00000000
       87535000	      8752	800062c0	e105ee13	ori	x28,x11,-496	 x11:0x00000001 x28=0xfffffe11
       87545000	      8753	800062c4	41b7deb3	sra	x29,x15,x27	 x15:0x80009fc4 x27:0x00000001 x29=0xc0004fe2
       87555000	      8754	800062c8	e014a517	auipc	x10,0xe014a	 x10=0x601502c4
       87565000	      8755	800062cc	137d6b13	ori	x22,x26,311	 x26:0x00000004 x22=0x00000137
       87575000	      8756	800062d0	02090463	beq	x18,x0,800062f8	 x18:0x1f6c91af  x0:0x00000000
       87585000	      8757	800062d4	419a5013	srai	x0,x20,0x19	 x20:0x00000002
       87595000	      8758	800062d8	c8628e13	addi	x28,x5,-890	  x5:0x00000000 x28=0xfffffc86
       87605000	      8759	800062dc	009fe033	or	x0,x31,x9	 x31:0x00000001  x9:0x00000001
       87615000	      8760	800062e0	05fb7063	bgeu	x22,x31,80006320	 x22:0x00000137 x31:0x00000001
       87625000	      8761	00000000	00000013	addi	x0,x0,0	  x0:0x00000000
       87635000	      8762	8000631c	00000013	addi	x0,x0,0	  x0:0x00000000
       87645000	      8763	80006320	001b5913	srli	x18,x22,0x1	 x22:0x00000137 x18=0x0000009b
       87655000	      8764	80006324	0088ec63	bltu	x17,x8,8000633c	 x17:0x80009f60  x8:0x00000711
       87665000	      8765	80006328	40d65033	sra	x0,x12,x13	 x12:0x00000000 x13:0x00000001
       87675000	      8766	8000632c	b56af613	andi	x12,x21,-1194	 x21:0x410d6083 x12=0x410d6002
       87685000	      8767	80006330	01160333	add	x6,x12,x17	 x12:0x410d6002 x17:0x80009f60  x6=0xc10dff62
       87695000	      8768	80006334	415f01b3	sub	x3,x30,x21	 x30:0x000001dd x21:0x410d6083  x3=0xbef2a15a
       87705000	      8769	80006338	015e2f33	slt	x30,x28,x21	 x28:0xfffffc86 x21:0x410d6083 x30=0x00000001
       87715000	      8770	8000633c	00a36133	or	x2,x6,x10	  x6:0xc10dff62 x10:0x601502c4  x2=0xe11dffe6
       87725000	      8771	80006340	40080133	sub	x2,x16,x0	 x16:0x00000002  x0:0x00000000  x2=0x00000002
       87735000	      8772	80006344	40445013	srai	x0,x8,0x4	  x8:0x00000711
       87745000	      8773	80006348	41f7df33	sra	x30,x15,x31	 x15:0x80009fc4 x31:0x00000001 x30=0xc0004fe2
       87755000	      8774	8000634c	1c8ee637	lui	x12,0x1c8ee	 x12=0x1c8ee000
       87765000	      8775	80006350	01e31533	sll	x10,x6,x30	  x6:0xc10dff62 x30:0xc0004fe2 x10=0x0437fd88
       87775000	      8776	80006354	00b62db3	slt	x27,x12,x11	 x12:0x1c8ee000 x11:0x00000001 x27=0x00000000
       87785000	      8777	80006358	02af0063	beq	x30,x10,80006378	 x30:0xc0004fe2 x10:0x0437fd88
       87795000	      8778	8000635c	dfaf7393	andi	x7,x30,-518	 x30:0xc0004fe2  x7=0xc0004de2
       87805000	      8779	80006360	40dd5c13	srai	x24,x26,0xd	 x26:0x00000004 x24=0x00000000
       87815000	      8780	80006364	032af663	bgeu	x21,x18,80006390	 x21:0x410d6083 x18:0x0000009b
       87825000	      8781	00000000	00000013	addi	x0,x0,0	  x0:0x00000000
       87835000	      8782	8000638c	00000013	addi	x0,x0,0	  x0:0x00000000
       87845000	      8783	80006390	06d2cf13	xori	x30,x5,109	  x5:0x00000000 x30=0x0000006d
       87855000	      8784	80006394	007cac33	slt	x24,x25,x7	 x25:0xfffff9f0  x7:0xc0004de2 x24=0x00000000
       87865000	      8785	80006398	eb02ec93	ori	x25,x5,-336	  x5:0x00000000 x25=0xfffffeb0
       87875000	      8786	8000639c	015cb833	sltu	x16,x25,x21	 x25:0xfffffeb0 x21:0x410d6083 x16=0x00000000
       87885000	      8787	800063a0	cc016317	auipc	x6,0xcc016	  x6=0x4c01c39c
       87895000	      8788	800063a4	41688e33	sub	x28,x17,x22	 x17:0x80009f60 x22:0x00000137 x28=0x80009e29
       87905000	      8789	800063a8	00000013	addi	x0,x0,0	  x0:0x00000000
       87915000	      8790	800063ac	f7cb7b93	andi	x23,x22,-132	 x22:0x00000137 x23=0x00000134
       87925000	      8791	800063b0	01ecd733	srl	x14,x25,x30	 x25:0xfffffeb0 x30:0x0000006d x14=0x0007ffff
       87935000	      8792	800063b4	01f11813	slli	x16,x2,0x1f	  x2:0x00000002 x16=0x00000000
       87945000	      8793	800063b8	016e0633	add	x12,x28,x22	 x28:0x80009e29 x22:0x00000137 x12=0x80009f60
       87955000	      8794	800063bc	0048a083	lw	x1,4(x17)	 x17:0x80009f60  x1=0x80000208 PA:0x80009f64
       87965000	      8795	00000000	00000013	addi	x0,x0,0	  x0:0x00000000
       87975000	      8796	800063c0	39d0bc13	sltiu	x24,x1,925	  x1:0x80000208 x24=0x00000000
       87985000	      8797	800063c4	02488893	addi	x17,x17,36	 x17:0x80009f60 x17=0x80009f84
       87995000	      8798	800063c8	2573b213	sltiu	x4,x7,599	  x7:0xc0004de2  x4=0x00000000
       88005000	      8799	800063cc	d32aff93	andi	x31,x21,-718	 x21:0x410d6083 x31=0x410d6002
       88015000	      8800	800063d0	00008a93	addi	x21,x1,0	  x1:0x80000208 x21=0x80000208
       88025000	      8801	800063d4	000a8ae7	jalr	x21,x21,0	 x21:0x80000208 x21=0x800063d4
       88035000	      8802	00000000	00000013	addi	x0,x0,0	  x0:0x00000000
       88045000	      8803	80000208	00000013	addi	x0,x0,0	  x0:0x00000000
       88055000	      8804	8000020c	01aad3b3	srl	x7,x21,x26	 x21:0x800063d4 x26:0x00000004  x7=0x0800063d
       88065000	      8805	80000210	01416e63	bltu	x2,x20,8000022c	  x2:0x00000002 x20:0x00000002
       88075000	      8806	80000214	01c31463	bne	x6,x28,8000021c	  x6:0x4c01c39c x28:0x80009e29
       88085000	      8807	00000000	00000013	addi	x0,x0,0	  x0:0x00000000
       88095000	      8808	80000218	00000013	addi	x0,x0,0	  x0:0x00000000
       88105000	      8809	8000021c	8510d497	auipc	x9,0x8510d	  x9=0x0510d218
       88115000	      8810	80000220	01ff0663	beq	x30,x31,8000022c	 x30:0x0000006d x31:0x410d6002
       88125000	      8811	80000224	3b9f0e93	addi	x29,x30,953	 x30:0x0000006d x29=0x00000426
       88135000	      8812	80000228	0158e263	bltu	x17,x21,8000022c	 x17:0x80009f84 x21:0x800063d4
       88145000	      8813	8000022c	41e48db3	sub	x27,x9,x30	  x9:0x0510d218 x30:0x0000006d x27=0x0510d1ab
       88155000	      8814	80000230	00000d17	auipc	x26,0x0	 x26=0x8000022c
       88165000	      8815	80000234	00cd0d13	addi	x26,x26,12	 x26:0x8000022c x26=0x80000238
       88175000	      8816	80000238	000d0067	jalr	x0,x26,0	 x26:0x80000238
       88185000	      8817	00000000	00000013	addi	x0,x0,0	  x0:0x00000000
       88195000	      8818	80000238	00000013	addi	x0,x0,0	  x0:0x00000000
       88205000	      8819	8000023c	00100193	addi	x3,x0,1	  x0:0x00000000  x3=0x00000001
       88215000	      8820	80000240	00000073	ecall	
       88225000	      8821	80000244	fcc88893	addi	x17,x17,-52	 x17:0x80009f84 x17=0x80009f50
