		Time			Cycle	PC		Insn	Decoded instruction	Register and memory contents
          65000	         5	80000004	00000293	addi	x5,x0,0	  x0:0x00000000  x5=0x00000000
          75000	         6	80000008	00000313	addi	x6,x0,0	  x0:0x00000000  x6=0x00000000
          85000	         7	8000000c	00628263	beq	x5,x6,80000010	  x5:0x00000000  x6:0x00000000
          95000	         8	00000000	00000013	addi	x0,x0,0	  x0:0x00000000
         105000	         9	8000000c	00000013	addi	x0,x0,0	  x0:0x00000000
         115000	        10	80000010	00000717	auipc	x14,0x0	 x14=0x8000000c
         125000	        11	80000014	00c70713	addi	x14,x14,12	 x14:0x8000000c x14=0x80000018
         135000	        12	80000018	00070067	jalr	x0,x14,0	 x14:0x80000018
         145000	        13	00000000	00000013	addi	x0,x0,0	  x0:0x00000000
         155000	        14	80000018	00000013	addi	x0,x0,0	  x0:0x00000000
         165000	        15	8000001c	40000cb7	lui	x25,0x40000	 x25=0x40000000
         175000	        16	80000020	100c8c93	addi	x25,x25,256	 x25:0x40000000 x25=0x40000100
         185000	        17	80000024	00000013	addi	x0,x0,0	  x0:0x00000000
         195000	        18	80000028	0000af97	auipc	x31,0xa	 x31=0x8000a024
         205000	        19	8000002c	fa0f8f93	addi	x31,x31,-96	 x31:0x8000a024 x31=0x80009fc4
         215000	        20	80000030	00007c97	auipc	x25,0x7	 x25=0x8000702c
         225000	        21	80000034	594c8c93	addi	x25,x25,1428	 x25:0x8000702c x25=0x800075c0
         235000	        22	80000038	001cec93	ori	x25,x25,1	 x25:0x800075c0 x25=0x800075c1
         245000	        23	8000003c	00000013	addi	x0,x0,0	  x0:0x00000000
         255000	        24	80000040	00000c97	auipc	x25,0x0	 x25=0x8000003c
         265000	        25	80000044	020c8c93	addi	x25,x25,32	 x25:0x8000003c x25=0x8000005c
         275000	        26	80000048	00000013	addi	x0,x0,0	  x0:0x00000000
         285000	        27	8000004c	00000013	addi	x0,x0,0	  x0:0x00000000
         295000	        28	80000050	00002cb7	lui	x25,0x2	 x25=0x00002000
         305000	        29	80000054	800c8c93	addi	x25,x25,-2048	 x25:0x00002000 x25=0x00001800
         315000	        30	80000058	00000013	addi	x0,x0,0	  x0:0x00000000
         325000	        31	8000005c	00000013	addi	x0,x0,0	  x0:0x00000000
         335000	        32	80000060	f1f6e037	lui	x0,0xf1f6e	
         345000	        33	80000064	6b400013	addi	x0,x0,1716	  x0:0x00000000
         355000	        34	80000068	00000093	addi	x1,x0,0	  x0:0x00000000  x1=0x00000000
         365000	        35	8000006c	fdfdd137	lui	x2,0xfdfdd	  x2=0xfdfdd000
         375000	        36	80000070	d0710113	addi	x2,x2,-761	  x2:0xfdfdd000  x2=0xfdfdcd07
         385000	        37	80000074	0a8041b7	lui	x3,0xa804	  x3=0x0a804000
         395000	        38	80000078	fda18193	addi	x3,x3,-38	  x3:0x0a804000  x3=0x0a803fda
         405000	        39	8000007c	00000213	addi	x4,x0,0	  x0:0x00000000  x4=0x00000000
         415000	        40	80000080	427db2b7	lui	x5,0x427db	  x5=0x427db000
         425000	        41	80000084	fc028293	addi	x5,x5,-64	  x5:0x427db000  x5=0x427dafc0
         435000	        42	80000088	80000337	lui	x6,0x80000	  x6=0x80000000
         445000	        43	8000008c	fdcf13b7	lui	x7,0xfdcf1	  x7=0xfdcf1000
         455000	        44	80000090	d2d38393	addi	x7,x7,-723	  x7:0xfdcf1000  x7=0xfdcf0d2d
         465000	        45	80000094	80000437	lui	x8,0x80000	  x8=0x80000000
         475000	        46	80000098	00000493	addi	x9,x0,0	  x0:0x00000000  x9=0x00000000
         485000	        47	8000009c	f746e537	lui	x10,0xf746e	 x10=0xf746e000
         495000	        48	800000a0	63150513	addi	x10,x10,1585	 x10:0xf746e000 x10=0xf746e631
         505000	        49	800000a4	00400593	addi	x11,x0,4	  x0:0x00000000 x11=0x00000004
         515000	        50	800000a8	00000613	addi	x12,x0,0	  x0:0x00000000 x12=0x00000000
         525000	        51	800000ac	299186b7	lui	x13,0x29918	 x13=0x29918000
         535000	        52	800000b0	f4768693	addi	x13,x13,-185	 x13:0x29918000 x13=0x29917f47
         545000	        53	800000b4	00000713	addi	x14,x0,0	  x0:0x00000000 x14=0x00000000
         555000	        54	800000b8	800007b7	lui	x15,0x80000	 x15=0x80000000
         565000	        55	800000bc	f82a6837	lui	x16,0xf82a6	 x16=0xf82a6000
         575000	        56	800000c0	0f080813	addi	x16,x16,240	 x16:0xf82a6000 x16=0xf82a60f0
         585000	        57	800000c4	f2dbe937	lui	x18,0xf2dbe	 x18=0xf2dbe000
         595000	        58	800000c8	ab190913	addi	x18,x18,-1359	 x18:0xf2dbe000 x18=0xf2dbdab1
         605000	        59	800000cc	234949b7	lui	x19,0x23494	 x19=0x23494000
         615000	        60	800000d0	31198993	addi	x19,x19,785	 x19:0x23494000 x19=0x23494311
         625000	        61	800000d4	80000a37	lui	x20,0x80000	 x20=0x80000000
         635000	        62	800000d8	00400a93	addi	x21,x0,4	  x0:0x00000000 x21=0x00000004
         645000	        63	800000dc	80000b37	lui	x22,0x80000	 x22=0x80000000
         655000	        64	800000e0	00400b93	addi	x23,x0,4	  x0:0x00000000 x23=0x00000004
         665000	        65	800000e4	00000c13	addi	x24,x0,0	  x0:0x00000000 x24=0x00000000
         675000	        66	800000e8	00e00c93	addi	x25,x0,14	  x0:0x00000000 x25=0x0000000e
         685000	        67	800000ec	fc67ad37	lui	x26,0xfc67a	 x26=0xfc67a000
         695000	        68	800000f0	5e5d0d13	addi	x26,x26,1509	 x26:0xfc67a000 x26=0xfc67a5e5
         705000	        69	800000f4	80000db7	lui	x27,0x80000	 x27=0x80000000
         715000	        70	800000f8	00500e13	addi	x28,x0,5	  x0:0x00000000 x28=0x00000005
         725000	        71	800000fc	80000eb7	lui	x29,0x80000	 x29=0x80000000
         735000	        72	80000100	03690f37	lui	x30,0x3690	 x30=0x03690000
         745000	        73	80000104	9bff0f13	addi	x30,x30,-1601	 x30:0x03690000 x30=0x0368f9bf
         755000	        74	80000108	0000a897	auipc	x17,0xa	 x17=0x8000a104
         765000	        75	8000010c	e8088893	addi	x17,x17,-384	 x17:0x8000a104 x17=0x80009f84
         775000	        76	80000110	465a6493	ori	x9,x20,1125	 x20:0x80000000  x9=0x80000465
         785000	        77	80000114	f5810493	addi	x9,x2,-168	  x2:0xfdfdcd07  x9=0xfdfdcc5f
         795000	        78	80000118	00000e17	auipc	x28,0x0	 x28=0x80000114
         805000	        79	8000011c	394e0e13	addi	x28,x28,916	 x28:0x80000114 x28=0x800004a8
         815000	        80	80000120	2e0e0e13	addi	x28,x28,736	 x28:0x800004a8 x28=0x80000788
         825000	        81	80000124	00079793	slli	x15,x15,0x0	 x15:0x80000000 x15=0x80000000
         835000	        82	80000128	01f2f933	and	x18,x5,x31	  x5:0x427dafc0 x31:0x80009fc4 x18=0x00008fc0
         845000	        83	8000012c	001b6a33	or	x20,x22,x1	 x22:0x80000000  x1:0x00000000 x20=0x80000000
         855000	        84	80000130	c9f86f13	ori	x30,x16,-865	 x16:0xf82a60f0 x30=0xfffffcff
         865000	        85	80000134	00000013	addi	x0,x0,0	  x0:0x00000000
         875000	        86	80000138	d20e0be7	jalr	x23,x28,-736	 x28:0x80000788 x23=0x80000138
         885000	        87	00000000	00000013	addi	x0,x0,0	  x0:0x00000000
         895000	        88	800004a8	00000013	addi	x0,x0,0	  x0:0x00000000
         905000	        89	800004ac	29571a37	lui	x20,0x29571	 x20=0x29571000
         915000	        90	800004b0	1fcf9017	auipc	x0,0x1fcf9	
         925000	        91	800004b4	00559113	slli	x2,x11,0x5	 x11:0x00000004  x2=0x00000080
         935000	        92	800004b8	cf603193	sltiu	x3,x0,-778	  x0:0x00000000  x3=0x00000001
         945000	        93	800004bc	00d3cdb3	xor	x27,x7,x13	  x7:0xfdcf0d2d x13:0x29917f47 x27=0xd45e726a
         955000	        94	800004c0	00dc0533	add	x10,x24,x13	 x24:0x00000000 x13:0x29917f47 x10=0x29917f47
         965000	        95	800004c4	00994663	blt	x18,x9,800004d0	 x18:0x00008fc0  x9:0xfdfdcc5f
         975000	        96	800004c8	004fc133	xor	x2,x31,x4	 x31:0x80009fc4  x4:0x00000000  x2=0x80009fc4
         985000	        97	800004cc	00ddcc33	xor	x24,x27,x13	 x27:0xd45e726a x13:0x29917f47 x24=0xfdcf0d2d
         995000	        98	800004d0	fec88893	addi	x17,x17,-20	 x17:0x80009f84 x17=0x80009f70
        1005000	        99	800004d4	0178a223	sw	x23,4(x17)	 x17:0x80009f70 x23:0x80000138 PA:0x80009f74
        1015000	       100	800004d8	41378f33	sub	x30,x15,x19	 x15:0x80000000 x19:0x23494311 x30=0x5cb6bcef
        1025000	       101	800004dc	1f087213	andi	x4,x16,496	 x16:0xf82a60f0  x4=0x000000f0
        1035000	       102	800004e0	00d5dc93	srli	x25,x11,0xd	 x11:0x00000004 x25=0x00000000
        1045000	       103	800004e4	4070d4b3	sra	x9,x1,x7	  x1:0x00000000  x7:0xfdcf0d2d  x9=0x00000000
        1055000	       104	800004e8	00045593	srli	x11,x8,0x0	  x8:0x80000000 x11=0x80000000
        1065000	       105	800004ec	ef02c493	xori	x9,x5,-272	  x5:0x427dafc0  x9=0xbd825130
        1075000	       106	800004f0	00d94b33	xor	x22,x18,x13	 x18:0x00008fc0 x13:0x29917f47 x22=0x2991f087
        1085000	       107	800004f4	00000013	addi	x0,x0,0	  x0:0x00000000
        1095000	       108	800004f8	00004417	auipc	x8,0x4	  x8=0x800044f4
        1105000	       109	800004fc	cf040413	addi	x8,x8,-784	  x8:0x800044f4  x8=0x800041e4
        1115000	       110	80000500	00000013	addi	x0,x0,0	  x0:0x00000000
        1125000	       111	80000504	2d332093	slti	x1,x6,723	  x6:0x80000000  x1=0x00000001
        1135000	       112	80000508	32b40413	addi	x8,x8,811	  x8:0x800041e4  x8=0x8000450f
        1145000	       113	8000050c	00967463	bgeu	x12,x9,80000514	 x12:0x00000000  x9:0xbd825130
        1155000	       114	80000510	00a91833	sll	x16,x18,x10	 x18:0x00008fc0 x10:0x29917f47 x16=0x0047e000
        1165000	       115	80000514	cd540be7	jalr	x23,x8,-811	  x8:0x8000450f x23=0x80000514
        1175000	       116	00000000	00000013	addi	x0,x0,0	  x0:0x00000000
        1185000	       117	800041e4	00000013	addi	x0,x0,0	  x0:0x00000000
        1195000	       118	800041e8	00a4f933	and	x18,x9,x10	  x9:0xbd825130 x10:0x29917f47 x18=0x29805100
        1205000	       119	800041ec	00fd9a63	bne	x27,x15,80004200	 x27:0xd45e726a x15:0x80000000
        1215000	       120	00000000	00000013	addi	x0,x0,0	  x0:0x00000000
        1225000	       121	800041fc	00000013	addi	x0,x0,0	  x0:0x00000000
        1235000	       122	80004200	ff088893	addi	x17,x17,-16	 x17:0x80009f70 x17=0x80009f60
        1245000	       123	80004204	01964c33	xor	x24,x12,x25	 x12:0x00000000 x25:0x00000000 x24=0x00000000
        1255000	       124	80004208	00f10a33	add	x20,x2,x15	  x2:0x80009fc4 x15:0x80000000 x20=0x00009fc4
        1265000	       125	8000420c	401c5c93	srai	x25,x24,0x1	 x24:0x00000000 x25=0x00000000
        1275000	       126	80004210	41fd8533	sub	x10,x27,x31	 x27:0xd45e726a x31:0x80009fc4 x10=0x545dd2a6
        1285000	       127	80004214	0178a223	sw	x23,4(x17)	 x17:0x80009f60 x23:0x80000514 PA:0x80009f64
        1295000	       128	80004218	cd97ea97	auipc	x21,0xcd97e	 x21=0x4d982214
        1305000	       129	8000421c	00004297	auipc	x5,0x4	  x5=0x80008218
        1315000	       130	80004220	1ea28293	addi	x5,x5,490	  x5:0x80008218  x5=0x80008402
        1325000	       131	80004224	000e1933	sll	x18,x28,x0	 x28:0x80000788  x0:0x00000000 x18=0x80000788
        1335000	       132	80004228	407b8d33	sub	x26,x23,x7	 x23:0x80000514  x7:0xfdcf0d2d x26=0x8230f7e7
        1345000	       133	8000422c	d56856b7	lui	x13,0xd5685	 x13=0xd5685000
        1355000	       134	80004230	fe528803	lb	x16,-27(x5)	  x5:0x80008402 x16=0xffffff94 PA:0x800083e7
        1365000	       135	80004234	fd728aa3	sb	x23,-43(x5)	  x5:0x80008402 x23:0x80000514 PA:0x800083d7
        1375000	       136	80004238	04428983	lb	x19,68(x5)	  x5:0x80008402 x19=0xffffff8c PA:0x80008446
        1385000	       137	8000423c	36ab2793	slti	x15,x22,874	 x22:0x2991f087 x15=0x00000000
        1395000	       138	80004240	fc028fa3	sb	x0,-33(x5)	  x5:0x80008402  x0:0x00000000 PA:0x800083e1
        1405000	       139	80004244	c7a83213	sltiu	x4,x16,-902	 x16:0xffffff94  x4=0x00000000
        1415000	       140	80004248	408fd693	srai	x13,x31,0x8	 x31:0x80009fc4 x13=0xff80009f
        1425000	       141	8000424c	361d8b13	addi	x22,x27,865	 x27:0xd45e726a x22=0xd45e75cb
        1435000	       142	80004250	9c5e2813	slti	x16,x28,-1595	 x28:0x80000788 x16=0x00000001
        1445000	       143	80004254	0f928f03	lb	x30,249(x5)	  x5:0x80008402 x30=0x00000052 PA:0x800084fb
        1455000	       144	80004258	40ed09b3	sub	x19,x26,x14	 x26:0x8230f7e7 x14:0x00000000 x19=0x8230f7e7
        1465000	       145	8000425c	0612c183	lbu	x3,97(x5)	  x5:0x80008402  x3=0x00000086 PA:0x80008463
        1475000	       146	80004260	f5429783	lh	x15,-172(x5)	  x5:0x80008402 x15=0x00007fae PA:0x80008356
        1485000	       147	80004264	41390b33	sub	x22,x18,x19	 x18:0x80000788 x19:0x8230f7e7 x22=0xfdcf0fa1
        1495000	       148	80004268	01297633	and	x12,x18,x18	 x18:0x80000788 x18:0x80000788 x12=0x80000788
        1505000	       149	8000426c	f232c583	lbu	x11,-221(x5)	  x5:0x80008402 x11=0x00000010 PA:0x80008325
        1515000	       150	80004270	01cc9f33	sll	x30,x25,x28	 x25:0x00000000 x28:0x80000788 x30=0x00000000
        1525000	       151	80004274	f6a287a3	sb	x10,-145(x5)	  x5:0x80008402 x10:0x545dd2a6 PA:0x80008371
        1535000	       152	80004278	fc628ba3	sb	x6,-41(x5)	  x5:0x80008402  x6:0x80000000 PA:0x800083d9
        1545000	       153	8000427c	92b2f013	andi	x0,x5,-1749	  x5:0x80008402
        1555000	       154	80004280	005f0ab3	add	x21,x30,x5	 x30:0x00000000  x5:0x80008402 x21=0x80008402
        1565000	       155	80004284	0c028d83	lb	x27,192(x5)	  x5:0x80008402 x27=0x00000004 PA:0x800084c2
        1575000	       156	80004288	0ea282a3	sb	x10,229(x5)	  x5:0x80008402 x10:0x545dd2a6 PA:0x800084e7
        1585000	       157	8000428c	015a6633	or	x12,x20,x21	 x20:0x00009fc4 x21:0x80008402 x12=0x80009fc6
        1595000	       158	80004290	01b84a33	xor	x20,x16,x27	 x16:0x00000001 x27:0x00000004 x20=0x00000005
        1605000	       159	80004294	0742c503	lbu	x10,116(x5)	  x5:0x80008402 x10=0x000000f3 PA:0x80008476
        1615000	       160	80004298	f8328b83	lb	x23,-125(x5)	  x5:0x80008402 x23=0xffffffad PA:0x80008385
        1625000	       161	8000429c	61cfae37	lui	x28,0x61cfa	 x28=0x61cfa000
        1635000	       162	800042a0	17a3ba97	auipc	x21,0x17a3b	 x21=0x97a3f29c
        1645000	       163	800042a4	f9d28da3	sb	x29,-101(x5)	  x5:0x80008402 x29:0x80000000 PA:0x8000839d
        1655000	       164	800042a8	00127db3	and	x27,x4,x1	  x4:0x00000000  x1:0x00000001 x27=0x00000000
        1665000	       165	800042ac	0e22a603	lw	x12,226(x5)	  x5:0x80008402 x12=0xa6810d4b PA:0x800084e4
        1675000	       166	800042b0	0d72cc83	lbu	x25,215(x5)	  x5:0x80008402 x25=0x00000037 PA:0x800084d9
        1685000	       167	800042b4	0c928183	lb	x3,201(x5)	  x5:0x80008402  x3=0x0000001f PA:0x800084cb
        1695000	       168	800042b8	00a9cb33	xor	x22,x19,x10	 x19:0x8230f7e7 x10:0x000000f3 x22=0x8230f714
        1705000	       169	800042bc	003c9ab3	sll	x21,x25,x3	 x25:0x00000037  x3:0x0000001f x21=0x80000000
        1715000	       170	800042c0	04a29b83	lh	x23,74(x5)	  x5:0x80008402 x23=0xffffeba4 PA:0x8000844c
        1725000	       171	800042c4	f932c803	lbu	x16,-109(x5)	  x5:0x80008402 x16=0x00000082 PA:0x80008395
        1735000	       172	800042c8	f622cc03	lbu	x24,-158(x5)	  x5:0x80008402 x24=0x00000087 PA:0x80008364
        1745000	       173	800042cc	01c4bab3	sltu	x21,x9,x28	  x9:0xbd825130 x28:0x61cfa000 x21=0x00000000
        1755000	       174	800042d0	011f1e13	slli	x28,x30,0x11	 x30:0x00000000 x28=0x00000000
        1765000	       175	800042d4	f2328603	lb	x12,-221(x5)	  x5:0x80008402 x12=0x00000010 PA:0x80008325
        1775000	       176	800042d8	03d28f03	lb	x30,61(x5)	  x5:0x80008402 x30=0x00000015 PA:0x8000843f
        1785000	       177	800042dc	d832eb13	ori	x22,x5,-637	  x5:0x80008402 x22=0xfffffd83
        1795000	       178	800042e0	f4328083	lb	x1,-189(x5)	  x5:0x80008402  x1=0x00000061 PA:0x80008345
        1805000	       179	800042e4	0592c803	lbu	x16,89(x5)	  x5:0x80008402 x16=0x000000bc PA:0x8000845b
        1815000	       180	800042e8	f8228b03	lb	x22,-126(x5)	  x5:0x80008402 x22=0xffffff85 PA:0x80008384
        1825000	       181	800042ec	00004117	auipc	x2,0x4	  x2=0x800082e8
        1835000	       182	800042f0	ea710113	addi	x2,x2,-345	  x2:0x800082e8  x2=0x8000818f
        1845000	       183	800042f4	04c11ea3	sh	x12,93(x2)	  x2:0x8000818f x12:0x00000010 PA:0x800081ec
        1855000	       184	800042f8	40165db3	sra	x27,x12,x1	 x12:0x00000010  x1:0x00000061 x27=0x00000008
        1865000	       185	800042fc	26210503	lb	x10,610(x2)	  x2:0x8000818f x10=0x00000064 PA:0x800083f1
        1875000	       186	80004300	00b4f7b3	and	x15,x9,x11	  x9:0xbd825130 x11:0x00000010 x15=0x00000010
        1885000	       187	80004304	14711303	lh	x6,327(x2)	  x2:0x8000818f  x6=0xffffc27f PA:0x800082d6
        1895000	       188	80004308	51cf3593	sltiu	x11,x30,1308	 x30:0x00000015 x11=0x00000001
        1905000	       189	8000430c	013db5b3	sltu	x11,x27,x19	 x27:0x00000008 x19:0x8230f7e7 x11=0x00000001
        1915000	       190	80004310	00001e33	sll	x28,x0,x0	  x0:0x00000000  x0:0x00000000 x28=0x00000000
        1925000	       191	80004314	40ce07b3	sub	x15,x28,x12	 x28:0x00000000 x12:0x00000010 x15=0xfffffff0
        1935000	       192	80004318	009f92b3	sll	x5,x31,x9	 x31:0x80009fc4  x9:0xbd825130  x5=0x9fc40000
        1945000	       193	8000431c	01d14b83	lbu	x23,29(x2)	  x2:0x8000818f x23=0x0000008c PA:0x800081ac
        1955000	       194	80004320	f0010ca3	sb	x0,-231(x2)	  x2:0x8000818f  x0:0x00000000 PA:0x800080a8
        1965000	       195	80004324	a9062293	slti	x5,x12,-1392	 x12:0x00000010  x5=0x00000000
        1975000	       196	80004328	3e410f03	lb	x30,996(x2)	  x2:0x8000818f x30=0x00000051 PA:0x80008573
        1985000	       197	00000000	00000013	addi	x0,x0,0	  x0:0x00000000
        1995000	       198	8000432c	fbe101a3	sb	x30,-93(x2)	  x2:0x8000818f x30:0x00000051 PA:0x80008132
        2005000	       199	80004330	019441b3	xor	x3,x8,x25	  x8:0x8000450f x25:0x00000037  x3=0x80004538
        2015000	       200	80004334	0184d0b3	srl	x1,x9,x24	  x9:0xbd825130 x24:0x00000087  x1=0x017b04a2
        2025000	       201	80004338	007a09b3	add	x19,x20,x7	 x20:0x00000005  x7:0xfdcf0d2d x19=0xfdcf0d32
        2035000	       202	8000433c	41ff8233	sub	x4,x31,x31	 x31:0x80009fc4 x31:0x80009fc4  x4=0x00000000
        2045000	       203	80004340	3bd105a3	sb	x29,939(x2)	  x2:0x8000818f x29:0x80000000 PA:0x8000853a
        2055000	       204	80004344	01f09613	slli	x12,x1,0x1f	  x1:0x017b04a2 x12=0x00000000
        2065000	       205	80004348	0196c0b3	xor	x1,x13,x25	 x13:0xff80009f x25:0x00000037  x1=0xff8000a8
        2075000	       206	8000434c	00000013	addi	x0,x0,0	  x0:0x00000000
        2085000	       207	80004350	edd10023	sb	x29,-320(x2)	  x2:0x8000818f x29:0x80000000 PA:0x8000804f
        2095000	       208	80004354	013cadb3	slt	x27,x25,x19	 x25:0x00000037 x19:0xfdcf0d32 x27=0x00000000
        2105000	       209	80004358	01af4833	xor	x16,x30,x26	 x30:0x00000051 x26:0x8230f7e7 x16=0x8230f7b6
        2115000	       210	8000435c	2ab15503	lhu	x10,683(x2)	  x2:0x8000818f x10=0x0000cccc PA:0x8000843a
        2125000	       211	80004360	db75b413	sltiu	x8,x11,-585	 x11:0x00000001  x8=0x00000001
        2135000	       212	80004364	4b111483	lh	x9,1201(x2)	  x2:0x8000818f  x9=0xffff874b PA:0x80008640
        2145000	       213	80004368	41dd8d33	sub	x26,x27,x29	 x27:0x00000000 x29:0x80000000 x26=0x80000000
        2155000	       214	8000436c	24210403	lb	x8,578(x2)	  x2:0x8000818f  x8=0x00000024 PA:0x800083d1
        2165000	       215	00000000	00000013	addi	x0,x0,0	  x0:0x00000000
        2175000	       216	80004370	46805cb7	lui	x25,0x46805	 x25=0x46805000
        2185000	       217	80004374	04014403	lbu	x8,64(x2)	  x2:0x8000818f  x8=0x00000090 PA:0x800081cf
        2195000	       218	80004378	15714203	lbu	x4,343(x2)	  x2:0x8000818f  x4=0x000000d5 PA:0x800082e6
        2205000	       219	8000437c	23a80d13	addi	x26,x16,570	 x16:0x8230f7b6 x26=0x8230f9f0
        2215000	       220	80004380	00000013	addi	x0,x0,0	  x0:0x00000000
        2225000	       221	80004384	f8b10683	lb	x13,-117(x2)	  x2:0x8000818f x13=0xffffffd4 PA:0x8000811a
        2235000	       222	80004388	45c14683	lbu	x13,1116(x2)	  x2:0x8000818f x13=0x000000e6 PA:0x800085eb
        2245000	       223	8000438c	f03106a3	sb	x3,-243(x2)	  x2:0x8000818f  x3:0x80004538 PA:0x8000809c
        2255000	       224	80004390	00004397	auipc	x7,0x4	  x7=0x8000838c
        2265000	       225	80004394	6aa38393	addi	x7,x7,1706	  x7:0x8000838c  x7=0x80008a36
        2275000	       226	80004398	0273c103	lbu	x2,39(x7)	  x7:0x80008a36  x2=0x000000ed PA:0x80008a5d
        2285000	       227	8000439c	02038783	lb	x15,32(x7)	  x7:0x80008a36 x15=0xffffffb2 PA:0x80008a56
        2295000	       228	800043a0	02b38183	lb	x3,43(x7)	  x7:0x80008a36  x3=0xffffffb8 PA:0x80008a61
        2305000	       229	800043a4	01c737b3	sltu	x15,x14,x28	 x14:0x00000000 x28:0x00000000 x15=0x00000000
        2315000	       230	800043a8	fc738903	lb	x18,-57(x7)	  x7:0x80008a36 x18=0x0000002b PA:0x800089fd
        2325000	       231	800043ac	ceb1a593	slti	x11,x3,-789	  x3:0xffffffb8 x11=0x00000000
        2335000	       232	800043b0	900fc013	xori	x0,x31,-1792	 x31:0x80009fc4
        2345000	       233	800043b4	00438d03	lb	x26,4(x7)	  x7:0x80008a36 x26=0xffffffea PA:0x80008a3a
        2355000	       234	800043b8	0403ca83	lbu	x21,64(x7)	  x7:0x80008a36 x21=0x0000003e PA:0x80008a76
        2365000	       235	800043bc	004d01b3	add	x3,x26,x4	 x26:0xffffffea  x4:0x000000d5  x3=0x000000bf
        2375000	       236	800043c0	00638f03	lb	x30,6(x7)	  x7:0x80008a36 x30=0xffffffc9 PA:0x80008a3c
        2385000	       237	800043c4	fff38183	lb	x3,-1(x7)	  x7:0x80008a36  x3=0x0000007a PA:0x80008a35
        2395000	       238	800043c8	03e3c583	lbu	x11,62(x7)	  x7:0x80008a36 x11=0x00000022 PA:0x80008a74
        2405000	       239	800043cc	01dfbc33	sltu	x24,x31,x29	 x31:0x80009fc4 x29:0x80000000 x24=0x00000000
        2415000	       240	800043d0	a4dfbe97	auipc	x29,0xa4dfb	 x29=0x24dff3cc
        2425000	       241	800043d4	fd938d83	lb	x27,-39(x7)	  x7:0x80008a36 x27=0x0000005a PA:0x80008a0f
        2435000	       242	800043d8	0023da83	lhu	x21,2(x7)	  x7:0x80008a36 x21=0x00007f61 PA:0x80008a38
        2445000	       243	800043dc	018388a3	sb	x24,17(x7)	  x7:0x80008a36 x24:0x00000000 PA:0x80008a47
        2455000	       244	800043e0	fe63db03	lhu	x22,-26(x7)	  x7:0x80008a36 x22=0x00005f99 PA:0x80008a1c
        2465000	       245	800043e4	02038e03	lb	x28,32(x7)	  x7:0x80008a36 x28=0xffffffb2 PA:0x80008a56
        2475000	       246	800043e8	01312b33	slt	x22,x2,x19	  x2:0x000000ed x19:0xfdcf0d32 x22=0x00000000
        2485000	       247	800043ec	fd338083	lb	x1,-45(x7)	  x7:0x80008a36  x1=0xffffff96 PA:0x80008a09
        2495000	       248	800043f0	03638d23	sb	x22,58(x7)	  x7:0x80008a36 x22:0x00000000 PA:0x80008a70
        2505000	       249	800043f4	8db57993	andi	x19,x10,-1829	 x10:0x0000cccc x19=0x0000c8c8
        2515000	       250	800043f8	00000013	addi	x0,x0,0	  x0:0x00000000
        2525000	       251	800043fc	01538403	lb	x8,21(x7)	  x7:0x80008a36  x8=0x00000068 PA:0x80008a4b
        2535000	       252	80004400	fdd3c483	lbu	x9,-35(x7)	  x7:0x80008a36  x9=0x000000bf PA:0x80008a13
        2545000	       253	80004404	01f38683	lb	x13,31(x7)	  x7:0x80008a36 x13=0x0000002f PA:0x80008a55
        2555000	       254	80004408	fdd3cc83	lbu	x25,-35(x7)	  x7:0x80008a36 x25=0x000000bf PA:0x80008a13
        2565000	       255	8000440c	fe73ce83	lbu	x29,-25(x7)	  x7:0x80008a36 x29=0x0000005f PA:0x80008a1d
        2575000	       256	80004410	017388a3	sb	x23,17(x7)	  x7:0x80008a36 x23:0x0000008c PA:0x80008a47
        2585000	       257	80004414	00265093	srli	x1,x12,0x2	 x12:0x00000000  x1=0x00000000
        2595000	       258	80004418	fed38083	lb	x1,-19(x7)	  x7:0x80008a36  x1=0x0000003a PA:0x80008a23
        2605000	       259	8000441c	fe439523	sh	x4,-22(x7)	  x7:0x80008a36  x4:0x000000d5 PA:0x80008a20
        2615000	       260	80004420	fd139223	sh	x17,-60(x7)	  x7:0x80008a36 x17:0x80009f60 PA:0x800089fa
        2625000	       261	80004424	00fa5313	srli	x6,x20,0xf	 x20:0x00000005  x6=0x00000000
        2635000	       262	80004428	9c308193	addi	x3,x1,-1597	  x1:0x0000003a  x3=0xfffff9fd
        2645000	       263	8000442c	02338e23	sb	x3,60(x7)	  x7:0x80008a36  x3:0xfffff9fd PA:0x80008a72
        2655000	       264	80004430	0183d903	lhu	x18,24(x7)	  x7:0x80008a36 x18=0x00008997 PA:0x80008a4e
        2665000	       265	80004434	00005117	auipc	x2,0x5	  x2=0x80009430
        2675000	       266	80004438	b2d10113	addi	x2,x2,-1235	  x2:0x80009430  x2=0x80008f5d
        2685000	       267	8000443c	00d99993	slli	x19,x19,0xd	 x19:0x0000c8c8 x19=0x19190000
        2695000	       268	80004440	01b5f2b3	and	x5,x11,x27	 x11:0x00000022 x27:0x0000005a  x5=0x00000002
        2705000	       269	80004444	f8b12c83	lw	x25,-117(x2)	  x2:0x80008f5d x25=0xc558839f PA:0x80008ee8
        2715000	       270	80004448	f6c10d03	lb	x26,-148(x2)	  x2:0x80008f5d x26=0xffffff8b PA:0x80008ec9
        2725000	       271	8000444c	f7711c03	lh	x24,-137(x2)	  x2:0x80008f5d x24=0xffff9ce8 PA:0x80008ed4
        2735000	       272	80004450	f2110c03	lb	x24,-223(x2)	  x2:0x80008f5d x24=0x0000007f PA:0x80008e7e
        2745000	       273	80004454	00277eb3	and	x29,x14,x2	 x14:0x00000000  x2:0x80008f5d x29=0x00000000
        2755000	       274	80004458	41fe01b3	sub	x3,x28,x31	 x28:0xffffffb2 x31:0x80009fc4  x3=0x7fff5fee
        2765000	       275	8000445c	02a10323	sb	x10,38(x2)	  x2:0x80008f5d x10:0x0000cccc PA:0x80008f83
        2775000	       276	80004460	fc3119a3	sh	x3,-45(x2)	  x2:0x80008f5d  x3:0x7fff5fee PA:0x80008f30
        2785000	       277	80004464	04210303	lb	x6,66(x2)	  x2:0x80008f5d  x6=0xffffffc3 PA:0x80008f9f
        2795000	       278	80004468	68eb7993	andi	x19,x22,1678	 x22:0x00000000 x19=0x00000000
        2805000	       279	8000446c	e5427b93	andi	x23,x4,-428	  x4:0x000000d5 x23=0x00000054
        2815000	       280	80004470	07c14183	lbu	x3,124(x2)	  x2:0x80008f5d  x3=0x00000006 PA:0x80008fd9
        2825000	       281	80004474	00aee933	or	x18,x29,x10	 x29:0x00000000 x10:0x0000cccc x18=0x0000cccc
        2835000	       282	80004478	fe6104a3	sb	x6,-23(x2)	  x2:0x80008f5d  x6:0xffffffc3 PA:0x80008f46
        2845000	       283	8000447c	07914803	lbu	x16,121(x2)	  x2:0x80008f5d x16=0x000000fc PA:0x80008fd6
        2855000	       284	80004480	40a35313	srai	x6,x6,0xa	  x6:0xffffffc3  x6=0xffffffff
        2865000	       285	80004484	413bdc93	srai	x25,x23,0x13	 x23:0x00000054 x25=0x00000000
        2875000	       286	80004488	408e5e93	srai	x29,x28,0x8	 x28:0xffffffb2 x29=0xffffffff
        2885000	       287	8000448c	0003bb33	sltu	x22,x7,x0	  x7:0x80008a36  x0:0x00000000 x22=0x00000000
        2895000	       288	80004490	00000013	addi	x0,x0,0	  x0:0x00000000
        2905000	       289	80004494	1798a993	slti	x19,x17,377	 x17:0x80009f60 x19=0x00000001
        2915000	       290	80004498	fc814983	lbu	x19,-56(x2)	  x2:0x80008f5d x19=0x00000085 PA:0x80008f25
        2925000	       291	8000449c	06710a23	sb	x7,116(x2)	  x2:0x80008f5d  x7:0x80008a36 PA:0x80008fd1
        2935000	       292	800044a0	f2610383	lb	x7,-218(x2)	  x2:0x80008f5d  x7=0x00000051 PA:0x80008e83
        2945000	       293	800044a4	00aafc33	and	x24,x21,x10	 x21:0x00007f61 x10:0x0000cccc x24=0x00004c40
        2955000	       294	800044a8	f2b10523	sb	x11,-214(x2)	  x2:0x80008f5d x11:0x00000022 PA:0x80008e87
        2965000	       295	800044ac	04f11683	lh	x13,79(x2)	  x2:0x80008f5d x13=0x0000443d PA:0x80008fac
        2975000	       296	800044b0	f9410e83	lb	x29,-108(x2)	  x2:0x80008f5d x29=0xffffffaf PA:0x80008ef1
        2985000	       297	800044b4	4038d413	srai	x8,x17,0x3	 x17:0x80009f60  x8=0xf00013ec
        2995000	       298	800044b8	0059c633	xor	x12,x19,x5	 x19:0x00000085  x5:0x00000002 x12=0x00000087
        3005000	       299	800044bc	f30115a3	sh	x16,-213(x2)	  x2:0x80008f5d x16:0x000000fc PA:0x80008e88
        3015000	       300	800044c0	6db1b993	sltiu	x19,x3,1755	  x3:0x00000006 x19=0x00000001
        3025000	       301	800044c4	009667b3	or	x15,x12,x9	 x12:0x00000087  x9:0x000000bf x15=0x000000bf
        3035000	       302	800044c8	016ce9b3	or	x19,x25,x22	 x25:0x00000000 x22:0x00000000 x19=0x00000000
        3045000	       303	800044cc	00355533	srl	x10,x10,x3	 x10:0x0000cccc  x3:0x00000006 x10=0x00000333
        3055000	       304	800044d0	03115a03	lhu	x20,49(x2)	  x2:0x80008f5d x20=0x0000913c PA:0x80008f8e
        3065000	       305	800044d4	f8614b83	lbu	x23,-122(x2)	  x2:0x80008f5d x23=0x000000a4 PA:0x80008ee3
        3075000	       306	800044d8	f4a10d03	lb	x26,-182(x2)	  x2:0x80008f5d x26=0xffffffd6 PA:0x80008ea7
        3085000	       307	800044dc	9f12bc93	sltiu	x25,x5,-1551	  x5:0x00000002 x25=0x00000001
        3095000	       308	800044e0	112eda37	lui	x20,0x112ed	 x20=0x112ed000
        3105000	       309	800044e4	b1551197	auipc	x3,0xb1551	  x3=0x315554e0
        3115000	       310	800044e8	07b10193	addi	x3,x2,123	  x2:0x80008f5d  x3=0x80008fd8
        3125000	       311	800044ec	018eebb3	or	x23,x29,x24	 x29:0xffffffaf x24:0x00004c40 x23=0xffffffef
        3135000	       312	800044f0	f5c14603	lbu	x12,-164(x2)	  x2:0x80008f5d x12=0x00000088 PA:0x80008eb9
        3145000	       313	800044f4	00005f17	auipc	x30,0x5	 x30=0x800094f0
        3155000	       314	800044f8	8d9f0f13	addi	x30,x30,-1831	 x30:0x800094f0 x30=0x80008dc9
        3165000	       315	800044fc	001ec933	xor	x18,x29,x1	 x29:0xffffffaf  x1:0x0000003a x18=0xffffff95
        3175000	       316	80004500	ff7f5603	lhu	x12,-9(x30)	 x30:0x80008dc9 x12=0x0000ad1c PA:0x80008dc0
        3185000	       317	80004504	414a5193	srai	x3,x20,0x14	 x20:0x112ed000  x3=0x00000112
        3195000	       318	80004508	417e0db3	sub	x27,x28,x23	 x28:0xffffffb2 x23:0xffffffef x27=0xffffffc3
        3205000	       319	8000450c	000f4a03	lbu	x20,0(x30)	 x30:0x80008dc9 x20=0x000000b1 PA:0x80008dc9
        3215000	       320	80004510	01be9a13	slli	x20,x29,0x1b	 x29:0xffffffaf x20=0x78000000
        3225000	       321	80004514	009f4083	lbu	x1,9(x30)	 x30:0x80008dc9  x1=0x000000b9 PA:0x80008dd2
        3235000	       322	80004518	8ce34c97	auipc	x25,0x8ce34	 x25=0x0ce38514
        3245000	       323	8000451c	012e3933	sltu	x18,x28,x18	 x28:0xffffffb2 x18:0xffffff95 x18=0x00000000
        3255000	       324	80004520	ffaf4483	lbu	x9,-6(x30)	 x30:0x80008dc9  x9=0x000000f9 PA:0x80008dc3
        3265000	       325	80004524	00ef0d83	lb	x27,14(x30)	 x30:0x80008dc9 x27=0x00000027 PA:0x80008dd7
        3275000	       326	80004528	ff2f0683	lb	x13,-14(x30)	 x30:0x80008dc9 x13=0x0000002a PA:0x80008dbb
        3285000	       327	8000452c	00ac54b3	srl	x9,x24,x10	 x24:0x00004c40 x10:0x00000333  x9=0x00000000
        3295000	       328	80004530	007f5e83	lhu	x29,7(x30)	 x30:0x80008dc9 x29=0x00004b0f PA:0x80008dd0
        3305000	       329	80004534	010f4783	lbu	x15,16(x30)	 x30:0x80008dc9 x15=0x000000cc PA:0x80008dd9
        3315000	       330	80004538	ffff4283	lbu	x5,-1(x30)	 x30:0x80008dc9  x5=0x000000a1 PA:0x80008dc8
        3325000	       331	8000453c	ffff0783	lb	x15,-1(x30)	 x30:0x80008dc9 x15=0xffffffa1 PA:0x80008dc8
        3335000	       332	80004540	fe8f0923	sb	x8,-14(x30)	 x30:0x80008dc9  x8:0xf00013ec PA:0x80008dbb
        3345000	       333	80004544	00380533	add	x10,x16,x3	 x16:0x000000fc  x3:0x00000112 x10=0x0000020e
        3355000	       334	80004548	005f0103	lb	x2,5(x30)	 x30:0x80008dc9  x2=0xffffffe2 PA:0x80008dce
        3365000	       335	8000454c	a3740513	addi	x10,x8,-1481	  x8:0xf00013ec x10=0xf0000e23
        3375000	       336	80004550	0192dd33	srl	x26,x5,x25	  x5:0x000000a1 x25:0x0ce38514 x26=0x00000000
        3385000	       337	80004554	011e9913	slli	x18,x29,0x11	 x29:0x00004b0f x18=0x961e0000
        3395000	       338	80004558	006f0723	sb	x6,14(x30)	 x30:0x80008dc9  x6:0xffffffff PA:0x80008dd7
        3405000	       339	8000455c	018414b3	sll	x9,x8,x24	  x8:0xf00013ec x24:0x00004c40  x9=0xf00013ec
        3415000	       340	80004560	41cf0db3	sub	x27,x30,x28	 x30:0x80008dc9 x28:0xffffffb2 x27=0x80008e17
        3425000	       341	80004564	417b5a93	srai	x21,x22,0x17	 x22:0x00000000 x21=0x00000000
        3435000	       342	80004568	001e5bb3	srl	x23,x28,x1	 x28:0xffffffb2  x1:0x000000b9 x23=0x0000007f
        3445000	       343	8000456c	742f2113	slti	x2,x30,1858	 x30:0x80008dc9  x2=0x00000001
        3455000	       344	80004570	005b9013	slli	x0,x23,0x5	 x23:0x0000007f
        3465000	       345	80004574	ff8f4803	lbu	x16,-8(x30)	 x30:0x80008dc9 x16=0x000000ad PA:0x80008dc1
        3475000	       346	80004578	febf0823	sb	x11,-16(x30)	 x30:0x80008dc9 x11:0x00000022 PA:0x80008db9
        3485000	       347	8000457c	a9e39197	auipc	x3,0xa9e39	  x3=0x29e3d578
        3495000	       348	80004580	feff1ea3	sh	x15,-3(x30)	 x30:0x80008dc9 x15:0xffffffa1 PA:0x80008dc6
        3505000	       349	80004584	00000013	addi	x0,x0,0	  x0:0x00000000
        3515000	       350	80004588	010f0503	lb	x10,16(x30)	 x30:0x80008dc9 x10=0xffffffcc PA:0x80008dd9
        3525000	       351	8000458c	00000013	addi	x0,x0,0	  x0:0x00000000
        3535000	       352	80004590	014f0323	sb	x20,6(x30)	 x30:0x80008dc9 x20:0x78000000 PA:0x80008dcf
        3545000	       353	80004594	00d71d93	slli	x27,x14,0xd	 x14:0x00000000 x27=0x00000000
        3555000	       354	80004598	419e0433	sub	x8,x28,x25	 x28:0xffffffb2 x25:0x0ce38514  x8=0xf31c7a9e
        3565000	       355	8000459c	01bf0523	sb	x27,10(x30)	 x30:0x80008dc9 x27:0x00000000 PA:0x80008dd3
        3575000	       356	800045a0	ff9f4b83	lbu	x23,-7(x30)	 x30:0x80008dc9 x23=0x000000ea PA:0x80008dc2
        3585000	       357	800045a4	4dbc8a93	addi	x21,x25,1243	 x25:0x0ce38514 x21=0x0ce389ef
        3595000	       358	800045a8	013f0323	sb	x19,6(x30)	 x30:0x80008dc9 x19:0x00000000 PA:0x80008dcf
        3605000	       359	800045ac	005f5e83	lhu	x29,5(x30)	 x30:0x80008dc9 x29=0x000000e2 PA:0x80008dce
        3615000	       360	800045b0	c0e9fb13	andi	x22,x19,-1010	 x19:0x00000000 x22=0x00000000
        3625000	       361	800045b4	007f5003	lhu	x0,7(x30)	 x30:0x80008dc9 PA:0x80008dd0
        3635000	       362	800045b8	009f10a3	sh	x9,1(x30)	 x30:0x80008dc9  x9:0xf00013ec PA:0x80008dca
        3645000	       363	800045bc	00004117	auipc	x2,0x4	  x2=0x800085b8
        3655000	       364	800045c0	69210113	addi	x2,x2,1682	  x2:0x800085b8  x2=0x80008c4a
        3665000	       365	800045c4	7aa0b293	sltiu	x5,x1,1962	  x1:0x000000b9  x5=0x00000001
        3675000	       366	800045c8	03310f23	sb	x19,62(x2)	  x2:0x80008c4a x19:0x00000000 PA:0x80008c88
        3685000	       367	800045cc	910c8a13	addi	x20,x25,-1776	 x25:0x0ce38514 x20=0x0ce37e24
        3695000	       368	800045d0	00411223	sh	x4,4(x2)	  x2:0x80008c4a  x4:0x000000d5 PA:0x80008c4e
        3705000	       369	800045d4	024105a3	sb	x4,43(x2)	  x2:0x80008c4a  x4:0x000000d5 PA:0x80008c75
        3715000	       370	800045d8	03f10c83	lb	x25,63(x2)	  x2:0x80008c4a x25=0xffffffea PA:0x80008c89
        3725000	       371	800045dc	fd414a83	lbu	x21,-44(x2)	  x2:0x80008c4a x21=0x000000bd PA:0x80008c1e
        3735000	       372	800045e0	02714a03	lbu	x20,39(x2)	  x2:0x80008c4a x20=0x0000008a PA:0x80008c71
        3745000	       373	800045e4	00000013	addi	x0,x0,0	  x0:0x00000000
        3755000	       374	800045e8	ffe11303	lh	x6,-2(x2)	  x2:0x80008c4a  x6=0xffffe385 PA:0x80008c48
        3765000	       375	800045ec	03c101a3	sb	x28,35(x2)	  x2:0x80008c4a x28:0xffffffb2 PA:0x80008c6d
        3775000	       376	800045f0	415bd993	srai	x19,x23,0x15	 x23:0x000000ea x19=0x00000000
        3785000	       377	800045f4	02c14403	lbu	x8,44(x2)	  x2:0x80008c4a  x8=0x000000eb PA:0x80008c76
        3795000	       378	800045f8	01014d83	lbu	x27,16(x2)	  x2:0x80008c4a x27=0x0000007c PA:0x80008c5a
        3805000	       379	800045fc	fce10ba3	sb	x14,-41(x2)	  x2:0x80008c4a x14:0x00000000 PA:0x80008c21
        3815000	       380	80004600	01b14683	lbu	x13,27(x2)	  x2:0x80008c4a x13=0x00000097 PA:0x80008c65
        3825000	       381	80004604	fc911a23	sh	x9,-44(x2)	  x2:0x80008c4a  x9:0xf00013ec PA:0x80008c1e
        3835000	       382	80004608	02615903	lhu	x18,38(x2)	  x2:0x80008c4a x18=0x00008a9d PA:0x80008c70
        3845000	       383	8000460c	b38fce13	xori	x28,x31,-1224	 x31:0x80009fc4 x28=0x7fff64fc
        3855000	       384	80004610	03810003	lb	x0,56(x2)	  x2:0x80008c4a PA:0x80008c82
        3865000	       385	80004614	01a35993	srli	x19,x6,0x1a	  x6:0xffffe385 x19=0x0000003f
        3875000	       386	80004618	03914403	lbu	x8,57(x2)	  x2:0x80008c4a  x8=0x00000018 PA:0x80008c83
        3885000	       387	8000461c	0046b0b3	sltu	x1,x13,x4	 x13:0x00000097  x4:0x000000d5  x1=0x00000001
        3895000	       388	80004620	00e219b3	sll	x19,x4,x14	  x4:0x000000d5 x14:0x00000000 x19=0x000000d5
        3905000	       389	80004624	01910903	lb	x18,25(x2)	  x2:0x80008c4a x18=0x00000055 PA:0x80008c63
        3915000	       390	80004628	fe7102a3	sb	x7,-27(x2)	  x2:0x80008c4a  x7:0x00000051 PA:0x80008c2f
        3925000	       391	8000462c	fc840d37	lui	x26,0xfc840	 x26=0xfc840000
        3935000	       392	80004630	405a5193	srai	x3,x20,0x5	 x20:0x0000008a  x3=0x00000004
        3945000	       393	80004634	012e2d13	slti	x26,x28,18	 x28:0x7fff64fc x26=0x00000000
        3955000	       394	80004638	00000013	addi	x0,x0,0	  x0:0x00000000
        3965000	       395	8000463c	fdd10d03	lb	x26,-35(x2)	  x2:0x80008c4a x26=0x0000006e PA:0x80008c27
        3975000	       396	80004640	02b14f03	lbu	x30,43(x2)	  x2:0x80008c4a x30=0x000000d5 PA:0x80008c75
        3985000	       397	80004644	fd612083	lw	x1,-42(x2)	  x2:0x80008c4a  x1=0x239f0072 PA:0x80008c20
        3995000	       398	80004648	00004317	auipc	x6,0x4	  x6=0x80008644
        4005000	       399	8000464c	6bb30313	addi	x6,x6,1723	  x6:0x80008644  x6=0x80008cff
        4015000	       400	80004650	004e7233	and	x4,x28,x4	 x28:0x7fff64fc  x4:0x000000d5  x4=0x000000d4
        4025000	       401	80004654	01479a93	slli	x21,x15,0x14	 x15:0xffffffa1 x21=0xfa100000
        4035000	       402	80004658	ffc30b03	lb	x22,-4(x6)	  x6:0x80008cff x22=0x00000038 PA:0x80008cfb
        4045000	       403	8000465c	aae82c13	slti	x24,x16,-1362	 x16:0x000000ad x24=0x00000000
        4055000	       404	80004660	00000013	addi	x0,x0,0	  x0:0x00000000
        4065000	       405	80004664	1d60e113	ori	x2,x1,470	  x1:0x239f0072  x2=0x239f01f6
        4075000	       406	80004668	6fbe2a13	slti	x20,x28,1787	 x28:0x7fff64fc x20=0x00000000
        4085000	       407	8000466c	a1954e97	auipc	x29,0xa1954	 x29=0x21958668
        4095000	       408	80004670	00930503	lb	x10,9(x6)	  x6:0x80008cff x10=0x00000029 PA:0x80008d08
        4105000	       409	80004674	01d87ab3	and	x21,x16,x29	 x16:0x000000ad x29:0x21958668 x21=0x00000028
        4115000	       410	80004678	00514bb3	xor	x23,x2,x5	  x2:0x239f01f6  x5:0x00000001 x23=0x239f01f7
        4125000	       411	8000467c	fe230c23	sb	x2,-8(x6)	  x6:0x80008cff  x2:0x239f01f6 PA:0x80008cf7
        4135000	       412	80004680	8607e493	ori	x9,x15,-1952	 x15:0xffffffa1  x9=0xffffffe1
        4145000	       413	80004684	0013d193	srli	x3,x7,0x1	  x7:0x00000051  x3=0x00000028
        4155000	       414	80004688	8de32c13	slti	x24,x6,-1826	  x6:0x80008cff x24=0x00000001
        4165000	       415	8000468c	0155ea33	or	x20,x11,x21	 x11:0x00000022 x21:0x00000028 x20=0x0000002a
        4175000	       416	80004690	56ba0e13	addi	x28,x20,1387	 x20:0x0000002a x28=0x00000595
        4185000	       417	80004694	ffe30983	lb	x19,-2(x6)	  x6:0x80008cff x19=0xffffffc3 PA:0x80008cfd
        4195000	       418	80004698	fa52ca13	xori	x20,x5,-91	  x5:0x00000001 x20=0xffffffa4
        4205000	       419	8000469c	0138a1b3	slt	x3,x17,x19	 x17:0x80009f60 x19:0xffffffc3  x3=0x00000001
        4215000	       420	800046a0	00dd1613	slli	x12,x26,0xd	 x26:0x0000006e x12=0x000dc000
        4225000	       421	800046a4	0179f1b3	and	x3,x19,x23	 x19:0xffffffc3 x23:0x239f01f7  x3=0x239f01c3
        4235000	       422	800046a8	010899b3	sll	x19,x17,x16	 x17:0x80009f60 x16:0x000000ad x19=0x13ec0000
        4245000	       423	800046ac	0b52b793	sltiu	x15,x5,181	  x5:0x00000001 x15=0x00000001
        4255000	       424	800046b0	ff430c03	lb	x24,-12(x6)	  x6:0x80008cff x24=0xffffffeb PA:0x80008cf3
        4265000	       425	800046b4	1f38cb37	lui	x22,0x1f38c	 x22=0x1f38c000
        4275000	       426	800046b8	00e955b3	srl	x11,x18,x14	 x18:0x00000055 x14:0x00000000 x11=0x00000055
        4285000	       427	800046bc	ff935b83	lhu	x23,-7(x6)	  x6:0x80008cff x23=0x0000c149 PA:0x80008cf8
        4295000	       428	800046c0	419f5913	srai	x18,x30,0x19	 x30:0x000000d5 x18=0x00000000
        4305000	       429	800046c4	00c34783	lbu	x15,12(x6)	  x6:0x80008cff x15=0x00000013 PA:0x80008d0b
        4315000	       430	800046c8	00430483	lb	x9,4(x6)	  x6:0x80008cff  x9=0x00000004 PA:0x80008d03
        4325000	       431	800046cc	ff230d23	sb	x18,-6(x6)	  x6:0x80008cff x18:0x00000000 PA:0x80008cf9
        4335000	       432	800046d0	00034583	lbu	x11,0(x6)	  x6:0x80008cff x11=0x00000065 PA:0x80008cff
        4345000	       433	800046d4	01396c33	or	x24,x18,x19	 x18:0x00000000 x19:0x13ec0000 x24=0x13ec0000
        4355000	       434	800046d8	08a3f293	andi	x5,x7,138	  x7:0x00000051  x5=0x00000000
        4365000	       435	800046dc	d40e0597	auipc	x11,0xd40e0	 x11=0x540e46d8
        4375000	       436	800046e0	00ac3433	sltu	x8,x24,x10	 x24:0x13ec0000 x10:0x00000029  x8=0x00000000
        4385000	       437	800046e4	41035c33	sra	x24,x6,x16	  x6:0x80008cff x16:0x000000ad x24=0xfffc0004
        4395000	       438	800046e8	00130783	lb	x15,1(x6)	  x6:0x80008cff x15=0xffffffe5 PA:0x80008d00
        4405000	       439	00000000	00000013	addi	x0,x0,0	  x0:0x00000000
        4415000	       440	800046ec	00f30383	lb	x7,15(x6)	  x6:0x80008cff  x7=0xfffffffb PA:0x80008d0e
        4425000	       441	800046f0	01f322a3	sw	x31,5(x6)	  x6:0x80008cff x31:0x80009fc4 PA:0x80008d04
        4435000	       442	800046f4	fff35403	lhu	x8,-1(x6)	  x6:0x80008cff  x8=0x000065cd PA:0x80008cfe
        4445000	       443	800046f8	00004e17	auipc	x28,0x4	 x28=0x800086f4
        4455000	       444	800046fc	d97e0e13	addi	x28,x28,-617	 x28:0x800086f4 x28=0x8000848b
        4465000	       445	80004700	4850d117	auipc	x2,0x4850d	  x2=0xc85116fc
        4475000	       446	80004704	ffce4283	lbu	x5,-4(x28)	 x28:0x8000848b  x5=0x00000029 PA:0x80008487
        4485000	       447	80004708	010e4b03	lbu	x22,16(x28)	 x28:0x8000848b x22=0x000000dd PA:0x8000849b
        4495000	       448	8000470c	41ca5233	sra	x4,x20,x28	 x20:0xffffffa4 x28:0x8000848b  x4=0xffffffff
        4505000	       449	80004710	fe1e1ba3	sh	x1,-9(x28)	 x28:0x8000848b  x1:0x239f0072 PA:0x80008482
        4515000	       450	80004714	0147c5b3	xor	x11,x15,x20	 x15:0xffffffe5 x20:0xffffffa4 x11=0x00000041
        4525000	       451	80004718	016e00a3	sb	x22,1(x28)	 x28:0x8000848b x22:0x000000dd PA:0x8000848c
        4535000	       452	8000471c	febe0fa3	sb	x11,-1(x28)	 x28:0x8000848b x11:0x00000041 PA:0x8000848a
        4545000	       453	80004720	4041d693	srai	x13,x3,0x4	  x3:0x239f01c3 x13=0x0239f01c
        4555000	       454	80004724	ff1e0683	lb	x13,-15(x28)	 x28:0x8000848b x13=0x00000001 PA:0x8000847c
        4565000	       455	80004728	ff2e0503	lb	x10,-14(x28)	 x28:0x8000848b x10=0xffffffc0 PA:0x8000847d
        4575000	       456	8000472c	008e4c83	lbu	x25,8(x28)	 x28:0x8000848b x25=0x00000030 PA:0x80008493
        4585000	       457	00000000	00000013	addi	x0,x0,0	  x0:0x00000000
        4595000	       458	80004730	009cdb13	srli	x22,x25,0x9	 x25:0x00000030 x22=0x00000000
        4605000	       459	80004734	92476113	ori	x2,x14,-1756	 x14:0x00000000  x2=0xfffff924
        4615000	       460	80004738	01af1593	slli	x11,x30,0x1a	 x30:0x000000d5 x11=0x54000000
        4625000	       461	8000473c	f437b513	sltiu	x10,x15,-189	 x15:0xffffffe5 x10=0x00000000
        4635000	       462	80004740	409cd413	srai	x8,x25,0x9	 x25:0x00000030  x8=0x00000000
        4645000	       463	80004744	ff5e2d03	lw	x26,-11(x28)	 x28:0x8000848b x26=0x00727c8c PA:0x80008480
        4655000	       464	80004748	005e4c03	lbu	x24,5(x28)	 x28:0x8000848b x24=0x000000ca PA:0x80008490
        4665000	       465	8000474c	ffae4203	lbu	x4,-6(x28)	 x28:0x8000848b  x4=0x0000003b PA:0x80008485
        4675000	       466	80004750	008e0483	lb	x9,8(x28)	 x28:0x8000848b  x9=0x00000030 PA:0x80008493
        4685000	       467	80004754	00be4303	lbu	x6,11(x28)	 x28:0x8000848b  x6=0x00000073 PA:0x80008496
        4695000	       468	80004758	ffde1b83	lh	x23,-3(x28)	 x28:0x8000848b x23=0x00006597 PA:0x80008488
        4705000	       469	8000475c	54590593	addi	x11,x18,1349	 x18:0x00000000 x11=0x00000545
        4715000	       470	80004760	65d0f193	andi	x3,x1,1629	  x1:0x239f0072  x3=0x00000050
        4725000	       471	80004764	ff2e4903	lbu	x18,-14(x28)	 x28:0x8000848b x18=0x000000c0 PA:0x8000847d
        4735000	       472	80004768	000c24b3	slt	x9,x24,x0	 x24:0x000000ca  x0:0x00000000  x9=0x00000000
        4745000	       473	8000476c	013b9433	sll	x8,x23,x19	 x23:0x00006597 x19:0x13ec0000  x8=0x00006597
        4755000	       474	80004770	ff2e4e83	lbu	x29,-14(x28)	 x28:0x8000848b x29=0x000000c0 PA:0x8000847d
        4765000	       475	80004774	ffae4383	lbu	x7,-6(x28)	 x28:0x8000848b  x7=0x0000003b PA:0x80008485
        4775000	       476	80004778	ff0e0d03	lb	x26,-16(x28)	 x28:0x8000848b x26=0x00000047 PA:0x8000847b
        4785000	       477	8000477c	00004617	auipc	x12,0x4	 x12=0x80008778
        4795000	       478	80004780	0b960613	addi	x12,x12,185	 x12:0x80008778 x12=0x80008831
        4805000	       479	80004784	008309b3	add	x19,x6,x8	  x6:0x00000073  x8:0x00006597 x19=0x0000660a
        4815000	       480	80004788	41075d13	srai	x26,x14,0x10	 x14:0x00000000 x26=0x00000000
        4825000	       481	8000478c	08d64383	lbu	x7,141(x12)	 x12:0x80008831  x7=0x00000087 PA:0x800088be
        4835000	       482	80004790	00b60023	sb	x11,0(x12)	 x12:0x80008831 x11:0x00000545 PA:0x80008831
        4845000	       483	80004794	07060483	lb	x9,112(x12)	 x12:0x80008831  x9=0xffffffd4 PA:0x800088a1
        4855000	       484	80004798	0e761e03	lh	x28,231(x12)	 x12:0x80008831 x28=0xfffffc00 PA:0x80008918
        4865000	       485	8000479c	706dc813	xori	x16,x27,1798	 x27:0x0000007c x16=0x0000077a
        4875000	       486	800047a0	c7af7837	lui	x16,0xc7af7	 x16=0xc7af7000
        4885000	       487	800047a4	0a761c83	lh	x25,167(x12)	 x12:0x80008831 x25=0x00001c78 PA:0x800088d8
        4895000	       488	00000000	00000013	addi	x0,x0,0	  x0:0x00000000
        4905000	       489	800047a8	019604a3	sb	x25,9(x12)	 x12:0x80008831 x25:0x00001c78 PA:0x8000883a
        4915000	       490	800047ac	09d60b83	lb	x23,157(x12)	 x12:0x80008831 x23=0x00000065 PA:0x800088ce
        4925000	       491	800047b0	015e24b3	slt	x9,x28,x21	 x28:0xfffffc00 x21:0x00000028  x9=0x00000001
        4935000	       492	800047b4	00000013	addi	x0,x0,0	  x0:0x00000000
        4945000	       493	800047b8	a8327b17	auipc	x22,0xa8327	 x22=0x2832b7b4
        4955000	       494	800047bc	09960d03	lb	x26,153(x12)	 x12:0x80008831 x26=0x00000044 PA:0x800088ca
        4965000	       495	800047c0	02e64a83	lbu	x21,46(x12)	 x12:0x80008831 x21=0x0000000c PA:0x8000885f
        4975000	       496	800047c4	01c4f933	and	x18,x9,x28	  x9:0x00000001 x28:0xfffffc00 x18=0x00000000
        4985000	       497	800047c8	008618a3	sh	x8,17(x12)	 x12:0x80008831  x8:0x00006597 PA:0x80008842
        4995000	       498	800047cc	008f17b3	sll	x15,x30,x8	 x30:0x000000d5  x8:0x00006597 x15=0x6a800000
        5005000	       499	800047d0	17248593	addi	x11,x9,370	  x9:0x00000001 x11=0x00000173
        5015000	       500	800047d4	02760023	sb	x7,32(x12)	 x12:0x80008831  x7:0x00000087 PA:0x80008851
        5025000	       501	800047d8	00004b97	auipc	x23,0x4	 x23=0x800087d4
        5035000	       502	800047dc	8f2b8b93	addi	x23,x23,-1806	 x23:0x800087d4 x23=0x800080c6
        5045000	       503	800047e0	014d9933	sll	x18,x27,x20	 x27:0x0000007c x20:0xffffffa4 x18=0x000007c0
        5055000	       504	800047e4	02db89a3	sb	x13,51(x23)	 x23:0x800080c6 x13:0x00000001 PA:0x800080f9
        5065000	       505	800047e8	03bb9c23	sh	x27,56(x23)	 x23:0x800080c6 x27:0x0000007c PA:0x800080fe
        5075000	       506	800047ec	000b75b3	and	x11,x22,x0	 x22:0x2832b7b4  x0:0x00000000 x11=0x00000000
        5085000	       507	800047f0	00000013	addi	x0,x0,0	  x0:0x00000000
        5095000	       508	800047f4	af5e6113	ori	x2,x28,-1291	 x28:0xfffffc00  x2=0xfffffef5
        5105000	       509	800047f8	024bc483	lbu	x9,36(x23)	 x23:0x800080c6  x9=0x000000d1 PA:0x800080ea
        5115000	       510	800047fc	fcbb80a3	sb	x11,-63(x23)	 x23:0x800080c6 x11:0x00000000 PA:0x80008087
        5125000	       511	80004800	004b8ca3	sb	x4,25(x23)	 x23:0x800080c6  x4:0x0000003b PA:0x800080df
        5135000	       512	80004804	70162a93	slti	x21,x12,1793	 x12:0x80008831 x21=0x00000001
        5145000	       513	80004808	a465a793	slti	x15,x11,-1466	 x11:0x00000000 x15=0x00000000
        5155000	       514	8000480c	009cc6b3	xor	x13,x25,x9	 x25:0x00001c78  x9:0x000000d1 x13=0x00001ca9
        5165000	       515	80004810	010b82a3	sb	x16,5(x23)	 x23:0x800080c6 x16:0xc7af7000 PA:0x800080cb
        5175000	       516	80004814	016bdd03	lhu	x26,22(x23)	 x23:0x800080c6 x26=0x00007726 PA:0x800080dc
        5185000	       517	80004818	000fc033	xor	x0,x31,x0	 x31:0x80009fc4  x0:0x00000000
        5195000	       518	8000481c	014bd483	lhu	x9,20(x23)	 x23:0x800080c6  x9=0x0000e17c PA:0x800080da
        5205000	       519	80004820	02db8ba3	sb	x13,55(x23)	 x23:0x800080c6 x13:0x00001ca9 PA:0x800080fd
        5215000	       520	80004824	03bb8603	lb	x12,59(x23)	 x23:0x800080c6 x12=0xffffff8a PA:0x80008101
        5225000	       521	80004828	03db81a3	sb	x29,35(x23)	 x23:0x800080c6 x29:0x000000c0 PA:0x800080e9
        5235000	       522	8000482c	010dc133	xor	x2,x27,x16	 x27:0x0000007c x16:0xc7af7000  x2=0xc7af707c
        5245000	       523	80004830	1e80ca13	xori	x20,x1,488	  x1:0x239f0072 x20=0x239f019a
        5255000	       524	80004834	ff7b8ca3	sb	x23,-7(x23)	 x23:0x800080c6 x23:0x800080c6 PA:0x800080bf
        5265000	       525	80004838	015bc103	lbu	x2,21(x23)	 x23:0x800080c6  x2=0x000000e1 PA:0x800080db
        5275000	       526	8000483c	0187fa63	bgeu	x15,x24,80004850	 x15:0x00000000 x24:0x000000ca
        5285000	       527	80004840	f5223213	sltiu	x4,x4,-174	  x4:0x0000003b  x4=0x00000001
        5295000	       528	80004844	008a1e13	slli	x28,x20,0x8	 x20:0x239f019a x28=0x9f019a00
        5305000	       529	80004848	013813b3	sll	x7,x16,x19	 x16:0xc7af7000 x19:0x0000660a  x7=0xbdc00000
        5315000	       530	8000484c	4160da13	srai	x20,x1,0x16	  x1:0x239f0072 x20=0x0000008e
        5325000	       531	80004850	de4abe17	auipc	x28,0xde4ab	 x28=0x5e4af84c
        5335000	       532	80004854	00c6cc33	xor	x24,x13,x12	 x13:0x00001ca9 x12:0xffffff8a x24=0xffffe323
        5345000	       533	80004858	012f1e13	slli	x28,x30,0x12	 x30:0x000000d5 x28=0x03540000
        5355000	       534	8000485c	009cc663	blt	x25,x9,80004868	 x25:0x00001c78  x9:0x0000e17c
        5365000	       535	00000000	00000013	addi	x0,x0,0	  x0:0x00000000
        5375000	       536	80004864	00000013	addi	x0,x0,0	  x0:0x00000000
        5385000	       537	80004868	017b1eb3	sll	x29,x22,x23	 x22:0x2832b7b4 x23:0x800080c6 x29=0x0caded00
        5395000	       538	8000486c	c4863e93	sltiu	x29,x12,-952	 x12:0xffffff8a x29=0x00000000
        5405000	       539	80004870	0444f063	bgeu	x9,x4,800048b0	  x9:0x0000e17c  x4:0x00000001
        5415000	       540	00000000	00000013	addi	x0,x0,0	  x0:0x00000000
        5425000	       541	800048ac	00000013	addi	x0,x0,0	  x0:0x00000000
        5435000	       542	800048b0	00340263	beq	x8,x3,800048b4	  x8:0x00006597  x3:0x00000050
        5445000	       543	800048b4	111abe37	lui	x28,0x111ab	 x28=0x111ab000
        5455000	       544	800048b8	41c7d013	srai	x0,x15,0x1c	 x15:0x00000000
        5465000	       545	800048bc	51b0e093	ori	x1,x1,1307	  x1:0x239f0072  x1=0x239f057b
        5475000	       546	800048c0	04c07263	bgeu	x0,x12,80004904	  x0:0x00000000 x12:0xffffff8a
        5485000	       547	800048c4	02a58063	beq	x11,x10,800048e4	 x11:0x00000000 x10:0x00000000
        5495000	       548	00000000	00000013	addi	x0,x0,0	  x0:0x00000000
        5505000	       549	800048e0	00000013	addi	x0,x0,0	  x0:0x00000000
        5515000	       550	800048e4	002d1a63	bne	x26,x2,800048f8	 x26:0x00007726  x2:0x000000e1
        5525000	       551	00000000	00000013	addi	x0,x0,0	  x0:0x00000000
        5535000	       552	800048f4	00000013	addi	x0,x0,0	  x0:0x00000000
        5545000	       553	800048f8	00ca86b3	add	x13,x21,x12	 x21:0x00000001 x12:0xffffff8a x13=0xffffff8b
        5555000	       554	800048fc	40138db3	sub	x27,x7,x1	  x7:0xbdc00000  x1:0x239f057b x27=0x9a20fa85
        5565000	       555	80004900	00007eb3	and	x29,x0,x0	  x0:0x00000000  x0:0x00000000 x29=0x00000000
        5575000	       556	80004904	01634833	xor	x16,x6,x22	  x6:0x00000073 x22:0x2832b7b4 x16=0x2832b7c7
        5585000	       557	80004908	0016aa33	slt	x20,x13,x1	 x13:0xffffff8b  x1:0x239f057b x20=0x00000001
        5595000	       558	8000490c	bf96e913	ori	x18,x13,-1031	 x13:0xffffff8b x18=0xfffffffb
        5605000	       559	80004910	0004bf33	sltu	x30,x9,x0	  x9:0x0000e17c  x0:0x00000000 x30=0x00000000
        5615000	       560	80004914	40335e13	srai	x28,x6,0x3	  x6:0x00000073 x28=0x0000000e
        5625000	       561	80004918	0109d093	srli	x1,x19,0x10	 x19:0x0000660a  x1=0x00000000
        5635000	       562	8000491c	01b915b3	sll	x11,x18,x27	 x18:0xfffffffb x27:0x9a20fa85 x11=0xffffff60
        5645000	       563	80004920	00e5e5b3	or	x11,x11,x14	 x11:0xffffff60 x14:0x00000000 x11=0xffffff60
        5655000	       564	80004924	02799a63	bne	x19,x7,80004958	 x19:0x0000660a  x7:0xbdc00000
        5665000	       565	00000000	00000013	addi	x0,x0,0	  x0:0x00000000
        5675000	       566	80004954	00000013	addi	x0,x0,0	  x0:0x00000000
        5685000	       567	80004958	418450b3	sra	x1,x8,x24	  x8:0x00006597 x24:0xffffe323  x1=0x00000cb2
        5695000	       568	8000495c	00835933	srl	x18,x6,x8	  x6:0x00000073  x8:0x00006597 x18=0x00000000
        5705000	       569	80004960	4f7cc113	xori	x2,x25,1271	 x25:0x00001c78  x2=0x0000188f
        5715000	       570	80004964	0162f0b3	and	x1,x5,x22	  x5:0x00000029 x22:0x2832b7b4  x1=0x00000020
        5725000	       571	80004968	01062833	slt	x16,x12,x16	 x12:0xffffff8a x16:0x2832b7c7 x16=0x00000001
        5735000	       572	8000496c	01ad5e33	srl	x28,x26,x26	 x26:0x00007726 x26:0x00007726 x28=0x000001dc
        5745000	       573	80004970	6e494c93	xori	x25,x18,1764	 x18:0x00000000 x25=0x000006e4
        5755000	       574	80004974	69ae0117	auipc	x2,0x69ae0	  x2=0xe9ae4970
        5765000	       575	80004978	056b0263	beq	x22,x22,800049bc	 x22:0x2832b7b4 x22:0x2832b7b4
        5775000	       576	00000000	00000013	addi	x0,x0,0	  x0:0x00000000
        5785000	       577	800049b8	00000013	addi	x0,x0,0	  x0:0x00000000
        5795000	       578	800049bc	04590263	beq	x18,x5,80004a00	 x18:0x00000000  x5:0x00000029
        5805000	       579	800049c0	00a4f1b3	and	x3,x9,x10	  x9:0x0000e17c x10:0x00000000  x3=0x00000000
        5815000	       580	800049c4	00f2f433	and	x8,x5,x15	  x5:0x00000029 x15:0x00000000  x8=0x00000000
        5825000	       581	800049c8	00e09a33	sll	x20,x1,x14	  x1:0x00000020 x14:0x00000000 x20=0x00000020
        5835000	       582	800049cc	011c1333	sll	x6,x24,x17	 x24:0xffffe323 x17:0x80009f60  x6=0xffffe323
        5845000	       583	800049d0	401a5a13	srai	x20,x20,0x1	 x20:0x00000020 x20=0x00000010
        5855000	       584	800049d4	014a4263	blt	x20,x20,800049d8	 x20:0x00000010 x20:0x00000010
        5865000	       585	800049d8	419205b3	sub	x11,x4,x25	  x4:0x00000001 x25:0x000006e4 x11=0xfffff91d
        5875000	       586	800049dc	9b08aa13	slti	x20,x17,-1616	 x17:0x80009f60 x20=0x00000001
        5885000	       587	800049e0	01d75463	bge	x14,x29,800049e8	 x14:0x00000000 x29:0x00000000
        5895000	       588	00000000	00000013	addi	x0,x0,0	  x0:0x00000000
        5905000	       589	800049e4	00000013	addi	x0,x0,0	  x0:0x00000000
        5915000	       590	800049e8	03307663	bgeu	x0,x19,80004a14	  x0:0x00000000 x19:0x0000660a
        5925000	       591	800049ec	01273333	sltu	x6,x14,x18	 x14:0x00000000 x18:0x00000000  x6=0x00000000
        5935000	       592	800049f0	41bed533	sra	x10,x29,x27	 x29:0x00000000 x27:0x9a20fa85 x10=0x00000000
        5945000	       593	800049f4	cbe09c37	lui	x24,0xcbe09	 x24=0xcbe09000
        5955000	       594	800049f8	40c08633	sub	x12,x1,x12	  x1:0x00000020 x12:0xffffff8a x12=0x00000096
        5965000	       595	800049fc	038e0663	beq	x28,x24,80004a28	 x28:0x000001dc x24:0xcbe09000
        5975000	       596	80004a00	41bcd193	srai	x3,x25,0x1b	 x25:0x000006e4  x3=0x00000000
        5985000	       597	80004a04	00c3b933	sltu	x18,x7,x12	  x7:0xbdc00000 x12:0x00000096 x18=0x00000000
        5995000	       598	80004a08	afdaaa97	auipc	x21,0xafdaa	 x21=0x2fdaea04
        6005000	       599	80004a0c	0aedfe13	andi	x28,x27,174	 x27:0x9a20fa85 x28=0x00000084
        6015000	       600	80004a10	01385a63	bge	x16,x19,80004a24	 x16:0x00000001 x19:0x0000660a
        6025000	       601	80004a14	00000013	addi	x0,x0,0	  x0:0x00000000
        6035000	       602	80004a18	f033f093	andi	x1,x7,-253	  x7:0xbdc00000  x1=0xbdc00000
        6045000	       603	80004a1c	62476097	auipc	x1,0x62476	  x1=0xe247aa18
        6055000	       604	80004a20	b1293f13	sltiu	x30,x18,-1262	 x18:0x00000000 x30=0x00000001
        6065000	       605	80004a24	24c0a417	auipc	x8,0x24c0a	  x8=0xa4c0ea20
        6075000	       606	80004a28	026aea63	bltu	x21,x6,80004a5c	 x21:0x2fdaea04  x6:0x00000000
        6085000	       607	80004a2c	d5b13b93	sltiu	x23,x2,-677	  x2:0xe9ae4970 x23=0x00000001
        6095000	       608	80004a30	fee3ce93	xori	x29,x7,-18	  x7:0xbdc00000 x29=0x423fffee
        6105000	       609	80004a34	05feac17	auipc	x24,0x5fea	 x24=0x85feea30
        6115000	       610	80004a38	01bcadb3	slt	x27,x25,x27	 x25:0x000006e4 x27:0x9a20fa85 x27=0x00000000
        6125000	       611	80004a3c	41be5093	srai	x1,x28,0x1b	 x28:0x00000084  x1=0x00000000
        6135000	       612	80004a40	fe7fe213	ori	x4,x31,-25	 x31:0x80009fc4  x4=0xffffffe7
        6145000	       613	80004a44	0031ca33	xor	x20,x3,x3	  x3:0x00000000  x3:0x00000000 x20=0x00000000
        6155000	       614	80004a48	40f55293	srai	x5,x10,0xf	 x10:0x00000000  x5=0x00000000
        6165000	       615	80004a4c	00c9f7b3	and	x15,x19,x12	 x19:0x0000660a x12:0x00000096 x15=0x00000002
        6175000	       616	80004a50	00cfc133	xor	x2,x31,x12	 x31:0x80009fc4 x12:0x00000096  x2=0x80009f52
        6185000	       617	80004a54	f5830b93	addi	x23,x6,-168	  x6:0x00000000 x23=0xffffff58
        6195000	       618	80004a58	015dc7b3	xor	x15,x27,x21	 x27:0x00000000 x21:0x2fdaea04 x15=0x2fdaea04
        6205000	       619	80004a5c	01d434b3	sltu	x9,x8,x29	  x8:0xa4c0ea20 x29:0x423fffee  x9=0x00000000
        6215000	       620	80004a60	051ef663	bgeu	x29,x17,80004aac	 x29:0x423fffee x17:0x80009f60
        6225000	       621	80004a64	015e5b13	srli	x22,x28,0x15	 x28:0x00000084 x22=0x00000000
        6235000	       622	80004a68	01079b33	sll	x22,x15,x16	 x15:0x2fdaea04 x16:0x00000001 x22=0x5fb5d408
        6245000	       623	80004a6c	00b0e833	or	x16,x1,x11	  x1:0x00000000 x11:0xfffff91d x16=0xfffff91d
        6255000	       624	80004a70	79247cb7	lui	x25,0x79247	 x25=0x79247000
        6265000	       625	80004a74	00785213	srli	x4,x16,0x7	 x16:0xfffff91d  x4=0x01fffff2
        6275000	       626	80004a78	00b71593	slli	x11,x14,0xb	 x14:0x00000000 x11=0x00000000
        6285000	       627	80004a7c	00ea9e13	slli	x28,x21,0xe	 x21:0x2fdaea04 x28=0xba810000
        6295000	       628	80004a80	c8542093	slti	x1,x8,-891	  x8:0xa4c0ea20  x1=0x00000001
        6305000	       629	80004a84	02d98663	beq	x19,x13,80004ab0	 x19:0x0000660a x13:0xffffff8b
        6315000	       630	80004a88	00b85a63	bge	x16,x11,80004a9c	 x16:0xfffff91d x11:0x00000000
        6325000	       631	80004a8c	01470333	add	x6,x14,x20	 x14:0x00000000 x20:0x00000000  x6=0x00000000
        6335000	       632	80004a90	c096ad13	slti	x26,x13,-1015	 x13:0xffffff8b x26=0x00000000
        6345000	       633	80004a94	001e6eb3	or	x29,x28,x1	 x28:0xba810000  x1:0x00000001 x29=0xba810001
        6355000	       634	80004a98	40a15b93	srai	x23,x2,0xa	  x2:0x80009f52 x23=0xffe00027
        6365000	       635	80004a9c	41f20633	sub	x12,x4,x31	  x4:0x01fffff2 x31:0x80009fc4 x12=0x81ff602e
        6375000	       636	80004aa0	70444a37	lui	x20,0x70444	 x20=0x70444000
        6385000	       637	80004aa4	01a27263	bgeu	x4,x26,80004aa8	  x4:0x01fffff2 x26:0x00000000
        6395000	       638	00000000	00000013	addi	x0,x0,0	  x0:0x00000000
        6405000	       639	80004aa4	00000013	addi	x0,x0,0	  x0:0x00000000
        6415000	       640	80004aa8	41d55c93	srai	x25,x10,0x1d	 x10:0x00000000 x25=0x00000000
        6425000	       641	80004aac	03affc63	bgeu	x31,x26,80004ae4	 x31:0x80009fc4 x26:0x00000000
        6435000	       642	00000000	00000013	addi	x0,x0,0	  x0:0x00000000
        6445000	       643	80004ae0	00000013	addi	x0,x0,0	  x0:0x00000000
        6455000	       644	80004ae4	00b9df13	srli	x30,x19,0xb	 x19:0x0000660a x30=0x0000000c
        6465000	       645	80004ae8	bf212593	slti	x11,x2,-1038	  x2:0x80009f52 x11=0x00000001
        6475000	       646	80004aec	001b6833	or	x16,x22,x1	 x22:0x5fb5d408  x1:0x00000001 x16=0x5fb5d409
        6485000	       647	80004af0	acfbb337	lui	x6,0xacfbb	  x6=0xacfbb000
        6495000	       648	80004af4	00000013	addi	x0,x0,0	  x0:0x00000000
        6505000	       649	80004af8	7adafd13	andi	x26,x21,1965	 x21:0x2fdaea04 x26=0x00000204
        6515000	       650	80004afc	417cd833	sra	x16,x25,x23	 x25:0x00000000 x23:0xffe00027 x16=0x00000000
        6525000	       651	80004b00	b26f8393	addi	x7,x31,-1242	 x31:0x80009fc4  x7=0x80009aea
        6535000	       652	80004b04	fafa8293	addi	x5,x21,-81	 x21:0x2fdaea04  x5=0x2fdae9b3
        6545000	       653	80004b08	9c52a413	slti	x8,x5,-1595	  x5:0x2fdae9b3  x8=0x00000000
        6555000	       654	80004b0c	036d5463	bge	x26,x22,80004b34	 x26:0x00000204 x22:0x5fb5d408
        6565000	       655	80004b10	01a6e933	or	x18,x13,x26	 x13:0xffffff8b x26:0x00000204 x18=0xffffff8f
        6575000	       656	80004b14	0027e133	or	x2,x15,x2	 x15:0x2fdaea04  x2:0x80009f52  x2=0xafdaff56
        6585000	       657	80004b18	01717d33	and	x26,x2,x23	  x2:0xafdaff56 x23:0xffe00027 x26=0xafc00006
        6595000	       658	80004b1c	1eed4793	xori	x15,x26,494	 x26:0xafc00006 x15=0xafc001e8
        6605000	       659	80004b20	016071b3	and	x3,x0,x22	  x0:0x00000000 x22:0x5fb5d408  x3=0x00000000
        6615000	       660	80004b24	dd484b37	lui	x22,0xdd484	 x22=0xdd484000
        6625000	       661	80004b28	6ce6b693	sltiu	x13,x13,1742	 x13:0xffffff8b x13=0x00000000
        6635000	       662	80004b2c	1e862b13	slti	x22,x12,488	 x12:0x81ff602e x22=0x00000001
        6645000	       663	80004b30	80fd8913	addi	x18,x27,-2033	 x27:0x00000000 x18=0xfffff80f
        6655000	       664	80004b34	015bd863	bge	x23,x21,80004b44	 x23:0xffe00027 x21:0x2fdaea04
        6665000	       665	80004b38	0022bc33	sltu	x24,x5,x2	  x5:0x2fdae9b3  x2:0xafdaff56 x24=0x00000001
        6675000	       666	80004b3c	01472c33	slt	x24,x14,x20	 x14:0x00000000 x20:0x70444000 x24=0x00000001
        6685000	       667	80004b40	00781013	slli	x0,x16,0x7	 x16:0x00000000
        6695000	       668	80004b44	00a95793	srli	x15,x18,0xa	 x18:0xfffff80f x15=0x003ffffe
        6705000	       669	80004b48	01a14db3	xor	x27,x2,x26	  x2:0xafdaff56 x26:0xafc00006 x27=0x001aff50
        6715000	       670	80004b4c	1a5d0e93	addi	x29,x26,421	 x26:0xafc00006 x29=0xafc001ab
        6725000	       671	80004b50	2cff7513	andi	x10,x30,719	 x30:0x0000000c x10=0x0000000c
        6735000	       672	80004b54	99a48393	addi	x7,x9,-1638	  x9:0x00000000  x7=0xfffff99a
        6745000	       673	80004b58	5a984693	xori	x13,x16,1449	 x16:0x00000000 x13=0x000005a9
        6755000	       674	80004b5c	00905613	srli	x12,x0,0x9	  x0:0x00000000 x12=0x00000000
        6765000	       675	80004b60	1e066c13	ori	x24,x12,480	 x12:0x00000000 x24=0x000001e0
        6775000	       676	80004b64	01f66c63	bltu	x12,x31,80004b7c	 x12:0x00000000 x31:0x80009fc4
        6785000	       677	00000000	00000013	addi	x0,x0,0	  x0:0x00000000
        6795000	       678	80004b78	00000013	addi	x0,x0,0	  x0:0x00000000
        6805000	       679	80004b7c	01961a63	bne	x12,x25,80004b90	 x12:0x00000000 x25:0x00000000
        6815000	       680	80004b80	01570263	beq	x14,x21,80004b84	 x14:0x00000000 x21:0x2fdaea04
        6825000	       681	80004b84	bc5c6013	ori	x0,x24,-1083	 x24:0x000001e0
        6835000	       682	80004b88	0164ae33	slt	x28,x9,x22	  x9:0x00000000 x22:0x00000001 x28=0x00000001
        6845000	       683	80004b8c	a6862197	auipc	x3,0xa6862	  x3=0x26866b88
        6855000	       684	80004b90	04a6f263	bgeu	x13,x10,80004bd4	 x13:0x000005a9 x10:0x0000000c
        6865000	       685	00000000	00000013	addi	x0,x0,0	  x0:0x00000000
        6875000	       686	80004bd0	00000013	addi	x0,x0,0	  x0:0x00000000
        6885000	       687	80004bd4	9e267793	andi	x15,x12,-1566	 x12:0x00000000 x15=0x00000000
        6895000	       688	80004bd8	01948a33	add	x20,x9,x25	  x9:0x00000000 x25:0x00000000 x20=0x00000000
        6905000	       689	80004bdc	4127d513	srai	x10,x15,0x12	 x15:0x00000000 x10=0x00000000
        6915000	       690	80004be0	897fa993	slti	x19,x31,-1897	 x31:0x80009fc4 x19=0x00000001
        6925000	       691	80004be4	0143f663	bgeu	x7,x20,80004bf0	  x7:0xfffff99a x20:0x00000000
        6935000	       692	00000000	00000013	addi	x0,x0,0	  x0:0x00000000
        6945000	       693	80004bec	00000013	addi	x0,x0,0	  x0:0x00000000
        6955000	       694	80004bf0	029cc263	blt	x25,x9,80004c14	 x25:0x00000000  x9:0x00000000
        6965000	       695	80004bf4	00ff43b3	xor	x7,x30,x15	 x30:0x0000000c x15:0x00000000  x7=0x0000000c
        6975000	       696	80004bf8	013e95b3	sll	x11,x29,x19	 x29:0xafc001ab x19:0x00000001 x11=0x5f800356
        6985000	       697	80004bfc	00000013	addi	x0,x0,0	  x0:0x00000000
        6995000	       698	80004c00	41d789b3	sub	x19,x15,x29	 x15:0x00000000 x29:0xafc001ab x19=0x503ffe55
        7005000	       699	80004c04	01f4d093	srli	x1,x9,0x1f	  x9:0x00000000  x1=0x00000000
        7015000	       700	80004c08	798f8413	addi	x8,x31,1944	 x31:0x80009fc4  x8=0x8000a75c
        7025000	       701	80004c0c	00575133	srl	x2,x14,x5	 x14:0x00000000  x5:0x2fdae9b3  x2=0x00000000
        7035000	       702	80004c10	00c605b3	add	x11,x12,x12	 x12:0x00000000 x12:0x00000000 x11=0x00000000
        7045000	       703	80004c14	01d9ed33	or	x26,x19,x29	 x19:0x503ffe55 x29:0xafc001ab x26=0xffffffff
        7055000	       704	80004c18	016f7e33	and	x28,x30,x22	 x30:0x0000000c x22:0x00000001 x28=0x00000000
        7065000	       705	80004c1c	00cd91b3	sll	x3,x27,x12	 x27:0x001aff50 x12:0x00000000  x3=0x001aff50
        7075000	       706	80004c20	00a6cbb3	xor	x23,x13,x10	 x13:0x000005a9 x10:0x00000000 x23=0x000005a9
        7085000	       707	80004c24	6bb4bd17	auipc	x26,0x6bb4b	 x26=0xebb4fc20
        7095000	       708	80004c28	00636c63	bltu	x6,x6,80004c40	  x6:0xacfbb000  x6:0xacfbb000
        7105000	       709	80004c2c	41825c13	srai	x24,x4,0x18	  x4:0x01fffff2 x24=0x00000001
        7115000	       710	80004c30	019e1c63	bne	x28,x25,80004c48	 x28:0x00000000 x25:0x00000000
        7125000	       711	80004c34	45d66b13	ori	x22,x12,1117	 x12:0x00000000 x22=0x0000045d
        7135000	       712	80004c38	00737f33	and	x30,x6,x7	  x6:0xacfbb000  x7:0x0000000c x30=0x00000000
        7145000	       713	80004c3c	00d1dcb3	srl	x25,x3,x13	  x3:0x001aff50 x13:0x000005a9 x25=0x00000d7f
        7155000	       714	80004c40	02613313	sltiu	x6,x2,38	  x2:0x00000000  x6=0x00000001
        7165000	       715	80004c44	008bdc33	srl	x24,x23,x8	 x23:0x000005a9  x8:0x8000a75c x24=0x00000000
        7175000	       716	80004c48	002ffcb3	and	x25,x31,x2	 x31:0x80009fc4  x2:0x00000000 x25=0x00000000
        7185000	       717	80004c4c	569e8793	addi	x15,x29,1385	 x29:0xafc001ab x15=0xafc00714
        7195000	       718	80004c50	6c5eca13	xori	x20,x29,1733	 x29:0xafc001ab x20=0xafc0076e
        7205000	       719	80004c54	408ad533	sra	x10,x21,x8	 x21:0x2fdaea04  x8:0x8000a75c x10=0x00000002
        7215000	       720	80004c58	0153ad33	slt	x26,x7,x21	  x7:0x0000000c x21:0x2fdaea04 x26=0x00000001
        7225000	       721	80004c5c	822ff193	andi	x3,x31,-2014	 x31:0x80009fc4  x3=0x80009800
        7235000	       722	80004c60	01b2d113	srli	x2,x5,0x1b	  x5:0x2fdae9b3  x2=0x00000005
        7245000	       723	80004c64	02c7c863	blt	x15,x12,80004c94	 x15:0xafc00714 x12:0x00000000
        7255000	       724	00000000	00000013	addi	x0,x0,0	  x0:0x00000000
        7265000	       725	80004c90	00000013	addi	x0,x0,0	  x0:0x00000000
        7275000	       726	80004c94	01f099b3	sll	x19,x1,x31	  x1:0x00000000 x31:0x80009fc4 x19=0x00000000
        7285000	       727	80004c98	c4e9fc93	andi	x25,x19,-946	 x19:0x00000000 x25=0x00000000
        7295000	       728	80004c9c	00000013	addi	x0,x0,0	  x0:0x00000000
        7305000	       729	80004ca0	0060fc33	and	x24,x1,x6	  x1:0x00000000  x6:0x00000001 x24=0x00000000
        7315000	       730	80004ca4	0092f533	and	x10,x5,x9	  x5:0x2fdae9b3  x9:0x00000000 x10=0x00000000
        7325000	       731	80004ca8	01361f13	slli	x30,x12,0x13	 x12:0x00000000 x30=0x00000000
        7335000	       732	80004cac	005f36b3	sltu	x13,x30,x5	 x30:0x00000000  x5:0x2fdae9b3 x13=0x00000001
        7345000	       733	80004cb0	05ace663	bltu	x25,x26,80004cfc	 x25:0x00000000 x26:0x00000001
        7355000	       734	00000000	00000013	addi	x0,x0,0	  x0:0x00000000
        7365000	       735	80004cf8	00000013	addi	x0,x0,0	  x0:0x00000000
        7375000	       736	80004cfc	01b74e33	xor	x28,x14,x27	 x14:0x00000000 x27:0x001aff50 x28=0x001aff50
        7385000	       737	80004d00	00fd8a63	beq	x27,x15,80004d14	 x27:0x001aff50 x15:0xafc00714
        7395000	       738	80004d04	f5634013	xori	x0,x6,-170	  x6:0x00000001
        7405000	       739	80004d08	1d9eab13	slti	x22,x29,473	 x29:0xafc001ab x22=0x00000001
        7415000	       740	80004d0c	ebad3693	sltiu	x13,x26,-326	 x26:0x00000001 x13=0x00000001
        7425000	       741	80004d10	40e65293	srai	x5,x12,0xe	 x12:0x00000000  x5=0x00000000
        7435000	       742	80004d14	00000013	addi	x0,x0,0	  x0:0x00000000
        7445000	       743	80004d18	db188213	addi	x4,x17,-591	 x17:0x80009f60  x4=0x80009d11
        7455000	       744	80004d1c	0b6c8d37	lui	x26,0xb6c8	 x26=0x0b6c8000
        7465000	       745	80004d20	0500e263	bltu	x1,x16,80004d64	  x1:0x00000000 x16:0x00000000
        7475000	       746	80004d24	02041663	bne	x8,x0,80004d50	  x8:0x8000a75c  x0:0x00000000
        7485000	       747	00000000	00000013	addi	x0,x0,0	  x0:0x00000000
        7495000	       748	80004d4c	00000013	addi	x0,x0,0	  x0:0x00000000
        7505000	       749	80004d50	0a51fa93	andi	x21,x3,165	  x3:0x80009800 x21=0x00000000
        7515000	       750	80004d54	017c5a93	srli	x21,x24,0x17	 x24:0x00000000 x21=0x00000000
        7525000	       751	80004d58	01ffda63	bge	x31,x31,80004d6c	 x31:0x80009fc4 x31:0x80009fc4
        7535000	       752	00000000	00000013	addi	x0,x0,0	  x0:0x00000000
        7545000	       753	80004d68	00000013	addi	x0,x0,0	  x0:0x00000000
        7555000	       754	80004d6c	01d35393	srli	x7,x6,0x1d	  x6:0x00000001  x7=0x00000000
        7565000	       755	80004d70	0063eeb3	or	x29,x7,x6	  x7:0x00000000  x6:0x00000001 x29=0x00000001
        7575000	       756	80004d74	037c4863	blt	x24,x23,80004da4	 x24:0x00000000 x23:0x000005a9
        7585000	       757	00000000	00000013	addi	x0,x0,0	  x0:0x00000000
        7595000	       758	80004da0	00000013	addi	x0,x0,0	  x0:0x00000000
        7605000	       759	80004da4	00ba5633	srl	x12,x20,x11	 x20:0xafc0076e x11:0x00000000 x12=0xafc0076e
        7615000	       760	80004da8	011b5a93	srli	x21,x22,0x11	 x22:0x00000001 x21=0x00000000
        7625000	       761	80004dac	01f00933	add	x18,x0,x31	  x0:0x00000000 x31:0x80009fc4 x18=0x80009fc4
        7635000	       762	80004db0	00c24333	xor	x6,x4,x12	  x4:0x80009d11 x12:0xafc0076e  x6=0x2fc09a7f
        7645000	       763	80004db4	01b29813	slli	x16,x5,0x1b	  x5:0x00000000 x16=0x00000000
        7655000	       764	80004db8	625c8693	addi	x13,x25,1573	 x25:0x00000000 x13=0x00000625
        7665000	       765	80004dbc	00c5bdb3	sltu	x27,x11,x12	 x11:0x00000000 x12:0xafc0076e x27=0x00000001
        7675000	       766	80004dc0	0124de13	srli	x28,x9,0x12	  x9:0x00000000 x28=0x00000000
        7685000	       767	80004dc4	a8097e93	andi	x29,x18,-1408	 x18:0x80009fc4 x29=0x80009a80
        7695000	       768	80004dc8	034c1c63	bne	x24,x20,80004e00	 x24:0x00000000 x20:0xafc0076e
        7705000	       769	00000000	00000013	addi	x0,x0,0	  x0:0x00000000
        7715000	       770	80004dfc	00000013	addi	x0,x0,0	  x0:0x00000000
        7725000	       771	80004e00	00cbe3b3	or	x7,x23,x12	 x23:0x000005a9 x12:0xafc0076e  x7=0xafc007ef
        7735000	       772	80004e04	019a4c63	blt	x20,x25,80004e1c	 x20:0xafc0076e x25:0x00000000
        7745000	       773	00000000	00000013	addi	x0,x0,0	  x0:0x00000000
        7755000	       774	80004e18	00000013	addi	x0,x0,0	  x0:0x00000000
        7765000	       775	80004e1c	0092e2b3	or	x5,x5,x9	  x5:0x00000000  x9:0x00000000  x5=0x00000000
        7775000	       776	80004e20	ecad2413	slti	x8,x26,-310	 x26:0x0b6c8000  x8=0x00000000
        7785000	       777	80004e24	008cd793	srli	x15,x25,0x8	 x25:0x00000000 x15=0x00000000
        7795000	       778	80004e28	7e27e013	ori	x0,x15,2018	 x15:0x00000000
        7805000	       779	80004e2c	4063d213	srai	x4,x7,0x6	  x7:0xafc007ef  x4=0xfebf001f
        7815000	       780	80004e30	4008dbb3	sra	x23,x17,x0	 x17:0x80009f60  x0:0x00000000 x23=0x80009f60
        7825000	       781	80004e34	ef9ba493	slti	x9,x23,-263	 x23:0x80009f60  x9=0x00000001
        7835000	       782	80004e38	00f04033	xor	x0,x0,x15	  x0:0x00000000 x15:0x00000000
        7845000	       783	80004e3c	0177e4b3	or	x9,x15,x23	 x15:0x00000000 x23:0x80009f60  x9=0x80009f60
        7855000	       784	80004e40	036aeb93	ori	x23,x21,54	 x21:0x00000000 x23=0x00000036
        7865000	       785	80004e44	0c195e63	bge	x18,x1,80004f20	 x18:0x80009fc4  x1:0x00000000
        7875000	       786	80004e48	03239497	auipc	x9,0x3239	  x9=0x8323de44
        7885000	       787	80004e4c	01171463	bne	x14,x17,80004e54	 x14:0x00000000 x17:0x80009f60
        7895000	       788	00000000	00000013	addi	x0,x0,0	  x0:0x00000000
        7905000	       789	80004e50	00000013	addi	x0,x0,0	  x0:0x00000000
        7915000	       790	80004e54	b4cc0013	addi	x0,x24,-1204	 x24:0x00000000
        7925000	       791	80004e58	016e95b3	sll	x11,x29,x22	 x29:0x80009a80 x22:0x00000001 x11=0x00013500
        7935000	       792	80004e5c	004f9eb3	sll	x29,x31,x4	 x31:0x80009fc4  x4:0xfebf001f x29=0x00000000
        7945000	       793	80004e60	00004117	auipc	x2,0x4	  x2=0x80008e5c
        7955000	       794	80004e64	0c410113	addi	x2,x2,196	  x2:0x80008e5c  x2=0x80008f20
        7965000	       795	80004e68	d67ceb93	ori	x23,x25,-665	 x25:0x00000000 x23=0xfffffd67
        7975000	       796	80004e6c	f7910203	lb	x4,-135(x2)	  x2:0x80008f20  x4=0x00000030 PA:0x80008e99
        7985000	       797	80004e70	2f498693	addi	x13,x19,756	 x19:0x00000000 x13=0x000002f4
        7995000	       798	80004e74	f6398613	addi	x12,x19,-157	 x19:0x00000000 x12=0xffffff63
        8005000	       799	80004e78	09f10803	lb	x16,159(x2)	  x2:0x80008f20 x16=0xffffff84 PA:0x80008fbf
        8015000	       800	80004e7c	411a5813	srai	x16,x20,0x11	 x20:0xafc0076e x16=0xffffd7e0
        8025000	       801	80004e80	006086b3	add	x13,x1,x6	  x1:0x00000000  x6:0x2fc09a7f x13=0x2fc09a7f
        8035000	       802	80004e84	04710da3	sb	x7,91(x2)	  x2:0x80008f20  x7:0xafc007ef PA:0x80008f7b
        8045000	       803	80004e88	01a291b3	sll	x3,x5,x26	  x5:0x00000000 x26:0x0b6c8000  x3=0x00000000
        8055000	       804	80004e8c	005dd0b3	srl	x1,x27,x5	 x27:0x00000001  x5:0x00000000  x1=0x00000001
        8065000	       805	80004e90	a322ddb7	lui	x27,0xa322d	 x27=0xa322d000
        8075000	       806	80004e94	0a510a83	lb	x21,165(x2)	  x2:0x80008f20 x21=0x00000045 PA:0x80008fc5
        8085000	       807	80004e98	2877ad17	auipc	x26,0x2877a	 x26=0xa877ee94
        8095000	       808	80004e9c	012b47b3	xor	x15,x22,x18	 x22:0x00000001 x18:0x80009fc4 x15=0x80009fc5
        8105000	       809	80004ea0	0bf11823	sh	x31,176(x2)	  x2:0x80008f20 x31:0x80009fc4 PA:0x80008fd0
        8115000	       810	80004ea4	06860e13	addi	x28,x12,104	 x12:0xffffff63 x28=0xffffffcb
        8125000	       811	80004ea8	a57d0493	addi	x9,x26,-1449	 x26:0xa877ee94  x9=0xa877e8eb
        8135000	       812	80004eac	00897b33	and	x22,x18,x8	 x18:0x80009fc4  x8:0x00000000 x22=0x00000000
        8145000	       813	80004eb0	5b730c13	addi	x24,x6,1463	  x6:0x2fc09a7f x24=0x2fc0a036
        8155000	       814	80004eb4	f7210823	sb	x18,-144(x2)	  x2:0x80008f20 x18:0x80009fc4 PA:0x80008e90
        8165000	       815	80004eb8	41d45b33	sra	x22,x8,x29	  x8:0x00000000 x29:0x00000000 x22=0x00000000
        8175000	       816	80004ebc	fa410da3	sb	x4,-69(x2)	  x2:0x80008f20  x4:0x00000030 PA:0x80008edb
        8185000	       817	80004ec0	000985b3	add	x11,x19,x0	 x19:0x00000000  x0:0x00000000 x11=0x00000000
        8195000	       818	80004ec4	016bca33	xor	x20,x23,x22	 x23:0xfffffd67 x22:0x00000000 x20=0xfffffd67
        8205000	       819	80004ec8	f4710583	lb	x11,-185(x2)	  x2:0x80008f20 x11=0x00000036 PA:0x80008e67
        8215000	       820	80004ecc	016e74b3	and	x9,x28,x22	 x28:0xffffffcb x22:0x00000000  x9=0x00000000
        8225000	       821	80004ed0	07f4bcb7	lui	x25,0x7f4b	 x25=0x07f4b000
        8235000	       822	80004ed4	f4510b23	sb	x5,-170(x2)	  x2:0x80008f20  x5:0x00000000 PA:0x80008e76
        8245000	       823	80004ed8	0c015083	lhu	x1,192(x2)	  x2:0x80008f20  x1=0x00008c8d PA:0x80008fe0
        8255000	       824	80004edc	fb2106a3	sb	x18,-83(x2)	  x2:0x80008f20 x18:0x80009fc4 PA:0x80008ecd
        8265000	       825	80004ee0	00000013	addi	x0,x0,0	  x0:0x00000000
        8275000	       826	80004ee4	01437db3	and	x27,x6,x20	  x6:0x2fc09a7f x20:0xfffffd67 x27=0x2fc09867
        8285000	       827	80004ee8	fc014003	lbu	x0,-64(x2)	  x2:0x80008f20 PA:0x80008ee0
        8295000	       828	80004eec	00000013	addi	x0,x0,0	  x0:0x00000000
        8305000	       829	80004ef0	fff10b03	lb	x22,-1(x2)	  x2:0x80008f20 x22=0x0000001f PA:0x80008f1f
        8315000	       830	80004ef4	ff914783	lbu	x15,-7(x2)	  x2:0x80008f20 x15=0x00000057 PA:0x80008f19
        8325000	       831	80004ef8	128eb913	sltiu	x18,x29,296	 x29:0x00000000 x18=0x00000001
        8335000	       832	80004efc	0177da93	srli	x21,x15,0x17	 x15:0x00000057 x21=0x00000000
        8345000	       833	80004f00	0f873793	sltiu	x15,x14,248	 x14:0x00000000 x15=0x00000001
        8355000	       834	80004f04	11526913	ori	x18,x4,277	  x4:0x00000030 x18=0x00000135
        8365000	       835	80004f08	03446263	bltu	x8,x20,80004f2c	  x8:0x00000000 x20:0xfffffd67
        8375000	       836	00000000	00000013	addi	x0,x0,0	  x0:0x00000000
        8385000	       837	80004f28	00000013	addi	x0,x0,0	  x0:0x00000000
        8395000	       838	80004f2c	0459d663	bge	x19,x5,80004f78	 x19:0x00000000  x5:0x00000000
        8405000	       839	00000000	00000013	addi	x0,x0,0	  x0:0x00000000
        8415000	       840	80004f74	00000013	addi	x0,x0,0	  x0:0x00000000
        8425000	       841	80004f78	00000013	addi	x0,x0,0	  x0:0x00000000
        8435000	       842	80004f7c	01ffd793	srli	x15,x31,0x1f	 x31:0x80009fc4 x15=0x00000001
        8445000	       843	80004f80	02b30663	beq	x6,x11,80004fac	  x6:0x2fc09a7f x11:0x00000036
        8455000	       844	80004f84	41eb5b93	srai	x23,x22,0x1e	 x22:0x0000001f x23=0x00000000
        8465000	       845	80004f88	054f1263	bne	x30,x20,80004fcc	 x30:0x00000000 x20:0xfffffd67
        8475000	       846	00000000	00000013	addi	x0,x0,0	  x0:0x00000000
        8485000	       847	80004fc8	00000013	addi	x0,x0,0	  x0:0x00000000
        8495000	       848	80004fcc	0106ccb3	xor	x25,x13,x16	 x13:0x2fc09a7f x16:0xffffd7e0 x25=0xd03f4d9f
        8505000	       849	80004fd0	00dfcbb3	xor	x23,x31,x13	 x31:0x80009fc4 x13:0x2fc09a7f x23=0xafc005bb
        8515000	       850	80004fd4	710cbe93	sltiu	x29,x25,1808	 x25:0xd03f4d9f x29=0x00000000
        8525000	       851	80004fd8	984dd697	auipc	x13,0x984dd	 x13=0x184e1fd4
        8535000	       852	80004fdc	00e55b93	srli	x23,x10,0xe	 x10:0x00000000 x23=0x00000000
        8545000	       853	80004fe0	01de0f33	add	x30,x28,x29	 x28:0xffffffcb x29:0x00000000 x30=0xffffffcb
        8555000	       854	80004fe4	01799c63	bne	x19,x23,80004ffc	 x19:0x00000000 x23:0x00000000
        8565000	       855	80004fe8	02a2fa63	bgeu	x5,x10,8000501c	  x5:0x00000000 x10:0x00000000
        8575000	       856	00000000	00000013	addi	x0,x0,0	  x0:0x00000000
        8585000	       857	80005018	00000013	addi	x0,x0,0	  x0:0x00000000
        8595000	       858	8000501c	00261513	slli	x10,x12,0x2	 x12:0xffffff63 x10=0xfffffd8c
        8605000	       859	80005020	007401b3	add	x3,x8,x7	  x8:0x00000000  x7:0xafc007ef  x3=0xafc007ef
        8615000	       860	80005024	01001593	slli	x11,x0,0x10	  x0:0x00000000 x11=0x00000000
        8625000	       861	80005028	5e564b93	xori	x23,x12,1509	 x12:0xffffff63 x23=0xfffffa86
        8635000	       862	8000502c	0171ebb3	or	x23,x3,x23	  x3:0xafc007ef x23:0xfffffa86 x23=0xffffffef
        8645000	       863	80005030	5c137c93	andi	x25,x6,1473	  x6:0x2fc09a7f x25=0x00000041
        8655000	       864	80005034	00000013	addi	x0,x0,0	  x0:0x00000000
        8665000	       865	80005038	0181b633	sltu	x12,x3,x24	  x3:0xafc007ef x24:0x2fc0a036 x12=0x00000000
        8675000	       866	8000503c	01c61ab3	sll	x21,x12,x28	 x12:0x00000000 x28:0xffffffcb x21=0x00000000
        8685000	       867	80005040	01ea9c13	slli	x24,x21,0x1e	 x21:0x00000000 x24=0x00000000
        8695000	       868	80005044	7fcebbb7	lui	x23,0x7fceb	 x23=0x7fceb000
        8705000	       869	80005048	01ca81b3	add	x3,x21,x28	 x21:0x00000000 x28:0xffffffcb  x3=0xffffffcb
        8715000	       870	8000504c	0595e063	bltu	x11,x25,8000508c	 x11:0x00000000 x25:0x00000041
        8725000	       871	00000000	00000013	addi	x0,x0,0	  x0:0x00000000
        8735000	       872	80005088	00000013	addi	x0,x0,0	  x0:0x00000000
        8745000	       873	8000508c	0019d493	srli	x9,x19,0x1	 x19:0x00000000  x9=0x00000000
        8755000	       874	80005090	00250e63	beq	x10,x2,800050ac	 x10:0xfffffd8c  x2:0x80008f20
        8765000	       875	80005094	01edc933	xor	x18,x27,x30	 x27:0x2fc09867 x30:0xffffffcb x18=0xd03f67ac
        8775000	       876	80005098	ccb4fc13	andi	x24,x9,-821	  x9:0x00000000 x24=0x00000000
        8785000	       877	8000509c	004180b3	add	x1,x3,x4	  x3:0xffffffcb  x4:0x00000030  x1=0xfffffffb
        8795000	       878	800050a0	03f5fc63	bgeu	x11,x31,800050d8	 x11:0x00000000 x31:0x80009fc4
        8805000	       879	800050a4	000bc7b3	xor	x15,x23,x0	 x23:0x7fceb000  x0:0x00000000 x15=0x7fceb000
        8815000	       880	800050a8	01115133	srl	x2,x2,x17	  x2:0x80008f20 x17:0x80009f60  x2=0x80008f20
        8825000	       881	800050ac	01db9193	slli	x3,x23,0x1d	 x23:0x7fceb000  x3=0x00000000
        8835000	       882	800050b0	cdef0113	addi	x2,x30,-802	 x30:0xffffffcb  x2=0xfffffca9
        8845000	       883	800050b4	00041a63	bne	x8,x0,800050c8	  x8:0x00000000  x0:0x00000000
        8855000	       884	800050b8	01110e33	add	x28,x2,x17	  x2:0xfffffca9 x17:0x80009f60 x28=0x80009c09
        8865000	       885	800050bc	05b2d663	bge	x5,x27,80005108	  x5:0x00000000 x27:0x2fc09867
        8875000	       886	800050c0	0020f833	and	x16,x1,x2	  x1:0xfffffffb  x2:0xfffffca9 x16=0xfffffca9
        8885000	       887	800050c4	00b15a63	bge	x2,x11,800050d8	  x2:0xfffffca9 x11:0x00000000
        8895000	       888	800050c8	40c65d13	srai	x26,x12,0xc	 x12:0x00000000 x26=0x00000000
        8905000	       889	800050cc	01b09f13	slli	x30,x1,0x1b	  x1:0xfffffffb x30=0xd8000000
        8915000	       890	800050d0	00f08233	add	x4,x1,x15	  x1:0xfffffffb x15:0x7fceb000  x4=0x7fceaffb
        8925000	       891	800050d4	2e49c937	lui	x18,0x2e49c	 x18=0x2e49c000
        8935000	       892	800050d8	0073ab33	slt	x22,x7,x7	  x7:0xafc007ef  x7:0xafc007ef x22=0x00000000
        8945000	       893	800050dc	00000013	addi	x0,x0,0	  x0:0x00000000
        8955000	       894	800050e0	007080b3	add	x1,x1,x7	  x1:0xfffffffb  x7:0xafc007ef  x1=0xafc007ea
        8965000	       895	800050e4	009a7033	and	x0,x20,x9	 x20:0xfffffd67  x9:0x00000000
        8975000	       896	800050e8	00580c33	add	x24,x16,x5	 x16:0xfffffca9  x5:0x00000000 x24=0xfffffca9
        8985000	       897	800050ec	e2980a37	lui	x20,0xe2980	 x20=0xe2980000
        8995000	       898	800050f0	01bf0263	beq	x30,x27,800050f4	 x30:0xd8000000 x27:0x2fc09867
        9005000	       899	800050f4	03b2d863	bge	x5,x27,80005124	  x5:0x00000000 x27:0x2fc09867
        9015000	       900	800050f8	40755193	srai	x3,x10,0x7	 x10:0xfffffd8c  x3=0xfffffffb
        9025000	       901	800050fc	00b44633	xor	x12,x8,x11	  x8:0x00000000 x11:0x00000000 x12=0x00000000
        9035000	       902	80005100	00215c63	bge	x2,x2,80005118	  x2:0xfffffca9  x2:0xfffffca9
        9045000	       903	00000000	00000013	addi	x0,x0,0	  x0:0x00000000
        9055000	       904	80005114	00000013	addi	x0,x0,0	  x0:0x00000000
        9065000	       905	80005118	0198dc63	bge	x17,x25,80005130	 x17:0x80009f60 x25:0x00000041
        9075000	       906	8000511c	045b7263	bgeu	x22,x5,80005160	 x22:0x00000000  x5:0x00000000
        9085000	       907	00000000	00000013	addi	x0,x0,0	  x0:0x00000000
        9095000	       908	8000515c	00000013	addi	x0,x0,0	  x0:0x00000000
        9105000	       909	80005160	022ae263	bltu	x21,x2,80005184	 x21:0x00000000  x2:0xfffffca9
        9115000	       910	00000000	00000013	addi	x0,x0,0	  x0:0x00000000
        9125000	       911	80005180	00000013	addi	x0,x0,0	  x0:0x00000000
        9135000	       912	80005184	406ad7b3	sra	x15,x21,x6	 x21:0x00000000  x6:0x2fc09a7f x15=0x00000000
        9145000	       913	80005188	00000013	addi	x0,x0,0	  x0:0x00000000
        9155000	       914	8000518c	0124db93	srli	x23,x9,0x12	  x9:0x00000000 x23=0x00000000
        9165000	       915	80005190	84133b13	sltiu	x22,x6,-1983	  x6:0x2fc09a7f x22=0x00000001
        9175000	       916	80005194	17de4e93	xori	x29,x28,381	 x28:0x80009c09 x29=0x80009d74
        9185000	       917	80005198	039dd063	bge	x27,x25,800051b8	 x27:0x2fc09867 x25:0x00000041
        9195000	       918	00000000	00000013	addi	x0,x0,0	  x0:0x00000000
        9205000	       919	800051b4	00000013	addi	x0,x0,0	  x0:0x00000000
        9215000	       920	800051b8	02d0e063	bltu	x1,x13,800051d8	  x1:0xafc007ea x13:0x184e1fd4
        9225000	       921	800051bc	025bfc63	bgeu	x23,x5,800051f4	 x23:0x00000000  x5:0x00000000
        9235000	       922	00000000	00000013	addi	x0,x0,0	  x0:0x00000000
        9245000	       923	800051f0	00000013	addi	x0,x0,0	  x0:0x00000000
        9255000	       924	800051f4	40add313	srai	x6,x27,0xa	 x27:0x2fc09867  x6=0x000bf026
        9265000	       925	800051f8	01eb25b3	slt	x11,x22,x30	 x22:0x00000001 x30:0xd8000000 x11=0x00000000
        9275000	       926	800051fc	ad48e193	ori	x3,x17,-1324	 x17:0x80009f60  x3=0xfffffff4
        9285000	       927	80005200	5b748113	addi	x2,x9,1463	  x9:0x00000000  x2=0x000005b7
        9295000	       928	80005204	54eea493	slti	x9,x29,1358	 x29:0x80009d74  x9=0x00000001
        9305000	       929	80005208	014e40b3	xor	x1,x28,x20	 x28:0x80009c09 x20:0xe2980000  x1=0x62989c09
        9315000	       930	8000520c	15326137	lui	x2,0x15326	  x2=0x15326000
        9325000	       931	80005210	002f7633	and	x12,x30,x2	 x30:0xd8000000  x2:0x15326000 x12=0x10000000
        9335000	       932	80005214	00201533	sll	x10,x0,x2	  x0:0x00000000  x2:0x15326000 x10=0x00000000
        9345000	       933	80005218	01be37b3	sltu	x15,x28,x27	 x28:0x80009c09 x27:0x2fc09867 x15=0x00000000
        9355000	       934	8000521c	00076c63	bltu	x14,x0,80005234	 x14:0x00000000  x0:0x00000000
        9365000	       935	80005220	02790663	beq	x18,x7,8000524c	 x18:0x2e49c000  x7:0xafc007ef
        9375000	       936	80005224	01e6e933	or	x18,x13,x30	 x13:0x184e1fd4 x30:0xd8000000 x18=0xd84e1fd4
        9385000	       937	80005228	7efdad37	lui	x26,0x7efda	 x26=0x7efda000
        9395000	       938	8000522c	00813933	sltu	x18,x2,x8	  x2:0x15326000  x8:0x00000000 x18=0x00000000
        9405000	       939	80005230	043e0063	beq	x28,x3,80005270	 x28:0x80009c09  x3:0xfffffff4
        9415000	       940	80005234	4102dd13	srai	x26,x5,0x10	  x5:0x00000000 x26=0x00000000
        9425000	       941	80005238	001c7e63	bgeu	x24,x1,80005254	 x24:0xfffffca9  x1:0x62989c09
        9435000	       942	00000000	00000013	addi	x0,x0,0	  x0:0x00000000
        9445000	       943	80005250	00000013	addi	x0,x0,0	  x0:0x00000000
        9455000	       944	80005254	01491a13	slli	x20,x18,0x14	 x18:0x00000000 x20=0x00000000
        9465000	       945	80005258	4024de13	srai	x28,x9,0x2	  x9:0x00000001 x28=0x00000000
        9475000	       946	8000525c	eed78e13	addi	x28,x15,-275	 x15:0x00000000 x28=0xfffffeed
        9485000	       947	80005260	b1a40113	addi	x2,x8,-1254	  x8:0x00000000  x2=0xfffffb1a
        9495000	       948	80005264	3a104e13	xori	x28,x0,929	  x0:0x00000000 x28=0x000003a1
        9505000	       949	80005268	0165f663	bgeu	x11,x22,80005274	 x11:0x00000000 x22:0x00000001
        9515000	       950	8000526c	5c2a4f13	xori	x30,x20,1474	 x20:0x00000000 x30=0x000005c2
        9525000	       951	80005270	01289e33	sll	x28,x17,x18	 x17:0x80009f60 x18:0x00000000 x28=0x80009f60
        9535000	       952	80005274	7223a513	slti	x10,x7,1826	  x7:0xafc007ef x10=0x00000001
        9545000	       953	80005278	001ac933	xor	x18,x21,x1	 x21:0x00000000  x1:0x62989c09 x18=0x62989c09
        9555000	       954	8000527c	01fd2433	slt	x8,x26,x31	 x26:0x00000000 x31:0x80009fc4  x8=0x00000000
        9565000	       955	80005280	05f26263	bltu	x4,x31,800052c4	  x4:0x7fceaffb x31:0x80009fc4
        9575000	       956	00000000	00000013	addi	x0,x0,0	  x0:0x00000000
        9585000	       957	800052c0	00000013	addi	x0,x0,0	  x0:0x00000000
        9595000	       958	800052c4	fe8b2c93	slti	x25,x22,-24	 x22:0x00000001 x25=0x00000000
        9605000	       959	800052c8	02a4e863	bltu	x9,x10,800052f8	  x9:0x00000001 x10:0x00000001
        9615000	       960	800052cc	2cb92837	lui	x16,0x2cb92	 x16=0x2cb92000
        9625000	       961	800052d0	06a7be93	sltiu	x29,x15,106	 x15:0x00000000 x29=0x00000001
        9635000	       962	800052d4	01109c93	slli	x25,x1,0x11	  x1:0x62989c09 x25=0x38120000
        9645000	       963	800052d8	00641863	bne	x8,x6,800052e8	  x8:0x00000000  x6:0x000bf026
        9655000	       964	00000000	00000013	addi	x0,x0,0	  x0:0x00000000
        9665000	       965	800052e4	00000013	addi	x0,x0,0	  x0:0x00000000
        9675000	       966	800052e8	00e09463	bne	x1,x14,800052f0	  x1:0x62989c09 x14:0x00000000
        9685000	       967	00000000	00000013	addi	x0,x0,0	  x0:0x00000000
        9695000	       968	800052ec	00000013	addi	x0,x0,0	  x0:0x00000000
        9705000	       969	800052f0	40075cb3	sra	x25,x14,x0	 x14:0x00000000  x0:0x00000000 x25=0x00000000
        9715000	       970	800052f4	00686a63	bltu	x16,x6,80005308	 x16:0x2cb92000  x6:0x000bf026
        9725000	       971	800052f8	cac34693	xori	x13,x6,-852	  x6:0x000bf026 x13=0xfff40c8a
        9735000	       972	800052fc	00d02e33	slt	x28,x0,x13	  x0:0x00000000 x13:0xfff40c8a x28=0x00000000
        9745000	       973	80005300	416489b3	sub	x19,x9,x22	  x9:0x00000001 x22:0x00000001 x19=0x00000000
        9755000	       974	80005304	41868bb3	sub	x23,x13,x24	 x13:0xfff40c8a x24:0xfffffca9 x23=0xfff40fe1
        9765000	       975	80005308	045e4663	blt	x28,x5,80005354	 x28:0x00000000  x5:0x00000000
        9775000	       976	8000530c	2e77ea93	ori	x21,x15,743	 x15:0x00000000 x21=0x000002e7
        9785000	       977	80005310	18b2ea93	ori	x21,x5,395	  x5:0x00000000 x21=0x0000018b
        9795000	       978	80005314	00268f33	add	x30,x13,x2	 x13:0xfff40c8a  x2:0xfffffb1a x30=0xfff407a4
        9805000	       979	80005318	01622233	slt	x4,x4,x22	  x4:0x7fceaffb x22:0x00000001  x4=0x00000000
        9815000	       980	8000531c	01801513	slli	x10,x0,0x18	  x0:0x00000000 x10=0x00000000
        9825000	       981	80005320	0078ec63	bltu	x17,x7,80005338	 x17:0x80009f60  x7:0xafc007ef
        9835000	       982	00000000	00000013	addi	x0,x0,0	  x0:0x00000000
        9845000	       983	80005334	00000013	addi	x0,x0,0	  x0:0x00000000
        9855000	       984	80005338	00b321b7	lui	x3,0xb32	  x3=0x00b32000
        9865000	       985	8000533c	02cf1263	bne	x30,x12,80005360	 x30:0xfff407a4 x12:0x10000000
        9875000	       986	00000000	00000013	addi	x0,x0,0	  x0:0x00000000
        9885000	       987	8000535c	00000013	addi	x0,x0,0	  x0:0x00000000
        9895000	       988	80005360	02381263	bne	x16,x3,80005384	 x16:0x2cb92000  x3:0x00b32000
        9905000	       989	00000000	00000013	addi	x0,x0,0	  x0:0x00000000
        9915000	       990	80005380	00000013	addi	x0,x0,0	  x0:0x00000000
        9925000	       991	80005384	ae1d4113	xori	x2,x26,-1311	 x26:0x00000000  x2=0xfffffae1
        9935000	       992	80005388	0080d793	srli	x15,x1,0x8	  x1:0x62989c09 x15=0x0062989c
        9945000	       993	8000538c	00720937	lui	x18,0x720	 x18=0x00720000
        9955000	       994	80005390	d91e3637	lui	x12,0xd91e3	 x12=0xd91e3000
        9965000	       995	80005394	026f8663	beq	x31,x6,800053c0	 x31:0x80009fc4  x6:0x000bf026
        9975000	       996	80005398	00000013	addi	x0,x0,0	  x0:0x00000000
        9985000	       997	8000539c	a4334193	xori	x3,x6,-1469	  x6:0x000bf026  x3=0xfff40a65
        9995000	       998	800053a0	00000013	addi	x0,x0,0	  x0:0x00000000
       10005000	       999	800053a4	c0cd6093	ori	x1,x26,-1012	 x26:0x00000000  x1=0xfffffc0c
       10015000	      1000	800053a8	01121013	slli	x0,x4,0x11	  x4:0x00000000
       10025000	      1001	800053ac	40b882b3	sub	x5,x17,x11	 x17:0x80009f60 x11:0x00000000  x5=0x80009f60
       10035000	      1002	800053b0	011c0ab3	add	x21,x24,x17	 x24:0xfffffca9 x17:0x80009f60 x21=0x80009c09
       10045000	      1003	800053b4	4394b393	sltiu	x7,x9,1081	  x9:0x00000001  x7=0x00000001
       10055000	      1004	800053b8	41178433	sub	x8,x15,x17	 x15:0x0062989c x17:0x80009f60  x8=0x8061f93c
       10065000	      1005	800053bc	01c0d593	srli	x11,x1,0x1c	  x1:0xfffffc0c x11=0x0000000f
       10075000	      1006	800053c0	411a5bb3	sra	x23,x20,x17	 x20:0x00000000 x17:0x80009f60 x23=0x00000000
       10085000	      1007	800053c4	00980f33	add	x30,x16,x9	 x16:0x2cb92000  x9:0x00000001 x30=0x2cb92001
       10095000	      1008	800053c8	04331663	bne	x6,x3,80005414	  x6:0x000bf026  x3:0xfff40a65
       10105000	      1009	00000000	00000013	addi	x0,x0,0	  x0:0x00000000
       10115000	      1010	80005410	00000013	addi	x0,x0,0	  x0:0x00000000
       10125000	      1011	80005414	00000013	addi	x0,x0,0	  x0:0x00000000
       10135000	      1012	80005418	01e81c33	sll	x24,x16,x30	 x16:0x2cb92000 x30:0x2cb92001 x24=0x59724000
       10145000	      1013	8000541c	0152a7b3	slt	x15,x5,x21	  x5:0x80009f60 x21:0x80009c09 x15=0x00000000
       10155000	      1014	80005420	00dcd213	srli	x4,x25,0xd	 x25:0x00000000  x4=0x00000000
       10165000	      1015	80005424	01964a33	xor	x20,x12,x25	 x12:0xd91e3000 x25:0x00000000 x20=0xd91e3000
       10175000	      1016	80005428	41208233	sub	x4,x1,x18	  x1:0xfffffc0c x18:0x00720000  x4=0xff8dfc0c
       10185000	      1017	8000542c	0126cc63	blt	x13,x18,80005444	 x13:0xfff40c8a x18:0x00720000
       10195000	      1018	00000000	00000013	addi	x0,x0,0	  x0:0x00000000
       10205000	      1019	80005440	00000013	addi	x0,x0,0	  x0:0x00000000
       10215000	      1020	80005444	410e5b93	srai	x23,x28,0x10	 x28:0x00000000 x23=0x00000000
       10225000	      1021	80005448	01d0f1b3	and	x3,x1,x29	  x1:0xfffffc0c x29:0x00000001  x3=0x00000000
       10235000	      1022	8000544c	00cc5633	srl	x12,x24,x12	 x24:0x59724000 x12:0xd91e3000 x12=0x59724000
       10245000	      1023	80005450	40a55433	sra	x8,x10,x10	 x10:0x00000000 x10:0x00000000  x8=0x00000000
       10255000	      1024	80005454	33fa7b93	andi	x23,x20,831	 x20:0xd91e3000 x23=0x00000000
       10265000	      1025	80005458	03f65063	bge	x12,x31,80005478	 x12:0x59724000 x31:0x80009fc4
       10275000	      1026	00000000	00000013	addi	x0,x0,0	  x0:0x00000000
       10285000	      1027	80005474	00000013	addi	x0,x0,0	  x0:0x00000000
       10295000	      1028	80005478	04189263	bne	x17,x1,800054bc	 x17:0x80009f60  x1:0xfffffc0c
       10305000	      1029	00000000	00000013	addi	x0,x0,0	  x0:0x00000000
       10315000	      1030	800054b8	00000013	addi	x0,x0,0	  x0:0x00000000
       10325000	      1031	800054bc	01b29d93	slli	x27,x5,0x1b	  x5:0x80009f60 x27=0x00000000
       10335000	      1032	800054c0	406c5593	srai	x11,x24,0x6	 x24:0x59724000 x11=0x0165c900
       10345000	      1033	800054c4	40ccd2b3	sra	x5,x25,x12	 x25:0x00000000 x12:0x59724000  x5=0x00000000
       10355000	      1034	800054c8	009be463	bltu	x23,x9,800054d0	 x23:0x00000000  x9:0x00000001
       10365000	      1035	00000000	00000013	addi	x0,x0,0	  x0:0x00000000
       10375000	      1036	800054cc	00000013	addi	x0,x0,0	  x0:0x00000000
       10385000	      1037	800054d0	4f556317	auipc	x6,0x4f556	  x6=0xcf55b4cc
       10395000	      1038	800054d4	0160e263	bltu	x1,x22,800054d8	  x1:0xfffffc0c x22:0x00000001
       10405000	      1039	800054d8	01d71233	sll	x4,x14,x29	 x14:0x00000000 x29:0x00000001  x4=0x00000000
       10415000	      1040	800054dc	00752333	slt	x6,x10,x7	 x10:0x00000000  x7:0x00000001  x6=0x00000001
       10425000	      1041	800054e0	81df81b7	lui	x3,0x81df8	  x3=0x81df8000
       10435000	      1042	800054e4	00998bb3	add	x23,x19,x9	 x19:0x00000000  x9:0x00000001 x23=0x00000001
       10445000	      1043	800054e8	013815b3	sll	x11,x16,x19	 x16:0x2cb92000 x19:0x00000000 x11=0x2cb92000
       10455000	      1044	800054ec	00b56863	bltu	x10,x11,800054fc	 x10:0x00000000 x11:0x2cb92000
       10465000	      1045	00000000	00000013	addi	x0,x0,0	  x0:0x00000000
       10475000	      1046	800054f8	00000013	addi	x0,x0,0	  x0:0x00000000
       10485000	      1047	800054fc	012ea333	slt	x6,x29,x18	 x29:0x00000001 x18:0x00720000  x6=0x00000001
       10495000	      1048	80005500	2e263e93	sltiu	x29,x12,738	 x12:0x59724000 x29=0x00000000
       10505000	      1049	80005504	65403593	sltiu	x11,x0,1620	  x0:0x00000000 x11=0x00000001
       10515000	      1050	80005508	01f31333	sll	x6,x6,x31	  x6:0x00000001 x31:0x80009fc4  x6=0x00000010
       10525000	      1051	8000550c	00064333	xor	x6,x12,x0	 x12:0x59724000  x0:0x00000000  x6=0x59724000
       10535000	      1052	80005510	00cabe33	sltu	x28,x21,x12	 x21:0x80009c09 x12:0x59724000 x28=0x00000000
       10545000	      1053	80005514	00f19613	slli	x12,x3,0xf	  x3:0x81df8000 x12=0xc0000000
       10555000	      1054	80005518	01b4c313	xori	x6,x9,27	  x9:0x00000001  x6=0x0000001a
       10565000	      1055	8000551c	01d41593	slli	x11,x8,0x1d	  x8:0x00000000 x11=0x00000000
       10575000	      1056	80005520	87fc6293	ori	x5,x24,-1921	 x24:0x59724000  x5=0xfffff87f
       10585000	      1057	80005524	00c4feb3	and	x29,x9,x12	  x9:0x00000001 x12:0xc0000000 x29=0x00000000
       10595000	      1058	80005528	c1d48213	addi	x4,x9,-995	  x9:0x00000001  x4=0xfffffc1e
       10605000	      1059	8000552c	00151a63	bne	x10,x1,80005540	 x10:0x00000000  x1:0xfffffc0c
       10615000	      1060	00000000	00000013	addi	x0,x0,0	  x0:0x00000000
       10625000	      1061	8000553c	00000013	addi	x0,x0,0	  x0:0x00000000
       10635000	      1062	80005540	03345663	bge	x8,x19,8000556c	  x8:0x00000000 x19:0x00000000
       10645000	      1063	00000000	00000013	addi	x0,x0,0	  x0:0x00000000
       10655000	      1064	80005568	00000013	addi	x0,x0,0	  x0:0x00000000
       10665000	      1065	8000556c	00dd7d33	and	x26,x26,x13	 x26:0x00000000 x13:0xfff40c8a x26=0x00000000
       10675000	      1066	80005570	015e36b3	sltu	x13,x28,x21	 x28:0x00000000 x21:0x80009c09 x13=0x00000001
       10685000	      1067	80005574	ebec7b13	andi	x22,x24,-322	 x24:0x59724000 x22=0x59724000
       10695000	      1068	80005578	031d4c63	blt	x26,x17,800055b0	 x26:0x00000000 x17:0x80009f60
       10705000	      1069	8000557c	0179ba33	sltu	x20,x19,x23	 x19:0x00000000 x23:0x00000001 x20=0x00000001
       10715000	      1070	80005580	41b08433	sub	x8,x1,x27	  x1:0xfffffc0c x27:0x00000000  x8=0xfffffc0c
       10725000	      1071	80005584	904e0e13	addi	x28,x28,-1788	 x28:0x00000000 x28=0xfffff904
       10735000	      1072	80005588	1987bb93	sltiu	x23,x15,408	 x15:0x00000000 x23=0x00000001
       10745000	      1073	8000558c	57634b13	xori	x22,x6,1398	  x6:0x0000001a x22=0x0000056c
       10755000	      1074	80005590	7a28e793	ori	x15,x17,1954	 x17:0x80009f60 x15=0x80009fe2
       10765000	      1075	80005594	f6aeab13	slti	x22,x29,-150	 x29:0x00000000 x22=0x00000000
       10775000	      1076	80005598	cf12ad13	slti	x26,x5,-783	  x5:0xfffff87f x26=0x00000001
       10785000	      1077	8000559c	026ef863	bgeu	x29,x6,800055cc	 x29:0x00000000  x6:0x0000001a
       10795000	      1078	800055a0	f02a3b17	auipc	x22,0xf02a3	 x22=0x702a859c
       10805000	      1079	800055a4	03550063	beq	x10,x21,800055c4	 x10:0x00000000 x21:0x80009c09
       10815000	      1080	800055a8	41dfd093	srai	x1,x31,0x1d	 x31:0x80009fc4  x1=0xfffffffc
       10825000	      1081	800055ac	00939913	slli	x18,x7,0x9	  x7:0x00000001 x18=0x00000200
       10835000	      1082	800055b0	404583b3	sub	x7,x11,x4	 x11:0x00000000  x4:0xfffffc1e  x7=0x000003e2
       10845000	      1083	800055b4	d65cad93	slti	x27,x25,-667	 x25:0x00000000 x27=0x00000000
       10855000	      1084	800055b8	016fd1b3	srl	x3,x31,x22	 x31:0x80009fc4 x22:0x702a859c  x3=0x00000008
       10865000	      1085	800055bc	00fcf263	bgeu	x25,x15,800055c0	 x25:0x00000000 x15:0x80009fe2
       10875000	      1086	800055c0	02151863	bne	x10,x1,800055f0	 x10:0x00000000  x1:0xfffffffc
       10885000	      1087	00000000	00000013	addi	x0,x0,0	  x0:0x00000000
       10895000	      1088	800055ec	00000013	addi	x0,x0,0	  x0:0x00000000
       10905000	      1089	800055f0	02720663	beq	x4,x7,8000561c	  x4:0xfffffc1e  x7:0x000003e2
       10915000	      1090	800055f4	02704663	blt	x0,x7,80005620	  x0:0x00000000  x7:0x000003e2
       10925000	      1091	00000000	00000013	addi	x0,x0,0	  x0:0x00000000
       10935000	      1092	8000561c	00000013	addi	x0,x0,0	  x0:0x00000000
       10945000	      1093	80005620	0139c1b3	xor	x3,x19,x19	 x19:0x00000000 x19:0x00000000  x3=0x00000000
       10955000	      1094	80005624	fa377613	andi	x12,x14,-93	 x14:0x00000000 x12=0x00000000
       10965000	      1095	80005628	0001da63	bge	x3,x0,8000563c	  x3:0x00000000  x0:0x00000000
       10975000	      1096	00000000	00000013	addi	x0,x0,0	  x0:0x00000000
       10985000	      1097	80005638	00000013	addi	x0,x0,0	  x0:0x00000000
       10995000	      1098	8000563c	0126eeb3	or	x29,x13,x18	 x13:0x00000001 x18:0x00000200 x29=0x00000201
       11005000	      1099	80005640	367e8f37	lui	x30,0x367e8	 x30=0x367e8000
       11015000	      1100	80005644	03c01e63	bne	x0,x28,80005680	  x0:0x00000000 x28:0xfffff904
       11025000	      1101	00000000	00000013	addi	x0,x0,0	  x0:0x00000000
       11035000	      1102	8000567c	00000013	addi	x0,x0,0	  x0:0x00000000
       11045000	      1103	80005680	00bf4b33	xor	x22,x30,x11	 x30:0x367e8000 x11:0x00000000 x22=0x367e8000
       11055000	      1104	80005684	001af933	and	x18,x21,x1	 x21:0x80009c09  x1:0xfffffffc x18=0x80009c08
       11065000	      1105	80005688	413bd333	sra	x6,x23,x19	 x23:0x00000001 x19:0x00000000  x6=0x00000001
       11075000	      1106	8000568c	00197bb3	and	x23,x18,x1	 x18:0x80009c08  x1:0xfffffffc x23=0x80009c08
       11085000	      1107	80005690	01f55633	srl	x12,x10,x31	 x10:0x00000000 x31:0x80009fc4 x12=0x00000000
       11095000	      1108	80005694	03e85263	bge	x16,x30,800056b8	 x16:0x2cb92000 x30:0x367e8000
       11105000	      1109	80005698	40d55433	sra	x8,x10,x13	 x10:0x00000000 x13:0x00000001  x8=0x00000000
       11115000	      1110	8000569c	00c8b533	sltu	x10,x17,x12	 x17:0x80009f60 x12:0x00000000 x10=0x00000000
       11125000	      1111	800056a0	05604663	blt	x0,x22,800056ec	  x0:0x00000000 x22:0x367e8000
       11135000	      1112	00000000	00000013	addi	x0,x0,0	  x0:0x00000000
       11145000	      1113	800056e8	00000013	addi	x0,x0,0	  x0:0x00000000
       11155000	      1114	800056ec	03f1dc63	bge	x3,x31,80005724	  x3:0x00000000 x31:0x80009fc4
       11165000	      1115	00000000	00000013	addi	x0,x0,0	  x0:0x00000000
       11175000	      1116	80005720	00000013	addi	x0,x0,0	  x0:0x00000000
       11185000	      1117	80005724	01b53f33	sltu	x30,x10,x27	 x10:0x00000000 x27:0x00000000 x30=0x00000000
       11195000	      1118	80005728	408fdf13	srai	x30,x31,0x8	 x31:0x80009fc4 x30=0xff80009f
       11205000	      1119	8000572c	7c564413	xori	x8,x12,1989	 x12:0x00000000  x8=0x000007c5
       11215000	      1120	80005730	00985f13	srli	x30,x16,0x9	 x16:0x2cb92000 x30=0x00165c90
       11225000	      1121	80005734	a1b84213	xori	x4,x16,-1509	 x16:0x2cb92000  x4=0xd346da1b
       11235000	      1122	80005738	65413c93	sltiu	x25,x2,1620	  x2:0xfffffae1 x25=0x00000000
       11245000	      1123	8000573c	00f2bbb3	sltu	x23,x5,x15	  x5:0xfffff87f x15:0x80009fe2 x23=0x00000000
       11255000	      1124	80005740	2597dc37	lui	x24,0x2597d	 x24=0x2597d000
       11265000	      1125	80005744	00ffec63	bltu	x31,x15,8000575c	 x31:0x80009fc4 x15:0x80009fe2
       11275000	      1126	00000000	00000013	addi	x0,x0,0	  x0:0x00000000
       11285000	      1127	80005758	00000013	addi	x0,x0,0	  x0:0x00000000
       11295000	      1128	8000575c	00000013	addi	x0,x0,0	  x0:0x00000000
       11305000	      1129	80005760	00c15933	srl	x18,x2,x12	  x2:0xfffffae1 x12:0x00000000 x18=0xfffffae1
       11315000	      1130	80005764	01bf61b3	or	x3,x30,x27	 x30:0x00165c90 x27:0x00000000  x3=0x00165c90
       11325000	      1131	80005768	001cdd93	srli	x27,x25,0x1	 x25:0x00000000 x27=0x00000000
       11335000	      1132	8000576c	41d6d4b3	sra	x9,x13,x29	 x13:0x00000001 x29:0x00000201  x9=0x00000000
       11345000	      1133	80005770	b4be7a13	andi	x20,x28,-1205	 x28:0xfffff904 x20=0xfffff900
       11355000	      1134	80005774	9a180693	addi	x13,x16,-1631	 x16:0x2cb92000 x13=0x2cb919a1
       11365000	      1135	80005778	0168d333	srl	x6,x17,x22	 x17:0x80009f60 x22:0x367e8000  x6=0x80009f60
       11375000	      1136	8000577c	780b5e37	lui	x28,0x780b5	 x28=0x780b5000
       11385000	      1137	80005780	014482b3	add	x5,x9,x20	  x9:0x00000000 x20:0xfffff900  x5=0xfffff900
       11395000	      1138	80005784	017f9493	slli	x9,x31,0x17	 x31:0x80009fc4  x9=0xe2000000
       11405000	      1139	80005788	01bad663	bge	x21,x27,80005794	 x21:0x80009c09 x27:0x00000000
       11415000	      1140	8000578c	be849e97	auipc	x29,0xbe849	 x29=0x3e84e788
       11425000	      1141	80005790	00000013	addi	x0,x0,0	  x0:0x00000000
       11435000	      1142	80005794	0147dcb3	srl	x25,x15,x20	 x15:0x80009fe2 x20:0xfffff900 x25=0x80009fe2
       11445000	      1143	80005798	71807913	andi	x18,x0,1816	  x0:0x00000000 x18=0x00000000
       11455000	      1144	8000579c	01e43eb3	sltu	x29,x8,x30	  x8:0x000007c5 x30:0x00165c90 x29=0x00000001
       11465000	      1145	800057a0	002e1393	slli	x7,x28,0x2	 x28:0x780b5000  x7=0xe02d4000
       11475000	      1146	800057a4	005312b3	sll	x5,x6,x5	  x6:0x80009f60  x5:0xfffff900  x5=0x80009f60
       11485000	      1147	800057a8	0122c3b3	xor	x7,x5,x18	  x5:0x80009f60 x18:0x00000000  x7=0x80009f60
       11495000	      1148	800057ac	0169abb3	slt	x23,x19,x22	 x19:0x00000000 x22:0x367e8000 x23=0x00000001
       11505000	      1149	800057b0	00f87c63	bgeu	x16,x15,800057c8	 x16:0x2cb92000 x15:0x80009fe2
       11515000	      1150	800057b4	00bc03b3	add	x7,x24,x11	 x24:0x2597d000 x11:0x00000000  x7=0x2597d000
       11525000	      1151	800057b8	01f81b93	slli	x23,x16,0x1f	 x16:0x2cb92000 x23=0x00000000
       11535000	      1152	800057bc	757f2193	slti	x3,x30,1879	 x30:0x00165c90  x3=0x00000000
       11545000	      1153	800057c0	012cdbb3	srl	x23,x25,x18	 x25:0x80009fe2 x18:0x00000000 x23=0x80009fe2
       11555000	      1154	800057c4	05dd5263	bge	x26,x29,80005808	 x26:0x00000001 x29:0x00000001
       11565000	      1155	00000000	00000013	addi	x0,x0,0	  x0:0x00000000
       11575000	      1156	80005804	00000013	addi	x0,x0,0	  x0:0x00000000
       11585000	      1157	80005808	0a0cc113	xori	x2,x25,160	 x25:0x80009fe2  x2=0x80009f42
       11595000	      1158	8000580c	002bc863	blt	x23,x2,8000581c	 x23:0x80009fe2  x2:0x80009f42
       11605000	      1159	80005810	0829f437	lui	x8,0x829f	  x8=0x0829f000
       11615000	      1160	80005814	00fe6c63	bltu	x28,x15,8000582c	 x28:0x780b5000 x15:0x80009fe2
       11625000	      1161	00000000	00000013	addi	x0,x0,0	  x0:0x00000000
       11635000	      1162	80005828	00000013	addi	x0,x0,0	  x0:0x00000000
       11645000	      1163	8000582c	dbf9a393	slti	x7,x19,-577	 x19:0x00000000  x7=0x00000000
       11655000	      1164	80005830	0191d263	bge	x3,x25,80005834	  x3:0x00000000 x25:0x80009fe2
       11665000	      1165	00000000	00000013	addi	x0,x0,0	  x0:0x00000000
       11675000	      1166	80005830	00000013	addi	x0,x0,0	  x0:0x00000000
       11685000	      1167	80005834	018aee33	or	x28,x21,x24	 x21:0x80009c09 x24:0x2597d000 x28=0xa597dc09
       11695000	      1168	80005838	023a9463	bne	x21,x3,80005860	 x21:0x80009c09  x3:0x00000000
       11705000	      1169	00000000	00000013	addi	x0,x0,0	  x0:0x00000000
       11715000	      1170	8000585c	00000013	addi	x0,x0,0	  x0:0x00000000
       11725000	      1171	80005860	40fcd813	srai	x16,x25,0xf	 x25:0x80009fe2 x16=0xffff0001
       11735000	      1172	80005864	00000013	addi	x0,x0,0	  x0:0x00000000
       11745000	      1173	80005868	00073d33	sltu	x26,x14,x0	 x14:0x00000000  x0:0x00000000 x26=0x00000000
       11755000	      1174	8000586c	01b8a0b3	slt	x1,x17,x27	 x17:0x80009f60 x27:0x00000000  x1=0x00000001
       11765000	      1175	80005870	000b91b3	sll	x3,x23,x0	 x23:0x80009fe2  x0:0x00000000  x3=0x80009fe2
       11775000	      1176	80005874	00aa3333	sltu	x6,x20,x10	 x20:0xfffff900 x10:0x00000000  x6=0x00000000
       11785000	      1177	80005878	00000013	addi	x0,x0,0	  x0:0x00000000
       11795000	      1178	8000587c	bbf4ad93	slti	x27,x9,-1089	  x9:0xe2000000 x27=0x00000001
       11805000	      1179	80005880	99303d93	sltiu	x27,x0,-1645	  x0:0x00000000 x27=0x00000001
       11815000	      1180	80005884	039f1063	bne	x30,x25,800058a4	 x30:0x00165c90 x25:0x80009fe2
       11825000	      1181	00000000	00000013	addi	x0,x0,0	  x0:0x00000000
       11835000	      1182	800058a0	00000013	addi	x0,x0,0	  x0:0x00000000
       11845000	      1183	800058a4	18e24d93	xori	x27,x4,398	  x4:0xd346da1b x27=0xd346db95
       11855000	      1184	800058a8	05660b93	addi	x23,x12,86	 x12:0x00000000 x23=0x00000056
       11865000	      1185	800058ac	50dd13b7	lui	x7,0x50dd1	  x7=0x50dd1000
       11875000	      1186	800058b0	00000013	addi	x0,x0,0	  x0:0x00000000
       11885000	      1187	800058b4	0004b433	sltu	x8,x9,x0	  x9:0xe2000000  x0:0x00000000  x8=0x00000000
       11895000	      1188	800058b8	01179133	sll	x2,x15,x17	 x15:0x80009fe2 x17:0x80009f60  x2=0x80009fe2
       11905000	      1189	800058bc	0103b3b3	sltu	x7,x7,x16	  x7:0x50dd1000 x16:0xffff0001  x7=0x00000001
       11915000	      1190	800058c0	002efa63	bgeu	x29,x2,800058d4	 x29:0x00000001  x2:0x80009fe2
       11925000	      1191	800058c4	a9b5b113	sltiu	x2,x11,-1381	 x11:0x00000000  x2=0x00000001
       11935000	      1192	800058c8	00e1c833	xor	x16,x3,x14	  x3:0x80009fe2 x14:0x00000000 x16=0x80009fe2
       11945000	      1193	800058cc	165afb13	andi	x22,x21,357	 x21:0x80009c09 x22=0x00000001
       11955000	      1194	800058d0	faf24c93	xori	x25,x4,-81	  x4:0xd346da1b x25=0x2cb925b4
       11965000	      1195	800058d4	00000013	addi	x0,x0,0	  x0:0x00000000
       11975000	      1196	800058d8	01078433	add	x8,x15,x16	 x15:0x80009fe2 x16:0x80009fe2  x8=0x00013fc4
       11985000	      1197	800058dc	00dde663	bltu	x27,x13,800058e8	 x27:0xd346db95 x13:0x2cb919a1
       11995000	      1198	800058e0	0312c063	blt	x5,x17,80005900	  x5:0x80009f60 x17:0x80009f60
       12005000	      1199	800058e4	00059b33	sll	x22,x11,x0	 x11:0x00000000  x0:0x00000000 x22=0x00000000
       12015000	      1200	800058e8	b10b0e97	auipc	x29,0xb10b0	 x29=0x310b58e4
       12025000	      1201	800058ec	00000013	addi	x0,x0,0	  x0:0x00000000
       12035000	      1202	800058f0	01b94133	xor	x2,x18,x27	 x18:0x00000000 x27:0xd346db95  x2=0xd346db95
       12045000	      1203	800058f4	05386663	bltu	x16,x19,80005940	 x16:0x80009fe2 x19:0x00000000
       12055000	      1204	800058f8	bdcea313	slti	x6,x29,-1060	 x29:0x310b58e4  x6=0x00000000
       12065000	      1205	800058fc	0012b1b3	sltu	x3,x5,x1	  x5:0x80009f60  x1:0x00000001  x3=0x00000000
       12075000	      1206	80005900	00fb7c63	bgeu	x22,x15,80005918	 x22:0x00000000 x15:0x80009fe2
       12085000	      1207	80005904	00f33233	sltu	x4,x6,x15	  x6:0x00000000 x15:0x80009fe2  x4=0x00000001
       12095000	      1208	80005908	009bcc63	blt	x23,x9,80005920	 x23:0x00000056  x9:0xe2000000
       12105000	      1209	8000590c	11050b13	addi	x22,x10,272	 x10:0x00000000 x22=0x00000110
       12115000	      1210	80005910	056d7063	bgeu	x26,x22,80005950	 x26:0x00000000 x22:0x00000110
       12125000	      1211	80005914	992a3d37	lui	x26,0x992a3	 x26=0x992a3000
       12135000	      1212	80005918	04cf7263	bgeu	x30,x12,8000595c	 x30:0x00165c90 x12:0x00000000
       12145000	      1213	00000000	00000013	addi	x0,x0,0	  x0:0x00000000
       12155000	      1214	80005958	00000013	addi	x0,x0,0	  x0:0x00000000
       12165000	      1215	8000595c	c2fbe093	ori	x1,x23,-977	 x23:0x00000056  x1=0xfffffc7f
       12175000	      1216	80005960	01a685b3	add	x11,x13,x26	 x13:0x2cb919a1 x26:0x992a3000 x11=0xc5e349a1
       12185000	      1217	80005964	e6f80293	addi	x5,x16,-401	 x16:0x80009fe2  x5=0x80009e51
       12195000	      1218	80005968	40e98ab3	sub	x21,x19,x14	 x19:0x00000000 x14:0x00000000 x21=0x00000000
       12205000	      1219	8000596c	00aa6b33	or	x22,x20,x10	 x20:0xfffff900 x10:0x00000000 x22=0xfffff900
       12215000	      1220	80005970	01d360b3	or	x1,x6,x29	  x6:0x00000000 x29:0x310b58e4  x1=0x310b58e4
       12225000	      1221	80005974	006999b3	sll	x19,x19,x6	 x19:0x00000000  x6:0x00000000 x19=0x00000000
       12235000	      1222	80005978	00000013	addi	x0,x0,0	  x0:0x00000000
       12245000	      1223	8000597c	4079d2b3	sra	x5,x19,x7	 x19:0x00000000  x7:0x00000001  x5=0x00000000
       12255000	      1224	80005980	421df397	auipc	x7,0x421df	  x7=0xc21e497c
       12265000	      1225	80005984	01cf94b3	sll	x9,x31,x28	 x31:0x80009fc4 x28:0xa597dc09  x9=0x013f8800
       12275000	      1226	80005988	04648063	beq	x9,x6,800059c8	  x9:0x013f8800  x6:0x00000000
       12285000	      1227	8000598c	008f1bb3	sll	x23,x30,x8	 x30:0x00165c90  x8:0x00013fc4 x23=0x0165c900
       12295000	      1228	80005990	01e8d233	srl	x4,x17,x30	 x17:0x80009f60 x30:0x00165c90  x4=0x00008000
       12305000	      1229	80005994	01b4f263	bgeu	x9,x27,80005998	  x9:0x013f8800 x27:0xd346db95
       12315000	      1230	80005998	00000013	addi	x0,x0,0	  x0:0x00000000
       12325000	      1231	8000599c	012bf933	and	x18,x23,x18	 x23:0x0165c900 x18:0x00000000 x18=0x00000000
       12335000	      1232	800059a0	fda4bb93	sltiu	x23,x9,-38	  x9:0x013f8800 x23=0x00000001
       12345000	      1233	800059a4	00132cb3	slt	x25,x6,x1	  x6:0x00000000  x1:0x310b58e4 x25=0x00000001
       12355000	      1234	800059a8	019d8bb3	add	x23,x27,x25	 x27:0xd346db95 x25:0x00000001 x23=0xd346db96
       12365000	      1235	800059ac	7f926213	ori	x4,x4,2041	  x4:0x00008000  x4=0x000087f9
       12375000	      1236	800059b0	b4337393	andi	x7,x6,-1213	  x6:0x00000000  x7=0x00000000
       12385000	      1237	800059b4	000f6233	or	x4,x30,x0	 x30:0x00165c90  x0:0x00000000  x4=0x00165c90
       12395000	      1238	800059b8	47057d13	andi	x26,x10,1136	 x10:0x00000000 x26=0x00000000
       12405000	      1239	800059bc	fd2a7b13	andi	x22,x20,-46	 x20:0xfffff900 x22=0xfffff900
       12415000	      1240	800059c0	a76acd13	xori	x26,x21,-1418	 x21:0x00000000 x26=0xfffffa76
       12425000	      1241	800059c4	bfa56013	ori	x0,x10,-1030	 x10:0x00000000
       12435000	      1242	800059c8	006cdd33	srl	x26,x25,x6	 x25:0x00000001  x6:0x00000000 x26=0x00000001
       12445000	      1243	800059cc	43b80213	addi	x4,x16,1083	 x16:0x80009fe2  x4=0x8000a41d
       12455000	      1244	800059d0	01764eb3	xor	x29,x12,x23	 x12:0x00000000 x23:0xd346db96 x29=0xd346db96
       12465000	      1245	800059d4	41d0d413	srai	x8,x1,0x1d	  x1:0x310b58e4  x8=0x00000001
       12475000	      1246	800059d8	00fdf633	and	x12,x27,x15	 x27:0xd346db95 x15:0x80009fe2 x12=0x80009b80
       12485000	      1247	800059dc	540db393	sltiu	x7,x27,1344	 x27:0xd346db95  x7=0x00000000
       12495000	      1248	800059e0	d0eee6b7	lui	x13,0xd0eee	 x13=0xd0eee000
       12505000	      1249	800059e4	62b53213	sltiu	x4,x10,1579	 x10:0x00000000  x4=0x00000001
       12515000	      1250	800059e8	9660ad93	slti	x27,x1,-1690	  x1:0x310b58e4 x27=0x00000000
       12525000	      1251	800059ec	0099fc63	bgeu	x19,x9,80005a04	 x19:0x00000000  x9:0x013f8800
       12535000	      1252	800059f0	0181d433	srl	x8,x3,x24	  x3:0x00000000 x24:0x2597d000  x8=0x00000000
       12545000	      1253	800059f4	01a6e4b3	or	x9,x13,x26	 x13:0xd0eee000 x26:0x00000001  x9=0xd0eee001
       12555000	      1254	800059f8	01d0a9b3	slt	x19,x1,x29	  x1:0x310b58e4 x29:0xd346db96 x19=0x00000000
       12565000	      1255	800059fc	0148dab3	srl	x21,x17,x20	 x17:0x80009f60 x20:0xfffff900 x21=0x80009f60
       12575000	      1256	80005a00	40d28b33	sub	x22,x5,x13	  x5:0x00000000 x13:0xd0eee000 x22=0x2f112000
       12585000	      1257	80005a04	03104863	blt	x0,x17,80005a34	  x0:0x00000000 x17:0x80009f60
       12595000	      1258	80005a08	00aeea63	bltu	x29,x10,80005a1c	 x29:0xd346db96 x10:0x00000000
       12605000	      1259	80005a0c	0046b4b3	sltu	x9,x13,x4	 x13:0xd0eee000  x4:0x00000001  x9=0x00000000
       12615000	      1260	80005a10	0000b9b3	sltu	x19,x1,x0	  x1:0x310b58e4  x0:0x00000000 x19=0x00000000
       12625000	      1261	80005a14	0233cc63	blt	x7,x3,80005a4c	  x7:0x00000000  x3:0x00000000
       12635000	      1262	80005a18	015c9193	slli	x3,x25,0x15	 x25:0x00000001  x3=0x00200000
       12645000	      1263	80005a1c	00a419b3	sll	x19,x8,x10	  x8:0x00000000 x10:0x00000000 x19=0x00000000
       12655000	      1264	80005a20	00000013	addi	x0,x0,0	  x0:0x00000000
       12665000	      1265	80005a24	021b1263	bne	x22,x1,80005a48	 x22:0x2f112000  x1:0x310b58e4
       12675000	      1266	00000000	00000013	addi	x0,x0,0	  x0:0x00000000
       12685000	      1267	80005a44	00000013	addi	x0,x0,0	  x0:0x00000000
       12695000	      1268	80005a48	00fe9463	bne	x29,x15,80005a50	 x29:0xd346db96 x15:0x80009fe2
       12705000	      1269	00000000	00000013	addi	x0,x0,0	  x0:0x00000000
       12715000	      1270	80005a4c	00000013	addi	x0,x0,0	  x0:0x00000000
       12725000	      1271	80005a50	0f7b2817	auipc	x16,0xf7b2	 x16=0x8f7b7a4c
       12735000	      1272	80005a54	3ef80d13	addi	x26,x16,1007	 x16:0x8f7b7a4c x26=0x8f7b7e3b
       12745000	      1273	80005a58	04025263	bge	x4,x0,80005a9c	  x4:0x00000001  x0:0x00000000
       12755000	      1274	00000000	00000013	addi	x0,x0,0	  x0:0x00000000
       12765000	      1275	80005a98	00000013	addi	x0,x0,0	  x0:0x00000000
       12775000	      1276	80005a9c	004c1013	slli	x0,x24,0x4	 x24:0x2597d000
       12785000	      1277	80005aa0	66a47793	andi	x15,x8,1642	  x8:0x00000000 x15=0x00000000
       12795000	      1278	80005aa4	0089bcb3	sltu	x25,x19,x8	 x19:0x00000000  x8:0x00000000 x25=0x00000000
       12805000	      1279	80005aa8	401156b3	sra	x13,x2,x1	  x2:0xd346db95  x1:0x310b58e4 x13=0xfd346db9
       12815000	      1280	80005aac	01090eb3	add	x29,x18,x16	 x18:0x00000000 x16:0x8f7b7a4c x29=0x8f7b7a4c
       12825000	      1281	80005ab0	d2bfcb37	lui	x22,0xd2bfc	 x22=0xd2bfc000
       12835000	      1282	80005ab4	016a8b33	add	x22,x21,x22	 x21:0x80009f60 x22:0xd2bfc000 x22=0x52c05f60
       12845000	      1283	80005ab8	00fe1e93	slli	x29,x28,0xf	 x28:0xa597dc09 x29=0xee048000
       12855000	      1284	80005abc	0cd5fc63	bgeu	x11,x13,80005b94	 x11:0xc5e349a1 x13:0xfd346db9
       12865000	      1285	80005ac0	00003f17	auipc	x30,0x3	 x30=0x80008abc
       12875000	      1286	80005ac4	dd0f0f13	addi	x30,x30,-560	 x30:0x80008abc x30=0x8000888c
       12885000	      1287	80005ac8	5edeab93	slti	x23,x29,1517	 x29:0xee048000 x23=0x00000001
       12895000	      1288	80005acc	59ff2c23	sw	x31,1432(x30)	 x30:0x8000888c x31:0x80009fc4 PA:0x80008e24
       12905000	      1289	80005ad0	5ddf0583	lb	x11,1501(x30)	 x30:0x8000888c x11=0x00000035 PA:0x80008e69
       12915000	      1290	80005ad4	ff8f0a03	lb	x20,-8(x30)	 x30:0x8000888c x20=0xffffff98 PA:0x80008884
       12925000	      1291	80005ad8	42d97293	andi	x5,x18,1069	 x18:0x00000000  x5=0x00000000
       12935000	      1292	80005adc	62bf4e03	lbu	x28,1579(x30)	 x30:0x8000888c x28=0x00000024 PA:0x80008eb7
       12945000	      1293	80005ae0	152f1903	lh	x18,338(x30)	 x30:0x8000888c x18=0x000001f5 PA:0x800089de
       12955000	      1294	80005ae4	016b3e33	sltu	x28,x22,x22	 x22:0x52c05f60 x22:0x52c05f60 x28=0x00000000
       12965000	      1295	80005ae8	3a2f01a3	sb	x2,931(x30)	 x30:0x8000888c  x2:0xd346db95 PA:0x80008c2f
       12975000	      1296	80005aec	560f1c23	sh	x0,1400(x30)	 x30:0x8000888c  x0:0x00000000 PA:0x80008e04
       12985000	      1297	80005af0	00612633	slt	x12,x2,x6	  x2:0xd346db95  x6:0x00000000 x12=0x00000001
       12995000	      1298	80005af4	371f4c83	lbu	x25,881(x30)	 x30:0x8000888c x25=0x00000086 PA:0x80008bfd
       13005000	      1299	80005af8	fa1f0303	lb	x6,-95(x30)	 x30:0x8000888c  x6=0x0000004a PA:0x8000882d
       13015000	      1300	80005afc	00000013	addi	x0,x0,0	  x0:0x00000000
       13025000	      1301	80005b00	48bf0383	lb	x7,1163(x30)	 x30:0x8000888c  x7=0xffffff81 PA:0x80008d17
       13035000	      1302	80005b04	017d54b3	srl	x9,x26,x23	 x26:0x8f7b7e3b x23:0x00000001  x9=0x47bdbf1d
       13045000	      1303	80005b08	9ae44013	xori	x0,x8,-1618	  x8:0x00000000
       13055000	      1304	80005b0c	493f1e23	sh	x19,1180(x30)	 x30:0x8000888c x19:0x00000000 PA:0x80008d28
       13065000	      1305	80005b10	4bdf0ea3	sb	x29,1213(x30)	 x30:0x8000888c x29:0xee048000 PA:0x80008d49
       13075000	      1306	80005b14	495f0423	sb	x21,1160(x30)	 x30:0x8000888c x21:0x80009f60 PA:0x80008d14
       13085000	      1307	80005b18	485f0423	sb	x5,1160(x30)	 x30:0x8000888c  x5:0x00000000 PA:0x80008d14
       13095000	      1308	80005b1c	1bdf03a3	sb	x29,423(x30)	 x30:0x8000888c x29:0xee048000 PA:0x80008a33
       13105000	      1309	80005b20	01d99693	slli	x13,x19,0x1d	 x19:0x00000000 x13=0x00000000
       13115000	      1310	80005b24	0119c033	xor	x0,x19,x17	 x19:0x00000000 x17:0x80009f60
       13125000	      1311	80005b28	211f4403	lbu	x8,529(x30)	 x30:0x8000888c  x8=0x0000000a PA:0x80008a9d
       13135000	      1312	80005b2c	27af5103	lhu	x2,634(x30)	 x30:0x8000888c  x2=0x000065f9 PA:0x80008b06
       13145000	      1313	80005b30	09698b13	addi	x22,x19,150	 x19:0x00000000 x22=0x00000096
       13155000	      1314	80005b34	533f0983	lb	x19,1331(x30)	 x30:0x8000888c x19=0x00000035 PA:0x80008dbf
       13165000	      1315	80005b38	3e4f4a83	lbu	x21,996(x30)	 x30:0x8000888c x21=0x0000009d PA:0x80008c70
       13175000	      1316	80005b3c	3b6f5083	lhu	x1,950(x30)	 x30:0x8000888c  x1=0x00001c68 PA:0x80008c42
       13185000	      1317	80005b40	524f1b23	sh	x4,1334(x30)	 x30:0x8000888c  x4:0x00000001 PA:0x80008dc2
       13195000	      1318	80005b44	70e86c13	ori	x24,x16,1806	 x16:0x8f7b7a4c x24=0x8f7b7f4e
       13205000	      1319	80005b48	611f1423	sh	x17,1544(x30)	 x30:0x8000888c x17:0x80009f60 PA:0x80008e94
       13215000	      1320	80005b4c	00000013	addi	x0,x0,0	  x0:0x00000000
       13225000	      1321	80005b50	00ff0103	lb	x2,15(x30)	 x30:0x8000888c  x2=0xffffffbc PA:0x8000889b
       13235000	      1322	80005b54	15cf0aa3	sb	x28,341(x30)	 x30:0x8000888c x28:0x00000000 PA:0x800089e1
       13245000	      1323	80005b58	00bf8db3	add	x27,x31,x11	 x31:0x80009fc4 x11:0x00000035 x27=0x80009ff9
       13255000	      1324	80005b5c	f97f0283	lb	x5,-105(x30)	 x30:0x8000888c  x5=0x00000025 PA:0x80008823
       13265000	      1325	80005b60	0cdf01a3	sb	x13,195(x30)	 x30:0x8000888c x13:0x00000000 PA:0x8000894f
       13275000	      1326	80005b64	08d5e393	ori	x7,x11,141	 x11:0x00000035  x7=0x000000bd
       13285000	      1327	80005b68	2a6f1123	sh	x6,674(x30)	 x30:0x8000888c  x6:0x0000004a PA:0x80008b2e
       13295000	      1328	80005b6c	01ee6d33	or	x26,x28,x30	 x28:0x00000000 x30:0x8000888c x26=0x8000888c
       13305000	      1329	80005b70	a1f89217	auipc	x4,0xa1f89	  x4=0x21f8eb6c
       13315000	      1330	80005b74	416985b3	sub	x11,x19,x22	 x19:0x00000035 x22:0x00000096 x11=0xffffff9f
       13325000	      1331	80005b78	01715b93	srli	x23,x2,0x17	  x2:0xffffffbc x23=0x000001ff
       13335000	      1332	80005b7c	c8af8f13	addi	x30,x31,-886	 x31:0x80009fc4 x30=0x80009c4e
       13345000	      1333	80005b80	65362193	slti	x3,x12,1619	 x12:0x00000001  x3=0x00000001
       13355000	      1334	80005b84	019ce4b3	or	x9,x25,x25	 x25:0x00000086 x25:0x00000086  x9=0x00000086
       13365000	      1335	80005b88	e92b8793	addi	x15,x23,-366	 x23:0x000001ff x15=0x00000091
       13375000	      1336	80005b8c	399ba917	auipc	x18,0x399ba	 x18=0xb99bfb88
       13385000	      1337	80005b90	0082d033	srl	x0,x5,x8	  x5:0x00000025  x8:0x0000000a
       13395000	      1338	80005b94	d1036317	auipc	x6,0xd1036	  x6=0x5103bb90
       13405000	      1339	80005b98	017f9a63	bne	x31,x23,80005bac	 x31:0x80009fc4 x23:0x000001ff
       13415000	      1340	00000000	00000013	addi	x0,x0,0	  x0:0x00000000
       13425000	      1341	80005ba8	00000013	addi	x0,x0,0	  x0:0x00000000
       13435000	      1342	80005bac	f7ff3413	sltiu	x8,x30,-129	 x30:0x80009c4e  x8=0x00000001
       13445000	      1343	80005bb0	01313e93	sltiu	x29,x2,19	  x2:0xffffffbc x29=0x00000000
       13455000	      1344	80005bb4	00443233	sltu	x4,x8,x4	  x8:0x00000001  x4:0x21f8eb6c  x4=0x00000001
       13465000	      1345	80005bb8	0225c863	blt	x11,x2,80005be8	 x11:0xffffff9f  x2:0xffffffbc
       13475000	      1346	00000000	00000013	addi	x0,x0,0	  x0:0x00000000
       13485000	      1347	80005be4	00000013	addi	x0,x0,0	  x0:0x00000000
       13495000	      1348	80005be8	4144d833	sra	x16,x9,x20	  x9:0x00000086 x20:0xffffff98 x16=0x00000000
       13505000	      1349	80005bec	402a5a33	sra	x20,x20,x2	 x20:0xffffff98  x2:0xffffffbc x20=0xffffffff
       13515000	      1350	80005bf0	00f3da33	srl	x20,x7,x15	  x7:0x000000bd x15:0x00000091 x20=0x00000000
       13525000	      1351	80005bf4	41565193	srai	x3,x12,0x15	 x12:0x00000001  x3=0x00000000
       13535000	      1352	80005bf8	8ffef793	andi	x15,x29,-1793	 x29:0x00000000 x15=0x00000000
       13545000	      1353	80005bfc	01a4c4b3	xor	x9,x9,x26	  x9:0x00000086 x26:0x8000888c  x9=0x8000880a
       13555000	      1354	80005c00	16d23a93	sltiu	x21,x4,365	  x4:0x00000001 x21=0x00000001
       13565000	      1355	80005c04	4002dbb3	sra	x23,x5,x0	  x5:0x00000025  x0:0x00000000 x23=0x00000025
       13575000	      1356	80005c08	0204d663	bge	x9,x0,80005c34	  x9:0x8000880a  x0:0x00000000
       13585000	      1357	80005c0c	41050db3	sub	x27,x10,x16	 x10:0x00000000 x16:0x00000000 x27=0x00000000
       13595000	      1358	80005c10	00d9d993	srli	x19,x19,0xd	 x19:0x00000035 x19=0x00000000
       13605000	      1359	80005c14	00945c33	srl	x24,x8,x9	  x8:0x00000001  x9:0x8000880a x24=0x00000000
       13615000	      1360	80005c18	00deb6b3	sltu	x13,x29,x13	 x29:0x00000000 x13:0x00000000 x13=0x00000000
       13625000	      1361	80005c1c	cbed3f13	sltiu	x30,x26,-834	 x26:0x8000888c x30=0x00000001
       13635000	      1362	80005c20	01364d33	xor	x26,x12,x19	 x12:0x00000001 x19:0x00000000 x26=0x00000001
       13645000	      1363	80005c24	009e0db3	add	x27,x28,x9	 x28:0x00000000  x9:0x8000880a x27=0x8000880a
       13655000	      1364	80005c28	000fce33	xor	x28,x31,x0	 x31:0x80009fc4  x0:0x00000000 x28=0x80009fc4
       13665000	      1365	80005c2c	bea2f793	andi	x15,x5,-1046	  x5:0x00000025 x15=0x00000020
       13675000	      1366	80005c30	01a39263	bne	x7,x26,80005c34	  x7:0x000000bd x26:0x00000001
       13685000	      1367	00000000	00000013	addi	x0,x0,0	  x0:0x00000000
       13695000	      1368	80005c30	00000013	addi	x0,x0,0	  x0:0x00000000
       13705000	      1369	80005c34	9db50113	addi	x2,x10,-1573	 x10:0x00000000  x2=0xfffff9db
       13715000	      1370	80005c38	416f5333	sra	x6,x30,x22	 x30:0x00000001 x22:0x00000096  x6=0x00000000
       13725000	      1371	80005c3c	8c716c93	ori	x25,x2,-1849	  x2:0xfffff9db x25=0xfffff9df
       13735000	      1372	80005c40	00b00d33	add	x26,x0,x11	  x0:0x00000000 x11:0xffffff9f x26=0xffffff9f
       13745000	      1373	80005c44	75edd997	auipc	x19,0x75edd	 x19=0xf5ee2c40
       13755000	      1374	80005c48	73e07913	andi	x18,x0,1854	  x0:0x00000000 x18=0x00000000
       13765000	      1375	80005c4c	003fd193	srli	x3,x31,0x3	 x31:0x80009fc4  x3=0x100013f8
       13775000	      1376	80005c50	00be9193	slli	x3,x29,0xb	 x29:0x00000000  x3=0x00000000
       13785000	      1377	80005c54	404d0bb3	sub	x23,x26,x4	 x26:0xffffff9f  x4:0x00000001 x23=0xffffff9e
       13795000	      1378	80005c58	00000013	addi	x0,x0,0	  x0:0x00000000
       13805000	      1379	80005c5c	014b9913	slli	x18,x23,0x14	 x23:0xffffff9e x18=0xf9e00000
       13815000	      1380	80005c60	405ed113	srai	x2,x29,0x5	 x29:0x00000000  x2=0x00000000
       13825000	      1381	80005c64	0036a4b3	slt	x9,x13,x3	 x13:0x00000000  x3:0x00000000  x9=0x00000000
       13835000	      1382	80005c68	07582b13	slti	x22,x16,117	 x16:0x00000000 x22=0x00000001
       13845000	      1383	80005c6c	015cccb3	xor	x25,x25,x21	 x25:0xfffff9df x21:0x00000001 x25=0xfffff9de
       13855000	      1384	80005c70	05a31263	bne	x6,x26,80005cb4	  x6:0x00000000 x26:0xffffff9f
       13865000	      1385	00000000	00000013	addi	x0,x0,0	  x0:0x00000000
       13875000	      1386	80005cb0	00000013	addi	x0,x0,0	  x0:0x00000000
       13885000	      1387	80005cb4	01f539b3	sltu	x19,x10,x31	 x10:0x00000000 x31:0x80009fc4 x19=0x00000001
       13895000	      1388	80005cb8	00000013	addi	x0,x0,0	  x0:0x00000000
       13905000	      1389	80005cbc	33d36013	ori	x0,x6,829	  x6:0x00000000
       13915000	      1390	80005cc0	61ba2417	auipc	x8,0x61ba2	  x8=0xe1ba7cbc
       13925000	      1391	80005cc4	e1bc0513	addi	x10,x24,-485	 x24:0x00000000 x10=0xfffffe1b
       13935000	      1392	80005cc8	00389a33	sll	x20,x17,x3	 x17:0x80009f60  x3:0x00000000 x20=0x80009f60
       13945000	      1393	80005ccc	c73a2e13	slti	x28,x20,-909	 x20:0x80009f60 x28=0x00000001
       13955000	      1394	80005cd0	0e4a6663	bltu	x20,x4,80005dbc	 x20:0x80009f60  x4:0x00000001
       13965000	      1395	80005cd4	012aa7b3	slt	x15,x21,x18	 x21:0x00000001 x18:0xf9e00000 x15=0x00000000
       13975000	      1396	80005cd8	013f55b3	srl	x11,x30,x19	 x30:0x00000001 x19:0x00000001 x11=0x00000000
       13985000	      1397	80005cdc	419c8cb3	sub	x25,x25,x25	 x25:0xfffff9de x25:0xfffff9de x25=0x00000000
       13995000	      1398	80005ce0	e1547393	andi	x7,x8,-491	  x8:0xe1ba7cbc  x7=0xe1ba7c14
       14005000	      1399	80005ce4	0018d263	bge	x17,x1,80005ce8	 x17:0x80009f60  x1:0x00001c68
       14015000	      1400	80005ce8	012dd663	bge	x27,x18,80005cf4	 x27:0x8000880a x18:0xf9e00000
       14025000	      1401	80005cec	2fc37693	andi	x13,x6,764	  x6:0x00000000 x13=0x00000000
       14035000	      1402	80005cf0	4135d113	srai	x2,x11,0x13	 x11:0x00000000  x2=0x00000000
       14045000	      1403	80005cf4	00995d33	srl	x26,x18,x9	 x18:0xf9e00000  x9:0x00000000 x26=0xf9e00000
       14055000	      1404	80005cf8	00251a33	sll	x20,x10,x2	 x10:0xfffffe1b  x2:0x00000000 x20=0xfffffe1b
       14065000	      1405	80005cfc	00a4fbb3	and	x23,x9,x10	  x9:0x00000000 x10:0xfffffe1b x23=0x00000000
       14075000	      1406	80005d00	00691133	sll	x2,x18,x6	 x18:0xf9e00000  x6:0x00000000  x2=0xf9e00000
       14085000	      1407	80005d04	52382293	slti	x5,x16,1315	 x16:0x00000000  x5=0x00000001
       14095000	      1408	80005d08	0f9a7463	bgeu	x20,x25,80005df0	 x20:0xfffffe1b x25:0x00000000
       14105000	      1409	00000000	00000013	addi	x0,x0,0	  x0:0x00000000
       14115000	      1410	80005dec	00000013	addi	x0,x0,0	  x0:0x00000000
       14125000	      1411	80005df0	403fd513	srai	x10,x31,0x3	 x31:0x80009fc4 x10=0xf00013f8
       14135000	      1412	80005df4	2c0b2a13	slti	x20,x22,704	 x22:0x00000001 x20=0x00000001
       14145000	      1413	80005df8	00e09d13	slli	x26,x1,0xe	  x1:0x00001c68 x26=0x071a0000
       14155000	      1414	80005dfc	0301e863	bltu	x3,x16,80005e2c	  x3:0x00000000 x16:0x00000000
       14165000	      1415	80005e00	0024b333	sltu	x6,x9,x2	  x9:0x00000000  x2:0xf9e00000  x6=0x00000001
       14175000	      1416	80005e04	00284433	xor	x8,x16,x2	 x16:0x00000000  x2:0xf9e00000  x8=0xf9e00000
       14185000	      1417	80005e08	00d81e63	bne	x16,x13,80005e24	 x16:0x00000000 x13:0x00000000
       14195000	      1418	80005e0c	0f2a7c93	andi	x25,x20,242	 x20:0x00000001 x25=0x00000000
       14205000	      1419	80005e10	bd792393	slti	x7,x18,-1065	 x18:0xf9e00000  x7=0x00000001
       14215000	      1420	80005e14	0081e463	bltu	x3,x8,80005e1c	  x3:0x00000000  x8:0xf9e00000
       14225000	      1421	00000000	00000013	addi	x0,x0,0	  x0:0x00000000
       14235000	      1422	80005e18	00000013	addi	x0,x0,0	  x0:0x00000000
       14245000	      1423	80005e1c	40d4d5b3	sra	x11,x9,x13	  x9:0x00000000 x13:0x00000000 x11=0x00000000
       14255000	      1424	80005e20	009edf33	srl	x30,x29,x9	 x29:0x00000000  x9:0x00000000 x30=0x00000000
       14265000	      1425	80005e24	01579c63	bne	x15,x21,80005e3c	 x15:0x00000000 x21:0x00000001
       14275000	      1426	00000000	00000013	addi	x0,x0,0	  x0:0x00000000
       14285000	      1427	80005e38	00000013	addi	x0,x0,0	  x0:0x00000000
       14295000	      1428	80005e3c	005c9793	slli	x15,x25,0x5	 x25:0x00000000 x15=0x00000000
       14305000	      1429	80005e40	b1edf093	andi	x1,x27,-1250	 x27:0x8000880a  x1=0x8000880a
       14315000	      1430	80005e44	10ceb117	auipc	x2,0x10ceb	  x2=0x90cf0e40
       14325000	      1431	80005e48	709e8f37	lui	x30,0x709e8	 x30=0x709e8000
       14335000	      1432	80005e4c	529b4493	xori	x9,x22,1321	 x22:0x00000001  x9=0x00000528
       14345000	      1433	80005e50	0182adb3	slt	x27,x5,x24	  x5:0x00000001 x24:0x00000000 x27=0x00000000
       14355000	      1434	80005e54	00000013	addi	x0,x0,0	  x0:0x00000000
       14365000	      1435	80005e58	002e5a63	bge	x28,x2,80005e6c	 x28:0x00000001  x2:0x90cf0e40
       14375000	      1436	00000000	00000013	addi	x0,x0,0	  x0:0x00000000
       14385000	      1437	80005e68	00000013	addi	x0,x0,0	  x0:0x00000000
       14395000	      1438	80005e6c	fc7f0c97	auipc	x25,0xfc7f0	 x25=0x7c7f5e68
       14405000	      1439	80005e70	01655cb3	srl	x25,x10,x22	 x10:0xf00013f8 x22:0x00000001 x25=0x780009fc
       14415000	      1440	80005e74	404f8633	sub	x12,x31,x4	 x31:0x80009fc4  x4:0x00000001 x12=0x80009fc3
       14425000	      1441	80005e78	101eda63	bge	x29,x1,80005f8c	 x29:0x00000000  x1:0x8000880a
       14435000	      1442	00000000	00000013	addi	x0,x0,0	  x0:0x00000000
       14445000	      1443	80005f88	00000013	addi	x0,x0,0	  x0:0x00000000
       14455000	      1444	80005f8c	403b5613	srai	x12,x22,0x3	 x22:0x00000001 x12=0x00000000
       14465000	      1445	80005f90	0002a633	slt	x12,x5,x0	  x5:0x00000001  x0:0x00000000 x12=0x00000000
       14475000	      1446	80005f94	00496463	bltu	x18,x4,80005f9c	 x18:0xf9e00000  x4:0x00000001
       14485000	      1447	80005f98	41c18eb3	sub	x29,x3,x28	  x3:0x00000000 x28:0x00000001 x29=0xffffffff
       14495000	      1448	80005f9c	01857633	and	x12,x10,x24	 x10:0xf00013f8 x24:0x00000000 x12=0x00000000
       14505000	      1449	80005fa0	0050a233	slt	x4,x1,x5	  x1:0x8000880a  x5:0x00000001  x4=0x00000001
       14515000	      1450	80005fa4	0257e663	bltu	x15,x5,80005fd0	 x15:0x00000000  x5:0x00000001
       14525000	      1451	00000000	00000013	addi	x0,x0,0	  x0:0x00000000
       14535000	      1452	80005fcc	00000013	addi	x0,x0,0	  x0:0x00000000
       14545000	      1453	80005fd0	40e7d6b3	sra	x13,x15,x14	 x15:0x00000000 x14:0x00000000 x13=0x00000000
       14555000	      1454	80005fd4	7929e613	ori	x12,x19,1938	 x19:0x00000001 x12=0x00000793
       14565000	      1455	80005fd8	41b15613	srai	x12,x2,0x1b	  x2:0x90cf0e40 x12=0xfffffff2
       14575000	      1456	80005fdc	460ea317	auipc	x6,0x460ea	  x6=0xc60effd8
       14585000	      1457	80005fe0	01fe0663	beq	x28,x31,80005fec	 x28:0x00000001 x31:0x80009fc4
       14595000	      1458	80005fe4	007ab033	sltu	x0,x21,x7	 x21:0x00000001  x7:0x00000001
       14605000	      1459	80005fe8	04ebee63	bltu	x23,x14,80006044	 x23:0x00000000 x14:0x00000000
       14615000	      1460	80005fec	0346f813	andi	x16,x13,52	 x13:0x00000000 x16=0x00000000
       14625000	      1461	80005ff0	573232b7	lui	x5,0x57323	  x5=0x57323000
       14635000	      1462	80005ff4	61a7c313	xori	x6,x15,1562	 x15:0x00000000  x6=0x0000061a
       14645000	      1463	80005ff8	2d62a413	slti	x8,x5,726	  x5:0x57323000  x8=0x00000000
       14655000	      1464	80005ffc	fb86ce13	xori	x28,x13,-72	 x13:0x00000000 x28=0xffffffb8
       14665000	      1465	80006000	07bf5c63	bge	x30,x27,80006078	 x30:0x709e8000 x27:0x00000000
       14675000	      1466	00000000	00000013	addi	x0,x0,0	  x0:0x00000000
       14685000	      1467	80006074	00000013	addi	x0,x0,0	  x0:0x00000000
       14695000	      1468	80006078	a66fbb93	sltiu	x23,x31,-1434	 x31:0x80009fc4 x23=0x00000001
       14705000	      1469	8000607c	03cb9863	bne	x23,x28,800060ac	 x23:0x00000001 x28:0xffffffb8
       14715000	      1470	00000000	00000013	addi	x0,x0,0	  x0:0x00000000
       14725000	      1471	800060a8	00000013	addi	x0,x0,0	  x0:0x00000000
       14735000	      1472	800060ac	5b470693	addi	x13,x14,1460	 x14:0x00000000 x13=0x000005b4
       14745000	      1473	800060b0	01528533	add	x10,x5,x21	  x5:0x57323000 x21:0x00000001 x10=0x57323001
       14755000	      1474	800060b4	00837b33	and	x22,x6,x8	  x6:0x0000061a  x8:0x00000000 x22=0x00000000
       14765000	      1475	800060b8	00644a63	blt	x8,x6,800060cc	  x8:0x00000000  x6:0x0000061a
       14775000	      1476	00000000	00000013	addi	x0,x0,0	  x0:0x00000000
       14785000	      1477	800060c8	00000013	addi	x0,x0,0	  x0:0x00000000
       14795000	      1478	800060cc	05097263	bgeu	x18,x16,80006110	 x18:0xf9e00000 x16:0x00000000
       14805000	      1479	00000000	00000013	addi	x0,x0,0	  x0:0x00000000
       14815000	      1480	8000610c	00000013	addi	x0,x0,0	  x0:0x00000000
       14825000	      1481	80006110	d1956797	auipc	x15,0xd1956	 x15=0x5195c10c
       14835000	      1482	80006114	6f14c493	xori	x9,x9,1777	  x9:0x00000528  x9=0x000003d9
       14845000	      1483	80006118	415a5213	srai	x4,x20,0x15	 x20:0x00000001  x4=0x00000000
       14855000	      1484	8000611c	019637b3	sltu	x15,x12,x25	 x12:0xfffffff2 x25:0x780009fc x15=0x00000000
       14865000	      1485	80006120	24570d97	auipc	x27,0x24570	 x27=0xa457611c
       14875000	      1486	80006124	009f7f33	and	x30,x30,x9	 x30:0x709e8000  x9:0x000003d9 x30=0x00000000
       14885000	      1487	80006128	00cdcc63	blt	x27,x12,80006140	 x27:0xa457611c x12:0xfffffff2
       14895000	      1488	00000000	00000013	addi	x0,x0,0	  x0:0x00000000
       14905000	      1489	8000613c	00000013	addi	x0,x0,0	  x0:0x00000000
       14915000	      1490	80006140	41618a33	sub	x20,x3,x22	  x3:0x00000000 x22:0x00000000 x20=0x00000000
       14925000	      1491	80006144	b79b6037	lui	x0,0xb79b6	
       14935000	      1492	80006148	017e7463	bgeu	x28,x23,80006150	 x28:0xffffffb8 x23:0x00000001
       14945000	      1493	00000000	00000013	addi	x0,x0,0	  x0:0x00000000
       14955000	      1494	8000614c	00000013	addi	x0,x0,0	  x0:0x00000000
       14965000	      1495	80006150	008067b3	or	x15,x0,x8	  x0:0x00000000  x8:0x00000000 x15=0x00000000
       14975000	      1496	80006154	8bc22b93	slti	x23,x4,-1860	  x4:0x00000000 x23=0x00000000
       14985000	      1497	80006158	0258f863	bgeu	x17,x5,80006188	 x17:0x80009f60  x5:0x57323000
       14995000	      1498	00000000	00000013	addi	x0,x0,0	  x0:0x00000000
       15005000	      1499	80006184	00000013	addi	x0,x0,0	  x0:0x00000000
       15015000	      1500	80006188	40b15d33	sra	x26,x2,x11	  x2:0x90cf0e40 x11:0x00000000 x26=0x90cf0e40
       15025000	      1501	8000618c	014a5813	srli	x16,x20,0x14	 x20:0x00000000 x16=0x00000000
       15035000	      1502	80006190	6f158913	addi	x18,x11,1777	 x11:0x00000000 x18=0x000006f1
       15045000	      1503	80006194	00408c63	beq	x1,x4,800061ac	  x1:0x8000880a  x4:0x00000000
       15055000	      1504	80006198	407e03b3	sub	x7,x28,x7	 x28:0xffffffb8  x7:0x00000001  x7=0xffffffb7
       15065000	      1505	8000619c	008f0bb3	add	x23,x30,x8	 x30:0x00000000  x8:0x00000000 x23=0x00000000
       15075000	      1506	800061a0	05a6e663	bltu	x13,x26,800061ec	 x13:0x000005b4 x26:0x90cf0e40
       15085000	      1507	00000000	00000013	addi	x0,x0,0	  x0:0x00000000
       15095000	      1508	800061e8	00000013	addi	x0,x0,0	  x0:0x00000000
       15105000	      1509	800061ec	41055493	srai	x9,x10,0x10	 x10:0x57323001  x9=0x00005732
       15115000	      1510	800061f0	76df4e93	xori	x29,x30,1901	 x30:0x00000000 x29=0x0000076d
       15125000	      1511	800061f4	00cca233	slt	x4,x25,x12	 x25:0x780009fc x12:0xfffffff2  x4=0x00000000
       15135000	      1512	800061f8	41495233	sra	x4,x18,x20	 x18:0x000006f1 x20:0x00000000  x4=0x000006f1
       15145000	      1513	800061fc	d581e013	ori	x0,x3,-680	  x3:0x00000000
       15155000	      1514	80006200	e5f84c37	lui	x24,0xe5f84	 x24=0xe5f84000
       15165000	      1515	80006204	0150d833	srl	x16,x1,x21	  x1:0x8000880a x21:0x00000001 x16=0x40004405
       15175000	      1516	80006208	1bc70313	addi	x6,x14,444	 x14:0x00000000  x6=0x000001bc
       15185000	      1517	8000620c	eec18413	addi	x8,x3,-276	  x3:0x00000000  x8=0xfffffeec
       15195000	      1518	80006210	01e30db3	add	x27,x6,x30	  x6:0x000001bc x30:0x00000000 x27=0x000001bc
       15205000	      1519	80006214	014cd3b3	srl	x7,x25,x20	 x25:0x780009fc x20:0x00000000  x7=0x780009fc
       15215000	      1520	80006218	3fc76db7	lui	x27,0x3fc76	 x27=0x3fc76000
       15225000	      1521	8000621c	0035ea63	bltu	x11,x3,80006230	 x11:0x00000000  x3:0x00000000
       15235000	      1522	80006220	c22a6f13	ori	x30,x20,-990	 x20:0x00000000 x30=0xfffffc22
       15245000	      1523	80006224	03e89663	bne	x17,x30,80006250	 x17:0x80009f60 x30:0xfffffc22
       15255000	      1524	00000000	00000013	addi	x0,x0,0	  x0:0x00000000
       15265000	      1525	8000624c	00000013	addi	x0,x0,0	  x0:0x00000000
       15275000	      1526	80006250	01d55c13	srli	x24,x10,0x1d	 x10:0x57323001 x24=0x00000002
       15285000	      1527	80006254	627bfd93	andi	x27,x23,1575	 x23:0x00000000 x27=0x00000000
       15295000	      1528	80006258	00663f33	sltu	x30,x12,x6	 x12:0xfffffff2  x6:0x000001bc x30=0x00000000
       15305000	      1529	8000625c	41de02b3	sub	x5,x28,x29	 x28:0xffffffb8 x29:0x0000076d  x5=0xfffff84b
       15315000	      1530	80006260	004a6863	bltu	x20,x4,80006270	 x20:0x00000000  x4:0x000006f1
       15325000	      1531	00000000	00000013	addi	x0,x0,0	  x0:0x00000000
       15335000	      1532	8000626c	00000013	addi	x0,x0,0	  x0:0x00000000
       15345000	      1533	80006270	00331663	bne	x6,x3,8000627c	  x6:0x000001bc  x3:0x00000000
       15355000	      1534	00000000	00000013	addi	x0,x0,0	  x0:0x00000000
       15365000	      1535	80006278	00000013	addi	x0,x0,0	  x0:0x00000000
       15375000	      1536	8000627c	01cae233	or	x4,x21,x28	 x21:0x00000001 x28:0xffffffb8  x4=0xffffffb9
       15385000	      1537	80006280	009154b3	srl	x9,x2,x9	  x2:0x90cf0e40  x9:0x00005732  x9=0x00002433
       15395000	      1538	80006284	a2574213	xori	x4,x14,-1499	 x14:0x00000000  x4=0xfffffa25
       15405000	      1539	80006288	50b8ba13	sltiu	x20,x17,1291	 x17:0x80009f60 x20=0x00000000
       15415000	      1540	8000628c	0153deb3	srl	x29,x7,x21	  x7:0x780009fc x21:0x00000001 x29=0x3c0004fe
       15425000	      1541	80006290	6e820eb7	lui	x29,0x6e820	 x29=0x6e820000
       15435000	      1542	80006294	00003b17	auipc	x22,0x3	 x22=0x80009290
       15445000	      1543	80006298	8c5b0b13	addi	x22,x22,-1851	 x22:0x80009290 x22=0x80008b55
       15455000	      1544	8000629c	ff4b1ca3	sh	x20,-7(x22)	 x22:0x80008b55 x20:0x00000000 PA:0x80008b4e
       15465000	      1545	800062a0	00eb0523	sb	x14,10(x22)	 x22:0x80008b55 x14:0x00000000 PA:0x80008b5f
       15475000	      1546	800062a4	00fb1103	lh	x2,15(x22)	 x22:0x80008b55  x2=0xffff86ba PA:0x80008b64
       15485000	      1547	00000000	00000013	addi	x0,x0,0	  x0:0x00000000
       15495000	      1548	800062a8	002b0283	lb	x5,2(x22)	 x22:0x80008b55  x5=0xffffff86 PA:0x80008b57
       15505000	      1549	800062ac	e4bd6517	auipc	x10,0xe4bd6	 x10=0x64bdc2a8
       15515000	      1550	800062b0	6e013213	sltiu	x4,x2,1760	  x2:0xffff86ba  x4=0x00000000
       15525000	      1551	800062b4	5f06fa13	andi	x20,x13,1520	 x13:0x000005b4 x20=0x000005b0
       15535000	      1552	800062b8	00038e33	add	x28,x7,x0	  x7:0x780009fc  x0:0x00000000 x28=0x780009fc
       15545000	      1553	800062bc	000e52b3	srl	x5,x28,x0	 x28:0x780009fc  x0:0x00000000  x5=0x780009fc
       15555000	      1554	800062c0	edc48c13	addi	x24,x9,-292	  x9:0x00002433 x24=0x0000230f
       15565000	      1555	800062c4	01be6d33	or	x26,x28,x27	 x28:0x780009fc x27:0x00000000 x26=0x780009fc
       15575000	      1556	800062c8	00b28333	add	x6,x5,x11	  x5:0x780009fc x11:0x00000000  x6=0x780009fc
       15585000	      1557	800062cc	010b0123	sb	x16,2(x22)	 x22:0x80008b55 x16:0x40004405 PA:0x80008b57
       15595000	      1558	800062d0	40f25e93	srai	x29,x4,0xf	  x4:0x00000000 x29=0x00000000
       15605000	      1559	800062d4	40815533	sra	x10,x2,x8	  x2:0xffff86ba  x8:0xfffffeec x10=0xfffffff8
       15615000	      1560	800062d8	fe1b09a3	sb	x1,-13(x22)	 x22:0x80008b55  x1:0x8000880a PA:0x80008b48
       15625000	      1561	800062dc	000b0423	sb	x0,8(x22)	 x22:0x80008b55  x0:0x00000000 PA:0x80008b5d
       15635000	      1562	800062e0	006c7633	and	x12,x24,x6	 x24:0x0000230f  x6:0x780009fc x12=0x0000010c
       15645000	      1563	800062e4	00617f33	and	x30,x2,x6	  x2:0xffff86ba  x6:0x780009fc x30=0x780000b8
       15655000	      1564	800062e8	002b0e83	lb	x29,2(x22)	 x22:0x80008b55 x29=0x00000005 PA:0x80008b57
       15665000	      1565	800062ec	002b4d83	lbu	x27,2(x22)	 x22:0x80008b55 x27=0x00000005 PA:0x80008b57
       15675000	      1566	800062f0	400c8337	lui	x6,0x400c8	  x6=0x400c8000
       15685000	      1567	800062f4	851b4793	xori	x15,x22,-1967	 x22:0x80008b55 x15=0x7fff7304
       15695000	      1568	800062f8	0116f6b3	and	x13,x13,x17	 x13:0x000005b4 x17:0x80009f60 x13=0x00000520
       15705000	      1569	800062fc	acc80793	addi	x15,x16,-1332	 x16:0x40004405 x15=0x40003ed1
       15715000	      1570	80006300	01bfadb3	slt	x27,x31,x27	 x31:0x80009fc4 x27:0x00000005 x27=0x00000001
       15725000	      1571	80006304	00ab0e03	lb	x28,10(x22)	 x22:0x80008b55 x28=0x00000000 PA:0x80008b5f
       15735000	      1572	80006308	01f8a9b3	slt	x19,x17,x31	 x17:0x80009f60 x31:0x80009fc4 x19=0x00000001
       15745000	      1573	8000630c	ff2b0e23	sb	x18,-4(x22)	 x22:0x80008b55 x18:0x000006f1 PA:0x80008b51
       15755000	      1574	80006310	00cb0803	lb	x16,12(x22)	 x22:0x80008b55 x16=0x00000000 PA:0x80008b61
       15765000	      1575	80006314	002b0583	lb	x11,2(x22)	 x22:0x80008b55 x11=0x00000005 PA:0x80008b57
       15775000	      1576	80006318	ffbb1c83	lh	x25,-5(x22)	 x22:0x80008b55 x25=0xfffff178 PA:0x80008b50
       15785000	      1577	8000631c	01e957b3	srl	x15,x18,x30	 x18:0x000006f1 x30:0x780000b8 x15=0x00000000
       15795000	      1578	80006320	00000013	addi	x0,x0,0	  x0:0x00000000
       15805000	      1579	80006324	ff0b0483	lb	x9,-16(x22)	 x22:0x80008b55  x9=0xffffffe7 PA:0x80008b45
       15815000	      1580	80006328	0125c233	xor	x4,x11,x18	 x11:0x00000005 x18:0x000006f1  x4=0x000006f4
       15825000	      1581	8000632c	00cb4083	lbu	x1,12(x22)	 x22:0x80008b55  x1=0x00000000 PA:0x80008b61
       15835000	      1582	80006330	0e418093	addi	x1,x3,228	  x3:0x00000000  x1=0x000000e4
       15845000	      1583	80006334	01049533	sll	x10,x9,x16	  x9:0xffffffe7 x16:0x00000000 x10=0xffffffe7
       15855000	      1584	80006338	001b21a3	sw	x1,3(x22)	 x22:0x80008b55  x1:0x000000e4 PA:0x80008b58
       15865000	      1585	8000633c	29cc0437	lui	x8,0x29cc0	  x8=0x29cc0000
       15875000	      1586	80006340	006b0183	lb	x3,6(x22)	 x22:0x80008b55  x3=0x00000000 PA:0x80008b5b
       15885000	      1587	80006344	ffdb0923	sb	x29,-14(x22)	 x22:0x80008b55 x29:0x00000005 PA:0x80008b47
       15895000	      1588	80006348	ff1b0c23	sb	x17,-8(x22)	 x22:0x80008b55 x17:0x80009f60 PA:0x80008b4d
       15905000	      1589	8000634c	410e5913	srai	x18,x28,0x10	 x28:0x00000000 x18=0x00000000
       15915000	      1590	80006350	ff8b4003	lbu	x0,-8(x22)	 x22:0x80008b55 PA:0x80008b4d
       15925000	      1591	80006354	019fe333	or	x6,x31,x25	 x31:0x80009fc4 x25:0xfffff178  x6=0xfffffffc
       15935000	      1592	80006358	6bb04a13	xori	x20,x0,1723	  x0:0x00000000 x20=0x000006bb
       15945000	      1593	8000635c	b7492a13	slti	x20,x18,-1164	 x18:0x00000000 x20=0x00000000
       15955000	      1594	80006360	896e2413	slti	x8,x28,-1898	 x28:0x00000000  x8=0x00000000
       15965000	      1595	80006364	413a5eb3	sra	x29,x20,x19	 x20:0x00000000 x19:0x00000001 x29=0x00000000
       15975000	      1596	80006368	32647d17	auipc	x26,0x32647	 x26=0xb264d364
       15985000	      1597	8000636c	0019fd33	and	x26,x19,x1	 x19:0x00000001  x1:0x000000e4 x26=0x00000000
       15995000	      1598	80006370	01db6d33	or	x26,x22,x29	 x22:0x80008b55 x29:0x00000000 x26=0x80008b55
       16005000	      1599	80006374	d1f6e113	ori	x2,x13,-737	 x13:0x00000520  x2=0xfffffd3f
       16015000	      1600	80006378	7cbb0e13	addi	x28,x22,1995	 x22:0x80008b55 x28=0x80009320
       16025000	      1601	8000637c	eca9c793	xori	x15,x19,-310	 x19:0x00000001 x15=0xfffffecb
       16035000	      1602	80006380	ff769517	auipc	x10,0xff769	 x10=0x7f76f37c
       16045000	      1603	80006384	0422f663	bgeu	x5,x2,800063d0	  x5:0x780009fc  x2:0xfffffd3f
       16055000	      1604	80006388	01d8e7b3	or	x15,x17,x29	 x17:0x80009f60 x29:0x00000000 x15=0x80009f60
       16065000	      1605	8000638c	f4347613	andi	x12,x8,-189	  x8:0x00000000 x12=0x00000000
       16075000	      1606	80006390	0156a1b3	slt	x3,x13,x21	 x13:0x00000520 x21:0x00000001  x3=0x00000000
       16085000	      1607	80006394	021a8263	beq	x21,x1,800063b8	 x21:0x00000001  x1:0x000000e4
       16095000	      1608	80006398	41f15e13	srai	x28,x2,0x1f	  x2:0xfffffd3f x28=0xffffffff
       16105000	      1609	8000639c	00fd9c93	slli	x25,x27,0xf	 x27:0x00000001 x25=0x00008000
       16115000	      1610	800063a0	0174dd13	srli	x26,x9,0x17	  x9:0xffffffe7 x26=0x000001ff
       16125000	      1611	800063a4	01a82233	slt	x4,x16,x26	 x16:0x00000000 x26:0x000001ff  x4=0x00000001
       16135000	      1612	800063a8	031dc863	blt	x27,x17,800063d8	 x27:0x00000001 x17:0x80009f60
       16145000	      1613	800063ac	8f8ef417	auipc	x8,0x8f8ef	  x8=0x0f8f53a8
       16155000	      1614	800063b0	49e5e113	ori	x2,x11,1182	 x11:0x00000005  x2=0x0000049f
       16165000	      1615	800063b4	004b7f33	and	x30,x22,x4	 x22:0x80008b55  x4:0x00000001 x30=0x00000001
       16175000	      1616	800063b8	00715693	srli	x13,x2,0x7	  x2:0x0000049f x13=0x00000009
       16185000	      1617	800063bc	00a43eb3	sltu	x29,x8,x10	  x8:0x0f8f53a8 x10:0x7f76f37c x29=0x00000001
       16195000	      1618	800063c0	81398f37	lui	x30,0x81398	 x30=0x81398000
       16205000	      1619	800063c4	04d9c063	blt	x19,x13,80006404	 x19:0x00000001 x13:0x00000009
       16215000	      1620	00000000	00000013	addi	x0,x0,0	  x0:0x00000000
       16225000	      1621	80006400	00000013	addi	x0,x0,0	  x0:0x00000000
       16235000	      1622	80006404	9de48397	auipc	x7,0x9de48	  x7=0x1de4e400
       16245000	      1623	80006408	00b8c263	blt	x17,x11,8000640c	 x17:0x80009f60 x11:0x00000005
       16255000	      1624	00000000	00000013	addi	x0,x0,0	  x0:0x00000000
       16265000	      1625	80006408	00000013	addi	x0,x0,0	  x0:0x00000000
       16275000	      1626	8000640c	028ae063	bltu	x21,x8,8000642c	 x21:0x00000001  x8:0x0f8f53a8
       16285000	      1627	00000000	00000013	addi	x0,x0,0	  x0:0x00000000
       16295000	      1628	80006428	00000013	addi	x0,x0,0	  x0:0x00000000
       16305000	      1629	8000642c	d631fd17	auipc	x26,0xd631f	 x26=0x56325428
       16315000	      1630	80006430	40f4da93	srai	x21,x9,0xf	  x9:0xffffffe7 x21=0xffffffff
       16325000	      1631	80006434	00ebabb3	slt	x23,x23,x14	 x23:0x00000000 x14:0x00000000 x23=0x00000000
       16335000	      1632	80006438	01454663	blt	x10,x20,80006444	 x10:0x7f76f37c x20:0x00000000
       16345000	      1633	8000643c	0161c263	blt	x3,x22,80006440	  x3:0x00000000 x22:0x80008b55
       16355000	      1634	80006440	45f9ce13	xori	x28,x19,1119	 x19:0x00000001 x28=0x0000045e
       16365000	      1635	80006444	e3ec2a93	slti	x21,x24,-450	 x24:0x0000230f x21=0x00000000
       16375000	      1636	80006448	a69aa693	slti	x13,x21,-1431	 x21:0x00000000 x13=0x00000000
       16385000	      1637	8000644c	7e37fd13	andi	x26,x15,2019	 x15:0x80009f60 x26=0x00000760
       16395000	      1638	80006450	00c272b3	and	x5,x4,x12	  x4:0x00000001 x12:0x00000000  x5=0x00000000
       16405000	      1639	80006454	00a55213	srli	x4,x10,0xa	 x10:0x7f76f37c  x4=0x001fddbc
       16415000	      1640	80006458	5910e037	lui	x0,0x5910e	
       16425000	      1641	8000645c	417e5213	srai	x4,x28,0x17	 x28:0x0000045e  x4=0x00000000
       16435000	      1642	80006460	0372c663	blt	x5,x23,8000648c	  x5:0x00000000 x23:0x00000000
       16445000	      1643	80006464	4d1abc37	lui	x24,0x4d1ab	 x24=0x4d1ab000
       16455000	      1644	80006468	000e57b3	srl	x15,x28,x0	 x28:0x0000045e  x0:0x00000000 x15=0x0000045e
       16465000	      1645	8000646c	01b58a33	add	x20,x11,x27	 x11:0x00000005 x27:0x00000001 x20=0x00000006
       16475000	      1646	80006470	011dc133	xor	x2,x27,x17	 x27:0x00000001 x17:0x80009f60  x2=0x80009f61
       16485000	      1647	80006474	00000013	addi	x0,x0,0	  x0:0x00000000
       16495000	      1648	80006478	010a06b3	add	x13,x20,x16	 x20:0x00000006 x16:0x00000000 x13=0x00000006
       16505000	      1649	8000647c	00252633	slt	x12,x10,x2	 x10:0x7f76f37c  x2:0x80009f61 x12=0x00000000
       16515000	      1650	80006480	7aa06493	ori	x9,x0,1962	  x0:0x00000000  x9=0x000007aa
       16525000	      1651	80006484	01867133	and	x2,x12,x24	 x12:0x00000000 x24:0x4d1ab000  x2=0x00000000
       16535000	      1652	80006488	00b03f33	sltu	x30,x0,x11	  x0:0x00000000 x11:0x00000005 x30=0x00000001
       16545000	      1653	8000648c	43ce2b13	slti	x22,x28,1084	 x28:0x0000045e x22=0x00000000
       16555000	      1654	80006490	00071e63	bne	x14,x0,800064ac	 x14:0x00000000  x0:0x00000000
       16565000	      1655	80006494	00942c33	slt	x24,x8,x9	  x8:0x0f8f53a8  x9:0x000007aa x24=0x00000000
       16575000	      1656	80006498	403b8e33	sub	x28,x23,x3	 x23:0x00000000  x3:0x00000000 x28=0x00000000
       16585000	      1657	8000649c	06532193	slti	x3,x6,101	  x6:0xfffffffc  x3=0x00000001
       16595000	      1658	800064a0	0401e063	bltu	x3,x0,800064e0	  x3:0x00000001  x0:0x00000000
       16605000	      1659	800064a4	0175c833	xor	x16,x11,x23	 x11:0x00000005 x23:0x00000000 x16=0x00000005
       16615000	      1660	800064a8	0319c063	blt	x19,x17,800064c8	 x19:0x00000001 x17:0x80009f60
       16625000	      1661	800064ac	01b8ea63	bltu	x17,x27,800064c0	 x17:0x80009f60 x27:0x00000001
       16635000	      1662	800064b0	4df02e93	slti	x29,x0,1247	  x0:0x00000000 x29=0x00000001
       16645000	      1663	800064b4	007bd863	bge	x23,x7,800064c4	 x23:0x00000000  x7:0x1de4e400
       16655000	      1664	800064b8	00f075b3	and	x11,x0,x15	  x0:0x00000000 x15:0x0000045e x11=0x00000000
       16665000	      1665	800064bc	cbd4a813	slti	x16,x9,-835	  x9:0x000007aa x16=0x00000000
       16675000	      1666	800064c0	041e6263	bltu	x28,x1,80006504	 x28:0x00000000  x1:0x000000e4
       16685000	      1667	00000000	00000013	addi	x0,x0,0	  x0:0x00000000
       16695000	      1668	80006500	00000013	addi	x0,x0,0	  x0:0x00000000
       16705000	      1669	80006504	00000013	addi	x0,x0,0	  x0:0x00000000
       16715000	      1670	80006508	30472e13	slti	x28,x14,772	 x14:0x00000000 x28=0x00000001
       16725000	      1671	8000650c	017b5833	srl	x16,x22,x23	 x22:0x00000000 x23:0x00000000 x16=0x00000000
       16735000	      1672	80006510	01b9de93	srli	x29,x19,0x1b	 x19:0x00000001 x29=0x00000000
       16745000	      1673	80006514	0c7d8137	lui	x2,0xc7d8	  x2=0x0c7d8000
       16755000	      1674	80006518	0038fa63	bgeu	x17,x3,8000652c	 x17:0x80009f60  x3:0x00000001
       16765000	      1675	00000000	00000013	addi	x0,x0,0	  x0:0x00000000
       16775000	      1676	80006528	00000013	addi	x0,x0,0	  x0:0x00000000
       16785000	      1677	8000652c	4166d233	sra	x4,x13,x22	 x13:0x00000006 x22:0x00000000  x4=0x00000006
       16795000	      1678	80006530	01424233	xor	x4,x4,x20	  x4:0x00000006 x20:0x00000006  x4=0x00000000
       16805000	      1679	80006534	01d06bb3	or	x23,x0,x29	  x0:0x00000000 x29:0x00000000 x23=0x00000000
       16815000	      1680	80006538	72cd8393	addi	x7,x27,1836	 x27:0x00000001  x7=0x0000072d
       16825000	      1681	8000653c	f1bb2a13	slti	x20,x22,-229	 x22:0x00000000 x20=0x00000000
       16835000	      1682	80006540	967c0393	addi	x7,x24,-1689	 x24:0x00000000  x7=0xfffff967
       16845000	      1683	80006544	40d95b33	sra	x22,x18,x13	 x18:0x00000000 x13:0x00000006 x22=0x00000000
       16855000	      1684	80006548	02aa0597	auipc	x11,0x2aa0	 x11=0x82aa6544
       16865000	      1685	8000654c	41960b33	sub	x22,x12,x25	 x12:0x00000000 x25:0x00008000 x22=0xffff8000
       16875000	      1686	80006550	40c18eb3	sub	x29,x3,x12	  x3:0x00000001 x12:0x00000000 x29=0x00000001
       16885000	      1687	80006554	04abb393	sltiu	x7,x23,74	 x23:0x00000000  x7=0x00000001
       16895000	      1688	80006558	1cbff537	lui	x10,0x1cbff	 x10=0x1cbff000
       16905000	      1689	8000655c	02a54463	blt	x10,x10,80006584	 x10:0x1cbff000 x10:0x1cbff000
       16915000	      1690	80006560	01df5833	srl	x16,x30,x29	 x30:0x00000001 x29:0x00000001 x16=0x00000000
       16925000	      1691	80006564	0480f663	bgeu	x1,x8,800065b0	  x1:0x000000e4  x8:0x0f8f53a8
       16935000	      1692	80006568	bf990a93	addi	x21,x18,-1031	 x18:0x00000000 x21=0xfffffbf9
       16945000	      1693	8000656c	dd233993	sltiu	x19,x6,-558	  x6:0xfffffffc x19=0x00000000
       16955000	      1694	80006570	057a4263	blt	x20,x23,800065b4	 x20:0x00000000 x23:0x00000000
       16965000	      1695	80006574	01ee1c63	bne	x28,x30,8000658c	 x28:0x00000001 x30:0x00000001
       16975000	      1696	80006578	013a5293	srli	x5,x20,0x13	 x20:0x00000000  x5=0x00000000
       16985000	      1697	8000657c	40620f33	sub	x30,x4,x6	  x4:0x00000000  x6:0xfffffffc x30=0x00000004
       16995000	      1698	80006580	004e95b3	sll	x11,x29,x4	 x29:0x00000001  x4:0x00000000 x11=0x00000001
       17005000	      1699	80006584	016d7663	bgeu	x26,x22,80006590	 x26:0x00000760 x22:0xffff8000
       17015000	      1700	80006588	411cdd93	srai	x27,x25,0x11	 x25:0x00008000 x27=0x00000000
       17025000	      1701	8000658c	004ff933	and	x18,x31,x4	 x31:0x80009fc4  x4:0x00000000 x18=0x00000000
       17035000	      1702	80006590	003b6663	bltu	x22,x3,8000659c	 x22:0xffff8000  x3:0x00000001
       17045000	      1703	80006594	5196b513	sltiu	x10,x13,1305	 x13:0x00000006 x10=0x00000001
       17055000	      1704	80006598	4a84a293	slti	x5,x9,1192	  x9:0x000007aa  x5=0x00000000
       17065000	      1705	8000659c	9bda0617	auipc	x12,0x9bda0	 x12=0x1bda6598
       17075000	      1706	800065a0	01c07c33	and	x24,x0,x28	  x0:0x00000000 x28:0x00000001 x24=0x00000000
       17085000	      1707	800065a4	55bceb93	ori	x23,x25,1371	 x25:0x00008000 x23=0x0000855b
       17095000	      1708	800065a8	00139433	sll	x8,x7,x1	  x7:0x00000001  x1:0x000000e4  x8=0x00000010
       17105000	      1709	800065ac	68f1c993	xori	x19,x3,1679	  x3:0x00000001 x19=0x0000068e
       17115000	      1710	800065b0	41208a33	sub	x20,x1,x18	  x1:0x000000e4 x18:0x00000000 x20=0x000000e4
       17125000	      1711	800065b4	037d0063	beq	x26,x23,800065d4	 x26:0x00000760 x23:0x0000855b
       17135000	      1712	800065b8	027fea63	bltu	x31,x7,800065ec	 x31:0x80009fc4  x7:0x00000001
       17145000	      1713	800065bc	739bc793	xori	x15,x23,1849	 x23:0x0000855b x15=0x00008262
       17155000	      1714	800065c0	96fb7c17	auipc	x24,0x96fb7	 x24=0x16fbd5bc
       17165000	      1715	800065c4	0296cc63	blt	x13,x9,800065fc	 x13:0x00000006  x9:0x000007aa
       17175000	      1716	00000000	00000013	addi	x0,x0,0	  x0:0x00000000
       17185000	      1717	800065f8	00000013	addi	x0,x0,0	  x0:0x00000000
       17195000	      1718	800065fc	2a94a513	slti	x10,x9,681	  x9:0x000007aa x10=0x00000000
       17205000	      1719	80006600	01da9633	sll	x12,x21,x29	 x21:0xfffffbf9 x29:0x00000001 x12=0xfffff7f2
       17215000	      1720	80006604	3b01ec93	ori	x25,x3,944	  x3:0x00000001 x25=0x000003b1
       17225000	      1721	80006608	92660313	addi	x6,x12,-1754	 x12:0xfffff7f2  x6=0xfffff118
       17235000	      1722	8000660c	015e4433	xor	x8,x28,x21	 x28:0x00000001 x21:0xfffffbf9  x8=0xfffffbf8
       17245000	      1723	80006610	953f2313	slti	x6,x30,-1709	 x30:0x00000004  x6=0x00000000
       17255000	      1724	80006614	042c0663	beq	x24,x2,80006660	 x24:0x16fbd5bc  x2:0x0c7d8000
       17265000	      1725	80006618	03aa5863	bge	x20,x26,80006648	 x20:0x000000e4 x26:0x00000760
       17275000	      1726	8000661c	00000013	addi	x0,x0,0	  x0:0x00000000
       17285000	      1727	80006620	030dd863	bge	x27,x16,80006650	 x27:0x00000000 x16:0x00000000
       17295000	      1728	00000000	00000013	addi	x0,x0,0	  x0:0x00000000
       17305000	      1729	8000664c	00000013	addi	x0,x0,0	  x0:0x00000000
       17315000	      1730	80006650	024e5263	bge	x28,x4,80006674	 x28:0x00000001  x4:0x00000000
       17325000	      1731	00000000	00000013	addi	x0,x0,0	  x0:0x00000000
       17335000	      1732	80006670	00000013	addi	x0,x0,0	  x0:0x00000000
       17345000	      1733	80006674	00a71533	sll	x10,x14,x10	 x14:0x00000000 x10:0x00000000 x10=0x00000000
       17355000	      1734	80006678	404b0db3	sub	x27,x22,x4	 x22:0xffff8000  x4:0x00000000 x27=0xffff8000
       17365000	      1735	8000667c	40ed8cb3	sub	x25,x27,x14	 x27:0xffff8000 x14:0x00000000 x25=0xffff8000
       17375000	      1736	80006680	01226eb3	or	x29,x4,x18	  x4:0x00000000 x18:0x00000000 x29=0x00000000
       17385000	      1737	80006684	1f35b493	sltiu	x9,x11,499	 x11:0x00000001  x9=0x00000001
       17395000	      1738	80006688	40875ab3	sra	x21,x14,x8	 x14:0x00000000  x8:0xfffffbf8 x21=0x00000000
       17405000	      1739	8000668c	016a0a63	beq	x20,x22,800066a0	 x20:0x000000e4 x22:0xffff8000
       17415000	      1740	80006690	0055d5b3	srl	x11,x11,x5	 x11:0x00000001  x5:0x00000000 x11=0x00000001
       17425000	      1741	80006694	01701eb3	sll	x29,x0,x23	  x0:0x00000000 x23:0x0000855b x29=0x00000000
       17435000	      1742	80006698	6f61fb17	auipc	x22,0x6f61f	 x22=0xef625694
       17445000	      1743	8000669c	01c90a33	add	x20,x18,x28	 x18:0x00000000 x28:0x00000001 x20=0x00000001
       17455000	      1744	800066a0	00c09c13	slli	x24,x1,0xc	  x1:0x000000e4 x24=0x000e4000
       17465000	      1745	800066a4	41b5db33	sra	x22,x11,x27	 x11:0x00000001 x27:0xffff8000 x22=0x00000001
       17475000	      1746	800066a8	1c8a6c37	lui	x24,0x1c8a6	 x24=0x1c8a6000
       17485000	      1747	800066ac	410c4d93	xori	x27,x24,1040	 x24:0x1c8a6000 x27=0x1c8a6410
       17495000	      1748	800066b0	01ea87b3	add	x15,x21,x30	 x21:0x00000000 x30:0x00000004 x15=0x00000004
       17505000	      1749	800066b4	01a7c9b3	xor	x19,x15,x26	 x15:0x00000004 x26:0x00000760 x19=0x00000764
       17515000	      1750	800066b8	00111c93	slli	x25,x2,0x1	  x2:0x0c7d8000 x25=0x18fb0000
       17525000	      1751	800066bc	02edd663	bge	x27,x14,800066e8	 x27:0x1c8a6410 x14:0x00000000
       17535000	      1752	00000000	00000013	addi	x0,x0,0	  x0:0x00000000
       17545000	      1753	800066e4	00000013	addi	x0,x0,0	  x0:0x00000000
       17555000	      1754	800066e8	01086533	or	x10,x16,x16	 x16:0x00000000 x16:0x00000000 x10=0x00000000
       17565000	      1755	800066ec	015b5b93	srli	x23,x22,0x15	 x22:0x00000001 x23=0x00000000
       17575000	      1756	800066f0	41ca5593	srai	x11,x20,0x1c	 x20:0x00000001 x11=0x00000000
       17585000	      1757	800066f4	6a4b2f13	slti	x30,x22,1700	 x22:0x00000001 x30=0x00000001
       17595000	      1758	800066f8	03a31463	bne	x6,x26,80006720	  x6:0x00000000 x26:0x00000760
       17605000	      1759	00000000	00000013	addi	x0,x0,0	  x0:0x00000000
       17615000	      1760	8000671c	00000013	addi	x0,x0,0	  x0:0x00000000
       17625000	      1761	80006720	01e5dd93	srli	x27,x11,0x1e	 x11:0x00000000 x27=0x00000000
       17635000	      1762	80006724	c7bdc793	xori	x15,x27,-901	 x27:0x00000000 x15=0xfffffc7b
       17645000	      1763	80006728	01ebc5b3	xor	x11,x23,x30	 x23:0x00000000 x30:0x00000001 x11=0x00000001
       17655000	      1764	8000672c	003a55b3	srl	x11,x20,x3	 x20:0x00000001  x3:0x00000001 x11=0x00000000
       17665000	      1765	80006730	0152dc63	bge	x5,x21,80006748	  x5:0x00000000 x21:0x00000000
       17675000	      1766	00000000	00000013	addi	x0,x0,0	  x0:0x00000000
       17685000	      1767	80006744	00000013	addi	x0,x0,0	  x0:0x00000000
       17695000	      1768	80006748	00000013	addi	x0,x0,0	  x0:0x00000000
       17705000	      1769	8000674c	059c4263	blt	x24,x25,80006790	 x24:0x1c8a6000 x25:0x18fb0000
       17715000	      1770	80006750	007f2033	slt	x0,x30,x7	 x30:0x00000001  x7:0x00000001
       17725000	      1771	80006754	00000013	addi	x0,x0,0	  x0:0x00000000
       17735000	      1772	80006758	40a15833	sra	x16,x2,x10	  x2:0x0c7d8000 x10:0x00000000 x16=0x0c7d8000
       17745000	      1773	8000675c	7e683b13	sltiu	x22,x16,2022	 x16:0x0c7d8000 x22=0x00000000
       17755000	      1774	80006760	a84cb913	sltiu	x18,x25,-1404	 x25:0x18fb0000 x18=0x00000001
       17765000	      1775	80006764	7672b793	sltiu	x15,x5,1895	  x5:0x00000000 x15=0x00000001
       17775000	      1776	80006768	045ae063	bltu	x21,x5,800067a8	 x21:0x00000000  x5:0x00000000
       17785000	      1777	8000676c	2f0fcd13	xori	x26,x31,752	 x31:0x80009fc4 x26=0x80009d34
       17795000	      1778	80006770	01bf5e63	bge	x30,x27,8000678c	 x30:0x00000001 x27:0x00000000
       17805000	      1779	00000000	00000013	addi	x0,x0,0	  x0:0x00000000
       17815000	      1780	80006788	00000013	addi	x0,x0,0	  x0:0x00000000
       17825000	      1781	8000678c	002f7533	and	x10,x30,x2	 x30:0x00000001  x2:0x0c7d8000 x10=0x00000000
       17835000	      1782	80006790	014b5b93	srli	x23,x22,0x14	 x22:0x00000000 x23=0x00000000
       17845000	      1783	80006794	89428a93	addi	x21,x5,-1900	  x5:0x00000000 x21=0xfffff894
       17855000	      1784	80006798	14143f13	sltiu	x30,x8,321	  x8:0xfffffbf8 x30=0x00000000
       17865000	      1785	8000679c	005b1d93	slli	x27,x22,0x5	 x22:0x00000000 x27=0x00000000
       17875000	      1786	800067a0	9d369697	auipc	x13,0x9d369	 x13=0x1d36f79c
       17885000	      1787	800067a4	0f13ba13	sltiu	x20,x7,241	  x7:0x00000001 x20=0x00000001
       17895000	      1788	800067a8	41575533	sra	x10,x14,x21	 x14:0x00000000 x21:0xfffff894 x10=0x00000000
       17905000	      1789	800067ac	889b3313	sltiu	x6,x22,-1911	 x22:0x00000000  x6=0x00000001
       17915000	      1790	800067b0	015df263	bgeu	x27,x21,800067b4	 x27:0x00000000 x21:0xfffff894
       17925000	      1791	800067b4	01038633	add	x12,x7,x16	  x7:0x00000001 x16:0x0c7d8000 x12=0x0c7d8001
       17935000	      1792	800067b8	01c421b3	slt	x3,x8,x28	  x8:0xfffffbf8 x28:0x00000001  x3=0x00000001
       17945000	      1793	800067bc	00ea9493	slli	x9,x21,0xe	 x21:0xfffff894  x9=0xfe250000
       17955000	      1794	800067c0	04fc4263	blt	x24,x15,80006804	 x24:0x1c8a6000 x15:0x00000001
       17965000	      1795	800067c4	00000013	addi	x0,x0,0	  x0:0x00000000
       17975000	      1796	800067c8	48bbb337	lui	x6,0x48bbb	  x6=0x48bbb000
       17985000	      1797	800067cc	41780cb3	sub	x25,x16,x23	 x16:0x0c7d8000 x23:0x00000000 x25=0x0c7d8000
       17995000	      1798	800067d0	40f651b3	sra	x3,x12,x15	 x12:0x0c7d8001 x15:0x00000001  x3=0x063ec000
       18005000	      1799	800067d4	41a3dab3	sra	x21,x7,x26	  x7:0x00000001 x26:0x80009d34 x21=0x00000000
       18015000	      1800	800067d8	41485f33	sra	x30,x16,x20	 x16:0x0c7d8000 x20:0x00000001 x30=0x063ec000
       18025000	      1801	800067dc	00064533	xor	x10,x12,x0	 x12:0x0c7d8001  x0:0x00000000 x10=0x0c7d8001
       18035000	      1802	800067e0	04c36663	bltu	x6,x12,8000682c	  x6:0x48bbb000 x12:0x0c7d8001
       18045000	      1803	800067e4	cd80cb93	xori	x23,x1,-808	  x1:0x000000e4 x23=0xfffffc3c
       18055000	      1804	800067e8	03091a63	bne	x18,x16,8000681c	 x18:0x00000001 x16:0x0c7d8000
       18065000	      1805	00000000	00000013	addi	x0,x0,0	  x0:0x00000000
       18075000	      1806	80006818	00000013	addi	x0,x0,0	  x0:0x00000000
       18085000	      1807	8000681c	41d9d9b3	sra	x19,x19,x29	 x19:0x00000764 x29:0x00000000 x19=0x00000764
       18095000	      1808	80006820	fec68eb7	lui	x29,0xfec68	 x29=0xfec68000
       18105000	      1809	80006824	0174d833	srl	x16,x9,x23	  x9:0xfe250000 x23:0xfffffc3c x16=0x0000000f
       18115000	      1810	80006828	03001863	bne	x0,x16,80006858	  x0:0x00000000 x16:0x0000000f
       18125000	      1811	00000000	00000013	addi	x0,x0,0	  x0:0x00000000
       18135000	      1812	80006854	00000013	addi	x0,x0,0	  x0:0x00000000
       18145000	      1813	80006858	40fdd833	sra	x16,x27,x15	 x27:0x00000000 x15:0x00000001 x16=0x00000000
       18155000	      1814	8000685c	0160bd33	sltu	x26,x1,x22	  x1:0x000000e4 x22:0x00000000 x26=0x00000000
       18165000	      1815	80006860	0050f133	and	x2,x1,x5	  x1:0x000000e4  x5:0x00000000  x2=0x00000000
       18175000	      1816	80006864	018a1ab3	sll	x21,x20,x24	 x20:0x00000001 x24:0x1c8a6000 x21=0x00000001
       18185000	      1817	80006868	03054863	blt	x10,x16,80006898	 x10:0x0c7d8001 x16:0x00000000
       18195000	      1818	8000686c	0096b333	sltu	x6,x13,x9	 x13:0x1d36f79c  x9:0xfe250000  x6=0x00000001
       18205000	      1819	80006870	02753513	sltiu	x10,x10,39	 x10:0x0c7d8001 x10=0x00000000
       18215000	      1820	80006874	41a60bb3	sub	x23,x12,x26	 x12:0x0c7d8001 x26:0x00000000 x23=0x0c7d8001
       18225000	      1821	80006878	01180d33	add	x26,x16,x17	 x16:0x00000000 x17:0x80009f60 x26=0x80009f60
       18235000	      1822	8000687c	05e2d263	bge	x5,x30,800068c0	  x5:0x00000000 x30:0x063ec000
       18245000	      1823	80006880	000095b3	sll	x11,x1,x0	  x1:0x000000e4  x0:0x00000000 x11=0x000000e4
       18255000	      1824	80006884	00000013	addi	x0,x0,0	  x0:0x00000000
       18265000	      1825	80006888	00e4deb3	srl	x29,x9,x14	  x9:0xfe250000 x14:0x00000000 x29=0xfe250000
       18275000	      1826	8000688c	01745813	srli	x16,x8,0x17	  x8:0xfffffbf8 x16=0x000001ff
       18285000	      1827	80006890	009c4a63	blt	x24,x9,800068a4	 x24:0x1c8a6000  x9:0xfe250000
       18295000	      1828	80006894	ea243637	lui	x12,0xea243	 x12=0xea243000
       18305000	      1829	80006898	00a690b3	sll	x1,x13,x10	 x13:0x1d36f79c x10:0x00000000  x1=0x1d36f79c
       18315000	      1830	8000689c	ebe72c93	slti	x25,x14,-322	 x14:0x00000000 x25=0x00000000
       18325000	      1831	800068a0	30390c13	addi	x24,x18,771	 x18:0x00000001 x24=0x00000304
       18335000	      1832	800068a4	4d49b093	sltiu	x1,x19,1236	 x19:0x00000764  x1=0x00000000
       18345000	      1833	800068a8	01b9ea33	or	x20,x19,x27	 x19:0x00000764 x27:0x00000000 x20=0x00000764
       18355000	      1834	800068ac	00120db3	add	x27,x4,x1	  x4:0x00000000  x1:0x00000000 x27=0x00000000
       18365000	      1835	800068b0	00762b33	slt	x22,x12,x7	 x12:0xea243000  x7:0x00000001 x22=0x00000001
       18375000	      1836	800068b4	8eaf7113	andi	x2,x30,-1814	 x30:0x063ec000  x2=0x063ec000
       18385000	      1837	800068b8	eeedfd13	andi	x26,x27,-274	 x27:0x00000000 x26=0x00000000
       18395000	      1838	800068bc	2ca74593	xori	x11,x14,714	 x14:0x00000000 x11=0x000002ca
       18405000	      1839	800068c0	01aea513	slti	x10,x29,26	 x29:0xfe250000 x10=0x00000001
       18415000	      1840	800068c4	00a34db3	xor	x27,x6,x10	  x6:0x00000001 x10:0x00000001 x27=0x00000000
       18425000	      1841	800068c8	0122ce33	xor	x28,x5,x18	  x5:0x00000000 x18:0x00000001 x28=0x00000001
       18435000	      1842	800068cc	02cb1063	bne	x22,x12,800068ec	 x22:0x00000001 x12:0xea243000
       18445000	      1843	00000000	00000013	addi	x0,x0,0	  x0:0x00000000
       18455000	      1844	800068e8	00000013	addi	x0,x0,0	  x0:0x00000000
       18465000	      1845	800068ec	01ca6e63	bltu	x20,x28,80006908	 x20:0x00000764 x28:0x00000001
       18475000	      1846	800068f0	00d12133	slt	x2,x2,x13	  x2:0x063ec000 x13:0x1d36f79c  x2=0x00000001
       18485000	      1847	800068f4	00000013	addi	x0,x0,0	  x0:0x00000000
       18495000	      1848	800068f8	40ed51b3	sra	x3,x26,x14	 x26:0x00000000 x14:0x00000000  x3=0x00000000
       18505000	      1849	800068fc	00519d33	sll	x26,x3,x5	  x3:0x00000000  x5:0x00000000 x26=0x00000000
       18515000	      1850	80006900	1099e313	ori	x6,x19,265	 x19:0x00000764  x6=0x0000076d
       18525000	      1851	80006904	00000013	addi	x0,x0,0	  x0:0x00000000
       18535000	      1852	80006908	01b83f33	sltu	x30,x16,x27	 x16:0x000001ff x27:0x00000000 x30=0x00000000
       18545000	      1853	8000690c	40745a33	sra	x20,x8,x7	  x8:0xfffffbf8  x7:0x00000001 x20=0xfffffdfc
       18555000	      1854	80006910	010004b3	add	x9,x0,x16	  x0:0x00000000 x16:0x000001ff  x9=0x000001ff
       18565000	      1855	80006914	34c9c493	xori	x9,x19,844	 x19:0x00000764  x9=0x00000428
       18575000	      1856	80006918	01bad0b3	srl	x1,x21,x27	 x21:0x00000001 x27:0x00000000  x1=0x00000001
       18585000	      1857	8000691c	40aa8bb3	sub	x23,x21,x10	 x21:0x00000001 x10:0x00000001 x23=0x00000000
       18595000	      1858	80006920	02df3693	sltiu	x13,x30,45	 x30:0x00000000 x13=0x00000001
       18605000	      1859	80006924	00000013	addi	x0,x0,0	  x0:0x00000000
       18615000	      1860	80006928	02c47c63	bgeu	x8,x12,80006960	  x8:0xfffffbf8 x12:0xea243000
       18625000	      1861	00000000	00000013	addi	x0,x0,0	  x0:0x00000000
       18635000	      1862	8000695c	00000013	addi	x0,x0,0	  x0:0x00000000
       18645000	      1863	80006960	01b24863	blt	x4,x27,80006970	  x4:0x00000000 x27:0x00000000
       18655000	      1864	80006964	01485c63	bge	x16,x20,8000697c	 x16:0x000001ff x20:0xfffffdfc
       18665000	      1865	00000000	00000013	addi	x0,x0,0	  x0:0x00000000
       18675000	      1866	80006978	00000013	addi	x0,x0,0	  x0:0x00000000
       18685000	      1867	8000697c	41a1dd33	sra	x26,x3,x26	  x3:0x00000000 x26:0x00000000 x26=0x00000000
       18695000	      1868	80006980	018b93b3	sll	x7,x23,x24	 x23:0x00000000 x24:0x00000304  x7=0x00000000
       18705000	      1869	80006984	65e44213	xori	x4,x8,1630	  x8:0xfffffbf8  x4=0xfffffda6
       18715000	      1870	80006988	0193fcb3	and	x25,x7,x25	  x7:0x00000000 x25:0x00000000 x25=0x00000000
       18725000	      1871	8000698c	02684063	blt	x16,x6,800069ac	 x16:0x000001ff  x6:0x0000076d
       18735000	      1872	00000000	00000013	addi	x0,x0,0	  x0:0x00000000
       18745000	      1873	800069a8	00000013	addi	x0,x0,0	  x0:0x00000000
       18755000	      1874	800069ac	01513d33	sltu	x26,x2,x21	  x2:0x00000001 x21:0x00000001 x26=0x00000000
       18765000	      1875	800069b0	007f7a63	bgeu	x30,x7,800069c4	 x30:0x00000000  x7:0x00000000
       18775000	      1876	00000000	00000013	addi	x0,x0,0	  x0:0x00000000
       18785000	      1877	800069c0	00000013	addi	x0,x0,0	  x0:0x00000000
       18795000	      1878	800069c4	00554eb3	xor	x29,x10,x5	 x10:0x00000001  x5:0x00000000 x29=0x00000001
       18805000	      1879	800069c8	41525913	srai	x18,x4,0x15	  x4:0xfffffda6 x18=0xffffffff
       18815000	      1880	800069cc	40045a13	srai	x20,x8,0x0	  x8:0xfffffbf8 x20=0xfffffbf8
       18825000	      1881	800069d0	4078d033	sra	x0,x17,x7	 x17:0x80009f60  x7:0x00000000
       18835000	      1882	800069d4	0117da13	srli	x20,x15,0x11	 x15:0x00000001 x20=0x00000000
       18845000	      1883	800069d8	019c5633	srl	x12,x24,x25	 x24:0x00000304 x25:0x00000000 x12=0x00000304
       18855000	      1884	800069dc	009a2ab3	slt	x21,x20,x9	 x20:0x00000000  x9:0x00000428 x21=0x00000001
       18865000	      1885	800069e0	01a35463	bge	x6,x26,800069e8	  x6:0x0000076d x26:0x00000000
       18875000	      1886	00000000	00000013	addi	x0,x0,0	  x0:0x00000000
       18885000	      1887	800069e4	00000013	addi	x0,x0,0	  x0:0x00000000
       18895000	      1888	800069e8	00000013	addi	x0,x0,0	  x0:0x00000000
       18905000	      1889	800069ec	01f48133	add	x2,x9,x31	  x9:0x00000428 x31:0x80009fc4  x2=0x8000a3ec
       18915000	      1890	800069f0	4fa96493	ori	x9,x18,1274	 x18:0xffffffff  x9=0xffffffff
       18925000	      1891	800069f4	00000013	addi	x0,x0,0	  x0:0x00000000
       18935000	      1892	800069f8	041d6263	bltu	x26,x1,80006a3c	 x26:0x00000000  x1:0x00000001
       18945000	      1893	00000000	00000013	addi	x0,x0,0	  x0:0x00000000
       18955000	      1894	80006a38	00000013	addi	x0,x0,0	  x0:0x00000000
       18965000	      1895	80006a3c	00da6333	or	x6,x20,x13	 x20:0x00000000 x13:0x00000001  x6=0x00000001
       18975000	      1896	80006a40	852da513	slti	x10,x27,-1966	 x27:0x00000000 x10=0x00000000
       18985000	      1897	80006a44	1a392a13	slti	x20,x18,419	 x18:0xffffffff x20=0x00000001
       18995000	      1898	80006a48	4056df33	sra	x30,x13,x5	 x13:0x00000001  x5:0x00000000 x30=0x00000001
       19005000	      1899	80006a4c	03cc6a63	bltu	x24,x28,80006a80	 x24:0x00000304 x28:0x00000001
       19015000	      1900	80006a50	231599b7	lui	x19,0x23159	 x19=0x23159000
       19025000	      1901	80006a54	00061663	bne	x12,x0,80006a60	 x12:0x00000304  x0:0x00000000
       19035000	      1902	00000000	00000013	addi	x0,x0,0	  x0:0x00000000
       19045000	      1903	80006a5c	00000013	addi	x0,x0,0	  x0:0x00000000
       19055000	      1904	80006a60	00000013	addi	x0,x0,0	  x0:0x00000000
       19065000	      1905	80006a64	01c663b3	or	x7,x12,x28	 x12:0x00000304 x28:0x00000001  x7=0x00000305
       19075000	      1906	80006a68	b3e3e813	ori	x16,x7,-1218	  x7:0x00000305 x16=0xfffffb3f
       19085000	      1907	80006a6c	00717bb3	and	x23,x2,x7	  x2:0x8000a3ec  x7:0x00000305 x23=0x00000304
       19095000	      1908	80006a70	41a65a13	srai	x20,x12,0x1a	 x12:0x00000304 x20=0x00000000
       19105000	      1909	80006a74	013bbdb3	sltu	x27,x23,x19	 x23:0x00000304 x19:0x23159000 x27=0x00000001
       19115000	      1910	80006a78	3c4d2a93	slti	x21,x26,964	 x26:0x00000000 x21=0x00000001
       19125000	      1911	80006a7c	602d4d13	xori	x26,x26,1538	 x26:0x00000000 x26=0x00000602
       19135000	      1912	80006a80	058c5663	bge	x24,x24,80006acc	 x24:0x00000304 x24:0x00000304
       19145000	      1913	00000000	00000013	addi	x0,x0,0	  x0:0x00000000
       19155000	      1914	80006ac8	00000013	addi	x0,x0,0	  x0:0x00000000
       19165000	      1915	80006acc	0020f193	andi	x3,x1,2	  x1:0x00000001  x3=0x00000000
       19175000	      1916	80006ad0	00690a63	beq	x18,x6,80006ae4	 x18:0xffffffff  x6:0x00000001
       19185000	      1917	80006ad4	0136f4b3	and	x9,x13,x19	 x13:0x00000001 x19:0x23159000  x9=0x00000000
       19195000	      1918	80006ad8	05b69063	bne	x13,x27,80006b18	 x13:0x00000001 x27:0x00000001
       19205000	      1919	80006adc	02657663	bgeu	x10,x6,80006b08	 x10:0x00000000  x6:0x00000001
       19215000	      1920	80006ae0	005c9993	slli	x19,x25,0x5	 x25:0x00000000 x19=0x00000000
       19225000	      1921	80006ae4	01fc2533	slt	x10,x24,x31	 x24:0x00000304 x31:0x80009fc4 x10=0x00000000
       19235000	      1922	80006ae8	01a89693	slli	x13,x17,0x1a	 x17:0x80009f60 x13=0x80000000
       19245000	      1923	80006aec	01f6fc33	and	x24,x13,x31	 x13:0x80000000 x31:0x80009fc4 x24=0x80000000
       19255000	      1924	80006af0	01a8d833	srl	x16,x17,x26	 x17:0x80009f60 x26:0x00000602 x16=0x200027d8
       19265000	      1925	80006af4	0e39ac13	slti	x24,x19,227	 x19:0x00000000 x24=0x00000001
       19275000	      1926	80006af8	caccea13	ori	x20,x25,-852	 x25:0x00000000 x20=0xfffffcac
       19285000	      1927	80006afc	01413233	sltu	x4,x2,x20	  x2:0x8000a3ec x20:0xfffffcac  x4=0x00000001
       19295000	      1928	80006b00	016412b3	sll	x5,x8,x22	  x8:0xfffffbf8 x22:0x00000001  x5=0xfffff7f0
       19305000	      1929	80006b04	00fdfe63	bgeu	x27,x15,80006b20	 x27:0x00000001 x15:0x00000001
       19315000	      1930	00000000	00000013	addi	x0,x0,0	  x0:0x00000000
       19325000	      1931	80006b1c	00000013	addi	x0,x0,0	  x0:0x00000000
       19335000	      1932	80006b20	c186cd17	auipc	x26,0xc186c	 x26=0x41872b1c
       19345000	      1933	80006b24	41c45a13	srai	x20,x8,0x1c	  x8:0xfffffbf8 x20=0xffffffff
       19355000	      1934	80006b28	bfcec013	xori	x0,x29,-1028	 x29:0x00000001
       19365000	      1935	80006b2c	03a40093	addi	x1,x8,58	  x8:0xfffffbf8  x1=0xfffffc32
       19375000	      1936	80006b30	0dfd3d93	sltiu	x27,x26,223	 x26:0x41872b1c x27=0x00000000
       19385000	      1937	80006b34	6eb34493	xori	x9,x6,1771	  x6:0x00000001  x9=0x000006ea
       19395000	      1938	80006b38	0f098063	beq	x19,x16,80006c18	 x19:0x00000000 x16:0x200027d8
       19405000	      1939	80006b3c	000a7263	bgeu	x20,x0,80006b40	 x20:0xffffffff  x0:0x00000000
       19415000	      1940	00000000	00000013	addi	x0,x0,0	  x0:0x00000000
       19425000	      1941	80006b3c	00000013	addi	x0,x0,0	  x0:0x00000000
       19435000	      1942	80006b40	013df933	and	x18,x27,x19	 x27:0x00000000 x19:0x00000000 x18=0x00000000
       19445000	      1943	80006b44	00001117	auipc	x2,0x1	  x2=0x80007b40
       19455000	      1944	80006b48	52a10113	addi	x2,x2,1322	  x2:0x80007b40  x2=0x8000806a
       19465000	      1945	80006b4c	0ab11c23	sh	x11,184(x2)	  x2:0x8000806a x11:0x000002ca PA:0x80008122
       19475000	      1946	80006b50	fef10603	lb	x12,-17(x2)	  x2:0x8000806a x12=0x0000002d PA:0x80008059
       19485000	      1947	80006b54	05510c23	sb	x21,88(x2)	  x2:0x8000806a x21:0x00000001 PA:0x800080c2
       19495000	      1948	80006b58	407a5d93	srai	x27,x20,0x7	 x20:0xffffffff x27=0xffffffff
       19505000	      1949	80006b5c	475ef013	andi	x0,x29,1141	 x29:0x00000001
       19515000	      1950	80006b60	01f23833	sltu	x16,x4,x31	  x4:0x00000001 x31:0x80009fc4 x16=0x00000001
       19525000	      1951	80006b64	8a0db313	sltiu	x6,x27,-1888	 x27:0xffffffff  x6=0x00000000
       19535000	      1952	80006b68	00d0da13	srli	x20,x1,0xd	  x1:0xfffffc32 x20=0x0007ffff
       19545000	      1953	80006b6c	41168d33	sub	x26,x13,x17	 x13:0x80000000 x17:0x80009f60 x26=0xffff60a0
       19555000	      1954	80006b70	0ec14d03	lbu	x26,236(x2)	  x2:0x8000806a x26=0x00000052 PA:0x80008156
       19565000	      1955	80006b74	9844cc13	xori	x24,x9,-1660	  x9:0x000006ea x24=0xffffff6e
       19575000	      1956	80006b78	00110403	lb	x8,1(x2)	  x2:0x8000806a  x8=0xffffffa0 PA:0x8000806b
       19585000	      1957	80006b7c	88ac2813	slti	x16,x24,-1910	 x24:0xffffff6e x16=0x00000000
       19595000	      1958	80006b80	0c611923	sh	x6,210(x2)	  x2:0x8000806a  x6:0x00000000 PA:0x8000813c
       19605000	      1959	80006b84	0c114483	lbu	x9,193(x2)	  x2:0x8000806a  x9=0x00000074 PA:0x8000812b
       19615000	      1960	80006b88	08514a03	lbu	x20,133(x2)	  x2:0x8000806a x20=0x0000005c PA:0x800080ef
       19625000	      1961	80006b8c	fda12d37	lui	x26,0xfda12	 x26=0xfda12000
       19635000	      1962	80006b90	409605b3	sub	x11,x12,x9	 x12:0x0000002d  x9:0x00000074 x11=0xffffffb9
       19645000	      1963	80006b94	016e1c93	slli	x25,x28,0x16	 x28:0x00000001 x25=0x00400000
       19655000	      1964	80006b98	0d614403	lbu	x8,214(x2)	  x2:0x8000806a  x8=0x000000d3 PA:0x80008140
       19665000	      1965	80006b9c	05f10783	lb	x15,95(x2)	  x2:0x8000806a x15=0xffffffd0 PA:0x800080c9
       19675000	      1966	80006ba0	4034d1b3	sra	x3,x9,x3	  x9:0x00000074  x3:0x00000000  x3=0x00000074
       19685000	      1967	80006ba4	e3b66993	ori	x19,x12,-453	 x12:0x0000002d x19=0xfffffe3f
       19695000	      1968	80006ba8	01119b33	sll	x22,x3,x17	  x3:0x00000074 x17:0x80009f60 x22=0x00000074
       19705000	      1969	80006bac	05814483	lbu	x9,88(x2)	  x2:0x8000806a  x9=0x00000001 PA:0x800080c2
       19715000	      1970	80006bb0	0062f633	and	x12,x5,x6	  x5:0xfffff7f0  x6:0x00000000 x12=0x00000000
       19725000	      1971	80006bb4	05d102a3	sb	x29,69(x2)	  x2:0x8000806a x29:0x00000001 PA:0x800080af
       19735000	      1972	80006bb8	00311123	sh	x3,2(x2)	  x2:0x8000806a  x3:0x00000074 PA:0x8000806c
       19745000	      1973	80006bbc	017725b3	slt	x11,x14,x23	 x14:0x00000000 x23:0x00000304 x11=0x00000001
       19755000	      1974	80006bc0	09f14a83	lbu	x21,159(x2)	  x2:0x8000806a x21=0x00000009 PA:0x80008109
       19765000	      1975	80006bc4	0e111e23	sh	x1,252(x2)	  x2:0x8000806a  x1:0xfffffc32 PA:0x80008166
       19775000	      1976	80006bc8	d892c193	xori	x3,x5,-631	  x5:0xfffff7f0  x3=0x00000a79
       19785000	      1977	80006bcc	006ae6b3	or	x13,x21,x6	 x21:0x00000009  x6:0x00000000 x13=0x00000009
       19795000	      1978	80006bd0	41985213	srai	x4,x16,0x19	 x16:0x00000000  x4=0x00000000
       19805000	      1979	80006bd4	419d82b3	sub	x5,x27,x25	 x27:0xffffffff x25:0x00400000  x5=0xffbfffff
       19815000	      1980	80006bd8	03e10fa3	sb	x30,63(x2)	  x2:0x8000806a x30:0x00000001 PA:0x800080a9
       19825000	      1981	80006bdc	4130dd93	srai	x27,x1,0x13	  x1:0xfffffc32 x27=0xffffffff
       19835000	      1982	80006be0	409384b3	sub	x9,x7,x9	  x7:0x00000305  x9:0x00000001  x9=0x00000304
       19845000	      1983	80006be4	404d0f33	sub	x30,x26,x4	 x26:0xfda12000  x4:0x00000000 x30=0xfda12000
       19855000	      1984	80006be8	40a40f33	sub	x30,x8,x10	  x8:0x000000d3 x10:0x00000000 x30=0x000000d3
       19865000	      1985	80006bec	01b103a3	sb	x27,7(x2)	  x2:0x8000806a x27:0xffffffff PA:0x80008071
       19875000	      1986	80006bf0	01c54cb3	xor	x25,x10,x28	 x10:0x00000000 x28:0x00000001 x25=0x00000001
       19885000	      1987	80006bf4	08f10003	lb	x0,143(x2)	  x2:0x8000806a PA:0x800080f9
       19895000	      1988	80006bf8	7cd5a993	slti	x19,x11,1997	 x11:0x00000001 x19=0x00000001
       19905000	      1989	80006bfc	dc1b6093	ori	x1,x22,-575	 x22:0x00000074  x1=0xfffffdf5
       19915000	      1990	80006c00	09e12603	lw	x12,158(x2)	  x2:0x8000806a x12=0x5af6093e PA:0x80008108
       19925000	      1991	80006c04	eb378593	addi	x11,x15,-333	 x15:0xffffffd0 x11=0xfffffe83
       19935000	      1992	80006c08	00911323	sh	x9,6(x2)	  x2:0x8000806a  x9:0x00000304 PA:0x80008070
       19945000	      1993	80006c0c	e72b0113	addi	x2,x22,-398	 x22:0x00000074  x2=0xfffffee6
       19955000	      1994	80006c10	cb8b3d13	sltiu	x26,x22,-840	 x22:0x00000074 x26=0x00000001
       19965000	      1995	80006c14	0013d333	srl	x6,x7,x1	  x7:0x00000305  x1:0xfffffdf5  x6=0x00000000
       19975000	      1996	80006c18	40ff0d33	sub	x26,x30,x15	 x30:0x000000d3 x15:0xffffffd0 x26=0x00000103
       19985000	      1997	80006c1c	019bec63	bltu	x23,x25,80006c34	 x23:0x00000304 x25:0x00000001
       19995000	      1998	80006c20	00d89313	slli	x6,x17,0xd	 x17:0x80009f60  x6=0x13ec0000
       20005000	      1999	80006c24	010ad1b3	srl	x3,x21,x16	 x21:0x00000009 x16:0x00000000  x3=0x00000009
       20015000	      2000	80006c28	004bbc33	sltu	x24,x23,x4	 x23:0x00000304  x4:0x00000000 x24=0x00000000
       20025000	      2001	80006c2c	00785463	bge	x16,x7,80006c34	 x16:0x00000000  x7:0x00000305
       20035000	      2002	80006c30	2847b113	sltiu	x2,x15,644	 x15:0xffffffd0  x2=0x00000000
       20045000	      2003	80006c34	00584e33	xor	x28,x16,x5	 x16:0x00000000  x5:0xffbfffff x28=0xffbfffff
       20055000	      2004	80006c38	0048ab83	lw	x23,4(x17)	 x17:0x80009f60 x23=0x80000514 PA:0x80009f64
       20065000	      2005	80006c3c	01088893	addi	x17,x17,16	 x17:0x80009f60 x17=0x80009f70
       20075000	      2006	80006c40	00a45a93	srli	x21,x8,0xa	  x8:0x000000d3 x21=0x00000000
       20085000	      2007	80006c44	01c8d0b3	srl	x1,x17,x28	 x17:0x80009f70 x28:0xffbfffff  x1=0x00000001
       20095000	      2008	80006c48	44595697	auipc	x13,0x44595	 x13=0xc459bc44
       20105000	      2009	80006c4c	000b8693	addi	x13,x23,0	 x23:0x80000514 x13=0x80000514
       20115000	      2010	80006c50	000686e7	jalr	x13,x13,0	 x13:0x80000514 x13=0x80006c50
       20125000	      2011	00000000	00000013	addi	x0,x0,0	  x0:0x00000000
       20135000	      2012	80000514	00000013	addi	x0,x0,0	  x0:0x00000000
       20145000	      2013	80000518	01e493b3	sll	x7,x9,x30	  x9:0x00000304 x30:0x000000d3  x7=0x18200000
       20155000	      2014	8000051c	0146ee63	bltu	x13,x20,80000538	 x13:0x80006c50 x20:0x0000005c
       20165000	      2015	80000520	e1ef7593	andi	x11,x30,-482	 x30:0x000000d3 x11=0x00000012
       20175000	      2016	80000524	d2a3b113	sltiu	x2,x7,-726	  x7:0x18200000  x2=0x00000001
       20185000	      2017	80000528	0125dd93	srli	x27,x11,0x12	 x11:0x00000012 x27=0x00000000
       20195000	      2018	8000052c	01c3b0b3	sltu	x1,x7,x28	  x7:0x18200000 x28:0xffbfffff  x1=0x00000001
       20205000	      2019	80000530	00000013	addi	x0,x0,0	  x0:0x00000000
       20215000	      2020	80000534	e58cf213	andi	x4,x25,-424	 x25:0x00000001  x4=0x00000000
       20225000	      2021	80000538	22502bef	jal	x23,80000538	 x23=0x80000538
       20235000	      2022	00000000	00000013	addi	x0,x0,0	  x0:0x00000000
       20245000	      2023	80002f58	00000013	addi	x0,x0,0	  x0:0x00000000
       20255000	      2024	80002f5c	01189c93	slli	x25,x17,0x11	 x17:0x80009f70 x25=0x3ee00000
       20265000	      2025	80002f60	418f0d33	sub	x26,x30,x24	 x30:0x000000d3 x24:0x00000000 x26=0x000000d3
       20275000	      2026	80002f64	fec88893	addi	x17,x17,-20	 x17:0x80009f70 x17=0x80009f5c
       20285000	      2027	80002f68	41c1dc33	sra	x24,x3,x28	  x3:0x00000009 x28:0xffbfffff x24=0x00000000
       20295000	      2028	80002f6c	0178a223	sw	x23,4(x17)	 x17:0x80009f5c x23:0x80000538 PA:0x80009f60
       20305000	      2029	80002f70	01fd22b3	slt	x5,x26,x31	 x26:0x000000d3 x31:0x80009fc4  x5=0x00000000
       20315000	      2030	80002f74	408950b3	sra	x1,x18,x8	 x18:0x00000000  x8:0x000000d3  x1=0x00000000
       20325000	      2031	80002f78	014a4233	xor	x4,x20,x20	 x20:0x0000005c x20:0x0000005c  x4=0x00000000
       20335000	      2032	80002f7c	e67f1ab7	lui	x21,0xe67f1	 x21=0xe67f1000
       20345000	      2033	80002f80	9b524a93	xori	x21,x4,-1611	  x4:0x00000000 x21=0xfffff9b5
       20355000	      2034	80002f84	1beb3613	sltiu	x12,x22,446	 x22:0x00000074 x12=0x00000001
       20365000	      2035	80002f88	00a1de63	bge	x3,x10,80002fa4	  x3:0x00000009 x10:0x00000000
       20375000	      2036	00000000	00000013	addi	x0,x0,0	  x0:0x00000000
       20385000	      2037	80002fa0	00000013	addi	x0,x0,0	  x0:0x00000000
       20395000	      2038	80002fa4	f61febef	jal	x23,80002fa4	 x23=0x80002fa4
       20405000	      2039	00000000	00000013	addi	x0,x0,0	  x0:0x00000000
       20415000	      2040	80001f00	00000013	addi	x0,x0,0	  x0:0x00000000
       20425000	      2041	80001f04	fc888893	addi	x17,x17,-56	 x17:0x80009f5c x17=0x80009f24
       20435000	      2042	80001f08	0178a223	sw	x23,4(x17)	 x17:0x80009f24 x23:0x80002fa4 PA:0x80009f28
       20445000	      2043	80001f0c	017f5493	srli	x9,x30,0x17	 x30:0x000000d3  x9=0x00000000
       20455000	      2044	80001f10	00000013	addi	x0,x0,0	  x0:0x00000000
       20465000	      2045	80001f14	00556133	or	x2,x10,x5	 x10:0x00000000  x5:0x00000000  x2=0x00000000
       20475000	      2046	80001f18	0042bb33	sltu	x22,x5,x4	  x5:0x00000000  x4:0x00000000 x22=0x00000000
       20485000	      2047	80001f1c	3038f813	andi	x16,x17,771	 x17:0x80009f24 x16=0x00000300
       20495000	      2048	80001f20	00007117	auipc	x2,0x7	  x2=0x80008f1c
       20505000	      2049	80001f24	80b10113	addi	x2,x2,-2037	  x2:0x80008f1c  x2=0x80008727
       20515000	      2050	80001f28	fd710683	lb	x13,-41(x2)	  x2:0x80008727 x13=0xffffffde PA:0x800086fe
       20525000	      2051	80001f2c	00010a23	sb	x0,20(x2)	  x2:0x80008727  x0:0x00000000 PA:0x8000873b
       20535000	      2052	80001f30	01d111a3	sh	x29,3(x2)	  x2:0x80008727 x29:0x00000001 PA:0x8000872a
       20545000	      2053	80001f34	00e3bb33	sltu	x22,x7,x14	  x7:0x18200000 x14:0x00000000 x22=0x00000000
       20555000	      2054	80001f38	a831d9b7	lui	x19,0xa831d	 x19=0xa831d000
       20565000	      2055	80001f3c	fc314383	lbu	x7,-61(x2)	  x2:0x80008727  x7=0x000000a9 PA:0x800086ea
       20575000	      2056	80001f40	00e11ca3	sh	x14,25(x2)	  x2:0x80008727 x14:0x00000000 PA:0x80008740
       20585000	      2057	80001f44	ff414403	lbu	x8,-12(x2)	  x2:0x80008727  x8=0x0000003d PA:0x8000871b
       20595000	      2058	80001f48	012e9233	sll	x4,x29,x18	 x29:0x00000001 x18:0x00000000  x4=0x00000001
       20605000	      2059	80001f4c	01112b83	lw	x23,17(x2)	  x2:0x80008727 x23=0x00b2a173 PA:0x80008738
       20615000	      2060	80001f50	0096d333	srl	x6,x13,x9	 x13:0xffffffde  x9:0x00000000  x6=0xffffffde
       20625000	      2061	80001f54	003105a3	sb	x3,11(x2)	  x2:0x80008727  x3:0x00000009 PA:0x80008732
       20635000	      2062	80001f58	00410d03	lb	x26,4(x2)	  x2:0x80008727 x26=0x00000000 PA:0x8000872b
       20645000	      2063	80001f5c	013b8933	add	x18,x23,x19	 x23:0x00b2a173 x19:0xa831d000 x18=0xa8e47173
       20655000	      2064	80001f60	fc6119a3	sh	x6,-45(x2)	  x2:0x80008727  x6:0xffffffde PA:0x800086fa
       20665000	      2065	80001f64	fd810923	sb	x24,-46(x2)	  x2:0x80008727 x24:0x00000000 PA:0x800086f9
       20675000	      2066	80001f68	02610e23	sb	x6,60(x2)	  x2:0x80008727  x6:0xffffffde PA:0x80008763
       20685000	      2067	80001f6c	0040ce33	xor	x28,x1,x4	  x1:0x00000000  x4:0x00000001 x28=0x00000001
       20695000	      2068	80001f70	fcf10783	lb	x15,-49(x2)	  x2:0x80008727 x15=0xffffffb5 PA:0x800086f6
       20705000	      2069	80001f74	fc614303	lbu	x6,-58(x2)	  x2:0x80008727  x6=0x000000d6 PA:0x800086ed
       20715000	      2070	80001f78	00c99993	slli	x19,x19,0xc	 x19:0xa831d000 x19=0x1d000000
       20725000	      2071	80001f7c	ff011fa3	sh	x16,-1(x2)	  x2:0x80008727 x16:0x00000300 PA:0x80008726
       20735000	      2072	80001f80	00c10a03	lb	x20,12(x2)	  x2:0x80008727 x20=0x00000077 PA:0x80008733
       20745000	      2073	80001f84	017afe33	and	x28,x21,x23	 x21:0xfffff9b5 x23:0x00b2a173 x28=0x00b2a131
       20755000	      2074	80001f88	00410f03	lb	x30,4(x2)	  x2:0x80008727 x30=0x00000000 PA:0x8000872b
       20765000	      2075	80001f8c	fd511fa3	sh	x21,-33(x2)	  x2:0x80008727 x21:0xfffff9b5 PA:0x80008706
       20775000	      2076	80001f90	5bd33693	sltiu	x13,x6,1469	  x6:0x000000d6 x13=0x00000001
       20785000	      2077	80001f94	fcc101a3	sb	x12,-61(x2)	  x2:0x80008727 x12:0x00000001 PA:0x800086ea
       20795000	      2078	80001f98	00510123	sb	x5,2(x2)	  x2:0x80008727  x5:0x00000000 PA:0x80008729
       20805000	      2079	80001f9c	01210583	lb	x11,18(x2)	  x2:0x80008727 x11=0xffffffa1 PA:0x80008739
       20815000	      2080	80001fa0	c76cf193	andi	x3,x25,-906	 x25:0x3ee00000  x3=0x3ee00000
       20825000	      2081	80001fa4	009105a3	sb	x9,11(x2)	  x2:0x80008727  x9:0x00000000 PA:0x80008732
       20835000	      2082	80001fa8	00000013	addi	x0,x0,0	  x0:0x00000000
       20845000	      2083	80001fac	01c10623	sb	x28,12(x2)	  x2:0x80008727 x28:0x00b2a131 PA:0x80008733
       20855000	      2084	80001fb0	3f4b7b13	andi	x22,x22,1012	 x22:0x00000000 x22=0x00000000
       20865000	      2085	80001fb4	fdb111a3	sh	x27,-61(x2)	  x2:0x80008727 x27:0x00000000 PA:0x800086ea
       20875000	      2086	80001fb8	fc711d83	lh	x27,-57(x2)	  x2:0x80008727 x27=0xffffd4d7 PA:0x800086ee
       20885000	      2087	80001fbc	00006117	auipc	x2,0x6	  x2=0x80007fb8
       20895000	      2088	80001fc0	16710113	addi	x2,x2,359	  x2:0x80007fb8  x2=0x8000811f
       20905000	      2089	80001fc4	0e50e197	auipc	x3,0xe50e	  x3=0x8e50ffc0
       20915000	      2090	80001fc8	fcf126a3	sw	x15,-51(x2)	  x2:0x8000811f x15:0xffffffb5 PA:0x800080ec
       20925000	      2091	80001fcc	0060d913	srli	x18,x1,0x6	  x1:0x00000000 x18=0x00000000
       20935000	      2092	80001fd0	fd6110a3	sh	x22,-63(x2)	  x2:0x8000811f x22:0x00000000 PA:0x800080e0
       20945000	      2093	80001fd4	01017433	and	x8,x2,x16	  x2:0x8000811f x16:0x00000300  x8=0x00000100
       20955000	      2094	80001fd8	09610e03	lb	x28,150(x2)	  x2:0x8000811f x28=0x00000054 PA:0x800081b5
       20965000	      2095	80001fdc	0a711a03	lh	x20,167(x2)	  x2:0x8000811f x20=0x0000045a PA:0x800081c6
       20975000	      2096	80001fe0	01810623	sb	x24,12(x2)	  x2:0x8000811f x24:0x00000000 PA:0x8000812b
       20985000	      2097	80001fe4	07a14b03	lbu	x22,122(x2)	  x2:0x8000811f x22=0x000000df PA:0x80008199
       20995000	      2098	80001fe8	3055ae93	slti	x29,x11,773	 x11:0xffffffa1 x29=0x00000001
       21005000	      2099	80001fec	00dfa333	slt	x6,x31,x13	 x31:0x80009fc4 x13:0x00000001  x6=0x00000001
       21015000	      2100	80001ff0	f5414403	lbu	x8,-172(x2)	  x2:0x8000811f  x8=0x000000a5 PA:0x80008073
       21025000	      2101	80001ff4	1c75ac17	auipc	x24,0x1c75a	 x24=0x9c75bff0
       21035000	      2102	80001ff8	fcf14183	lbu	x3,-49(x2)	  x2:0x8000811f  x3=0x000000ff PA:0x800080ee
       21045000	      2103	80001ffc	0007f033	and	x0,x15,x0	 x15:0xffffffb5  x0:0x00000000
       21055000	      2104	80002000	03110d23	sb	x17,58(x2)	  x2:0x8000811f x17:0x80009f24 PA:0x80008159
       21065000	      2105	80002004	fea11aa3	sh	x10,-11(x2)	  x2:0x8000811f x10:0x00000000 PA:0x80008114
       21075000	      2106	80002008	f3011aa3	sh	x16,-203(x2)	  x2:0x8000811f x16:0x00000300 PA:0x80008054
       21085000	      2107	8000200c	011bc433	xor	x8,x23,x17	 x23:0x00b2a173 x17:0x80009f24  x8=0x80b23e57
       21095000	      2108	80002010	00174bb3	xor	x23,x14,x1	 x14:0x00000000  x1:0x00000000 x23=0x00000000
       21105000	      2109	80002014	006ca533	slt	x10,x25,x6	 x25:0x3ee00000  x6:0x00000001 x10=0x00000000
       21115000	      2110	80002018	01dab0b3	sltu	x1,x21,x29	 x21:0xfffff9b5 x29:0x00000001  x1=0x00000000
       21125000	      2111	8000201c	fb210983	lb	x19,-78(x2)	  x2:0x8000811f x19=0x00000071 PA:0x800080d1
       21135000	      2112	80002020	f8814983	lbu	x19,-120(x2)	  x2:0x8000811f x19=0x00000009 PA:0x800080a7
       21145000	      2113	80002024	07410523	sb	x20,106(x2)	  x2:0x8000811f x20:0x0000045a PA:0x80008189
       21155000	      2114	80002028	12fbaf13	slti	x30,x23,303	 x23:0x00000000 x30=0x00000001
       21165000	      2115	8000202c	05710983	lb	x19,87(x2)	  x2:0x8000811f x19=0xffffffb7 PA:0x80008176
       21175000	      2116	80002030	f6115f03	lhu	x30,-159(x2)	  x2:0x8000811f x30=0x0000f748 PA:0x80008080
       21185000	      2117	80002034	f4112ea3	sw	x1,-163(x2)	  x2:0x8000811f  x1:0x00000000 PA:0x8000807c
       21195000	      2118	80002038	f4f14683	lbu	x13,-177(x2)	  x2:0x8000811f x13=0x00000019 PA:0x8000806e
       21205000	      2119	8000203c	40a302b3	sub	x5,x6,x10	  x6:0x00000001 x10:0x00000000  x5=0x00000001
       21215000	      2120	80002040	00c3fab3	and	x21,x7,x12	  x7:0x000000a9 x12:0x00000001 x21=0x00000001
       21225000	      2121	80002044	ffc14783	lbu	x15,-4(x2)	  x2:0x8000811f x15=0x00000003 PA:0x8000811b
       21235000	      2122	80002048	ff110ba3	sb	x17,-9(x2)	  x2:0x8000811f x17:0x80009f24 PA:0x80008116
       21245000	      2123	8000204c	bfb4c993	xori	x19,x9,-1029	  x9:0x00000000 x19=0xfffffbfb
       21255000	      2124	80002050	81cc59b7	lui	x19,0x81cc5	 x19=0x81cc5000
       21265000	      2125	80002054	f7f10e83	lb	x29,-129(x2)	  x2:0x8000811f x29=0xffffffe7 PA:0x8000809e
       21275000	      2126	80002058	fb514d03	lbu	x26,-75(x2)	  x2:0x8000811f x26=0x00000090 PA:0x800080d4
       21285000	      2127	8000205c	f7d10823	sb	x29,-144(x2)	  x2:0x8000811f x29:0xffffffe7 PA:0x8000808f
       21295000	      2128	80002060	0ab10d83	lb	x27,171(x2)	  x2:0x8000811f x27=0x00000073 PA:0x800081ca
       21305000	      2129	80002064	da487b13	andi	x22,x16,-604	 x16:0x00000300 x22=0x00000100
       21315000	      2130	80002068	0f310a03	lb	x20,243(x2)	  x2:0x8000811f x20=0x00000022 PA:0x80008212
       21325000	      2131	8000206c	01f91493	slli	x9,x18,0x1f	 x18:0x00000000  x9=0x00000000
       21335000	      2132	80002070	fe915e03	lhu	x28,-23(x2)	  x2:0x8000811f x28=0x0000093e PA:0x80008108
       21345000	      2133	80002074	b3e50b17	auipc	x22,0xb3e50	 x22=0x33e52070
       21355000	      2134	80002078	f6b11c83	lh	x25,-149(x2)	  x2:0x8000811f x25=0x00007aa4 PA:0x8000808a
       21365000	      2135	8000207c	00006817	auipc	x16,0x6	 x16=0x80008078
       21375000	      2136	80002080	72c80813	addi	x16,x16,1836	 x16:0x80008078 x16=0x800087a4
       21385000	      2137	80002084	a5b86013	ori	x0,x16,-1445	 x16:0x800087a4
       21395000	      2138	80002088	00080383	lb	x7,0(x16)	 x16:0x800087a4  x7=0xffffff81 PA:0x800087a4
       21405000	      2139	8000208c	eef24c13	xori	x24,x4,-273	  x4:0x00000001 x24=0xfffffeee
       21415000	      2140	80002090	997db313	sltiu	x6,x27,-1641	 x27:0x00000073  x6=0x00000001
       21425000	      2141	80002094	fe880fa3	sb	x8,-1(x16)	 x16:0x800087a4  x8:0x80b23e57 PA:0x800087a3
       21435000	      2142	80002098	00e66333	or	x6,x12,x14	 x12:0x00000001 x14:0x00000000  x6=0x00000001
       21445000	      2143	8000209c	00880283	lb	x5,8(x16)	 x16:0x800087a4  x5=0x00000048 PA:0x800087ac
       21455000	      2144	800020a0	ff380683	lb	x13,-13(x16)	 x16:0x800087a4 x13=0xffffffb6 PA:0x80008797
       21465000	      2145	800020a4	0002c4b3	xor	x9,x5,x0	  x5:0x00000048  x0:0x00000000  x9=0x00000048
       21475000	      2146	800020a8	00580603	lb	x12,5(x16)	 x16:0x800087a4 x12=0xffffffdf PA:0x800087a9
       21485000	      2147	00000000	00000013	addi	x0,x0,0	  x0:0x00000000
       21495000	      2148	800020ac	00c81503	lh	x10,12(x16)	 x16:0x800087a4 x10=0xffffbbfd PA:0x800087b0
       21505000	      2149	800020b0	00d80b03	lb	x22,13(x16)	 x16:0x800087a4 x22=0xffffffbb PA:0x800087b1
       21515000	      2150	800020b4	00a8bcb3	sltu	x25,x17,x10	 x17:0x80009f24 x10:0xffffbbfd x25=0x00000001
       21525000	      2151	800020b8	ff184183	lbu	x3,-15(x16)	 x16:0x800087a4  x3=0x0000006e PA:0x80008795
       21535000	      2152	800020bc	0955ee93	ori	x29,x11,149	 x11:0xffffffa1 x29=0xffffffb5
       21545000	      2153	800020c0	00570433	add	x8,x14,x5	 x14:0x00000000  x5:0x00000048  x8=0x00000048
       21555000	      2154	800020c4	ff180903	lb	x18,-15(x16)	 x16:0x800087a4 x18=0x0000006e PA:0x80008795
       21565000	      2155	800020c8	00000013	addi	x0,x0,0	  x0:0x00000000
       21575000	      2156	800020cc	ff380b03	lb	x22,-13(x16)	 x16:0x800087a4 x22=0xffffffb6 PA:0x80008797
       21585000	      2157	800020d0	ff781c23	sh	x23,-8(x16)	 x16:0x800087a4 x23:0x00000000 PA:0x8000879c
       21595000	      2158	800020d4	000089b3	add	x19,x1,x0	  x1:0x00000000  x0:0x00000000 x19=0x00000000
       21605000	      2159	800020d8	01264eb3	xor	x29,x12,x18	 x12:0xffffffdf x18:0x0000006e x29=0xffffffb1
       21615000	      2160	800020dc	00d6e633	or	x12,x13,x13	 x13:0xffffffb6 x13:0xffffffb6 x12=0xffffffb6
       21625000	      2161	800020e0	01d80023	sb	x29,0(x16)	 x16:0x800087a4 x29:0xffffffb1 PA:0x800087a4
       21635000	      2162	800020e4	003803a3	sb	x3,7(x16)	 x16:0x800087a4  x3:0x0000006e PA:0x800087ab
       21645000	      2163	800020e8	c35e4613	xori	x12,x28,-971	 x28:0x0000093e x12=0xfffff50b
       21655000	      2164	800020ec	01080483	lb	x9,16(x16)	 x16:0x800087a4  x9=0x00000007 PA:0x800087b4
       21665000	      2165	800020f0	01085b83	lhu	x23,16(x16)	 x16:0x800087a4 x23=0x00002407 PA:0x800087b4
       21675000	      2166	800020f4	ff184583	lbu	x11,-15(x16)	 x16:0x800087a4 x11=0x0000006e PA:0x80008795
       21685000	      2167	800020f8	ff281c03	lh	x24,-14(x16)	 x16:0x800087a4 x24=0xffffb61c PA:0x80008796
       21695000	      2168	800020fc	a3dffe93	andi	x29,x31,-1475	 x31:0x80009fc4 x29=0x80009a04
       21705000	      2169	80002100	fee80da3	sb	x14,-5(x16)	 x16:0x800087a4 x14:0x00000000 PA:0x8000879f
       21715000	      2170	80002104	00a807a3	sb	x10,15(x16)	 x16:0x800087a4 x10:0xffffbbfd PA:0x800087b3
       21725000	      2171	80002108	ff581f23	sh	x21,-2(x16)	 x16:0x800087a4 x21:0x00000001 PA:0x800087a2
       21735000	      2172	8000210c	01381123	sh	x19,2(x16)	 x16:0x800087a4 x19:0x00000000 PA:0x800087a6
       21745000	      2173	80002110	00f2ce33	xor	x28,x5,x15	  x5:0x00000048 x15:0x00000003 x28=0x0000004b
       21755000	      2174	80002114	ff180d23	sb	x17,-6(x16)	 x16:0x800087a4 x17:0x80009f24 PA:0x8000879e
       21765000	      2175	80002118	ff084203	lbu	x4,-16(x16)	 x16:0x800087a4  x4=0x00000073 PA:0x80008794
       21775000	      2176	8000211c	00980a83	lb	x21,9(x16)	 x16:0x800087a4 x21=0xffffffd7 PA:0x800087ad
       21785000	      2177	80002120	00b80783	lb	x15,11(x16)	 x16:0x800087a4 x15=0xffffffd8 PA:0x800087af
       21795000	      2178	80002124	00006097	auipc	x1,0x6	  x1=0x80008120
       21805000	      2179	80002128	ffd08093	addi	x1,x1,-3	  x1:0x80008120  x1=0x8000811d
       21815000	      2180	8000212c	41fd07b3	sub	x15,x26,x31	 x26:0x00000090 x31:0x80009fc4 x15=0x7fff60cc
       21825000	      2181	80002130	63d09a03	lh	x20,1597(x1)	  x1:0x8000811d x20=0xffffd88b PA:0x8000875a
       21835000	      2182	00000000	00000013	addi	x0,x0,0	  x0:0x00000000
       21845000	      2183	80002134	d30a0e13	addi	x28,x20,-720	 x20:0xffffd88b x28=0xffffd5bb
       21855000	      2184	80002138	018d5db3	srl	x27,x26,x24	 x26:0x00000090 x24:0xffffb61c x27=0x00000000
       21865000	      2185	8000213c	09408c03	lb	x24,148(x1)	  x1:0x8000811d x24=0xffffffcb PA:0x800081b1
       21875000	      2186	80002140	5f108423	sb	x17,1512(x1)	  x1:0x8000811d x17:0x80009f24 PA:0x80008705
       21885000	      2187	80002144	0d408e23	sb	x20,220(x1)	  x1:0x8000811d x20:0xffffd88b PA:0x800081f9
       21895000	      2188	80002148	0bf0d803	lhu	x16,191(x1)	  x1:0x8000811d x16=0x00008262 PA:0x800081dc
       21905000	      2189	8000214c	3f509383	lh	x7,1013(x1)	  x1:0x8000811d  x7=0xffffad75 PA:0x80008512
       21915000	      2190	80002150	1a309603	lh	x12,419(x1)	  x1:0x8000811d x12=0xffffb06e PA:0x800082c0
       21925000	      2191	80002154	f7e08c03	lb	x24,-130(x1)	  x1:0x8000811d x24=0x00000079 PA:0x8000809b
       21935000	      2192	80002158	fa108d23	sb	x1,-70(x1)	  x1:0x8000811d  x1:0x8000811d PA:0x800080d7
       21945000	      2193	8000215c	01f8c933	xor	x18,x17,x31	 x17:0x80009f24 x31:0x80009fc4 x18=0x000000e0
       21955000	      2194	80002160	6cb09e83	lh	x29,1739(x1)	  x1:0x8000811d x29=0x000006d1 PA:0x800087e8
       21965000	      2195	80002164	4e30d903	lhu	x18,1251(x1)	  x1:0x8000811d x18=0x0000cf20 PA:0x80008600
       21975000	      2196	80002168	63509483	lh	x9,1589(x1)	  x1:0x8000811d  x9=0xffffa7f6 PA:0x80008752
       21985000	      2197	8000216c	28d09a83	lh	x21,653(x1)	  x1:0x8000811d x21=0x00005ae0 PA:0x800083aa
       21995000	      2198	80002170	ab0f6593	ori	x11,x30,-1360	 x30:0x0000f748 x11=0xfffffff8
       22005000	      2199	80002174	85422813	slti	x16,x4,-1964	  x4:0x00000073 x16=0x00000000
       22015000	      2200	80002178	294098a3	sh	x20,657(x1)	  x1:0x8000811d x20:0xffffd88b PA:0x800083ae
       22025000	      2201	8000217c	06a0c903	lbu	x18,106(x1)	  x1:0x8000811d x18=0x000000f3 PA:0x80008187
       22035000	      2202	80002180	24408c23	sb	x4,600(x1)	  x1:0x8000811d  x4:0x00000073 PA:0x80008375
       22045000	      2203	80002184	2091ed13	ori	x26,x3,521	  x3:0x0000006e x26=0x0000026f
       22055000	      2204	80002188	0147ac33	slt	x24,x15,x20	 x15:0x7fff60cc x20:0xffffd88b x24=0x00000000
       22065000	      2205	8000218c	00c21c93	slli	x25,x4,0xc	  x4:0x00000073 x25=0x00073000
       22075000	      2206	80002190	b2cfe693	ori	x13,x31,-1236	 x31:0x80009fc4 x13=0xffffffec
       22085000	      2207	80002194	5c408b03	lb	x22,1476(x1)	  x1:0x8000811d x22=0xffffffa7 PA:0x800086e1
       22095000	      2208	80002198	41f1d3b3	sra	x7,x3,x31	  x3:0x0000006e x31:0x80009fc4  x7=0x00000006
       22105000	      2209	8000219c	5c60ce03	lbu	x28,1478(x1)	  x1:0x8000811d x28=0x00000043 PA:0x800086e3
       22115000	      2210	800021a0	19208603	lb	x12,402(x1)	  x1:0x8000811d x12=0xffffff98 PA:0x800082af
       22125000	      2211	800021a4	064ced93	ori	x27,x25,100	 x25:0x00073000 x27=0x00073064
       22135000	      2212	800021a8	00000013	addi	x0,x0,0	  x0:0x00000000
       22145000	      2213	800021ac	1200c403	lbu	x8,288(x1)	  x1:0x8000811d  x8=0x000000cf PA:0x8000823d
       22155000	      2214	800021b0	0910d103	lhu	x2,145(x1)	  x1:0x8000811d  x2=0x00001d48 PA:0x800081ae
       22165000	      2215	800021b4	21b093a3	sh	x27,519(x1)	  x1:0x8000811d x27:0x00073064 PA:0x80008324
       22175000	      2216	800021b8	6160ca03	lbu	x20,1558(x1)	  x1:0x8000811d x20=0x00000031 PA:0x80008733
       22185000	      2217	800021bc	1a30df03	lhu	x30,419(x1)	  x1:0x8000811d x30=0x0000b06e PA:0x800082c0
       22195000	      2218	800021c0	00a71413	slli	x8,x14,0xa	 x14:0x00000000  x8=0x00000000
       22205000	      2219	800021c4	41490833	sub	x16,x18,x20	 x18:0x000000f3 x20:0x00000031 x16=0x000000c2
       22215000	      2220	800021c8	0127c3b3	xor	x7,x15,x18	 x15:0x7fff60cc x18:0x000000f3  x7=0x7fff603f
       22225000	      2221	800021cc	6f909803	lh	x16,1785(x1)	  x1:0x8000811d x16=0xffffaced PA:0x80008816
       22235000	      2222	800021d0	6bc3ea13	ori	x20,x7,1724	  x7:0x7fff603f x20=0x7fff66bf
       22245000	      2223	800021d4	0016c333	xor	x6,x13,x1	 x13:0xffffffec  x1:0x8000811d  x6=0x7fff7ef1
       22255000	      2224	800021d8	fd108023	sb	x17,-64(x1)	  x1:0x8000811d x17:0x80009f24 PA:0x800080dd
       22265000	      2225	800021dc	002e6433	or	x8,x28,x2	 x28:0x00000043  x2:0x00001d48  x8=0x00001d4b
       22275000	      2226	800021e0	58e0c683	lbu	x13,1422(x1)	  x1:0x8000811d x13=0x0000002e PA:0x800086ab
       22285000	      2227	800021e4	00000013	addi	x0,x0,0	  x0:0x00000000
       22295000	      2228	800021e8	4ce094a3	sh	x14,1225(x1)	  x1:0x8000811d x14:0x00000000 PA:0x800085e6
       22305000	      2229	800021ec	f90083a3	sb	x16,-121(x1)	  x1:0x8000811d x16:0xffffaced PA:0x800080a4
       22315000	      2230	800021f0	004f5013	srli	x0,x30,0x4	 x30:0x0000b06e
       22325000	      2231	800021f4	fe708e23	sb	x7,-4(x1)	  x1:0x8000811d  x7:0x7fff603f PA:0x80008119
       22335000	      2232	800021f8	00006117	auipc	x2,0x6	  x2=0x800081f4
       22345000	      2233	800021fc	2df10113	addi	x2,x2,735	  x2:0x800081f4  x2=0x800084d3
       22355000	      2234	80002200	0f810a83	lb	x21,248(x2)	  x2:0x800084d3 x21=0x00000006 PA:0x800085cb
       22365000	      2235	80002204	85498993	addi	x19,x19,-1964	 x19:0x00000000 x19=0xfffff854
       22375000	      2236	80002208	f1512983	lw	x19,-235(x2)	  x2:0x800084d3 x19=0x4fb06a51 PA:0x800083e8
       22385000	      2237	8000220c	ff4118a3	sh	x20,-15(x2)	  x2:0x800084d3 x20:0x7fff66bf PA:0x800084c4
       22395000	      2238	80002210	f8b14803	lbu	x16,-117(x2)	  x2:0x800084d3 x16=0x000000a7 PA:0x8000845e
       22405000	      2239	80002214	02d10723	sb	x13,46(x2)	  x2:0x800084d3 x13:0x0000002e PA:0x80008501
       22415000	      2240	80002218	8ebfba13	sltiu	x20,x31,-1813	 x31:0x80009fc4 x20=0x00000001
       22425000	      2241	8000221c	02e10283	lb	x5,46(x2)	  x2:0x800084d3  x5=0x0000002e PA:0x80008501
       22435000	      2242	80002220	00000013	addi	x0,x0,0	  x0:0x00000000
       22445000	      2243	80002224	fd515c03	lhu	x24,-43(x2)	  x2:0x800084d3 x24=0x00006910 PA:0x800084a8
       22455000	      2244	80002228	f5f10223	sb	x31,-188(x2)	  x2:0x800084d3 x31:0x80009fc4 PA:0x80008417
       22465000	      2245	8000222c	f9b111a3	sh	x27,-125(x2)	  x2:0x800084d3 x27:0x00073064 PA:0x80008456
       22475000	      2246	80002230	79693f13	sltiu	x30,x18,1942	 x18:0x000000f3 x30=0x00000001
       22485000	      2247	80002234	03f11003	lh	x0,63(x2)	  x2:0x800084d3 PA:0x80008512
       22495000	      2248	80002238	f2014e83	lbu	x29,-224(x2)	  x2:0x800084d3 x29=0x000000ef PA:0x800083f3
       22505000	      2249	8000223c	0c1122a3	sw	x1,197(x2)	  x2:0x800084d3  x1:0x8000811d PA:0x80008598
       22515000	      2250	80002240	01fa4433	xor	x8,x20,x31	 x20:0x00000001 x31:0x80009fc4  x8=0x80009fc5
       22525000	      2251	80002244	f3b11003	lh	x0,-197(x2)	  x2:0x800084d3 PA:0x8000840e
       22535000	      2252	80002248	fa614383	lbu	x7,-90(x2)	  x2:0x800084d3  x7=0x000000fb PA:0x80008479
       22545000	      2253	8000224c	00025c13	srli	x24,x4,0x0	  x4:0x00000073 x24=0x00000073
       22555000	      2254	80002250	f5711283	lh	x5,-169(x2)	  x2:0x800084d3  x5=0x00007892 PA:0x8000842a
       22565000	      2255	80002254	41da3293	sltiu	x5,x20,1053	 x20:0x00000001  x5=0x00000001
       22575000	      2256	80002258	0080beb3	sltu	x29,x1,x8	  x1:0x8000811d  x8:0x80009fc5 x29=0x00000001
       22585000	      2257	8000225c	f4e10423	sb	x14,-184(x2)	  x2:0x800084d3 x14:0x00000000 PA:0x8000841b
       22595000	      2258	80002260	099106a3	sb	x25,141(x2)	  x2:0x800084d3 x25:0x00073000 PA:0x80008560
       22605000	      2259	80002264	01414c83	lbu	x25,20(x2)	  x2:0x800084d3 x25=0x000000a6 PA:0x800084e7
       22615000	      2260	80002268	05e14b03	lbu	x22,94(x2)	  x2:0x800084d3 x22=0x000000ff PA:0x80008531
       22625000	      2261	8000226c	0bc14403	lbu	x8,188(x2)	  x2:0x800084d3  x8=0x000000fd PA:0x8000858f
       22635000	      2262	80002270	0038db13	srli	x22,x17,0x3	 x17:0x80009f24 x22=0x100013e4
       22645000	      2263	80002274	05b10c23	sb	x27,88(x2)	  x2:0x800084d3 x27:0x00073064 PA:0x8000852b
       22655000	      2264	80002278	f5614a03	lbu	x20,-170(x2)	  x2:0x800084d3 x20=0x000000a4 PA:0x80008429
       22665000	      2265	8000227c	02714303	lbu	x6,39(x2)	  x2:0x800084d3  x6=0x000000f7 PA:0x800084fa
       22675000	      2266	00000000	00000013	addi	x0,x0,0	  x0:0x00000000
       22685000	      2267	80002280	0060eeb3	or	x29,x1,x6	  x1:0x8000811d  x6:0x000000f7 x29=0x800081ff
       22695000	      2268	80002284	01daddb3	srl	x27,x21,x29	 x21:0x00000006 x29:0x800081ff x27=0x00000000
       22705000	      2269	80002288	019ede33	srl	x28,x29,x25	 x29:0x800081ff x25:0x000000a6 x28=0x02000207
       22715000	      2270	8000228c	00000013	addi	x0,x0,0	  x0:0x00000000
       22725000	      2271	80002290	f6c14183	lbu	x3,-148(x2)	  x2:0x800084d3  x3=0x00000015 PA:0x8000843f
       22735000	      2272	80002294	40e65d13	srai	x26,x12,0xe	 x12:0xffffff98 x26=0xffffffff
       22745000	      2273	80002298	e0555c97	auipc	x25,0xe0555	 x25=0x60557294
       22755000	      2274	8000229c	ffa10d83	lb	x27,-6(x2)	  x2:0x800084d3 x27=0xffffffad PA:0x800084cd
       22765000	      2275	800022a0	ff314403	lbu	x8,-13(x2)	  x2:0x800084d3  x8=0x00000012 PA:0x800084c6
       22775000	      2276	800022a4	0db11803	lh	x16,219(x2)	  x2:0x800084d3 x16=0xffffcf04 PA:0x800085ae
       22785000	      2277	800022a8	f14115a3	sh	x20,-245(x2)	  x2:0x800084d3 x20:0x000000a4 PA:0x800083de
       22795000	      2278	800022ac	71ffca13	xori	x20,x31,1823	 x31:0x80009fc4 x20=0x800098db
       22805000	      2279	800022b0	418e5b33	sra	x22,x28,x24	 x28:0x02000207 x24:0x00000073 x22=0x00000040
       22815000	      2280	800022b4	030e7063	bgeu	x28,x16,800022d4	 x28:0x02000207 x16:0xffffcf04
       22825000	      2281	800022b8	e5c9a493	slti	x9,x19,-420	 x19:0x4fb06a51  x9=0x00000000
       22835000	      2282	800022bc	00bf6cb3	or	x25,x30,x11	 x30:0x00000001 x11:0xfffffff8 x25=0xfffffff9
       22845000	      2283	800022c0	00b6c433	xor	x8,x13,x11	 x13:0x0000002e x11:0xfffffff8  x8=0xffffffd6
       22855000	      2284	800022c4	253d6193	ori	x3,x26,595	 x26:0xffffffff  x3=0xffffffff
       22865000	      2285	800022c8	046b4063	blt	x22,x6,80002308	 x22:0x00000040  x6:0x000000f7
       22875000	      2286	00000000	00000013	addi	x0,x0,0	  x0:0x00000000
       22885000	      2287	80002304	00000013	addi	x0,x0,0	  x0:0x00000000
       22895000	      2288	80002308	03a3ca63	blt	x7,x26,8000233c	  x7:0x000000fb x26:0xffffffff
       22905000	      2289	8000230c	ded2e297	auipc	x5,0xded2e	  x5=0x5ed30308
       22915000	      2290	80002310	b07e74b7	lui	x9,0xb07e7	  x9=0xb07e7000
       22925000	      2291	80002314	40b55433	sra	x8,x10,x11	 x10:0xffffbbfd x11:0xfffffff8  x8=0xffffffff
       22935000	      2292	80002318	41c55593	srai	x11,x10,0x1c	 x10:0xffffbbfd x11=0xffffffff
       22945000	      2293	8000231c	611ba013	slti	x0,x23,1553	 x23:0x00002407
       22955000	      2294	80002320	b0292993	slti	x19,x18,-1278	 x18:0x000000f3 x19=0x00000000
       22965000	      2295	80002324	00958cb3	add	x25,x11,x9	 x11:0xffffffff  x9:0xb07e7000 x25=0xb07e6fff
       22975000	      2296	80002328	01314f33	xor	x30,x2,x19	  x2:0x800084d3 x19:0x00000000 x30=0x800084d3
       22985000	      2297	8000232c	019fe0b3	or	x1,x31,x25	 x31:0x80009fc4 x25:0xb07e6fff  x1=0xb07effff
       22995000	      2298	80002330	589c6513	ori	x10,x24,1417	 x24:0x00000073 x10=0x000005fb
       23005000	      2299	80002334	b3a7a513	slti	x10,x15,-1222	 x15:0x7fff60cc x10=0x00000000
       23015000	      2300	80002338	01585813	srli	x16,x16,0x15	 x16:0xffffcf04 x16=0x000007ff
       23025000	      2301	8000233c	018c6ab3	or	x21,x24,x24	 x24:0x00000073 x24:0x00000073 x21=0x00000073
       23035000	      2302	80002340	0008d793	srli	x15,x17,0x0	 x17:0x80009f24 x15=0x80009f24
       23045000	      2303	80002344	7c728113	addi	x2,x5,1991	  x5:0x5ed30308  x2=0x5ed30acf
       23055000	      2304	80002348	0243e863	bltu	x7,x4,80002378	  x7:0x000000fb  x4:0x00000073
       23065000	      2305	8000234c	008c54b3	srl	x9,x24,x8	 x24:0x00000073  x8:0xffffffff  x9=0x00000000
       23075000	      2306	80002350	4b18ff13	andi	x30,x17,1201	 x17:0x80009f24 x30=0x00000420
       23085000	      2307	80002354	00db5663	bge	x22,x13,80002360	 x22:0x00000040 x13:0x0000002e
       23095000	      2308	00000000	00000013	addi	x0,x0,0	  x0:0x00000000
       23105000	      2309	8000235c	00000013	addi	x0,x0,0	  x0:0x00000000
       23115000	      2310	80002360	6682b293	sltiu	x5,x5,1640	  x5:0x5ed30308  x5=0x00000000
       23125000	      2311	80002364	046be863	bltu	x23,x6,800023b4	 x23:0x00002407  x6:0x000000f7
       23135000	      2312	80002368	16f19417	auipc	x8,0x16f19	  x8=0x96f1b364
       23145000	      2313	8000236c	1286eab7	lui	x21,0x1286e	 x21=0x1286e000
       23155000	      2314	80002370	058e6063	bltu	x28,x24,800023b0	 x28:0x02000207 x24:0x00000073
       23165000	      2315	80002374	00d4c633	xor	x12,x9,x13	  x9:0x00000000 x13:0x0000002e x12=0x0000002e
       23175000	      2316	80002378	028a0c63	beq	x20,x8,800023b0	 x20:0x800098db  x8:0x96f1b364
       23185000	      2317	8000237c	ef8b3c93	sltiu	x25,x22,-264	 x22:0x00000040 x25=0x00000001
       23195000	      2318	80002380	00000013	addi	x0,x0,0	  x0:0x00000000
       23205000	      2319	80002384	0158d5b3	srl	x11,x17,x21	 x17:0x80009f24 x21:0x1286e000 x11=0x80009f24
       23215000	      2320	80002388	00000013	addi	x0,x0,0	  x0:0x00000000
       23225000	      2321	8000238c	0411e863	bltu	x3,x1,800023dc	  x3:0xffffffff  x1:0xb07effff
       23235000	      2322	80002390	04c1d663	bge	x3,x12,800023dc	  x3:0xffffffff x12:0x0000002e
       23245000	      2323	80002394	01fae9b3	or	x19,x21,x31	 x21:0x1286e000 x31:0x80009fc4 x19=0x9286ffc4
       23255000	      2324	80002398	00f8fa33	and	x20,x17,x15	 x17:0x80009f24 x15:0x80009f24 x20=0x80009f24
       23265000	      2325	8000239c	01628933	add	x18,x5,x22	  x5:0x00000000 x22:0x00000040 x18=0x00000040
       23275000	      2326	800023a0	414653b3	sra	x7,x12,x20	 x12:0x0000002e x20:0x80009f24  x7=0x00000002
       23285000	      2327	800023a4	94f22993	slti	x19,x4,-1713	  x4:0x00000073 x19=0x00000000
       23295000	      2328	800023a8	01a605b3	add	x11,x12,x26	 x12:0x0000002e x26:0xffffffff x11=0x0000002d
       23305000	      2329	800023ac	00fe4a63	blt	x28,x15,800023c0	 x28:0x02000207 x15:0x80009f24
       23315000	      2330	800023b0	029fd863	bge	x31,x9,800023e0	 x31:0x80009fc4  x9:0x00000000
       23325000	      2331	800023b4	00588e63	beq	x17,x5,800023d0	 x17:0x80009f24  x5:0x00000000
       23335000	      2332	800023b8	058b1863	bne	x22,x24,80002408	 x22:0x00000040 x24:0x00000073
       23345000	      2333	00000000	00000013	addi	x0,x0,0	  x0:0x00000000
       23355000	      2334	80002404	00000013	addi	x0,x0,0	  x0:0x00000000
       23365000	      2335	80002408	d8e6a113	slti	x2,x13,-626	 x13:0x0000002e  x2=0x00000000
       23375000	      2336	8000240c	01aefa33	and	x20,x29,x26	 x29:0x800081ff x26:0xffffffff x20=0x800081ff
       23385000	      2337	80002410	01df5913	srli	x18,x30,0x1d	 x30:0x00000420 x18=0x00000000
       23395000	      2338	80002414	e7e41bb7	lui	x23,0xe7e41	 x23=0xe7e41000
       23405000	      2339	80002418	01169a63	bne	x13,x17,8000242c	 x13:0x0000002e x17:0x80009f24
       23415000	      2340	00000000	00000013	addi	x0,x0,0	  x0:0x00000000
       23425000	      2341	80002428	00000013	addi	x0,x0,0	  x0:0x00000000
       23435000	      2342	8000242c	0021cbb3	xor	x23,x3,x2	  x3:0xffffffff  x2:0x00000000 x23=0xffffffff
       23445000	      2343	80002430	00e11d33	sll	x26,x2,x14	  x2:0x00000000 x14:0x00000000 x26=0x00000000
       23455000	      2344	80002434	825e3813	sltiu	x16,x28,-2011	 x28:0x02000207 x16=0x00000001
       23465000	      2345	80002438	04c78313	addi	x6,x15,76	 x15:0x80009f24  x6=0x80009f70
       23475000	      2346	8000243c	fcf17013	andi	x0,x2,-49	  x2:0x00000000
       23485000	      2347	80002440	043cf063	bgeu	x25,x3,80002480	 x25:0x00000001  x3:0xffffffff
       23495000	      2348	80002444	38a4a137	lui	x2,0x38a4a	  x2=0x38a4a000
       23505000	      2349	80002448	019d5593	srli	x11,x26,0x19	 x26:0x00000000 x11=0x00000000
       23515000	      2350	8000244c	948a2e13	slti	x28,x20,-1720	 x20:0x800081ff x28=0x00000001
       23525000	      2351	80002450	c04d77b7	lui	x15,0xc04d7	 x15=0xc04d7000
       23535000	      2352	80002454	01f15393	srli	x7,x2,0x1f	  x2:0x38a4a000  x7=0x00000000
       23545000	      2353	80002458	43314493	xori	x9,x2,1075	  x2:0x38a4a000  x9=0x38a4a433
       23555000	      2354	8000245c	00206463	bltu	x0,x2,80002464	  x0:0x00000000  x2:0x38a4a000
       23565000	      2355	00000000	00000013	addi	x0,x0,0	  x0:0x00000000
       23575000	      2356	80002460	00000013	addi	x0,x0,0	  x0:0x00000000
       23585000	      2357	80002464	0118e433	or	x8,x17,x17	 x17:0x80009f24 x17:0x80009f24  x8=0x80009f24
       23595000	      2358	80002468	e3292b93	slti	x23,x18,-462	 x18:0x00000000 x23=0x00000000
       23605000	      2359	8000246c	02fc7e37	lui	x28,0x2fc7	 x28=0x02fc7000
       23615000	      2360	80002470	5f3dac93	slti	x25,x27,1523	 x27:0xffffffad x25=0x00000001
       23625000	      2361	80002474	d6022693	slti	x13,x4,-672	  x4:0x00000073 x13=0x00000000
       23635000	      2362	80002478	0335fb97	auipc	x23,0x335f	 x23=0x83361474
       23645000	      2363	8000247c	00f99ab3	sll	x21,x19,x15	 x19:0x00000000 x15:0xc04d7000 x21=0x00000000
       23655000	      2364	80002480	056e8463	beq	x29,x22,800024c8	 x29:0x800081ff x22:0x00000040
       23665000	      2365	80002484	71787b13	andi	x22,x16,1815	 x16:0x00000001 x22=0x00000001
       23675000	      2366	80002488	022bde63	bge	x23,x2,800024c4	 x23:0x83361474  x2:0x38a4a000
       23685000	      2367	8000248c	82ca3a37	lui	x20,0x82ca3	 x20=0x82ca3000
       23695000	      2368	80002490	056e4263	blt	x28,x22,800024d4	 x28:0x02fc7000 x22:0x00000001
       23705000	      2369	80002494	0332fa63	bgeu	x5,x19,800024c8	  x5:0x00000000 x19:0x00000000
       23715000	      2370	00000000	00000013	addi	x0,x0,0	  x0:0x00000000
       23725000	      2371	800024c4	00000013	addi	x0,x0,0	  x0:0x00000000
       23735000	      2372	800024c8	d6172493	slti	x9,x14,-671	 x14:0x00000000  x9=0x00000000
       23745000	      2373	800024cc	40d207b3	sub	x15,x4,x13	  x4:0x00000073 x13:0x00000000 x15=0x00000073
       23755000	      2374	800024d0	7978dc17	auipc	x24,0x7978d	 x24=0xf978f4cc
       23765000	      2375	800024d4	01a045b3	xor	x11,x0,x26	  x0:0x00000000 x26:0x00000000 x11=0x00000000
       23775000	      2376	800024d8	01e18863	beq	x3,x30,800024e8	  x3:0xffffffff x30:0x00000420
       23785000	      2377	800024dc	9c77a993	slti	x19,x15,-1593	 x15:0x00000073 x19=0x00000000
       23795000	      2378	800024e0	0334de63	bge	x9,x19,8000251c	  x9:0x00000000 x19:0x00000000
       23805000	      2379	00000000	00000013	addi	x0,x0,0	  x0:0x00000000
       23815000	      2380	80002518	00000013	addi	x0,x0,0	  x0:0x00000000
       23825000	      2381	8000251c	055c0863	beq	x24,x21,8000256c	 x24:0xf978f4cc x21:0x00000000
       23835000	      2382	80002520	05425263	bge	x4,x20,80002564	  x4:0x00000073 x20:0x82ca3000
       23845000	      2383	00000000	00000013	addi	x0,x0,0	  x0:0x00000000
       23855000	      2384	80002560	00000013	addi	x0,x0,0	  x0:0x00000000
       23865000	      2385	80002564	4147dd13	srai	x26,x15,0x14	 x15:0x00000073 x26=0x00000000
       23875000	      2386	80002568	40568633	sub	x12,x13,x5	 x13:0x00000000  x5:0x00000000 x12=0x00000000
       23885000	      2387	8000256c	0009f833	and	x16,x19,x0	 x19:0x00000000  x0:0x00000000 x16=0x00000000
       23895000	      2388	80002570	01fafc33	and	x24,x21,x31	 x21:0x00000000 x31:0x80009fc4 x24=0x00000000
       23905000	      2389	80002574	01c0eb33	or	x22,x1,x28	  x1:0xb07effff x28:0x02fc7000 x22=0xb2feffff
       23915000	      2390	80002578	e3f1db37	lui	x22,0xe3f1d	 x22=0xe3f1d000
       23925000	      2391	8000257c	1e0bb513	sltiu	x10,x23,480	 x23:0x83361474 x10=0x00000000
       23935000	      2392	80002580	417302b3	sub	x5,x6,x23	  x6:0x80009f70 x23:0x83361474  x5=0xfcca8afc
       23945000	      2393	80002584	040f7063	bgeu	x30,x0,800025c4	 x30:0x00000420  x0:0x00000000
       23955000	      2394	00000000	00000013	addi	x0,x0,0	  x0:0x00000000
       23965000	      2395	800025c0	00000013	addi	x0,x0,0	  x0:0x00000000
       23975000	      2396	800025c4	011b0ab3	add	x21,x22,x17	 x22:0xe3f1d000 x17:0x80009f24 x21=0x63f26f24
       23985000	      2397	800025c8	02cfca63	blt	x31,x12,800025fc	 x31:0x80009fc4 x12:0x00000000
       23995000	      2398	00000000	00000013	addi	x0,x0,0	  x0:0x00000000
       24005000	      2399	800025f8	00000013	addi	x0,x0,0	  x0:0x00000000
       24015000	      2400	800025fc	0151e133	or	x2,x3,x21	  x3:0xffffffff x21:0x63f26f24  x2=0xffffffff
       24025000	      2401	80002600	0357f863	bgeu	x15,x21,80002630	 x15:0x00000073 x21:0x63f26f24
       24035000	      2402	80002604	02789c63	bne	x17,x7,8000263c	 x17:0x80009f24  x7:0x00000000
       24045000	      2403	00000000	00000013	addi	x0,x0,0	  x0:0x00000000
       24055000	      2404	80002638	00000013	addi	x0,x0,0	  x0:0x00000000
       24065000	      2405	8000263c	4194d833	sra	x16,x9,x25	  x9:0x00000000 x25:0x00000001 x16=0x00000000
       24075000	      2406	80002640	017a6033	or	x0,x20,x23	 x20:0x82ca3000 x23:0x83361474
       24085000	      2407	80002644	01b58863	beq	x11,x27,80002654	 x11:0x00000000 x27:0xffffffad
       24095000	      2408	80002648	f8fdf293	andi	x5,x27,-113	 x27:0xffffffad  x5=0xffffff8d
       24105000	      2409	8000264c	00e65533	srl	x10,x12,x14	 x12:0x00000000 x14:0x00000000 x10=0x00000000
       24115000	      2410	80002650	005efbb3	and	x23,x29,x5	 x29:0x800081ff  x5:0xffffff8d x23=0x8000818d
       24125000	      2411	80002654	024d9463	bne	x27,x4,8000267c	 x27:0xffffffad  x4:0x00000073
       24135000	      2412	00000000	00000013	addi	x0,x0,0	  x0:0x00000000
       24145000	      2413	80002678	00000013	addi	x0,x0,0	  x0:0x00000000
       24155000	      2414	8000267c	83b21a17	auipc	x20,0x83b21	 x20=0x03b23678
       24165000	      2415	80002680	05376863	bltu	x14,x19,800026d0	 x14:0x00000000 x19:0x00000000
       24175000	      2416	80002684	01b8bbb3	sltu	x23,x17,x27	 x17:0x80009f24 x27:0xffffffad x23=0x00000001
       24185000	      2417	80002688	01777a63	bgeu	x14,x23,8000269c	 x14:0x00000000 x23:0x00000001
       24195000	      2418	8000268c	d1463c93	sltiu	x25,x12,-748	 x12:0x00000000 x25=0x00000001
       24205000	      2419	80002690	33141c37	lui	x24,0x33141	 x24=0x33141000
       24215000	      2420	80002694	05670863	beq	x14,x22,800026e4	 x14:0x00000000 x22:0xe3f1d000
       24225000	      2421	80002698	01bd9013	slli	x0,x27,0x1b	 x27:0xffffffad
       24235000	      2422	8000269c	02b1d063	bge	x3,x11,800026bc	  x3:0xffffffff x11:0x00000000
       24245000	      2423	800026a0	05c06463	bltu	x0,x28,800026e8	  x0:0x00000000 x28:0x02fc7000
       24255000	      2424	00000000	00000013	addi	x0,x0,0	  x0:0x00000000
       24265000	      2425	800026e4	00000013	addi	x0,x0,0	  x0:0x00000000
       24275000	      2426	800026e8	00f91033	sll	x0,x18,x15	 x18:0x00000000 x15:0x00000073
       24285000	      2427	800026ec	014bf7b3	and	x15,x23,x20	 x23:0x00000001 x20:0x03b23678 x15=0x00000000
       24295000	      2428	800026f0	00129a93	slli	x21,x5,0x1	  x5:0xffffff8d x21=0xffffff1a
       24305000	      2429	800026f4	e85fcd97	auipc	x27,0xe85fc	 x27=0x685fe6f0
       24315000	      2430	800026f8	bb680193	addi	x3,x16,-1098	 x16:0x00000000  x3=0xfffffbb6
       24325000	      2431	800026fc	00e706b3	add	x13,x14,x14	 x14:0x00000000 x14:0x00000000 x13=0x00000000
       24335000	      2432	80002700	983b7f13	andi	x30,x22,-1661	 x22:0xe3f1d000 x30=0xe3f1d000
       24345000	      2433	80002704	4026d693	srai	x13,x13,0x2	 x13:0x00000000 x13=0x00000000
       24355000	      2434	80002708	01d88333	add	x6,x17,x29	 x17:0x80009f24 x29:0x800081ff  x6=0x00012123
       24365000	      2435	8000270c	101a4293	xori	x5,x20,257	 x20:0x03b23678  x5=0x03b23779
       24375000	      2436	80002710	014e1e33	sll	x28,x28,x20	 x28:0x02fc7000 x20:0x03b23678 x28=0x00000000
       24385000	      2437	80002714	03c5d863	bge	x11,x28,80002744	 x11:0x00000000 x28:0x00000000
       24395000	      2438	00000000	00000013	addi	x0,x0,0	  x0:0x00000000
       24405000	      2439	80002740	00000013	addi	x0,x0,0	  x0:0x00000000
       24415000	      2440	80002744	02b0c863	blt	x1,x11,80002774	  x1:0xb07effff x11:0x00000000
       24425000	      2441	00000000	00000013	addi	x0,x0,0	  x0:0x00000000
       24435000	      2442	80002770	00000013	addi	x0,x0,0	  x0:0x00000000
       24445000	      2443	80002774	00c6ce63	blt	x13,x12,80002790	 x13:0x00000000 x12:0x00000000
       24455000	      2444	80002778	01f3dbb3	srl	x23,x7,x31	  x7:0x00000000 x31:0x80009fc4 x23=0x00000000
       24465000	      2445	8000277c	41385db3	sra	x27,x16,x19	 x16:0x00000000 x19:0x00000000 x27=0x00000000
       24475000	      2446	80002780	01106333	or	x6,x0,x17	  x0:0x00000000 x17:0x80009f24  x6=0x80009f24
       24485000	      2447	80002784	b733e613	ori	x12,x7,-1165	  x7:0x00000000 x12=0xfffffb73
       24495000	      2448	80002788	00fdfeb3	and	x29,x27,x15	 x27:0x00000000 x15:0x00000000 x29=0x00000000
       24505000	      2449	8000278c	011b1293	slli	x5,x22,0x11	 x22:0xe3f1d000  x5=0xa0000000
       24515000	      2450	80002790	12c4f793	andi	x15,x9,300	  x9:0x00000000 x15=0x00000000
       24525000	      2451	80002794	09fba193	slti	x3,x23,159	 x23:0x00000000  x3=0x00000001
       24535000	      2452	80002798	00000013	addi	x0,x0,0	  x0:0x00000000
       24545000	      2453	8000279c	d9413213	sltiu	x4,x2,-620	  x2:0xffffffff  x4=0x00000000
       24555000	      2454	800027a0	449c4593	xori	x11,x24,1097	 x24:0x33141000 x11=0x33141449
       24565000	      2455	800027a4	00c81ab3	sll	x21,x16,x12	 x16:0x00000000 x12:0xfffffb73 x21=0x00000000
       24575000	      2456	800027a8	40d4d693	srai	x13,x9,0xd	  x9:0x00000000 x13=0x00000000
       24585000	      2457	800027ac	01ce0433	add	x8,x28,x28	 x28:0x00000000 x28:0x00000000  x8=0x00000000
       24595000	      2458	800027b0	016b8c33	add	x24,x23,x22	 x23:0x00000000 x22:0xe3f1d000 x24=0xe3f1d000
       24605000	      2459	800027b4	f945ac13	slti	x24,x11,-108	 x11:0x33141449 x24=0x00000000
       24615000	      2460	800027b8	00432e33	slt	x28,x6,x4	  x6:0x80009f24  x4:0x00000000 x28=0x00000001
       24625000	      2461	800027bc	012d9d33	sll	x26,x27,x18	 x27:0x00000000 x18:0x00000000 x26=0x00000000
       24635000	      2462	800027c0	0015bbb3	sltu	x23,x11,x1	 x11:0x33141449  x1:0xb07effff x23=0x00000001
       24645000	      2463	800027c4	40e786b3	sub	x13,x15,x14	 x15:0x00000000 x14:0x00000000 x13=0x00000000
       24655000	      2464	800027c8	01e35793	srli	x15,x6,0x1e	  x6:0x80009f24 x15=0x00000002
       24665000	      2465	800027cc	007491b3	sll	x3,x9,x7	  x9:0x00000000  x7:0x00000000  x3=0x00000000
       24675000	      2466	800027d0	9c804393	xori	x7,x0,-1592	  x0:0x00000000  x7=0xfffff9c8
       24685000	      2467	800027d4	006826b3	slt	x13,x16,x6	 x16:0x00000000  x6:0x80009f24 x13=0x00000000
       24695000	      2468	800027d8	03aefe63	bgeu	x29,x26,80002814	 x29:0x00000000 x26:0x00000000
       24705000	      2469	00000000	00000013	addi	x0,x0,0	  x0:0x00000000
       24715000	      2470	80002810	00000013	addi	x0,x0,0	  x0:0x00000000
       24725000	      2471	80002814	15e5b537	lui	x10,0x15e5b	 x10=0x15e5b000
       24735000	      2472	80002818	051f7063	bgeu	x30,x17,80002858	 x30:0xe3f1d000 x17:0x80009f24
       24745000	      2473	00000000	00000013	addi	x0,x0,0	  x0:0x00000000
       24755000	      2474	80002854	00000013	addi	x0,x0,0	  x0:0x00000000
       24765000	      2475	80002858	00621493	slli	x9,x4,0x6	  x4:0x00000000  x9=0x00000000
       24775000	      2476	8000285c	d8e94013	xori	x0,x18,-626	 x18:0x00000000
       24785000	      2477	80002860	00000013	addi	x0,x0,0	  x0:0x00000000
       24795000	      2478	80002864	01026533	or	x10,x4,x16	  x4:0x00000000 x16:0x00000000 x10=0x00000000
       24805000	      2479	80002868	00000013	addi	x0,x0,0	  x0:0x00000000
       24815000	      2480	8000286c	663cf813	andi	x16,x25,1635	 x25:0x00000001 x16=0x00000001
       24825000	      2481	80002870	05bd1063	bne	x26,x27,800028b0	 x26:0x00000000 x27:0x00000000
       24835000	      2482	80002874	003892b3	sll	x5,x17,x3	 x17:0x80009f24  x3:0x00000000  x5=0x80009f24
       24845000	      2483	80002878	b0a07093	andi	x1,x0,-1270	  x0:0x00000000  x1=0x00000000
       24855000	      2484	8000287c	56ab3697	auipc	x13,0x56ab3	 x13=0xd6ab5878
       24865000	      2485	80002880	1d903d93	sltiu	x27,x0,473	  x0:0x00000000 x27=0x00000001
       24875000	      2486	80002884	04298863	beq	x19,x2,800028d4	 x19:0x00000000  x2:0xffffffff
       24885000	      2487	80002888	01678333	add	x6,x15,x22	 x15:0x00000002 x22:0xe3f1d000  x6=0xe3f1d002
       24895000	      2488	8000288c	7ad07317	auipc	x6,0x7ad07	  x6=0xfad09888
       24905000	      2489	80002890	01213f33	sltu	x30,x2,x18	  x2:0xffffffff x18:0x00000000 x30=0x00000000
       24915000	      2490	80002894	03c71063	bne	x14,x28,800028b4	 x14:0x00000000 x28:0x00000001
       24925000	      2491	00000000	00000013	addi	x0,x0,0	  x0:0x00000000
       24935000	      2492	800028b0	00000013	addi	x0,x0,0	  x0:0x00000000
       24945000	      2493	800028b4	940c4993	xori	x19,x24,-1728	 x24:0x00000000 x19=0xfffff940
       24955000	      2494	800028b8	002dca63	blt	x27,x2,800028cc	 x27:0x00000001  x2:0xffffffff
       24965000	      2495	800028bc	004c9eb3	sll	x29,x25,x4	 x25:0x00000001  x4:0x00000000 x29=0x00000001
       24975000	      2496	800028c0	40708833	sub	x16,x1,x7	  x1:0x00000000  x7:0xfffff9c8 x16=0x00000638
       24985000	      2497	800028c4	01702233	slt	x4,x0,x23	  x0:0x00000000 x23:0x00000001  x4=0x00000001
       24995000	      2498	800028c8	416d5813	srai	x16,x26,0x16	 x26:0x00000000 x16=0x00000000
       25005000	      2499	800028cc	02750663	beq	x10,x7,800028f8	 x10:0x00000000  x7:0xfffff9c8
       25015000	      2500	800028d0	65d7e293	ori	x5,x15,1629	 x15:0x00000002  x5=0x0000065f
       25025000	      2501	800028d4	01cd4bb3	xor	x23,x26,x28	 x26:0x00000000 x28:0x00000001 x23=0x00000001
       25035000	      2502	800028d8	03125863	bge	x4,x17,80002908	  x4:0x00000001 x17:0x80009f24
       25045000	      2503	00000000	00000013	addi	x0,x0,0	  x0:0x00000000
       25055000	      2504	80002904	00000013	addi	x0,x0,0	  x0:0x00000000
       25065000	      2505	80002908	047a7863	bgeu	x20,x7,80002958	 x20:0x03b23678  x7:0xfffff9c8
       25075000	      2506	8000290c	93016137	lui	x2,0x93016	  x2=0x93016000
       25085000	      2507	80002910	d9dcb217	auipc	x4,0xd9dcb	  x4=0x59dcd90c
       25095000	      2508	80002914	00456e33	or	x28,x10,x4	 x10:0x00000000  x4:0x59dcd90c x28=0x59dcd90c
       25105000	      2509	80002918	00000013	addi	x0,x0,0	  x0:0x00000000
       25115000	      2510	8000291c	03be6863	bltu	x28,x27,8000294c	 x28:0x59dcd90c x27:0x00000001
       25125000	      2511	80002920	0002a133	slt	x2,x5,x0	  x5:0x0000065f  x0:0x00000000  x2=0x00000000
       25135000	      2512	80002924	03ca9a63	bne	x21,x28,80002958	 x21:0x00000000 x28:0x59dcd90c
       25145000	      2513	00000000	00000013	addi	x0,x0,0	  x0:0x00000000
       25155000	      2514	80002954	00000013	addi	x0,x0,0	  x0:0x00000000
       25165000	      2515	80002958	0075b333	sltu	x6,x11,x7	 x11:0x33141449  x7:0xfffff9c8  x6=0x00000001
       25175000	      2516	8000295c	03fb6463	bltu	x22,x31,80002984	 x22:0xe3f1d000 x31:0x80009fc4
       25185000	      2517	80002960	68744793	xori	x15,x8,1671	  x8:0x00000000 x15=0x00000687
       25195000	      2518	80002964	00d429b3	slt	x19,x8,x13	  x8:0x00000000 x13:0xd6ab5878 x19=0x00000000
       25205000	      2519	80002968	eead4413	xori	x8,x26,-278	 x26:0x00000000  x8=0xfffffeea
       25215000	      2520	8000296c	00058a33	add	x20,x11,x0	 x11:0x33141449  x0:0x00000000 x20=0x33141449
       25225000	      2521	80002970	c3ff9bb7	lui	x23,0xc3ff9	 x23=0xc3ff9000
       25235000	      2522	80002974	9386b393	sltiu	x7,x13,-1736	 x13:0xd6ab5878  x7=0x00000001
       25245000	      2523	80002978	402c86b3	sub	x13,x25,x2	 x25:0x00000001  x2:0x00000000 x13=0x00000001
       25255000	      2524	8000297c	0021c333	xor	x6,x3,x2	  x3:0x00000000  x2:0x00000000  x6=0x00000000
       25265000	      2525	80002980	00b800b3	add	x1,x16,x11	 x16:0x00000000 x11:0x33141449  x1=0x33141449
       25275000	      2526	80002984	00e79e33	sll	x28,x15,x14	 x15:0x00000687 x14:0x00000000 x28=0x00000687
       25285000	      2527	80002988	d2a2ac13	slti	x24,x5,-726	  x5:0x0000065f x24=0x00000000
       25295000	      2528	8000298c	009c0ab3	add	x21,x24,x9	 x24:0x00000000  x9:0x00000000 x21=0x00000000
       25305000	      2529	80002990	5362ff37	lui	x30,0x5362f	 x30=0x5362f000
       25315000	      2530	80002994	40b2e693	ori	x13,x5,1035	  x5:0x0000065f x13=0x0000065f
       25325000	      2531	80002998	000f9eb3	sll	x29,x31,x0	 x31:0x80009fc4  x0:0x00000000 x29=0x80009fc4
       25335000	      2532	8000299c	2f51cdb7	lui	x27,0x2f51c	 x27=0x2f51c000
       25345000	      2533	800029a0	fce87413	andi	x8,x16,-50	 x16:0x00000000  x8=0x00000000
       25355000	      2534	800029a4	5de64197	auipc	x3,0x5de64	  x3=0xdde669a0
       25365000	      2535	800029a8	8f458493	addi	x9,x11,-1804	 x11:0x33141449  x9=0x33140d3d
       25375000	      2536	800029ac	04588063	beq	x17,x5,800029ec	 x17:0x80009f24  x5:0x0000065f
       25385000	      2537	800029b0	00ea9013	slli	x0,x21,0xe	 x21:0x00000000
       25395000	      2538	800029b4	022f6c63	bltu	x30,x2,800029ec	 x30:0x5362f000  x2:0x00000000
       25405000	      2539	800029b8	0000a633	slt	x12,x1,x0	  x1:0x33141449  x0:0x00000000 x12=0x00000000
       25415000	      2540	800029bc	41648bb3	sub	x23,x9,x22	  x9:0x33140d3d x22:0xe3f1d000 x23=0x4f223d3d
       25425000	      2541	800029c0	04bc1863	bne	x24,x11,80002a10	 x24:0x00000000 x11:0x33141449
       25435000	      2542	00000000	00000013	addi	x0,x0,0	  x0:0x00000000
       25445000	      2543	80002a0c	00000013	addi	x0,x0,0	  x0:0x00000000
       25455000	      2544	80002a10	328b2493	slti	x9,x22,808	 x22:0xe3f1d000  x9=0x00000001
       25465000	      2545	80002a14	05348063	beq	x9,x19,80002a54	  x9:0x00000001 x19:0x00000000
       25475000	      2546	80002a18	41580633	sub	x12,x16,x21	 x16:0x00000000 x21:0x00000000 x12=0x00000000
       25485000	      2547	80002a1c	01095db3	srl	x27,x18,x16	 x18:0x00000000 x16:0x00000000 x27=0x00000000
       25495000	      2548	80002a20	01395813	srli	x16,x18,0x13	 x18:0x00000000 x16=0x00000000
       25505000	      2549	80002a24	01bd7f33	and	x30,x26,x27	 x26:0x00000000 x27:0x00000000 x30=0x00000000
       25515000	      2550	80002a28	f861b293	sltiu	x5,x3,-122	  x3:0xdde669a0  x5=0x00000001
       25525000	      2551	80002a2c	00826833	or	x16,x4,x8	  x4:0x59dcd90c  x8:0x00000000 x16=0x59dcd90c
       25535000	      2552	80002a30	01171ab3	sll	x21,x14,x17	 x14:0x00000000 x17:0x80009f24 x21=0x00000000
       25545000	      2553	80002a34	003e3f33	sltu	x30,x28,x3	 x28:0x00000687  x3:0xdde669a0 x30=0x00000001
       25555000	      2554	80002a38	001b3b33	sltu	x22,x22,x1	 x22:0xe3f1d000  x1:0x33141449 x22=0x00000000
       25565000	      2555	80002a3c	697acd17	auipc	x26,0x697ac	 x26=0xe97aea38
       25575000	      2556	80002a40	03f3f263	bgeu	x7,x31,80002a64	  x7:0x00000001 x31:0x80009fc4
       25585000	      2557	80002a44	a4f50d13	addi	x26,x10,-1457	 x10:0x00000000 x26=0xfffffa4f
       25595000	      2558	80002a48	00e80863	beq	x16,x14,80002a58	 x16:0x59dcd90c x14:0x00000000
       25605000	      2559	80002a4c	41b6de33	sra	x28,x13,x27	 x13:0x0000065f x27:0x00000000 x28=0x0000065f
       25615000	      2560	80002a50	01c55eb3	srl	x29,x10,x28	 x10:0x00000000 x28:0x0000065f x29=0x00000000
       25625000	      2561	80002a54	005f5913	srli	x18,x30,0x5	 x30:0x00000001 x18=0x00000000
       25635000	      2562	80002a58	006b1f13	slli	x30,x22,0x6	 x22:0x00000000 x30=0x00000000
       25645000	      2563	80002a5c	00000013	addi	x0,x0,0	  x0:0x00000000
       25655000	      2564	80002a60	d8619997	auipc	x19,0xd8619	 x19=0x5861ba5c
       25665000	      2565	80002a64	6830f437	lui	x8,0x6830f	  x8=0x6830f000
       25675000	      2566	80002a68	00000013	addi	x0,x0,0	  x0:0x00000000
       25685000	      2567	80002a6c	04238263	beq	x7,x2,80002ab0	  x7:0x00000001  x2:0x00000000
       25695000	      2568	80002a70	018be333	or	x6,x23,x24	 x23:0x4f223d3d x24:0x00000000  x6=0x4f223d3d
       25705000	      2569	80002a74	a573cd93	xori	x27,x7,-1449	  x7:0x00000001 x27=0xfffffa56
       25715000	      2570	80002a78	42f93393	sltiu	x7,x18,1071	 x18:0x00000000  x7=0x00000001
       25725000	      2571	80002a7c	a9d7a4b7	lui	x9,0xa9d7a	  x9=0xa9d7a000
       25735000	      2572	80002a80	0096e633	or	x12,x13,x9	 x13:0x0000065f  x9:0xa9d7a000 x12=0xa9d7a65f
       25745000	      2573	80002a84	4146d413	srai	x8,x13,0x14	 x13:0x0000065f  x8=0x00000000
       25755000	      2574	80002a88	00000013	addi	x0,x0,0	  x0:0x00000000
       25765000	      2575	80002a8c	03880063	beq	x16,x24,80002aac	 x16:0x59dcd90c x24:0x00000000
       25775000	      2576	80002a90	6d148b93	addi	x23,x9,1745	  x9:0xa9d7a000 x23=0xa9d7a6d1
       25785000	      2577	80002a94	056f4063	blt	x30,x22,80002ad4	 x30:0x00000000 x22:0x00000000
       25795000	      2578	80002a98	0c03a513	slti	x10,x7,192	  x7:0x00000001 x10=0x00000001
       25805000	      2579	80002a9c	8a8c0013	addi	x0,x24,-1880	 x24:0x00000000
       25815000	      2580	80002aa0	43332017	auipc	x0,0x43332	
       25825000	      2581	80002aa4	009f7863	bgeu	x30,x9,80002ab4	 x30:0x00000000  x9:0xa9d7a000
       25835000	      2582	80002aa8	04677863	bgeu	x14,x6,80002af8	 x14:0x00000000  x6:0x4f223d3d
       25845000	      2583	80002aac	00000013	addi	x0,x0,0	  x0:0x00000000
       25855000	      2584	80002ab0	01841ab3	sll	x21,x8,x24	  x8:0x00000000 x24:0x00000000 x21=0x00000000
       25865000	      2585	80002ab4	00c472b3	and	x5,x8,x12	  x8:0x00000000 x12:0xa9d7a65f  x5=0x00000000
       25875000	      2586	80002ab8	00d0ce63	blt	x1,x13,80002ad4	  x1:0x33141449 x13:0x0000065f
       25885000	      2587	80002abc	1d29c213	xori	x4,x19,466	 x19:0x5861ba5c  x4=0x5861bb8e
       25895000	      2588	80002ac0	41ff8333	sub	x6,x31,x31	 x31:0x80009fc4 x31:0x80009fc4  x6=0x00000000
       25905000	      2589	80002ac4	00ddbdb3	sltu	x27,x27,x13	 x27:0xfffffa56 x13:0x0000065f x27=0x00000000
       25915000	      2590	80002ac8	6dc7af13	slti	x30,x15,1756	 x15:0x00000687 x30=0x00000001
       25925000	      2591	80002acc	0089f033	and	x0,x19,x8	 x19:0x5861ba5c  x8:0x00000000
       25935000	      2592	80002ad0	38934c37	lui	x24,0x38934	 x24=0x38934000
       25945000	      2593	80002ad4	00711a13	slli	x20,x2,0x7	  x2:0x00000000 x20=0x00000000
       25955000	      2594	80002ad8	012cde33	srl	x28,x25,x18	 x25:0x00000001 x18:0x00000000 x28=0x00000001
       25965000	      2595	80002adc	00ff62b3	or	x5,x30,x15	 x30:0x00000001 x15:0x00000687  x5=0x00000687
       25975000	      2596	80002ae0	027e0e63	beq	x28,x7,80002b1c	 x28:0x00000001  x7:0x00000001
       25985000	      2597	00000000	00000013	addi	x0,x0,0	  x0:0x00000000
       25995000	      2598	80002b18	00000013	addi	x0,x0,0	  x0:0x00000000
       26005000	      2599	80002b1c	0216d063	bge	x13,x1,80002b3c	 x13:0x0000065f  x1:0x33141449
       26015000	      2600	80002b20	0096c433	xor	x8,x13,x9	 x13:0x0000065f  x9:0xa9d7a000  x8=0xa9d7a65f
       26025000	      2601	80002b24	03861063	bne	x12,x24,80002b44	 x12:0xa9d7a65f x24:0x38934000
       26035000	      2602	00000000	00000013	addi	x0,x0,0	  x0:0x00000000
       26045000	      2603	80002b40	00000013	addi	x0,x0,0	  x0:0x00000000
       26055000	      2604	80002b44	03879863	bne	x15,x24,80002b74	 x15:0x00000687 x24:0x38934000
       26065000	      2605	00000000	00000013	addi	x0,x0,0	  x0:0x00000000
       26075000	      2606	80002b70	00000013	addi	x0,x0,0	  x0:0x00000000
       26085000	      2607	80002b74	050cf463	bgeu	x25,x16,80002bbc	 x25:0x00000001 x16:0x59dcd90c
       26095000	      2608	80002b78	0017edb3	or	x27,x15,x1	 x15:0x00000687  x1:0x33141449 x27=0x331416cf
       26105000	      2609	80002b7c	013e7f33	and	x30,x28,x19	 x28:0x00000001 x19:0x5861ba5c x30=0x00000000
       26115000	      2610	80002b80	41d5d493	srai	x9,x11,0x1d	 x11:0x33141449  x9=0x00000001
       26125000	      2611	80002b84	03014063	blt	x2,x16,80002ba4	  x2:0x00000000 x16:0x59dcd90c
       26135000	      2612	00000000	00000013	addi	x0,x0,0	  x0:0x00000000
       26145000	      2613	80002ba0	00000013	addi	x0,x0,0	  x0:0x00000000
       26155000	      2614	80002ba4	02119a63	bne	x3,x1,80002bd8	  x3:0xdde669a0  x1:0x33141449
       26165000	      2615	00000000	00000013	addi	x0,x0,0	  x0:0x00000000
       26175000	      2616	80002bd4	00000013	addi	x0,x0,0	  x0:0x00000000
       26185000	      2617	80002bd8	0160fa33	and	x20,x1,x22	  x1:0x33141449 x22:0x00000000 x20=0x00000000
       26195000	      2618	80002bdc	0022dc13	srli	x24,x5,0x2	  x5:0x00000687 x24=0x000001a1
       26205000	      2619	80002be0	01b90233	add	x4,x18,x27	 x18:0x00000000 x27:0x331416cf  x4=0x331416cf
       26215000	      2620	80002be4	01b71513	slli	x10,x14,0x1b	 x14:0x00000000 x10=0x00000000
       26225000	      2621	80002be8	31ed6d13	ori	x26,x26,798	 x26:0xfffffa4f x26=0xfffffb5f
       26235000	      2622	80002bec	4d5b2393	slti	x7,x22,1237	 x22:0x00000000  x7=0x00000001
       26245000	      2623	80002bf0	00fc1113	slli	x2,x24,0xf	 x24:0x000001a1  x2=0x00d08000
       26255000	      2624	80002bf4	e9f64e93	xori	x29,x12,-353	 x12:0xa9d7a65f x29=0x562858c0
       26265000	      2625	80002bf8	34b44413	xori	x8,x8,843	  x8:0xa9d7a65f  x8=0xa9d7a514
       26275000	      2626	80002bfc	cd86c113	xori	x2,x13,-808	 x13:0x0000065f  x2=0xfffffa87
       26285000	      2627	80002c00	402750b3	sra	x1,x14,x2	 x14:0x00000000  x2:0xfffffa87  x1=0x00000000
       26295000	      2628	80002c04	00001d17	auipc	x26,0x1	 x26=0x80003c00
       26305000	      2629	80002c08	1dcd0d13	addi	x26,x26,476	 x26:0x80003c00 x26=0x80003ddc
       26315000	      2630	80002c0c	96d96813	ori	x16,x18,-1683	 x18:0x00000000 x16=0xfffff96d
       26325000	      2631	80002c10	fa5d0d13	addi	x26,x26,-91	 x26:0x80003ddc x26=0x80003d81
       26335000	      2632	80002c14	01d06f33	or	x30,x0,x29	  x0:0x00000000 x29:0x562858c0 x30=0x562858c0
       26345000	      2633	80002c18	014d7a33	and	x20,x26,x20	 x26:0x80003d81 x20:0x00000000 x20=0x00000000
       26355000	      2634	80002c1c	01d08863	beq	x1,x29,80002c2c	  x1:0x00000000 x29:0x562858c0
       26365000	      2635	80002c20	00c95eb3	srl	x29,x18,x12	 x18:0x00000000 x12:0xa9d7a65f x29=0x00000000
       26375000	      2636	80002c24	76c4cc13	xori	x24,x9,1900	  x9:0x00000001 x24=0x0000076d
       26385000	      2637	80002c28	00ef49b3	xor	x19,x30,x14	 x30:0x562858c0 x14:0x00000000 x19=0x562858c0
       26395000	      2638	80002c2c	05cd0be7	jalr	x23,x26,92	 x26:0x80003d81 x23=0x80002c2c
       26405000	      2639	00000000	00000013	addi	x0,x0,0	  x0:0x00000000
       26415000	      2640	80003ddc	00000013	addi	x0,x0,0	  x0:0x00000000
       26425000	      2641	80003de0	00dfd463	bge	x31,x13,80003de8	 x31:0x80009fc4 x13:0x0000065f
       26435000	      2642	80003de4	00c99793	slli	x15,x19,0xc	 x19:0x562858c0 x15=0x858c0000
       26445000	      2643	80003de8	fe088893	addi	x17,x17,-32	 x17:0x80009f24 x17=0x80009f04
       26455000	      2644	80003dec	0178a223	sw	x23,4(x17)	 x17:0x80009f04 x23:0x80002c2c PA:0x80009f08
       26465000	      2645	80003df0	9a53f793	andi	x15,x7,-1627	  x7:0x00000001 x15=0x00000001
       26475000	      2646	80003df4	018d4db3	xor	x27,x26,x24	 x26:0x80003d81 x24:0x0000076d x27=0x80003aec
       26485000	      2647	80003df8	0180b933	sltu	x18,x1,x24	  x1:0x00000000 x24:0x0000076d x18=0x00000001
       26495000	      2648	80003dfc	00005117	auipc	x2,0x5	  x2=0x80008df8
       26505000	      2649	80003e00	a0310113	addi	x2,x2,-1533	  x2:0x80008df8  x2=0x800087fb
       26515000	      2650	80003e04	ff311803	lh	x16,-13(x2)	  x2:0x800087fb x16=0x0000749a PA:0x800087ee
       26525000	      2651	80003e08	00512a03	lw	x20,5(x2)	  x2:0x800087fb x20=0x97dbc3cc PA:0x80008800
       26535000	      2652	80003e0c	405cd3b3	sra	x7,x25,x5	 x25:0x00000001  x5:0x00000687  x7=0x00000000
       26545000	      2653	80003e10	fc71bb93	sltiu	x23,x3,-57	  x3:0xdde669a0 x23=0x00000001
       26555000	      2654	80003e14	00010c83	lb	x25,0(x2)	  x2:0x800087fb x25=0x00000073 PA:0x800087fb
       26565000	      2655	80003e18	00a14503	lbu	x10,10(x2)	  x2:0x800087fb x10=0x00000015 PA:0x80008805
       26575000	      2656	80003e1c	01c32033	slt	x0,x6,x28	  x6:0x00000000 x28:0x00000001
       26585000	      2657	80003e20	ffb14b03	lbu	x22,-5(x2)	  x2:0x800087fb x22=0x000000bb PA:0x800087f6
       26595000	      2658	80003e24	fff15683	lhu	x13,-1(x2)	  x2:0x800087fb x13=0x000073b3 PA:0x800087fa
       26605000	      2659	80003e28	ff710b83	lb	x23,-9(x2)	  x2:0x800087fb x23=0xffffffa8 PA:0x800087f2
       26615000	      2660	80003e2c	ffe10823	sb	x30,-16(x2)	  x2:0x800087fb x30:0x562858c0 PA:0x800087eb
       26625000	      2661	80003e30	00f15e03	lhu	x28,15(x2)	  x2:0x800087fb x28=0x00002c8d PA:0x8000880a
       26635000	      2662	80003e34	ff711e83	lh	x29,-9(x2)	  x2:0x800087fb x29=0xffffb2a8 PA:0x800087f2
       26645000	      2663	80003e38	008650b3	srl	x1,x12,x8	 x12:0xa9d7a65f  x8:0xa9d7a514  x1=0x00000a9d
       26655000	      2664	80003e3c	e124b793	sltiu	x15,x9,-494	  x9:0x00000001 x15=0x00000001
       26665000	      2665	80003e40	ff214c03	lbu	x24,-14(x2)	  x2:0x800087fb x24=0x000000ee PA:0x800087ed
       26675000	      2666	80003e44	de144c93	xori	x25,x8,-543	  x8:0xa9d7a514 x25=0x562858f5
       26685000	      2667	80003e48	ff214d03	lbu	x26,-14(x2)	  x2:0x800087fb x26=0x000000ee PA:0x800087ed
       26695000	      2668	80003e4c	17b62213	slti	x4,x12,379	 x12:0xa9d7a65f  x4=0x00000001
       26705000	      2669	80003e50	01503533	sltu	x10,x0,x21	  x0:0x00000000 x21:0x00000000 x10=0x00000000
       26715000	      2670	80003e54	01d88b33	add	x22,x17,x29	 x17:0x80009f04 x29:0xffffb2a8 x22=0x800051ac
       26725000	      2671	80003e58	01592eb3	slt	x29,x18,x21	 x18:0x00000001 x21:0x00000000 x29=0x00000000
       26735000	      2672	80003e5c	00a10a03	lb	x20,10(x2)	  x2:0x800087fb x20=0x00000015 PA:0x80008805
       26745000	      2673	80003e60	57ae6d13	ori	x26,x28,1402	 x28:0x00002c8d x26=0x00002dff
       26755000	      2674	80003e64	0e7d1917	auipc	x18,0xe7d1	 x18=0x8e7d4e60
       26765000	      2675	80003e68	41b657b3	sra	x15,x12,x27	 x12:0xa9d7a65f x27:0x80003aec x15=0xfffa9d7a
       26775000	      2676	80003e6c	01e107a3	sb	x30,15(x2)	  x2:0x800087fb x30:0x562858c0 PA:0x8000880a
       26785000	      2677	80003e70	01c05913	srli	x18,x0,0x1c	  x0:0x00000000 x18=0x00000000
       26795000	      2678	80003e74	01b10423	sb	x27,8(x2)	  x2:0x800087fb x27:0x80003aec PA:0x80008803
       26805000	      2679	80003e78	019102a3	sb	x25,5(x2)	  x2:0x800087fb x25:0x562858f5 PA:0x80008800
       26815000	      2680	80003e7c	ffe10c83	lb	x25,-2(x2)	  x2:0x800087fb x25=0x0000007f PA:0x800087f9
       26825000	      2681	80003e80	3dd51997	auipc	x19,0x3dd51	 x19=0xbdd54e7c
       26835000	      2682	80003e84	92677f13	andi	x30,x14,-1754	 x14:0x00000000 x30=0x00000000
       26845000	      2683	80003e88	527a7493	andi	x9,x20,1319	 x20:0x00000015  x9=0x00000005
       26855000	      2684	80003e8c	00414383	lbu	x7,4(x2)	  x2:0x800087fb  x7=0x00000016 PA:0x800087ff
       26865000	      2685	80003e90	000116a3	sh	x0,13(x2)	  x2:0x800087fb  x0:0x00000000 PA:0x80008808
       26875000	      2686	80003e94	41280ab3	sub	x21,x16,x18	 x16:0x0000749a x18:0x00000000 x21=0x0000749a
       26885000	      2687	80003e98	00d102a3	sb	x13,5(x2)	  x2:0x800087fb x13:0x000073b3 PA:0x80008800
       26895000	      2688	80003e9c	ff210003	lb	x0,-14(x2)	  x2:0x800087fb PA:0x800087ed
       26905000	      2689	80003ea0	d7ca3413	sltiu	x8,x20,-644	 x20:0x00000015  x8=0x00000001
       26915000	      2690	80003ea4	83e9e913	ori	x18,x19,-1986	 x19:0xbdd54e7c x18=0xfffffe7e
       26925000	      2691	80003ea8	41a8d533	sra	x10,x17,x26	 x17:0x80009f04 x26:0x00002dff x10=0xffffffff
       26935000	      2692	80003eac	40f65e13	srai	x28,x12,0xf	 x12:0xa9d7a65f x28=0xffff53af
       26945000	      2693	80003eb0	ff915283	lhu	x5,-7(x2)	  x2:0x800087fb  x5=0x000003f8 PA:0x800087f4
       26955000	      2694	80003eb4	00b10123	sb	x11,2(x2)	  x2:0x800087fb x11:0x33141449 PA:0x800087fd
       26965000	      2695	80003eb8	ffe14803	lbu	x16,-2(x2)	  x2:0x800087fb x16=0x0000007f PA:0x800087f9
       26975000	      2696	80003ebc	016013b3	sll	x7,x0,x22	  x0:0x00000000 x22:0x800051ac  x7=0x00000000
       26985000	      2697	80003ec0	00c10123	sb	x12,2(x2)	  x2:0x800087fb x12:0xa9d7a65f PA:0x800087fd
       26995000	      2698	80003ec4	a1fd0097	auipc	x1,0xa1fd0	  x1=0x21fd3ec0
       27005000	      2699	80003ec8	001116a3	sh	x1,13(x2)	  x2:0x800087fb  x1:0x21fd3ec0 PA:0x80008808
       27015000	      2700	80003ecc	40dc86b3	sub	x13,x25,x13	 x25:0x0000007f x13:0x000073b3 x13=0xffff8ccc
       27025000	      2701	80003ed0	00934a63	blt	x6,x9,80003ee4	  x6:0x00000000  x9:0x00000005
       27035000	      2702	00000000	00000013	addi	x0,x0,0	  x0:0x00000000
       27045000	      2703	80003ee0	00000013	addi	x0,x0,0	  x0:0x00000000
       27055000	      2704	80003ee4	416c5093	srai	x1,x24,0x16	 x24:0x000000ee  x1=0x00000000
       27065000	      2705	80003ee8	40a45c33	sra	x24,x8,x10	  x8:0x00000001 x10:0xffffffff x24=0x00000000
       27075000	      2706	80003eec	00bd25b3	slt	x11,x26,x11	 x26:0x00002dff x11:0x33141449 x11=0x00000001
       27085000	      2707	80003ef0	20bfc193	xori	x3,x31,523	 x31:0x80009fc4  x3=0x80009dcf
       27095000	      2708	80003ef4	012a1a63	bne	x20,x18,80003f08	 x20:0x00000015 x18:0xfffffe7e
       27105000	      2709	00000000	00000013	addi	x0,x0,0	  x0:0x00000000
       27115000	      2710	80003f04	00000013	addi	x0,x0,0	  x0:0x00000000
       27125000	      2711	80003f08	00ef5d13	srli	x26,x30,0xe	 x30:0x00000000 x26=0x00000000
       27135000	      2712	80003f0c	784b7e93	andi	x29,x22,1924	 x22:0x800051ac x29=0x00000184
       27145000	      2713	80003f10	00e79f33	sll	x30,x15,x14	 x15:0xfffa9d7a x14:0x00000000 x30=0xfffa9d7a
       27155000	      2714	80003f14	00e873b3	and	x7,x16,x14	 x16:0x0000007f x14:0x00000000  x7=0x00000000
       27165000	      2715	80003f18	618d3c13	sltiu	x24,x26,1560	 x26:0x00000000 x24=0x00000001
       27175000	      2716	80003f1c	00ed9f33	sll	x30,x27,x14	 x27:0x80003aec x14:0x00000000 x30=0x80003aec
       27185000	      2717	80003f20	00ca8a33	add	x20,x21,x12	 x21:0x0000749a x12:0xa9d7a65f x20=0xa9d81af9
       27195000	      2718	80003f24	0390ec63	bltu	x1,x25,80003f5c	  x1:0x00000000 x25:0x0000007f
       27205000	      2719	00000000	00000013	addi	x0,x0,0	  x0:0x00000000
       27215000	      2720	80003f58	00000013	addi	x0,x0,0	  x0:0x00000000
       27225000	      2721	80003f5c	02e65263	bge	x12,x14,80003f80	 x12:0xa9d7a65f x14:0x00000000
       27235000	      2722	80003f60	034d9663	bne	x27,x20,80003f8c	 x27:0x80003aec x20:0xa9d81af9
       27245000	      2723	00000000	00000013	addi	x0,x0,0	  x0:0x00000000
       27255000	      2724	80003f88	00000013	addi	x0,x0,0	  x0:0x00000000
       27265000	      2725	80003f8c	ea6a8a37	lui	x20,0xea6a8	 x20=0xea6a8000
       27275000	      2726	80003f90	a4883693	sltiu	x13,x16,-1464	 x16:0x0000007f x13=0x00000001
       27285000	      2727	80003f94	2bda4393	xori	x7,x20,701	 x20:0xea6a8000  x7=0xea6a82bd
       27295000	      2728	80003f98	0567e463	bltu	x15,x22,80003fe0	 x15:0xfffa9d7a x22:0x800051ac
       27305000	      2729	80003f9c	a757ce13	xori	x28,x15,-1419	 x15:0xfffa9d7a x28=0x0005670f
       27315000	      2730	80003fa0	04f7e463	bltu	x15,x15,80003fe8	 x15:0xfffa9d7a x15:0xfffa9d7a
       27325000	      2731	80003fa4	8022b693	sltiu	x13,x5,-2046	  x5:0x000003f8 x13=0x00000001
       27335000	      2732	80003fa8	03bf4463	blt	x30,x27,80003fd0	 x30:0x80003aec x27:0x80003aec
       27345000	      2733	80003fac	01b59433	sll	x8,x11,x27	 x11:0x00000001 x27:0x80003aec  x8=0x00001000
       27355000	      2734	80003fb0	018ee533	or	x10,x29,x24	 x29:0x00000184 x24:0x00000001 x10=0x00000185
       27365000	      2735	80003fb4	05838263	beq	x7,x24,80003ff8	  x7:0xea6a82bd x24:0x00000001
       27375000	      2736	80003fb8	040ef863	bgeu	x29,x0,80004008	 x29:0x00000184  x0:0x00000000
       27385000	      2737	00000000	00000013	addi	x0,x0,0	  x0:0x00000000
       27395000	      2738	80004004	00000013	addi	x0,x0,0	  x0:0x00000000
       27405000	      2739	80004008	0044c533	xor	x10,x9,x4	  x9:0x00000005  x4:0x00000001 x10=0x00000004
       27415000	      2740	8000400c	007a6d33	or	x26,x20,x7	 x20:0xea6a8000  x7:0xea6a82bd x26=0xea6a82bd
       27425000	      2741	80004010	41a8da13	srai	x20,x17,0x1a	 x17:0x80009f04 x20=0xffffffe0
       27435000	      2742	80004014	00114397	auipc	x7,0x114	  x7=0x80118010
       27445000	      2743	80004018	37d74317	auipc	x6,0x37d74	  x6=0xb7d78014
       27455000	      2744	8000401c	97b07913	andi	x18,x0,-1669	  x0:0x00000000 x18=0x00000000
       27465000	      2745	80004020	0158fe63	bgeu	x17,x21,8000403c	 x17:0x80009f04 x21:0x0000749a
       27475000	      2746	00000000	00000013	addi	x0,x0,0	  x0:0x00000000
       27485000	      2747	80004038	00000013	addi	x0,x0,0	  x0:0x00000000
       27495000	      2748	8000403c	03ddf063	bgeu	x27,x29,8000405c	 x27:0x80003aec x29:0x00000184
       27505000	      2749	00000000	00000013	addi	x0,x0,0	  x0:0x00000000
       27515000	      2750	80004058	00000013	addi	x0,x0,0	  x0:0x00000000
       27525000	      2751	8000405c	015d7663	bgeu	x26,x21,80004068	 x26:0xea6a82bd x21:0x0000749a
       27535000	      2752	00000000	00000013	addi	x0,x0,0	  x0:0x00000000
       27545000	      2753	80004064	00000013	addi	x0,x0,0	  x0:0x00000000
       27555000	      2754	80004068	de826a93	ori	x21,x4,-536	  x4:0x00000001 x21=0xfffffde9
       27565000	      2755	8000406c	06444063	blt	x8,x4,800040cc	  x8:0x00001000  x4:0x00000001
       27575000	      2756	80004070	01892f33	slt	x30,x18,x24	 x18:0x00000000 x24:0x00000001 x30=0x00000001
       27585000	      2757	80004074	60067b37	lui	x22,0x60067	 x22=0x60067000
       27595000	      2758	80004078	8707c193	xori	x3,x15,-1936	 x15:0xfffa9d7a  x3=0x0005650a
       27605000	      2759	8000407c	002c06b3	add	x13,x24,x2	 x24:0x00000001  x2:0x800087fb x13=0x800087fc
       27615000	      2760	80004080	00327663	bgeu	x4,x3,8000408c	  x4:0x00000001  x3:0x0005650a
       27625000	      2761	80004084	fa687e13	andi	x28,x16,-90	 x16:0x0000007f x28=0x00000026
       27635000	      2762	80004088	014cb533	sltu	x10,x25,x20	 x25:0x0000007f x20:0xffffffe0 x10=0x00000001
       27645000	      2763	8000408c	7569a6b7	lui	x13,0x7569a	 x13=0x7569a000
       27655000	      2764	80004090	00000013	addi	x0,x0,0	  x0:0x00000000
       27665000	      2765	80004094	0388c493	xori	x9,x17,56	 x17:0x80009f04  x9=0x80009f3c
       27675000	      2766	80004098	fffff317	auipc	x6,0xfffff	  x6=0x80003094
       27685000	      2767	8000409c	35c30313	addi	x6,x6,860	  x6:0x80003094  x6=0x800033f0
       27695000	      2768	800040a0	01fb1933	sll	x18,x22,x31	 x22:0x60067000 x31:0x80009fc4 x18=0x00670000
       27705000	      2769	800040a4	00897833	and	x16,x18,x8	 x18:0x00670000  x8:0x00001000 x16=0x00000000
       27715000	      2770	800040a8	b6377613	andi	x12,x14,-1181	 x14:0x00000000 x12=0x00000000
       27725000	      2771	800040ac	000ad413	srli	x8,x21,0x0	 x21:0xfffffde9  x8=0xfffffde9
       27735000	      2772	800040b0	13e30313	addi	x6,x6,318	  x6:0x800033f0  x6=0x8000352e
       27745000	      2773	800040b4	d42bff17	auipc	x30,0xd42bf	 x30=0x542c30b0
       27755000	      2774	800040b8	ec330be7	jalr	x23,x6,-317	  x6:0x8000352e x23=0x800040b8
       27765000	      2775	00000000	00000013	addi	x0,x0,0	  x0:0x00000000
       27775000	      2776	800033f0	00000013	addi	x0,x0,0	  x0:0x00000000
       27785000	      2777	800033f4	01148413	addi	x8,x9,17	  x9:0x80009f3c  x8=0x80009f4d
       27795000	      2778	800033f8	00000013	addi	x0,x0,0	  x0:0x00000000
       27805000	      2779	800033fc	01971013	slli	x0,x14,0x19	 x14:0x00000000
       27815000	      2780	80003400	00fbbf33	sltu	x30,x23,x15	 x23:0x800040b8 x15:0xfffa9d7a x30=0x00000001
       27825000	      2781	80003404	00d88a63	beq	x17,x13,80003418	 x17:0x80009f04 x13:0x7569a000
       27835000	      2782	80003408	40d5d313	srai	x6,x11,0xd	 x11:0x00000001  x6=0x00000000
       27845000	      2783	8000340c	01969313	slli	x6,x13,0x19	 x13:0x7569a000  x6=0x00000000
       27855000	      2784	80003410	41555d93	srai	x27,x10,0x15	 x10:0x00000001 x27=0x00000000
       27865000	      2785	80003414	00000013	addi	x0,x0,0	  x0:0x00000000
       27875000	      2786	80003418	fec88893	addi	x17,x17,-20	 x17:0x80009f04 x17=0x80009ef0
       27885000	      2787	8000341c	01a88f33	add	x30,x17,x26	 x17:0x80009ef0 x26:0xea6a82bd x30=0x6a6b21ad
       27895000	      2788	80003420	0178a223	sw	x23,4(x17)	 x17:0x80009ef0 x23:0x800040b8 PA:0x80009ef4
       27905000	      2789	80003424	c877c693	xori	x13,x15,-889	 x15:0xfffa9d7a x13=0x000561fd
       27915000	      2790	80003428	4018d113	srai	x2,x17,0x1	 x17:0x80009ef0  x2=0xc0004f78
       27925000	      2791	8000342c	4005d093	srai	x1,x11,0x0	 x11:0x00000001  x1=0x00000001
       27935000	      2792	80003430	012f1b13	slli	x22,x30,0x12	 x30:0x6a6b21ad x22=0x86b40000
       27945000	      2793	80003434	01938233	add	x4,x7,x25	  x7:0x80118010 x25:0x0000007f  x4=0x8011808f
       27955000	      2794	80003438	6258a413	slti	x8,x17,1573	 x17:0x80009ef0  x8=0x00000001
       27965000	      2795	8000343c	00000597	auipc	x11,0x0	 x11=0x80003438
       27975000	      2796	80003440	e7458593	addi	x11,x11,-396	 x11:0x80003438 x11=0x800032ac
       27985000	      2797	80003444	003d6033	or	x0,x26,x3	 x26:0xea6a82bd  x3:0x0005650a
       27995000	      2798	80003448	011eb4b3	sltu	x9,x29,x17	 x29:0x00000184 x17:0x80009ef0  x9=0x00000001
       28005000	      2799	8000344c	c1a58593	addi	x11,x11,-998	 x11:0x800032ac x11=0x80002ec6
       28015000	      2800	80003450	0044f633	and	x12,x9,x4	  x9:0x00000001  x4:0x8011808f x12=0x00000001
       28025000	      2801	80003454	010be463	bltu	x23,x16,8000345c	 x23:0x800040b8 x16:0x00000000
       28035000	      2802	80003458	ea794b93	xori	x23,x18,-345	 x18:0x00670000 x23=0xff98fea7
       28045000	      2803	8000345c	3e758be7	jalr	x23,x11,999	 x11:0x80002ec6 x23=0x8000345c
       28055000	      2804	00000000	00000013	addi	x0,x0,0	  x0:0x00000000
       28065000	      2805	800032ac	00000013	addi	x0,x0,0	  x0:0x00000000
       28075000	      2806	800032b0	00000013	addi	x0,x0,0	  x0:0x00000000
       28085000	      2807	800032b4	000a4533	xor	x10,x20,x0	 x20:0xffffffe0  x0:0x00000000 x10=0xffffffe0
       28095000	      2808	800032b8	1f13ef13	ori	x30,x7,497	  x7:0x80118010 x30=0x801181f1
       28105000	      2809	800032bc	57507e17	auipc	x28,0x57507	 x28=0xd750a2b8
       28115000	      2810	800032c0	48cc7d37	lui	x26,0x48cc7	 x26=0x48cc7000
       28125000	      2811	800032c4	fe088893	addi	x17,x17,-32	 x17:0x80009ef0 x17=0x80009ed0
       28135000	      2812	800032c8	1a92a793	slti	x15,x5,425	  x5:0x000003f8 x15=0x00000000
       28145000	      2813	800032cc	000f3333	sltu	x6,x30,x0	 x30:0x801181f1  x0:0x00000000  x6=0x00000000
       28155000	      2814	800032d0	002ad493	srli	x9,x21,0x2	 x21:0xfffffde9  x9=0x3fffff7a
       28165000	      2815	800032d4	0178a223	sw	x23,4(x17)	 x17:0x80009ed0 x23:0x8000345c PA:0x80009ed4
       28175000	      2816	800032d8	011c2f33	slt	x30,x24,x17	 x24:0x00000001 x17:0x80009ed0 x30=0x00000000
       28185000	      2817	800032dc	41c5d213	srai	x4,x11,0x1c	 x11:0x80002ec6  x4=0xfffffff8
       28195000	      2818	800032e0	0107d013	srli	x0,x15,0x10	 x15:0x00000000
       28205000	      2819	800032e4	01e983b3	add	x7,x19,x30	 x19:0xbdd54e7c x30:0x00000000  x7=0xbdd54e7c
       28215000	      2820	800032e8	3e0b6c13	ori	x24,x22,992	 x22:0x86b40000 x24=0x86b403e0
       28225000	      2821	800032ec	0120ec63	bltu	x1,x18,80003304	  x1:0x00000001 x18:0x00670000
       28235000	      2822	00000000	00000013	addi	x0,x0,0	  x0:0x00000000
       28245000	      2823	80003300	00000013	addi	x0,x0,0	  x0:0x00000000
       28255000	      2824	80003304	416601b3	sub	x3,x12,x22	 x12:0x00000001 x22:0x86b40000  x3=0x794c0001
       28265000	      2825	80003308	039d5e63	bge	x26,x25,80003344	 x26:0x48cc7000 x25:0x0000007f
       28275000	      2826	00000000	00000013	addi	x0,x0,0	  x0:0x00000000
       28285000	      2827	80003340	00000013	addi	x0,x0,0	  x0:0x00000000
       28295000	      2828	80003344	b5f0ce37	lui	x28,0xb5f0c	 x28=0xb5f0c000
       28305000	      2829	80003348	004e5db3	srl	x27,x28,x4	 x28:0xb5f0c000  x4:0xfffffff8 x27=0x000000b5
       28315000	      2830	8000334c	01bd34b3	sltu	x9,x26,x27	 x26:0x48cc7000 x27:0x000000b5  x9=0x00000000
       28325000	      2831	80003350	008f5313	srli	x6,x30,0x8	 x30:0x00000000  x6=0x00000000
       28335000	      2832	80003354	a6cb1e17	auipc	x28,0xa6cb1	 x28=0x26cb4350
       28345000	      2833	80003358	004f5093	srli	x1,x30,0x4	 x30:0x00000000  x1=0x00000000
       28355000	      2834	8000335c	01921513	slli	x10,x4,0x19	  x4:0xfffffff8 x10=0xf0000000
       28365000	      2835	80003360	01dad463	bge	x21,x29,80003368	 x21:0xfffffde9 x29:0x00000184
       28375000	      2836	80003364	22e5b193	sltiu	x3,x11,558	 x11:0x80002ec6  x3=0x00000000
       28385000	      2837	80003368	007a50b3	srl	x1,x20,x7	 x20:0xffffffe0  x7:0xbdd54e7c  x1=0x0000000f
       28395000	      2838	8000336c	294d0013	addi	x0,x26,660	 x26:0x48cc7000
       28405000	      2839	80003370	00f71c63	bne	x14,x15,80003388	 x14:0x00000000 x15:0x00000000
       28415000	      2840	80003374	41035c93	srai	x25,x6,0x10	  x6:0x00000000 x25=0x00000000
       28425000	      2841	80003378	00000013	addi	x0,x0,0	  x0:0x00000000
       28435000	      2842	8000337c	030ece63	blt	x29,x16,800033b8	 x29:0x00000184 x16:0x00000000
       28445000	      2843	80003380	01ab7533	and	x10,x22,x26	 x22:0x86b40000 x26:0x48cc7000 x10=0x00840000
       28455000	      2844	80003384	fa54e613	ori	x12,x9,-91	  x9:0x00000000 x12=0xffffffa5
       28465000	      2845	80003388	0181aeb3	slt	x29,x3,x24	  x3:0x00000000 x24:0x86b403e0 x29=0x00000000
       28475000	      2846	8000338c	018e7e63	bgeu	x28,x24,800033a8	 x28:0x26cb4350 x24:0x86b403e0
       28485000	      2847	80003390	029cc463	blt	x25,x9,800033b8	 x25:0x00000000  x9:0x00000000
       28495000	      2848	80003394	00000013	addi	x0,x0,0	  x0:0x00000000
       28505000	      2849	80003398	3bd74493	xori	x9,x14,957	 x14:0x00000000  x9=0x000003bd
       28515000	      2850	8000339c	01499093	slli	x1,x19,0x14	 x19:0xbdd54e7c  x1=0xe7c00000
       28525000	      2851	800033a0	00cd04b3	add	x9,x26,x12	 x26:0x48cc7000 x12:0xffffffa5  x9=0x48cc6fa5
       28535000	      2852	800033a4	0188d633	srl	x12,x17,x24	 x17:0x80009ed0 x24:0x86b403e0 x12=0x80009ed0
       28545000	      2853	800033a8	01fe6b33	or	x22,x28,x31	 x28:0x26cb4350 x31:0x80009fc4 x22=0xa6cbdfd4
       28555000	      2854	800033ac	00000013	addi	x0,x0,0	  x0:0x00000000
       28565000	      2855	800033b0	01b58463	beq	x11,x27,800033b8	 x11:0x80002ec6 x27:0x000000b5
       28575000	      2856	800033b4	01a472b3	and	x5,x8,x26	  x8:0x00000001 x26:0x48cc7000  x5=0x00000000
       28585000	      2857	800033b8	a4016813	ori	x16,x2,-1472	  x2:0xc0004f78 x16=0xffffff78
       28595000	      2858	800033bc	aacb6697	auipc	x13,0xaacb6	 x13=0x2acb93b8
       28605000	      2859	800033c0	0048ab83	lw	x23,4(x17)	 x17:0x80009ed0 x23=0x8000345c PA:0x80009ed4
       28615000	      2860	00000000	00000013	addi	x0,x0,0	  x0:0x00000000
       28625000	      2861	800033c4	00eb9593	slli	x11,x23,0xe	 x23:0x8000345c x11=0x0d170000
       28635000	      2862	800033c8	1cf5c597	auipc	x11,0x1cf5c	 x11=0x9cf5f3c4
       28645000	      2863	800033cc	00793433	sltu	x8,x18,x7	 x18:0x00670000  x7:0xbdd54e7c  x8=0x00000001
       28655000	      2864	800033d0	011b1cb3	sll	x25,x22,x17	 x22:0xa6cbdfd4 x17:0x80009ed0 x25=0xdfd40000
       28665000	      2865	800033d4	02088893	addi	x17,x17,32	 x17:0x80009ed0 x17=0x80009ef0
       28675000	      2866	800033d8	00000013	addi	x0,x0,0	  x0:0x00000000
       28685000	      2867	800033dc	0145ce33	xor	x28,x11,x20	 x11:0x9cf5f3c4 x20:0xffffffe0 x28=0x630a0c24
       28695000	      2868	800033e0	ccb87417	auipc	x8,0xccb87	  x8=0x4cb8a3dc
       28705000	      2869	800033e4	40918033	sub	x0,x3,x9	  x3:0x00000000  x9:0x48cc6fa5
       28715000	      2870	800033e8	014ed913	srli	x18,x29,0x14	 x29:0x00000000 x18=0x00000000
       28725000	      2871	800033ec	001b8a13	addi	x20,x23,1	 x23:0x8000345c x20=0x8000345d
       28735000	      2872	800033f0	000a0a67	jalr	x20,x20,0	 x20:0x8000345d x20=0x800033f0
       28745000	      2873	00000000	00000013	addi	x0,x0,0	  x0:0x00000000
       28755000	      2874	8000345c	00000013	addi	x0,x0,0	  x0:0x00000000
       28765000	      2875	80003460	00006117	auipc	x2,0x6	  x2=0x8000945c
       28775000	      2876	80003464	92710113	addi	x2,x2,-1753	  x2:0x8000945c  x2=0x80008d83
       28785000	      2877	80003468	4d717d93	andi	x27,x2,1239	  x2:0x80008d83 x27=0x00000483
       28795000	      2878	8000346c	fc110323	sb	x1,-58(x2)	  x2:0x80008d83  x1:0xe7c00000 PA:0x80008d49
       28805000	      2879	80003470	00db0933	add	x18,x22,x13	 x22:0xa6cbdfd4 x13:0x2acb93b8 x18=0xd197738c
       28815000	      2880	80003474	f6573a13	sltiu	x20,x14,-155	 x14:0x00000000 x20=0x00000001
       28825000	      2881	80003478	fe715583	lhu	x11,-25(x2)	  x2:0x80008d83 x11=0x0000000c PA:0x80008d6a
       28835000	      2882	8000347c	00e14783	lbu	x15,14(x2)	  x2:0x80008d83 x15=0x0000008b PA:0x80008d91
       28845000	      2883	00000000	00000013	addi	x0,x0,0	  x0:0x00000000
       28855000	      2884	80003480	3af2c413	xori	x8,x5,943	  x5:0x00000000  x8=0x000003af
       28865000	      2885	80003484	ffc14d03	lbu	x26,-4(x2)	  x2:0x80008d83 x26=0x000000a3 PA:0x80008d7f
       28875000	      2886	80003488	fed10403	lb	x8,-19(x2)	  x2:0x80008d83  x8=0xffffff8f PA:0x80008d70
       28885000	      2887	8000348c	01414083	lbu	x1,20(x2)	  x2:0x80008d83  x1=0x0000009d PA:0x80008d97
       28895000	      2888	80003490	fd610423	sb	x22,-56(x2)	  x2:0x80008d83 x22:0xa6cbdfd4 PA:0x80008d4b
       28905000	      2889	80003494	00db3c33	sltu	x24,x22,x13	 x22:0xa6cbdfd4 x13:0x2acb93b8 x24=0x00000000
       28915000	      2890	80003498	411903b3	sub	x7,x18,x17	 x18:0xd197738c x17:0x80009ef0  x7=0x5196d49c
       28925000	      2891	8000349c	01ff3b33	sltu	x22,x30,x31	 x30:0x00000000 x31:0x80009fc4 x22=0x00000001
       28935000	      2892	800034a0	48286b93	ori	x23,x16,1154	 x16:0xffffff78 x23=0xfffffffa
       28945000	      2893	800034a4	40215613	srai	x12,x2,0x2	  x2:0x80008d83 x12=0xe0002360
       28955000	      2894	800034a8	414703b3	sub	x7,x14,x20	 x14:0x00000000 x20:0x00000001  x7=0xffffffff
       28965000	      2895	800034ac	01a10503	lb	x10,26(x2)	  x2:0x80008d83 x10=0x0000007c PA:0x80008d9d
       28975000	      2896	800034b0	02010283	lb	x5,32(x2)	  x2:0x80008d83  x5=0x00000046 PA:0x80008da3
       28985000	      2897	800034b4	00000013	addi	x0,x0,0	  x0:0x00000000
       28995000	      2898	800034b8	01e14a03	lbu	x20,30(x2)	  x2:0x80008d83 x20=0x00000026 PA:0x80008da1
       29005000	      2899	800034bc	fc714d03	lbu	x26,-57(x2)	  x2:0x80008d83 x26=0x000000f4 PA:0x80008d4a
       29015000	      2900	800034c0	fc214e83	lbu	x29,-62(x2)	  x2:0x80008d83 x29=0x000000f1 PA:0x80008d45
       29025000	      2901	00000000	00000013	addi	x0,x0,0	  x0:0x00000000
       29035000	      2902	800034c4	c5d43593	sltiu	x11,x8,-931	  x8:0xffffff8f x11=0x00000000
       29045000	      2903	800034c8	00000013	addi	x0,x0,0	  x0:0x00000000
       29055000	      2904	800034cc	6957ba13	sltiu	x20,x15,1685	 x15:0x0000008b x20=0x00000001
       29065000	      2905	800034d0	03912d03	lw	x26,57(x2)	  x2:0x80008d83 x26=0x353756c3 PA:0x80008dbc
       29075000	      2906	800034d4	0139d3b3	srl	x7,x19,x19	 x19:0xbdd54e7c x19:0xbdd54e7c  x7=0x0000000b
       29085000	      2907	800034d8	40f45cb3	sra	x25,x8,x15	  x8:0xffffff8f x15:0x0000008b x25=0xffffffff
       29095000	      2908	800034dc	01703db3	sltu	x27,x0,x23	  x0:0x00000000 x23:0xfffffffa x27=0x00000001
       29105000	      2909	800034e0	ff714e83	lbu	x29,-9(x2)	  x2:0x80008d83 x29=0x00000015 PA:0x80008d7a
       29115000	      2910	00000000	00000013	addi	x0,x0,0	  x0:0x00000000
       29125000	      2911	800034e4	03d11b03	lh	x22,61(x2)	  x2:0x80008d83 x22=0xffffad1c PA:0x80008dc0
       29135000	      2912	800034e8	01535233	srl	x4,x6,x21	  x6:0x00000000 x21:0xfffffde9  x4=0x00000000
       29145000	      2913	800034ec	fd814003	lbu	x0,-40(x2)	  x2:0x80008d83 PA:0x80008d5b
       29155000	      2914	800034f0	fc410f23	sb	x4,-34(x2)	  x2:0x80008d83  x4:0x00000000 PA:0x80008d61
       29165000	      2915	800034f4	4005da33	sra	x20,x11,x0	 x11:0x00000000  x0:0x00000000 x20=0x00000000
       29175000	      2916	800034f8	4118da33	sra	x20,x17,x17	 x17:0x80009ef0 x17:0x80009ef0 x20=0xffff8000
       29185000	      2917	800034fc	02310023	sb	x3,32(x2)	  x2:0x80008d83  x3:0x00000000 PA:0x80008da3
       29195000	      2918	80003500	01b41d33	sll	x26,x8,x27	  x8:0xffffff8f x27:0x00000001 x26=0xffffff1e
       29205000	      2919	80003504	0096c9b3	xor	x19,x13,x9	 x13:0x2acb93b8  x9:0x48cc6fa5 x19=0x6207fc1d
       29215000	      2920	80003508	00bc56b3	srl	x13,x24,x11	 x24:0x00000000 x11:0x00000000 x13=0x00000000
       29225000	      2921	8000350c	02f10483	lb	x9,47(x2)	  x2:0x80008d83  x9=0x00000052 PA:0x80008db2
       29235000	      2922	80003510	411ddd13	srai	x26,x27,0x11	 x27:0x00000001 x26=0x00000000
       29245000	      2923	80003514	017c2cb3	slt	x25,x24,x23	 x24:0x00000000 x23:0xfffffffa x25=0x00000000
       29255000	      2924	80003518	00814f03	lbu	x30,8(x2)	  x2:0x80008d83 x30=0x000000a4 PA:0x80008d8b
       29265000	      2925	8000351c	ffc14983	lbu	x19,-4(x2)	  x2:0x80008d83 x19=0x000000a3 PA:0x80008d7f
       29275000	      2926	80003520	02614803	lbu	x16,38(x2)	  x2:0x80008d83 x16=0x000000c5 PA:0x80008da9
       29285000	      2927	80003524	011bc613	xori	x12,x23,17	 x23:0xfffffffa x12=0xffffffeb
       29295000	      2928	80003528	fd110423	sb	x17,-56(x2)	  x2:0x80008d83 x17:0x80009ef0 PA:0x80008d4b
       29305000	      2929	8000352c	fd714b03	lbu	x22,-41(x2)	  x2:0x80008d83 x22=0x00000088 PA:0x80008d5a
       29315000	      2930	80003530	fce10a23	sb	x14,-44(x2)	  x2:0x80008d83 x14:0x00000000 PA:0x80008d57
       29325000	      2931	80003534	7e63fd13	andi	x26,x7,2022	  x7:0x0000000b x26=0x00000002
       29335000	      2932	80003538	011081b3	add	x3,x1,x17	  x1:0x0000009d x17:0x80009ef0  x3=0x80009f8d
       29345000	      2933	8000353c	fce10383	lb	x7,-50(x2)	  x2:0x80008d83  x7=0xffffff95 PA:0x80008d51
       29355000	      2934	80003540	00005f17	auipc	x30,0x5	 x30=0x8000853c
       29365000	      2935	80003544	651f0f13	addi	x30,x30,1617	 x30:0x8000853c x30=0x80008b8d
       29375000	      2936	80003548	0bdf5503	lhu	x10,189(x30)	 x30:0x80008b8d x10=0x000069cc PA:0x80008c4a
       29385000	      2937	8000354c	402105b3	sub	x11,x2,x2	  x2:0x80008d83  x2:0x80008d83 x11=0x00000000
       29395000	      2938	80003550	032f1ca3	sh	x18,57(x30)	 x30:0x80008b8d x18:0xd197738c PA:0x80008bc6
       29405000	      2939	80003554	41a1d7b3	sra	x15,x3,x26	  x3:0x80009f8d x26:0x00000002 x15=0xe00027e3
       29415000	      2940	80003558	036f4303	lbu	x6,54(x30)	 x30:0x80008b8d  x6=0x000000b0 PA:0x80008bc3
       29425000	      2941	8000355c	f41f21a3	sw	x1,-189(x30)	 x30:0x80008b8d  x1:0x0000009d PA:0x80008ad0
       29435000	      2942	80003560	01cf1693	slli	x13,x30,0x1c	 x30:0x80008b8d x13=0xd0000000
       29445000	      2943	80003564	412e5193	srai	x3,x28,0x12	 x28:0x630a0c24  x3=0x000018c2
       29455000	      2944	80003568	005f5d83	lhu	x27,5(x30)	 x30:0x80008b8d x27=0x0000ddb0 PA:0x80008b92
       29465000	      2945	8000356c	00fcaab3	slt	x21,x25,x15	 x25:0x00000000 x15:0xe00027e3 x21=0x00000000
       29475000	      2946	80003570	010e1213	slli	x4,x28,0x10	 x28:0x630a0c24  x4=0x0c240000
       29485000	      2947	80003574	00a4f0b3	and	x1,x9,x10	  x9:0x00000052 x10:0x000069cc  x1=0x00000040
       29495000	      2948	80003578	0b7f0283	lb	x5,183(x30)	 x30:0x80008b8d  x5=0x00000021 PA:0x80008c44
       29505000	      2949	8000357c	fbbebb93	sltiu	x23,x29,-69	 x29:0x00000015 x23=0x00000001
       29515000	      2950	80003580	fcef0f23	sb	x14,-34(x30)	 x30:0x80008b8d x14:0x00000000 PA:0x80008b6b
       29525000	      2951	80003584	0b9f1e03	lh	x28,185(x30)	 x30:0x80008b8d x28=0x00001076 PA:0x80008c46
       29535000	      2952	80003588	01355393	srli	x7,x10,0x13	 x10:0x000069cc  x7=0x00000000
       29545000	      2953	8000358c	f60f0003	lb	x0,-160(x30)	 x30:0x80008b8d PA:0x80008aed
       29555000	      2954	80003590	0c8f4517	auipc	x10,0xc8f4	 x10=0x8c8f758c
       29565000	      2955	80003594	00a91e93	slli	x29,x18,0xa	 x18:0xd197738c x29=0x5dce3000
       29575000	      2956	80003598	0c2f4b83	lbu	x23,194(x30)	 x30:0x80008b8d x23=0x00000000 PA:0x80008c4f
       29585000	      2957	8000359c	0192fb33	and	x22,x5,x25	  x5:0x00000021 x25:0x00000000 x22=0x00000000
       29595000	      2958	800035a0	de36ce13	xori	x28,x13,-541	 x13:0xd0000000 x28=0x2ffffde3
       29605000	      2959	800035a4	7caaab17	auipc	x22,0x7caaa	 x22=0xfcaad5a0
       29615000	      2960	800035a8	08df16a3	sh	x13,141(x30)	 x30:0x80008b8d x13:0xd0000000 PA:0x80008c1a
       29625000	      2961	800035ac	000339b3	sltu	x19,x6,x0	  x6:0x000000b0  x0:0x00000000 x19=0x00000000
       29635000	      2962	800035b0	fbaf4303	lbu	x6,-70(x30)	 x30:0x80008b8d  x6=0x00000005 PA:0x80008b47
       29645000	      2963	800035b4	40ac8533	sub	x10,x25,x10	 x25:0x00000000 x10:0x8c8f758c x10=0x73708a74
       29655000	      2964	800035b8	000cc933	xor	x18,x25,x0	 x25:0x00000000  x0:0x00000000 x18=0x00000000
       29665000	      2965	800035bc	efe04513	xori	x10,x0,-258	  x0:0x00000000 x10=0xfffffefe
       29675000	      2966	800035c0	98269d97	auipc	x27,0x98269	 x27=0x1826c5bc
       29685000	      2967	800035c4	7c7d2d13	slti	x26,x26,1991	 x26:0x00000002 x26=0x00000001
       29695000	      2968	800035c8	f75f0623	sb	x21,-148(x30)	 x30:0x80008b8d x21:0x00000000 PA:0x80008af9
       29705000	      2969	800035cc	f9ef0fa3	sb	x30,-97(x30)	 x30:0x80008b8d x30:0x80008b8d PA:0x80008b2c
       29715000	      2970	800035d0	f6bf5083	lhu	x1,-149(x30)	 x30:0x80008b8d  x1=0x00000071 PA:0x80008af8
       29725000	      2971	800035d4	0056dcb3	srl	x25,x13,x5	 x13:0xd0000000  x5:0x00000021 x25=0x68000000
       29735000	      2972	800035d8	4037d613	srai	x12,x15,0x3	 x15:0xe00027e3 x12=0xfc0004fc
       29745000	      2973	800035dc	f22f0923	sb	x2,-206(x30)	 x30:0x80008b8d  x2:0x80008d83 PA:0x80008abf
       29755000	      2974	800035e0	0ecf0303	lb	x6,236(x30)	 x30:0x80008b8d  x6=0x00000057 PA:0x80008c79
       29765000	      2975	800035e4	029f05a3	sb	x9,43(x30)	 x30:0x80008b8d  x9:0x00000052 PA:0x80008bb8
       29775000	      2976	800035e8	0b3f0203	lb	x4,179(x30)	 x30:0x80008b8d  x4=0x0000006f PA:0x80008c40
       29785000	      2977	800035ec	778a9017	auipc	x0,0x778a9	
       29795000	      2978	800035f0	ff1f0523	sb	x17,-22(x30)	 x30:0x80008b8d x17:0x80009ef0 PA:0x80008b77
       29805000	      2979	800035f4	fc7f05a3	sb	x7,-53(x30)	 x30:0x80008b8d  x7:0x00000000 PA:0x80008b58
       29815000	      2980	800035f8	082f4683	lbu	x13,130(x30)	 x30:0x80008b8d x13=0x00000015 PA:0x80008c0f
       29825000	      2981	800035fc	00c65233	srl	x4,x12,x12	 x12:0xfc0004fc x12:0xfc0004fc  x4=0x0000000f
       29835000	      2982	80003600	8944fc13	andi	x24,x9,-1900	  x9:0x00000052 x24=0x00000010
       29845000	      2983	80003604	11571db7	lui	x27,0x11571	 x27=0x11571000
       29855000	      2984	80003608	0bbf07a3	sb	x27,175(x30)	 x30:0x80008b8d x27:0x11571000 PA:0x80008c3c
       29865000	      2985	8000360c	012f4283	lbu	x5,18(x30)	 x30:0x80008b8d  x5=0x00000070 PA:0x80008b9f
       29875000	      2986	80003610	0e1f10a3	sh	x1,225(x30)	 x30:0x80008b8d  x1:0x00000071 PA:0x80008c6e
       29885000	      2987	80003614	1d31f193	andi	x3,x3,467	  x3:0x000018c2  x3=0x000000c2
       29895000	      2988	80003618	fdff02a3	sb	x31,-59(x30)	 x30:0x80008b8d x31:0x80009fc4 PA:0x80008b52
       29905000	      2989	8000361c	418bda33	sra	x20,x23,x24	 x23:0x00000000 x24:0x00000010 x20=0x00000000
       29915000	      2990	80003620	017ee333	or	x6,x29,x23	 x29:0x5dce3000 x23:0x00000000  x6=0x5dce3000
       29925000	      2991	80003624	fb3f1303	lh	x6,-77(x30)	 x30:0x80008b8d  x6=0x00003bb3 PA:0x80008b40
       29935000	      2992	80003628	4127ddb3	sra	x27,x15,x18	 x15:0xe00027e3 x18:0x00000000 x27=0xe00027e3
       29945000	      2993	8000362c	f78f0b03	lb	x22,-136(x30)	 x30:0x80008b8d x22=0xfffffff6 PA:0x80008b05
       29955000	      2994	80003630	018f9c13	slli	x24,x31,0x18	 x31:0x80009fc4 x24=0xc4000000
       29965000	      2995	80003634	02ab1c63	bne	x22,x10,8000366c	 x22:0xfffffff6 x10:0xfffffefe
       29975000	      2996	00000000	00000013	addi	x0,x0,0	  x0:0x00000000
       29985000	      2997	80003668	00000013	addi	x0,x0,0	  x0:0x00000000
       29995000	      2998	8000366c	00ec5993	srli	x19,x24,0xe	 x24:0xc4000000 x19=0x00031000
       30005000	      2999	80003670	01cb5e63	bge	x22,x28,8000368c	 x22:0xfffffff6 x28:0x2ffffde3
       30015000	      3000	80003674	0208d863	bge	x17,x0,800036a4	 x17:0x80009ef0  x0:0x00000000
       30025000	      3001	80003678	00000013	addi	x0,x0,0	  x0:0x00000000
       30035000	      3002	8000367c	00000013	addi	x0,x0,0	  x0:0x00000000
       30045000	      3003	80003680	7ae6a613	slti	x12,x13,1966	 x13:0x00000015 x12=0x00000001
       30055000	      3004	80003684	00000013	addi	x0,x0,0	  x0:0x00000000
       30065000	      3005	80003688	2045e413	ori	x8,x11,516	 x11:0x00000000  x8=0x00000204
       30075000	      3006	8000368c	019f8f33	add	x30,x31,x25	 x31:0x80009fc4 x25:0x68000000 x30=0xe8009fc4
       30085000	      3007	80003690	04955263	bge	x10,x9,800036d4	 x10:0xfffffefe  x9:0x00000052
       30095000	      3008	80003694	041a5863	bge	x20,x1,800036e4	 x20:0x00000000  x1:0x00000071
       30105000	      3009	80003698	004e97b3	sll	x15,x29,x4	 x29:0x5dce3000  x4:0x0000000f x15=0x18000000
       30115000	      3010	8000369c	f4638e93	addi	x29,x7,-186	  x7:0x00000000 x29=0xffffff46
       30125000	      3011	800036a0	00a1f633	and	x12,x3,x10	  x3:0x000000c2 x10:0xfffffefe x12=0x000000c2
       30135000	      3012	800036a4	03e64e63	blt	x12,x30,800036e0	 x12:0x000000c2 x30:0xe8009fc4
       30145000	      3013	800036a8	01d31c13	slli	x24,x6,0x1d	  x6:0x00003bb3 x24=0x60000000
       30155000	      3014	800036ac	f33f6693	ori	x13,x30,-205	 x30:0xe8009fc4 x13=0xfffffff7
       30165000	      3015	800036b0	01b2a6b3	slt	x13,x5,x27	  x5:0x00000070 x27:0xe00027e3 x13=0x00000000
       30175000	      3016	800036b4	009a9e33	sll	x28,x21,x9	 x21:0x00000000  x9:0x00000052 x28=0x00000000
       30185000	      3017	800036b8	00000013	addi	x0,x0,0	  x0:0x00000000
       30195000	      3018	800036bc	00588a63	beq	x17,x5,800036d0	 x17:0x80009ef0  x5:0x00000070
       30205000	      3019	800036c0	8c24e413	ori	x8,x9,-1854	  x9:0x00000052  x8=0xfffff8d2
       30215000	      3020	800036c4	0147adb3	slt	x27,x15,x20	 x15:0x18000000 x20:0x00000000 x27=0x00000000
       30225000	      3021	800036c8	413a0333	sub	x6,x20,x19	 x20:0x00000000 x19:0x00031000  x6=0xfffcf000
       30235000	      3022	800036cc	d6d00137	lui	x2,0xd6d00	  x2=0xd6d00000
       30245000	      3023	800036d0	41fd8533	sub	x10,x27,x31	 x27:0x00000000 x31:0x80009fc4 x10=0x7fff603c
       30255000	      3024	800036d4	0120a633	slt	x12,x1,x18	  x1:0x00000071 x18:0x00000000 x12=0x00000000
       30265000	      3025	800036d8	b6660d93	addi	x27,x12,-1178	 x12:0x00000000 x27=0xfffffb66
       30275000	      3026	800036dc	00b51eb3	sll	x29,x10,x11	 x10:0x7fff603c x11:0x00000000 x29=0x7fff603c
       30285000	      3027	800036e0	05824463	blt	x4,x24,80003728	  x4:0x0000000f x24:0x60000000
       30295000	      3028	00000000	00000013	addi	x0,x0,0	  x0:0x00000000
       30305000	      3029	80003724	00000013	addi	x0,x0,0	  x0:0x00000000
       30315000	      3030	80003728	9a767013	andi	x0,x12,-1625	 x12:0x00000000
       30325000	      3031	8000372c	d8cb8a13	addi	x20,x23,-628	 x23:0x00000000 x20=0xfffffd8c
       30335000	      3032	80003730	62d58393	addi	x7,x11,1581	 x11:0x00000000  x7=0x0000062d
       30345000	      3033	80003734	41fcd0b3	sra	x1,x25,x31	 x25:0x68000000 x31:0x80009fc4  x1=0x06800000
       30355000	      3034	80003738	a9412c93	slti	x25,x2,-1388	  x2:0xd6d00000 x25=0x00000001
       30365000	      3035	8000373c	0320d663	bge	x1,x18,80003768	  x1:0x06800000 x18:0x00000000
       30375000	      3036	00000000	00000013	addi	x0,x0,0	  x0:0x00000000
       30385000	      3037	80003764	00000013	addi	x0,x0,0	  x0:0x00000000
       30395000	      3038	80003768	a9b3a693	slti	x13,x7,-1381	  x7:0x0000062d x13=0x00000000
       30405000	      3039	8000376c	411454b3	sra	x9,x8,x17	  x8:0xfffff8d2 x17:0x80009ef0  x9=0xffffffff
       30415000	      3040	80003770	72f7e3b7	lui	x7,0x72f7e	  x7=0x72f7e000
       30425000	      3041	80003774	2d59be93	sltiu	x29,x19,725	 x19:0x00031000 x29=0x00000000
       30435000	      3042	80003778	fa08bb93	sltiu	x23,x17,-96	 x17:0x80009ef0 x23=0x00000001
       30445000	      3043	8000377c	5f337793	andi	x15,x6,1523	  x6:0xfffcf000 x15=0x00000000
       30455000	      3044	80003780	038b9a63	bne	x23,x24,800037b4	 x23:0x00000001 x24:0x60000000
       30465000	      3045	00000000	00000013	addi	x0,x0,0	  x0:0x00000000
       30475000	      3046	800037b0	00000013	addi	x0,x0,0	  x0:0x00000000
       30485000	      3047	800037b4	0118ac17	auipc	x24,0x118a	 x24=0x8118d7b0
       30495000	      3048	800037b8	0136ce63	blt	x13,x19,800037d4	 x13:0x00000000 x19:0x00031000
       30505000	      3049	00000000	00000013	addi	x0,x0,0	  x0:0x00000000
       30515000	      3050	800037d0	00000013	addi	x0,x0,0	  x0:0x00000000
       30525000	      3051	800037d4	6d98b013	sltiu	x0,x17,1753	 x17:0x80009ef0
       30535000	      3052	800037d8	dc47f613	andi	x12,x15,-572	 x15:0x00000000 x12=0x00000000
       30545000	      3053	800037dc	02615463	bge	x2,x6,80003804	  x2:0xd6d00000  x6:0xfffcf000
       30555000	      3054	800037e0	01fc94b3	sll	x9,x25,x31	 x25:0x00000001 x31:0x80009fc4  x9=0x00000010
       30565000	      3055	800037e4	01c17633	and	x12,x2,x28	  x2:0xd6d00000 x28:0x00000000 x12=0x00000000
       30575000	      3056	800037e8	a87ffa13	andi	x20,x31,-1401	 x31:0x80009fc4 x20=0x80009a84
       30585000	      3057	800037ec	ea3d4097	auipc	x1,0xea3d4	  x1=0x6a3d77e8
       30595000	      3058	800037f0	00257533	and	x10,x10,x2	 x10:0x7fff603c  x2:0xd6d00000 x10=0x56d00000
       30605000	      3059	800037f4	01311b93	slli	x23,x2,0x13	  x2:0xd6d00000 x23=0x00000000
       30615000	      3060	800037f8	01051663	bne	x10,x16,80003804	 x10:0x56d00000 x16:0x000000c5
       30625000	      3061	00000000	00000013	addi	x0,x0,0	  x0:0x00000000
       30635000	      3062	80003800	00000013	addi	x0,x0,0	  x0:0x00000000
       30645000	      3063	80003804	14a11e97	auipc	x29,0x14a11	 x29=0x94a14800
       30655000	      3064	80003808	40440e33	sub	x28,x8,x4	  x8:0xfffff8d2  x4:0x0000000f x28=0xfffff8c3
       30665000	      3065	8000380c	00ef5c33	srl	x24,x30,x14	 x30:0xe8009fc4 x14:0x00000000 x24=0xe8009fc4
       30675000	      3066	80003810	00000013	addi	x0,x0,0	  x0:0x00000000
       30685000	      3067	80003814	00634633	xor	x12,x6,x6	  x6:0xfffcf000  x6:0xfffcf000 x12=0x00000000
       30695000	      3068	80003818	fbe2ec13	ori	x24,x5,-66	  x5:0x00000070 x24=0xfffffffe
       30705000	      3069	8000381c	028ec863	blt	x29,x8,8000384c	 x29:0x94a14800  x8:0xfffff8d2
       30715000	      3070	00000000	00000013	addi	x0,x0,0	  x0:0x00000000
       30725000	      3071	80003848	00000013	addi	x0,x0,0	  x0:0x00000000
       30735000	      3072	8000384c	01cd4633	xor	x12,x26,x28	 x26:0x00000001 x28:0xfffff8c3 x12=0xfffff8c2
       30745000	      3073	80003850	001bed33	or	x26,x23,x1	 x23:0x00000000  x1:0x6a3d77e8 x26=0x6a3d77e8
       30755000	      3074	80003854	407dd0b3	sra	x1,x27,x7	 x27:0xfffffb66  x7:0x72f7e000  x1=0xfffffb66
       30765000	      3075	80003858	7fed8413	addi	x8,x27,2046	 x27:0xfffffb66  x8=0x00000364
       30775000	      3076	8000385c	4092d493	srai	x9,x5,0x9	  x5:0x00000070  x9=0x00000000
       30785000	      3077	80003860	01f1be33	sltu	x28,x3,x31	  x3:0x000000c2 x31:0x80009fc4 x28=0x00000001
       30795000	      3078	80003864	010bbb33	sltu	x22,x23,x16	 x23:0x00000000 x16:0x000000c5 x22=0x00000001
       30805000	      3079	80003868	057a5263	bge	x20,x23,800038ac	 x20:0x80009a84 x23:0x00000000
       30815000	      3080	8000386c	15fdeb93	ori	x23,x27,351	 x27:0xfffffb66 x23=0xfffffb7f
       30825000	      3081	80003870	ed924497	auipc	x9,0xed924	  x9=0x6d92786c
       30835000	      3082	80003874	1a036793	ori	x15,x6,416	  x6:0xfffcf000 x15=0xfffcf1a0
       30845000	      3083	80003878	41355833	sra	x16,x10,x19	 x10:0x56d00000 x19:0x00031000 x16=0x56d00000
       30855000	      3084	8000387c	027f6863	bltu	x30,x7,800038ac	 x30:0xe8009fc4  x7:0x72f7e000
       30865000	      3085	80003880	019b5413	srli	x8,x22,0x19	 x22:0x00000001  x8=0x00000000
       30875000	      3086	80003884	51fcf317	auipc	x6,0x51fcf	  x6=0xd1fd2880
       30885000	      3087	80003888	02d25a63	bge	x4,x13,800038bc	  x4:0x0000000f x13:0x00000000
       30895000	      3088	00000000	00000013	addi	x0,x0,0	  x0:0x00000000
       30905000	      3089	800038b8	00000013	addi	x0,x0,0	  x0:0x00000000
       30915000	      3090	800038bc	004f6e63	bltu	x30,x4,800038d8	 x30:0xe8009fc4  x4:0x0000000f
       30925000	      3091	800038c0	33f6a5b7	lui	x11,0x33f6a	 x11=0x33f6a000
       30935000	      3092	800038c4	01a9f3b3	and	x7,x19,x26	 x19:0x00031000 x26:0x6a3d77e8  x7=0x00011000
       30945000	      3093	800038c8	01655113	srli	x2,x10,0x16	 x10:0x56d00000  x2=0x0000015b
       30955000	      3094	800038cc	008dc633	xor	x12,x27,x8	 x27:0xfffffb66  x8:0x00000000 x12=0xfffffb66
       30965000	      3095	800038d0	0057da93	srli	x21,x15,0x5	 x15:0xfffcf1a0 x21=0x07ffe78d
       30975000	      3096	800038d4	415582b3	sub	x5,x11,x21	 x11:0x33f6a000 x21:0x07ffe78d  x5=0x2bf6b873
       30985000	      3097	800038d8	00591113	slli	x2,x18,0x5	 x18:0x00000000  x2=0x00000000
       30995000	      3098	800038dc	01955263	bge	x10,x25,800038e0	 x10:0x56d00000 x25:0x00000001
       31005000	      3099	00000000	00000013	addi	x0,x0,0	  x0:0x00000000
       31015000	      3100	800038dc	00000013	addi	x0,x0,0	  x0:0x00000000
       31025000	      3101	800038e0	01800333	add	x6,x0,x24	  x0:0x00000000 x24:0xfffffffe  x6=0xfffffffe
       31035000	      3102	800038e4	003ae3b3	or	x7,x21,x3	 x21:0x07ffe78d  x3:0x000000c2  x7=0x07ffe7cf
       31045000	      3103	800038e8	01235a93	srli	x21,x6,0x12	  x6:0xfffffffe x21=0x00003fff
       31055000	      3104	800038ec	a0737693	andi	x13,x6,-1529	  x6:0xfffffffe x13=0xfffffa06
       31065000	      3105	800038f0	56b95f37	lui	x30,0x56b95	 x30=0x56b95000
       31075000	      3106	800038f4	01015e63	bge	x2,x16,80003910	  x2:0x00000000 x16:0x56d00000
       31085000	      3107	800038f8	01ca84b3	add	x9,x21,x28	 x21:0x00003fff x28:0x00000001  x9=0x00004000
       31095000	      3108	800038fc	3c3bd637	lui	x12,0x3c3bd	 x12=0x3c3bd000
       31105000	      3109	80003900	03b79663	bne	x15,x27,8000392c	 x15:0xfffcf1a0 x27:0xfffffb66
       31115000	      3110	00000000	00000013	addi	x0,x0,0	  x0:0x00000000
       31125000	      3111	80003928	00000013	addi	x0,x0,0	  x0:0x00000000
       31135000	      3112	8000392c	006b4c63	blt	x22,x6,80003944	 x22:0x00000001  x6:0xfffffffe
       31145000	      3113	80003930	cc1f4493	xori	x9,x30,-831	 x30:0x56b95000  x9=0xa946acc1
       31155000	      3114	80003934	51594d93	xori	x27,x18,1301	 x18:0x00000000 x27=0x00000515
       31165000	      3115	80003938	6ce38093	addi	x1,x7,1742	  x7:0x07ffe7cf  x1=0x07ffee9d
       31175000	      3116	8000393c	7f8dac93	slti	x25,x27,2040	 x27:0x00000515 x25=0x00000001
       31185000	      3117	80003940	6570f993	andi	x19,x1,1623	  x1:0x07ffee9d x19=0x00000615
       31195000	      3118	80003944	0326de63	bge	x13,x18,80003980	 x13:0xfffffa06 x18:0x00000000
       31205000	      3119	80003948	02658e63	beq	x11,x6,80003984	 x11:0x33f6a000  x6:0xfffffffe
       31215000	      3120	8000394c	400b5913	srai	x18,x22,0x0	 x22:0x00000001 x18=0x00000001
       31225000	      3121	80003950	76a98c93	addi	x25,x19,1898	 x19:0x00000615 x25=0x00000d7f
       31235000	      3122	80003954	7948a593	slti	x11,x17,1940	 x17:0x80009ef0 x11=0x00000001
       31245000	      3123	80003958	01b579b3	and	x19,x10,x27	 x10:0x56d00000 x27:0x00000515 x19=0x00000000
       31255000	      3124	8000395c	01a269b3	or	x19,x4,x26	  x4:0x0000000f x26:0x6a3d77e8 x19=0x6a3d77ef
       31265000	      3125	80003960	63869917	auipc	x18,0x63869	 x18=0xe386c95c
       31275000	      3126	80003964	40b95e13	srai	x28,x18,0xb	 x18:0xe386c95c x28=0xfffc70d9
       31285000	      3127	80003968	00dc12b3	sll	x5,x24,x13	 x24:0xfffffffe x13:0xfffffa06  x5=0xffffff80
       31295000	      3128	8000396c	01e74bb3	xor	x23,x14,x30	 x14:0x00000000 x30:0x56b95000 x23=0x56b95000
       31305000	      3129	80003970	d7469d97	auipc	x27,0xd7469	 x27=0x5746c96c
       31315000	      3130	80003974	002cff33	and	x30,x25,x2	 x25:0x00000d7f  x2:0x00000000 x30=0x00000000
       31325000	      3131	80003978	40e25813	srai	x16,x4,0xe	  x4:0x0000000f x16=0x00000000
       31335000	      3132	8000397c	012d1193	slli	x3,x26,0x12	 x26:0x6a3d77e8  x3=0xdfa00000
       31345000	      3133	80003980	02cc6463	bltu	x24,x12,800039a8	 x24:0xfffffffe x12:0x3c3bd000
       31355000	      3134	80003984	01e46e63	bltu	x8,x30,800039a0	  x8:0x00000000 x30:0x00000000
       31365000	      3135	80003988	000eea63	bltu	x29,x0,8000399c	 x29:0x94a14800  x0:0x00000000
       31375000	      3136	8000398c	01b7d393	srli	x7,x15,0x1b	 x15:0xfffcf1a0  x7=0x0000001f
       31385000	      3137	80003990	60a6bb93	sltiu	x23,x13,1546	 x13:0xfffffa06 x23=0x00000000
       31395000	      3138	80003994	c76acd93	xori	x27,x21,-906	 x21:0x00003fff x27=0xffffc389
       31405000	      3139	80003998	01093c33	sltu	x24,x18,x16	 x18:0xe386c95c x16:0x00000000 x24=0x00000000
       31415000	      3140	8000399c	00209a33	sll	x20,x1,x2	  x1:0x07ffee9d  x2:0x00000000 x20=0x07ffee9d
       31425000	      3141	800039a0	097fc863	blt	x31,x23,80003a30	 x31:0x80009fc4 x23:0x00000000
       31435000	      3142	00000000	00000013	addi	x0,x0,0	  x0:0x00000000
       31445000	      3143	80003a2c	00000013	addi	x0,x0,0	  x0:0x00000000
       31455000	      3144	80003a30	0e3341b7	lui	x3,0xe334	  x3=0x0e334000
       31465000	      3145	80003a34	03a5fc63	bgeu	x11,x26,80003a6c	 x11:0x00000001 x26:0x6a3d77e8
       31475000	      3146	80003a38	024ad863	bge	x21,x4,80003a68	 x21:0x00003fff  x4:0x0000000f
       31485000	      3147	00000000	00000013	addi	x0,x0,0	  x0:0x00000000
       31495000	      3148	80003a64	00000013	addi	x0,x0,0	  x0:0x00000000
       31505000	      3149	80003a68	b2e92393	slti	x7,x18,-1234	 x18:0xe386c95c  x7=0x00000001
       31515000	      3150	80003a6c	eed3a213	slti	x4,x7,-275	  x7:0x00000001  x4=0x00000000
       31525000	      3151	80003a70	01499c93	slli	x25,x19,0x14	 x19:0x6a3d77ef x25=0x7ef00000
       31535000	      3152	80003a74	01355813	srli	x16,x10,0x13	 x10:0x56d00000 x16=0x00000ada
       31545000	      3153	80003a78	015d6833	or	x16,x26,x21	 x26:0x6a3d77e8 x21:0x00003fff x16=0x6a3d7fff
       31555000	      3154	80003a7c	05706863	bltu	x0,x23,80003acc	  x0:0x00000000 x23:0x00000000
       31565000	      3155	80003a80	0172e663	bltu	x5,x23,80003a8c	  x5:0xffffff80 x23:0x00000000
       31575000	      3156	80003a84	01f1aa33	slt	x20,x3,x31	  x3:0x0e334000 x31:0x80009fc4 x20=0x00000000
       31585000	      3157	80003a88	05294863	blt	x18,x18,80003ad8	 x18:0xe386c95c x18:0xe386c95c
       31595000	      3158	80003a8c	03484a63	blt	x16,x20,80003ac0	 x16:0x6a3d7fff x20:0x00000000
       31605000	      3159	80003a90	bfa7a513	slti	x10,x15,-1030	 x15:0xfffcf1a0 x10=0x00000001
       31615000	      3160	80003a94	01971193	slli	x3,x14,0x19	 x14:0x00000000  x3=0x00000000
       31625000	      3161	80003a98	01862333	slt	x6,x12,x24	 x12:0x3c3bd000 x24:0x00000000  x6=0x00000000
       31635000	      3162	80003a9c	52f90213	addi	x4,x18,1327	 x18:0xe386c95c  x4=0xe386ce8b
       31645000	      3163	80003aa0	d7c80d93	addi	x27,x16,-644	 x16:0x6a3d7fff x27=0x6a3d7d7b
       31655000	      3164	80003aa4	04b1f863	bgeu	x3,x11,80003af4	  x3:0x00000000 x11:0x00000001
       31665000	      3165	80003aa8	009125b3	slt	x11,x2,x9	  x2:0x00000000  x9:0xa946acc1 x11=0x00000000
       31675000	      3166	80003aac	011ac1b3	xor	x3,x21,x17	 x21:0x00003fff x17:0x80009ef0  x3=0x8000a10f
       31685000	      3167	80003ab0	01114d33	xor	x26,x2,x17	  x2:0x00000000 x17:0x80009ef0 x26=0x80009ef0
       31695000	      3168	80003ab4	0057e863	bltu	x15,x5,80003ac4	 x15:0xfffcf1a0  x5:0xffffff80
       31705000	      3169	00000000	00000013	addi	x0,x0,0	  x0:0x00000000
       31715000	      3170	80003ac0	00000013	addi	x0,x0,0	  x0:0x00000000
       31725000	      3171	80003ac4	014b5663	bge	x22,x20,80003ad0	 x22:0x00000001 x20:0x00000000
       31735000	      3172	00000000	00000013	addi	x0,x0,0	  x0:0x00000000
       31745000	      3173	80003acc	00000013	addi	x0,x0,0	  x0:0x00000000
       31755000	      3174	80003ad0	e428e9b7	lui	x19,0xe428e	 x19=0xe428e000
       31765000	      3175	80003ad4	01bdb533	sltu	x10,x27,x27	 x27:0x6a3d7d7b x27:0x6a3d7d7b x10=0x00000000
       31775000	      3176	80003ad8	5c91b213	sltiu	x4,x3,1481	  x3:0x8000a10f  x4=0x00000000
       31785000	      3177	80003adc	0376dc63	bge	x13,x23,80003b14	 x13:0xfffffa06 x23:0x00000000
       31795000	      3178	80003ae0	01e691b3	sll	x3,x13,x30	 x13:0xfffffa06 x30:0x00000000  x3=0xfffffa06
       31805000	      3179	80003ae4	25f2db97	auipc	x23,0x25f2d	 x23=0xa5f30ae0
       31815000	      3180	80003ae8	013fd113	srli	x2,x31,0x13	 x31:0x80009fc4  x2=0x00001000
       31825000	      3181	80003aec	01ea4c33	xor	x24,x20,x30	 x20:0x00000000 x30:0x00000000 x24=0x00000000
       31835000	      3182	80003af0	655fcd37	lui	x26,0x655fc	 x26=0x655fc000
       31845000	      3183	80003af4	00661193	slli	x3,x12,0x6	 x12:0x3c3bd000  x3=0x0ef40000
       31855000	      3184	80003af8	01ed66b3	or	x13,x26,x30	 x26:0x655fc000 x30:0x00000000 x13=0x655fc000
       31865000	      3185	80003afc	00bf8663	beq	x31,x11,80003b08	 x31:0x80009fc4 x11:0x00000000
       31875000	      3186	80003b00	01a2b5b3	sltu	x11,x5,x26	  x5:0xffffff80 x26:0x655fc000 x11=0x00000000
       31885000	      3187	80003b04	0061ff33	and	x30,x3,x6	  x3:0x0ef40000  x6:0x00000000 x30=0x00000000
       31895000	      3188	80003b08	00000013	addi	x0,x0,0	  x0:0x00000000
       31905000	      3189	80003b0c	ebd17793	andi	x15,x2,-323	  x2:0x00001000 x15=0x00001000
       31915000	      3190	80003b10	3e855b37	lui	x22,0x3e855	 x22=0x3e855000
       31925000	      3191	80003b14	01179c13	slli	x24,x15,0x11	 x15:0x00001000 x24=0x20000000
       31935000	      3192	80003b18	0112e133	or	x2,x5,x17	  x5:0xffffff80 x17:0x80009ef0  x2=0xfffffff0
       31945000	      3193	80003b1c	41b859b3	sra	x19,x16,x27	 x16:0x6a3d7fff x27:0x6a3d7d7b x19=0x0000000d
       31955000	      3194	80003b20	1131f913	andi	x18,x3,275	  x3:0x0ef40000 x18=0x00000000
       31965000	      3195	80003b24	dcbe6513	ori	x10,x28,-565	 x28:0xfffc70d9 x10=0xfffffddb
       31975000	      3196	80003b28	002471b3	and	x3,x8,x2	  x8:0x00000000  x2:0xfffffff0  x3=0x00000000
       31985000	      3197	80003b2c	012529b3	slt	x19,x10,x18	 x10:0xfffffddb x18:0x00000000 x19=0x00000001
       31995000	      3198	80003b30	55028693	addi	x13,x5,1360	  x5:0xffffff80 x13=0x000004d0
       32005000	      3199	80003b34	f7cffbef	jal	x23,80003b34	 x23=0x80003b34
       32015000	      3200	00000000	00000013	addi	x0,x0,0	  x0:0x00000000
       32025000	      3201	800032ac	00000013	addi	x0,x0,0	  x0:0x00000000
       32035000	      3202	800032b0	00000013	addi	x0,x0,0	  x0:0x00000000
       32045000	      3203	800032b4	000a4533	xor	x10,x20,x0	 x20:0x00000000  x0:0x00000000 x10=0x00000000
       32055000	      3204	800032b8	1f13ef13	ori	x30,x7,497	  x7:0x00000001 x30=0x000001f1
       32065000	      3205	800032bc	57507e17	auipc	x28,0x57507	 x28=0xd750a2b8
       32075000	      3206	800032c0	48cc7d37	lui	x26,0x48cc7	 x26=0x48cc7000
       32085000	      3207	800032c4	fe088893	addi	x17,x17,-32	 x17:0x80009ef0 x17=0x80009ed0
       32095000	      3208	800032c8	1a92a793	slti	x15,x5,425	  x5:0xffffff80 x15=0x00000001
       32105000	      3209	800032cc	000f3333	sltu	x6,x30,x0	 x30:0x000001f1  x0:0x00000000  x6=0x00000000
       32115000	      3210	800032d0	002ad493	srli	x9,x21,0x2	 x21:0x00003fff  x9=0x00000fff
       32125000	      3211	800032d4	0178a223	sw	x23,4(x17)	 x17:0x80009ed0 x23:0x80003b34 PA:0x80009ed4
       32135000	      3212	800032d8	011c2f33	slt	x30,x24,x17	 x24:0x20000000 x17:0x80009ed0 x30=0x00000000
       32145000	      3213	800032dc	41c5d213	srai	x4,x11,0x1c	 x11:0x00000000  x4=0x00000000
       32155000	      3214	800032e0	0107d013	srli	x0,x15,0x10	 x15:0x00000001
       32165000	      3215	800032e4	01e983b3	add	x7,x19,x30	 x19:0x00000001 x30:0x00000000  x7=0x00000001
       32175000	      3216	800032e8	3e0b6c13	ori	x24,x22,992	 x22:0x3e855000 x24=0x3e8553e0
       32185000	      3217	800032ec	0120ec63	bltu	x1,x18,80003304	  x1:0x07ffee9d x18:0x00000000
       32195000	      3218	800032f0	4090dd13	srai	x26,x1,0x9	  x1:0x07ffee9d x26=0x0003fff7
       32205000	      3219	800032f4	0150e263	bltu	x1,x21,800032f8	  x1:0x07ffee9d x21:0x00003fff
       32215000	      3220	800032f8	0d126a93	ori	x21,x4,209	  x4:0x00000000 x21=0x000000d1
       32225000	      3221	800032fc	03818a63	beq	x3,x24,80003330	  x3:0x00000000 x24:0x3e8553e0
       32235000	      3222	80003300	0468f663	bgeu	x17,x6,8000334c	 x17:0x80009ed0  x6:0x00000000
       32245000	      3223	00000000	00000013	addi	x0,x0,0	  x0:0x00000000
       32255000	      3224	80003348	00000013	addi	x0,x0,0	  x0:0x00000000
       32265000	      3225	8000334c	01bd34b3	sltu	x9,x26,x27	 x26:0x0003fff7 x27:0x6a3d7d7b  x9=0x00000001
       32275000	      3226	80003350	008f5313	srli	x6,x30,0x8	 x30:0x00000000  x6=0x00000000
       32285000	      3227	80003354	a6cb1e17	auipc	x28,0xa6cb1	 x28=0x26cb4350
       32295000	      3228	80003358	004f5093	srli	x1,x30,0x4	 x30:0x00000000  x1=0x00000000
       32305000	      3229	8000335c	01921513	slli	x10,x4,0x19	  x4:0x00000000 x10=0x00000000
       32315000	      3230	80003360	01dad463	bge	x21,x29,80003368	 x21:0x000000d1 x29:0x94a14800
       32325000	      3231	00000000	00000013	addi	x0,x0,0	  x0:0x00000000
       32335000	      3232	80003364	00000013	addi	x0,x0,0	  x0:0x00000000
       32345000	      3233	80003368	007a50b3	srl	x1,x20,x7	 x20:0x00000000  x7:0x00000001  x1=0x00000000
       32355000	      3234	8000336c	294d0013	addi	x0,x26,660	 x26:0x0003fff7
       32365000	      3235	80003370	00f71c63	bne	x14,x15,80003388	 x14:0x00000000 x15:0x00000001
       32375000	      3236	00000000	00000013	addi	x0,x0,0	  x0:0x00000000
       32385000	      3237	80003384	00000013	addi	x0,x0,0	  x0:0x00000000
       32395000	      3238	80003388	0181aeb3	slt	x29,x3,x24	  x3:0x00000000 x24:0x3e8553e0 x29=0x00000001
       32405000	      3239	8000338c	018e7e63	bgeu	x28,x24,800033a8	 x28:0x26cb4350 x24:0x3e8553e0
       32415000	      3240	80003390	029cc463	blt	x25,x9,800033b8	 x25:0x7ef00000  x9:0x00000001
       32425000	      3241	80003394	00000013	addi	x0,x0,0	  x0:0x00000000
       32435000	      3242	80003398	3bd74493	xori	x9,x14,957	 x14:0x00000000  x9=0x000003bd
       32445000	      3243	8000339c	01499093	slli	x1,x19,0x14	 x19:0x00000001  x1=0x00100000
       32455000	      3244	800033a0	00cd04b3	add	x9,x26,x12	 x26:0x0003fff7 x12:0x3c3bd000  x9=0x3c3fcff7
       32465000	      3245	800033a4	0188d633	srl	x12,x17,x24	 x17:0x80009ed0 x24:0x3e8553e0 x12=0x80009ed0
       32475000	      3246	800033a8	01fe6b33	or	x22,x28,x31	 x28:0x26cb4350 x31:0x80009fc4 x22=0xa6cbdfd4
       32485000	      3247	800033ac	00000013	addi	x0,x0,0	  x0:0x00000000
       32495000	      3248	800033b0	01b58463	beq	x11,x27,800033b8	 x11:0x00000000 x27:0x6a3d7d7b
       32505000	      3249	800033b4	01a472b3	and	x5,x8,x26	  x8:0x00000000 x26:0x0003fff7  x5=0x00000000
       32515000	      3250	800033b8	a4016813	ori	x16,x2,-1472	  x2:0xfffffff0 x16=0xfffffff0
       32525000	      3251	800033bc	aacb6697	auipc	x13,0xaacb6	 x13=0x2acb93b8
       32535000	      3252	800033c0	0048ab83	lw	x23,4(x17)	 x17:0x80009ed0 x23=0x80003b34 PA:0x80009ed4
       32545000	      3253	00000000	00000013	addi	x0,x0,0	  x0:0x00000000
       32555000	      3254	800033c4	00eb9593	slli	x11,x23,0xe	 x23:0x80003b34 x11=0x0ecd0000
       32565000	      3255	800033c8	1cf5c597	auipc	x11,0x1cf5c	 x11=0x9cf5f3c4
       32575000	      3256	800033cc	00793433	sltu	x8,x18,x7	 x18:0x00000000  x7:0x00000001  x8=0x00000001
       32585000	      3257	800033d0	011b1cb3	sll	x25,x22,x17	 x22:0xa6cbdfd4 x17:0x80009ed0 x25=0xdfd40000
       32595000	      3258	800033d4	02088893	addi	x17,x17,32	 x17:0x80009ed0 x17=0x80009ef0
       32605000	      3259	800033d8	00000013	addi	x0,x0,0	  x0:0x00000000
       32615000	      3260	800033dc	0145ce33	xor	x28,x11,x20	 x11:0x9cf5f3c4 x20:0x00000000 x28=0x9cf5f3c4
       32625000	      3261	800033e0	ccb87417	auipc	x8,0xccb87	  x8=0x4cb8a3dc
       32635000	      3262	800033e4	40918033	sub	x0,x3,x9	  x3:0x00000000  x9:0x3c3fcff7
       32645000	      3263	800033e8	014ed913	srli	x18,x29,0x14	 x29:0x00000001 x18=0x00000000
       32655000	      3264	800033ec	001b8a13	addi	x20,x23,1	 x23:0x80003b34 x20=0x80003b35
       32665000	      3265	800033f0	000a0a67	jalr	x20,x20,0	 x20:0x80003b35 x20=0x800033f0
       32675000	      3266	00000000	00000013	addi	x0,x0,0	  x0:0x00000000
       32685000	      3267	80003b34	00000013	addi	x0,x0,0	  x0:0x00000000
       32695000	      3268	80003b38	39142913	slti	x18,x8,913	  x8:0x4cb8a3dc x18=0x00000000
       32705000	      3269	80003b3c	02121863	bne	x4,x1,80003b6c	  x4:0x00000000  x1:0x00100000
       32715000	      3270	00000000	00000013	addi	x0,x0,0	  x0:0x00000000
       32725000	      3271	80003b68	00000013	addi	x0,x0,0	  x0:0x00000000
       32735000	      3272	80003b6c	03ef5663	bge	x30,x30,80003b98	 x30:0x00000000 x30:0x00000000
       32745000	      3273	00000000	00000013	addi	x0,x0,0	  x0:0x00000000
       32755000	      3274	80003b94	00000013	addi	x0,x0,0	  x0:0x00000000
       32765000	      3275	80003b98	012b5b33	srl	x22,x22,x18	 x22:0xa6cbdfd4 x18:0x00000000 x22=0xa6cbdfd4
       32775000	      3276	80003b9c	05db7863	bgeu	x22,x29,80003bec	 x22:0xa6cbdfd4 x29:0x00000001
       32785000	      3277	00000000	00000013	addi	x0,x0,0	  x0:0x00000000
       32795000	      3278	80003be8	00000013	addi	x0,x0,0	  x0:0x00000000
       32805000	      3279	80003bec	41efd9b3	sra	x19,x31,x30	 x31:0x80009fc4 x30:0x00000000 x19=0x80009fc4
       32815000	      3280	80003bf0	00dc9e63	bne	x25,x13,80003c0c	 x25:0xdfd40000 x13:0x2acb93b8
       32825000	      3281	00000000	00000013	addi	x0,x0,0	  x0:0x00000000
       32835000	      3282	80003c08	00000013	addi	x0,x0,0	  x0:0x00000000
       32845000	      3283	80003c0c	01949cb3	sll	x25,x9,x25	  x9:0x3c3fcff7 x25:0xdfd40000 x25=0x3c3fcff7
       32855000	      3284	80003c10	cf105b37	lui	x22,0xcf105	 x22=0xcf105000
       32865000	      3285	80003c14	52188013	addi	x0,x17,1313	 x17:0x80009ef0
       32875000	      3286	80003c18	414cd193	srai	x3,x25,0x14	 x25:0x3c3fcff7  x3=0x000003c3
       32885000	      3287	80003c1c	d65df513	andi	x10,x27,-667	 x27:0x6a3d7d7b x10=0x6a3d7d61
       32895000	      3288	80003c20	046c4463	blt	x24,x6,80003c68	 x24:0x3e8553e0  x6:0x00000000
       32905000	      3289	80003c24	2fb8bd17	auipc	x26,0x2fb8b	 x26=0xafb8ec20
       32915000	      3290	80003c28	8ea5a813	slti	x16,x11,-1814	 x11:0x9cf5f3c4 x16=0x00000001
       32925000	      3291	80003c2c	409c50b3	sra	x1,x24,x9	 x24:0x3e8553e0  x9:0x3c3fcff7  x1=0x0000007d
       32935000	      3292	80003c30	c9956593	ori	x11,x10,-871	 x10:0x6a3d7d61 x11=0xfffffdf9
       32945000	      3293	80003c34	54ade793	ori	x15,x27,1354	 x27:0x6a3d7d7b x15=0x6a3d7d7b
       32955000	      3294	80003c38	009a4263	blt	x20,x9,80003c3c	 x20:0x800033f0  x9:0x3c3fcff7
       32965000	      3295	00000000	00000013	addi	x0,x0,0	  x0:0x00000000
       32975000	      3296	80003c38	00000013	addi	x0,x0,0	  x0:0x00000000
       32985000	      3297	80003c3c	b39d0213	addi	x4,x26,-1223	 x26:0xafb8ec20  x4=0xafb8e759
       32995000	      3298	80003c40	01671e93	slli	x29,x14,0x16	 x14:0x00000000 x29=0x00000000
       33005000	      3299	80003c44	03e85a63	bge	x16,x30,80003c78	 x16:0x00000001 x30:0x00000000
       33015000	      3300	00000000	00000013	addi	x0,x0,0	  x0:0x00000000
       33025000	      3301	80003c74	00000013	addi	x0,x0,0	  x0:0x00000000
       33035000	      3302	80003c78	693b7097	auipc	x1,0x693b7	  x1=0xe93bac74
       33045000	      3303	80003c7c	010e1d93	slli	x27,x28,0x10	 x28:0x9cf5f3c4 x27=0xf3c40000
       33055000	      3304	80003c80	d07ab213	sltiu	x4,x21,-761	 x21:0x000000d1  x4=0x00000001
       33065000	      3305	80003c84	001a99b3	sll	x19,x21,x1	 x21:0x000000d1  x1:0xe93bac74 x19=0x0d100000
       33075000	      3306	80003c88	00000013	addi	x0,x0,0	  x0:0x00000000
       33085000	      3307	80003c8c	01ea6d33	or	x26,x20,x30	 x20:0x800033f0 x30:0x00000000 x26=0x800033f0
       33095000	      3308	80003c90	00821c63	bne	x4,x8,80003ca8	  x4:0x00000001  x8:0x4cb8a3dc
       33105000	      3309	00000000	00000013	addi	x0,x0,0	  x0:0x00000000
       33115000	      3310	80003ca4	00000013	addi	x0,x0,0	  x0:0x00000000
       33125000	      3311	80003ca8	0fec3493	sltiu	x9,x24,254	 x24:0x3e8553e0  x9=0x00000000
       33135000	      3312	80003cac	3df86a13	ori	x20,x16,991	 x16:0x00000001 x20=0x000003df
       33145000	      3313	80003cb0	040d0863	beq	x26,x0,80003d00	 x26:0x800033f0  x0:0x00000000
       33155000	      3314	80003cb4	403ad013	srai	x0,x21,0x3	 x21:0x000000d1
       33165000	      3315	80003cb8	06fd4e63	blt	x26,x15,80003d34	 x26:0x800033f0 x15:0x6a3d7d7b
       33175000	      3316	00000000	00000013	addi	x0,x0,0	  x0:0x00000000
       33185000	      3317	80003d30	00000013	addi	x0,x0,0	  x0:0x00000000
       33195000	      3318	80003d34	41d2d933	sra	x18,x5,x29	  x5:0x00000000 x29:0x00000000 x18=0x00000000
       33205000	      3319	80003d38	3d2e8213	addi	x4,x29,978	 x29:0x00000000  x4=0x000003d2
       33215000	      3320	80003d3c	00e07f33	and	x30,x0,x14	  x0:0x00000000 x14:0x00000000 x30=0x00000000
       33225000	      3321	80003d40	0381d463	bge	x3,x24,80003d68	  x3:0x000003c3 x24:0x3e8553e0
       33235000	      3322	80003d44	01f19233	sll	x4,x3,x31	  x3:0x000003c3 x31:0x80009fc4  x4=0x00003c30
       33245000	      3323	80003d48	40415db3	sra	x27,x2,x4	  x2:0xfffffff0  x4:0x00003c30 x27=0xffffffff
       33255000	      3324	80003d4c	03c7f263	bgeu	x15,x28,80003d70	 x15:0x6a3d7d7b x28:0x9cf5f3c4
       33265000	      3325	80003d50	00d4dc13	srli	x24,x9,0xd	  x9:0x00000000 x24=0x00000000
       33275000	      3326	80003d54	009634b3	sltu	x9,x12,x9	 x12:0x80009ed0  x9:0x00000000  x9=0x00000000
       33285000	      3327	80003d58	016c7bb3	and	x23,x24,x22	 x24:0x00000000 x22:0xcf105000 x23=0x00000000
       33295000	      3328	80003d5c	000743b3	xor	x7,x14,x0	 x14:0x00000000  x0:0x00000000  x7=0x00000000
       33305000	      3329	80003d60	4075d193	srai	x3,x11,0x7	 x11:0xfffffdf9  x3=0xfffffffb
       33315000	      3330	80003d64	001a5663	bge	x20,x1,80003d70	 x20:0x000003df  x1:0xe93bac74
       33325000	      3331	00000000	00000013	addi	x0,x0,0	  x0:0x00000000
       33335000	      3332	80003d6c	00000013	addi	x0,x0,0	  x0:0x00000000
       33345000	      3333	80003d70	0268fe63	bgeu	x17,x6,80003dac	 x17:0x80009ef0  x6:0x00000000
       33355000	      3334	00000000	00000013	addi	x0,x0,0	  x0:0x00000000
       33365000	      3335	80003da8	00000013	addi	x0,x0,0	  x0:0x00000000
       33375000	      3336	80003dac	00a31f33	sll	x30,x6,x10	  x6:0x00000000 x10:0x6a3d7d61 x30=0x00000000
       33385000	      3337	80003db0	011785b3	add	x11,x15,x17	 x15:0x6a3d7d7b x17:0x80009ef0 x11=0xea3e1c6b
       33395000	      3338	80003db4	00d98a33	add	x20,x19,x13	 x19:0x0d100000 x13:0x2acb93b8 x20=0x37db93b8
       33405000	      3339	80003db8	0048ab83	lw	x23,4(x17)	 x17:0x80009ef0 x23=0x800040b8 PA:0x80009ef4
       33415000	      3340	80003dbc	01488893	addi	x17,x17,20	 x17:0x80009ef0 x17=0x80009f04
       33425000	      3341	80003dc0	00000013	addi	x0,x0,0	  x0:0x00000000
       33435000	      3342	80003dc4	fed4ec13	ori	x24,x9,-19	  x9:0x00000000 x24=0xffffffed
       33445000	      3343	80003dc8	0102f433	and	x8,x5,x16	  x5:0x00000000 x16:0x00000001  x8=0x00000000
       33455000	      3344	80003dcc	404dd1b3	sra	x3,x27,x4	 x27:0xffffffff  x4:0x00003c30  x3=0xffffffff
       33465000	      3345	80003dd0	1f4a9097	auipc	x1,0x1f4a9	  x1=0x9f4acdcc
       33475000	      3346	80003dd4	dc685137	lui	x2,0xdc685	  x2=0xdc685000
       33485000	      3347	80003dd8	001b8293	addi	x5,x23,1	 x23:0x800040b8  x5=0x800040b9
       33495000	      3348	80003ddc	000282e7	jalr	x5,x5,0	  x5:0x800040b9  x5=0x80003ddc
       33505000	      3349	00000000	00000013	addi	x0,x0,0	  x0:0x00000000
       33515000	      3350	800040b8	00000013	addi	x0,x0,0	  x0:0x00000000
       33525000	      3351	800040bc	c8342c13	slti	x24,x8,-893	  x8:0x00000000 x24=0x00000000
       33535000	      3352	800040c0	012577b3	and	x15,x10,x18	 x10:0x6a3d7d61 x18:0x00000000 x15=0x00000000
       33545000	      3353	800040c4	00ce9c93	slli	x25,x29,0xc	 x29:0x00000000 x25=0x00000000
       33555000	      3354	800040c8	04fe7263	bgeu	x28,x15,8000410c	 x28:0x9cf5f3c4 x15:0x00000000
       33565000	      3355	00000000	00000013	addi	x0,x0,0	  x0:0x00000000
       33575000	      3356	80004108	00000013	addi	x0,x0,0	  x0:0x00000000
       33585000	      3357	8000410c	97fdba93	sltiu	x21,x27,-1665	 x27:0xffffffff x21=0x00000000
       33595000	      3358	80004110	40c70433	sub	x8,x14,x12	 x14:0x00000000 x12:0x80009ed0  x8=0x7fff6130
       33605000	      3359	80004114	44c6e793	ori	x15,x13,1100	 x13:0x2acb93b8 x15=0x2acb97fc
       33615000	      3360	80004118	05005663	bge	x0,x16,80004164	  x0:0x00000000 x16:0x00000001
       33625000	      3361	8000411c	40695613	srai	x12,x18,0x6	 x18:0x00000000 x12=0x00000000
       33635000	      3362	80004120	415c0db3	sub	x27,x24,x21	 x24:0x00000000 x21:0x00000000 x27=0x00000000
       33645000	      3363	80004124	57d6e613	ori	x12,x13,1405	 x13:0x2acb93b8 x12=0x2acb97fd
       33655000	      3364	80004128	018b9a63	bne	x23,x24,8000413c	 x23:0x800040b8 x24:0x00000000
       33665000	      3365	00000000	00000013	addi	x0,x0,0	  x0:0x00000000
       33675000	      3366	80004138	00000013	addi	x0,x0,0	  x0:0x00000000
       33685000	      3367	8000413c	00245b13	srli	x22,x8,0x2	  x8:0x7fff6130 x22=0x1fffd84c
       33695000	      3368	80004140	00741e33	sll	x28,x8,x7	  x8:0x7fff6130  x7:0x00000000 x28=0x7fff6130
       33705000	      3369	80004144	050f7863	bgeu	x30,x16,80004194	 x30:0x00000000 x16:0x00000001
       33715000	      3370	80004148	1c294297	auipc	x5,0x1c294	  x5=0x9c298144
       33725000	      3371	8000414c	0190c1b3	xor	x3,x1,x25	  x1:0x9f4acdcc x25:0x00000000  x3=0x9f4acdcc
       33735000	      3372	80004150	00f2d293	srli	x5,x5,0xf	  x5:0x9c298144  x5=0x00013853
       33745000	      3373	80004154	01583e33	sltu	x28,x16,x21	 x16:0x00000001 x21:0x00000000 x28=0x00000000
       33755000	      3374	80004158	71424b37	lui	x22,0x71424	 x22=0x71424000
       33765000	      3375	8000415c	740fb913	sltiu	x18,x31,1856	 x31:0x80009fc4 x18=0x00000000
       33775000	      3376	80004160	30f43c37	lui	x24,0x30f43	 x24=0x30f43000
       33785000	      3377	80004164	6d32c113	xori	x2,x5,1747	  x5:0x00013853  x2=0x00013e80
       33795000	      3378	80004168	016a5c93	srli	x25,x20,0x16	 x20:0x37db93b8 x25=0x000000df
       33805000	      3379	8000416c	0192aeb3	slt	x29,x5,x25	  x5:0x00013853 x25:0x000000df x29=0x00000000
       33815000	      3380	80004170	006cd013	srli	x0,x25,0x6	 x25:0x000000df
       33825000	      3381	80004174	038c0913	addi	x18,x24,56	 x24:0x30f43000 x18=0x30f43038
       33835000	      3382	80004178	402a87b3	sub	x15,x21,x2	 x21:0x00000000  x2:0x00013e80 x15=0xfffec180
       33845000	      3383	8000417c	40d90e33	sub	x28,x18,x13	 x18:0x30f43038 x13:0x2acb93b8 x28=0x06289c80
       33855000	      3384	80004180	44413013	sltiu	x0,x2,1092	  x2:0x00013e80
       33865000	      3385	80004184	016cc9b3	xor	x19,x25,x22	 x25:0x000000df x22:0x71424000 x19=0x714240df
       33875000	      3386	80004188	09c8cc13	xori	x24,x17,156	 x17:0x80009f04 x24=0x80009f98
       33885000	      3387	8000418c	0042d693	srli	x13,x5,0x4	  x5:0x00013853 x13=0x00001385
       33895000	      3388	80004190	0205ca63	blt	x11,x0,800041c4	 x11:0xea3e1c6b  x0:0x00000000
       33905000	      3389	00000000	00000013	addi	x0,x0,0	  x0:0x00000000
       33915000	      3390	800041c0	00000013	addi	x0,x0,0	  x0:0x00000000
       33925000	      3391	800041c4	9fe46013	ori	x0,x8,-1538	  x8:0x7fff6130
       33935000	      3392	800041c8	00000013	addi	x0,x0,0	  x0:0x00000000
       33945000	      3393	800041cc	0048ab83	lw	x23,4(x17)	 x17:0x80009f04 x23=0x80002c2c PA:0x80009f08
       33955000	      3394	800041d0	82979837	lui	x16,0x82979	 x16=0x82979000
       33965000	      3395	800041d4	41425393	srai	x7,x4,0x14	  x4:0x00003c30  x7=0x00000000
       33975000	      3396	800041d8	02088893	addi	x17,x17,32	 x17:0x80009f04 x17=0x80009f24
       33985000	      3397	800041dc	14ff3c13	sltiu	x24,x30,335	 x30:0x00000000 x24=0x00000001
       33995000	      3398	800041e0	001b8293	addi	x5,x23,1	 x23:0x80002c2c  x5=0x80002c2d
       34005000	      3399	800041e4	000282e7	jalr	x5,x5,0	  x5:0x80002c2d  x5=0x800041e4
       34015000	      3400	00000000	00000013	addi	x0,x0,0	  x0:0x00000000
       34025000	      3401	80002c2c	00000013	addi	x0,x0,0	  x0:0x00000000
       34035000	      3402	80002c30	01cdb1b3	sltu	x3,x27,x28	 x27:0x00000000 x28:0x06289c80  x3=0x00000001
       34045000	      3403	80002c34	40e55d33	sra	x26,x10,x14	 x10:0x6a3d7d61 x14:0x00000000 x26=0x6a3d7d61
       34055000	      3404	80002c38	00000013	addi	x0,x0,0	  x0:0x00000000
       34065000	      3405	80002c3c	01b1f463	bgeu	x3,x27,80002c44	  x3:0x00000001 x27:0x00000000
       34075000	      3406	00000000	00000013	addi	x0,x0,0	  x0:0x00000000
       34085000	      3407	80002c40	00000013	addi	x0,x0,0	  x0:0x00000000
       34095000	      3408	80002c44	01991663	bne	x18,x25,80002c50	 x18:0x30f43038 x25:0x000000df
       34105000	      3409	00000000	00000013	addi	x0,x0,0	  x0:0x00000000
       34115000	      3410	80002c4c	00000013	addi	x0,x0,0	  x0:0x00000000
       34125000	      3411	80002c50	011e55b3	srl	x11,x28,x17	 x28:0x06289c80 x17:0x80009f24 x11=0x006289c8
       34135000	      3412	80002c54	00bcdd93	srli	x27,x25,0xb	 x25:0x000000df x27=0x00000000
       34145000	      3413	80002c58	01609463	bne	x1,x22,80002c60	  x1:0x9f4acdcc x22:0x71424000
       34155000	      3414	00000000	00000013	addi	x0,x0,0	  x0:0x00000000
       34165000	      3415	80002c5c	00000013	addi	x0,x0,0	  x0:0x00000000
       34175000	      3416	80002c60	0063f033	and	x0,x7,x6	  x7:0x00000000  x6:0x00000000
       34185000	      3417	80002c64	0172bdb3	sltu	x27,x5,x23	  x5:0x800041e4 x23:0x80002c2c x27=0x00000000
       34195000	      3418	80002c68	40cedb33	sra	x22,x29,x12	 x29:0x00000000 x12:0x2acb97fd x22=0x00000000
       34205000	      3419	80002c6c	01844033	xor	x0,x8,x24	  x8:0x7fff6130 x24:0x00000001
       34215000	      3420	80002c70	80c24b17	auipc	x22,0x80c24	 x22=0x00c26c6c
       34225000	      3421	80002c74	056e0863	beq	x28,x22,80002cc4	 x28:0x06289c80 x22:0x00c26c6c
       34235000	      3422	80002c78	8aeda493	slti	x9,x27,-1874	 x27:0x00000000  x9=0x00000000
       34245000	      3423	80002c7c	059d8863	beq	x27,x25,80002ccc	 x27:0x00000000 x25:0x000000df
       34255000	      3424	80002c80	02bf4863	blt	x30,x11,80002cb0	 x30:0x00000000 x11:0x006289c8
       34265000	      3425	00000000	00000013	addi	x0,x0,0	  x0:0x00000000
       34275000	      3426	80002cac	00000013	addi	x0,x0,0	  x0:0x00000000
       34285000	      3427	80002cb0	007b0e63	beq	x22,x7,80002ccc	 x22:0x00c26c6c  x7:0x00000000
       34295000	      3428	80002cb4	40b30433	sub	x8,x6,x11	  x6:0x00000000 x11:0x006289c8  x8=0xff9d7638
       34305000	      3429	80002cb8	018f4333	xor	x6,x30,x24	 x30:0x00000000 x24:0x00000001  x6=0x00000001
       34315000	      3430	80002cbc	408a5093	srai	x1,x20,0x8	 x20:0x37db93b8  x1=0x0037db93
       34325000	      3431	80002cc0	7539ca97	auipc	x21,0x7539c	 x21=0xf539ecbc
       34335000	      3432	80002cc4	018a55b3	srl	x11,x20,x24	 x20:0x37db93b8 x24:0x00000001 x11=0x1bedc9dc
       34345000	      3433	80002cc8	2c39e013	ori	x0,x19,707	 x19:0x714240df
       34355000	      3434	80002ccc	011bf0b3	and	x1,x23,x17	 x23:0x80002c2c x17:0x80009f24  x1=0x80000c24
       34365000	      3435	80002cd0	412d5f13	srai	x30,x26,0x12	 x26:0x6a3d7d61 x30=0x00001a8f
       34375000	      3436	80002cd4	004fc663	blt	x31,x4,80002ce0	 x31:0x80009fc4  x4:0x00003c30
       34385000	      3437	00000000	00000013	addi	x0,x0,0	  x0:0x00000000
       34395000	      3438	80002cdc	00000013	addi	x0,x0,0	  x0:0x00000000
       34405000	      3439	80002ce0	9561fa93	andi	x21,x3,-1706	  x3:0x00000001 x21=0x00000000
       34415000	      3440	80002ce4	7059f393	andi	x7,x19,1797	 x19:0x714240df  x7=0x00000005
       34425000	      3441	80002ce8	b28e0213	addi	x4,x28,-1240	 x28:0x06289c80  x4=0x062897a8
       34435000	      3442	80002cec	82687e37	lui	x28,0x82687	 x28=0x82687000
       34445000	      3443	80002cf0	0183a2b3	slt	x5,x7,x24	  x7:0x00000005 x24:0x00000001  x5=0x00000000
       34455000	      3444	80002cf4	01e63633	sltu	x12,x12,x30	 x12:0x2acb97fd x30:0x00001a8f x12=0x00000000
       34465000	      3445	80002cf8	4b39c497	auipc	x9,0x4b39c	  x9=0xcb39ecf4
       34475000	      3446	80002cfc	356bed93	ori	x27,x23,854	 x23:0x80002c2c x27=0x80002f7e
       34485000	      3447	80002d00	05028463	beq	x5,x16,80002d48	  x5:0x00000000 x16:0x82979000
       34495000	      3448	80002d04	00000013	addi	x0,x0,0	  x0:0x00000000
       34505000	      3449	80002d08	02f88663	beq	x17,x15,80002d34	 x17:0x80009f24 x15:0xfffec180
       34515000	      3450	80002d0c	017d1db3	sll	x27,x26,x23	 x26:0x6a3d7d61 x23:0x80002c2c x27=0xd7d61000
       34525000	      3451	80002d10	7bd5ad37	lui	x26,0x7bd5a	 x26=0x7bd5a000
       34535000	      3452	80002d14	414a57b3	sra	x15,x20,x20	 x20:0x37db93b8 x20:0x37db93b8 x15=0x00000037
       34545000	      3453	80002d18	00000013	addi	x0,x0,0	  x0:0x00000000
       34555000	      3454	80002d1c	00574663	blt	x14,x5,80002d28	 x14:0x00000000  x5:0x00000000
       34565000	      3455	80002d20	00c6bf33	sltu	x30,x13,x12	 x13:0x00001385 x12:0x00000000 x30=0x00000000
       34575000	      3456	80002d24	51098393	addi	x7,x19,1296	 x19:0x714240df  x7=0x714245ef
       34585000	      3457	80002d28	403e5193	srai	x3,x28,0x3	 x28:0x82687000  x3=0xf04d0e00
       34595000	      3458	80002d2c	049c5063	bge	x24,x9,80002d6c	 x24:0x00000001  x9:0xcb39ecf4
       34605000	      3459	00000000	00000013	addi	x0,x0,0	  x0:0x00000000
       34615000	      3460	80002d68	00000013	addi	x0,x0,0	  x0:0x00000000
       34625000	      3461	80002d6c	ac36af13	slti	x30,x13,-1341	 x13:0x00001385 x30=0x00000000
       34635000	      3462	80002d70	0353fe63	bgeu	x7,x21,80002dac	  x7:0x714245ef x21:0x00000000
       34645000	      3463	00000000	00000013	addi	x0,x0,0	  x0:0x00000000
       34655000	      3464	80002da8	00000013	addi	x0,x0,0	  x0:0x00000000
       34665000	      3465	80002dac	03cb7063	bgeu	x22,x28,80002dcc	 x22:0x00c26c6c x28:0x82687000
       34675000	      3466	80002db0	00a4bf33	sltu	x30,x9,x10	  x9:0xcb39ecf4 x10:0x6a3d7d61 x30=0x00000000
       34685000	      3467	80002db4	6e67ff37	lui	x30,0x6e67f	 x30=0x6e67f000
       34695000	      3468	80002db8	41a05793	srai	x15,x0,0x1a	  x0:0x00000000 x15=0x00000000
       34705000	      3469	80002dbc	00708d33	add	x26,x1,x7	  x1:0x80000c24  x7:0x714245ef x26=0xf1425213
       34715000	      3470	80002dc0	7ebf4313	xori	x6,x30,2027	 x30:0x6e67f000  x6=0x6e67f7eb
       34725000	      3471	80002dc4	04200863	beq	x0,x2,80002e14	  x0:0x00000000  x2:0x00013e80
       34735000	      3472	80002dc8	027e7463	bgeu	x28,x7,80002df0	 x28:0x82687000  x7:0x714245ef
       34745000	      3473	00000000	00000013	addi	x0,x0,0	  x0:0x00000000
       34755000	      3474	80002dec	00000013	addi	x0,x0,0	  x0:0x00000000
       34765000	      3475	80002df0	01298517	auipc	x10,0x1298	 x10=0x8129adec
       34775000	      3476	80002df4	9c542913	slti	x18,x8,-1595	  x8:0xff9d7638 x18=0x00000001
       34785000	      3477	80002df8	013fa533	slt	x10,x31,x19	 x31:0x80009fc4 x19:0x714240df x10=0x00000001
       34795000	      3478	80002dfc	018b35b3	sltu	x11,x22,x24	 x22:0x00c26c6c x24:0x00000001 x11=0x00000000
       34805000	      3479	80002e00	00bba933	slt	x18,x23,x11	 x23:0x80002c2c x11:0x00000000 x18=0x00000001
       34815000	      3480	80002e04	01a65a63	bge	x12,x26,80002e18	 x12:0x00000000 x26:0xf1425213
       34825000	      3481	00000000	00000013	addi	x0,x0,0	  x0:0x00000000
       34835000	      3482	80002e14	00000013	addi	x0,x0,0	  x0:0x00000000
       34845000	      3483	80002e18	f4486993	ori	x19,x16,-188	 x16:0x82979000 x19=0xffffff44
       34855000	      3484	80002e1c	016e4863	blt	x28,x22,80002e2c	 x28:0x82687000 x22:0x00c26c6c
       34865000	      3485	00000000	00000013	addi	x0,x0,0	  x0:0x00000000
       34875000	      3486	80002e28	00000013	addi	x0,x0,0	  x0:0x00000000
       34885000	      3487	80002e2c	40c859b3	sra	x19,x16,x12	 x16:0x82979000 x12:0x00000000 x19=0x82979000
       34895000	      3488	80002e30	93bcd417	auipc	x8,0x93bcd	  x8=0x13bcfe2c
       34905000	      3489	80002e34	00000013	addi	x0,x0,0	  x0:0x00000000
       34915000	      3490	80002e38	017d91b3	sll	x3,x27,x23	 x27:0xd7d61000 x23:0x80002c2c  x3=0x61000000
       34925000	      3491	80002e3c	0048ab83	lw	x23,4(x17)	 x17:0x80009f24 x23=0x80002fa4 PA:0x80009f28
       34935000	      3492	80002e40	03888893	addi	x17,x17,56	 x17:0x80009f24 x17=0x80009f5c
       34945000	      3493	80002e44	007f79b3	and	x19,x30,x7	 x30:0x6e67f000  x7:0x714245ef x19=0x60424000
       34955000	      3494	80002e48	b5e64697	auipc	x13,0xb5e64	 x13=0x35e66e44
       34965000	      3495	80002e4c	001b8d93	addi	x27,x23,1	 x23:0x80002fa4 x27=0x80002fa5
       34975000	      3496	80002e50	000d8de7	jalr	x27,x27,0	 x27:0x80002fa5 x27=0x80002e50
       34985000	      3497	00000000	00000013	addi	x0,x0,0	  x0:0x00000000
       34995000	      3498	80002fa4	00000013	addi	x0,x0,0	  x0:0x00000000
       35005000	      3499	80002fa8	00006297	auipc	x5,0x6	  x5=0x80008fa4
       35015000	      3500	80002fac	88128293	addi	x5,x5,-1919	  x5:0x80008fa4  x5=0x80008825
       35025000	      3501	80002fb0	00b69993	slli	x19,x13,0xb	 x13:0x35e66e44 x19=0x33722000
       35035000	      3502	80002fb4	ff82c403	lbu	x8,-8(x5)	  x5:0x80008825  x8=0x0000004f PA:0x8000881d
       35045000	      3503	80002fb8	0012d683	lhu	x13,1(x5)	  x5:0x80008825 x13=0x00006799 PA:0x80008826
       35055000	      3504	80002fbc	01028203	lb	x4,16(x5)	  x5:0x80008825  x4=0x0000003c PA:0x80008835
       35065000	      3505	80002fc0	00a2ce83	lbu	x29,10(x5)	  x5:0x80008825 x29=0x00000084 PA:0x8000882f
       35075000	      3506	80002fc4	00e28823	sb	x14,16(x5)	  x5:0x80008825 x14:0x00000000 PA:0x80008835
       35085000	      3507	80002fc8	01226333	or	x6,x4,x18	  x4:0x0000003c x18:0x00000001  x6=0x0000003d
       35095000	      3508	80002fcc	01b309b3	add	x19,x6,x27	  x6:0x0000003d x27:0x80002e50 x19=0x80002e8d
       35105000	      3509	80002fd0	ff62ca83	lbu	x21,-10(x5)	  x5:0x80008825 x21=0x000000ae PA:0x8000881b
       35115000	      3510	80002fd4	00428e03	lb	x28,4(x5)	  x5:0x80008825 x28=0x00000042 PA:0x80008829
       35125000	      3511	80002fd8	01770ab3	add	x21,x14,x23	 x14:0x00000000 x23:0x80002fa4 x21=0x80002fa4
       35135000	      3512	80002fdc	0191cc33	xor	x24,x3,x25	  x3:0x61000000 x25:0x000000df x24=0x610000df
       35145000	      3513	80002fe0	ffe2ca83	lbu	x21,-2(x5)	  x5:0x80008825 x21=0x00000025 PA:0x80008823
       35155000	      3514	80002fe4	fea28e23	sb	x10,-4(x5)	  x5:0x80008825 x10:0x00000001 PA:0x80008821
       35165000	      3515	80002fe8	00b12eb3	slt	x29,x2,x11	  x2:0x00013e80 x11:0x00000000 x29=0x00000000
       35175000	      3516	80002fec	0012dc03	lhu	x24,1(x5)	  x5:0x80008825 x24=0x00006799 PA:0x80008826
       35185000	      3517	80002ff0	00e28503	lb	x10,14(x5)	  x5:0x80008825 x10=0x00000069 PA:0x80008833
       35195000	      3518	80002ff4	ff828983	lb	x19,-8(x5)	  x5:0x80008825 x19=0x0000004f PA:0x8000881d
       35205000	      3519	80002ff8	a358f013	andi	x0,x17,-1483	 x17:0x80009f5c
       35215000	      3520	80002ffc	00428b03	lb	x22,4(x5)	  x5:0x80008825 x22=0x00000042 PA:0x80008829
       35225000	      3521	80003000	ff2299a3	sh	x18,-13(x5)	  x5:0x80008825 x18:0x00000001 PA:0x80008818
       35235000	      3522	80003004	00028003	lb	x0,0(x5)	  x5:0x80008825 PA:0x80008825
       35245000	      3523	80003008	01628523	sb	x22,10(x5)	  x5:0x80008825 x22:0x00000042 PA:0x8000882f
       35255000	      3524	8000300c	0082c683	lbu	x13,8(x5)	  x5:0x80008825 x13=0x0000004a PA:0x8000882d
       35265000	      3525	80003010	ff329783	lh	x15,-13(x5)	  x5:0x80008825 x15=0x00000001 PA:0x80008818
       35275000	      3526	80003014	0a038693	addi	x13,x7,160	  x7:0x714245ef x13=0x7142468f
       35285000	      3527	80003018	ff62c503	lbu	x10,-10(x5)	  x5:0x80008825 x10=0x000000ae PA:0x8000881b
       35295000	      3528	8000301c	fe528e23	sb	x5,-4(x5)	  x5:0x80008825  x5:0x80008825 PA:0x80008821
       35305000	      3529	80003020	ff828e23	sb	x24,-4(x5)	  x5:0x80008825 x24:0x00006799 PA:0x80008821
       35315000	      3530	80003024	ffa28683	lb	x13,-6(x5)	  x5:0x80008825 x13=0xffffff93 PA:0x8000881f
       35325000	      3531	80003028	00c85913	srli	x18,x16,0xc	 x16:0x82979000 x18=0x00082979
       35335000	      3532	8000302c	ffc289a3	sb	x28,-13(x5)	  x5:0x80008825 x28:0x00000042 PA:0x80008818
       35345000	      3533	80003030	ff82c003	lbu	x0,-8(x5)	  x5:0x80008825 PA:0x8000881d
       35355000	      3534	80003034	996bc937	lui	x18,0x996bc	 x18=0x996bc000
       35365000	      3535	80003038	40805113	srai	x2,x0,0x8	  x0:0x00000000  x2=0x00000000
       35375000	      3536	8000303c	0042c783	lbu	x15,4(x5)	  x5:0x80008825 x15=0x00000042 PA:0x80008829
       35385000	      3537	80003040	016b9d33	sll	x26,x23,x22	 x23:0x80002fa4 x22:0x00000042 x26=0x0000be90
       35395000	      3538	80003044	fe52a9a3	sw	x5,-13(x5)	  x5:0x80008825  x5:0x80008825 PA:0x80008818
       35405000	      3539	80003048	411fdd33	sra	x26,x31,x17	 x31:0x80009fc4 x17:0x80009f5c x26=0xfffffff8
       35415000	      3540	8000304c	0012ce03	lbu	x28,1(x5)	  x5:0x80008825 x28=0x00000099 PA:0x80008826
       35425000	      3541	80003050	00129583	lh	x11,1(x5)	  x5:0x80008825 x11=0x00006799 PA:0x80008826
       35435000	      3542	80003054	01d283a3	sb	x29,7(x5)	  x5:0x80008825 x29:0x00000000 PA:0x8000882c
       35445000	      3543	80003058	00d28f03	lb	x30,13(x5)	  x5:0x80008825 x30=0x00000044 PA:0x80008832
       35455000	      3544	8000305c	401ad2b3	sra	x5,x21,x1	 x21:0x00000025  x1:0x80000c24  x5=0x00000002
       35465000	      3545	80003060	41928bb3	sub	x23,x5,x25	  x5:0x00000002 x25:0x000000df x23=0xffffff23
       35475000	      3546	80003064	4b182993	slti	x19,x16,1201	 x16:0x82979000 x19=0x00000001
       35485000	      3547	80003068	00027a33	and	x20,x4,x0	  x4:0x0000003c  x0:0x00000000 x20=0x00000000
       35495000	      3548	8000306c	03671c63	bne	x14,x22,800030a4	 x14:0x00000000 x22:0x00000042
       35505000	      3549	00000000	00000013	addi	x0,x0,0	  x0:0x00000000
       35515000	      3550	800030a0	00000013	addi	x0,x0,0	  x0:0x00000000
       35525000	      3551	800030a4	0127d1b3	srl	x3,x15,x18	 x15:0x00000042 x18:0x996bc000  x3=0x00000042
       35535000	      3552	800030a8	00d801b3	add	x3,x16,x13	 x16:0x82979000 x13:0xffffff93  x3=0x82978f93
       35545000	      3553	800030ac	414ed913	srai	x18,x29,0x14	 x29:0x00000000 x18=0x00000000
       35555000	      3554	800030b0	41e88233	sub	x4,x17,x30	 x17:0x80009f5c x30:0x00000044  x4=0x80009f18
       35565000	      3555	800030b4	4066dd13	srai	x26,x13,0x6	 x13:0xffffff93 x26=0xfffffffe
       35575000	      3556	800030b8	010061b3	or	x3,x0,x16	  x0:0x00000000 x16:0x82979000  x3=0x82979000
       35585000	      3557	800030bc	52b2a517	auipc	x10,0x52b2a	 x10=0xd2b2d0b8
       35595000	      3558	800030c0	16ae2c13	slti	x24,x28,362	 x28:0x00000099 x24=0x00000001
       35605000	      3559	800030c4	022ff463	bgeu	x31,x2,800030ec	 x31:0x80009fc4  x2:0x00000000
       35615000	      3560	00000000	00000013	addi	x0,x0,0	  x0:0x00000000
       35625000	      3561	800030e8	00000013	addi	x0,x0,0	  x0:0x00000000
       35635000	      3562	800030ec	01926433	or	x8,x4,x25	  x4:0x80009f18 x25:0x000000df  x8=0x80009fdf
       35645000	      3563	800030f0	d436f313	andi	x6,x13,-701	 x13:0xffffff93  x6=0xfffffd03
       35655000	      3564	800030f4	7ea6db37	lui	x22,0x7ea6d	 x22=0x7ea6d000
       35665000	      3565	800030f8	01b64a63	blt	x12,x27,8000310c	 x12:0x00000000 x27:0x80002e50
       35675000	      3566	800030fc	cb0c3237	lui	x4,0xcb0c3	  x4=0xcb0c3000
       35685000	      3567	80003100	01380463	beq	x16,x19,80003108	 x16:0x82979000 x19:0x00000001
       35695000	      3568	80003104	410e8ab3	sub	x21,x29,x16	 x29:0x00000000 x16:0x82979000 x21=0x7d687000
       35705000	      3569	80003108	7f190a93	addi	x21,x18,2033	 x18:0x00000000 x21=0x000007f1
       35715000	      3570	8000310c	11a6c917	auipc	x18,0x11a6c	 x18=0x91a6f108
       35725000	      3571	80003110	3c7a1d37	lui	x26,0x3c7a1	 x26=0x3c7a1000
       35735000	      3572	80003114	0043d093	srli	x1,x7,0x4	  x7:0x714245ef  x1=0x0714245e
       35745000	      3573	80003118	00041eb3	sll	x29,x8,x0	  x8:0x80009fdf  x0:0x00000000 x29=0x80009fdf
       35755000	      3574	8000311c	032f5463	bge	x30,x18,80003144	 x30:0x00000044 x18:0x91a6f108
       35765000	      3575	00000000	00000013	addi	x0,x0,0	  x0:0x00000000
       35775000	      3576	80003140	00000013	addi	x0,x0,0	  x0:0x00000000
       35785000	      3577	80003144	00d3f9b3	and	x19,x7,x13	  x7:0x714245ef x13:0xffffff93 x19=0x71424583
       35795000	      3578	80003148	1e3fff17	auipc	x30,0x1e3ff	 x30=0x9e402144
       35805000	      3579	8000314c	37596693	ori	x13,x18,885	 x18:0x91a6f108 x13=0x91a6f37d
       35815000	      3580	80003150	0148cc33	xor	x24,x17,x20	 x17:0x80009f5c x20:0x00000000 x24=0x80009f5c
       35825000	      3581	80003154	407ad093	srai	x1,x21,0x7	 x21:0x000007f1  x1=0x0000000f
       35835000	      3582	80003158	eac0e913	ori	x18,x1,-340	  x1:0x0000000f x18=0xfffffeaf
       35845000	      3583	8000315c	003cc233	xor	x4,x25,x3	 x25:0x000000df  x3:0x82979000  x4=0x829790df
       35855000	      3584	80003160	000604b3	add	x9,x12,x0	 x12:0x00000000  x0:0x00000000  x9=0x00000000
       35865000	      3585	80003164	01076433	or	x8,x14,x16	 x14:0x00000000 x16:0x82979000  x8=0x82979000
       35875000	      3586	80003168	001f5593	srli	x11,x30,0x1	 x30:0x9e402144 x11=0x4f2010a2
       35885000	      3587	8000316c	003ef133	and	x2,x29,x3	 x29:0x80009fdf  x3:0x82979000  x2=0x80009000
       35895000	      3588	80003170	012ac833	xor	x16,x21,x18	 x21:0x000007f1 x18:0xfffffeaf x16=0xfffff95e
       35905000	      3589	80003174	00b0d3b3	srl	x7,x1,x11	  x1:0x0000000f x11:0x4f2010a2  x7=0x00000003
       35915000	      3590	80003178	75f13b93	sltiu	x23,x2,1887	  x2:0x80009000 x23=0x00000000
       35925000	      3591	8000317c	012e0e63	beq	x28,x18,80003198	 x28:0x00000099 x18:0xfffffeaf
       35935000	      3592	80003180	013fdb13	srli	x22,x31,0x13	 x31:0x80009fc4 x22=0x00001000
       35945000	      3593	80003184	d2ae82b7	lui	x5,0xd2ae8	  x5=0xd2ae8000
       35955000	      3594	80003188	b9747597	auipc	x11,0xb9747	 x11=0x3974a184
       35965000	      3595	8000318c	01771c63	bne	x14,x23,800031a4	 x14:0x00000000 x23:0x00000000
       35975000	      3596	80003190	7c7a2a13	slti	x20,x20,1991	 x20:0x00000000 x20=0x00000001
       35985000	      3597	80003194	00129613	slli	x12,x5,0x1	  x5:0xd2ae8000 x12=0xa55d0000
       35995000	      3598	80003198	0079f0b3	and	x1,x19,x7	 x19:0x71424583  x7:0x00000003  x1=0x00000003
       36005000	      3599	8000319c	0236d863	bge	x13,x3,800031cc	 x13:0x91a6f37d  x3:0x82979000
       36015000	      3600	00000000	00000013	addi	x0,x0,0	  x0:0x00000000
       36025000	      3601	800031c8	00000013	addi	x0,x0,0	  x0:0x00000000
       36035000	      3602	800031cc	00f0d133	srl	x2,x1,x15	  x1:0x00000003 x15:0x00000042  x2=0x00000000
       36045000	      3603	800031d0	00cafc63	bgeu	x21,x12,800031e8	 x21:0x000007f1 x12:0xa55d0000
       36055000	      3604	800031d4	01789863	bne	x17,x23,800031e4	 x17:0x80009f5c x23:0x00000000
       36065000	      3605	00000000	00000013	addi	x0,x0,0	  x0:0x00000000
       36075000	      3606	800031e0	00000013	addi	x0,x0,0	  x0:0x00000000
       36085000	      3607	800031e4	00000013	addi	x0,x0,0	  x0:0x00000000
       36095000	      3608	800031e8	00000013	addi	x0,x0,0	  x0:0x00000000
       36105000	      3609	800031ec	019a69b3	or	x19,x20,x25	 x20:0x00000001 x25:0x000000df x19=0x000000df
       36115000	      3610	800031f0	01a043b3	xor	x7,x0,x26	  x0:0x00000000 x26:0x3c7a1000  x7=0x3c7a1000
       36125000	      3611	800031f4	400b8c33	sub	x24,x23,x0	 x23:0x00000000  x0:0x00000000 x24=0x00000000
       36135000	      3612	800031f8	0177ba33	sltu	x20,x15,x23	 x15:0x00000042 x23:0x00000000 x20=0x00000000
       36145000	      3613	800031fc	00518a63	beq	x3,x5,80003210	  x3:0x82979000  x5:0xd2ae8000
       36155000	      3614	80003200	4087d993	srai	x19,x15,0x8	 x15:0x00000042 x19=0x00000000
       36165000	      3615	80003204	61dd6193	ori	x3,x26,1565	 x26:0x3c7a1000  x3=0x3c7a161d
       36175000	      3616	80003208	0e9acd37	lui	x26,0xe9ac	 x26=0x0e9ac000
       36185000	      3617	8000320c	016a5e93	srli	x29,x20,0x16	 x20:0x00000000 x29=0x00000000
       36195000	      3618	80003210	01903413	sltiu	x8,x0,25	  x0:0x00000000  x8=0x00000001
       36205000	      3619	80003214	c27f5137	lui	x2,0xc27f5	  x2=0xc27f5000
       36215000	      3620	80003218	99850c93	addi	x25,x10,-1640	 x10:0xd2b2d0b8 x25=0xd2b2ca50
       36225000	      3621	8000321c	40980a33	sub	x20,x16,x9	 x16:0xfffff95e  x9:0x00000000 x20=0xfffff95e
       36235000	      3622	80003220	01e9d433	srl	x8,x19,x30	 x19:0x00000000 x30:0x9e402144  x8=0x00000000
       36245000	      3623	80003224	0280c063	blt	x1,x8,80003244	  x1:0x00000003  x8:0x00000000
       36255000	      3624	80003228	0356f863	bgeu	x13,x21,80003258	 x13:0x91a6f37d x21:0x000007f1
       36265000	      3625	00000000	00000013	addi	x0,x0,0	  x0:0x00000000
       36275000	      3626	80003254	00000013	addi	x0,x0,0	  x0:0x00000000
       36285000	      3627	80003258	e2a67613	andi	x12,x12,-470	 x12:0xa55d0000 x12=0xa55d0000
       36295000	      3628	8000325c	00687a63	bgeu	x16,x6,80003270	 x16:0xfffff95e  x6:0xfffffd03
       36305000	      3629	80003260	e2643213	sltiu	x4,x8,-474	  x8:0x00000000  x4=0x00000001
       36315000	      3630	80003264	010f9863	bne	x31,x16,80003274	 x31:0x80009fc4 x16:0xfffff95e
       36325000	      3631	00000000	00000013	addi	x0,x0,0	  x0:0x00000000
       36335000	      3632	80003270	00000013	addi	x0,x0,0	  x0:0x00000000
       36345000	      3633	80003274	002cbd33	sltu	x26,x25,x2	 x25:0xd2b2ca50  x2:0xc27f5000 x26=0x00000000
       36355000	      3634	80003278	0048ab83	lw	x23,4(x17)	 x17:0x80009f5c x23=0x80000538 PA:0x80009f60
       36365000	      3635	8000327c	b1caa693	slti	x13,x21,-1252	 x21:0x000007f1 x13=0x00000000
       36375000	      3636	80003280	00000013	addi	x0,x0,0	  x0:0x00000000
       36385000	      3637	80003284	004b6833	or	x16,x22,x4	 x22:0x00001000  x4:0x00000001 x16=0x00001001
       36395000	      3638	80003288	001e71b3	and	x3,x28,x1	 x28:0x00000099  x1:0x00000003  x3=0x00000001
       36405000	      3639	8000328c	01488893	addi	x17,x17,20	 x17:0x80009f5c x17=0x80009f70
       36415000	      3640	80003290	0068ec33	or	x24,x17,x6	 x17:0x80009f70  x6:0xfffffd03 x24=0xffffff73
       36425000	      3641	80003294	34106f13	ori	x30,x0,833	  x0:0x00000000 x30=0x00000341
       36435000	      3642	80003298	c77d2113	slti	x2,x26,-905	 x26:0x00000000  x2=0x00000000
       36445000	      3643	8000329c	40d4cf13	xori	x30,x9,1037	  x9:0x00000000 x30=0x0000040d
       36455000	      3644	800032a0	012ef1b3	and	x3,x29,x18	 x29:0x00000000 x18:0xfffffeaf  x3=0x00000000
       36465000	      3645	800032a4	00172cb3	slt	x25,x14,x1	 x14:0x00000000  x1:0x00000003 x25=0x00000001
       36475000	      3646	800032a8	000b8093	addi	x1,x23,0	 x23:0x80000538  x1=0x80000538
       36485000	      3647	800032ac	000080e7	jalr	x1,x1,0	  x1:0x80000538  x1=0x800032ac
       36495000	      3648	00000000	00000013	addi	x0,x0,0	  x0:0x00000000
       36505000	      3649	80000538	00000013	addi	x0,x0,0	  x0:0x00000000
       36515000	      3650	8000053c	00dc1093	slli	x1,x24,0xd	 x24:0xffffff73  x1=0xffee6000
       36525000	      3651	80000540	001a9593	slli	x11,x21,0x1	 x21:0x000007f1 x11=0x00000fe2
       36535000	      3652	80000544	58174917	auipc	x18,0x58174	 x18=0xd8174540
       36545000	      3653	80000548	412602b3	sub	x5,x12,x18	 x12:0xa55d0000 x18:0xd8174540  x5=0xcd45bac0
       36555000	      3654	8000054c	0a4ba693	slti	x13,x23,164	 x23:0x80000538 x13=0x00000001
       36565000	      3655	80000550	01554463	blt	x10,x21,80000558	 x10:0xd2b2d0b8 x21:0x000007f1
       36575000	      3656	00000000	00000013	addi	x0,x0,0	  x0:0x00000000
       36585000	      3657	80000554	00000013	addi	x0,x0,0	  x0:0x00000000
       36595000	      3658	80000558	49103bef	jal	x23,80000558	 x23=0x80000558
       36605000	      3659	00000000	00000013	addi	x0,x0,0	  x0:0x00000000
       36615000	      3660	800041e4	00000013	addi	x0,x0,0	  x0:0x00000000
       36625000	      3661	800041e8	00a4f933	and	x18,x9,x10	  x9:0x00000000 x10:0xd2b2d0b8 x18=0x00000000
       36635000	      3662	800041ec	00fd9a63	bne	x27,x15,80004200	 x27:0x80002e50 x15:0x00000042
       36645000	      3663	00000000	00000013	addi	x0,x0,0	  x0:0x00000000
       36655000	      3664	800041fc	00000013	addi	x0,x0,0	  x0:0x00000000
       36665000	      3665	80004200	ff088893	addi	x17,x17,-16	 x17:0x80009f70 x17=0x80009f60
       36675000	      3666	80004204	01964c33	xor	x24,x12,x25	 x12:0xa55d0000 x25:0x00000001 x24=0xa55d0001
       36685000	      3667	80004208	00f10a33	add	x20,x2,x15	  x2:0x00000000 x15:0x00000042 x20=0x00000042
       36695000	      3668	8000420c	401c5c93	srai	x25,x24,0x1	 x24:0xa55d0001 x25=0xd2ae8000
       36705000	      3669	80004210	41fd8533	sub	x10,x27,x31	 x27:0x80002e50 x31:0x80009fc4 x10=0xffff8e8c
       36715000	      3670	80004214	0178a223	sw	x23,4(x17)	 x17:0x80009f60 x23:0x80000558 PA:0x80009f64
       36725000	      3671	80004218	cd97ea97	auipc	x21,0xcd97e	 x21=0x4d982214
       36735000	      3672	8000421c	00004297	auipc	x5,0x4	  x5=0x80008218
       36745000	      3673	80004220	1ea28293	addi	x5,x5,490	  x5:0x80008218  x5=0x80008402
       36755000	      3674	80004224	000e1933	sll	x18,x28,x0	 x28:0x00000099  x0:0x00000000 x18=0x00000099
       36765000	      3675	80004228	407b8d33	sub	x26,x23,x7	 x23:0x80000558  x7:0x3c7a1000 x26=0x4385f558
       36775000	      3676	8000422c	d56856b7	lui	x13,0xd5685	 x13=0xd5685000
       36785000	      3677	80004230	fe528803	lb	x16,-27(x5)	  x5:0x80008402 x16=0xffffff94 PA:0x800083e7
       36795000	      3678	80004234	fd728aa3	sb	x23,-43(x5)	  x5:0x80008402 x23:0x80000558 PA:0x800083d7
       36805000	      3679	80004238	04428983	lb	x19,68(x5)	  x5:0x80008402 x19=0xffffff8c PA:0x80008446
       36815000	      3680	8000423c	36ab2793	slti	x15,x22,874	 x22:0x00001000 x15=0x00000000
       36825000	      3681	80004240	fc028fa3	sb	x0,-33(x5)	  x5:0x80008402  x0:0x00000000 PA:0x800083e1
       36835000	      3682	80004244	c7a83213	sltiu	x4,x16,-902	 x16:0xffffff94  x4=0x00000000
       36845000	      3683	80004248	408fd693	srai	x13,x31,0x8	 x31:0x80009fc4 x13=0xff80009f
       36855000	      3684	8000424c	361d8b13	addi	x22,x27,865	 x27:0x80002e50 x22=0x800031b1
       36865000	      3685	80004250	9c5e2813	slti	x16,x28,-1595	 x28:0x00000099 x16=0x00000000
       36875000	      3686	80004254	0f928f03	lb	x30,249(x5)	  x5:0x80008402 x30=0x00000052 PA:0x800084fb
       36885000	      3687	80004258	40ed09b3	sub	x19,x26,x14	 x26:0x4385f558 x14:0x00000000 x19=0x4385f558
       36895000	      3688	8000425c	0612c183	lbu	x3,97(x5)	  x5:0x80008402  x3=0x00000086 PA:0x80008463
       36905000	      3689	80004260	f5429783	lh	x15,-172(x5)	  x5:0x80008402 x15=0x00007fae PA:0x80008356
       36915000	      3690	80004264	41390b33	sub	x22,x18,x19	 x18:0x00000099 x19:0x4385f558 x22=0xbc7a0b41
       36925000	      3691	80004268	01297633	and	x12,x18,x18	 x18:0x00000099 x18:0x00000099 x12=0x00000099
       36935000	      3692	8000426c	f232c583	lbu	x11,-221(x5)	  x5:0x80008402 x11=0x00000030 PA:0x80008325
       36945000	      3693	80004270	01cc9f33	sll	x30,x25,x28	 x25:0xd2ae8000 x28:0x00000099 x30=0x00000000
       36955000	      3694	80004274	f6a287a3	sb	x10,-145(x5)	  x5:0x80008402 x10:0xffff8e8c PA:0x80008371
       36965000	      3695	80004278	fc628ba3	sb	x6,-41(x5)	  x5:0x80008402  x6:0xfffffd03 PA:0x800083d9
       36975000	      3696	8000427c	92b2f013	andi	x0,x5,-1749	  x5:0x80008402
       36985000	      3697	80004280	005f0ab3	add	x21,x30,x5	 x30:0x00000000  x5:0x80008402 x21=0x80008402
       36995000	      3698	80004284	0c028d83	lb	x27,192(x5)	  x5:0x80008402 x27=0x00000004 PA:0x800084c2
       37005000	      3699	80004288	0ea282a3	sb	x10,229(x5)	  x5:0x80008402 x10:0xffff8e8c PA:0x800084e7
       37015000	      3700	8000428c	015a6633	or	x12,x20,x21	 x20:0x00000042 x21:0x80008402 x12=0x80008442
       37025000	      3701	80004290	01b84a33	xor	x20,x16,x27	 x16:0x00000000 x27:0x00000004 x20=0x00000004
       37035000	      3702	80004294	0742c503	lbu	x10,116(x5)	  x5:0x80008402 x10=0x000000f3 PA:0x80008476
       37045000	      3703	80004298	f8328b83	lb	x23,-125(x5)	  x5:0x80008402 x23=0xffffffad PA:0x80008385
       37055000	      3704	8000429c	61cfae37	lui	x28,0x61cfa	 x28=0x61cfa000
       37065000	      3705	800042a0	17a3ba97	auipc	x21,0x17a3b	 x21=0x97a3f29c
       37075000	      3706	800042a4	f9d28da3	sb	x29,-101(x5)	  x5:0x80008402 x29:0x00000000 PA:0x8000839d
       37085000	      3707	800042a8	00127db3	and	x27,x4,x1	  x4:0x00000000  x1:0xffee6000 x27=0x00000000
       37095000	      3708	800042ac	0e22a603	lw	x12,226(x5)	  x5:0x80008402 x12=0x8c810d4b PA:0x800084e4
       37105000	      3709	800042b0	0d72cc83	lbu	x25,215(x5)	  x5:0x80008402 x25=0x00000037 PA:0x800084d9
       37115000	      3710	800042b4	0c928183	lb	x3,201(x5)	  x5:0x80008402  x3=0x0000001f PA:0x800084cb
       37125000	      3711	800042b8	00a9cb33	xor	x22,x19,x10	 x19:0x4385f558 x10:0x000000f3 x22=0x4385f5ab
       37135000	      3712	800042bc	003c9ab3	sll	x21,x25,x3	 x25:0x00000037  x3:0x0000001f x21=0x80000000
       37145000	      3713	800042c0	04a29b83	lh	x23,74(x5)	  x5:0x80008402 x23=0xffffeba4 PA:0x8000844c
       37155000	      3714	800042c4	f932c803	lbu	x16,-109(x5)	  x5:0x80008402 x16=0x00000082 PA:0x80008395
       37165000	      3715	800042c8	f622cc03	lbu	x24,-158(x5)	  x5:0x80008402 x24=0x00000087 PA:0x80008364
       37175000	      3716	800042cc	01c4bab3	sltu	x21,x9,x28	  x9:0x00000000 x28:0x61cfa000 x21=0x00000001
       37185000	      3717	800042d0	011f1e13	slli	x28,x30,0x11	 x30:0x00000000 x28=0x00000000
       37195000	      3718	800042d4	f2328603	lb	x12,-221(x5)	  x5:0x80008402 x12=0x00000030 PA:0x80008325
       37205000	      3719	800042d8	03d28f03	lb	x30,61(x5)	  x5:0x80008402 x30=0x00000015 PA:0x8000843f
       37215000	      3720	800042dc	d832eb13	ori	x22,x5,-637	  x5:0x80008402 x22=0xfffffd83
       37225000	      3721	800042e0	f4328083	lb	x1,-189(x5)	  x5:0x80008402  x1=0x00000061 PA:0x80008345
       37235000	      3722	800042e4	0592c803	lbu	x16,89(x5)	  x5:0x80008402 x16=0x000000bc PA:0x8000845b
       37245000	      3723	800042e8	f8228b03	lb	x22,-126(x5)	  x5:0x80008402 x22=0xffffff85 PA:0x80008384
       37255000	      3724	800042ec	00004117	auipc	x2,0x4	  x2=0x800082e8
       37265000	      3725	800042f0	ea710113	addi	x2,x2,-345	  x2:0x800082e8  x2=0x8000818f
       37275000	      3726	800042f4	04c11ea3	sh	x12,93(x2)	  x2:0x8000818f x12:0x00000030 PA:0x800081ec
       37285000	      3727	800042f8	40165db3	sra	x27,x12,x1	 x12:0x00000030  x1:0x00000061 x27=0x00000018
       37295000	      3728	800042fc	26210503	lb	x10,610(x2)	  x2:0x8000818f x10=0x00000064 PA:0x800083f1
       37305000	      3729	80004300	00b4f7b3	and	x15,x9,x11	  x9:0x00000000 x11:0x00000030 x15=0x00000000
       37315000	      3730	80004304	14711303	lh	x6,327(x2)	  x2:0x8000818f  x6=0xffffc27f PA:0x800082d6
       37325000	      3731	80004308	51cf3593	sltiu	x11,x30,1308	 x30:0x00000015 x11=0x00000001
       37335000	      3732	8000430c	013db5b3	sltu	x11,x27,x19	 x27:0x00000018 x19:0x4385f558 x11=0x00000001
       37345000	      3733	80004310	00001e33	sll	x28,x0,x0	  x0:0x00000000  x0:0x00000000 x28=0x00000000
       37355000	      3734	80004314	40ce07b3	sub	x15,x28,x12	 x28:0x00000000 x12:0x00000030 x15=0xffffffd0
       37365000	      3735	80004318	009f92b3	sll	x5,x31,x9	 x31:0x80009fc4  x9:0x00000000  x5=0x80009fc4
       37375000	      3736	8000431c	01d14b83	lbu	x23,29(x2)	  x2:0x8000818f x23=0x0000008c PA:0x800081ac
       37385000	      3737	80004320	f0010ca3	sb	x0,-231(x2)	  x2:0x8000818f  x0:0x00000000 PA:0x800080a8
       37395000	      3738	80004324	a9062293	slti	x5,x12,-1392	 x12:0x00000030  x5=0x00000000
       37405000	      3739	80004328	3e410f03	lb	x30,996(x2)	  x2:0x8000818f x30=0x00000051 PA:0x80008573
       37415000	      3740	00000000	00000013	addi	x0,x0,0	  x0:0x00000000
       37425000	      3741	8000432c	fbe101a3	sb	x30,-93(x2)	  x2:0x8000818f x30:0x00000051 PA:0x80008132
       37435000	      3742	80004330	019441b3	xor	x3,x8,x25	  x8:0x00000000 x25:0x00000037  x3=0x00000037
       37445000	      3743	80004334	0184d0b3	srl	x1,x9,x24	  x9:0x00000000 x24:0x00000087  x1=0x00000000
       37455000	      3744	80004338	007a09b3	add	x19,x20,x7	 x20:0x00000004  x7:0x3c7a1000 x19=0x3c7a1004
       37465000	      3745	8000433c	41ff8233	sub	x4,x31,x31	 x31:0x80009fc4 x31:0x80009fc4  x4=0x00000000
       37475000	      3746	80004340	3bd105a3	sb	x29,939(x2)	  x2:0x8000818f x29:0x00000000 PA:0x8000853a
       37485000	      3747	80004344	01f09613	slli	x12,x1,0x1f	  x1:0x00000000 x12=0x00000000
       37495000	      3748	80004348	0196c0b3	xor	x1,x13,x25	 x13:0xff80009f x25:0x00000037  x1=0xff8000a8
       37505000	      3749	8000434c	00000013	addi	x0,x0,0	  x0:0x00000000
       37515000	      3750	80004350	edd10023	sb	x29,-320(x2)	  x2:0x8000818f x29:0x00000000 PA:0x8000804f
       37525000	      3751	80004354	013cadb3	slt	x27,x25,x19	 x25:0x00000037 x19:0x3c7a1004 x27=0x00000001
       37535000	      3752	80004358	01af4833	xor	x16,x30,x26	 x30:0x00000051 x26:0x4385f558 x16=0x4385f509
       37545000	      3753	8000435c	2ab15503	lhu	x10,683(x2)	  x2:0x8000818f x10=0x0000cccc PA:0x8000843a
       37555000	      3754	80004360	db75b413	sltiu	x8,x11,-585	 x11:0x00000001  x8=0x00000001
       37565000	      3755	80004364	4b111483	lh	x9,1201(x2)	  x2:0x8000818f  x9=0xffff874b PA:0x80008640
       37575000	      3756	80004368	41dd8d33	sub	x26,x27,x29	 x27:0x00000001 x29:0x00000000 x26=0x00000001
       37585000	      3757	8000436c	24210403	lb	x8,578(x2)	  x2:0x8000818f  x8=0x00000024 PA:0x800083d1
       37595000	      3758	00000000	00000013	addi	x0,x0,0	  x0:0x00000000
       37605000	      3759	80004370	46805cb7	lui	x25,0x46805	 x25=0x46805000
       37615000	      3760	80004374	04014403	lbu	x8,64(x2)	  x2:0x8000818f  x8=0x00000090 PA:0x800081cf
       37625000	      3761	80004378	15714203	lbu	x4,343(x2)	  x2:0x8000818f  x4=0x000000d5 PA:0x800082e6
       37635000	      3762	8000437c	23a80d13	addi	x26,x16,570	 x16:0x4385f509 x26=0x4385f743
       37645000	      3763	80004380	00000013	addi	x0,x0,0	  x0:0x00000000
       37655000	      3764	80004384	f8b10683	lb	x13,-117(x2)	  x2:0x8000818f x13=0xffffffd4 PA:0x8000811a
       37665000	      3765	80004388	45c14683	lbu	x13,1116(x2)	  x2:0x8000818f x13=0x000000e6 PA:0x800085eb
       37675000	      3766	8000438c	f03106a3	sb	x3,-243(x2)	  x2:0x8000818f  x3:0x00000037 PA:0x8000809c
       37685000	      3767	80004390	00004397	auipc	x7,0x4	  x7=0x8000838c
       37695000	      3768	80004394	6aa38393	addi	x7,x7,1706	  x7:0x8000838c  x7=0x80008a36
       37705000	      3769	80004398	0273c103	lbu	x2,39(x7)	  x7:0x80008a36  x2=0x000000ed PA:0x80008a5d
       37715000	      3770	8000439c	02038783	lb	x15,32(x7)	  x7:0x80008a36 x15=0xffffffb2 PA:0x80008a56
       37725000	      3771	800043a0	02b38183	lb	x3,43(x7)	  x7:0x80008a36  x3=0xffffffb8 PA:0x80008a61
       37735000	      3772	800043a4	01c737b3	sltu	x15,x14,x28	 x14:0x00000000 x28:0x00000000 x15=0x00000000
       37745000	      3773	800043a8	fc738903	lb	x18,-57(x7)	  x7:0x80008a36 x18=0x0000002b PA:0x800089fd
       37755000	      3774	800043ac	ceb1a593	slti	x11,x3,-789	  x3:0xffffffb8 x11=0x00000000
       37765000	      3775	800043b0	900fc013	xori	x0,x31,-1792	 x31:0x80009fc4
       37775000	      3776	800043b4	00438d03	lb	x26,4(x7)	  x7:0x80008a36 x26=0xffffffea PA:0x80008a3a
       37785000	      3777	800043b8	0403ca83	lbu	x21,64(x7)	  x7:0x80008a36 x21=0x0000003e PA:0x80008a76
       37795000	      3778	800043bc	004d01b3	add	x3,x26,x4	 x26:0xffffffea  x4:0x000000d5  x3=0x000000bf
       37805000	      3779	800043c0	00638f03	lb	x30,6(x7)	  x7:0x80008a36 x30=0xffffffc9 PA:0x80008a3c
       37815000	      3780	800043c4	fff38183	lb	x3,-1(x7)	  x7:0x80008a36  x3=0x0000007a PA:0x80008a35
       37825000	      3781	800043c8	03e3c583	lbu	x11,62(x7)	  x7:0x80008a36 x11=0x00000022 PA:0x80008a74
       37835000	      3782	800043cc	01dfbc33	sltu	x24,x31,x29	 x31:0x80009fc4 x29:0x00000000 x24=0x00000000
       37845000	      3783	800043d0	a4dfbe97	auipc	x29,0xa4dfb	 x29=0x24dff3cc
       37855000	      3784	800043d4	fd938d83	lb	x27,-39(x7)	  x7:0x80008a36 x27=0x0000005a PA:0x80008a0f
       37865000	      3785	800043d8	0023da83	lhu	x21,2(x7)	  x7:0x80008a36 x21=0x00007f61 PA:0x80008a38
       37875000	      3786	800043dc	018388a3	sb	x24,17(x7)	  x7:0x80008a36 x24:0x00000000 PA:0x80008a47
       37885000	      3787	800043e0	fe63db03	lhu	x22,-26(x7)	  x7:0x80008a36 x22=0x00005f99 PA:0x80008a1c
       37895000	      3788	800043e4	02038e03	lb	x28,32(x7)	  x7:0x80008a36 x28=0xffffffb2 PA:0x80008a56
       37905000	      3789	800043e8	01312b33	slt	x22,x2,x19	  x2:0x000000ed x19:0x3c7a1004 x22=0x00000001
       37915000	      3790	800043ec	fd338083	lb	x1,-45(x7)	  x7:0x80008a36  x1=0xffffff96 PA:0x80008a09
       37925000	      3791	800043f0	03638d23	sb	x22,58(x7)	  x7:0x80008a36 x22:0x00000001 PA:0x80008a70
       37935000	      3792	800043f4	8db57993	andi	x19,x10,-1829	 x10:0x0000cccc x19=0x0000c8c8
       37945000	      3793	800043f8	00000013	addi	x0,x0,0	  x0:0x00000000
       37955000	      3794	800043fc	01538403	lb	x8,21(x7)	  x7:0x80008a36  x8=0x00000068 PA:0x80008a4b
       37965000	      3795	80004400	fdd3c483	lbu	x9,-35(x7)	  x7:0x80008a36  x9=0x000000bf PA:0x80008a13
       37975000	      3796	80004404	01f38683	lb	x13,31(x7)	  x7:0x80008a36 x13=0x0000002f PA:0x80008a55
       37985000	      3797	80004408	fdd3cc83	lbu	x25,-35(x7)	  x7:0x80008a36 x25=0x000000bf PA:0x80008a13
       37995000	      3798	8000440c	fe73ce83	lbu	x29,-25(x7)	  x7:0x80008a36 x29=0x0000005f PA:0x80008a1d
       38005000	      3799	80004410	017388a3	sb	x23,17(x7)	  x7:0x80008a36 x23:0x0000008c PA:0x80008a47
       38015000	      3800	80004414	00265093	srli	x1,x12,0x2	 x12:0x00000000  x1=0x00000000
       38025000	      3801	80004418	fed38083	lb	x1,-19(x7)	  x7:0x80008a36  x1=0x0000003a PA:0x80008a23
       38035000	      3802	8000441c	fe439523	sh	x4,-22(x7)	  x7:0x80008a36  x4:0x000000d5 PA:0x80008a20
       38045000	      3803	80004420	fd139223	sh	x17,-60(x7)	  x7:0x80008a36 x17:0x80009f60 PA:0x800089fa
       38055000	      3804	80004424	00fa5313	srli	x6,x20,0xf	 x20:0x00000004  x6=0x00000000
       38065000	      3805	80004428	9c308193	addi	x3,x1,-1597	  x1:0x0000003a  x3=0xfffff9fd
       38075000	      3806	8000442c	02338e23	sb	x3,60(x7)	  x7:0x80008a36  x3:0xfffff9fd PA:0x80008a72
       38085000	      3807	80004430	0183d903	lhu	x18,24(x7)	  x7:0x80008a36 x18=0x00008997 PA:0x80008a4e
       38095000	      3808	80004434	00005117	auipc	x2,0x5	  x2=0x80009430
       38105000	      3809	80004438	b2d10113	addi	x2,x2,-1235	  x2:0x80009430  x2=0x80008f5d
       38115000	      3810	8000443c	00d99993	slli	x19,x19,0xd	 x19:0x0000c8c8 x19=0x19190000
       38125000	      3811	80004440	01b5f2b3	and	x5,x11,x27	 x11:0x00000022 x27:0x0000005a  x5=0x00000002
       38135000	      3812	80004444	f8b12c83	lw	x25,-117(x2)	  x2:0x80008f5d x25=0xc558839f PA:0x80008ee8
       38145000	      3813	80004448	f6c10d03	lb	x26,-148(x2)	  x2:0x80008f5d x26=0xffffff8b PA:0x80008ec9
       38155000	      3814	8000444c	f7711c03	lh	x24,-137(x2)	  x2:0x80008f5d x24=0xffff9ce8 PA:0x80008ed4
       38165000	      3815	80004450	f2110c03	lb	x24,-223(x2)	  x2:0x80008f5d x24=0x0000007f PA:0x80008e7e
       38175000	      3816	80004454	00277eb3	and	x29,x14,x2	 x14:0x00000000  x2:0x80008f5d x29=0x00000000
       38185000	      3817	80004458	41fe01b3	sub	x3,x28,x31	 x28:0xffffffb2 x31:0x80009fc4  x3=0x7fff5fee
       38195000	      3818	8000445c	02a10323	sb	x10,38(x2)	  x2:0x80008f5d x10:0x0000cccc PA:0x80008f83
       38205000	      3819	80004460	fc3119a3	sh	x3,-45(x2)	  x2:0x80008f5d  x3:0x7fff5fee PA:0x80008f30
       38215000	      3820	80004464	04210303	lb	x6,66(x2)	  x2:0x80008f5d  x6=0xffffffc3 PA:0x80008f9f
       38225000	      3821	80004468	68eb7993	andi	x19,x22,1678	 x22:0x00000001 x19=0x00000000
       38235000	      3822	8000446c	e5427b93	andi	x23,x4,-428	  x4:0x000000d5 x23=0x00000054
       38245000	      3823	80004470	07c14183	lbu	x3,124(x2)	  x2:0x80008f5d  x3=0x00000006 PA:0x80008fd9
       38255000	      3824	80004474	00aee933	or	x18,x29,x10	 x29:0x00000000 x10:0x0000cccc x18=0x0000cccc
       38265000	      3825	80004478	fe6104a3	sb	x6,-23(x2)	  x2:0x80008f5d  x6:0xffffffc3 PA:0x80008f46
       38275000	      3826	8000447c	07914803	lbu	x16,121(x2)	  x2:0x80008f5d x16=0x000000fc PA:0x80008fd6
       38285000	      3827	80004480	40a35313	srai	x6,x6,0xa	  x6:0xffffffc3  x6=0xffffffff
       38295000	      3828	80004484	413bdc93	srai	x25,x23,0x13	 x23:0x00000054 x25=0x00000000
       38305000	      3829	80004488	408e5e93	srai	x29,x28,0x8	 x28:0xffffffb2 x29=0xffffffff
       38315000	      3830	8000448c	0003bb33	sltu	x22,x7,x0	  x7:0x80008a36  x0:0x00000000 x22=0x00000000
       38325000	      3831	80004490	00000013	addi	x0,x0,0	  x0:0x00000000
       38335000	      3832	80004494	1798a993	slti	x19,x17,377	 x17:0x80009f60 x19=0x00000001
       38345000	      3833	80004498	fc814983	lbu	x19,-56(x2)	  x2:0x80008f5d x19=0x00000085 PA:0x80008f25
       38355000	      3834	8000449c	06710a23	sb	x7,116(x2)	  x2:0x80008f5d  x7:0x80008a36 PA:0x80008fd1
       38365000	      3835	800044a0	f2610383	lb	x7,-218(x2)	  x2:0x80008f5d  x7=0x00000051 PA:0x80008e83
       38375000	      3836	800044a4	00aafc33	and	x24,x21,x10	 x21:0x00007f61 x10:0x0000cccc x24=0x00004c40
       38385000	      3837	800044a8	f2b10523	sb	x11,-214(x2)	  x2:0x80008f5d x11:0x00000022 PA:0x80008e87
       38395000	      3838	800044ac	04f11683	lh	x13,79(x2)	  x2:0x80008f5d x13=0x0000443d PA:0x80008fac
       38405000	      3839	800044b0	f9410e83	lb	x29,-108(x2)	  x2:0x80008f5d x29=0xffffffaf PA:0x80008ef1
       38415000	      3840	800044b4	4038d413	srai	x8,x17,0x3	 x17:0x80009f60  x8=0xf00013ec
       38425000	      3841	800044b8	0059c633	xor	x12,x19,x5	 x19:0x00000085  x5:0x00000002 x12=0x00000087
       38435000	      3842	800044bc	f30115a3	sh	x16,-213(x2)	  x2:0x80008f5d x16:0x000000fc PA:0x80008e88
       38445000	      3843	800044c0	6db1b993	sltiu	x19,x3,1755	  x3:0x00000006 x19=0x00000001
       38455000	      3844	800044c4	009667b3	or	x15,x12,x9	 x12:0x00000087  x9:0x000000bf x15=0x000000bf
       38465000	      3845	800044c8	016ce9b3	or	x19,x25,x22	 x25:0x00000000 x22:0x00000000 x19=0x00000000
       38475000	      3846	800044cc	00355533	srl	x10,x10,x3	 x10:0x0000cccc  x3:0x00000006 x10=0x00000333
       38485000	      3847	800044d0	03115a03	lhu	x20,49(x2)	  x2:0x80008f5d x20=0x0000913c PA:0x80008f8e
       38495000	      3848	800044d4	f8614b83	lbu	x23,-122(x2)	  x2:0x80008f5d x23=0x000000a4 PA:0x80008ee3
       38505000	      3849	800044d8	f4a10d03	lb	x26,-182(x2)	  x2:0x80008f5d x26=0xffffffd6 PA:0x80008ea7
       38515000	      3850	800044dc	9f12bc93	sltiu	x25,x5,-1551	  x5:0x00000002 x25=0x00000001
       38525000	      3851	800044e0	112eda37	lui	x20,0x112ed	 x20=0x112ed000
       38535000	      3852	800044e4	b1551197	auipc	x3,0xb1551	  x3=0x315554e0
       38545000	      3853	800044e8	07b10193	addi	x3,x2,123	  x2:0x80008f5d  x3=0x80008fd8
       38555000	      3854	800044ec	018eebb3	or	x23,x29,x24	 x29:0xffffffaf x24:0x00004c40 x23=0xffffffef
       38565000	      3855	800044f0	f5c14603	lbu	x12,-164(x2)	  x2:0x80008f5d x12=0x00000088 PA:0x80008eb9
       38575000	      3856	800044f4	00005f17	auipc	x30,0x5	 x30=0x800094f0
       38585000	      3857	800044f8	8d9f0f13	addi	x30,x30,-1831	 x30:0x800094f0 x30=0x80008dc9
       38595000	      3858	800044fc	001ec933	xor	x18,x29,x1	 x29:0xffffffaf  x1:0x0000003a x18=0xffffff95
       38605000	      3859	80004500	ff7f5603	lhu	x12,-9(x30)	 x30:0x80008dc9 x12=0x0000ad1c PA:0x80008dc0
       38615000	      3860	80004504	414a5193	srai	x3,x20,0x14	 x20:0x112ed000  x3=0x00000112
       38625000	      3861	80004508	417e0db3	sub	x27,x28,x23	 x28:0xffffffb2 x23:0xffffffef x27=0xffffffc3
       38635000	      3862	8000450c	000f4a03	lbu	x20,0(x30)	 x30:0x80008dc9 x20=0x000000b1 PA:0x80008dc9
       38645000	      3863	80004510	01be9a13	slli	x20,x29,0x1b	 x29:0xffffffaf x20=0x78000000
       38655000	      3864	80004514	009f4083	lbu	x1,9(x30)	 x30:0x80008dc9  x1=0x000000b9 PA:0x80008dd2
       38665000	      3865	80004518	8ce34c97	auipc	x25,0x8ce34	 x25=0x0ce38514
       38675000	      3866	8000451c	012e3933	sltu	x18,x28,x18	 x28:0xffffffb2 x18:0xffffff95 x18=0x00000000
       38685000	      3867	80004520	ffaf4483	lbu	x9,-6(x30)	 x30:0x80008dc9  x9=0x00000000 PA:0x80008dc3
       38695000	      3868	80004524	00ef0d83	lb	x27,14(x30)	 x30:0x80008dc9 x27=0xffffffff PA:0x80008dd7
       38705000	      3869	80004528	ff2f0683	lb	x13,-14(x30)	 x30:0x80008dc9 x13=0xffffffec PA:0x80008dbb
       38715000	      3870	8000452c	00ac54b3	srl	x9,x24,x10	 x24:0x00004c40 x10:0x00000333  x9=0x00000000
       38725000	      3871	80004530	007f5e83	lhu	x29,7(x30)	 x30:0x80008dc9 x29=0x00004b0f PA:0x80008dd0
       38735000	      3872	80004534	010f4783	lbu	x15,16(x30)	 x30:0x80008dc9 x15=0x000000cc PA:0x80008dd9
       38745000	      3873	80004538	ffff4283	lbu	x5,-1(x30)	 x30:0x80008dc9  x5=0x000000a1 PA:0x80008dc8
       38755000	      3874	8000453c	ffff0783	lb	x15,-1(x30)	 x30:0x80008dc9 x15=0xffffffa1 PA:0x80008dc8
       38765000	      3875	80004540	fe8f0923	sb	x8,-14(x30)	 x30:0x80008dc9  x8:0xf00013ec PA:0x80008dbb
       38775000	      3876	80004544	00380533	add	x10,x16,x3	 x16:0x000000fc  x3:0x00000112 x10=0x0000020e
       38785000	      3877	80004548	005f0103	lb	x2,5(x30)	 x30:0x80008dc9  x2=0xffffffe2 PA:0x80008dce
       38795000	      3878	8000454c	a3740513	addi	x10,x8,-1481	  x8:0xf00013ec x10=0xf0000e23
       38805000	      3879	80004550	0192dd33	srl	x26,x5,x25	  x5:0x000000a1 x25:0x0ce38514 x26=0x00000000
       38815000	      3880	80004554	011e9913	slli	x18,x29,0x11	 x29:0x00004b0f x18=0x961e0000
       38825000	      3881	80004558	006f0723	sb	x6,14(x30)	 x30:0x80008dc9  x6:0xffffffff PA:0x80008dd7
       38835000	      3882	8000455c	018414b3	sll	x9,x8,x24	  x8:0xf00013ec x24:0x00004c40  x9=0xf00013ec
       38845000	      3883	80004560	41cf0db3	sub	x27,x30,x28	 x30:0x80008dc9 x28:0xffffffb2 x27=0x80008e17
       38855000	      3884	80004564	417b5a93	srai	x21,x22,0x17	 x22:0x00000000 x21=0x00000000
       38865000	      3885	80004568	001e5bb3	srl	x23,x28,x1	 x28:0xffffffb2  x1:0x000000b9 x23=0x0000007f
       38875000	      3886	8000456c	742f2113	slti	x2,x30,1858	 x30:0x80008dc9  x2=0x00000001
       38885000	      3887	80004570	005b9013	slli	x0,x23,0x5	 x23:0x0000007f
       38895000	      3888	80004574	ff8f4803	lbu	x16,-8(x30)	 x30:0x80008dc9 x16=0x000000ad PA:0x80008dc1
       38905000	      3889	80004578	febf0823	sb	x11,-16(x30)	 x30:0x80008dc9 x11:0x00000022 PA:0x80008db9
       38915000	      3890	8000457c	a9e39197	auipc	x3,0xa9e39	  x3=0x29e3d578
       38925000	      3891	80004580	feff1ea3	sh	x15,-3(x30)	 x30:0x80008dc9 x15:0xffffffa1 PA:0x80008dc6
       38935000	      3892	80004584	00000013	addi	x0,x0,0	  x0:0x00000000
       38945000	      3893	80004588	010f0503	lb	x10,16(x30)	 x30:0x80008dc9 x10=0xffffffcc PA:0x80008dd9
       38955000	      3894	8000458c	00000013	addi	x0,x0,0	  x0:0x00000000
       38965000	      3895	80004590	014f0323	sb	x20,6(x30)	 x30:0x80008dc9 x20:0x78000000 PA:0x80008dcf
       38975000	      3896	80004594	00d71d93	slli	x27,x14,0xd	 x14:0x00000000 x27=0x00000000
       38985000	      3897	80004598	419e0433	sub	x8,x28,x25	 x28:0xffffffb2 x25:0x0ce38514  x8=0xf31c7a9e
       38995000	      3898	8000459c	01bf0523	sb	x27,10(x30)	 x30:0x80008dc9 x27:0x00000000 PA:0x80008dd3
       39005000	      3899	800045a0	ff9f4b83	lbu	x23,-7(x30)	 x30:0x80008dc9 x23=0x00000001 PA:0x80008dc2
       39015000	      3900	800045a4	4dbc8a93	addi	x21,x25,1243	 x25:0x0ce38514 x21=0x0ce389ef
       39025000	      3901	800045a8	013f0323	sb	x19,6(x30)	 x30:0x80008dc9 x19:0x00000000 PA:0x80008dcf
       39035000	      3902	800045ac	005f5e83	lhu	x29,5(x30)	 x30:0x80008dc9 x29=0x000000e2 PA:0x80008dce
       39045000	      3903	800045b0	c0e9fb13	andi	x22,x19,-1010	 x19:0x00000000 x22=0x00000000
       39055000	      3904	800045b4	007f5003	lhu	x0,7(x30)	 x30:0x80008dc9 PA:0x80008dd0
       39065000	      3905	800045b8	009f10a3	sh	x9,1(x30)	 x30:0x80008dc9  x9:0xf00013ec PA:0x80008dca
       39075000	      3906	800045bc	00004117	auipc	x2,0x4	  x2=0x800085b8
       39085000	      3907	800045c0	69210113	addi	x2,x2,1682	  x2:0x800085b8  x2=0x80008c4a
       39095000	      3908	800045c4	7aa0b293	sltiu	x5,x1,1962	  x1:0x000000b9  x5=0x00000001
       39105000	      3909	800045c8	03310f23	sb	x19,62(x2)	  x2:0x80008c4a x19:0x00000000 PA:0x80008c88
       39115000	      3910	800045cc	910c8a13	addi	x20,x25,-1776	 x25:0x0ce38514 x20=0x0ce37e24
       39125000	      3911	800045d0	00411223	sh	x4,4(x2)	  x2:0x80008c4a  x4:0x000000d5 PA:0x80008c4e
       39135000	      3912	800045d4	024105a3	sb	x4,43(x2)	  x2:0x80008c4a  x4:0x000000d5 PA:0x80008c75
       39145000	      3913	800045d8	03f10c83	lb	x25,63(x2)	  x2:0x80008c4a x25=0xffffffea PA:0x80008c89
       39155000	      3914	800045dc	fd414a83	lbu	x21,-44(x2)	  x2:0x80008c4a x21=0x000000ec PA:0x80008c1e
       39165000	      3915	800045e0	02714a03	lbu	x20,39(x2)	  x2:0x80008c4a x20=0x0000008a PA:0x80008c71
       39175000	      3916	800045e4	00000013	addi	x0,x0,0	  x0:0x00000000
       39185000	      3917	800045e8	ffe11303	lh	x6,-2(x2)	  x2:0x80008c4a  x6=0xffffe385 PA:0x80008c48
       39195000	      3918	800045ec	03c101a3	sb	x28,35(x2)	  x2:0x80008c4a x28:0xffffffb2 PA:0x80008c6d
       39205000	      3919	800045f0	415bd993	srai	x19,x23,0x15	 x23:0x00000001 x19=0x00000000
       39215000	      3920	800045f4	02c14403	lbu	x8,44(x2)	  x2:0x80008c4a  x8=0x000000eb PA:0x80008c76
       39225000	      3921	800045f8	01014d83	lbu	x27,16(x2)	  x2:0x80008c4a x27=0x0000007c PA:0x80008c5a
       39235000	      3922	800045fc	fce10ba3	sb	x14,-41(x2)	  x2:0x80008c4a x14:0x00000000 PA:0x80008c21
       39245000	      3923	80004600	01b14683	lbu	x13,27(x2)	  x2:0x80008c4a x13=0x00000097 PA:0x80008c65
       39255000	      3924	80004604	fc911a23	sh	x9,-44(x2)	  x2:0x80008c4a  x9:0xf00013ec PA:0x80008c1e
       39265000	      3925	80004608	02615903	lhu	x18,38(x2)	  x2:0x80008c4a x18=0x00008a9d PA:0x80008c70
       39275000	      3926	8000460c	b38fce13	xori	x28,x31,-1224	 x31:0x80009fc4 x28=0x7fff64fc
       39285000	      3927	80004610	03810003	lb	x0,56(x2)	  x2:0x80008c4a PA:0x80008c82
       39295000	      3928	80004614	01a35993	srli	x19,x6,0x1a	  x6:0xffffe385 x19=0x0000003f
       39305000	      3929	80004618	03914403	lbu	x8,57(x2)	  x2:0x80008c4a  x8=0x00000018 PA:0x80008c83
       39315000	      3930	8000461c	0046b0b3	sltu	x1,x13,x4	 x13:0x00000097  x4:0x000000d5  x1=0x00000001
       39325000	      3931	80004620	00e219b3	sll	x19,x4,x14	  x4:0x000000d5 x14:0x00000000 x19=0x000000d5
       39335000	      3932	80004624	01910903	lb	x18,25(x2)	  x2:0x80008c4a x18=0x00000055 PA:0x80008c63
       39345000	      3933	80004628	fe7102a3	sb	x7,-27(x2)	  x2:0x80008c4a  x7:0x00000051 PA:0x80008c2f
       39355000	      3934	8000462c	fc840d37	lui	x26,0xfc840	 x26=0xfc840000
       39365000	      3935	80004630	405a5193	srai	x3,x20,0x5	 x20:0x0000008a  x3=0x00000004
       39375000	      3936	80004634	012e2d13	slti	x26,x28,18	 x28:0x7fff64fc x26=0x00000000
       39385000	      3937	80004638	00000013	addi	x0,x0,0	  x0:0x00000000
       39395000	      3938	8000463c	fdd10d03	lb	x26,-35(x2)	  x2:0x80008c4a x26=0x0000006e PA:0x80008c27
       39405000	      3939	80004640	02b14f03	lbu	x30,43(x2)	  x2:0x80008c4a x30=0x000000d5 PA:0x80008c75
       39415000	      3940	80004644	fd612083	lw	x1,-42(x2)	  x2:0x80008c4a  x1=0x239f0072 PA:0x80008c20
       39425000	      3941	80004648	00004317	auipc	x6,0x4	  x6=0x80008644
       39435000	      3942	8000464c	6bb30313	addi	x6,x6,1723	  x6:0x80008644  x6=0x80008cff
       39445000	      3943	80004650	004e7233	and	x4,x28,x4	 x28:0x7fff64fc  x4:0x000000d5  x4=0x000000d4
       39455000	      3944	80004654	01479a93	slli	x21,x15,0x14	 x15:0xffffffa1 x21=0xfa100000
       39465000	      3945	80004658	ffc30b03	lb	x22,-4(x6)	  x6:0x80008cff x22=0x00000038 PA:0x80008cfb
       39475000	      3946	8000465c	aae82c13	slti	x24,x16,-1362	 x16:0x000000ad x24=0x00000000
       39485000	      3947	80004660	00000013	addi	x0,x0,0	  x0:0x00000000
       39495000	      3948	80004664	1d60e113	ori	x2,x1,470	  x1:0x239f0072  x2=0x239f01f6
       39505000	      3949	80004668	6fbe2a13	slti	x20,x28,1787	 x28:0x7fff64fc x20=0x00000000
       39515000	      3950	8000466c	a1954e97	auipc	x29,0xa1954	 x29=0x21958668
       39525000	      3951	80004670	00930503	lb	x10,9(x6)	  x6:0x80008cff x10=0x00000029 PA:0x80008d08
       39535000	      3952	80004674	01d87ab3	and	x21,x16,x29	 x16:0x000000ad x29:0x21958668 x21=0x00000028
       39545000	      3953	80004678	00514bb3	xor	x23,x2,x5	  x2:0x239f01f6  x5:0x00000001 x23=0x239f01f7
       39555000	      3954	8000467c	fe230c23	sb	x2,-8(x6)	  x6:0x80008cff  x2:0x239f01f6 PA:0x80008cf7
       39565000	      3955	80004680	8607e493	ori	x9,x15,-1952	 x15:0xffffffa1  x9=0xffffffe1
       39575000	      3956	80004684	0013d193	srli	x3,x7,0x1	  x7:0x00000051  x3=0x00000028
       39585000	      3957	80004688	8de32c13	slti	x24,x6,-1826	  x6:0x80008cff x24=0x00000001
       39595000	      3958	8000468c	0155ea33	or	x20,x11,x21	 x11:0x00000022 x21:0x00000028 x20=0x0000002a
       39605000	      3959	80004690	56ba0e13	addi	x28,x20,1387	 x20:0x0000002a x28=0x00000595
       39615000	      3960	80004694	ffe30983	lb	x19,-2(x6)	  x6:0x80008cff x19=0xffffffc3 PA:0x80008cfd
       39625000	      3961	80004698	fa52ca13	xori	x20,x5,-91	  x5:0x00000001 x20=0xffffffa4
       39635000	      3962	8000469c	0138a1b3	slt	x3,x17,x19	 x17:0x80009f60 x19:0xffffffc3  x3=0x00000001
       39645000	      3963	800046a0	00dd1613	slli	x12,x26,0xd	 x26:0x0000006e x12=0x000dc000
       39655000	      3964	800046a4	0179f1b3	and	x3,x19,x23	 x19:0xffffffc3 x23:0x239f01f7  x3=0x239f01c3
       39665000	      3965	800046a8	010899b3	sll	x19,x17,x16	 x17:0x80009f60 x16:0x000000ad x19=0x13ec0000
       39675000	      3966	800046ac	0b52b793	sltiu	x15,x5,181	  x5:0x00000001 x15=0x00000001
       39685000	      3967	800046b0	ff430c03	lb	x24,-12(x6)	  x6:0x80008cff x24=0xffffffeb PA:0x80008cf3
       39695000	      3968	800046b4	1f38cb37	lui	x22,0x1f38c	 x22=0x1f38c000
       39705000	      3969	800046b8	00e955b3	srl	x11,x18,x14	 x18:0x00000055 x14:0x00000000 x11=0x00000055
       39715000	      3970	800046bc	ff935b83	lhu	x23,-7(x6)	  x6:0x80008cff x23=0x00000049 PA:0x80008cf8
       39725000	      3971	800046c0	419f5913	srai	x18,x30,0x19	 x30:0x000000d5 x18=0x00000000
       39735000	      3972	800046c4	00c34783	lbu	x15,12(x6)	  x6:0x80008cff x15=0x00000013 PA:0x80008d0b
       39745000	      3973	800046c8	00430483	lb	x9,4(x6)	  x6:0x80008cff  x9=0x00000004 PA:0x80008d03
       39755000	      3974	800046cc	ff230d23	sb	x18,-6(x6)	  x6:0x80008cff x18:0x00000000 PA:0x80008cf9
       39765000	      3975	800046d0	00034583	lbu	x11,0(x6)	  x6:0x80008cff x11=0x00000065 PA:0x80008cff
       39775000	      3976	800046d4	01396c33	or	x24,x18,x19	 x18:0x00000000 x19:0x13ec0000 x24=0x13ec0000
       39785000	      3977	800046d8	08a3f293	andi	x5,x7,138	  x7:0x00000051  x5=0x00000000
       39795000	      3978	800046dc	d40e0597	auipc	x11,0xd40e0	 x11=0x540e46d8
       39805000	      3979	800046e0	00ac3433	sltu	x8,x24,x10	 x24:0x13ec0000 x10:0x00000029  x8=0x00000000
       39815000	      3980	800046e4	41035c33	sra	x24,x6,x16	  x6:0x80008cff x16:0x000000ad x24=0xfffc0004
       39825000	      3981	800046e8	00130783	lb	x15,1(x6)	  x6:0x80008cff x15=0xffffffe5 PA:0x80008d00
       39835000	      3982	00000000	00000013	addi	x0,x0,0	  x0:0x00000000
       39845000	      3983	800046ec	00f30383	lb	x7,15(x6)	  x6:0x80008cff  x7=0xfffffffb PA:0x80008d0e
       39855000	      3984	800046f0	01f322a3	sw	x31,5(x6)	  x6:0x80008cff x31:0x80009fc4 PA:0x80008d04
       39865000	      3985	800046f4	fff35403	lhu	x8,-1(x6)	  x6:0x80008cff  x8=0x000065cd PA:0x80008cfe
       39875000	      3986	800046f8	00004e17	auipc	x28,0x4	 x28=0x800086f4
       39885000	      3987	800046fc	d97e0e13	addi	x28,x28,-617	 x28:0x800086f4 x28=0x8000848b
       39895000	      3988	80004700	4850d117	auipc	x2,0x4850d	  x2=0xc85116fc
       39905000	      3989	80004704	ffce4283	lbu	x5,-4(x28)	 x28:0x8000848b  x5=0x00000029 PA:0x80008487
       39915000	      3990	80004708	010e4b03	lbu	x22,16(x28)	 x28:0x8000848b x22=0x000000dd PA:0x8000849b
       39925000	      3991	8000470c	41ca5233	sra	x4,x20,x28	 x20:0xffffffa4 x28:0x8000848b  x4=0xffffffff
       39935000	      3992	80004710	fe1e1ba3	sh	x1,-9(x28)	 x28:0x8000848b  x1:0x239f0072 PA:0x80008482
       39945000	      3993	80004714	0147c5b3	xor	x11,x15,x20	 x15:0xffffffe5 x20:0xffffffa4 x11=0x00000041
       39955000	      3994	80004718	016e00a3	sb	x22,1(x28)	 x28:0x8000848b x22:0x000000dd PA:0x8000848c
       39965000	      3995	8000471c	febe0fa3	sb	x11,-1(x28)	 x28:0x8000848b x11:0x00000041 PA:0x8000848a
       39975000	      3996	80004720	4041d693	srai	x13,x3,0x4	  x3:0x239f01c3 x13=0x0239f01c
       39985000	      3997	80004724	ff1e0683	lb	x13,-15(x28)	 x28:0x8000848b x13=0x00000001 PA:0x8000847c
       39995000	      3998	80004728	ff2e0503	lb	x10,-14(x28)	 x28:0x8000848b x10=0xffffffc0 PA:0x8000847d
       40005000	      3999	8000472c	008e4c83	lbu	x25,8(x28)	 x28:0x8000848b x25=0x00000030 PA:0x80008493
       40015000	      4000	00000000	00000013	addi	x0,x0,0	  x0:0x00000000
       40025000	      4001	80004730	009cdb13	srli	x22,x25,0x9	 x25:0x00000030 x22=0x00000000
       40035000	      4002	80004734	92476113	ori	x2,x14,-1756	 x14:0x00000000  x2=0xfffff924
       40045000	      4003	80004738	01af1593	slli	x11,x30,0x1a	 x30:0x000000d5 x11=0x54000000
       40055000	      4004	8000473c	f437b513	sltiu	x10,x15,-189	 x15:0xffffffe5 x10=0x00000000
       40065000	      4005	80004740	409cd413	srai	x8,x25,0x9	 x25:0x00000030  x8=0x00000000
       40075000	      4006	80004744	ff5e2d03	lw	x26,-11(x28)	 x28:0x8000848b x26=0x00727c8c PA:0x80008480
       40085000	      4007	80004748	005e4c03	lbu	x24,5(x28)	 x28:0x8000848b x24=0x000000ca PA:0x80008490
       40095000	      4008	8000474c	ffae4203	lbu	x4,-6(x28)	 x28:0x8000848b  x4=0x0000003b PA:0x80008485
       40105000	      4009	80004750	008e0483	lb	x9,8(x28)	 x28:0x8000848b  x9=0x00000030 PA:0x80008493
       40115000	      4010	80004754	00be4303	lbu	x6,11(x28)	 x28:0x8000848b  x6=0x00000073 PA:0x80008496
       40125000	      4011	80004758	ffde1b83	lh	x23,-3(x28)	 x28:0x8000848b x23=0x00006597 PA:0x80008488
       40135000	      4012	8000475c	54590593	addi	x11,x18,1349	 x18:0x00000000 x11=0x00000545
       40145000	      4013	80004760	65d0f193	andi	x3,x1,1629	  x1:0x239f0072  x3=0x00000050
       40155000	      4014	80004764	ff2e4903	lbu	x18,-14(x28)	 x28:0x8000848b x18=0x000000c0 PA:0x8000847d
       40165000	      4015	80004768	000c24b3	slt	x9,x24,x0	 x24:0x000000ca  x0:0x00000000  x9=0x00000000
       40175000	      4016	8000476c	013b9433	sll	x8,x23,x19	 x23:0x00006597 x19:0x13ec0000  x8=0x00006597
       40185000	      4017	80004770	ff2e4e83	lbu	x29,-14(x28)	 x28:0x8000848b x29=0x000000c0 PA:0x8000847d
       40195000	      4018	80004774	ffae4383	lbu	x7,-6(x28)	 x28:0x8000848b  x7=0x0000003b PA:0x80008485
       40205000	      4019	80004778	ff0e0d03	lb	x26,-16(x28)	 x28:0x8000848b x26=0x00000047 PA:0x8000847b
       40215000	      4020	8000477c	00004617	auipc	x12,0x4	 x12=0x80008778
       40225000	      4021	80004780	0b960613	addi	x12,x12,185	 x12:0x80008778 x12=0x80008831
       40235000	      4022	80004784	008309b3	add	x19,x6,x8	  x6:0x00000073  x8:0x00006597 x19=0x0000660a
       40245000	      4023	80004788	41075d13	srai	x26,x14,0x10	 x14:0x00000000 x26=0x00000000
       40255000	      4024	8000478c	08d64383	lbu	x7,141(x12)	 x12:0x80008831  x7=0x00000087 PA:0x800088be
       40265000	      4025	80004790	00b60023	sb	x11,0(x12)	 x12:0x80008831 x11:0x00000545 PA:0x80008831
       40275000	      4026	80004794	07060483	lb	x9,112(x12)	 x12:0x80008831  x9=0xffffffd4 PA:0x800088a1
       40285000	      4027	80004798	0e761e03	lh	x28,231(x12)	 x12:0x80008831 x28=0xfffffc00 PA:0x80008918
       40295000	      4028	8000479c	706dc813	xori	x16,x27,1798	 x27:0x0000007c x16=0x0000077a
       40305000	      4029	800047a0	c7af7837	lui	x16,0xc7af7	 x16=0xc7af7000
       40315000	      4030	800047a4	0a761c83	lh	x25,167(x12)	 x12:0x80008831 x25=0x00001c78 PA:0x800088d8
       40325000	      4031	00000000	00000013	addi	x0,x0,0	  x0:0x00000000
       40335000	      4032	800047a8	019604a3	sb	x25,9(x12)	 x12:0x80008831 x25:0x00001c78 PA:0x8000883a
       40345000	      4033	800047ac	09d60b83	lb	x23,157(x12)	 x12:0x80008831 x23=0x00000065 PA:0x800088ce
       40355000	      4034	800047b0	015e24b3	slt	x9,x28,x21	 x28:0xfffffc00 x21:0x00000028  x9=0x00000001
       40365000	      4035	800047b4	00000013	addi	x0,x0,0	  x0:0x00000000
       40375000	      4036	800047b8	a8327b17	auipc	x22,0xa8327	 x22=0x2832b7b4
       40385000	      4037	800047bc	09960d03	lb	x26,153(x12)	 x12:0x80008831 x26=0x00000044 PA:0x800088ca
       40395000	      4038	800047c0	02e64a83	lbu	x21,46(x12)	 x12:0x80008831 x21=0x0000000c PA:0x8000885f
       40405000	      4039	800047c4	01c4f933	and	x18,x9,x28	  x9:0x00000001 x28:0xfffffc00 x18=0x00000000
       40415000	      4040	800047c8	008618a3	sh	x8,17(x12)	 x12:0x80008831  x8:0x00006597 PA:0x80008842
       40425000	      4041	800047cc	008f17b3	sll	x15,x30,x8	 x30:0x000000d5  x8:0x00006597 x15=0x6a800000
       40435000	      4042	800047d0	17248593	addi	x11,x9,370	  x9:0x00000001 x11=0x00000173
       40445000	      4043	800047d4	02760023	sb	x7,32(x12)	 x12:0x80008831  x7:0x00000087 PA:0x80008851
       40455000	      4044	800047d8	00004b97	auipc	x23,0x4	 x23=0x800087d4
       40465000	      4045	800047dc	8f2b8b93	addi	x23,x23,-1806	 x23:0x800087d4 x23=0x800080c6
       40475000	      4046	800047e0	014d9933	sll	x18,x27,x20	 x27:0x0000007c x20:0xffffffa4 x18=0x000007c0
       40485000	      4047	800047e4	02db89a3	sb	x13,51(x23)	 x23:0x800080c6 x13:0x00000001 PA:0x800080f9
       40495000	      4048	800047e8	03bb9c23	sh	x27,56(x23)	 x23:0x800080c6 x27:0x0000007c PA:0x800080fe
       40505000	      4049	800047ec	000b75b3	and	x11,x22,x0	 x22:0x2832b7b4  x0:0x00000000 x11=0x00000000
       40515000	      4050	800047f0	00000013	addi	x0,x0,0	  x0:0x00000000
       40525000	      4051	800047f4	af5e6113	ori	x2,x28,-1291	 x28:0xfffffc00  x2=0xfffffef5
       40535000	      4052	800047f8	024bc483	lbu	x9,36(x23)	 x23:0x800080c6  x9=0x000000d1 PA:0x800080ea
       40545000	      4053	800047fc	fcbb80a3	sb	x11,-63(x23)	 x23:0x800080c6 x11:0x00000000 PA:0x80008087
       40555000	      4054	80004800	004b8ca3	sb	x4,25(x23)	 x23:0x800080c6  x4:0x0000003b PA:0x800080df
       40565000	      4055	80004804	70162a93	slti	x21,x12,1793	 x12:0x80008831 x21=0x00000001
       40575000	      4056	80004808	a465a793	slti	x15,x11,-1466	 x11:0x00000000 x15=0x00000000
       40585000	      4057	8000480c	009cc6b3	xor	x13,x25,x9	 x25:0x00001c78  x9:0x000000d1 x13=0x00001ca9
       40595000	      4058	80004810	010b82a3	sb	x16,5(x23)	 x23:0x800080c6 x16:0xc7af7000 PA:0x800080cb
       40605000	      4059	80004814	016bdd03	lhu	x26,22(x23)	 x23:0x800080c6 x26=0x00002426 PA:0x800080dc
       40615000	      4060	80004818	000fc033	xor	x0,x31,x0	 x31:0x80009fc4  x0:0x00000000
       40625000	      4061	8000481c	014bd483	lhu	x9,20(x23)	 x23:0x800080c6  x9=0x0000e17c PA:0x800080da
       40635000	      4062	80004820	02db8ba3	sb	x13,55(x23)	 x23:0x800080c6 x13:0x00001ca9 PA:0x800080fd
       40645000	      4063	80004824	03bb8603	lb	x12,59(x23)	 x23:0x800080c6 x12=0xffffff8a PA:0x80008101
       40655000	      4064	80004828	03db81a3	sb	x29,35(x23)	 x23:0x800080c6 x29:0x000000c0 PA:0x800080e9
       40665000	      4065	8000482c	010dc133	xor	x2,x27,x16	 x27:0x0000007c x16:0xc7af7000  x2=0xc7af707c
       40675000	      4066	80004830	1e80ca13	xori	x20,x1,488	  x1:0x239f0072 x20=0x239f019a
       40685000	      4067	80004834	ff7b8ca3	sb	x23,-7(x23)	 x23:0x800080c6 x23:0x800080c6 PA:0x800080bf
       40695000	      4068	80004838	015bc103	lbu	x2,21(x23)	 x23:0x800080c6  x2=0x000000e1 PA:0x800080db
       40705000	      4069	8000483c	0187fa63	bgeu	x15,x24,80004850	 x15:0x00000000 x24:0x000000ca
       40715000	      4070	80004840	f5223213	sltiu	x4,x4,-174	  x4:0x0000003b  x4=0x00000001
       40725000	      4071	80004844	008a1e13	slli	x28,x20,0x8	 x20:0x239f019a x28=0x9f019a00
       40735000	      4072	80004848	013813b3	sll	x7,x16,x19	 x16:0xc7af7000 x19:0x0000660a  x7=0xbdc00000
       40745000	      4073	8000484c	4160da13	srai	x20,x1,0x16	  x1:0x239f0072 x20=0x0000008e
       40755000	      4074	80004850	de4abe17	auipc	x28,0xde4ab	 x28=0x5e4af84c
       40765000	      4075	80004854	00c6cc33	xor	x24,x13,x12	 x13:0x00001ca9 x12:0xffffff8a x24=0xffffe323
       40775000	      4076	80004858	012f1e13	slli	x28,x30,0x12	 x30:0x000000d5 x28=0x03540000
       40785000	      4077	8000485c	009cc663	blt	x25,x9,80004868	 x25:0x00001c78  x9:0x0000e17c
       40795000	      4078	00000000	00000013	addi	x0,x0,0	  x0:0x00000000
       40805000	      4079	80004864	00000013	addi	x0,x0,0	  x0:0x00000000
       40815000	      4080	80004868	017b1eb3	sll	x29,x22,x23	 x22:0x2832b7b4 x23:0x800080c6 x29=0x0caded00
       40825000	      4081	8000486c	c4863e93	sltiu	x29,x12,-952	 x12:0xffffff8a x29=0x00000000
       40835000	      4082	80004870	0444f063	bgeu	x9,x4,800048b0	  x9:0x0000e17c  x4:0x00000001
       40845000	      4083	00000000	00000013	addi	x0,x0,0	  x0:0x00000000
       40855000	      4084	800048ac	00000013	addi	x0,x0,0	  x0:0x00000000
       40865000	      4085	800048b0	00340263	beq	x8,x3,800048b4	  x8:0x00006597  x3:0x00000050
       40875000	      4086	800048b4	111abe37	lui	x28,0x111ab	 x28=0x111ab000
       40885000	      4087	800048b8	41c7d013	srai	x0,x15,0x1c	 x15:0x00000000
       40895000	      4088	800048bc	51b0e093	ori	x1,x1,1307	  x1:0x239f0072  x1=0x239f057b
       40905000	      4089	800048c0	04c07263	bgeu	x0,x12,80004904	  x0:0x00000000 x12:0xffffff8a
       40915000	      4090	800048c4	02a58063	beq	x11,x10,800048e4	 x11:0x00000000 x10:0x00000000
       40925000	      4091	00000000	00000013	addi	x0,x0,0	  x0:0x00000000
       40935000	      4092	800048e0	00000013	addi	x0,x0,0	  x0:0x00000000
       40945000	      4093	800048e4	002d1a63	bne	x26,x2,800048f8	 x26:0x00002426  x2:0x000000e1
       40955000	      4094	00000000	00000013	addi	x0,x0,0	  x0:0x00000000
       40965000	      4095	800048f4	00000013	addi	x0,x0,0	  x0:0x00000000
       40975000	      4096	800048f8	00ca86b3	add	x13,x21,x12	 x21:0x00000001 x12:0xffffff8a x13=0xffffff8b
       40985000	      4097	800048fc	40138db3	sub	x27,x7,x1	  x7:0xbdc00000  x1:0x239f057b x27=0x9a20fa85
       40995000	      4098	80004900	00007eb3	and	x29,x0,x0	  x0:0x00000000  x0:0x00000000 x29=0x00000000
       41005000	      4099	80004904	01634833	xor	x16,x6,x22	  x6:0x00000073 x22:0x2832b7b4 x16=0x2832b7c7
       41015000	      4100	80004908	0016aa33	slt	x20,x13,x1	 x13:0xffffff8b  x1:0x239f057b x20=0x00000001
       41025000	      4101	8000490c	bf96e913	ori	x18,x13,-1031	 x13:0xffffff8b x18=0xfffffffb
       41035000	      4102	80004910	0004bf33	sltu	x30,x9,x0	  x9:0x0000e17c  x0:0x00000000 x30=0x00000000
       41045000	      4103	80004914	40335e13	srai	x28,x6,0x3	  x6:0x00000073 x28=0x0000000e
       41055000	      4104	80004918	0109d093	srli	x1,x19,0x10	 x19:0x0000660a  x1=0x00000000
       41065000	      4105	8000491c	01b915b3	sll	x11,x18,x27	 x18:0xfffffffb x27:0x9a20fa85 x11=0xffffff60
       41075000	      4106	80004920	00e5e5b3	or	x11,x11,x14	 x11:0xffffff60 x14:0x00000000 x11=0xffffff60
       41085000	      4107	80004924	02799a63	bne	x19,x7,80004958	 x19:0x0000660a  x7:0xbdc00000
       41095000	      4108	00000000	00000013	addi	x0,x0,0	  x0:0x00000000
       41105000	      4109	80004954	00000013	addi	x0,x0,0	  x0:0x00000000
       41115000	      4110	80004958	418450b3	sra	x1,x8,x24	  x8:0x00006597 x24:0xffffe323  x1=0x00000cb2
       41125000	      4111	8000495c	00835933	srl	x18,x6,x8	  x6:0x00000073  x8:0x00006597 x18=0x00000000
       41135000	      4112	80004960	4f7cc113	xori	x2,x25,1271	 x25:0x00001c78  x2=0x0000188f
       41145000	      4113	80004964	0162f0b3	and	x1,x5,x22	  x5:0x00000029 x22:0x2832b7b4  x1=0x00000020
       41155000	      4114	80004968	01062833	slt	x16,x12,x16	 x12:0xffffff8a x16:0x2832b7c7 x16=0x00000001
       41165000	      4115	8000496c	01ad5e33	srl	x28,x26,x26	 x26:0x00002426 x26:0x00002426 x28=0x00000090
       41175000	      4116	80004970	6e494c93	xori	x25,x18,1764	 x18:0x00000000 x25=0x000006e4
       41185000	      4117	80004974	69ae0117	auipc	x2,0x69ae0	  x2=0xe9ae4970
       41195000	      4118	80004978	056b0263	beq	x22,x22,800049bc	 x22:0x2832b7b4 x22:0x2832b7b4
       41205000	      4119	00000000	00000013	addi	x0,x0,0	  x0:0x00000000
       41215000	      4120	800049b8	00000013	addi	x0,x0,0	  x0:0x00000000
       41225000	      4121	800049bc	04590263	beq	x18,x5,80004a00	 x18:0x00000000  x5:0x00000029
       41235000	      4122	800049c0	00a4f1b3	and	x3,x9,x10	  x9:0x0000e17c x10:0x00000000  x3=0x00000000
       41245000	      4123	800049c4	00f2f433	and	x8,x5,x15	  x5:0x00000029 x15:0x00000000  x8=0x00000000
       41255000	      4124	800049c8	00e09a33	sll	x20,x1,x14	  x1:0x00000020 x14:0x00000000 x20=0x00000020
       41265000	      4125	800049cc	011c1333	sll	x6,x24,x17	 x24:0xffffe323 x17:0x80009f60  x6=0xffffe323
       41275000	      4126	800049d0	401a5a13	srai	x20,x20,0x1	 x20:0x00000020 x20=0x00000010
       41285000	      4127	800049d4	014a4263	blt	x20,x20,800049d8	 x20:0x00000010 x20:0x00000010
       41295000	      4128	800049d8	419205b3	sub	x11,x4,x25	  x4:0x00000001 x25:0x000006e4 x11=0xfffff91d
       41305000	      4129	800049dc	9b08aa13	slti	x20,x17,-1616	 x17:0x80009f60 x20=0x00000001
       41315000	      4130	800049e0	01d75463	bge	x14,x29,800049e8	 x14:0x00000000 x29:0x00000000
       41325000	      4131	00000000	00000013	addi	x0,x0,0	  x0:0x00000000
       41335000	      4132	800049e4	00000013	addi	x0,x0,0	  x0:0x00000000
       41345000	      4133	800049e8	03307663	bgeu	x0,x19,80004a14	  x0:0x00000000 x19:0x0000660a
       41355000	      4134	800049ec	01273333	sltu	x6,x14,x18	 x14:0x00000000 x18:0x00000000  x6=0x00000000
       41365000	      4135	800049f0	41bed533	sra	x10,x29,x27	 x29:0x00000000 x27:0x9a20fa85 x10=0x00000000
       41375000	      4136	800049f4	cbe09c37	lui	x24,0xcbe09	 x24=0xcbe09000
       41385000	      4137	800049f8	40c08633	sub	x12,x1,x12	  x1:0x00000020 x12:0xffffff8a x12=0x00000096
       41395000	      4138	800049fc	038e0663	beq	x28,x24,80004a28	 x28:0x00000090 x24:0xcbe09000
       41405000	      4139	80004a00	41bcd193	srai	x3,x25,0x1b	 x25:0x000006e4  x3=0x00000000
       41415000	      4140	80004a04	00c3b933	sltu	x18,x7,x12	  x7:0xbdc00000 x12:0x00000096 x18=0x00000000
       41425000	      4141	80004a08	afdaaa97	auipc	x21,0xafdaa	 x21=0x2fdaea04
       41435000	      4142	80004a0c	0aedfe13	andi	x28,x27,174	 x27:0x9a20fa85 x28=0x00000084
       41445000	      4143	80004a10	01385a63	bge	x16,x19,80004a24	 x16:0x00000001 x19:0x0000660a
       41455000	      4144	80004a14	00000013	addi	x0,x0,0	  x0:0x00000000
       41465000	      4145	80004a18	f033f093	andi	x1,x7,-253	  x7:0xbdc00000  x1=0xbdc00000
       41475000	      4146	80004a1c	62476097	auipc	x1,0x62476	  x1=0xe247aa18
       41485000	      4147	80004a20	b1293f13	sltiu	x30,x18,-1262	 x18:0x00000000 x30=0x00000001
       41495000	      4148	80004a24	24c0a417	auipc	x8,0x24c0a	  x8=0xa4c0ea20
       41505000	      4149	80004a28	026aea63	bltu	x21,x6,80004a5c	 x21:0x2fdaea04  x6:0x00000000
       41515000	      4150	80004a2c	d5b13b93	sltiu	x23,x2,-677	  x2:0xe9ae4970 x23=0x00000001
       41525000	      4151	80004a30	fee3ce93	xori	x29,x7,-18	  x7:0xbdc00000 x29=0x423fffee
       41535000	      4152	80004a34	05feac17	auipc	x24,0x5fea	 x24=0x85feea30
       41545000	      4153	80004a38	01bcadb3	slt	x27,x25,x27	 x25:0x000006e4 x27:0x9a20fa85 x27=0x00000000
       41555000	      4154	80004a3c	41be5093	srai	x1,x28,0x1b	 x28:0x00000084  x1=0x00000000
       41565000	      4155	80004a40	fe7fe213	ori	x4,x31,-25	 x31:0x80009fc4  x4=0xffffffe7
       41575000	      4156	80004a44	0031ca33	xor	x20,x3,x3	  x3:0x00000000  x3:0x00000000 x20=0x00000000
       41585000	      4157	80004a48	40f55293	srai	x5,x10,0xf	 x10:0x00000000  x5=0x00000000
       41595000	      4158	80004a4c	00c9f7b3	and	x15,x19,x12	 x19:0x0000660a x12:0x00000096 x15=0x00000002
       41605000	      4159	80004a50	00cfc133	xor	x2,x31,x12	 x31:0x80009fc4 x12:0x00000096  x2=0x80009f52
       41615000	      4160	80004a54	f5830b93	addi	x23,x6,-168	  x6:0x00000000 x23=0xffffff58
       41625000	      4161	80004a58	015dc7b3	xor	x15,x27,x21	 x27:0x00000000 x21:0x2fdaea04 x15=0x2fdaea04
       41635000	      4162	80004a5c	01d434b3	sltu	x9,x8,x29	  x8:0xa4c0ea20 x29:0x423fffee  x9=0x00000000
       41645000	      4163	80004a60	051ef663	bgeu	x29,x17,80004aac	 x29:0x423fffee x17:0x80009f60
       41655000	      4164	80004a64	015e5b13	srli	x22,x28,0x15	 x28:0x00000084 x22=0x00000000
       41665000	      4165	80004a68	01079b33	sll	x22,x15,x16	 x15:0x2fdaea04 x16:0x00000001 x22=0x5fb5d408
       41675000	      4166	80004a6c	00b0e833	or	x16,x1,x11	  x1:0x00000000 x11:0xfffff91d x16=0xfffff91d
       41685000	      4167	80004a70	79247cb7	lui	x25,0x79247	 x25=0x79247000
       41695000	      4168	80004a74	00785213	srli	x4,x16,0x7	 x16:0xfffff91d  x4=0x01fffff2
       41705000	      4169	80004a78	00b71593	slli	x11,x14,0xb	 x14:0x00000000 x11=0x00000000
       41715000	      4170	80004a7c	00ea9e13	slli	x28,x21,0xe	 x21:0x2fdaea04 x28=0xba810000
       41725000	      4171	80004a80	c8542093	slti	x1,x8,-891	  x8:0xa4c0ea20  x1=0x00000001
       41735000	      4172	80004a84	02d98663	beq	x19,x13,80004ab0	 x19:0x0000660a x13:0xffffff8b
       41745000	      4173	80004a88	00b85a63	bge	x16,x11,80004a9c	 x16:0xfffff91d x11:0x00000000
       41755000	      4174	80004a8c	01470333	add	x6,x14,x20	 x14:0x00000000 x20:0x00000000  x6=0x00000000
       41765000	      4175	80004a90	c096ad13	slti	x26,x13,-1015	 x13:0xffffff8b x26=0x00000000
       41775000	      4176	80004a94	001e6eb3	or	x29,x28,x1	 x28:0xba810000  x1:0x00000001 x29=0xba810001
       41785000	      4177	80004a98	40a15b93	srai	x23,x2,0xa	  x2:0x80009f52 x23=0xffe00027
       41795000	      4178	80004a9c	41f20633	sub	x12,x4,x31	  x4:0x01fffff2 x31:0x80009fc4 x12=0x81ff602e
       41805000	      4179	80004aa0	70444a37	lui	x20,0x70444	 x20=0x70444000
       41815000	      4180	80004aa4	01a27263	bgeu	x4,x26,80004aa8	  x4:0x01fffff2 x26:0x00000000
       41825000	      4181	00000000	00000013	addi	x0,x0,0	  x0:0x00000000
       41835000	      4182	80004aa4	00000013	addi	x0,x0,0	  x0:0x00000000
       41845000	      4183	80004aa8	41d55c93	srai	x25,x10,0x1d	 x10:0x00000000 x25=0x00000000
       41855000	      4184	80004aac	03affc63	bgeu	x31,x26,80004ae4	 x31:0x80009fc4 x26:0x00000000
       41865000	      4185	00000000	00000013	addi	x0,x0,0	  x0:0x00000000
       41875000	      4186	80004ae0	00000013	addi	x0,x0,0	  x0:0x00000000
       41885000	      4187	80004ae4	00b9df13	srli	x30,x19,0xb	 x19:0x0000660a x30=0x0000000c
       41895000	      4188	80004ae8	bf212593	slti	x11,x2,-1038	  x2:0x80009f52 x11=0x00000001
       41905000	      4189	80004aec	001b6833	or	x16,x22,x1	 x22:0x5fb5d408  x1:0x00000001 x16=0x5fb5d409
       41915000	      4190	80004af0	acfbb337	lui	x6,0xacfbb	  x6=0xacfbb000
       41925000	      4191	80004af4	00000013	addi	x0,x0,0	  x0:0x00000000
       41935000	      4192	80004af8	7adafd13	andi	x26,x21,1965	 x21:0x2fdaea04 x26=0x00000204
       41945000	      4193	80004afc	417cd833	sra	x16,x25,x23	 x25:0x00000000 x23:0xffe00027 x16=0x00000000
       41955000	      4194	80004b00	b26f8393	addi	x7,x31,-1242	 x31:0x80009fc4  x7=0x80009aea
       41965000	      4195	80004b04	fafa8293	addi	x5,x21,-81	 x21:0x2fdaea04  x5=0x2fdae9b3
       41975000	      4196	80004b08	9c52a413	slti	x8,x5,-1595	  x5:0x2fdae9b3  x8=0x00000000
       41985000	      4197	80004b0c	036d5463	bge	x26,x22,80004b34	 x26:0x00000204 x22:0x5fb5d408
       41995000	      4198	80004b10	01a6e933	or	x18,x13,x26	 x13:0xffffff8b x26:0x00000204 x18=0xffffff8f
       42005000	      4199	80004b14	0027e133	or	x2,x15,x2	 x15:0x2fdaea04  x2:0x80009f52  x2=0xafdaff56
       42015000	      4200	80004b18	01717d33	and	x26,x2,x23	  x2:0xafdaff56 x23:0xffe00027 x26=0xafc00006
       42025000	      4201	80004b1c	1eed4793	xori	x15,x26,494	 x26:0xafc00006 x15=0xafc001e8
       42035000	      4202	80004b20	016071b3	and	x3,x0,x22	  x0:0x00000000 x22:0x5fb5d408  x3=0x00000000
       42045000	      4203	80004b24	dd484b37	lui	x22,0xdd484	 x22=0xdd484000
       42055000	      4204	80004b28	6ce6b693	sltiu	x13,x13,1742	 x13:0xffffff8b x13=0x00000000
       42065000	      4205	80004b2c	1e862b13	slti	x22,x12,488	 x12:0x81ff602e x22=0x00000001
       42075000	      4206	80004b30	80fd8913	addi	x18,x27,-2033	 x27:0x00000000 x18=0xfffff80f
       42085000	      4207	80004b34	015bd863	bge	x23,x21,80004b44	 x23:0xffe00027 x21:0x2fdaea04
       42095000	      4208	80004b38	0022bc33	sltu	x24,x5,x2	  x5:0x2fdae9b3  x2:0xafdaff56 x24=0x00000001
       42105000	      4209	80004b3c	01472c33	slt	x24,x14,x20	 x14:0x00000000 x20:0x70444000 x24=0x00000001
       42115000	      4210	80004b40	00781013	slli	x0,x16,0x7	 x16:0x00000000
       42125000	      4211	80004b44	00a95793	srli	x15,x18,0xa	 x18:0xfffff80f x15=0x003ffffe
       42135000	      4212	80004b48	01a14db3	xor	x27,x2,x26	  x2:0xafdaff56 x26:0xafc00006 x27=0x001aff50
       42145000	      4213	80004b4c	1a5d0e93	addi	x29,x26,421	 x26:0xafc00006 x29=0xafc001ab
       42155000	      4214	80004b50	2cff7513	andi	x10,x30,719	 x30:0x0000000c x10=0x0000000c
       42165000	      4215	80004b54	99a48393	addi	x7,x9,-1638	  x9:0x00000000  x7=0xfffff99a
       42175000	      4216	80004b58	5a984693	xori	x13,x16,1449	 x16:0x00000000 x13=0x000005a9
       42185000	      4217	80004b5c	00905613	srli	x12,x0,0x9	  x0:0x00000000 x12=0x00000000
       42195000	      4218	80004b60	1e066c13	ori	x24,x12,480	 x12:0x00000000 x24=0x000001e0
       42205000	      4219	80004b64	01f66c63	bltu	x12,x31,80004b7c	 x12:0x00000000 x31:0x80009fc4
       42215000	      4220	00000000	00000013	addi	x0,x0,0	  x0:0x00000000
       42225000	      4221	80004b78	00000013	addi	x0,x0,0	  x0:0x00000000
       42235000	      4222	80004b7c	01961a63	bne	x12,x25,80004b90	 x12:0x00000000 x25:0x00000000
       42245000	      4223	80004b80	01570263	beq	x14,x21,80004b84	 x14:0x00000000 x21:0x2fdaea04
       42255000	      4224	80004b84	bc5c6013	ori	x0,x24,-1083	 x24:0x000001e0
       42265000	      4225	80004b88	0164ae33	slt	x28,x9,x22	  x9:0x00000000 x22:0x00000001 x28=0x00000001
       42275000	      4226	80004b8c	a6862197	auipc	x3,0xa6862	  x3=0x26866b88
       42285000	      4227	80004b90	04a6f263	bgeu	x13,x10,80004bd4	 x13:0x000005a9 x10:0x0000000c
       42295000	      4228	00000000	00000013	addi	x0,x0,0	  x0:0x00000000
       42305000	      4229	80004bd0	00000013	addi	x0,x0,0	  x0:0x00000000
       42315000	      4230	80004bd4	9e267793	andi	x15,x12,-1566	 x12:0x00000000 x15=0x00000000
       42325000	      4231	80004bd8	01948a33	add	x20,x9,x25	  x9:0x00000000 x25:0x00000000 x20=0x00000000
       42335000	      4232	80004bdc	4127d513	srai	x10,x15,0x12	 x15:0x00000000 x10=0x00000000
       42345000	      4233	80004be0	897fa993	slti	x19,x31,-1897	 x31:0x80009fc4 x19=0x00000001
       42355000	      4234	80004be4	0143f663	bgeu	x7,x20,80004bf0	  x7:0xfffff99a x20:0x00000000
       42365000	      4235	00000000	00000013	addi	x0,x0,0	  x0:0x00000000
       42375000	      4236	80004bec	00000013	addi	x0,x0,0	  x0:0x00000000
       42385000	      4237	80004bf0	029cc263	blt	x25,x9,80004c14	 x25:0x00000000  x9:0x00000000
       42395000	      4238	80004bf4	00ff43b3	xor	x7,x30,x15	 x30:0x0000000c x15:0x00000000  x7=0x0000000c
       42405000	      4239	80004bf8	013e95b3	sll	x11,x29,x19	 x29:0xafc001ab x19:0x00000001 x11=0x5f800356
       42415000	      4240	80004bfc	00000013	addi	x0,x0,0	  x0:0x00000000
       42425000	      4241	80004c00	41d789b3	sub	x19,x15,x29	 x15:0x00000000 x29:0xafc001ab x19=0x503ffe55
       42435000	      4242	80004c04	01f4d093	srli	x1,x9,0x1f	  x9:0x00000000  x1=0x00000000
       42445000	      4243	80004c08	798f8413	addi	x8,x31,1944	 x31:0x80009fc4  x8=0x8000a75c
       42455000	      4244	80004c0c	00575133	srl	x2,x14,x5	 x14:0x00000000  x5:0x2fdae9b3  x2=0x00000000
       42465000	      4245	80004c10	00c605b3	add	x11,x12,x12	 x12:0x00000000 x12:0x00000000 x11=0x00000000
       42475000	      4246	80004c14	01d9ed33	or	x26,x19,x29	 x19:0x503ffe55 x29:0xafc001ab x26=0xffffffff
       42485000	      4247	80004c18	016f7e33	and	x28,x30,x22	 x30:0x0000000c x22:0x00000001 x28=0x00000000
       42495000	      4248	80004c1c	00cd91b3	sll	x3,x27,x12	 x27:0x001aff50 x12:0x00000000  x3=0x001aff50
       42505000	      4249	80004c20	00a6cbb3	xor	x23,x13,x10	 x13:0x000005a9 x10:0x00000000 x23=0x000005a9
       42515000	      4250	80004c24	6bb4bd17	auipc	x26,0x6bb4b	 x26=0xebb4fc20
       42525000	      4251	80004c28	00636c63	bltu	x6,x6,80004c40	  x6:0xacfbb000  x6:0xacfbb000
       42535000	      4252	80004c2c	41825c13	srai	x24,x4,0x18	  x4:0x01fffff2 x24=0x00000001
       42545000	      4253	80004c30	019e1c63	bne	x28,x25,80004c48	 x28:0x00000000 x25:0x00000000
       42555000	      4254	80004c34	45d66b13	ori	x22,x12,1117	 x12:0x00000000 x22=0x0000045d
       42565000	      4255	80004c38	00737f33	and	x30,x6,x7	  x6:0xacfbb000  x7:0x0000000c x30=0x00000000
       42575000	      4256	80004c3c	00d1dcb3	srl	x25,x3,x13	  x3:0x001aff50 x13:0x000005a9 x25=0x00000d7f
       42585000	      4257	80004c40	02613313	sltiu	x6,x2,38	  x2:0x00000000  x6=0x00000001
       42595000	      4258	80004c44	008bdc33	srl	x24,x23,x8	 x23:0x000005a9  x8:0x8000a75c x24=0x00000000
       42605000	      4259	80004c48	002ffcb3	and	x25,x31,x2	 x31:0x80009fc4  x2:0x00000000 x25=0x00000000
       42615000	      4260	80004c4c	569e8793	addi	x15,x29,1385	 x29:0xafc001ab x15=0xafc00714
       42625000	      4261	80004c50	6c5eca13	xori	x20,x29,1733	 x29:0xafc001ab x20=0xafc0076e
       42635000	      4262	80004c54	408ad533	sra	x10,x21,x8	 x21:0x2fdaea04  x8:0x8000a75c x10=0x00000002
       42645000	      4263	80004c58	0153ad33	slt	x26,x7,x21	  x7:0x0000000c x21:0x2fdaea04 x26=0x00000001
       42655000	      4264	80004c5c	822ff193	andi	x3,x31,-2014	 x31:0x80009fc4  x3=0x80009800
       42665000	      4265	80004c60	01b2d113	srli	x2,x5,0x1b	  x5:0x2fdae9b3  x2=0x00000005
       42675000	      4266	80004c64	02c7c863	blt	x15,x12,80004c94	 x15:0xafc00714 x12:0x00000000
       42685000	      4267	00000000	00000013	addi	x0,x0,0	  x0:0x00000000
       42695000	      4268	80004c90	00000013	addi	x0,x0,0	  x0:0x00000000
       42705000	      4269	80004c94	01f099b3	sll	x19,x1,x31	  x1:0x00000000 x31:0x80009fc4 x19=0x00000000
       42715000	      4270	80004c98	c4e9fc93	andi	x25,x19,-946	 x19:0x00000000 x25=0x00000000
       42725000	      4271	80004c9c	00000013	addi	x0,x0,0	  x0:0x00000000
       42735000	      4272	80004ca0	0060fc33	and	x24,x1,x6	  x1:0x00000000  x6:0x00000001 x24=0x00000000
       42745000	      4273	80004ca4	0092f533	and	x10,x5,x9	  x5:0x2fdae9b3  x9:0x00000000 x10=0x00000000
       42755000	      4274	80004ca8	01361f13	slli	x30,x12,0x13	 x12:0x00000000 x30=0x00000000
       42765000	      4275	80004cac	005f36b3	sltu	x13,x30,x5	 x30:0x00000000  x5:0x2fdae9b3 x13=0x00000001
       42775000	      4276	80004cb0	05ace663	bltu	x25,x26,80004cfc	 x25:0x00000000 x26:0x00000001
       42785000	      4277	00000000	00000013	addi	x0,x0,0	  x0:0x00000000
       42795000	      4278	80004cf8	00000013	addi	x0,x0,0	  x0:0x00000000
       42805000	      4279	80004cfc	01b74e33	xor	x28,x14,x27	 x14:0x00000000 x27:0x001aff50 x28=0x001aff50
       42815000	      4280	80004d00	00fd8a63	beq	x27,x15,80004d14	 x27:0x001aff50 x15:0xafc00714
       42825000	      4281	80004d04	f5634013	xori	x0,x6,-170	  x6:0x00000001
       42835000	      4282	80004d08	1d9eab13	slti	x22,x29,473	 x29:0xafc001ab x22=0x00000001
       42845000	      4283	80004d0c	ebad3693	sltiu	x13,x26,-326	 x26:0x00000001 x13=0x00000001
       42855000	      4284	80004d10	40e65293	srai	x5,x12,0xe	 x12:0x00000000  x5=0x00000000
       42865000	      4285	80004d14	00000013	addi	x0,x0,0	  x0:0x00000000
       42875000	      4286	80004d18	db188213	addi	x4,x17,-591	 x17:0x80009f60  x4=0x80009d11
       42885000	      4287	80004d1c	0b6c8d37	lui	x26,0xb6c8	 x26=0x0b6c8000
       42895000	      4288	80004d20	0500e263	bltu	x1,x16,80004d64	  x1:0x00000000 x16:0x00000000
       42905000	      4289	80004d24	02041663	bne	x8,x0,80004d50	  x8:0x8000a75c  x0:0x00000000
       42915000	      4290	00000000	00000013	addi	x0,x0,0	  x0:0x00000000
       42925000	      4291	80004d4c	00000013	addi	x0,x0,0	  x0:0x00000000
       42935000	      4292	80004d50	0a51fa93	andi	x21,x3,165	  x3:0x80009800 x21=0x00000000
       42945000	      4293	80004d54	017c5a93	srli	x21,x24,0x17	 x24:0x00000000 x21=0x00000000
       42955000	      4294	80004d58	01ffda63	bge	x31,x31,80004d6c	 x31:0x80009fc4 x31:0x80009fc4
       42965000	      4295	00000000	00000013	addi	x0,x0,0	  x0:0x00000000
       42975000	      4296	80004d68	00000013	addi	x0,x0,0	  x0:0x00000000
       42985000	      4297	80004d6c	01d35393	srli	x7,x6,0x1d	  x6:0x00000001  x7=0x00000000
       42995000	      4298	80004d70	0063eeb3	or	x29,x7,x6	  x7:0x00000000  x6:0x00000001 x29=0x00000001
       43005000	      4299	80004d74	037c4863	blt	x24,x23,80004da4	 x24:0x00000000 x23:0x000005a9
       43015000	      4300	00000000	00000013	addi	x0,x0,0	  x0:0x00000000
       43025000	      4301	80004da0	00000013	addi	x0,x0,0	  x0:0x00000000
       43035000	      4302	80004da4	00ba5633	srl	x12,x20,x11	 x20:0xafc0076e x11:0x00000000 x12=0xafc0076e
       43045000	      4303	80004da8	011b5a93	srli	x21,x22,0x11	 x22:0x00000001 x21=0x00000000
       43055000	      4304	80004dac	01f00933	add	x18,x0,x31	  x0:0x00000000 x31:0x80009fc4 x18=0x80009fc4
       43065000	      4305	80004db0	00c24333	xor	x6,x4,x12	  x4:0x80009d11 x12:0xafc0076e  x6=0x2fc09a7f
       43075000	      4306	80004db4	01b29813	slli	x16,x5,0x1b	  x5:0x00000000 x16=0x00000000
       43085000	      4307	80004db8	625c8693	addi	x13,x25,1573	 x25:0x00000000 x13=0x00000625
       43095000	      4308	80004dbc	00c5bdb3	sltu	x27,x11,x12	 x11:0x00000000 x12:0xafc0076e x27=0x00000001
       43105000	      4309	80004dc0	0124de13	srli	x28,x9,0x12	  x9:0x00000000 x28=0x00000000
       43115000	      4310	80004dc4	a8097e93	andi	x29,x18,-1408	 x18:0x80009fc4 x29=0x80009a80
       43125000	      4311	80004dc8	034c1c63	bne	x24,x20,80004e00	 x24:0x00000000 x20:0xafc0076e
       43135000	      4312	00000000	00000013	addi	x0,x0,0	  x0:0x00000000
       43145000	      4313	80004dfc	00000013	addi	x0,x0,0	  x0:0x00000000
       43155000	      4314	80004e00	00cbe3b3	or	x7,x23,x12	 x23:0x000005a9 x12:0xafc0076e  x7=0xafc007ef
       43165000	      4315	80004e04	019a4c63	blt	x20,x25,80004e1c	 x20:0xafc0076e x25:0x00000000
       43175000	      4316	00000000	00000013	addi	x0,x0,0	  x0:0x00000000
       43185000	      4317	80004e18	00000013	addi	x0,x0,0	  x0:0x00000000
       43195000	      4318	80004e1c	0092e2b3	or	x5,x5,x9	  x5:0x00000000  x9:0x00000000  x5=0x00000000
       43205000	      4319	80004e20	ecad2413	slti	x8,x26,-310	 x26:0x0b6c8000  x8=0x00000000
       43215000	      4320	80004e24	008cd793	srli	x15,x25,0x8	 x25:0x00000000 x15=0x00000000
       43225000	      4321	80004e28	7e27e013	ori	x0,x15,2018	 x15:0x00000000
       43235000	      4322	80004e2c	4063d213	srai	x4,x7,0x6	  x7:0xafc007ef  x4=0xfebf001f
       43245000	      4323	80004e30	4008dbb3	sra	x23,x17,x0	 x17:0x80009f60  x0:0x00000000 x23=0x80009f60
       43255000	      4324	80004e34	ef9ba493	slti	x9,x23,-263	 x23:0x80009f60  x9=0x00000001
       43265000	      4325	80004e38	00f04033	xor	x0,x0,x15	  x0:0x00000000 x15:0x00000000
       43275000	      4326	80004e3c	0177e4b3	or	x9,x15,x23	 x15:0x00000000 x23:0x80009f60  x9=0x80009f60
       43285000	      4327	80004e40	036aeb93	ori	x23,x21,54	 x21:0x00000000 x23=0x00000036
       43295000	      4328	80004e44	0c195e63	bge	x18,x1,80004f20	 x18:0x80009fc4  x1:0x00000000
       43305000	      4329	80004e48	03239497	auipc	x9,0x3239	  x9=0x8323de44
       43315000	      4330	80004e4c	01171463	bne	x14,x17,80004e54	 x14:0x00000000 x17:0x80009f60
       43325000	      4331	00000000	00000013	addi	x0,x0,0	  x0:0x00000000
       43335000	      4332	80004e50	00000013	addi	x0,x0,0	  x0:0x00000000
       43345000	      4333	80004e54	b4cc0013	addi	x0,x24,-1204	 x24:0x00000000
       43355000	      4334	80004e58	016e95b3	sll	x11,x29,x22	 x29:0x80009a80 x22:0x00000001 x11=0x00013500
       43365000	      4335	80004e5c	004f9eb3	sll	x29,x31,x4	 x31:0x80009fc4  x4:0xfebf001f x29=0x00000000
       43375000	      4336	80004e60	00004117	auipc	x2,0x4	  x2=0x80008e5c
       43385000	      4337	80004e64	0c410113	addi	x2,x2,196	  x2:0x80008e5c  x2=0x80008f20
       43395000	      4338	80004e68	d67ceb93	ori	x23,x25,-665	 x25:0x00000000 x23=0xfffffd67
       43405000	      4339	80004e6c	f7910203	lb	x4,-135(x2)	  x2:0x80008f20  x4=0x00000030 PA:0x80008e99
       43415000	      4340	80004e70	2f498693	addi	x13,x19,756	 x19:0x00000000 x13=0x000002f4
       43425000	      4341	80004e74	f6398613	addi	x12,x19,-157	 x19:0x00000000 x12=0xffffff63
       43435000	      4342	80004e78	09f10803	lb	x16,159(x2)	  x2:0x80008f20 x16=0xffffff84 PA:0x80008fbf
       43445000	      4343	80004e7c	411a5813	srai	x16,x20,0x11	 x20:0xafc0076e x16=0xffffd7e0
       43455000	      4344	80004e80	006086b3	add	x13,x1,x6	  x1:0x00000000  x6:0x2fc09a7f x13=0x2fc09a7f
       43465000	      4345	80004e84	04710da3	sb	x7,91(x2)	  x2:0x80008f20  x7:0xafc007ef PA:0x80008f7b
       43475000	      4346	80004e88	01a291b3	sll	x3,x5,x26	  x5:0x00000000 x26:0x0b6c8000  x3=0x00000000
       43485000	      4347	80004e8c	005dd0b3	srl	x1,x27,x5	 x27:0x00000001  x5:0x00000000  x1=0x00000001
       43495000	      4348	80004e90	a322ddb7	lui	x27,0xa322d	 x27=0xa322d000
       43505000	      4349	80004e94	0a510a83	lb	x21,165(x2)	  x2:0x80008f20 x21=0x00000045 PA:0x80008fc5
       43515000	      4350	80004e98	2877ad17	auipc	x26,0x2877a	 x26=0xa877ee94
       43525000	      4351	80004e9c	012b47b3	xor	x15,x22,x18	 x22:0x00000001 x18:0x80009fc4 x15=0x80009fc5
       43535000	      4352	80004ea0	0bf11823	sh	x31,176(x2)	  x2:0x80008f20 x31:0x80009fc4 PA:0x80008fd0
       43545000	      4353	80004ea4	06860e13	addi	x28,x12,104	 x12:0xffffff63 x28=0xffffffcb
       43555000	      4354	80004ea8	a57d0493	addi	x9,x26,-1449	 x26:0xa877ee94  x9=0xa877e8eb
       43565000	      4355	80004eac	00897b33	and	x22,x18,x8	 x18:0x80009fc4  x8:0x00000000 x22=0x00000000
       43575000	      4356	80004eb0	5b730c13	addi	x24,x6,1463	  x6:0x2fc09a7f x24=0x2fc0a036
       43585000	      4357	80004eb4	f7210823	sb	x18,-144(x2)	  x2:0x80008f20 x18:0x80009fc4 PA:0x80008e90
       43595000	      4358	80004eb8	41d45b33	sra	x22,x8,x29	  x8:0x00000000 x29:0x00000000 x22=0x00000000
       43605000	      4359	80004ebc	fa410da3	sb	x4,-69(x2)	  x2:0x80008f20  x4:0x00000030 PA:0x80008edb
       43615000	      4360	80004ec0	000985b3	add	x11,x19,x0	 x19:0x00000000  x0:0x00000000 x11=0x00000000
       43625000	      4361	80004ec4	016bca33	xor	x20,x23,x22	 x23:0xfffffd67 x22:0x00000000 x20=0xfffffd67
       43635000	      4362	80004ec8	f4710583	lb	x11,-185(x2)	  x2:0x80008f20 x11=0x00000036 PA:0x80008e67
       43645000	      4363	80004ecc	016e74b3	and	x9,x28,x22	 x28:0xffffffcb x22:0x00000000  x9=0x00000000
       43655000	      4364	80004ed0	07f4bcb7	lui	x25,0x7f4b	 x25=0x07f4b000
       43665000	      4365	80004ed4	f4510b23	sb	x5,-170(x2)	  x2:0x80008f20  x5:0x00000000 PA:0x80008e76
       43675000	      4366	80004ed8	0c015083	lhu	x1,192(x2)	  x2:0x80008f20  x1=0x00008c8d PA:0x80008fe0
       43685000	      4367	80004edc	fb2106a3	sb	x18,-83(x2)	  x2:0x80008f20 x18:0x80009fc4 PA:0x80008ecd
       43695000	      4368	80004ee0	00000013	addi	x0,x0,0	  x0:0x00000000
       43705000	      4369	80004ee4	01437db3	and	x27,x6,x20	  x6:0x2fc09a7f x20:0xfffffd67 x27=0x2fc09867
       43715000	      4370	80004ee8	fc014003	lbu	x0,-64(x2)	  x2:0x80008f20 PA:0x80008ee0
       43725000	      4371	80004eec	00000013	addi	x0,x0,0	  x0:0x00000000
       43735000	      4372	80004ef0	fff10b03	lb	x22,-1(x2)	  x2:0x80008f20 x22=0x0000001f PA:0x80008f1f
       43745000	      4373	80004ef4	ff914783	lbu	x15,-7(x2)	  x2:0x80008f20 x15=0x00000057 PA:0x80008f19
       43755000	      4374	80004ef8	128eb913	sltiu	x18,x29,296	 x29:0x00000000 x18=0x00000001
       43765000	      4375	80004efc	0177da93	srli	x21,x15,0x17	 x15:0x00000057 x21=0x00000000
       43775000	      4376	80004f00	0f873793	sltiu	x15,x14,248	 x14:0x00000000 x15=0x00000001
       43785000	      4377	80004f04	11526913	ori	x18,x4,277	  x4:0x00000030 x18=0x00000135
       43795000	      4378	80004f08	03446263	bltu	x8,x20,80004f2c	  x8:0x00000000 x20:0xfffffd67
       43805000	      4379	00000000	00000013	addi	x0,x0,0	  x0:0x00000000
       43815000	      4380	80004f28	00000013	addi	x0,x0,0	  x0:0x00000000
       43825000	      4381	80004f2c	0459d663	bge	x19,x5,80004f78	 x19:0x00000000  x5:0x00000000
       43835000	      4382	00000000	00000013	addi	x0,x0,0	  x0:0x00000000
       43845000	      4383	80004f74	00000013	addi	x0,x0,0	  x0:0x00000000
       43855000	      4384	80004f78	00000013	addi	x0,x0,0	  x0:0x00000000
       43865000	      4385	80004f7c	01ffd793	srli	x15,x31,0x1f	 x31:0x80009fc4 x15=0x00000001
       43875000	      4386	80004f80	02b30663	beq	x6,x11,80004fac	  x6:0x2fc09a7f x11:0x00000036
       43885000	      4387	80004f84	41eb5b93	srai	x23,x22,0x1e	 x22:0x0000001f x23=0x00000000
       43895000	      4388	80004f88	054f1263	bne	x30,x20,80004fcc	 x30:0x00000000 x20:0xfffffd67
       43905000	      4389	00000000	00000013	addi	x0,x0,0	  x0:0x00000000
       43915000	      4390	80004fc8	00000013	addi	x0,x0,0	  x0:0x00000000
       43925000	      4391	80004fcc	0106ccb3	xor	x25,x13,x16	 x13:0x2fc09a7f x16:0xffffd7e0 x25=0xd03f4d9f
       43935000	      4392	80004fd0	00dfcbb3	xor	x23,x31,x13	 x31:0x80009fc4 x13:0x2fc09a7f x23=0xafc005bb
       43945000	      4393	80004fd4	710cbe93	sltiu	x29,x25,1808	 x25:0xd03f4d9f x29=0x00000000
       43955000	      4394	80004fd8	984dd697	auipc	x13,0x984dd	 x13=0x184e1fd4
       43965000	      4395	80004fdc	00e55b93	srli	x23,x10,0xe	 x10:0x00000000 x23=0x00000000
       43975000	      4396	80004fe0	01de0f33	add	x30,x28,x29	 x28:0xffffffcb x29:0x00000000 x30=0xffffffcb
       43985000	      4397	80004fe4	01799c63	bne	x19,x23,80004ffc	 x19:0x00000000 x23:0x00000000
       43995000	      4398	80004fe8	02a2fa63	bgeu	x5,x10,8000501c	  x5:0x00000000 x10:0x00000000
       44005000	      4399	00000000	00000013	addi	x0,x0,0	  x0:0x00000000
       44015000	      4400	80005018	00000013	addi	x0,x0,0	  x0:0x00000000
       44025000	      4401	8000501c	00261513	slli	x10,x12,0x2	 x12:0xffffff63 x10=0xfffffd8c
       44035000	      4402	80005020	007401b3	add	x3,x8,x7	  x8:0x00000000  x7:0xafc007ef  x3=0xafc007ef
       44045000	      4403	80005024	01001593	slli	x11,x0,0x10	  x0:0x00000000 x11=0x00000000
       44055000	      4404	80005028	5e564b93	xori	x23,x12,1509	 x12:0xffffff63 x23=0xfffffa86
       44065000	      4405	8000502c	0171ebb3	or	x23,x3,x23	  x3:0xafc007ef x23:0xfffffa86 x23=0xffffffef
       44075000	      4406	80005030	5c137c93	andi	x25,x6,1473	  x6:0x2fc09a7f x25=0x00000041
       44085000	      4407	80005034	00000013	addi	x0,x0,0	  x0:0x00000000
       44095000	      4408	80005038	0181b633	sltu	x12,x3,x24	  x3:0xafc007ef x24:0x2fc0a036 x12=0x00000000
       44105000	      4409	8000503c	01c61ab3	sll	x21,x12,x28	 x12:0x00000000 x28:0xffffffcb x21=0x00000000
       44115000	      4410	80005040	01ea9c13	slli	x24,x21,0x1e	 x21:0x00000000 x24=0x00000000
       44125000	      4411	80005044	7fcebbb7	lui	x23,0x7fceb	 x23=0x7fceb000
       44135000	      4412	80005048	01ca81b3	add	x3,x21,x28	 x21:0x00000000 x28:0xffffffcb  x3=0xffffffcb
       44145000	      4413	8000504c	0595e063	bltu	x11,x25,8000508c	 x11:0x00000000 x25:0x00000041
       44155000	      4414	00000000	00000013	addi	x0,x0,0	  x0:0x00000000
       44165000	      4415	80005088	00000013	addi	x0,x0,0	  x0:0x00000000
       44175000	      4416	8000508c	0019d493	srli	x9,x19,0x1	 x19:0x00000000  x9=0x00000000
       44185000	      4417	80005090	00250e63	beq	x10,x2,800050ac	 x10:0xfffffd8c  x2:0x80008f20
       44195000	      4418	80005094	01edc933	xor	x18,x27,x30	 x27:0x2fc09867 x30:0xffffffcb x18=0xd03f67ac
       44205000	      4419	80005098	ccb4fc13	andi	x24,x9,-821	  x9:0x00000000 x24=0x00000000
       44215000	      4420	8000509c	004180b3	add	x1,x3,x4	  x3:0xffffffcb  x4:0x00000030  x1=0xfffffffb
       44225000	      4421	800050a0	03f5fc63	bgeu	x11,x31,800050d8	 x11:0x00000000 x31:0x80009fc4
       44235000	      4422	800050a4	000bc7b3	xor	x15,x23,x0	 x23:0x7fceb000  x0:0x00000000 x15=0x7fceb000
       44245000	      4423	800050a8	01115133	srl	x2,x2,x17	  x2:0x80008f20 x17:0x80009f60  x2=0x80008f20
       44255000	      4424	800050ac	01db9193	slli	x3,x23,0x1d	 x23:0x7fceb000  x3=0x00000000
       44265000	      4425	800050b0	cdef0113	addi	x2,x30,-802	 x30:0xffffffcb  x2=0xfffffca9
       44275000	      4426	800050b4	00041a63	bne	x8,x0,800050c8	  x8:0x00000000  x0:0x00000000
       44285000	      4427	800050b8	01110e33	add	x28,x2,x17	  x2:0xfffffca9 x17:0x80009f60 x28=0x80009c09
       44295000	      4428	800050bc	05b2d663	bge	x5,x27,80005108	  x5:0x00000000 x27:0x2fc09867
       44305000	      4429	800050c0	0020f833	and	x16,x1,x2	  x1:0xfffffffb  x2:0xfffffca9 x16=0xfffffca9
       44315000	      4430	800050c4	00b15a63	bge	x2,x11,800050d8	  x2:0xfffffca9 x11:0x00000000
       44325000	      4431	800050c8	40c65d13	srai	x26,x12,0xc	 x12:0x00000000 x26=0x00000000
       44335000	      4432	800050cc	01b09f13	slli	x30,x1,0x1b	  x1:0xfffffffb x30=0xd8000000
       44345000	      4433	800050d0	00f08233	add	x4,x1,x15	  x1:0xfffffffb x15:0x7fceb000  x4=0x7fceaffb
       44355000	      4434	800050d4	2e49c937	lui	x18,0x2e49c	 x18=0x2e49c000
       44365000	      4435	800050d8	0073ab33	slt	x22,x7,x7	  x7:0xafc007ef  x7:0xafc007ef x22=0x00000000
       44375000	      4436	800050dc	00000013	addi	x0,x0,0	  x0:0x00000000
       44385000	      4437	800050e0	007080b3	add	x1,x1,x7	  x1:0xfffffffb  x7:0xafc007ef  x1=0xafc007ea
       44395000	      4438	800050e4	009a7033	and	x0,x20,x9	 x20:0xfffffd67  x9:0x00000000
       44405000	      4439	800050e8	00580c33	add	x24,x16,x5	 x16:0xfffffca9  x5:0x00000000 x24=0xfffffca9
       44415000	      4440	800050ec	e2980a37	lui	x20,0xe2980	 x20=0xe2980000
       44425000	      4441	800050f0	01bf0263	beq	x30,x27,800050f4	 x30:0xd8000000 x27:0x2fc09867
       44435000	      4442	800050f4	03b2d863	bge	x5,x27,80005124	  x5:0x00000000 x27:0x2fc09867
       44445000	      4443	800050f8	40755193	srai	x3,x10,0x7	 x10:0xfffffd8c  x3=0xfffffffb
       44455000	      4444	800050fc	00b44633	xor	x12,x8,x11	  x8:0x00000000 x11:0x00000000 x12=0x00000000
       44465000	      4445	80005100	00215c63	bge	x2,x2,80005118	  x2:0xfffffca9  x2:0xfffffca9
       44475000	      4446	00000000	00000013	addi	x0,x0,0	  x0:0x00000000
       44485000	      4447	80005114	00000013	addi	x0,x0,0	  x0:0x00000000
       44495000	      4448	80005118	0198dc63	bge	x17,x25,80005130	 x17:0x80009f60 x25:0x00000041
       44505000	      4449	8000511c	045b7263	bgeu	x22,x5,80005160	 x22:0x00000000  x5:0x00000000
       44515000	      4450	00000000	00000013	addi	x0,x0,0	  x0:0x00000000
       44525000	      4451	8000515c	00000013	addi	x0,x0,0	  x0:0x00000000
       44535000	      4452	80005160	022ae263	bltu	x21,x2,80005184	 x21:0x00000000  x2:0xfffffca9
       44545000	      4453	00000000	00000013	addi	x0,x0,0	  x0:0x00000000
       44555000	      4454	80005180	00000013	addi	x0,x0,0	  x0:0x00000000
       44565000	      4455	80005184	406ad7b3	sra	x15,x21,x6	 x21:0x00000000  x6:0x2fc09a7f x15=0x00000000
       44575000	      4456	80005188	00000013	addi	x0,x0,0	  x0:0x00000000
       44585000	      4457	8000518c	0124db93	srli	x23,x9,0x12	  x9:0x00000000 x23=0x00000000
       44595000	      4458	80005190	84133b13	sltiu	x22,x6,-1983	  x6:0x2fc09a7f x22=0x00000001
       44605000	      4459	80005194	17de4e93	xori	x29,x28,381	 x28:0x80009c09 x29=0x80009d74
       44615000	      4460	80005198	039dd063	bge	x27,x25,800051b8	 x27:0x2fc09867 x25:0x00000041
       44625000	      4461	00000000	00000013	addi	x0,x0,0	  x0:0x00000000
       44635000	      4462	800051b4	00000013	addi	x0,x0,0	  x0:0x00000000
       44645000	      4463	800051b8	02d0e063	bltu	x1,x13,800051d8	  x1:0xafc007ea x13:0x184e1fd4
       44655000	      4464	800051bc	025bfc63	bgeu	x23,x5,800051f4	 x23:0x00000000  x5:0x00000000
       44665000	      4465	00000000	00000013	addi	x0,x0,0	  x0:0x00000000
       44675000	      4466	800051f0	00000013	addi	x0,x0,0	  x0:0x00000000
       44685000	      4467	800051f4	40add313	srai	x6,x27,0xa	 x27:0x2fc09867  x6=0x000bf026
       44695000	      4468	800051f8	01eb25b3	slt	x11,x22,x30	 x22:0x00000001 x30:0xd8000000 x11=0x00000000
       44705000	      4469	800051fc	ad48e193	ori	x3,x17,-1324	 x17:0x80009f60  x3=0xfffffff4
       44715000	      4470	80005200	5b748113	addi	x2,x9,1463	  x9:0x00000000  x2=0x000005b7
       44725000	      4471	80005204	54eea493	slti	x9,x29,1358	 x29:0x80009d74  x9=0x00000001
       44735000	      4472	80005208	014e40b3	xor	x1,x28,x20	 x28:0x80009c09 x20:0xe2980000  x1=0x62989c09
       44745000	      4473	8000520c	15326137	lui	x2,0x15326	  x2=0x15326000
       44755000	      4474	80005210	002f7633	and	x12,x30,x2	 x30:0xd8000000  x2:0x15326000 x12=0x10000000
       44765000	      4475	80005214	00201533	sll	x10,x0,x2	  x0:0x00000000  x2:0x15326000 x10=0x00000000
       44775000	      4476	80005218	01be37b3	sltu	x15,x28,x27	 x28:0x80009c09 x27:0x2fc09867 x15=0x00000000
       44785000	      4477	8000521c	00076c63	bltu	x14,x0,80005234	 x14:0x00000000  x0:0x00000000
       44795000	      4478	80005220	02790663	beq	x18,x7,8000524c	 x18:0x2e49c000  x7:0xafc007ef
       44805000	      4479	80005224	01e6e933	or	x18,x13,x30	 x13:0x184e1fd4 x30:0xd8000000 x18=0xd84e1fd4
       44815000	      4480	80005228	7efdad37	lui	x26,0x7efda	 x26=0x7efda000
       44825000	      4481	8000522c	00813933	sltu	x18,x2,x8	  x2:0x15326000  x8:0x00000000 x18=0x00000000
       44835000	      4482	80005230	043e0063	beq	x28,x3,80005270	 x28:0x80009c09  x3:0xfffffff4
       44845000	      4483	80005234	4102dd13	srai	x26,x5,0x10	  x5:0x00000000 x26=0x00000000
       44855000	      4484	80005238	001c7e63	bgeu	x24,x1,80005254	 x24:0xfffffca9  x1:0x62989c09
       44865000	      4485	00000000	00000013	addi	x0,x0,0	  x0:0x00000000
       44875000	      4486	80005250	00000013	addi	x0,x0,0	  x0:0x00000000
       44885000	      4487	80005254	01491a13	slli	x20,x18,0x14	 x18:0x00000000 x20=0x00000000
       44895000	      4488	80005258	4024de13	srai	x28,x9,0x2	  x9:0x00000001 x28=0x00000000
       44905000	      4489	8000525c	eed78e13	addi	x28,x15,-275	 x15:0x00000000 x28=0xfffffeed
       44915000	      4490	80005260	b1a40113	addi	x2,x8,-1254	  x8:0x00000000  x2=0xfffffb1a
       44925000	      4491	80005264	3a104e13	xori	x28,x0,929	  x0:0x00000000 x28=0x000003a1
       44935000	      4492	80005268	0165f663	bgeu	x11,x22,80005274	 x11:0x00000000 x22:0x00000001
       44945000	      4493	8000526c	5c2a4f13	xori	x30,x20,1474	 x20:0x00000000 x30=0x000005c2
       44955000	      4494	80005270	01289e33	sll	x28,x17,x18	 x17:0x80009f60 x18:0x00000000 x28=0x80009f60
       44965000	      4495	80005274	7223a513	slti	x10,x7,1826	  x7:0xafc007ef x10=0x00000001
       44975000	      4496	80005278	001ac933	xor	x18,x21,x1	 x21:0x00000000  x1:0x62989c09 x18=0x62989c09
       44985000	      4497	8000527c	01fd2433	slt	x8,x26,x31	 x26:0x00000000 x31:0x80009fc4  x8=0x00000000
       44995000	      4498	80005280	05f26263	bltu	x4,x31,800052c4	  x4:0x7fceaffb x31:0x80009fc4
       45005000	      4499	00000000	00000013	addi	x0,x0,0	  x0:0x00000000
       45015000	      4500	800052c0	00000013	addi	x0,x0,0	  x0:0x00000000
       45025000	      4501	800052c4	fe8b2c93	slti	x25,x22,-24	 x22:0x00000001 x25=0x00000000
       45035000	      4502	800052c8	02a4e863	bltu	x9,x10,800052f8	  x9:0x00000001 x10:0x00000001
       45045000	      4503	800052cc	2cb92837	lui	x16,0x2cb92	 x16=0x2cb92000
       45055000	      4504	800052d0	06a7be93	sltiu	x29,x15,106	 x15:0x00000000 x29=0x00000001
       45065000	      4505	800052d4	01109c93	slli	x25,x1,0x11	  x1:0x62989c09 x25=0x38120000
       45075000	      4506	800052d8	00641863	bne	x8,x6,800052e8	  x8:0x00000000  x6:0x000bf026
       45085000	      4507	00000000	00000013	addi	x0,x0,0	  x0:0x00000000
       45095000	      4508	800052e4	00000013	addi	x0,x0,0	  x0:0x00000000
       45105000	      4509	800052e8	00e09463	bne	x1,x14,800052f0	  x1:0x62989c09 x14:0x00000000
       45115000	      4510	00000000	00000013	addi	x0,x0,0	  x0:0x00000000
       45125000	      4511	800052ec	00000013	addi	x0,x0,0	  x0:0x00000000
       45135000	      4512	800052f0	40075cb3	sra	x25,x14,x0	 x14:0x00000000  x0:0x00000000 x25=0x00000000
       45145000	      4513	800052f4	00686a63	bltu	x16,x6,80005308	 x16:0x2cb92000  x6:0x000bf026
       45155000	      4514	800052f8	cac34693	xori	x13,x6,-852	  x6:0x000bf026 x13=0xfff40c8a
       45165000	      4515	800052fc	00d02e33	slt	x28,x0,x13	  x0:0x00000000 x13:0xfff40c8a x28=0x00000000
       45175000	      4516	80005300	416489b3	sub	x19,x9,x22	  x9:0x00000001 x22:0x00000001 x19=0x00000000
       45185000	      4517	80005304	41868bb3	sub	x23,x13,x24	 x13:0xfff40c8a x24:0xfffffca9 x23=0xfff40fe1
       45195000	      4518	80005308	045e4663	blt	x28,x5,80005354	 x28:0x00000000  x5:0x00000000
       45205000	      4519	8000530c	2e77ea93	ori	x21,x15,743	 x15:0x00000000 x21=0x000002e7
       45215000	      4520	80005310	18b2ea93	ori	x21,x5,395	  x5:0x00000000 x21=0x0000018b
       45225000	      4521	80005314	00268f33	add	x30,x13,x2	 x13:0xfff40c8a  x2:0xfffffb1a x30=0xfff407a4
       45235000	      4522	80005318	01622233	slt	x4,x4,x22	  x4:0x7fceaffb x22:0x00000001  x4=0x00000000
       45245000	      4523	8000531c	01801513	slli	x10,x0,0x18	  x0:0x00000000 x10=0x00000000
       45255000	      4524	80005320	0078ec63	bltu	x17,x7,80005338	 x17:0x80009f60  x7:0xafc007ef
       45265000	      4525	00000000	00000013	addi	x0,x0,0	  x0:0x00000000
       45275000	      4526	80005334	00000013	addi	x0,x0,0	  x0:0x00000000
       45285000	      4527	80005338	00b321b7	lui	x3,0xb32	  x3=0x00b32000
       45295000	      4528	8000533c	02cf1263	bne	x30,x12,80005360	 x30:0xfff407a4 x12:0x10000000
       45305000	      4529	00000000	00000013	addi	x0,x0,0	  x0:0x00000000
       45315000	      4530	8000535c	00000013	addi	x0,x0,0	  x0:0x00000000
       45325000	      4531	80005360	02381263	bne	x16,x3,80005384	 x16:0x2cb92000  x3:0x00b32000
       45335000	      4532	00000000	00000013	addi	x0,x0,0	  x0:0x00000000
       45345000	      4533	80005380	00000013	addi	x0,x0,0	  x0:0x00000000
       45355000	      4534	80005384	ae1d4113	xori	x2,x26,-1311	 x26:0x00000000  x2=0xfffffae1
       45365000	      4535	80005388	0080d793	srli	x15,x1,0x8	  x1:0x62989c09 x15=0x0062989c
       45375000	      4536	8000538c	00720937	lui	x18,0x720	 x18=0x00720000
       45385000	      4537	80005390	d91e3637	lui	x12,0xd91e3	 x12=0xd91e3000
       45395000	      4538	80005394	026f8663	beq	x31,x6,800053c0	 x31:0x80009fc4  x6:0x000bf026
       45405000	      4539	80005398	00000013	addi	x0,x0,0	  x0:0x00000000
       45415000	      4540	8000539c	a4334193	xori	x3,x6,-1469	  x6:0x000bf026  x3=0xfff40a65
       45425000	      4541	800053a0	00000013	addi	x0,x0,0	  x0:0x00000000
       45435000	      4542	800053a4	c0cd6093	ori	x1,x26,-1012	 x26:0x00000000  x1=0xfffffc0c
       45445000	      4543	800053a8	01121013	slli	x0,x4,0x11	  x4:0x00000000
       45455000	      4544	800053ac	40b882b3	sub	x5,x17,x11	 x17:0x80009f60 x11:0x00000000  x5=0x80009f60
       45465000	      4545	800053b0	011c0ab3	add	x21,x24,x17	 x24:0xfffffca9 x17:0x80009f60 x21=0x80009c09
       45475000	      4546	800053b4	4394b393	sltiu	x7,x9,1081	  x9:0x00000001  x7=0x00000001
       45485000	      4547	800053b8	41178433	sub	x8,x15,x17	 x15:0x0062989c x17:0x80009f60  x8=0x8061f93c
       45495000	      4548	800053bc	01c0d593	srli	x11,x1,0x1c	  x1:0xfffffc0c x11=0x0000000f
       45505000	      4549	800053c0	411a5bb3	sra	x23,x20,x17	 x20:0x00000000 x17:0x80009f60 x23=0x00000000
       45515000	      4550	800053c4	00980f33	add	x30,x16,x9	 x16:0x2cb92000  x9:0x00000001 x30=0x2cb92001
       45525000	      4551	800053c8	04331663	bne	x6,x3,80005414	  x6:0x000bf026  x3:0xfff40a65
       45535000	      4552	00000000	00000013	addi	x0,x0,0	  x0:0x00000000
       45545000	      4553	80005410	00000013	addi	x0,x0,0	  x0:0x00000000
       45555000	      4554	80005414	00000013	addi	x0,x0,0	  x0:0x00000000
       45565000	      4555	80005418	01e81c33	sll	x24,x16,x30	 x16:0x2cb92000 x30:0x2cb92001 x24=0x59724000
       45575000	      4556	8000541c	0152a7b3	slt	x15,x5,x21	  x5:0x80009f60 x21:0x80009c09 x15=0x00000000
       45585000	      4557	80005420	00dcd213	srli	x4,x25,0xd	 x25:0x00000000  x4=0x00000000
       45595000	      4558	80005424	01964a33	xor	x20,x12,x25	 x12:0xd91e3000 x25:0x00000000 x20=0xd91e3000
       45605000	      4559	80005428	41208233	sub	x4,x1,x18	  x1:0xfffffc0c x18:0x00720000  x4=0xff8dfc0c
       45615000	      4560	8000542c	0126cc63	blt	x13,x18,80005444	 x13:0xfff40c8a x18:0x00720000
       45625000	      4561	00000000	00000013	addi	x0,x0,0	  x0:0x00000000
       45635000	      4562	80005440	00000013	addi	x0,x0,0	  x0:0x00000000
       45645000	      4563	80005444	410e5b93	srai	x23,x28,0x10	 x28:0x00000000 x23=0x00000000
       45655000	      4564	80005448	01d0f1b3	and	x3,x1,x29	  x1:0xfffffc0c x29:0x00000001  x3=0x00000000
       45665000	      4565	8000544c	00cc5633	srl	x12,x24,x12	 x24:0x59724000 x12:0xd91e3000 x12=0x59724000
       45675000	      4566	80005450	40a55433	sra	x8,x10,x10	 x10:0x00000000 x10:0x00000000  x8=0x00000000
       45685000	      4567	80005454	33fa7b93	andi	x23,x20,831	 x20:0xd91e3000 x23=0x00000000
       45695000	      4568	80005458	03f65063	bge	x12,x31,80005478	 x12:0x59724000 x31:0x80009fc4
       45705000	      4569	00000000	00000013	addi	x0,x0,0	  x0:0x00000000
       45715000	      4570	80005474	00000013	addi	x0,x0,0	  x0:0x00000000
       45725000	      4571	80005478	04189263	bne	x17,x1,800054bc	 x17:0x80009f60  x1:0xfffffc0c
       45735000	      4572	00000000	00000013	addi	x0,x0,0	  x0:0x00000000
       45745000	      4573	800054b8	00000013	addi	x0,x0,0	  x0:0x00000000
       45755000	      4574	800054bc	01b29d93	slli	x27,x5,0x1b	  x5:0x80009f60 x27=0x00000000
       45765000	      4575	800054c0	406c5593	srai	x11,x24,0x6	 x24:0x59724000 x11=0x0165c900
       45775000	      4576	800054c4	40ccd2b3	sra	x5,x25,x12	 x25:0x00000000 x12:0x59724000  x5=0x00000000
       45785000	      4577	800054c8	009be463	bltu	x23,x9,800054d0	 x23:0x00000000  x9:0x00000001
       45795000	      4578	00000000	00000013	addi	x0,x0,0	  x0:0x00000000
       45805000	      4579	800054cc	00000013	addi	x0,x0,0	  x0:0x00000000
       45815000	      4580	800054d0	4f556317	auipc	x6,0x4f556	  x6=0xcf55b4cc
       45825000	      4581	800054d4	0160e263	bltu	x1,x22,800054d8	  x1:0xfffffc0c x22:0x00000001
       45835000	      4582	800054d8	01d71233	sll	x4,x14,x29	 x14:0x00000000 x29:0x00000001  x4=0x00000000
       45845000	      4583	800054dc	00752333	slt	x6,x10,x7	 x10:0x00000000  x7:0x00000001  x6=0x00000001
       45855000	      4584	800054e0	81df81b7	lui	x3,0x81df8	  x3=0x81df8000
       45865000	      4585	800054e4	00998bb3	add	x23,x19,x9	 x19:0x00000000  x9:0x00000001 x23=0x00000001
       45875000	      4586	800054e8	013815b3	sll	x11,x16,x19	 x16:0x2cb92000 x19:0x00000000 x11=0x2cb92000
       45885000	      4587	800054ec	00b56863	bltu	x10,x11,800054fc	 x10:0x00000000 x11:0x2cb92000
       45895000	      4588	00000000	00000013	addi	x0,x0,0	  x0:0x00000000
       45905000	      4589	800054f8	00000013	addi	x0,x0,0	  x0:0x00000000
       45915000	      4590	800054fc	012ea333	slt	x6,x29,x18	 x29:0x00000001 x18:0x00720000  x6=0x00000001
       45925000	      4591	80005500	2e263e93	sltiu	x29,x12,738	 x12:0x59724000 x29=0x00000000
       45935000	      4592	80005504	65403593	sltiu	x11,x0,1620	  x0:0x00000000 x11=0x00000001
       45945000	      4593	80005508	01f31333	sll	x6,x6,x31	  x6:0x00000001 x31:0x80009fc4  x6=0x00000010
       45955000	      4594	8000550c	00064333	xor	x6,x12,x0	 x12:0x59724000  x0:0x00000000  x6=0x59724000
       45965000	      4595	80005510	00cabe33	sltu	x28,x21,x12	 x21:0x80009c09 x12:0x59724000 x28=0x00000000
       45975000	      4596	80005514	00f19613	slli	x12,x3,0xf	  x3:0x81df8000 x12=0xc0000000
       45985000	      4597	80005518	01b4c313	xori	x6,x9,27	  x9:0x00000001  x6=0x0000001a
       45995000	      4598	8000551c	01d41593	slli	x11,x8,0x1d	  x8:0x00000000 x11=0x00000000
       46005000	      4599	80005520	87fc6293	ori	x5,x24,-1921	 x24:0x59724000  x5=0xfffff87f
       46015000	      4600	80005524	00c4feb3	and	x29,x9,x12	  x9:0x00000001 x12:0xc0000000 x29=0x00000000
       46025000	      4601	80005528	c1d48213	addi	x4,x9,-995	  x9:0x00000001  x4=0xfffffc1e
       46035000	      4602	8000552c	00151a63	bne	x10,x1,80005540	 x10:0x00000000  x1:0xfffffc0c
       46045000	      4603	00000000	00000013	addi	x0,x0,0	  x0:0x00000000
       46055000	      4604	8000553c	00000013	addi	x0,x0,0	  x0:0x00000000
       46065000	      4605	80005540	03345663	bge	x8,x19,8000556c	  x8:0x00000000 x19:0x00000000
       46075000	      4606	00000000	00000013	addi	x0,x0,0	  x0:0x00000000
       46085000	      4607	80005568	00000013	addi	x0,x0,0	  x0:0x00000000
       46095000	      4608	8000556c	00dd7d33	and	x26,x26,x13	 x26:0x00000000 x13:0xfff40c8a x26=0x00000000
       46105000	      4609	80005570	015e36b3	sltu	x13,x28,x21	 x28:0x00000000 x21:0x80009c09 x13=0x00000001
       46115000	      4610	80005574	ebec7b13	andi	x22,x24,-322	 x24:0x59724000 x22=0x59724000
       46125000	      4611	80005578	031d4c63	blt	x26,x17,800055b0	 x26:0x00000000 x17:0x80009f60
       46135000	      4612	8000557c	0179ba33	sltu	x20,x19,x23	 x19:0x00000000 x23:0x00000001 x20=0x00000001
       46145000	      4613	80005580	41b08433	sub	x8,x1,x27	  x1:0xfffffc0c x27:0x00000000  x8=0xfffffc0c
       46155000	      4614	80005584	904e0e13	addi	x28,x28,-1788	 x28:0x00000000 x28=0xfffff904
       46165000	      4615	80005588	1987bb93	sltiu	x23,x15,408	 x15:0x00000000 x23=0x00000001
       46175000	      4616	8000558c	57634b13	xori	x22,x6,1398	  x6:0x0000001a x22=0x0000056c
       46185000	      4617	80005590	7a28e793	ori	x15,x17,1954	 x17:0x80009f60 x15=0x80009fe2
       46195000	      4618	80005594	f6aeab13	slti	x22,x29,-150	 x29:0x00000000 x22=0x00000000
       46205000	      4619	80005598	cf12ad13	slti	x26,x5,-783	  x5:0xfffff87f x26=0x00000001
       46215000	      4620	8000559c	026ef863	bgeu	x29,x6,800055cc	 x29:0x00000000  x6:0x0000001a
       46225000	      4621	800055a0	f02a3b17	auipc	x22,0xf02a3	 x22=0x702a859c
       46235000	      4622	800055a4	03550063	beq	x10,x21,800055c4	 x10:0x00000000 x21:0x80009c09
       46245000	      4623	800055a8	41dfd093	srai	x1,x31,0x1d	 x31:0x80009fc4  x1=0xfffffffc
       46255000	      4624	800055ac	00939913	slli	x18,x7,0x9	  x7:0x00000001 x18=0x00000200
       46265000	      4625	800055b0	404583b3	sub	x7,x11,x4	 x11:0x00000000  x4:0xfffffc1e  x7=0x000003e2
       46275000	      4626	800055b4	d65cad93	slti	x27,x25,-667	 x25:0x00000000 x27=0x00000000
       46285000	      4627	800055b8	016fd1b3	srl	x3,x31,x22	 x31:0x80009fc4 x22:0x702a859c  x3=0x00000008
       46295000	      4628	800055bc	00fcf263	bgeu	x25,x15,800055c0	 x25:0x00000000 x15:0x80009fe2
       46305000	      4629	800055c0	02151863	bne	x10,x1,800055f0	 x10:0x00000000  x1:0xfffffffc
       46315000	      4630	00000000	00000013	addi	x0,x0,0	  x0:0x00000000
       46325000	      4631	800055ec	00000013	addi	x0,x0,0	  x0:0x00000000
       46335000	      4632	800055f0	02720663	beq	x4,x7,8000561c	  x4:0xfffffc1e  x7:0x000003e2
       46345000	      4633	800055f4	02704663	blt	x0,x7,80005620	  x0:0x00000000  x7:0x000003e2
       46355000	      4634	00000000	00000013	addi	x0,x0,0	  x0:0x00000000
       46365000	      4635	8000561c	00000013	addi	x0,x0,0	  x0:0x00000000
       46375000	      4636	80005620	0139c1b3	xor	x3,x19,x19	 x19:0x00000000 x19:0x00000000  x3=0x00000000
       46385000	      4637	80005624	fa377613	andi	x12,x14,-93	 x14:0x00000000 x12=0x00000000
       46395000	      4638	80005628	0001da63	bge	x3,x0,8000563c	  x3:0x00000000  x0:0x00000000
       46405000	      4639	00000000	00000013	addi	x0,x0,0	  x0:0x00000000
       46415000	      4640	80005638	00000013	addi	x0,x0,0	  x0:0x00000000
       46425000	      4641	8000563c	0126eeb3	or	x29,x13,x18	 x13:0x00000001 x18:0x00000200 x29=0x00000201
       46435000	      4642	80005640	367e8f37	lui	x30,0x367e8	 x30=0x367e8000
       46445000	      4643	80005644	03c01e63	bne	x0,x28,80005680	  x0:0x00000000 x28:0xfffff904
       46455000	      4644	00000000	00000013	addi	x0,x0,0	  x0:0x00000000
       46465000	      4645	8000567c	00000013	addi	x0,x0,0	  x0:0x00000000
       46475000	      4646	80005680	00bf4b33	xor	x22,x30,x11	 x30:0x367e8000 x11:0x00000000 x22=0x367e8000
       46485000	      4647	80005684	001af933	and	x18,x21,x1	 x21:0x80009c09  x1:0xfffffffc x18=0x80009c08
       46495000	      4648	80005688	413bd333	sra	x6,x23,x19	 x23:0x00000001 x19:0x00000000  x6=0x00000001
       46505000	      4649	8000568c	00197bb3	and	x23,x18,x1	 x18:0x80009c08  x1:0xfffffffc x23=0x80009c08
       46515000	      4650	80005690	01f55633	srl	x12,x10,x31	 x10:0x00000000 x31:0x80009fc4 x12=0x00000000
       46525000	      4651	80005694	03e85263	bge	x16,x30,800056b8	 x16:0x2cb92000 x30:0x367e8000
       46535000	      4652	80005698	40d55433	sra	x8,x10,x13	 x10:0x00000000 x13:0x00000001  x8=0x00000000
       46545000	      4653	8000569c	00c8b533	sltu	x10,x17,x12	 x17:0x80009f60 x12:0x00000000 x10=0x00000000
       46555000	      4654	800056a0	05604663	blt	x0,x22,800056ec	  x0:0x00000000 x22:0x367e8000
       46565000	      4655	00000000	00000013	addi	x0,x0,0	  x0:0x00000000
       46575000	      4656	800056e8	00000013	addi	x0,x0,0	  x0:0x00000000
       46585000	      4657	800056ec	03f1dc63	bge	x3,x31,80005724	  x3:0x00000000 x31:0x80009fc4
       46595000	      4658	00000000	00000013	addi	x0,x0,0	  x0:0x00000000
       46605000	      4659	80005720	00000013	addi	x0,x0,0	  x0:0x00000000
       46615000	      4660	80005724	01b53f33	sltu	x30,x10,x27	 x10:0x00000000 x27:0x00000000 x30=0x00000000
       46625000	      4661	80005728	408fdf13	srai	x30,x31,0x8	 x31:0x80009fc4 x30=0xff80009f
       46635000	      4662	8000572c	7c564413	xori	x8,x12,1989	 x12:0x00000000  x8=0x000007c5
       46645000	      4663	80005730	00985f13	srli	x30,x16,0x9	 x16:0x2cb92000 x30=0x00165c90
       46655000	      4664	80005734	a1b84213	xori	x4,x16,-1509	 x16:0x2cb92000  x4=0xd346da1b
       46665000	      4665	80005738	65413c93	sltiu	x25,x2,1620	  x2:0xfffffae1 x25=0x00000000
       46675000	      4666	8000573c	00f2bbb3	sltu	x23,x5,x15	  x5:0xfffff87f x15:0x80009fe2 x23=0x00000000
       46685000	      4667	80005740	2597dc37	lui	x24,0x2597d	 x24=0x2597d000
       46695000	      4668	80005744	00ffec63	bltu	x31,x15,8000575c	 x31:0x80009fc4 x15:0x80009fe2
       46705000	      4669	00000000	00000013	addi	x0,x0,0	  x0:0x00000000
       46715000	      4670	80005758	00000013	addi	x0,x0,0	  x0:0x00000000
       46725000	      4671	8000575c	00000013	addi	x0,x0,0	  x0:0x00000000
       46735000	      4672	80005760	00c15933	srl	x18,x2,x12	  x2:0xfffffae1 x12:0x00000000 x18=0xfffffae1
       46745000	      4673	80005764	01bf61b3	or	x3,x30,x27	 x30:0x00165c90 x27:0x00000000  x3=0x00165c90
       46755000	      4674	80005768	001cdd93	srli	x27,x25,0x1	 x25:0x00000000 x27=0x00000000
       46765000	      4675	8000576c	41d6d4b3	sra	x9,x13,x29	 x13:0x00000001 x29:0x00000201  x9=0x00000000
       46775000	      4676	80005770	b4be7a13	andi	x20,x28,-1205	 x28:0xfffff904 x20=0xfffff900
       46785000	      4677	80005774	9a180693	addi	x13,x16,-1631	 x16:0x2cb92000 x13=0x2cb919a1
       46795000	      4678	80005778	0168d333	srl	x6,x17,x22	 x17:0x80009f60 x22:0x367e8000  x6=0x80009f60
       46805000	      4679	8000577c	780b5e37	lui	x28,0x780b5	 x28=0x780b5000
       46815000	      4680	80005780	014482b3	add	x5,x9,x20	  x9:0x00000000 x20:0xfffff900  x5=0xfffff900
       46825000	      4681	80005784	017f9493	slli	x9,x31,0x17	 x31:0x80009fc4  x9=0xe2000000
       46835000	      4682	80005788	01bad663	bge	x21,x27,80005794	 x21:0x80009c09 x27:0x00000000
       46845000	      4683	8000578c	be849e97	auipc	x29,0xbe849	 x29=0x3e84e788
       46855000	      4684	80005790	00000013	addi	x0,x0,0	  x0:0x00000000
       46865000	      4685	80005794	0147dcb3	srl	x25,x15,x20	 x15:0x80009fe2 x20:0xfffff900 x25=0x80009fe2
       46875000	      4686	80005798	71807913	andi	x18,x0,1816	  x0:0x00000000 x18=0x00000000
       46885000	      4687	8000579c	01e43eb3	sltu	x29,x8,x30	  x8:0x000007c5 x30:0x00165c90 x29=0x00000001
       46895000	      4688	800057a0	002e1393	slli	x7,x28,0x2	 x28:0x780b5000  x7=0xe02d4000
       46905000	      4689	800057a4	005312b3	sll	x5,x6,x5	  x6:0x80009f60  x5:0xfffff900  x5=0x80009f60
       46915000	      4690	800057a8	0122c3b3	xor	x7,x5,x18	  x5:0x80009f60 x18:0x00000000  x7=0x80009f60
       46925000	      4691	800057ac	0169abb3	slt	x23,x19,x22	 x19:0x00000000 x22:0x367e8000 x23=0x00000001
       46935000	      4692	800057b0	00f87c63	bgeu	x16,x15,800057c8	 x16:0x2cb92000 x15:0x80009fe2
       46945000	      4693	800057b4	00bc03b3	add	x7,x24,x11	 x24:0x2597d000 x11:0x00000000  x7=0x2597d000
       46955000	      4694	800057b8	01f81b93	slli	x23,x16,0x1f	 x16:0x2cb92000 x23=0x00000000
       46965000	      4695	800057bc	757f2193	slti	x3,x30,1879	 x30:0x00165c90  x3=0x00000000
       46975000	      4696	800057c0	012cdbb3	srl	x23,x25,x18	 x25:0x80009fe2 x18:0x00000000 x23=0x80009fe2
       46985000	      4697	800057c4	05dd5263	bge	x26,x29,80005808	 x26:0x00000001 x29:0x00000001
       46995000	      4698	00000000	00000013	addi	x0,x0,0	  x0:0x00000000
       47005000	      4699	80005804	00000013	addi	x0,x0,0	  x0:0x00000000
       47015000	      4700	80005808	0a0cc113	xori	x2,x25,160	 x25:0x80009fe2  x2=0x80009f42
       47025000	      4701	8000580c	002bc863	blt	x23,x2,8000581c	 x23:0x80009fe2  x2:0x80009f42
       47035000	      4702	80005810	0829f437	lui	x8,0x829f	  x8=0x0829f000
       47045000	      4703	80005814	00fe6c63	bltu	x28,x15,8000582c	 x28:0x780b5000 x15:0x80009fe2
       47055000	      4704	00000000	00000013	addi	x0,x0,0	  x0:0x00000000
       47065000	      4705	80005828	00000013	addi	x0,x0,0	  x0:0x00000000
       47075000	      4706	8000582c	dbf9a393	slti	x7,x19,-577	 x19:0x00000000  x7=0x00000000
       47085000	      4707	80005830	0191d263	bge	x3,x25,80005834	  x3:0x00000000 x25:0x80009fe2
       47095000	      4708	00000000	00000013	addi	x0,x0,0	  x0:0x00000000
       47105000	      4709	80005830	00000013	addi	x0,x0,0	  x0:0x00000000
       47115000	      4710	80005834	018aee33	or	x28,x21,x24	 x21:0x80009c09 x24:0x2597d000 x28=0xa597dc09
       47125000	      4711	80005838	023a9463	bne	x21,x3,80005860	 x21:0x80009c09  x3:0x00000000
       47135000	      4712	00000000	00000013	addi	x0,x0,0	  x0:0x00000000
       47145000	      4713	8000585c	00000013	addi	x0,x0,0	  x0:0x00000000
       47155000	      4714	80005860	40fcd813	srai	x16,x25,0xf	 x25:0x80009fe2 x16=0xffff0001
       47165000	      4715	80005864	00000013	addi	x0,x0,0	  x0:0x00000000
       47175000	      4716	80005868	00073d33	sltu	x26,x14,x0	 x14:0x00000000  x0:0x00000000 x26=0x00000000
       47185000	      4717	8000586c	01b8a0b3	slt	x1,x17,x27	 x17:0x80009f60 x27:0x00000000  x1=0x00000001
       47195000	      4718	80005870	000b91b3	sll	x3,x23,x0	 x23:0x80009fe2  x0:0x00000000  x3=0x80009fe2
       47205000	      4719	80005874	00aa3333	sltu	x6,x20,x10	 x20:0xfffff900 x10:0x00000000  x6=0x00000000
       47215000	      4720	80005878	00000013	addi	x0,x0,0	  x0:0x00000000
       47225000	      4721	8000587c	bbf4ad93	slti	x27,x9,-1089	  x9:0xe2000000 x27=0x00000001
       47235000	      4722	80005880	99303d93	sltiu	x27,x0,-1645	  x0:0x00000000 x27=0x00000001
       47245000	      4723	80005884	039f1063	bne	x30,x25,800058a4	 x30:0x00165c90 x25:0x80009fe2
       47255000	      4724	00000000	00000013	addi	x0,x0,0	  x0:0x00000000
       47265000	      4725	800058a0	00000013	addi	x0,x0,0	  x0:0x00000000
       47275000	      4726	800058a4	18e24d93	xori	x27,x4,398	  x4:0xd346da1b x27=0xd346db95
       47285000	      4727	800058a8	05660b93	addi	x23,x12,86	 x12:0x00000000 x23=0x00000056
       47295000	      4728	800058ac	50dd13b7	lui	x7,0x50dd1	  x7=0x50dd1000
       47305000	      4729	800058b0	00000013	addi	x0,x0,0	  x0:0x00000000
       47315000	      4730	800058b4	0004b433	sltu	x8,x9,x0	  x9:0xe2000000  x0:0x00000000  x8=0x00000000
       47325000	      4731	800058b8	01179133	sll	x2,x15,x17	 x15:0x80009fe2 x17:0x80009f60  x2=0x80009fe2
       47335000	      4732	800058bc	0103b3b3	sltu	x7,x7,x16	  x7:0x50dd1000 x16:0xffff0001  x7=0x00000001
       47345000	      4733	800058c0	002efa63	bgeu	x29,x2,800058d4	 x29:0x00000001  x2:0x80009fe2
       47355000	      4734	800058c4	a9b5b113	sltiu	x2,x11,-1381	 x11:0x00000000  x2=0x00000001
       47365000	      4735	800058c8	00e1c833	xor	x16,x3,x14	  x3:0x80009fe2 x14:0x00000000 x16=0x80009fe2
       47375000	      4736	800058cc	165afb13	andi	x22,x21,357	 x21:0x80009c09 x22=0x00000001
       47385000	      4737	800058d0	faf24c93	xori	x25,x4,-81	  x4:0xd346da1b x25=0x2cb925b4
       47395000	      4738	800058d4	00000013	addi	x0,x0,0	  x0:0x00000000
       47405000	      4739	800058d8	01078433	add	x8,x15,x16	 x15:0x80009fe2 x16:0x80009fe2  x8=0x00013fc4
       47415000	      4740	800058dc	00dde663	bltu	x27,x13,800058e8	 x27:0xd346db95 x13:0x2cb919a1
       47425000	      4741	800058e0	0312c063	blt	x5,x17,80005900	  x5:0x80009f60 x17:0x80009f60
       47435000	      4742	800058e4	00059b33	sll	x22,x11,x0	 x11:0x00000000  x0:0x00000000 x22=0x00000000
       47445000	      4743	800058e8	b10b0e97	auipc	x29,0xb10b0	 x29=0x310b58e4
       47455000	      4744	800058ec	00000013	addi	x0,x0,0	  x0:0x00000000
       47465000	      4745	800058f0	01b94133	xor	x2,x18,x27	 x18:0x00000000 x27:0xd346db95  x2=0xd346db95
       47475000	      4746	800058f4	05386663	bltu	x16,x19,80005940	 x16:0x80009fe2 x19:0x00000000
       47485000	      4747	800058f8	bdcea313	slti	x6,x29,-1060	 x29:0x310b58e4  x6=0x00000000
       47495000	      4748	800058fc	0012b1b3	sltu	x3,x5,x1	  x5:0x80009f60  x1:0x00000001  x3=0x00000000
       47505000	      4749	80005900	00fb7c63	bgeu	x22,x15,80005918	 x22:0x00000000 x15:0x80009fe2
       47515000	      4750	80005904	00f33233	sltu	x4,x6,x15	  x6:0x00000000 x15:0x80009fe2  x4=0x00000001
       47525000	      4751	80005908	009bcc63	blt	x23,x9,80005920	 x23:0x00000056  x9:0xe2000000
       47535000	      4752	8000590c	11050b13	addi	x22,x10,272	 x10:0x00000000 x22=0x00000110
       47545000	      4753	80005910	056d7063	bgeu	x26,x22,80005950	 x26:0x00000000 x22:0x00000110
       47555000	      4754	80005914	992a3d37	lui	x26,0x992a3	 x26=0x992a3000
       47565000	      4755	80005918	04cf7263	bgeu	x30,x12,8000595c	 x30:0x00165c90 x12:0x00000000
       47575000	      4756	00000000	00000013	addi	x0,x0,0	  x0:0x00000000
       47585000	      4757	80005958	00000013	addi	x0,x0,0	  x0:0x00000000
       47595000	      4758	8000595c	c2fbe093	ori	x1,x23,-977	 x23:0x00000056  x1=0xfffffc7f
       47605000	      4759	80005960	01a685b3	add	x11,x13,x26	 x13:0x2cb919a1 x26:0x992a3000 x11=0xc5e349a1
       47615000	      4760	80005964	e6f80293	addi	x5,x16,-401	 x16:0x80009fe2  x5=0x80009e51
       47625000	      4761	80005968	40e98ab3	sub	x21,x19,x14	 x19:0x00000000 x14:0x00000000 x21=0x00000000
       47635000	      4762	8000596c	00aa6b33	or	x22,x20,x10	 x20:0xfffff900 x10:0x00000000 x22=0xfffff900
       47645000	      4763	80005970	01d360b3	or	x1,x6,x29	  x6:0x00000000 x29:0x310b58e4  x1=0x310b58e4
       47655000	      4764	80005974	006999b3	sll	x19,x19,x6	 x19:0x00000000  x6:0x00000000 x19=0x00000000
       47665000	      4765	80005978	00000013	addi	x0,x0,0	  x0:0x00000000
       47675000	      4766	8000597c	4079d2b3	sra	x5,x19,x7	 x19:0x00000000  x7:0x00000001  x5=0x00000000
       47685000	      4767	80005980	421df397	auipc	x7,0x421df	  x7=0xc21e497c
       47695000	      4768	80005984	01cf94b3	sll	x9,x31,x28	 x31:0x80009fc4 x28:0xa597dc09  x9=0x013f8800
       47705000	      4769	80005988	04648063	beq	x9,x6,800059c8	  x9:0x013f8800  x6:0x00000000
       47715000	      4770	8000598c	008f1bb3	sll	x23,x30,x8	 x30:0x00165c90  x8:0x00013fc4 x23=0x0165c900
       47725000	      4771	80005990	01e8d233	srl	x4,x17,x30	 x17:0x80009f60 x30:0x00165c90  x4=0x00008000
       47735000	      4772	80005994	01b4f263	bgeu	x9,x27,80005998	  x9:0x013f8800 x27:0xd346db95
       47745000	      4773	80005998	00000013	addi	x0,x0,0	  x0:0x00000000
       47755000	      4774	8000599c	012bf933	and	x18,x23,x18	 x23:0x0165c900 x18:0x00000000 x18=0x00000000
       47765000	      4775	800059a0	fda4bb93	sltiu	x23,x9,-38	  x9:0x013f8800 x23=0x00000001
       47775000	      4776	800059a4	00132cb3	slt	x25,x6,x1	  x6:0x00000000  x1:0x310b58e4 x25=0x00000001
       47785000	      4777	800059a8	019d8bb3	add	x23,x27,x25	 x27:0xd346db95 x25:0x00000001 x23=0xd346db96
       47795000	      4778	800059ac	7f926213	ori	x4,x4,2041	  x4:0x00008000  x4=0x000087f9
       47805000	      4779	800059b0	b4337393	andi	x7,x6,-1213	  x6:0x00000000  x7=0x00000000
       47815000	      4780	800059b4	000f6233	or	x4,x30,x0	 x30:0x00165c90  x0:0x00000000  x4=0x00165c90
       47825000	      4781	800059b8	47057d13	andi	x26,x10,1136	 x10:0x00000000 x26=0x00000000
       47835000	      4782	800059bc	fd2a7b13	andi	x22,x20,-46	 x20:0xfffff900 x22=0xfffff900
       47845000	      4783	800059c0	a76acd13	xori	x26,x21,-1418	 x21:0x00000000 x26=0xfffffa76
       47855000	      4784	800059c4	bfa56013	ori	x0,x10,-1030	 x10:0x00000000
       47865000	      4785	800059c8	006cdd33	srl	x26,x25,x6	 x25:0x00000001  x6:0x00000000 x26=0x00000001
       47875000	      4786	800059cc	43b80213	addi	x4,x16,1083	 x16:0x80009fe2  x4=0x8000a41d
       47885000	      4787	800059d0	01764eb3	xor	x29,x12,x23	 x12:0x00000000 x23:0xd346db96 x29=0xd346db96
       47895000	      4788	800059d4	41d0d413	srai	x8,x1,0x1d	  x1:0x310b58e4  x8=0x00000001
       47905000	      4789	800059d8	00fdf633	and	x12,x27,x15	 x27:0xd346db95 x15:0x80009fe2 x12=0x80009b80
       47915000	      4790	800059dc	540db393	sltiu	x7,x27,1344	 x27:0xd346db95  x7=0x00000000
       47925000	      4791	800059e0	d0eee6b7	lui	x13,0xd0eee	 x13=0xd0eee000
       47935000	      4792	800059e4	62b53213	sltiu	x4,x10,1579	 x10:0x00000000  x4=0x00000001
       47945000	      4793	800059e8	9660ad93	slti	x27,x1,-1690	  x1:0x310b58e4 x27=0x00000000
       47955000	      4794	800059ec	0099fc63	bgeu	x19,x9,80005a04	 x19:0x00000000  x9:0x013f8800
       47965000	      4795	800059f0	0181d433	srl	x8,x3,x24	  x3:0x00000000 x24:0x2597d000  x8=0x00000000
       47975000	      4796	800059f4	01a6e4b3	or	x9,x13,x26	 x13:0xd0eee000 x26:0x00000001  x9=0xd0eee001
       47985000	      4797	800059f8	01d0a9b3	slt	x19,x1,x29	  x1:0x310b58e4 x29:0xd346db96 x19=0x00000000
       47995000	      4798	800059fc	0148dab3	srl	x21,x17,x20	 x17:0x80009f60 x20:0xfffff900 x21=0x80009f60
       48005000	      4799	80005a00	40d28b33	sub	x22,x5,x13	  x5:0x00000000 x13:0xd0eee000 x22=0x2f112000
       48015000	      4800	80005a04	03104863	blt	x0,x17,80005a34	  x0:0x00000000 x17:0x80009f60
       48025000	      4801	80005a08	00aeea63	bltu	x29,x10,80005a1c	 x29:0xd346db96 x10:0x00000000
       48035000	      4802	80005a0c	0046b4b3	sltu	x9,x13,x4	 x13:0xd0eee000  x4:0x00000001  x9=0x00000000
       48045000	      4803	80005a10	0000b9b3	sltu	x19,x1,x0	  x1:0x310b58e4  x0:0x00000000 x19=0x00000000
       48055000	      4804	80005a14	0233cc63	blt	x7,x3,80005a4c	  x7:0x00000000  x3:0x00000000
       48065000	      4805	80005a18	015c9193	slli	x3,x25,0x15	 x25:0x00000001  x3=0x00200000
       48075000	      4806	80005a1c	00a419b3	sll	x19,x8,x10	  x8:0x00000000 x10:0x00000000 x19=0x00000000
       48085000	      4807	80005a20	00000013	addi	x0,x0,0	  x0:0x00000000
       48095000	      4808	80005a24	021b1263	bne	x22,x1,80005a48	 x22:0x2f112000  x1:0x310b58e4
       48105000	      4809	00000000	00000013	addi	x0,x0,0	  x0:0x00000000
       48115000	      4810	80005a44	00000013	addi	x0,x0,0	  x0:0x00000000
       48125000	      4811	80005a48	00fe9463	bne	x29,x15,80005a50	 x29:0xd346db96 x15:0x80009fe2
       48135000	      4812	00000000	00000013	addi	x0,x0,0	  x0:0x00000000
       48145000	      4813	80005a4c	00000013	addi	x0,x0,0	  x0:0x00000000
       48155000	      4814	80005a50	0f7b2817	auipc	x16,0xf7b2	 x16=0x8f7b7a4c
       48165000	      4815	80005a54	3ef80d13	addi	x26,x16,1007	 x16:0x8f7b7a4c x26=0x8f7b7e3b
       48175000	      4816	80005a58	04025263	bge	x4,x0,80005a9c	  x4:0x00000001  x0:0x00000000
       48185000	      4817	00000000	00000013	addi	x0,x0,0	  x0:0x00000000
       48195000	      4818	80005a98	00000013	addi	x0,x0,0	  x0:0x00000000
       48205000	      4819	80005a9c	004c1013	slli	x0,x24,0x4	 x24:0x2597d000
       48215000	      4820	80005aa0	66a47793	andi	x15,x8,1642	  x8:0x00000000 x15=0x00000000
       48225000	      4821	80005aa4	0089bcb3	sltu	x25,x19,x8	 x19:0x00000000  x8:0x00000000 x25=0x00000000
       48235000	      4822	80005aa8	401156b3	sra	x13,x2,x1	  x2:0xd346db95  x1:0x310b58e4 x13=0xfd346db9
       48245000	      4823	80005aac	01090eb3	add	x29,x18,x16	 x18:0x00000000 x16:0x8f7b7a4c x29=0x8f7b7a4c
       48255000	      4824	80005ab0	d2bfcb37	lui	x22,0xd2bfc	 x22=0xd2bfc000
       48265000	      4825	80005ab4	016a8b33	add	x22,x21,x22	 x21:0x80009f60 x22:0xd2bfc000 x22=0x52c05f60
       48275000	      4826	80005ab8	00fe1e93	slli	x29,x28,0xf	 x28:0xa597dc09 x29=0xee048000
       48285000	      4827	80005abc	0cd5fc63	bgeu	x11,x13,80005b94	 x11:0xc5e349a1 x13:0xfd346db9
       48295000	      4828	80005ac0	00003f17	auipc	x30,0x3	 x30=0x80008abc
       48305000	      4829	80005ac4	dd0f0f13	addi	x30,x30,-560	 x30:0x80008abc x30=0x8000888c
       48315000	      4830	80005ac8	5edeab93	slti	x23,x29,1517	 x29:0xee048000 x23=0x00000001
       48325000	      4831	80005acc	59ff2c23	sw	x31,1432(x30)	 x30:0x8000888c x31:0x80009fc4 PA:0x80008e24
       48335000	      4832	80005ad0	5ddf0583	lb	x11,1501(x30)	 x30:0x8000888c x11=0x00000035 PA:0x80008e69
       48345000	      4833	80005ad4	ff8f0a03	lb	x20,-8(x30)	 x30:0x8000888c x20=0xffffff98 PA:0x80008884
       48355000	      4834	80005ad8	42d97293	andi	x5,x18,1069	 x18:0x00000000  x5=0x00000000
       48365000	      4835	80005adc	62bf4e03	lbu	x28,1579(x30)	 x30:0x8000888c x28=0x00000024 PA:0x80008eb7
       48375000	      4836	80005ae0	152f1903	lh	x18,338(x30)	 x30:0x8000888c x18=0x000001f5 PA:0x800089de
       48385000	      4837	80005ae4	016b3e33	sltu	x28,x22,x22	 x22:0x52c05f60 x22:0x52c05f60 x28=0x00000000
       48395000	      4838	80005ae8	3a2f01a3	sb	x2,931(x30)	 x30:0x8000888c  x2:0xd346db95 PA:0x80008c2f
       48405000	      4839	80005aec	560f1c23	sh	x0,1400(x30)	 x30:0x8000888c  x0:0x00000000 PA:0x80008e04
       48415000	      4840	80005af0	00612633	slt	x12,x2,x6	  x2:0xd346db95  x6:0x00000000 x12=0x00000001
       48425000	      4841	80005af4	371f4c83	lbu	x25,881(x30)	 x30:0x8000888c x25=0x00000086 PA:0x80008bfd
       48435000	      4842	80005af8	fa1f0303	lb	x6,-95(x30)	 x30:0x8000888c  x6=0x0000004a PA:0x8000882d
       48445000	      4843	80005afc	00000013	addi	x0,x0,0	  x0:0x00000000
       48455000	      4844	80005b00	48bf0383	lb	x7,1163(x30)	 x30:0x8000888c  x7=0xffffff81 PA:0x80008d17
       48465000	      4845	80005b04	017d54b3	srl	x9,x26,x23	 x26:0x8f7b7e3b x23:0x00000001  x9=0x47bdbf1d
       48475000	      4846	80005b08	9ae44013	xori	x0,x8,-1618	  x8:0x00000000
       48485000	      4847	80005b0c	493f1e23	sh	x19,1180(x30)	 x30:0x8000888c x19:0x00000000 PA:0x80008d28
       48495000	      4848	80005b10	4bdf0ea3	sb	x29,1213(x30)	 x30:0x8000888c x29:0xee048000 PA:0x80008d49
       48505000	      4849	80005b14	495f0423	sb	x21,1160(x30)	 x30:0x8000888c x21:0x80009f60 PA:0x80008d14
       48515000	      4850	80005b18	485f0423	sb	x5,1160(x30)	 x30:0x8000888c  x5:0x00000000 PA:0x80008d14
       48525000	      4851	80005b1c	1bdf03a3	sb	x29,423(x30)	 x30:0x8000888c x29:0xee048000 PA:0x80008a33
       48535000	      4852	80005b20	01d99693	slli	x13,x19,0x1d	 x19:0x00000000 x13=0x00000000
       48545000	      4853	80005b24	0119c033	xor	x0,x19,x17	 x19:0x00000000 x17:0x80009f60
       48555000	      4854	80005b28	211f4403	lbu	x8,529(x30)	 x30:0x8000888c  x8=0x0000000a PA:0x80008a9d
       48565000	      4855	80005b2c	27af5103	lhu	x2,634(x30)	 x30:0x8000888c  x2=0x000065f9 PA:0x80008b06
       48575000	      4856	80005b30	09698b13	addi	x22,x19,150	 x19:0x00000000 x22=0x00000096
       48585000	      4857	80005b34	533f0983	lb	x19,1331(x30)	 x30:0x8000888c x19=0x00000035 PA:0x80008dbf
       48595000	      4858	80005b38	3e4f4a83	lbu	x21,996(x30)	 x30:0x8000888c x21=0x0000009d PA:0x80008c70
       48605000	      4859	80005b3c	3b6f5083	lhu	x1,950(x30)	 x30:0x8000888c  x1=0x00001c68 PA:0x80008c42
       48615000	      4860	80005b40	524f1b23	sh	x4,1334(x30)	 x30:0x8000888c  x4:0x00000001 PA:0x80008dc2
       48625000	      4861	80005b44	70e86c13	ori	x24,x16,1806	 x16:0x8f7b7a4c x24=0x8f7b7f4e
       48635000	      4862	80005b48	611f1423	sh	x17,1544(x30)	 x30:0x8000888c x17:0x80009f60 PA:0x80008e94
       48645000	      4863	80005b4c	00000013	addi	x0,x0,0	  x0:0x00000000
       48655000	      4864	80005b50	00ff0103	lb	x2,15(x30)	 x30:0x8000888c  x2=0xffffffbc PA:0x8000889b
       48665000	      4865	80005b54	15cf0aa3	sb	x28,341(x30)	 x30:0x8000888c x28:0x00000000 PA:0x800089e1
       48675000	      4866	80005b58	00bf8db3	add	x27,x31,x11	 x31:0x80009fc4 x11:0x00000035 x27=0x80009ff9
       48685000	      4867	80005b5c	f97f0283	lb	x5,-105(x30)	 x30:0x8000888c  x5=0x00000025 PA:0x80008823
       48695000	      4868	80005b60	0cdf01a3	sb	x13,195(x30)	 x30:0x8000888c x13:0x00000000 PA:0x8000894f
       48705000	      4869	80005b64	08d5e393	ori	x7,x11,141	 x11:0x00000035  x7=0x000000bd
       48715000	      4870	80005b68	2a6f1123	sh	x6,674(x30)	 x30:0x8000888c  x6:0x0000004a PA:0x80008b2e
       48725000	      4871	80005b6c	01ee6d33	or	x26,x28,x30	 x28:0x00000000 x30:0x8000888c x26=0x8000888c
       48735000	      4872	80005b70	a1f89217	auipc	x4,0xa1f89	  x4=0x21f8eb6c
       48745000	      4873	80005b74	416985b3	sub	x11,x19,x22	 x19:0x00000035 x22:0x00000096 x11=0xffffff9f
       48755000	      4874	80005b78	01715b93	srli	x23,x2,0x17	  x2:0xffffffbc x23=0x000001ff
       48765000	      4875	80005b7c	c8af8f13	addi	x30,x31,-886	 x31:0x80009fc4 x30=0x80009c4e
       48775000	      4876	80005b80	65362193	slti	x3,x12,1619	 x12:0x00000001  x3=0x00000001
       48785000	      4877	80005b84	019ce4b3	or	x9,x25,x25	 x25:0x00000086 x25:0x00000086  x9=0x00000086
       48795000	      4878	80005b88	e92b8793	addi	x15,x23,-366	 x23:0x000001ff x15=0x00000091
       48805000	      4879	80005b8c	399ba917	auipc	x18,0x399ba	 x18=0xb99bfb88
       48815000	      4880	80005b90	0082d033	srl	x0,x5,x8	  x5:0x00000025  x8:0x0000000a
       48825000	      4881	80005b94	d1036317	auipc	x6,0xd1036	  x6=0x5103bb90
       48835000	      4882	80005b98	017f9a63	bne	x31,x23,80005bac	 x31:0x80009fc4 x23:0x000001ff
       48845000	      4883	00000000	00000013	addi	x0,x0,0	  x0:0x00000000
       48855000	      4884	80005ba8	00000013	addi	x0,x0,0	  x0:0x00000000
       48865000	      4885	80005bac	f7ff3413	sltiu	x8,x30,-129	 x30:0x80009c4e  x8=0x00000001
       48875000	      4886	80005bb0	01313e93	sltiu	x29,x2,19	  x2:0xffffffbc x29=0x00000000
       48885000	      4887	80005bb4	00443233	sltu	x4,x8,x4	  x8:0x00000001  x4:0x21f8eb6c  x4=0x00000001
       48895000	      4888	80005bb8	0225c863	blt	x11,x2,80005be8	 x11:0xffffff9f  x2:0xffffffbc
       48905000	      4889	00000000	00000013	addi	x0,x0,0	  x0:0x00000000
       48915000	      4890	80005be4	00000013	addi	x0,x0,0	  x0:0x00000000
       48925000	      4891	80005be8	4144d833	sra	x16,x9,x20	  x9:0x00000086 x20:0xffffff98 x16=0x00000000
       48935000	      4892	80005bec	402a5a33	sra	x20,x20,x2	 x20:0xffffff98  x2:0xffffffbc x20=0xffffffff
       48945000	      4893	80005bf0	00f3da33	srl	x20,x7,x15	  x7:0x000000bd x15:0x00000091 x20=0x00000000
       48955000	      4894	80005bf4	41565193	srai	x3,x12,0x15	 x12:0x00000001  x3=0x00000000
       48965000	      4895	80005bf8	8ffef793	andi	x15,x29,-1793	 x29:0x00000000 x15=0x00000000
       48975000	      4896	80005bfc	01a4c4b3	xor	x9,x9,x26	  x9:0x00000086 x26:0x8000888c  x9=0x8000880a
       48985000	      4897	80005c00	16d23a93	sltiu	x21,x4,365	  x4:0x00000001 x21=0x00000001
       48995000	      4898	80005c04	4002dbb3	sra	x23,x5,x0	  x5:0x00000025  x0:0x00000000 x23=0x00000025
       49005000	      4899	80005c08	0204d663	bge	x9,x0,80005c34	  x9:0x8000880a  x0:0x00000000
       49015000	      4900	80005c0c	41050db3	sub	x27,x10,x16	 x10:0x00000000 x16:0x00000000 x27=0x00000000
       49025000	      4901	80005c10	00d9d993	srli	x19,x19,0xd	 x19:0x00000035 x19=0x00000000
       49035000	      4902	80005c14	00945c33	srl	x24,x8,x9	  x8:0x00000001  x9:0x8000880a x24=0x00000000
       49045000	      4903	80005c18	00deb6b3	sltu	x13,x29,x13	 x29:0x00000000 x13:0x00000000 x13=0x00000000
       49055000	      4904	80005c1c	cbed3f13	sltiu	x30,x26,-834	 x26:0x8000888c x30=0x00000001
       49065000	      4905	80005c20	01364d33	xor	x26,x12,x19	 x12:0x00000001 x19:0x00000000 x26=0x00000001
       49075000	      4906	80005c24	009e0db3	add	x27,x28,x9	 x28:0x00000000  x9:0x8000880a x27=0x8000880a
       49085000	      4907	80005c28	000fce33	xor	x28,x31,x0	 x31:0x80009fc4  x0:0x00000000 x28=0x80009fc4
       49095000	      4908	80005c2c	bea2f793	andi	x15,x5,-1046	  x5:0x00000025 x15=0x00000020
       49105000	      4909	80005c30	01a39263	bne	x7,x26,80005c34	  x7:0x000000bd x26:0x00000001
       49115000	      4910	00000000	00000013	addi	x0,x0,0	  x0:0x00000000
       49125000	      4911	80005c30	00000013	addi	x0,x0,0	  x0:0x00000000
       49135000	      4912	80005c34	9db50113	addi	x2,x10,-1573	 x10:0x00000000  x2=0xfffff9db
       49145000	      4913	80005c38	416f5333	sra	x6,x30,x22	 x30:0x00000001 x22:0x00000096  x6=0x00000000
       49155000	      4914	80005c3c	8c716c93	ori	x25,x2,-1849	  x2:0xfffff9db x25=0xfffff9df
       49165000	      4915	80005c40	00b00d33	add	x26,x0,x11	  x0:0x00000000 x11:0xffffff9f x26=0xffffff9f
       49175000	      4916	80005c44	75edd997	auipc	x19,0x75edd	 x19=0xf5ee2c40
       49185000	      4917	80005c48	73e07913	andi	x18,x0,1854	  x0:0x00000000 x18=0x00000000
       49195000	      4918	80005c4c	003fd193	srli	x3,x31,0x3	 x31:0x80009fc4  x3=0x100013f8
       49205000	      4919	80005c50	00be9193	slli	x3,x29,0xb	 x29:0x00000000  x3=0x00000000
       49215000	      4920	80005c54	404d0bb3	sub	x23,x26,x4	 x26:0xffffff9f  x4:0x00000001 x23=0xffffff9e
       49225000	      4921	80005c58	00000013	addi	x0,x0,0	  x0:0x00000000
       49235000	      4922	80005c5c	014b9913	slli	x18,x23,0x14	 x23:0xffffff9e x18=0xf9e00000
       49245000	      4923	80005c60	405ed113	srai	x2,x29,0x5	 x29:0x00000000  x2=0x00000000
       49255000	      4924	80005c64	0036a4b3	slt	x9,x13,x3	 x13:0x00000000  x3:0x00000000  x9=0x00000000
       49265000	      4925	80005c68	07582b13	slti	x22,x16,117	 x16:0x00000000 x22=0x00000001
       49275000	      4926	80005c6c	015cccb3	xor	x25,x25,x21	 x25:0xfffff9df x21:0x00000001 x25=0xfffff9de
       49285000	      4927	80005c70	05a31263	bne	x6,x26,80005cb4	  x6:0x00000000 x26:0xffffff9f
       49295000	      4928	00000000	00000013	addi	x0,x0,0	  x0:0x00000000
       49305000	      4929	80005cb0	00000013	addi	x0,x0,0	  x0:0x00000000
       49315000	      4930	80005cb4	01f539b3	sltu	x19,x10,x31	 x10:0x00000000 x31:0x80009fc4 x19=0x00000001
       49325000	      4931	80005cb8	00000013	addi	x0,x0,0	  x0:0x00000000
       49335000	      4932	80005cbc	33d36013	ori	x0,x6,829	  x6:0x00000000
       49345000	      4933	80005cc0	61ba2417	auipc	x8,0x61ba2	  x8=0xe1ba7cbc
       49355000	      4934	80005cc4	e1bc0513	addi	x10,x24,-485	 x24:0x00000000 x10=0xfffffe1b
       49365000	      4935	80005cc8	00389a33	sll	x20,x17,x3	 x17:0x80009f60  x3:0x00000000 x20=0x80009f60
       49375000	      4936	80005ccc	c73a2e13	slti	x28,x20,-909	 x20:0x80009f60 x28=0x00000001
       49385000	      4937	80005cd0	0e4a6663	bltu	x20,x4,80005dbc	 x20:0x80009f60  x4:0x00000001
       49395000	      4938	80005cd4	012aa7b3	slt	x15,x21,x18	 x21:0x00000001 x18:0xf9e00000 x15=0x00000000
       49405000	      4939	80005cd8	013f55b3	srl	x11,x30,x19	 x30:0x00000001 x19:0x00000001 x11=0x00000000
       49415000	      4940	80005cdc	419c8cb3	sub	x25,x25,x25	 x25:0xfffff9de x25:0xfffff9de x25=0x00000000
       49425000	      4941	80005ce0	e1547393	andi	x7,x8,-491	  x8:0xe1ba7cbc  x7=0xe1ba7c14
       49435000	      4942	80005ce4	0018d263	bge	x17,x1,80005ce8	 x17:0x80009f60  x1:0x00001c68
       49445000	      4943	80005ce8	012dd663	bge	x27,x18,80005cf4	 x27:0x8000880a x18:0xf9e00000
       49455000	      4944	80005cec	2fc37693	andi	x13,x6,764	  x6:0x00000000 x13=0x00000000
       49465000	      4945	80005cf0	4135d113	srai	x2,x11,0x13	 x11:0x00000000  x2=0x00000000
       49475000	      4946	80005cf4	00995d33	srl	x26,x18,x9	 x18:0xf9e00000  x9:0x00000000 x26=0xf9e00000
       49485000	      4947	80005cf8	00251a33	sll	x20,x10,x2	 x10:0xfffffe1b  x2:0x00000000 x20=0xfffffe1b
       49495000	      4948	80005cfc	00a4fbb3	and	x23,x9,x10	  x9:0x00000000 x10:0xfffffe1b x23=0x00000000
       49505000	      4949	80005d00	00691133	sll	x2,x18,x6	 x18:0xf9e00000  x6:0x00000000  x2=0xf9e00000
       49515000	      4950	80005d04	52382293	slti	x5,x16,1315	 x16:0x00000000  x5=0x00000001
       49525000	      4951	80005d08	0f9a7463	bgeu	x20,x25,80005df0	 x20:0xfffffe1b x25:0x00000000
       49535000	      4952	00000000	00000013	addi	x0,x0,0	  x0:0x00000000
       49545000	      4953	80005dec	00000013	addi	x0,x0,0	  x0:0x00000000
       49555000	      4954	80005df0	403fd513	srai	x10,x31,0x3	 x31:0x80009fc4 x10=0xf00013f8
       49565000	      4955	80005df4	2c0b2a13	slti	x20,x22,704	 x22:0x00000001 x20=0x00000001
       49575000	      4956	80005df8	00e09d13	slli	x26,x1,0xe	  x1:0x00001c68 x26=0x071a0000
       49585000	      4957	80005dfc	0301e863	bltu	x3,x16,80005e2c	  x3:0x00000000 x16:0x00000000
       49595000	      4958	80005e00	0024b333	sltu	x6,x9,x2	  x9:0x00000000  x2:0xf9e00000  x6=0x00000001
       49605000	      4959	80005e04	00284433	xor	x8,x16,x2	 x16:0x00000000  x2:0xf9e00000  x8=0xf9e00000
       49615000	      4960	80005e08	00d81e63	bne	x16,x13,80005e24	 x16:0x00000000 x13:0x00000000
       49625000	      4961	80005e0c	0f2a7c93	andi	x25,x20,242	 x20:0x00000001 x25=0x00000000
       49635000	      4962	80005e10	bd792393	slti	x7,x18,-1065	 x18:0xf9e00000  x7=0x00000001
       49645000	      4963	80005e14	0081e463	bltu	x3,x8,80005e1c	  x3:0x00000000  x8:0xf9e00000
       49655000	      4964	00000000	00000013	addi	x0,x0,0	  x0:0x00000000
       49665000	      4965	80005e18	00000013	addi	x0,x0,0	  x0:0x00000000
       49675000	      4966	80005e1c	40d4d5b3	sra	x11,x9,x13	  x9:0x00000000 x13:0x00000000 x11=0x00000000
       49685000	      4967	80005e20	009edf33	srl	x30,x29,x9	 x29:0x00000000  x9:0x00000000 x30=0x00000000
       49695000	      4968	80005e24	01579c63	bne	x15,x21,80005e3c	 x15:0x00000000 x21:0x00000001
       49705000	      4969	00000000	00000013	addi	x0,x0,0	  x0:0x00000000
       49715000	      4970	80005e38	00000013	addi	x0,x0,0	  x0:0x00000000
       49725000	      4971	80005e3c	005c9793	slli	x15,x25,0x5	 x25:0x00000000 x15=0x00000000
       49735000	      4972	80005e40	b1edf093	andi	x1,x27,-1250	 x27:0x8000880a  x1=0x8000880a
       49745000	      4973	80005e44	10ceb117	auipc	x2,0x10ceb	  x2=0x90cf0e40
       49755000	      4974	80005e48	709e8f37	lui	x30,0x709e8	 x30=0x709e8000
       49765000	      4975	80005e4c	529b4493	xori	x9,x22,1321	 x22:0x00000001  x9=0x00000528
       49775000	      4976	80005e50	0182adb3	slt	x27,x5,x24	  x5:0x00000001 x24:0x00000000 x27=0x00000000
       49785000	      4977	80005e54	00000013	addi	x0,x0,0	  x0:0x00000000
       49795000	      4978	80005e58	002e5a63	bge	x28,x2,80005e6c	 x28:0x00000001  x2:0x90cf0e40
       49805000	      4979	00000000	00000013	addi	x0,x0,0	  x0:0x00000000
       49815000	      4980	80005e68	00000013	addi	x0,x0,0	  x0:0x00000000
       49825000	      4981	80005e6c	fc7f0c97	auipc	x25,0xfc7f0	 x25=0x7c7f5e68
       49835000	      4982	80005e70	01655cb3	srl	x25,x10,x22	 x10:0xf00013f8 x22:0x00000001 x25=0x780009fc
       49845000	      4983	80005e74	404f8633	sub	x12,x31,x4	 x31:0x80009fc4  x4:0x00000001 x12=0x80009fc3
       49855000	      4984	80005e78	101eda63	bge	x29,x1,80005f8c	 x29:0x00000000  x1:0x8000880a
       49865000	      4985	00000000	00000013	addi	x0,x0,0	  x0:0x00000000
       49875000	      4986	80005f88	00000013	addi	x0,x0,0	  x0:0x00000000
       49885000	      4987	80005f8c	403b5613	srai	x12,x22,0x3	 x22:0x00000001 x12=0x00000000
       49895000	      4988	80005f90	0002a633	slt	x12,x5,x0	  x5:0x00000001  x0:0x00000000 x12=0x00000000
       49905000	      4989	80005f94	00496463	bltu	x18,x4,80005f9c	 x18:0xf9e00000  x4:0x00000001
       49915000	      4990	80005f98	41c18eb3	sub	x29,x3,x28	  x3:0x00000000 x28:0x00000001 x29=0xffffffff
       49925000	      4991	80005f9c	01857633	and	x12,x10,x24	 x10:0xf00013f8 x24:0x00000000 x12=0x00000000
       49935000	      4992	80005fa0	0050a233	slt	x4,x1,x5	  x1:0x8000880a  x5:0x00000001  x4=0x00000001
       49945000	      4993	80005fa4	0257e663	bltu	x15,x5,80005fd0	 x15:0x00000000  x5:0x00000001
       49955000	      4994	00000000	00000013	addi	x0,x0,0	  x0:0x00000000
       49965000	      4995	80005fcc	00000013	addi	x0,x0,0	  x0:0x00000000
       49975000	      4996	80005fd0	40e7d6b3	sra	x13,x15,x14	 x15:0x00000000 x14:0x00000000 x13=0x00000000
       49985000	      4997	80005fd4	7929e613	ori	x12,x19,1938	 x19:0x00000001 x12=0x00000793
       49995000	      4998	80005fd8	41b15613	srai	x12,x2,0x1b	  x2:0x90cf0e40 x12=0xfffffff2
       50005000	      4999	80005fdc	460ea317	auipc	x6,0x460ea	  x6=0xc60effd8
       50015000	      5000	80005fe0	01fe0663	beq	x28,x31,80005fec	 x28:0x00000001 x31:0x80009fc4
       50025000	      5001	80005fe4	007ab033	sltu	x0,x21,x7	 x21:0x00000001  x7:0x00000001
       50035000	      5002	80005fe8	04ebee63	bltu	x23,x14,80006044	 x23:0x00000000 x14:0x00000000
       50045000	      5003	80005fec	0346f813	andi	x16,x13,52	 x13:0x00000000 x16=0x00000000
       50055000	      5004	80005ff0	573232b7	lui	x5,0x57323	  x5=0x57323000
       50065000	      5005	80005ff4	61a7c313	xori	x6,x15,1562	 x15:0x00000000  x6=0x0000061a
       50075000	      5006	80005ff8	2d62a413	slti	x8,x5,726	  x5:0x57323000  x8=0x00000000
       50085000	      5007	80005ffc	fb86ce13	xori	x28,x13,-72	 x13:0x00000000 x28=0xffffffb8
       50095000	      5008	80006000	07bf5c63	bge	x30,x27,80006078	 x30:0x709e8000 x27:0x00000000
       50105000	      5009	00000000	00000013	addi	x0,x0,0	  x0:0x00000000
       50115000	      5010	80006074	00000013	addi	x0,x0,0	  x0:0x00000000
       50125000	      5011	80006078	a66fbb93	sltiu	x23,x31,-1434	 x31:0x80009fc4 x23=0x00000001
       50135000	      5012	8000607c	03cb9863	bne	x23,x28,800060ac	 x23:0x00000001 x28:0xffffffb8
       50145000	      5013	00000000	00000013	addi	x0,x0,0	  x0:0x00000000
       50155000	      5014	800060a8	00000013	addi	x0,x0,0	  x0:0x00000000
       50165000	      5015	800060ac	5b470693	addi	x13,x14,1460	 x14:0x00000000 x13=0x000005b4
       50175000	      5016	800060b0	01528533	add	x10,x5,x21	  x5:0x57323000 x21:0x00000001 x10=0x57323001
       50185000	      5017	800060b4	00837b33	and	x22,x6,x8	  x6:0x0000061a  x8:0x00000000 x22=0x00000000
       50195000	      5018	800060b8	00644a63	blt	x8,x6,800060cc	  x8:0x00000000  x6:0x0000061a
       50205000	      5019	00000000	00000013	addi	x0,x0,0	  x0:0x00000000
       50215000	      5020	800060c8	00000013	addi	x0,x0,0	  x0:0x00000000
       50225000	      5021	800060cc	05097263	bgeu	x18,x16,80006110	 x18:0xf9e00000 x16:0x00000000
       50235000	      5022	00000000	00000013	addi	x0,x0,0	  x0:0x00000000
       50245000	      5023	8000610c	00000013	addi	x0,x0,0	  x0:0x00000000
       50255000	      5024	80006110	d1956797	auipc	x15,0xd1956	 x15=0x5195c10c
       50265000	      5025	80006114	6f14c493	xori	x9,x9,1777	  x9:0x00000528  x9=0x000003d9
       50275000	      5026	80006118	415a5213	srai	x4,x20,0x15	 x20:0x00000001  x4=0x00000000
       50285000	      5027	8000611c	019637b3	sltu	x15,x12,x25	 x12:0xfffffff2 x25:0x780009fc x15=0x00000000
       50295000	      5028	80006120	24570d97	auipc	x27,0x24570	 x27=0xa457611c
       50305000	      5029	80006124	009f7f33	and	x30,x30,x9	 x30:0x709e8000  x9:0x000003d9 x30=0x00000000
       50315000	      5030	80006128	00cdcc63	blt	x27,x12,80006140	 x27:0xa457611c x12:0xfffffff2
       50325000	      5031	00000000	00000013	addi	x0,x0,0	  x0:0x00000000
       50335000	      5032	8000613c	00000013	addi	x0,x0,0	  x0:0x00000000
       50345000	      5033	80006140	41618a33	sub	x20,x3,x22	  x3:0x00000000 x22:0x00000000 x20=0x00000000
       50355000	      5034	80006144	b79b6037	lui	x0,0xb79b6	
       50365000	      5035	80006148	017e7463	bgeu	x28,x23,80006150	 x28:0xffffffb8 x23:0x00000001
       50375000	      5036	00000000	00000013	addi	x0,x0,0	  x0:0x00000000
       50385000	      5037	8000614c	00000013	addi	x0,x0,0	  x0:0x00000000
       50395000	      5038	80006150	008067b3	or	x15,x0,x8	  x0:0x00000000  x8:0x00000000 x15=0x00000000
       50405000	      5039	80006154	8bc22b93	slti	x23,x4,-1860	  x4:0x00000000 x23=0x00000000
       50415000	      5040	80006158	0258f863	bgeu	x17,x5,80006188	 x17:0x80009f60  x5:0x57323000
       50425000	      5041	00000000	00000013	addi	x0,x0,0	  x0:0x00000000
       50435000	      5042	80006184	00000013	addi	x0,x0,0	  x0:0x00000000
       50445000	      5043	80006188	40b15d33	sra	x26,x2,x11	  x2:0x90cf0e40 x11:0x00000000 x26=0x90cf0e40
       50455000	      5044	8000618c	014a5813	srli	x16,x20,0x14	 x20:0x00000000 x16=0x00000000
       50465000	      5045	80006190	6f158913	addi	x18,x11,1777	 x11:0x00000000 x18=0x000006f1
       50475000	      5046	80006194	00408c63	beq	x1,x4,800061ac	  x1:0x8000880a  x4:0x00000000
       50485000	      5047	80006198	407e03b3	sub	x7,x28,x7	 x28:0xffffffb8  x7:0x00000001  x7=0xffffffb7
       50495000	      5048	8000619c	008f0bb3	add	x23,x30,x8	 x30:0x00000000  x8:0x00000000 x23=0x00000000
       50505000	      5049	800061a0	05a6e663	bltu	x13,x26,800061ec	 x13:0x000005b4 x26:0x90cf0e40
       50515000	      5050	00000000	00000013	addi	x0,x0,0	  x0:0x00000000
       50525000	      5051	800061e8	00000013	addi	x0,x0,0	  x0:0x00000000
       50535000	      5052	800061ec	41055493	srai	x9,x10,0x10	 x10:0x57323001  x9=0x00005732
       50545000	      5053	800061f0	76df4e93	xori	x29,x30,1901	 x30:0x00000000 x29=0x0000076d
       50555000	      5054	800061f4	00cca233	slt	x4,x25,x12	 x25:0x780009fc x12:0xfffffff2  x4=0x00000000
       50565000	      5055	800061f8	41495233	sra	x4,x18,x20	 x18:0x000006f1 x20:0x00000000  x4=0x000006f1
       50575000	      5056	800061fc	d581e013	ori	x0,x3,-680	  x3:0x00000000
       50585000	      5057	80006200	e5f84c37	lui	x24,0xe5f84	 x24=0xe5f84000
       50595000	      5058	80006204	0150d833	srl	x16,x1,x21	  x1:0x8000880a x21:0x00000001 x16=0x40004405
       50605000	      5059	80006208	1bc70313	addi	x6,x14,444	 x14:0x00000000  x6=0x000001bc
       50615000	      5060	8000620c	eec18413	addi	x8,x3,-276	  x3:0x00000000  x8=0xfffffeec
       50625000	      5061	80006210	01e30db3	add	x27,x6,x30	  x6:0x000001bc x30:0x00000000 x27=0x000001bc
       50635000	      5062	80006214	014cd3b3	srl	x7,x25,x20	 x25:0x780009fc x20:0x00000000  x7=0x780009fc
       50645000	      5063	80006218	3fc76db7	lui	x27,0x3fc76	 x27=0x3fc76000
       50655000	      5064	8000621c	0035ea63	bltu	x11,x3,80006230	 x11:0x00000000  x3:0x00000000
       50665000	      5065	80006220	c22a6f13	ori	x30,x20,-990	 x20:0x00000000 x30=0xfffffc22
       50675000	      5066	80006224	03e89663	bne	x17,x30,80006250	 x17:0x80009f60 x30:0xfffffc22
       50685000	      5067	00000000	00000013	addi	x0,x0,0	  x0:0x00000000
       50695000	      5068	8000624c	00000013	addi	x0,x0,0	  x0:0x00000000
       50705000	      5069	80006250	01d55c13	srli	x24,x10,0x1d	 x10:0x57323001 x24=0x00000002
       50715000	      5070	80006254	627bfd93	andi	x27,x23,1575	 x23:0x00000000 x27=0x00000000
       50725000	      5071	80006258	00663f33	sltu	x30,x12,x6	 x12:0xfffffff2  x6:0x000001bc x30=0x00000000
       50735000	      5072	8000625c	41de02b3	sub	x5,x28,x29	 x28:0xffffffb8 x29:0x0000076d  x5=0xfffff84b
       50745000	      5073	80006260	004a6863	bltu	x20,x4,80006270	 x20:0x00000000  x4:0x000006f1
       50755000	      5074	00000000	00000013	addi	x0,x0,0	  x0:0x00000000
       50765000	      5075	8000626c	00000013	addi	x0,x0,0	  x0:0x00000000
       50775000	      5076	80006270	00331663	bne	x6,x3,8000627c	  x6:0x000001bc  x3:0x00000000
       50785000	      5077	00000000	00000013	addi	x0,x0,0	  x0:0x00000000
       50795000	      5078	80006278	00000013	addi	x0,x0,0	  x0:0x00000000
       50805000	      5079	8000627c	01cae233	or	x4,x21,x28	 x21:0x00000001 x28:0xffffffb8  x4=0xffffffb9
       50815000	      5080	80006280	009154b3	srl	x9,x2,x9	  x2:0x90cf0e40  x9:0x00005732  x9=0x00002433
       50825000	      5081	80006284	a2574213	xori	x4,x14,-1499	 x14:0x00000000  x4=0xfffffa25
       50835000	      5082	80006288	50b8ba13	sltiu	x20,x17,1291	 x17:0x80009f60 x20=0x00000000
       50845000	      5083	8000628c	0153deb3	srl	x29,x7,x21	  x7:0x780009fc x21:0x00000001 x29=0x3c0004fe
       50855000	      5084	80006290	6e820eb7	lui	x29,0x6e820	 x29=0x6e820000
       50865000	      5085	80006294	00003b17	auipc	x22,0x3	 x22=0x80009290
       50875000	      5086	80006298	8c5b0b13	addi	x22,x22,-1851	 x22:0x80009290 x22=0x80008b55
       50885000	      5087	8000629c	ff4b1ca3	sh	x20,-7(x22)	 x22:0x80008b55 x20:0x00000000 PA:0x80008b4e
       50895000	      5088	800062a0	00eb0523	sb	x14,10(x22)	 x22:0x80008b55 x14:0x00000000 PA:0x80008b5f
       50905000	      5089	800062a4	00fb1103	lh	x2,15(x22)	 x22:0x80008b55  x2=0xffff86ba PA:0x80008b64
       50915000	      5090	00000000	00000013	addi	x0,x0,0	  x0:0x00000000
       50925000	      5091	800062a8	002b0283	lb	x5,2(x22)	 x22:0x80008b55  x5=0x00000005 PA:0x80008b57
       50935000	      5092	800062ac	e4bd6517	auipc	x10,0xe4bd6	 x10=0x64bdc2a8
       50945000	      5093	800062b0	6e013213	sltiu	x4,x2,1760	  x2:0xffff86ba  x4=0x00000000
       50955000	      5094	800062b4	5f06fa13	andi	x20,x13,1520	 x13:0x000005b4 x20=0x000005b0
       50965000	      5095	800062b8	00038e33	add	x28,x7,x0	  x7:0x780009fc  x0:0x00000000 x28=0x780009fc
       50975000	      5096	800062bc	000e52b3	srl	x5,x28,x0	 x28:0x780009fc  x0:0x00000000  x5=0x780009fc
       50985000	      5097	800062c0	edc48c13	addi	x24,x9,-292	  x9:0x00002433 x24=0x0000230f
       50995000	      5098	800062c4	01be6d33	or	x26,x28,x27	 x28:0x780009fc x27:0x00000000 x26=0x780009fc
       51005000	      5099	800062c8	00b28333	add	x6,x5,x11	  x5:0x780009fc x11:0x00000000  x6=0x780009fc
       51015000	      5100	800062cc	010b0123	sb	x16,2(x22)	 x22:0x80008b55 x16:0x40004405 PA:0x80008b57
       51025000	      5101	800062d0	40f25e93	srai	x29,x4,0xf	  x4:0x00000000 x29=0x00000000
       51035000	      5102	800062d4	40815533	sra	x10,x2,x8	  x2:0xffff86ba  x8:0xfffffeec x10=0xfffffff8
       51045000	      5103	800062d8	fe1b09a3	sb	x1,-13(x22)	 x22:0x80008b55  x1:0x8000880a PA:0x80008b48
       51055000	      5104	800062dc	000b0423	sb	x0,8(x22)	 x22:0x80008b55  x0:0x00000000 PA:0x80008b5d
       51065000	      5105	800062e0	006c7633	and	x12,x24,x6	 x24:0x0000230f  x6:0x780009fc x12=0x0000010c
       51075000	      5106	800062e4	00617f33	and	x30,x2,x6	  x2:0xffff86ba  x6:0x780009fc x30=0x780000b8
       51085000	      5107	800062e8	002b0e83	lb	x29,2(x22)	 x22:0x80008b55 x29=0x00000005 PA:0x80008b57
       51095000	      5108	800062ec	002b4d83	lbu	x27,2(x22)	 x22:0x80008b55 x27=0x00000005 PA:0x80008b57
       51105000	      5109	800062f0	400c8337	lui	x6,0x400c8	  x6=0x400c8000
       51115000	      5110	800062f4	851b4793	xori	x15,x22,-1967	 x22:0x80008b55 x15=0x7fff7304
       51125000	      5111	800062f8	0116f6b3	and	x13,x13,x17	 x13:0x000005b4 x17:0x80009f60 x13=0x00000520
       51135000	      5112	800062fc	acc80793	addi	x15,x16,-1332	 x16:0x40004405 x15=0x40003ed1
       51145000	      5113	80006300	01bfadb3	slt	x27,x31,x27	 x31:0x80009fc4 x27:0x00000005 x27=0x00000001
       51155000	      5114	80006304	00ab0e03	lb	x28,10(x22)	 x22:0x80008b55 x28=0x00000000 PA:0x80008b5f
       51165000	      5115	80006308	01f8a9b3	slt	x19,x17,x31	 x17:0x80009f60 x31:0x80009fc4 x19=0x00000001
       51175000	      5116	8000630c	ff2b0e23	sb	x18,-4(x22)	 x22:0x80008b55 x18:0x000006f1 PA:0x80008b51
       51185000	      5117	80006310	00cb0803	lb	x16,12(x22)	 x22:0x80008b55 x16=0x00000000 PA:0x80008b61
       51195000	      5118	80006314	002b0583	lb	x11,2(x22)	 x22:0x80008b55 x11=0x00000005 PA:0x80008b57
       51205000	      5119	80006318	ffbb1c83	lh	x25,-5(x22)	 x22:0x80008b55 x25=0xfffff178 PA:0x80008b50
       51215000	      5120	8000631c	01e957b3	srl	x15,x18,x30	 x18:0x000006f1 x30:0x780000b8 x15=0x00000000
       51225000	      5121	80006320	00000013	addi	x0,x0,0	  x0:0x00000000
       51235000	      5122	80006324	ff0b0483	lb	x9,-16(x22)	 x22:0x80008b55  x9=0xffffffe7 PA:0x80008b45
       51245000	      5123	80006328	0125c233	xor	x4,x11,x18	 x11:0x00000005 x18:0x000006f1  x4=0x000006f4
       51255000	      5124	8000632c	00cb4083	lbu	x1,12(x22)	 x22:0x80008b55  x1=0x00000000 PA:0x80008b61
       51265000	      5125	80006330	0e418093	addi	x1,x3,228	  x3:0x00000000  x1=0x000000e4
       51275000	      5126	80006334	01049533	sll	x10,x9,x16	  x9:0xffffffe7 x16:0x00000000 x10=0xffffffe7
       51285000	      5127	80006338	001b21a3	sw	x1,3(x22)	 x22:0x80008b55  x1:0x000000e4 PA:0x80008b58
       51295000	      5128	8000633c	29cc0437	lui	x8,0x29cc0	  x8=0x29cc0000
       51305000	      5129	80006340	006b0183	lb	x3,6(x22)	 x22:0x80008b55  x3=0x00000000 PA:0x80008b5b
       51315000	      5130	80006344	ffdb0923	sb	x29,-14(x22)	 x22:0x80008b55 x29:0x00000005 PA:0x80008b47
       51325000	      5131	80006348	ff1b0c23	sb	x17,-8(x22)	 x22:0x80008b55 x17:0x80009f60 PA:0x80008b4d
       51335000	      5132	8000634c	410e5913	srai	x18,x28,0x10	 x28:0x00000000 x18=0x00000000
       51345000	      5133	80006350	ff8b4003	lbu	x0,-8(x22)	 x22:0x80008b55 PA:0x80008b4d
       51355000	      5134	80006354	019fe333	or	x6,x31,x25	 x31:0x80009fc4 x25:0xfffff178  x6=0xfffffffc
       51365000	      5135	80006358	6bb04a13	xori	x20,x0,1723	  x0:0x00000000 x20=0x000006bb
       51375000	      5136	8000635c	b7492a13	slti	x20,x18,-1164	 x18:0x00000000 x20=0x00000000
       51385000	      5137	80006360	896e2413	slti	x8,x28,-1898	 x28:0x00000000  x8=0x00000000
       51395000	      5138	80006364	413a5eb3	sra	x29,x20,x19	 x20:0x00000000 x19:0x00000001 x29=0x00000000
       51405000	      5139	80006368	32647d17	auipc	x26,0x32647	 x26=0xb264d364
       51415000	      5140	8000636c	0019fd33	and	x26,x19,x1	 x19:0x00000001  x1:0x000000e4 x26=0x00000000
       51425000	      5141	80006370	01db6d33	or	x26,x22,x29	 x22:0x80008b55 x29:0x00000000 x26=0x80008b55
       51435000	      5142	80006374	d1f6e113	ori	x2,x13,-737	 x13:0x00000520  x2=0xfffffd3f
       51445000	      5143	80006378	7cbb0e13	addi	x28,x22,1995	 x22:0x80008b55 x28=0x80009320
       51455000	      5144	8000637c	eca9c793	xori	x15,x19,-310	 x19:0x00000001 x15=0xfffffecb
       51465000	      5145	80006380	ff769517	auipc	x10,0xff769	 x10=0x7f76f37c
       51475000	      5146	80006384	0422f663	bgeu	x5,x2,800063d0	  x5:0x780009fc  x2:0xfffffd3f
       51485000	      5147	80006388	01d8e7b3	or	x15,x17,x29	 x17:0x80009f60 x29:0x00000000 x15=0x80009f60
       51495000	      5148	8000638c	f4347613	andi	x12,x8,-189	  x8:0x00000000 x12=0x00000000
       51505000	      5149	80006390	0156a1b3	slt	x3,x13,x21	 x13:0x00000520 x21:0x00000001  x3=0x00000000
       51515000	      5150	80006394	021a8263	beq	x21,x1,800063b8	 x21:0x00000001  x1:0x000000e4
       51525000	      5151	80006398	41f15e13	srai	x28,x2,0x1f	  x2:0xfffffd3f x28=0xffffffff
       51535000	      5152	8000639c	00fd9c93	slli	x25,x27,0xf	 x27:0x00000001 x25=0x00008000
       51545000	      5153	800063a0	0174dd13	srli	x26,x9,0x17	  x9:0xffffffe7 x26=0x000001ff
       51555000	      5154	800063a4	01a82233	slt	x4,x16,x26	 x16:0x00000000 x26:0x000001ff  x4=0x00000001
       51565000	      5155	800063a8	031dc863	blt	x27,x17,800063d8	 x27:0x00000001 x17:0x80009f60
       51575000	      5156	800063ac	8f8ef417	auipc	x8,0x8f8ef	  x8=0x0f8f53a8
       51585000	      5157	800063b0	49e5e113	ori	x2,x11,1182	 x11:0x00000005  x2=0x0000049f
       51595000	      5158	800063b4	004b7f33	and	x30,x22,x4	 x22:0x80008b55  x4:0x00000001 x30=0x00000001
       51605000	      5159	800063b8	00715693	srli	x13,x2,0x7	  x2:0x0000049f x13=0x00000009
       51615000	      5160	800063bc	00a43eb3	sltu	x29,x8,x10	  x8:0x0f8f53a8 x10:0x7f76f37c x29=0x00000001
       51625000	      5161	800063c0	81398f37	lui	x30,0x81398	 x30=0x81398000
       51635000	      5162	800063c4	04d9c063	blt	x19,x13,80006404	 x19:0x00000001 x13:0x00000009
       51645000	      5163	00000000	00000013	addi	x0,x0,0	  x0:0x00000000
       51655000	      5164	80006400	00000013	addi	x0,x0,0	  x0:0x00000000
       51665000	      5165	80006404	9de48397	auipc	x7,0x9de48	  x7=0x1de4e400
       51675000	      5166	80006408	00b8c263	blt	x17,x11,8000640c	 x17:0x80009f60 x11:0x00000005
       51685000	      5167	00000000	00000013	addi	x0,x0,0	  x0:0x00000000
       51695000	      5168	80006408	00000013	addi	x0,x0,0	  x0:0x00000000
       51705000	      5169	8000640c	028ae063	bltu	x21,x8,8000642c	 x21:0x00000001  x8:0x0f8f53a8
       51715000	      5170	00000000	00000013	addi	x0,x0,0	  x0:0x00000000
       51725000	      5171	80006428	00000013	addi	x0,x0,0	  x0:0x00000000
       51735000	      5172	8000642c	d631fd17	auipc	x26,0xd631f	 x26=0x56325428
       51745000	      5173	80006430	40f4da93	srai	x21,x9,0xf	  x9:0xffffffe7 x21=0xffffffff
       51755000	      5174	80006434	00ebabb3	slt	x23,x23,x14	 x23:0x00000000 x14:0x00000000 x23=0x00000000
       51765000	      5175	80006438	01454663	blt	x10,x20,80006444	 x10:0x7f76f37c x20:0x00000000
       51775000	      5176	8000643c	0161c263	blt	x3,x22,80006440	  x3:0x00000000 x22:0x80008b55
       51785000	      5177	80006440	45f9ce13	xori	x28,x19,1119	 x19:0x00000001 x28=0x0000045e
       51795000	      5178	80006444	e3ec2a93	slti	x21,x24,-450	 x24:0x0000230f x21=0x00000000
       51805000	      5179	80006448	a69aa693	slti	x13,x21,-1431	 x21:0x00000000 x13=0x00000000
       51815000	      5180	8000644c	7e37fd13	andi	x26,x15,2019	 x15:0x80009f60 x26=0x00000760
       51825000	      5181	80006450	00c272b3	and	x5,x4,x12	  x4:0x00000001 x12:0x00000000  x5=0x00000000
       51835000	      5182	80006454	00a55213	srli	x4,x10,0xa	 x10:0x7f76f37c  x4=0x001fddbc
       51845000	      5183	80006458	5910e037	lui	x0,0x5910e	
       51855000	      5184	8000645c	417e5213	srai	x4,x28,0x17	 x28:0x0000045e  x4=0x00000000
       51865000	      5185	80006460	0372c663	blt	x5,x23,8000648c	  x5:0x00000000 x23:0x00000000
       51875000	      5186	80006464	4d1abc37	lui	x24,0x4d1ab	 x24=0x4d1ab000
       51885000	      5187	80006468	000e57b3	srl	x15,x28,x0	 x28:0x0000045e  x0:0x00000000 x15=0x0000045e
       51895000	      5188	8000646c	01b58a33	add	x20,x11,x27	 x11:0x00000005 x27:0x00000001 x20=0x00000006
       51905000	      5189	80006470	011dc133	xor	x2,x27,x17	 x27:0x00000001 x17:0x80009f60  x2=0x80009f61
       51915000	      5190	80006474	00000013	addi	x0,x0,0	  x0:0x00000000
       51925000	      5191	80006478	010a06b3	add	x13,x20,x16	 x20:0x00000006 x16:0x00000000 x13=0x00000006
       51935000	      5192	8000647c	00252633	slt	x12,x10,x2	 x10:0x7f76f37c  x2:0x80009f61 x12=0x00000000
       51945000	      5193	80006480	7aa06493	ori	x9,x0,1962	  x0:0x00000000  x9=0x000007aa
       51955000	      5194	80006484	01867133	and	x2,x12,x24	 x12:0x00000000 x24:0x4d1ab000  x2=0x00000000
       51965000	      5195	80006488	00b03f33	sltu	x30,x0,x11	  x0:0x00000000 x11:0x00000005 x30=0x00000001
       51975000	      5196	8000648c	43ce2b13	slti	x22,x28,1084	 x28:0x0000045e x22=0x00000000
       51985000	      5197	80006490	00071e63	bne	x14,x0,800064ac	 x14:0x00000000  x0:0x00000000
       51995000	      5198	80006494	00942c33	slt	x24,x8,x9	  x8:0x0f8f53a8  x9:0x000007aa x24=0x00000000
       52005000	      5199	80006498	403b8e33	sub	x28,x23,x3	 x23:0x00000000  x3:0x00000000 x28=0x00000000
       52015000	      5200	8000649c	06532193	slti	x3,x6,101	  x6:0xfffffffc  x3=0x00000001
       52025000	      5201	800064a0	0401e063	bltu	x3,x0,800064e0	  x3:0x00000001  x0:0x00000000
       52035000	      5202	800064a4	0175c833	xor	x16,x11,x23	 x11:0x00000005 x23:0x00000000 x16=0x00000005
       52045000	      5203	800064a8	0319c063	blt	x19,x17,800064c8	 x19:0x00000001 x17:0x80009f60
       52055000	      5204	800064ac	01b8ea63	bltu	x17,x27,800064c0	 x17:0x80009f60 x27:0x00000001
       52065000	      5205	800064b0	4df02e93	slti	x29,x0,1247	  x0:0x00000000 x29=0x00000001
       52075000	      5206	800064b4	007bd863	bge	x23,x7,800064c4	 x23:0x00000000  x7:0x1de4e400
       52085000	      5207	800064b8	00f075b3	and	x11,x0,x15	  x0:0x00000000 x15:0x0000045e x11=0x00000000
       52095000	      5208	800064bc	cbd4a813	slti	x16,x9,-835	  x9:0x000007aa x16=0x00000000
       52105000	      5209	800064c0	041e6263	bltu	x28,x1,80006504	 x28:0x00000000  x1:0x000000e4
       52115000	      5210	00000000	00000013	addi	x0,x0,0	  x0:0x00000000
       52125000	      5211	80006500	00000013	addi	x0,x0,0	  x0:0x00000000
       52135000	      5212	80006504	00000013	addi	x0,x0,0	  x0:0x00000000
       52145000	      5213	80006508	30472e13	slti	x28,x14,772	 x14:0x00000000 x28=0x00000001
       52155000	      5214	8000650c	017b5833	srl	x16,x22,x23	 x22:0x00000000 x23:0x00000000 x16=0x00000000
       52165000	      5215	80006510	01b9de93	srli	x29,x19,0x1b	 x19:0x00000001 x29=0x00000000
       52175000	      5216	80006514	0c7d8137	lui	x2,0xc7d8	  x2=0x0c7d8000
       52185000	      5217	80006518	0038fa63	bgeu	x17,x3,8000652c	 x17:0x80009f60  x3:0x00000001
       52195000	      5218	00000000	00000013	addi	x0,x0,0	  x0:0x00000000
       52205000	      5219	80006528	00000013	addi	x0,x0,0	  x0:0x00000000
       52215000	      5220	8000652c	4166d233	sra	x4,x13,x22	 x13:0x00000006 x22:0x00000000  x4=0x00000006
       52225000	      5221	80006530	01424233	xor	x4,x4,x20	  x4:0x00000006 x20:0x00000006  x4=0x00000000
       52235000	      5222	80006534	01d06bb3	or	x23,x0,x29	  x0:0x00000000 x29:0x00000000 x23=0x00000000
       52245000	      5223	80006538	72cd8393	addi	x7,x27,1836	 x27:0x00000001  x7=0x0000072d
       52255000	      5224	8000653c	f1bb2a13	slti	x20,x22,-229	 x22:0x00000000 x20=0x00000000
       52265000	      5225	80006540	967c0393	addi	x7,x24,-1689	 x24:0x00000000  x7=0xfffff967
       52275000	      5226	80006544	40d95b33	sra	x22,x18,x13	 x18:0x00000000 x13:0x00000006 x22=0x00000000
       52285000	      5227	80006548	02aa0597	auipc	x11,0x2aa0	 x11=0x82aa6544
       52295000	      5228	8000654c	41960b33	sub	x22,x12,x25	 x12:0x00000000 x25:0x00008000 x22=0xffff8000
       52305000	      5229	80006550	40c18eb3	sub	x29,x3,x12	  x3:0x00000001 x12:0x00000000 x29=0x00000001
       52315000	      5230	80006554	04abb393	sltiu	x7,x23,74	 x23:0x00000000  x7=0x00000001
       52325000	      5231	80006558	1cbff537	lui	x10,0x1cbff	 x10=0x1cbff000
       52335000	      5232	8000655c	02a54463	blt	x10,x10,80006584	 x10:0x1cbff000 x10:0x1cbff000
       52345000	      5233	80006560	01df5833	srl	x16,x30,x29	 x30:0x00000001 x29:0x00000001 x16=0x00000000
       52355000	      5234	80006564	0480f663	bgeu	x1,x8,800065b0	  x1:0x000000e4  x8:0x0f8f53a8
       52365000	      5235	80006568	bf990a93	addi	x21,x18,-1031	 x18:0x00000000 x21=0xfffffbf9
       52375000	      5236	8000656c	dd233993	sltiu	x19,x6,-558	  x6:0xfffffffc x19=0x00000000
       52385000	      5237	80006570	057a4263	blt	x20,x23,800065b4	 x20:0x00000000 x23:0x00000000
       52395000	      5238	80006574	01ee1c63	bne	x28,x30,8000658c	 x28:0x00000001 x30:0x00000001
       52405000	      5239	80006578	013a5293	srli	x5,x20,0x13	 x20:0x00000000  x5=0x00000000
       52415000	      5240	8000657c	40620f33	sub	x30,x4,x6	  x4:0x00000000  x6:0xfffffffc x30=0x00000004
       52425000	      5241	80006580	004e95b3	sll	x11,x29,x4	 x29:0x00000001  x4:0x00000000 x11=0x00000001
       52435000	      5242	80006584	016d7663	bgeu	x26,x22,80006590	 x26:0x00000760 x22:0xffff8000
       52445000	      5243	80006588	411cdd93	srai	x27,x25,0x11	 x25:0x00008000 x27=0x00000000
       52455000	      5244	8000658c	004ff933	and	x18,x31,x4	 x31:0x80009fc4  x4:0x00000000 x18=0x00000000
       52465000	      5245	80006590	003b6663	bltu	x22,x3,8000659c	 x22:0xffff8000  x3:0x00000001
       52475000	      5246	80006594	5196b513	sltiu	x10,x13,1305	 x13:0x00000006 x10=0x00000001
       52485000	      5247	80006598	4a84a293	slti	x5,x9,1192	  x9:0x000007aa  x5=0x00000000
       52495000	      5248	8000659c	9bda0617	auipc	x12,0x9bda0	 x12=0x1bda6598
       52505000	      5249	800065a0	01c07c33	and	x24,x0,x28	  x0:0x00000000 x28:0x00000001 x24=0x00000000
       52515000	      5250	800065a4	55bceb93	ori	x23,x25,1371	 x25:0x00008000 x23=0x0000855b
       52525000	      5251	800065a8	00139433	sll	x8,x7,x1	  x7:0x00000001  x1:0x000000e4  x8=0x00000010
       52535000	      5252	800065ac	68f1c993	xori	x19,x3,1679	  x3:0x00000001 x19=0x0000068e
       52545000	      5253	800065b0	41208a33	sub	x20,x1,x18	  x1:0x000000e4 x18:0x00000000 x20=0x000000e4
       52555000	      5254	800065b4	037d0063	beq	x26,x23,800065d4	 x26:0x00000760 x23:0x0000855b
       52565000	      5255	800065b8	027fea63	bltu	x31,x7,800065ec	 x31:0x80009fc4  x7:0x00000001
       52575000	      5256	800065bc	739bc793	xori	x15,x23,1849	 x23:0x0000855b x15=0x00008262
       52585000	      5257	800065c0	96fb7c17	auipc	x24,0x96fb7	 x24=0x16fbd5bc
       52595000	      5258	800065c4	0296cc63	blt	x13,x9,800065fc	 x13:0x00000006  x9:0x000007aa
       52605000	      5259	00000000	00000013	addi	x0,x0,0	  x0:0x00000000
       52615000	      5260	800065f8	00000013	addi	x0,x0,0	  x0:0x00000000
       52625000	      5261	800065fc	2a94a513	slti	x10,x9,681	  x9:0x000007aa x10=0x00000000
       52635000	      5262	80006600	01da9633	sll	x12,x21,x29	 x21:0xfffffbf9 x29:0x00000001 x12=0xfffff7f2
       52645000	      5263	80006604	3b01ec93	ori	x25,x3,944	  x3:0x00000001 x25=0x000003b1
       52655000	      5264	80006608	92660313	addi	x6,x12,-1754	 x12:0xfffff7f2  x6=0xfffff118
       52665000	      5265	8000660c	015e4433	xor	x8,x28,x21	 x28:0x00000001 x21:0xfffffbf9  x8=0xfffffbf8
       52675000	      5266	80006610	953f2313	slti	x6,x30,-1709	 x30:0x00000004  x6=0x00000000
       52685000	      5267	80006614	042c0663	beq	x24,x2,80006660	 x24:0x16fbd5bc  x2:0x0c7d8000
       52695000	      5268	80006618	03aa5863	bge	x20,x26,80006648	 x20:0x000000e4 x26:0x00000760
       52705000	      5269	8000661c	00000013	addi	x0,x0,0	  x0:0x00000000
       52715000	      5270	80006620	030dd863	bge	x27,x16,80006650	 x27:0x00000000 x16:0x00000000
       52725000	      5271	00000000	00000013	addi	x0,x0,0	  x0:0x00000000
       52735000	      5272	8000664c	00000013	addi	x0,x0,0	  x0:0x00000000
       52745000	      5273	80006650	024e5263	bge	x28,x4,80006674	 x28:0x00000001  x4:0x00000000
       52755000	      5274	00000000	00000013	addi	x0,x0,0	  x0:0x00000000
       52765000	      5275	80006670	00000013	addi	x0,x0,0	  x0:0x00000000
       52775000	      5276	80006674	00a71533	sll	x10,x14,x10	 x14:0x00000000 x10:0x00000000 x10=0x00000000
       52785000	      5277	80006678	404b0db3	sub	x27,x22,x4	 x22:0xffff8000  x4:0x00000000 x27=0xffff8000
       52795000	      5278	8000667c	40ed8cb3	sub	x25,x27,x14	 x27:0xffff8000 x14:0x00000000 x25=0xffff8000
       52805000	      5279	80006680	01226eb3	or	x29,x4,x18	  x4:0x00000000 x18:0x00000000 x29=0x00000000
       52815000	      5280	80006684	1f35b493	sltiu	x9,x11,499	 x11:0x00000001  x9=0x00000001
       52825000	      5281	80006688	40875ab3	sra	x21,x14,x8	 x14:0x00000000  x8:0xfffffbf8 x21=0x00000000
       52835000	      5282	8000668c	016a0a63	beq	x20,x22,800066a0	 x20:0x000000e4 x22:0xffff8000
       52845000	      5283	80006690	0055d5b3	srl	x11,x11,x5	 x11:0x00000001  x5:0x00000000 x11=0x00000001
       52855000	      5284	80006694	01701eb3	sll	x29,x0,x23	  x0:0x00000000 x23:0x0000855b x29=0x00000000
       52865000	      5285	80006698	6f61fb17	auipc	x22,0x6f61f	 x22=0xef625694
       52875000	      5286	8000669c	01c90a33	add	x20,x18,x28	 x18:0x00000000 x28:0x00000001 x20=0x00000001
       52885000	      5287	800066a0	00c09c13	slli	x24,x1,0xc	  x1:0x000000e4 x24=0x000e4000
       52895000	      5288	800066a4	41b5db33	sra	x22,x11,x27	 x11:0x00000001 x27:0xffff8000 x22=0x00000001
       52905000	      5289	800066a8	1c8a6c37	lui	x24,0x1c8a6	 x24=0x1c8a6000
       52915000	      5290	800066ac	410c4d93	xori	x27,x24,1040	 x24:0x1c8a6000 x27=0x1c8a6410
       52925000	      5291	800066b0	01ea87b3	add	x15,x21,x30	 x21:0x00000000 x30:0x00000004 x15=0x00000004
       52935000	      5292	800066b4	01a7c9b3	xor	x19,x15,x26	 x15:0x00000004 x26:0x00000760 x19=0x00000764
       52945000	      5293	800066b8	00111c93	slli	x25,x2,0x1	  x2:0x0c7d8000 x25=0x18fb0000
       52955000	      5294	800066bc	02edd663	bge	x27,x14,800066e8	 x27:0x1c8a6410 x14:0x00000000
       52965000	      5295	00000000	00000013	addi	x0,x0,0	  x0:0x00000000
       52975000	      5296	800066e4	00000013	addi	x0,x0,0	  x0:0x00000000
       52985000	      5297	800066e8	01086533	or	x10,x16,x16	 x16:0x00000000 x16:0x00000000 x10=0x00000000
       52995000	      5298	800066ec	015b5b93	srli	x23,x22,0x15	 x22:0x00000001 x23=0x00000000
       53005000	      5299	800066f0	41ca5593	srai	x11,x20,0x1c	 x20:0x00000001 x11=0x00000000
       53015000	      5300	800066f4	6a4b2f13	slti	x30,x22,1700	 x22:0x00000001 x30=0x00000001
       53025000	      5301	800066f8	03a31463	bne	x6,x26,80006720	  x6:0x00000000 x26:0x00000760
       53035000	      5302	00000000	00000013	addi	x0,x0,0	  x0:0x00000000
       53045000	      5303	8000671c	00000013	addi	x0,x0,0	  x0:0x00000000
       53055000	      5304	80006720	01e5dd93	srli	x27,x11,0x1e	 x11:0x00000000 x27=0x00000000
       53065000	      5305	80006724	c7bdc793	xori	x15,x27,-901	 x27:0x00000000 x15=0xfffffc7b
       53075000	      5306	80006728	01ebc5b3	xor	x11,x23,x30	 x23:0x00000000 x30:0x00000001 x11=0x00000001
       53085000	      5307	8000672c	003a55b3	srl	x11,x20,x3	 x20:0x00000001  x3:0x00000001 x11=0x00000000
       53095000	      5308	80006730	0152dc63	bge	x5,x21,80006748	  x5:0x00000000 x21:0x00000000
       53105000	      5309	00000000	00000013	addi	x0,x0,0	  x0:0x00000000
       53115000	      5310	80006744	00000013	addi	x0,x0,0	  x0:0x00000000
       53125000	      5311	80006748	00000013	addi	x0,x0,0	  x0:0x00000000
       53135000	      5312	8000674c	059c4263	blt	x24,x25,80006790	 x24:0x1c8a6000 x25:0x18fb0000
       53145000	      5313	80006750	007f2033	slt	x0,x30,x7	 x30:0x00000001  x7:0x00000001
       53155000	      5314	80006754	00000013	addi	x0,x0,0	  x0:0x00000000
       53165000	      5315	80006758	40a15833	sra	x16,x2,x10	  x2:0x0c7d8000 x10:0x00000000 x16=0x0c7d8000
       53175000	      5316	8000675c	7e683b13	sltiu	x22,x16,2022	 x16:0x0c7d8000 x22=0x00000000
       53185000	      5317	80006760	a84cb913	sltiu	x18,x25,-1404	 x25:0x18fb0000 x18=0x00000001
       53195000	      5318	80006764	7672b793	sltiu	x15,x5,1895	  x5:0x00000000 x15=0x00000001
       53205000	      5319	80006768	045ae063	bltu	x21,x5,800067a8	 x21:0x00000000  x5:0x00000000
       53215000	      5320	8000676c	2f0fcd13	xori	x26,x31,752	 x31:0x80009fc4 x26=0x80009d34
       53225000	      5321	80006770	01bf5e63	bge	x30,x27,8000678c	 x30:0x00000001 x27:0x00000000
       53235000	      5322	00000000	00000013	addi	x0,x0,0	  x0:0x00000000
       53245000	      5323	80006788	00000013	addi	x0,x0,0	  x0:0x00000000
       53255000	      5324	8000678c	002f7533	and	x10,x30,x2	 x30:0x00000001  x2:0x0c7d8000 x10=0x00000000
       53265000	      5325	80006790	014b5b93	srli	x23,x22,0x14	 x22:0x00000000 x23=0x00000000
       53275000	      5326	80006794	89428a93	addi	x21,x5,-1900	  x5:0x00000000 x21=0xfffff894
       53285000	      5327	80006798	14143f13	sltiu	x30,x8,321	  x8:0xfffffbf8 x30=0x00000000
       53295000	      5328	8000679c	005b1d93	slli	x27,x22,0x5	 x22:0x00000000 x27=0x00000000
       53305000	      5329	800067a0	9d369697	auipc	x13,0x9d369	 x13=0x1d36f79c
       53315000	      5330	800067a4	0f13ba13	sltiu	x20,x7,241	  x7:0x00000001 x20=0x00000001
       53325000	      5331	800067a8	41575533	sra	x10,x14,x21	 x14:0x00000000 x21:0xfffff894 x10=0x00000000
       53335000	      5332	800067ac	889b3313	sltiu	x6,x22,-1911	 x22:0x00000000  x6=0x00000001
       53345000	      5333	800067b0	015df263	bgeu	x27,x21,800067b4	 x27:0x00000000 x21:0xfffff894
       53355000	      5334	800067b4	01038633	add	x12,x7,x16	  x7:0x00000001 x16:0x0c7d8000 x12=0x0c7d8001
       53365000	      5335	800067b8	01c421b3	slt	x3,x8,x28	  x8:0xfffffbf8 x28:0x00000001  x3=0x00000001
       53375000	      5336	800067bc	00ea9493	slli	x9,x21,0xe	 x21:0xfffff894  x9=0xfe250000
       53385000	      5337	800067c0	04fc4263	blt	x24,x15,80006804	 x24:0x1c8a6000 x15:0x00000001
       53395000	      5338	800067c4	00000013	addi	x0,x0,0	  x0:0x00000000
       53405000	      5339	800067c8	48bbb337	lui	x6,0x48bbb	  x6=0x48bbb000
       53415000	      5340	800067cc	41780cb3	sub	x25,x16,x23	 x16:0x0c7d8000 x23:0x00000000 x25=0x0c7d8000
       53425000	      5341	800067d0	40f651b3	sra	x3,x12,x15	 x12:0x0c7d8001 x15:0x00000001  x3=0x063ec000
       53435000	      5342	800067d4	41a3dab3	sra	x21,x7,x26	  x7:0x00000001 x26:0x80009d34 x21=0x00000000
       53445000	      5343	800067d8	41485f33	sra	x30,x16,x20	 x16:0x0c7d8000 x20:0x00000001 x30=0x063ec000
       53455000	      5344	800067dc	00064533	xor	x10,x12,x0	 x12:0x0c7d8001  x0:0x00000000 x10=0x0c7d8001
       53465000	      5345	800067e0	04c36663	bltu	x6,x12,8000682c	  x6:0x48bbb000 x12:0x0c7d8001
       53475000	      5346	800067e4	cd80cb93	xori	x23,x1,-808	  x1:0x000000e4 x23=0xfffffc3c
       53485000	      5347	800067e8	03091a63	bne	x18,x16,8000681c	 x18:0x00000001 x16:0x0c7d8000
       53495000	      5348	00000000	00000013	addi	x0,x0,0	  x0:0x00000000
       53505000	      5349	80006818	00000013	addi	x0,x0,0	  x0:0x00000000
       53515000	      5350	8000681c	41d9d9b3	sra	x19,x19,x29	 x19:0x00000764 x29:0x00000000 x19=0x00000764
       53525000	      5351	80006820	fec68eb7	lui	x29,0xfec68	 x29=0xfec68000
       53535000	      5352	80006824	0174d833	srl	x16,x9,x23	  x9:0xfe250000 x23:0xfffffc3c x16=0x0000000f
       53545000	      5353	80006828	03001863	bne	x0,x16,80006858	  x0:0x00000000 x16:0x0000000f
       53555000	      5354	00000000	00000013	addi	x0,x0,0	  x0:0x00000000
       53565000	      5355	80006854	00000013	addi	x0,x0,0	  x0:0x00000000
       53575000	      5356	80006858	40fdd833	sra	x16,x27,x15	 x27:0x00000000 x15:0x00000001 x16=0x00000000
       53585000	      5357	8000685c	0160bd33	sltu	x26,x1,x22	  x1:0x000000e4 x22:0x00000000 x26=0x00000000
       53595000	      5358	80006860	0050f133	and	x2,x1,x5	  x1:0x000000e4  x5:0x00000000  x2=0x00000000
       53605000	      5359	80006864	018a1ab3	sll	x21,x20,x24	 x20:0x00000001 x24:0x1c8a6000 x21=0x00000001
       53615000	      5360	80006868	03054863	blt	x10,x16,80006898	 x10:0x0c7d8001 x16:0x00000000
       53625000	      5361	8000686c	0096b333	sltu	x6,x13,x9	 x13:0x1d36f79c  x9:0xfe250000  x6=0x00000001
       53635000	      5362	80006870	02753513	sltiu	x10,x10,39	 x10:0x0c7d8001 x10=0x00000000
       53645000	      5363	80006874	41a60bb3	sub	x23,x12,x26	 x12:0x0c7d8001 x26:0x00000000 x23=0x0c7d8001
       53655000	      5364	80006878	01180d33	add	x26,x16,x17	 x16:0x00000000 x17:0x80009f60 x26=0x80009f60
       53665000	      5365	8000687c	05e2d263	bge	x5,x30,800068c0	  x5:0x00000000 x30:0x063ec000
       53675000	      5366	80006880	000095b3	sll	x11,x1,x0	  x1:0x000000e4  x0:0x00000000 x11=0x000000e4
       53685000	      5367	80006884	00000013	addi	x0,x0,0	  x0:0x00000000
       53695000	      5368	80006888	00e4deb3	srl	x29,x9,x14	  x9:0xfe250000 x14:0x00000000 x29=0xfe250000
       53705000	      5369	8000688c	01745813	srli	x16,x8,0x17	  x8:0xfffffbf8 x16=0x000001ff
       53715000	      5370	80006890	009c4a63	blt	x24,x9,800068a4	 x24:0x1c8a6000  x9:0xfe250000
       53725000	      5371	80006894	ea243637	lui	x12,0xea243	 x12=0xea243000
       53735000	      5372	80006898	00a690b3	sll	x1,x13,x10	 x13:0x1d36f79c x10:0x00000000  x1=0x1d36f79c
       53745000	      5373	8000689c	ebe72c93	slti	x25,x14,-322	 x14:0x00000000 x25=0x00000000
       53755000	      5374	800068a0	30390c13	addi	x24,x18,771	 x18:0x00000001 x24=0x00000304
       53765000	      5375	800068a4	4d49b093	sltiu	x1,x19,1236	 x19:0x00000764  x1=0x00000000
       53775000	      5376	800068a8	01b9ea33	or	x20,x19,x27	 x19:0x00000764 x27:0x00000000 x20=0x00000764
       53785000	      5377	800068ac	00120db3	add	x27,x4,x1	  x4:0x00000000  x1:0x00000000 x27=0x00000000
       53795000	      5378	800068b0	00762b33	slt	x22,x12,x7	 x12:0xea243000  x7:0x00000001 x22=0x00000001
       53805000	      5379	800068b4	8eaf7113	andi	x2,x30,-1814	 x30:0x063ec000  x2=0x063ec000
       53815000	      5380	800068b8	eeedfd13	andi	x26,x27,-274	 x27:0x00000000 x26=0x00000000
       53825000	      5381	800068bc	2ca74593	xori	x11,x14,714	 x14:0x00000000 x11=0x000002ca
       53835000	      5382	800068c0	01aea513	slti	x10,x29,26	 x29:0xfe250000 x10=0x00000001
       53845000	      5383	800068c4	00a34db3	xor	x27,x6,x10	  x6:0x00000001 x10:0x00000001 x27=0x00000000
       53855000	      5384	800068c8	0122ce33	xor	x28,x5,x18	  x5:0x00000000 x18:0x00000001 x28=0x00000001
       53865000	      5385	800068cc	02cb1063	bne	x22,x12,800068ec	 x22:0x00000001 x12:0xea243000
       53875000	      5386	00000000	00000013	addi	x0,x0,0	  x0:0x00000000
       53885000	      5387	800068e8	00000013	addi	x0,x0,0	  x0:0x00000000
       53895000	      5388	800068ec	01ca6e63	bltu	x20,x28,80006908	 x20:0x00000764 x28:0x00000001
       53905000	      5389	800068f0	00d12133	slt	x2,x2,x13	  x2:0x063ec000 x13:0x1d36f79c  x2=0x00000001
       53915000	      5390	800068f4	00000013	addi	x0,x0,0	  x0:0x00000000
       53925000	      5391	800068f8	40ed51b3	sra	x3,x26,x14	 x26:0x00000000 x14:0x00000000  x3=0x00000000
       53935000	      5392	800068fc	00519d33	sll	x26,x3,x5	  x3:0x00000000  x5:0x00000000 x26=0x00000000
       53945000	      5393	80006900	1099e313	ori	x6,x19,265	 x19:0x00000764  x6=0x0000076d
       53955000	      5394	80006904	00000013	addi	x0,x0,0	  x0:0x00000000
       53965000	      5395	80006908	01b83f33	sltu	x30,x16,x27	 x16:0x000001ff x27:0x00000000 x30=0x00000000
       53975000	      5396	8000690c	40745a33	sra	x20,x8,x7	  x8:0xfffffbf8  x7:0x00000001 x20=0xfffffdfc
       53985000	      5397	80006910	010004b3	add	x9,x0,x16	  x0:0x00000000 x16:0x000001ff  x9=0x000001ff
       53995000	      5398	80006914	34c9c493	xori	x9,x19,844	 x19:0x00000764  x9=0x00000428
       54005000	      5399	80006918	01bad0b3	srl	x1,x21,x27	 x21:0x00000001 x27:0x00000000  x1=0x00000001
       54015000	      5400	8000691c	40aa8bb3	sub	x23,x21,x10	 x21:0x00000001 x10:0x00000001 x23=0x00000000
       54025000	      5401	80006920	02df3693	sltiu	x13,x30,45	 x30:0x00000000 x13=0x00000001
       54035000	      5402	80006924	00000013	addi	x0,x0,0	  x0:0x00000000
       54045000	      5403	80006928	02c47c63	bgeu	x8,x12,80006960	  x8:0xfffffbf8 x12:0xea243000
       54055000	      5404	00000000	00000013	addi	x0,x0,0	  x0:0x00000000
       54065000	      5405	8000695c	00000013	addi	x0,x0,0	  x0:0x00000000
       54075000	      5406	80006960	01b24863	blt	x4,x27,80006970	  x4:0x00000000 x27:0x00000000
       54085000	      5407	80006964	01485c63	bge	x16,x20,8000697c	 x16:0x000001ff x20:0xfffffdfc
       54095000	      5408	00000000	00000013	addi	x0,x0,0	  x0:0x00000000
       54105000	      5409	80006978	00000013	addi	x0,x0,0	  x0:0x00000000
       54115000	      5410	8000697c	41a1dd33	sra	x26,x3,x26	  x3:0x00000000 x26:0x00000000 x26=0x00000000
       54125000	      5411	80006980	018b93b3	sll	x7,x23,x24	 x23:0x00000000 x24:0x00000304  x7=0x00000000
       54135000	      5412	80006984	65e44213	xori	x4,x8,1630	  x8:0xfffffbf8  x4=0xfffffda6
       54145000	      5413	80006988	0193fcb3	and	x25,x7,x25	  x7:0x00000000 x25:0x00000000 x25=0x00000000
       54155000	      5414	8000698c	02684063	blt	x16,x6,800069ac	 x16:0x000001ff  x6:0x0000076d
       54165000	      5415	00000000	00000013	addi	x0,x0,0	  x0:0x00000000
       54175000	      5416	800069a8	00000013	addi	x0,x0,0	  x0:0x00000000
       54185000	      5417	800069ac	01513d33	sltu	x26,x2,x21	  x2:0x00000001 x21:0x00000001 x26=0x00000000
       54195000	      5418	800069b0	007f7a63	bgeu	x30,x7,800069c4	 x30:0x00000000  x7:0x00000000
       54205000	      5419	00000000	00000013	addi	x0,x0,0	  x0:0x00000000
       54215000	      5420	800069c0	00000013	addi	x0,x0,0	  x0:0x00000000
       54225000	      5421	800069c4	00554eb3	xor	x29,x10,x5	 x10:0x00000001  x5:0x00000000 x29=0x00000001
       54235000	      5422	800069c8	41525913	srai	x18,x4,0x15	  x4:0xfffffda6 x18=0xffffffff
       54245000	      5423	800069cc	40045a13	srai	x20,x8,0x0	  x8:0xfffffbf8 x20=0xfffffbf8
       54255000	      5424	800069d0	4078d033	sra	x0,x17,x7	 x17:0x80009f60  x7:0x00000000
       54265000	      5425	800069d4	0117da13	srli	x20,x15,0x11	 x15:0x00000001 x20=0x00000000
       54275000	      5426	800069d8	019c5633	srl	x12,x24,x25	 x24:0x00000304 x25:0x00000000 x12=0x00000304
       54285000	      5427	800069dc	009a2ab3	slt	x21,x20,x9	 x20:0x00000000  x9:0x00000428 x21=0x00000001
       54295000	      5428	800069e0	01a35463	bge	x6,x26,800069e8	  x6:0x0000076d x26:0x00000000
       54305000	      5429	00000000	00000013	addi	x0,x0,0	  x0:0x00000000
       54315000	      5430	800069e4	00000013	addi	x0,x0,0	  x0:0x00000000
       54325000	      5431	800069e8	00000013	addi	x0,x0,0	  x0:0x00000000
       54335000	      5432	800069ec	01f48133	add	x2,x9,x31	  x9:0x00000428 x31:0x80009fc4  x2=0x8000a3ec
       54345000	      5433	800069f0	4fa96493	ori	x9,x18,1274	 x18:0xffffffff  x9=0xffffffff
       54355000	      5434	800069f4	00000013	addi	x0,x0,0	  x0:0x00000000
       54365000	      5435	800069f8	041d6263	bltu	x26,x1,80006a3c	 x26:0x00000000  x1:0x00000001
       54375000	      5436	00000000	00000013	addi	x0,x0,0	  x0:0x00000000
       54385000	      5437	80006a38	00000013	addi	x0,x0,0	  x0:0x00000000
       54395000	      5438	80006a3c	00da6333	or	x6,x20,x13	 x20:0x00000000 x13:0x00000001  x6=0x00000001
       54405000	      5439	80006a40	852da513	slti	x10,x27,-1966	 x27:0x00000000 x10=0x00000000
       54415000	      5440	80006a44	1a392a13	slti	x20,x18,419	 x18:0xffffffff x20=0x00000001
       54425000	      5441	80006a48	4056df33	sra	x30,x13,x5	 x13:0x00000001  x5:0x00000000 x30=0x00000001
       54435000	      5442	80006a4c	03cc6a63	bltu	x24,x28,80006a80	 x24:0x00000304 x28:0x00000001
       54445000	      5443	80006a50	231599b7	lui	x19,0x23159	 x19=0x23159000
       54455000	      5444	80006a54	00061663	bne	x12,x0,80006a60	 x12:0x00000304  x0:0x00000000
       54465000	      5445	00000000	00000013	addi	x0,x0,0	  x0:0x00000000
       54475000	      5446	80006a5c	00000013	addi	x0,x0,0	  x0:0x00000000
       54485000	      5447	80006a60	00000013	addi	x0,x0,0	  x0:0x00000000
       54495000	      5448	80006a64	01c663b3	or	x7,x12,x28	 x12:0x00000304 x28:0x00000001  x7=0x00000305
       54505000	      5449	80006a68	b3e3e813	ori	x16,x7,-1218	  x7:0x00000305 x16=0xfffffb3f
       54515000	      5450	80006a6c	00717bb3	and	x23,x2,x7	  x2:0x8000a3ec  x7:0x00000305 x23=0x00000304
       54525000	      5451	80006a70	41a65a13	srai	x20,x12,0x1a	 x12:0x00000304 x20=0x00000000
       54535000	      5452	80006a74	013bbdb3	sltu	x27,x23,x19	 x23:0x00000304 x19:0x23159000 x27=0x00000001
       54545000	      5453	80006a78	3c4d2a93	slti	x21,x26,964	 x26:0x00000000 x21=0x00000001
       54555000	      5454	80006a7c	602d4d13	xori	x26,x26,1538	 x26:0x00000000 x26=0x00000602
       54565000	      5455	80006a80	058c5663	bge	x24,x24,80006acc	 x24:0x00000304 x24:0x00000304
       54575000	      5456	00000000	00000013	addi	x0,x0,0	  x0:0x00000000
       54585000	      5457	80006ac8	00000013	addi	x0,x0,0	  x0:0x00000000
       54595000	      5458	80006acc	0020f193	andi	x3,x1,2	  x1:0x00000001  x3=0x00000000
       54605000	      5459	80006ad0	00690a63	beq	x18,x6,80006ae4	 x18:0xffffffff  x6:0x00000001
       54615000	      5460	80006ad4	0136f4b3	and	x9,x13,x19	 x13:0x00000001 x19:0x23159000  x9=0x00000000
       54625000	      5461	80006ad8	05b69063	bne	x13,x27,80006b18	 x13:0x00000001 x27:0x00000001
       54635000	      5462	80006adc	02657663	bgeu	x10,x6,80006b08	 x10:0x00000000  x6:0x00000001
       54645000	      5463	80006ae0	005c9993	slli	x19,x25,0x5	 x25:0x00000000 x19=0x00000000
       54655000	      5464	80006ae4	01fc2533	slt	x10,x24,x31	 x24:0x00000304 x31:0x80009fc4 x10=0x00000000
       54665000	      5465	80006ae8	01a89693	slli	x13,x17,0x1a	 x17:0x80009f60 x13=0x80000000
       54675000	      5466	80006aec	01f6fc33	and	x24,x13,x31	 x13:0x80000000 x31:0x80009fc4 x24=0x80000000
       54685000	      5467	80006af0	01a8d833	srl	x16,x17,x26	 x17:0x80009f60 x26:0x00000602 x16=0x200027d8
       54695000	      5468	80006af4	0e39ac13	slti	x24,x19,227	 x19:0x00000000 x24=0x00000001
       54705000	      5469	80006af8	caccea13	ori	x20,x25,-852	 x25:0x00000000 x20=0xfffffcac
       54715000	      5470	80006afc	01413233	sltu	x4,x2,x20	  x2:0x8000a3ec x20:0xfffffcac  x4=0x00000001
       54725000	      5471	80006b00	016412b3	sll	x5,x8,x22	  x8:0xfffffbf8 x22:0x00000001  x5=0xfffff7f0
       54735000	      5472	80006b04	00fdfe63	bgeu	x27,x15,80006b20	 x27:0x00000001 x15:0x00000001
       54745000	      5473	00000000	00000013	addi	x0,x0,0	  x0:0x00000000
       54755000	      5474	80006b1c	00000013	addi	x0,x0,0	  x0:0x00000000
       54765000	      5475	80006b20	c186cd17	auipc	x26,0xc186c	 x26=0x41872b1c
       54775000	      5476	80006b24	41c45a13	srai	x20,x8,0x1c	  x8:0xfffffbf8 x20=0xffffffff
       54785000	      5477	80006b28	bfcec013	xori	x0,x29,-1028	 x29:0x00000001
       54795000	      5478	80006b2c	03a40093	addi	x1,x8,58	  x8:0xfffffbf8  x1=0xfffffc32
       54805000	      5479	80006b30	0dfd3d93	sltiu	x27,x26,223	 x26:0x41872b1c x27=0x00000000
       54815000	      5480	80006b34	6eb34493	xori	x9,x6,1771	  x6:0x00000001  x9=0x000006ea
       54825000	      5481	80006b38	0f098063	beq	x19,x16,80006c18	 x19:0x00000000 x16:0x200027d8
       54835000	      5482	80006b3c	000a7263	bgeu	x20,x0,80006b40	 x20:0xffffffff  x0:0x00000000
       54845000	      5483	00000000	00000013	addi	x0,x0,0	  x0:0x00000000
       54855000	      5484	80006b3c	00000013	addi	x0,x0,0	  x0:0x00000000
       54865000	      5485	80006b40	013df933	and	x18,x27,x19	 x27:0x00000000 x19:0x00000000 x18=0x00000000
       54875000	      5486	80006b44	00001117	auipc	x2,0x1	  x2=0x80007b40
       54885000	      5487	80006b48	52a10113	addi	x2,x2,1322	  x2:0x80007b40  x2=0x8000806a
       54895000	      5488	80006b4c	0ab11c23	sh	x11,184(x2)	  x2:0x8000806a x11:0x000002ca PA:0x80008122
       54905000	      5489	80006b50	fef10603	lb	x12,-17(x2)	  x2:0x8000806a x12=0x0000002d PA:0x80008059
       54915000	      5490	80006b54	05510c23	sb	x21,88(x2)	  x2:0x8000806a x21:0x00000001 PA:0x800080c2
       54925000	      5491	80006b58	407a5d93	srai	x27,x20,0x7	 x20:0xffffffff x27=0xffffffff
       54935000	      5492	80006b5c	475ef013	andi	x0,x29,1141	 x29:0x00000001
       54945000	      5493	80006b60	01f23833	sltu	x16,x4,x31	  x4:0x00000001 x31:0x80009fc4 x16=0x00000001
       54955000	      5494	80006b64	8a0db313	sltiu	x6,x27,-1888	 x27:0xffffffff  x6=0x00000000
       54965000	      5495	80006b68	00d0da13	srli	x20,x1,0xd	  x1:0xfffffc32 x20=0x0007ffff
       54975000	      5496	80006b6c	41168d33	sub	x26,x13,x17	 x13:0x80000000 x17:0x80009f60 x26=0xffff60a0
       54985000	      5497	80006b70	0ec14d03	lbu	x26,236(x2)	  x2:0x8000806a x26=0x00000052 PA:0x80008156
       54995000	      5498	80006b74	9844cc13	xori	x24,x9,-1660	  x9:0x000006ea x24=0xffffff6e
       55005000	      5499	80006b78	00110403	lb	x8,1(x2)	  x2:0x8000806a  x8=0xffffffa0 PA:0x8000806b
       55015000	      5500	80006b7c	88ac2813	slti	x16,x24,-1910	 x24:0xffffff6e x16=0x00000000
       55025000	      5501	80006b80	0c611923	sh	x6,210(x2)	  x2:0x8000806a  x6:0x00000000 PA:0x8000813c
       55035000	      5502	80006b84	0c114483	lbu	x9,193(x2)	  x2:0x8000806a  x9=0x00000000 PA:0x8000812b
       55045000	      5503	80006b88	08514a03	lbu	x20,133(x2)	  x2:0x8000806a x20=0x000000ff PA:0x800080ef
       55055000	      5504	80006b8c	fda12d37	lui	x26,0xfda12	 x26=0xfda12000
       55065000	      5505	80006b90	409605b3	sub	x11,x12,x9	 x12:0x0000002d  x9:0x00000000 x11=0x0000002d
       55075000	      5506	80006b94	016e1c93	slli	x25,x28,0x16	 x28:0x00000001 x25=0x00400000
       55085000	      5507	80006b98	0d614403	lbu	x8,214(x2)	  x2:0x8000806a  x8=0x000000d3 PA:0x80008140
       55095000	      5508	80006b9c	05f10783	lb	x15,95(x2)	  x2:0x8000806a x15=0xffffffd0 PA:0x800080c9
       55105000	      5509	80006ba0	4034d1b3	sra	x3,x9,x3	  x9:0x00000000  x3:0x00000000  x3=0x00000000
       55115000	      5510	80006ba4	e3b66993	ori	x19,x12,-453	 x12:0x0000002d x19=0xfffffe3f
       55125000	      5511	80006ba8	01119b33	sll	x22,x3,x17	  x3:0x00000000 x17:0x80009f60 x22=0x00000000
       55135000	      5512	80006bac	05814483	lbu	x9,88(x2)	  x2:0x8000806a  x9=0x00000001 PA:0x800080c2
       55145000	      5513	80006bb0	0062f633	and	x12,x5,x6	  x5:0xfffff7f0  x6:0x00000000 x12=0x00000000
       55155000	      5514	80006bb4	05d102a3	sb	x29,69(x2)	  x2:0x8000806a x29:0x00000001 PA:0x800080af
       55165000	      5515	80006bb8	00311123	sh	x3,2(x2)	  x2:0x8000806a  x3:0x00000000 PA:0x8000806c
       55175000	      5516	80006bbc	017725b3	slt	x11,x14,x23	 x14:0x00000000 x23:0x00000304 x11=0x00000001
       55185000	      5517	80006bc0	09f14a83	lbu	x21,159(x2)	  x2:0x8000806a x21=0x00000009 PA:0x80008109
       55195000	      5518	80006bc4	0e111e23	sh	x1,252(x2)	  x2:0x8000806a  x1:0xfffffc32 PA:0x80008166
       55205000	      5519	80006bc8	d892c193	xori	x3,x5,-631	  x5:0xfffff7f0  x3=0x00000a79
       55215000	      5520	80006bcc	006ae6b3	or	x13,x21,x6	 x21:0x00000009  x6:0x00000000 x13=0x00000009
       55225000	      5521	80006bd0	41985213	srai	x4,x16,0x19	 x16:0x00000000  x4=0x00000000
       55235000	      5522	80006bd4	419d82b3	sub	x5,x27,x25	 x27:0xffffffff x25:0x00400000  x5=0xffbfffff
       55245000	      5523	80006bd8	03e10fa3	sb	x30,63(x2)	  x2:0x8000806a x30:0x00000001 PA:0x800080a9
       55255000	      5524	80006bdc	4130dd93	srai	x27,x1,0x13	  x1:0xfffffc32 x27=0xffffffff
       55265000	      5525	80006be0	409384b3	sub	x9,x7,x9	  x7:0x00000305  x9:0x00000001  x9=0x00000304
       55275000	      5526	80006be4	404d0f33	sub	x30,x26,x4	 x26:0xfda12000  x4:0x00000000 x30=0xfda12000
       55285000	      5527	80006be8	40a40f33	sub	x30,x8,x10	  x8:0x000000d3 x10:0x00000000 x30=0x000000d3
       55295000	      5528	80006bec	01b103a3	sb	x27,7(x2)	  x2:0x8000806a x27:0xffffffff PA:0x80008071
       55305000	      5529	80006bf0	01c54cb3	xor	x25,x10,x28	 x10:0x00000000 x28:0x00000001 x25=0x00000001
       55315000	      5530	80006bf4	08f10003	lb	x0,143(x2)	  x2:0x8000806a PA:0x800080f9
       55325000	      5531	80006bf8	7cd5a993	slti	x19,x11,1997	 x11:0x00000001 x19=0x00000001
       55335000	      5532	80006bfc	dc1b6093	ori	x1,x22,-575	 x22:0x00000000  x1=0xfffffdc1
       55345000	      5533	80006c00	09e12603	lw	x12,158(x2)	  x2:0x8000806a x12=0x5af6093e PA:0x80008108
       55355000	      5534	80006c04	eb378593	addi	x11,x15,-333	 x15:0xffffffd0 x11=0xfffffe83
       55365000	      5535	80006c08	00911323	sh	x9,6(x2)	  x2:0x8000806a  x9:0x00000304 PA:0x80008070
       55375000	      5536	80006c0c	e72b0113	addi	x2,x22,-398	 x22:0x00000000  x2=0xfffffe72
       55385000	      5537	80006c10	cb8b3d13	sltiu	x26,x22,-840	 x22:0x00000000 x26=0x00000001
       55395000	      5538	80006c14	0013d333	srl	x6,x7,x1	  x7:0x00000305  x1:0xfffffdc1  x6=0x00000182
       55405000	      5539	80006c18	40ff0d33	sub	x26,x30,x15	 x30:0x000000d3 x15:0xffffffd0 x26=0x00000103
       55415000	      5540	80006c1c	019bec63	bltu	x23,x25,80006c34	 x23:0x00000304 x25:0x00000001
       55425000	      5541	80006c20	00d89313	slli	x6,x17,0xd	 x17:0x80009f60  x6=0x13ec0000
       55435000	      5542	80006c24	010ad1b3	srl	x3,x21,x16	 x21:0x00000009 x16:0x00000000  x3=0x00000009
       55445000	      5543	80006c28	004bbc33	sltu	x24,x23,x4	 x23:0x00000304  x4:0x00000000 x24=0x00000000
       55455000	      5544	80006c2c	00785463	bge	x16,x7,80006c34	 x16:0x00000000  x7:0x00000305
       55465000	      5545	80006c30	2847b113	sltiu	x2,x15,644	 x15:0xffffffd0  x2=0x00000000
       55475000	      5546	80006c34	00584e33	xor	x28,x16,x5	 x16:0x00000000  x5:0xffbfffff x28=0xffbfffff
       55485000	      5547	80006c38	0048ab83	lw	x23,4(x17)	 x17:0x80009f60 x23=0x80000558 PA:0x80009f64
       55495000	      5548	80006c3c	01088893	addi	x17,x17,16	 x17:0x80009f60 x17=0x80009f70
       55505000	      5549	80006c40	00a45a93	srli	x21,x8,0xa	  x8:0x000000d3 x21=0x00000000
       55515000	      5550	80006c44	01c8d0b3	srl	x1,x17,x28	 x17:0x80009f70 x28:0xffbfffff  x1=0x00000001
       55525000	      5551	80006c48	44595697	auipc	x13,0x44595	 x13=0xc459bc44
       55535000	      5552	80006c4c	000b8693	addi	x13,x23,0	 x23:0x80000558 x13=0x80000558
       55545000	      5553	80006c50	000686e7	jalr	x13,x13,0	 x13:0x80000558 x13=0x80006c50
       55555000	      5554	00000000	00000013	addi	x0,x0,0	  x0:0x00000000
       55565000	      5555	80000558	00000013	addi	x0,x0,0	  x0:0x00000000
       55575000	      5556	8000055c	90997793	andi	x15,x18,-1783	 x18:0x00000000 x15=0x00000000
       55585000	      5557	80000560	01aedd13	srli	x26,x29,0x1a	 x29:0x00000001 x26=0x00000000
       55595000	      5558	80000564	01d41663	bne	x8,x29,80000570	  x8:0x000000d3 x29:0x00000001
       55605000	      5559	00000000	00000013	addi	x0,x0,0	  x0:0x00000000
       55615000	      5560	8000056c	00000013	addi	x0,x0,0	  x0:0x00000000
       55625000	      5561	80000570	01c3f1b3	and	x3,x7,x28	  x7:0x00000305 x28:0xffbfffff  x3=0x00000305
       55635000	      5562	80000574	99f58993	addi	x19,x11,-1633	 x11:0xfffffe83 x19=0xfffff822
       55645000	      5563	80000578	caaa4c13	xori	x24,x20,-854	 x20:0x000000ff x24=0xfffffc55
       55655000	      5564	8000057c	00535cb3	srl	x25,x6,x5	  x6:0x13ec0000  x5:0xffbfffff x25=0x00000000
       55665000	      5565	80000580	01c75463	bge	x14,x28,80000588	 x14:0x00000000 x28:0xffbfffff
       55675000	      5566	00000000	00000013	addi	x0,x0,0	  x0:0x00000000
       55685000	      5567	80000584	00000013	addi	x0,x0,0	  x0:0x00000000
       55695000	      5568	80000588	003f7e63	bgeu	x30,x3,800005a4	 x30:0x000000d3  x3:0x00000305
       55705000	      5569	8000058c	00828c63	beq	x5,x8,800005a4	  x5:0xffbfffff  x8:0x000000d3
       55715000	      5570	80000590	b2846b17	auipc	x22,0xb2846	 x22=0x3284658c
       55725000	      5571	80000594	018dfbb3	and	x23,x27,x24	 x27:0xffffffff x24:0xfffffc55 x23=0xfffffc55
       55735000	      5572	80000598	fbec4b93	xori	x23,x24,-66	 x24:0xfffffc55 x23=0x000003eb
       55745000	      5573	8000059c	0188d9b3	srl	x19,x17,x24	 x17:0x80009f70 x24:0xfffffc55 x19=0x00000400
       55755000	      5574	800005a0	02dbc463	blt	x23,x13,800005c8	 x23:0x000003eb x13:0x80006c50
       55765000	      5575	800005a4	012b0833	add	x16,x22,x18	 x22:0x3284658c x18:0x00000000 x16=0x3284658c
       55775000	      5576	800005a8	017eacb3	slt	x25,x29,x23	 x29:0x00000001 x23:0x000003eb x25=0x00000001
       55785000	      5577	800005ac	0347ca63	blt	x15,x20,800005e0	 x15:0x00000000 x20:0x000000ff
       55795000	      5578	00000000	00000013	addi	x0,x0,0	  x0:0x00000000
       55805000	      5579	800005dc	00000013	addi	x0,x0,0	  x0:0x00000000
       55815000	      5580	800005e0	00831463	bne	x6,x8,800005e8	  x6:0x13ec0000  x8:0x000000d3
       55825000	      5581	00000000	00000013	addi	x0,x0,0	  x0:0x00000000
       55835000	      5582	800005e4	00000013	addi	x0,x0,0	  x0:0x00000000
       55845000	      5583	800005e8	002c0db3	add	x27,x24,x2	 x24:0xfffffc55  x2:0x00000000 x27=0xfffffc55
       55855000	      5584	800005ec	0179ccb3	xor	x25,x19,x23	 x19:0x00000400 x23:0x000003eb x25=0x000007eb
       55865000	      5585	800005f0	016e5193	srli	x3,x28,0x16	 x28:0xffbfffff  x3=0x000003fe
       55875000	      5586	800005f4	0282e463	bltu	x5,x8,8000061c	  x5:0xffbfffff  x8:0x000000d3
       55885000	      5587	800005f8	01ee13b3	sll	x7,x28,x30	 x28:0xffbfffff x30:0x000000d3  x7=0xfff80000
       55895000	      5588	800005fc	00727463	bgeu	x4,x7,80000604	  x4:0x00000000  x7:0xfff80000
       55905000	      5589	80000600	a62d1bb7	lui	x23,0xa62d1	 x23=0xa62d1000
       55915000	      5590	80000604	5c9bf393	andi	x7,x23,1481	 x23:0xa62d1000  x7=0x00000000
       55925000	      5591	80000608	01b51db3	sll	x27,x10,x27	 x10:0x00000000 x27:0xfffffc55 x27=0x00000000
       55935000	      5592	8000060c	f671e213	ori	x4,x3,-153	  x3:0x000003fe  x4=0xffffffff
       55945000	      5593	80000610	00eb1193	slli	x3,x22,0xe	 x22:0x3284658c  x3=0x19630000
       55955000	      5594	80000614	07c31cb7	lui	x25,0x7c31	 x25=0x07c31000
       55965000	      5595	80000618	019f7f33	and	x30,x30,x25	 x30:0x000000d3 x25:0x07c31000 x30=0x00000000
       55975000	      5596	8000061c	00535313	srli	x6,x6,0x5	  x6:0x13ec0000  x6=0x009f6000
       55985000	      5597	80000620	a0806e93	ori	x29,x0,-1528	  x0:0x00000000 x29=0xfffffa08
       55995000	      5598	80000624	3260eb93	ori	x23,x1,806	  x1:0x00000001 x23=0x00000327
       56005000	      5599	80000628	005509b3	add	x19,x10,x5	 x10:0x00000000  x5:0xffbfffff x19=0xffbfffff
       56015000	      5600	8000062c	04fa9263	bne	x21,x15,80000670	 x21:0x00000000 x15:0x00000000
       56025000	      5601	80000630	004f8663	beq	x31,x4,8000063c	 x31:0x80009fc4  x4:0xffffffff
       56035000	      5602	80000634	40c05313	srai	x6,x0,0xc	  x0:0x00000000  x6=0x00000000
       56045000	      5603	80000638	052ad663	bge	x21,x18,80000684	 x21:0x00000000 x18:0x00000000
       56055000	      5604	00000000	00000013	addi	x0,x0,0	  x0:0x00000000
       56065000	      5605	80000680	00000013	addi	x0,x0,0	  x0:0x00000000
       56075000	      5606	80000684	b8074613	xori	x12,x14,-1152	 x14:0x00000000 x12=0xfffffb80
       56085000	      5607	80000688	01e1ad33	slt	x26,x3,x30	  x3:0x19630000 x30:0x00000000 x26=0x00000000
       56095000	      5608	8000068c	01681e93	slli	x29,x16,0x16	 x16:0x3284658c x29=0x63000000
       56105000	      5609	80000690	009a7b33	and	x22,x20,x9	 x20:0x000000ff  x9:0x00000304 x22=0x00000004
       56115000	      5610	80000694	41975633	sra	x12,x14,x25	 x14:0x00000000 x25:0x07c31000 x12=0x00000000
       56125000	      5611	80000698	22cce537	lui	x10,0x22cce	 x10=0x22cce000
       56135000	      5612	8000069c	1b9be197	auipc	x3,0x1b9be	  x3=0x9b9be698
       56145000	      5613	800006a0	01dade93	srli	x29,x21,0x1d	 x21:0x00000000 x29=0x00000000
       56155000	      5614	800006a4	00000013	addi	x0,x0,0	  x0:0x00000000
       56165000	      5615	800006a8	0048ab83	lw	x23,4(x17)	 x17:0x80009f70 x23=0x80000138 PA:0x80009f74
       56175000	      5616	800006ac	01488893	addi	x17,x17,20	 x17:0x80009f70 x17=0x80009f84
       56185000	      5617	800006b0	00fc6c33	or	x24,x24,x15	 x24:0xfffffc55 x15:0x00000000 x24=0xfffffc55
       56195000	      5618	800006b4	001b8a13	addi	x20,x23,1	 x23:0x80000138 x20=0x80000139
       56205000	      5619	800006b8	000a0a67	jalr	x20,x20,0	 x20:0x80000139 x20=0x800006b8
       56215000	      5620	00000000	00000013	addi	x0,x0,0	  x0:0x00000000
       56225000	      5621	80000138	00000013	addi	x0,x0,0	  x0:0x00000000
       56235000	      5622	8000013c	00008217	auipc	x4,0x8	  x4=0x80008138
       56245000	      5623	80000140	3b720213	addi	x4,x4,951	  x4:0x80008138  x4=0x800084ef
       56255000	      5624	80000144	1cb24503	lbu	x10,459(x4)	  x4:0x800084ef x10=0x00000057 PA:0x800086ba
       56265000	      5625	80000148	0038e333	or	x6,x17,x3	 x17:0x80009f84  x3:0x9b9be698  x6=0x9b9bff9c
       56275000	      5626	8000014c	412406b3	sub	x13,x8,x18	  x8:0x000000d3 x18:0x00000000 x13=0x000000d3
       56285000	      5627	80000150	f9620603	lb	x12,-106(x4)	  x4:0x800084ef x12=0x0000003b PA:0x80008485
       56295000	      5628	80000154	01ba1ab3	sll	x21,x20,x27	 x20:0x800006b8 x27:0x00000000 x21=0x800006b8
       56305000	      5629	80000158	d8925d83	lhu	x27,-631(x4)	  x4:0x800084ef x27=0x00009f5a PA:0x80008278
       56315000	      5630	8000015c	01959913	slli	x18,x11,0x19	 x11:0xfffffe83 x18=0x06000000
       56325000	      5631	80000160	1f221fa3	sh	x18,511(x4)	  x4:0x800084ef x18:0x06000000 PA:0x800086ee
       56335000	      5632	80000164	30b20423	sb	x11,776(x4)	  x4:0x800084ef x11:0xfffffe83 PA:0x800087f7
       56345000	      5633	80000168	e4a20303	lb	x6,-438(x4)	  x4:0x800084ef  x6=0xffffffba PA:0x80008339
       56355000	      5634	8000016c	15920023	sb	x25,320(x4)	  x4:0x800084ef x25:0x07c31000 PA:0x8000862f
       56365000	      5635	80000170	01b4e033	or	x0,x9,x27	  x9:0x00000304 x27:0x00009f5a
       56375000	      5636	80000174	f1924d83	lbu	x27,-231(x4)	  x4:0x800084ef x27=0x000000ac PA:0x80008408
       56385000	      5637	80000178	32624e03	lbu	x28,806(x4)	  x4:0x800084ef x28=0x00000035 PA:0x80008815
       56395000	      5638	8000017c	1ec20d03	lb	x26,492(x4)	  x4:0x800084ef x26=0x00000036 PA:0x800086db
       56405000	      5639	80000180	ff420583	lb	x11,-12(x4)	  x4:0x800084ef x11=0x0000007c PA:0x800084e3
       56415000	      5640	80000184	0033acb3	slt	x25,x7,x3	  x7:0x00000000  x3:0x9b9be698 x25=0x00000000
       56425000	      5641	80000188	dc020e03	lb	x28,-576(x4)	  x4:0x800084ef x28=0xffffff98 PA:0x800082af
       56435000	      5642	8000018c	416d5a33	sra	x20,x26,x22	 x26:0x00000036 x22:0x00000004 x20=0x00000003
       56445000	      5643	80000190	b5c20903	lb	x18,-1188(x4)	  x4:0x800084ef x18=0xffffffe5 PA:0x8000804b
       56455000	      5644	80000194	0191d193	srli	x3,x3,0x19	  x3:0x9b9be698  x3=0x0000004d
       56465000	      5645	80000198	e2a20603	lb	x12,-470(x4)	  x4:0x800084ef x12=0x00000040 PA:0x80008319
       56475000	      5646	8000019c	dd922a83	lw	x21,-551(x4)	  x4:0x800084ef x21=0xdc39c2b8 PA:0x800082c8
       56485000	      5647	800001a0	ff420c03	lb	x24,-12(x4)	  x4:0x800084ef x24=0x0000007c PA:0x800084e3
       56495000	      5648	800001a4	1a420823	sb	x4,432(x4)	  x4:0x800084ef  x4:0x800084ef PA:0x8000869f
       56505000	      5649	800001a8	2d820983	lb	x19,728(x4)	  x4:0x800084ef x19=0x00000027 PA:0x800087c7
       56515000	      5650	800001ac	fd620d03	lb	x26,-42(x4)	  x4:0x800084ef x26=0x00000066 PA:0x800084c5
       56525000	      5651	800001b0	c9521903	lh	x18,-875(x4)	  x4:0x800084ef x18=0x000061bf PA:0x80008184
       56535000	      5652	800001b4	0062cb33	xor	x22,x5,x6	  x5:0xffbfffff  x6:0xffffffba x22=0x00400045
       56545000	      5653	800001b8	e8a20e03	lb	x28,-374(x4)	  x4:0x800084ef x28=0xffffffba PA:0x80008379
       56555000	      5654	800001bc	ea720c83	lb	x25,-345(x4)	  x4:0x800084ef x25=0xffffffab PA:0x80008396
       56565000	      5655	800001c0	19420483	lb	x9,404(x4)	  x4:0x800084ef  x9=0x00000061 PA:0x80008683
       56575000	      5656	800001c4	e0324103	lbu	x2,-509(x4)	  x4:0x800084ef  x2=0x000000ee PA:0x800082f2
       56585000	      5657	800001c8	0e521d83	lh	x27,229(x4)	  x4:0x800084ef x27=0x000049da PA:0x800085d4
       56595000	      5658	800001cc	bf04a913	slti	x18,x9,-1040	  x9:0x00000061 x18=0x00000000
       56605000	      5659	800001d0	002079b3	and	x19,x0,x2	  x0:0x00000000  x2:0x000000ee x19=0x00000000
       56615000	      5660	800001d4	06324603	lbu	x12,99(x4)	  x4:0x800084ef x12=0x0000002d PA:0x80008552
       56625000	      5661	00000000	00000013	addi	x0,x0,0	  x0:0x00000000
       56635000	      5662	800001d8	02c20523	sb	x12,42(x4)	  x4:0x800084ef x12:0x0000002d PA:0x80008519
       56645000	      5663	800001dc	daf21d83	lh	x27,-593(x4)	  x4:0x800084ef x27=0x000011da PA:0x8000829e
       56655000	      5664	800001e0	16522b03	lw	x22,357(x4)	  x4:0x800084ef x22=0xf3e36f26 PA:0x80008654
       56665000	      5665	800001e4	f2820723	sb	x8,-210(x4)	  x4:0x800084ef  x8:0x000000d3 PA:0x8000841d
       56675000	      5666	800001e8	40a25133	sra	x2,x4,x10	  x4:0x800084ef x10:0x00000057  x2=0xffffff00
       56685000	      5667	800001ec	00000013	addi	x0,x0,0	  x0:0x00000000
       56695000	      5668	800001f0	01bcc0b3	xor	x1,x25,x27	 x25:0xffffffab x27:0x000011da  x1=0xffffee71
       56705000	      5669	800001f4	01d2d593	srli	x11,x5,0x1d	  x5:0xffbfffff x11=0x00000007
       56715000	      5670	800001f8	018ddb13	srli	x22,x27,0x18	 x27:0x000011da x22=0x00000000
       56725000	      5671	800001fc	01798e33	add	x28,x19,x23	 x19:0x00000000 x23:0x80000138 x28=0x80000138
       56735000	      5672	80000200	8a678013	addi	x0,x15,-1882	 x15:0x00000000
       56745000	      5673	80000204	035d5063	bge	x26,x21,80000224	 x26:0x00000066 x21:0xdc39c2b8
       56755000	      5674	00000000	00000013	addi	x0,x0,0	  x0:0x00000000
       56765000	      5675	80000220	00000013	addi	x0,x0,0	  x0:0x00000000
       56775000	      5676	80000224	aedfee93	ori	x29,x31,-1299	 x31:0x80009fc4 x29=0xffffffed
       56785000	      5677	80000228	68064293	xori	x5,x12,1664	 x12:0x0000002d  x5=0x000006ad
       56795000	      5678	8000022c	56206917	auipc	x18,0x56206	 x18=0xd6206228
       56805000	      5679	80000230	689a7c13	andi	x24,x20,1673	 x20:0x00000003 x24=0x00000001
       56815000	      5680	80000234	6dd67a93	andi	x21,x12,1757	 x12:0x0000002d x21=0x0000000d
       56825000	      5681	80000238	00f6db33	srl	x22,x13,x15	 x13:0x000000d3 x15:0x00000000 x22=0x000000d3
       56835000	      5682	8000023c	00ea24b3	slt	x9,x20,x14	 x20:0x00000003 x14:0x00000000  x9=0x00000000
       56845000	      5683	80000240	a1862c13	slti	x24,x12,-1512	 x12:0x0000002d x24=0x00000000
       56855000	      5684	80000244	408b8f33	sub	x30,x23,x8	 x23:0x80000138  x8:0x000000d3 x30=0x80000065
       56865000	      5685	80000248	00d9e463	bltu	x19,x13,80000250	 x19:0x00000000 x13:0x000000d3
       56875000	      5686	00000000	00000013	addi	x0,x0,0	  x0:0x00000000
       56885000	      5687	8000024c	00000013	addi	x0,x0,0	  x0:0x00000000
       56895000	      5688	80000250	007bb833	sltu	x16,x23,x7	 x23:0x80000138  x7:0x00000000 x16=0x00000000
       56905000	      5689	80000254	02b34a63	blt	x6,x11,80000288	  x6:0xffffffba x11:0x00000007
       56915000	      5690	00000000	00000013	addi	x0,x0,0	  x0:0x00000000
       56925000	      5691	80000284	00000013	addi	x0,x0,0	  x0:0x00000000
       56935000	      5692	80000288	00f840b3	xor	x1,x16,x15	 x16:0x00000000 x15:0x00000000  x1=0x00000000
       56945000	      5693	8000028c	00583d33	sltu	x26,x16,x5	 x16:0x00000000  x5:0x000006ad x26=0x00000001
       56955000	      5694	80000290	01aecb33	xor	x22,x29,x26	 x29:0xffffffed x26:0x00000001 x22=0xffffffec
       56965000	      5695	80000294	01d5fab3	and	x21,x11,x29	 x11:0x00000007 x29:0xffffffed x21=0x00000005
       56975000	      5696	80000298	00d56db3	or	x27,x10,x13	 x10:0x00000057 x13:0x000000d3 x27=0x000000d7
       56985000	      5697	8000029c	69ff2193	slti	x3,x30,1695	 x30:0x80000065  x3=0x00000001
       56995000	      5698	800002a0	67c8c237	lui	x4,0x67c8c	  x4=0x67c8c000
       57005000	      5699	800002a4	40d28933	sub	x18,x5,x13	  x5:0x000006ad x13:0x000000d3 x18=0x000005da
       57015000	      5700	800002a8	a8d6b7b7	lui	x15,0xa8d6b	 x15=0xa8d6b000
       57025000	      5701	800002ac	a140d5b7	lui	x11,0xa140d	 x11=0xa140d000
       57035000	      5702	800002b0	01bd2cb3	slt	x25,x26,x27	 x26:0x00000001 x27:0x000000d7 x25=0x00000001
       57045000	      5703	800002b4	0ca3c693	xori	x13,x7,202	  x7:0x00000000 x13=0x000000ca
       57055000	      5704	800002b8	01fa9263	bne	x21,x31,800002bc	 x21:0x00000005 x31:0x80009fc4
       57065000	      5705	00000000	00000013	addi	x0,x0,0	  x0:0x00000000
       57075000	      5706	800002b8	00000013	addi	x0,x0,0	  x0:0x00000000
       57085000	      5707	800002bc	00ab07b3	add	x15,x22,x10	 x22:0xffffffec x10:0x00000057 x15=0x00000043
       57095000	      5708	800002c0	175c8c93	addi	x25,x25,373	 x25:0x00000001 x25=0x00000176
       57105000	      5709	800002c4	1078cb13	xori	x22,x17,263	 x17:0x80009f84 x22=0x80009e83
       57115000	      5710	800002c8	00aae933	or	x18,x21,x10	 x21:0x00000005 x10:0x00000057 x18=0x00000057
       57125000	      5711	800002cc	03326463	bltu	x4,x19,800002f4	  x4:0x67c8c000 x19:0x00000000
       57135000	      5712	800002d0	01afec33	or	x24,x31,x26	 x31:0x80009fc4 x26:0x00000001 x24=0x80009fc5
       57145000	      5713	800002d4	f7798d97	auipc	x27,0xf7798	 x27=0x777982d0
       57155000	      5714	800002d8	00efb333	sltu	x6,x31,x14	 x31:0x80009fc4 x14:0x00000000  x6=0x00000000
       57165000	      5715	800002dc	036fd863	bge	x31,x22,8000030c	 x31:0x80009fc4 x22:0x80009e83
       57175000	      5716	00000000	00000013	addi	x0,x0,0	  x0:0x00000000
       57185000	      5717	80000308	00000013	addi	x0,x0,0	  x0:0x00000000
       57195000	      5718	8000030c	00241d13	slli	x26,x8,0x2	  x8:0x000000d3 x26=0x0000034c
       57205000	      5719	80000310	41fdd793	srai	x15,x27,0x1f	 x27:0x777982d0 x15=0x00000000
       57215000	      5720	80000314	00000013	addi	x0,x0,0	  x0:0x00000000
       57225000	      5721	80000318	022cca63	blt	x25,x2,8000034c	 x25:0x00000176  x2:0xffffff00
       57235000	      5722	8000031c	3adc3c97	auipc	x25,0x3adc3	 x25=0xbadc3318
       57245000	      5723	80000320	404cdc13	srai	x24,x25,0x4	 x25:0xbadc3318 x24=0xfbadc331
       57255000	      5724	80000324	01e84833	xor	x16,x16,x30	 x16:0x00000000 x30:0x80000065 x16=0x80000065
       57265000	      5725	80000328	015e2633	slt	x12,x28,x21	 x28:0x80000138 x21:0x00000005 x12=0x00000001
       57275000	      5726	8000032c	74786637	lui	x12,0x74786	 x12=0x74786000
       57285000	      5727	80000330	0065eb33	or	x22,x11,x6	 x11:0xa140d000  x6:0x00000000 x22=0xa140d000
       57295000	      5728	80000334	015130b3	sltu	x1,x2,x21	  x2:0xffffff00 x21:0x00000005  x1=0x00000000
       57305000	      5729	80000338	0133c263	blt	x7,x19,8000033c	  x7:0x00000000 x19:0x00000000
       57315000	      5730	8000033c	012a5433	srl	x8,x20,x18	 x20:0x00000003 x18:0x00000057  x8=0x00000000
       57325000	      5731	80000340	c8c88413	addi	x8,x17,-884	 x17:0x80009f84  x8=0x80009c10
       57335000	      5732	80000344	c25fcb93	xori	x23,x31,-987	 x31:0x80009fc4 x23=0x7fff63e1
       57345000	      5733	80000348	51675db7	lui	x27,0x51675	 x27=0x51675000
       57355000	      5734	8000034c	05e18c63	beq	x3,x30,800003a4	  x3:0x00000001 x30:0x80000065
       57365000	      5735	80000350	06ce7263	bgeu	x28,x12,800003b4	 x28:0x80000138 x12:0x74786000
       57375000	      5736	00000000	00000013	addi	x0,x0,0	  x0:0x00000000
       57385000	      5737	800003b0	00000013	addi	x0,x0,0	  x0:0x00000000
       57395000	      5738	800003b4	01e381b3	add	x3,x7,x30	  x7:0x00000000 x30:0x80000065  x3=0x80000065
       57405000	      5739	800003b8	9f27b693	sltiu	x13,x15,-1550	 x15:0x00000000 x13=0x00000001
       57415000	      5740	800003bc	1ab49db7	lui	x27,0x1ab49	 x27=0x1ab49000
       57425000	      5741	800003c0	01b7dc13	srli	x24,x15,0x1b	 x15:0x00000000 x24=0x00000000
       57435000	      5742	800003c4	00b1da13	srli	x20,x3,0xb	  x3:0x80000065 x20=0x00100000
       57445000	      5743	800003c8	b7fd2293	slti	x5,x26,-1153	 x26:0x0000034c  x5=0x00000000
       57455000	      5744	800003cc	04f49463	bne	x9,x15,80000414	  x9:0x00000000 x15:0x00000000
       57465000	      5745	800003d0	407d5e93	srai	x29,x26,0x7	 x26:0x0000034c x29=0x00000006
       57475000	      5746	800003d4	4197b493	sltiu	x9,x15,1049	 x15:0x00000000  x9=0x00000001
       57485000	      5747	800003d8	02e14e63	blt	x2,x14,80000414	  x2:0xffffff00 x14:0x00000000
       57495000	      5748	00000000	00000013	addi	x0,x0,0	  x0:0x00000000
       57505000	      5749	80000410	00000013	addi	x0,x0,0	  x0:0x00000000
       57515000	      5750	80000414	4090d413	srai	x8,x1,0x9	  x1:0x00000000  x8=0x00000000
       57525000	      5751	80000418	1d6fc317	auipc	x6,0x1d6fc	  x6=0x9d6fc414
       57535000	      5752	8000041c	05357463	bgeu	x10,x19,80000464	 x10:0x00000057 x19:0x00000000
       57545000	      5753	00000000	00000013	addi	x0,x0,0	  x0:0x00000000
       57555000	      5754	80000460	00000013	addi	x0,x0,0	  x0:0x00000000
       57565000	      5755	80000464	00000013	addi	x0,x0,0	  x0:0x00000000
       57575000	      5756	80000468	01fad013	srli	x0,x21,0x1f	 x21:0x00000005
       57585000	      5757	8000046c	02a04463	blt	x0,x10,80000494	  x0:0x00000000 x10:0x00000057
       57595000	      5758	00000000	00000013	addi	x0,x0,0	  x0:0x00000000
       57605000	      5759	80000490	00000013	addi	x0,x0,0	  x0:0x00000000
       57615000	      5760	80000494	00a8ef33	or	x30,x17,x10	 x17:0x80009f84 x10:0x00000057 x30=0x80009fd7
       57625000	      5761	80000498	00000717	auipc	x14,0x0	 x14=0x80000494
       57635000	      5762	8000049c	00c70713	addi	x14,x14,12	 x14:0x80000494 x14=0x800004a0
       57645000	      5763	800004a0	00070067	jalr	x0,x14,0	 x14:0x800004a0
       57655000	      5764	00000000	00000013	addi	x0,x0,0	  x0:0x00000000
       57665000	      5765	800004a0	00000013	addi	x0,x0,0	  x0:0x00000000
       57675000	      5766	800004a4	00100193	addi	x3,x0,1	  x0:0x00000000  x3=0x00000001
       57685000	      5767	800004a8	00000073	ecall	
       57695000	      5768	800004ac	29571a37	lui	x20,0x29571	 x20=0x29571000
