		Time			Cycle	PC		Insn	Decoded instruction	Register and memory contents
          65000	         5	80000004	00000293	addi	x5,x0,0	  x0:0x00000000  x5=0x00000000
          75000	         6	80000008	00000313	addi	x6,x0,0	  x0:0x00000000  x6=0x00000000
          85000	         7	8000000c	00628263	beq	x5,x6,80000010	  x5:0x00000000  x6:0x00000000
          95000	         8	00000000	00000013	addi	x0,x0,0	  x0:0x00000000
         105000	         9	8000000c	00000013	addi	x0,x0,0	  x0:0x00000000
         115000	        10	80000010	00000917	auipc	x18,0x0	 x18=0x8000000c
         125000	        11	80000014	00c90913	addi	x18,x18,12	 x18:0x8000000c x18=0x80000018
         135000	        12	80000018	00090067	jalr	x0,x18,0	 x18:0x80000018
         145000	        13	00000000	00000013	addi	x0,x0,0	  x0:0x00000000
         155000	        14	80000018	00000013	addi	x0,x0,0	  x0:0x00000000
         165000	        15	8000001c	40000b37	lui	x22,0x40000	 x22=0x40000000
         175000	        16	80000020	100b0b13	addi	x22,x22,256	 x22:0x40000000 x22=0x40000100
         185000	        17	80000024	00000013	addi	x0,x0,0	  x0:0x00000000
         195000	        18	80000028	0000ae17	auipc	x28,0xa	 x28=0x8000a024
         205000	        19	8000002c	fa0e0e13	addi	x28,x28,-96	 x28:0x8000a024 x28=0x80009fc4
         215000	        20	80000030	00007b17	auipc	x22,0x7	 x22=0x8000702c
         225000	        21	80000034	a3cb0b13	addi	x22,x22,-1476	 x22:0x8000702c x22=0x80006a68
         235000	        22	80000038	000b6b13	ori	x22,x22,0	 x22:0x80006a68 x22=0x80006a68
         245000	        23	8000003c	00000013	addi	x0,x0,0	  x0:0x00000000
         255000	        24	80000040	00000b17	auipc	x22,0x0	 x22=0x8000003c
         265000	        25	80000044	020b0b13	addi	x22,x22,32	 x22:0x8000003c x22=0x8000005c
         275000	        26	80000048	00000013	addi	x0,x0,0	  x0:0x00000000
         285000	        27	8000004c	00000013	addi	x0,x0,0	  x0:0x00000000
         295000	        28	80000050	00002b37	lui	x22,0x2	 x22=0x00002000
         305000	        29	80000054	800b0b13	addi	x22,x22,-2048	 x22:0x00002000 x22=0x00001800
         315000	        30	80000058	00000013	addi	x0,x0,0	  x0:0x00000000
         325000	        31	8000005c	00000013	addi	x0,x0,0	  x0:0x00000000
         335000	        32	80000060	3f47c037	lui	x0,0x3f47c	
         345000	        33	80000064	17600013	addi	x0,x0,374	  x0:0x00000000
         355000	        34	80000068	00000093	addi	x1,x0,0	  x0:0x00000000  x1=0x00000000
         365000	        35	8000006c	b09af137	lui	x2,0xb09af	  x2=0xb09af000
         375000	        36	80000070	08910113	addi	x2,x2,137	  x2:0xb09af000  x2=0xb09af089
         385000	        37	80000074	800001b7	lui	x3,0x80000	  x3=0x80000000
         395000	        38	80000078	80000237	lui	x4,0x80000	  x4=0x80000000
         405000	        39	8000007c	00000293	addi	x5,x0,0	  x0:0x00000000  x5=0x00000000
         415000	        40	80000080	977c7337	lui	x6,0x977c7	  x6=0x977c7000
         425000	        41	80000084	97530313	addi	x6,x6,-1675	  x6:0x977c7000  x6=0x977c6975
         435000	        42	80000088	00000413	addi	x8,x0,0	  x0:0x00000000  x8=0x00000000
         445000	        43	8000008c	00000493	addi	x9,x0,0	  x0:0x00000000  x9=0x00000000
         455000	        44	80000090	00000513	addi	x10,x0,0	  x0:0x00000000 x10=0x00000000
         465000	        45	80000094	00000593	addi	x11,x0,0	  x0:0x00000000 x11=0x00000000
         475000	        46	80000098	d993b637	lui	x12,0xd993b	 x12=0xd993b000
         485000	        47	8000009c	fda60613	addi	x12,x12,-38	 x12:0xd993b000 x12=0xd993afda
         495000	        48	800000a0	00900693	addi	x13,x0,9	  x0:0x00000000 x13=0x00000009
         505000	        49	800000a4	7e676737	lui	x14,0x7e676	 x14=0x7e676000
         515000	        50	800000a8	37870713	addi	x14,x14,888	 x14:0x7e676000 x14=0x7e676378
         525000	        51	800000ac	b5a487b7	lui	x15,0xb5a48	 x15=0xb5a48000
         535000	        52	800000b0	69478793	addi	x15,x15,1684	 x15:0xb5a48000 x15=0xb5a48694
         545000	        53	800000b4	3b253837	lui	x16,0x3b253	 x16=0x3b253000
         555000	        54	800000b8	53080813	addi	x16,x16,1328	 x16:0x3b253000 x16=0x3b253530
         565000	        55	800000bc	fa3558b7	lui	x17,0xfa355	 x17=0xfa355000
         575000	        56	800000c0	60888893	addi	x17,x17,1544	 x17:0xfa355000 x17=0xfa355608
         585000	        57	800000c4	475a9937	lui	x18,0x475a9	 x18=0x475a9000
         595000	        58	800000c8	2a990913	addi	x18,x18,681	 x18:0x475a9000 x18=0x475a92a9
         605000	        59	800000cc	ff5bc9b7	lui	x19,0xff5bc	 x19=0xff5bc000
         615000	        60	800000d0	33e98993	addi	x19,x19,830	 x19:0xff5bc000 x19=0xff5bc33e
         625000	        61	800000d4	80000a37	lui	x20,0x80000	 x20=0x80000000
         635000	        62	800000d8	f7384ab7	lui	x21,0xf7384	 x21=0xf7384000
         645000	        63	800000dc	00ba8a93	addi	x21,x21,11	 x21:0xf7384000 x21=0xf738400b
         655000	        64	800000e0	00000b13	addi	x22,x0,0	  x0:0x00000000 x22=0x00000000
         665000	        65	800000e4	00000b93	addi	x23,x0,0	  x0:0x00000000 x23=0x00000000
         675000	        66	800000e8	00b00c13	addi	x24,x0,11	  x0:0x00000000 x24=0x0000000b
         685000	        67	800000ec	80000cb7	lui	x25,0x80000	 x25=0x80000000
         695000	        68	800000f0	f898fd37	lui	x26,0xf898f	 x26=0xf898f000
         705000	        69	800000f4	e0bd0d13	addi	x26,x26,-501	 x26:0xf898f000 x26=0xf898ee0b
         715000	        70	800000f8	80000db7	lui	x27,0x80000	 x27=0x80000000
         725000	        71	800000fc	00a00e93	addi	x29,x0,10	  x0:0x00000000 x29=0x0000000a
         735000	        72	80000100	fd387f37	lui	x30,0xfd387	 x30=0xfd387000
         745000	        73	80000104	0f9f0f13	addi	x30,x30,249	 x30:0xfd387000 x30=0xfd3870f9
         755000	        74	80000108	fe113fb7	lui	x31,0xfe113	 x31=0xfe113000
         765000	        75	8000010c	72df8f93	addi	x31,x31,1837	 x31:0xfe113000 x31=0xfe11372d
         775000	        76	80000110	0000a397	auipc	x7,0xa	  x7=0x8000a10c
         785000	        77	80000114	e7838393	addi	x7,x7,-392	  x7:0x8000a10c  x7=0x80009f84
         795000	        78	80000118	00000e97	auipc	x29,0x0	 x29=0x80000114
         805000	        79	8000011c	334e8e93	addi	x29,x29,820	 x29:0x80000114 x29=0x80000448
         815000	        80	80000120	01fa2ab3	slt	x21,x20,x31	 x20:0x80000000 x31:0xfe11372d x21=0x00000001
         825000	        81	80000124	91a77b13	andi	x22,x14,-1766	 x14:0x7e676378 x22=0x7e676118
         835000	        82	80000128	0116a333	slt	x6,x13,x17	 x13:0x00000009 x17:0xfa355608  x6=0x00000000
         845000	        83	8000012c	d14a6113	ori	x2,x20,-748	 x20:0x80000000  x2=0xfffffd14
         855000	        84	80000130	40b90c33	sub	x24,x18,x11	 x18:0x475a92a9 x11:0x00000000 x24=0x475a92a9
         865000	        85	80000134	01446a33	or	x20,x8,x20	  x8:0x00000000 x20:0x80000000 x20=0x80000000
         875000	        86	80000138	1b3e8e93	addi	x29,x29,435	 x29:0x80000448 x29=0x800005fb
         885000	        87	8000013c	0015e863	bltu	x11,x1,8000014c	 x11:0x00000000  x1:0x00000000
         895000	        88	80000140	01a8edb3	or	x27,x17,x26	 x17:0xfa355608 x26:0xf898ee0b x27=0xfabdfe0b
         905000	        89	80000144	00000013	addi	x0,x0,0	  x0:0x00000000
         915000	        90	80000148	00a31433	sll	x8,x6,x10	  x6:0x00000000 x10:0x00000000  x8=0x00000000
         925000	        91	8000014c	e4ee81e7	jalr	x3,x29,-434	 x29:0x800005fb  x3=0x8000014c
         935000	        92	00000000	00000013	addi	x0,x0,0	  x0:0x00000000
         945000	        93	80000448	00000013	addi	x0,x0,0	  x0:0x00000000
         955000	        94	8000044c	01def4b3	and	x9,x29,x29	 x29:0x800005fb x29:0x800005fb  x9=0x800005fb
         965000	        95	80000450	b7778b13	addi	x22,x15,-1161	 x15:0xb5a48694 x22=0xb5a4820b
         975000	        96	80000454	01f16bb3	or	x23,x2,x31	  x2:0xfffffd14 x31:0xfe11372d x23=0xffffff3d
         985000	        97	80000458	01c55513	srli	x10,x10,0x1c	 x10:0x00000000 x10=0x00000000
         995000	        98	8000045c	fe838393	addi	x7,x7,-24	  x7:0x80009f84  x7=0x80009f6c
        1005000	        99	80000460	98538d93	addi	x27,x7,-1659	  x7:0x80009f6c x27=0x800098f1
        1015000	       100	80000464	0033a223	sw	x3,4(x7)	  x7:0x80009f6c  x3:0x8000014c PA:0x80009f70
        1025000	       101	80000468	a995a613	slti	x12,x11,-1383	 x11:0x00000000 x12=0x00000000
        1035000	       102	8000046c	00e84bb3	xor	x23,x16,x14	 x16:0x3b253530 x14:0x7e676378 x23=0x45425648
        1045000	       103	80000470	016af2b3	and	x5,x21,x22	 x21:0x00000001 x22:0xb5a4820b  x5=0x00000001
        1055000	       104	80000474	018e2f33	slt	x30,x28,x24	 x28:0x80009fc4 x24:0x475a92a9 x30=0x00000001
        1065000	       105	80000478	0186a733	slt	x14,x13,x24	 x13:0x00000009 x24:0x475a92a9 x14=0x00000001
        1075000	       106	8000047c	5f07e613	ori	x12,x15,1520	 x15:0xb5a48694 x12=0xb5a487f4
        1085000	       107	80000480	00006997	auipc	x19,0x6	 x19=0x8000647c
        1095000	       108	80000484	4f898993	addi	x19,x19,1272	 x19:0x8000647c x19=0x80006974
        1105000	       109	80000488	962f4c17	auipc	x24,0x962f4	 x24=0x162f4484
        1115000	       110	8000048c	01d71713	slli	x14,x14,0x1d	 x14:0x00000001 x14=0x20000000
        1125000	       111	80000490	eb798993	addi	x19,x19,-329	 x19:0x80006974 x19=0x8000682b
        1135000	       112	80000494	01626863	bltu	x4,x22,800004a4	  x4:0x80000000 x22:0xb5a4820b
        1145000	       113	00000000	00000013	addi	x0,x0,0	  x0:0x00000000
        1155000	       114	800004a0	00000013	addi	x0,x0,0	  x0:0x00000000
        1165000	       115	800004a4	14a981e7	jalr	x3,x19,330	 x19:0x8000682b  x3=0x800004a4
        1175000	       116	00000000	00000013	addi	x0,x0,0	  x0:0x00000000
        1185000	       117	80006974	00000013	addi	x0,x0,0	  x0:0x00000000
        1195000	       118	80006978	d1628d13	addi	x26,x5,-746	  x5:0x00000001 x26=0xfffffd17
        1205000	       119	8000697c	01771663	bne	x14,x23,80006988	 x14:0x20000000 x23:0x45425648
        1215000	       120	00000000	00000013	addi	x0,x0,0	  x0:0x00000000
        1225000	       121	80006984	00000013	addi	x0,x0,0	  x0:0x00000000
        1235000	       122	80006988	fec38393	addi	x7,x7,-20	  x7:0x80009f6c  x7=0x80009f58
        1245000	       123	8000698c	0033a223	sw	x3,4(x7)	  x7:0x80009f58  x3:0x800004a4 PA:0x80009f5c
        1255000	       124	80006990	0026dc13	srli	x24,x13,0x2	 x13:0x00000009 x24=0x00000002
        1265000	       125	80006994	0006aeb3	slt	x29,x13,x0	 x13:0x00000009  x0:0x00000000 x29=0x00000000
        1275000	       126	80006998	930e2f13	slti	x30,x28,-1744	 x28:0x80009fc4 x30=0x00000001
        1285000	       127	8000699c	01771c93	slli	x25,x14,0x17	 x14:0x20000000 x25=0x00000000
        1295000	       128	800069a0	41585db3	sra	x27,x16,x21	 x16:0x3b253530 x21:0x00000001 x27=0x1d929a98
        1305000	       129	800069a4	01203533	sltu	x10,x0,x18	  x0:0x00000000 x18:0x475a92a9 x10=0x00000001
        1315000	       130	800069a8	00b0bf33	sltu	x30,x1,x11	  x1:0x00000000 x11:0x00000000 x30=0x00000000
        1325000	       131	800069ac	f0a92313	slti	x6,x18,-246	 x18:0x475a92a9  x6=0x00000000
        1335000	       132	800069b0	004c0633	add	x12,x24,x4	 x24:0x00000002  x4:0x80000000 x12=0x80000002
        1345000	       133	800069b4	9e5fd1ef	jal	x3,800069b4	  x3=0x800069b4
        1355000	       134	00000000	00000013	addi	x0,x0,0	  x0:0x00000000
        1365000	       135	80004394	00000013	addi	x0,x0,0	  x0:0x00000000
        1375000	       136	80004398	01519463	bne	x3,x21,800043a0	  x3:0x800069b4 x21:0x00000001
        1385000	       137	00000000	00000013	addi	x0,x0,0	  x0:0x00000000
        1395000	       138	8000439c	00000013	addi	x0,x0,0	  x0:0x00000000
        1405000	       139	800043a0	fd038393	addi	x7,x7,-48	  x7:0x80009f58  x7=0x80009f28
        1415000	       140	800043a4	fefcc493	xori	x9,x25,-17	 x25:0x00000000  x9=0xffffffef
        1425000	       141	800043a8	112c6f13	ori	x30,x24,274	 x24:0x00000002 x30=0x00000112
        1435000	       142	800043ac	40c4d593	srai	x11,x9,0xc	  x9:0xffffffef x11=0xffffffff
        1445000	       143	800043b0	0033a223	sw	x3,4(x7)	  x7:0x80009f28  x3:0x800069b4 PA:0x80009f2c
        1455000	       144	800043b4	e79de213	ori	x4,x27,-391	 x27:0x1d929a98  x4=0xfffffef9
        1465000	       145	800043b8	00004d97	auipc	x27,0x4	 x27=0x800083b4
        1475000	       146	800043bc	31fd8d93	addi	x27,x27,799	 x27:0x800083b4 x27=0x800086d3
        1485000	       147	800043c0	000030b3	sltu	x1,x0,x0	  x0:0x00000000  x0:0x00000000  x1=0x00000000
        1495000	       148	800043c4	b15da603	lw	x12,-1259(x27)	 x27:0x800086d3 x12=0x00000000 PA:0x800081e8
        1505000	       149	800043c8	bdfd9003	lh	x0,-1057(x27)	 x27:0x800086d3 PA:0x800082b2
        1515000	       150	800043cc	0112ecb3	or	x25,x5,x17	  x5:0x00000001 x17:0xfa355608 x25=0xfa355609
        1525000	       151	800043d0	41b4d1b3	sra	x3,x9,x27	  x9:0xffffffef x27:0x800086d3  x3=0xffffffff
        1535000	       152	800043d4	012e4eb3	xor	x29,x28,x18	 x28:0x80009fc4 x18:0x475a92a9 x29=0xc75a0d6d
        1545000	       153	800043d8	ea6d8d03	lb	x26,-346(x27)	 x27:0x800086d3 x26=0x00000000 PA:0x80008579
        1555000	       154	800043dc	4038d813	srai	x16,x17,0x3	 x17:0xfa355608 x16=0xff46aac1
        1565000	       155	800043e0	d30d8283	lb	x5,-720(x27)	 x27:0x800086d3  x5=0x00000000 PA:0x80008403
        1575000	       156	800043e4	40760433	sub	x8,x12,x7	 x12:0x00000000  x7:0x80009f28  x8=0x7fff60d8
        1585000	       157	800043e8	1ea0e4b7	lui	x9,0x1ea0e	  x9=0x1ea0e000
        1595000	       158	800043ec	c8f70f13	addi	x30,x14,-881	 x14:0x20000000 x30=0x1ffffc8f
        1605000	       159	800043f0	412a8033	sub	x0,x21,x18	 x21:0x00000001 x18:0x475a92a9
        1615000	       160	800043f4	5bc3bf93	sltiu	x31,x7,1468	  x7:0x80009f28 x31=0x00000000
        1625000	       161	800043f8	00f7b1b3	sltu	x3,x15,x15	 x15:0xb5a48694 x15:0xb5a48694  x3=0x00000000
        1635000	       162	800043fc	01cf1b13	slli	x22,x30,0x1c	 x30:0x1ffffc8f x22=0xf0000000
        1645000	       163	80004400	0105d133	srl	x2,x11,x16	 x11:0xffffffff x16:0xff46aac1  x2=0x7fffffff
        1655000	       164	80004404	41db00b3	sub	x1,x22,x29	 x22:0xf0000000 x29:0xc75a0d6d  x1=0x28a5f293
        1665000	       165	80004408	e8dd9303	lh	x6,-371(x27)	 x27:0x800086d3  x6=0x00000000 PA:0x80008560
        1675000	       166	8000440c	c63dc603	lbu	x12,-925(x27)	 x27:0x800086d3 x12=0x00000000 PA:0x80008336
        1685000	       167	80004410	01ab66b3	or	x13,x22,x26	 x22:0xf0000000 x26:0x00000000 x13=0xf0000000
        1695000	       168	80004414	00b81593	slli	x11,x16,0xb	 x16:0xff46aac1 x11=0x35560800
        1705000	       169	80004418	b5dddb83	lhu	x23,-1187(x27)	 x27:0x800086d3 x23=0x00000000 PA:0x80008230
        1715000	       170	8000441c	01fa7fb3	and	x31,x20,x31	 x20:0x80000000 x31:0x00000000 x31=0x00000000
        1725000	       171	80004420	092d8883	lb	x17,146(x27)	 x27:0x800086d3 x17=0x00000000 PA:0x80008765
        1735000	       172	80004424	fb0d8fa3	sb	x16,-65(x27)	 x27:0x800086d3 x16:0xff46aac1 PA:0x80008692
        1745000	       173	80004428	b5eda4a3	sw	x30,-1207(x27)	 x27:0x800086d3 x30:0x1ffffc8f PA:0x8000821c
        1755000	       174	8000442c	a10dc203	lbu	x4,-1520(x27)	 x27:0x800086d3  x4=0x00000000 PA:0x800080e3
        1765000	       175	80004430	de7d8aa3	sb	x7,-523(x27)	 x27:0x800086d3  x7:0x80009f28 PA:0x800084c8
        1775000	       176	80004434	eecdc103	lbu	x2,-276(x27)	 x27:0x800086d3  x2=0x00000000 PA:0x800085bf
        1785000	       177	80004438	aed71517	auipc	x10,0xaed71	 x10=0x2ed75434
        1795000	       178	8000443c	00122eb3	slt	x29,x4,x1	  x4:0x00000000  x1:0x28a5f293 x29=0x00000001
        1805000	       179	80004440	eaed8683	lb	x13,-338(x27)	 x27:0x800086d3 x13=0x00000000 PA:0x80008581
        1815000	       180	80004444	00af84b3	add	x9,x31,x10	 x31:0x00000000 x10:0x2ed75434  x9=0x2ed75434
        1825000	       181	80004448	231dca93	xori	x21,x27,561	 x27:0x800086d3 x21=0x800084e2
        1835000	       182	8000444c	00ba16b3	sll	x13,x20,x11	 x20:0x80000000 x11:0x35560800 x13=0x80000000
        1845000	       183	80004450	ab5ddd03	lhu	x26,-1355(x27)	 x27:0x800086d3 x26=0x00000000 PA:0x80008188
        1855000	       184	80004454	abbdc683	lbu	x13,-1349(x27)	 x27:0x800086d3 x13=0x00000000 PA:0x8000818e
        1865000	       185	80004458	00004217	auipc	x4,0x4	  x4=0x80008454
        1875000	       186	8000445c	57f20213	addi	x4,x4,1407	  x4:0x80008454  x4=0x800089d3
        1885000	       187	80004460	6f13f613	andi	x12,x7,1777	  x7:0x80009f28 x12=0x00000620
        1895000	       188	80004464	00000013	addi	x0,x0,0	  x0:0x00000000
        1905000	       189	80004468	04020883	lb	x17,64(x4)	  x4:0x800089d3 x17=0x00000000 PA:0x80008a13
        1915000	       190	00000000	00000013	addi	x0,x0,0	  x0:0x00000000
        1925000	       191	8000446c	00e8acb3	slt	x25,x17,x14	 x17:0x00000000 x14:0x20000000 x25=0x00000001
        1935000	       192	80004470	039215a3	sh	x25,43(x4)	  x4:0x800089d3 x25:0x00000001 PA:0x800089fe
        1945000	       193	80004474	41775413	srai	x8,x14,0x17	 x14:0x20000000  x8=0x00000040
        1955000	       194	80004478	00920c23	sb	x9,24(x4)	  x4:0x800089d3  x9:0x2ed75434 PA:0x800089eb
        1965000	       195	8000447c	02320023	sb	x3,32(x4)	  x4:0x800089d3  x3:0x00000000 PA:0x800089f3
        1975000	       196	80004480	04024a83	lbu	x21,64(x4)	  x4:0x800089d3 x21=0x00000000 PA:0x80008a13
        1985000	       197	80004484	03124403	lbu	x8,49(x4)	  x4:0x800089d3  x8=0x00000000 PA:0x80008a04
        1995000	       198	80004488	fd320c03	lb	x24,-45(x4)	  x4:0x800089d3 x24=0x00000000 PA:0x800089a6
        2005000	       199	8000448c	40b75813	srai	x16,x14,0xb	 x14:0x20000000 x16=0x00040000
        2015000	       200	80004490	00d396b3	sll	x13,x7,x13	  x7:0x80009f28 x13:0x00000000 x13=0x80009f28
        2025000	       201	80004494	4ad3a193	slti	x3,x7,1197	  x7:0x80009f28  x3=0x00000001
        2035000	       202	80004498	005ee733	or	x14,x29,x5	 x29:0x00000001  x5:0x00000000 x14=0x00000001
        2045000	       203	8000449c	ff724a83	lbu	x21,-9(x4)	  x4:0x800089d3 x21=0x00000000 PA:0x800089ca
        2055000	       204	800044a0	fc321583	lh	x11,-61(x4)	  x4:0x800089d3 x11=0x00000000 PA:0x80008996
        2065000	       205	800044a4	03520323	sb	x21,38(x4)	  x4:0x800089d3 x21:0x00000000 PA:0x800089f9
        2075000	       206	800044a8	fd121d03	lh	x26,-47(x4)	  x4:0x800089d3 x26=0x00000000 PA:0x800089a4
        2085000	       207	800044ac	00be8f33	add	x30,x29,x11	 x29:0x00000001 x11:0x00000000 x30=0x00000001
        2095000	       208	800044b0	0195e333	or	x6,x11,x25	 x11:0x00000000 x25:0x00000001  x6=0x00000001
        2105000	       209	800044b4	ffc20303	lb	x6,-4(x4)	  x4:0x800089d3  x6=0x00000000 PA:0x800089cf
        2115000	       210	800044b8	01224703	lbu	x14,18(x4)	  x4:0x800089d3 x14=0x00000000 PA:0x800089e5
        2125000	       211	800044bc	00004117	auipc	x2,0x4	  x2=0x800084b8
        2135000	       212	800044c0	eab10113	addi	x2,x2,-341	  x2:0x800084b8  x2=0x80008363
        2145000	       213	800044c4	82234513	xori	x10,x6,-2014	  x6:0x00000000 x10=0xfffff822
        2155000	       214	800044c8	233b7193	andi	x3,x22,563	 x22:0xf0000000  x3=0x00000000
        2165000	       215	800044cc	01978033	add	x0,x15,x25	 x15:0xb5a48694 x25:0x00000001
        2175000	       216	800044d0	00b10823	sb	x11,16(x2)	  x2:0x80008363 x11:0x00000000 PA:0x80008373
        2185000	       217	800044d4	011a10b3	sll	x1,x20,x17	 x20:0x80000000 x17:0x00000000  x1=0x80000000
        2195000	       218	800044d8	4026d193	srai	x3,x13,0x2	 x13:0x80009f28  x3=0xe00027ca
        2205000	       219	800044dc	41275cb3	sra	x25,x14,x18	 x14:0x00000000 x18:0x475a92a9 x25=0x00000000
        2215000	       220	800044e0	ff111883	lh	x17,-15(x2)	  x2:0x80008363 x17=0x00000000 PA:0x80008354
        2225000	       221	800044e4	008b89b3	add	x19,x23,x8	 x23:0x00000000  x8:0x00000000 x19=0x00000000
        2235000	       222	800044e8	0199e5b3	or	x11,x19,x25	 x19:0x00000000 x25:0x00000000 x11=0x00000000
        2245000	       223	800044ec	6f11d837	lui	x16,0x6f11d	 x16=0x6f11d000
        2255000	       224	800044f0	00000013	addi	x0,x0,0	  x0:0x00000000
        2265000	       225	800044f4	f5673b13	sltiu	x22,x14,-170	 x14:0x00000000 x22=0x00000001
        2275000	       226	800044f8	00010203	lb	x4,0(x2)	  x2:0x80008363  x4=0x00000000 PA:0x80008363
        2285000	       227	800044fc	00efb8b3	sltu	x17,x31,x14	 x31:0x00000000 x14:0x00000000 x17=0x00000000
        2295000	       228	80004500	8bc67e93	andi	x29,x12,-1860	 x12:0x00000620 x29=0x00000020
        2305000	       229	80004504	000116a3	sh	x0,13(x2)	  x2:0x80008363  x0:0x00000000 PA:0x80008370
        2315000	       230	80004508	88dd8593	addi	x11,x27,-1907	 x27:0x800086d3 x11=0x80007f60
        2325000	       231	8000450c	ff715d03	lhu	x26,-9(x2)	  x2:0x80008363 x26=0x00000000 PA:0x8000835a
        2335000	       232	80004510	00915183	lhu	x3,9(x2)	  x2:0x80008363  x3=0x00000000 PA:0x8000836c
        2345000	       233	80004514	00b07f33	and	x30,x0,x11	  x0:0x00000000 x11:0x80007f60 x30=0x00000000
        2355000	       234	80004518	fe912aa3	sw	x9,-11(x2)	  x2:0x80008363  x9:0x2ed75434 PA:0x80008358
        2365000	       235	8000451c	01b01c33	sll	x24,x0,x27	  x0:0x00000000 x27:0x800086d3 x24=0x00000000
        2375000	       236	80004520	fe4118a3	sh	x4,-15(x2)	  x2:0x80008363  x4:0x00000000 PA:0x80008354
        2385000	       237	80004524	406082b3	sub	x5,x1,x6	  x1:0x80000000  x6:0x00000000  x5=0x80000000
        2395000	       238	80004528	01a116a3	sh	x26,13(x2)	  x2:0x80008363 x26:0x00000000 PA:0x80008370
        2405000	       239	8000452c	01118733	add	x14,x3,x17	  x3:0x00000000 x17:0x00000000 x14=0x00000000
        2415000	       240	80004530	00a10283	lb	x5,10(x2)	  x2:0x80008363  x5=0x00000000 PA:0x8000836d
        2425000	       241	80004534	fe610ba3	sb	x6,-9(x2)	  x2:0x80008363  x6:0x00000000 PA:0x8000835a
        2435000	       242	80004538	00a10223	sb	x10,4(x2)	  x2:0x80008363 x10:0xfffff822 PA:0x80008367
        2445000	       243	8000453c	01723333	sltu	x6,x4,x23	  x4:0x00000000 x23:0x00000000  x6=0x00000000
        2455000	       244	80004540	40295cb3	sra	x25,x18,x2	 x18:0x475a92a9  x2:0x80008363 x25=0x08eb5255
        2465000	       245	80004544	fe110b23	sb	x1,-10(x2)	  x2:0x80008363  x1:0x80000000 PA:0x80008359
        2475000	       246	80004548	00004117	auipc	x2,0x4	  x2=0x80008544
        2485000	       247	8000454c	b0410113	addi	x2,x2,-1276	  x2:0x80008544  x2=0x80008048
        2495000	       248	80004550	01d23b33	sltu	x22,x4,x29	  x4:0x00000000 x29:0x00000020 x22=0x00000001
        2505000	       249	80004554	00710723	sb	x7,14(x2)	  x2:0x80008048  x7:0x80009f28 PA:0x80008056
        2515000	       250	80004558	010574b3	and	x9,x10,x16	 x10:0xfffff822 x16:0x6f11d000  x9=0x6f11d000
        2525000	       251	8000455c	01c851b3	srl	x3,x16,x28	 x16:0x6f11d000 x28:0x80009fc4  x3=0x06f11d00
        2535000	       252	80004560	00ab3433	sltu	x8,x22,x10	 x22:0x00000001 x10:0xfffff822  x8=0x00000001
        2545000	       253	80004564	408b5013	srai	x0,x22,0x8	 x22:0x00000001
        2555000	       254	80004568	00510a03	lb	x20,5(x2)	  x2:0x80008048 x20=0x00000000 PA:0x8000804d
        2565000	       255	8000456c	00000013	addi	x0,x0,0	  x0:0x00000000
        2575000	       256	80004570	00714a83	lbu	x21,7(x2)	  x2:0x80008048 x21=0x00000000 PA:0x8000804f
        2585000	       257	80004574	01ac5533	srl	x10,x24,x26	 x24:0x00000000 x26:0x00000000 x10=0x00000000
        2595000	       258	80004578	00511723	sh	x5,14(x2)	  x2:0x80008048  x5:0x00000000 PA:0x80008056
        2605000	       259	8000457c	00df1893	slli	x17,x30,0xd	 x30:0x00000000 x17=0x00000000
        2615000	       260	80004580	00b10f83	lb	x31,11(x2)	  x2:0x80008048 x31=0x00000000 PA:0x80008053
        2625000	       261	80004584	0029e8b3	or	x17,x19,x2	 x19:0x00000000  x2:0x80008048 x17=0x80008048
        2635000	       262	80004588	00e11303	lh	x6,14(x2)	  x2:0x80008048  x6=0x00000000 PA:0x80008056
        2645000	       263	8000458c	00f10223	sb	x15,4(x2)	  x2:0x80008048 x15:0xb5a48694 PA:0x8000804c
        2655000	       264	80004590	018b6fb3	or	x31,x22,x24	 x22:0x00000001 x24:0x00000000 x31=0x00000001
        2665000	       265	80004594	00714d83	lbu	x27,7(x2)	  x2:0x80008048 x27=0x00000000 PA:0x8000804f
        2675000	       266	80004598	00410983	lb	x19,4(x2)	  x2:0x80008048 x19=0xffffff94 PA:0x8000804c
        2685000	       267	00000000	00000013	addi	x0,x0,0	  x0:0x00000000
        2695000	       268	8000459c	013240b3	xor	x1,x4,x19	  x4:0x00000000 x19:0xffffff94  x1=0xffffff94
        2705000	       269	800045a0	1bb88a93	addi	x21,x17,443	 x17:0x80008048 x21=0x80008203
        2715000	       270	800045a4	00845793	srli	x15,x8,0x8	  x8:0x00000001 x15=0x00000000
        2725000	       271	800045a8	418958b3	sra	x17,x18,x24	 x18:0x475a92a9 x24:0x00000000 x17=0x475a92a9
        2735000	       272	800045ac	01526ab3	or	x21,x4,x21	  x4:0x00000000 x21:0x80008203 x21=0x80008203
        2745000	       273	800045b0	2e83d717	auipc	x14,0x2e83d	 x14=0xae8415ac
        2755000	       274	800045b4	16b20193	addi	x3,x4,363	  x4:0x00000000  x3=0x0000016b
        2765000	       275	800045b8	00000013	addi	x0,x0,0	  x0:0x00000000
        2775000	       276	800045bc	0082e2b3	or	x5,x5,x8	  x5:0x00000000  x8:0x00000001  x5=0x00000001
        2785000	       277	800045c0	41658ab3	sub	x21,x11,x22	 x11:0x80007f60 x22:0x00000001 x21=0x80007f5f
        2795000	       278	800045c4	00672a33	slt	x20,x14,x6	 x14:0xae8415ac  x6:0x00000000 x20=0x00000001
        2805000	       279	800045c8	011871b3	and	x3,x16,x17	 x16:0x6f11d000 x17:0x475a92a9  x3=0x47109000
        2815000	       280	800045cc	011b6eb3	or	x29,x22,x17	 x22:0x00000001 x17:0x475a92a9 x29=0x475a92a9
        2825000	       281	800045d0	1d7ddf37	lui	x30,0x1d7dd	 x30=0x1d7dd000
        2835000	       282	800045d4	40ea8533	sub	x10,x21,x14	 x21:0x80007f5f x14:0xae8415ac x10=0xd17c69b3
        2845000	       283	800045d8	34ba0f97	auipc	x31,0x34ba0	 x31=0xb4ba45d4
        2855000	       284	800045dc	85797d17	auipc	x26,0x85797	 x26=0x0579b5d8
        2865000	       285	800045e0	00b3db93	srli	x23,x7,0xb	  x7:0x80009f28 x23=0x00100013
        2875000	       286	800045e4	01911723	sh	x25,14(x2)	  x2:0x80008048 x25:0x08eb5255 PA:0x80008056
        2885000	       287	800045e8	89266f97	auipc	x31,0x89266	 x31=0x0926a5e4
        2895000	       288	800045ec	01a3c1b3	xor	x3,x7,x26	  x7:0x80009f28 x26:0x0579b5d8  x3=0x85792af0
        2905000	       289	800045f0	01014983	lbu	x19,16(x2)	  x2:0x80008048 x19=0x00000000 PA:0x80008058
        2915000	       290	800045f4	00004117	auipc	x2,0x4	  x2=0x800085f0
        2925000	       291	800045f8	d7210113	addi	x2,x2,-654	  x2:0x800085f0  x2=0x80008362
        2935000	       292	800045fc	fe6ab717	auipc	x14,0xfe6ab	 x14=0x7e6af5f8
        2945000	       293	80004600	03010423	sb	x16,40(x2)	  x2:0x80008362 x16:0x6f11d000 PA:0x8000838a
        2955000	       294	80004604	00e668b3	or	x17,x12,x14	 x12:0x00000620 x14:0x7e6af5f8 x17=0x7e6af7f8
        2965000	       295	80004608	41e85d93	srai	x27,x16,0x1e	 x16:0x6f11d000 x27=0x00000001
        2975000	       296	8000460c	fd110783	lb	x15,-47(x2)	  x2:0x80008362 x15=0x00000000 PA:0x80008333
        2985000	       297	00000000	00000013	addi	x0,x0,0	  x0:0x00000000
        2995000	       298	80004610	0197cb33	xor	x22,x15,x25	 x15:0x00000000 x25:0x08eb5255 x22=0x08eb5255
        3005000	       299	80004614	fc210623	sb	x2,-52(x2)	  x2:0x80008362  x2:0x80008362 PA:0x8000832e
        3015000	       300	80004618	ffe11483	lh	x9,-2(x2)	  x2:0x80008362  x9=0x00000000 PA:0x80008360
        3025000	       301	8000461c	00510da3	sb	x5,27(x2)	  x2:0x80008362  x5:0x00000001 PA:0x8000837d
        3035000	       302	80004620	83cdcb13	xori	x22,x27,-1988	 x27:0x00000001 x22=0xfffff83d
        3045000	       303	80004624	ffd14f03	lbu	x30,-3(x2)	  x2:0x80008362 x30=0x00000000 PA:0x8000835f
        3055000	       304	80004628	4097d633	sra	x12,x15,x9	 x15:0x00000000  x9:0x00000000 x12=0x00000000
        3065000	       305	8000462c	01b45c13	srli	x24,x8,0x1b	  x8:0x00000001 x24=0x00000000
        3075000	       306	80004630	d6c9c097	auipc	x1,0xd6c9c	  x1=0x56ca062c
        3085000	       307	80004634	00000013	addi	x0,x0,0	  x0:0x00000000
        3095000	       308	80004638	00114703	lbu	x14,1(x2)	  x2:0x80008362 x14=0x00000000 PA:0x80008363
        3105000	       309	8000463c	03a12f23	sw	x26,62(x2)	  x2:0x80008362 x26:0x0579b5d8 PA:0x800083a0
        3115000	       310	80004640	00212b03	lw	x22,2(x2)	  x2:0x80008362 x22=0x22000000 PA:0x80008364
        3125000	       311	80004644	00561a13	slli	x20,x12,0x5	 x12:0x00000000 x20=0x00000000
        3135000	       312	80004648	01d14083	lbu	x1,29(x2)	  x2:0x80008362  x1=0x00000000 PA:0x8000837f
        3145000	       313	8000464c	41410033	sub	x0,x2,x20	  x2:0x80008362 x20:0x00000000
        3155000	       314	80004650	00c65693	srli	x13,x12,0xc	 x12:0x00000000 x13=0x00000000
        3165000	       315	80004654	019ce8b3	or	x17,x25,x25	 x25:0x08eb5255 x25:0x08eb5255 x17=0x08eb5255
        3175000	       316	80004658	02310c83	lb	x25,35(x2)	  x2:0x80008362 x25=0x00000000 PA:0x80008385
        3185000	       317	8000465c	00512f23	sw	x5,30(x2)	  x2:0x80008362  x5:0x00000001 PA:0x80008380
        3195000	       318	80004660	bce40013	addi	x0,x8,-1074	  x8:0x00000001
        3205000	       319	80004664	00405513	srli	x10,x0,0x4	  x0:0x00000000 x10=0x00000000
        3215000	       320	80004668	011aa333	slt	x6,x21,x17	 x21:0x80007f5f x17:0x08eb5255  x6=0x00000001
        3225000	       321	8000466c	01510ba3	sb	x21,23(x2)	  x2:0x80008362 x21:0x80007f5f PA:0x80008379
        3235000	       322	80004670	fc010503	lb	x10,-64(x2)	  x2:0x80008362 x10=0x00000000 PA:0x80008322
        3245000	       323	80004674	01dcedb3	or	x27,x25,x29	 x25:0x00000000 x29:0x475a92a9 x27=0x475a92a9
        3255000	       324	80004678	01f10da3	sb	x31,27(x2)	  x2:0x80008362 x31:0x0926a5e4 PA:0x8000837d
        3265000	       325	8000467c	003105a3	sb	x3,11(x2)	  x2:0x80008362  x3:0x85792af0 PA:0x8000836d
        3275000	       326	80004680	41dbdf13	srai	x30,x23,0x1d	 x23:0x00100013 x30=0x00000000
        3285000	       327	80004684	03414c83	lbu	x25,52(x2)	  x2:0x80008362 x25=0x00000000 PA:0x80008396
        3295000	       328	80004688	fca10f03	lb	x30,-54(x2)	  x2:0x80008362 x30=0x00000000 PA:0x8000832c
        3305000	       329	8000468c	00004317	auipc	x6,0x4	  x6=0x80008688
        3315000	       330	80004690	be630313	addi	x6,x6,-1050	  x6:0x80008688  x6=0x8000826e
        3325000	       331	80004694	e2f303a3	sb	x15,-473(x6)	  x6:0x8000826e x15:0x00000000 PA:0x80008095
        3335000	       332	80004698	007630b3	sltu	x1,x12,x7	 x12:0x00000000  x7:0x80009f28  x1=0x00000001
        3345000	       333	8000469c	4107d093	srai	x1,x15,0x10	 x15:0x00000000  x1=0x00000000
        3355000	       334	800046a0	0da35803	lhu	x16,218(x6)	  x6:0x8000826e x16=0x00000000 PA:0x80008348
        3365000	       335	800046a4	016311b3	sll	x3,x6,x22	  x6:0x8000826e x22:0x22000000  x3=0x8000826e
        3375000	       336	800046a8	009cacb3	slt	x25,x25,x9	 x25:0x00000000  x9:0x00000000 x25=0x00000000
        3385000	       337	800046ac	00000013	addi	x0,x0,0	  x0:0x00000000
        3395000	       338	800046b0	21231d83	lh	x27,530(x6)	  x6:0x8000826e x27=0x00000000 PA:0x80008480
        3405000	       339	800046b4	e9a31223	sh	x26,-380(x6)	  x6:0x8000826e x26:0x0579b5d8 PA:0x800080f2
        3415000	       340	800046b8	f4930483	lb	x9,-183(x6)	  x6:0x8000826e  x9=0x00000000 PA:0x800081b7
        3425000	       341	800046bc	15c31983	lh	x19,348(x6)	  x6:0x8000826e x19=0x00000000 PA:0x800083ca
        3435000	       342	800046c0	40f55513	srai	x10,x10,0xf	 x10:0x00000000 x10=0x00000000
        3445000	       343	800046c4	017e9cb3	sll	x25,x29,x23	 x29:0x475a92a9 x23:0x00100013 x25=0x95480000
        3455000	       344	800046c8	0036f1b3	and	x3,x13,x3	 x13:0x00000000  x3:0x8000826e  x3=0x00000000
        3465000	       345	800046cc	e1c31983	lh	x19,-484(x6)	  x6:0x8000826e x19=0x00000000 PA:0x8000808a
        3475000	       346	800046d0	005b39b3	sltu	x19,x22,x5	 x22:0x22000000  x5:0x00000001 x19=0x00000000
        3485000	       347	800046d4	c8c9cf93	xori	x31,x19,-884	 x19:0x00000000 x31=0xfffffc8c
        3495000	       348	800046d8	51130d03	lb	x26,1297(x6)	  x6:0x8000826e x26=0x00000000 PA:0x8000877f
        3505000	       349	800046dc	41985893	srai	x17,x16,0x19	 x16:0x00000000 x17=0x00000000
        3515000	       350	800046e0	53631023	sh	x22,1312(x6)	  x6:0x8000826e x22:0x22000000 PA:0x8000878e
        3525000	       351	800046e4	01b61c33	sll	x24,x12,x27	 x12:0x00000000 x27:0x00000000 x24=0x00000000
        3535000	       352	800046e8	01b30ea3	sb	x27,29(x6)	  x6:0x8000826e x27:0x00000000 PA:0x8000828b
        3545000	       353	800046ec	00ea18b3	sll	x17,x20,x14	 x20:0x00000000 x14:0x00000000 x17=0x00000000
        3555000	       354	800046f0	016bfd33	and	x26,x23,x22	 x23:0x00100013 x22:0x22000000 x26=0x00000000
        3565000	       355	800046f4	016c8b33	add	x22,x25,x22	 x25:0x95480000 x22:0x22000000 x22=0xb7480000
        3575000	       356	800046f8	0070da93	srli	x21,x1,0x7	  x1:0x00000000 x21=0x00000000
        3585000	       357	800046fc	2d835b83	lhu	x23,728(x6)	  x6:0x8000826e x23=0x00000000 PA:0x80008546
        3595000	       358	80004700	87e7ca13	xori	x20,x15,-1922	 x15:0x00000000 x20=0xfffff87e
        3605000	       359	80004704	e2d30423	sb	x13,-472(x6)	  x6:0x8000826e x13:0x00000000 PA:0x80008096
        3615000	       360	80004708	0143f133	and	x2,x7,x20	  x7:0x80009f28 x20:0xfffff87e  x2=0x80009828
        3625000	       361	8000470c	45be0b13	addi	x22,x28,1115	 x28:0x80009fc4 x22=0x8000a41f
        3635000	       362	80004710	0000e1b3	or	x3,x1,x0	  x1:0x00000000  x0:0x00000000  x3=0x00000000
        3645000	       363	80004714	4bc31983	lh	x19,1212(x6)	  x6:0x8000826e x19=0x00000000 PA:0x8000872a
        3655000	       364	80004718	410b5ab3	sra	x21,x22,x16	 x22:0x8000a41f x16:0x00000000 x21=0x8000a41f
        3665000	       365	8000471c	00a61bb3	sll	x23,x12,x10	 x12:0x00000000 x10:0x00000000 x23=0x00000000
        3675000	       366	80004720	eb134e83	lbu	x29,-335(x6)	  x6:0x8000826e x29=0x00000000 PA:0x8000811f
        3685000	       367	80004724	3f9ae413	ori	x8,x21,1017	 x21:0x8000a41f  x8=0x8000a7ff
        3695000	       368	80004728	40ebdf33	sra	x30,x23,x14	 x23:0x00000000 x14:0x00000000 x30=0x00000000
        3705000	       369	8000472c	017d9513	slli	x10,x27,0x17	 x27:0x00000000 x10=0x00000000
        3715000	       370	80004730	00c1d113	srli	x2,x3,0xc	  x3:0x00000000  x2=0x00000000
        3725000	       371	80004734	d6612a93	slti	x21,x2,-666	  x2:0x00000000 x21=0x00000000
        3735000	       372	80004738	179305a3	sb	x25,363(x6)	  x6:0x8000826e x25:0x95480000 PA:0x800083d9
        3745000	       373	8000473c	011f4a33	xor	x20,x30,x17	 x30:0x00000000 x17:0x00000000 x20=0x00000000
        3755000	       374	80004740	02ad3293	sltiu	x5,x26,42	 x26:0x00000000  x5=0x00000001
        3765000	       375	80004744	e1793497	auipc	x9,0xe1793	  x9=0x61797740
        3775000	       376	80004748	0e25f513	andi	x10,x11,226	 x11:0x80007f60 x10=0x00000060
        3785000	       377	8000474c	05811863	bne	x2,x24,8000479c	  x2:0x00000000 x24:0x00000000
        3795000	       378	80004750	03fc1063	bne	x24,x31,80004770	 x24:0x00000000 x31:0xfffffc8c
        3805000	       379	00000000	00000013	addi	x0,x0,0	  x0:0x00000000
        3815000	       380	8000476c	00000013	addi	x0,x0,0	  x0:0x00000000
        3825000	       381	80004770	6a56acb7	lui	x25,0x6a56a	 x25=0x6a56a000
        3835000	       382	80004774	0059d233	srl	x4,x19,x5	 x19:0x00000000  x5:0x00000001  x4=0x00000000
        3845000	       383	80004778	fcdb6897	auipc	x17,0xfcdb6	 x17=0x7cdba774
        3855000	       384	8000477c	00815013	srli	x0,x2,0x8	  x2:0x00000000
        3865000	       385	80004780	08a4d8b7	lui	x17,0x8a4d	 x17=0x08a4d000
        3875000	       386	80004784	01654533	xor	x10,x10,x22	 x10:0x00000060 x22:0x8000a41f x10=0x8000a47f
        3885000	       387	80004788	05234263	blt	x6,x18,800047cc	  x6:0x8000826e x18:0x475a92a9
        3895000	       388	00000000	00000013	addi	x0,x0,0	  x0:0x00000000
        3905000	       389	800047c8	00000013	addi	x0,x0,0	  x0:0x00000000
        3915000	       390	800047cc	0169d9b3	srl	x19,x19,x22	 x19:0x00000000 x22:0x8000a41f x19=0x00000000
        3925000	       391	800047d0	03326263	bltu	x4,x19,800047f4	  x4:0x00000000 x19:0x00000000
        3935000	       392	800047d4	01605233	srl	x4,x0,x22	  x0:0x00000000 x22:0x8000a41f  x4=0x00000000
        3945000	       393	800047d8	013f6a33	or	x20,x30,x19	 x30:0x00000000 x19:0x00000000 x20=0x00000000
        3955000	       394	800047dc	002f8533	add	x10,x31,x2	 x31:0xfffffc8c  x2:0x00000000 x10=0xfffffc8c
        3965000	       395	800047e0	0271ea63	bltu	x3,x7,80004814	  x3:0x00000000  x7:0x80009f28
        3975000	       396	00000000	00000013	addi	x0,x0,0	  x0:0x00000000
        3985000	       397	80004810	00000013	addi	x0,x0,0	  x0:0x00000000
        3995000	       398	80004814	7b55a117	auipc	x2,0x7b55a	  x2=0xfb55e810
        4005000	       399	80004818	00daebb3	or	x23,x21,x13	 x21:0x00000000 x13:0x00000000 x23=0x00000000
        4015000	       400	8000481c	01fd39b3	sltu	x19,x26,x31	 x26:0x00000000 x31:0xfffffc8c x19=0x00000001
        4025000	       401	80004820	0054cd33	xor	x26,x9,x5	  x9:0x61797740  x5:0x00000001 x26=0x61797741
        4035000	       402	80004824	00000013	addi	x0,x0,0	  x0:0x00000000
        4045000	       403	80004828	4136d293	srai	x5,x13,0x13	 x13:0x00000000  x5=0x00000000
        4055000	       404	8000482c	0537c063	blt	x15,x19,8000486c	 x15:0x00000000 x19:0x00000001
        4065000	       405	00000000	00000013	addi	x0,x0,0	  x0:0x00000000
        4075000	       406	80004868	00000013	addi	x0,x0,0	  x0:0x00000000
        4085000	       407	8000486c	00311d33	sll	x26,x2,x3	  x2:0xfb55e810  x3:0x00000000 x26=0xfb55e810
        4095000	       408	80004870	a6f0c313	xori	x6,x1,-1425	  x1:0x00000000  x6=0xfffffa6f
        4105000	       409	80004874	553efc13	andi	x24,x29,1363	 x29:0x00000000 x24=0x00000000
        4115000	       410	80004878	40425613	srai	x12,x4,0x4	  x4:0x00000000 x12=0x00000000
        4125000	       411	8000487c	41c45c93	srai	x25,x8,0x1c	  x8:0x8000a7ff x25=0xfffffff8
        4135000	       412	80004880	027bd263	bge	x23,x7,800048a4	 x23:0x00000000  x7:0x80009f28
        4145000	       413	00000000	00000013	addi	x0,x0,0	  x0:0x00000000
        4155000	       414	800048a0	00000013	addi	x0,x0,0	  x0:0x00000000
        4165000	       415	800048a4	000c7233	and	x4,x24,x0	 x24:0x00000000  x0:0x00000000  x4=0x00000000
        4175000	       416	800048a8	006e6a63	bltu	x28,x6,800048bc	 x28:0x80009fc4  x6:0xfffffa6f
        4185000	       417	00000000	00000013	addi	x0,x0,0	  x0:0x00000000
        4195000	       418	800048b8	00000013	addi	x0,x0,0	  x0:0x00000000
        4205000	       419	800048bc	7d25a993	slti	x19,x11,2002	 x11:0x80007f60 x19=0x00000001
        4215000	       420	800048c0	00cf5213	srli	x4,x30,0xc	 x30:0x00000000  x4=0x00000000
        4225000	       421	800048c4	01321a13	slli	x20,x4,0x13	  x4:0x00000000 x20=0x00000000
        4235000	       422	800048c8	00c76db3	or	x27,x14,x12	 x14:0x00000000 x12:0x00000000 x27=0x00000000
        4245000	       423	800048cc	0063db13	srli	x22,x7,0x6	  x7:0x80009f28 x22=0x0200027c
        4255000	       424	800048d0	0507d863	bge	x15,x16,80004920	 x15:0x00000000 x16:0x00000000
        4265000	       425	00000000	00000013	addi	x0,x0,0	  x0:0x00000000
        4275000	       426	8000491c	00000013	addi	x0,x0,0	  x0:0x00000000
        4285000	       427	80004920	04b07863	bgeu	x0,x11,80004970	  x0:0x00000000 x11:0x80007f60
        4295000	       428	80004924	d699e513	ori	x10,x19,-663	 x19:0x00000001 x10=0xfffffd69
        4305000	       429	80004928	e086c793	xori	x15,x13,-504	 x13:0x00000000 x15=0xfffffe08
        4315000	       430	8000492c	009f9c63	bne	x31,x9,80004944	 x31:0xfffffc8c  x9:0x61797740
        4325000	       431	00000000	00000013	addi	x0,x0,0	  x0:0x00000000
        4335000	       432	80004940	00000013	addi	x0,x0,0	  x0:0x00000000
        4345000	       433	80004944	0b952813	slti	x16,x10,185	 x10:0xfffffd69 x16=0x00000001
        4355000	       434	80004948	011f14b3	sll	x9,x30,x17	 x30:0x00000000 x17:0x08a4d000  x9=0x00000000
        4365000	       435	8000494c	202fef93	ori	x31,x31,514	 x31:0xfffffc8c x31=0xfffffe8e
        4375000	       436	80004950	006122b3	slt	x5,x2,x6	  x2:0xfb55e810  x6:0xfffffa6f  x5=0x00000001
        4385000	       437	80004954	005e5493	srli	x9,x28,0x5	 x28:0x80009fc4  x9=0x040004fe
        4395000	       438	80004958	00d94b33	xor	x22,x18,x13	 x18:0x475a92a9 x13:0x00000000 x22=0x475a92a9
        4405000	       439	8000495c	02fb6063	bltu	x22,x15,8000497c	 x22:0x475a92a9 x15:0xfffffe08
        4415000	       440	00000000	00000013	addi	x0,x0,0	  x0:0x00000000
        4425000	       441	80004978	00000013	addi	x0,x0,0	  x0:0x00000000
        4435000	       442	8000497c	023b4263	blt	x22,x3,800049a0	 x22:0x475a92a9  x3:0x00000000
        4445000	       443	80004980	0053b2b3	sltu	x5,x7,x5	  x7:0x80009f28  x5:0x00000001  x5=0x00000000
        4455000	       444	80004984	3b468893	addi	x17,x13,948	 x13:0x00000000 x17=0x000003b4
        4465000	       445	80004988	0081df13	srli	x30,x3,0x8	  x3:0x00000000 x30=0x00000000
        4475000	       446	8000498c	00fc5993	srli	x19,x24,0xf	 x24:0x00000000 x19=0x00000000
        4485000	       447	80004990	f0a16e93	ori	x29,x2,-246	  x2:0xfb55e810 x29=0xffffff1a
        4495000	       448	80004994	00f43d33	sltu	x26,x8,x15	  x8:0x8000a7ff x15:0xfffffe08 x26=0x00000001
        4505000	       449	80004998	016ee7b3	or	x15,x29,x22	 x29:0xffffff1a x22:0x475a92a9 x15=0xffffffbb
        4515000	       450	8000499c	ca360993	addi	x19,x12,-861	 x12:0x00000000 x19=0xfffffca3
        4525000	       451	800049a0	10427293	andi	x5,x4,260	  x4:0x00000000  x5=0x00000000
        4535000	       452	800049a4	009c8633	add	x12,x25,x9	 x25:0xfffffff8  x9:0x040004fe x12=0x040004f6
        4545000	       453	800049a8	414f8f33	sub	x30,x31,x20	 x31:0xfffffe8e x20:0x00000000 x30=0xfffffe8e
        4555000	       454	800049ac	413456b3	sra	x13,x8,x19	  x8:0x8000a7ff x19:0xfffffca3 x13=0xf00014ff
        4565000	       455	800049b0	01490663	beq	x18,x20,800049bc	 x18:0x475a92a9 x20:0x00000000
        4575000	       456	800049b4	00a75113	srli	x2,x14,0xa	 x14:0x00000000  x2=0x00000000
        4585000	       457	800049b8	f764b713	sltiu	x14,x9,-138	  x9:0x040004fe x14=0x00000001
        4595000	       458	800049bc	0092de63	bge	x5,x9,800049d8	  x5:0x00000000  x9:0x040004fe
        4605000	       459	800049c0	01379f93	slli	x31,x15,0x13	 x15:0xffffffbb x31=0xfdd80000
        4615000	       460	800049c4	0057f033	and	x0,x15,x5	 x15:0xffffffbb  x5:0x00000000
        4625000	       461	800049c8	02e8fa63	bgeu	x17,x14,800049fc	 x17:0x000003b4 x14:0x00000001
        4635000	       462	00000000	00000013	addi	x0,x0,0	  x0:0x00000000
        4645000	       463	800049f8	00000013	addi	x0,x0,0	  x0:0x00000000
        4655000	       464	800049fc	3f280313	addi	x6,x16,1010	 x16:0x00000001  x6=0x000003f3
        4665000	       465	80004a00	00004b17	auipc	x22,0x4	 x22=0x800089fc
        4675000	       466	80004a04	20bb0b13	addi	x22,x22,523	 x22:0x800089fc x22=0x80008c07
        4685000	       467	80004a08	00ab0f03	lb	x30,10(x22)	 x22:0x80008c07 x30=0x00000000 PA:0x80008c11
        4695000	       468	80004a0c	ff0b4d83	lbu	x27,-16(x22)	 x22:0x80008c07 x27=0x00000000 PA:0x80008bf7
        4705000	       469	80004a10	007b4883	lbu	x17,7(x22)	 x22:0x80008c07 x17=0x00000000 PA:0x80008c0e
        4715000	       470	80004a14	0421a437	lui	x8,0x421a	  x8=0x0421a000
        4725000	       471	80004a18	008b4f83	lbu	x31,8(x22)	 x22:0x80008c07 x31=0x00000000 PA:0x80008c0f
        4735000	       472	80004a1c	ff7b0e23	sb	x23,-4(x22)	 x22:0x80008c07 x23:0x00000000 PA:0x80008c03
        4745000	       473	80004a20	00000013	addi	x0,x0,0	  x0:0x00000000
        4755000	       474	80004a24	ee542493	slti	x9,x8,-283	  x8:0x0421a000  x9=0x00000000
        4765000	       475	80004a28	41515313	srai	x6,x2,0x15	  x2:0x00000000  x6=0x00000000
        4775000	       476	80004a2c	ff8b4883	lbu	x17,-8(x22)	 x22:0x80008c07 x17=0x00000000 PA:0x80008bff
        4785000	       477	80004a30	00db0603	lb	x12,13(x22)	 x22:0x80008c07 x12=0x00000000 PA:0x80008c14
        4795000	       478	80004a34	014b0423	sb	x20,8(x22)	 x22:0x80008c07 x20:0x00000000 PA:0x80008c0f
        4805000	       479	80004a38	00a601b3	add	x3,x12,x10	 x12:0x00000000 x10:0xfffffd69  x3=0xfffffd69
        4815000	       480	80004a3c	0099b533	sltu	x10,x19,x9	 x19:0xfffffca3  x9:0x00000000 x10=0x00000000
        4825000	       481	80004a40	011b12a3	sh	x17,5(x22)	 x22:0x80008c07 x17:0x00000000 PA:0x80008c0c
        4835000	       482	80004a44	db1dff13	andi	x30,x27,-591	 x27:0x00000000 x30=0x00000000
        4845000	       483	80004a48	01e5d733	srl	x14,x11,x30	 x11:0x80007f60 x30:0x00000000 x14=0x80007f60
        4855000	       484	80004a4c	01b76a33	or	x20,x14,x27	 x14:0x80007f60 x27:0x00000000 x20=0x80007f60
        4865000	       485	80004a50	017ed533	srl	x10,x29,x23	 x29:0xffffff1a x23:0x00000000 x10=0xffffff1a
        4875000	       486	80004a54	01652833	slt	x16,x10,x22	 x10:0xffffff1a x22:0x80008c07 x16=0x00000000
        4885000	       487	80004a58	010b4203	lbu	x4,16(x22)	 x22:0x80008c07  x4=0x00000000 PA:0x80008c17
        4895000	       488	80004a5c	01f5b233	sltu	x4,x11,x31	 x11:0x80007f60 x31:0x00000000  x4=0x00000000
        4905000	       489	80004a60	00db26a3	sw	x13,13(x22)	 x22:0x80008c07 x13:0xf00014ff PA:0x80008c14
        4915000	       490	80004a64	00000013	addi	x0,x0,0	  x0:0x00000000
        4925000	       491	80004a68	ff5b1403	lh	x8,-11(x22)	 x22:0x80008c07  x8=0x00000000 PA:0x80008bfc
        4935000	       492	80004a6c	404a5f93	srai	x31,x20,0x4	 x20:0x80007f60 x31=0xf80007f6
        4945000	       493	80004a70	407a5b93	srai	x23,x20,0x7	 x20:0x80007f60 x23=0xff0000fe
        4955000	       494	80004a74	4044dcb3	sra	x25,x9,x4	  x9:0x00000000  x4:0x00000000 x25=0x00000000
        4965000	       495	80004a78	00b6d263	bge	x13,x11,80004a7c	 x13:0xf00014ff x11:0x80007f60
        4975000	       496	00000000	00000013	addi	x0,x0,0	  x0:0x00000000
        4985000	       497	80004a78	00000013	addi	x0,x0,0	  x0:0x00000000
        4995000	       498	80004a7c	7d604a37	lui	x20,0x7d604	 x20=0x7d604000
        5005000	       499	80004a80	05ccd663	bge	x25,x28,80004acc	 x25:0x00000000 x28:0x80009fc4
        5015000	       500	00000000	00000013	addi	x0,x0,0	  x0:0x00000000
        5025000	       501	80004ac8	00000013	addi	x0,x0,0	  x0:0x00000000
        5035000	       502	80004acc	04cdd263	bge	x27,x12,80004b10	 x27:0x00000000 x12:0x00000000
        5045000	       503	00000000	00000013	addi	x0,x0,0	  x0:0x00000000
        5055000	       504	80004b0c	00000013	addi	x0,x0,0	  x0:0x00000000
        5065000	       505	80004b10	41cc87b3	sub	x15,x25,x28	 x25:0x00000000 x28:0x80009fc4 x15=0x7fff603c
        5075000	       506	80004b14	02ed8263	beq	x27,x14,80004b38	 x27:0x00000000 x14:0x80007f60
        5085000	       507	80004b18	00ab2333	slt	x6,x22,x10	 x22:0x80008c07 x10:0xffffff1a  x6=0x00000001
        5095000	       508	80004b1c	40960033	sub	x0,x12,x9	 x12:0x00000000  x9:0x00000000
        5105000	       509	80004b20	00371d33	sll	x26,x14,x3	 x14:0x80007f60  x3:0xfffffd69 x26=0x00fec000
        5115000	       510	80004b24	04104263	blt	x0,x1,80004b68	  x0:0x00000000  x1:0x00000000
        5125000	       511	80004b28	0076adb3	slt	x27,x13,x7	 x13:0xf00014ff  x7:0x80009f28 x27=0x00000000
        5135000	       512	80004b2c	00b29a13	slli	x20,x5,0xb	  x5:0x00000000 x20=0x00000000
        5145000	       513	80004b30	001c99b3	sll	x19,x25,x1	 x25:0x00000000  x1:0x00000000 x19=0x00000000
        5155000	       514	80004b34	018fe2b3	or	x5,x31,x24	 x31:0xf80007f6 x24:0x00000000  x5=0xf80007f6
        5165000	       515	80004b38	01bc8db3	add	x27,x25,x27	 x25:0x00000000 x27:0x00000000 x27=0x00000000
        5175000	       516	80004b3c	9e97a693	slti	x13,x15,-1559	 x15:0x7fff603c x13=0x00000000
        5185000	       517	80004b40	41a15a13	srai	x20,x2,0x1a	  x2:0x00000000 x20=0x00000000
        5195000	       518	80004b44	00729093	slli	x1,x5,0x7	  x5:0xf80007f6  x1=0x0003fb00
        5205000	       519	80004b48	00000013	addi	x0,x0,0	  x0:0x00000000
        5215000	       520	80004b4c	00c75fb3	srl	x31,x14,x12	 x14:0x80007f60 x12:0x00000000 x31=0x80007f60
        5225000	       521	80004b50	00000013	addi	x0,x0,0	  x0:0x00000000
        5235000	       522	80004b54	05a7f463	bgeu	x15,x26,80004b9c	 x15:0x7fff603c x26:0x00fec000
        5245000	       523	00000000	00000013	addi	x0,x0,0	  x0:0x00000000
        5255000	       524	80004b98	00000013	addi	x0,x0,0	  x0:0x00000000
        5265000	       525	80004b9c	57ddfe97	auipc	x29,0x57ddf	 x29=0xd7de3b98
        5275000	       526	80004ba0	000a1c63	bne	x20,x0,80004bb8	 x20:0x00000000  x0:0x00000000
        5285000	       527	80004ba4	026d5263	bge	x26,x6,80004bc8	 x26:0x00fec000  x6:0x00000001
        5295000	       528	00000000	00000013	addi	x0,x0,0	  x0:0x00000000
        5305000	       529	80004bc4	00000013	addi	x0,x0,0	  x0:0x00000000
        5315000	       530	80004bc8	01ea9893	slli	x17,x21,0x1e	 x21:0x00000000 x17=0x00000000
        5325000	       531	80004bcc	9c3a0a13	addi	x20,x20,-1597	 x20:0x00000000 x20=0xfffff9c3
        5335000	       532	80004bd0	00951fb3	sll	x31,x10,x9	 x10:0xffffff1a  x9:0x00000000 x31=0xffffff1a
        5345000	       533	80004bd4	05470663	beq	x14,x20,80004c20	 x14:0x80007f60 x20:0xfffff9c3
        5355000	       534	80004bd8	0165f033	and	x0,x11,x22	 x11:0x80007f60 x22:0x80008c07
        5365000	       535	80004bdc	00000013	addi	x0,x0,0	  x0:0x00000000
        5375000	       536	80004be0	41c75893	srai	x17,x14,0x1c	 x14:0x80007f60 x17=0xfffffff8
        5385000	       537	80004be4	0112f263	bgeu	x5,x17,80004be8	  x5:0xf80007f6 x17:0xfffffff8
        5395000	       538	80004be8	4048d713	srai	x14,x17,0x4	 x17:0xfffffff8 x14=0xffffffff
        5405000	       539	80004bec	d517cd13	xori	x26,x15,-687	 x15:0x7fff603c x26=0x80009d6d
        5415000	       540	80004bf0	00b821b3	slt	x3,x16,x11	 x16:0x00000000 x11:0x80007f60  x3=0x00000000
        5425000	       541	80004bf4	01cd69b3	or	x19,x26,x28	 x26:0x80009d6d x28:0x80009fc4 x19=0x80009fed
        5435000	       542	80004bf8	01b8e633	or	x12,x17,x27	 x17:0xfffffff8 x27:0x00000000 x12=0xfffffff8
        5445000	       543	80004bfc	05df4863	blt	x30,x29,80004c4c	 x30:0x00000000 x29:0xd7de3b98
        5455000	       544	80004c00	9befa693	slti	x13,x31,-1602	 x31:0xffffff1a x13=0x00000000
        5465000	       545	80004c04	01dbd033	srl	x0,x23,x29	 x23:0xff0000fe x29:0xd7de3b98
        5475000	       546	80004c08	01a31d13	slli	x26,x6,0x1a	  x6:0x00000001 x26=0x04000000
        5485000	       547	80004c0c	015fcc33	xor	x24,x31,x21	 x31:0xffffff1a x21:0x00000000 x24=0xffffff1a
        5495000	       548	80004c10	95164613	xori	x12,x12,-1711	 x12:0xfffffff8 x12=0x000006a9
        5505000	       549	80004c14	418a8db3	sub	x27,x21,x24	 x21:0x00000000 x24:0xffffff1a x27=0x000000e6
        5515000	       550	80004c18	01c876b3	and	x13,x16,x28	 x16:0x00000000 x28:0x80009fc4 x13=0x00000000
        5525000	       551	80004c1c	04114063	blt	x2,x1,80004c5c	  x2:0x00000000  x1:0x0003fb00
        5535000	       552	00000000	00000013	addi	x0,x0,0	  x0:0x00000000
        5545000	       553	80004c58	00000013	addi	x0,x0,0	  x0:0x00000000
        5555000	       554	80004c5c	81d9c513	xori	x10,x19,-2019	 x19:0x80009fed x10=0x7fff67f0
        5565000	       555	80004c60	22e13593	sltiu	x11,x2,558	  x2:0x00000000 x11=0x00000001
        5575000	       556	80004c64	dc780a97	auipc	x21,0xdc780	 x21=0x5c784c60
        5585000	       557	80004c68	01bd3db3	sltu	x27,x26,x27	 x26:0x04000000 x27:0x000000e6 x27=0x00000000
        5595000	       558	80004c6c	40f1d233	sra	x4,x3,x15	  x3:0x00000000 x15:0x7fff603c  x4=0x00000000
        5605000	       559	80004c70	0157dd13	srli	x26,x15,0x15	 x15:0x7fff603c x26=0x000003ff
        5615000	       560	80004c74	417657b3	sra	x15,x12,x23	 x12:0x000006a9 x23:0xff0000fe x15=0x00000000
        5625000	       561	80004c78	4127d093	srai	x1,x15,0x12	 x15:0x00000000  x1=0x00000000
        5635000	       562	80004c7c	01044663	blt	x8,x16,80004c88	  x8:0x00000000 x16:0x00000000
        5645000	       563	80004c80	80640513	addi	x10,x8,-2042	  x8:0x00000000 x10=0xfffff806
        5655000	       564	80004c84	013ee2b3	or	x5,x29,x19	 x29:0xd7de3b98 x19:0x80009fed  x5=0xd7debffd
        5665000	       565	80004c88	00367ab3	and	x21,x12,x3	 x12:0x000006a9  x3:0x00000000 x21=0x00000000
        5675000	       566	80004c8c	5c53fc17	auipc	x24,0x5c53f	 x24=0xdc543c88
        5685000	       567	80004c90	03f19463	bne	x3,x31,80004cb8	  x3:0x00000000 x31:0xffffff1a
        5695000	       568	00000000	00000013	addi	x0,x0,0	  x0:0x00000000
        5705000	       569	80004cb4	00000013	addi	x0,x0,0	  x0:0x00000000
        5715000	       570	80004cb8	009b4a63	blt	x22,x9,80004ccc	 x22:0x80008c07  x9:0x00000000
        5725000	       571	00000000	00000013	addi	x0,x0,0	  x0:0x00000000
        5735000	       572	80004cc8	00000013	addi	x0,x0,0	  x0:0x00000000
        5745000	       573	80004ccc	00000013	addi	x0,x0,0	  x0:0x00000000
        5755000	       574	80004cd0	a65336b7	lui	x13,0xa6533	 x13=0xa6533000
        5765000	       575	80004cd4	009aec63	bltu	x21,x9,80004cec	 x21:0x00000000  x9:0x00000000
        5775000	       576	80004cd8	00ef09b3	add	x19,x30,x14	 x30:0x00000000 x14:0xffffffff x19=0xffffffff
        5785000	       577	80004cdc	00e0e9b3	or	x19,x1,x14	  x1:0x00000000 x14:0xffffffff x19=0xffffffff
        5795000	       578	80004ce0	008930b3	sltu	x1,x18,x8	 x18:0x475a92a9  x8:0x00000000  x1=0x00000000
        5805000	       579	80004ce4	00000013	addi	x0,x0,0	  x0:0x00000000
        5815000	       580	80004ce8	0b315c63	bge	x2,x19,80004da0	  x2:0x00000000 x19:0xffffffff
        5825000	       581	00000000	00000013	addi	x0,x0,0	  x0:0x00000000
        5835000	       582	80004d9c	00000013	addi	x0,x0,0	  x0:0x00000000
        5845000	       583	80004da0	e5814617	auipc	x12,0xe5814	 x12=0x65818d9c
        5855000	       584	80004da4	2aa4f493	andi	x9,x9,682	  x9:0x00000000  x9=0x00000000
        5865000	       585	80004da8	018fb433	sltu	x8,x31,x24	 x31:0xffffff1a x24:0xdc543c88  x8=0x00000000
        5875000	       586	80004dac	9bf72513	slti	x10,x14,-1601	 x14:0xffffffff x10=0x00000000
        5885000	       587	80004db0	02407263	bgeu	x0,x4,80004dd4	  x0:0x00000000  x4:0x00000000
        5895000	       588	00000000	00000013	addi	x0,x0,0	  x0:0x00000000
        5905000	       589	80004dd0	00000013	addi	x0,x0,0	  x0:0x00000000
        5915000	       590	80004dd4	40db5f33	sra	x30,x22,x13	 x22:0x80008c07 x13:0xa6533000 x30=0x80008c07
        5925000	       591	80004dd8	01aee133	or	x2,x29,x26	 x29:0xd7de3b98 x26:0x000003ff  x2=0xd7de3bff
        5935000	       592	80004ddc	02b34263	blt	x6,x11,80004e00	  x6:0x00000001 x11:0x00000001
        5945000	       593	80004de0	00161f33	sll	x30,x12,x1	 x12:0x65818d9c  x1:0x00000000 x30=0x65818d9c
        5955000	       594	80004de4	00b8a133	slt	x2,x17,x11	 x17:0xfffffff8 x11:0x00000001  x2=0x00000001
        5965000	       595	80004de8	f8d387b7	lui	x15,0xf8d38	 x15=0xf8d38000
        5975000	       596	80004dec	002d0033	add	x0,x26,x2	 x26:0x000003ff  x2:0x00000001
        5985000	       597	80004df0	015d8263	beq	x27,x21,80004df4	 x27:0x00000000 x21:0x00000000
        5995000	       598	00000000	00000013	addi	x0,x0,0	  x0:0x00000000
        6005000	       599	80004df0	00000013	addi	x0,x0,0	  x0:0x00000000
        6015000	       600	80004df4	00000013	addi	x0,x0,0	  x0:0x00000000
        6025000	       601	80004df8	401ed1b3	sra	x3,x29,x1	 x29:0xd7de3b98  x1:0x00000000  x3=0xd7de3b98
        6035000	       602	80004dfc	010d5263	bge	x26,x16,80004e00	 x26:0x000003ff x16:0x00000000
        6045000	       603	00000000	00000013	addi	x0,x0,0	  x0:0x00000000
        6055000	       604	80004dfc	00000013	addi	x0,x0,0	  x0:0x00000000
        6065000	       605	80004e00	009d0fb3	add	x31,x26,x9	 x26:0x000003ff  x9:0x00000000 x31=0x000003ff
        6075000	       606	80004e04	4094d4b3	sra	x9,x9,x9	  x9:0x00000000  x9:0x00000000  x9=0x00000000
        6085000	       607	80004e08	041bd863	bge	x23,x1,80004e58	 x23:0xff0000fe  x1:0x00000000
        6095000	       608	80004e0c	04085263	bge	x16,x0,80004e50	 x16:0x00000000  x0:0x00000000
        6105000	       609	00000000	00000013	addi	x0,x0,0	  x0:0x00000000
        6115000	       610	80004e4c	00000013	addi	x0,x0,0	  x0:0x00000000
        6125000	       611	80004e50	95780413	addi	x8,x16,-1705	 x16:0x00000000  x8=0xfffff957
        6135000	       612	80004e54	00529c13	slli	x24,x5,0x5	  x5:0xd7debffd x24=0xfbd7ffa0
        6145000	       613	80004e58	26afda97	auipc	x21,0x26afd	 x21=0xa6b01e54
        6155000	       614	80004e5c	014736b3	sltu	x13,x14,x20	 x14:0xffffffff x20:0xfffff9c3 x13=0x00000000
        6165000	       615	80004e60	05abf863	bgeu	x23,x26,80004eb0	 x23:0xff0000fe x26:0x000003ff
        6175000	       616	00000000	00000013	addi	x0,x0,0	  x0:0x00000000
        6185000	       617	80004eac	00000013	addi	x0,x0,0	  x0:0x00000000
        6195000	       618	80004eb0	01534333	xor	x6,x6,x21	  x6:0x00000001 x21:0xa6b01e54  x6=0xa6b01e55
        6205000	       619	80004eb4	9fa34d97	auipc	x27,0x9fa34	 x27=0x1fa38eb0
        6215000	       620	80004eb8	01ebdf33	srl	x30,x23,x30	 x23:0xff0000fe x30:0x65818d9c x30=0x0000000f
        6225000	       621	80004ebc	009cd1b3	srl	x3,x25,x9	 x25:0x00000000  x9:0x00000000  x3=0x00000000
        6235000	       622	80004ec0	53ad6c13	ori	x24,x26,1338	 x26:0x000003ff x24=0x000007ff
        6245000	       623	80004ec4	f3126213	ori	x4,x4,-207	  x4:0x00000000  x4=0xffffff31
        6255000	       624	80004ec8	01c01093	slli	x1,x0,0x1c	  x0:0x00000000  x1=0x00000000
        6265000	       625	80004ecc	0413d663	bge	x7,x1,80004f18	  x7:0x80009f28  x1:0x00000000
        6275000	       626	80004ed0	0242c463	blt	x5,x4,80004ef8	  x5:0xd7debffd  x4:0xffffff31
        6285000	       627	00000000	00000013	addi	x0,x0,0	  x0:0x00000000
        6295000	       628	80004ef4	00000013	addi	x0,x0,0	  x0:0x00000000
        6305000	       629	80004ef8	0055a6b3	slt	x13,x11,x5	 x11:0x00000001  x5:0xd7debffd x13=0x00000000
        6315000	       630	80004efc	f81ba013	slti	x0,x23,-127	 x23:0xff0000fe
        6325000	       631	80004f00	939f8213	addi	x4,x31,-1735	 x31:0x000003ff  x4=0xfffffd38
        6335000	       632	80004f04	01ffe833	or	x16,x31,x31	 x31:0x000003ff x31:0x000003ff x16=0x000003ff
        6345000	       633	80004f08	0f01b013	sltiu	x0,x3,240	  x3:0x00000000
        6355000	       634	80004f0c	044c8463	beq	x25,x4,80004f54	 x25:0x00000000  x4:0xfffffd38
        6365000	       635	80004f10	01f99633	sll	x12,x19,x31	 x19:0xffffffff x31:0x000003ff x12=0x80000000
        6375000	       636	80004f14	00811d13	slli	x26,x2,0x8	  x2:0x00000001 x26=0x00000100
        6385000	       637	80004f18	0016bdb3	sltu	x27,x13,x1	 x13:0x00000000  x1:0x00000000 x27=0x00000000
        6395000	       638	80004f1c	00a53db3	sltu	x27,x10,x10	 x10:0x00000000 x10:0x00000000 x27=0x00000000
        6405000	       639	80004f20	011f7c63	bgeu	x30,x17,80004f38	 x30:0x0000000f x17:0xfffffff8
        6415000	       640	80004f24	01846fb3	or	x31,x8,x24	  x8:0xfffff957 x24:0x000007ff x31=0xffffffff
        6425000	       641	80004f28	01ff24b3	slt	x9,x30,x31	 x30:0x0000000f x31:0xffffffff  x9=0x00000000
        6435000	       642	80004f2c	009d0d33	add	x26,x26,x9	 x26:0x00000100  x9:0x00000000 x26=0x00000100
        6445000	       643	80004f30	008f7c63	bgeu	x30,x8,80004f48	 x30:0x0000000f  x8:0xfffff957
        6455000	       644	80004f34	407987b3	sub	x15,x19,x7	 x19:0xffffffff  x7:0x80009f28 x15=0x7fff60d7
        6465000	       645	80004f38	41c7d533	sra	x10,x15,x28	 x15:0x7fff60d7 x28:0x80009fc4 x10=0x07fff60d
        6475000	       646	80004f3c	02f74063	blt	x14,x15,80004f5c	 x14:0xffffffff x15:0x7fff60d7
        6485000	       647	00000000	00000013	addi	x0,x0,0	  x0:0x00000000
        6495000	       648	80004f58	00000013	addi	x0,x0,0	  x0:0x00000000
        6505000	       649	80004f5c	004a44b3	xor	x9,x20,x4	 x20:0xfffff9c3  x4:0xfffffd38  x9=0x000004fb
        6515000	       650	80004f60	01584f33	xor	x30,x16,x21	 x16:0x000003ff x21:0xa6b01e54 x30=0xa6b01dab
        6525000	       651	80004f64	047d0063	beq	x26,x7,80004fa4	 x26:0x00000100  x7:0x80009f28
        6535000	       652	80004f68	00d5e033	or	x0,x11,x13	 x11:0x00000001 x13:0x00000000
        6545000	       653	80004f6c	010f7433	and	x8,x30,x16	 x30:0xa6b01dab x16:0x000003ff  x8=0x000001ab
        6555000	       654	80004f70	fca74497	auipc	x9,0xfca74	  x9=0x7ca78f6c
        6565000	       655	80004f74	e86ea993	slti	x19,x29,-378	 x29:0xd7de3b98 x19=0x00000001
        6575000	       656	80004f78	002c9bb3	sll	x23,x25,x2	 x25:0x00000000  x2:0x00000001 x23=0x00000000
        6585000	       657	80004f7c	406c09b3	sub	x19,x24,x6	 x24:0x000007ff  x6:0xa6b01e55 x19=0x594fe9aa
        6595000	       658	80004f80	003c6333	or	x6,x24,x3	 x24:0x000007ff  x3:0x00000000  x6=0x000007ff
        6605000	       659	80004f84	40087593	andi	x11,x16,1024	 x16:0x000003ff x11=0x00000000
        6615000	       660	80004f88	003dd493	srli	x9,x27,0x3	 x27:0x00000000  x9=0x00000000
        6625000	       661	80004f8c	01069113	slli	x2,x13,0x10	 x13:0x00000000  x2=0x00000000
        6635000	       662	80004f90	0044fc33	and	x24,x9,x4	  x9:0x00000000  x4:0xfffffd38 x24=0x00000000
        6645000	       663	80004f94	013c1993	slli	x19,x24,0x13	 x24:0x00000000 x19=0x00000000
        6655000	       664	80004f98	01b16eb3	or	x29,x2,x27	  x2:0x00000000 x27:0x00000000 x29=0x00000000
        6665000	       665	80004f9c	40c7dc33	sra	x24,x15,x12	 x15:0x7fff60d7 x12:0x80000000 x24=0x7fff60d7
        6675000	       666	80004fa0	2cf8b037	lui	x0,0x2cf8b	
        6685000	       667	80004fa4	af66e993	ori	x19,x13,-1290	 x13:0x00000000 x19=0xfffffaf6
        6695000	       668	80004fa8	01485533	srl	x10,x16,x20	 x16:0x000003ff x20:0xfffff9c3 x10=0x0000007f
        6705000	       669	80004fac	e1c7e113	ori	x2,x15,-484	 x15:0x7fff60d7  x2=0xfffffedf
        6715000	       670	80004fb0	00002833	slt	x16,x0,x0	  x0:0x00000000  x0:0x00000000 x16=0x00000000
        6725000	       671	80004fb4	41b3d9b3	sra	x19,x7,x27	  x7:0x80009f28 x27:0x00000000 x19=0x80009f28
        6735000	       672	80004fb8	95bbcc13	xori	x24,x23,-1701	 x23:0x00000000 x24=0xfffff95b
        6745000	       673	80004fbc	44546897	auipc	x17,0x44546	 x17=0xc454afb8
        6755000	       674	80004fc0	8a948213	addi	x4,x9,-1879	  x9:0x00000000  x4=0xfffff8a9
        6765000	       675	80004fc4	1352b413	sltiu	x8,x5,309	  x5:0xd7debffd  x8=0x00000000
        6775000	       676	80004fc8	00585663	bge	x16,x5,80004fd4	 x16:0x00000000  x5:0xd7debffd
        6785000	       677	00000000	00000013	addi	x0,x0,0	  x0:0x00000000
        6795000	       678	80004fd0	00000013	addi	x0,x0,0	  x0:0x00000000
        6805000	       679	80004fd4	407c56b3	sra	x13,x24,x7	 x24:0xfffff95b  x7:0x80009f28 x13=0xfffffff9
        6815000	       680	80004fd8	000d64b3	or	x9,x26,x0	 x26:0x00000100  x0:0x00000000  x9=0x00000100
        6825000	       681	80004fdc	0167fd33	and	x26,x15,x22	 x15:0x7fff60d7 x22:0x80008c07 x26=0x00000007
        6835000	       682	80004fe0	a3788313	addi	x6,x17,-1481	 x17:0xc454afb8  x6=0xc454a9ef
        6845000	       683	80004fe4	0041df93	srli	x31,x3,0x4	  x3:0x00000000 x31=0x00000000
        6855000	       684	80004fe8	01d73833	sltu	x16,x14,x29	 x14:0xffffffff x29:0x00000000 x16=0x00000000
        6865000	       685	80004fec	031a1863	bne	x20,x17,8000501c	 x20:0xfffff9c3 x17:0xc454afb8
        6875000	       686	00000000	00000013	addi	x0,x0,0	  x0:0x00000000
        6885000	       687	80005018	00000013	addi	x0,x0,0	  x0:0x00000000
        6895000	       688	8000501c	01447333	and	x6,x8,x20	  x8:0x00000000 x20:0xfffff9c3  x6=0x00000000
        6905000	       689	80005020	01897b33	and	x22,x18,x24	 x18:0x475a92a9 x24:0xfffff95b x22=0x475a9009
        6915000	       690	80005024	37093a93	sltiu	x21,x18,880	 x18:0x475a92a9 x21=0x00000000
        6925000	       691	80005028	40f3d733	sra	x14,x7,x15	  x7:0x80009f28 x15:0x7fff60d7 x14=0xffffff00
        6935000	       692	8000502c	006890b3	sll	x1,x17,x6	 x17:0xc454afb8  x6:0x00000000  x1=0xc454afb8
        6945000	       693	80005030	01e09193	slli	x3,x1,0x1e	  x1:0xc454afb8  x3=0x00000000
        6955000	       694	80005034	0323c663	blt	x7,x18,80005060	  x7:0x80009f28 x18:0x475a92a9
        6965000	       695	00000000	00000013	addi	x0,x0,0	  x0:0x00000000
        6975000	       696	8000505c	00000013	addi	x0,x0,0	  x0:0x00000000
        6985000	       697	80005060	d3a3c013	xori	x0,x7,-710	  x7:0x80009f28
        6995000	       698	80005064	0102b7b3	sltu	x15,x5,x16	  x5:0xd7debffd x16:0x00000000 x15=0x00000000
        7005000	       699	80005068	2b58bf13	sltiu	x30,x17,693	 x17:0xc454afb8 x30=0x00000000
        7015000	       700	8000506c	aeb0f517	auipc	x10,0xaeb0f	 x10=0x2eb14068
        7025000	       701	80005070	003e7433	and	x8,x28,x3	 x28:0x80009fc4  x3:0x00000000  x8=0x00000000
        7035000	       702	80005074	0114d733	srl	x14,x9,x17	  x9:0x00000100 x17:0xc454afb8 x14=0x00000000
        7045000	       703	80005078	fc35f793	andi	x15,x11,-61	 x11:0x00000000 x15=0x00000000
        7055000	       704	8000507c	b159e417	auipc	x8,0xb159e	  x8=0x315a3078
        7065000	       705	80005080	00df57b3	srl	x15,x30,x13	 x30:0x00000000 x13:0xfffffff9 x15=0x00000000
        7075000	       706	80005084	01d28c33	add	x24,x5,x29	  x5:0xd7debffd x29:0x00000000 x24=0xd7debffd
        7085000	       707	80005088	ea457517	auipc	x10,0xea457	 x10=0x6a45c084
        7095000	       708	8000508c	018d0b33	add	x22,x26,x24	 x26:0x00000007 x24:0xd7debffd x22=0xd7dec004
        7105000	       709	80005090	0127ecb3	or	x25,x15,x18	 x15:0x00000000 x18:0x475a92a9 x25=0x475a92a9
        7115000	       710	80005094	01a01593	slli	x11,x0,0x1a	  x0:0x00000000 x11=0x00000000
        7125000	       711	80005098	019dd213	srli	x4,x27,0x19	 x27:0x00000000  x4=0x00000000
        7135000	       712	8000509c	f15f3793	sltiu	x15,x30,-235	 x30:0x00000000 x15=0x00000001
        7145000	       713	800050a0	48937e97	auipc	x29,0x48937	 x29=0xc893c09c
        7155000	       714	800050a4	2068a093	slti	x1,x17,518	 x17:0xc454afb8  x1=0x00000001
        7165000	       715	800050a8	4ec3e293	ori	x5,x7,1260	  x7:0x80009f28  x5=0x80009fec
        7175000	       716	800050ac	e3a36993	ori	x19,x6,-454	  x6:0x00000000 x19=0xfffffe3a
        7185000	       717	800050b0	40f782b3	sub	x5,x15,x15	 x15:0x00000001 x15:0x00000001  x5=0x00000000
        7195000	       718	800050b4	09958b93	addi	x23,x11,153	 x11:0x00000000 x23=0x00000099
        7205000	       719	800050b8	d9438813	addi	x16,x7,-620	  x7:0x80009f28 x16=0x80009cbc
        7215000	       720	800050bc	03976263	bltu	x14,x25,800050e0	 x14:0x00000000 x25:0x475a92a9
        7225000	       721	00000000	00000013	addi	x0,x0,0	  x0:0x00000000
        7235000	       722	800050dc	00000013	addi	x0,x0,0	  x0:0x00000000
        7245000	       723	800050e0	bc69f213	andi	x4,x19,-1082	 x19:0xfffffe3a  x4=0xfffffa02
        7255000	       724	800050e4	00000013	addi	x0,x0,0	  x0:0x00000000
        7265000	       725	800050e8	47ef0c93	addi	x25,x30,1150	 x30:0x00000000 x25=0x0000047e
        7275000	       726	800050ec	00148ab3	add	x21,x9,x1	  x9:0x00000100  x1:0x00000001 x21=0x00000101
        7285000	       727	800050f0	401d87b3	sub	x15,x27,x1	 x27:0x00000000  x1:0x00000001 x15=0xffffffff
        7295000	       728	800050f4	0169cc63	blt	x19,x22,8000510c	 x19:0xfffffe3a x22:0xd7dec004
        7305000	       729	800050f8	41a85fb3	sra	x31,x16,x26	 x16:0x80009cbc x26:0x00000007 x31=0xff000139
        7315000	       730	800050fc	01d75993	srli	x19,x14,0x1d	 x14:0x00000000 x19=0x00000000
        7325000	       731	80005100	01030663	beq	x6,x16,8000510c	  x6:0x00000000 x16:0x80009cbc
        7335000	       732	80005104	00bb5c33	srl	x24,x22,x11	 x22:0xd7dec004 x11:0x00000000 x24=0xd7dec004
        7345000	       733	80005108	007b96b3	sll	x13,x23,x7	 x23:0x00000099  x7:0x80009f28 x13=0x00009900
        7355000	       734	8000510c	011bd813	srli	x16,x23,0x11	 x23:0x00000099 x16=0x00000000
        7365000	       735	80005110	3d490313	addi	x6,x18,980	 x18:0x475a92a9  x6=0x475a967d
        7375000	       736	80005114	011fe9b3	or	x19,x31,x17	 x31:0xff000139 x17:0xc454afb8 x19=0xff54afb9
        7385000	       737	80005118	f2862613	slti	x12,x12,-216	 x12:0x80000000 x12=0x00000001
        7395000	       738	8000511c	410f5b13	srai	x22,x30,0x10	 x30:0x00000000 x22=0x00000000
        7405000	       739	80005120	fd656837	lui	x16,0xfd656	 x16=0xfd656000
        7415000	       740	80005124	9b093b93	sltiu	x23,x18,-1616	 x18:0x475a92a9 x23=0x00000001
        7425000	       741	80005128	415a5c13	srai	x24,x20,0x15	 x20:0xfffff9c3 x24=0xffffffff
        7435000	       742	8000512c	07c24b93	xori	x23,x4,124	  x4:0xfffffa02 x23=0xfffffa7e
        7445000	       743	80005130	41a608b3	sub	x17,x12,x26	 x12:0x00000001 x26:0x00000007 x17=0xfffffffa
        7455000	       744	80005134	7bcb6097	auipc	x1,0x7bcb6	  x1=0xfbcbb130
        7465000	       745	80005138	01c4adb3	slt	x27,x9,x28	  x9:0x00000100 x28:0x80009fc4 x27=0x00000000
        7475000	       746	8000513c	727fbf13	sltiu	x30,x31,1831	 x31:0xff000139 x30=0x00000000
        7485000	       747	80005140	7a4d6bb7	lui	x23,0x7a4d6	 x23=0x7a4d6000
        7495000	       748	80005144	00000013	addi	x0,x0,0	  x0:0x00000000
        7505000	       749	80005148	8edabbb7	lui	x23,0x8edab	 x23=0x8edab000
        7515000	       750	8000514c	00000013	addi	x0,x0,0	  x0:0x00000000
        7525000	       751	80005150	00af7f33	and	x30,x30,x10	 x30:0x00000000 x10:0x6a45c084 x30=0x00000000
        7535000	       752	80005154	9c5d6ab7	lui	x21,0x9c5d6	 x21=0x9c5d6000
        7545000	       753	80005158	2a53ac93	slti	x25,x7,677	  x7:0x80009f28 x25=0x00000001
        7555000	       754	8000515c	010cea63	bltu	x25,x16,80005170	 x25:0x00000001 x16:0xfd656000
        7565000	       755	00000000	00000013	addi	x0,x0,0	  x0:0x00000000
        7575000	       756	8000516c	00000013	addi	x0,x0,0	  x0:0x00000000
        7585000	       757	80005170	7649c893	xori	x17,x19,1892	 x19:0xff54afb9 x17=0xff54a8dd
        7595000	       758	80005174	01570ab3	add	x21,x14,x21	 x14:0x00000000 x21:0x9c5d6000 x21=0x9c5d6000
        7605000	       759	80005178	00a08c63	beq	x1,x10,80005190	  x1:0xfbcbb130 x10:0x6a45c084
        7615000	       760	8000517c	04cbd663	bge	x23,x12,800051c8	 x23:0x8edab000 x12:0x00000001
        7625000	       761	80005180	018ea333	slt	x6,x29,x24	 x29:0xc893c09c x24:0xffffffff  x6=0x00000001
        7635000	       762	80005184	f7e12837	lui	x16,0xf7e12	 x16=0xf7e12000
        7645000	       763	80005188	00715e63	bge	x2,x7,800051a4	  x2:0xfffffedf  x7:0x80009f28
        7655000	       764	00000000	00000013	addi	x0,x0,0	  x0:0x00000000
        7665000	       765	800051a0	00000013	addi	x0,x0,0	  x0:0x00000000
        7675000	       766	800051a4	01025213	srli	x4,x4,0x10	  x4:0xfffffa02  x4=0x0000ffff
        7685000	       767	800051a8	050cc863	blt	x25,x16,800051f8	 x25:0x00000001 x16:0xf7e12000
        7695000	       768	800051ac	151c6b93	ori	x23,x24,337	 x24:0xffffffff x23=0xffffffff
        7705000	       769	800051b0	0028f433	and	x8,x17,x2	 x17:0xff54a8dd  x2:0xfffffedf  x8=0xff54a8dd
        7715000	       770	800051b4	40f75313	srai	x6,x14,0xf	 x14:0x00000000  x6=0x00000000
        7725000	       771	800051b8	03865463	bge	x12,x24,800051e0	 x12:0x00000001 x24:0xffffffff
        7735000	       772	00000000	00000013	addi	x0,x0,0	  x0:0x00000000
        7745000	       773	800051dc	00000013	addi	x0,x0,0	  x0:0x00000000
        7755000	       774	800051e0	40ca50b3	sra	x1,x20,x12	 x20:0xfffff9c3 x12:0x00000001  x1=0xfffffce1
        7765000	       775	800051e4	f09f6893	ori	x17,x30,-247	 x30:0x00000000 x17=0xffffff09
        7775000	       776	800051e8	002d1013	slli	x0,x26,0x2	 x26:0x00000007
        7785000	       777	800051ec	40a25333	sra	x6,x4,x10	  x4:0x0000ffff x10:0x6a45c084  x6=0x00000fff
        7795000	       778	800051f0	01db35b3	sltu	x11,x22,x29	 x22:0x00000000 x29:0xc893c09c x11=0x00000001
        7805000	       779	800051f4	cf29f313	andi	x6,x19,-782	 x19:0xff54afb9  x6=0xff54acb0
        7815000	       780	800051f8	00000013	addi	x0,x0,0	  x0:0x00000000
        7825000	       781	800051fc	052ff063	bgeu	x31,x18,8000523c	 x31:0xff000139 x18:0x475a92a9
        7835000	       782	00000000	00000013	addi	x0,x0,0	  x0:0x00000000
        7845000	       783	80005238	00000013	addi	x0,x0,0	  x0:0x00000000
        7855000	       784	8000523c	408dd813	srai	x16,x27,0x8	 x27:0x00000000 x16=0x00000000
        7865000	       785	80005240	03ba6813	ori	x16,x20,59	 x20:0xfffff9c3 x16=0xfffff9fb
        7875000	       786	80005244	41cdd013	srai	x0,x27,0x1c	 x27:0x00000000
        7885000	       787	80005248	40465213	srai	x4,x12,0x4	 x12:0x00000001  x4=0x00000000
        7895000	       788	8000524c	d05dea93	ori	x21,x27,-763	 x27:0x00000000 x21=0xfffffd05
        7905000	       789	80005250	006e5893	srli	x17,x28,0x6	 x28:0x80009fc4 x17=0x0200027f
        7915000	       790	80005254	0123b233	sltu	x4,x7,x18	  x7:0x80009f28 x18:0x475a92a9  x4=0x00000000
        7925000	       791	80005258	00bbecb3	or	x25,x23,x11	 x23:0xffffffff x11:0x00000001 x25=0xffffffff
        7935000	       792	8000525c	02cd5263	bge	x26,x12,80005280	 x26:0x00000007 x12:0x00000001
        7945000	       793	00000000	00000013	addi	x0,x0,0	  x0:0x00000000
        7955000	       794	8000527c	00000013	addi	x0,x0,0	  x0:0x00000000
        7965000	       795	80005280	00740a63	beq	x8,x7,80005294	  x8:0xff54a8dd  x7:0x80009f28
        7975000	       796	80005284	bb3686b7	lui	x13,0xbb368	 x13=0xbb368000
        7985000	       797	80005288	008c9b13	slli	x22,x25,0x8	 x25:0xffffffff x22=0xffffff00
        7995000	       798	8000528c	010a4c63	blt	x20,x16,800052a4	 x20:0xfffff9c3 x16:0xfffff9fb
        8005000	       799	00000000	00000013	addi	x0,x0,0	  x0:0x00000000
        8015000	       800	800052a0	00000013	addi	x0,x0,0	  x0:0x00000000
        8025000	       801	800052a4	38072613	slti	x12,x14,896	 x14:0x00000000 x12=0x00000001
        8035000	       802	800052a8	39c5ef93	ori	x31,x11,924	 x11:0x00000001 x31=0x0000039d
        8045000	       803	800052ac	39162c13	slti	x24,x12,913	 x12:0x00000001 x24=0x00000001
        8055000	       804	800052b0	018886b3	add	x13,x17,x24	 x17:0x0200027f x24:0x00000001 x13=0x02000280
        8065000	       805	800052b4	8e776693	ori	x13,x14,-1817	 x14:0x00000000 x13=0xfffff8e7
        8075000	       806	800052b8	408b5293	srai	x5,x22,0x8	 x22:0xffffff00  x5=0xffffffff
        8085000	       807	800052bc	0039fa63	bgeu	x19,x3,800052d0	 x19:0xff54afb9  x3:0x00000000
        8095000	       808	00000000	00000013	addi	x0,x0,0	  x0:0x00000000
        8105000	       809	800052cc	00000013	addi	x0,x0,0	  x0:0x00000000
        8115000	       810	800052d0	01791c63	bne	x18,x23,800052e8	 x18:0x475a92a9 x23:0xffffffff
        8125000	       811	00000000	00000013	addi	x0,x0,0	  x0:0x00000000
        8135000	       812	800052e4	00000013	addi	x0,x0,0	  x0:0x00000000
        8145000	       813	800052e8	406b0f33	sub	x30,x22,x6	 x22:0xffffff00  x6:0xff54acb0 x30=0x00ab5250
        8155000	       814	800052ec	00baac33	slt	x24,x21,x11	 x21:0xfffffd05 x11:0x00000001 x24=0x00000001
        8165000	       815	800052f0	008d00b3	add	x1,x26,x8	 x26:0x00000007  x8:0xff54a8dd  x1=0xff54a8e4
        8175000	       816	800052f4	fac36f13	ori	x30,x6,-84	  x6:0xff54acb0 x30=0xffffffbc
        8185000	       817	800052f8	00166633	or	x12,x12,x1	 x12:0x00000001  x1:0xff54a8e4 x12=0xff54a8e5
        8195000	       818	800052fc	c1aa1117	auipc	x2,0xc1aa1	  x2=0x41aa62f8
        8205000	       819	80005300	014fbf33	sltu	x30,x31,x20	 x31:0x0000039d x20:0xfffff9c3 x30=0x00000001
        8215000	       820	80005304	017acc33	xor	x24,x21,x23	 x21:0xfffffd05 x23:0xffffffff x24=0x000002fa
        8225000	       821	80005308	057d1463	bne	x26,x23,80005350	 x26:0x00000007 x23:0xffffffff
        8235000	       822	00000000	00000013	addi	x0,x0,0	  x0:0x00000000
        8245000	       823	8000534c	00000013	addi	x0,x0,0	  x0:0x00000000
        8255000	       824	80005350	01674663	blt	x14,x22,8000535c	 x14:0x00000000 x22:0xffffff00
        8265000	       825	80005354	742ccf13	xori	x30,x25,1858	 x25:0xffffffff x30=0xfffff8bd
        8275000	       826	80005358	01c8c533	xor	x10,x17,x28	 x17:0x0200027f x28:0x80009fc4 x10=0x82009dbb
        8285000	       827	8000535c	00ac9e63	bne	x25,x10,80005378	 x25:0xffffffff x10:0x82009dbb
        8295000	       828	00000000	00000013	addi	x0,x0,0	  x0:0x00000000
        8305000	       829	80005374	00000013	addi	x0,x0,0	  x0:0x00000000
        8315000	       830	80005378	41ccd293	srai	x5,x25,0x1c	 x25:0xffffffff  x5=0xffffffff
        8325000	       831	8000537c	0212d463	bge	x5,x1,800053a4	  x5:0xffffffff  x1:0xff54a8e4
        8335000	       832	00000000	00000013	addi	x0,x0,0	  x0:0x00000000
        8345000	       833	800053a0	00000013	addi	x0,x0,0	  x0:0x00000000
        8355000	       834	800053a4	00000013	addi	x0,x0,0	  x0:0x00000000
        8365000	       835	800053a8	019f8333	add	x6,x31,x25	 x31:0x0000039d x25:0xffffffff  x6=0x0000039c
        8375000	       836	800053ac	017524b3	slt	x9,x10,x23	 x10:0x82009dbb x23:0xffffffff  x9=0x00000001
        8385000	       837	800053b0	003f9263	bne	x31,x3,800053b4	 x31:0x0000039d  x3:0x00000000
        8395000	       838	00000000	00000013	addi	x0,x0,0	  x0:0x00000000
        8405000	       839	800053b0	00000013	addi	x0,x0,0	  x0:0x00000000
        8415000	       840	800053b4	01073eb3	sltu	x29,x14,x16	 x14:0x00000000 x16:0xfffff9fb x29=0x00000001
        8425000	       841	800053b8	0190d133	srl	x2,x1,x25	  x1:0xff54a8e4 x25:0xffffffff  x2=0x00000001
        8435000	       842	800053bc	c6e1adb7	lui	x27,0xc6e1a	 x27=0xc6e1a000
        8445000	       843	800053c0	00fa6f33	or	x30,x20,x15	 x20:0xfffff9c3 x15:0xffffffff x30=0xffffffff
        8455000	       844	800053c4	cae34093	xori	x1,x6,-850	  x6:0x0000039c  x1=0xffffff32
        8465000	       845	800053c8	01fd9c13	slli	x24,x27,0x1f	 x27:0xc6e1a000 x24=0x00000000
        8475000	       846	800053cc	00d05fb3	srl	x31,x0,x13	  x0:0x00000000 x13:0xfffff8e7 x31=0x00000000
        8485000	       847	800053d0	407a5b13	srai	x22,x20,0x7	 x20:0xfffff9c3 x22=0xfffffff3
        8495000	       848	800053d4	01c5b533	sltu	x10,x11,x28	 x11:0x00000001 x28:0x80009fc4 x10=0x00000001
        8505000	       849	800053d8	03a59663	bne	x11,x26,80005404	 x11:0x00000001 x26:0x00000007
        8515000	       850	00000000	00000013	addi	x0,x0,0	  x0:0x00000000
        8525000	       851	80005400	00000013	addi	x0,x0,0	  x0:0x00000000
        8535000	       852	80005404	001fd033	srl	x0,x31,x1	 x31:0x00000000  x1:0xffffff32
        8545000	       853	80005408	041b7863	bgeu	x22,x1,80005458	 x22:0xfffffff3  x1:0xffffff32
        8555000	       854	00000000	00000013	addi	x0,x0,0	  x0:0x00000000
        8565000	       855	80005454	00000013	addi	x0,x0,0	  x0:0x00000000
        8575000	       856	80005458	02ed0663	beq	x26,x14,80005484	 x26:0x00000007 x14:0x00000000
        8585000	       857	8000545c	00a046b3	xor	x13,x0,x10	  x0:0x00000000 x10:0x00000001 x13=0x00000001
        8595000	       858	80005460	61e74a93	xori	x21,x14,1566	 x14:0x00000000 x21=0x0000061e
        8605000	       859	80005464	01357033	and	x0,x10,x19	 x10:0x00000001 x19:0xff54afb9
        8615000	       860	80005468	c70f8293	addi	x5,x31,-912	 x31:0x00000000  x5=0xfffffc70
        8625000	       861	8000546c	408b0833	sub	x16,x22,x8	 x22:0xfffffff3  x8:0xff54a8dd x16=0x00ab5716
        8635000	       862	80005470	0b067e93	andi	x29,x12,176	 x12:0xff54a8e5 x29=0x000000a0
        8645000	       863	80005474	016a1263	bne	x20,x22,80005478	 x20:0xfffff9c3 x22:0xfffffff3
        8655000	       864	00000000	00000013	addi	x0,x0,0	  x0:0x00000000
        8665000	       865	80005474	00000013	addi	x0,x0,0	  x0:0x00000000
        8675000	       866	80005478	70637613	andi	x12,x6,1798	  x6:0x0000039c x12=0x00000304
        8685000	       867	8000547c	04749863	bne	x9,x7,800054cc	  x9:0x00000001  x7:0x80009f28
        8695000	       868	00000000	00000013	addi	x0,x0,0	  x0:0x00000000
        8705000	       869	800054c8	00000013	addi	x0,x0,0	  x0:0x00000000
        8715000	       870	800054cc	01539a33	sll	x20,x7,x21	  x7:0x80009f28 x21:0x0000061e x20=0x00000000
        8725000	       871	800054d0	00c00e63	beq	x0,x12,800054ec	  x0:0x00000000 x12:0x00000304
        8735000	       872	800054d4	93350793	addi	x15,x10,-1741	 x10:0x00000001 x15=0xfffff934
        8745000	       873	800054d8	0193c033	xor	x0,x7,x25	  x7:0x80009f28 x25:0xffffffff
        8755000	       874	800054dc	40045c13	srai	x24,x8,0x0	  x8:0xff54a8dd x24=0xff54a8dd
        8765000	       875	800054e0	010775b3	and	x11,x14,x16	 x14:0x00000000 x16:0x00ab5716 x11=0x00000000
        8775000	       876	800054e4	01ec79b3	and	x19,x24,x30	 x24:0xff54a8dd x30:0xffffffff x19=0xff54a8dd
        8785000	       877	800054e8	943de693	ori	x13,x27,-1725	 x27:0xc6e1a000 x13=0xfffff943
        8795000	       878	800054ec	0023d113	srli	x2,x7,0x2	  x7:0x80009f28  x2=0x200027ca
        8805000	       879	800054f0	3e367893	andi	x17,x12,995	 x12:0x00000304 x17=0x00000300
        8815000	       880	800054f4	01befcb3	and	x25,x29,x27	 x29:0x000000a0 x27:0xc6e1a000 x25=0x00000000
        8825000	       881	800054f8	035fe263	bltu	x31,x21,8000551c	 x31:0x00000000 x21:0x0000061e
        8835000	       882	00000000	00000013	addi	x0,x0,0	  x0:0x00000000
        8845000	       883	80005518	00000013	addi	x0,x0,0	  x0:0x00000000
        8855000	       884	8000551c	9672bd13	sltiu	x26,x5,-1689	  x5:0xfffffc70 x26=0x00000000
        8865000	       885	80005520	ef564313	xori	x6,x12,-267	 x12:0x00000304  x6=0xfffffdf1
        8875000	       886	80005524	01ed0263	beq	x26,x30,80005528	 x26:0x00000000 x30:0xffffffff
        8885000	       887	80005528	40f5df33	sra	x30,x11,x15	 x11:0x00000000 x15:0xfffff934 x30=0x00000000
        8895000	       888	8000552c	0147deb3	srl	x29,x15,x20	 x15:0xfffff934 x20:0x00000000 x29=0xfffff934
        8905000	       889	80005530	0c7a4f13	xori	x30,x20,199	 x20:0x00000000 x30=0x000000c7
        8915000	       890	80005534	520bf897	auipc	x17,0x520bf	 x17=0xd20c4530
        8925000	       891	80005538	04f76863	bltu	x14,x15,80005588	 x14:0x00000000 x15:0xfffff934
        8935000	       892	00000000	00000013	addi	x0,x0,0	  x0:0x00000000
        8945000	       893	80005584	00000013	addi	x0,x0,0	  x0:0x00000000
        8955000	       894	80005588	30b9aa93	slti	x21,x19,779	 x19:0xff54a8dd x21=0x00000001
        8965000	       895	8000558c	00bc61b3	or	x3,x24,x11	 x24:0xff54a8dd x11:0x00000000  x3=0xff54a8dd
        8975000	       896	80005590	51af8e97	auipc	x29,0x51af8	 x29=0xd1afd58c
        8985000	       897	80005594	a2e43997	auipc	x19,0xa2e43	 x19=0x22e48590
        8995000	       898	80005598	01029db3	sll	x27,x5,x16	  x5:0xfffffc70 x16:0x00ab5716 x27=0x1c000000
        9005000	       899	8000559c	41875413	srai	x8,x14,0x18	 x14:0x00000000  x8=0x00000000
        9015000	       900	800055a0	00003797	auipc	x15,0x3	 x15=0x8000859c
        9025000	       901	800055a4	e7f78793	addi	x15,x15,-385	 x15:0x8000859c x15=0x8000841b
        9035000	       902	800055a8	00377a33	and	x20,x14,x3	 x14:0x00000000  x3:0xff54a8dd x20=0x00000000
        9045000	       903	800055ac	d2f7c503	lbu	x10,-721(x15)	 x15:0x8000841b x10=0x00000000 PA:0x8000814a
        9055000	       904	800055b0	00df7833	and	x16,x30,x13	 x30:0x000000c7 x13:0xfffff943 x16=0x00000043
        9065000	       905	800055b4	6b33a597	auipc	x11,0x6b33a	 x11=0xeb33f5b0
        9075000	       906	800055b8	c937c283	lbu	x5,-877(x15)	 x15:0x8000841b  x5=0x00000000 PA:0x800080ae
        9085000	       907	800055bc	1f57cd83	lbu	x27,501(x15)	 x15:0x8000841b x27=0x00000000 PA:0x80008610
        9095000	       908	800055c0	01a88333	add	x6,x17,x26	 x17:0xd20c4530 x26:0x00000000  x6=0xd20c4530
        9105000	       909	800055c4	d6a2a297	auipc	x5,0xd6a2a	  x5=0x56a2f5c0
        9115000	       910	800055c8	8aa29637	lui	x12,0x8aa29	 x12=0x8aa29000
        9125000	       911	800055cc	f2d80a13	addi	x20,x16,-211	 x16:0x00000043 x20=0xffffff70
        9135000	       912	800055d0	d3979983	lh	x19,-711(x15)	 x15:0x8000841b x19=0x00000000 PA:0x80008154
        9145000	       913	800055d4	3e17a083	lw	x1,993(x15)	 x15:0x8000841b  x1=0x00000000 PA:0x800087fc
        9155000	       914	00000000	00000013	addi	x0,x0,0	  x0:0x00000000
        9165000	       915	800055d8	52130993	addi	x19,x6,1313	  x6:0xd20c4530 x19=0xd20c4a51
        9175000	       916	800055dc	01d45a93	srli	x21,x8,0x1d	  x8:0x00000000 x21=0x00000000
        9185000	       917	800055e0	019be833	or	x16,x23,x25	 x23:0xffffffff x25:0x00000000 x16=0xffffffff
        9195000	       918	800055e4	40725d13	srai	x26,x4,0x7	  x4:0x00000000 x26=0x00000000
        9205000	       919	800055e8	01495193	srli	x3,x18,0x14	 x18:0x475a92a9  x3=0x00000475
        9215000	       920	800055ec	9d77e593	ori	x11,x15,-1577	 x15:0x8000841b x11=0xfffffddf
        9225000	       921	800055f0	0a8792a3	sh	x8,165(x15)	 x15:0x8000841b  x8:0x00000000 PA:0x800084c0
        9235000	       922	800055f4	00c21513	slli	x10,x4,0xc	  x4:0x00000000 x10=0x00000000
        9245000	       923	800055f8	d0a78d83	lb	x27,-758(x15)	 x15:0x8000841b x27=0x00000000 PA:0x80008125
        9255000	       924	800055fc	de379f83	lh	x31,-541(x15)	 x15:0x8000841b x31=0x00000000 PA:0x800081fe
        9265000	       925	80005600	ea7794a3	sh	x7,-343(x15)	 x15:0x8000841b  x7:0x80009f28 PA:0x800082c4
        9275000	       926	80005604	00eb34b3	sltu	x9,x22,x14	 x22:0xfffffff3 x14:0x00000000  x9=0x00000000
        9285000	       927	80005608	1b878e23	sb	x24,444(x15)	 x15:0x8000841b x24:0xff54a8dd PA:0x800085d7
        9295000	       928	8000560c	0139d713	srli	x14,x19,0x13	 x19:0xd20c4a51 x14=0x00001a41
        9305000	       929	80005610	0c5795a3	sh	x5,203(x15)	 x15:0x8000841b  x5:0x56a2f5c0 PA:0x800084e6
        9315000	       930	80005614	306797a3	sh	x6,783(x15)	 x15:0x8000841b  x6:0xd20c4530 PA:0x8000872a
        9325000	       931	80005618	4049dc33	sra	x24,x19,x4	 x19:0xd20c4a51  x4:0x00000000 x24=0xd20c4a51
        9335000	       932	8000561c	3e4787a3	sb	x4,1007(x15)	 x15:0x8000841b  x4:0x00000000 PA:0x8000880a
        9345000	       933	80005620	00f1e6b3	or	x13,x3,x15	  x3:0x00000475 x15:0x8000841b x13=0x8000847f
        9355000	       934	80005624	de0ae613	ori	x12,x21,-544	 x21:0x00000000 x12=0xfffffde0
        9365000	       935	80005628	00041a33	sll	x20,x8,x0	  x8:0x00000000  x0:0x00000000 x20=0x00000000
        9375000	       936	8000562c	0f3780a3	sb	x19,225(x15)	 x15:0x8000841b x19:0xd20c4a51 PA:0x800084fc
        9385000	       937	80005630	b9e11cb7	lui	x25,0xb9e11	 x25=0xb9e11000
        9395000	       938	80005634	d37783a3	sb	x23,-729(x15)	 x15:0x8000841b x23:0xffffffff PA:0x80008142
        9405000	       939	80005638	eb0d9b37	lui	x22,0xeb0d9	 x22=0xeb0d9000
        9415000	       940	8000563c	41b87d13	andi	x26,x16,1051	 x16:0xffffffff x26=0x0000041b
        9425000	       941	80005640	12378da3	sb	x3,315(x15)	 x15:0x8000841b  x3:0x00000475 PA:0x80008556
        9435000	       942	80005644	416d5013	srai	x0,x26,0x16	 x26:0x0000041b
        9445000	       943	80005648	c590bab7	lui	x21,0xc590b	 x21=0xc590b000
        9455000	       944	8000564c	a0e9a213	slti	x4,x19,-1522	 x19:0xd20c4a51  x4=0x00000001
        9465000	       945	80005650	00f11233	sll	x4,x2,x15	  x2:0x200027ca x15:0x8000841b  x4=0x50000000
        9475000	       946	80005654	40c3d833	sra	x16,x7,x12	  x7:0x80009f28 x12:0xfffffde0 x16=0x80009f28
        9485000	       947	80005658	00785c63	bge	x16,x7,80005670	 x16:0x80009f28  x7:0x80009f28
        9495000	       948	00000000	00000013	addi	x0,x0,0	  x0:0x00000000
        9505000	       949	8000566c	00000013	addi	x0,x0,0	  x0:0x00000000
        9515000	       950	80005670	41fcd993	srai	x19,x25,0x1f	 x25:0xb9e11000 x19=0xffffffff
        9525000	       951	80005674	11a2f863	bgeu	x5,x26,80005784	  x5:0x56a2f5c0 x26:0x0000041b
        9535000	       952	00000000	00000013	addi	x0,x0,0	  x0:0x00000000
        9545000	       953	80005780	00000013	addi	x0,x0,0	  x0:0x00000000
        9555000	       954	80005784	11eaf613	andi	x12,x21,286	 x21:0xc590b000 x12=0x00000000
        9565000	       955	80005788	41205993	srai	x19,x0,0x12	  x0:0x00000000 x19=0x00000000
        9575000	       956	8000578c	01911613	slli	x12,x2,0x19	  x2:0x200027ca x12=0x94000000
        9585000	       957	80005790	55583693	sltiu	x13,x16,1365	 x16:0x80009f28 x13=0x00000000
        9595000	       958	80005794	746a54b7	lui	x9,0x746a5	  x9=0x746a5000
        9605000	       959	80005798	009064b3	or	x9,x0,x9	  x0:0x00000000  x9:0x746a5000  x9=0x746a5000
        9615000	       960	8000579c	00000013	addi	x0,x0,0	  x0:0x00000000
        9625000	       961	800057a0	056b0863	beq	x22,x22,800057f0	 x22:0xeb0d9000 x22:0xeb0d9000
        9635000	       962	00000000	00000013	addi	x0,x0,0	  x0:0x00000000
        9645000	       963	800057ec	00000013	addi	x0,x0,0	  x0:0x00000000
        9655000	       964	800057f0	05c24063	blt	x4,x28,80005830	  x4:0x50000000 x28:0x80009fc4
        9665000	       965	800057f4	00f09eb3	sll	x29,x1,x15	  x1:0x00000000 x15:0x8000841b x29=0x00000000
        9675000	       966	800057f8	05d37663	bgeu	x6,x29,80005844	  x6:0xd20c4530 x29:0x00000000
        9685000	       967	00000000	00000013	addi	x0,x0,0	  x0:0x00000000
        9695000	       968	80005840	00000013	addi	x0,x0,0	  x0:0x00000000
        9705000	       969	80005844	01591b93	slli	x23,x18,0x15	 x18:0x475a92a9 x23=0x55200000
        9715000	       970	80005848	ab979437	lui	x8,0xab979	  x8=0xab979000
        9725000	       971	8000584c	80e36313	ori	x6,x6,-2034	  x6:0xd20c4530  x6=0xfffffd3e
        9735000	       972	80005850	3e460c13	addi	x24,x12,996	 x12:0x94000000 x24=0x940003e4
        9745000	       973	80005854	45fb1297	auipc	x5,0x45fb1	  x5=0xc5fb6850
        9755000	       974	80005858	01ac1693	slli	x13,x24,0x1a	 x24:0x940003e4 x13=0x90000000
        9765000	       975	8000585c	00bfcbb3	xor	x23,x31,x11	 x31:0x00000000 x11:0xfffffddf x23=0xfffffddf
        9775000	       976	80005860	03eb8863	beq	x23,x30,80005890	 x23:0xfffffddf x30:0x000000c7
        9785000	       977	80005864	008f7033	and	x0,x30,x8	 x30:0x000000c7  x8:0xab979000
        9795000	       978	80005868	00cc0833	add	x16,x24,x12	 x24:0x940003e4 x12:0x94000000 x16=0x280003e4
        9805000	       979	8000586c	2e968593	addi	x11,x13,745	 x13:0x90000000 x11=0x900002e9
        9815000	       980	80005870	00f637b3	sltu	x15,x12,x15	 x12:0x94000000 x15:0x8000841b x15=0x00000000
        9825000	       981	80005874	003c6a33	or	x20,x24,x3	 x24:0x940003e4  x3:0x00000475 x20=0x940007f5
        9835000	       982	80005878	000b5993	srli	x19,x22,0x0	 x22:0xeb0d9000 x19=0xeb0d9000
        9845000	       983	8000587c	f341c217	auipc	x4,0xf341c	  x4=0x73421878
        9855000	       984	80005880	00801893	slli	x17,x0,0x8	  x0:0x00000000 x17=0x00000000
        9865000	       985	80005884	40b85213	srai	x4,x16,0xb	 x16:0x280003e4  x4=0x00050000
        9875000	       986	80005888	00c5a2b3	slt	x5,x11,x12	 x11:0x900002e9 x12:0x94000000  x5=0x00000001
        9885000	       987	8000588c	c9507497	auipc	x9,0xc9507	  x9=0x4950c888
        9895000	       988	80005890	418b5293	srai	x5,x22,0x18	 x22:0xeb0d9000  x5=0xffffffeb
        9905000	       989	80005894	00eb50b3	srl	x1,x22,x14	 x22:0xeb0d9000 x14:0x00001a41  x1=0x7586c800
        9915000	       990	80005898	4095d8b3	sra	x17,x11,x9	 x11:0x900002e9  x9:0x4950c888 x17=0xff900002
        9925000	       991	8000589c	ae4bc713	xori	x14,x23,-1308	 x23:0xfffffddf x14=0x0000073b
        9935000	       992	800058a0	4183df33	sra	x30,x7,x24	  x7:0x80009f28 x24:0x940003e4 x30=0xf80009f2
        9945000	       993	800058a4	014769b3	or	x19,x14,x20	 x14:0x0000073b x20:0x940007f5 x19=0x940007ff
        9955000	       994	800058a8	028ee063	bltu	x29,x8,800058c8	 x29:0x00000000  x8:0xab979000
        9965000	       995	00000000	00000013	addi	x0,x0,0	  x0:0x00000000
        9975000	       996	800058c4	00000013	addi	x0,x0,0	  x0:0x00000000
        9985000	       997	800058c8	5283ff93	andi	x31,x7,1320	  x7:0x80009f28 x31=0x00000528
        9995000	       998	800058cc	41dfd733	sra	x14,x31,x29	 x31:0x00000528 x29:0x00000000 x14=0x00000528
       10005000	       999	800058d0	8b494497	auipc	x9,0x8b494	  x9=0x0b4998cc
       10015000	      1000	800058d4	015dc9b3	xor	x19,x27,x21	 x27:0x00000000 x21:0xc590b000 x19=0xc590b000
       10025000	      1001	800058d8	f47d6237	lui	x4,0xf47d6	  x4=0xf47d6000
       10035000	      1002	800058dc	00865e63	bge	x12,x8,800058f8	 x12:0x94000000  x8:0xab979000
       10045000	      1003	800058e0	010adcb3	srl	x25,x21,x16	 x21:0xc590b000 x16:0x280003e4 x25=0x0c590b00
       10055000	      1004	800058e4	01d87b33	and	x22,x16,x29	 x16:0x280003e4 x29:0x00000000 x22=0x00000000
       10065000	      1005	800058e8	40790233	sub	x4,x18,x7	 x18:0x475a92a9  x7:0x80009f28  x4=0xc759f381
       10075000	      1006	800058ec	00f29f13	slli	x30,x5,0xf	  x5:0xffffffeb x30=0xfff58000
       10085000	      1007	800058f0	0035cc33	xor	x24,x11,x3	 x11:0x900002e9  x3:0x00000475 x24=0x9000069c
       10095000	      1008	800058f4	00b56233	or	x4,x10,x11	 x10:0x00000000 x11:0x900002e9  x4=0x900002e9
       10105000	      1009	800058f8	017b5333	srl	x6,x22,x23	 x22:0x00000000 x23:0xfffffddf  x6=0x00000000
       10115000	      1010	800058fc	00398ab3	add	x21,x19,x3	 x19:0xc590b000  x3:0x00000475 x21=0xc590b475
       10125000	      1011	80005900	3ca52693	slti	x13,x10,970	 x10:0x00000000 x13=0x00000001
       10135000	      1012	80005904	fd3d3b93	sltiu	x23,x26,-45	 x26:0x0000041b x23=0x00000001
       10145000	      1013	80005908	40f001b3	sub	x3,x0,x15	  x0:0x00000000 x15:0x00000000  x3=0x00000000
       10155000	      1014	8000590c	d2f5cf93	xori	x31,x11,-721	 x11:0x900002e9 x31=0x6fffffc6
       10165000	      1015	80005910	a5ea0193	addi	x3,x20,-1442	 x20:0x940007f5  x3=0x94000253
       10175000	      1016	80005914	00638263	beq	x7,x6,80005918	  x7:0x80009f28  x6:0x00000000
       10185000	      1017	80005918	005b5793	srli	x15,x22,0x5	 x22:0x00000000 x15=0x00000000
       10195000	      1018	8000591c	40070033	sub	x0,x14,x0	 x14:0x00000528  x0:0x00000000
       10205000	      1019	80005920	01052d33	slt	x26,x10,x16	 x10:0x00000000 x16:0x280003e4 x26=0x00000001
       10215000	      1020	80005924	00ba7a63	bgeu	x20,x11,80005938	 x20:0x940007f5 x11:0x900002e9
       10225000	      1021	00000000	00000013	addi	x0,x0,0	  x0:0x00000000
       10235000	      1022	80005934	00000013	addi	x0,x0,0	  x0:0x00000000
       10245000	      1023	80005938	005541b3	xor	x3,x10,x5	 x10:0x00000000  x5:0xffffffeb  x3=0xffffffeb
       10255000	      1024	8000593c	00a55a13	srli	x20,x10,0xa	 x10:0x00000000 x20=0x00000000
       10265000	      1025	80005940	cced4c93	xori	x25,x26,-818	 x26:0x00000001 x25=0xfffffccf
       10275000	      1026	80005944	00780713	addi	x14,x16,7	 x16:0x280003e4 x14=0x280003eb
       10285000	      1027	80005948	04eec863	blt	x29,x14,80005998	 x29:0x00000000 x14:0x280003eb
       10295000	      1028	00000000	00000013	addi	x0,x0,0	  x0:0x00000000
       10305000	      1029	80005994	00000013	addi	x0,x0,0	  x0:0x00000000
       10315000	      1030	80005998	00fd2533	slt	x10,x26,x15	 x26:0x00000001 x15:0x00000000 x10=0x00000000
       10325000	      1031	8000599c	41985833	sra	x16,x16,x25	 x16:0x280003e4 x25:0xfffffccf x16=0x00005000
       10335000	      1032	800059a0	9da4c193	xori	x3,x9,-1574	  x9:0x0b4998cc  x3=0xf4b66116
       10345000	      1033	800059a4	00000013	addi	x0,x0,0	  x0:0x00000000
       10355000	      1034	800059a8	546ffc93	andi	x25,x31,1350	 x31:0x6fffffc6 x25=0x00000546
       10365000	      1035	800059ac	602b60b7	lui	x1,0x602b6	  x1=0x602b6000
       10375000	      1036	800059b0	01d24c63	blt	x4,x29,800059c8	  x4:0x900002e9 x29:0x00000000
       10385000	      1037	00000000	00000013	addi	x0,x0,0	  x0:0x00000000
       10395000	      1038	800059c4	00000013	addi	x0,x0,0	  x0:0x00000000
       10405000	      1039	800059c8	01af5663	bge	x30,x26,800059d4	 x30:0xfff58000 x26:0x00000001
       10415000	      1040	800059cc	103ef9b7	lui	x19,0x103ef	 x19=0x103ef000
       10425000	      1041	800059d0	01a05663	bge	x0,x26,800059dc	  x0:0x00000000 x26:0x00000001
       10435000	      1042	800059d4	3a59ed93	ori	x27,x19,933	 x19:0x103ef000 x27=0x103ef3a5
       10445000	      1043	800059d8	02388263	beq	x17,x3,800059fc	 x17:0xff900002  x3:0xf4b66116
       10455000	      1044	800059dc	33618413	addi	x8,x3,822	  x3:0xf4b66116  x8=0xf4b6644c
       10465000	      1045	800059e0	02361263	bne	x12,x3,80005a04	 x12:0x94000000  x3:0xf4b66116
       10475000	      1046	00000000	00000013	addi	x0,x0,0	  x0:0x00000000
       10485000	      1047	80005a00	00000013	addi	x0,x0,0	  x0:0x00000000
       10495000	      1048	80005a04	363c4997	auipc	x19,0x363c4	 x19=0xb63c9a00
       10505000	      1049	80005a08	02d07263	bgeu	x0,x13,80005a2c	  x0:0x00000000 x13:0x00000001
       10515000	      1050	80005a0c	40a689b3	sub	x19,x13,x10	 x13:0x00000001 x10:0x00000000 x19=0x00000001
       10525000	      1051	80005a10	12e8f513	andi	x10,x17,302	 x17:0xff900002 x10=0x00000002
       10535000	      1052	80005a14	0039bf33	sltu	x30,x19,x3	 x19:0x00000001  x3:0xf4b66116 x30=0x00000001
       10545000	      1053	80005a18	bded4093	xori	x1,x26,-1058	 x26:0x00000001  x1=0xfffffbdf
       10555000	      1054	80005a1c	04d68863	beq	x13,x13,80005a6c	 x13:0x00000001 x13:0x00000001
       10565000	      1055	00000000	00000013	addi	x0,x0,0	  x0:0x00000000
       10575000	      1056	80005a68	00000013	addi	x0,x0,0	  x0:0x00000000
       10585000	      1057	80005a6c	00699c93	slli	x25,x19,0x6	 x19:0x00000001 x25=0x00000040
       10595000	      1058	80005a70	004dfc63	bgeu	x27,x4,80005a88	 x27:0x103ef3a5  x4:0x900002e9
       10605000	      1059	80005a74	018984b3	add	x9,x19,x24	 x19:0x00000001 x24:0x9000069c  x9=0x9000069d
       10615000	      1060	80005a78	00ff6cb3	or	x25,x30,x15	 x30:0x00000001 x15:0x00000000 x25=0x00000001
       10625000	      1061	80005a7c	024e4463	blt	x28,x4,80005aa4	 x28:0x80009fc4  x4:0x900002e9
       10635000	      1062	00000000	00000013	addi	x0,x0,0	  x0:0x00000000
       10645000	      1063	80005aa0	00000013	addi	x0,x0,0	  x0:0x00000000
       10655000	      1064	80005aa4	00bb6a63	bltu	x22,x11,80005ab8	 x22:0x00000000 x11:0x900002e9
       10665000	      1065	00000000	00000013	addi	x0,x0,0	  x0:0x00000000
       10675000	      1066	80005ab4	00000013	addi	x0,x0,0	  x0:0x00000000
       10685000	      1067	80005ab8	02df6263	bltu	x30,x13,80005adc	 x30:0x00000001 x13:0x00000001
       10695000	      1068	80005abc	13720813	addi	x16,x4,311	  x4:0x900002e9 x16=0x90000420
       10705000	      1069	80005ac0	0044afb3	slt	x31,x9,x4	  x9:0x9000069d  x4:0x900002e9 x31=0x00000000
       10715000	      1070	80005ac4	624dfc13	andi	x24,x27,1572	 x27:0x103ef3a5 x24=0x00000224
       10725000	      1071	80005ac8	40140d33	sub	x26,x8,x1	  x8:0xf4b6644c  x1:0xfffffbdf x26=0xf4b6686d
       10735000	      1072	80005acc	01ad22b3	slt	x5,x26,x26	 x26:0xf4b6686d x26:0xf4b6686d  x5=0x00000000
       10745000	      1073	80005ad0	35b78213	addi	x4,x15,859	 x15:0x00000000  x4=0x0000035b
       10755000	      1074	80005ad4	01e97263	bgeu	x18,x30,80005ad8	 x18:0x475a92a9 x30:0x00000001
       10765000	      1075	00000000	00000013	addi	x0,x0,0	  x0:0x00000000
       10775000	      1076	80005ad4	00000013	addi	x0,x0,0	  x0:0x00000000
       10785000	      1077	80005ad8	f4056493	ori	x9,x10,-192	 x10:0x00000002  x9=0xffffff42
       10795000	      1078	80005adc	ea3bff93	andi	x31,x23,-349	 x23:0x00000001 x31=0x00000001
       10805000	      1079	80005ae0	01d26c63	bltu	x4,x29,80005af8	  x4:0x0000035b x29:0x00000000
       10815000	      1080	80005ae4	01f25a63	bge	x4,x31,80005af8	  x4:0x0000035b x31:0x00000001
       10825000	      1081	00000000	00000013	addi	x0,x0,0	  x0:0x00000000
       10835000	      1082	80005af4	00000013	addi	x0,x0,0	  x0:0x00000000
       10845000	      1083	80005af8	0148c263	blt	x17,x20,80005afc	 x17:0xff900002 x20:0x00000000
       10855000	      1084	00000000	00000013	addi	x0,x0,0	  x0:0x00000000
       10865000	      1085	80005af8	00000013	addi	x0,x0,0	  x0:0x00000000
       10875000	      1086	80005afc	014d55b3	srl	x11,x26,x20	 x26:0xf4b6686d x20:0x00000000 x11=0xf4b6686d
       10885000	      1087	80005b00	11ec4e63	blt	x24,x30,80005c1c	 x24:0x00000224 x30:0x00000001
       10895000	      1088	80005b04	4e17f813	andi	x16,x15,1249	 x15:0x00000000 x16=0x00000000
       10905000	      1089	80005b08	41370bb3	sub	x23,x14,x19	 x14:0x280003eb x19:0x00000001 x23=0x280003ea
       10915000	      1090	80005b0c	00003297	auipc	x5,0x3	  x5=0x80008b08
       10925000	      1091	80005b10	0f228293	addi	x5,x5,242	  x5:0x80008b08  x5=0x80008bfa
       10935000	      1092	80005b14	406d55b3	sra	x11,x26,x6	 x26:0xf4b6686d  x6:0x00000000 x11=0xf4b6686d
       10945000	      1093	80005b18	00924db3	xor	x27,x4,x9	  x4:0x0000035b  x9:0xffffff42 x27=0xfffffc19
       10955000	      1094	80005b1c	0123cab3	xor	x21,x7,x18	  x7:0x80009f28 x18:0x475a92a9 x21=0xc75a0d81
       10965000	      1095	80005b20	00000013	addi	x0,x0,0	  x0:0x00000000
       10975000	      1096	80005b24	ff029783	lh	x15,-16(x5)	  x5:0x80008bfa x15=0x00000000 PA:0x80008bea
       10985000	      1097	80005b28	018a8433	add	x8,x21,x24	 x21:0xc75a0d81 x24:0x00000224  x8=0xc75a0fa5
       10995000	      1098	80005b2c	70db0613	addi	x12,x22,1805	 x22:0x00000000 x12=0x0000070d
       11005000	      1099	80005b30	ff428683	lb	x13,-12(x5)	  x5:0x80008bfa x13=0x00000000 PA:0x80008bee
       11015000	      1100	80005b34	01fa3c33	sltu	x24,x20,x31	 x20:0x00000000 x31:0x00000001 x24=0x00000001
       11025000	      1101	80005b38	017a1633	sll	x12,x20,x23	 x20:0x00000000 x23:0x280003ea x12=0x00000000
       11035000	      1102	80005b3c	00000013	addi	x0,x0,0	  x0:0x00000000
       11045000	      1103	80005b40	00a28523	sb	x10,10(x5)	  x5:0x80008bfa x10:0x00000002 PA:0x80008c04
       11055000	      1104	80005b44	fff28603	lb	x12,-1(x5)	  x5:0x80008bfa x12=0x00000000 PA:0x80008bf9
       11065000	      1105	80005b48	ffc2c103	lbu	x2,-4(x5)	  x5:0x80008bfa  x2=0x00000000 PA:0x80008bf6
       11075000	      1106	80005b4c	ffc2c803	lbu	x16,-4(x5)	  x5:0x80008bfa x16=0x00000000 PA:0x80008bf6
       11085000	      1107	80005b50	00d2c483	lbu	x9,13(x5)	  x5:0x80008bfa  x9=0x00000000 PA:0x80008c07
       11095000	      1108	80005b54	01f5d993	srli	x19,x11,0x1f	 x11:0xf4b6686d x19=0x00000001
       11105000	      1109	80005b58	fff2c103	lbu	x2,-1(x5)	  x5:0x80008bfa  x2=0x00000000 PA:0x80008bf9
       11115000	      1110	80005b5c	ffe29f23	sh	x30,-2(x5)	  x5:0x80008bfa x30:0x00000001 PA:0x80008bf8
       11125000	      1111	80005b60	02daa193	slti	x3,x21,45	 x21:0xc75a0d81  x3=0x00000001
       11135000	      1112	80005b64	01b28323	sb	x27,6(x5)	  x5:0x80008bfa x27:0xfffffc19 PA:0x80008c00
       11145000	      1113	80005b68	ff22c883	lbu	x17,-14(x5)	  x5:0x80008bfa x17=0x00000000 PA:0x80008bec
       11155000	      1114	80005b6c	ff82dd03	lhu	x26,-8(x5)	  x5:0x80008bfa x26=0x00000000 PA:0x80008bf2
       11165000	      1115	80005b70	9879cbb7	lui	x23,0x9879c	 x23=0x9879c000
       11175000	      1116	80005b74	fbc33197	auipc	x3,0xfbc33	  x3=0x7bc38b70
       11185000	      1117	80005b78	fe4289a3	sb	x4,-13(x5)	  x5:0x80008bfa  x4:0x0000035b PA:0x80008bed
       11195000	      1118	80005b7c	f62d8313	addi	x6,x27,-158	 x27:0xfffffc19  x6=0xfffffb7b
       11205000	      1119	80005b80	40948eb3	sub	x29,x9,x9	  x9:0x00000000  x9:0x00000000 x29=0x00000000
       11215000	      1120	80005b84	01d60033	add	x0,x12,x29	 x12:0x00000000 x29:0x00000000
       11225000	      1121	80005b88	b0c7f513	andi	x10,x15,-1268	 x15:0x00000000 x10=0x00000000
       11235000	      1122	80005b8c	0101a733	slt	x14,x3,x16	  x3:0x7bc38b70 x16:0x00000000 x14=0x00000000
       11245000	      1123	80005b90	ff02cf83	lbu	x31,-16(x5)	  x5:0x80008bfa x31=0x00000000 PA:0x80008bea
       11255000	      1124	80005b94	003b6233	or	x4,x22,x3	 x22:0x00000000  x3:0x7bc38b70  x4=0x7bc38b70
       11265000	      1125	80005b98	00a80b33	add	x22,x16,x10	 x16:0x00000000 x10:0x00000000 x22=0x00000000
       11275000	      1126	80005b9c	41658033	sub	x0,x11,x22	 x11:0xf4b6686d x22:0x00000000
       11285000	      1127	80005ba0	ffe28d03	lb	x26,-2(x5)	  x5:0x80008bfa x26=0x00000001 PA:0x80008bf8
       11295000	      1128	80005ba4	015f5fb3	srl	x31,x30,x21	 x30:0x00000001 x21:0xc75a0d81 x31=0x00000000
       11305000	      1129	80005ba8	0042d683	lhu	x13,4(x5)	  x5:0x80008bfa x13=0x00000000 PA:0x80008bfe
       11315000	      1130	80005bac	01148733	add	x14,x9,x17	  x9:0x00000000 x17:0x00000000 x14=0x00000000
       11325000	      1131	80005bb0	fe22af23	sw	x2,-2(x5)	  x5:0x80008bfa  x2:0x00000000 PA:0x80008bf8
       11335000	      1132	80005bb4	2e2f9317	auipc	x6,0x2e2f9	  x6=0xae2febb0
       11345000	      1133	80005bb8	00128883	lb	x17,1(x5)	  x5:0x80008bfa x17=0x00000000 PA:0x80008bfb
       11355000	      1134	80005bbc	6ea74313	xori	x6,x14,1770	 x14:0x00000000  x6=0x000006ea
       11365000	      1135	80005bc0	af9f2613	slti	x12,x30,-1287	 x30:0x00000001 x12=0x00000000
       11375000	      1136	80005bc4	00929323	sh	x9,6(x5)	  x5:0x80008bfa  x9:0x00000000 PA:0x80008c00
       11385000	      1137	80005bc8	2a73fc17	auipc	x24,0x2a73f	 x24=0xaa744bc4
       11395000	      1138	80005bcc	00000013	addi	x0,x0,0	  x0:0x00000000
       11405000	      1139	80005bd0	01fe9fb3	sll	x31,x29,x31	 x29:0x00000000 x31:0x00000000 x31=0x00000000
       11415000	      1140	80005bd4	9965a493	slti	x9,x11,-1642	 x11:0xf4b6686d  x9=0x00000001
       11425000	      1141	80005bd8	01e286a3	sb	x30,13(x5)	  x5:0x80008bfa x30:0x00000001 PA:0x80008c07
       11435000	      1142	80005bdc	007d7263	bgeu	x26,x7,80005be0	 x26:0x00000001  x7:0x80009f28
       11445000	      1143	80005be0	010d9d93	slli	x27,x27,0x10	 x27:0xfffffc19 x27=0xfc190000
       11455000	      1144	80005be4	005b1a93	slli	x21,x22,0x5	 x22:0x00000000 x21=0x00000000
       11465000	      1145	80005be8	12638f13	addi	x30,x7,294	  x7:0x80009f28 x30=0x8000a04e
       11475000	      1146	80005bec	8eedec93	ori	x25,x27,-1810	 x27:0xfc190000 x25=0xfffff8ee
       11485000	      1147	80005bf0	106bf113	andi	x2,x23,262	 x23:0x9879c000  x2=0x00000000
       11495000	      1148	80005bf4	008ff6b3	and	x13,x31,x8	 x31:0x00000000  x8:0xc75a0fa5 x13=0x00000000
       11505000	      1149	80005bf8	18b48d13	addi	x26,x9,395	  x9:0x00000001 x26=0x0000018c
       11515000	      1150	80005bfc	013aef33	or	x30,x21,x19	 x21:0x00000000 x19:0x00000001 x30=0x00000001
       11525000	      1151	80005c00	00e381b3	add	x3,x7,x14	  x7:0x80009f28 x14:0x00000000  x3=0x80009f28
       11535000	      1152	80005c04	016affb3	and	x31,x21,x22	 x21:0x00000000 x22:0x00000000 x31=0x00000000
       11545000	      1153	80005c08	199caf93	slti	x31,x25,409	 x25:0xfffff8ee x31=0x00000001
       11555000	      1154	80005c0c	03649863	bne	x9,x22,80005c3c	  x9:0x00000001 x22:0x00000000
       11565000	      1155	00000000	00000013	addi	x0,x0,0	  x0:0x00000000
       11575000	      1156	80005c38	00000013	addi	x0,x0,0	  x0:0x00000000
       11585000	      1157	80005c3c	01e812b3	sll	x5,x16,x30	 x16:0x00000000 x30:0x00000001  x5=0x00000000
       11595000	      1158	80005c40	00c07c33	and	x24,x0,x12	  x0:0x00000000 x12:0x00000000 x24=0x00000000
       11605000	      1159	80005c44	00003117	auipc	x2,0x3	  x2=0x80008c40
       11615000	      1160	80005c48	27810113	addi	x2,x2,632	  x2:0x80008c40  x2=0x80008eb8
       11625000	      1161	80005c4c	68124db7	lui	x27,0x68124	 x27=0x68124000
       11635000	      1162	80005c50	ffc11883	lh	x17,-4(x2)	  x2:0x80008eb8 x17=0x00000000 PA:0x80008eb4
       11645000	      1163	80005c54	fe6108a3	sb	x6,-15(x2)	  x2:0x80008eb8  x6:0x000006ea PA:0x80008ea9
       11655000	      1164	80005c58	018105a3	sb	x24,11(x2)	  x2:0x80008eb8 x24:0x00000000 PA:0x80008ec3
       11665000	      1165	80005c5c	005105a3	sb	x5,11(x2)	  x2:0x80008eb8  x5:0x00000000 PA:0x80008ec3
       11675000	      1166	80005c60	ff412823	sw	x20,-16(x2)	  x2:0x80008eb8 x20:0x00000000 PA:0x80008ea8
       11685000	      1167	80005c64	ff914403	lbu	x8,-7(x2)	  x2:0x80008eb8  x8=0x00000000 PA:0x80008eb1
       11695000	      1168	80005c68	0108fc33	and	x24,x17,x16	 x17:0x00000000 x16:0x00000000 x24=0x00000000
       11705000	      1169	80005c6c	00000013	addi	x0,x0,0	  x0:0x00000000
       11715000	      1170	80005c70	1a148097	auipc	x1,0x1a148	  x1=0x9a14dc6c
       11725000	      1171	80005c74	ff110303	lb	x6,-15(x2)	  x2:0x80008eb8  x6=0x00000000 PA:0x80008ea9
       11735000	      1172	80005c78	00012283	lw	x5,0(x2)	  x2:0x80008eb8  x5=0x00000000 PA:0x80008eb8
       11745000	      1173	00000000	00000013	addi	x0,x0,0	  x0:0x00000000
       11755000	      1174	80005c7c	00510b03	lb	x22,5(x2)	  x2:0x80008eb8 x22=0x00000000 PA:0x80008ebd
       11765000	      1175	80005c80	00613b33	sltu	x22,x2,x6	  x2:0x80008eb8  x6:0x00000000 x22=0x00000000
       11775000	      1176	80005c84	00014883	lbu	x17,0(x2)	  x2:0x80008eb8 x17=0x00000000 PA:0x80008eb8
       11785000	      1177	00000000	00000013	addi	x0,x0,0	  x0:0x00000000
       11795000	      1178	80005c88	011104a3	sb	x17,9(x2)	  x2:0x80008eb8 x17:0x00000000 PA:0x80008ec1
       11805000	      1179	80005c8c	01235613	srli	x12,x6,0x12	  x6:0x00000000 x12=0x00000000
       11815000	      1180	80005c90	ff610b23	sb	x22,-10(x2)	  x2:0x80008eb8 x22:0x00000000 PA:0x80008eae
       11825000	      1181	80005c94	01339013	slli	x0,x7,0x13	  x7:0x80009f28
       11835000	      1182	80005c98	ec94f413	andi	x8,x9,-311	  x9:0x00000001  x8=0x00000001
       11845000	      1183	80005c9c	ff615403	lhu	x8,-10(x2)	  x2:0x80008eb8  x8=0x00000000 PA:0x80008eae
       11855000	      1184	80005ca0	ff511b23	sh	x21,-10(x2)	  x2:0x80008eb8 x21:0x00000000 PA:0x80008eae
       11865000	      1185	80005ca4	fe110da3	sb	x1,-5(x2)	  x2:0x80008eb8  x1:0x9a14dc6c PA:0x80008eb3
       11875000	      1186	80005ca8	fff14303	lbu	x6,-1(x2)	  x2:0x80008eb8  x6=0x00000000 PA:0x80008eb7
       11885000	      1187	80005cac	ffe12e23	sw	x30,-4(x2)	  x2:0x80008eb8 x30:0x00000001 PA:0x80008eb4
       11895000	      1188	80005cb0	40af00b3	sub	x1,x30,x10	 x30:0x00000001 x10:0x00000000  x1=0x00000001
       11905000	      1189	80005cb4	0122d993	srli	x19,x5,0x12	  x5:0x00000000 x19=0x00000000
       11915000	      1190	80005cb8	01410823	sb	x20,16(x2)	  x2:0x80008eb8 x20:0x00000000 PA:0x80008ec8
       11925000	      1191	80005cbc	00510223	sb	x5,4(x2)	  x2:0x80008eb8  x5:0x00000000 PA:0x80008ebc
       11935000	      1192	80005cc0	ff6109a3	sb	x22,-13(x2)	  x2:0x80008eb8 x22:0x00000000 PA:0x80008eab
       11945000	      1193	80005cc4	4071dd33	sra	x26,x3,x7	  x3:0x80009f28  x7:0x80009f28 x26=0xff80009f
       11955000	      1194	80005cc8	00d14703	lbu	x14,13(x2)	  x2:0x80008eb8 x14=0x00000000 PA:0x80008ec5
       11965000	      1195	80005ccc	ff412183	lw	x3,-12(x2)	  x2:0x80008eb8  x3=0x00000000 PA:0x80008eac
       11975000	      1196	80005cd0	002cb533	sltu	x10,x25,x2	 x25:0xfffff8ee  x2:0x80008eb8 x10=0x00000000
       11985000	      1197	80005cd4	ff910983	lb	x19,-7(x2)	  x2:0x80008eb8 x19=0x00000000 PA:0x80008eb1
       11995000	      1198	80005cd8	009281b3	add	x3,x5,x9	  x5:0x00000000  x9:0x00000001  x3=0x00000001
       12005000	      1199	80005cdc	006fd533	srl	x10,x31,x6	 x31:0x00000001  x6:0x00000000 x10=0x00000001
       12015000	      1200	80005ce0	00ec5793	srli	x15,x24,0xe	 x24:0x00000000 x15=0x00000000
       12025000	      1201	80005ce4	0198ab33	slt	x22,x17,x25	 x17:0x00000000 x25:0xfffff8ee x22=0x00000000
       12035000	      1202	80005ce8	ff610ea3	sb	x22,-3(x2)	  x2:0x80008eb8 x22:0x00000000 PA:0x80008eb5
       12045000	      1203	80005cec	00214983	lbu	x19,2(x2)	  x2:0x80008eb8 x19=0x00000000 PA:0x80008eba
       12055000	      1204	80005cf0	ff215f03	lhu	x30,-14(x2)	  x2:0x80008eb8 x30=0x00000000 PA:0x80008eaa
       12065000	      1205	80005cf4	210a4313	xori	x6,x20,528	 x20:0x00000000  x6=0x00000210
       12075000	      1206	80005cf8	002107a3	sb	x2,15(x2)	  x2:0x80008eb8  x2:0x80008eb8 PA:0x80008ec7
       12085000	      1207	80005cfc	00a11483	lh	x9,10(x2)	  x2:0x80008eb8  x9=0x00000000 PA:0x80008ec2
       12095000	      1208	80005d00	05ea32b7	lui	x5,0x5ea3	  x5=0x05ea3000
       12105000	      1209	80005d04	004af6b3	and	x13,x21,x4	 x21:0x00000000  x4:0x7bc38b70 x13=0x00000000
       12115000	      1210	80005d08	01bc9233	sll	x4,x25,x27	 x25:0xfffff8ee x27:0x68124000  x4=0xfffff8ee
       12125000	      1211	80005d0c	ff310b83	lb	x23,-13(x2)	  x2:0x80008eb8 x23=0x00000000 PA:0x80008eab
       12135000	      1212	80005d10	00314d03	lbu	x26,3(x2)	  x2:0x80008eb8 x26=0x00000000 PA:0x80008ebb
       12145000	      1213	80005d14	aea40a13	addi	x20,x8,-1302	  x8:0x00000000 x20=0xfffffaea
       12155000	      1214	80005d18	02c3da63	bge	x7,x12,80005d4c	  x7:0x80009f28 x12:0x00000000
       12165000	      1215	80005d1c	06a53213	sltiu	x4,x10,106	 x10:0x00000001  x4=0x00000001
       12175000	      1216	80005d20	00a27bb3	and	x23,x4,x10	  x4:0x00000001 x10:0x00000001 x23=0x00000001
       12185000	      1217	80005d24	095ffb93	andi	x23,x31,149	 x31:0x00000001 x23=0x00000001
       12195000	      1218	80005d28	02ab7663	bgeu	x22,x10,80005d54	 x22:0x00000000 x10:0x00000001
       12205000	      1219	80005d2c	2e3404b7	lui	x9,0x2e340	  x9=0x2e340000
       12215000	      1220	80005d30	00f90db3	add	x27,x18,x15	 x18:0x475a92a9 x15:0x00000000 x27=0x475a92a9
       12225000	      1221	80005d34	01899793	slli	x15,x19,0x18	 x19:0x00000000 x15=0x00000000
       12235000	      1222	80005d38	347eff13	andi	x30,x29,839	 x29:0x00000000 x30=0x00000000
       12245000	      1223	80005d3c	05249863	bne	x9,x18,80005d8c	  x9:0x2e340000 x18:0x475a92a9
       12255000	      1224	00000000	00000013	addi	x0,x0,0	  x0:0x00000000
       12265000	      1225	80005d88	00000013	addi	x0,x0,0	  x0:0x00000000
       12275000	      1226	80005d8c	0109fab3	and	x21,x19,x16	 x19:0x00000000 x16:0x00000000 x21=0x00000000
       12285000	      1227	80005d90	88f63213	sltiu	x4,x12,-1905	 x12:0x00000000  x4=0x00000001
       12295000	      1228	80005d94	3fdb7613	andi	x12,x22,1021	 x22:0x00000000 x12=0x00000000
       12305000	      1229	80005d98	02ce5063	bge	x28,x12,80005db8	 x28:0x80009fc4 x12:0x00000000
       12315000	      1230	80005d9c	00531663	bne	x6,x5,80005da8	  x6:0x00000210  x5:0x05ea3000
       12325000	      1231	00000000	00000013	addi	x0,x0,0	  x0:0x00000000
       12335000	      1232	80005da4	00000013	addi	x0,x0,0	  x0:0x00000000
       12345000	      1233	80005da8	003e8c63	beq	x29,x3,80005dc0	 x29:0x00000000  x3:0x00000001
       12355000	      1234	80005dac	000fda13	srli	x20,x31,0x0	 x31:0x00000001 x20=0x00000001
       12365000	      1235	80005db0	40b50633	sub	x12,x10,x11	 x10:0x00000001 x11:0xf4b6686d x12=0x0b499794
       12375000	      1236	80005db4	01a2cc63	blt	x5,x26,80005dcc	  x5:0x05ea3000 x26:0x00000000
       12385000	      1237	80005db8	372fa993	slti	x19,x31,882	 x31:0x00000001 x19=0x00000001
       12395000	      1238	80005dbc	40d458b3	sra	x17,x8,x13	  x8:0x00000000 x13:0x00000000 x17=0x00000000
       12405000	      1239	80005dc0	405adf33	sra	x30,x21,x5	 x21:0x00000000  x5:0x05ea3000 x30=0x00000000
       12415000	      1240	80005dc4	01833a33	sltu	x20,x6,x24	  x6:0x00000210 x24:0x00000000 x20=0x00000000
       12425000	      1241	80005dc8	03ea0263	beq	x20,x30,80005dec	 x20:0x00000000 x30:0x00000000
       12435000	      1242	00000000	00000013	addi	x0,x0,0	  x0:0x00000000
       12445000	      1243	80005de8	00000013	addi	x0,x0,0	  x0:0x00000000
       12455000	      1244	80005dec	05a6f663	bgeu	x13,x26,80005e38	 x13:0x00000000 x26:0x00000000
       12465000	      1245	00000000	00000013	addi	x0,x0,0	  x0:0x00000000
       12475000	      1246	80005e34	00000013	addi	x0,x0,0	  x0:0x00000000
       12485000	      1247	80005e38	6a31b293	sltiu	x5,x3,1699	  x3:0x00000001  x5=0x00000001
       12495000	      1248	80005e3c	e6427c93	andi	x25,x4,-412	  x4:0x00000001 x25=0x00000000
       12505000	      1249	80005e40	41948b33	sub	x22,x9,x25	  x9:0x2e340000 x25:0x00000000 x22=0x2e340000
       12515000	      1250	80005e44	01539833	sll	x16,x7,x21	  x7:0x80009f28 x21:0x00000000 x16=0x80009f28
       12525000	      1251	80005e48	010c5313	srli	x6,x24,0x10	 x24:0x00000000  x6=0x00000000
       12535000	      1252	80005e4c	00000013	addi	x0,x0,0	  x0:0x00000000
       12545000	      1253	80005e50	01ae1ab3	sll	x21,x28,x26	 x28:0x80009fc4 x26:0x00000000 x21=0x80009fc4
       12555000	      1254	80005e54	9e6acd93	xori	x27,x21,-1562	 x21:0x80009fc4 x27=0x7fff6622
       12565000	      1255	80005e58	01bb9a33	sll	x20,x23,x27	 x23:0x00000001 x27:0x7fff6622 x20=0x00000004
       12575000	      1256	80005e5c	4140d313	srai	x6,x1,0x14	  x1:0x00000001  x6=0x00000000
       12585000	      1257	80005e60	aeb5b193	sltiu	x3,x11,-1301	 x11:0xf4b6686d  x3=0x00000001
       12595000	      1258	80005e64	00000013	addi	x0,x0,0	  x0:0x00000000
       12605000	      1259	80005e68	01688ab3	add	x21,x17,x22	 x17:0x00000000 x22:0x2e340000 x21=0x2e340000
       12615000	      1260	80005e6c	04c3d263	bge	x7,x12,80005eb0	  x7:0x80009f28 x12:0x0b499794
       12625000	      1261	80005e70	001a4c63	blt	x20,x1,80005e88	 x20:0x00000004  x1:0x00000001
       12635000	      1262	80005e74	00dab2b3	sltu	x5,x21,x13	 x21:0x2e340000 x13:0x00000000  x5=0x00000000
       12645000	      1263	80005e78	64e66193	ori	x3,x12,1614	 x12:0x0b499794  x3=0x0b4997de
       12655000	      1264	80005e7c	40b9d093	srai	x1,x19,0xb	 x19:0x00000001  x1=0x00000000
       12665000	      1265	80005e80	03099663	bne	x19,x16,80005eac	 x19:0x00000001 x16:0x80009f28
       12675000	      1266	00000000	00000013	addi	x0,x0,0	  x0:0x00000000
       12685000	      1267	80005ea8	00000013	addi	x0,x0,0	  x0:0x00000000
       12695000	      1268	80005eac	015d9ab3	sll	x21,x27,x21	 x27:0x7fff6622 x21:0x2e340000 x21=0x7fff6622
       12705000	      1269	80005eb0	055dd663	bge	x27,x21,80005efc	 x27:0x7fff6622 x21:0x7fff6622
       12715000	      1270	00000000	00000013	addi	x0,x0,0	  x0:0x00000000
       12725000	      1271	80005ef8	00000013	addi	x0,x0,0	  x0:0x00000000
       12735000	      1272	80005efc	e2fb3417	auipc	x8,0xe2fb3	  x8=0x62fb8ef8
       12745000	      1273	80005f00	01d8c263	blt	x17,x29,80005f04	 x17:0x00000000 x29:0x00000000
       12755000	      1274	80005f04	00000013	addi	x0,x0,0	  x0:0x00000000
       12765000	      1275	80005f08	01e75993	srli	x19,x14,0x1e	 x14:0x00000000 x19=0x00000000
       12775000	      1276	80005f0c	00000013	addi	x0,x0,0	  x0:0x00000000
       12785000	      1277	80005f10	01a088b3	add	x17,x1,x26	  x1:0x00000000 x26:0x00000000 x17=0x00000000
       12795000	      1278	80005f14	011efab3	and	x21,x29,x17	 x29:0x00000000 x17:0x00000000 x21=0x00000000
       12805000	      1279	80005f18	000b1433	sll	x8,x22,x0	 x22:0x2e340000  x0:0x00000000  x8=0x2e340000
       12815000	      1280	80005f1c	41835a33	sra	x20,x6,x24	  x6:0x00000000 x24:0x00000000 x20=0x00000000
       12825000	      1281	80005f20	05fec693	xori	x13,x29,95	 x29:0x00000000 x13=0x0000005f
       12835000	      1282	80005f24	ff3ee513	ori	x10,x29,-13	 x29:0x00000000 x10=0xfffffff3
       12845000	      1283	80005f28	b616c693	xori	x13,x13,-1183	 x13:0x0000005f x13=0xfffffb3e
       12855000	      1284	80005f2c	00000013	addi	x0,x0,0	  x0:0x00000000
       12865000	      1285	80005f30	00ad9fb3	sll	x31,x27,x10	 x27:0x7fff6622 x10:0xfffffff3 x31=0x31100000
       12875000	      1286	80005f34	01cb4733	xor	x14,x22,x28	 x22:0x2e340000 x28:0x80009fc4 x14=0xae349fc4
       12885000	      1287	80005f38	416284b3	sub	x9,x5,x22	  x5:0x00000000 x22:0x2e340000  x9=0xd1cc0000
       12895000	      1288	80005f3c	0bcd3f17	auipc	x30,0xbcd3	 x30=0x8bcd8f38
       12905000	      1289	80005f40	0433f463	bgeu	x7,x3,80005f88	  x7:0x80009f28  x3:0x0b4997de
       12915000	      1290	00000000	00000013	addi	x0,x0,0	  x0:0x00000000
       12925000	      1291	80005f84	00000013	addi	x0,x0,0	  x0:0x00000000
       12935000	      1292	80005f88	0ee94893	xori	x17,x18,238	 x18:0x475a92a9 x17=0x475a9247
       12945000	      1293	80005f8c	003f1c63	bne	x30,x3,80005fa4	 x30:0x8bcd8f38  x3:0x0b4997de
       12955000	      1294	00000000	00000013	addi	x0,x0,0	  x0:0x00000000
       12965000	      1295	80005fa0	00000013	addi	x0,x0,0	  x0:0x00000000
       12975000	      1296	80005fa4	010b9693	slli	x13,x23,0x10	 x23:0x00000001 x13=0x00010000
       12985000	      1297	80005fa8	01d32bb3	slt	x23,x6,x29	  x6:0x00000000 x29:0x00000000 x23=0x00000000
       12995000	      1298	80005fac	bd3d4813	xori	x16,x26,-1069	 x26:0x00000000 x16=0xfffffbd3
       13005000	      1299	80005fb0	00000013	addi	x0,x0,0	  x0:0x00000000
       13015000	      1300	80005fb4	8fa7fb93	andi	x23,x15,-1798	 x15:0x00000000 x23=0x00000000
       13025000	      1301	80005fb8	481e3a13	sltiu	x20,x28,1153	 x28:0x80009fc4 x20=0x00000000
       13035000	      1302	80005fbc	501c6f13	ori	x30,x24,1281	 x24:0x00000000 x30=0x00000501
       13045000	      1303	80005fc0	997b3493	sltiu	x9,x22,-1641	 x22:0x2e340000  x9=0x00000001
       13055000	      1304	80005fc4	11521263	bne	x4,x21,800060c8	  x4:0x00000001 x21:0x00000000
       13065000	      1305	00000000	00000013	addi	x0,x0,0	  x0:0x00000000
       13075000	      1306	800060c4	00000013	addi	x0,x0,0	  x0:0x00000000
       13085000	      1307	800060c8	01192bb3	slt	x23,x18,x17	 x18:0x475a92a9 x17:0x475a9247 x23=0x00000000
       13095000	      1308	800060cc	01986a33	or	x20,x16,x25	 x16:0xfffffbd3 x25:0x00000000 x20=0xfffffbd3
       13105000	      1309	800060d0	08b60493	addi	x9,x12,139	 x12:0x0b499794  x9=0x0b49981f
       13115000	      1310	800060d4	00c85bb3	srl	x23,x16,x12	 x16:0xfffffbd3 x12:0x0b499794 x23=0x00000fff
       13125000	      1311	800060d8	0056e733	or	x14,x13,x5	 x13:0x00010000  x5:0x00000000 x14=0x00010000
       13135000	      1312	800060dc	01c6a1b3	slt	x3,x13,x28	 x13:0x00010000 x28:0x80009fc4  x3=0x00000000
       13145000	      1313	800060e0	009b7b33	and	x22,x22,x9	 x22:0x2e340000  x9:0x0b49981f x22=0x0a000000
       13155000	      1314	800060e4	01935263	bge	x6,x25,800060e8	  x6:0x00000000 x25:0x00000000
       13165000	      1315	00000000	00000013	addi	x0,x0,0	  x0:0x00000000
       13175000	      1316	800060e4	00000013	addi	x0,x0,0	  x0:0x00000000
       13185000	      1317	800060e8	01ec5c93	srli	x25,x24,0x1e	 x24:0x00000000 x25=0x00000000
       13195000	      1318	800060ec	02a15063	bge	x2,x10,8000610c	  x2:0x80008eb8 x10:0xfffffff3
       13205000	      1319	800060f0	00085893	srli	x17,x16,0x0	 x16:0xfffffbd3 x17=0xfffffbd3
       13215000	      1320	800060f4	00fc76b3	and	x13,x24,x15	 x24:0x00000000 x15:0x00000000 x13=0x00000000
       13225000	      1321	800060f8	b1618513	addi	x10,x3,-1258	  x3:0x00000000 x10=0xfffffb16
       13235000	      1322	800060fc	39410413	addi	x8,x2,916	  x2:0x80008eb8  x8=0x8000924c
       13245000	      1323	80006100	00788cb3	add	x25,x17,x7	 x17:0xfffffbd3  x7:0x80009f28 x25=0x80009afb
       13255000	      1324	80006104	018c59b3	srl	x19,x24,x24	 x24:0x00000000 x24:0x00000000 x19=0x00000000
       13265000	      1325	80006108	00276c63	bltu	x14,x2,80006120	 x14:0x00010000  x2:0x80008eb8
       13275000	      1326	00000000	00000013	addi	x0,x0,0	  x0:0x00000000
       13285000	      1327	8000611c	00000013	addi	x0,x0,0	  x0:0x00000000
       13295000	      1328	80006120	052a6063	bltu	x20,x18,80006160	 x20:0xfffffbd3 x18:0x475a92a9
       13305000	      1329	80006124	01e79993	slli	x19,x15,0x1e	 x15:0x00000000 x19=0x00000000
       13315000	      1330	80006128	01676133	or	x2,x14,x22	 x14:0x00010000 x22:0x0a000000  x2=0x0a010000
       13325000	      1331	8000612c	7d037513	andi	x10,x6,2000	  x6:0x00000000 x10=0x00000000
       13335000	      1332	80006130	00da94b3	sll	x9,x21,x13	 x21:0x00000000 x13:0x00000000  x9=0x00000000
       13345000	      1333	80006134	41f55ab3	sra	x21,x10,x31	 x10:0x00000000 x31:0x31100000 x21=0x00000000
       13355000	      1334	80006138	73206793	ori	x15,x0,1842	  x0:0x00000000 x15=0x00000732
       13365000	      1335	8000613c	02231463	bne	x6,x2,80006164	  x6:0x00000000  x2:0x0a010000
       13375000	      1336	00000000	00000013	addi	x0,x0,0	  x0:0x00000000
       13385000	      1337	80006160	00000013	addi	x0,x0,0	  x0:0x00000000
       13395000	      1338	80006164	00d39b13	slli	x22,x7,0xd	  x7:0x80009f28 x22=0x13e50000
       13405000	      1339	80006168	04a25463	bge	x4,x10,800061b0	  x4:0x00000001 x10:0x00000000
       13415000	      1340	00000000	00000013	addi	x0,x0,0	  x0:0x00000000
       13425000	      1341	800061ac	00000013	addi	x0,x0,0	  x0:0x00000000
       13435000	      1342	800061b0	03e08263	beq	x1,x30,800061d4	  x1:0x00000000 x30:0x00000501
       13445000	      1343	800061b4	4113da13	srai	x20,x7,0x11	  x7:0x80009f28 x20=0xffffc000
       13455000	      1344	800061b8	40fd0133	sub	x2,x26,x15	 x26:0x00000000 x15:0x00000732  x2=0xfffff8ce
       13465000	      1345	800061bc	014e37b3	sltu	x15,x28,x20	 x28:0x80009fc4 x20:0xffffc000 x15=0x00000001
       13475000	      1346	800061c0	f3732e93	slti	x29,x6,-201	  x6:0x00000000 x29=0x00000000
       13485000	      1347	800061c4	c1b0fe93	andi	x29,x1,-997	  x1:0x00000000 x29=0x00000000
       13495000	      1348	800061c8	00525263	bge	x4,x5,800061cc	  x4:0x00000001  x5:0x00000000
       13505000	      1349	00000000	00000013	addi	x0,x0,0	  x0:0x00000000
       13515000	      1350	800061c8	00000013	addi	x0,x0,0	  x0:0x00000000
       13525000	      1351	800061cc	00c54663	blt	x10,x12,800061d8	 x10:0x00000000 x12:0x0b499794
       13535000	      1352	00000000	00000013	addi	x0,x0,0	  x0:0x00000000
       13545000	      1353	800061d4	00000013	addi	x0,x0,0	  x0:0x00000000
       13555000	      1354	800061d8	3be30c17	auipc	x24,0x3be30	 x24=0xbbe361d4
       13565000	      1355	800061dc	03d48263	beq	x9,x29,80006200	  x9:0x00000000 x29:0x00000000
       13575000	      1356	00000000	00000013	addi	x0,x0,0	  x0:0x00000000
       13585000	      1357	800061fc	00000013	addi	x0,x0,0	  x0:0x00000000
       13595000	      1358	80006200	c1501317	auipc	x6,0xc1501	  x6=0x415071fc
       13605000	      1359	80006204	8d0afdb7	lui	x27,0x8d0af	 x27=0x8d0af000
       13615000	      1360	80006208	9ffde8b7	lui	x17,0x9ffde	 x17=0x9ffde000
       13625000	      1361	8000620c	00089263	bne	x17,x0,80006210	 x17:0x9ffde000  x0:0x00000000
       13635000	      1362	00000000	00000013	addi	x0,x0,0	  x0:0x00000000
       13645000	      1363	8000620c	00000013	addi	x0,x0,0	  x0:0x00000000
       13655000	      1364	80006210	b0163d93	sltiu	x27,x12,-1279	 x12:0x0b499794 x27=0x00000001
       13665000	      1365	80006214	006c79b3	and	x19,x24,x6	 x24:0xbbe361d4  x6:0x415071fc x19=0x014061d4
       13675000	      1366	80006218	7e92a993	slti	x19,x5,2025	  x5:0x00000000 x19=0x00000001
       13685000	      1367	8000621c	03afd263	bge	x31,x26,80006240	 x31:0x31100000 x26:0x00000000
       13695000	      1368	00000000	00000013	addi	x0,x0,0	  x0:0x00000000
       13705000	      1369	8000623c	00000013	addi	x0,x0,0	  x0:0x00000000
       13715000	      1370	80006240	d7a7c793	xori	x15,x15,-646	 x15:0x00000001 x15=0xfffffd7b
       13725000	      1371	80006244	40dc8233	sub	x4,x25,x13	 x25:0x80009afb x13:0x00000000  x4=0x80009afb
       13735000	      1372	80006248	4197d533	sra	x10,x15,x25	 x15:0xfffffd7b x25:0x80009afb x10=0xffffffff
       13745000	      1373	8000624c	017e6f33	or	x30,x28,x23	 x28:0x80009fc4 x23:0x00000fff x30=0x80009fff
       13755000	      1374	80006250	008b37b3	sltu	x15,x22,x8	 x22:0x13e50000  x8:0x8000924c x15=0x00000001
       13765000	      1375	80006254	01bfbdb3	sltu	x27,x31,x27	 x31:0x31100000 x27:0x00000001 x27=0x00000000
       13775000	      1376	80006258	00a85eb3	srl	x29,x16,x10	 x16:0xfffffbd3 x10:0xffffffff x29=0x00000001
       13785000	      1377	8000625c	00d3de63	bge	x7,x13,80006278	  x7:0x80009f28 x13:0x00000000
       13795000	      1378	80006260	01041893	slli	x17,x8,0x10	  x8:0x8000924c x17=0x924c0000
       13805000	      1379	80006264	003a9313	slli	x6,x21,0x3	 x21:0x00000000  x6=0x00000000
       13815000	      1380	80006268	05a8f863	bgeu	x17,x26,800062b8	 x17:0x924c0000 x26:0x00000000
       13825000	      1381	00000000	00000013	addi	x0,x0,0	  x0:0x00000000
       13835000	      1382	800062b4	00000013	addi	x0,x0,0	  x0:0x00000000
       13845000	      1383	800062b8	8a742493	slti	x9,x8,-1881	  x8:0x8000924c  x9=0x00000001
       13855000	      1384	800062bc	0291da63	bge	x3,x9,800062f0	  x3:0x00000000  x9:0x00000001
       13865000	      1385	800062c0	41250433	sub	x8,x10,x18	 x10:0xffffffff x18:0x475a92a9  x8=0xb8a56d56
       13875000	      1386	800062c4	00f5d7b3	srl	x15,x11,x15	 x11:0xf4b6686d x15:0x00000001 x15=0x7a5b3436
       13885000	      1387	800062c8	013b0a63	beq	x22,x19,800062dc	 x22:0x13e50000 x19:0x00000001
       13895000	      1388	800062cc	002f9b93	slli	x23,x31,0x2	 x31:0x31100000 x23=0xc4400000
       13905000	      1389	800062d0	40d45b33	sra	x22,x8,x13	  x8:0xb8a56d56 x13:0x00000000 x22=0xb8a56d56
       13915000	      1390	800062d4	187cd2b7	lui	x5,0x187cd	  x5=0x187cd000
       13925000	      1391	800062d8	eb4f0b93	addi	x23,x30,-332	 x30:0x80009fff x23=0x80009eb3
       13935000	      1392	800062dc	013eec63	bltu	x29,x19,800062f4	 x29:0x00000001 x19:0x00000001
       13945000	      1393	800062e0	0122f333	and	x6,x5,x18	  x5:0x187cd000 x18:0x475a92a9  x6=0x00589000
       13955000	      1394	800062e4	00000013	addi	x0,x0,0	  x0:0x00000000
       13965000	      1395	800062e8	9d5e3493	sltiu	x9,x28,-1579	 x28:0x80009fc4  x9=0x00000001
       13975000	      1396	800062ec	017094b3	sll	x9,x1,x23	  x1:0x00000000 x23:0x80009eb3  x9=0x00000000
       13985000	      1397	800062f0	40ca5693	srai	x13,x20,0xc	 x20:0xffffc000 x13=0xfffffffc
       13995000	      1398	800062f4	23986237	lui	x4,0x23986	  x4=0x23986000
       14005000	      1399	800062f8	00845b13	srli	x22,x8,0x8	  x8:0xb8a56d56 x22=0x00b8a56d
       14015000	      1400	800062fc	05e19863	bne	x3,x30,8000634c	  x3:0x00000000 x30:0x80009fff
       14025000	      1401	00000000	00000013	addi	x0,x0,0	  x0:0x00000000
       14035000	      1402	80006348	00000013	addi	x0,x0,0	  x0:0x00000000
       14045000	      1403	8000634c	4b4b6713	ori	x14,x22,1204	 x22:0x00b8a56d x14=0x00b8a5fd
       14055000	      1404	80006350	01138c63	beq	x7,x17,80006368	  x7:0x80009f28 x17:0x924c0000
       14065000	      1405	80006354	0194dd33	srl	x26,x9,x25	  x9:0x00000000 x25:0x80009afb x26=0x00000000
       14075000	      1406	80006358	2fcf2f13	slti	x30,x30,764	 x30:0x80009fff x30=0x00000001
       14085000	      1407	8000635c	41efd8b3	sra	x17,x31,x30	 x31:0x31100000 x30:0x00000001 x17=0x18880000
       14095000	      1408	80006360	404d51b3	sra	x3,x26,x4	 x26:0x00000000  x4:0x23986000  x3=0x00000000
       14105000	      1409	80006364	00efda13	srli	x20,x31,0xe	 x31:0x31100000 x20=0x0000c440
       14115000	      1410	80006368	01b92233	slt	x4,x18,x27	 x18:0x475a92a9 x27:0x00000000  x4=0x00000000
       14125000	      1411	8000636c	01e19263	bne	x3,x30,80006370	  x3:0x00000000 x30:0x00000001
       14135000	      1412	00000000	00000013	addi	x0,x0,0	  x0:0x00000000
       14145000	      1413	8000636c	00000013	addi	x0,x0,0	  x0:0x00000000
       14155000	      1414	80006370	00409f33	sll	x30,x1,x4	  x1:0x00000000  x4:0x00000000 x30=0x00000000
       14165000	      1415	80006374	5dd9bb13	sltiu	x22,x19,1501	 x19:0x00000001 x22=0x00000001
       14175000	      1416	80006378	019148b3	xor	x17,x2,x25	  x2:0xfffff8ce x25:0x80009afb x17=0x7fff6235
       14185000	      1417	8000637c	00b1e833	or	x16,x3,x11	  x3:0x00000000 x11:0xf4b6686d x16=0xf4b6686d
       14195000	      1418	80006380	031f4863	blt	x30,x17,800063b0	 x30:0x00000000 x17:0x7fff6235
       14205000	      1419	00000000	00000013	addi	x0,x0,0	  x0:0x00000000
       14215000	      1420	800063ac	00000013	addi	x0,x0,0	  x0:0x00000000
       14225000	      1421	800063b0	1e674d93	xori	x27,x14,486	 x14:0x00b8a5fd x27=0x00b8a41b
       14235000	      1422	800063b4	a1e07217	auipc	x4,0xa1e07	  x4=0x21e0d3b0
       14245000	      1423	800063b8	003e4333	xor	x6,x28,x3	 x28:0x80009fc4  x3:0x00000000  x6=0x80009fc4
       14255000	      1424	800063bc	07b06293	ori	x5,x0,123	  x0:0x00000000  x5=0x0000007b
       14265000	      1425	800063c0	4029d2b3	sra	x5,x19,x2	 x19:0x00000001  x2:0xfffff8ce  x5=0x00000000
       14275000	      1426	800063c4	41635d93	srai	x27,x6,0x16	  x6:0x80009fc4 x27=0xfffffe00
       14285000	      1427	800063c8	41c1d713	srai	x14,x3,0x1c	  x3:0x00000000 x14=0x00000000
       14295000	      1428	800063cc	05206063	bltu	x0,x18,8000640c	  x0:0x00000000 x18:0x475a92a9
       14305000	      1429	00000000	00000013	addi	x0,x0,0	  x0:0x00000000
       14315000	      1430	80006408	00000013	addi	x0,x0,0	  x0:0x00000000
       14325000	      1431	8000640c	009ef8b3	and	x17,x29,x9	 x29:0x00000001  x9:0x00000000 x17=0x00000000
       14335000	      1432	80006410	01327b33	and	x22,x4,x19	  x4:0x21e0d3b0 x19:0x00000001 x22=0x00000000
       14345000	      1433	80006414	01345313	srli	x6,x8,0x13	  x8:0xb8a56d56  x6=0x00001714
       14355000	      1434	80006418	00000013	addi	x0,x0,0	  x0:0x00000000
       14365000	      1435	8000641c	7e563a93	sltiu	x21,x12,2021	 x12:0x0b499794 x21=0x00000000
       14375000	      1436	80006420	441e8513	addi	x10,x29,1089	 x29:0x00000001 x10=0x00000442
       14385000	      1437	80006424	f3a996b7	lui	x13,0xf3a99	 x13=0xf3a99000
       14395000	      1438	80006428	01335333	srl	x6,x6,x19	  x6:0x00001714 x19:0x00000001  x6=0x00000b8a
       14405000	      1439	8000642c	00619fb3	sll	x31,x3,x6	  x3:0x00000000  x6:0x00000b8a x31=0x00000000
       14415000	      1440	80006430	035be663	bltu	x23,x21,8000645c	 x23:0x80009eb3 x21:0x00000000
       14425000	      1441	80006434	00b4dd33	srl	x26,x9,x11	  x9:0x00000000 x11:0xf4b6686d x26=0x00000000
       14435000	      1442	80006438	01b4e733	or	x14,x9,x27	  x9:0x00000000 x27:0xfffffe00 x14=0xfffffe00
       14445000	      1443	8000643c	00000013	addi	x0,x0,0	  x0:0x00000000
       14455000	      1444	80006440	01a171b3	and	x3,x2,x26	  x2:0xfffff8ce x26:0x00000000  x3=0x00000000
       14465000	      1445	80006444	03f0d463	bge	x1,x31,8000646c	  x1:0x00000000 x31:0x00000000
       14475000	      1446	00000000	00000013	addi	x0,x0,0	  x0:0x00000000
       14485000	      1447	80006468	00000013	addi	x0,x0,0	  x0:0x00000000
       14495000	      1448	8000646c	ed88b893	sltiu	x17,x17,-296	 x17:0x00000000 x17=0x00000001
       14505000	      1449	80006470	03b87663	bgeu	x16,x27,8000649c	 x16:0xf4b6686d x27:0xfffffe00
       14515000	      1450	80006474	c5eb2193	slti	x3,x22,-930	 x22:0x00000000  x3=0x00000000
       14525000	      1451	80006478	4093d813	srai	x16,x7,0x9	  x7:0x80009f28 x16=0xffc0004f
       14535000	      1452	8000647c	41615833	sra	x16,x2,x22	  x2:0xfffff8ce x22:0x00000000 x16=0xfffff8ce
       14545000	      1453	80006480	c35d7693	andi	x13,x26,-971	 x26:0x00000000 x13=0x00000000
       14555000	      1454	80006484	00ee0333	add	x6,x28,x14	 x28:0x80009fc4 x14:0xfffffe00  x6=0x80009dc4
       14565000	      1455	80006488	00000013	addi	x0,x0,0	  x0:0x00000000
       14575000	      1456	8000648c	019d1c63	bne	x26,x25,800064a4	 x26:0x00000000 x25:0x80009afb
       14585000	      1457	00000000	00000013	addi	x0,x0,0	  x0:0x00000000
       14595000	      1458	800064a0	00000013	addi	x0,x0,0	  x0:0x00000000
       14605000	      1459	800064a4	cbfa0793	addi	x15,x20,-833	 x20:0x0000c440 x15=0x0000c0ff
       14615000	      1460	800064a8	2df72d93	slti	x27,x14,735	 x14:0xfffffe00 x27=0x00000001
       14625000	      1461	800064ac	377cff93	andi	x31,x25,887	 x25:0x80009afb x31=0x00000273
       14635000	      1462	800064b0	a2a83093	sltiu	x1,x16,-1494	 x16:0xfffff8ce  x1=0x00000001
       14645000	      1463	800064b4	0087ca63	blt	x15,x8,800064c8	 x15:0x0000c0ff  x8:0xb8a56d56
       14655000	      1464	800064b8	011c1d33	sll	x26,x24,x17	 x24:0xbbe361d4 x17:0x00000001 x26=0x77c6c3a8
       14665000	      1465	800064bc	405adc13	srai	x24,x21,0x5	 x21:0x00000000 x24=0x00000000
       14675000	      1466	800064c0	01043eb3	sltu	x29,x8,x16	  x8:0xb8a56d56 x16:0xfffff8ce x29=0x00000001
       14685000	      1467	800064c4	0161b433	sltu	x8,x3,x22	  x3:0x00000000 x22:0x00000000  x8=0x00000000
       14695000	      1468	800064c8	016ff8b3	and	x17,x31,x22	 x31:0x00000273 x22:0x00000000 x17=0x00000000
       14705000	      1469	800064cc	0105d663	bge	x11,x16,800064d8	 x11:0xf4b6686d x16:0xfffff8ce
       14715000	      1470	800064d0	03c29a63	bne	x5,x28,80006504	  x5:0x00000000 x28:0x80009fc4
       14725000	      1471	00000000	00000013	addi	x0,x0,0	  x0:0x00000000
       14735000	      1472	80006500	00000013	addi	x0,x0,0	  x0:0x00000000
       14745000	      1473	80006504	5fe47513	andi	x10,x8,1534	  x8:0x00000000 x10=0x00000000
       14755000	      1474	80006508	00000013	addi	x0,x0,0	  x0:0x00000000
       14765000	      1475	8000650c	0303d263	bge	x7,x16,80006530	  x7:0x80009f28 x16:0xfffff8ce
       14775000	      1476	80006510	00793a33	sltu	x20,x18,x7	 x18:0x475a92a9  x7:0x80009f28 x20=0x00000001
       14785000	      1477	80006514	759a8793	addi	x15,x21,1881	 x21:0x00000000 x15=0x00000759
       14795000	      1478	80006518	dcfa3b17	auipc	x22,0xdcfa3	 x22=0x5cfa9514
       14805000	      1479	8000651c	8a8c6c13	ori	x24,x24,-1880	 x24:0x00000000 x24=0xfffff8a8
       14815000	      1480	80006520	00000013	addi	x0,x0,0	  x0:0x00000000
       14825000	      1481	80006524	40e5deb3	sra	x29,x11,x14	 x11:0xf4b6686d x14:0xfffffe00 x29=0xf4b6686d
       14835000	      1482	80006528	03f47063	bgeu	x8,x31,80006548	  x8:0x00000000 x31:0x00000273
       14845000	      1483	8000652c	0303f063	bgeu	x7,x16,8000654c	  x7:0x80009f28 x16:0xfffff8ce
       14855000	      1484	80006530	da2ec893	xori	x17,x29,-606	 x29:0xf4b6686d x17=0x0b4995cf
       14865000	      1485	80006534	01623db3	sltu	x27,x4,x22	  x4:0x21e0d3b0 x22:0x5cfa9514 x27=0x00000001
       14875000	      1486	80006538	40438f33	sub	x30,x7,x4	  x7:0x80009f28  x4:0x21e0d3b0 x30=0x5e1fcb78
       14885000	      1487	8000653c	05f67263	bgeu	x12,x31,80006580	 x12:0x0b499794 x31:0x00000273
       14895000	      1488	00000000	00000013	addi	x0,x0,0	  x0:0x00000000
       14905000	      1489	8000657c	00000013	addi	x0,x0,0	  x0:0x00000000
       14915000	      1490	80006580	856ec893	xori	x17,x29,-1962	 x29:0xf4b6686d x17=0x0b49903b
       14925000	      1491	80006584	411707b3	sub	x15,x14,x17	 x14:0xfffffe00 x17:0x0b49903b x15=0xf4b66dc5
       14935000	      1492	80006588	00814c63	blt	x2,x8,800065a0	  x2:0xfffff8ce  x8:0x00000000
       14945000	      1493	00000000	00000013	addi	x0,x0,0	  x0:0x00000000
       14955000	      1494	8000659c	00000013	addi	x0,x0,0	  x0:0x00000000
       14965000	      1495	800065a0	01eacf93	xori	x31,x21,30	 x21:0x00000000 x31=0x0000001e
       14975000	      1496	800065a4	0036f733	and	x14,x13,x3	 x13:0x00000000  x3:0x00000000 x14=0x00000000
       14985000	      1497	800065a8	4f323437	lui	x8,0x4f323	  x8=0x4f323000
       14995000	      1498	800065ac	01ea5993	srli	x19,x20,0x1e	 x20:0x00000001 x19=0x00000000
       15005000	      1499	800065b0	01bd0a63	beq	x26,x27,800065c4	 x26:0x77c6c3a8 x27:0x00000001
       15015000	      1500	800065b4	412bd133	sra	x2,x23,x18	 x23:0x80009eb3 x18:0x475a92a9  x2=0xffc0004f
       15025000	      1501	800065b8	004c1213	slli	x4,x24,0x4	 x24:0xfffff8a8  x4=0xffff8a80
       15035000	      1502	800065bc	00519b93	slli	x23,x3,0x5	  x3:0x00000000 x23=0x00000000
       15045000	      1503	800065c0	3bf277b7	lui	x15,0x3bf27	 x15=0x3bf27000
       15055000	      1504	800065c4	00000013	addi	x0,x0,0	  x0:0x00000000
       15065000	      1505	800065c8	00000013	addi	x0,x0,0	  x0:0x00000000
       15075000	      1506	800065cc	055ae063	bltu	x21,x21,8000660c	 x21:0x00000000 x21:0x00000000
       15085000	      1507	800065d0	7a402413	slti	x8,x0,1956	  x0:0x00000000  x8=0x00000001
       15095000	      1508	800065d4	36746f93	ori	x31,x8,871	  x8:0x00000001 x31=0x00000367
       15105000	      1509	800065d8	00e36833	or	x16,x6,x14	  x6:0x80009dc4 x14:0x00000000 x16=0x80009dc4
       15115000	      1510	800065dc	01cbc6b3	xor	x13,x23,x28	 x23:0x00000000 x28:0x80009fc4 x13=0x80009fc4
       15125000	      1511	800065e0	01889f93	slli	x31,x17,0x18	 x17:0x0b49903b x31=0x3b000000
       15135000	      1512	800065e4	282b2d17	auipc	x26,0x282b2	 x26=0xa82b85e0
       15145000	      1513	800065e8	0142aa33	slt	x20,x5,x20	  x5:0x00000000 x20:0x00000001 x20=0x00000001
       15155000	      1514	800065ec	01a79b33	sll	x22,x15,x26	 x15:0x3bf27000 x26:0xa82b85e0 x22=0x3bf27000
       15165000	      1515	800065f0	00d7e1b3	or	x3,x15,x13	 x15:0x3bf27000 x13:0x80009fc4  x3=0xbbf2ffc4
       15175000	      1516	800065f4	018fe263	bltu	x31,x24,800065f8	 x31:0x3b000000 x24:0xfffff8a8
       15185000	      1517	00000000	00000013	addi	x0,x0,0	  x0:0x00000000
       15195000	      1518	800065f4	00000013	addi	x0,x0,0	  x0:0x00000000
       15205000	      1519	800065f8	00000013	addi	x0,x0,0	  x0:0x00000000
       15215000	      1520	800065fc	412bdbb3	sra	x23,x23,x18	 x23:0x00000000 x18:0x475a92a9 x23=0x00000000
       15225000	      1521	80006600	018c0cb3	add	x25,x24,x24	 x24:0xfffff8a8 x24:0xfffff8a8 x25=0xfffff150
       15235000	      1522	80006604	016465b3	or	x11,x8,x22	  x8:0x00000001 x22:0x3bf27000 x11=0x3bf27001
       15245000	      1523	80006608	a4230413	addi	x8,x6,-1470	  x6:0x80009dc4  x8=0x80009806
       15255000	      1524	8000660c	409ade93	srai	x29,x21,0x9	 x21:0x00000000 x29=0x00000000
       15265000	      1525	80006610	726fb413	sltiu	x8,x31,1830	 x31:0x3b000000  x8=0x00000000
       15275000	      1526	80006614	00aad213	srli	x4,x21,0xa	 x21:0x00000000  x4=0x00000000
       15285000	      1527	80006618	f7a4e193	ori	x3,x9,-134	  x9:0x00000000  x3=0xffffff7a
       15295000	      1528	8000661c	00000013	addi	x0,x0,0	  x0:0x00000000
       15305000	      1529	80006620	3dbab193	sltiu	x3,x21,987	 x21:0x00000000  x3=0x00000001
       15315000	      1530	80006624	044fe663	bltu	x31,x4,80006670	 x31:0x3b000000  x4:0x00000000
       15325000	      1531	80006628	05178863	beq	x15,x17,80006678	 x15:0x3bf27000 x17:0x0b49903b
       15335000	      1532	8000662c	6c848a13	addi	x20,x9,1736	  x9:0x00000000 x20=0x000006c8
       15345000	      1533	80006630	40075693	srai	x13,x14,0x0	 x14:0x00000000 x13=0x00000000
       15355000	      1534	80006634	9a040897	auipc	x17,0x9a040	 x17=0x1a046630
       15365000	      1535	80006638	00c99db3	sll	x27,x19,x12	 x19:0x00000000 x12:0x0b499794 x27=0x00000000
       15375000	      1536	8000663c	4050d1b3	sra	x3,x1,x5	  x1:0x00000001  x5:0x00000000  x3=0x00000001
       15385000	      1537	80006640	00dff533	and	x10,x31,x13	 x31:0x3b000000 x13:0x00000000 x10=0x00000000
       15395000	      1538	80006644	01bf5c63	bge	x30,x27,8000665c	 x30:0x5e1fcb78 x27:0x00000000
       15405000	      1539	00000000	00000013	addi	x0,x0,0	  x0:0x00000000
       15415000	      1540	80006658	00000013	addi	x0,x0,0	  x0:0x00000000
       15425000	      1541	8000665c	02b75263	bge	x14,x11,80006680	 x14:0x00000000 x11:0x3bf27001
       15435000	      1542	80006660	5f44a313	slti	x6,x9,1524	  x9:0x00000000  x6=0x00000001
       15445000	      1543	80006664	40d2d633	sra	x12,x5,x13	  x5:0x00000000 x13:0x00000000 x12=0x00000000
       15455000	      1544	80006668	b4132197	auipc	x3,0xb4132	  x3=0x34138664
       15465000	      1545	8000666c	00423c33	sltu	x24,x4,x4	  x4:0x00000000  x4:0x00000000 x24=0x00000000
       15475000	      1546	80006670	01039513	slli	x10,x7,0x10	  x7:0x80009f28 x10=0x9f280000
       15485000	      1547	80006674	070fe593	ori	x11,x31,112	 x31:0x3b000000 x11=0x3b000070
       15495000	      1548	80006678	40e65d93	srai	x27,x12,0xe	 x12:0x00000000 x27=0x00000000
       15505000	      1549	8000667c	8e85e493	ori	x9,x11,-1816	 x11:0x3b000070  x9=0xfffff8f8
       15515000	      1550	80006680	006edeb3	srl	x29,x29,x6	 x29:0x00000000  x6:0x00000001 x29=0x00000000
       15525000	      1551	80006684	a302a713	slti	x14,x5,-1488	  x5:0x00000000 x14=0x00000000
       15535000	      1552	80006688	79c5a417	auipc	x8,0x79c5a	  x8=0xf9c60684
       15545000	      1553	8000668c	00af8c33	add	x24,x31,x10	 x31:0x3b000000 x10:0x9f280000 x24=0xda280000
       15555000	      1554	80006690	39657693	andi	x13,x10,918	 x10:0x9f280000 x13=0x00000000
       15565000	      1555	80006694	0191ca63	blt	x3,x25,800066a8	  x3:0x34138664 x25:0xfffff150
       15575000	      1556	80006698	b95dcd93	xori	x27,x27,-1131	 x27:0x00000000 x27=0xfffffb95
       15585000	      1557	8000669c	70a5a493	slti	x9,x11,1802	 x11:0x3b000070  x9=0x00000000
       15595000	      1558	800066a0	cd2afb93	andi	x23,x21,-814	 x21:0x00000000 x23=0x00000000
       15605000	      1559	800066a4	00ee5f33	srl	x30,x28,x14	 x28:0x80009fc4 x14:0x00000000 x30=0x80009fc4
       15615000	      1560	800066a8	01471663	bne	x14,x20,800066b4	 x14:0x00000000 x20:0x000006c8
       15625000	      1561	00000000	00000013	addi	x0,x0,0	  x0:0x00000000
       15635000	      1562	800066b0	00000013	addi	x0,x0,0	  x0:0x00000000
       15645000	      1563	800066b4	019ebfb3	sltu	x31,x29,x25	 x29:0x00000000 x25:0xfffff150 x31=0x00000001
       15655000	      1564	800066b8	058f4863	blt	x30,x24,80006708	 x30:0x80009fc4 x24:0xda280000
       15665000	      1565	00000000	00000013	addi	x0,x0,0	  x0:0x00000000
       15675000	      1566	80006704	00000013	addi	x0,x0,0	  x0:0x00000000
       15685000	      1567	80006708	003a5a13	srli	x20,x20,0x3	 x20:0x000006c8 x20=0x000000d9
       15695000	      1568	8000670c	008c6c63	bltu	x24,x8,80006724	 x24:0xda280000  x8:0xf9c60684
       15705000	      1569	00000000	00000013	addi	x0,x0,0	  x0:0x00000000
       15715000	      1570	80006720	00000013	addi	x0,x0,0	  x0:0x00000000
       15725000	      1571	80006724	0110b7b3	sltu	x15,x1,x17	  x1:0x00000001 x17:0x1a046630 x15=0x00000001
       15735000	      1572	80006728	996ec513	xori	x10,x29,-1642	 x29:0x00000000 x10=0xfffff996
       15745000	      1573	8000672c	0043a183	lw	x3,4(x7)	  x7:0x80009f28  x3=0x800069b4 PA:0x80009f2c
       15755000	      1574	80006730	4077db93	srai	x23,x15,0x7	 x15:0x00000001 x23=0x00000000
       15765000	      1575	80006734	00c61493	slli	x9,x12,0xc	 x12:0x00000000  x9=0x00000000
       15775000	      1576	80006738	03038393	addi	x7,x7,48	  x7:0x80009f28  x7=0x80009f58
       15785000	      1577	8000673c	41b35f33	sra	x30,x6,x27	  x6:0x00000001 x27:0xfffffb95 x30=0x00000000
       15795000	      1578	80006740	00118493	addi	x9,x3,1	  x3:0x800069b4  x9=0x800069b5
       15805000	      1579	80006744	000484e7	jalr	x9,x9,0	  x9:0x800069b5  x9=0x80006744
       15815000	      1580	00000000	00000013	addi	x0,x0,0	  x0:0x00000000
       15825000	      1581	800069b4	00000013	addi	x0,x0,0	  x0:0x00000000
       15835000	      1582	800069b8	3be5dab7	lui	x21,0x3be5d	 x21=0x3be5d000
       15845000	      1583	800069bc	8cca0197	auipc	x3,0x8cca0	  x3=0x0cca69b8
       15855000	      1584	800069c0	01c5adb3	slt	x27,x11,x28	 x11:0x3b000070 x28:0x80009fc4 x27=0x00000000
       15865000	      1585	800069c4	b26dc897	auipc	x17,0xb26dc	 x17=0x326e29c0
       15875000	      1586	800069c8	01a5e463	bltu	x11,x26,800069d0	 x11:0x3b000070 x26:0xa82b85e0
       15885000	      1587	00000000	00000013	addi	x0,x0,0	  x0:0x00000000
       15895000	      1588	800069cc	00000013	addi	x0,x0,0	  x0:0x00000000
       15905000	      1589	800069d0	d79ff1ef	jal	x3,800069d0	  x3=0x800069d0
       15915000	      1590	00000000	00000013	addi	x0,x0,0	  x0:0x00000000
       15925000	      1591	80006744	00000013	addi	x0,x0,0	  x0:0x00000000
       15935000	      1592	80006748	01c75863	bge	x14,x28,80006758	 x14:0x00000000 x28:0x80009fc4
       15945000	      1593	00000000	00000013	addi	x0,x0,0	  x0:0x00000000
       15955000	      1594	80006754	00000013	addi	x0,x0,0	  x0:0x00000000
       15965000	      1595	80006758	ff038393	addi	x7,x7,-16	  x7:0x80009f58  x7=0x80009f48
       15975000	      1596	8000675c	00cfa733	slt	x14,x31,x12	 x31:0x00000001 x12:0x00000000 x14=0x00000000
       15985000	      1597	80006760	0033a223	sw	x3,4(x7)	  x7:0x80009f48  x3:0x800069d0 PA:0x80009f4c
       15995000	      1598	80006764	dad50b93	addi	x23,x10,-595	 x10:0xfffff996 x23=0xfffff743
       16005000	      1599	80006768	0101d293	srli	x5,x3,0x10	  x3:0x800069d0  x5=0x00008000
       16015000	      1600	8000676c	00393cb3	sltu	x25,x18,x3	 x18:0x475a92a9  x3:0x800069d0 x25=0x00000001
       16025000	      1601	80006770	eb8b6d93	ori	x27,x22,-328	 x22:0x3bf27000 x27=0xfffffeb8
       16035000	      1602	80006774	0206d463	bge	x13,x0,8000679c	 x13:0x00000000  x0:0x00000000
       16045000	      1603	00000000	00000013	addi	x0,x0,0	  x0:0x00000000
       16055000	      1604	80006798	00000013	addi	x0,x0,0	  x0:0x00000000
       16065000	      1605	8000679c	00e5d293	srli	x5,x11,0xe	 x11:0x3b000070  x5=0x0000ec00
       16075000	      1606	800067a0	00c28263	beq	x5,x12,800067a4	  x5:0x0000ec00 x12:0x00000000
       16085000	      1607	800067a4	40185a93	srai	x21,x16,0x1	 x16:0x80009dc4 x21=0xc0004ee2
       16095000	      1608	800067a8	d14d7713	andi	x14,x26,-748	 x26:0xa82b85e0 x14=0xa82b8500
       16105000	      1609	800067ac	03b35463	bge	x6,x27,800067d4	  x6:0x00000001 x27:0xfffffeb8
       16115000	      1610	00000000	00000013	addi	x0,x0,0	  x0:0x00000000
       16125000	      1611	800067d0	00000013	addi	x0,x0,0	  x0:0x00000000
       16135000	      1612	800067d4	02509a63	bne	x1,x5,80006808	  x1:0x00000001  x5:0x0000ec00
       16145000	      1613	00000000	00000013	addi	x0,x0,0	  x0:0x00000000
       16155000	      1614	80006804	00000013	addi	x0,x0,0	  x0:0x00000000
       16165000	      1615	80006808	767bcd13	xori	x26,x23,1895	 x23:0xfffff743 x26=0xfffff024
       16175000	      1616	8000680c	c7ac8837	lui	x16,0xc7ac8	 x16=0xc7ac8000
       16185000	      1617	80006810	0175d533	srl	x10,x11,x23	 x11:0x3b000070 x23:0xfffff743 x10=0x0760000e
       16195000	      1618	80006814	00000013	addi	x0,x0,0	  x0:0x00000000
       16205000	      1619	80006818	40515093	srai	x1,x2,0x5	  x2:0xffc0004f  x1=0xfffe0002
       16215000	      1620	8000681c	00201733	sll	x14,x0,x2	  x0:0x00000000  x2:0xffc0004f x14=0x00000000
       16225000	      1621	80006820	052b5063	bge	x22,x18,80006860	 x22:0x3bf27000 x18:0x475a92a9
       16235000	      1622	80006824	005f3b33	sltu	x22,x30,x5	 x30:0x00000000  x5:0x0000ec00 x22=0x00000001
       16245000	      1623	80006828	b6daaa17	auipc	x20,0xb6daa	 x20=0x36db0824
       16255000	      1624	8000682c	f78fc093	xori	x1,x31,-136	 x31:0x00000001  x1=0xffffff79
       16265000	      1625	80006830	0000dc33	srl	x24,x1,x0	  x1:0xffffff79  x0:0x00000000 x24=0xffffff79
       16275000	      1626	80006834	01f04f33	xor	x30,x0,x31	  x0:0x00000000 x31:0x00000001 x30=0x00000001
       16285000	      1627	80006838	769a6993	ori	x19,x20,1897	 x20:0x36db0824 x19=0x36db0f6d
       16295000	      1628	8000683c	405558b3	sra	x17,x10,x5	 x10:0x0760000e  x5:0x0000ec00 x17=0x0760000e
       16305000	      1629	80006840	c9ceb613	sltiu	x12,x29,-868	 x29:0x00000000 x12=0x00000001
       16315000	      1630	80006844	018852b3	srl	x5,x16,x24	 x16:0xc7ac8000 x24:0xffffff79  x5=0x00000063
       16325000	      1631	80006848	01335263	bge	x6,x19,8000684c	  x6:0x00000001 x19:0x36db0f6d
       16335000	      1632	8000684c	00100633	add	x12,x0,x1	  x0:0x00000000  x1:0xffffff79 x12=0xffffff79
       16345000	      1633	80006850	01a78d33	add	x26,x15,x26	 x15:0x00000001 x26:0xfffff024 x26=0xfffff025
       16355000	      1634	80006854	7a9ded17	auipc	x26,0x7a9de	 x26=0xfa9e4850
       16365000	      1635	80006858	01425ab3	srl	x21,x4,x20	  x4:0x00000000 x20:0x36db0824 x21=0x00000000
       16375000	      1636	8000685c	41b9d5b3	sra	x11,x19,x27	 x19:0x36db0f6d x27:0xfffffeb8 x11=0x00000036
       16385000	      1637	80006860	41b4d193	srai	x3,x9,0x1b	  x9:0x80006744  x3=0xfffffff0
       16395000	      1638	80006864	04665463	bge	x12,x6,800068ac	 x12:0xffffff79  x6:0x00000001
       16405000	      1639	80006868	41288133	sub	x2,x17,x18	 x17:0x0760000e x18:0x475a92a9  x2=0xc0056d65
       16415000	      1640	8000686c	9cd9b813	sltiu	x16,x19,-1587	 x19:0x36db0f6d x16=0x00000001
       16425000	      1641	80006870	0095feb3	and	x29,x11,x9	 x11:0x00000036  x9:0x80006744 x29=0x00000004
       16435000	      1642	80006874	bb78c1b7	lui	x3,0xbb78c	  x3=0xbb78c000
       16445000	      1643	80006878	0138edb3	or	x27,x17,x19	 x17:0x0760000e x19:0x36db0f6d x27=0x37fb0f6f
       16455000	      1644	8000687c	9f6b7793	andi	x15,x22,-1546	 x22:0x00000001 x15=0x00000000
       16465000	      1645	80006880	00859213	slli	x4,x11,0x8	 x11:0x00000036  x4=0x00003600
       16475000	      1646	80006884	0300c063	blt	x1,x16,800068a4	  x1:0xffffff79 x16:0x00000001
       16485000	      1647	00000000	00000013	addi	x0,x0,0	  x0:0x00000000
       16495000	      1648	800068a0	00000013	addi	x0,x0,0	  x0:0x00000000
       16505000	      1649	800068a4	410ba893	slti	x17,x23,1040	 x23:0xfffff743 x17=0x00000001
       16515000	      1650	800068a8	149e4c13	xori	x24,x28,329	 x28:0x80009fc4 x24=0x80009e8d
       16525000	      1651	800068ac	01163b33	sltu	x22,x12,x17	 x12:0xffffff79 x17:0x00000001 x22=0x00000000
       16535000	      1652	800068b0	013f3713	sltiu	x14,x30,19	 x30:0x00000001 x14=0x00000001
       16545000	      1653	800068b4	0082fbb3	and	x23,x5,x8	  x5:0x00000063  x8:0xf9c60684 x23=0x00000000
       16555000	      1654	800068b8	01bc6833	or	x16,x24,x27	 x24:0x80009e8d x27:0x37fb0f6f x16=0xb7fb9fef
       16565000	      1655	800068bc	03454a63	blt	x10,x20,800068f0	 x10:0x0760000e x20:0x36db0824
       16575000	      1656	00000000	00000013	addi	x0,x0,0	  x0:0x00000000
       16585000	      1657	800068ec	00000013	addi	x0,x0,0	  x0:0x00000000
       16595000	      1658	800068f0	005d7863	bgeu	x26,x5,80006900	 x26:0xfa9e4850  x5:0x00000063
       16605000	      1659	00000000	00000013	addi	x0,x0,0	  x0:0x00000000
       16615000	      1660	800068fc	00000013	addi	x0,x0,0	  x0:0x00000000
       16625000	      1661	80006900	7584fd93	andi	x27,x9,1880	  x9:0x80006744 x27=0x00000740
       16635000	      1662	80006904	041f6263	bltu	x30,x1,80006948	 x30:0x00000001  x1:0xffffff79
       16645000	      1663	00000000	00000013	addi	x0,x0,0	  x0:0x00000000
       16655000	      1664	80006944	00000013	addi	x0,x0,0	  x0:0x00000000
       16665000	      1665	80006948	00f48d33	add	x26,x9,x15	  x9:0x80006744 x15:0x00000000 x26=0x80006744
       16675000	      1666	8000694c	01eb2ab3	slt	x21,x22,x30	 x22:0x00000000 x30:0x00000001 x21=0x00000001
       16685000	      1667	80006950	01b902b3	add	x5,x18,x27	 x18:0x475a92a9 x27:0x00000740  x5=0x475a99e9
       16695000	      1668	80006954	43ea6d97	auipc	x27,0x43ea6	 x27=0xc3eac950
       16705000	      1669	80006958	9fa83513	sltiu	x10,x16,-1542	 x16:0xb7fb9fef x10=0x00000001
       16715000	      1670	8000695c	095a3693	sltiu	x13,x20,149	 x20:0x36db0824 x13=0x00000000
       16725000	      1671	80006960	0043a183	lw	x3,4(x7)	  x7:0x80009f48  x3=0x800069d0 PA:0x80009f4c
       16735000	      1672	80006964	012c6c33	or	x24,x24,x18	 x24:0x80009e8d x18:0x475a92a9 x24=0xc75a9ead
       16745000	      1673	80006968	01038393	addi	x7,x7,16	  x7:0x80009f48  x7=0x80009f58
       16755000	      1674	8000696c	00d9d0b3	srl	x1,x19,x13	 x19:0x36db0f6d x13:0x00000000  x1=0x36db0f6d
       16765000	      1675	80006970	00118193	addi	x3,x3,1	  x3:0x800069d0  x3=0x800069d1
       16775000	      1676	80006974	000181e7	jalr	x3,x3,0	  x3:0x800069d1  x3=0x80006974
       16785000	      1677	00000000	00000013	addi	x0,x0,0	  x0:0x00000000
       16795000	      1678	800069d0	00000013	addi	x0,x0,0	  x0:0x00000000
       16805000	      1679	800069d4	deb95d97	auipc	x27,0xdeb95	 x27=0x5eb9b9d0
       16815000	      1680	800069d8	01ab6b33	or	x22,x22,x26	 x22:0x00000000 x26:0x80006744 x22=0x80006744
       16825000	      1681	800069dc	27da7c17	auipc	x24,0x27da7	 x24=0xa7dad9d8
       16835000	      1682	800069e0	98c2c813	xori	x16,x5,-1652	  x5:0x475a99e9 x16=0xb8a56065
       16845000	      1683	800069e4	00000697	auipc	x13,0x0	 x13=0x800069e0
       16855000	      1684	800069e8	d6468693	addi	x13,x13,-668	 x13:0x800069e0 x13=0x80006744
       16865000	      1685	800069ec	17268693	addi	x13,x13,370	 x13:0x80006744 x13=0x800068b6
       16875000	      1686	800069f0	002d3cb3	sltu	x25,x26,x2	 x26:0x80006744  x2:0xc0056d65 x25=0x00000001
       16885000	      1687	800069f4	e8e681e7	jalr	x3,x13,-370	 x13:0x800068b6  x3=0x800069f4
       16895000	      1688	00000000	00000013	addi	x0,x0,0	  x0:0x00000000
       16905000	      1689	80006744	00000013	addi	x0,x0,0	  x0:0x00000000
       16915000	      1690	80006748	01c75863	bge	x14,x28,80006758	 x14:0x00000001 x28:0x80009fc4
       16925000	      1691	00000000	00000013	addi	x0,x0,0	  x0:0x00000000
       16935000	      1692	80006754	00000013	addi	x0,x0,0	  x0:0x00000000
       16945000	      1693	80006758	ff038393	addi	x7,x7,-16	  x7:0x80009f58  x7=0x80009f48
       16955000	      1694	8000675c	00cfa733	slt	x14,x31,x12	 x31:0x00000001 x12:0xffffff79 x14=0x00000000
       16965000	      1695	80006760	0033a223	sw	x3,4(x7)	  x7:0x80009f48  x3:0x800069f4 PA:0x80009f4c
       16975000	      1696	80006764	dad50b93	addi	x23,x10,-595	 x10:0x00000001 x23=0xfffffdae
       16985000	      1697	80006768	0101d293	srli	x5,x3,0x10	  x3:0x800069f4  x5=0x00008000
       16995000	      1698	8000676c	00393cb3	sltu	x25,x18,x3	 x18:0x475a92a9  x3:0x800069f4 x25=0x00000001
       17005000	      1699	80006770	eb8b6d93	ori	x27,x22,-328	 x22:0x80006744 x27=0xfffffffc
       17015000	      1700	80006774	0206d463	bge	x13,x0,8000679c	 x13:0x800068b6  x0:0x00000000
       17025000	      1701	80006778	03159663	bne	x11,x17,800067a4	 x11:0x00000036 x17:0x00000001
       17035000	      1702	00000000	00000013	addi	x0,x0,0	  x0:0x00000000
       17045000	      1703	800067a0	00000013	addi	x0,x0,0	  x0:0x00000000
       17055000	      1704	800067a4	40185a93	srai	x21,x16,0x1	 x16:0xb8a56065 x21=0xdc52b032
       17065000	      1705	800067a8	d14d7713	andi	x14,x26,-748	 x26:0x80006744 x14=0x80006504
       17075000	      1706	800067ac	03b35463	bge	x6,x27,800067d4	  x6:0x00000001 x27:0xfffffffc
       17085000	      1707	00000000	00000013	addi	x0,x0,0	  x0:0x00000000
       17095000	      1708	800067d0	00000013	addi	x0,x0,0	  x0:0x00000000
       17105000	      1709	800067d4	02509a63	bne	x1,x5,80006808	  x1:0x36db0f6d  x5:0x00008000
       17115000	      1710	00000000	00000013	addi	x0,x0,0	  x0:0x00000000
       17125000	      1711	80006804	00000013	addi	x0,x0,0	  x0:0x00000000
       17135000	      1712	80006808	767bcd13	xori	x26,x23,1895	 x23:0xfffffdae x26=0xfffffac9
       17145000	      1713	8000680c	c7ac8837	lui	x16,0xc7ac8	 x16=0xc7ac8000
       17155000	      1714	80006810	0175d533	srl	x10,x11,x23	 x11:0x00000036 x23:0xfffffdae x10=0x00000000
       17165000	      1715	80006814	00000013	addi	x0,x0,0	  x0:0x00000000
       17175000	      1716	80006818	40515093	srai	x1,x2,0x5	  x2:0xc0056d65  x1=0xfe002b6b
       17185000	      1717	8000681c	00201733	sll	x14,x0,x2	  x0:0x00000000  x2:0xc0056d65 x14=0x00000000
       17195000	      1718	80006820	052b5063	bge	x22,x18,80006860	 x22:0x80006744 x18:0x475a92a9
       17205000	      1719	80006824	005f3b33	sltu	x22,x30,x5	 x30:0x00000001  x5:0x00008000 x22=0x00000001
       17215000	      1720	80006828	b6daaa17	auipc	x20,0xb6daa	 x20=0x36db0824
       17225000	      1721	8000682c	f78fc093	xori	x1,x31,-136	 x31:0x00000001  x1=0xffffff79
       17235000	      1722	80006830	0000dc33	srl	x24,x1,x0	  x1:0xffffff79  x0:0x00000000 x24=0xffffff79
       17245000	      1723	80006834	01f04f33	xor	x30,x0,x31	  x0:0x00000000 x31:0x00000001 x30=0x00000001
       17255000	      1724	80006838	769a6993	ori	x19,x20,1897	 x20:0x36db0824 x19=0x36db0f6d
       17265000	      1725	8000683c	405558b3	sra	x17,x10,x5	 x10:0x00000000  x5:0x00008000 x17=0x00000000
       17275000	      1726	80006840	c9ceb613	sltiu	x12,x29,-868	 x29:0x00000004 x12=0x00000001
       17285000	      1727	80006844	018852b3	srl	x5,x16,x24	 x16:0xc7ac8000 x24:0xffffff79  x5=0x00000063
       17295000	      1728	80006848	01335263	bge	x6,x19,8000684c	  x6:0x00000001 x19:0x36db0f6d
       17305000	      1729	8000684c	00100633	add	x12,x0,x1	  x0:0x00000000  x1:0xffffff79 x12=0xffffff79
       17315000	      1730	80006850	01a78d33	add	x26,x15,x26	 x15:0x00000000 x26:0xfffffac9 x26=0xfffffac9
       17325000	      1731	80006854	7a9ded17	auipc	x26,0x7a9de	 x26=0xfa9e4850
       17335000	      1732	80006858	01425ab3	srl	x21,x4,x20	  x4:0x00003600 x20:0x36db0824 x21=0x00000360
       17345000	      1733	8000685c	41b9d5b3	sra	x11,x19,x27	 x19:0x36db0f6d x27:0xfffffffc x11=0x00000003
       17355000	      1734	80006860	41b4d193	srai	x3,x9,0x1b	  x9:0x80006744  x3=0xfffffff0
       17365000	      1735	80006864	04665463	bge	x12,x6,800068ac	 x12:0xffffff79  x6:0x00000001
       17375000	      1736	80006868	41288133	sub	x2,x17,x18	 x17:0x00000000 x18:0x475a92a9  x2=0xb8a56d57
       17385000	      1737	8000686c	9cd9b813	sltiu	x16,x19,-1587	 x19:0x36db0f6d x16=0x00000001
       17395000	      1738	80006870	0095feb3	and	x29,x11,x9	 x11:0x00000003  x9:0x80006744 x29=0x00000000
       17405000	      1739	80006874	bb78c1b7	lui	x3,0xbb78c	  x3=0xbb78c000
       17415000	      1740	80006878	0138edb3	or	x27,x17,x19	 x17:0x00000000 x19:0x36db0f6d x27=0x36db0f6d
       17425000	      1741	8000687c	9f6b7793	andi	x15,x22,-1546	 x22:0x00000001 x15=0x00000000
       17435000	      1742	80006880	00859213	slli	x4,x11,0x8	 x11:0x00000003  x4=0x00000300
       17445000	      1743	80006884	0300c063	blt	x1,x16,800068a4	  x1:0xffffff79 x16:0x00000001
       17455000	      1744	00000000	00000013	addi	x0,x0,0	  x0:0x00000000
       17465000	      1745	800068a0	00000013	addi	x0,x0,0	  x0:0x00000000
       17475000	      1746	800068a4	410ba893	slti	x17,x23,1040	 x23:0xfffffdae x17=0x00000001
       17485000	      1747	800068a8	149e4c13	xori	x24,x28,329	 x28:0x80009fc4 x24=0x80009e8d
       17495000	      1748	800068ac	01163b33	sltu	x22,x12,x17	 x12:0xffffff79 x17:0x00000001 x22=0x00000000
       17505000	      1749	800068b0	013f3713	sltiu	x14,x30,19	 x30:0x00000001 x14=0x00000001
       17515000	      1750	800068b4	0082fbb3	and	x23,x5,x8	  x5:0x00000063  x8:0xf9c60684 x23=0x00000000
       17525000	      1751	800068b8	01bc6833	or	x16,x24,x27	 x24:0x80009e8d x27:0x36db0f6d x16=0xb6db9fed
       17535000	      1752	800068bc	03454a63	blt	x10,x20,800068f0	 x10:0x00000000 x20:0x36db0824
       17545000	      1753	00000000	00000013	addi	x0,x0,0	  x0:0x00000000
       17555000	      1754	800068ec	00000013	addi	x0,x0,0	  x0:0x00000000
       17565000	      1755	800068f0	005d7863	bgeu	x26,x5,80006900	 x26:0xfa9e4850  x5:0x00000063
       17575000	      1756	00000000	00000013	addi	x0,x0,0	  x0:0x00000000
       17585000	      1757	800068fc	00000013	addi	x0,x0,0	  x0:0x00000000
       17595000	      1758	80006900	7584fd93	andi	x27,x9,1880	  x9:0x80006744 x27=0x00000740
       17605000	      1759	80006904	041f6263	bltu	x30,x1,80006948	 x30:0x00000001  x1:0xffffff79
       17615000	      1760	00000000	00000013	addi	x0,x0,0	  x0:0x00000000
       17625000	      1761	80006944	00000013	addi	x0,x0,0	  x0:0x00000000
       17635000	      1762	80006948	00f48d33	add	x26,x9,x15	  x9:0x80006744 x15:0x00000000 x26=0x80006744
       17645000	      1763	8000694c	01eb2ab3	slt	x21,x22,x30	 x22:0x00000000 x30:0x00000001 x21=0x00000001
       17655000	      1764	80006950	01b902b3	add	x5,x18,x27	 x18:0x475a92a9 x27:0x00000740  x5=0x475a99e9
       17665000	      1765	80006954	43ea6d97	auipc	x27,0x43ea6	 x27=0xc3eac950
       17675000	      1766	80006958	9fa83513	sltiu	x10,x16,-1542	 x16:0xb6db9fed x10=0x00000001
       17685000	      1767	8000695c	095a3693	sltiu	x13,x20,149	 x20:0x36db0824 x13=0x00000000
       17695000	      1768	80006960	0043a183	lw	x3,4(x7)	  x7:0x80009f48  x3=0x800069f4 PA:0x80009f4c
       17705000	      1769	80006964	012c6c33	or	x24,x24,x18	 x24:0x80009e8d x18:0x475a92a9 x24=0xc75a9ead
       17715000	      1770	80006968	01038393	addi	x7,x7,16	  x7:0x80009f48  x7=0x80009f58
       17725000	      1771	8000696c	00d9d0b3	srl	x1,x19,x13	 x19:0x36db0f6d x13:0x00000000  x1=0x36db0f6d
       17735000	      1772	80006970	00118193	addi	x3,x3,1	  x3:0x800069f4  x3=0x800069f5
       17745000	      1773	80006974	000181e7	jalr	x3,x3,0	  x3:0x800069f5  x3=0x80006974
       17755000	      1774	00000000	00000013	addi	x0,x0,0	  x0:0x00000000
       17765000	      1775	800069f4	00000013	addi	x0,x0,0	  x0:0x00000000
       17775000	      1776	800069f8	02ea0263	beq	x20,x14,80006a1c	 x20:0x36db0824 x14:0x00000001
       17785000	      1777	800069fc	02f29a63	bne	x5,x15,80006a30	  x5:0x475a99e9 x15:0x00000000
       17795000	      1778	00000000	00000013	addi	x0,x0,0	  x0:0x00000000
       17805000	      1779	80006a2c	00000013	addi	x0,x0,0	  x0:0x00000000
       17815000	      1780	80006a30	004cd7b3	srl	x15,x25,x4	 x25:0x00000001  x4:0x00000300 x15=0x00000001
       17825000	      1781	80006a34	014bd013	srli	x0,x23,0x14	 x23:0x00000000
       17835000	      1782	80006a38	302fc413	xori	x8,x31,770	 x31:0x00000001  x8=0x00000303
       17845000	      1783	80006a3c	0043a183	lw	x3,4(x7)	  x7:0x80009f58  x3=0x800004a4 PA:0x80009f5c
       17855000	      1784	80006a40	00d2d413	srli	x8,x5,0xd	  x5:0x475a99e9  x8=0x00023ad4
       17865000	      1785	80006a44	fe9e8213	addi	x4,x29,-23	 x29:0x00000000  x4=0xffffffe9
       17875000	      1786	80006a48	00b8e133	or	x2,x17,x11	 x17:0x00000001 x11:0x00000003  x2=0x00000003
       17885000	      1787	80006a4c	01438393	addi	x7,x7,20	  x7:0x80009f58  x7=0x80009f6c
       17895000	      1788	80006a50	413dde93	srai	x29,x27,0x13	 x27:0xc3eac950 x29=0xfffff87d
       17905000	      1789	80006a54	00018c13	addi	x24,x3,0	  x3:0x800004a4 x24=0x800004a4
       17915000	      1790	80006a58	000c0c67	jalr	x24,x24,0	 x24:0x800004a4 x24=0x80006a58
       17925000	      1791	00000000	00000013	addi	x0,x0,0	  x0:0x00000000
       17935000	      1792	800004a4	00000013	addi	x0,x0,0	  x0:0x00000000
       17945000	      1793	800004a8	01f34a33	xor	x20,x6,x31	  x6:0x00000001 x31:0x00000001 x20=0x00000000
       17955000	      1794	800004ac	004c2833	slt	x16,x24,x4	 x24:0x80006a58  x4:0xffffffe9 x16=0x00000001
       17965000	      1795	800004b0	00002617	auipc	x12,0x2	 x12=0x800024ac
       17975000	      1796	800004b4	08860613	addi	x12,x12,136	 x12:0x800024ac x12=0x80002534
       17985000	      1797	800004b8	00f3a0b3	slt	x1,x7,x15	  x7:0x80009f6c x15:0x00000001  x1=0x00000001
       17995000	      1798	800004bc	d9260613	addi	x12,x12,-622	 x12:0x80002534 x12=0x800022c6
       18005000	      1799	800004c0	fcd00b13	addi	x22,x0,-51	  x0:0x00000000 x22=0xffffffcd
       18015000	      1800	800004c4	01420a33	add	x20,x4,x20	  x4:0xffffffe9 x20:0x00000000 x20=0xffffffe9
       18025000	      1801	800004c8	01c3d693	srli	x13,x7,0x1c	  x7:0x80009f6c x13=0x00000008
       18035000	      1802	800004cc	01a35eb3	srl	x29,x6,x26	  x6:0x00000001 x26:0x80006744 x29=0x00000000
       18045000	      1803	800004d0	01c4f663	bgeu	x9,x28,800004dc	  x9:0x80006744 x28:0x80009fc4
       18055000	      1804	800004d4	9396a193	slti	x3,x13,-1735	 x13:0x00000008  x3=0x00000000
       18065000	      1805	800004d8	412c5313	srai	x6,x24,0x12	 x24:0x80006a58  x6=0xffffe000
       18075000	      1806	800004dc	26f601e7	jalr	x3,x12,623	 x12:0x800022c6  x3=0x800004dc
       18085000	      1807	00000000	00000013	addi	x0,x0,0	  x0:0x00000000
       18095000	      1808	80002534	00000013	addi	x0,x0,0	  x0:0x00000000
       18105000	      1809	80002538	01075333	srl	x6,x14,x16	 x14:0x00000001 x16:0x00000001  x6=0x00000000
       18115000	      1810	8000253c	00a8e2b3	or	x5,x17,x10	 x17:0x00000001 x10:0x00000001  x5=0x00000001
       18125000	      1811	80002540	683a2d13	slti	x26,x20,1667	 x20:0xffffffe9 x26=0x00000001
       18135000	      1812	80002544	00000013	addi	x0,x0,0	  x0:0x00000000
       18145000	      1813	80002548	65f56713	ori	x14,x10,1631	 x10:0x00000001 x14=0x0000065f
       18155000	      1814	8000254c	fc438393	addi	x7,x7,-60	  x7:0x80009f6c  x7=0x80009f30
       18165000	      1815	80002550	2ca7e293	ori	x5,x15,714	 x15:0x00000001  x5=0x000002cb
       18175000	      1816	80002554	00871db3	sll	x27,x14,x8	 x14:0x0000065f  x8:0x00023ad4 x27=0x65f00000
       18185000	      1817	80002558	0033a223	sw	x3,4(x7)	  x7:0x80009f30  x3:0x800004dc PA:0x80009f34
       18195000	      1818	8000255c	00754b33	xor	x22,x10,x7	 x10:0x00000001  x7:0x80009f30 x22=0x80009f31
       18205000	      1819	80002560	3fd5f337	lui	x6,0x3fd5f	  x6=0x3fd5f000
       18215000	      1820	80002564	019bdeb3	srl	x29,x23,x25	 x23:0x00000000 x25:0x00000001 x29=0x00000000
       18225000	      1821	80002568	16e6f013	andi	x0,x13,366	 x13:0x00000008
       18235000	      1822	8000256c	ffffe617	auipc	x12,0xffffe	 x12=0x80000568
       18245000	      1823	80002570	29c60613	addi	x12,x12,668	 x12:0x80000568 x12=0x80000804
       18255000	      1824	80002574	01c5a133	slt	x2,x11,x28	 x11:0x00000003 x28:0x80009fc4  x2=0x00000000
       18265000	      1825	80002578	ddf60613	addi	x12,x12,-545	 x12:0x80000804 x12=0x800005e3
       18275000	      1826	8000257c	01d9a333	slt	x6,x19,x29	 x19:0x36db0f6d x29:0x00000000  x6=0x00000000
       18285000	      1827	80002580	00000013	addi	x0,x0,0	  x0:0x00000000
       18295000	      1828	80002584	406adc33	sra	x24,x21,x6	 x21:0x00000001  x6:0x00000000 x24=0x00000001
       18305000	      1829	80002588	013584b3	add	x9,x11,x19	 x11:0x00000003 x19:0x36db0f6d  x9=0x36db0f70
       18315000	      1830	8000258c	01b1c663	blt	x3,x27,80002598	  x3:0x800004dc x27:0x65f00000
       18325000	      1831	00000000	00000013	addi	x0,x0,0	  x0:0x00000000
       18335000	      1832	80002594	00000013	addi	x0,x0,0	  x0:0x00000000
       18345000	      1833	80002598	222601e7	jalr	x3,x12,546	 x12:0x800005e3  x3=0x80002598
       18355000	      1834	00000000	00000013	addi	x0,x0,0	  x0:0x00000000
       18365000	      1835	80000804	00000013	addi	x0,x0,0	  x0:0x00000000
       18375000	      1836	80000808	004c7a63	bgeu	x24,x4,8000081c	 x24:0x00000001  x4:0xffffffe9
       18385000	      1837	8000080c	01b504b3	add	x9,x10,x27	 x10:0x00000001 x27:0x65f00000  x9=0x65f00001
       18395000	      1838	80000810	019db9b3	sltu	x19,x27,x25	 x27:0x65f00000 x25:0x00000001 x19=0x00000000
       18405000	      1839	80000814	01688b33	add	x22,x17,x22	 x17:0x00000001 x22:0x80009f31 x22=0x80009f32
       18415000	      1840	80000818	0098fb33	and	x22,x17,x9	 x17:0x00000001  x9:0x65f00001 x22=0x00000001
       18425000	      1841	8000081c	fcc38393	addi	x7,x7,-52	  x7:0x80009f30  x7=0x80009efc
       18435000	      1842	80000820	00000013	addi	x0,x0,0	  x0:0x00000000
       18445000	      1843	80000824	00d13bb3	sltu	x23,x2,x13	  x2:0x00000000 x13:0x00000008 x23=0x00000001
       18455000	      1844	80000828	00911f33	sll	x30,x2,x9	  x2:0x00000000  x9:0x65f00001 x30=0x00000000
       18465000	      1845	8000082c	01e65f93	srli	x31,x12,0x1e	 x12:0x800005e3 x31=0x00000002
       18475000	      1846	80000830	0033a223	sw	x3,4(x7)	  x7:0x80009efc  x3:0x80002598 PA:0x80009f00
       18485000	      1847	80000834	01b40733	add	x14,x8,x27	  x8:0x00023ad4 x27:0x65f00000 x14=0x65f23ad4
       18495000	      1848	80000838	00008497	auipc	x9,0x8	  x9=0x80008834
       18505000	      1849	8000083c	f6b48493	addi	x9,x9,-149	  x9:0x80008834  x9=0x8000879f
       18515000	      1850	80000840	498da593	slti	x11,x27,1176	 x27:0x65f00000 x11=0x00000000
       18525000	      1851	80000844	f2248003	lb	x0,-222(x9)	  x9:0x8000879f PA:0x800086c1
       18535000	      1852	80000848	f9d48983	lb	x19,-99(x9)	  x9:0x8000879f x19=0x00000000 PA:0x8000873c
       18545000	      1853	8000084c	405a0bb3	sub	x23,x20,x5	 x20:0xffffffe9  x5:0x000002cb x23=0xfffffd1e
       18555000	      1854	80000850	5f93e413	ori	x8,x7,1529	  x7:0x80009efc  x8=0x80009ffd
       18565000	      1855	80000854	fcf4dc03	lhu	x24,-49(x9)	  x9:0x8000879f x24=0x00000000 PA:0x8000876e
       18575000	      1856	80000858	ff948223	sb	x25,-28(x9)	  x9:0x8000879f x25:0x00000001 PA:0x80008783
       18585000	      1857	8000085c	07549183	lh	x3,117(x9)	  x9:0x8000879f  x3=0x00000000 PA:0x80008814
       18595000	      1858	80000860	011d9db3	sll	x27,x27,x17	 x27:0x65f00000 x17:0x00000001 x27=0xcbe00000
       18605000	      1859	80000864	5c80a593	slti	x11,x1,1480	  x1:0x00000001 x11=0x00000001
       18615000	      1860	80000868	f1548d23	sb	x21,-230(x9)	  x9:0x8000879f x21:0x00000001 PA:0x800086b9
       18625000	      1861	8000086c	01c4c703	lbu	x14,28(x9)	  x9:0x8000879f x14=0x00000000 PA:0x800087bb
       18635000	      1862	80000870	40dd5293	srai	x5,x26,0xd	 x26:0x00000001  x5=0x00000000
       18645000	      1863	80000874	06648ba3	sb	x6,119(x9)	  x9:0x8000879f  x6:0x00000000 PA:0x80008816
       18655000	      1864	80000878	d80a4c13	xori	x24,x20,-640	 x20:0xffffffe9 x24=0x00000269
       18665000	      1865	8000087c	06f496a3	sh	x15,109(x9)	  x9:0x8000879f x15:0x00000001 PA:0x8000880c
       18675000	      1866	80000880	04f4d683	lhu	x13,79(x9)	  x9:0x8000879f x13=0x00000000 PA:0x800087ee
       18685000	      1867	80000884	41a28a33	sub	x20,x5,x26	  x5:0x00000000 x26:0x00000001 x20=0xffffffff
       18695000	      1868	80000888	35b71817	auipc	x16,0x35b71	 x16=0xb5b71884
       18705000	      1869	8000088c	06548d83	lb	x27,101(x9)	  x9:0x8000879f x27=0x00000000 PA:0x80008804
       18715000	      1870	80000890	0604c783	lbu	x15,96(x9)	  x9:0x8000879f x15=0x00000000 PA:0x800087ff
       18725000	      1871	80000894	00b65813	srli	x16,x12,0xb	 x12:0x800005e3 x16=0x00100000
       18735000	      1872	80000898	04948a83	lb	x21,73(x9)	  x9:0x8000879f x21=0x00000000 PA:0x800087e8
       18745000	      1873	8000089c	f014c083	lbu	x1,-255(x9)	  x9:0x8000879f  x1=0x00000000 PA:0x800086a0
       18755000	      1874	800008a0	014ffdb3	and	x27,x31,x20	 x31:0x00000002 x20:0xffffffff x27=0x00000002
       18765000	      1875	800008a4	00549ca3	sh	x5,25(x9)	  x9:0x8000879f  x5:0x00000000 PA:0x800087b8
       18775000	      1876	800008a8	00d4a803	lw	x16,13(x9)	  x9:0x8000879f x16=0x00000000 PA:0x800087ac
       18785000	      1877	800008ac	f7f4da83	lhu	x21,-129(x9)	  x9:0x8000879f x21=0x00000000 PA:0x8000871e
       18795000	      1878	800008b0	012f0db3	add	x27,x30,x18	 x30:0x00000000 x18:0x475a92a9 x27=0x475a92a9
       18805000	      1879	800008b4	00da8733	add	x14,x21,x13	 x21:0x00000000 x13:0x00000000 x14=0x00000000
       18815000	      1880	800008b8	0384cb03	lbu	x22,56(x9)	  x9:0x8000879f x22=0x00000000 PA:0x800087d7
       18825000	      1881	800008bc	00008117	auipc	x2,0x8	  x2=0x800088b8
       18835000	      1882	800008c0	54a10113	addi	x2,x2,1354	  x2:0x800088b8  x2=0x80008e02
       18845000	      1883	800008c4	fae107a3	sb	x14,-81(x2)	  x2:0x80008e02 x14:0x00000000 PA:0x80008db1
       18855000	      1884	800008c8	0ff11623	sh	x31,236(x2)	  x2:0x80008e02 x31:0x00000002 PA:0x80008eee
       18865000	      1885	800008cc	0cd11423	sh	x13,200(x2)	  x2:0x80008e02 x13:0x00000000 PA:0x80008eca
       18875000	      1886	800008d0	0c214203	lbu	x4,194(x2)	  x2:0x80008e02  x4=0x00000000 PA:0x80008ec4
       18885000	      1887	800008d4	0023d793	srli	x15,x7,0x2	  x7:0x80009efc x15=0x200027bf
       18895000	      1888	800008d8	f8b11723	sh	x11,-114(x2)	  x2:0x80008e02 x11:0x00000001 PA:0x80008d90
       18905000	      1889	800008dc	016011b3	sll	x3,x0,x22	  x0:0x00000000 x22:0x00000000  x3=0x00000000
       18915000	      1890	800008e0	01969713	slli	x14,x13,0x19	 x13:0x00000000 x14=0x00000000
       18925000	      1891	800008e4	fea14883	lbu	x17,-22(x2)	  x2:0x80008e02 x17=0x00000000 PA:0x80008dec
       18935000	      1892	800008e8	00000013	addi	x0,x0,0	  x0:0x00000000
       18945000	      1893	800008ec	0cf10203	lb	x4,207(x2)	  x2:0x80008e02  x4=0x00000000 PA:0x80008ed1
       18955000	      1894	800008f0	08010683	lb	x13,128(x2)	  x2:0x80008e02 x13=0x00000000 PA:0x80008e82
       18965000	      1895	800008f4	01716c33	or	x24,x2,x23	  x2:0x80008e02 x23:0xfffffd1e x24=0xffffff1e
       18975000	      1896	800008f8	f30e4793	xori	x15,x28,-208	 x28:0x80009fc4 x15=0x7fff60f4
       18985000	      1897	800008fc	06210023	sb	x2,96(x2)	  x2:0x80008e02  x2:0x80008e02 PA:0x80008e62
       18995000	      1898	80000900	0ff14983	lbu	x19,255(x2)	  x2:0x80008e02 x19=0x00000000 PA:0x80008f01
       19005000	      1899	00000000	00000013	addi	x0,x0,0	  x0:0x00000000
       19015000	      1900	80000904	00f98033	add	x0,x19,x15	 x19:0x00000000 x15:0x7fff60f4
       19025000	      1901	80000908	0175d433	srl	x8,x11,x23	 x11:0x00000001 x23:0xfffffd1e  x8=0x00000000
       19035000	      1902	8000090c	03c11c23	sh	x28,56(x2)	  x2:0x80008e02 x28:0x80009fc4 PA:0x80008e3a
       19045000	      1903	80000910	f76103a3	sb	x22,-153(x2)	  x2:0x80008e02 x22:0x00000000 PA:0x80008d69
       19055000	      1904	80000914	018c1533	sll	x10,x24,x24	 x24:0xffffff1e x24:0xffffff1e x10=0x80000000
       19065000	      1905	80000918	f8410a03	lb	x20,-124(x2)	  x2:0x80008e02 x20=0x00000000 PA:0x80008d86
       19075000	      1906	8000091c	0bd10d03	lb	x26,189(x2)	  x2:0x80008e02 x26=0x00000000 PA:0x80008ebf
       19085000	      1907	80000920	0f0101a3	sb	x16,227(x2)	  x2:0x80008e02 x16:0x00000000 PA:0x80008ee5
       19095000	      1908	80000924	f8f106a3	sb	x15,-115(x2)	  x2:0x80008e02 x15:0x7fff60f4 PA:0x80008d8f
       19105000	      1909	80000928	f8414983	lbu	x19,-124(x2)	  x2:0x80008e02 x19=0x00000000 PA:0x80008d86
       19115000	      1910	8000092c	07f10183	lb	x3,127(x2)	  x2:0x80008e02  x3=0x00000000 PA:0x80008e81
       19125000	      1911	80000930	02c10503	lb	x10,44(x2)	  x2:0x80008e02 x10=0x00000000 PA:0x80008e2e
       19135000	      1912	80000934	00000013	addi	x0,x0,0	  x0:0x00000000
       19145000	      1913	80000938	05215183	lhu	x3,82(x2)	  x2:0x80008e02  x3=0x00000000 PA:0x80008e54
       19155000	      1914	8000093c	0ac10d03	lb	x26,172(x2)	  x2:0x80008e02 x26=0x00000000 PA:0x80008eae
       19165000	      1915	80000940	00008117	auipc	x2,0x8	  x2=0x8000893c
       19175000	      1916	80000944	d0710113	addi	x2,x2,-761	  x2:0x8000893c  x2=0x80008643
       19185000	      1917	80000948	f1614c83	lbu	x25,-234(x2)	  x2:0x80008643 x25=0x00000000 PA:0x80008559
       19195000	      1918	8000094c	0e911d03	lh	x26,233(x2)	  x2:0x80008643 x26=0x00000000 PA:0x8000872c
       19205000	      1919	80000950	f1610483	lb	x9,-234(x2)	  x2:0x80008643  x9=0x00000000 PA:0x80008559
       19215000	      1920	80000954	fa814283	lbu	x5,-88(x2)	  x2:0x80008643  x5=0x00000000 PA:0x800085eb
       19225000	      1921	80000958	f7515883	lhu	x17,-139(x2)	  x2:0x80008643 x17=0x00000000 PA:0x800085b8
       19235000	      1922	8000095c	408ca493	slti	x9,x25,1032	 x25:0x00000000  x9=0x00000001
       19245000	      1923	80000960	f4614803	lbu	x16,-186(x2)	  x2:0x80008643 x16=0x00000000 PA:0x80008589
       19255000	      1924	80000964	00a14803	lbu	x16,10(x2)	  x2:0x80008643 x16=0x00000000 PA:0x8000864d
       19265000	      1925	80000968	005918b3	sll	x17,x18,x5	 x18:0x475a92a9  x5:0x00000000 x17=0x475a92a9
       19275000	      1926	8000096c	00efa0b3	slt	x1,x31,x14	 x31:0x00000002 x14:0x00000000  x1=0x00000000
       19285000	      1927	80000970	40ebdc93	srai	x25,x23,0xe	 x23:0xfffffd1e x25=0xffffffff
       19295000	      1928	80000974	f1110ea3	sb	x17,-227(x2)	  x2:0x80008643 x17:0x475a92a9 PA:0x80008560
       19305000	      1929	80000978	03f11da3	sh	x31,59(x2)	  x2:0x80008643 x31:0x00000002 PA:0x8000867e
       19315000	      1930	8000097c	0d014c03	lbu	x24,208(x2)	  x2:0x80008643 x24=0x00000000 PA:0x80008713
       19325000	      1931	80000980	03c10c23	sb	x28,56(x2)	  x2:0x80008643 x28:0x80009fc4 PA:0x8000867b
       19335000	      1932	80000984	fee10523	sb	x14,-22(x2)	  x2:0x80008643 x14:0x00000000 PA:0x8000862d
       19345000	      1933	80000988	0bd14c83	lbu	x25,189(x2)	  x2:0x80008643 x25=0x00000000 PA:0x80008700
       19355000	      1934	8000098c	fd410e23	sb	x20,-36(x2)	  x2:0x80008643 x20:0x00000000 PA:0x8000861f
       19365000	      1935	80000990	05914b03	lbu	x22,89(x2)	  x2:0x80008643 x22=0x00000000 PA:0x8000869c
       19375000	      1936	80000994	0d414d03	lbu	x26,212(x2)	  x2:0x80008643 x26=0x00000000 PA:0x80008717
       19385000	      1937	80000998	f7110923	sb	x17,-142(x2)	  x2:0x80008643 x17:0x475a92a9 PA:0x800085b5
       19395000	      1938	8000099c	fc814b83	lbu	x23,-56(x2)	  x2:0x80008643 x23=0x00000000 PA:0x8000860b
       19405000	      1939	800009a0	f1f11783	lh	x15,-225(x2)	  x2:0x80008643 x15=0x00000000 PA:0x80008562
       19415000	      1940	800009a4	f1b10f23	sb	x27,-226(x2)	  x2:0x80008643 x27:0x475a92a9 PA:0x80008561
       19425000	      1941	800009a8	fc414183	lbu	x3,-60(x2)	  x2:0x80008643  x3=0x00000000 PA:0x80008607
       19435000	      1942	800009ac	f2114a83	lbu	x21,-223(x2)	  x2:0x80008643 x21=0x00000000 PA:0x80008564
       19445000	      1943	800009b0	08c11aa3	sh	x12,149(x2)	  x2:0x80008643 x12:0x800005e3 PA:0x800086d8
       19455000	      1944	800009b4	f1d15f83	lhu	x31,-227(x2)	  x2:0x80008643 x31=0x0000a9a9 PA:0x80008560
       19465000	      1945	800009b8	012889b3	add	x19,x17,x18	 x17:0x475a92a9 x18:0x475a92a9 x19=0x8eb52552
       19475000	      1946	800009bc	41965f93	srai	x31,x12,0x19	 x12:0x800005e3 x31=0xffffffc0
       19485000	      1947	800009c0	41e1d893	srai	x17,x3,0x1e	  x3:0x00000000 x17=0x00000000
       19495000	      1948	800009c4	00833833	sltu	x16,x6,x8	  x6:0x00000000  x8:0x00000000 x16=0x00000000
       19505000	      1949	800009c8	0a511a03	lh	x20,165(x2)	  x2:0x80008643 x20=0x00000000 PA:0x800086e8
       19515000	      1950	800009cc	0018cdb3	xor	x27,x17,x1	 x17:0x00000000  x1:0x00000000 x27=0x00000000
       19525000	      1951	800009d0	04111983	lh	x19,65(x2)	  x2:0x80008643 x19=0x00000000 PA:0x80008684
       19535000	      1952	00000000	00000013	addi	x0,x0,0	  x0:0x00000000
       19545000	      1953	800009d4	013ea533	slt	x10,x29,x19	 x29:0x00000000 x19:0x00000000 x10=0x00000000
       19555000	      1954	800009d8	f2e10e83	lb	x29,-210(x2)	  x2:0x80008643 x29=0x00000000 PA:0x80008571
       19565000	      1955	800009dc	f89124a3	sw	x9,-119(x2)	  x2:0x80008643  x9:0x00000001 PA:0x800085cc
       19575000	      1956	800009e0	00a14003	lbu	x0,10(x2)	  x2:0x80008643 PA:0x8000864d
       19585000	      1957	800009e4	00008897	auipc	x17,0x8	 x17=0x800089e0
       19595000	      1958	800009e8	b6588893	addi	x17,x17,-1179	 x17:0x800089e0 x17=0x80008545
       19605000	      1959	800009ec	ffc88283	lb	x5,-4(x17)	 x17:0x80008545  x5=0x00000000 PA:0x80008541
       19615000	      1960	800009f0	eeb88e23	sb	x11,-260(x17)	 x17:0x80008545 x11:0x00000001 PA:0x80008441
       19625000	      1961	800009f4	8d474493	xori	x9,x14,-1836	 x14:0x00000000  x9=0xfffff8d4
       19635000	      1962	800009f8	415105b3	sub	x11,x2,x21	  x2:0x80008643 x21:0x00000000 x11=0x80008643
       19645000	      1963	800009fc	2d088123	sb	x16,706(x17)	 x17:0x80008545 x16:0x00000000 PA:0x80008807
       19655000	      1964	80000a00	ec58c303	lbu	x6,-315(x17)	 x17:0x80008545  x6=0x00000000 PA:0x8000840a
       19665000	      1965	80000a04	2c588723	sb	x5,718(x17)	 x17:0x80008545  x5:0x00000000 PA:0x80008813
       19675000	      1966	80000a08	bde88a83	lb	x21,-1058(x17)	 x17:0x80008545 x21=0x00000000 PA:0x80008123
       19685000	      1967	80000a0c	20a8c603	lbu	x12,522(x17)	 x17:0x80008545 x12=0x00000000 PA:0x8000874f
       19695000	      1968	80000a10	0136f133	and	x2,x13,x19	 x13:0x00000000 x19:0x00000000  x2=0x00000000
       19705000	      1969	80000a14	00273633	sltu	x12,x14,x2	 x14:0x00000000  x2:0x00000000 x12=0x00000000
       19715000	      1970	80000a18	f9c88583	lb	x11,-100(x17)	 x17:0x80008545 x11=0x00000000 PA:0x800084e1
       19725000	      1971	80000a1c	816ca713	slti	x14,x25,-2026	 x25:0x00000000 x14=0x00000000
       19735000	      1972	80000a20	6a05f513	andi	x10,x11,1696	 x11:0x00000000 x10=0x00000000
       19745000	      1973	80000a24	6edbfa93	andi	x21,x23,1773	 x23:0x00000000 x21=0x00000000
       19755000	      1974	80000a28	00000013	addi	x0,x0,0	  x0:0x00000000
       19765000	      1975	80000a2c	0101df33	srl	x30,x3,x16	  x3:0x00000000 x16:0x00000000 x30=0x00000000
       19775000	      1976	80000a30	c4d88283	lb	x5,-947(x17)	 x17:0x80008545  x5=0x00000000 PA:0x80008192
       19785000	      1977	80000a34	30e01c97	auipc	x25,0x30e01	 x25=0xb0e01a30
       19795000	      1978	80000a38	18e8c483	lbu	x9,398(x17)	 x17:0x80008545  x9=0x00000000 PA:0x800086d3
       19805000	      1979	80000a3c	cf38cb83	lbu	x23,-781(x17)	 x17:0x80008545 x23=0x00000000 PA:0x80008238
       19815000	      1980	80000a40	003b3b33	sltu	x22,x22,x3	 x22:0x00000000  x3:0x00000000 x22=0x00000000
       19825000	      1981	80000a44	1038c603	lbu	x12,259(x17)	 x17:0x80008545 x12=0x00000000 PA:0x80008648
       19835000	      1982	80000a48	01ef85b3	add	x11,x31,x30	 x31:0xffffffc0 x30:0x00000000 x11=0xffffffc0
       19845000	      1983	80000a4c	fdf896a3	sh	x31,-51(x17)	 x17:0x80008545 x31:0xffffffc0 PA:0x80008512
       19855000	      1984	80000a50	02688683	lb	x13,38(x17)	 x17:0x80008545 x13=0x00000000 PA:0x8000856b
       19865000	      1985	80000a54	cff89183	lh	x3,-769(x17)	 x17:0x80008545  x3=0x00000000 PA:0x80008244
       19875000	      1986	80000a58	00008117	auipc	x2,0x8	  x2=0x80008a54
       19885000	      1987	80000a5c	d4e10113	addi	x2,x2,-690	  x2:0x80008a54  x2=0x800087a2
       19895000	      1988	80000a60	00e11d23	sh	x14,26(x2)	  x2:0x800087a2 x14:0x00000000 PA:0x800087bc
       19905000	      1989	80000a64	03310803	lb	x16,51(x2)	  x2:0x800087a2 x16=0x00000000 PA:0x800087d5
       19915000	      1990	80000a68	fee15803	lhu	x16,-18(x2)	  x2:0x800087a2 x16=0x00000000 PA:0x80008790
       19925000	      1991	80000a6c	77410593	addi	x11,x2,1908	  x2:0x800087a2 x11=0x80008f16
       19935000	      1992	80000a70	4ad4a6b7	lui	x13,0x4ad4a	 x13=0x4ad4a000
       19945000	      1993	80000a74	fdf107a3	sb	x31,-49(x2)	  x2:0x800087a2 x31:0xffffffc0 PA:0x80008771
       19955000	      1994	80000a78	2c4fe813	ori	x16,x31,708	 x31:0xffffffc0 x16=0xffffffc4
       19965000	      1995	80000a7c	01a12a03	lw	x20,26(x2)	  x2:0x800087a2 x20=0x00000000 PA:0x800087bc
       19975000	      1996	80000a80	02c10283	lb	x5,44(x2)	  x2:0x800087a2  x5=0x00000000 PA:0x800087ce
       19985000	      1997	80000a84	ff012923	sw	x16,-14(x2)	  x2:0x800087a2 x16:0xffffffc4 PA:0x80008794
       19995000	      1998	80000a88	fda11d83	lh	x27,-38(x2)	  x2:0x800087a2 x27=0x00000000 PA:0x8000877c
       20005000	      1999	80000a8c	02014503	lbu	x10,32(x2)	  x2:0x800087a2 x10=0x00000000 PA:0x800087c2
       20015000	      2000	80000a90	03a10ea3	sb	x26,61(x2)	  x2:0x800087a2 x26:0x00000000 PA:0x800087df
       20025000	      2001	80000a94	01415503	lhu	x10,20(x2)	  x2:0x800087a2 x10=0x00000000 PA:0x800087b6
       20035000	      2002	80000a98	01dc28b3	slt	x17,x24,x29	 x24:0x00000000 x29:0x00000000 x17=0x00000000
       20045000	      2003	80000a9c	ffa109a3	sb	x26,-13(x2)	  x2:0x800087a2 x26:0x00000000 PA:0x80008795
       20055000	      2004	80000aa0	fca11983	lh	x19,-54(x2)	  x2:0x800087a2 x19=0x00000000 PA:0x8000876c
       20065000	      2005	80000aa4	007bf733	and	x14,x23,x7	 x23:0x00000000  x7:0x80009efc x14=0x00000000
       20075000	      2006	80000aa8	692d0a93	addi	x21,x26,1682	 x26:0x00000000 x21=0x00000692
       20085000	      2007	80000aac	63c45717	auipc	x14,0x63c45	 x14=0xe3c45aa8
       20095000	      2008	80000ab0	02110283	lb	x5,33(x2)	  x2:0x800087a2  x5=0x00000000 PA:0x800087c3
       20105000	      2009	80000ab4	e53d2813	slti	x16,x26,-429	 x26:0x00000000 x16=0x00000000
       20115000	      2010	80000ab8	fea15e83	lhu	x29,-22(x2)	  x2:0x800087a2 x29=0x00000000 PA:0x8000878c
       20125000	      2011	80000abc	9ae3f293	andi	x5,x7,-1618	  x7:0x80009efc  x5=0x800098ac
       20135000	      2012	80000ac0	73c56293	ori	x5,x10,1852	 x10:0x00000000  x5=0x0000073c
       20145000	      2013	80000ac4	fdb101a3	sb	x27,-61(x2)	  x2:0x800087a2 x27:0x00000000 PA:0x80008765
       20155000	      2014	80000ac8	4468b413	sltiu	x8,x17,1094	 x17:0x00000000  x8=0x00000001
       20165000	      2015	80000acc	40e75533	sra	x10,x14,x14	 x14:0xe3c45aa8 x14:0xe3c45aa8 x10=0xffe3c45a
       20175000	      2016	80000ad0	0e3bcc93	xori	x25,x23,227	 x23:0x00000000 x25=0x000000e3
       20185000	      2017	80000ad4	04002a37	lui	x20,0x4002	 x20=0x04002000
       20195000	      2018	80000ad8	ffd10603	lb	x12,-3(x2)	  x2:0x800087a2 x12=0x00000000 PA:0x8000879f
       20205000	      2019	80000adc	00008117	auipc	x2,0x8	  x2=0x80008ad8
       20215000	      2020	80000ae0	d8310113	addi	x2,x2,-637	  x2:0x80008ad8  x2=0x8000885b
       20225000	      2021	80000ae4	5af15483	lhu	x9,1455(x2)	  x2:0x8000885b  x9=0x00000000 PA:0x80008e0a
       20235000	      2022	80000ae8	59310023	sb	x19,1408(x2)	  x2:0x8000885b x19:0x00000000 PA:0x80008ddb
       20245000	      2023	80000aec	75314003	lbu	x0,1875(x2)	  x2:0x8000885b PA:0x80008fae
       20255000	      2024	80000af0	01b60533	add	x10,x12,x27	 x12:0x00000000 x27:0x00000000 x10=0x00000000
       20265000	      2025	80000af4	0a132bb7	lui	x23,0xa132	 x23=0x0a132000
       20275000	      2026	80000af8	1b112683	lw	x13,433(x2)	  x2:0x8000885b x13=0x00000000 PA:0x80008a0c
       20285000	      2027	80000afc	00f25313	srli	x6,x4,0xf	  x4:0x00000000  x6=0x00000000
       20295000	      2028	80000b00	01dcc733	xor	x14,x25,x29	 x25:0x000000e3 x29:0x00000000 x14=0x000000e3
       20305000	      2029	80000b04	6ff11ba3	sh	x31,1783(x2)	  x2:0x8000885b x31:0xffffffc0 PA:0x80008f52
       20315000	      2030	80000b08	01959b13	slli	x22,x11,0x19	 x11:0x80008f16 x22=0x2c000000
       20325000	      2031	80000b0c	6c424793	xori	x15,x4,1732	  x4:0x00000000 x15=0x000006c4
       20335000	      2032	80000b10	24dabb17	auipc	x22,0x24dab	 x22=0xa4dabb0c
       20345000	      2033	80000b14	41aedd33	sra	x26,x29,x26	 x29:0x00000000 x26:0x00000000 x26=0x00000000
       20355000	      2034	80000b18	6a915203	lhu	x4,1705(x2)	  x2:0x8000885b  x4=0x00000000 PA:0x80008f04
       20365000	      2035	80000b1c	92e93013	sltiu	x0,x18,-1746	 x18:0x475a92a9
       20375000	      2036	80000b20	00d53733	sltu	x14,x10,x13	 x10:0x00000000 x13:0x00000000 x14=0x00000000
       20385000	      2037	80000b24	01e12ca3	sw	x30,25(x2)	  x2:0x8000885b x30:0x00000000 PA:0x80008874
       20395000	      2038	80000b28	46a105a3	sb	x10,1131(x2)	  x2:0x8000885b x10:0x00000000 PA:0x80008cc6
       20405000	      2039	80000b2c	cf6fa293	slti	x5,x31,-778	 x31:0xffffffc0  x5=0x00000000
       20415000	      2040	80000b30	70910923	sb	x9,1810(x2)	  x2:0x8000885b  x9:0x00000000 PA:0x80008f6d
       20425000	      2041	80000b34	59910403	lb	x8,1433(x2)	  x2:0x8000885b  x8=0x00000000 PA:0x80008df4
       20435000	      2042	80000b38	2e4120a3	sw	x4,737(x2)	  x2:0x8000885b  x4:0x00000000 PA:0x80008b3c
       20445000	      2043	80000b3c	4d110623	sb	x17,1228(x2)	  x2:0x8000885b x17:0x00000000 PA:0x80008d27
       20455000	      2044	80000b40	28a10783	lb	x15,650(x2)	  x2:0x8000885b x15=0x00000000 PA:0x80008ae5
       20465000	      2045	80000b44	0c3124a3	sw	x3,201(x2)	  x2:0x8000885b  x3:0x00000000 PA:0x80008924
       20475000	      2046	80000b48	41615493	srai	x9,x2,0x16	  x2:0x8000885b  x9=0xfffffe00
       20485000	      2047	80000b4c	48710f23	sb	x7,1182(x2)	  x2:0x8000885b  x7:0x80009efc PA:0x80008cf9
       20495000	      2048	80000b50	73911883	lh	x17,1849(x2)	  x2:0x8000885b x17=0x00000000 PA:0x80008f94
       20505000	      2049	80000b54	415d5033	sra	x0,x26,x21	 x26:0x00000000 x21:0x00000692
       20515000	      2050	80000b58	00054333	xor	x6,x10,x0	 x10:0x00000000  x0:0x00000000  x6=0x00000000
       20525000	      2051	80000b5c	4a711183	lh	x3,1191(x2)	  x2:0x8000885b  x3=0x00000000 PA:0x80008d02
       20535000	      2052	80000b60	2cc14303	lbu	x6,716(x2)	  x2:0x8000885b  x6=0x00000000 PA:0x80008b27
       20545000	      2053	80000b64	733113a3	sh	x19,1831(x2)	  x2:0x8000885b x19:0x00000000 PA:0x80008f82
       20555000	      2054	80000b68	56410c83	lb	x25,1380(x2)	  x2:0x8000885b x25=0x00000000 PA:0x80008dbf
       20565000	      2055	80000b6c	01d0e033	or	x0,x1,x29	  x1:0x00000000 x29:0x00000000
       20575000	      2056	80000b70	d8117c13	andi	x24,x2,-639	  x2:0x8000885b x24=0x80008801
       20585000	      2057	80000b74	57c10a23	sb	x28,1396(x2)	  x2:0x8000885b x28:0x80009fc4 PA:0x80008dcf
       20595000	      2058	80000b78	3c014c03	lbu	x24,960(x2)	  x2:0x8000885b x24=0x00000000 PA:0x80008c1b
       20605000	      2059	80000b7c	16111da3	sh	x1,379(x2)	  x2:0x8000885b  x1:0x00000000 PA:0x800089d6
       20615000	      2060	80000b80	5e1101a3	sb	x1,1507(x2)	  x2:0x8000885b  x1:0x00000000 PA:0x80008e3e
       20625000	      2061	80000b84	39714c83	lbu	x25,919(x2)	  x2:0x8000885b x25=0x00000000 PA:0x80008bf2
       20635000	      2062	80000b88	01f6e333	or	x6,x13,x31	 x13:0x00000000 x31:0xffffffc0  x6=0xffffffc0
       20645000	      2063	80000b8c	38c1e417	auipc	x8,0x38c1e	  x8=0xb8c1eb88
       20655000	      2064	80000b90	01cc4133	xor	x2,x24,x28	 x24:0x00000000 x28:0x80009fc4  x2=0x80009fc4
       20665000	      2065	80000b94	99bceb13	ori	x22,x25,-1637	 x25:0x00000000 x22=0xfffff99b
       20675000	      2066	80000b98	4c3c7513	andi	x10,x24,1219	 x24:0x00000000 x10=0x00000000
       20685000	      2067	80000b9c	01319713	slli	x14,x3,0x13	  x3:0x00000000 x14=0x00000000
       20695000	      2068	80000ba0	f415b337	lui	x6,0xf415b	  x6=0xf415b000
       20705000	      2069	80000ba4	01b12833	slt	x16,x2,x27	  x2:0x80009fc4 x27:0x00000000 x16=0x00000001
       20715000	      2070	80000ba8	010594b3	sll	x9,x11,x16	 x11:0x80008f16 x16:0x00000001  x9=0x00011e2c
       20725000	      2071	80000bac	00a4a9b3	slt	x19,x9,x10	  x9:0x00011e2c x10:0x00000000 x19=0x00000000
       20735000	      2072	80000bb0	00a8ea33	or	x20,x17,x10	 x17:0x00000000 x10:0x00000000 x20=0x00000000
       20745000	      2073	80000bb4	00891313	slli	x6,x18,0x8	 x18:0x475a92a9  x6=0x5a92a900
       20755000	      2074	80000bb8	018e7233	and	x4,x28,x24	 x28:0x80009fc4 x24:0x00000000  x4=0x00000000
       20765000	      2075	80000bbc	00357d33	and	x26,x10,x3	 x10:0x00000000  x3:0x00000000 x26=0x00000000
       20775000	      2076	80000bc0	96343317	auipc	x6,0x96343	  x6=0x16343bbc
       20785000	      2077	80000bc4	0125fbb3	and	x23,x11,x18	 x11:0x80008f16 x18:0x475a92a9 x23=0x00008200
       20795000	      2078	80000bc8	005840b3	xor	x1,x16,x5	 x16:0x00000001  x5:0x00000000  x1=0x00000001
       20805000	      2079	80000bcc	2488f113	andi	x2,x17,584	 x17:0x00000000  x2=0x00000000
       20815000	      2080	80000bd0	01e4f2b3	and	x5,x9,x30	  x9:0x00011e2c x30:0x00000000  x5=0x00000000
       20825000	      2081	80000bd4	006074b3	and	x9,x0,x6	  x0:0x00000000  x6:0x16343bbc  x9=0x00000000
       20835000	      2082	80000bd8	008ee033	or	x0,x29,x8	 x29:0x00000000  x8:0xb8c1eb88
       20845000	      2083	80000bdc	03e68c63	beq	x13,x30,80000c14	 x13:0x00000000 x30:0x00000000
       20855000	      2084	00000000	00000013	addi	x0,x0,0	  x0:0x00000000
       20865000	      2085	80000c10	00000013	addi	x0,x0,0	  x0:0x00000000
       20875000	      2086	80000c14	01670a63	beq	x14,x22,80000c28	 x14:0x00000000 x22:0xfffff99b
       20885000	      2087	80000c18	85d095b7	lui	x11,0x85d09	 x11=0x85d09000
       20895000	      2088	80000c1c	00000013	addi	x0,x0,0	  x0:0x00000000
       20905000	      2089	80000c20	01263b33	sltu	x22,x12,x18	 x12:0x00000000 x18:0x475a92a9 x22=0x00000001
       20915000	      2090	80000c24	e2927f13	andi	x30,x4,-471	  x4:0x00000000 x30=0x00000000
       20925000	      2091	80000c28	047d5863	bge	x26,x7,80000c78	 x26:0x00000000  x7:0x80009efc
       20935000	      2092	00000000	00000013	addi	x0,x0,0	  x0:0x00000000
       20945000	      2093	80000c74	00000013	addi	x0,x0,0	  x0:0x00000000
       20955000	      2094	80000c78	00aa4a33	xor	x20,x20,x10	 x20:0x00000000 x10:0x00000000 x20=0x00000000
       20965000	      2095	80000c7c	00159b93	slli	x23,x11,0x1	 x11:0x85d09000 x23=0x0ba12000
       20975000	      2096	80000c80	e7584813	xori	x16,x16,-395	 x16:0x00000001 x16=0xfffffe74
       20985000	      2097	80000c84	00cc7b33	and	x22,x24,x12	 x24:0x00000000 x12:0x00000000 x22=0x00000000
       20995000	      2098	80000c88	01495b93	srli	x23,x18,0x14	 x18:0x475a92a9 x23=0x00000475
       21005000	      2099	80000c8c	0422d863	bge	x5,x2,80000cdc	  x5:0x00000000  x2:0x00000000
       21015000	      2100	00000000	00000013	addi	x0,x0,0	  x0:0x00000000
       21025000	      2101	80000cd8	00000013	addi	x0,x0,0	  x0:0x00000000
       21035000	      2102	80000cdc	04451863	bne	x10,x4,80000d2c	 x10:0x00000000  x4:0x00000000
       21045000	      2103	80000ce0	8f828f93	addi	x31,x5,-1800	  x5:0x00000000 x31=0xfffff8f8
       21055000	      2104	80000ce4	41f07c93	andi	x25,x0,1055	  x0:0x00000000 x25=0x00000000
       21065000	      2105	80000ce8	03e69c63	bne	x13,x30,80000d20	 x13:0x00000000 x30:0x00000000
       21075000	      2106	80000cec	01b01d93	slli	x27,x0,0x1b	  x0:0x00000000 x27=0x00000000
       21085000	      2107	80000cf0	bb8d7813	andi	x16,x26,-1096	 x26:0x00000000 x16=0x00000000
       21095000	      2108	80000cf4	00605b13	srli	x22,x0,0x6	  x0:0x00000000 x22=0x00000000
       21105000	      2109	80000cf8	035f5a63	bge	x30,x21,80000d2c	 x30:0x00000000 x21:0x00000692
       21115000	      2110	80000cfc	724cba37	lui	x20,0x724cb	 x20=0x724cb000
       21125000	      2111	80000d00	00dcdf33	srl	x30,x25,x13	 x25:0x00000000 x13:0x00000000 x30=0x00000000
       21135000	      2112	80000d04	03491463	bne	x18,x20,80000d2c	 x18:0x475a92a9 x20:0x724cb000
       21145000	      2113	00000000	00000013	addi	x0,x0,0	  x0:0x00000000
       21155000	      2114	80000d28	00000013	addi	x0,x0,0	  x0:0x00000000
       21165000	      2115	80000d2c	9ad4cb93	xori	x23,x9,-1619	  x9:0x00000000 x23=0xfffff9ad
       21175000	      2116	80000d30	021f5a63	bge	x30,x1,80000d64	 x30:0x00000000  x1:0x00000001
       21185000	      2117	80000d34	014f2cb3	slt	x25,x30,x20	 x30:0x00000000 x20:0x724cb000 x25=0x00000001
       21195000	      2118	80000d38	004e0263	beq	x28,x4,80000d3c	 x28:0x80009fc4  x4:0x00000000
       21205000	      2119	80000d3c	01ce0b33	add	x22,x28,x28	 x28:0x80009fc4 x28:0x80009fc4 x22=0x00013f88
       21215000	      2120	80000d40	10624613	xori	x12,x4,262	  x4:0x00000000 x12=0x00000106
       21225000	      2121	80000d44	405b5cb3	sra	x25,x22,x5	 x22:0x00013f88  x5:0x00000000 x25=0x00013f88
       21235000	      2122	80000d48	0266cc63	blt	x13,x6,80000d80	 x13:0x00000000  x6:0x16343bbc
       21245000	      2123	00000000	00000013	addi	x0,x0,0	  x0:0x00000000
       21255000	      2124	80000d7c	00000013	addi	x0,x0,0	  x0:0x00000000
       21265000	      2125	80000d80	3d8f9c17	auipc	x24,0x3d8f9	 x24=0xbd8f9d7c
       21275000	      2126	80000d84	03ba5663	bge	x20,x27,80000db0	 x20:0x724cb000 x27:0x00000000
       21285000	      2127	00000000	00000013	addi	x0,x0,0	  x0:0x00000000
       21295000	      2128	80000dac	00000013	addi	x0,x0,0	  x0:0x00000000
       21305000	      2129	80000db0	02e59063	bne	x11,x14,80000dd0	 x11:0x85d09000 x14:0x00000000
       21315000	      2130	00000000	00000013	addi	x0,x0,0	  x0:0x00000000
       21325000	      2131	80000dcc	00000013	addi	x0,x0,0	  x0:0x00000000
       21335000	      2132	80000dd0	00158033	add	x0,x11,x1	 x11:0x85d09000  x1:0x00000001
       21345000	      2133	80000dd4	ebebca37	lui	x20,0xebebc	 x20=0xebebc000
       21355000	      2134	80000dd8	002e6733	or	x14,x28,x2	 x28:0x80009fc4  x2:0x00000000 x14=0x80009fc4
       21365000	      2135	80000ddc	00000013	addi	x0,x0,0	  x0:0x00000000
       21375000	      2136	80000de0	41135693	srai	x13,x6,0x11	  x6:0x16343bbc x13=0x00000b1a
       21385000	      2137	80000de4	007c1833	sll	x16,x24,x7	 x24:0xbd8f9d7c  x7:0x80009efc x16=0xc0000000
       21395000	      2138	80000de8	1d69e313	ori	x6,x19,470	 x19:0x00000000  x6=0x000001d6
       21405000	      2139	80000dec	01f7f833	and	x16,x15,x31	 x15:0x00000000 x31:0xfffff8f8 x16=0x00000000
       21415000	      2140	80000df0	03511463	bne	x2,x21,80000e18	  x2:0x00000000 x21:0x00000692
       21425000	      2141	00000000	00000013	addi	x0,x0,0	  x0:0x00000000
       21435000	      2142	80000e14	00000013	addi	x0,x0,0	  x0:0x00000000
       21445000	      2143	80000e18	015e1263	bne	x28,x21,80000e1c	 x28:0x80009fc4 x21:0x00000692
       21455000	      2144	00000000	00000013	addi	x0,x0,0	  x0:0x00000000
       21465000	      2145	80000e18	00000013	addi	x0,x0,0	  x0:0x00000000
       21475000	      2146	80000e1c	0243fc63	bgeu	x7,x4,80000e54	  x7:0x80009efc  x4:0x00000000
       21485000	      2147	00000000	00000013	addi	x0,x0,0	  x0:0x00000000
       21495000	      2148	80000e50	00000013	addi	x0,x0,0	  x0:0x00000000
       21505000	      2149	80000e54	00be8c63	beq	x29,x11,80000e6c	 x29:0x00000000 x11:0x85d09000
       21515000	      2150	80000e58	014de863	bltu	x27,x20,80000e68	 x27:0x00000000 x20:0xebebc000
       21525000	      2151	00000000	00000013	addi	x0,x0,0	  x0:0x00000000
       21535000	      2152	80000e64	00000013	addi	x0,x0,0	  x0:0x00000000
       21545000	      2153	80000e68	404c00b3	sub	x1,x24,x4	 x24:0xbd8f9d7c  x4:0x00000000  x1=0xbd8f9d7c
       21555000	      2154	80000e6c	00ae6833	or	x16,x28,x10	 x28:0x80009fc4 x10:0x00000000 x16=0x80009fc4
       21565000	      2155	80000e70	87480593	addi	x11,x16,-1932	 x16:0x80009fc4 x11=0x80009838
       21575000	      2156	80000e74	006b50b3	srl	x1,x22,x6	 x22:0x00013f88  x6:0x000001d6  x1=0x00000000
       21585000	      2157	80000e78	bcbd0613	addi	x12,x26,-1077	 x26:0x00000000 x12=0xfffffbcb
       21595000	      2158	80000e7c	00097fb3	and	x31,x18,x0	 x18:0x475a92a9  x0:0x00000000 x31=0x00000000
       21605000	      2159	80000e80	0198ba33	sltu	x20,x17,x25	 x17:0x00000000 x25:0x00013f88 x20=0x00000001
       21615000	      2160	80000e84	04945263	bge	x8,x9,80000ec8	  x8:0xb8c1eb88  x9:0x00000000
       21625000	      2161	80000e88	e6462993	slti	x19,x12,-412	 x12:0xfffffbcb x19=0x00000001
       21635000	      2162	80000e8c	8c118813	addi	x16,x3,-1855	  x3:0x00000000 x16=0xfffff8c1
       21645000	      2163	80000e90	016a3f33	sltu	x30,x20,x22	 x20:0x00000001 x22:0x00013f88 x30=0x00000001
       21655000	      2164	80000e94	0028d133	srl	x2,x17,x2	 x17:0x00000000  x2:0x00000000  x2=0x00000000
       21665000	      2165	80000e98	010452b3	srl	x5,x8,x16	  x8:0xb8c1eb88 x16:0xfffff8c1  x5=0x5c60f5c4
       21675000	      2166	80000e9c	e6a76113	ori	x2,x14,-406	 x14:0x80009fc4  x2=0xffffffee
       21685000	      2167	80000ea0	7674eab7	lui	x21,0x7674e	 x21=0x7674e000
       21695000	      2168	80000ea4	00d44f33	xor	x30,x8,x13	  x8:0xb8c1eb88 x13:0x00000b1a x30=0xb8c1e092
       21705000	      2169	80000ea8	02d27063	bgeu	x4,x13,80000ec8	  x4:0x00000000 x13:0x00000b1a
       21715000	      2170	80000eac	01422133	slt	x2,x4,x20	  x4:0x00000000 x20:0x00000001  x2=0x00000001
       21725000	      2171	80000eb0	05809863	bne	x1,x24,80000f00	  x1:0x00000000 x24:0xbd8f9d7c
       21735000	      2172	00000000	00000013	addi	x0,x0,0	  x0:0x00000000
       21745000	      2173	80000efc	00000013	addi	x0,x0,0	  x0:0x00000000
       21755000	      2174	80000f00	41c884b3	sub	x9,x17,x28	 x17:0x00000000 x28:0x80009fc4  x9=0x7fff603c
       21765000	      2175	80000f04	01dd59b3	srl	x19,x26,x29	 x26:0x00000000 x29:0x00000000 x19=0x00000000
       21775000	      2176	80000f08	c05e5897	auipc	x17,0xc05e5	 x17=0x405e5f04
       21785000	      2177	80000f0c	42014713	xori	x14,x2,1056	  x2:0x00000001 x14=0x00000421
       21795000	      2178	80000f10	046afe63	bgeu	x21,x6,80000f6c	 x21:0x7674e000  x6:0x000001d6
       21805000	      2179	00000000	00000013	addi	x0,x0,0	  x0:0x00000000
       21815000	      2180	80000f68	00000013	addi	x0,x0,0	  x0:0x00000000
       21825000	      2181	80000f6c	b2dc2593	slti	x11,x24,-1235	 x24:0xbd8f9d7c x11=0x00000001
       21835000	      2182	80000f70	00f3feb3	and	x29,x7,x15	  x7:0x80009efc x15:0x00000000 x29=0x00000000
       21845000	      2183	80000f74	0113c4b3	xor	x9,x7,x17	  x7:0x80009efc x17:0x405e5f04  x9=0xc05ec1f8
       21855000	      2184	80000f78	0d92de63	bge	x5,x25,80001054	  x5:0x5c60f5c4 x25:0x00013f88
       21865000	      2185	00000000	00000013	addi	x0,x0,0	  x0:0x00000000
       21875000	      2186	80001050	00000013	addi	x0,x0,0	  x0:0x00000000
       21885000	      2187	80001054	d5b13093	sltiu	x1,x2,-677	  x2:0x00000001  x1=0x00000001
       21895000	      2188	80001058	023e7a63	bgeu	x28,x3,8000108c	 x28:0x80009fc4  x3:0x00000000
       21905000	      2189	00000000	00000013	addi	x0,x0,0	  x0:0x00000000
       21915000	      2190	80001088	00000013	addi	x0,x0,0	  x0:0x00000000
       21925000	      2191	8000108c	04219863	bne	x3,x2,800010dc	  x3:0x00000000  x2:0x00000001
       21935000	      2192	00000000	00000013	addi	x0,x0,0	  x0:0x00000000
       21945000	      2193	800010d8	00000013	addi	x0,x0,0	  x0:0x00000000
       21955000	      2194	800010dc	0c738f13	addi	x30,x7,199	  x7:0x80009efc x30=0x80009fc3
       21965000	      2195	800010e0	0053f233	and	x4,x7,x5	  x7:0x80009efc  x5:0x5c60f5c4  x4=0x000094c4
       21975000	      2196	800010e4	00709263	bne	x1,x7,800010e8	  x1:0x00000001  x7:0x80009efc
       21985000	      2197	00000000	00000013	addi	x0,x0,0	  x0:0x00000000
       21995000	      2198	800010e4	00000013	addi	x0,x0,0	  x0:0x00000000
       22005000	      2199	800010e8	01125463	bge	x4,x17,800010f0	  x4:0x000094c4 x17:0x405e5f04
       22015000	      2200	800010ec	027f0663	beq	x30,x7,80001118	 x30:0x80009fc3  x7:0x80009efc
       22025000	      2201	800010f0	6e4e3413	sltiu	x8,x28,1764	 x28:0x80009fc4  x8=0x00000000
       22035000	      2202	800010f4	ddcceab7	lui	x21,0xddcce	 x21=0xddcce000
       22045000	      2203	800010f8	e0d8ff93	andi	x31,x17,-499	 x17:0x405e5f04 x31=0x405e5e04
       22055000	      2204	800010fc	03135663	bge	x6,x17,80001128	  x6:0x000001d6 x17:0x405e5f04
       22065000	      2205	80001100	017d4633	xor	x12,x26,x23	 x26:0x00000000 x23:0xfffff9ad x12=0xfffff9ad
       22075000	      2206	80001104	048d8863	beq	x27,x8,80001154	 x27:0x00000000  x8:0x00000000
       22085000	      2207	00000000	00000013	addi	x0,x0,0	  x0:0x00000000
       22095000	      2208	80001150	00000013	addi	x0,x0,0	  x0:0x00000000
       22105000	      2209	80001154	460cf8b7	lui	x17,0x460cf	 x17=0x460cf000
       22115000	      2210	80001158	6bc63837	lui	x16,0x6bc63	 x16=0x6bc63000
       22125000	      2211	8000115c	5bc0b713	sltiu	x14,x1,1468	  x1:0x00000001 x14=0x00000001
       22135000	      2212	80001160	0040cfb3	xor	x31,x1,x4	  x1:0x00000001  x4:0x000094c4 x31=0x000094c5
       22145000	      2213	80001164	04021263	bne	x4,x0,800011a8	  x4:0x000094c4  x0:0x00000000
       22155000	      2214	00000000	00000013	addi	x0,x0,0	  x0:0x00000000
       22165000	      2215	800011a4	00000013	addi	x0,x0,0	  x0:0x00000000
       22175000	      2216	800011a8	018a0633	add	x12,x20,x24	 x20:0x00000001 x24:0xbd8f9d7c x12=0xbd8f9d7d
       22185000	      2217	800011ac	0393b493	sltiu	x9,x7,57	  x7:0x80009efc  x9=0x00000000
       22195000	      2218	800011b0	008205b3	add	x11,x4,x8	  x4:0x000094c4  x8:0x00000000 x11=0x000094c4
       22205000	      2219	800011b4	00000013	addi	x0,x0,0	  x0:0x00000000
       22215000	      2220	800011b8	00971863	bne	x14,x9,800011c8	 x14:0x00000001  x9:0x00000000
       22225000	      2221	00000000	00000013	addi	x0,x0,0	  x0:0x00000000
       22235000	      2222	800011c4	00000013	addi	x0,x0,0	  x0:0x00000000
       22245000	      2223	800011c8	01a9a0b3	slt	x1,x19,x26	 x19:0x00000000 x26:0x00000000  x1=0x00000000
       22255000	      2224	800011cc	60363c13	sltiu	x24,x12,1539	 x12:0xbd8f9d7d x24=0x00000000
       22265000	      2225	800011d0	01f3d193	srli	x3,x7,0x1f	  x7:0x80009efc  x3=0x00000001
       22275000	      2226	800011d4	01ee8ab3	add	x21,x29,x30	 x29:0x00000000 x30:0x80009fc3 x21=0x80009fc3
       22285000	      2227	800011d8	00c025b3	slt	x11,x0,x12	  x0:0x00000000 x12:0xbd8f9d7d x11=0x00000000
       22295000	      2228	800011dc	134a8f13	addi	x30,x21,308	 x21:0x80009fc3 x30=0x8000a0f7
       22305000	      2229	800011e0	3f366593	ori	x11,x12,1011	 x12:0xbd8f9d7d x11=0xbd8f9fff
       22315000	      2230	800011e4	0130d593	srli	x11,x1,0x13	  x1:0x00000000 x11=0x00000000
       22325000	      2231	800011e8	d572c713	xori	x14,x5,-681	  x5:0x5c60f5c4 x14=0xa39f0893
       22335000	      2232	800011ec	01095d93	srli	x27,x18,0x10	 x18:0x475a92a9 x27=0x0000475a
       22345000	      2233	800011f0	587d4417	auipc	x8,0x587d4	  x8=0xd87d51ec
       22355000	      2234	800011f4	009ec2b3	xor	x5,x29,x9	 x29:0x00000000  x9:0x00000000  x5=0x00000000
       22365000	      2235	800011f8	00227c63	bgeu	x4,x2,80001210	  x4:0x000094c4  x2:0x00000001
       22375000	      2236	00000000	00000013	addi	x0,x0,0	  x0:0x00000000
       22385000	      2237	8000120c	00000013	addi	x0,x0,0	  x0:0x00000000
       22395000	      2238	80001210	019f3cb3	sltu	x25,x30,x25	 x30:0x8000a0f7 x25:0x00013f88 x25=0x00000000
       22405000	      2239	80001214	02689063	bne	x17,x6,80001234	 x17:0x460cf000  x6:0x000001d6
       22415000	      2240	00000000	00000013	addi	x0,x0,0	  x0:0x00000000
       22425000	      2241	80001230	00000013	addi	x0,x0,0	  x0:0x00000000
       22435000	      2242	80001234	6a93cd13	xori	x26,x7,1705	  x7:0x80009efc x26=0x80009855
       22445000	      2243	80001238	00950a33	add	x20,x10,x9	 x10:0x00000000  x9:0x00000000 x20=0x00000000
       22455000	      2244	8000123c	011de263	bltu	x27,x17,80001240	 x27:0x0000475a x17:0x460cf000
       22465000	      2245	00000000	00000013	addi	x0,x0,0	  x0:0x00000000
       22475000	      2246	8000123c	00000013	addi	x0,x0,0	  x0:0x00000000
       22485000	      2247	80001240	db335c17	auipc	x24,0xdb335	 x24=0x5b33623c
       22495000	      2248	80001244	00620033	add	x0,x4,x6	  x4:0x000094c4  x6:0x000001d6
       22505000	      2249	80001248	00323433	sltu	x8,x4,x3	  x4:0x000094c4  x3:0x00000001  x8=0x00000000
       22515000	      2250	8000124c	03328663	beq	x5,x19,80001278	  x5:0x00000000 x19:0x00000000
       22525000	      2251	00000000	00000013	addi	x0,x0,0	  x0:0x00000000
       22535000	      2252	80001274	00000013	addi	x0,x0,0	  x0:0x00000000
       22545000	      2253	80001278	00b539b3	sltu	x19,x10,x11	 x10:0x00000000 x11:0x00000000 x19=0x00000000
       22555000	      2254	8000127c	01550263	beq	x10,x21,80001280	 x10:0x00000000 x21:0x80009fc3
       22565000	      2255	80001280	4e2fcd93	xori	x27,x31,1250	 x31:0x000094c5 x27=0x00009027
       22575000	      2256	80001284	00e4ac33	slt	x24,x9,x14	  x9:0x00000000 x14:0xa39f0893 x24=0x00000000
       22585000	      2257	80001288	077dec63	bltu	x27,x23,80001300	 x27:0x00009027 x23:0xfffff9ad
       22595000	      2258	00000000	00000013	addi	x0,x0,0	  x0:0x00000000
       22605000	      2259	800012fc	00000013	addi	x0,x0,0	  x0:0x00000000
       22615000	      2260	80001300	00431533	sll	x10,x6,x4	  x6:0x000001d6  x4:0x000094c4 x10=0x00001d60
       22625000	      2261	80001304	00e61613	slli	x12,x12,0xe	 x12:0xbd8f9d7d x12=0xe75f4000
       22635000	      2262	80001308	40b18633	sub	x12,x3,x11	  x3:0x00000001 x11:0x00000000 x12=0x00000001
       22645000	      2263	8000130c	00716433	or	x8,x2,x7	  x2:0x00000001  x7:0x80009efc  x8=0x80009efd
       22655000	      2264	80001310	01ca5633	srl	x12,x20,x28	 x20:0x00000000 x28:0x80009fc4 x12=0x00000000
       22665000	      2265	80001314	40690fb3	sub	x31,x18,x6	 x18:0x475a92a9  x6:0x000001d6 x31=0x475a90d3
       22675000	      2266	80001318	40f0d433	sra	x8,x1,x15	  x1:0x00000000 x15:0x00000000  x8=0x00000000
       22685000	      2267	8000131c	4002d833	sra	x16,x5,x0	  x5:0x00000000  x0:0x00000000 x16=0x00000000
       22695000	      2268	80001320	0105b733	sltu	x14,x11,x16	 x11:0x00000000 x16:0x00000000 x14=0x00000000
       22705000	      2269	80001324	58ff7793	andi	x15,x30,1423	 x30:0x8000a0f7 x15=0x00000087
       22715000	      2270	80001328	417ad9b3	sra	x19,x21,x23	 x21:0x80009fc3 x23:0xfffff9ad x19=0xfffc0004
       22725000	      2271	8000132c	02bdc063	blt	x27,x11,8000134c	 x27:0x00009027 x11:0x00000000
       22735000	      2272	80001330	01e1cab3	xor	x21,x3,x30	  x3:0x00000001 x30:0x8000a0f7 x21=0x8000a0f6
       22745000	      2273	80001334	022d9c63	bne	x27,x2,8000136c	 x27:0x00009027  x2:0x00000001
       22755000	      2274	00000000	00000013	addi	x0,x0,0	  x0:0x00000000
       22765000	      2275	80001368	00000013	addi	x0,x0,0	  x0:0x00000000
       22775000	      2276	8000136c	41e28ab3	sub	x21,x5,x30	  x5:0x00000000 x30:0x8000a0f7 x21=0x7fff5f09
       22785000	      2277	80001370	00000013	addi	x0,x0,0	  x0:0x00000000
       22795000	      2278	80001374	0081e263	bltu	x3,x8,80001378	  x3:0x00000001  x8:0x00000000
       22805000	      2279	80001378	01de0233	add	x4,x28,x29	 x28:0x80009fc4 x29:0x00000000  x4=0x80009fc4
       22815000	      2280	8000137c	018f24b3	slt	x9,x30,x24	 x30:0x8000a0f7 x24:0x00000000  x9=0x00000001
       22825000	      2281	80001380	5c69cd13	xori	x26,x19,1478	 x19:0xfffc0004 x26=0xfffc05c2
       22835000	      2282	80001384	92cc2a13	slti	x20,x24,-1748	 x24:0x00000000 x20=0x00000000
       22845000	      2283	80001388	00965613	srli	x12,x12,0x9	 x12:0x00000000 x12=0x00000000
       22855000	      2284	8000138c	a10c3093	sltiu	x1,x24,-1520	 x24:0x00000000  x1=0x00000001
       22865000	      2285	80001390	018b76b3	and	x13,x22,x24	 x22:0x00013f88 x24:0x00000000 x13=0x00000000
       22875000	      2286	80001394	051ce863	bltu	x25,x17,800013e4	 x25:0x00000000 x17:0x460cf000
       22885000	      2287	00000000	00000013	addi	x0,x0,0	  x0:0x00000000
       22895000	      2288	800013e0	00000013	addi	x0,x0,0	  x0:0x00000000
       22905000	      2289	800013e4	201cfd13	andi	x26,x25,513	 x25:0x00000000 x26=0x00000000
       22915000	      2290	800013e8	010d7863	bgeu	x26,x16,800013f8	 x26:0x00000000 x16:0x00000000
       22925000	      2291	00000000	00000013	addi	x0,x0,0	  x0:0x00000000
       22935000	      2292	800013f4	00000013	addi	x0,x0,0	  x0:0x00000000
       22945000	      2293	800013f8	00bf7c63	bgeu	x30,x11,80001410	 x30:0x8000a0f7 x11:0x00000000
       22955000	      2294	00000000	00000013	addi	x0,x0,0	  x0:0x00000000
       22965000	      2295	8000140c	00000013	addi	x0,x0,0	  x0:0x00000000
       22975000	      2296	80001410	01d7dcb3	srl	x25,x15,x29	 x15:0x00000087 x29:0x00000000 x25=0x00000087
       22985000	      2297	80001414	0156ec63	bltu	x13,x21,8000142c	 x13:0x00000000 x21:0x7fff5f09
       22995000	      2298	00000000	00000013	addi	x0,x0,0	  x0:0x00000000
       23005000	      2299	80001428	00000013	addi	x0,x0,0	  x0:0x00000000
       23015000	      2300	8000142c	00000013	addi	x0,x0,0	  x0:0x00000000
       23025000	      2301	80001430	fff9a313	slti	x6,x19,-1	 x19:0xfffc0004  x6=0x00000001
       23035000	      2302	80001434	00000013	addi	x0,x0,0	  x0:0x00000000
       23045000	      2303	80001438	40845f33	sra	x30,x8,x8	  x8:0x00000000  x8:0x00000000 x30=0x00000000
       23055000	      2304	8000143c	32cf0713	addi	x14,x30,812	 x30:0x00000000 x14=0x0000032c
       23065000	      2305	80001440	01a60a63	beq	x12,x26,80001454	 x12:0x00000000 x26:0x00000000
       23075000	      2306	00000000	00000013	addi	x0,x0,0	  x0:0x00000000
       23085000	      2307	80001450	00000013	addi	x0,x0,0	  x0:0x00000000
       23095000	      2308	80001454	00821233	sll	x4,x4,x8	  x4:0x80009fc4  x8:0x00000000  x4=0x80009fc4
       23105000	      2309	80001458	00abc2b3	xor	x5,x23,x10	 x23:0xfffff9ad x10:0x00001d60  x5=0xffffe4cd
       23115000	      2310	8000145c	41f2dd33	sra	x26,x5,x31	  x5:0xffffe4cd x31:0x475a90d3 x26=0xffffffff
       23125000	      2311	80001460	01728f33	add	x30,x5,x23	  x5:0xffffe4cd x23:0xfffff9ad x30=0xffffde7a
       23135000	      2312	80001464	419c04b3	sub	x9,x24,x25	 x24:0x00000000 x25:0x00000087  x9=0xffffff79
       23145000	      2313	80001468	d4a14f13	xori	x30,x2,-694	  x2:0x00000001 x30=0xfffffd4b
       23155000	      2314	8000146c	049a7263	bgeu	x20,x9,800014b0	 x20:0x00000000  x9:0xffffff79
       23165000	      2315	80001470	2634a893	slti	x17,x9,611	  x9:0xffffff79 x17=0x00000001
       23175000	      2316	80001474	0040f233	and	x4,x1,x4	  x1:0x00000001  x4:0x80009fc4  x4=0x00000000
       23185000	      2317	80001478	4076d4b3	sra	x9,x13,x7	 x13:0x00000000  x7:0x80009efc  x9=0x00000000
       23195000	      2318	8000147c	00000013	addi	x0,x0,0	  x0:0x00000000
       23205000	      2319	80001480	00de0863	beq	x28,x13,80001490	 x28:0x80009fc4 x13:0x00000000
       23215000	      2320	80001484	015e1893	slli	x17,x28,0x15	 x28:0x80009fc4 x17=0xf8800000
       23225000	      2321	80001488	2d830c93	addi	x25,x6,728	  x6:0x00000001 x25=0x000002d9
       23235000	      2322	8000148c	41ba5f93	srai	x31,x20,0x1b	 x20:0x00000000 x31=0x00000000
       23245000	      2323	80001490	0397ea63	bltu	x15,x25,800014c4	 x15:0x00000087 x25:0x000002d9
       23255000	      2324	00000000	00000013	addi	x0,x0,0	  x0:0x00000000
       23265000	      2325	800014c0	00000013	addi	x0,x0,0	  x0:0x00000000
       23275000	      2326	800014c4	03015063	bge	x2,x16,800014e4	  x2:0x00000001 x16:0x00000000
       23285000	      2327	00000000	00000013	addi	x0,x0,0	  x0:0x00000000
       23295000	      2328	800014e0	00000013	addi	x0,x0,0	  x0:0x00000000
       23305000	      2329	800014e4	01c46c33	or	x24,x8,x28	  x8:0x00000000 x28:0x80009fc4 x24=0x80009fc4
       23315000	      2330	800014e8	039dda63	bge	x27,x25,8000151c	 x27:0x00009027 x25:0x000002d9
       23325000	      2331	00000000	00000013	addi	x0,x0,0	  x0:0x00000000
       23335000	      2332	80001518	00000013	addi	x0,x0,0	  x0:0x00000000
       23345000	      2333	8000151c	00619a13	slli	x20,x3,0x6	  x3:0x00000001 x20=0x00000040
       23355000	      2334	80001520	057b7863	bgeu	x22,x23,80001570	 x22:0x00013f88 x23:0xfffff9ad
       23365000	      2335	80001524	003c59b3	srl	x19,x24,x3	 x24:0x80009fc4  x3:0x00000001 x19=0x40004fe2
       23375000	      2336	80001528	00547533	and	x10,x8,x5	  x8:0x00000000  x5:0xffffe4cd x10=0x00000000
       23385000	      2337	8000152c	00de3cb3	sltu	x25,x28,x13	 x28:0x80009fc4 x13:0x00000000 x25=0x00000000
       23395000	      2338	80001530	04834063	blt	x6,x8,80001570	  x6:0x00000001  x8:0x00000000
       23405000	      2339	80001534	01ed7a63	bgeu	x26,x30,80001548	 x26:0xffffffff x30:0xfffffd4b
       23415000	      2340	00000000	00000013	addi	x0,x0,0	  x0:0x00000000
       23425000	      2341	80001544	00000013	addi	x0,x0,0	  x0:0x00000000
       23435000	      2342	80001548	7e292813	slti	x16,x18,2018	 x18:0x475a92a9 x16=0x00000000
       23445000	      2343	8000154c	007be863	bltu	x23,x7,8000155c	 x23:0xfffff9ad  x7:0x80009efc
       23455000	      2344	80001550	ee488713	addi	x14,x17,-284	 x17:0xf8800000 x14=0xf87ffee4
       23465000	      2345	80001554	01a45fb3	srl	x31,x8,x26	  x8:0x00000000 x26:0xffffffff x31=0x00000000
       23475000	      2346	80001558	018b44b3	xor	x9,x22,x24	 x22:0x00013f88 x24:0x80009fc4  x9=0x8001a04c
       23485000	      2347	8000155c	40b85033	sra	x0,x16,x11	 x16:0x00000000 x11:0x00000000
       23495000	      2348	80001560	03706663	bltu	x0,x23,8000158c	  x0:0x00000000 x23:0xfffff9ad
       23505000	      2349	00000000	00000013	addi	x0,x0,0	  x0:0x00000000
       23515000	      2350	80001588	00000013	addi	x0,x0,0	  x0:0x00000000
       23525000	      2351	8000158c	00864433	xor	x8,x12,x8	 x12:0x00000000  x8:0x00000000  x8=0x00000000
       23535000	      2352	80001590	019cd113	srli	x2,x25,0x19	 x25:0x00000000  x2=0x00000000
       23545000	      2353	80001594	40a35d13	srai	x26,x6,0xa	  x6:0x00000001 x26=0x00000000
       23555000	      2354	80001598	459d2593	slti	x11,x26,1113	 x26:0x00000000 x11=0x00000001
       23565000	      2355	8000159c	04985263	bge	x16,x9,800015e0	 x16:0x00000000  x9:0x8001a04c
       23575000	      2356	00000000	00000013	addi	x0,x0,0	  x0:0x00000000
       23585000	      2357	800015dc	00000013	addi	x0,x0,0	  x0:0x00000000
       23595000	      2358	800015e0	010c5a93	srli	x21,x24,0x10	 x24:0x80009fc4 x21=0x00008000
       23605000	      2359	800015e4	01129c33	sll	x24,x5,x17	  x5:0xffffe4cd x17:0xf8800000 x24=0xffffe4cd
       23615000	      2360	800015e8	bb251f17	auipc	x30,0xbb251	 x30=0x3b2525e4
       23625000	      2361	800015ec	dc5c3a13	sltiu	x20,x24,-571	 x24:0xffffe4cd x20=0x00000001
       23635000	      2362	800015f0	00000013	addi	x0,x0,0	  x0:0x00000000
       23645000	      2363	800015f4	41080b33	sub	x22,x16,x16	 x16:0x00000000 x16:0x00000000 x22=0x00000000
       23655000	      2364	800015f8	edb58813	addi	x16,x11,-293	 x11:0x00000001 x16=0xfffffedc
       23665000	      2365	800015fc	41b30a33	sub	x20,x6,x27	  x6:0x00000001 x27:0x00009027 x20=0xffff6fda
       23675000	      2366	80001600	02d2c663	blt	x5,x13,8000162c	  x5:0xffffe4cd x13:0x00000000
       23685000	      2367	00000000	00000013	addi	x0,x0,0	  x0:0x00000000
       23695000	      2368	80001628	00000013	addi	x0,x0,0	  x0:0x00000000
       23705000	      2369	8000162c	12718713	addi	x14,x3,295	  x3:0x00000001 x14=0x00000128
       23715000	      2370	80001630	7fd7f713	andi	x14,x15,2045	 x15:0x00000087 x14=0x00000085
       23725000	      2371	80001634	40b1d713	srai	x14,x3,0xb	  x3:0x00000001 x14=0x00000000
       23735000	      2372	80001638	00000013	addi	x0,x0,0	  x0:0x00000000
       23745000	      2373	8000163c	40eb84b3	sub	x9,x23,x14	 x23:0xfffff9ad x14:0x00000000  x9=0xfffff9ad
       23755000	      2374	80001640	00e99793	slli	x15,x19,0xe	 x19:0x40004fe2 x15=0x13f88000
       23765000	      2375	80001644	40785713	srai	x14,x16,0x7	 x16:0xfffffedc x14=0xfffffffd
       23775000	      2376	80001648	78317d13	andi	x26,x2,1923	  x2:0x00000000 x26=0x00000000
       23785000	      2377	8000164c	01b3e1b3	or	x3,x7,x27	  x7:0x80009efc x27:0x00009027  x3=0x80009eff
       23795000	      2378	80001650	8b277413	andi	x8,x14,-1870	 x14:0xfffffffd  x8=0xfffff8b0
       23805000	      2379	80001654	6688f137	lui	x2,0x6688f	  x2=0x6688f000
       23815000	      2380	80001658	892a8593	addi	x11,x21,-1902	 x21:0x00008000 x11=0x00007892
       23825000	      2381	8000165c	0de1d463	bge	x3,x30,80001724	  x3:0x80009eff x30:0x3b2525e4
       23835000	      2382	80001660	32f2a797	auipc	x15,0x32f2a	 x15=0xb2f2b65c
       23845000	      2383	80001664	401dd433	sra	x8,x27,x1	 x27:0x00009027  x1:0x00000001  x8=0x00004813
       23855000	      2384	80001668	00e9bd33	sltu	x26,x19,x14	 x19:0x40004fe2 x14:0xfffffffd x26=0x00000001
       23865000	      2385	8000166c	01683a33	sltu	x20,x16,x22	 x16:0xfffffedc x22:0x00000000 x20=0x00000000
       23875000	      2386	80001670	00008117	auipc	x2,0x8	  x2=0x8000966c
       23885000	      2387	80001674	89910113	addi	x2,x2,-1895	  x2:0x8000966c  x2=0x80008f05
       23895000	      2388	80001678	a1083313	sltiu	x6,x16,-1520	 x16:0xfffffedc  x6=0x00000000
       23905000	      2389	8000167c	e8b12f03	lw	x30,-373(x2)	  x2:0x80008f05 x30=0x00000001 PA:0x80008d90
       23915000	      2390	80001680	01b709b3	add	x19,x14,x27	 x14:0xfffffffd x27:0x00009027 x19=0x00009024
       23925000	      2391	80001684	41b7d713	srai	x14,x15,0x1b	 x15:0xb2f2b65c x14=0xfffffff6
       23935000	      2392	80001688	00164633	xor	x12,x12,x1	 x12:0x00000000  x1:0x00000001 x12=0x00000001
       23945000	      2393	8000168c	1c5fcc93	xori	x25,x31,453	 x31:0x00000000 x25=0x000001c5
       23955000	      2394	80001690	019666b3	or	x13,x12,x25	 x12:0x00000001 x25:0x000001c5 x13=0x000001c5
       23965000	      2395	80001694	403d0cb3	sub	x25,x26,x3	 x26:0x00000001  x3:0x80009eff x25=0x7fff6102
       23975000	      2396	80001698	aa915c83	lhu	x25,-1367(x2)	  x2:0x80008f05 x25=0x00000000 PA:0x800089ae
       23985000	      2397	8000169c	b0510123	sb	x5,-1278(x2)	  x2:0x80008f05  x5:0xffffe4cd PA:0x80008a07
       23995000	      2398	800016a0	cc9119a3	sh	x9,-813(x2)	  x2:0x80008f05  x9:0xfffff9ad PA:0x80008bd8
       24005000	      2399	800016a4	010aadb3	slt	x27,x21,x16	 x21:0x00008000 x16:0xfffffedc x27=0x00000000
       24015000	      2400	800016a8	019a6fb3	or	x31,x20,x25	 x20:0x00000000 x25:0x00000000 x31=0x00000000
       24025000	      2401	800016ac	0031adb3	slt	x27,x3,x3	  x3:0x80009eff  x3:0x80009eff x27=0x00000000
       24035000	      2402	800016b0	f36e4a93	xori	x21,x28,-202	 x28:0x80009fc4 x21=0x7fff60f2
       24045000	      2403	800016b4	01c4af33	slt	x30,x9,x28	  x9:0xfffff9ad x28:0x80009fc4 x30=0x00000000
       24055000	      2404	800016b8	00000013	addi	x0,x0,0	  x0:0x00000000
       24065000	      2405	800016bc	9ab11da3	sh	x11,-1605(x2)	  x2:0x80008f05 x11:0x00007892 PA:0x800088c0
       24075000	      2406	800016c0	59c3bc93	sltiu	x25,x7,1436	  x7:0x80009efc x25=0x00000000
       24085000	      2407	800016c4	aad12ba3	sw	x13,-1353(x2)	  x2:0x80008f05 x13:0x000001c5 PA:0x800089bc
       24095000	      2408	800016c8	ab214183	lbu	x3,-1358(x2)	  x2:0x80008f05  x3=0x00000000 PA:0x800089b7
       24105000	      2409	800016cc	01db0333	add	x6,x22,x29	 x22:0x00000000 x29:0x00000000  x6=0x00000000
       24115000	      2410	800016d0	005cca33	xor	x20,x25,x5	 x25:0x00000000  x5:0xffffe4cd x20=0xffffe4cd
       24125000	      2411	800016d4	fc9100a3	sb	x9,-63(x2)	  x2:0x80008f05  x9:0xfffff9ad PA:0x80008ec6
       24135000	      2412	800016d8	e5711a83	lh	x21,-425(x2)	  x2:0x80008f05 x21=0x00000000 PA:0x80008d5c
       24145000	      2413	800016dc	6bd4aa93	slti	x21,x9,1725	  x9:0xfffff9ad x21=0x00000001
       24155000	      2414	800016e0	41f9d513	srai	x10,x19,0x1f	 x19:0x00009024 x10=0x00000000
       24165000	      2415	800016e4	ee9109a3	sb	x9,-269(x2)	  x2:0x80008f05  x9:0xfffff9ad PA:0x80008df8
       24175000	      2416	800016e8	013084b3	add	x9,x1,x19	  x1:0x00000001 x19:0x00009024  x9=0x00009025
       24185000	      2417	800016ec	fc0e3197	auipc	x3,0xfc0e3	  x3=0x7c0e46e8
       24195000	      2418	800016f0	01197863	bgeu	x18,x17,80001700	 x18:0x475a92a9 x17:0xf8800000
       24205000	      2419	800016f4	00ae8293	addi	x5,x29,10	 x29:0x00000000  x5=0x0000000a
       24215000	      2420	800016f8	00d05993	srli	x19,x0,0xd	  x0:0x00000000 x19=0x00000000
       24225000	      2421	800016fc	00f87633	and	x12,x16,x15	 x16:0xfffffedc x15:0xb2f2b65c x12=0xb2f2b65c
       24235000	      2422	80001700	e9520193	addi	x3,x4,-363	  x4:0x00000000  x3=0xfffffe95
       24245000	      2423	80001704	01a48333	add	x6,x9,x26	  x9:0x00009025 x26:0x00000001  x6=0x00009026
       24255000	      2424	80001708	015b6463	bltu	x22,x21,80001710	 x22:0x00000000 x21:0x00000001
       24265000	      2425	00000000	00000013	addi	x0,x0,0	  x0:0x00000000
       24275000	      2426	8000170c	00000013	addi	x0,x0,0	  x0:0x00000000
       24285000	      2427	80001710	007700b3	add	x1,x14,x7	 x14:0xfffffff6  x7:0x80009efc  x1=0x80009ef2
       24295000	      2428	80001714	16678b93	addi	x23,x15,358	 x15:0xb2f2b65c x23=0xb2f2b7c2
       24305000	      2429	80001718	87982493	slti	x9,x16,-1927	 x16:0xfffffedc  x9=0x00000000
       24315000	      2430	8000171c	01ab8733	add	x14,x23,x26	 x23:0xb2f2b7c2 x26:0x00000001 x14=0xb2f2b7c3
       24325000	      2431	80001720	016514b3	sll	x9,x10,x22	 x10:0x00000000 x22:0x00000000  x9=0x00000000
       24335000	      2432	80001724	00f722b3	slt	x5,x14,x15	 x14:0xb2f2b7c3 x15:0xb2f2b65c  x5=0x00000000
       24345000	      2433	80001728	00aaaab3	slt	x21,x21,x10	 x21:0x00000001 x10:0x00000000 x21=0x00000000
       24355000	      2434	8000172c	406284b3	sub	x9,x5,x6	  x5:0x00000000  x6:0x00009026  x9=0xffff6fda
       24365000	      2435	80001730	b452b693	sltiu	x13,x5,-1211	  x5:0x00000000 x13=0x00000001
       24375000	      2436	80001734	47b9bb93	sltiu	x23,x19,1147	 x19:0x00000000 x23=0x00000001
       24385000	      2437	80001738	004fbc33	sltu	x24,x31,x4	 x31:0x00000000  x4:0x00000000 x24=0x00000000
       24395000	      2438	8000173c	7c4c8693	addi	x13,x25,1988	 x25:0x00000000 x13=0x000007c4
       24405000	      2439	80001740	44f02a93	slti	x21,x0,1103	  x0:0x00000000 x21=0x00000001
       24415000	      2440	80001744	01283cb3	sltu	x25,x16,x18	 x16:0xfffffedc x18:0x475a92a9 x25=0x00000000
       24425000	      2441	80001748	41edd233	sra	x4,x27,x30	 x27:0x00000000 x30:0x00000000  x4=0x00000000
       24435000	      2442	8000174c	40e4b713	sltiu	x14,x9,1038	  x9:0xffff6fda x14=0x00000000
       24445000	      2443	80001750	00000013	addi	x0,x0,0	  x0:0x00000000
       24455000	      2444	80001754	71823d93	sltiu	x27,x4,1816	  x4:0x00000000 x27=0x00000001
       24465000	      2445	80001758	0216d463	bge	x13,x1,80001780	 x13:0x000007c4  x1:0x80009ef2
       24475000	      2446	00000000	00000013	addi	x0,x0,0	  x0:0x00000000
       24485000	      2447	8000177c	00000013	addi	x0,x0,0	  x0:0x00000000
       24495000	      2448	80001780	4029d833	sra	x16,x19,x2	 x19:0x00000000  x2:0x80008f05 x16=0x00000000
       24505000	      2449	80001784	00000013	addi	x0,x0,0	  x0:0x00000000
       24515000	      2450	80001788	002aebb3	or	x23,x21,x2	 x21:0x00000001  x2:0x80008f05 x23=0x80008f05
       24525000	      2451	8000178c	41695bb3	sra	x23,x18,x22	 x18:0x475a92a9 x22:0x00000000 x23=0x475a92a9
       24535000	      2452	80001790	00689493	slli	x9,x17,0x6	 x17:0xf8800000  x9=0x20000000
       24545000	      2453	80001794	d02a8b13	addi	x22,x21,-766	 x21:0x00000001 x22=0xfffffd03
       24555000	      2454	80001798	0101b533	sltu	x10,x3,x16	  x3:0xfffffe95 x16:0x00000000 x10=0x00000000
       24565000	      2455	8000179c	00bb25b3	slt	x11,x22,x11	 x22:0xfffffd03 x11:0x00007892 x11=0x00000001
       24575000	      2456	800017a0	407c8b33	sub	x22,x25,x7	 x25:0x00000000  x7:0x80009efc x22=0x7fff6104
       24585000	      2457	800017a4	003facb3	slt	x25,x31,x3	 x31:0x00000000  x3:0xfffffe95 x25=0x00000000
       24595000	      2458	800017a8	05c19863	bne	x3,x28,800017f8	  x3:0xfffffe95 x28:0x80009fc4
       24605000	      2459	00000000	00000013	addi	x0,x0,0	  x0:0x00000000
       24615000	      2460	800017f4	00000013	addi	x0,x0,0	  x0:0x00000000
       24625000	      2461	800017f8	00f028b3	slt	x17,x0,x15	  x0:0x00000000 x15:0xb2f2b65c x17=0x00000000
       24635000	      2462	800017fc	00000013	addi	x0,x0,0	  x0:0x00000000
       24645000	      2463	80001800	00000013	addi	x0,x0,0	  x0:0x00000000
       24655000	      2464	80001804	00f1aa33	slt	x20,x3,x15	  x3:0xfffffe95 x15:0xb2f2b65c x20=0x00000000
       24665000	      2465	80001808	01c37263	bgeu	x6,x28,8000180c	  x6:0x00009026 x28:0x80009fc4
       24675000	      2466	8000180c	275c3c13	sltiu	x24,x24,629	 x24:0x00000000 x24=0x00000001
       24685000	      2467	80001810	01d89f13	slli	x30,x17,0x1d	 x17:0x00000000 x30=0x00000000
       24695000	      2468	80001814	006f3733	sltu	x14,x30,x6	 x30:0x00000000  x6:0x00009026 x14=0x00000001
       24705000	      2469	80001818	3a367313	andi	x6,x12,931	 x12:0xb2f2b65c  x6=0x00000200
       24715000	      2470	8000181c	00000013	addi	x0,x0,0	  x0:0x00000000
       24725000	      2471	80001820	8e6db813	sltiu	x16,x27,-1818	 x27:0x00000001 x16=0x00000001
       24735000	      2472	80001824	82eb8993	addi	x19,x23,-2002	 x23:0x475a92a9 x19=0x475a8ad7
       24745000	      2473	80001828	0382ca63	blt	x5,x24,8000185c	  x5:0x00000000 x24:0x00000001
       24755000	      2474	00000000	00000013	addi	x0,x0,0	  x0:0x00000000
       24765000	      2475	80001858	00000013	addi	x0,x0,0	  x0:0x00000000
       24775000	      2476	8000185c	41755013	srai	x0,x10,0x17	 x10:0x00000000
       24785000	      2477	80001860	732ecf93	xori	x31,x29,1842	 x29:0x00000000 x31=0x00000732
       24795000	      2478	80001864	0045cc63	blt	x11,x4,8000187c	 x11:0x00000001  x4:0x00000000
       24805000	      2479	80001868	047de863	bltu	x27,x7,800018b8	 x27:0x00000001  x7:0x80009efc
       24815000	      2480	00000000	00000013	addi	x0,x0,0	  x0:0x00000000
       24825000	      2481	800018b4	00000013	addi	x0,x0,0	  x0:0x00000000
       24835000	      2482	800018b8	008258b3	srl	x17,x4,x8	  x4:0x00000000  x8:0x00004813 x17=0x00000000
       24845000	      2483	800018bc	050c8863	beq	x25,x16,8000190c	 x25:0x00000000 x16:0x00000001
       24855000	      2484	800018c0	00f4ffb3	and	x31,x9,x15	  x9:0x20000000 x15:0xb2f2b65c x31=0x20000000
       24865000	      2485	800018c4	011806b3	add	x13,x16,x17	 x16:0x00000001 x17:0x00000000 x13=0x00000001
       24875000	      2486	800018c8	03f7e063	bltu	x15,x31,800018e8	 x15:0xb2f2b65c x31:0x20000000
       24885000	      2487	800018cc	0441d263	bge	x3,x4,80001910	  x3:0xfffffe95  x4:0x00000000
       24895000	      2488	800018d0	01581c93	slli	x25,x16,0x15	 x16:0x00000001 x25=0x00200000
       24905000	      2489	800018d4	00baf8b3	and	x17,x21,x11	 x21:0x00000001 x11:0x00000001 x17=0x00000001
       24915000	      2490	800018d8	00000013	addi	x0,x0,0	  x0:0x00000000
       24925000	      2491	800018dc	40bfd013	srai	x0,x31,0xb	 x31:0x20000000
       24935000	      2492	800018e0	4e8b7b93	andi	x23,x22,1256	 x22:0x7fff6104 x23=0x00000000
       24945000	      2493	800018e4	0231dc63	bge	x3,x3,8000191c	  x3:0xfffffe95  x3:0xfffffe95
       24955000	      2494	00000000	00000013	addi	x0,x0,0	  x0:0x00000000
       24965000	      2495	80001918	00000013	addi	x0,x0,0	  x0:0x00000000
       24975000	      2496	8000191c	015cd863	bge	x25,x21,8000192c	 x25:0x00200000 x21:0x00000001
       24985000	      2497	00000000	00000013	addi	x0,x0,0	  x0:0x00000000
       24995000	      2498	80001928	00000013	addi	x0,x0,0	  x0:0x00000000
       25005000	      2499	8000192c	015a05b3	add	x11,x20,x21	 x20:0x00000000 x21:0x00000001 x11=0x00000001
       25015000	      2500	80001930	00679b93	slli	x23,x15,0x6	 x15:0xb2f2b65c x23=0xbcad9700
       25025000	      2501	80001934	0098e4b3	or	x9,x17,x9	 x17:0x00000001  x9:0x20000000  x9=0x20000001
       25035000	      2502	80001938	e3c22637	lui	x12,0xe3c22	 x12=0xe3c22000
       25045000	      2503	8000193c	01fc2bb3	slt	x23,x24,x31	 x24:0x00000001 x31:0x20000000 x23=0x00000001
       25055000	      2504	80001940	40ad5313	srai	x6,x26,0xa	 x26:0x00000001  x6=0x00000000
       25065000	      2505	80001944	03154c63	blt	x10,x17,8000197c	 x10:0x00000000 x17:0x00000001
       25075000	      2506	00000000	00000013	addi	x0,x0,0	  x0:0x00000000
       25085000	      2507	80001978	00000013	addi	x0,x0,0	  x0:0x00000000
       25095000	      2508	8000197c	00000013	addi	x0,x0,0	  x0:0x00000000
       25105000	      2509	80001980	12988693	addi	x13,x17,297	 x17:0x00000001 x13=0x0000012a
       25115000	      2510	80001984	016bf833	and	x16,x23,x22	 x23:0x00000001 x22:0x7fff6104 x16=0x00000000
       25125000	      2511	80001988	41a48133	sub	x2,x9,x26	  x9:0x20000001 x26:0x00000001  x2=0x20000000
       25135000	      2512	8000198c	7f5d6a13	ori	x20,x26,2037	 x26:0x00000001 x20=0x000007f5
       25145000	      2513	80001990	4d92bf93	sltiu	x31,x5,1241	  x5:0x00000000 x31=0x00000001
       25155000	      2514	80001994	00e56663	bltu	x10,x14,800019a0	 x10:0x00000000 x14:0x00000001
       25165000	      2515	00000000	00000013	addi	x0,x0,0	  x0:0x00000000
       25175000	      2516	8000199c	00000013	addi	x0,x0,0	  x0:0x00000000
       25185000	      2517	800019a0	002bd133	srl	x2,x23,x2	 x23:0x00000001  x2:0x20000000  x2=0x00000001
       25195000	      2518	800019a4	01c06cb3	or	x25,x0,x28	  x0:0x00000000 x28:0x80009fc4 x25=0x80009fc4
       25205000	      2519	800019a8	401957b3	sra	x15,x18,x1	 x18:0x475a92a9  x1:0x80009ef2 x15=0x000011d6
       25215000	      2520	800019ac	003c4463	blt	x24,x3,800019b4	 x24:0x00000001  x3:0xfffffe95
       25225000	      2521	800019b0	41be5513	srai	x10,x28,0x1b	 x28:0x80009fc4 x10=0xfffffff0
       25235000	      2522	800019b4	00f7f263	bgeu	x15,x15,800019b8	 x15:0x000011d6 x15:0x000011d6
       25245000	      2523	00000000	00000013	addi	x0,x0,0	  x0:0x00000000
       25255000	      2524	800019b4	00000013	addi	x0,x0,0	  x0:0x00000000
       25265000	      2525	800019b8	00a98eb3	add	x29,x19,x10	 x19:0x475a8ad7 x10:0xfffffff0 x29=0x475a8ac7
       25275000	      2526	800019bc	01e9f4b3	and	x9,x19,x30	 x19:0x475a8ad7 x30:0x00000000  x9=0x00000000
       25285000	      2527	800019c0	af00ed93	ori	x27,x1,-1296	  x1:0x80009ef2 x27=0xfffffef2
       25295000	      2528	800019c4	01610463	beq	x2,x22,800019cc	  x2:0x00000001 x22:0x7fff6104
       25305000	      2529	800019c8	417cd433	sra	x8,x25,x23	 x25:0x80009fc4 x23:0x00000001  x8=0xc0004fe2
       25315000	      2530	800019cc	40945093	srai	x1,x8,0x9	  x8:0xc0004fe2  x1=0xffe00027
       25325000	      2531	800019d0	6442eb13	ori	x22,x5,1604	  x5:0x00000000 x22=0x00000644
       25335000	      2532	800019d4	013b1463	bne	x22,x19,800019dc	 x22:0x00000644 x19:0x475a8ad7
       25345000	      2533	00000000	00000013	addi	x0,x0,0	  x0:0x00000000
       25355000	      2534	800019d8	00000013	addi	x0,x0,0	  x0:0x00000000
       25365000	      2535	800019dc	bc067f93	andi	x31,x12,-1088	 x12:0xe3c22000 x31=0xe3c22000
       25375000	      2536	800019e0	0019df33	srl	x30,x19,x1	 x19:0x475a8ad7  x1:0xffe00027 x30=0x008eb515
       25385000	      2537	800019e4	01f6d993	srli	x19,x13,0x1f	 x13:0x0000012a x19=0x00000000
       25395000	      2538	800019e8	40f1d133	sra	x2,x3,x15	  x3:0xfffffe95 x15:0x000011d6  x2=0xffffffff
       25405000	      2539	800019ec	007a2333	slt	x6,x20,x7	 x20:0x000007f5  x7:0x80009efc  x6=0x00000000
       25415000	      2540	800019f0	00160b33	add	x22,x12,x1	 x12:0xe3c22000  x1:0xffe00027 x22=0xe3a22027
       25425000	      2541	800019f4	412f88b3	sub	x17,x31,x18	 x31:0xe3c22000 x18:0x475a92a9 x17=0x9c678d57
       25435000	      2542	800019f8	de937b13	andi	x22,x6,-535	  x6:0x00000000 x22=0x00000000
       25445000	      2543	800019fc	40f0d1b3	sra	x3,x1,x15	  x1:0xffe00027 x15:0x000011d6  x3=0xffffffff
       25455000	      2544	80001a00	00615c63	bge	x2,x6,80001a18	  x2:0xffffffff  x6:0x00000000
       25465000	      2545	80001a04	c0c3b993	sltiu	x19,x7,-1012	  x7:0x80009efc x19=0x00000001
       25475000	      2546	80001a08	c0f10013	addi	x0,x2,-1009	  x2:0xffffffff
       25485000	      2547	80001a0c	01da3433	sltu	x8,x20,x29	 x20:0x000007f5 x29:0x475a8ac7  x8=0x00000001
       25495000	      2548	80001a10	0141f0b3	and	x1,x3,x20	  x3:0xffffffff x20:0x000007f5  x1=0x000007f5
       25505000	      2549	80001a14	004682b3	add	x5,x13,x4	 x13:0x0000012a  x4:0x00000000  x5=0x0000012a
       25515000	      2550	80001a18	03227063	bgeu	x4,x18,80001a38	  x4:0x00000000 x18:0x475a92a9
       25525000	      2551	80001a1c	4293a517	auipc	x10,0x4293a	 x10=0xc293ba18
       25535000	      2552	80001a20	a8332b93	slti	x23,x6,-1405	  x6:0x00000000 x23=0x00000000
       25545000	      2553	80001a24	40db0833	sub	x16,x22,x13	 x22:0x00000000 x13:0x0000012a x16=0xfffffed6
       25555000	      2554	80001a28	00b67263	bgeu	x12,x11,80001a2c	 x12:0xe3c22000 x11:0x00000001
       25565000	      2555	00000000	00000013	addi	x0,x0,0	  x0:0x00000000
       25575000	      2556	80001a28	00000013	addi	x0,x0,0	  x0:0x00000000
       25585000	      2557	80001a2c	41edd413	srai	x8,x27,0x1e	 x27:0xfffffef2  x8=0xffffffff
       25595000	      2558	80001a30	e6997a93	andi	x21,x18,-407	 x18:0x475a92a9 x21=0x475a9229
       25605000	      2559	80001a34	23a1b993	sltiu	x19,x3,570	  x3:0xffffffff x19=0x00000000
       25615000	      2560	80001a38	017b3bb3	sltu	x23,x22,x23	 x22:0x00000000 x23:0x00000000 x23=0x00000000
       25625000	      2561	80001a3c	1a706513	ori	x10,x0,423	  x0:0x00000000 x10=0x000001a7
       25635000	      2562	80001a40	006ce4b3	or	x9,x25,x6	 x25:0x80009fc4  x6:0x00000000  x9=0x80009fc4
       25645000	      2563	80001a44	009e38b3	sltu	x17,x28,x9	 x28:0x80009fc4  x9:0x80009fc4 x17=0x00000000
       25655000	      2564	80001a48	32217797	auipc	x15,0x32217	 x15=0xb2218a44
       25665000	      2565	80001a4c	01bb35b3	sltu	x11,x22,x27	 x22:0x00000000 x27:0xfffffef2 x11=0x00000001
       25675000	      2566	80001a50	00b41c63	bne	x8,x11,80001a68	  x8:0xffffffff x11:0x00000001
       25685000	      2567	00000000	00000013	addi	x0,x0,0	  x0:0x00000000
       25695000	      2568	80001a64	00000013	addi	x0,x0,0	  x0:0x00000000
       25705000	      2569	80001a68	8cab3497	auipc	x9,0x8cab3	  x9=0x0cab4a64
       25715000	      2570	80001a6c	010dacb3	slt	x25,x27,x16	 x27:0xfffffef2 x16:0xfffffed6 x25=0x00000000
       25725000	      2571	80001a70	8a927d13	andi	x26,x4,-1879	  x4:0x00000000 x26=0x00000000
       25735000	      2572	80001a74	04f64263	blt	x12,x15,80001ab8	 x12:0xe3c22000 x15:0xb2218a44
       25745000	      2573	80001a78	04454063	blt	x10,x4,80001ab8	 x10:0x000001a7  x4:0x00000000
       25755000	      2574	80001a7c	402d8bb3	sub	x23,x27,x2	 x27:0xfffffef2  x2:0xffffffff x23=0xfffffef3
       25765000	      2575	80001a80	a3627f93	andi	x31,x4,-1482	  x4:0x00000000 x31=0x00000000
       25775000	      2576	80001a84	00000013	addi	x0,x0,0	  x0:0x00000000
       25785000	      2577	80001a88	00000013	addi	x0,x0,0	  x0:0x00000000
       25795000	      2578	80001a8c	8936a893	slti	x17,x13,-1901	 x13:0x0000012a x17=0x00000000
       25805000	      2579	80001a90	00251793	slli	x15,x10,0x2	 x10:0x000001a7 x15=0x0000069c
       25815000	      2580	80001a94	00000013	addi	x0,x0,0	  x0:0x00000000
       25825000	      2581	80001a98	01cc1c33	sll	x24,x24,x28	 x24:0x00000001 x28:0x80009fc4 x24=0x00000010
       25835000	      2582	80001a9c	f8b9a693	slti	x13,x19,-117	 x19:0x00000000 x13=0x00000000
       25845000	      2583	80001aa0	40470a33	sub	x20,x14,x4	 x14:0x00000001  x4:0x00000000 x20=0x00000001
       25855000	      2584	80001aa4	00b31a13	slli	x20,x6,0xb	  x6:0x00000000 x20=0x00000000
       25865000	      2585	80001aa8	00d3e233	or	x4,x7,x13	  x7:0x80009efc x13:0x00000000  x4=0x80009efc
       25875000	      2586	80001aac	04338863	beq	x7,x3,80001afc	  x7:0x80009efc  x3:0xffffffff
       25885000	      2587	80001ab0	00871ab3	sll	x21,x14,x8	 x14:0x00000001  x8:0xffffffff x21=0x80000000
       25895000	      2588	80001ab4	877df213	andi	x4,x27,-1929	 x27:0xfffffef2  x4=0xfffff872
       25905000	      2589	80001ab8	001b0a33	add	x20,x22,x1	 x22:0x00000000  x1:0x000007f5 x20=0x000007f5
       25915000	      2590	80001abc	00c75863	bge	x14,x12,80001acc	 x14:0x00000001 x12:0xe3c22000
       25925000	      2591	00000000	00000013	addi	x0,x0,0	  x0:0x00000000
       25935000	      2592	80001ac8	00000013	addi	x0,x0,0	  x0:0x00000000
       25945000	      2593	80001acc	a55c80b7	lui	x1,0xa55c8	  x1=0xa55c8000
       25955000	      2594	80001ad0	0392f463	bgeu	x5,x25,80001af8	  x5:0x0000012a x25:0x00000000
       25965000	      2595	00000000	00000013	addi	x0,x0,0	  x0:0x00000000
       25975000	      2596	80001af4	00000013	addi	x0,x0,0	  x0:0x00000000
       25985000	      2597	80001af8	002ce233	or	x4,x25,x2	 x25:0x00000000  x2:0xffffffff  x4=0xffffffff
       25995000	      2598	80001afc	029dcc63	blt	x27,x9,80001b34	 x27:0xfffffef2  x9:0x0cab4a64
       26005000	      2599	00000000	00000013	addi	x0,x0,0	  x0:0x00000000
       26015000	      2600	80001b30	00000013	addi	x0,x0,0	  x0:0x00000000
       26025000	      2601	80001b34	00720a33	add	x20,x4,x7	  x4:0xffffffff  x7:0x80009efc x20=0x80009efb
       26035000	      2602	80001b38	d0e04593	xori	x11,x0,-754	  x0:0x00000000 x11=0xfffffd0e
       26045000	      2603	80001b3c	0dd3f9b7	lui	x19,0xdd3f	 x19=0x0dd3f000
       26055000	      2604	80001b40	5c30f313	andi	x6,x1,1475	  x1:0xa55c8000  x6=0x00000000
       26065000	      2605	80001b44	01520fb3	add	x31,x4,x21	  x4:0xffffffff x21:0x80000000 x31=0x7fffffff
       26075000	      2606	80001b48	0141b8b3	sltu	x17,x3,x20	  x3:0xffffffff x20:0x80009efb x17=0x00000000
       26085000	      2607	80001b4c	00078c33	add	x24,x15,x0	 x15:0x0000069c  x0:0x00000000 x24=0x0000069c
       26095000	      2608	80001b50	b6383f93	sltiu	x31,x16,-1181	 x16:0xfffffed6 x31=0x00000000
       26105000	      2609	80001b54	40bf5613	srai	x12,x30,0xb	 x30:0x008eb515 x12=0x000011d6
       26115000	      2610	80001b58	088de213	ori	x4,x27,136	 x27:0xfffffef2  x4=0xfffffefa
       26125000	      2611	80001b5c	010e91b3	sll	x3,x29,x16	 x29:0x475a8ac7 x16:0xfffffed6  x3=0xb1c00000
       26135000	      2612	80001b60	037df663	bgeu	x27,x23,80001b8c	 x27:0xfffffef2 x23:0xfffffef3
       26145000	      2613	80001b64	011e9b33	sll	x22,x29,x17	 x29:0x475a8ac7 x17:0x00000000 x22=0x475a8ac7
       26155000	      2614	80001b68	022aea63	bltu	x21,x2,80001b9c	 x21:0x80000000  x2:0xffffffff
       26165000	      2615	00000000	00000013	addi	x0,x0,0	  x0:0x00000000
       26175000	      2616	80001b98	00000013	addi	x0,x0,0	  x0:0x00000000
       26185000	      2617	80001b9c	009ed0b3	srl	x1,x29,x9	 x29:0x475a8ac7  x9:0x0cab4a64  x1=0x0475a8ac
       26195000	      2618	80001ba0	005d64b3	or	x9,x26,x5	 x26:0x00000000  x5:0x0000012a  x9=0x0000012a
       26205000	      2619	80001ba4	011e56b3	srl	x13,x28,x17	 x28:0x80009fc4 x17:0x00000000 x13=0x80009fc4
       26215000	      2620	80001ba8	a7f5c813	xori	x16,x11,-1409	 x11:0xfffffd0e x16=0x00000771
       26225000	      2621	80001bac	027b8c63	beq	x23,x7,80001be4	 x23:0xfffffef3  x7:0x80009efc
       26235000	      2622	80001bb0	00b92a33	slt	x20,x18,x11	 x18:0x475a92a9 x11:0xfffffd0e x20=0x00000000
       26245000	      2623	80001bb4	00cb9793	slli	x15,x23,0xc	 x23:0xfffffef3 x15=0xffef3000
       26255000	      2624	80001bb8	00a34b93	xori	x23,x6,10	  x6:0x00000000 x23=0x0000000a
       26265000	      2625	80001bbc	01685fb3	srl	x31,x16,x22	 x16:0x00000771 x22:0x475a8ac7 x31=0x0000000e
       26275000	      2626	80001bc0	01aabdb3	sltu	x27,x21,x26	 x21:0x80000000 x26:0x00000000 x27=0x00000000
       26285000	      2627	80001bc4	05489863	bne	x17,x20,80001c14	 x17:0x00000000 x20:0x00000000
       26295000	      2628	80001bc8	017eec63	bltu	x29,x23,80001be0	 x29:0x475a8ac7 x23:0x0000000a
       26305000	      2629	80001bcc	019d6333	or	x6,x26,x25	 x26:0x00000000 x25:0x00000000  x6=0x00000000
       26315000	      2630	80001bd0	c3358693	addi	x13,x11,-973	 x11:0xfffffd0e x13=0xfffff941
       26325000	      2631	80001bd4	0577f863	bgeu	x15,x23,80001c24	 x15:0xffef3000 x23:0x0000000a
       26335000	      2632	00000000	00000013	addi	x0,x0,0	  x0:0x00000000
       26345000	      2633	80001c20	00000013	addi	x0,x0,0	  x0:0x00000000
       26355000	      2634	80001c24	0176cfb3	xor	x31,x13,x23	 x13:0xfffff941 x23:0x0000000a x31=0xfffff94b
       26365000	      2635	80001c28	00000013	addi	x0,x0,0	  x0:0x00000000
       26375000	      2636	80001c2c	03235a63	bge	x6,x18,80001c60	  x6:0x00000000 x18:0x475a92a9
       26385000	      2637	80001c30	c3cb8c13	addi	x24,x23,-964	 x23:0x0000000a x24=0xfffffc46
       26395000	      2638	80001c34	01be9c13	slli	x24,x29,0x1b	 x29:0x475a8ac7 x24=0x38000000
       26405000	      2639	80001c38	052b8263	beq	x23,x18,80001c7c	 x23:0x0000000a x18:0x475a92a9
       26415000	      2640	80001c3c	0154d463	bge	x9,x21,80001c44	  x9:0x0000012a x21:0x80000000
       26425000	      2641	00000000	00000013	addi	x0,x0,0	  x0:0x00000000
       26435000	      2642	80001c40	00000013	addi	x0,x0,0	  x0:0x00000000
       26445000	      2643	80001c44	0238f063	bgeu	x17,x3,80001c64	 x17:0x00000000  x3:0xb1c00000
       26455000	      2644	80001c48	007190b3	sll	x1,x3,x7	  x3:0xb1c00000  x7:0x80009efc  x1=0x00000000
       26465000	      2645	80001c4c	01ec1a13	slli	x20,x24,0x1e	 x24:0x38000000 x20=0x00000000
       26475000	      2646	80001c50	dc422b17	auipc	x22,0xdc422	 x22=0x5c423c4c
       26485000	      2647	80001c54	efed0c93	addi	x25,x26,-258	 x26:0x00000000 x25=0xfffffefe
       26495000	      2648	80001c58	022c0c63	beq	x24,x2,80001c90	 x24:0x38000000  x2:0xffffffff
       26505000	      2649	80001c5c	0137d0b3	srl	x1,x15,x19	 x15:0xffef3000 x19:0x0dd3f000  x1=0xffef3000
       26515000	      2650	80001c60	008c34b3	sltu	x9,x24,x8	 x24:0x38000000  x8:0xffffffff  x9=0x00000001
       26525000	      2651	80001c64	017aea63	bltu	x21,x23,80001c78	 x21:0x80000000 x23:0x0000000a
       26535000	      2652	80001c68	057f7863	bgeu	x30,x23,80001cb8	 x30:0x008eb515 x23:0x0000000a
       26545000	      2653	00000000	00000013	addi	x0,x0,0	  x0:0x00000000
       26555000	      2654	80001cb4	00000013	addi	x0,x0,0	  x0:0x00000000
       26565000	      2655	80001cb8	018ef463	bgeu	x29,x24,80001cc0	 x29:0x475a8ac7 x24:0x38000000
       26575000	      2656	00000000	00000013	addi	x0,x0,0	  x0:0x00000000
       26585000	      2657	80001cbc	00000013	addi	x0,x0,0	  x0:0x00000000
       26595000	      2658	80001cc0	76098d13	addi	x26,x19,1888	 x19:0x0dd3f000 x26=0x0dd3f760
       26605000	      2659	80001cc4	01f6ad33	slt	x26,x13,x31	 x13:0xfffff941 x31:0xfffff94b x26=0x00000001
       26615000	      2660	80001cc8	00007117	auipc	x2,0x7	  x2=0x80008cc4
       26625000	      2661	80001ccc	e5a10113	addi	x2,x2,-422	  x2:0x80008cc4  x2=0x80008b1e
       26635000	      2662	80001cd0	fcd14603	lbu	x12,-51(x2)	  x2:0x80008b1e x12=0x00000000 PA:0x80008aeb
       26645000	      2663	80001cd4	fc510b83	lb	x23,-59(x2)	  x2:0x80008b1e x23=0x00000000 PA:0x80008ae3
       26655000	      2664	80001cd8	01ff5293	srli	x5,x30,0x1f	 x30:0x008eb515  x5=0x00000000
       26665000	      2665	80001cdc	40d08693	addi	x13,x1,1037	  x1:0xffef3000 x13=0xffef340d
       26675000	      2666	80001ce0	e43a6b97	auipc	x23,0xe43a6	 x23=0x643a7cdc
       26685000	      2667	80001ce4	f5c2cc93	xori	x25,x5,-164	  x5:0x00000000 x25=0xffffff5c
       26695000	      2668	80001ce8	08f14a03	lbu	x20,143(x2)	  x2:0x80008b1e x20=0x00000000 PA:0x80008bad
       26705000	      2669	80001cec	00e35733	srl	x14,x6,x14	  x6:0x00000000 x14:0x00000001 x14=0x00000000
       26715000	      2670	80001cf0	00000013	addi	x0,x0,0	  x0:0x00000000
       26725000	      2671	80001cf4	0bf10483	lb	x9,191(x2)	  x2:0x80008b1e  x9=0x00000000 PA:0x80008bdd
       26735000	      2672	80001cf8	01810c83	lb	x25,24(x2)	  x2:0x80008b1e x25=0x00000000 PA:0x80008b36
       26745000	      2673	80001cfc	08510303	lb	x6,133(x2)	  x2:0x80008b1e  x6=0x00000000 PA:0x80008ba3
       26755000	      2674	80001d00	fa02cd13	xori	x26,x5,-96	  x5:0x00000000 x26=0xffffffa0
       26765000	      2675	80001d04	ff014d83	lbu	x27,-16(x2)	  x2:0x80008b1e x27=0x00000000 PA:0x80008b0e
       26775000	      2676	80001d08	05014a03	lbu	x20,80(x2)	  x2:0x80008b1e x20=0x00000000 PA:0x80008b6e
       26785000	      2677	80001d0c	f6710683	lb	x13,-153(x2)	  x2:0x80008b1e x13=0x00000000 PA:0x80008a85
       26795000	      2678	80001d10	00000013	addi	x0,x0,0	  x0:0x00000000
       26805000	      2679	80001d14	01a720b3	slt	x1,x14,x26	 x14:0x00000000 x26:0xffffffa0  x1=0x00000000
       26815000	      2680	80001d18	3d41f293	andi	x5,x3,980	  x3:0xb1c00000  x5=0x00000000
       26825000	      2681	80001d1c	42b88613	addi	x12,x17,1067	 x17:0x00000000 x12=0x0000042b
       26835000	      2682	80001d20	10015a03	lhu	x20,256(x2)	  x2:0x80008b1e x20=0x00000000 PA:0x80008c1e
       26845000	      2683	80001d24	010225b3	slt	x11,x4,x16	  x4:0xfffffefa x16:0x00000771 x11=0x00000001
       26855000	      2684	80001d28	f9811583	lh	x11,-104(x2)	  x2:0x80008b1e x11=0x00000000 PA:0x80008ab6
       26865000	      2685	80001d2c	0b1105a3	sb	x17,171(x2)	  x2:0x80008b1e x17:0x00000000 PA:0x80008bc9
       26875000	      2686	80001d30	00479c33	sll	x24,x15,x4	 x15:0xffef3000  x4:0xfffffefa x24=0x00000000
       26885000	      2687	80001d34	008039b3	sltu	x19,x0,x8	  x0:0x00000000  x8:0xffffffff x19=0x00000001
       26895000	      2688	80001d38	08514c03	lbu	x24,133(x2)	  x2:0x80008b1e x24=0x00000000 PA:0x80008ba3
       26905000	      2689	80001d3c	7f04ecb7	lui	x25,0x7f04e	 x25=0x7f04e000
       26915000	      2690	80001d40	01795533	srl	x10,x18,x23	 x18:0x475a92a9 x23:0x643a7cdc x10=0x00000004
       26925000	      2691	80001d44	48adfc93	andi	x25,x27,1162	 x27:0x00000000 x25=0x00000000
       26935000	      2692	80001d48	100e0437	lui	x8,0x100e0	  x8=0x100e0000
       26945000	      2693	80001d4c	f4110283	lb	x5,-191(x2)	  x2:0x80008b1e  x5=0x00000000 PA:0x80008a5f
       26955000	      2694	80001d50	03c14703	lbu	x14,60(x2)	  x2:0x80008b1e x14=0x00000000 PA:0x80008b5a
       26965000	      2695	80001d54	00521ab3	sll	x21,x4,x5	  x4:0xfffffefa  x5:0x00000000 x21=0xfffffefa
       26975000	      2696	80001d58	00065313	srli	x6,x12,0x0	 x12:0x0000042b  x6=0x0000042b
       26985000	      2697	80001d5c	004546b3	xor	x13,x10,x4	 x10:0x00000004  x4:0xfffffefa x13=0xfffffefe
       26995000	      2698	80001d60	02210c83	lb	x25,34(x2)	  x2:0x80008b1e x25=0x00000000 PA:0x80008b40
       27005000	      2699	80001d64	0a510fa3	sb	x5,191(x2)	  x2:0x80008b1e  x5:0x00000000 PA:0x80008bdd
       27015000	      2700	80001d68	02697a13	andi	x20,x18,38	 x18:0x475a92a9 x20=0x00000020
       27025000	      2701	80001d6c	0a314c83	lbu	x25,163(x2)	  x2:0x80008b1e x25=0x00000000 PA:0x80008bc1
       27035000	      2702	80001d70	012ad613	srli	x12,x21,0x12	 x21:0xfffffefa x12=0x00003fff
       27045000	      2703	80001d74	0108db13	srli	x22,x17,0x10	 x17:0x00000000 x22=0x00000000
       27055000	      2704	80001d78	01e00b33	add	x22,x0,x30	  x0:0x00000000 x30:0x008eb515 x22=0x008eb515
       27065000	      2705	80001d7c	0180cc33	xor	x24,x1,x24	  x1:0x00000000 x24:0x00000000 x24=0x00000000
       27075000	      2706	80001d80	03f50063	beq	x10,x31,80001da0	 x10:0x00000004 x31:0xfffff94b
       27085000	      2707	80001d84	005977b3	and	x15,x18,x5	 x18:0x475a92a9  x5:0x00000000 x15=0x00000000
       27095000	      2708	80001d88	d69d6193	ori	x3,x26,-663	 x26:0xffffffa0  x3=0xffffffe9
       27105000	      2709	80001d8c	00da1c63	bne	x20,x13,80001da4	 x20:0x00000020 x13:0xfffffefe
       27115000	      2710	00000000	00000013	addi	x0,x0,0	  x0:0x00000000
       27125000	      2711	80001da0	00000013	addi	x0,x0,0	  x0:0x00000000
       27135000	      2712	80001da4	95e00b97	auipc	x23,0x95e00	 x23=0x15e01da0
       27145000	      2713	80001da8	005dddb3	srl	x27,x27,x5	 x27:0x00000000  x5:0x00000000 x27=0x00000000
       27155000	      2714	80001dac	00701863	bne	x0,x7,80001dbc	  x0:0x00000000  x7:0x80009efc
       27165000	      2715	00000000	00000013	addi	x0,x0,0	  x0:0x00000000
       27175000	      2716	80001db8	00000013	addi	x0,x0,0	  x0:0x00000000
       27185000	      2717	80001dbc	01509263	bne	x1,x21,80001dc0	  x1:0x00000000 x21:0xfffffefa
       27195000	      2718	00000000	00000013	addi	x0,x0,0	  x0:0x00000000
       27205000	      2719	80001dbc	00000013	addi	x0,x0,0	  x0:0x00000000
       27215000	      2720	80001dc0	0487f063	bgeu	x15,x8,80001e00	 x15:0x00000000  x8:0x100e0000
       27225000	      2721	80001dc4	00000013	addi	x0,x0,0	  x0:0x00000000
       27235000	      2722	80001dc8	0134db33	srl	x22,x9,x19	  x9:0x00000000 x19:0x00000001 x22=0x00000000
       27245000	      2723	80001dcc	015dbc33	sltu	x24,x27,x21	 x27:0x00000000 x21:0xfffffefa x24=0x00000001
       27255000	      2724	80001dd0	5d444f93	xori	x31,x8,1492	  x8:0x100e0000 x31=0x100e05d4
       27265000	      2725	80001dd4	52fee017	auipc	x0,0x52fee	
       27275000	      2726	80001dd8	009e9533	sll	x10,x29,x9	 x29:0x475a8ac7  x9:0x00000000 x10=0x475a8ac7
       27285000	      2727	80001ddc	0101c6b3	xor	x13,x3,x16	  x3:0xffffffe9 x16:0x00000771 x13=0xfffff898
       27295000	      2728	80001de0	d292b113	sltiu	x2,x5,-727	  x5:0x00000000  x2=0x00000001
       27305000	      2729	80001de4	00bfb8b3	sltu	x17,x31,x11	 x31:0x100e05d4 x11:0x00000000 x17=0x00000000
       27315000	      2730	80001de8	5ceac237	lui	x4,0x5ceac	  x4=0x5ceac000
       27325000	      2731	80001dec	b4bac513	xori	x10,x21,-1205	 x21:0xfffffefa x10=0x000005b1
       27335000	      2732	80001df0	01933033	sltu	x0,x6,x25	  x6:0x0000042b x25:0x00000000
       27345000	      2733	80001df4	03bac663	blt	x21,x27,80001e20	 x21:0xfffffefa x27:0x00000000
       27355000	      2734	00000000	00000013	addi	x0,x0,0	  x0:0x00000000
       27365000	      2735	80001e1c	00000013	addi	x0,x0,0	  x0:0x00000000
       27375000	      2736	80001e20	04206863	bltu	x0,x2,80001e70	  x0:0x00000000  x2:0x00000001
       27385000	      2737	00000000	00000013	addi	x0,x0,0	  x0:0x00000000
       27395000	      2738	80001e6c	00000013	addi	x0,x0,0	  x0:0x00000000
       27405000	      2739	80001e70	01539693	slli	x13,x7,0x15	  x7:0x80009efc x13=0xdf800000
       27415000	      2740	80001e74	00814ab3	xor	x21,x2,x8	  x2:0x00000001  x8:0x100e0000 x21=0x100e0001
       27425000	      2741	80001e78	01f19663	bne	x3,x31,80001e84	  x3:0xffffffe9 x31:0x100e05d4
       27435000	      2742	00000000	00000013	addi	x0,x0,0	  x0:0x00000000
       27445000	      2743	80001e80	00000013	addi	x0,x0,0	  x0:0x00000000
       27455000	      2744	80001e84	bc9ac993	xori	x19,x21,-1079	 x21:0x100e0001 x19=0xeff1fbc8
       27465000	      2745	80001e88	00000013	addi	x0,x0,0	  x0:0x00000000
       27475000	      2746	80001e8c	0259da63	bge	x19,x5,80001ec0	 x19:0xeff1fbc8  x5:0x00000000
       27485000	      2747	80001e90	00000013	addi	x0,x0,0	  x0:0x00000000
       27495000	      2748	80001e94	40b4dc13	srai	x24,x9,0xb	  x9:0x00000000 x24=0x00000000
       27505000	      2749	80001e98	41b98cb3	sub	x25,x19,x27	 x19:0xeff1fbc8 x27:0x00000000 x25=0xeff1fbc8
       27515000	      2750	80001e9c	01b24133	xor	x2,x4,x27	  x4:0x5ceac000 x27:0x00000000  x2=0x5ceac000
       27525000	      2751	80001ea0	0088da63	bge	x17,x8,80001eb4	 x17:0x00000000  x8:0x100e0000
       27535000	      2752	80001ea4	a2402193	slti	x3,x0,-1500	  x0:0x00000000  x3=0x00000000
       27545000	      2753	80001ea8	10fdea63	bltu	x27,x15,80001fbc	 x27:0x00000000 x15:0x00000000
       27555000	      2754	80001eac	012f0eb3	add	x29,x30,x18	 x30:0x008eb515 x18:0x475a92a9 x29=0x47e947be
       27565000	      2755	80001eb0	c154b093	sltiu	x1,x9,-1003	  x9:0x00000000  x1=0x00000001
       27575000	      2756	80001eb4	418b5f33	sra	x30,x22,x24	 x22:0x00000000 x24:0x00000000 x30=0x00000000
       27585000	      2757	80001eb8	01b88cb3	add	x25,x17,x27	 x17:0x00000000 x27:0x00000000 x25=0x00000000
       27595000	      2758	80001ebc	009e9693	slli	x13,x29,0x9	 x29:0x47e947be x13=0xd28f7c00
       27605000	      2759	80001ec0	4154dfb3	sra	x31,x9,x21	  x9:0x00000000 x21:0x100e0001 x31=0x00000000
       27615000	      2760	80001ec4	0e55d863	bge	x11,x5,80001fb4	 x11:0x00000000  x5:0x00000000
       27625000	      2761	00000000	00000013	addi	x0,x0,0	  x0:0x00000000
       27635000	      2762	80001fb0	00000013	addi	x0,x0,0	  x0:0x00000000
       27645000	      2763	80001fb4	41780fb3	sub	x31,x16,x23	 x16:0x00000771 x23:0x15e01da0 x31=0xea1fe9d1
       27655000	      2764	80001fb8	f214a113	slti	x2,x9,-223	  x9:0x00000000  x2=0x00000000
       27665000	      2765	80001fbc	d4248737	lui	x14,0xd4248	 x14=0xd4248000
       27675000	      2766	80001fc0	05240263	beq	x8,x18,80002004	  x8:0x100e0000 x18:0x475a92a9
       27685000	      2767	80001fc4	00775463	bge	x14,x7,80001fcc	 x14:0xd4248000  x7:0x80009efc
       27695000	      2768	00000000	00000013	addi	x0,x0,0	  x0:0x00000000
       27705000	      2769	80001fc8	00000013	addi	x0,x0,0	  x0:0x00000000
       27715000	      2770	80001fcc	00ba5f93	srli	x31,x20,0xb	 x20:0x00000020 x31=0x00000000
       27725000	      2771	80001fd0	60c1a093	slti	x1,x3,1548	  x3:0x00000000  x1=0x00000001
       27735000	      2772	80001fd4	01f11d33	sll	x26,x2,x31	  x2:0x00000000 x31:0x00000000 x26=0x00000000
       27745000	      2773	80001fd8	016a3a33	sltu	x20,x20,x22	 x20:0x00000020 x22:0x00000000 x20=0x00000000
       27755000	      2774	80001fdc	69ca8417	auipc	x8,0x69ca8	  x8=0xe9ca9fd8
       27765000	      2775	80001fe0	01fedd13	srli	x26,x29,0x1f	 x29:0x47e947be x26=0x00000000
       27775000	      2776	80001fe4	01374eb3	xor	x29,x14,x19	 x14:0xd4248000 x19:0xeff1fbc8 x29=0x3bd57bc8
       27785000	      2777	80001fe8	02d6d063	bge	x13,x13,80002008	 x13:0xd28f7c00 x13:0xd28f7c00
       27795000	      2778	00000000	00000013	addi	x0,x0,0	  x0:0x00000000
       27805000	      2779	80002004	00000013	addi	x0,x0,0	  x0:0x00000000
       27815000	      2780	80002008	031edc63	bge	x29,x17,80002040	 x29:0x3bd57bc8 x17:0x00000000
       27825000	      2781	00000000	00000013	addi	x0,x0,0	  x0:0x00000000
       27835000	      2782	8000203c	00000013	addi	x0,x0,0	  x0:0x00000000
       27845000	      2783	80002040	00ee7b33	and	x22,x28,x14	 x28:0x80009fc4 x14:0xd4248000 x22=0x80008000
       27855000	      2784	80002044	002bb5b3	sltu	x11,x23,x2	 x23:0x15e01da0  x2:0x00000000 x11=0x00000000
       27865000	      2785	80002048	011d5793	srli	x15,x26,0x11	 x26:0x00000000 x15=0x00000000
       27875000	      2786	8000204c	019656b3	srl	x13,x12,x25	 x12:0x00003fff x25:0x00000000 x13=0x00003fff
       27885000	      2787	80002050	40025fb3	sra	x31,x4,x0	  x4:0x5ceac000  x0:0x00000000 x31=0x5ceac000
       27895000	      2788	80002054	9bd9e993	ori	x19,x19,-1603	 x19:0xeff1fbc8 x19=0xfffffbfd
       27905000	      2789	80002058	00d51233	sll	x4,x10,x13	 x10:0x000005b1 x13:0x00003fff  x4=0x80000000
       27915000	      2790	8000205c	00229413	slli	x8,x5,0x2	  x5:0x00000000  x8=0x00000000
       27925000	      2791	80002060	414e5233	sra	x4,x28,x20	 x28:0x80009fc4 x20:0x00000000  x4=0x80009fc4
       27935000	      2792	80002064	31d8e713	ori	x14,x17,797	 x17:0x00000000 x14=0x0000031d
       27945000	      2793	80002068	02cdc663	blt	x27,x12,80002094	 x27:0x00000000 x12:0x00003fff
       27955000	      2794	00000000	00000013	addi	x0,x0,0	  x0:0x00000000
       27965000	      2795	80002090	00000013	addi	x0,x0,0	  x0:0x00000000
       27975000	      2796	80002094	c4e4bd13	sltiu	x26,x9,-946	  x9:0x00000000 x26=0x00000001
       27985000	      2797	80002098	01db9333	sll	x6,x23,x29	 x23:0x15e01da0 x29:0x3bd57bc8  x6=0xe01da000
       27995000	      2798	8000209c	ef123d13	sltiu	x26,x4,-271	  x4:0x80009fc4 x26=0x00000001
       28005000	      2799	800020a0	b31a4e93	xori	x29,x20,-1231	 x20:0x00000000 x29=0xfffffb31
       28015000	      2800	800020a4	c998ed93	ori	x27,x17,-871	 x17:0x00000000 x27=0xfffffc99
       28025000	      2801	800020a8	b2ebcb37	lui	x22,0xb2ebc	 x22=0xb2ebc000
       28035000	      2802	800020ac	418757b3	sra	x15,x14,x24	 x14:0x0000031d x24:0x00000000 x15=0x0000031d
       28045000	      2803	800020b0	01037863	bgeu	x6,x16,800020c0	  x6:0xe01da000 x16:0x00000771
       28055000	      2804	00000000	00000013	addi	x0,x0,0	  x0:0x00000000
       28065000	      2805	800020bc	00000013	addi	x0,x0,0	  x0:0x00000000
       28075000	      2806	800020c0	047a9863	bne	x21,x7,80002110	 x21:0x100e0001  x7:0x80009efc
       28085000	      2807	00000000	00000013	addi	x0,x0,0	  x0:0x00000000
       28095000	      2808	8000210c	00000013	addi	x0,x0,0	  x0:0x00000000
       28105000	      2809	80002110	40c48f33	sub	x30,x9,x12	  x9:0x00000000 x12:0x00003fff x30=0xffffc001
       28115000	      2810	80002114	038e1a63	bne	x28,x24,80002148	 x28:0x80009fc4 x24:0x00000000
       28125000	      2811	00000000	00000013	addi	x0,x0,0	  x0:0x00000000
       28135000	      2812	80002144	00000013	addi	x0,x0,0	  x0:0x00000000
       28145000	      2813	80002148	011af033	and	x0,x21,x17	 x21:0x100e0001 x17:0x00000000
       28155000	      2814	8000214c	008556b3	srl	x13,x10,x8	 x10:0x000005b1  x8:0x00000000 x13=0x000005b1
       28165000	      2815	80002150	0171e463	bltu	x3,x23,80002158	  x3:0x00000000 x23:0x15e01da0
       28175000	      2816	00000000	00000013	addi	x0,x0,0	  x0:0x00000000
       28185000	      2817	80002154	00000013	addi	x0,x0,0	  x0:0x00000000
       28195000	      2818	80002158	04a9d263	bge	x19,x10,8000219c	 x19:0xfffffbfd x10:0x000005b1
       28205000	      2819	8000215c	01e41833	sll	x16,x8,x30	  x8:0x00000000 x30:0xffffc001 x16=0x00000000
       28215000	      2820	80002160	00bc9d33	sll	x26,x25,x11	 x25:0x00000000 x11:0x00000000 x26=0x00000000
       28225000	      2821	80002164	00c17eb3	and	x29,x2,x12	  x2:0x00000000 x12:0x00003fff x29=0x00000000
       28235000	      2822	80002168	02c3f663	bgeu	x7,x12,80002194	  x7:0x80009efc x12:0x00003fff
       28245000	      2823	00000000	00000013	addi	x0,x0,0	  x0:0x00000000
       28255000	      2824	80002190	00000013	addi	x0,x0,0	  x0:0x00000000
       28265000	      2825	80002194	03768a63	beq	x13,x23,800021c8	 x13:0x000005b1 x23:0x15e01da0
       28275000	      2826	80002198	00c38c33	add	x24,x7,x12	  x7:0x80009efc x12:0x00003fff x24=0x8000defb
       28285000	      2827	8000219c	00d0e133	or	x2,x1,x13	  x1:0x00000001 x13:0x000005b1  x2=0x000005b1
       28295000	      2828	800021a0	e5746993	ori	x19,x8,-425	  x8:0x00000000 x19=0xfffffe57
       28305000	      2829	800021a4	1ca40313	addi	x6,x8,458	  x8:0x00000000  x6=0x000001ca
       28315000	      2830	800021a8	5aceb113	sltiu	x2,x29,1452	 x29:0x00000000  x2=0x00000001
       28325000	      2831	800021ac	88c65f37	lui	x30,0x88c65	 x30=0x88c65000
       28335000	      2832	800021b0	00455263	bge	x10,x4,800021b4	 x10:0x000005b1  x4:0x80009fc4
       28345000	      2833	00000000	00000013	addi	x0,x0,0	  x0:0x00000000
       28355000	      2834	800021b0	00000013	addi	x0,x0,0	  x0:0x00000000
       28365000	      2835	800021b4	01b98bb3	add	x23,x19,x27	 x19:0xfffffe57 x27:0xfffffc99 x23=0xfffffaf0
       28375000	      2836	800021b8	05915063	bge	x2,x25,800021f8	  x2:0x00000001 x25:0x00000000
       28385000	      2837	00000000	00000013	addi	x0,x0,0	  x0:0x00000000
       28395000	      2838	800021f4	00000013	addi	x0,x0,0	  x0:0x00000000
       28405000	      2839	800021f8	4e4c8297	auipc	x5,0x4e4c8	  x5=0xce4ca1f4
       28415000	      2840	800021fc	aa0daa93	slti	x21,x27,-1376	 x27:0xfffffc99 x21=0x00000000
       28425000	      2841	80002200	41de8833	sub	x16,x29,x29	 x29:0x00000000 x29:0x00000000 x16=0x00000000
       28435000	      2842	80002204	007ea6b3	slt	x13,x29,x7	 x29:0x00000000  x7:0x80009efc x13=0x00000000
       28445000	      2843	80002208	00076433	or	x8,x14,x0	 x14:0x0000031d  x0:0x00000000  x8=0x0000031d
       28455000	      2844	8000220c	011ae863	bltu	x21,x17,8000221c	 x21:0x00000000 x17:0x00000000
       28465000	      2845	80002210	00465233	srl	x4,x12,x4	 x12:0x00003fff  x4:0x80009fc4  x4=0x000003ff
       28475000	      2846	80002214	00000013	addi	x0,x0,0	  x0:0x00000000
       28485000	      2847	80002218	932b0793	addi	x15,x22,-1742	 x22:0xb2ebc000 x15=0xb2ebb932
       28495000	      2848	8000221c	01f2ceb3	xor	x29,x5,x31	  x5:0xce4ca1f4 x31:0x5ceac000 x29=0x92a661f4
       28505000	      2849	80002220	4078dd13	srai	x26,x17,0x7	 x17:0x00000000 x26=0x00000000
       28515000	      2850	80002224	401d51b3	sra	x3,x26,x1	 x26:0x00000000  x1:0x00000001  x3=0x00000000
       28525000	      2851	80002228	05b66263	bltu	x12,x27,8000226c	 x12:0x00003fff x27:0xfffffc99
       28535000	      2852	00000000	00000013	addi	x0,x0,0	  x0:0x00000000
       28545000	      2853	80002268	00000013	addi	x0,x0,0	  x0:0x00000000
       28555000	      2854	8000226c	017d86b3	add	x13,x27,x23	 x27:0xfffffc99 x23:0xfffffaf0 x13=0xfffff789
       28565000	      2855	80002270	018b5293	srli	x5,x22,0x18	 x22:0xb2ebc000  x5=0x000000b2
       28575000	      2856	80002274	f07f3813	sltiu	x16,x30,-249	 x30:0x88c65000 x16=0x00000001
       28585000	      2857	80002278	0213f663	bgeu	x7,x1,800022a4	  x7:0x80009efc  x1:0x00000001
       28595000	      2858	00000000	00000013	addi	x0,x0,0	  x0:0x00000000
       28605000	      2859	800022a0	00000013	addi	x0,x0,0	  x0:0x00000000
       28615000	      2860	800022a4	01023133	sltu	x2,x4,x16	  x4:0x000003ff x16:0x00000001  x2=0x00000000
       28625000	      2861	800022a8	42757893	andi	x17,x10,1063	 x10:0x000005b1 x17=0x00000421
       28635000	      2862	800022ac	41c56093	ori	x1,x10,1052	 x10:0x000005b1  x1=0x000005bd
       28645000	      2863	800022b0	0a97b693	sltiu	x13,x15,169	 x15:0xb2ebb932 x13=0x00000000
       28655000	      2864	800022b4	41be5b13	srai	x22,x28,0x1b	 x28:0x80009fc4 x22=0xfffffff0
       28665000	      2865	800022b8	000d9cb3	sll	x25,x27,x0	 x27:0xfffffc99  x0:0x00000000 x25=0xfffffc99
       28675000	      2866	800022bc	6ed84c13	xori	x24,x16,1773	 x16:0x00000001 x24=0x000006ec
       28685000	      2867	800022c0	005c5033	srl	x0,x24,x5	 x24:0x000006ec  x5:0x000000b2
       28695000	      2868	800022c4	01e18db3	add	x27,x3,x30	  x3:0x00000000 x30:0x88c65000 x27=0x88c65000
       28705000	      2869	800022c8	01760d33	add	x26,x12,x23	 x12:0x00003fff x23:0xfffffaf0 x26=0x00003aef
       28715000	      2870	800022cc	d9a6e017	auipc	x0,0xd9a6e	
       28725000	      2871	800022d0	41c3db13	srai	x22,x7,0x1c	  x7:0x80009efc x22=0xfffffff8
       28735000	      2872	800022d4	bd52d137	lui	x2,0xbd52d	  x2=0xbd52d000
       28745000	      2873	800022d8	b9f3e793	ori	x15,x7,-1121	  x7:0x80009efc x15=0xffffffff
       28755000	      2874	800022dc	02898063	beq	x19,x8,800022fc	 x19:0xfffffe57  x8:0x0000031d
       28765000	      2875	800022e0	01791c13	slli	x24,x18,0x17	 x18:0x475a92a9 x24=0x54800000
       28775000	      2876	800022e4	0042a833	slt	x16,x5,x4	  x5:0x000000b2  x4:0x000003ff x16=0x00000001
       28785000	      2877	800022e8	ad3c0f17	auipc	x30,0xad3c0	 x30=0x2d3c22e4
       28795000	      2878	800022ec	00de1533	sll	x10,x28,x13	 x28:0x80009fc4 x13:0x00000000 x10=0x80009fc4
       28805000	      2879	800022f0	002d5a33	srl	x20,x26,x2	 x26:0x00003aef  x2:0xbd52d000 x20=0x00003aef
       28815000	      2880	800022f4	02248c63	beq	x9,x2,8000232c	  x9:0x00000000  x2:0xbd52d000
       28825000	      2881	800022f8	05a74063	blt	x14,x26,80002338	 x14:0x0000031d x26:0x00003aef
       28835000	      2882	00000000	00000013	addi	x0,x0,0	  x0:0x00000000
       28845000	      2883	80002334	00000013	addi	x0,x0,0	  x0:0x00000000
       28855000	      2884	80002338	01936633	or	x12,x6,x25	  x6:0x000001ca x25:0xfffffc99 x12=0xfffffddb
       28865000	      2885	8000233c	000a4ab3	xor	x21,x20,x0	 x20:0x00003aef  x0:0x00000000 x21=0x00003aef
       28875000	      2886	80002340	e07c0f93	addi	x31,x24,-505	 x24:0x54800000 x31=0x547ffe07
       28885000	      2887	80002344	3da82793	slti	x15,x16,986	 x16:0x00000001 x15=0x00000001
       28895000	      2888	80002348	3eb47f13	andi	x30,x8,1003	  x8:0x0000031d x30=0x00000309
       28905000	      2889	8000234c	002e8d33	add	x26,x29,x2	 x29:0x92a661f4  x2:0xbd52d000 x26=0x4ff931f4
       28915000	      2890	80002350	05e7c863	blt	x15,x30,800023a0	 x15:0x00000001 x30:0x00000309
       28925000	      2891	00000000	00000013	addi	x0,x0,0	  x0:0x00000000
       28935000	      2892	8000239c	00000013	addi	x0,x0,0	  x0:0x00000000
       28945000	      2893	800023a0	01cbdb33	srl	x22,x23,x28	 x23:0xfffffaf0 x28:0x80009fc4 x22=0x0fffffaf
       28955000	      2894	800023a4	018a1fb3	sll	x31,x20,x24	 x20:0x00003aef x24:0x54800000 x31=0x00003aef
       28965000	      2895	800023a8	03fa9a63	bne	x21,x31,800023dc	 x21:0x00003aef x31:0x00003aef
       28975000	      2896	800023ac	00000013	addi	x0,x0,0	  x0:0x00000000
       28985000	      2897	800023b0	016440b3	xor	x1,x8,x22	  x8:0x0000031d x22:0x0fffffaf  x1=0x0ffffcb2
       28995000	      2898	800023b4	40c650b3	sra	x1,x12,x12	 x12:0xfffffddb x12:0xfffffddb  x1=0xffffffff
       29005000	      2899	800023b8	02108063	beq	x1,x1,800023d8	  x1:0xffffffff  x1:0xffffffff
       29015000	      2900	00000000	00000013	addi	x0,x0,0	  x0:0x00000000
       29025000	      2901	800023d4	00000013	addi	x0,x0,0	  x0:0x00000000
       29035000	      2902	800023d8	011e0ab3	add	x21,x28,x17	 x28:0x80009fc4 x17:0x00000421 x21=0x8000a3e5
       29045000	      2903	800023dc	5746bf93	sltiu	x31,x13,1396	 x13:0x00000000 x31=0x00000001
       29055000	      2904	800023e0	01219cb3	sll	x25,x3,x18	  x3:0x00000000 x18:0x475a92a9 x25=0x00000000
       29065000	      2905	800023e4	00298433	add	x8,x19,x2	 x19:0xfffffe57  x2:0xbd52d000  x8=0xbd52ce57
       29075000	      2906	800023e8	409a01b3	sub	x3,x20,x9	 x20:0x00003aef  x9:0x00000000  x3=0x00003aef
       29085000	      2907	800023ec	017ee2b3	or	x5,x29,x23	 x29:0x92a661f4 x23:0xfffffaf0  x5=0xfffffbf4
       29095000	      2908	800023f0	03dcc063	blt	x25,x29,80002410	 x25:0x00000000 x29:0x92a661f4
       29105000	      2909	800023f4	01622233	slt	x4,x4,x22	  x4:0x000003ff x22:0x0fffffaf  x4=0x00000001
       29115000	      2910	800023f8	b3b53b17	auipc	x22,0xb3b53	 x22=0x33b553f4
       29125000	      2911	800023fc	033dfc63	bgeu	x27,x19,80002434	 x27:0x88c65000 x19:0xfffffe57
       29135000	      2912	80002400	016bcc63	blt	x23,x22,80002418	 x23:0xfffffaf0 x22:0x33b553f4
       29145000	      2913	00000000	00000013	addi	x0,x0,0	  x0:0x00000000
       29155000	      2914	80002414	00000013	addi	x0,x0,0	  x0:0x00000000
       29165000	      2915	80002418	4259a293	slti	x5,x19,1061	 x19:0xfffffe57  x5=0x00000001
       29175000	      2916	8000241c	0137db93	srli	x23,x15,0x13	 x15:0x00000001 x23=0x00000000
       29185000	      2917	80002420	0134a4b3	slt	x9,x9,x19	  x9:0x00000000 x19:0xfffffe57  x9=0x00000000
       29195000	      2918	80002424	03c20a63	beq	x4,x28,80002458	  x4:0x00000001 x28:0x80009fc4
       29205000	      2919	80002428	6b4a3593	sltiu	x11,x20,1716	 x20:0x00003aef x11=0x00000000
       29215000	      2920	8000242c	41398a33	sub	x20,x19,x19	 x19:0xfffffe57 x19:0xfffffe57 x20=0x00000000
       29225000	      2921	80002430	0149b833	sltu	x16,x19,x20	 x19:0xfffffe57 x20:0x00000000 x16=0x00000000
       29235000	      2922	80002434	01a2e9b3	or	x19,x5,x26	  x5:0x00000001 x26:0x4ff931f4 x19=0x4ff931f5
       29245000	      2923	80002438	00e02133	slt	x2,x0,x14	  x0:0x00000000 x14:0x0000031d  x2=0x00000001
       29255000	      2924	8000243c	00000013	addi	x0,x0,0	  x0:0x00000000
       29265000	      2925	80002440	01f5b733	sltu	x14,x11,x31	 x11:0x00000000 x31:0x00000001 x14=0x00000001
       29275000	      2926	80002444	64308f93	addi	x31,x1,1603	  x1:0xffffffff x31=0x00000642
       29285000	      2927	80002448	0a977fb7	lui	x31,0xa977	 x31=0x0a977000
       29295000	      2928	8000244c	039b9c63	bne	x23,x25,80002484	 x23:0x00000000 x25:0x00000000
       29305000	      2929	80002450	00000013	addi	x0,x0,0	  x0:0x00000000
       29315000	      2930	80002454	01d2ec63	bltu	x5,x29,8000246c	  x5:0x00000001 x29:0x92a661f4
       29325000	      2931	00000000	00000013	addi	x0,x0,0	  x0:0x00000000
       29335000	      2932	80002468	00000013	addi	x0,x0,0	  x0:0x00000000
       29345000	      2933	8000246c	00f83833	sltu	x16,x16,x15	 x16:0x00000000 x15:0x00000001 x16=0x00000001
       29355000	      2934	80002470	00659463	bne	x11,x6,80002478	 x11:0x00000000  x6:0x000001ca
       29365000	      2935	00000000	00000013	addi	x0,x0,0	  x0:0x00000000
       29375000	      2936	80002474	00000013	addi	x0,x0,0	  x0:0x00000000
       29385000	      2937	80002478	01303eb3	sltu	x29,x0,x19	  x0:0x00000000 x19:0x4ff931f5 x29=0x00000001
       29395000	      2938	8000247c	00466d33	or	x26,x12,x4	 x12:0xfffffddb  x4:0x00000001 x26=0xfffffddb
       29405000	      2939	80002480	01370db3	add	x27,x14,x19	 x14:0x00000001 x19:0x4ff931f5 x27=0x4ff931f6
       29415000	      2940	80002484	41275193	srai	x3,x14,0x12	 x14:0x00000001  x3=0x00000000
       29425000	      2941	80002488	41db5813	srai	x16,x22,0x1d	 x22:0x33b553f4 x16=0x00000001
       29435000	      2942	8000248c	96b534b7	lui	x9,0x96b53	  x9=0x96b53000
       29445000	      2943	80002490	0148ecb3	or	x25,x17,x20	 x17:0x00000421 x20:0x00000000 x25=0x00000421
       29455000	      2944	80002494	36168b93	addi	x23,x13,865	 x13:0x00000000 x23=0x00000361
       29465000	      2945	80002498	414f5633	sra	x12,x30,x20	 x30:0x00000309 x20:0x00000000 x12=0x00000309
       29475000	      2946	8000249c	9c0b8713	addi	x14,x23,-1600	 x23:0x00000361 x14=0xfffffd21
       29485000	      2947	800024a0	dfa0a193	slti	x3,x1,-518	  x1:0xffffffff  x3=0x00000000
       29495000	      2948	800024a4	019cdc13	srli	x24,x25,0x19	 x25:0x00000421 x24=0x00000000
       29505000	      2949	800024a8	00219833	sll	x16,x3,x2	  x3:0x00000000  x2:0x00000001 x16=0x00000000
       29515000	      2950	800024ac	00000013	addi	x0,x0,0	  x0:0x00000000
       29525000	      2951	800024b0	41918f33	sub	x30,x3,x25	  x3:0x00000000 x25:0x00000421 x30=0xfffffbdf
       29535000	      2952	800024b4	00048433	add	x8,x9,x0	  x9:0x96b53000  x0:0x00000000  x8=0x96b53000
       29545000	      2953	800024b8	0190ec33	or	x24,x1,x25	  x1:0xffffffff x25:0x00000421 x24=0xffffffff
       29555000	      2954	800024bc	00169893	slli	x17,x13,0x1	 x13:0x00000000 x17=0x00000000
       29565000	      2955	800024c0	004e46b3	xor	x13,x28,x4	 x28:0x80009fc4  x4:0x00000001 x13=0x80009fc5
       29575000	      2956	800024c4	6dcb0193	addi	x3,x22,1756	 x22:0x33b553f4  x3=0x33b55ad0
       29585000	      2957	800024c8	40fef1b7	lui	x3,0x40fef	  x3=0x40fef000
       29595000	      2958	800024cc	e6defa13	andi	x20,x29,-403	 x29:0x00000001 x20=0x00000001
       29605000	      2959	800024d0	0079fb33	and	x22,x19,x7	 x19:0x4ff931f5  x7:0x80009efc x22=0x000010f4
       29615000	      2960	800024d4	6c558c93	addi	x25,x11,1733	 x11:0x00000000 x25=0x000006c5
       29625000	      2961	800024d8	00c1f733	and	x14,x3,x12	  x3:0x40fef000 x12:0x00000309 x14=0x00000000
       29635000	      2962	800024dc	4068d4b3	sra	x9,x17,x6	 x17:0x00000000  x6:0x000001ca  x9=0x00000000
       29645000	      2963	800024e0	002a8463	beq	x21,x2,800024e8	 x21:0x8000a3e5  x2:0x00000001
       29655000	      2964	800024e4	011e3233	sltu	x4,x28,x17	 x28:0x80009fc4 x17:0x00000000  x4=0x00000000
       29665000	      2965	800024e8	68b8d8b7	lui	x17,0x68b8d	 x17=0x68b8d000
       29675000	      2966	800024ec	006fd263	bge	x31,x6,800024f0	 x31:0x0a977000  x6:0x000001ca
       29685000	      2967	00000000	00000013	addi	x0,x0,0	  x0:0x00000000
       29695000	      2968	800024ec	00000013	addi	x0,x0,0	  x0:0x00000000
       29705000	      2969	800024f0	4147da93	srai	x21,x15,0x14	 x15:0x00000001 x21=0x00000000
       29715000	      2970	800024f4	005fbd33	sltu	x26,x31,x5	 x31:0x0a977000  x5:0x00000001 x26=0x00000000
       29725000	      2971	800024f8	00841713	slli	x14,x8,0x8	  x8:0x96b53000 x14=0xb5300000
       29735000	      2972	800024fc	ec736737	lui	x14,0xec736	 x14=0xec736000
       29745000	      2973	80002500	4029d633	sra	x12,x19,x2	 x19:0x4ff931f5  x2:0x00000001 x12=0x27fc98fa
       29755000	      2974	80002504	01b5d093	srli	x1,x11,0x1b	 x11:0x00000000  x1=0x00000000
       29765000	      2975	80002508	8898f237	lui	x4,0x8898f	  x4=0x8898f000
       29775000	      2976	8000250c	402f5033	sra	x0,x30,x2	 x30:0xfffffbdf  x2:0x00000001
       29785000	      2977	80002510	0043a183	lw	x3,4(x7)	  x7:0x80009efc  x3=0x80002598 PA:0x80009f00
       29795000	      2978	80002514	40f15d93	srai	x27,x2,0xf	  x2:0x00000001 x27=0x00000000
       29805000	      2979	80002518	3864a113	slti	x2,x9,902	  x9:0x00000000  x2=0x00000001
       29815000	      2980	8000251c	01761293	slli	x5,x12,0x17	 x12:0x27fc98fa  x5=0x7d000000
       29825000	      2981	80002520	01594593	xori	x11,x18,21	 x18:0x475a92a9 x11=0x475a92bc
       29835000	      2982	80002524	017d0d33	add	x26,x26,x23	 x26:0x00000000 x23:0x00000361 x26=0x00000361
       29845000	      2983	80002528	03438393	addi	x7,x7,52	  x7:0x80009efc  x7=0x80009f30
       29855000	      2984	8000252c	40bd5993	srai	x19,x26,0xb	 x26:0x00000361 x19=0x00000000
       29865000	      2985	80002530	00118c93	addi	x25,x3,1	  x3:0x80002598 x25=0x80002599
       29875000	      2986	80002534	000c8ce7	jalr	x25,x25,0	 x25:0x80002599 x25=0x80002534
       29885000	      2987	00000000	00000013	addi	x0,x0,0	  x0:0x00000000
       29895000	      2988	80002598	00000013	addi	x0,x0,0	  x0:0x00000000
       29905000	      2989	8000259c	01cecb33	xor	x22,x29,x28	 x29:0x00000001 x28:0x80009fc4 x22=0x80009fc5
       29915000	      2990	800025a0	8112a813	slti	x16,x5,-2031	  x5:0x7d000000 x16=0x00000000
       29925000	      2991	800025a4	037f5c63	bge	x30,x23,800025dc	 x30:0xfffffbdf x23:0x00000361
       29935000	      2992	800025a8	00b9ca33	xor	x20,x19,x11	 x19:0x00000000 x11:0x475a92bc x20=0x475a92bc
       29945000	      2993	800025ac	004ee863	bltu	x29,x4,800025bc	 x29:0x00000001  x4:0x8898f000
       29955000	      2994	00000000	00000013	addi	x0,x0,0	  x0:0x00000000
       29965000	      2995	800025b8	00000013	addi	x0,x0,0	  x0:0x00000000
       29975000	      2996	800025bc	41628a33	sub	x20,x5,x22	  x5:0x7d000000 x22:0x80009fc5 x20=0xfcff603b
       29985000	      2997	800025c0	00680533	add	x10,x16,x6	 x16:0x00000000  x6:0x000001ca x10=0x000001ca
       29995000	      2998	800025c4	ff82ab13	slti	x22,x5,-8	  x5:0x7d000000 x22=0x00000000
       30005000	      2999	800025c8	017b5513	srli	x10,x22,0x17	 x22:0x00000000 x10=0x00000000
       30015000	      3000	800025cc	01c2c733	xor	x14,x5,x28	  x5:0x7d000000 x28:0x80009fc4 x14=0xfd009fc4
       30025000	      3001	800025d0	041af263	bgeu	x21,x1,80002614	 x21:0x00000000  x1:0x00000000
       30035000	      3002	00000000	00000013	addi	x0,x0,0	  x0:0x00000000
       30045000	      3003	80002610	00000013	addi	x0,x0,0	  x0:0x00000000
       30055000	      3004	80002614	3a94e993	ori	x19,x9,937	  x9:0x00000000 x19=0x000003a9
       30065000	      3005	80002618	023ed063	bge	x29,x3,80002638	 x29:0x00000001  x3:0x80002598
       30075000	      3006	00000000	00000013	addi	x0,x0,0	  x0:0x00000000
       30085000	      3007	80002634	00000013	addi	x0,x0,0	  x0:0x00000000
       30095000	      3008	80002638	011d47b3	xor	x15,x26,x17	 x26:0x00000361 x17:0x68b8d000 x15=0x68b8d361
       30105000	      3009	8000263c	0177a0b3	slt	x1,x15,x23	 x15:0x68b8d361 x23:0x00000361  x1=0x00000000
       30115000	      3010	80002640	71bf9b17	auipc	x22,0x71bf9	 x22=0xf1bfb63c
       30125000	      3011	80002644	0043a183	lw	x3,4(x7)	  x7:0x80009f30  x3=0x800004dc PA:0x80009f34
       30135000	      3012	80002648	00ad3033	sltu	x0,x26,x10	 x26:0x00000361 x10:0x00000000
       30145000	      3013	8000264c	03c38393	addi	x7,x7,60	  x7:0x80009f30  x7=0x80009f6c
       30155000	      3014	80002650	403adf93	srai	x31,x21,0x3	 x21:0x00000000 x31=0x00000000
       30165000	      3015	80002654	d62310b7	lui	x1,0xd6231	  x1=0xd6231000
       30175000	      3016	80002658	87dd3813	sltiu	x16,x26,-1923	 x26:0x00000361 x16=0x00000001
       30185000	      3017	8000265c	0015d133	srl	x2,x11,x1	 x11:0x475a92bc  x1:0xd6231000  x2=0x475a92bc
       30195000	      3018	80002660	00ad1f33	sll	x30,x26,x10	 x26:0x00000361 x10:0x00000000 x30=0x00000361
       30205000	      3019	80002664	00018d93	addi	x27,x3,0	  x3:0x800004dc x27=0x800004dc
       30215000	      3020	80002668	000d8de7	jalr	x27,x27,0	 x27:0x800004dc x27=0x80002668
       30225000	      3021	00000000	00000013	addi	x0,x0,0	  x0:0x00000000
       30235000	      3022	800004dc	00000013	addi	x0,x0,0	  x0:0x00000000
       30245000	      3023	800004e0	b4f11b97	auipc	x23,0xb4f11	 x23=0x34f114dc
       30255000	      3024	800004e4	00006817	auipc	x16,0x6	 x16=0x800064e0
       30265000	      3025	800004e8	49480813	addi	x16,x16,1172	 x16:0x800064e0 x16=0x80006974
       30275000	      3026	800004ec	007b12b3	sll	x5,x22,x7	 x22:0xf1bfb63c  x7:0x80009f6c  x5=0xfb63c000
       30285000	      3027	800004f0	01e0fcb3	and	x25,x1,x30	  x1:0xd6231000 x30:0x00000361 x25=0x00000000
       30295000	      3028	800004f4	01819b33	sll	x22,x3,x24	  x3:0x800004dc x24:0xffffffff x22=0x00000000
       30305000	      3029	800004f8	e2a80813	addi	x16,x16,-470	 x16:0x80006974 x16=0x8000679e
       30315000	      3030	800004fc	00a49293	slli	x5,x9,0xa	  x9:0x00000000  x5=0x00000000
       30325000	      3031	80000500	f0ddab93	slti	x23,x27,-243	 x27:0x80002668 x23=0x00000001
       30335000	      3032	80000504	00b46a63	bltu	x8,x11,80000518	  x8:0x96b53000 x11:0x475a92bc
       30345000	      3033	80000508	0141e233	or	x4,x3,x20	  x3:0x800004dc x20:0xfcff603b  x4=0xfcff64ff
       30355000	      3034	8000050c	00f032b3	sltu	x5,x0,x15	  x0:0x00000000 x15:0x68b8d361  x5=0x00000001
       30365000	      3035	80000510	01cbcdb3	xor	x27,x23,x28	 x23:0x00000001 x28:0x80009fc4 x27=0x80009fc5
       30375000	      3036	80000514	01d24433	xor	x8,x4,x29	  x4:0xfcff64ff x29:0x00000001  x8=0xfcff64fe
       30385000	      3037	80000518	1d6801e7	jalr	x3,x16,470	 x16:0x8000679e  x3=0x80000518
       30395000	      3038	00000000	00000013	addi	x0,x0,0	  x0:0x00000000
       30405000	      3039	80006974	00000013	addi	x0,x0,0	  x0:0x00000000
       30415000	      3040	80006978	d1628d13	addi	x26,x5,-746	  x5:0x00000001 x26=0xfffffd17
       30425000	      3041	8000697c	01771663	bne	x14,x23,80006988	 x14:0xfd009fc4 x23:0x00000001
       30435000	      3042	00000000	00000013	addi	x0,x0,0	  x0:0x00000000
       30445000	      3043	80006984	00000013	addi	x0,x0,0	  x0:0x00000000
       30455000	      3044	80006988	fec38393	addi	x7,x7,-20	  x7:0x80009f6c  x7=0x80009f58
       30465000	      3045	8000698c	0033a223	sw	x3,4(x7)	  x7:0x80009f58  x3:0x80000518 PA:0x80009f5c
       30475000	      3046	80006990	0026dc13	srli	x24,x13,0x2	 x13:0x80009fc5 x24=0x200027f1
       30485000	      3047	80006994	0006aeb3	slt	x29,x13,x0	 x13:0x80009fc5  x0:0x00000000 x29=0x00000001
       30495000	      3048	80006998	930e2f13	slti	x30,x28,-1744	 x28:0x80009fc4 x30=0x00000001
       30505000	      3049	8000699c	01771c93	slli	x25,x14,0x17	 x14:0xfd009fc4 x25=0xe2000000
       30515000	      3050	800069a0	41585db3	sra	x27,x16,x21	 x16:0x8000679e x21:0x00000000 x27=0x8000679e
       30525000	      3051	800069a4	01203533	sltu	x10,x0,x18	  x0:0x00000000 x18:0x475a92a9 x10=0x00000001
       30535000	      3052	800069a8	00b0bf33	sltu	x30,x1,x11	  x1:0xd6231000 x11:0x475a92bc x30=0x00000000
       30545000	      3053	800069ac	f0a92313	slti	x6,x18,-246	 x18:0x475a92a9  x6=0x00000000
       30555000	      3054	800069b0	004c0633	add	x12,x24,x4	 x24:0x200027f1  x4:0xfcff64ff x12=0x1cff8cf0
       30565000	      3055	800069b4	9e5fd1ef	jal	x3,800069b4	  x3=0x800069b4
       30575000	      3056	00000000	00000013	addi	x0,x0,0	  x0:0x00000000
       30585000	      3057	80004394	00000013	addi	x0,x0,0	  x0:0x00000000
       30595000	      3058	80004398	01519463	bne	x3,x21,800043a0	  x3:0x800069b4 x21:0x00000000
       30605000	      3059	00000000	00000013	addi	x0,x0,0	  x0:0x00000000
       30615000	      3060	8000439c	00000013	addi	x0,x0,0	  x0:0x00000000
       30625000	      3061	800043a0	fd038393	addi	x7,x7,-48	  x7:0x80009f58  x7=0x80009f28
       30635000	      3062	800043a4	fefcc493	xori	x9,x25,-17	 x25:0xe2000000  x9=0x1dffffef
       30645000	      3063	800043a8	112c6f13	ori	x30,x24,274	 x24:0x200027f1 x30=0x200027f3
       30655000	      3064	800043ac	40c4d593	srai	x11,x9,0xc	  x9:0x1dffffef x11=0x0001dfff
       30665000	      3065	800043b0	0033a223	sw	x3,4(x7)	  x7:0x80009f28  x3:0x800069b4 PA:0x80009f2c
       30675000	      3066	800043b4	e79de213	ori	x4,x27,-391	 x27:0x8000679e  x4=0xffffffff
       30685000	      3067	800043b8	00004d97	auipc	x27,0x4	 x27=0x800083b4
       30695000	      3068	800043bc	31fd8d93	addi	x27,x27,799	 x27:0x800083b4 x27=0x800086d3
       30705000	      3069	800043c0	000030b3	sltu	x1,x0,x0	  x0:0x00000000  x0:0x00000000  x1=0x00000000
       30715000	      3070	800043c4	b15da603	lw	x12,-1259(x27)	 x27:0x800086d3 x12=0x00000000 PA:0x800081e8
       30725000	      3071	800043c8	bdfd9003	lh	x0,-1057(x27)	 x27:0x800086d3 PA:0x800082b2
       30735000	      3072	800043cc	0112ecb3	or	x25,x5,x17	  x5:0x00000001 x17:0x68b8d000 x25=0x68b8d001
       30745000	      3073	800043d0	41b4d1b3	sra	x3,x9,x27	  x9:0x1dffffef x27:0x800086d3  x3=0x000003bf
       30755000	      3074	800043d4	012e4eb3	xor	x29,x28,x18	 x28:0x80009fc4 x18:0x475a92a9 x29=0xc75a0d6d
       30765000	      3075	800043d8	ea6d8d03	lb	x26,-346(x27)	 x27:0x800086d3 x26=0x00000000 PA:0x80008579
       30775000	      3076	800043dc	4038d813	srai	x16,x17,0x3	 x17:0x68b8d000 x16=0x0d171a00
       30785000	      3077	800043e0	d30d8283	lb	x5,-720(x27)	 x27:0x800086d3  x5=0x00000000 PA:0x80008403
       30795000	      3078	800043e4	40760433	sub	x8,x12,x7	 x12:0x00000000  x7:0x80009f28  x8=0x7fff60d8
       30805000	      3079	800043e8	1ea0e4b7	lui	x9,0x1ea0e	  x9=0x1ea0e000
       30815000	      3080	800043ec	c8f70f13	addi	x30,x14,-881	 x14:0xfd009fc4 x30=0xfd009c53
       30825000	      3081	800043f0	412a8033	sub	x0,x21,x18	 x21:0x00000000 x18:0x475a92a9
       30835000	      3082	800043f4	5bc3bf93	sltiu	x31,x7,1468	  x7:0x80009f28 x31=0x00000000
       30845000	      3083	800043f8	00f7b1b3	sltu	x3,x15,x15	 x15:0x68b8d361 x15:0x68b8d361  x3=0x00000000
       30855000	      3084	800043fc	01cf1b13	slli	x22,x30,0x1c	 x30:0xfd009c53 x22=0x30000000
       30865000	      3085	80004400	0105d133	srl	x2,x11,x16	 x11:0x0001dfff x16:0x0d171a00  x2=0x0001dfff
       30875000	      3086	80004404	41db00b3	sub	x1,x22,x29	 x22:0x30000000 x29:0xc75a0d6d  x1=0x68a5f293
       30885000	      3087	80004408	e8dd9303	lh	x6,-371(x27)	 x27:0x800086d3  x6=0xffffa9a9 PA:0x80008560
       30895000	      3088	8000440c	c63dc603	lbu	x12,-925(x27)	 x27:0x800086d3 x12=0x00000000 PA:0x80008336
       30905000	      3089	80004410	01ab66b3	or	x13,x22,x26	 x22:0x30000000 x26:0x00000000 x13=0x30000000
       30915000	      3090	80004414	00b81593	slli	x11,x16,0xb	 x16:0x0d171a00 x11=0xb8d00000
       30925000	      3091	80004418	b5dddb83	lhu	x23,-1187(x27)	 x27:0x800086d3 x23=0x00000000 PA:0x80008230
       30935000	      3092	8000441c	01fa7fb3	and	x31,x20,x31	 x20:0xfcff603b x31:0x00000000 x31=0x00000000
       30945000	      3093	80004420	092d8883	lb	x17,146(x27)	 x27:0x800086d3 x17=0x00000000 PA:0x80008765
       30955000	      3094	80004424	fb0d8fa3	sb	x16,-65(x27)	 x27:0x800086d3 x16:0x0d171a00 PA:0x80008692
       30965000	      3095	80004428	b5eda4a3	sw	x30,-1207(x27)	 x27:0x800086d3 x30:0xfd009c53 PA:0x8000821c
       30975000	      3096	8000442c	a10dc203	lbu	x4,-1520(x27)	 x27:0x800086d3  x4=0x00000000 PA:0x800080e3
       30985000	      3097	80004430	de7d8aa3	sb	x7,-523(x27)	 x27:0x800086d3  x7:0x80009f28 PA:0x800084c8
       30995000	      3098	80004434	eecdc103	lbu	x2,-276(x27)	 x27:0x800086d3  x2=0x00000000 PA:0x800085bf
       31005000	      3099	80004438	aed71517	auipc	x10,0xaed71	 x10=0x2ed75434
       31015000	      3100	8000443c	00122eb3	slt	x29,x4,x1	  x4:0x00000000  x1:0x68a5f293 x29=0x00000001
       31025000	      3101	80004440	eaed8683	lb	x13,-338(x27)	 x27:0x800086d3 x13=0x00000000 PA:0x80008581
       31035000	      3102	80004444	00af84b3	add	x9,x31,x10	 x31:0x00000000 x10:0x2ed75434  x9=0x2ed75434
       31045000	      3103	80004448	231dca93	xori	x21,x27,561	 x27:0x800086d3 x21=0x800084e2
       31055000	      3104	8000444c	00ba16b3	sll	x13,x20,x11	 x20:0xfcff603b x11:0xb8d00000 x13=0xfcff603b
       31065000	      3105	80004450	ab5ddd03	lhu	x26,-1355(x27)	 x27:0x800086d3 x26=0x00000000 PA:0x80008188
       31075000	      3106	80004454	abbdc683	lbu	x13,-1349(x27)	 x27:0x800086d3 x13=0x00000000 PA:0x8000818e
       31085000	      3107	80004458	00004217	auipc	x4,0x4	  x4=0x80008454
       31095000	      3108	8000445c	57f20213	addi	x4,x4,1407	  x4:0x80008454  x4=0x800089d3
       31105000	      3109	80004460	6f13f613	andi	x12,x7,1777	  x7:0x80009f28 x12=0x00000620
       31115000	      3110	80004464	00000013	addi	x0,x0,0	  x0:0x00000000
       31125000	      3111	80004468	04020883	lb	x17,64(x4)	  x4:0x800089d3 x17=0x00000000 PA:0x80008a13
       31135000	      3112	00000000	00000013	addi	x0,x0,0	  x0:0x00000000
       31145000	      3113	8000446c	00e8acb3	slt	x25,x17,x14	 x17:0x00000000 x14:0xfd009fc4 x25=0x00000000
       31155000	      3114	80004470	039215a3	sh	x25,43(x4)	  x4:0x800089d3 x25:0x00000000 PA:0x800089fe
       31165000	      3115	80004474	41775413	srai	x8,x14,0x17	 x14:0xfd009fc4  x8=0xfffffffa
       31175000	      3116	80004478	00920c23	sb	x9,24(x4)	  x4:0x800089d3  x9:0x2ed75434 PA:0x800089eb
       31185000	      3117	8000447c	02320023	sb	x3,32(x4)	  x4:0x800089d3  x3:0x00000000 PA:0x800089f3
       31195000	      3118	80004480	04024a83	lbu	x21,64(x4)	  x4:0x800089d3 x21=0x00000000 PA:0x80008a13
       31205000	      3119	80004484	03124403	lbu	x8,49(x4)	  x4:0x800089d3  x8=0x00000000 PA:0x80008a04
       31215000	      3120	80004488	fd320c03	lb	x24,-45(x4)	  x4:0x800089d3 x24=0x00000000 PA:0x800089a6
       31225000	      3121	8000448c	40b75813	srai	x16,x14,0xb	 x14:0xfd009fc4 x16=0xffffa013
       31235000	      3122	80004490	00d396b3	sll	x13,x7,x13	  x7:0x80009f28 x13:0x00000000 x13=0x80009f28
       31245000	      3123	80004494	4ad3a193	slti	x3,x7,1197	  x7:0x80009f28  x3=0x00000001
       31255000	      3124	80004498	005ee733	or	x14,x29,x5	 x29:0x00000001  x5:0x00000000 x14=0x00000001
       31265000	      3125	8000449c	ff724a83	lbu	x21,-9(x4)	  x4:0x800089d3 x21=0x00000000 PA:0x800089ca
       31275000	      3126	800044a0	fc321583	lh	x11,-61(x4)	  x4:0x800089d3 x11=0x00000000 PA:0x80008996
       31285000	      3127	800044a4	03520323	sb	x21,38(x4)	  x4:0x800089d3 x21:0x00000000 PA:0x800089f9
       31295000	      3128	800044a8	fd121d03	lh	x26,-47(x4)	  x4:0x800089d3 x26=0x00000000 PA:0x800089a4
       31305000	      3129	800044ac	00be8f33	add	x30,x29,x11	 x29:0x00000001 x11:0x00000000 x30=0x00000001
       31315000	      3130	800044b0	0195e333	or	x6,x11,x25	 x11:0x00000000 x25:0x00000000  x6=0x00000000
       31325000	      3131	800044b4	ffc20303	lb	x6,-4(x4)	  x4:0x800089d3  x6=0x00000000 PA:0x800089cf
       31335000	      3132	800044b8	01224703	lbu	x14,18(x4)	  x4:0x800089d3 x14=0x00000000 PA:0x800089e5
       31345000	      3133	800044bc	00004117	auipc	x2,0x4	  x2=0x800084b8
       31355000	      3134	800044c0	eab10113	addi	x2,x2,-341	  x2:0x800084b8  x2=0x80008363
       31365000	      3135	800044c4	82234513	xori	x10,x6,-2014	  x6:0x00000000 x10=0xfffff822
       31375000	      3136	800044c8	233b7193	andi	x3,x22,563	 x22:0x30000000  x3=0x00000000
       31385000	      3137	800044cc	01978033	add	x0,x15,x25	 x15:0x68b8d361 x25:0x00000000
       31395000	      3138	800044d0	00b10823	sb	x11,16(x2)	  x2:0x80008363 x11:0x00000000 PA:0x80008373
       31405000	      3139	800044d4	011a10b3	sll	x1,x20,x17	 x20:0xfcff603b x17:0x00000000  x1=0xfcff603b
       31415000	      3140	800044d8	4026d193	srai	x3,x13,0x2	 x13:0x80009f28  x3=0xe00027ca
       31425000	      3141	800044dc	41275cb3	sra	x25,x14,x18	 x14:0x00000000 x18:0x475a92a9 x25=0x00000000
       31435000	      3142	800044e0	ff111883	lh	x17,-15(x2)	  x2:0x80008363 x17=0x00000000 PA:0x80008354
       31445000	      3143	800044e4	008b89b3	add	x19,x23,x8	 x23:0x00000000  x8:0x00000000 x19=0x00000000
       31455000	      3144	800044e8	0199e5b3	or	x11,x19,x25	 x19:0x00000000 x25:0x00000000 x11=0x00000000
       31465000	      3145	800044ec	6f11d837	lui	x16,0x6f11d	 x16=0x6f11d000
       31475000	      3146	800044f0	00000013	addi	x0,x0,0	  x0:0x00000000
       31485000	      3147	800044f4	f5673b13	sltiu	x22,x14,-170	 x14:0x00000000 x22=0x00000001
       31495000	      3148	800044f8	00010203	lb	x4,0(x2)	  x2:0x80008363  x4=0x00000000 PA:0x80008363
       31505000	      3149	800044fc	00efb8b3	sltu	x17,x31,x14	 x31:0x00000000 x14:0x00000000 x17=0x00000000
       31515000	      3150	80004500	8bc67e93	andi	x29,x12,-1860	 x12:0x00000620 x29=0x00000020
       31525000	      3151	80004504	000116a3	sh	x0,13(x2)	  x2:0x80008363  x0:0x00000000 PA:0x80008370
       31535000	      3152	80004508	88dd8593	addi	x11,x27,-1907	 x27:0x800086d3 x11=0x80007f60
       31545000	      3153	8000450c	ff715d03	lhu	x26,-9(x2)	  x2:0x80008363 x26=0x00002e00 PA:0x8000835a
       31555000	      3154	80004510	00915183	lhu	x3,9(x2)	  x2:0x80008363  x3=0x0000f000 PA:0x8000836c
       31565000	      3155	80004514	00b07f33	and	x30,x0,x11	  x0:0x00000000 x11:0x80007f60 x30=0x00000000
       31575000	      3156	80004518	fe912aa3	sw	x9,-11(x2)	  x2:0x80008363  x9:0x2ed75434 PA:0x80008358
       31585000	      3157	8000451c	01b01c33	sll	x24,x0,x27	  x0:0x00000000 x27:0x800086d3 x24=0x00000000
       31595000	      3158	80004520	fe4118a3	sh	x4,-15(x2)	  x2:0x80008363  x4:0x00000000 PA:0x80008354
       31605000	      3159	80004524	406082b3	sub	x5,x1,x6	  x1:0xfcff603b  x6:0x00000000  x5=0xfcff603b
       31615000	      3160	80004528	01a116a3	sh	x26,13(x2)	  x2:0x80008363 x26:0x00002e00 PA:0x80008370
       31625000	      3161	8000452c	01118733	add	x14,x3,x17	  x3:0x0000f000 x17:0x00000000 x14=0x0000f000
       31635000	      3162	80004530	00a10283	lb	x5,10(x2)	  x2:0x80008363  x5=0xfffffff0 PA:0x8000836d
       31645000	      3163	80004534	fe610ba3	sb	x6,-9(x2)	  x2:0x80008363  x6:0x00000000 PA:0x8000835a
       31655000	      3164	80004538	00a10223	sb	x10,4(x2)	  x2:0x80008363 x10:0xfffff822 PA:0x80008367
       31665000	      3165	8000453c	01723333	sltu	x6,x4,x23	  x4:0x00000000 x23:0x00000000  x6=0x00000000
       31675000	      3166	80004540	40295cb3	sra	x25,x18,x2	 x18:0x475a92a9  x2:0x80008363 x25=0x08eb5255
       31685000	      3167	80004544	fe110b23	sb	x1,-10(x2)	  x2:0x80008363  x1:0xfcff603b PA:0x80008359
       31695000	      3168	80004548	00004117	auipc	x2,0x4	  x2=0x80008544
       31705000	      3169	8000454c	b0410113	addi	x2,x2,-1276	  x2:0x80008544  x2=0x80008048
       31715000	      3170	80004550	01d23b33	sltu	x22,x4,x29	  x4:0x00000000 x29:0x00000020 x22=0x00000001
       31725000	      3171	80004554	00710723	sb	x7,14(x2)	  x2:0x80008048  x7:0x80009f28 PA:0x80008056
       31735000	      3172	80004558	010574b3	and	x9,x10,x16	 x10:0xfffff822 x16:0x6f11d000  x9=0x6f11d000
       31745000	      3173	8000455c	01c851b3	srl	x3,x16,x28	 x16:0x6f11d000 x28:0x80009fc4  x3=0x06f11d00
       31755000	      3174	80004560	00ab3433	sltu	x8,x22,x10	 x22:0x00000001 x10:0xfffff822  x8=0x00000001
       31765000	      3175	80004564	408b5013	srai	x0,x22,0x8	 x22:0x00000001
       31775000	      3176	80004568	00510a03	lb	x20,5(x2)	  x2:0x80008048 x20=0x00000000 PA:0x8000804d
       31785000	      3177	8000456c	00000013	addi	x0,x0,0	  x0:0x00000000
       31795000	      3178	80004570	00714a83	lbu	x21,7(x2)	  x2:0x80008048 x21=0x00000000 PA:0x8000804f
       31805000	      3179	80004574	01ac5533	srl	x10,x24,x26	 x24:0x00000000 x26:0x00002e00 x10=0x00000000
       31815000	      3180	80004578	00511723	sh	x5,14(x2)	  x2:0x80008048  x5:0xfffffff0 PA:0x80008056
       31825000	      3181	8000457c	00df1893	slli	x17,x30,0xd	 x30:0x00000000 x17=0x00000000
       31835000	      3182	80004580	00b10f83	lb	x31,11(x2)	  x2:0x80008048 x31=0x00000000 PA:0x80008053
       31845000	      3183	80004584	0029e8b3	or	x17,x19,x2	 x19:0x00000000  x2:0x80008048 x17=0x80008048
       31855000	      3184	80004588	00e11303	lh	x6,14(x2)	  x2:0x80008048  x6=0xfffffff0 PA:0x80008056
       31865000	      3185	8000458c	00f10223	sb	x15,4(x2)	  x2:0x80008048 x15:0x68b8d361 PA:0x8000804c
       31875000	      3186	80004590	018b6fb3	or	x31,x22,x24	 x22:0x00000001 x24:0x00000000 x31=0x00000001
       31885000	      3187	80004594	00714d83	lbu	x27,7(x2)	  x2:0x80008048 x27=0x00000000 PA:0x8000804f
       31895000	      3188	80004598	00410983	lb	x19,4(x2)	  x2:0x80008048 x19=0x00000061 PA:0x8000804c
       31905000	      3189	00000000	00000013	addi	x0,x0,0	  x0:0x00000000
       31915000	      3190	8000459c	013240b3	xor	x1,x4,x19	  x4:0x00000000 x19:0x00000061  x1=0x00000061
       31925000	      3191	800045a0	1bb88a93	addi	x21,x17,443	 x17:0x80008048 x21=0x80008203
       31935000	      3192	800045a4	00845793	srli	x15,x8,0x8	  x8:0x00000001 x15=0x00000000
       31945000	      3193	800045a8	418958b3	sra	x17,x18,x24	 x18:0x475a92a9 x24:0x00000000 x17=0x475a92a9
       31955000	      3194	800045ac	01526ab3	or	x21,x4,x21	  x4:0x00000000 x21:0x80008203 x21=0x80008203
       31965000	      3195	800045b0	2e83d717	auipc	x14,0x2e83d	 x14=0xae8415ac
       31975000	      3196	800045b4	16b20193	addi	x3,x4,363	  x4:0x00000000  x3=0x0000016b
       31985000	      3197	800045b8	00000013	addi	x0,x0,0	  x0:0x00000000
       31995000	      3198	800045bc	0082e2b3	or	x5,x5,x8	  x5:0xfffffff0  x8:0x00000001  x5=0xfffffff1
       32005000	      3199	800045c0	41658ab3	sub	x21,x11,x22	 x11:0x80007f60 x22:0x00000001 x21=0x80007f5f
       32015000	      3200	800045c4	00672a33	slt	x20,x14,x6	 x14:0xae8415ac  x6:0xfffffff0 x20=0x00000001
       32025000	      3201	800045c8	011871b3	and	x3,x16,x17	 x16:0x6f11d000 x17:0x475a92a9  x3=0x47109000
       32035000	      3202	800045cc	011b6eb3	or	x29,x22,x17	 x22:0x00000001 x17:0x475a92a9 x29=0x475a92a9
       32045000	      3203	800045d0	1d7ddf37	lui	x30,0x1d7dd	 x30=0x1d7dd000
       32055000	      3204	800045d4	40ea8533	sub	x10,x21,x14	 x21:0x80007f5f x14:0xae8415ac x10=0xd17c69b3
       32065000	      3205	800045d8	34ba0f97	auipc	x31,0x34ba0	 x31=0xb4ba45d4
       32075000	      3206	800045dc	85797d17	auipc	x26,0x85797	 x26=0x0579b5d8
       32085000	      3207	800045e0	00b3db93	srli	x23,x7,0xb	  x7:0x80009f28 x23=0x00100013
       32095000	      3208	800045e4	01911723	sh	x25,14(x2)	  x2:0x80008048 x25:0x08eb5255 PA:0x80008056
       32105000	      3209	800045e8	89266f97	auipc	x31,0x89266	 x31=0x0926a5e4
       32115000	      3210	800045ec	01a3c1b3	xor	x3,x7,x26	  x7:0x80009f28 x26:0x0579b5d8  x3=0x85792af0
       32125000	      3211	800045f0	01014983	lbu	x19,16(x2)	  x2:0x80008048 x19=0x00000000 PA:0x80008058
       32135000	      3212	800045f4	00004117	auipc	x2,0x4	  x2=0x800085f0
       32145000	      3213	800045f8	d7210113	addi	x2,x2,-654	  x2:0x800085f0  x2=0x80008362
       32155000	      3214	800045fc	fe6ab717	auipc	x14,0xfe6ab	 x14=0x7e6af5f8
       32165000	      3215	80004600	03010423	sb	x16,40(x2)	  x2:0x80008362 x16:0x6f11d000 PA:0x8000838a
       32175000	      3216	80004604	00e668b3	or	x17,x12,x14	 x12:0x00000620 x14:0x7e6af5f8 x17=0x7e6af7f8
       32185000	      3217	80004608	41e85d93	srai	x27,x16,0x1e	 x16:0x6f11d000 x27=0x00000001
       32195000	      3218	8000460c	fd110783	lb	x15,-47(x2)	  x2:0x80008362 x15=0x00000000 PA:0x80008333
       32205000	      3219	00000000	00000013	addi	x0,x0,0	  x0:0x00000000
       32215000	      3220	80004610	0197cb33	xor	x22,x15,x25	 x15:0x00000000 x25:0x08eb5255 x22=0x08eb5255
       32225000	      3221	80004614	fc210623	sb	x2,-52(x2)	  x2:0x80008362  x2:0x80008362 PA:0x8000832e
       32235000	      3222	80004618	ffe11483	lh	x9,-2(x2)	  x2:0x80008362  x9=0x00000000 PA:0x80008360
       32245000	      3223	8000461c	00510da3	sb	x5,27(x2)	  x2:0x80008362  x5:0xfffffff1 PA:0x8000837d
       32255000	      3224	80004620	83cdcb13	xori	x22,x27,-1988	 x27:0x00000001 x22=0xfffff83d
       32265000	      3225	80004624	ffd14f03	lbu	x30,-3(x2)	  x2:0x80008362 x30=0x00000000 PA:0x8000835f
       32275000	      3226	80004628	4097d633	sra	x12,x15,x9	 x15:0x00000000  x9:0x00000000 x12=0x00000000
       32285000	      3227	8000462c	01b45c13	srli	x24,x8,0x1b	  x8:0x00000001 x24=0x00000000
       32295000	      3228	80004630	d6c9c097	auipc	x1,0xd6c9c	  x1=0x56ca062c
       32305000	      3229	80004634	00000013	addi	x0,x0,0	  x0:0x00000000
       32315000	      3230	80004638	00114703	lbu	x14,1(x2)	  x2:0x80008362 x14=0x00000000 PA:0x80008363
       32325000	      3231	8000463c	03a12f23	sw	x26,62(x2)	  x2:0x80008362 x26:0x0579b5d8 PA:0x800083a0
       32335000	      3232	80004640	00212b03	lw	x22,2(x2)	  x2:0x80008362 x22=0x22000000 PA:0x80008364
       32345000	      3233	80004644	00561a13	slli	x20,x12,0x5	 x12:0x00000000 x20=0x00000000
       32355000	      3234	80004648	01d14083	lbu	x1,29(x2)	  x2:0x80008362  x1=0x00000000 PA:0x8000837f
       32365000	      3235	8000464c	41410033	sub	x0,x2,x20	  x2:0x80008362 x20:0x00000000
       32375000	      3236	80004650	00c65693	srli	x13,x12,0xc	 x12:0x00000000 x13=0x00000000
       32385000	      3237	80004654	019ce8b3	or	x17,x25,x25	 x25:0x08eb5255 x25:0x08eb5255 x17=0x08eb5255
       32395000	      3238	80004658	02310c83	lb	x25,35(x2)	  x2:0x80008362 x25=0x00000000 PA:0x80008385
       32405000	      3239	8000465c	00512f23	sw	x5,30(x2)	  x2:0x80008362  x5:0xfffffff1 PA:0x80008380
       32415000	      3240	80004660	bce40013	addi	x0,x8,-1074	  x8:0x00000001
       32425000	      3241	80004664	00405513	srli	x10,x0,0x4	  x0:0x00000000 x10=0x00000000
       32435000	      3242	80004668	011aa333	slt	x6,x21,x17	 x21:0x80007f5f x17:0x08eb5255  x6=0x00000001
       32445000	      3243	8000466c	01510ba3	sb	x21,23(x2)	  x2:0x80008362 x21:0x80007f5f PA:0x80008379
       32455000	      3244	80004670	fc010503	lb	x10,-64(x2)	  x2:0x80008362 x10=0x00000000 PA:0x80008322
       32465000	      3245	80004674	01dcedb3	or	x27,x25,x29	 x25:0x00000000 x29:0x475a92a9 x27=0x475a92a9
       32475000	      3246	80004678	01f10da3	sb	x31,27(x2)	  x2:0x80008362 x31:0x0926a5e4 PA:0x8000837d
       32485000	      3247	8000467c	003105a3	sb	x3,11(x2)	  x2:0x80008362  x3:0x85792af0 PA:0x8000836d
       32495000	      3248	80004680	41dbdf13	srai	x30,x23,0x1d	 x23:0x00100013 x30=0x00000000
       32505000	      3249	80004684	03414c83	lbu	x25,52(x2)	  x2:0x80008362 x25=0x00000000 PA:0x80008396
       32515000	      3250	80004688	fca10f03	lb	x30,-54(x2)	  x2:0x80008362 x30=0x00000000 PA:0x8000832c
       32525000	      3251	8000468c	00004317	auipc	x6,0x4	  x6=0x80008688
       32535000	      3252	80004690	be630313	addi	x6,x6,-1050	  x6:0x80008688  x6=0x8000826e
       32545000	      3253	80004694	e2f303a3	sb	x15,-473(x6)	  x6:0x8000826e x15:0x00000000 PA:0x80008095
       32555000	      3254	80004698	007630b3	sltu	x1,x12,x7	 x12:0x00000000  x7:0x80009f28  x1=0x00000001
       32565000	      3255	8000469c	4107d093	srai	x1,x15,0x10	 x15:0x00000000  x1=0x00000000
       32575000	      3256	800046a0	0da35803	lhu	x16,218(x6)	  x6:0x8000826e x16=0x00000000 PA:0x80008348
       32585000	      3257	800046a4	016311b3	sll	x3,x6,x22	  x6:0x8000826e x22:0x22000000  x3=0x8000826e
       32595000	      3258	800046a8	009cacb3	slt	x25,x25,x9	 x25:0x00000000  x9:0x00000000 x25=0x00000000
       32605000	      3259	800046ac	00000013	addi	x0,x0,0	  x0:0x00000000
       32615000	      3260	800046b0	21231d83	lh	x27,530(x6)	  x6:0x8000826e x27=0x00000000 PA:0x80008480
       32625000	      3261	800046b4	e9a31223	sh	x26,-380(x6)	  x6:0x8000826e x26:0x0579b5d8 PA:0x800080f2
       32635000	      3262	800046b8	f4930483	lb	x9,-183(x6)	  x6:0x8000826e  x9=0x00000000 PA:0x800081b7
       32645000	      3263	800046bc	15c31983	lh	x19,348(x6)	  x6:0x8000826e x19=0x00000000 PA:0x800083ca
       32655000	      3264	800046c0	40f55513	srai	x10,x10,0xf	 x10:0x00000000 x10=0x00000000
       32665000	      3265	800046c4	017e9cb3	sll	x25,x29,x23	 x29:0x475a92a9 x23:0x00100013 x25=0x95480000
       32675000	      3266	800046c8	0036f1b3	and	x3,x13,x3	 x13:0x00000000  x3:0x8000826e  x3=0x00000000
       32685000	      3267	800046cc	e1c31983	lh	x19,-484(x6)	  x6:0x8000826e x19=0x00000000 PA:0x8000808a
       32695000	      3268	800046d0	005b39b3	sltu	x19,x22,x5	 x22:0x22000000  x5:0xfffffff1 x19=0x00000001
       32705000	      3269	800046d4	c8c9cf93	xori	x31,x19,-884	 x19:0x00000001 x31=0xfffffc8d
       32715000	      3270	800046d8	51130d03	lb	x26,1297(x6)	  x6:0x8000826e x26=0x00000000 PA:0x8000877f
       32725000	      3271	800046dc	41985893	srai	x17,x16,0x19	 x16:0x00000000 x17=0x00000000
       32735000	      3272	800046e0	53631023	sh	x22,1312(x6)	  x6:0x8000826e x22:0x22000000 PA:0x8000878e
       32745000	      3273	800046e4	01b61c33	sll	x24,x12,x27	 x12:0x00000000 x27:0x00000000 x24=0x00000000
       32755000	      3274	800046e8	01b30ea3	sb	x27,29(x6)	  x6:0x8000826e x27:0x00000000 PA:0x8000828b
       32765000	      3275	800046ec	00ea18b3	sll	x17,x20,x14	 x20:0x00000000 x14:0x00000000 x17=0x00000000
       32775000	      3276	800046f0	016bfd33	and	x26,x23,x22	 x23:0x00100013 x22:0x22000000 x26=0x00000000
       32785000	      3277	800046f4	016c8b33	add	x22,x25,x22	 x25:0x95480000 x22:0x22000000 x22=0xb7480000
       32795000	      3278	800046f8	0070da93	srli	x21,x1,0x7	  x1:0x00000000 x21=0x00000000
       32805000	      3279	800046fc	2d835b83	lhu	x23,728(x6)	  x6:0x8000826e x23=0x00000000 PA:0x80008546
       32815000	      3280	80004700	87e7ca13	xori	x20,x15,-1922	 x15:0x00000000 x20=0xfffff87e
       32825000	      3281	80004704	e2d30423	sb	x13,-472(x6)	  x6:0x8000826e x13:0x00000000 PA:0x80008096
       32835000	      3282	80004708	0143f133	and	x2,x7,x20	  x7:0x80009f28 x20:0xfffff87e  x2=0x80009828
       32845000	      3283	8000470c	45be0b13	addi	x22,x28,1115	 x28:0x80009fc4 x22=0x8000a41f
       32855000	      3284	80004710	0000e1b3	or	x3,x1,x0	  x1:0x00000000  x0:0x00000000  x3=0x00000000
       32865000	      3285	80004714	4bc31983	lh	x19,1212(x6)	  x6:0x8000826e x19=0x00004530 PA:0x8000872a
       32875000	      3286	80004718	410b5ab3	sra	x21,x22,x16	 x22:0x8000a41f x16:0x00000000 x21=0x8000a41f
       32885000	      3287	8000471c	00a61bb3	sll	x23,x12,x10	 x12:0x00000000 x10:0x00000000 x23=0x00000000
       32895000	      3288	80004720	eb134e83	lbu	x29,-335(x6)	  x6:0x8000826e x29=0x00000000 PA:0x8000811f
       32905000	      3289	80004724	3f9ae413	ori	x8,x21,1017	 x21:0x8000a41f  x8=0x8000a7ff
       32915000	      3290	80004728	40ebdf33	sra	x30,x23,x14	 x23:0x00000000 x14:0x00000000 x30=0x00000000
       32925000	      3291	8000472c	017d9513	slli	x10,x27,0x17	 x27:0x00000000 x10=0x00000000
       32935000	      3292	80004730	00c1d113	srli	x2,x3,0xc	  x3:0x00000000  x2=0x00000000
       32945000	      3293	80004734	d6612a93	slti	x21,x2,-666	  x2:0x00000000 x21=0x00000000
       32955000	      3294	80004738	179305a3	sb	x25,363(x6)	  x6:0x8000826e x25:0x95480000 PA:0x800083d9
       32965000	      3295	8000473c	011f4a33	xor	x20,x30,x17	 x30:0x00000000 x17:0x00000000 x20=0x00000000
       32975000	      3296	80004740	02ad3293	sltiu	x5,x26,42	 x26:0x00000000  x5=0x00000001
       32985000	      3297	80004744	e1793497	auipc	x9,0xe1793	  x9=0x61797740
       32995000	      3298	80004748	0e25f513	andi	x10,x11,226	 x11:0x80007f60 x10=0x00000060
       33005000	      3299	8000474c	05811863	bne	x2,x24,8000479c	  x2:0x00000000 x24:0x00000000
       33015000	      3300	80004750	03fc1063	bne	x24,x31,80004770	 x24:0x00000000 x31:0xfffffc8d
       33025000	      3301	00000000	00000013	addi	x0,x0,0	  x0:0x00000000
       33035000	      3302	8000476c	00000013	addi	x0,x0,0	  x0:0x00000000
       33045000	      3303	80004770	6a56acb7	lui	x25,0x6a56a	 x25=0x6a56a000
       33055000	      3304	80004774	0059d233	srl	x4,x19,x5	 x19:0x00004530  x5:0x00000001  x4=0x00002298
       33065000	      3305	80004778	fcdb6897	auipc	x17,0xfcdb6	 x17=0x7cdba774
       33075000	      3306	8000477c	00815013	srli	x0,x2,0x8	  x2:0x00000000
       33085000	      3307	80004780	08a4d8b7	lui	x17,0x8a4d	 x17=0x08a4d000
       33095000	      3308	80004784	01654533	xor	x10,x10,x22	 x10:0x00000060 x22:0x8000a41f x10=0x8000a47f
       33105000	      3309	80004788	05234263	blt	x6,x18,800047cc	  x6:0x8000826e x18:0x475a92a9
       33115000	      3310	00000000	00000013	addi	x0,x0,0	  x0:0x00000000
       33125000	      3311	800047c8	00000013	addi	x0,x0,0	  x0:0x00000000
       33135000	      3312	800047cc	0169d9b3	srl	x19,x19,x22	 x19:0x00004530 x22:0x8000a41f x19=0x00000000
       33145000	      3313	800047d0	03326263	bltu	x4,x19,800047f4	  x4:0x00002298 x19:0x00000000
       33155000	      3314	800047d4	01605233	srl	x4,x0,x22	  x0:0x00000000 x22:0x8000a41f  x4=0x00000000
       33165000	      3315	800047d8	013f6a33	or	x20,x30,x19	 x30:0x00000000 x19:0x00000000 x20=0x00000000
       33175000	      3316	800047dc	002f8533	add	x10,x31,x2	 x31:0xfffffc8d  x2:0x00000000 x10=0xfffffc8d
       33185000	      3317	800047e0	0271ea63	bltu	x3,x7,80004814	  x3:0x00000000  x7:0x80009f28
       33195000	      3318	00000000	00000013	addi	x0,x0,0	  x0:0x00000000
       33205000	      3319	80004810	00000013	addi	x0,x0,0	  x0:0x00000000
       33215000	      3320	80004814	7b55a117	auipc	x2,0x7b55a	  x2=0xfb55e810
       33225000	      3321	80004818	00daebb3	or	x23,x21,x13	 x21:0x00000000 x13:0x00000000 x23=0x00000000
       33235000	      3322	8000481c	01fd39b3	sltu	x19,x26,x31	 x26:0x00000000 x31:0xfffffc8d x19=0x00000001
       33245000	      3323	80004820	0054cd33	xor	x26,x9,x5	  x9:0x61797740  x5:0x00000001 x26=0x61797741
       33255000	      3324	80004824	00000013	addi	x0,x0,0	  x0:0x00000000
       33265000	      3325	80004828	4136d293	srai	x5,x13,0x13	 x13:0x00000000  x5=0x00000000
       33275000	      3326	8000482c	0537c063	blt	x15,x19,8000486c	 x15:0x00000000 x19:0x00000001
       33285000	      3327	00000000	00000013	addi	x0,x0,0	  x0:0x00000000
       33295000	      3328	80004868	00000013	addi	x0,x0,0	  x0:0x00000000
       33305000	      3329	8000486c	00311d33	sll	x26,x2,x3	  x2:0xfb55e810  x3:0x00000000 x26=0xfb55e810
       33315000	      3330	80004870	a6f0c313	xori	x6,x1,-1425	  x1:0x00000000  x6=0xfffffa6f
       33325000	      3331	80004874	553efc13	andi	x24,x29,1363	 x29:0x00000000 x24=0x00000000
       33335000	      3332	80004878	40425613	srai	x12,x4,0x4	  x4:0x00000000 x12=0x00000000
       33345000	      3333	8000487c	41c45c93	srai	x25,x8,0x1c	  x8:0x8000a7ff x25=0xfffffff8
       33355000	      3334	80004880	027bd263	bge	x23,x7,800048a4	 x23:0x00000000  x7:0x80009f28
       33365000	      3335	00000000	00000013	addi	x0,x0,0	  x0:0x00000000
       33375000	      3336	800048a0	00000013	addi	x0,x0,0	  x0:0x00000000
       33385000	      3337	800048a4	000c7233	and	x4,x24,x0	 x24:0x00000000  x0:0x00000000  x4=0x00000000
       33395000	      3338	800048a8	006e6a63	bltu	x28,x6,800048bc	 x28:0x80009fc4  x6:0xfffffa6f
       33405000	      3339	00000000	00000013	addi	x0,x0,0	  x0:0x00000000
       33415000	      3340	800048b8	00000013	addi	x0,x0,0	  x0:0x00000000
       33425000	      3341	800048bc	7d25a993	slti	x19,x11,2002	 x11:0x80007f60 x19=0x00000001
       33435000	      3342	800048c0	00cf5213	srli	x4,x30,0xc	 x30:0x00000000  x4=0x00000000
       33445000	      3343	800048c4	01321a13	slli	x20,x4,0x13	  x4:0x00000000 x20=0x00000000
       33455000	      3344	800048c8	00c76db3	or	x27,x14,x12	 x14:0x00000000 x12:0x00000000 x27=0x00000000
       33465000	      3345	800048cc	0063db13	srli	x22,x7,0x6	  x7:0x80009f28 x22=0x0200027c
       33475000	      3346	800048d0	0507d863	bge	x15,x16,80004920	 x15:0x00000000 x16:0x00000000
       33485000	      3347	00000000	00000013	addi	x0,x0,0	  x0:0x00000000
       33495000	      3348	8000491c	00000013	addi	x0,x0,0	  x0:0x00000000
       33505000	      3349	80004920	04b07863	bgeu	x0,x11,80004970	  x0:0x00000000 x11:0x80007f60
       33515000	      3350	80004924	d699e513	ori	x10,x19,-663	 x19:0x00000001 x10=0xfffffd69
       33525000	      3351	80004928	e086c793	xori	x15,x13,-504	 x13:0x00000000 x15=0xfffffe08
       33535000	      3352	8000492c	009f9c63	bne	x31,x9,80004944	 x31:0xfffffc8d  x9:0x61797740
       33545000	      3353	00000000	00000013	addi	x0,x0,0	  x0:0x00000000
       33555000	      3354	80004940	00000013	addi	x0,x0,0	  x0:0x00000000
       33565000	      3355	80004944	0b952813	slti	x16,x10,185	 x10:0xfffffd69 x16=0x00000001
       33575000	      3356	80004948	011f14b3	sll	x9,x30,x17	 x30:0x00000000 x17:0x08a4d000  x9=0x00000000
       33585000	      3357	8000494c	202fef93	ori	x31,x31,514	 x31:0xfffffc8d x31=0xfffffe8f
       33595000	      3358	80004950	006122b3	slt	x5,x2,x6	  x2:0xfb55e810  x6:0xfffffa6f  x5=0x00000001
       33605000	      3359	80004954	005e5493	srli	x9,x28,0x5	 x28:0x80009fc4  x9=0x040004fe
       33615000	      3360	80004958	00d94b33	xor	x22,x18,x13	 x18:0x475a92a9 x13:0x00000000 x22=0x475a92a9
       33625000	      3361	8000495c	02fb6063	bltu	x22,x15,8000497c	 x22:0x475a92a9 x15:0xfffffe08
       33635000	      3362	00000000	00000013	addi	x0,x0,0	  x0:0x00000000
       33645000	      3363	80004978	00000013	addi	x0,x0,0	  x0:0x00000000
       33655000	      3364	8000497c	023b4263	blt	x22,x3,800049a0	 x22:0x475a92a9  x3:0x00000000
       33665000	      3365	80004980	0053b2b3	sltu	x5,x7,x5	  x7:0x80009f28  x5:0x00000001  x5=0x00000000
       33675000	      3366	80004984	3b468893	addi	x17,x13,948	 x13:0x00000000 x17=0x000003b4
       33685000	      3367	80004988	0081df13	srli	x30,x3,0x8	  x3:0x00000000 x30=0x00000000
       33695000	      3368	8000498c	00fc5993	srli	x19,x24,0xf	 x24:0x00000000 x19=0x00000000
       33705000	      3369	80004990	f0a16e93	ori	x29,x2,-246	  x2:0xfb55e810 x29=0xffffff1a
       33715000	      3370	80004994	00f43d33	sltu	x26,x8,x15	  x8:0x8000a7ff x15:0xfffffe08 x26=0x00000001
       33725000	      3371	80004998	016ee7b3	or	x15,x29,x22	 x29:0xffffff1a x22:0x475a92a9 x15=0xffffffbb
       33735000	      3372	8000499c	ca360993	addi	x19,x12,-861	 x12:0x00000000 x19=0xfffffca3
       33745000	      3373	800049a0	10427293	andi	x5,x4,260	  x4:0x00000000  x5=0x00000000
       33755000	      3374	800049a4	009c8633	add	x12,x25,x9	 x25:0xfffffff8  x9:0x040004fe x12=0x040004f6
       33765000	      3375	800049a8	414f8f33	sub	x30,x31,x20	 x31:0xfffffe8f x20:0x00000000 x30=0xfffffe8f
       33775000	      3376	800049ac	413456b3	sra	x13,x8,x19	  x8:0x8000a7ff x19:0xfffffca3 x13=0xf00014ff
       33785000	      3377	800049b0	01490663	beq	x18,x20,800049bc	 x18:0x475a92a9 x20:0x00000000
       33795000	      3378	800049b4	00a75113	srli	x2,x14,0xa	 x14:0x00000000  x2=0x00000000
       33805000	      3379	800049b8	f764b713	sltiu	x14,x9,-138	  x9:0x040004fe x14=0x00000001
       33815000	      3380	800049bc	0092de63	bge	x5,x9,800049d8	  x5:0x00000000  x9:0x040004fe
       33825000	      3381	800049c0	01379f93	slli	x31,x15,0x13	 x15:0xffffffbb x31=0xfdd80000
       33835000	      3382	800049c4	0057f033	and	x0,x15,x5	 x15:0xffffffbb  x5:0x00000000
       33845000	      3383	800049c8	02e8fa63	bgeu	x17,x14,800049fc	 x17:0x000003b4 x14:0x00000001
       33855000	      3384	00000000	00000013	addi	x0,x0,0	  x0:0x00000000
       33865000	      3385	800049f8	00000013	addi	x0,x0,0	  x0:0x00000000
       33875000	      3386	800049fc	3f280313	addi	x6,x16,1010	 x16:0x00000001  x6=0x000003f3
       33885000	      3387	80004a00	00004b17	auipc	x22,0x4	 x22=0x800089fc
       33895000	      3388	80004a04	20bb0b13	addi	x22,x22,523	 x22:0x800089fc x22=0x80008c07
       33905000	      3389	80004a08	00ab0f03	lb	x30,10(x22)	 x22:0x80008c07 x30=0x00000000 PA:0x80008c11
       33915000	      3390	80004a0c	ff0b4d83	lbu	x27,-16(x22)	 x22:0x80008c07 x27=0x00000000 PA:0x80008bf7
       33925000	      3391	80004a10	007b4883	lbu	x17,7(x22)	 x22:0x80008c07 x17=0x00000000 PA:0x80008c0e
       33935000	      3392	80004a14	0421a437	lui	x8,0x421a	  x8=0x0421a000
       33945000	      3393	80004a18	008b4f83	lbu	x31,8(x22)	 x22:0x80008c07 x31=0x00000000 PA:0x80008c0f
       33955000	      3394	80004a1c	ff7b0e23	sb	x23,-4(x22)	 x22:0x80008c07 x23:0x00000000 PA:0x80008c03
       33965000	      3395	80004a20	00000013	addi	x0,x0,0	  x0:0x00000000
       33975000	      3396	80004a24	ee542493	slti	x9,x8,-283	  x8:0x0421a000  x9=0x00000000
       33985000	      3397	80004a28	41515313	srai	x6,x2,0x15	  x2:0x00000000  x6=0x00000000
       33995000	      3398	80004a2c	ff8b4883	lbu	x17,-8(x22)	 x22:0x80008c07 x17=0x00000000 PA:0x80008bff
       34005000	      3399	80004a30	00db0603	lb	x12,13(x22)	 x22:0x80008c07 x12=0xffffffff PA:0x80008c14
       34015000	      3400	80004a34	014b0423	sb	x20,8(x22)	 x22:0x80008c07 x20:0x00000000 PA:0x80008c0f
       34025000	      3401	80004a38	00a601b3	add	x3,x12,x10	 x12:0xffffffff x10:0xfffffd69  x3=0xfffffd68
       34035000	      3402	80004a3c	0099b533	sltu	x10,x19,x9	 x19:0xfffffca3  x9:0x00000000 x10=0x00000000
       34045000	      3403	80004a40	011b12a3	sh	x17,5(x22)	 x22:0x80008c07 x17:0x00000000 PA:0x80008c0c
       34055000	      3404	80004a44	db1dff13	andi	x30,x27,-591	 x27:0x00000000 x30=0x00000000
       34065000	      3405	80004a48	01e5d733	srl	x14,x11,x30	 x11:0x80007f60 x30:0x00000000 x14=0x80007f60
       34075000	      3406	80004a4c	01b76a33	or	x20,x14,x27	 x14:0x80007f60 x27:0x00000000 x20=0x80007f60
       34085000	      3407	80004a50	017ed533	srl	x10,x29,x23	 x29:0xffffff1a x23:0x00000000 x10=0xffffff1a
       34095000	      3408	80004a54	01652833	slt	x16,x10,x22	 x10:0xffffff1a x22:0x80008c07 x16=0x00000000
       34105000	      3409	80004a58	010b4203	lbu	x4,16(x22)	 x22:0x80008c07  x4=0x000000f0 PA:0x80008c17
       34115000	      3410	80004a5c	01f5b233	sltu	x4,x11,x31	 x11:0x80007f60 x31:0x00000000  x4=0x00000000
       34125000	      3411	80004a60	00db26a3	sw	x13,13(x22)	 x22:0x80008c07 x13:0xf00014ff PA:0x80008c14
       34135000	      3412	80004a64	00000013	addi	x0,x0,0	  x0:0x00000000
       34145000	      3413	80004a68	ff5b1403	lh	x8,-11(x22)	 x22:0x80008c07  x8=0x00000000 PA:0x80008bfc
       34155000	      3414	80004a6c	404a5f93	srai	x31,x20,0x4	 x20:0x80007f60 x31=0xf80007f6
       34165000	      3415	80004a70	407a5b93	srai	x23,x20,0x7	 x20:0x80007f60 x23=0xff0000fe
       34175000	      3416	80004a74	4044dcb3	sra	x25,x9,x4	  x9:0x00000000  x4:0x00000000 x25=0x00000000
       34185000	      3417	80004a78	00b6d263	bge	x13,x11,80004a7c	 x13:0xf00014ff x11:0x80007f60
       34195000	      3418	00000000	00000013	addi	x0,x0,0	  x0:0x00000000
       34205000	      3419	80004a78	00000013	addi	x0,x0,0	  x0:0x00000000
       34215000	      3420	80004a7c	7d604a37	lui	x20,0x7d604	 x20=0x7d604000
       34225000	      3421	80004a80	05ccd663	bge	x25,x28,80004acc	 x25:0x00000000 x28:0x80009fc4
       34235000	      3422	00000000	00000013	addi	x0,x0,0	  x0:0x00000000
       34245000	      3423	80004ac8	00000013	addi	x0,x0,0	  x0:0x00000000
       34255000	      3424	80004acc	04cdd263	bge	x27,x12,80004b10	 x27:0x00000000 x12:0xffffffff
       34265000	      3425	00000000	00000013	addi	x0,x0,0	  x0:0x00000000
       34275000	      3426	80004b0c	00000013	addi	x0,x0,0	  x0:0x00000000
       34285000	      3427	80004b10	41cc87b3	sub	x15,x25,x28	 x25:0x00000000 x28:0x80009fc4 x15=0x7fff603c
       34295000	      3428	80004b14	02ed8263	beq	x27,x14,80004b38	 x27:0x00000000 x14:0x80007f60
       34305000	      3429	80004b18	00ab2333	slt	x6,x22,x10	 x22:0x80008c07 x10:0xffffff1a  x6=0x00000001
       34315000	      3430	80004b1c	40960033	sub	x0,x12,x9	 x12:0xffffffff  x9:0x00000000
       34325000	      3431	80004b20	00371d33	sll	x26,x14,x3	 x14:0x80007f60  x3:0xfffffd68 x26=0x007f6000
       34335000	      3432	80004b24	04104263	blt	x0,x1,80004b68	  x0:0x00000000  x1:0x00000000
       34345000	      3433	80004b28	0076adb3	slt	x27,x13,x7	 x13:0xf00014ff  x7:0x80009f28 x27=0x00000000
       34355000	      3434	80004b2c	00b29a13	slli	x20,x5,0xb	  x5:0x00000000 x20=0x00000000
       34365000	      3435	80004b30	001c99b3	sll	x19,x25,x1	 x25:0x00000000  x1:0x00000000 x19=0x00000000
       34375000	      3436	80004b34	018fe2b3	or	x5,x31,x24	 x31:0xf80007f6 x24:0x00000000  x5=0xf80007f6
       34385000	      3437	80004b38	01bc8db3	add	x27,x25,x27	 x25:0x00000000 x27:0x00000000 x27=0x00000000
       34395000	      3438	80004b3c	9e97a693	slti	x13,x15,-1559	 x15:0x7fff603c x13=0x00000000
       34405000	      3439	80004b40	41a15a13	srai	x20,x2,0x1a	  x2:0x00000000 x20=0x00000000
       34415000	      3440	80004b44	00729093	slli	x1,x5,0x7	  x5:0xf80007f6  x1=0x0003fb00
       34425000	      3441	80004b48	00000013	addi	x0,x0,0	  x0:0x00000000
       34435000	      3442	80004b4c	00c75fb3	srl	x31,x14,x12	 x14:0x80007f60 x12:0xffffffff x31=0x00000001
       34445000	      3443	80004b50	00000013	addi	x0,x0,0	  x0:0x00000000
       34455000	      3444	80004b54	05a7f463	bgeu	x15,x26,80004b9c	 x15:0x7fff603c x26:0x007f6000
       34465000	      3445	00000000	00000013	addi	x0,x0,0	  x0:0x00000000
       34475000	      3446	80004b98	00000013	addi	x0,x0,0	  x0:0x00000000
       34485000	      3447	80004b9c	57ddfe97	auipc	x29,0x57ddf	 x29=0xd7de3b98
       34495000	      3448	80004ba0	000a1c63	bne	x20,x0,80004bb8	 x20:0x00000000  x0:0x00000000
       34505000	      3449	80004ba4	026d5263	bge	x26,x6,80004bc8	 x26:0x007f6000  x6:0x00000001
       34515000	      3450	00000000	00000013	addi	x0,x0,0	  x0:0x00000000
       34525000	      3451	80004bc4	00000013	addi	x0,x0,0	  x0:0x00000000
       34535000	      3452	80004bc8	01ea9893	slli	x17,x21,0x1e	 x21:0x00000000 x17=0x00000000
       34545000	      3453	80004bcc	9c3a0a13	addi	x20,x20,-1597	 x20:0x00000000 x20=0xfffff9c3
       34555000	      3454	80004bd0	00951fb3	sll	x31,x10,x9	 x10:0xffffff1a  x9:0x00000000 x31=0xffffff1a
       34565000	      3455	80004bd4	05470663	beq	x14,x20,80004c20	 x14:0x80007f60 x20:0xfffff9c3
       34575000	      3456	80004bd8	0165f033	and	x0,x11,x22	 x11:0x80007f60 x22:0x80008c07
       34585000	      3457	80004bdc	00000013	addi	x0,x0,0	  x0:0x00000000
       34595000	      3458	80004be0	41c75893	srai	x17,x14,0x1c	 x14:0x80007f60 x17=0xfffffff8
       34605000	      3459	80004be4	0112f263	bgeu	x5,x17,80004be8	  x5:0xf80007f6 x17:0xfffffff8
       34615000	      3460	80004be8	4048d713	srai	x14,x17,0x4	 x17:0xfffffff8 x14=0xffffffff
       34625000	      3461	80004bec	d517cd13	xori	x26,x15,-687	 x15:0x7fff603c x26=0x80009d6d
       34635000	      3462	80004bf0	00b821b3	slt	x3,x16,x11	 x16:0x00000000 x11:0x80007f60  x3=0x00000000
       34645000	      3463	80004bf4	01cd69b3	or	x19,x26,x28	 x26:0x80009d6d x28:0x80009fc4 x19=0x80009fed
       34655000	      3464	80004bf8	01b8e633	or	x12,x17,x27	 x17:0xfffffff8 x27:0x00000000 x12=0xfffffff8
       34665000	      3465	80004bfc	05df4863	blt	x30,x29,80004c4c	 x30:0x00000000 x29:0xd7de3b98
       34675000	      3466	80004c00	9befa693	slti	x13,x31,-1602	 x31:0xffffff1a x13=0x00000000
       34685000	      3467	80004c04	01dbd033	srl	x0,x23,x29	 x23:0xff0000fe x29:0xd7de3b98
       34695000	      3468	80004c08	01a31d13	slli	x26,x6,0x1a	  x6:0x00000001 x26=0x04000000
       34705000	      3469	80004c0c	015fcc33	xor	x24,x31,x21	 x31:0xffffff1a x21:0x00000000 x24=0xffffff1a
       34715000	      3470	80004c10	95164613	xori	x12,x12,-1711	 x12:0xfffffff8 x12=0x000006a9
       34725000	      3471	80004c14	418a8db3	sub	x27,x21,x24	 x21:0x00000000 x24:0xffffff1a x27=0x000000e6
       34735000	      3472	80004c18	01c876b3	and	x13,x16,x28	 x16:0x00000000 x28:0x80009fc4 x13=0x00000000
       34745000	      3473	80004c1c	04114063	blt	x2,x1,80004c5c	  x2:0x00000000  x1:0x0003fb00
       34755000	      3474	00000000	00000013	addi	x0,x0,0	  x0:0x00000000
       34765000	      3475	80004c58	00000013	addi	x0,x0,0	  x0:0x00000000
       34775000	      3476	80004c5c	81d9c513	xori	x10,x19,-2019	 x19:0x80009fed x10=0x7fff67f0
       34785000	      3477	80004c60	22e13593	sltiu	x11,x2,558	  x2:0x00000000 x11=0x00000001
       34795000	      3478	80004c64	dc780a97	auipc	x21,0xdc780	 x21=0x5c784c60
       34805000	      3479	80004c68	01bd3db3	sltu	x27,x26,x27	 x26:0x04000000 x27:0x000000e6 x27=0x00000000
       34815000	      3480	80004c6c	40f1d233	sra	x4,x3,x15	  x3:0x00000000 x15:0x7fff603c  x4=0x00000000
       34825000	      3481	80004c70	0157dd13	srli	x26,x15,0x15	 x15:0x7fff603c x26=0x000003ff
       34835000	      3482	80004c74	417657b3	sra	x15,x12,x23	 x12:0x000006a9 x23:0xff0000fe x15=0x00000000
       34845000	      3483	80004c78	4127d093	srai	x1,x15,0x12	 x15:0x00000000  x1=0x00000000
       34855000	      3484	80004c7c	01044663	blt	x8,x16,80004c88	  x8:0x00000000 x16:0x00000000
       34865000	      3485	80004c80	80640513	addi	x10,x8,-2042	  x8:0x00000000 x10=0xfffff806
       34875000	      3486	80004c84	013ee2b3	or	x5,x29,x19	 x29:0xd7de3b98 x19:0x80009fed  x5=0xd7debffd
       34885000	      3487	80004c88	00367ab3	and	x21,x12,x3	 x12:0x000006a9  x3:0x00000000 x21=0x00000000
       34895000	      3488	80004c8c	5c53fc17	auipc	x24,0x5c53f	 x24=0xdc543c88
       34905000	      3489	80004c90	03f19463	bne	x3,x31,80004cb8	  x3:0x00000000 x31:0xffffff1a
       34915000	      3490	00000000	00000013	addi	x0,x0,0	  x0:0x00000000
       34925000	      3491	80004cb4	00000013	addi	x0,x0,0	  x0:0x00000000
       34935000	      3492	80004cb8	009b4a63	blt	x22,x9,80004ccc	 x22:0x80008c07  x9:0x00000000
       34945000	      3493	00000000	00000013	addi	x0,x0,0	  x0:0x00000000
       34955000	      3494	80004cc8	00000013	addi	x0,x0,0	  x0:0x00000000
       34965000	      3495	80004ccc	00000013	addi	x0,x0,0	  x0:0x00000000
       34975000	      3496	80004cd0	a65336b7	lui	x13,0xa6533	 x13=0xa6533000
       34985000	      3497	80004cd4	009aec63	bltu	x21,x9,80004cec	 x21:0x00000000  x9:0x00000000
       34995000	      3498	80004cd8	00ef09b3	add	x19,x30,x14	 x30:0x00000000 x14:0xffffffff x19=0xffffffff
       35005000	      3499	80004cdc	00e0e9b3	or	x19,x1,x14	  x1:0x00000000 x14:0xffffffff x19=0xffffffff
       35015000	      3500	80004ce0	008930b3	sltu	x1,x18,x8	 x18:0x475a92a9  x8:0x00000000  x1=0x00000000
       35025000	      3501	80004ce4	00000013	addi	x0,x0,0	  x0:0x00000000
       35035000	      3502	80004ce8	0b315c63	bge	x2,x19,80004da0	  x2:0x00000000 x19:0xffffffff
       35045000	      3503	00000000	00000013	addi	x0,x0,0	  x0:0x00000000
       35055000	      3504	80004d9c	00000013	addi	x0,x0,0	  x0:0x00000000
       35065000	      3505	80004da0	e5814617	auipc	x12,0xe5814	 x12=0x65818d9c
       35075000	      3506	80004da4	2aa4f493	andi	x9,x9,682	  x9:0x00000000  x9=0x00000000
       35085000	      3507	80004da8	018fb433	sltu	x8,x31,x24	 x31:0xffffff1a x24:0xdc543c88  x8=0x00000000
       35095000	      3508	80004dac	9bf72513	slti	x10,x14,-1601	 x14:0xffffffff x10=0x00000000
       35105000	      3509	80004db0	02407263	bgeu	x0,x4,80004dd4	  x0:0x00000000  x4:0x00000000
       35115000	      3510	00000000	00000013	addi	x0,x0,0	  x0:0x00000000
       35125000	      3511	80004dd0	00000013	addi	x0,x0,0	  x0:0x00000000
       35135000	      3512	80004dd4	40db5f33	sra	x30,x22,x13	 x22:0x80008c07 x13:0xa6533000 x30=0x80008c07
       35145000	      3513	80004dd8	01aee133	or	x2,x29,x26	 x29:0xd7de3b98 x26:0x000003ff  x2=0xd7de3bff
       35155000	      3514	80004ddc	02b34263	blt	x6,x11,80004e00	  x6:0x00000001 x11:0x00000001
       35165000	      3515	80004de0	00161f33	sll	x30,x12,x1	 x12:0x65818d9c  x1:0x00000000 x30=0x65818d9c
       35175000	      3516	80004de4	00b8a133	slt	x2,x17,x11	 x17:0xfffffff8 x11:0x00000001  x2=0x00000001
       35185000	      3517	80004de8	f8d387b7	lui	x15,0xf8d38	 x15=0xf8d38000
       35195000	      3518	80004dec	002d0033	add	x0,x26,x2	 x26:0x000003ff  x2:0x00000001
       35205000	      3519	80004df0	015d8263	beq	x27,x21,80004df4	 x27:0x00000000 x21:0x00000000
       35215000	      3520	00000000	00000013	addi	x0,x0,0	  x0:0x00000000
       35225000	      3521	80004df0	00000013	addi	x0,x0,0	  x0:0x00000000
       35235000	      3522	80004df4	00000013	addi	x0,x0,0	  x0:0x00000000
       35245000	      3523	80004df8	401ed1b3	sra	x3,x29,x1	 x29:0xd7de3b98  x1:0x00000000  x3=0xd7de3b98
       35255000	      3524	80004dfc	010d5263	bge	x26,x16,80004e00	 x26:0x000003ff x16:0x00000000
       35265000	      3525	00000000	00000013	addi	x0,x0,0	  x0:0x00000000
       35275000	      3526	80004dfc	00000013	addi	x0,x0,0	  x0:0x00000000
       35285000	      3527	80004e00	009d0fb3	add	x31,x26,x9	 x26:0x000003ff  x9:0x00000000 x31=0x000003ff
       35295000	      3528	80004e04	4094d4b3	sra	x9,x9,x9	  x9:0x00000000  x9:0x00000000  x9=0x00000000
       35305000	      3529	80004e08	041bd863	bge	x23,x1,80004e58	 x23:0xff0000fe  x1:0x00000000
       35315000	      3530	80004e0c	04085263	bge	x16,x0,80004e50	 x16:0x00000000  x0:0x00000000
       35325000	      3531	00000000	00000013	addi	x0,x0,0	  x0:0x00000000
       35335000	      3532	80004e4c	00000013	addi	x0,x0,0	  x0:0x00000000
       35345000	      3533	80004e50	95780413	addi	x8,x16,-1705	 x16:0x00000000  x8=0xfffff957
       35355000	      3534	80004e54	00529c13	slli	x24,x5,0x5	  x5:0xd7debffd x24=0xfbd7ffa0
       35365000	      3535	80004e58	26afda97	auipc	x21,0x26afd	 x21=0xa6b01e54
       35375000	      3536	80004e5c	014736b3	sltu	x13,x14,x20	 x14:0xffffffff x20:0xfffff9c3 x13=0x00000000
       35385000	      3537	80004e60	05abf863	bgeu	x23,x26,80004eb0	 x23:0xff0000fe x26:0x000003ff
       35395000	      3538	00000000	00000013	addi	x0,x0,0	  x0:0x00000000
       35405000	      3539	80004eac	00000013	addi	x0,x0,0	  x0:0x00000000
       35415000	      3540	80004eb0	01534333	xor	x6,x6,x21	  x6:0x00000001 x21:0xa6b01e54  x6=0xa6b01e55
       35425000	      3541	80004eb4	9fa34d97	auipc	x27,0x9fa34	 x27=0x1fa38eb0
       35435000	      3542	80004eb8	01ebdf33	srl	x30,x23,x30	 x23:0xff0000fe x30:0x65818d9c x30=0x0000000f
       35445000	      3543	80004ebc	009cd1b3	srl	x3,x25,x9	 x25:0x00000000  x9:0x00000000  x3=0x00000000
       35455000	      3544	80004ec0	53ad6c13	ori	x24,x26,1338	 x26:0x000003ff x24=0x000007ff
       35465000	      3545	80004ec4	f3126213	ori	x4,x4,-207	  x4:0x00000000  x4=0xffffff31
       35475000	      3546	80004ec8	01c01093	slli	x1,x0,0x1c	  x0:0x00000000  x1=0x00000000
       35485000	      3547	80004ecc	0413d663	bge	x7,x1,80004f18	  x7:0x80009f28  x1:0x00000000
       35495000	      3548	80004ed0	0242c463	blt	x5,x4,80004ef8	  x5:0xd7debffd  x4:0xffffff31
       35505000	      3549	00000000	00000013	addi	x0,x0,0	  x0:0x00000000
       35515000	      3550	80004ef4	00000013	addi	x0,x0,0	  x0:0x00000000
       35525000	      3551	80004ef8	0055a6b3	slt	x13,x11,x5	 x11:0x00000001  x5:0xd7debffd x13=0x00000000
       35535000	      3552	80004efc	f81ba013	slti	x0,x23,-127	 x23:0xff0000fe
       35545000	      3553	80004f00	939f8213	addi	x4,x31,-1735	 x31:0x000003ff  x4=0xfffffd38
       35555000	      3554	80004f04	01ffe833	or	x16,x31,x31	 x31:0x000003ff x31:0x000003ff x16=0x000003ff
       35565000	      3555	80004f08	0f01b013	sltiu	x0,x3,240	  x3:0x00000000
       35575000	      3556	80004f0c	044c8463	beq	x25,x4,80004f54	 x25:0x00000000  x4:0xfffffd38
       35585000	      3557	80004f10	01f99633	sll	x12,x19,x31	 x19:0xffffffff x31:0x000003ff x12=0x80000000
       35595000	      3558	80004f14	00811d13	slli	x26,x2,0x8	  x2:0x00000001 x26=0x00000100
       35605000	      3559	80004f18	0016bdb3	sltu	x27,x13,x1	 x13:0x00000000  x1:0x00000000 x27=0x00000000
       35615000	      3560	80004f1c	00a53db3	sltu	x27,x10,x10	 x10:0x00000000 x10:0x00000000 x27=0x00000000
       35625000	      3561	80004f20	011f7c63	bgeu	x30,x17,80004f38	 x30:0x0000000f x17:0xfffffff8
       35635000	      3562	80004f24	01846fb3	or	x31,x8,x24	  x8:0xfffff957 x24:0x000007ff x31=0xffffffff
       35645000	      3563	80004f28	01ff24b3	slt	x9,x30,x31	 x30:0x0000000f x31:0xffffffff  x9=0x00000000
       35655000	      3564	80004f2c	009d0d33	add	x26,x26,x9	 x26:0x00000100  x9:0x00000000 x26=0x00000100
       35665000	      3565	80004f30	008f7c63	bgeu	x30,x8,80004f48	 x30:0x0000000f  x8:0xfffff957
       35675000	      3566	80004f34	407987b3	sub	x15,x19,x7	 x19:0xffffffff  x7:0x80009f28 x15=0x7fff60d7
       35685000	      3567	80004f38	41c7d533	sra	x10,x15,x28	 x15:0x7fff60d7 x28:0x80009fc4 x10=0x07fff60d
       35695000	      3568	80004f3c	02f74063	blt	x14,x15,80004f5c	 x14:0xffffffff x15:0x7fff60d7
       35705000	      3569	00000000	00000013	addi	x0,x0,0	  x0:0x00000000
       35715000	      3570	80004f58	00000013	addi	x0,x0,0	  x0:0x00000000
       35725000	      3571	80004f5c	004a44b3	xor	x9,x20,x4	 x20:0xfffff9c3  x4:0xfffffd38  x9=0x000004fb
       35735000	      3572	80004f60	01584f33	xor	x30,x16,x21	 x16:0x000003ff x21:0xa6b01e54 x30=0xa6b01dab
       35745000	      3573	80004f64	047d0063	beq	x26,x7,80004fa4	 x26:0x00000100  x7:0x80009f28
       35755000	      3574	80004f68	00d5e033	or	x0,x11,x13	 x11:0x00000001 x13:0x00000000
       35765000	      3575	80004f6c	010f7433	and	x8,x30,x16	 x30:0xa6b01dab x16:0x000003ff  x8=0x000001ab
       35775000	      3576	80004f70	fca74497	auipc	x9,0xfca74	  x9=0x7ca78f6c
       35785000	      3577	80004f74	e86ea993	slti	x19,x29,-378	 x29:0xd7de3b98 x19=0x00000001
       35795000	      3578	80004f78	002c9bb3	sll	x23,x25,x2	 x25:0x00000000  x2:0x00000001 x23=0x00000000
       35805000	      3579	80004f7c	406c09b3	sub	x19,x24,x6	 x24:0x000007ff  x6:0xa6b01e55 x19=0x594fe9aa
       35815000	      3580	80004f80	003c6333	or	x6,x24,x3	 x24:0x000007ff  x3:0x00000000  x6=0x000007ff
       35825000	      3581	80004f84	40087593	andi	x11,x16,1024	 x16:0x000003ff x11=0x00000000
       35835000	      3582	80004f88	003dd493	srli	x9,x27,0x3	 x27:0x00000000  x9=0x00000000
       35845000	      3583	80004f8c	01069113	slli	x2,x13,0x10	 x13:0x00000000  x2=0x00000000
       35855000	      3584	80004f90	0044fc33	and	x24,x9,x4	  x9:0x00000000  x4:0xfffffd38 x24=0x00000000
       35865000	      3585	80004f94	013c1993	slli	x19,x24,0x13	 x24:0x00000000 x19=0x00000000
       35875000	      3586	80004f98	01b16eb3	or	x29,x2,x27	  x2:0x00000000 x27:0x00000000 x29=0x00000000
       35885000	      3587	80004f9c	40c7dc33	sra	x24,x15,x12	 x15:0x7fff60d7 x12:0x80000000 x24=0x7fff60d7
       35895000	      3588	80004fa0	2cf8b037	lui	x0,0x2cf8b	
       35905000	      3589	80004fa4	af66e993	ori	x19,x13,-1290	 x13:0x00000000 x19=0xfffffaf6
       35915000	      3590	80004fa8	01485533	srl	x10,x16,x20	 x16:0x000003ff x20:0xfffff9c3 x10=0x0000007f
       35925000	      3591	80004fac	e1c7e113	ori	x2,x15,-484	 x15:0x7fff60d7  x2=0xfffffedf
       35935000	      3592	80004fb0	00002833	slt	x16,x0,x0	  x0:0x00000000  x0:0x00000000 x16=0x00000000
       35945000	      3593	80004fb4	41b3d9b3	sra	x19,x7,x27	  x7:0x80009f28 x27:0x00000000 x19=0x80009f28
       35955000	      3594	80004fb8	95bbcc13	xori	x24,x23,-1701	 x23:0x00000000 x24=0xfffff95b
       35965000	      3595	80004fbc	44546897	auipc	x17,0x44546	 x17=0xc454afb8
       35975000	      3596	80004fc0	8a948213	addi	x4,x9,-1879	  x9:0x00000000  x4=0xfffff8a9
       35985000	      3597	80004fc4	1352b413	sltiu	x8,x5,309	  x5:0xd7debffd  x8=0x00000000
       35995000	      3598	80004fc8	00585663	bge	x16,x5,80004fd4	 x16:0x00000000  x5:0xd7debffd
       36005000	      3599	00000000	00000013	addi	x0,x0,0	  x0:0x00000000
       36015000	      3600	80004fd0	00000013	addi	x0,x0,0	  x0:0x00000000
       36025000	      3601	80004fd4	407c56b3	sra	x13,x24,x7	 x24:0xfffff95b  x7:0x80009f28 x13=0xfffffff9
       36035000	      3602	80004fd8	000d64b3	or	x9,x26,x0	 x26:0x00000100  x0:0x00000000  x9=0x00000100
       36045000	      3603	80004fdc	0167fd33	and	x26,x15,x22	 x15:0x7fff60d7 x22:0x80008c07 x26=0x00000007
       36055000	      3604	80004fe0	a3788313	addi	x6,x17,-1481	 x17:0xc454afb8  x6=0xc454a9ef
       36065000	      3605	80004fe4	0041df93	srli	x31,x3,0x4	  x3:0x00000000 x31=0x00000000
       36075000	      3606	80004fe8	01d73833	sltu	x16,x14,x29	 x14:0xffffffff x29:0x00000000 x16=0x00000000
       36085000	      3607	80004fec	031a1863	bne	x20,x17,8000501c	 x20:0xfffff9c3 x17:0xc454afb8
       36095000	      3608	00000000	00000013	addi	x0,x0,0	  x0:0x00000000
       36105000	      3609	80005018	00000013	addi	x0,x0,0	  x0:0x00000000
       36115000	      3610	8000501c	01447333	and	x6,x8,x20	  x8:0x00000000 x20:0xfffff9c3  x6=0x00000000
       36125000	      3611	80005020	01897b33	and	x22,x18,x24	 x18:0x475a92a9 x24:0xfffff95b x22=0x475a9009
       36135000	      3612	80005024	37093a93	sltiu	x21,x18,880	 x18:0x475a92a9 x21=0x00000000
       36145000	      3613	80005028	40f3d733	sra	x14,x7,x15	  x7:0x80009f28 x15:0x7fff60d7 x14=0xffffff00
       36155000	      3614	8000502c	006890b3	sll	x1,x17,x6	 x17:0xc454afb8  x6:0x00000000  x1=0xc454afb8
       36165000	      3615	80005030	01e09193	slli	x3,x1,0x1e	  x1:0xc454afb8  x3=0x00000000
       36175000	      3616	80005034	0323c663	blt	x7,x18,80005060	  x7:0x80009f28 x18:0x475a92a9
       36185000	      3617	00000000	00000013	addi	x0,x0,0	  x0:0x00000000
       36195000	      3618	8000505c	00000013	addi	x0,x0,0	  x0:0x00000000
       36205000	      3619	80005060	d3a3c013	xori	x0,x7,-710	  x7:0x80009f28
       36215000	      3620	80005064	0102b7b3	sltu	x15,x5,x16	  x5:0xd7debffd x16:0x00000000 x15=0x00000000
       36225000	      3621	80005068	2b58bf13	sltiu	x30,x17,693	 x17:0xc454afb8 x30=0x00000000
       36235000	      3622	8000506c	aeb0f517	auipc	x10,0xaeb0f	 x10=0x2eb14068
       36245000	      3623	80005070	003e7433	and	x8,x28,x3	 x28:0x80009fc4  x3:0x00000000  x8=0x00000000
       36255000	      3624	80005074	0114d733	srl	x14,x9,x17	  x9:0x00000100 x17:0xc454afb8 x14=0x00000000
       36265000	      3625	80005078	fc35f793	andi	x15,x11,-61	 x11:0x00000000 x15=0x00000000
       36275000	      3626	8000507c	b159e417	auipc	x8,0xb159e	  x8=0x315a3078
       36285000	      3627	80005080	00df57b3	srl	x15,x30,x13	 x30:0x00000000 x13:0xfffffff9 x15=0x00000000
       36295000	      3628	80005084	01d28c33	add	x24,x5,x29	  x5:0xd7debffd x29:0x00000000 x24=0xd7debffd
       36305000	      3629	80005088	ea457517	auipc	x10,0xea457	 x10=0x6a45c084
       36315000	      3630	8000508c	018d0b33	add	x22,x26,x24	 x26:0x00000007 x24:0xd7debffd x22=0xd7dec004
       36325000	      3631	80005090	0127ecb3	or	x25,x15,x18	 x15:0x00000000 x18:0x475a92a9 x25=0x475a92a9
       36335000	      3632	80005094	01a01593	slli	x11,x0,0x1a	  x0:0x00000000 x11=0x00000000
       36345000	      3633	80005098	019dd213	srli	x4,x27,0x19	 x27:0x00000000  x4=0x00000000
       36355000	      3634	8000509c	f15f3793	sltiu	x15,x30,-235	 x30:0x00000000 x15=0x00000001
       36365000	      3635	800050a0	48937e97	auipc	x29,0x48937	 x29=0xc893c09c
       36375000	      3636	800050a4	2068a093	slti	x1,x17,518	 x17:0xc454afb8  x1=0x00000001
       36385000	      3637	800050a8	4ec3e293	ori	x5,x7,1260	  x7:0x80009f28  x5=0x80009fec
       36395000	      3638	800050ac	e3a36993	ori	x19,x6,-454	  x6:0x00000000 x19=0xfffffe3a
       36405000	      3639	800050b0	40f782b3	sub	x5,x15,x15	 x15:0x00000001 x15:0x00000001  x5=0x00000000
       36415000	      3640	800050b4	09958b93	addi	x23,x11,153	 x11:0x00000000 x23=0x00000099
       36425000	      3641	800050b8	d9438813	addi	x16,x7,-620	  x7:0x80009f28 x16=0x80009cbc
       36435000	      3642	800050bc	03976263	bltu	x14,x25,800050e0	 x14:0x00000000 x25:0x475a92a9
       36445000	      3643	00000000	00000013	addi	x0,x0,0	  x0:0x00000000
       36455000	      3644	800050dc	00000013	addi	x0,x0,0	  x0:0x00000000
       36465000	      3645	800050e0	bc69f213	andi	x4,x19,-1082	 x19:0xfffffe3a  x4=0xfffffa02
       36475000	      3646	800050e4	00000013	addi	x0,x0,0	  x0:0x00000000
       36485000	      3647	800050e8	47ef0c93	addi	x25,x30,1150	 x30:0x00000000 x25=0x0000047e
       36495000	      3648	800050ec	00148ab3	add	x21,x9,x1	  x9:0x00000100  x1:0x00000001 x21=0x00000101
       36505000	      3649	800050f0	401d87b3	sub	x15,x27,x1	 x27:0x00000000  x1:0x00000001 x15=0xffffffff
       36515000	      3650	800050f4	0169cc63	blt	x19,x22,8000510c	 x19:0xfffffe3a x22:0xd7dec004
       36525000	      3651	800050f8	41a85fb3	sra	x31,x16,x26	 x16:0x80009cbc x26:0x00000007 x31=0xff000139
       36535000	      3652	800050fc	01d75993	srli	x19,x14,0x1d	 x14:0x00000000 x19=0x00000000
       36545000	      3653	80005100	01030663	beq	x6,x16,8000510c	  x6:0x00000000 x16:0x80009cbc
       36555000	      3654	80005104	00bb5c33	srl	x24,x22,x11	 x22:0xd7dec004 x11:0x00000000 x24=0xd7dec004
       36565000	      3655	80005108	007b96b3	sll	x13,x23,x7	 x23:0x00000099  x7:0x80009f28 x13=0x00009900
       36575000	      3656	8000510c	011bd813	srli	x16,x23,0x11	 x23:0x00000099 x16=0x00000000
       36585000	      3657	80005110	3d490313	addi	x6,x18,980	 x18:0x475a92a9  x6=0x475a967d
       36595000	      3658	80005114	011fe9b3	or	x19,x31,x17	 x31:0xff000139 x17:0xc454afb8 x19=0xff54afb9
       36605000	      3659	80005118	f2862613	slti	x12,x12,-216	 x12:0x80000000 x12=0x00000001
       36615000	      3660	8000511c	410f5b13	srai	x22,x30,0x10	 x30:0x00000000 x22=0x00000000
       36625000	      3661	80005120	fd656837	lui	x16,0xfd656	 x16=0xfd656000
       36635000	      3662	80005124	9b093b93	sltiu	x23,x18,-1616	 x18:0x475a92a9 x23=0x00000001
       36645000	      3663	80005128	415a5c13	srai	x24,x20,0x15	 x20:0xfffff9c3 x24=0xffffffff
       36655000	      3664	8000512c	07c24b93	xori	x23,x4,124	  x4:0xfffffa02 x23=0xfffffa7e
       36665000	      3665	80005130	41a608b3	sub	x17,x12,x26	 x12:0x00000001 x26:0x00000007 x17=0xfffffffa
       36675000	      3666	80005134	7bcb6097	auipc	x1,0x7bcb6	  x1=0xfbcbb130
       36685000	      3667	80005138	01c4adb3	slt	x27,x9,x28	  x9:0x00000100 x28:0x80009fc4 x27=0x00000000
       36695000	      3668	8000513c	727fbf13	sltiu	x30,x31,1831	 x31:0xff000139 x30=0x00000000
       36705000	      3669	80005140	7a4d6bb7	lui	x23,0x7a4d6	 x23=0x7a4d6000
       36715000	      3670	80005144	00000013	addi	x0,x0,0	  x0:0x00000000
       36725000	      3671	80005148	8edabbb7	lui	x23,0x8edab	 x23=0x8edab000
       36735000	      3672	8000514c	00000013	addi	x0,x0,0	  x0:0x00000000
       36745000	      3673	80005150	00af7f33	and	x30,x30,x10	 x30:0x00000000 x10:0x6a45c084 x30=0x00000000
       36755000	      3674	80005154	9c5d6ab7	lui	x21,0x9c5d6	 x21=0x9c5d6000
       36765000	      3675	80005158	2a53ac93	slti	x25,x7,677	  x7:0x80009f28 x25=0x00000001
       36775000	      3676	8000515c	010cea63	bltu	x25,x16,80005170	 x25:0x00000001 x16:0xfd656000
       36785000	      3677	00000000	00000013	addi	x0,x0,0	  x0:0x00000000
       36795000	      3678	8000516c	00000013	addi	x0,x0,0	  x0:0x00000000
       36805000	      3679	80005170	7649c893	xori	x17,x19,1892	 x19:0xff54afb9 x17=0xff54a8dd
       36815000	      3680	80005174	01570ab3	add	x21,x14,x21	 x14:0x00000000 x21:0x9c5d6000 x21=0x9c5d6000
       36825000	      3681	80005178	00a08c63	beq	x1,x10,80005190	  x1:0xfbcbb130 x10:0x6a45c084
       36835000	      3682	8000517c	04cbd663	bge	x23,x12,800051c8	 x23:0x8edab000 x12:0x00000001
       36845000	      3683	80005180	018ea333	slt	x6,x29,x24	 x29:0xc893c09c x24:0xffffffff  x6=0x00000001
       36855000	      3684	80005184	f7e12837	lui	x16,0xf7e12	 x16=0xf7e12000
       36865000	      3685	80005188	00715e63	bge	x2,x7,800051a4	  x2:0xfffffedf  x7:0x80009f28
       36875000	      3686	00000000	00000013	addi	x0,x0,0	  x0:0x00000000
       36885000	      3687	800051a0	00000013	addi	x0,x0,0	  x0:0x00000000
       36895000	      3688	800051a4	01025213	srli	x4,x4,0x10	  x4:0xfffffa02  x4=0x0000ffff
       36905000	      3689	800051a8	050cc863	blt	x25,x16,800051f8	 x25:0x00000001 x16:0xf7e12000
       36915000	      3690	800051ac	151c6b93	ori	x23,x24,337	 x24:0xffffffff x23=0xffffffff
       36925000	      3691	800051b0	0028f433	and	x8,x17,x2	 x17:0xff54a8dd  x2:0xfffffedf  x8=0xff54a8dd
       36935000	      3692	800051b4	40f75313	srai	x6,x14,0xf	 x14:0x00000000  x6=0x00000000
       36945000	      3693	800051b8	03865463	bge	x12,x24,800051e0	 x12:0x00000001 x24:0xffffffff
       36955000	      3694	00000000	00000013	addi	x0,x0,0	  x0:0x00000000
       36965000	      3695	800051dc	00000013	addi	x0,x0,0	  x0:0x00000000
       36975000	      3696	800051e0	40ca50b3	sra	x1,x20,x12	 x20:0xfffff9c3 x12:0x00000001  x1=0xfffffce1
       36985000	      3697	800051e4	f09f6893	ori	x17,x30,-247	 x30:0x00000000 x17=0xffffff09
       36995000	      3698	800051e8	002d1013	slli	x0,x26,0x2	 x26:0x00000007
       37005000	      3699	800051ec	40a25333	sra	x6,x4,x10	  x4:0x0000ffff x10:0x6a45c084  x6=0x00000fff
       37015000	      3700	800051f0	01db35b3	sltu	x11,x22,x29	 x22:0x00000000 x29:0xc893c09c x11=0x00000001
       37025000	      3701	800051f4	cf29f313	andi	x6,x19,-782	 x19:0xff54afb9  x6=0xff54acb0
       37035000	      3702	800051f8	00000013	addi	x0,x0,0	  x0:0x00000000
       37045000	      3703	800051fc	052ff063	bgeu	x31,x18,8000523c	 x31:0xff000139 x18:0x475a92a9
       37055000	      3704	00000000	00000013	addi	x0,x0,0	  x0:0x00000000
       37065000	      3705	80005238	00000013	addi	x0,x0,0	  x0:0x00000000
       37075000	      3706	8000523c	408dd813	srai	x16,x27,0x8	 x27:0x00000000 x16=0x00000000
       37085000	      3707	80005240	03ba6813	ori	x16,x20,59	 x20:0xfffff9c3 x16=0xfffff9fb
       37095000	      3708	80005244	41cdd013	srai	x0,x27,0x1c	 x27:0x00000000
       37105000	      3709	80005248	40465213	srai	x4,x12,0x4	 x12:0x00000001  x4=0x00000000
       37115000	      3710	8000524c	d05dea93	ori	x21,x27,-763	 x27:0x00000000 x21=0xfffffd05
       37125000	      3711	80005250	006e5893	srli	x17,x28,0x6	 x28:0x80009fc4 x17=0x0200027f
       37135000	      3712	80005254	0123b233	sltu	x4,x7,x18	  x7:0x80009f28 x18:0x475a92a9  x4=0x00000000
       37145000	      3713	80005258	00bbecb3	or	x25,x23,x11	 x23:0xffffffff x11:0x00000001 x25=0xffffffff
       37155000	      3714	8000525c	02cd5263	bge	x26,x12,80005280	 x26:0x00000007 x12:0x00000001
       37165000	      3715	00000000	00000013	addi	x0,x0,0	  x0:0x00000000
       37175000	      3716	8000527c	00000013	addi	x0,x0,0	  x0:0x00000000
       37185000	      3717	80005280	00740a63	beq	x8,x7,80005294	  x8:0xff54a8dd  x7:0x80009f28
       37195000	      3718	80005284	bb3686b7	lui	x13,0xbb368	 x13=0xbb368000
       37205000	      3719	80005288	008c9b13	slli	x22,x25,0x8	 x25:0xffffffff x22=0xffffff00
       37215000	      3720	8000528c	010a4c63	blt	x20,x16,800052a4	 x20:0xfffff9c3 x16:0xfffff9fb
       37225000	      3721	00000000	00000013	addi	x0,x0,0	  x0:0x00000000
       37235000	      3722	800052a0	00000013	addi	x0,x0,0	  x0:0x00000000
       37245000	      3723	800052a4	38072613	slti	x12,x14,896	 x14:0x00000000 x12=0x00000001
       37255000	      3724	800052a8	39c5ef93	ori	x31,x11,924	 x11:0x00000001 x31=0x0000039d
       37265000	      3725	800052ac	39162c13	slti	x24,x12,913	 x12:0x00000001 x24=0x00000001
       37275000	      3726	800052b0	018886b3	add	x13,x17,x24	 x17:0x0200027f x24:0x00000001 x13=0x02000280
       37285000	      3727	800052b4	8e776693	ori	x13,x14,-1817	 x14:0x00000000 x13=0xfffff8e7
       37295000	      3728	800052b8	408b5293	srai	x5,x22,0x8	 x22:0xffffff00  x5=0xffffffff
       37305000	      3729	800052bc	0039fa63	bgeu	x19,x3,800052d0	 x19:0xff54afb9  x3:0x00000000
       37315000	      3730	00000000	00000013	addi	x0,x0,0	  x0:0x00000000
       37325000	      3731	800052cc	00000013	addi	x0,x0,0	  x0:0x00000000
       37335000	      3732	800052d0	01791c63	bne	x18,x23,800052e8	 x18:0x475a92a9 x23:0xffffffff
       37345000	      3733	00000000	00000013	addi	x0,x0,0	  x0:0x00000000
       37355000	      3734	800052e4	00000013	addi	x0,x0,0	  x0:0x00000000
       37365000	      3735	800052e8	406b0f33	sub	x30,x22,x6	 x22:0xffffff00  x6:0xff54acb0 x30=0x00ab5250
       37375000	      3736	800052ec	00baac33	slt	x24,x21,x11	 x21:0xfffffd05 x11:0x00000001 x24=0x00000001
       37385000	      3737	800052f0	008d00b3	add	x1,x26,x8	 x26:0x00000007  x8:0xff54a8dd  x1=0xff54a8e4
       37395000	      3738	800052f4	fac36f13	ori	x30,x6,-84	  x6:0xff54acb0 x30=0xffffffbc
       37405000	      3739	800052f8	00166633	or	x12,x12,x1	 x12:0x00000001  x1:0xff54a8e4 x12=0xff54a8e5
       37415000	      3740	800052fc	c1aa1117	auipc	x2,0xc1aa1	  x2=0x41aa62f8
       37425000	      3741	80005300	014fbf33	sltu	x30,x31,x20	 x31:0x0000039d x20:0xfffff9c3 x30=0x00000001
       37435000	      3742	80005304	017acc33	xor	x24,x21,x23	 x21:0xfffffd05 x23:0xffffffff x24=0x000002fa
       37445000	      3743	80005308	057d1463	bne	x26,x23,80005350	 x26:0x00000007 x23:0xffffffff
       37455000	      3744	00000000	00000013	addi	x0,x0,0	  x0:0x00000000
       37465000	      3745	8000534c	00000013	addi	x0,x0,0	  x0:0x00000000
       37475000	      3746	80005350	01674663	blt	x14,x22,8000535c	 x14:0x00000000 x22:0xffffff00
       37485000	      3747	80005354	742ccf13	xori	x30,x25,1858	 x25:0xffffffff x30=0xfffff8bd
       37495000	      3748	80005358	01c8c533	xor	x10,x17,x28	 x17:0x0200027f x28:0x80009fc4 x10=0x82009dbb
       37505000	      3749	8000535c	00ac9e63	bne	x25,x10,80005378	 x25:0xffffffff x10:0x82009dbb
       37515000	      3750	00000000	00000013	addi	x0,x0,0	  x0:0x00000000
       37525000	      3751	80005374	00000013	addi	x0,x0,0	  x0:0x00000000
       37535000	      3752	80005378	41ccd293	srai	x5,x25,0x1c	 x25:0xffffffff  x5=0xffffffff
       37545000	      3753	8000537c	0212d463	bge	x5,x1,800053a4	  x5:0xffffffff  x1:0xff54a8e4
       37555000	      3754	00000000	00000013	addi	x0,x0,0	  x0:0x00000000
       37565000	      3755	800053a0	00000013	addi	x0,x0,0	  x0:0x00000000
       37575000	      3756	800053a4	00000013	addi	x0,x0,0	  x0:0x00000000
       37585000	      3757	800053a8	019f8333	add	x6,x31,x25	 x31:0x0000039d x25:0xffffffff  x6=0x0000039c
       37595000	      3758	800053ac	017524b3	slt	x9,x10,x23	 x10:0x82009dbb x23:0xffffffff  x9=0x00000001
       37605000	      3759	800053b0	003f9263	bne	x31,x3,800053b4	 x31:0x0000039d  x3:0x00000000
       37615000	      3760	00000000	00000013	addi	x0,x0,0	  x0:0x00000000
       37625000	      3761	800053b0	00000013	addi	x0,x0,0	  x0:0x00000000
       37635000	      3762	800053b4	01073eb3	sltu	x29,x14,x16	 x14:0x00000000 x16:0xfffff9fb x29=0x00000001
       37645000	      3763	800053b8	0190d133	srl	x2,x1,x25	  x1:0xff54a8e4 x25:0xffffffff  x2=0x00000001
       37655000	      3764	800053bc	c6e1adb7	lui	x27,0xc6e1a	 x27=0xc6e1a000
       37665000	      3765	800053c0	00fa6f33	or	x30,x20,x15	 x20:0xfffff9c3 x15:0xffffffff x30=0xffffffff
       37675000	      3766	800053c4	cae34093	xori	x1,x6,-850	  x6:0x0000039c  x1=0xffffff32
       37685000	      3767	800053c8	01fd9c13	slli	x24,x27,0x1f	 x27:0xc6e1a000 x24=0x00000000
       37695000	      3768	800053cc	00d05fb3	srl	x31,x0,x13	  x0:0x00000000 x13:0xfffff8e7 x31=0x00000000
       37705000	      3769	800053d0	407a5b13	srai	x22,x20,0x7	 x20:0xfffff9c3 x22=0xfffffff3
       37715000	      3770	800053d4	01c5b533	sltu	x10,x11,x28	 x11:0x00000001 x28:0x80009fc4 x10=0x00000001
       37725000	      3771	800053d8	03a59663	bne	x11,x26,80005404	 x11:0x00000001 x26:0x00000007
       37735000	      3772	00000000	00000013	addi	x0,x0,0	  x0:0x00000000
       37745000	      3773	80005400	00000013	addi	x0,x0,0	  x0:0x00000000
       37755000	      3774	80005404	001fd033	srl	x0,x31,x1	 x31:0x00000000  x1:0xffffff32
       37765000	      3775	80005408	041b7863	bgeu	x22,x1,80005458	 x22:0xfffffff3  x1:0xffffff32
       37775000	      3776	00000000	00000013	addi	x0,x0,0	  x0:0x00000000
       37785000	      3777	80005454	00000013	addi	x0,x0,0	  x0:0x00000000
       37795000	      3778	80005458	02ed0663	beq	x26,x14,80005484	 x26:0x00000007 x14:0x00000000
       37805000	      3779	8000545c	00a046b3	xor	x13,x0,x10	  x0:0x00000000 x10:0x00000001 x13=0x00000001
       37815000	      3780	80005460	61e74a93	xori	x21,x14,1566	 x14:0x00000000 x21=0x0000061e
       37825000	      3781	80005464	01357033	and	x0,x10,x19	 x10:0x00000001 x19:0xff54afb9
       37835000	      3782	80005468	c70f8293	addi	x5,x31,-912	 x31:0x00000000  x5=0xfffffc70
       37845000	      3783	8000546c	408b0833	sub	x16,x22,x8	 x22:0xfffffff3  x8:0xff54a8dd x16=0x00ab5716
       37855000	      3784	80005470	0b067e93	andi	x29,x12,176	 x12:0xff54a8e5 x29=0x000000a0
       37865000	      3785	80005474	016a1263	bne	x20,x22,80005478	 x20:0xfffff9c3 x22:0xfffffff3
       37875000	      3786	00000000	00000013	addi	x0,x0,0	  x0:0x00000000
       37885000	      3787	80005474	00000013	addi	x0,x0,0	  x0:0x00000000
       37895000	      3788	80005478	70637613	andi	x12,x6,1798	  x6:0x0000039c x12=0x00000304
       37905000	      3789	8000547c	04749863	bne	x9,x7,800054cc	  x9:0x00000001  x7:0x80009f28
       37915000	      3790	00000000	00000013	addi	x0,x0,0	  x0:0x00000000
       37925000	      3791	800054c8	00000013	addi	x0,x0,0	  x0:0x00000000
       37935000	      3792	800054cc	01539a33	sll	x20,x7,x21	  x7:0x80009f28 x21:0x0000061e x20=0x00000000
       37945000	      3793	800054d0	00c00e63	beq	x0,x12,800054ec	  x0:0x00000000 x12:0x00000304
       37955000	      3794	800054d4	93350793	addi	x15,x10,-1741	 x10:0x00000001 x15=0xfffff934
       37965000	      3795	800054d8	0193c033	xor	x0,x7,x25	  x7:0x80009f28 x25:0xffffffff
       37975000	      3796	800054dc	40045c13	srai	x24,x8,0x0	  x8:0xff54a8dd x24=0xff54a8dd
       37985000	      3797	800054e0	010775b3	and	x11,x14,x16	 x14:0x00000000 x16:0x00ab5716 x11=0x00000000
       37995000	      3798	800054e4	01ec79b3	and	x19,x24,x30	 x24:0xff54a8dd x30:0xffffffff x19=0xff54a8dd
       38005000	      3799	800054e8	943de693	ori	x13,x27,-1725	 x27:0xc6e1a000 x13=0xfffff943
       38015000	      3800	800054ec	0023d113	srli	x2,x7,0x2	  x7:0x80009f28  x2=0x200027ca
       38025000	      3801	800054f0	3e367893	andi	x17,x12,995	 x12:0x00000304 x17=0x00000300
       38035000	      3802	800054f4	01befcb3	and	x25,x29,x27	 x29:0x000000a0 x27:0xc6e1a000 x25=0x00000000
       38045000	      3803	800054f8	035fe263	bltu	x31,x21,8000551c	 x31:0x00000000 x21:0x0000061e
       38055000	      3804	00000000	00000013	addi	x0,x0,0	  x0:0x00000000
       38065000	      3805	80005518	00000013	addi	x0,x0,0	  x0:0x00000000
       38075000	      3806	8000551c	9672bd13	sltiu	x26,x5,-1689	  x5:0xfffffc70 x26=0x00000000
       38085000	      3807	80005520	ef564313	xori	x6,x12,-267	 x12:0x00000304  x6=0xfffffdf1
       38095000	      3808	80005524	01ed0263	beq	x26,x30,80005528	 x26:0x00000000 x30:0xffffffff
       38105000	      3809	80005528	40f5df33	sra	x30,x11,x15	 x11:0x00000000 x15:0xfffff934 x30=0x00000000
       38115000	      3810	8000552c	0147deb3	srl	x29,x15,x20	 x15:0xfffff934 x20:0x00000000 x29=0xfffff934
       38125000	      3811	80005530	0c7a4f13	xori	x30,x20,199	 x20:0x00000000 x30=0x000000c7
       38135000	      3812	80005534	520bf897	auipc	x17,0x520bf	 x17=0xd20c4530
       38145000	      3813	80005538	04f76863	bltu	x14,x15,80005588	 x14:0x00000000 x15:0xfffff934
       38155000	      3814	00000000	00000013	addi	x0,x0,0	  x0:0x00000000
       38165000	      3815	80005584	00000013	addi	x0,x0,0	  x0:0x00000000
       38175000	      3816	80005588	30b9aa93	slti	x21,x19,779	 x19:0xff54a8dd x21=0x00000001
       38185000	      3817	8000558c	00bc61b3	or	x3,x24,x11	 x24:0xff54a8dd x11:0x00000000  x3=0xff54a8dd
       38195000	      3818	80005590	51af8e97	auipc	x29,0x51af8	 x29=0xd1afd58c
       38205000	      3819	80005594	a2e43997	auipc	x19,0xa2e43	 x19=0x22e48590
       38215000	      3820	80005598	01029db3	sll	x27,x5,x16	  x5:0xfffffc70 x16:0x00ab5716 x27=0x1c000000
       38225000	      3821	8000559c	41875413	srai	x8,x14,0x18	 x14:0x00000000  x8=0x00000000
       38235000	      3822	800055a0	00003797	auipc	x15,0x3	 x15=0x8000859c
       38245000	      3823	800055a4	e7f78793	addi	x15,x15,-385	 x15:0x8000859c x15=0x8000841b
       38255000	      3824	800055a8	00377a33	and	x20,x14,x3	 x14:0x00000000  x3:0xff54a8dd x20=0x00000000
       38265000	      3825	800055ac	d2f7c503	lbu	x10,-721(x15)	 x15:0x8000841b x10=0x00000000 PA:0x8000814a
       38275000	      3826	800055b0	00df7833	and	x16,x30,x13	 x30:0x000000c7 x13:0xfffff943 x16=0x00000043
       38285000	      3827	800055b4	6b33a597	auipc	x11,0x6b33a	 x11=0xeb33f5b0
       38295000	      3828	800055b8	c937c283	lbu	x5,-877(x15)	 x15:0x8000841b  x5=0x00000000 PA:0x800080ae
       38305000	      3829	800055bc	1f57cd83	lbu	x27,501(x15)	 x15:0x8000841b x27=0x00000000 PA:0x80008610
       38315000	      3830	800055c0	01a88333	add	x6,x17,x26	 x17:0xd20c4530 x26:0x00000000  x6=0xd20c4530
       38325000	      3831	800055c4	d6a2a297	auipc	x5,0xd6a2a	  x5=0x56a2f5c0
       38335000	      3832	800055c8	8aa29637	lui	x12,0x8aa29	 x12=0x8aa29000
       38345000	      3833	800055cc	f2d80a13	addi	x20,x16,-211	 x16:0x00000043 x20=0xffffff70
       38355000	      3834	800055d0	d3979983	lh	x19,-711(x15)	 x15:0x8000841b x19=0x00000000 PA:0x80008154
       38365000	      3835	800055d4	3e17a083	lw	x1,993(x15)	 x15:0x8000841b  x1=0x00000000 PA:0x800087fc
       38375000	      3836	00000000	00000013	addi	x0,x0,0	  x0:0x00000000
       38385000	      3837	800055d8	52130993	addi	x19,x6,1313	  x6:0xd20c4530 x19=0xd20c4a51
       38395000	      3838	800055dc	01d45a93	srli	x21,x8,0x1d	  x8:0x00000000 x21=0x00000000
       38405000	      3839	800055e0	019be833	or	x16,x23,x25	 x23:0xffffffff x25:0x00000000 x16=0xffffffff
       38415000	      3840	800055e4	40725d13	srai	x26,x4,0x7	  x4:0x00000000 x26=0x00000000
       38425000	      3841	800055e8	01495193	srli	x3,x18,0x14	 x18:0x475a92a9  x3=0x00000475
       38435000	      3842	800055ec	9d77e593	ori	x11,x15,-1577	 x15:0x8000841b x11=0xfffffddf
       38445000	      3843	800055f0	0a8792a3	sh	x8,165(x15)	 x15:0x8000841b  x8:0x00000000 PA:0x800084c0
       38455000	      3844	800055f4	00c21513	slli	x10,x4,0xc	  x4:0x00000000 x10=0x00000000
       38465000	      3845	800055f8	d0a78d83	lb	x27,-758(x15)	 x15:0x8000841b x27=0x00000000 PA:0x80008125
       38475000	      3846	800055fc	de379f83	lh	x31,-541(x15)	 x15:0x8000841b x31=0x00000000 PA:0x800081fe
       38485000	      3847	80005600	ea7794a3	sh	x7,-343(x15)	 x15:0x8000841b  x7:0x80009f28 PA:0x800082c4
       38495000	      3848	80005604	00eb34b3	sltu	x9,x22,x14	 x22:0xfffffff3 x14:0x00000000  x9=0x00000000
       38505000	      3849	80005608	1b878e23	sb	x24,444(x15)	 x15:0x8000841b x24:0xff54a8dd PA:0x800085d7
       38515000	      3850	8000560c	0139d713	srli	x14,x19,0x13	 x19:0xd20c4a51 x14=0x00001a41
       38525000	      3851	80005610	0c5795a3	sh	x5,203(x15)	 x15:0x8000841b  x5:0x56a2f5c0 PA:0x800084e6
       38535000	      3852	80005614	306797a3	sh	x6,783(x15)	 x15:0x8000841b  x6:0xd20c4530 PA:0x8000872a
       38545000	      3853	80005618	4049dc33	sra	x24,x19,x4	 x19:0xd20c4a51  x4:0x00000000 x24=0xd20c4a51
       38555000	      3854	8000561c	3e4787a3	sb	x4,1007(x15)	 x15:0x8000841b  x4:0x00000000 PA:0x8000880a
       38565000	      3855	80005620	00f1e6b3	or	x13,x3,x15	  x3:0x00000475 x15:0x8000841b x13=0x8000847f
       38575000	      3856	80005624	de0ae613	ori	x12,x21,-544	 x21:0x00000000 x12=0xfffffde0
       38585000	      3857	80005628	00041a33	sll	x20,x8,x0	  x8:0x00000000  x0:0x00000000 x20=0x00000000
       38595000	      3858	8000562c	0f3780a3	sb	x19,225(x15)	 x15:0x8000841b x19:0xd20c4a51 PA:0x800084fc
       38605000	      3859	80005630	b9e11cb7	lui	x25,0xb9e11	 x25=0xb9e11000
       38615000	      3860	80005634	d37783a3	sb	x23,-729(x15)	 x15:0x8000841b x23:0xffffffff PA:0x80008142
       38625000	      3861	80005638	eb0d9b37	lui	x22,0xeb0d9	 x22=0xeb0d9000
       38635000	      3862	8000563c	41b87d13	andi	x26,x16,1051	 x16:0xffffffff x26=0x0000041b
       38645000	      3863	80005640	12378da3	sb	x3,315(x15)	 x15:0x8000841b  x3:0x00000475 PA:0x80008556
       38655000	      3864	80005644	416d5013	srai	x0,x26,0x16	 x26:0x0000041b
       38665000	      3865	80005648	c590bab7	lui	x21,0xc590b	 x21=0xc590b000
       38675000	      3866	8000564c	a0e9a213	slti	x4,x19,-1522	 x19:0xd20c4a51  x4=0x00000001
       38685000	      3867	80005650	00f11233	sll	x4,x2,x15	  x2:0x200027ca x15:0x8000841b  x4=0x50000000
       38695000	      3868	80005654	40c3d833	sra	x16,x7,x12	  x7:0x80009f28 x12:0xfffffde0 x16=0x80009f28
       38705000	      3869	80005658	00785c63	bge	x16,x7,80005670	 x16:0x80009f28  x7:0x80009f28
       38715000	      3870	00000000	00000013	addi	x0,x0,0	  x0:0x00000000
       38725000	      3871	8000566c	00000013	addi	x0,x0,0	  x0:0x00000000
       38735000	      3872	80005670	41fcd993	srai	x19,x25,0x1f	 x25:0xb9e11000 x19=0xffffffff
       38745000	      3873	80005674	11a2f863	bgeu	x5,x26,80005784	  x5:0x56a2f5c0 x26:0x0000041b
       38755000	      3874	00000000	00000013	addi	x0,x0,0	  x0:0x00000000
       38765000	      3875	80005780	00000013	addi	x0,x0,0	  x0:0x00000000
       38775000	      3876	80005784	11eaf613	andi	x12,x21,286	 x21:0xc590b000 x12=0x00000000
       38785000	      3877	80005788	41205993	srai	x19,x0,0x12	  x0:0x00000000 x19=0x00000000
       38795000	      3878	8000578c	01911613	slli	x12,x2,0x19	  x2:0x200027ca x12=0x94000000
       38805000	      3879	80005790	55583693	sltiu	x13,x16,1365	 x16:0x80009f28 x13=0x00000000
       38815000	      3880	80005794	746a54b7	lui	x9,0x746a5	  x9=0x746a5000
       38825000	      3881	80005798	009064b3	or	x9,x0,x9	  x0:0x00000000  x9:0x746a5000  x9=0x746a5000
       38835000	      3882	8000579c	00000013	addi	x0,x0,0	  x0:0x00000000
       38845000	      3883	800057a0	056b0863	beq	x22,x22,800057f0	 x22:0xeb0d9000 x22:0xeb0d9000
       38855000	      3884	00000000	00000013	addi	x0,x0,0	  x0:0x00000000
       38865000	      3885	800057ec	00000013	addi	x0,x0,0	  x0:0x00000000
       38875000	      3886	800057f0	05c24063	blt	x4,x28,80005830	  x4:0x50000000 x28:0x80009fc4
       38885000	      3887	800057f4	00f09eb3	sll	x29,x1,x15	  x1:0x00000000 x15:0x8000841b x29=0x00000000
       38895000	      3888	800057f8	05d37663	bgeu	x6,x29,80005844	  x6:0xd20c4530 x29:0x00000000
       38905000	      3889	00000000	00000013	addi	x0,x0,0	  x0:0x00000000
       38915000	      3890	80005840	00000013	addi	x0,x0,0	  x0:0x00000000
       38925000	      3891	80005844	01591b93	slli	x23,x18,0x15	 x18:0x475a92a9 x23=0x55200000
       38935000	      3892	80005848	ab979437	lui	x8,0xab979	  x8=0xab979000
       38945000	      3893	8000584c	80e36313	ori	x6,x6,-2034	  x6:0xd20c4530  x6=0xfffffd3e
       38955000	      3894	80005850	3e460c13	addi	x24,x12,996	 x12:0x94000000 x24=0x940003e4
       38965000	      3895	80005854	45fb1297	auipc	x5,0x45fb1	  x5=0xc5fb6850
       38975000	      3896	80005858	01ac1693	slli	x13,x24,0x1a	 x24:0x940003e4 x13=0x90000000
       38985000	      3897	8000585c	00bfcbb3	xor	x23,x31,x11	 x31:0x00000000 x11:0xfffffddf x23=0xfffffddf
       38995000	      3898	80005860	03eb8863	beq	x23,x30,80005890	 x23:0xfffffddf x30:0x000000c7
       39005000	      3899	80005864	008f7033	and	x0,x30,x8	 x30:0x000000c7  x8:0xab979000
       39015000	      3900	80005868	00cc0833	add	x16,x24,x12	 x24:0x940003e4 x12:0x94000000 x16=0x280003e4
       39025000	      3901	8000586c	2e968593	addi	x11,x13,745	 x13:0x90000000 x11=0x900002e9
       39035000	      3902	80005870	00f637b3	sltu	x15,x12,x15	 x12:0x94000000 x15:0x8000841b x15=0x00000000
       39045000	      3903	80005874	003c6a33	or	x20,x24,x3	 x24:0x940003e4  x3:0x00000475 x20=0x940007f5
       39055000	      3904	80005878	000b5993	srli	x19,x22,0x0	 x22:0xeb0d9000 x19=0xeb0d9000
       39065000	      3905	8000587c	f341c217	auipc	x4,0xf341c	  x4=0x73421878
       39075000	      3906	80005880	00801893	slli	x17,x0,0x8	  x0:0x00000000 x17=0x00000000
       39085000	      3907	80005884	40b85213	srai	x4,x16,0xb	 x16:0x280003e4  x4=0x00050000
       39095000	      3908	80005888	00c5a2b3	slt	x5,x11,x12	 x11:0x900002e9 x12:0x94000000  x5=0x00000001
       39105000	      3909	8000588c	c9507497	auipc	x9,0xc9507	  x9=0x4950c888
       39115000	      3910	80005890	418b5293	srai	x5,x22,0x18	 x22:0xeb0d9000  x5=0xffffffeb
       39125000	      3911	80005894	00eb50b3	srl	x1,x22,x14	 x22:0xeb0d9000 x14:0x00001a41  x1=0x7586c800
       39135000	      3912	80005898	4095d8b3	sra	x17,x11,x9	 x11:0x900002e9  x9:0x4950c888 x17=0xff900002
       39145000	      3913	8000589c	ae4bc713	xori	x14,x23,-1308	 x23:0xfffffddf x14=0x0000073b
       39155000	      3914	800058a0	4183df33	sra	x30,x7,x24	  x7:0x80009f28 x24:0x940003e4 x30=0xf80009f2
       39165000	      3915	800058a4	014769b3	or	x19,x14,x20	 x14:0x0000073b x20:0x940007f5 x19=0x940007ff
       39175000	      3916	800058a8	028ee063	bltu	x29,x8,800058c8	 x29:0x00000000  x8:0xab979000
       39185000	      3917	00000000	00000013	addi	x0,x0,0	  x0:0x00000000
       39195000	      3918	800058c4	00000013	addi	x0,x0,0	  x0:0x00000000
       39205000	      3919	800058c8	5283ff93	andi	x31,x7,1320	  x7:0x80009f28 x31=0x00000528
       39215000	      3920	800058cc	41dfd733	sra	x14,x31,x29	 x31:0x00000528 x29:0x00000000 x14=0x00000528
       39225000	      3921	800058d0	8b494497	auipc	x9,0x8b494	  x9=0x0b4998cc
       39235000	      3922	800058d4	015dc9b3	xor	x19,x27,x21	 x27:0x00000000 x21:0xc590b000 x19=0xc590b000
       39245000	      3923	800058d8	f47d6237	lui	x4,0xf47d6	  x4=0xf47d6000
       39255000	      3924	800058dc	00865e63	bge	x12,x8,800058f8	 x12:0x94000000  x8:0xab979000
       39265000	      3925	800058e0	010adcb3	srl	x25,x21,x16	 x21:0xc590b000 x16:0x280003e4 x25=0x0c590b00
       39275000	      3926	800058e4	01d87b33	and	x22,x16,x29	 x16:0x280003e4 x29:0x00000000 x22=0x00000000
       39285000	      3927	800058e8	40790233	sub	x4,x18,x7	 x18:0x475a92a9  x7:0x80009f28  x4=0xc759f381
       39295000	      3928	800058ec	00f29f13	slli	x30,x5,0xf	  x5:0xffffffeb x30=0xfff58000
       39305000	      3929	800058f0	0035cc33	xor	x24,x11,x3	 x11:0x900002e9  x3:0x00000475 x24=0x9000069c
       39315000	      3930	800058f4	00b56233	or	x4,x10,x11	 x10:0x00000000 x11:0x900002e9  x4=0x900002e9
       39325000	      3931	800058f8	017b5333	srl	x6,x22,x23	 x22:0x00000000 x23:0xfffffddf  x6=0x00000000
       39335000	      3932	800058fc	00398ab3	add	x21,x19,x3	 x19:0xc590b000  x3:0x00000475 x21=0xc590b475
       39345000	      3933	80005900	3ca52693	slti	x13,x10,970	 x10:0x00000000 x13=0x00000001
       39355000	      3934	80005904	fd3d3b93	sltiu	x23,x26,-45	 x26:0x0000041b x23=0x00000001
       39365000	      3935	80005908	40f001b3	sub	x3,x0,x15	  x0:0x00000000 x15:0x00000000  x3=0x00000000
       39375000	      3936	8000590c	d2f5cf93	xori	x31,x11,-721	 x11:0x900002e9 x31=0x6fffffc6
       39385000	      3937	80005910	a5ea0193	addi	x3,x20,-1442	 x20:0x940007f5  x3=0x94000253
       39395000	      3938	80005914	00638263	beq	x7,x6,80005918	  x7:0x80009f28  x6:0x00000000
       39405000	      3939	80005918	005b5793	srli	x15,x22,0x5	 x22:0x00000000 x15=0x00000000
       39415000	      3940	8000591c	40070033	sub	x0,x14,x0	 x14:0x00000528  x0:0x00000000
       39425000	      3941	80005920	01052d33	slt	x26,x10,x16	 x10:0x00000000 x16:0x280003e4 x26=0x00000001
       39435000	      3942	80005924	00ba7a63	bgeu	x20,x11,80005938	 x20:0x940007f5 x11:0x900002e9
       39445000	      3943	00000000	00000013	addi	x0,x0,0	  x0:0x00000000
       39455000	      3944	80005934	00000013	addi	x0,x0,0	  x0:0x00000000
       39465000	      3945	80005938	005541b3	xor	x3,x10,x5	 x10:0x00000000  x5:0xffffffeb  x3=0xffffffeb
       39475000	      3946	8000593c	00a55a13	srli	x20,x10,0xa	 x10:0x00000000 x20=0x00000000
       39485000	      3947	80005940	cced4c93	xori	x25,x26,-818	 x26:0x00000001 x25=0xfffffccf
       39495000	      3948	80005944	00780713	addi	x14,x16,7	 x16:0x280003e4 x14=0x280003eb
       39505000	      3949	80005948	04eec863	blt	x29,x14,80005998	 x29:0x00000000 x14:0x280003eb
       39515000	      3950	00000000	00000013	addi	x0,x0,0	  x0:0x00000000
       39525000	      3951	80005994	00000013	addi	x0,x0,0	  x0:0x00000000
       39535000	      3952	80005998	00fd2533	slt	x10,x26,x15	 x26:0x00000001 x15:0x00000000 x10=0x00000000
       39545000	      3953	8000599c	41985833	sra	x16,x16,x25	 x16:0x280003e4 x25:0xfffffccf x16=0x00005000
       39555000	      3954	800059a0	9da4c193	xori	x3,x9,-1574	  x9:0x0b4998cc  x3=0xf4b66116
       39565000	      3955	800059a4	00000013	addi	x0,x0,0	  x0:0x00000000
       39575000	      3956	800059a8	546ffc93	andi	x25,x31,1350	 x31:0x6fffffc6 x25=0x00000546
       39585000	      3957	800059ac	602b60b7	lui	x1,0x602b6	  x1=0x602b6000
       39595000	      3958	800059b0	01d24c63	blt	x4,x29,800059c8	  x4:0x900002e9 x29:0x00000000
       39605000	      3959	00000000	00000013	addi	x0,x0,0	  x0:0x00000000
       39615000	      3960	800059c4	00000013	addi	x0,x0,0	  x0:0x00000000
       39625000	      3961	800059c8	01af5663	bge	x30,x26,800059d4	 x30:0xfff58000 x26:0x00000001
       39635000	      3962	800059cc	103ef9b7	lui	x19,0x103ef	 x19=0x103ef000
       39645000	      3963	800059d0	01a05663	bge	x0,x26,800059dc	  x0:0x00000000 x26:0x00000001
       39655000	      3964	800059d4	3a59ed93	ori	x27,x19,933	 x19:0x103ef000 x27=0x103ef3a5
       39665000	      3965	800059d8	02388263	beq	x17,x3,800059fc	 x17:0xff900002  x3:0xf4b66116
       39675000	      3966	800059dc	33618413	addi	x8,x3,822	  x3:0xf4b66116  x8=0xf4b6644c
       39685000	      3967	800059e0	02361263	bne	x12,x3,80005a04	 x12:0x94000000  x3:0xf4b66116
       39695000	      3968	00000000	00000013	addi	x0,x0,0	  x0:0x00000000
       39705000	      3969	80005a00	00000013	addi	x0,x0,0	  x0:0x00000000
       39715000	      3970	80005a04	363c4997	auipc	x19,0x363c4	 x19=0xb63c9a00
       39725000	      3971	80005a08	02d07263	bgeu	x0,x13,80005a2c	  x0:0x00000000 x13:0x00000001
       39735000	      3972	80005a0c	40a689b3	sub	x19,x13,x10	 x13:0x00000001 x10:0x00000000 x19=0x00000001
       39745000	      3973	80005a10	12e8f513	andi	x10,x17,302	 x17:0xff900002 x10=0x00000002
       39755000	      3974	80005a14	0039bf33	sltu	x30,x19,x3	 x19:0x00000001  x3:0xf4b66116 x30=0x00000001
       39765000	      3975	80005a18	bded4093	xori	x1,x26,-1058	 x26:0x00000001  x1=0xfffffbdf
       39775000	      3976	80005a1c	04d68863	beq	x13,x13,80005a6c	 x13:0x00000001 x13:0x00000001
       39785000	      3977	00000000	00000013	addi	x0,x0,0	  x0:0x00000000
       39795000	      3978	80005a68	00000013	addi	x0,x0,0	  x0:0x00000000
       39805000	      3979	80005a6c	00699c93	slli	x25,x19,0x6	 x19:0x00000001 x25=0x00000040
       39815000	      3980	80005a70	004dfc63	bgeu	x27,x4,80005a88	 x27:0x103ef3a5  x4:0x900002e9
       39825000	      3981	80005a74	018984b3	add	x9,x19,x24	 x19:0x00000001 x24:0x9000069c  x9=0x9000069d
       39835000	      3982	80005a78	00ff6cb3	or	x25,x30,x15	 x30:0x00000001 x15:0x00000000 x25=0x00000001
       39845000	      3983	80005a7c	024e4463	blt	x28,x4,80005aa4	 x28:0x80009fc4  x4:0x900002e9
       39855000	      3984	00000000	00000013	addi	x0,x0,0	  x0:0x00000000
       39865000	      3985	80005aa0	00000013	addi	x0,x0,0	  x0:0x00000000
       39875000	      3986	80005aa4	00bb6a63	bltu	x22,x11,80005ab8	 x22:0x00000000 x11:0x900002e9
       39885000	      3987	00000000	00000013	addi	x0,x0,0	  x0:0x00000000
       39895000	      3988	80005ab4	00000013	addi	x0,x0,0	  x0:0x00000000
       39905000	      3989	80005ab8	02df6263	bltu	x30,x13,80005adc	 x30:0x00000001 x13:0x00000001
       39915000	      3990	80005abc	13720813	addi	x16,x4,311	  x4:0x900002e9 x16=0x90000420
       39925000	      3991	80005ac0	0044afb3	slt	x31,x9,x4	  x9:0x9000069d  x4:0x900002e9 x31=0x00000000
       39935000	      3992	80005ac4	624dfc13	andi	x24,x27,1572	 x27:0x103ef3a5 x24=0x00000224
       39945000	      3993	80005ac8	40140d33	sub	x26,x8,x1	  x8:0xf4b6644c  x1:0xfffffbdf x26=0xf4b6686d
       39955000	      3994	80005acc	01ad22b3	slt	x5,x26,x26	 x26:0xf4b6686d x26:0xf4b6686d  x5=0x00000000
       39965000	      3995	80005ad0	35b78213	addi	x4,x15,859	 x15:0x00000000  x4=0x0000035b
       39975000	      3996	80005ad4	01e97263	bgeu	x18,x30,80005ad8	 x18:0x475a92a9 x30:0x00000001
       39985000	      3997	00000000	00000013	addi	x0,x0,0	  x0:0x00000000
       39995000	      3998	80005ad4	00000013	addi	x0,x0,0	  x0:0x00000000
       40005000	      3999	80005ad8	f4056493	ori	x9,x10,-192	 x10:0x00000002  x9=0xffffff42
       40015000	      4000	80005adc	ea3bff93	andi	x31,x23,-349	 x23:0x00000001 x31=0x00000001
       40025000	      4001	80005ae0	01d26c63	bltu	x4,x29,80005af8	  x4:0x0000035b x29:0x00000000
       40035000	      4002	80005ae4	01f25a63	bge	x4,x31,80005af8	  x4:0x0000035b x31:0x00000001
       40045000	      4003	00000000	00000013	addi	x0,x0,0	  x0:0x00000000
       40055000	      4004	80005af4	00000013	addi	x0,x0,0	  x0:0x00000000
       40065000	      4005	80005af8	0148c263	blt	x17,x20,80005afc	 x17:0xff900002 x20:0x00000000
       40075000	      4006	00000000	00000013	addi	x0,x0,0	  x0:0x00000000
       40085000	      4007	80005af8	00000013	addi	x0,x0,0	  x0:0x00000000
       40095000	      4008	80005afc	014d55b3	srl	x11,x26,x20	 x26:0xf4b6686d x20:0x00000000 x11=0xf4b6686d
       40105000	      4009	80005b00	11ec4e63	blt	x24,x30,80005c1c	 x24:0x00000224 x30:0x00000001
       40115000	      4010	80005b04	4e17f813	andi	x16,x15,1249	 x15:0x00000000 x16=0x00000000
       40125000	      4011	80005b08	41370bb3	sub	x23,x14,x19	 x14:0x280003eb x19:0x00000001 x23=0x280003ea
       40135000	      4012	80005b0c	00003297	auipc	x5,0x3	  x5=0x80008b08
       40145000	      4013	80005b10	0f228293	addi	x5,x5,242	  x5:0x80008b08  x5=0x80008bfa
       40155000	      4014	80005b14	406d55b3	sra	x11,x26,x6	 x26:0xf4b6686d  x6:0x00000000 x11=0xf4b6686d
       40165000	      4015	80005b18	00924db3	xor	x27,x4,x9	  x4:0x0000035b  x9:0xffffff42 x27=0xfffffc19
       40175000	      4016	80005b1c	0123cab3	xor	x21,x7,x18	  x7:0x80009f28 x18:0x475a92a9 x21=0xc75a0d81
       40185000	      4017	80005b20	00000013	addi	x0,x0,0	  x0:0x00000000
       40195000	      4018	80005b24	ff029783	lh	x15,-16(x5)	  x5:0x80008bfa x15=0x00000000 PA:0x80008bea
       40205000	      4019	80005b28	018a8433	add	x8,x21,x24	 x21:0xc75a0d81 x24:0x00000224  x8=0xc75a0fa5
       40215000	      4020	80005b2c	70db0613	addi	x12,x22,1805	 x22:0x00000000 x12=0x0000070d
       40225000	      4021	80005b30	ff428683	lb	x13,-12(x5)	  x5:0x80008bfa x13=0x00000000 PA:0x80008bee
       40235000	      4022	80005b34	01fa3c33	sltu	x24,x20,x31	 x20:0x00000000 x31:0x00000001 x24=0x00000001
       40245000	      4023	80005b38	017a1633	sll	x12,x20,x23	 x20:0x00000000 x23:0x280003ea x12=0x00000000
       40255000	      4024	80005b3c	00000013	addi	x0,x0,0	  x0:0x00000000
       40265000	      4025	80005b40	00a28523	sb	x10,10(x5)	  x5:0x80008bfa x10:0x00000002 PA:0x80008c04
       40275000	      4026	80005b44	fff28603	lb	x12,-1(x5)	  x5:0x80008bfa x12=0x00000000 PA:0x80008bf9
       40285000	      4027	80005b48	ffc2c103	lbu	x2,-4(x5)	  x5:0x80008bfa  x2=0x00000000 PA:0x80008bf6
       40295000	      4028	80005b4c	ffc2c803	lbu	x16,-4(x5)	  x5:0x80008bfa x16=0x00000000 PA:0x80008bf6
       40305000	      4029	80005b50	00d2c483	lbu	x9,13(x5)	  x5:0x80008bfa  x9=0x00000001 PA:0x80008c07
       40315000	      4030	80005b54	01f5d993	srli	x19,x11,0x1f	 x11:0xf4b6686d x19=0x00000001
       40325000	      4031	80005b58	fff2c103	lbu	x2,-1(x5)	  x5:0x80008bfa  x2=0x00000000 PA:0x80008bf9
       40335000	      4032	80005b5c	ffe29f23	sh	x30,-2(x5)	  x5:0x80008bfa x30:0x00000001 PA:0x80008bf8
       40345000	      4033	80005b60	02daa193	slti	x3,x21,45	 x21:0xc75a0d81  x3=0x00000001
       40355000	      4034	80005b64	01b28323	sb	x27,6(x5)	  x5:0x80008bfa x27:0xfffffc19 PA:0x80008c00
       40365000	      4035	80005b68	ff22c883	lbu	x17,-14(x5)	  x5:0x80008bfa x17=0x00000000 PA:0x80008bec
       40375000	      4036	80005b6c	ff82dd03	lhu	x26,-8(x5)	  x5:0x80008bfa x26=0x00000000 PA:0x80008bf2
       40385000	      4037	80005b70	9879cbb7	lui	x23,0x9879c	 x23=0x9879c000
       40395000	      4038	80005b74	fbc33197	auipc	x3,0xfbc33	  x3=0x7bc38b70
       40405000	      4039	80005b78	fe4289a3	sb	x4,-13(x5)	  x5:0x80008bfa  x4:0x0000035b PA:0x80008bed
       40415000	      4040	80005b7c	f62d8313	addi	x6,x27,-158	 x27:0xfffffc19  x6=0xfffffb7b
       40425000	      4041	80005b80	40948eb3	sub	x29,x9,x9	  x9:0x00000001  x9:0x00000001 x29=0x00000000
       40435000	      4042	80005b84	01d60033	add	x0,x12,x29	 x12:0x00000000 x29:0x00000000
       40445000	      4043	80005b88	b0c7f513	andi	x10,x15,-1268	 x15:0x00000000 x10=0x00000000
       40455000	      4044	80005b8c	0101a733	slt	x14,x3,x16	  x3:0x7bc38b70 x16:0x00000000 x14=0x00000000
       40465000	      4045	80005b90	ff02cf83	lbu	x31,-16(x5)	  x5:0x80008bfa x31=0x00000000 PA:0x80008bea
       40475000	      4046	80005b94	003b6233	or	x4,x22,x3	 x22:0x00000000  x3:0x7bc38b70  x4=0x7bc38b70
       40485000	      4047	80005b98	00a80b33	add	x22,x16,x10	 x16:0x00000000 x10:0x00000000 x22=0x00000000
       40495000	      4048	80005b9c	41658033	sub	x0,x11,x22	 x11:0xf4b6686d x22:0x00000000
       40505000	      4049	80005ba0	ffe28d03	lb	x26,-2(x5)	  x5:0x80008bfa x26=0x00000001 PA:0x80008bf8
       40515000	      4050	80005ba4	015f5fb3	srl	x31,x30,x21	 x30:0x00000001 x21:0xc75a0d81 x31=0x00000000
       40525000	      4051	80005ba8	0042d683	lhu	x13,4(x5)	  x5:0x80008bfa x13=0x00000000 PA:0x80008bfe
       40535000	      4052	80005bac	01148733	add	x14,x9,x17	  x9:0x00000001 x17:0x00000000 x14=0x00000001
       40545000	      4053	80005bb0	fe22af23	sw	x2,-2(x5)	  x5:0x80008bfa  x2:0x00000000 PA:0x80008bf8
       40555000	      4054	80005bb4	2e2f9317	auipc	x6,0x2e2f9	  x6=0xae2febb0
       40565000	      4055	80005bb8	00128883	lb	x17,1(x5)	  x5:0x80008bfa x17=0x00000000 PA:0x80008bfb
       40575000	      4056	80005bbc	6ea74313	xori	x6,x14,1770	 x14:0x00000001  x6=0x000006eb
       40585000	      4057	80005bc0	af9f2613	slti	x12,x30,-1287	 x30:0x00000001 x12=0x00000000
       40595000	      4058	80005bc4	00929323	sh	x9,6(x5)	  x5:0x80008bfa  x9:0x00000001 PA:0x80008c00
       40605000	      4059	80005bc8	2a73fc17	auipc	x24,0x2a73f	 x24=0xaa744bc4
       40615000	      4060	80005bcc	00000013	addi	x0,x0,0	  x0:0x00000000
       40625000	      4061	80005bd0	01fe9fb3	sll	x31,x29,x31	 x29:0x00000000 x31:0x00000000 x31=0x00000000
       40635000	      4062	80005bd4	9965a493	slti	x9,x11,-1642	 x11:0xf4b6686d  x9=0x00000001
       40645000	      4063	80005bd8	01e286a3	sb	x30,13(x5)	  x5:0x80008bfa x30:0x00000001 PA:0x80008c07
       40655000	      4064	80005bdc	007d7263	bgeu	x26,x7,80005be0	 x26:0x00000001  x7:0x80009f28
       40665000	      4065	80005be0	010d9d93	slli	x27,x27,0x10	 x27:0xfffffc19 x27=0xfc190000
       40675000	      4066	80005be4	005b1a93	slli	x21,x22,0x5	 x22:0x00000000 x21=0x00000000
       40685000	      4067	80005be8	12638f13	addi	x30,x7,294	  x7:0x80009f28 x30=0x8000a04e
       40695000	      4068	80005bec	8eedec93	ori	x25,x27,-1810	 x27:0xfc190000 x25=0xfffff8ee
       40705000	      4069	80005bf0	106bf113	andi	x2,x23,262	 x23:0x9879c000  x2=0x00000000
       40715000	      4070	80005bf4	008ff6b3	and	x13,x31,x8	 x31:0x00000000  x8:0xc75a0fa5 x13=0x00000000
       40725000	      4071	80005bf8	18b48d13	addi	x26,x9,395	  x9:0x00000001 x26=0x0000018c
       40735000	      4072	80005bfc	013aef33	or	x30,x21,x19	 x21:0x00000000 x19:0x00000001 x30=0x00000001
       40745000	      4073	80005c00	00e381b3	add	x3,x7,x14	  x7:0x80009f28 x14:0x00000001  x3=0x80009f29
       40755000	      4074	80005c04	016affb3	and	x31,x21,x22	 x21:0x00000000 x22:0x00000000 x31=0x00000000
       40765000	      4075	80005c08	199caf93	slti	x31,x25,409	 x25:0xfffff8ee x31=0x00000001
       40775000	      4076	80005c0c	03649863	bne	x9,x22,80005c3c	  x9:0x00000001 x22:0x00000000
       40785000	      4077	00000000	00000013	addi	x0,x0,0	  x0:0x00000000
       40795000	      4078	80005c38	00000013	addi	x0,x0,0	  x0:0x00000000
       40805000	      4079	80005c3c	01e812b3	sll	x5,x16,x30	 x16:0x00000000 x30:0x00000001  x5=0x00000000
       40815000	      4080	80005c40	00c07c33	and	x24,x0,x12	  x0:0x00000000 x12:0x00000000 x24=0x00000000
       40825000	      4081	80005c44	00003117	auipc	x2,0x3	  x2=0x80008c40
       40835000	      4082	80005c48	27810113	addi	x2,x2,632	  x2:0x80008c40  x2=0x80008eb8
       40845000	      4083	80005c4c	68124db7	lui	x27,0x68124	 x27=0x68124000
       40855000	      4084	80005c50	ffc11883	lh	x17,-4(x2)	  x2:0x80008eb8 x17=0x00000001 PA:0x80008eb4
       40865000	      4085	80005c54	fe6108a3	sb	x6,-15(x2)	  x2:0x80008eb8  x6:0x000006eb PA:0x80008ea9
       40875000	      4086	80005c58	018105a3	sb	x24,11(x2)	  x2:0x80008eb8 x24:0x00000000 PA:0x80008ec3
       40885000	      4087	80005c5c	005105a3	sb	x5,11(x2)	  x2:0x80008eb8  x5:0x00000000 PA:0x80008ec3
       40895000	      4088	80005c60	ff412823	sw	x20,-16(x2)	  x2:0x80008eb8 x20:0x00000000 PA:0x80008ea8
       40905000	      4089	80005c64	ff914403	lbu	x8,-7(x2)	  x2:0x80008eb8  x8=0x00000000 PA:0x80008eb1
       40915000	      4090	80005c68	0108fc33	and	x24,x17,x16	 x17:0x00000001 x16:0x00000000 x24=0x00000000
       40925000	      4091	80005c6c	00000013	addi	x0,x0,0	  x0:0x00000000
       40935000	      4092	80005c70	1a148097	auipc	x1,0x1a148	  x1=0x9a14dc6c
       40945000	      4093	80005c74	ff110303	lb	x6,-15(x2)	  x2:0x80008eb8  x6=0x00000000 PA:0x80008ea9
       40955000	      4094	80005c78	00012283	lw	x5,0(x2)	  x2:0x80008eb8  x5=0x00000000 PA:0x80008eb8
       40965000	      4095	00000000	00000013	addi	x0,x0,0	  x0:0x00000000
       40975000	      4096	80005c7c	00510b03	lb	x22,5(x2)	  x2:0x80008eb8 x22=0x00000000 PA:0x80008ebd
       40985000	      4097	80005c80	00613b33	sltu	x22,x2,x6	  x2:0x80008eb8  x6:0x00000000 x22=0x00000000
       40995000	      4098	80005c84	00014883	lbu	x17,0(x2)	  x2:0x80008eb8 x17=0x00000000 PA:0x80008eb8
       41005000	      4099	00000000	00000013	addi	x0,x0,0	  x0:0x00000000
       41015000	      4100	80005c88	011104a3	sb	x17,9(x2)	  x2:0x80008eb8 x17:0x00000000 PA:0x80008ec1
       41025000	      4101	80005c8c	01235613	srli	x12,x6,0x12	  x6:0x00000000 x12=0x00000000
       41035000	      4102	80005c90	ff610b23	sb	x22,-10(x2)	  x2:0x80008eb8 x22:0x00000000 PA:0x80008eae
       41045000	      4103	80005c94	01339013	slli	x0,x7,0x13	  x7:0x80009f28
       41055000	      4104	80005c98	ec94f413	andi	x8,x9,-311	  x9:0x00000001  x8=0x00000001
       41065000	      4105	80005c9c	ff615403	lhu	x8,-10(x2)	  x2:0x80008eb8  x8=0x00000000 PA:0x80008eae
       41075000	      4106	80005ca0	ff511b23	sh	x21,-10(x2)	  x2:0x80008eb8 x21:0x00000000 PA:0x80008eae
       41085000	      4107	80005ca4	fe110da3	sb	x1,-5(x2)	  x2:0x80008eb8  x1:0x9a14dc6c PA:0x80008eb3
       41095000	      4108	80005ca8	fff14303	lbu	x6,-1(x2)	  x2:0x80008eb8  x6=0x00000000 PA:0x80008eb7
       41105000	      4109	80005cac	ffe12e23	sw	x30,-4(x2)	  x2:0x80008eb8 x30:0x00000001 PA:0x80008eb4
       41115000	      4110	80005cb0	40af00b3	sub	x1,x30,x10	 x30:0x00000001 x10:0x00000000  x1=0x00000001
       41125000	      4111	80005cb4	0122d993	srli	x19,x5,0x12	  x5:0x00000000 x19=0x00000000
       41135000	      4112	80005cb8	01410823	sb	x20,16(x2)	  x2:0x80008eb8 x20:0x00000000 PA:0x80008ec8
       41145000	      4113	80005cbc	00510223	sb	x5,4(x2)	  x2:0x80008eb8  x5:0x00000000 PA:0x80008ebc
       41155000	      4114	80005cc0	ff6109a3	sb	x22,-13(x2)	  x2:0x80008eb8 x22:0x00000000 PA:0x80008eab
       41165000	      4115	80005cc4	4071dd33	sra	x26,x3,x7	  x3:0x80009f29  x7:0x80009f28 x26=0xff80009f
       41175000	      4116	80005cc8	00d14703	lbu	x14,13(x2)	  x2:0x80008eb8 x14=0x00000000 PA:0x80008ec5
       41185000	      4117	80005ccc	ff412183	lw	x3,-12(x2)	  x2:0x80008eb8  x3=0x00000000 PA:0x80008eac
       41195000	      4118	80005cd0	002cb533	sltu	x10,x25,x2	 x25:0xfffff8ee  x2:0x80008eb8 x10=0x00000000
       41205000	      4119	80005cd4	ff910983	lb	x19,-7(x2)	  x2:0x80008eb8 x19=0x00000000 PA:0x80008eb1
       41215000	      4120	80005cd8	009281b3	add	x3,x5,x9	  x5:0x00000000  x9:0x00000001  x3=0x00000001
       41225000	      4121	80005cdc	006fd533	srl	x10,x31,x6	 x31:0x00000001  x6:0x00000000 x10=0x00000001
       41235000	      4122	80005ce0	00ec5793	srli	x15,x24,0xe	 x24:0x00000000 x15=0x00000000
       41245000	      4123	80005ce4	0198ab33	slt	x22,x17,x25	 x17:0x00000000 x25:0xfffff8ee x22=0x00000000
       41255000	      4124	80005ce8	ff610ea3	sb	x22,-3(x2)	  x2:0x80008eb8 x22:0x00000000 PA:0x80008eb5
       41265000	      4125	80005cec	00214983	lbu	x19,2(x2)	  x2:0x80008eb8 x19=0x00000000 PA:0x80008eba
       41275000	      4126	80005cf0	ff215f03	lhu	x30,-14(x2)	  x2:0x80008eb8 x30=0x00000000 PA:0x80008eaa
       41285000	      4127	80005cf4	210a4313	xori	x6,x20,528	 x20:0x00000000  x6=0x00000210
       41295000	      4128	80005cf8	002107a3	sb	x2,15(x2)	  x2:0x80008eb8  x2:0x80008eb8 PA:0x80008ec7
       41305000	      4129	80005cfc	00a11483	lh	x9,10(x2)	  x2:0x80008eb8  x9=0x00000000 PA:0x80008ec2
       41315000	      4130	80005d00	05ea32b7	lui	x5,0x5ea3	  x5=0x05ea3000
       41325000	      4131	80005d04	004af6b3	and	x13,x21,x4	 x21:0x00000000  x4:0x7bc38b70 x13=0x00000000
       41335000	      4132	80005d08	01bc9233	sll	x4,x25,x27	 x25:0xfffff8ee x27:0x68124000  x4=0xfffff8ee
       41345000	      4133	80005d0c	ff310b83	lb	x23,-13(x2)	  x2:0x80008eb8 x23=0x00000000 PA:0x80008eab
       41355000	      4134	80005d10	00314d03	lbu	x26,3(x2)	  x2:0x80008eb8 x26=0x00000000 PA:0x80008ebb
       41365000	      4135	80005d14	aea40a13	addi	x20,x8,-1302	  x8:0x00000000 x20=0xfffffaea
       41375000	      4136	80005d18	02c3da63	bge	x7,x12,80005d4c	  x7:0x80009f28 x12:0x00000000
       41385000	      4137	80005d1c	06a53213	sltiu	x4,x10,106	 x10:0x00000001  x4=0x00000001
       41395000	      4138	80005d20	00a27bb3	and	x23,x4,x10	  x4:0x00000001 x10:0x00000001 x23=0x00000001
       41405000	      4139	80005d24	095ffb93	andi	x23,x31,149	 x31:0x00000001 x23=0x00000001
       41415000	      4140	80005d28	02ab7663	bgeu	x22,x10,80005d54	 x22:0x00000000 x10:0x00000001
       41425000	      4141	80005d2c	2e3404b7	lui	x9,0x2e340	  x9=0x2e340000
       41435000	      4142	80005d30	00f90db3	add	x27,x18,x15	 x18:0x475a92a9 x15:0x00000000 x27=0x475a92a9
       41445000	      4143	80005d34	01899793	slli	x15,x19,0x18	 x19:0x00000000 x15=0x00000000
       41455000	      4144	80005d38	347eff13	andi	x30,x29,839	 x29:0x00000000 x30=0x00000000
       41465000	      4145	80005d3c	05249863	bne	x9,x18,80005d8c	  x9:0x2e340000 x18:0x475a92a9
       41475000	      4146	00000000	00000013	addi	x0,x0,0	  x0:0x00000000
       41485000	      4147	80005d88	00000013	addi	x0,x0,0	  x0:0x00000000
       41495000	      4148	80005d8c	0109fab3	and	x21,x19,x16	 x19:0x00000000 x16:0x00000000 x21=0x00000000
       41505000	      4149	80005d90	88f63213	sltiu	x4,x12,-1905	 x12:0x00000000  x4=0x00000001
       41515000	      4150	80005d94	3fdb7613	andi	x12,x22,1021	 x22:0x00000000 x12=0x00000000
       41525000	      4151	80005d98	02ce5063	bge	x28,x12,80005db8	 x28:0x80009fc4 x12:0x00000000
       41535000	      4152	80005d9c	00531663	bne	x6,x5,80005da8	  x6:0x00000210  x5:0x05ea3000
       41545000	      4153	00000000	00000013	addi	x0,x0,0	  x0:0x00000000
       41555000	      4154	80005da4	00000013	addi	x0,x0,0	  x0:0x00000000
       41565000	      4155	80005da8	003e8c63	beq	x29,x3,80005dc0	 x29:0x00000000  x3:0x00000001
       41575000	      4156	80005dac	000fda13	srli	x20,x31,0x0	 x31:0x00000001 x20=0x00000001
       41585000	      4157	80005db0	40b50633	sub	x12,x10,x11	 x10:0x00000001 x11:0xf4b6686d x12=0x0b499794
       41595000	      4158	80005db4	01a2cc63	blt	x5,x26,80005dcc	  x5:0x05ea3000 x26:0x00000000
       41605000	      4159	80005db8	372fa993	slti	x19,x31,882	 x31:0x00000001 x19=0x00000001
       41615000	      4160	80005dbc	40d458b3	sra	x17,x8,x13	  x8:0x00000000 x13:0x00000000 x17=0x00000000
       41625000	      4161	80005dc0	405adf33	sra	x30,x21,x5	 x21:0x00000000  x5:0x05ea3000 x30=0x00000000
       41635000	      4162	80005dc4	01833a33	sltu	x20,x6,x24	  x6:0x00000210 x24:0x00000000 x20=0x00000000
       41645000	      4163	80005dc8	03ea0263	beq	x20,x30,80005dec	 x20:0x00000000 x30:0x00000000
       41655000	      4164	00000000	00000013	addi	x0,x0,0	  x0:0x00000000
       41665000	      4165	80005de8	00000013	addi	x0,x0,0	  x0:0x00000000
       41675000	      4166	80005dec	05a6f663	bgeu	x13,x26,80005e38	 x13:0x00000000 x26:0x00000000
       41685000	      4167	00000000	00000013	addi	x0,x0,0	  x0:0x00000000
       41695000	      4168	80005e34	00000013	addi	x0,x0,0	  x0:0x00000000
       41705000	      4169	80005e38	6a31b293	sltiu	x5,x3,1699	  x3:0x00000001  x5=0x00000001
       41715000	      4170	80005e3c	e6427c93	andi	x25,x4,-412	  x4:0x00000001 x25=0x00000000
       41725000	      4171	80005e40	41948b33	sub	x22,x9,x25	  x9:0x2e340000 x25:0x00000000 x22=0x2e340000
       41735000	      4172	80005e44	01539833	sll	x16,x7,x21	  x7:0x80009f28 x21:0x00000000 x16=0x80009f28
       41745000	      4173	80005e48	010c5313	srli	x6,x24,0x10	 x24:0x00000000  x6=0x00000000
       41755000	      4174	80005e4c	00000013	addi	x0,x0,0	  x0:0x00000000
       41765000	      4175	80005e50	01ae1ab3	sll	x21,x28,x26	 x28:0x80009fc4 x26:0x00000000 x21=0x80009fc4
       41775000	      4176	80005e54	9e6acd93	xori	x27,x21,-1562	 x21:0x80009fc4 x27=0x7fff6622
       41785000	      4177	80005e58	01bb9a33	sll	x20,x23,x27	 x23:0x00000001 x27:0x7fff6622 x20=0x00000004
       41795000	      4178	80005e5c	4140d313	srai	x6,x1,0x14	  x1:0x00000001  x6=0x00000000
       41805000	      4179	80005e60	aeb5b193	sltiu	x3,x11,-1301	 x11:0xf4b6686d  x3=0x00000001
       41815000	      4180	80005e64	00000013	addi	x0,x0,0	  x0:0x00000000
       41825000	      4181	80005e68	01688ab3	add	x21,x17,x22	 x17:0x00000000 x22:0x2e340000 x21=0x2e340000
       41835000	      4182	80005e6c	04c3d263	bge	x7,x12,80005eb0	  x7:0x80009f28 x12:0x0b499794
       41845000	      4183	80005e70	001a4c63	blt	x20,x1,80005e88	 x20:0x00000004  x1:0x00000001
       41855000	      4184	80005e74	00dab2b3	sltu	x5,x21,x13	 x21:0x2e340000 x13:0x00000000  x5=0x00000000
       41865000	      4185	80005e78	64e66193	ori	x3,x12,1614	 x12:0x0b499794  x3=0x0b4997de
       41875000	      4186	80005e7c	40b9d093	srai	x1,x19,0xb	 x19:0x00000001  x1=0x00000000
       41885000	      4187	80005e80	03099663	bne	x19,x16,80005eac	 x19:0x00000001 x16:0x80009f28
       41895000	      4188	00000000	00000013	addi	x0,x0,0	  x0:0x00000000
       41905000	      4189	80005ea8	00000013	addi	x0,x0,0	  x0:0x00000000
       41915000	      4190	80005eac	015d9ab3	sll	x21,x27,x21	 x27:0x7fff6622 x21:0x2e340000 x21=0x7fff6622
       41925000	      4191	80005eb0	055dd663	bge	x27,x21,80005efc	 x27:0x7fff6622 x21:0x7fff6622
       41935000	      4192	00000000	00000013	addi	x0,x0,0	  x0:0x00000000
       41945000	      4193	80005ef8	00000013	addi	x0,x0,0	  x0:0x00000000
       41955000	      4194	80005efc	e2fb3417	auipc	x8,0xe2fb3	  x8=0x62fb8ef8
       41965000	      4195	80005f00	01d8c263	blt	x17,x29,80005f04	 x17:0x00000000 x29:0x00000000
       41975000	      4196	80005f04	00000013	addi	x0,x0,0	  x0:0x00000000
       41985000	      4197	80005f08	01e75993	srli	x19,x14,0x1e	 x14:0x00000000 x19=0x00000000
       41995000	      4198	80005f0c	00000013	addi	x0,x0,0	  x0:0x00000000
       42005000	      4199	80005f10	01a088b3	add	x17,x1,x26	  x1:0x00000000 x26:0x00000000 x17=0x00000000
       42015000	      4200	80005f14	011efab3	and	x21,x29,x17	 x29:0x00000000 x17:0x00000000 x21=0x00000000
       42025000	      4201	80005f18	000b1433	sll	x8,x22,x0	 x22:0x2e340000  x0:0x00000000  x8=0x2e340000
       42035000	      4202	80005f1c	41835a33	sra	x20,x6,x24	  x6:0x00000000 x24:0x00000000 x20=0x00000000
       42045000	      4203	80005f20	05fec693	xori	x13,x29,95	 x29:0x00000000 x13=0x0000005f
       42055000	      4204	80005f24	ff3ee513	ori	x10,x29,-13	 x29:0x00000000 x10=0xfffffff3
       42065000	      4205	80005f28	b616c693	xori	x13,x13,-1183	 x13:0x0000005f x13=0xfffffb3e
       42075000	      4206	80005f2c	00000013	addi	x0,x0,0	  x0:0x00000000
       42085000	      4207	80005f30	00ad9fb3	sll	x31,x27,x10	 x27:0x7fff6622 x10:0xfffffff3 x31=0x31100000
       42095000	      4208	80005f34	01cb4733	xor	x14,x22,x28	 x22:0x2e340000 x28:0x80009fc4 x14=0xae349fc4
       42105000	      4209	80005f38	416284b3	sub	x9,x5,x22	  x5:0x00000000 x22:0x2e340000  x9=0xd1cc0000
       42115000	      4210	80005f3c	0bcd3f17	auipc	x30,0xbcd3	 x30=0x8bcd8f38
       42125000	      4211	80005f40	0433f463	bgeu	x7,x3,80005f88	  x7:0x80009f28  x3:0x0b4997de
       42135000	      4212	00000000	00000013	addi	x0,x0,0	  x0:0x00000000
       42145000	      4213	80005f84	00000013	addi	x0,x0,0	  x0:0x00000000
       42155000	      4214	80005f88	0ee94893	xori	x17,x18,238	 x18:0x475a92a9 x17=0x475a9247
       42165000	      4215	80005f8c	003f1c63	bne	x30,x3,80005fa4	 x30:0x8bcd8f38  x3:0x0b4997de
       42175000	      4216	00000000	00000013	addi	x0,x0,0	  x0:0x00000000
       42185000	      4217	80005fa0	00000013	addi	x0,x0,0	  x0:0x00000000
       42195000	      4218	80005fa4	010b9693	slli	x13,x23,0x10	 x23:0x00000001 x13=0x00010000
       42205000	      4219	80005fa8	01d32bb3	slt	x23,x6,x29	  x6:0x00000000 x29:0x00000000 x23=0x00000000
       42215000	      4220	80005fac	bd3d4813	xori	x16,x26,-1069	 x26:0x00000000 x16=0xfffffbd3
       42225000	      4221	80005fb0	00000013	addi	x0,x0,0	  x0:0x00000000
       42235000	      4222	80005fb4	8fa7fb93	andi	x23,x15,-1798	 x15:0x00000000 x23=0x00000000
       42245000	      4223	80005fb8	481e3a13	sltiu	x20,x28,1153	 x28:0x80009fc4 x20=0x00000000
       42255000	      4224	80005fbc	501c6f13	ori	x30,x24,1281	 x24:0x00000000 x30=0x00000501
       42265000	      4225	80005fc0	997b3493	sltiu	x9,x22,-1641	 x22:0x2e340000  x9=0x00000001
       42275000	      4226	80005fc4	11521263	bne	x4,x21,800060c8	  x4:0x00000001 x21:0x00000000
       42285000	      4227	00000000	00000013	addi	x0,x0,0	  x0:0x00000000
       42295000	      4228	800060c4	00000013	addi	x0,x0,0	  x0:0x00000000
       42305000	      4229	800060c8	01192bb3	slt	x23,x18,x17	 x18:0x475a92a9 x17:0x475a9247 x23=0x00000000
       42315000	      4230	800060cc	01986a33	or	x20,x16,x25	 x16:0xfffffbd3 x25:0x00000000 x20=0xfffffbd3
       42325000	      4231	800060d0	08b60493	addi	x9,x12,139	 x12:0x0b499794  x9=0x0b49981f
       42335000	      4232	800060d4	00c85bb3	srl	x23,x16,x12	 x16:0xfffffbd3 x12:0x0b499794 x23=0x00000fff
       42345000	      4233	800060d8	0056e733	or	x14,x13,x5	 x13:0x00010000  x5:0x00000000 x14=0x00010000
       42355000	      4234	800060dc	01c6a1b3	slt	x3,x13,x28	 x13:0x00010000 x28:0x80009fc4  x3=0x00000000
       42365000	      4235	800060e0	009b7b33	and	x22,x22,x9	 x22:0x2e340000  x9:0x0b49981f x22=0x0a000000
       42375000	      4236	800060e4	01935263	bge	x6,x25,800060e8	  x6:0x00000000 x25:0x00000000
       42385000	      4237	00000000	00000013	addi	x0,x0,0	  x0:0x00000000
       42395000	      4238	800060e4	00000013	addi	x0,x0,0	  x0:0x00000000
       42405000	      4239	800060e8	01ec5c93	srli	x25,x24,0x1e	 x24:0x00000000 x25=0x00000000
       42415000	      4240	800060ec	02a15063	bge	x2,x10,8000610c	  x2:0x80008eb8 x10:0xfffffff3
       42425000	      4241	800060f0	00085893	srli	x17,x16,0x0	 x16:0xfffffbd3 x17=0xfffffbd3
       42435000	      4242	800060f4	00fc76b3	and	x13,x24,x15	 x24:0x00000000 x15:0x00000000 x13=0x00000000
       42445000	      4243	800060f8	b1618513	addi	x10,x3,-1258	  x3:0x00000000 x10=0xfffffb16
       42455000	      4244	800060fc	39410413	addi	x8,x2,916	  x2:0x80008eb8  x8=0x8000924c
       42465000	      4245	80006100	00788cb3	add	x25,x17,x7	 x17:0xfffffbd3  x7:0x80009f28 x25=0x80009afb
       42475000	      4246	80006104	018c59b3	srl	x19,x24,x24	 x24:0x00000000 x24:0x00000000 x19=0x00000000
       42485000	      4247	80006108	00276c63	bltu	x14,x2,80006120	 x14:0x00010000  x2:0x80008eb8
       42495000	      4248	00000000	00000013	addi	x0,x0,0	  x0:0x00000000
       42505000	      4249	8000611c	00000013	addi	x0,x0,0	  x0:0x00000000
       42515000	      4250	80006120	052a6063	bltu	x20,x18,80006160	 x20:0xfffffbd3 x18:0x475a92a9
       42525000	      4251	80006124	01e79993	slli	x19,x15,0x1e	 x15:0x00000000 x19=0x00000000
       42535000	      4252	80006128	01676133	or	x2,x14,x22	 x14:0x00010000 x22:0x0a000000  x2=0x0a010000
       42545000	      4253	8000612c	7d037513	andi	x10,x6,2000	  x6:0x00000000 x10=0x00000000
       42555000	      4254	80006130	00da94b3	sll	x9,x21,x13	 x21:0x00000000 x13:0x00000000  x9=0x00000000
       42565000	      4255	80006134	41f55ab3	sra	x21,x10,x31	 x10:0x00000000 x31:0x31100000 x21=0x00000000
       42575000	      4256	80006138	73206793	ori	x15,x0,1842	  x0:0x00000000 x15=0x00000732
       42585000	      4257	8000613c	02231463	bne	x6,x2,80006164	  x6:0x00000000  x2:0x0a010000
       42595000	      4258	00000000	00000013	addi	x0,x0,0	  x0:0x00000000
       42605000	      4259	80006160	00000013	addi	x0,x0,0	  x0:0x00000000
       42615000	      4260	80006164	00d39b13	slli	x22,x7,0xd	  x7:0x80009f28 x22=0x13e50000
       42625000	      4261	80006168	04a25463	bge	x4,x10,800061b0	  x4:0x00000001 x10:0x00000000
       42635000	      4262	00000000	00000013	addi	x0,x0,0	  x0:0x00000000
       42645000	      4263	800061ac	00000013	addi	x0,x0,0	  x0:0x00000000
       42655000	      4264	800061b0	03e08263	beq	x1,x30,800061d4	  x1:0x00000000 x30:0x00000501
       42665000	      4265	800061b4	4113da13	srai	x20,x7,0x11	  x7:0x80009f28 x20=0xffffc000
       42675000	      4266	800061b8	40fd0133	sub	x2,x26,x15	 x26:0x00000000 x15:0x00000732  x2=0xfffff8ce
       42685000	      4267	800061bc	014e37b3	sltu	x15,x28,x20	 x28:0x80009fc4 x20:0xffffc000 x15=0x00000001
       42695000	      4268	800061c0	f3732e93	slti	x29,x6,-201	  x6:0x00000000 x29=0x00000000
       42705000	      4269	800061c4	c1b0fe93	andi	x29,x1,-997	  x1:0x00000000 x29=0x00000000
       42715000	      4270	800061c8	00525263	bge	x4,x5,800061cc	  x4:0x00000001  x5:0x00000000
       42725000	      4271	00000000	00000013	addi	x0,x0,0	  x0:0x00000000
       42735000	      4272	800061c8	00000013	addi	x0,x0,0	  x0:0x00000000
       42745000	      4273	800061cc	00c54663	blt	x10,x12,800061d8	 x10:0x00000000 x12:0x0b499794
       42755000	      4274	00000000	00000013	addi	x0,x0,0	  x0:0x00000000
       42765000	      4275	800061d4	00000013	addi	x0,x0,0	  x0:0x00000000
       42775000	      4276	800061d8	3be30c17	auipc	x24,0x3be30	 x24=0xbbe361d4
       42785000	      4277	800061dc	03d48263	beq	x9,x29,80006200	  x9:0x00000000 x29:0x00000000
       42795000	      4278	00000000	00000013	addi	x0,x0,0	  x0:0x00000000
       42805000	      4279	800061fc	00000013	addi	x0,x0,0	  x0:0x00000000
       42815000	      4280	80006200	c1501317	auipc	x6,0xc1501	  x6=0x415071fc
       42825000	      4281	80006204	8d0afdb7	lui	x27,0x8d0af	 x27=0x8d0af000
       42835000	      4282	80006208	9ffde8b7	lui	x17,0x9ffde	 x17=0x9ffde000
       42845000	      4283	8000620c	00089263	bne	x17,x0,80006210	 x17:0x9ffde000  x0:0x00000000
       42855000	      4284	00000000	00000013	addi	x0,x0,0	  x0:0x00000000
       42865000	      4285	8000620c	00000013	addi	x0,x0,0	  x0:0x00000000
       42875000	      4286	80006210	b0163d93	sltiu	x27,x12,-1279	 x12:0x0b499794 x27=0x00000001
       42885000	      4287	80006214	006c79b3	and	x19,x24,x6	 x24:0xbbe361d4  x6:0x415071fc x19=0x014061d4
       42895000	      4288	80006218	7e92a993	slti	x19,x5,2025	  x5:0x00000000 x19=0x00000001
       42905000	      4289	8000621c	03afd263	bge	x31,x26,80006240	 x31:0x31100000 x26:0x00000000
       42915000	      4290	00000000	00000013	addi	x0,x0,0	  x0:0x00000000
       42925000	      4291	8000623c	00000013	addi	x0,x0,0	  x0:0x00000000
       42935000	      4292	80006240	d7a7c793	xori	x15,x15,-646	 x15:0x00000001 x15=0xfffffd7b
       42945000	      4293	80006244	40dc8233	sub	x4,x25,x13	 x25:0x80009afb x13:0x00000000  x4=0x80009afb
       42955000	      4294	80006248	4197d533	sra	x10,x15,x25	 x15:0xfffffd7b x25:0x80009afb x10=0xffffffff
       42965000	      4295	8000624c	017e6f33	or	x30,x28,x23	 x28:0x80009fc4 x23:0x00000fff x30=0x80009fff
       42975000	      4296	80006250	008b37b3	sltu	x15,x22,x8	 x22:0x13e50000  x8:0x8000924c x15=0x00000001
       42985000	      4297	80006254	01bfbdb3	sltu	x27,x31,x27	 x31:0x31100000 x27:0x00000001 x27=0x00000000
       42995000	      4298	80006258	00a85eb3	srl	x29,x16,x10	 x16:0xfffffbd3 x10:0xffffffff x29=0x00000001
       43005000	      4299	8000625c	00d3de63	bge	x7,x13,80006278	  x7:0x80009f28 x13:0x00000000
       43015000	      4300	80006260	01041893	slli	x17,x8,0x10	  x8:0x8000924c x17=0x924c0000
       43025000	      4301	80006264	003a9313	slli	x6,x21,0x3	 x21:0x00000000  x6=0x00000000
       43035000	      4302	80006268	05a8f863	bgeu	x17,x26,800062b8	 x17:0x924c0000 x26:0x00000000
       43045000	      4303	00000000	00000013	addi	x0,x0,0	  x0:0x00000000
       43055000	      4304	800062b4	00000013	addi	x0,x0,0	  x0:0x00000000
       43065000	      4305	800062b8	8a742493	slti	x9,x8,-1881	  x8:0x8000924c  x9=0x00000001
       43075000	      4306	800062bc	0291da63	bge	x3,x9,800062f0	  x3:0x00000000  x9:0x00000001
       43085000	      4307	800062c0	41250433	sub	x8,x10,x18	 x10:0xffffffff x18:0x475a92a9  x8=0xb8a56d56
       43095000	      4308	800062c4	00f5d7b3	srl	x15,x11,x15	 x11:0xf4b6686d x15:0x00000001 x15=0x7a5b3436
       43105000	      4309	800062c8	013b0a63	beq	x22,x19,800062dc	 x22:0x13e50000 x19:0x00000001
       43115000	      4310	800062cc	002f9b93	slli	x23,x31,0x2	 x31:0x31100000 x23=0xc4400000
       43125000	      4311	800062d0	40d45b33	sra	x22,x8,x13	  x8:0xb8a56d56 x13:0x00000000 x22=0xb8a56d56
       43135000	      4312	800062d4	187cd2b7	lui	x5,0x187cd	  x5=0x187cd000
       43145000	      4313	800062d8	eb4f0b93	addi	x23,x30,-332	 x30:0x80009fff x23=0x80009eb3
       43155000	      4314	800062dc	013eec63	bltu	x29,x19,800062f4	 x29:0x00000001 x19:0x00000001
       43165000	      4315	800062e0	0122f333	and	x6,x5,x18	  x5:0x187cd000 x18:0x475a92a9  x6=0x00589000
       43175000	      4316	800062e4	00000013	addi	x0,x0,0	  x0:0x00000000
       43185000	      4317	800062e8	9d5e3493	sltiu	x9,x28,-1579	 x28:0x80009fc4  x9=0x00000001
       43195000	      4318	800062ec	017094b3	sll	x9,x1,x23	  x1:0x00000000 x23:0x80009eb3  x9=0x00000000
       43205000	      4319	800062f0	40ca5693	srai	x13,x20,0xc	 x20:0xffffc000 x13=0xfffffffc
       43215000	      4320	800062f4	23986237	lui	x4,0x23986	  x4=0x23986000
       43225000	      4321	800062f8	00845b13	srli	x22,x8,0x8	  x8:0xb8a56d56 x22=0x00b8a56d
       43235000	      4322	800062fc	05e19863	bne	x3,x30,8000634c	  x3:0x00000000 x30:0x80009fff
       43245000	      4323	00000000	00000013	addi	x0,x0,0	  x0:0x00000000
       43255000	      4324	80006348	00000013	addi	x0,x0,0	  x0:0x00000000
       43265000	      4325	8000634c	4b4b6713	ori	x14,x22,1204	 x22:0x00b8a56d x14=0x00b8a5fd
       43275000	      4326	80006350	01138c63	beq	x7,x17,80006368	  x7:0x80009f28 x17:0x924c0000
       43285000	      4327	80006354	0194dd33	srl	x26,x9,x25	  x9:0x00000000 x25:0x80009afb x26=0x00000000
       43295000	      4328	80006358	2fcf2f13	slti	x30,x30,764	 x30:0x80009fff x30=0x00000001
       43305000	      4329	8000635c	41efd8b3	sra	x17,x31,x30	 x31:0x31100000 x30:0x00000001 x17=0x18880000
       43315000	      4330	80006360	404d51b3	sra	x3,x26,x4	 x26:0x00000000  x4:0x23986000  x3=0x00000000
       43325000	      4331	80006364	00efda13	srli	x20,x31,0xe	 x31:0x31100000 x20=0x0000c440
       43335000	      4332	80006368	01b92233	slt	x4,x18,x27	 x18:0x475a92a9 x27:0x00000000  x4=0x00000000
       43345000	      4333	8000636c	01e19263	bne	x3,x30,80006370	  x3:0x00000000 x30:0x00000001
       43355000	      4334	00000000	00000013	addi	x0,x0,0	  x0:0x00000000
       43365000	      4335	8000636c	00000013	addi	x0,x0,0	  x0:0x00000000
       43375000	      4336	80006370	00409f33	sll	x30,x1,x4	  x1:0x00000000  x4:0x00000000 x30=0x00000000
       43385000	      4337	80006374	5dd9bb13	sltiu	x22,x19,1501	 x19:0x00000001 x22=0x00000001
       43395000	      4338	80006378	019148b3	xor	x17,x2,x25	  x2:0xfffff8ce x25:0x80009afb x17=0x7fff6235
       43405000	      4339	8000637c	00b1e833	or	x16,x3,x11	  x3:0x00000000 x11:0xf4b6686d x16=0xf4b6686d
       43415000	      4340	80006380	031f4863	blt	x30,x17,800063b0	 x30:0x00000000 x17:0x7fff6235
       43425000	      4341	00000000	00000013	addi	x0,x0,0	  x0:0x00000000
       43435000	      4342	800063ac	00000013	addi	x0,x0,0	  x0:0x00000000
       43445000	      4343	800063b0	1e674d93	xori	x27,x14,486	 x14:0x00b8a5fd x27=0x00b8a41b
       43455000	      4344	800063b4	a1e07217	auipc	x4,0xa1e07	  x4=0x21e0d3b0
       43465000	      4345	800063b8	003e4333	xor	x6,x28,x3	 x28:0x80009fc4  x3:0x00000000  x6=0x80009fc4
       43475000	      4346	800063bc	07b06293	ori	x5,x0,123	  x0:0x00000000  x5=0x0000007b
       43485000	      4347	800063c0	4029d2b3	sra	x5,x19,x2	 x19:0x00000001  x2:0xfffff8ce  x5=0x00000000
       43495000	      4348	800063c4	41635d93	srai	x27,x6,0x16	  x6:0x80009fc4 x27=0xfffffe00
       43505000	      4349	800063c8	41c1d713	srai	x14,x3,0x1c	  x3:0x00000000 x14=0x00000000
       43515000	      4350	800063cc	05206063	bltu	x0,x18,8000640c	  x0:0x00000000 x18:0x475a92a9
       43525000	      4351	00000000	00000013	addi	x0,x0,0	  x0:0x00000000
       43535000	      4352	80006408	00000013	addi	x0,x0,0	  x0:0x00000000
       43545000	      4353	8000640c	009ef8b3	and	x17,x29,x9	 x29:0x00000001  x9:0x00000000 x17=0x00000000
       43555000	      4354	80006410	01327b33	and	x22,x4,x19	  x4:0x21e0d3b0 x19:0x00000001 x22=0x00000000
       43565000	      4355	80006414	01345313	srli	x6,x8,0x13	  x8:0xb8a56d56  x6=0x00001714
       43575000	      4356	80006418	00000013	addi	x0,x0,0	  x0:0x00000000
       43585000	      4357	8000641c	7e563a93	sltiu	x21,x12,2021	 x12:0x0b499794 x21=0x00000000
       43595000	      4358	80006420	441e8513	addi	x10,x29,1089	 x29:0x00000001 x10=0x00000442
       43605000	      4359	80006424	f3a996b7	lui	x13,0xf3a99	 x13=0xf3a99000
       43615000	      4360	80006428	01335333	srl	x6,x6,x19	  x6:0x00001714 x19:0x00000001  x6=0x00000b8a
       43625000	      4361	8000642c	00619fb3	sll	x31,x3,x6	  x3:0x00000000  x6:0x00000b8a x31=0x00000000
       43635000	      4362	80006430	035be663	bltu	x23,x21,8000645c	 x23:0x80009eb3 x21:0x00000000
       43645000	      4363	80006434	00b4dd33	srl	x26,x9,x11	  x9:0x00000000 x11:0xf4b6686d x26=0x00000000
       43655000	      4364	80006438	01b4e733	or	x14,x9,x27	  x9:0x00000000 x27:0xfffffe00 x14=0xfffffe00
       43665000	      4365	8000643c	00000013	addi	x0,x0,0	  x0:0x00000000
       43675000	      4366	80006440	01a171b3	and	x3,x2,x26	  x2:0xfffff8ce x26:0x00000000  x3=0x00000000
       43685000	      4367	80006444	03f0d463	bge	x1,x31,8000646c	  x1:0x00000000 x31:0x00000000
       43695000	      4368	00000000	00000013	addi	x0,x0,0	  x0:0x00000000
       43705000	      4369	80006468	00000013	addi	x0,x0,0	  x0:0x00000000
       43715000	      4370	8000646c	ed88b893	sltiu	x17,x17,-296	 x17:0x00000000 x17=0x00000001
       43725000	      4371	80006470	03b87663	bgeu	x16,x27,8000649c	 x16:0xf4b6686d x27:0xfffffe00
       43735000	      4372	80006474	c5eb2193	slti	x3,x22,-930	 x22:0x00000000  x3=0x00000000
       43745000	      4373	80006478	4093d813	srai	x16,x7,0x9	  x7:0x80009f28 x16=0xffc0004f
       43755000	      4374	8000647c	41615833	sra	x16,x2,x22	  x2:0xfffff8ce x22:0x00000000 x16=0xfffff8ce
       43765000	      4375	80006480	c35d7693	andi	x13,x26,-971	 x26:0x00000000 x13=0x00000000
       43775000	      4376	80006484	00ee0333	add	x6,x28,x14	 x28:0x80009fc4 x14:0xfffffe00  x6=0x80009dc4
       43785000	      4377	80006488	00000013	addi	x0,x0,0	  x0:0x00000000
       43795000	      4378	8000648c	019d1c63	bne	x26,x25,800064a4	 x26:0x00000000 x25:0x80009afb
       43805000	      4379	00000000	00000013	addi	x0,x0,0	  x0:0x00000000
       43815000	      4380	800064a0	00000013	addi	x0,x0,0	  x0:0x00000000
       43825000	      4381	800064a4	cbfa0793	addi	x15,x20,-833	 x20:0x0000c440 x15=0x0000c0ff
       43835000	      4382	800064a8	2df72d93	slti	x27,x14,735	 x14:0xfffffe00 x27=0x00000001
       43845000	      4383	800064ac	377cff93	andi	x31,x25,887	 x25:0x80009afb x31=0x00000273
       43855000	      4384	800064b0	a2a83093	sltiu	x1,x16,-1494	 x16:0xfffff8ce  x1=0x00000001
       43865000	      4385	800064b4	0087ca63	blt	x15,x8,800064c8	 x15:0x0000c0ff  x8:0xb8a56d56
       43875000	      4386	800064b8	011c1d33	sll	x26,x24,x17	 x24:0xbbe361d4 x17:0x00000001 x26=0x77c6c3a8
       43885000	      4387	800064bc	405adc13	srai	x24,x21,0x5	 x21:0x00000000 x24=0x00000000
       43895000	      4388	800064c0	01043eb3	sltu	x29,x8,x16	  x8:0xb8a56d56 x16:0xfffff8ce x29=0x00000001
       43905000	      4389	800064c4	0161b433	sltu	x8,x3,x22	  x3:0x00000000 x22:0x00000000  x8=0x00000000
       43915000	      4390	800064c8	016ff8b3	and	x17,x31,x22	 x31:0x00000273 x22:0x00000000 x17=0x00000000
       43925000	      4391	800064cc	0105d663	bge	x11,x16,800064d8	 x11:0xf4b6686d x16:0xfffff8ce
       43935000	      4392	800064d0	03c29a63	bne	x5,x28,80006504	  x5:0x00000000 x28:0x80009fc4
       43945000	      4393	00000000	00000013	addi	x0,x0,0	  x0:0x00000000
       43955000	      4394	80006500	00000013	addi	x0,x0,0	  x0:0x00000000
       43965000	      4395	80006504	5fe47513	andi	x10,x8,1534	  x8:0x00000000 x10=0x00000000
       43975000	      4396	80006508	00000013	addi	x0,x0,0	  x0:0x00000000
       43985000	      4397	8000650c	0303d263	bge	x7,x16,80006530	  x7:0x80009f28 x16:0xfffff8ce
       43995000	      4398	80006510	00793a33	sltu	x20,x18,x7	 x18:0x475a92a9  x7:0x80009f28 x20=0x00000001
       44005000	      4399	80006514	759a8793	addi	x15,x21,1881	 x21:0x00000000 x15=0x00000759
       44015000	      4400	80006518	dcfa3b17	auipc	x22,0xdcfa3	 x22=0x5cfa9514
       44025000	      4401	8000651c	8a8c6c13	ori	x24,x24,-1880	 x24:0x00000000 x24=0xfffff8a8
       44035000	      4402	80006520	00000013	addi	x0,x0,0	  x0:0x00000000
       44045000	      4403	80006524	40e5deb3	sra	x29,x11,x14	 x11:0xf4b6686d x14:0xfffffe00 x29=0xf4b6686d
       44055000	      4404	80006528	03f47063	bgeu	x8,x31,80006548	  x8:0x00000000 x31:0x00000273
       44065000	      4405	8000652c	0303f063	bgeu	x7,x16,8000654c	  x7:0x80009f28 x16:0xfffff8ce
       44075000	      4406	80006530	da2ec893	xori	x17,x29,-606	 x29:0xf4b6686d x17=0x0b4995cf
       44085000	      4407	80006534	01623db3	sltu	x27,x4,x22	  x4:0x21e0d3b0 x22:0x5cfa9514 x27=0x00000001
       44095000	      4408	80006538	40438f33	sub	x30,x7,x4	  x7:0x80009f28  x4:0x21e0d3b0 x30=0x5e1fcb78
       44105000	      4409	8000653c	05f67263	bgeu	x12,x31,80006580	 x12:0x0b499794 x31:0x00000273
       44115000	      4410	00000000	00000013	addi	x0,x0,0	  x0:0x00000000
       44125000	      4411	8000657c	00000013	addi	x0,x0,0	  x0:0x00000000
       44135000	      4412	80006580	856ec893	xori	x17,x29,-1962	 x29:0xf4b6686d x17=0x0b49903b
       44145000	      4413	80006584	411707b3	sub	x15,x14,x17	 x14:0xfffffe00 x17:0x0b49903b x15=0xf4b66dc5
       44155000	      4414	80006588	00814c63	blt	x2,x8,800065a0	  x2:0xfffff8ce  x8:0x00000000
       44165000	      4415	00000000	00000013	addi	x0,x0,0	  x0:0x00000000
       44175000	      4416	8000659c	00000013	addi	x0,x0,0	  x0:0x00000000
       44185000	      4417	800065a0	01eacf93	xori	x31,x21,30	 x21:0x00000000 x31=0x0000001e
       44195000	      4418	800065a4	0036f733	and	x14,x13,x3	 x13:0x00000000  x3:0x00000000 x14=0x00000000
       44205000	      4419	800065a8	4f323437	lui	x8,0x4f323	  x8=0x4f323000
       44215000	      4420	800065ac	01ea5993	srli	x19,x20,0x1e	 x20:0x00000001 x19=0x00000000
       44225000	      4421	800065b0	01bd0a63	beq	x26,x27,800065c4	 x26:0x77c6c3a8 x27:0x00000001
       44235000	      4422	800065b4	412bd133	sra	x2,x23,x18	 x23:0x80009eb3 x18:0x475a92a9  x2=0xffc0004f
       44245000	      4423	800065b8	004c1213	slli	x4,x24,0x4	 x24:0xfffff8a8  x4=0xffff8a80
       44255000	      4424	800065bc	00519b93	slli	x23,x3,0x5	  x3:0x00000000 x23=0x00000000
       44265000	      4425	800065c0	3bf277b7	lui	x15,0x3bf27	 x15=0x3bf27000
       44275000	      4426	800065c4	00000013	addi	x0,x0,0	  x0:0x00000000
       44285000	      4427	800065c8	00000013	addi	x0,x0,0	  x0:0x00000000
       44295000	      4428	800065cc	055ae063	bltu	x21,x21,8000660c	 x21:0x00000000 x21:0x00000000
       44305000	      4429	800065d0	7a402413	slti	x8,x0,1956	  x0:0x00000000  x8=0x00000001
       44315000	      4430	800065d4	36746f93	ori	x31,x8,871	  x8:0x00000001 x31=0x00000367
       44325000	      4431	800065d8	00e36833	or	x16,x6,x14	  x6:0x80009dc4 x14:0x00000000 x16=0x80009dc4
       44335000	      4432	800065dc	01cbc6b3	xor	x13,x23,x28	 x23:0x00000000 x28:0x80009fc4 x13=0x80009fc4
       44345000	      4433	800065e0	01889f93	slli	x31,x17,0x18	 x17:0x0b49903b x31=0x3b000000
       44355000	      4434	800065e4	282b2d17	auipc	x26,0x282b2	 x26=0xa82b85e0
       44365000	      4435	800065e8	0142aa33	slt	x20,x5,x20	  x5:0x00000000 x20:0x00000001 x20=0x00000001
       44375000	      4436	800065ec	01a79b33	sll	x22,x15,x26	 x15:0x3bf27000 x26:0xa82b85e0 x22=0x3bf27000
       44385000	      4437	800065f0	00d7e1b3	or	x3,x15,x13	 x15:0x3bf27000 x13:0x80009fc4  x3=0xbbf2ffc4
       44395000	      4438	800065f4	018fe263	bltu	x31,x24,800065f8	 x31:0x3b000000 x24:0xfffff8a8
       44405000	      4439	00000000	00000013	addi	x0,x0,0	  x0:0x00000000
       44415000	      4440	800065f4	00000013	addi	x0,x0,0	  x0:0x00000000
       44425000	      4441	800065f8	00000013	addi	x0,x0,0	  x0:0x00000000
       44435000	      4442	800065fc	412bdbb3	sra	x23,x23,x18	 x23:0x00000000 x18:0x475a92a9 x23=0x00000000
       44445000	      4443	80006600	018c0cb3	add	x25,x24,x24	 x24:0xfffff8a8 x24:0xfffff8a8 x25=0xfffff150
       44455000	      4444	80006604	016465b3	or	x11,x8,x22	  x8:0x00000001 x22:0x3bf27000 x11=0x3bf27001
       44465000	      4445	80006608	a4230413	addi	x8,x6,-1470	  x6:0x80009dc4  x8=0x80009806
       44475000	      4446	8000660c	409ade93	srai	x29,x21,0x9	 x21:0x00000000 x29=0x00000000
       44485000	      4447	80006610	726fb413	sltiu	x8,x31,1830	 x31:0x3b000000  x8=0x00000000
       44495000	      4448	80006614	00aad213	srli	x4,x21,0xa	 x21:0x00000000  x4=0x00000000
       44505000	      4449	80006618	f7a4e193	ori	x3,x9,-134	  x9:0x00000000  x3=0xffffff7a
       44515000	      4450	8000661c	00000013	addi	x0,x0,0	  x0:0x00000000
       44525000	      4451	80006620	3dbab193	sltiu	x3,x21,987	 x21:0x00000000  x3=0x00000001
       44535000	      4452	80006624	044fe663	bltu	x31,x4,80006670	 x31:0x3b000000  x4:0x00000000
       44545000	      4453	80006628	05178863	beq	x15,x17,80006678	 x15:0x3bf27000 x17:0x0b49903b
       44555000	      4454	8000662c	6c848a13	addi	x20,x9,1736	  x9:0x00000000 x20=0x000006c8
       44565000	      4455	80006630	40075693	srai	x13,x14,0x0	 x14:0x00000000 x13=0x00000000
       44575000	      4456	80006634	9a040897	auipc	x17,0x9a040	 x17=0x1a046630
       44585000	      4457	80006638	00c99db3	sll	x27,x19,x12	 x19:0x00000000 x12:0x0b499794 x27=0x00000000
       44595000	      4458	8000663c	4050d1b3	sra	x3,x1,x5	  x1:0x00000001  x5:0x00000000  x3=0x00000001
       44605000	      4459	80006640	00dff533	and	x10,x31,x13	 x31:0x3b000000 x13:0x00000000 x10=0x00000000
       44615000	      4460	80006644	01bf5c63	bge	x30,x27,8000665c	 x30:0x5e1fcb78 x27:0x00000000
       44625000	      4461	00000000	00000013	addi	x0,x0,0	  x0:0x00000000
       44635000	      4462	80006658	00000013	addi	x0,x0,0	  x0:0x00000000
       44645000	      4463	8000665c	02b75263	bge	x14,x11,80006680	 x14:0x00000000 x11:0x3bf27001
       44655000	      4464	80006660	5f44a313	slti	x6,x9,1524	  x9:0x00000000  x6=0x00000001
       44665000	      4465	80006664	40d2d633	sra	x12,x5,x13	  x5:0x00000000 x13:0x00000000 x12=0x00000000
       44675000	      4466	80006668	b4132197	auipc	x3,0xb4132	  x3=0x34138664
       44685000	      4467	8000666c	00423c33	sltu	x24,x4,x4	  x4:0x00000000  x4:0x00000000 x24=0x00000000
       44695000	      4468	80006670	01039513	slli	x10,x7,0x10	  x7:0x80009f28 x10=0x9f280000
       44705000	      4469	80006674	070fe593	ori	x11,x31,112	 x31:0x3b000000 x11=0x3b000070
       44715000	      4470	80006678	40e65d93	srai	x27,x12,0xe	 x12:0x00000000 x27=0x00000000
       44725000	      4471	8000667c	8e85e493	ori	x9,x11,-1816	 x11:0x3b000070  x9=0xfffff8f8
       44735000	      4472	80006680	006edeb3	srl	x29,x29,x6	 x29:0x00000000  x6:0x00000001 x29=0x00000000
       44745000	      4473	80006684	a302a713	slti	x14,x5,-1488	  x5:0x00000000 x14=0x00000000
       44755000	      4474	80006688	79c5a417	auipc	x8,0x79c5a	  x8=0xf9c60684
       44765000	      4475	8000668c	00af8c33	add	x24,x31,x10	 x31:0x3b000000 x10:0x9f280000 x24=0xda280000
       44775000	      4476	80006690	39657693	andi	x13,x10,918	 x10:0x9f280000 x13=0x00000000
       44785000	      4477	80006694	0191ca63	blt	x3,x25,800066a8	  x3:0x34138664 x25:0xfffff150
       44795000	      4478	80006698	b95dcd93	xori	x27,x27,-1131	 x27:0x00000000 x27=0xfffffb95
       44805000	      4479	8000669c	70a5a493	slti	x9,x11,1802	 x11:0x3b000070  x9=0x00000000
       44815000	      4480	800066a0	cd2afb93	andi	x23,x21,-814	 x21:0x00000000 x23=0x00000000
       44825000	      4481	800066a4	00ee5f33	srl	x30,x28,x14	 x28:0x80009fc4 x14:0x00000000 x30=0x80009fc4
       44835000	      4482	800066a8	01471663	bne	x14,x20,800066b4	 x14:0x00000000 x20:0x000006c8
       44845000	      4483	00000000	00000013	addi	x0,x0,0	  x0:0x00000000
       44855000	      4484	800066b0	00000013	addi	x0,x0,0	  x0:0x00000000
       44865000	      4485	800066b4	019ebfb3	sltu	x31,x29,x25	 x29:0x00000000 x25:0xfffff150 x31=0x00000001
       44875000	      4486	800066b8	058f4863	blt	x30,x24,80006708	 x30:0x80009fc4 x24:0xda280000
       44885000	      4487	00000000	00000013	addi	x0,x0,0	  x0:0x00000000
       44895000	      4488	80006704	00000013	addi	x0,x0,0	  x0:0x00000000
       44905000	      4489	80006708	003a5a13	srli	x20,x20,0x3	 x20:0x000006c8 x20=0x000000d9
       44915000	      4490	8000670c	008c6c63	bltu	x24,x8,80006724	 x24:0xda280000  x8:0xf9c60684
       44925000	      4491	00000000	00000013	addi	x0,x0,0	  x0:0x00000000
       44935000	      4492	80006720	00000013	addi	x0,x0,0	  x0:0x00000000
       44945000	      4493	80006724	0110b7b3	sltu	x15,x1,x17	  x1:0x00000001 x17:0x1a046630 x15=0x00000001
       44955000	      4494	80006728	996ec513	xori	x10,x29,-1642	 x29:0x00000000 x10=0xfffff996
       44965000	      4495	8000672c	0043a183	lw	x3,4(x7)	  x7:0x80009f28  x3=0x800069b4 PA:0x80009f2c
       44975000	      4496	80006730	4077db93	srai	x23,x15,0x7	 x15:0x00000001 x23=0x00000000
       44985000	      4497	80006734	00c61493	slli	x9,x12,0xc	 x12:0x00000000  x9=0x00000000
       44995000	      4498	80006738	03038393	addi	x7,x7,48	  x7:0x80009f28  x7=0x80009f58
       45005000	      4499	8000673c	41b35f33	sra	x30,x6,x27	  x6:0x00000001 x27:0xfffffb95 x30=0x00000000
       45015000	      4500	80006740	00118493	addi	x9,x3,1	  x3:0x800069b4  x9=0x800069b5
       45025000	      4501	80006744	000484e7	jalr	x9,x9,0	  x9:0x800069b5  x9=0x80006744
       45035000	      4502	00000000	00000013	addi	x0,x0,0	  x0:0x00000000
       45045000	      4503	800069b4	00000013	addi	x0,x0,0	  x0:0x00000000
       45055000	      4504	800069b8	3be5dab7	lui	x21,0x3be5d	 x21=0x3be5d000
       45065000	      4505	800069bc	8cca0197	auipc	x3,0x8cca0	  x3=0x0cca69b8
       45075000	      4506	800069c0	01c5adb3	slt	x27,x11,x28	 x11:0x3b000070 x28:0x80009fc4 x27=0x00000000
       45085000	      4507	800069c4	b26dc897	auipc	x17,0xb26dc	 x17=0x326e29c0
       45095000	      4508	800069c8	01a5e463	bltu	x11,x26,800069d0	 x11:0x3b000070 x26:0xa82b85e0
       45105000	      4509	00000000	00000013	addi	x0,x0,0	  x0:0x00000000
       45115000	      4510	800069cc	00000013	addi	x0,x0,0	  x0:0x00000000
       45125000	      4511	800069d0	d79ff1ef	jal	x3,800069d0	  x3=0x800069d0
       45135000	      4512	00000000	00000013	addi	x0,x0,0	  x0:0x00000000
       45145000	      4513	80006744	00000013	addi	x0,x0,0	  x0:0x00000000
       45155000	      4514	80006748	01c75863	bge	x14,x28,80006758	 x14:0x00000000 x28:0x80009fc4
       45165000	      4515	00000000	00000013	addi	x0,x0,0	  x0:0x00000000
       45175000	      4516	80006754	00000013	addi	x0,x0,0	  x0:0x00000000
       45185000	      4517	80006758	ff038393	addi	x7,x7,-16	  x7:0x80009f58  x7=0x80009f48
       45195000	      4518	8000675c	00cfa733	slt	x14,x31,x12	 x31:0x00000001 x12:0x00000000 x14=0x00000000
       45205000	      4519	80006760	0033a223	sw	x3,4(x7)	  x7:0x80009f48  x3:0x800069d0 PA:0x80009f4c
       45215000	      4520	80006764	dad50b93	addi	x23,x10,-595	 x10:0xfffff996 x23=0xfffff743
       45225000	      4521	80006768	0101d293	srli	x5,x3,0x10	  x3:0x800069d0  x5=0x00008000
       45235000	      4522	8000676c	00393cb3	sltu	x25,x18,x3	 x18:0x475a92a9  x3:0x800069d0 x25=0x00000001
       45245000	      4523	80006770	eb8b6d93	ori	x27,x22,-328	 x22:0x3bf27000 x27=0xfffffeb8
       45255000	      4524	80006774	0206d463	bge	x13,x0,8000679c	 x13:0x00000000  x0:0x00000000
       45265000	      4525	00000000	00000013	addi	x0,x0,0	  x0:0x00000000
       45275000	      4526	80006798	00000013	addi	x0,x0,0	  x0:0x00000000
       45285000	      4527	8000679c	00e5d293	srli	x5,x11,0xe	 x11:0x3b000070  x5=0x0000ec00
       45295000	      4528	800067a0	00c28263	beq	x5,x12,800067a4	  x5:0x0000ec00 x12:0x00000000
       45305000	      4529	800067a4	40185a93	srai	x21,x16,0x1	 x16:0x80009dc4 x21=0xc0004ee2
       45315000	      4530	800067a8	d14d7713	andi	x14,x26,-748	 x26:0xa82b85e0 x14=0xa82b8500
       45325000	      4531	800067ac	03b35463	bge	x6,x27,800067d4	  x6:0x00000001 x27:0xfffffeb8
       45335000	      4532	00000000	00000013	addi	x0,x0,0	  x0:0x00000000
       45345000	      4533	800067d0	00000013	addi	x0,x0,0	  x0:0x00000000
       45355000	      4534	800067d4	02509a63	bne	x1,x5,80006808	  x1:0x00000001  x5:0x0000ec00
       45365000	      4535	00000000	00000013	addi	x0,x0,0	  x0:0x00000000
       45375000	      4536	80006804	00000013	addi	x0,x0,0	  x0:0x00000000
       45385000	      4537	80006808	767bcd13	xori	x26,x23,1895	 x23:0xfffff743 x26=0xfffff024
       45395000	      4538	8000680c	c7ac8837	lui	x16,0xc7ac8	 x16=0xc7ac8000
       45405000	      4539	80006810	0175d533	srl	x10,x11,x23	 x11:0x3b000070 x23:0xfffff743 x10=0x0760000e
       45415000	      4540	80006814	00000013	addi	x0,x0,0	  x0:0x00000000
       45425000	      4541	80006818	40515093	srai	x1,x2,0x5	  x2:0xffc0004f  x1=0xfffe0002
       45435000	      4542	8000681c	00201733	sll	x14,x0,x2	  x0:0x00000000  x2:0xffc0004f x14=0x00000000
       45445000	      4543	80006820	052b5063	bge	x22,x18,80006860	 x22:0x3bf27000 x18:0x475a92a9
       45455000	      4544	80006824	005f3b33	sltu	x22,x30,x5	 x30:0x00000000  x5:0x0000ec00 x22=0x00000001
       45465000	      4545	80006828	b6daaa17	auipc	x20,0xb6daa	 x20=0x36db0824
       45475000	      4546	8000682c	f78fc093	xori	x1,x31,-136	 x31:0x00000001  x1=0xffffff79
       45485000	      4547	80006830	0000dc33	srl	x24,x1,x0	  x1:0xffffff79  x0:0x00000000 x24=0xffffff79
       45495000	      4548	80006834	01f04f33	xor	x30,x0,x31	  x0:0x00000000 x31:0x00000001 x30=0x00000001
       45505000	      4549	80006838	769a6993	ori	x19,x20,1897	 x20:0x36db0824 x19=0x36db0f6d
       45515000	      4550	8000683c	405558b3	sra	x17,x10,x5	 x10:0x0760000e  x5:0x0000ec00 x17=0x0760000e
       45525000	      4551	80006840	c9ceb613	sltiu	x12,x29,-868	 x29:0x00000000 x12=0x00000001
       45535000	      4552	80006844	018852b3	srl	x5,x16,x24	 x16:0xc7ac8000 x24:0xffffff79  x5=0x00000063
       45545000	      4553	80006848	01335263	bge	x6,x19,8000684c	  x6:0x00000001 x19:0x36db0f6d
       45555000	      4554	8000684c	00100633	add	x12,x0,x1	  x0:0x00000000  x1:0xffffff79 x12=0xffffff79
       45565000	      4555	80006850	01a78d33	add	x26,x15,x26	 x15:0x00000001 x26:0xfffff024 x26=0xfffff025
       45575000	      4556	80006854	7a9ded17	auipc	x26,0x7a9de	 x26=0xfa9e4850
       45585000	      4557	80006858	01425ab3	srl	x21,x4,x20	  x4:0x00000000 x20:0x36db0824 x21=0x00000000
       45595000	      4558	8000685c	41b9d5b3	sra	x11,x19,x27	 x19:0x36db0f6d x27:0xfffffeb8 x11=0x00000036
       45605000	      4559	80006860	41b4d193	srai	x3,x9,0x1b	  x9:0x80006744  x3=0xfffffff0
       45615000	      4560	80006864	04665463	bge	x12,x6,800068ac	 x12:0xffffff79  x6:0x00000001
       45625000	      4561	80006868	41288133	sub	x2,x17,x18	 x17:0x0760000e x18:0x475a92a9  x2=0xc0056d65
       45635000	      4562	8000686c	9cd9b813	sltiu	x16,x19,-1587	 x19:0x36db0f6d x16=0x00000001
       45645000	      4563	80006870	0095feb3	and	x29,x11,x9	 x11:0x00000036  x9:0x80006744 x29=0x00000004
       45655000	      4564	80006874	bb78c1b7	lui	x3,0xbb78c	  x3=0xbb78c000
       45665000	      4565	80006878	0138edb3	or	x27,x17,x19	 x17:0x0760000e x19:0x36db0f6d x27=0x37fb0f6f
       45675000	      4566	8000687c	9f6b7793	andi	x15,x22,-1546	 x22:0x00000001 x15=0x00000000
       45685000	      4567	80006880	00859213	slli	x4,x11,0x8	 x11:0x00000036  x4=0x00003600
       45695000	      4568	80006884	0300c063	blt	x1,x16,800068a4	  x1:0xffffff79 x16:0x00000001
       45705000	      4569	00000000	00000013	addi	x0,x0,0	  x0:0x00000000
       45715000	      4570	800068a0	00000013	addi	x0,x0,0	  x0:0x00000000
       45725000	      4571	800068a4	410ba893	slti	x17,x23,1040	 x23:0xfffff743 x17=0x00000001
       45735000	      4572	800068a8	149e4c13	xori	x24,x28,329	 x28:0x80009fc4 x24=0x80009e8d
       45745000	      4573	800068ac	01163b33	sltu	x22,x12,x17	 x12:0xffffff79 x17:0x00000001 x22=0x00000000
       45755000	      4574	800068b0	013f3713	sltiu	x14,x30,19	 x30:0x00000001 x14=0x00000001
       45765000	      4575	800068b4	0082fbb3	and	x23,x5,x8	  x5:0x00000063  x8:0xf9c60684 x23=0x00000000
       45775000	      4576	800068b8	01bc6833	or	x16,x24,x27	 x24:0x80009e8d x27:0x37fb0f6f x16=0xb7fb9fef
       45785000	      4577	800068bc	03454a63	blt	x10,x20,800068f0	 x10:0x0760000e x20:0x36db0824
       45795000	      4578	00000000	00000013	addi	x0,x0,0	  x0:0x00000000
       45805000	      4579	800068ec	00000013	addi	x0,x0,0	  x0:0x00000000
       45815000	      4580	800068f0	005d7863	bgeu	x26,x5,80006900	 x26:0xfa9e4850  x5:0x00000063
       45825000	      4581	00000000	00000013	addi	x0,x0,0	  x0:0x00000000
       45835000	      4582	800068fc	00000013	addi	x0,x0,0	  x0:0x00000000
       45845000	      4583	80006900	7584fd93	andi	x27,x9,1880	  x9:0x80006744 x27=0x00000740
       45855000	      4584	80006904	041f6263	bltu	x30,x1,80006948	 x30:0x00000001  x1:0xffffff79
       45865000	      4585	00000000	00000013	addi	x0,x0,0	  x0:0x00000000
       45875000	      4586	80006944	00000013	addi	x0,x0,0	  x0:0x00000000
       45885000	      4587	80006948	00f48d33	add	x26,x9,x15	  x9:0x80006744 x15:0x00000000 x26=0x80006744
       45895000	      4588	8000694c	01eb2ab3	slt	x21,x22,x30	 x22:0x00000000 x30:0x00000001 x21=0x00000001
       45905000	      4589	80006950	01b902b3	add	x5,x18,x27	 x18:0x475a92a9 x27:0x00000740  x5=0x475a99e9
       45915000	      4590	80006954	43ea6d97	auipc	x27,0x43ea6	 x27=0xc3eac950
       45925000	      4591	80006958	9fa83513	sltiu	x10,x16,-1542	 x16:0xb7fb9fef x10=0x00000001
       45935000	      4592	8000695c	095a3693	sltiu	x13,x20,149	 x20:0x36db0824 x13=0x00000000
       45945000	      4593	80006960	0043a183	lw	x3,4(x7)	  x7:0x80009f48  x3=0x800069d0 PA:0x80009f4c
       45955000	      4594	80006964	012c6c33	or	x24,x24,x18	 x24:0x80009e8d x18:0x475a92a9 x24=0xc75a9ead
       45965000	      4595	80006968	01038393	addi	x7,x7,16	  x7:0x80009f48  x7=0x80009f58
       45975000	      4596	8000696c	00d9d0b3	srl	x1,x19,x13	 x19:0x36db0f6d x13:0x00000000  x1=0x36db0f6d
       45985000	      4597	80006970	00118193	addi	x3,x3,1	  x3:0x800069d0  x3=0x800069d1
       45995000	      4598	80006974	000181e7	jalr	x3,x3,0	  x3:0x800069d1  x3=0x80006974
       46005000	      4599	00000000	00000013	addi	x0,x0,0	  x0:0x00000000
       46015000	      4600	800069d0	00000013	addi	x0,x0,0	  x0:0x00000000
       46025000	      4601	800069d4	deb95d97	auipc	x27,0xdeb95	 x27=0x5eb9b9d0
       46035000	      4602	800069d8	01ab6b33	or	x22,x22,x26	 x22:0x00000000 x26:0x80006744 x22=0x80006744
       46045000	      4603	800069dc	27da7c17	auipc	x24,0x27da7	 x24=0xa7dad9d8
       46055000	      4604	800069e0	98c2c813	xori	x16,x5,-1652	  x5:0x475a99e9 x16=0xb8a56065
       46065000	      4605	800069e4	00000697	auipc	x13,0x0	 x13=0x800069e0
       46075000	      4606	800069e8	d6468693	addi	x13,x13,-668	 x13:0x800069e0 x13=0x80006744
       46085000	      4607	800069ec	17268693	addi	x13,x13,370	 x13:0x80006744 x13=0x800068b6
       46095000	      4608	800069f0	002d3cb3	sltu	x25,x26,x2	 x26:0x80006744  x2:0xc0056d65 x25=0x00000001
       46105000	      4609	800069f4	e8e681e7	jalr	x3,x13,-370	 x13:0x800068b6  x3=0x800069f4
       46115000	      4610	00000000	00000013	addi	x0,x0,0	  x0:0x00000000
       46125000	      4611	80006744	00000013	addi	x0,x0,0	  x0:0x00000000
       46135000	      4612	80006748	01c75863	bge	x14,x28,80006758	 x14:0x00000001 x28:0x80009fc4
       46145000	      4613	00000000	00000013	addi	x0,x0,0	  x0:0x00000000
       46155000	      4614	80006754	00000013	addi	x0,x0,0	  x0:0x00000000
       46165000	      4615	80006758	ff038393	addi	x7,x7,-16	  x7:0x80009f58  x7=0x80009f48
       46175000	      4616	8000675c	00cfa733	slt	x14,x31,x12	 x31:0x00000001 x12:0xffffff79 x14=0x00000000
       46185000	      4617	80006760	0033a223	sw	x3,4(x7)	  x7:0x80009f48  x3:0x800069f4 PA:0x80009f4c
       46195000	      4618	80006764	dad50b93	addi	x23,x10,-595	 x10:0x00000001 x23=0xfffffdae
       46205000	      4619	80006768	0101d293	srli	x5,x3,0x10	  x3:0x800069f4  x5=0x00008000
       46215000	      4620	8000676c	00393cb3	sltu	x25,x18,x3	 x18:0x475a92a9  x3:0x800069f4 x25=0x00000001
       46225000	      4621	80006770	eb8b6d93	ori	x27,x22,-328	 x22:0x80006744 x27=0xfffffffc
       46235000	      4622	80006774	0206d463	bge	x13,x0,8000679c	 x13:0x800068b6  x0:0x00000000
       46245000	      4623	80006778	03159663	bne	x11,x17,800067a4	 x11:0x00000036 x17:0x00000001
       46255000	      4624	00000000	00000013	addi	x0,x0,0	  x0:0x00000000
       46265000	      4625	800067a0	00000013	addi	x0,x0,0	  x0:0x00000000
       46275000	      4626	800067a4	40185a93	srai	x21,x16,0x1	 x16:0xb8a56065 x21=0xdc52b032
       46285000	      4627	800067a8	d14d7713	andi	x14,x26,-748	 x26:0x80006744 x14=0x80006504
       46295000	      4628	800067ac	03b35463	bge	x6,x27,800067d4	  x6:0x00000001 x27:0xfffffffc
       46305000	      4629	00000000	00000013	addi	x0,x0,0	  x0:0x00000000
       46315000	      4630	800067d0	00000013	addi	x0,x0,0	  x0:0x00000000
       46325000	      4631	800067d4	02509a63	bne	x1,x5,80006808	  x1:0x36db0f6d  x5:0x00008000
       46335000	      4632	00000000	00000013	addi	x0,x0,0	  x0:0x00000000
       46345000	      4633	80006804	00000013	addi	x0,x0,0	  x0:0x00000000
       46355000	      4634	80006808	767bcd13	xori	x26,x23,1895	 x23:0xfffffdae x26=0xfffffac9
       46365000	      4635	8000680c	c7ac8837	lui	x16,0xc7ac8	 x16=0xc7ac8000
       46375000	      4636	80006810	0175d533	srl	x10,x11,x23	 x11:0x00000036 x23:0xfffffdae x10=0x00000000
       46385000	      4637	80006814	00000013	addi	x0,x0,0	  x0:0x00000000
       46395000	      4638	80006818	40515093	srai	x1,x2,0x5	  x2:0xc0056d65  x1=0xfe002b6b
       46405000	      4639	8000681c	00201733	sll	x14,x0,x2	  x0:0x00000000  x2:0xc0056d65 x14=0x00000000
       46415000	      4640	80006820	052b5063	bge	x22,x18,80006860	 x22:0x80006744 x18:0x475a92a9
       46425000	      4641	80006824	005f3b33	sltu	x22,x30,x5	 x30:0x00000001  x5:0x00008000 x22=0x00000001
       46435000	      4642	80006828	b6daaa17	auipc	x20,0xb6daa	 x20=0x36db0824
       46445000	      4643	8000682c	f78fc093	xori	x1,x31,-136	 x31:0x00000001  x1=0xffffff79
       46455000	      4644	80006830	0000dc33	srl	x24,x1,x0	  x1:0xffffff79  x0:0x00000000 x24=0xffffff79
       46465000	      4645	80006834	01f04f33	xor	x30,x0,x31	  x0:0x00000000 x31:0x00000001 x30=0x00000001
       46475000	      4646	80006838	769a6993	ori	x19,x20,1897	 x20:0x36db0824 x19=0x36db0f6d
       46485000	      4647	8000683c	405558b3	sra	x17,x10,x5	 x10:0x00000000  x5:0x00008000 x17=0x00000000
       46495000	      4648	80006840	c9ceb613	sltiu	x12,x29,-868	 x29:0x00000004 x12=0x00000001
       46505000	      4649	80006844	018852b3	srl	x5,x16,x24	 x16:0xc7ac8000 x24:0xffffff79  x5=0x00000063
       46515000	      4650	80006848	01335263	bge	x6,x19,8000684c	  x6:0x00000001 x19:0x36db0f6d
       46525000	      4651	8000684c	00100633	add	x12,x0,x1	  x0:0x00000000  x1:0xffffff79 x12=0xffffff79
       46535000	      4652	80006850	01a78d33	add	x26,x15,x26	 x15:0x00000000 x26:0xfffffac9 x26=0xfffffac9
       46545000	      4653	80006854	7a9ded17	auipc	x26,0x7a9de	 x26=0xfa9e4850
       46555000	      4654	80006858	01425ab3	srl	x21,x4,x20	  x4:0x00003600 x20:0x36db0824 x21=0x00000360
       46565000	      4655	8000685c	41b9d5b3	sra	x11,x19,x27	 x19:0x36db0f6d x27:0xfffffffc x11=0x00000003
       46575000	      4656	80006860	41b4d193	srai	x3,x9,0x1b	  x9:0x80006744  x3=0xfffffff0
       46585000	      4657	80006864	04665463	bge	x12,x6,800068ac	 x12:0xffffff79  x6:0x00000001
       46595000	      4658	80006868	41288133	sub	x2,x17,x18	 x17:0x00000000 x18:0x475a92a9  x2=0xb8a56d57
       46605000	      4659	8000686c	9cd9b813	sltiu	x16,x19,-1587	 x19:0x36db0f6d x16=0x00000001
       46615000	      4660	80006870	0095feb3	and	x29,x11,x9	 x11:0x00000003  x9:0x80006744 x29=0x00000000
       46625000	      4661	80006874	bb78c1b7	lui	x3,0xbb78c	  x3=0xbb78c000
       46635000	      4662	80006878	0138edb3	or	x27,x17,x19	 x17:0x00000000 x19:0x36db0f6d x27=0x36db0f6d
       46645000	      4663	8000687c	9f6b7793	andi	x15,x22,-1546	 x22:0x00000001 x15=0x00000000
       46655000	      4664	80006880	00859213	slli	x4,x11,0x8	 x11:0x00000003  x4=0x00000300
       46665000	      4665	80006884	0300c063	blt	x1,x16,800068a4	  x1:0xffffff79 x16:0x00000001
       46675000	      4666	00000000	00000013	addi	x0,x0,0	  x0:0x00000000
       46685000	      4667	800068a0	00000013	addi	x0,x0,0	  x0:0x00000000
       46695000	      4668	800068a4	410ba893	slti	x17,x23,1040	 x23:0xfffffdae x17=0x00000001
       46705000	      4669	800068a8	149e4c13	xori	x24,x28,329	 x28:0x80009fc4 x24=0x80009e8d
       46715000	      4670	800068ac	01163b33	sltu	x22,x12,x17	 x12:0xffffff79 x17:0x00000001 x22=0x00000000
       46725000	      4671	800068b0	013f3713	sltiu	x14,x30,19	 x30:0x00000001 x14=0x00000001
       46735000	      4672	800068b4	0082fbb3	and	x23,x5,x8	  x5:0x00000063  x8:0xf9c60684 x23=0x00000000
       46745000	      4673	800068b8	01bc6833	or	x16,x24,x27	 x24:0x80009e8d x27:0x36db0f6d x16=0xb6db9fed
       46755000	      4674	800068bc	03454a63	blt	x10,x20,800068f0	 x10:0x00000000 x20:0x36db0824
       46765000	      4675	00000000	00000013	addi	x0,x0,0	  x0:0x00000000
       46775000	      4676	800068ec	00000013	addi	x0,x0,0	  x0:0x00000000
       46785000	      4677	800068f0	005d7863	bgeu	x26,x5,80006900	 x26:0xfa9e4850  x5:0x00000063
       46795000	      4678	00000000	00000013	addi	x0,x0,0	  x0:0x00000000
       46805000	      4679	800068fc	00000013	addi	x0,x0,0	  x0:0x00000000
       46815000	      4680	80006900	7584fd93	andi	x27,x9,1880	  x9:0x80006744 x27=0x00000740
       46825000	      4681	80006904	041f6263	bltu	x30,x1,80006948	 x30:0x00000001  x1:0xffffff79
       46835000	      4682	00000000	00000013	addi	x0,x0,0	  x0:0x00000000
       46845000	      4683	80006944	00000013	addi	x0,x0,0	  x0:0x00000000
       46855000	      4684	80006948	00f48d33	add	x26,x9,x15	  x9:0x80006744 x15:0x00000000 x26=0x80006744
       46865000	      4685	8000694c	01eb2ab3	slt	x21,x22,x30	 x22:0x00000000 x30:0x00000001 x21=0x00000001
       46875000	      4686	80006950	01b902b3	add	x5,x18,x27	 x18:0x475a92a9 x27:0x00000740  x5=0x475a99e9
       46885000	      4687	80006954	43ea6d97	auipc	x27,0x43ea6	 x27=0xc3eac950
       46895000	      4688	80006958	9fa83513	sltiu	x10,x16,-1542	 x16:0xb6db9fed x10=0x00000001
       46905000	      4689	8000695c	095a3693	sltiu	x13,x20,149	 x20:0x36db0824 x13=0x00000000
       46915000	      4690	80006960	0043a183	lw	x3,4(x7)	  x7:0x80009f48  x3=0x800069f4 PA:0x80009f4c
       46925000	      4691	80006964	012c6c33	or	x24,x24,x18	 x24:0x80009e8d x18:0x475a92a9 x24=0xc75a9ead
       46935000	      4692	80006968	01038393	addi	x7,x7,16	  x7:0x80009f48  x7=0x80009f58
       46945000	      4693	8000696c	00d9d0b3	srl	x1,x19,x13	 x19:0x36db0f6d x13:0x00000000  x1=0x36db0f6d
       46955000	      4694	80006970	00118193	addi	x3,x3,1	  x3:0x800069f4  x3=0x800069f5
       46965000	      4695	80006974	000181e7	jalr	x3,x3,0	  x3:0x800069f5  x3=0x80006974
       46975000	      4696	00000000	00000013	addi	x0,x0,0	  x0:0x00000000
       46985000	      4697	800069f4	00000013	addi	x0,x0,0	  x0:0x00000000
       46995000	      4698	800069f8	02ea0263	beq	x20,x14,80006a1c	 x20:0x36db0824 x14:0x00000001
       47005000	      4699	800069fc	02f29a63	bne	x5,x15,80006a30	  x5:0x475a99e9 x15:0x00000000
       47015000	      4700	00000000	00000013	addi	x0,x0,0	  x0:0x00000000
       47025000	      4701	80006a2c	00000013	addi	x0,x0,0	  x0:0x00000000
       47035000	      4702	80006a30	004cd7b3	srl	x15,x25,x4	 x25:0x00000001  x4:0x00000300 x15=0x00000001
       47045000	      4703	80006a34	014bd013	srli	x0,x23,0x14	 x23:0x00000000
       47055000	      4704	80006a38	302fc413	xori	x8,x31,770	 x31:0x00000001  x8=0x00000303
       47065000	      4705	80006a3c	0043a183	lw	x3,4(x7)	  x7:0x80009f58  x3=0x80000518 PA:0x80009f5c
       47075000	      4706	80006a40	00d2d413	srli	x8,x5,0xd	  x5:0x475a99e9  x8=0x00023ad4
       47085000	      4707	80006a44	fe9e8213	addi	x4,x29,-23	 x29:0x00000000  x4=0xffffffe9
       47095000	      4708	80006a48	00b8e133	or	x2,x17,x11	 x17:0x00000001 x11:0x00000003  x2=0x00000003
       47105000	      4709	80006a4c	01438393	addi	x7,x7,20	  x7:0x80009f58  x7=0x80009f6c
       47115000	      4710	80006a50	413dde93	srai	x29,x27,0x13	 x27:0xc3eac950 x29=0xfffff87d
       47125000	      4711	80006a54	00018c13	addi	x24,x3,0	  x3:0x80000518 x24=0x80000518
       47135000	      4712	80006a58	000c0c67	jalr	x24,x24,0	 x24:0x80000518 x24=0x80006a58
       47145000	      4713	00000000	00000013	addi	x0,x0,0	  x0:0x00000000
       47155000	      4714	80000518	00000013	addi	x0,x0,0	  x0:0x00000000
       47165000	      4715	8000051c	4e9d7537	lui	x10,0x4e9d7	 x10=0x4e9d7000
       47175000	      4716	80000520	41ddd313	srai	x6,x27,0x1d	 x27:0xc3eac950  x6=0xfffffffe
       47185000	      4717	80000524	653dcbb7	lui	x23,0x653dc	 x23=0x653dc000
       47195000	      4718	80000528	0057afb3	slt	x31,x15,x5	 x15:0x00000001  x5:0x475a99e9 x31=0x00000001
       47205000	      4719	8000052c	008775b3	and	x11,x14,x8	 x14:0x00000001  x8:0x00023ad4 x11=0x00000000
       47215000	      4720	80000530	017f9e93	slli	x29,x31,0x17	 x31:0x00000001 x29=0x00800000
       47225000	      4721	80000534	9b78a513	slti	x10,x17,-1609	 x17:0x00000001 x10=0x00000000
       47235000	      4722	80000538	003f1863	bne	x30,x3,80000548	 x30:0x00000001  x3:0x80000518
       47245000	      4723	00000000	00000013	addi	x0,x0,0	  x0:0x00000000
       47255000	      4724	80000544	00000013	addi	x0,x0,0	  x0:0x00000000
       47265000	      4725	80000548	0060f6b3	and	x13,x1,x6	  x1:0x36db0f6d  x6:0xfffffffe x13=0x36db0f6c
       47275000	      4726	8000054c	31fbfd93	andi	x27,x23,799	 x23:0x653dc000 x27=0x00000000
       47285000	      4727	80000550	0fe22993	slti	x19,x4,254	  x4:0xffffffe9 x19=0x00000001
       47295000	      4728	80000554	014534b3	sltu	x9,x10,x20	 x10:0x00000000 x20:0x36db0824  x9=0x00000001
       47305000	      4729	80000558	411fd633	sra	x12,x31,x17	 x31:0x00000001 x17:0x00000001 x12=0x00000000
       47315000	      4730	8000055c	00ff9c13	slli	x24,x31,0xf	 x31:0x00000001 x24=0x00008000
       47325000	      4731	80000560	0043a183	lw	x3,4(x7)	  x7:0x80009f6c  x3=0x8000014c PA:0x80009f70
       47335000	      4732	80000564	9dcf0d93	addi	x27,x30,-1572	 x30:0x00000001 x27=0xfffff9dd
       47345000	      4733	80000568	01838393	addi	x7,x7,24	  x7:0x80009f6c  x7=0x80009f84
       47355000	      4734	8000056c	000f1a93	slli	x21,x30,0x0	 x30:0x00000001 x21=0x00000001
       47365000	      4735	80000570	d5aecd93	xori	x27,x29,-678	 x29:0x00800000 x27=0xff7ffd5a
       47375000	      4736	80000574	018d3233	sltu	x4,x26,x24	 x26:0x80006744 x24:0x00008000  x4=0x00000000
       47385000	      4737	80000578	00018893	addi	x17,x3,0	  x3:0x8000014c x17=0x8000014c
       47395000	      4738	8000057c	000888e7	jalr	x17,x17,0	 x17:0x8000014c x17=0x8000057c
       47405000	      4739	00000000	00000013	addi	x0,x0,0	  x0:0x00000000
       47415000	      4740	8000014c	00000013	addi	x0,x0,0	  x0:0x00000000
       47425000	      4741	80000150	01ee1663	bne	x28,x30,8000015c	 x28:0x80009fc4 x30:0x00000001
       47435000	      4742	00000000	00000013	addi	x0,x0,0	  x0:0x00000000
       47445000	      4743	80000158	00000013	addi	x0,x0,0	  x0:0x00000000
       47455000	      4744	8000015c	414f8c33	sub	x24,x31,x20	 x31:0x00000001 x20:0x36db0824 x24=0xc924f7dd
       47465000	      4745	80000160	013b7ab3	and	x21,x22,x19	 x22:0x00000000 x19:0x00000001 x21=0x00000000
       47475000	      4746	80000164	0026a4b3	slt	x9,x13,x2	 x13:0x36db0f6c  x2:0x00000003  x9=0x00000000
       47485000	      4747	80000168	04541463	bne	x8,x5,800001b0	  x8:0x00023ad4  x5:0x475a99e9
       47495000	      4748	00000000	00000013	addi	x0,x0,0	  x0:0x00000000
       47505000	      4749	800001ac	00000013	addi	x0,x0,0	  x0:0x00000000
       47515000	      4750	800001b0	002ad5b3	srl	x11,x21,x2	 x21:0x00000000  x2:0x00000003 x11=0x00000000
       47525000	      4751	800001b4	58607a93	andi	x21,x0,1414	  x0:0x00000000 x21=0x00000000
       47535000	      4752	800001b8	0bf70a93	addi	x21,x14,191	 x14:0x00000001 x21=0x000000c0
       47545000	      4753	800001bc	1dfdfc13	andi	x24,x27,479	 x27:0xff7ffd5a x24=0x0000015a
       47555000	      4754	800001c0	0125b2b3	sltu	x5,x11,x18	 x11:0x00000000 x18:0x475a92a9  x5=0x00000001
       47565000	      4755	800001c4	00820233	add	x4,x4,x8	  x4:0x00000000  x8:0x00023ad4  x4=0x00023ad4
       47575000	      4756	800001c8	40385093	srai	x1,x16,0x3	 x16:0xb6db9fed  x1=0xf6db73fd
       47585000	      4757	800001cc	00bb6eb3	or	x29,x22,x11	 x22:0x00000000 x11:0x00000000 x29=0x00000000
       47595000	      4758	800001d0	00bc5c33	srl	x24,x24,x11	 x24:0x0000015a x11:0x00000000 x24=0x0000015a
       47605000	      4759	800001d4	2ec8a613	slti	x12,x17,748	 x17:0x8000057c x12=0x00000001
       47615000	      4760	800001d8	1178e463	bltu	x17,x23,800002e0	 x17:0x8000057c x23:0x653dc000
       47625000	      4761	800001dc	01f78b33	add	x22,x15,x31	 x15:0x00000001 x31:0x00000001 x22=0x00000002
       47635000	      4762	800001e0	00123533	sltu	x10,x4,x1	  x4:0x00023ad4  x1:0xf6db73fd x10=0x00000001
       47645000	      4763	800001e4	416ddfb3	sra	x31,x27,x22	 x27:0xff7ffd5a x22:0x00000002 x31=0xffdfff56
       47655000	      4764	800001e8	0e8e1663	bne	x28,x8,800002d4	 x28:0x80009fc4  x8:0x00023ad4
       47665000	      4765	00000000	00000013	addi	x0,x0,0	  x0:0x00000000
       47675000	      4766	800002d0	00000013	addi	x0,x0,0	  x0:0x00000000
       47685000	      4767	800002d4	cbdffc93	andi	x25,x31,-835	 x31:0xffdfff56 x25=0xffdffc14
       47695000	      4768	800002d8	0485f463	bgeu	x11,x8,80000320	 x11:0x00000000  x8:0x00023ad4
       47705000	      4769	800002dc	4130d633	sra	x12,x1,x19	  x1:0xf6db73fd x19:0x00000001 x12=0xfb6db9fe
       47715000	      4770	800002e0	013a5bb3	srl	x23,x20,x19	 x20:0x36db0824 x19:0x00000001 x23=0x1b6d8412
       47725000	      4771	800002e4	00b62233	slt	x4,x12,x11	 x12:0xfb6db9fe x11:0x00000000  x4=0x00000001
       47735000	      4772	800002e8	051ac863	blt	x21,x17,80000338	 x21:0x000000c0 x17:0x8000057c
       47745000	      4773	800002ec	cf7a9317	auipc	x6,0xcf7a9	  x6=0x4f7a92e8
       47755000	      4774	800002f0	03f74663	blt	x14,x31,8000031c	 x14:0x00000001 x31:0xffdfff56
       47765000	      4775	800002f4	00390663	beq	x18,x3,80000300	 x18:0x475a92a9  x3:0x8000014c
       47775000	      4776	800002f8	05c4c663	blt	x9,x28,80000344	  x9:0x00000000 x28:0x80009fc4
       47785000	      4777	800002fc	408580b3	sub	x1,x11,x8	 x11:0x00000000  x8:0x00023ad4  x1=0xfffdc52c
       47795000	      4778	80000300	410151b3	sra	x3,x2,x16	  x2:0x00000003 x16:0xb6db9fed  x3=0x00000000
       47805000	      4779	80000304	1917ee93	ori	x29,x15,401	 x15:0x00000001 x29=0x00000191
       47815000	      4780	80000308	67f9fc93	andi	x25,x19,1663	 x19:0x00000001 x25=0x00000001
       47825000	      4781	8000030c	015800b3	add	x1,x16,x21	 x16:0xb6db9fed x21:0x000000c0  x1=0xb6dba0ad
       47835000	      4782	80000310	00000013	addi	x0,x0,0	  x0:0x00000000
       47845000	      4783	80000314	7a175217	auipc	x4,0x7a175	  x4=0xfa175310
       47855000	      4784	80000318	0075c733	xor	x14,x11,x7	 x11:0x00000000  x7:0x80009f84 x14=0x80009f84
       47865000	      4785	8000031c	a862a813	slti	x16,x5,-1402	  x5:0x00000001 x16=0x00000000
       47875000	      4786	80000320	0426d063	bge	x13,x2,80000360	 x13:0x36db0f6c  x2:0x00000003
       47885000	      4787	00000000	00000013	addi	x0,x0,0	  x0:0x00000000
       47895000	      4788	8000035c	00000013	addi	x0,x0,0	  x0:0x00000000
       47905000	      4789	80000360	00827233	and	x4,x4,x8	  x4:0xfa175310  x8:0x00023ad4  x4=0x00021210
       47915000	      4790	80000364	00000013	addi	x0,x0,0	  x0:0x00000000
       47925000	      4791	80000368	402381b3	sub	x3,x7,x2	  x7:0x80009f84  x2:0x00000003  x3=0x80009f81
       47935000	      4792	8000036c	2cd40d13	addi	x26,x8,717	  x8:0x00023ad4 x26=0x00023da1
       47945000	      4793	80000370	40a65a33	sra	x20,x12,x10	 x12:0xfb6db9fe x10:0x00000001 x20=0xfdb6dcff
       47955000	      4794	80000374	55d1eb13	ori	x22,x3,1373	  x3:0x80009f81 x22=0x80009fdd
       47965000	      4795	80000378	f0562f93	slti	x31,x12,-251	 x12:0xfb6db9fe x31=0x00000001
       47975000	      4796	8000037c	006e2eb3	slt	x29,x28,x6	 x28:0x80009fc4  x6:0x4f7a92e8 x29=0x00000001
       47985000	      4797	80000380	d3bbbb13	sltiu	x22,x23,-709	 x23:0x1b6d8412 x22=0x00000001
       47995000	      4798	80000384	00000013	addi	x0,x0,0	  x0:0x00000000
       48005000	      4799	80000388	006075b3	and	x11,x0,x6	  x0:0x00000000  x6:0x4f7a92e8 x11=0x00000000
       48015000	      4800	8000038c	57636f97	auipc	x31,0x57636	 x31=0xd7636388
       48025000	      4801	80000390	01c8e7b3	or	x15,x17,x28	 x17:0x8000057c x28:0x80009fc4 x15=0x80009ffc
       48035000	      4802	80000394	013cbcb3	sltu	x25,x25,x19	 x25:0x00000001 x19:0x00000001 x25=0x00000000
       48045000	      4803	80000398	01ec8d33	add	x26,x25,x30	 x25:0x00000000 x30:0x00000001 x26=0x00000001
       48055000	      4804	8000039c	01bf5db3	srl	x27,x30,x27	 x30:0x00000001 x27:0xff7ffd5a x27=0x00000000
       48065000	      4805	800003a0	006b0b33	add	x22,x22,x6	 x22:0x00000001  x6:0x4f7a92e8 x22=0x4f7a92e9
       48075000	      4806	800003a4	bda2bf93	sltiu	x31,x5,-1062	  x5:0x00000001 x31=0x00000001
       48085000	      4807	800003a8	00000f17	auipc	x30,0x0	 x30=0x800003a4
       48095000	      4808	800003ac	0a4f0f13	addi	x30,x30,164	 x30:0x800003a4 x30=0x80000448
       48105000	      4809	800003b0	00182b33	slt	x22,x16,x1	 x16:0x00000000  x1:0xb6dba0ad x22=0x00000000
       48115000	      4810	800003b4	00000013	addi	x0,x0,0	  x0:0x00000000
       48125000	      4811	800003b8	fc5f0f13	addi	x30,x30,-59	 x30:0x80000448 x30=0x8000040d
       48135000	      4812	800003bc	0062b6b3	sltu	x13,x5,x6	  x5:0x00000001  x6:0x4f7a92e8 x13=0x00000001
       48145000	      4813	800003c0	03cf01e7	jalr	x3,x30,60	 x30:0x8000040d  x3=0x800003c0
       48155000	      4814	00000000	00000013	addi	x0,x0,0	  x0:0x00000000
       48165000	      4815	80000448	00000013	addi	x0,x0,0	  x0:0x00000000
       48175000	      4816	8000044c	01def4b3	and	x9,x29,x29	 x29:0x00000001 x29:0x00000001  x9=0x00000001
       48185000	      4817	80000450	b7778b13	addi	x22,x15,-1161	 x15:0x80009ffc x22=0x80009b73
       48195000	      4818	80000454	01f16bb3	or	x23,x2,x31	  x2:0x00000003 x31:0x00000001 x23=0x00000003
       48205000	      4819	80000458	01c55513	srli	x10,x10,0x1c	 x10:0x00000001 x10=0x00000000
       48215000	      4820	8000045c	fe838393	addi	x7,x7,-24	  x7:0x80009f84  x7=0x80009f6c
       48225000	      4821	80000460	98538d93	addi	x27,x7,-1659	  x7:0x80009f6c x27=0x800098f1
       48235000	      4822	80000464	0033a223	sw	x3,4(x7)	  x7:0x80009f6c  x3:0x800003c0 PA:0x80009f70
       48245000	      4823	80000468	a995a613	slti	x12,x11,-1383	 x11:0x00000000 x12=0x00000000
       48255000	      4824	8000046c	00e84bb3	xor	x23,x16,x14	 x16:0x00000000 x14:0x80009f84 x23=0x80009f84
       48265000	      4825	80000470	016af2b3	and	x5,x21,x22	 x21:0x000000c0 x22:0x80009b73  x5=0x00000040
       48275000	      4826	80000474	018e2f33	slt	x30,x28,x24	 x28:0x80009fc4 x24:0x0000015a x30=0x00000001
       48285000	      4827	80000478	0186a733	slt	x14,x13,x24	 x13:0x00000001 x24:0x0000015a x14=0x00000001
       48295000	      4828	8000047c	5f07e613	ori	x12,x15,1520	 x15:0x80009ffc x12=0x80009ffc
       48305000	      4829	80000480	00006997	auipc	x19,0x6	 x19=0x8000647c
       48315000	      4830	80000484	4f898993	addi	x19,x19,1272	 x19:0x8000647c x19=0x80006974
       48325000	      4831	80000488	962f4c17	auipc	x24,0x962f4	 x24=0x162f4484
       48335000	      4832	8000048c	01d71713	slli	x14,x14,0x1d	 x14:0x00000001 x14=0x20000000
       48345000	      4833	80000490	eb798993	addi	x19,x19,-329	 x19:0x80006974 x19=0x8000682b
       48355000	      4834	80000494	01626863	bltu	x4,x22,800004a4	  x4:0x00021210 x22:0x80009b73
       48365000	      4835	00000000	00000013	addi	x0,x0,0	  x0:0x00000000
       48375000	      4836	800004a0	00000013	addi	x0,x0,0	  x0:0x00000000
       48385000	      4837	800004a4	14a981e7	jalr	x3,x19,330	 x19:0x8000682b  x3=0x800004a4
       48395000	      4838	00000000	00000013	addi	x0,x0,0	  x0:0x00000000
       48405000	      4839	80006974	00000013	addi	x0,x0,0	  x0:0x00000000
       48415000	      4840	80006978	d1628d13	addi	x26,x5,-746	  x5:0x00000040 x26=0xfffffd56
       48425000	      4841	8000697c	01771663	bne	x14,x23,80006988	 x14:0x20000000 x23:0x80009f84
       48435000	      4842	00000000	00000013	addi	x0,x0,0	  x0:0x00000000
       48445000	      4843	80006984	00000013	addi	x0,x0,0	  x0:0x00000000
       48455000	      4844	80006988	fec38393	addi	x7,x7,-20	  x7:0x80009f6c  x7=0x80009f58
       48465000	      4845	8000698c	0033a223	sw	x3,4(x7)	  x7:0x80009f58  x3:0x800004a4 PA:0x80009f5c
       48475000	      4846	80006990	0026dc13	srli	x24,x13,0x2	 x13:0x00000001 x24=0x00000000
       48485000	      4847	80006994	0006aeb3	slt	x29,x13,x0	 x13:0x00000001  x0:0x00000000 x29=0x00000000
       48495000	      4848	80006998	930e2f13	slti	x30,x28,-1744	 x28:0x80009fc4 x30=0x00000001
       48505000	      4849	8000699c	01771c93	slli	x25,x14,0x17	 x14:0x20000000 x25=0x00000000
       48515000	      4850	800069a0	41585db3	sra	x27,x16,x21	 x16:0x00000000 x21:0x000000c0 x27=0x00000000
       48525000	      4851	800069a4	01203533	sltu	x10,x0,x18	  x0:0x00000000 x18:0x475a92a9 x10=0x00000001
       48535000	      4852	800069a8	00b0bf33	sltu	x30,x1,x11	  x1:0xb6dba0ad x11:0x00000000 x30=0x00000000
       48545000	      4853	800069ac	f0a92313	slti	x6,x18,-246	 x18:0x475a92a9  x6=0x00000000
       48555000	      4854	800069b0	004c0633	add	x12,x24,x4	 x24:0x00000000  x4:0x00021210 x12=0x00021210
       48565000	      4855	800069b4	9e5fd1ef	jal	x3,800069b4	  x3=0x800069b4
       48575000	      4856	00000000	00000013	addi	x0,x0,0	  x0:0x00000000
       48585000	      4857	80004394	00000013	addi	x0,x0,0	  x0:0x00000000
       48595000	      4858	80004398	01519463	bne	x3,x21,800043a0	  x3:0x800069b4 x21:0x000000c0
       48605000	      4859	00000000	00000013	addi	x0,x0,0	  x0:0x00000000
       48615000	      4860	8000439c	00000013	addi	x0,x0,0	  x0:0x00000000
       48625000	      4861	800043a0	fd038393	addi	x7,x7,-48	  x7:0x80009f58  x7=0x80009f28
       48635000	      4862	800043a4	fefcc493	xori	x9,x25,-17	 x25:0x00000000  x9=0xffffffef
       48645000	      4863	800043a8	112c6f13	ori	x30,x24,274	 x24:0x00000000 x30=0x00000112
       48655000	      4864	800043ac	40c4d593	srai	x11,x9,0xc	  x9:0xffffffef x11=0xffffffff
       48665000	      4865	800043b0	0033a223	sw	x3,4(x7)	  x7:0x80009f28  x3:0x800069b4 PA:0x80009f2c
       48675000	      4866	800043b4	e79de213	ori	x4,x27,-391	 x27:0x00000000  x4=0xfffffe79
       48685000	      4867	800043b8	00004d97	auipc	x27,0x4	 x27=0x800083b4
       48695000	      4868	800043bc	31fd8d93	addi	x27,x27,799	 x27:0x800083b4 x27=0x800086d3
       48705000	      4869	800043c0	000030b3	sltu	x1,x0,x0	  x0:0x00000000  x0:0x00000000  x1=0x00000000
       48715000	      4870	800043c4	b15da603	lw	x12,-1259(x27)	 x27:0x800086d3 x12=0x00000000 PA:0x800081e8
       48725000	      4871	800043c8	bdfd9003	lh	x0,-1057(x27)	 x27:0x800086d3 PA:0x800082b2
       48735000	      4872	800043cc	0112ecb3	or	x25,x5,x17	  x5:0x00000040 x17:0x8000057c x25=0x8000057c
       48745000	      4873	800043d0	41b4d1b3	sra	x3,x9,x27	  x9:0xffffffef x27:0x800086d3  x3=0xffffffff
       48755000	      4874	800043d4	012e4eb3	xor	x29,x28,x18	 x28:0x80009fc4 x18:0x475a92a9 x29=0xc75a0d6d
       48765000	      4875	800043d8	ea6d8d03	lb	x26,-346(x27)	 x27:0x800086d3 x26=0x00000000 PA:0x80008579
       48775000	      4876	800043dc	4038d813	srai	x16,x17,0x3	 x17:0x8000057c x16=0xf00000af
       48785000	      4877	800043e0	d30d8283	lb	x5,-720(x27)	 x27:0x800086d3  x5=0x00000000 PA:0x80008403
       48795000	      4878	800043e4	40760433	sub	x8,x12,x7	 x12:0x00000000  x7:0x80009f28  x8=0x7fff60d8
       48805000	      4879	800043e8	1ea0e4b7	lui	x9,0x1ea0e	  x9=0x1ea0e000
       48815000	      4880	800043ec	c8f70f13	addi	x30,x14,-881	 x14:0x20000000 x30=0x1ffffc8f
       48825000	      4881	800043f0	412a8033	sub	x0,x21,x18	 x21:0x000000c0 x18:0x475a92a9
       48835000	      4882	800043f4	5bc3bf93	sltiu	x31,x7,1468	  x7:0x80009f28 x31=0x00000000
       48845000	      4883	800043f8	00f7b1b3	sltu	x3,x15,x15	 x15:0x80009ffc x15:0x80009ffc  x3=0x00000000
       48855000	      4884	800043fc	01cf1b13	slli	x22,x30,0x1c	 x30:0x1ffffc8f x22=0xf0000000
       48865000	      4885	80004400	0105d133	srl	x2,x11,x16	 x11:0xffffffff x16:0xf00000af  x2=0x0001ffff
       48875000	      4886	80004404	41db00b3	sub	x1,x22,x29	 x22:0xf0000000 x29:0xc75a0d6d  x1=0x28a5f293
       48885000	      4887	80004408	e8dd9303	lh	x6,-371(x27)	 x27:0x800086d3  x6=0xffffa9a9 PA:0x80008560
       48895000	      4888	8000440c	c63dc603	lbu	x12,-925(x27)	 x27:0x800086d3 x12=0x00000000 PA:0x80008336
       48905000	      4889	80004410	01ab66b3	or	x13,x22,x26	 x22:0xf0000000 x26:0x00000000 x13=0xf0000000
       48915000	      4890	80004414	00b81593	slli	x11,x16,0xb	 x16:0xf00000af x11=0x00057800
       48925000	      4891	80004418	b5dddb83	lhu	x23,-1187(x27)	 x27:0x800086d3 x23=0x00000000 PA:0x80008230
       48935000	      4892	8000441c	01fa7fb3	and	x31,x20,x31	 x20:0xfdb6dcff x31:0x00000000 x31=0x00000000
       48945000	      4893	80004420	092d8883	lb	x17,146(x27)	 x27:0x800086d3 x17=0x00000000 PA:0x80008765
       48955000	      4894	80004424	fb0d8fa3	sb	x16,-65(x27)	 x27:0x800086d3 x16:0xf00000af PA:0x80008692
       48965000	      4895	80004428	b5eda4a3	sw	x30,-1207(x27)	 x27:0x800086d3 x30:0x1ffffc8f PA:0x8000821c
       48975000	      4896	8000442c	a10dc203	lbu	x4,-1520(x27)	 x27:0x800086d3  x4=0x00000000 PA:0x800080e3
       48985000	      4897	80004430	de7d8aa3	sb	x7,-523(x27)	 x27:0x800086d3  x7:0x80009f28 PA:0x800084c8
       48995000	      4898	80004434	eecdc103	lbu	x2,-276(x27)	 x27:0x800086d3  x2=0x00000000 PA:0x800085bf
       49005000	      4899	80004438	aed71517	auipc	x10,0xaed71	 x10=0x2ed75434
       49015000	      4900	8000443c	00122eb3	slt	x29,x4,x1	  x4:0x00000000  x1:0x28a5f293 x29=0x00000001
       49025000	      4901	80004440	eaed8683	lb	x13,-338(x27)	 x27:0x800086d3 x13=0x00000000 PA:0x80008581
       49035000	      4902	80004444	00af84b3	add	x9,x31,x10	 x31:0x00000000 x10:0x2ed75434  x9=0x2ed75434
       49045000	      4903	80004448	231dca93	xori	x21,x27,561	 x27:0x800086d3 x21=0x800084e2
       49055000	      4904	8000444c	00ba16b3	sll	x13,x20,x11	 x20:0xfdb6dcff x11:0x00057800 x13=0xfdb6dcff
       49065000	      4905	80004450	ab5ddd03	lhu	x26,-1355(x27)	 x27:0x800086d3 x26=0x00000000 PA:0x80008188
       49075000	      4906	80004454	abbdc683	lbu	x13,-1349(x27)	 x27:0x800086d3 x13=0x00000000 PA:0x8000818e
       49085000	      4907	80004458	00004217	auipc	x4,0x4	  x4=0x80008454
       49095000	      4908	8000445c	57f20213	addi	x4,x4,1407	  x4:0x80008454  x4=0x800089d3
       49105000	      4909	80004460	6f13f613	andi	x12,x7,1777	  x7:0x80009f28 x12=0x00000620
       49115000	      4910	80004464	00000013	addi	x0,x0,0	  x0:0x00000000
       49125000	      4911	80004468	04020883	lb	x17,64(x4)	  x4:0x800089d3 x17=0x00000000 PA:0x80008a13
       49135000	      4912	00000000	00000013	addi	x0,x0,0	  x0:0x00000000
       49145000	      4913	8000446c	00e8acb3	slt	x25,x17,x14	 x17:0x00000000 x14:0x20000000 x25=0x00000001
       49155000	      4914	80004470	039215a3	sh	x25,43(x4)	  x4:0x800089d3 x25:0x00000001 PA:0x800089fe
       49165000	      4915	80004474	41775413	srai	x8,x14,0x17	 x14:0x20000000  x8=0x00000040
       49175000	      4916	80004478	00920c23	sb	x9,24(x4)	  x4:0x800089d3  x9:0x2ed75434 PA:0x800089eb
       49185000	      4917	8000447c	02320023	sb	x3,32(x4)	  x4:0x800089d3  x3:0x00000000 PA:0x800089f3
       49195000	      4918	80004480	04024a83	lbu	x21,64(x4)	  x4:0x800089d3 x21=0x00000000 PA:0x80008a13
       49205000	      4919	80004484	03124403	lbu	x8,49(x4)	  x4:0x800089d3  x8=0x00000000 PA:0x80008a04
       49215000	      4920	80004488	fd320c03	lb	x24,-45(x4)	  x4:0x800089d3 x24=0x00000000 PA:0x800089a6
       49225000	      4921	8000448c	40b75813	srai	x16,x14,0xb	 x14:0x20000000 x16=0x00040000
       49235000	      4922	80004490	00d396b3	sll	x13,x7,x13	  x7:0x80009f28 x13:0x00000000 x13=0x80009f28
       49245000	      4923	80004494	4ad3a193	slti	x3,x7,1197	  x7:0x80009f28  x3=0x00000001
       49255000	      4924	80004498	005ee733	or	x14,x29,x5	 x29:0x00000001  x5:0x00000000 x14=0x00000001
       49265000	      4925	8000449c	ff724a83	lbu	x21,-9(x4)	  x4:0x800089d3 x21=0x00000000 PA:0x800089ca
       49275000	      4926	800044a0	fc321583	lh	x11,-61(x4)	  x4:0x800089d3 x11=0x00000000 PA:0x80008996
       49285000	      4927	800044a4	03520323	sb	x21,38(x4)	  x4:0x800089d3 x21:0x00000000 PA:0x800089f9
       49295000	      4928	800044a8	fd121d03	lh	x26,-47(x4)	  x4:0x800089d3 x26=0x00000000 PA:0x800089a4
       49305000	      4929	800044ac	00be8f33	add	x30,x29,x11	 x29:0x00000001 x11:0x00000000 x30=0x00000001
       49315000	      4930	800044b0	0195e333	or	x6,x11,x25	 x11:0x00000000 x25:0x00000001  x6=0x00000001
       49325000	      4931	800044b4	ffc20303	lb	x6,-4(x4)	  x4:0x800089d3  x6=0x00000000 PA:0x800089cf
       49335000	      4932	800044b8	01224703	lbu	x14,18(x4)	  x4:0x800089d3 x14=0x00000000 PA:0x800089e5
       49345000	      4933	800044bc	00004117	auipc	x2,0x4	  x2=0x800084b8
       49355000	      4934	800044c0	eab10113	addi	x2,x2,-341	  x2:0x800084b8  x2=0x80008363
       49365000	      4935	800044c4	82234513	xori	x10,x6,-2014	  x6:0x00000000 x10=0xfffff822
       49375000	      4936	800044c8	233b7193	andi	x3,x22,563	 x22:0xf0000000  x3=0x00000000
       49385000	      4937	800044cc	01978033	add	x0,x15,x25	 x15:0x80009ffc x25:0x00000001
       49395000	      4938	800044d0	00b10823	sb	x11,16(x2)	  x2:0x80008363 x11:0x00000000 PA:0x80008373
       49405000	      4939	800044d4	011a10b3	sll	x1,x20,x17	 x20:0xfdb6dcff x17:0x00000000  x1=0xfdb6dcff
       49415000	      4940	800044d8	4026d193	srai	x3,x13,0x2	 x13:0x80009f28  x3=0xe00027ca
       49425000	      4941	800044dc	41275cb3	sra	x25,x14,x18	 x14:0x00000000 x18:0x475a92a9 x25=0x00000000
       49435000	      4942	800044e0	ff111883	lh	x17,-15(x2)	  x2:0x80008363 x17=0x00000000 PA:0x80008354
       49445000	      4943	800044e4	008b89b3	add	x19,x23,x8	 x23:0x00000000  x8:0x00000000 x19=0x00000000
       49455000	      4944	800044e8	0199e5b3	or	x11,x19,x25	 x19:0x00000000 x25:0x00000000 x11=0x00000000
       49465000	      4945	800044ec	6f11d837	lui	x16,0x6f11d	 x16=0x6f11d000
       49475000	      4946	800044f0	00000013	addi	x0,x0,0	  x0:0x00000000
       49485000	      4947	800044f4	f5673b13	sltiu	x22,x14,-170	 x14:0x00000000 x22=0x00000001
       49495000	      4948	800044f8	00010203	lb	x4,0(x2)	  x2:0x80008363  x4=0x00000000 PA:0x80008363
       49505000	      4949	800044fc	00efb8b3	sltu	x17,x31,x14	 x31:0x00000000 x14:0x00000000 x17=0x00000000
       49515000	      4950	80004500	8bc67e93	andi	x29,x12,-1860	 x12:0x00000620 x29=0x00000020
       49525000	      4951	80004504	000116a3	sh	x0,13(x2)	  x2:0x80008363  x0:0x00000000 PA:0x80008370
       49535000	      4952	80004508	88dd8593	addi	x11,x27,-1907	 x27:0x800086d3 x11=0x80007f60
       49545000	      4953	8000450c	ff715d03	lhu	x26,-9(x2)	  x2:0x80008363 x26=0x00002e00 PA:0x8000835a
       49555000	      4954	80004510	00915183	lhu	x3,9(x2)	  x2:0x80008363  x3=0x0000f000 PA:0x8000836c
       49565000	      4955	80004514	00b07f33	and	x30,x0,x11	  x0:0x00000000 x11:0x80007f60 x30=0x00000000
       49575000	      4956	80004518	fe912aa3	sw	x9,-11(x2)	  x2:0x80008363  x9:0x2ed75434 PA:0x80008358
       49585000	      4957	8000451c	01b01c33	sll	x24,x0,x27	  x0:0x00000000 x27:0x800086d3 x24=0x00000000
       49595000	      4958	80004520	fe4118a3	sh	x4,-15(x2)	  x2:0x80008363  x4:0x00000000 PA:0x80008354
       49605000	      4959	80004524	406082b3	sub	x5,x1,x6	  x1:0xfdb6dcff  x6:0x00000000  x5=0xfdb6dcff
       49615000	      4960	80004528	01a116a3	sh	x26,13(x2)	  x2:0x80008363 x26:0x00002e00 PA:0x80008370
       49625000	      4961	8000452c	01118733	add	x14,x3,x17	  x3:0x0000f000 x17:0x00000000 x14=0x0000f000
       49635000	      4962	80004530	00a10283	lb	x5,10(x2)	  x2:0x80008363  x5=0xfffffff0 PA:0x8000836d
       49645000	      4963	80004534	fe610ba3	sb	x6,-9(x2)	  x2:0x80008363  x6:0x00000000 PA:0x8000835a
       49655000	      4964	80004538	00a10223	sb	x10,4(x2)	  x2:0x80008363 x10:0xfffff822 PA:0x80008367
       49665000	      4965	8000453c	01723333	sltu	x6,x4,x23	  x4:0x00000000 x23:0x00000000  x6=0x00000000
       49675000	      4966	80004540	40295cb3	sra	x25,x18,x2	 x18:0x475a92a9  x2:0x80008363 x25=0x08eb5255
       49685000	      4967	80004544	fe110b23	sb	x1,-10(x2)	  x2:0x80008363  x1:0xfdb6dcff PA:0x80008359
       49695000	      4968	80004548	00004117	auipc	x2,0x4	  x2=0x80008544
       49705000	      4969	8000454c	b0410113	addi	x2,x2,-1276	  x2:0x80008544  x2=0x80008048
       49715000	      4970	80004550	01d23b33	sltu	x22,x4,x29	  x4:0x00000000 x29:0x00000020 x22=0x00000001
       49725000	      4971	80004554	00710723	sb	x7,14(x2)	  x2:0x80008048  x7:0x80009f28 PA:0x80008056
       49735000	      4972	80004558	010574b3	and	x9,x10,x16	 x10:0xfffff822 x16:0x6f11d000  x9=0x6f11d000
       49745000	      4973	8000455c	01c851b3	srl	x3,x16,x28	 x16:0x6f11d000 x28:0x80009fc4  x3=0x06f11d00
       49755000	      4974	80004560	00ab3433	sltu	x8,x22,x10	 x22:0x00000001 x10:0xfffff822  x8=0x00000001
       49765000	      4975	80004564	408b5013	srai	x0,x22,0x8	 x22:0x00000001
       49775000	      4976	80004568	00510a03	lb	x20,5(x2)	  x2:0x80008048 x20=0x00000000 PA:0x8000804d
       49785000	      4977	8000456c	00000013	addi	x0,x0,0	  x0:0x00000000
       49795000	      4978	80004570	00714a83	lbu	x21,7(x2)	  x2:0x80008048 x21=0x00000000 PA:0x8000804f
       49805000	      4979	80004574	01ac5533	srl	x10,x24,x26	 x24:0x00000000 x26:0x00002e00 x10=0x00000000
       49815000	      4980	80004578	00511723	sh	x5,14(x2)	  x2:0x80008048  x5:0xfffffff0 PA:0x80008056
       49825000	      4981	8000457c	00df1893	slli	x17,x30,0xd	 x30:0x00000000 x17=0x00000000
       49835000	      4982	80004580	00b10f83	lb	x31,11(x2)	  x2:0x80008048 x31=0x00000000 PA:0x80008053
       49845000	      4983	80004584	0029e8b3	or	x17,x19,x2	 x19:0x00000000  x2:0x80008048 x17=0x80008048
       49855000	      4984	80004588	00e11303	lh	x6,14(x2)	  x2:0x80008048  x6=0xfffffff0 PA:0x80008056
       49865000	      4985	8000458c	00f10223	sb	x15,4(x2)	  x2:0x80008048 x15:0x80009ffc PA:0x8000804c
       49875000	      4986	80004590	018b6fb3	or	x31,x22,x24	 x22:0x00000001 x24:0x00000000 x31=0x00000001
       49885000	      4987	80004594	00714d83	lbu	x27,7(x2)	  x2:0x80008048 x27=0x00000000 PA:0x8000804f
       49895000	      4988	80004598	00410983	lb	x19,4(x2)	  x2:0x80008048 x19=0xfffffffc PA:0x8000804c
       49905000	      4989	00000000	00000013	addi	x0,x0,0	  x0:0x00000000
       49915000	      4990	8000459c	013240b3	xor	x1,x4,x19	  x4:0x00000000 x19:0xfffffffc  x1=0xfffffffc
       49925000	      4991	800045a0	1bb88a93	addi	x21,x17,443	 x17:0x80008048 x21=0x80008203
       49935000	      4992	800045a4	00845793	srli	x15,x8,0x8	  x8:0x00000001 x15=0x00000000
       49945000	      4993	800045a8	418958b3	sra	x17,x18,x24	 x18:0x475a92a9 x24:0x00000000 x17=0x475a92a9
       49955000	      4994	800045ac	01526ab3	or	x21,x4,x21	  x4:0x00000000 x21:0x80008203 x21=0x80008203
       49965000	      4995	800045b0	2e83d717	auipc	x14,0x2e83d	 x14=0xae8415ac
       49975000	      4996	800045b4	16b20193	addi	x3,x4,363	  x4:0x00000000  x3=0x0000016b
       49985000	      4997	800045b8	00000013	addi	x0,x0,0	  x0:0x00000000
       49995000	      4998	800045bc	0082e2b3	or	x5,x5,x8	  x5:0xfffffff0  x8:0x00000001  x5=0xfffffff1
       50005000	      4999	800045c0	41658ab3	sub	x21,x11,x22	 x11:0x80007f60 x22:0x00000001 x21=0x80007f5f
       50015000	      5000	800045c4	00672a33	slt	x20,x14,x6	 x14:0xae8415ac  x6:0xfffffff0 x20=0x00000001
       50025000	      5001	800045c8	011871b3	and	x3,x16,x17	 x16:0x6f11d000 x17:0x475a92a9  x3=0x47109000
       50035000	      5002	800045cc	011b6eb3	or	x29,x22,x17	 x22:0x00000001 x17:0x475a92a9 x29=0x475a92a9
       50045000	      5003	800045d0	1d7ddf37	lui	x30,0x1d7dd	 x30=0x1d7dd000
       50055000	      5004	800045d4	40ea8533	sub	x10,x21,x14	 x21:0x80007f5f x14:0xae8415ac x10=0xd17c69b3
       50065000	      5005	800045d8	34ba0f97	auipc	x31,0x34ba0	 x31=0xb4ba45d4
       50075000	      5006	800045dc	85797d17	auipc	x26,0x85797	 x26=0x0579b5d8
       50085000	      5007	800045e0	00b3db93	srli	x23,x7,0xb	  x7:0x80009f28 x23=0x00100013
       50095000	      5008	800045e4	01911723	sh	x25,14(x2)	  x2:0x80008048 x25:0x08eb5255 PA:0x80008056
       50105000	      5009	800045e8	89266f97	auipc	x31,0x89266	 x31=0x0926a5e4
       50115000	      5010	800045ec	01a3c1b3	xor	x3,x7,x26	  x7:0x80009f28 x26:0x0579b5d8  x3=0x85792af0
       50125000	      5011	800045f0	01014983	lbu	x19,16(x2)	  x2:0x80008048 x19=0x00000000 PA:0x80008058
       50135000	      5012	800045f4	00004117	auipc	x2,0x4	  x2=0x800085f0
       50145000	      5013	800045f8	d7210113	addi	x2,x2,-654	  x2:0x800085f0  x2=0x80008362
       50155000	      5014	800045fc	fe6ab717	auipc	x14,0xfe6ab	 x14=0x7e6af5f8
       50165000	      5015	80004600	03010423	sb	x16,40(x2)	  x2:0x80008362 x16:0x6f11d000 PA:0x8000838a
       50175000	      5016	80004604	00e668b3	or	x17,x12,x14	 x12:0x00000620 x14:0x7e6af5f8 x17=0x7e6af7f8
       50185000	      5017	80004608	41e85d93	srai	x27,x16,0x1e	 x16:0x6f11d000 x27=0x00000001
       50195000	      5018	8000460c	fd110783	lb	x15,-47(x2)	  x2:0x80008362 x15=0x00000000 PA:0x80008333
       50205000	      5019	00000000	00000013	addi	x0,x0,0	  x0:0x00000000
       50215000	      5020	80004610	0197cb33	xor	x22,x15,x25	 x15:0x00000000 x25:0x08eb5255 x22=0x08eb5255
       50225000	      5021	80004614	fc210623	sb	x2,-52(x2)	  x2:0x80008362  x2:0x80008362 PA:0x8000832e
       50235000	      5022	80004618	ffe11483	lh	x9,-2(x2)	  x2:0x80008362  x9=0x00000000 PA:0x80008360
       50245000	      5023	8000461c	00510da3	sb	x5,27(x2)	  x2:0x80008362  x5:0xfffffff1 PA:0x8000837d
       50255000	      5024	80004620	83cdcb13	xori	x22,x27,-1988	 x27:0x00000001 x22=0xfffff83d
       50265000	      5025	80004624	ffd14f03	lbu	x30,-3(x2)	  x2:0x80008362 x30=0x00000000 PA:0x8000835f
       50275000	      5026	80004628	4097d633	sra	x12,x15,x9	 x15:0x00000000  x9:0x00000000 x12=0x00000000
       50285000	      5027	8000462c	01b45c13	srli	x24,x8,0x1b	  x8:0x00000001 x24=0x00000000
       50295000	      5028	80004630	d6c9c097	auipc	x1,0xd6c9c	  x1=0x56ca062c
       50305000	      5029	80004634	00000013	addi	x0,x0,0	  x0:0x00000000
       50315000	      5030	80004638	00114703	lbu	x14,1(x2)	  x2:0x80008362 x14=0x00000000 PA:0x80008363
       50325000	      5031	8000463c	03a12f23	sw	x26,62(x2)	  x2:0x80008362 x26:0x0579b5d8 PA:0x800083a0
       50335000	      5032	80004640	00212b03	lw	x22,2(x2)	  x2:0x80008362 x22=0x22000000 PA:0x80008364
       50345000	      5033	80004644	00561a13	slli	x20,x12,0x5	 x12:0x00000000 x20=0x00000000
       50355000	      5034	80004648	01d14083	lbu	x1,29(x2)	  x2:0x80008362  x1=0x00000000 PA:0x8000837f
       50365000	      5035	8000464c	41410033	sub	x0,x2,x20	  x2:0x80008362 x20:0x00000000
       50375000	      5036	80004650	00c65693	srli	x13,x12,0xc	 x12:0x00000000 x13=0x00000000
       50385000	      5037	80004654	019ce8b3	or	x17,x25,x25	 x25:0x08eb5255 x25:0x08eb5255 x17=0x08eb5255
       50395000	      5038	80004658	02310c83	lb	x25,35(x2)	  x2:0x80008362 x25=0x00000000 PA:0x80008385
       50405000	      5039	8000465c	00512f23	sw	x5,30(x2)	  x2:0x80008362  x5:0xfffffff1 PA:0x80008380
       50415000	      5040	80004660	bce40013	addi	x0,x8,-1074	  x8:0x00000001
       50425000	      5041	80004664	00405513	srli	x10,x0,0x4	  x0:0x00000000 x10=0x00000000
       50435000	      5042	80004668	011aa333	slt	x6,x21,x17	 x21:0x80007f5f x17:0x08eb5255  x6=0x00000001
       50445000	      5043	8000466c	01510ba3	sb	x21,23(x2)	  x2:0x80008362 x21:0x80007f5f PA:0x80008379
       50455000	      5044	80004670	fc010503	lb	x10,-64(x2)	  x2:0x80008362 x10=0x00000000 PA:0x80008322
       50465000	      5045	80004674	01dcedb3	or	x27,x25,x29	 x25:0x00000000 x29:0x475a92a9 x27=0x475a92a9
       50475000	      5046	80004678	01f10da3	sb	x31,27(x2)	  x2:0x80008362 x31:0x0926a5e4 PA:0x8000837d
       50485000	      5047	8000467c	003105a3	sb	x3,11(x2)	  x2:0x80008362  x3:0x85792af0 PA:0x8000836d
       50495000	      5048	80004680	41dbdf13	srai	x30,x23,0x1d	 x23:0x00100013 x30=0x00000000
       50505000	      5049	80004684	03414c83	lbu	x25,52(x2)	  x2:0x80008362 x25=0x00000000 PA:0x80008396
       50515000	      5050	80004688	fca10f03	lb	x30,-54(x2)	  x2:0x80008362 x30=0x00000000 PA:0x8000832c
       50525000	      5051	8000468c	00004317	auipc	x6,0x4	  x6=0x80008688
       50535000	      5052	80004690	be630313	addi	x6,x6,-1050	  x6:0x80008688  x6=0x8000826e
       50545000	      5053	80004694	e2f303a3	sb	x15,-473(x6)	  x6:0x8000826e x15:0x00000000 PA:0x80008095
       50555000	      5054	80004698	007630b3	sltu	x1,x12,x7	 x12:0x00000000  x7:0x80009f28  x1=0x00000001
       50565000	      5055	8000469c	4107d093	srai	x1,x15,0x10	 x15:0x00000000  x1=0x00000000
       50575000	      5056	800046a0	0da35803	lhu	x16,218(x6)	  x6:0x8000826e x16=0x00000000 PA:0x80008348
       50585000	      5057	800046a4	016311b3	sll	x3,x6,x22	  x6:0x8000826e x22:0x22000000  x3=0x8000826e
       50595000	      5058	800046a8	009cacb3	slt	x25,x25,x9	 x25:0x00000000  x9:0x00000000 x25=0x00000000
       50605000	      5059	800046ac	00000013	addi	x0,x0,0	  x0:0x00000000
       50615000	      5060	800046b0	21231d83	lh	x27,530(x6)	  x6:0x8000826e x27=0x00000000 PA:0x80008480
       50625000	      5061	800046b4	e9a31223	sh	x26,-380(x6)	  x6:0x8000826e x26:0x0579b5d8 PA:0x800080f2
       50635000	      5062	800046b8	f4930483	lb	x9,-183(x6)	  x6:0x8000826e  x9=0x00000000 PA:0x800081b7
       50645000	      5063	800046bc	15c31983	lh	x19,348(x6)	  x6:0x8000826e x19=0x00000000 PA:0x800083ca
       50655000	      5064	800046c0	40f55513	srai	x10,x10,0xf	 x10:0x00000000 x10=0x00000000
       50665000	      5065	800046c4	017e9cb3	sll	x25,x29,x23	 x29:0x475a92a9 x23:0x00100013 x25=0x95480000
       50675000	      5066	800046c8	0036f1b3	and	x3,x13,x3	 x13:0x00000000  x3:0x8000826e  x3=0x00000000
       50685000	      5067	800046cc	e1c31983	lh	x19,-484(x6)	  x6:0x8000826e x19=0x00000000 PA:0x8000808a
       50695000	      5068	800046d0	005b39b3	sltu	x19,x22,x5	 x22:0x22000000  x5:0xfffffff1 x19=0x00000001
       50705000	      5069	800046d4	c8c9cf93	xori	x31,x19,-884	 x19:0x00000001 x31=0xfffffc8d
       50715000	      5070	800046d8	51130d03	lb	x26,1297(x6)	  x6:0x8000826e x26=0x00000000 PA:0x8000877f
       50725000	      5071	800046dc	41985893	srai	x17,x16,0x19	 x16:0x00000000 x17=0x00000000
       50735000	      5072	800046e0	53631023	sh	x22,1312(x6)	  x6:0x8000826e x22:0x22000000 PA:0x8000878e
       50745000	      5073	800046e4	01b61c33	sll	x24,x12,x27	 x12:0x00000000 x27:0x00000000 x24=0x00000000
       50755000	      5074	800046e8	01b30ea3	sb	x27,29(x6)	  x6:0x8000826e x27:0x00000000 PA:0x8000828b
       50765000	      5075	800046ec	00ea18b3	sll	x17,x20,x14	 x20:0x00000000 x14:0x00000000 x17=0x00000000
       50775000	      5076	800046f0	016bfd33	and	x26,x23,x22	 x23:0x00100013 x22:0x22000000 x26=0x00000000
       50785000	      5077	800046f4	016c8b33	add	x22,x25,x22	 x25:0x95480000 x22:0x22000000 x22=0xb7480000
       50795000	      5078	800046f8	0070da93	srli	x21,x1,0x7	  x1:0x00000000 x21=0x00000000
       50805000	      5079	800046fc	2d835b83	lhu	x23,728(x6)	  x6:0x8000826e x23=0x00000000 PA:0x80008546
       50815000	      5080	80004700	87e7ca13	xori	x20,x15,-1922	 x15:0x00000000 x20=0xfffff87e
       50825000	      5081	80004704	e2d30423	sb	x13,-472(x6)	  x6:0x8000826e x13:0x00000000 PA:0x80008096
       50835000	      5082	80004708	0143f133	and	x2,x7,x20	  x7:0x80009f28 x20:0xfffff87e  x2=0x80009828
       50845000	      5083	8000470c	45be0b13	addi	x22,x28,1115	 x28:0x80009fc4 x22=0x8000a41f
       50855000	      5084	80004710	0000e1b3	or	x3,x1,x0	  x1:0x00000000  x0:0x00000000  x3=0x00000000
       50865000	      5085	80004714	4bc31983	lh	x19,1212(x6)	  x6:0x8000826e x19=0x00004530 PA:0x8000872a
       50875000	      5086	80004718	410b5ab3	sra	x21,x22,x16	 x22:0x8000a41f x16:0x00000000 x21=0x8000a41f
       50885000	      5087	8000471c	00a61bb3	sll	x23,x12,x10	 x12:0x00000000 x10:0x00000000 x23=0x00000000
       50895000	      5088	80004720	eb134e83	lbu	x29,-335(x6)	  x6:0x8000826e x29=0x00000000 PA:0x8000811f
       50905000	      5089	80004724	3f9ae413	ori	x8,x21,1017	 x21:0x8000a41f  x8=0x8000a7ff
       50915000	      5090	80004728	40ebdf33	sra	x30,x23,x14	 x23:0x00000000 x14:0x00000000 x30=0x00000000
       50925000	      5091	8000472c	017d9513	slli	x10,x27,0x17	 x27:0x00000000 x10=0x00000000
       50935000	      5092	80004730	00c1d113	srli	x2,x3,0xc	  x3:0x00000000  x2=0x00000000
       50945000	      5093	80004734	d6612a93	slti	x21,x2,-666	  x2:0x00000000 x21=0x00000000
       50955000	      5094	80004738	179305a3	sb	x25,363(x6)	  x6:0x8000826e x25:0x95480000 PA:0x800083d9
       50965000	      5095	8000473c	011f4a33	xor	x20,x30,x17	 x30:0x00000000 x17:0x00000000 x20=0x00000000
       50975000	      5096	80004740	02ad3293	sltiu	x5,x26,42	 x26:0x00000000  x5=0x00000001
       50985000	      5097	80004744	e1793497	auipc	x9,0xe1793	  x9=0x61797740
       50995000	      5098	80004748	0e25f513	andi	x10,x11,226	 x11:0x80007f60 x10=0x00000060
       51005000	      5099	8000474c	05811863	bne	x2,x24,8000479c	  x2:0x00000000 x24:0x00000000
       51015000	      5100	80004750	03fc1063	bne	x24,x31,80004770	 x24:0x00000000 x31:0xfffffc8d
       51025000	      5101	00000000	00000013	addi	x0,x0,0	  x0:0x00000000
       51035000	      5102	8000476c	00000013	addi	x0,x0,0	  x0:0x00000000
       51045000	      5103	80004770	6a56acb7	lui	x25,0x6a56a	 x25=0x6a56a000
       51055000	      5104	80004774	0059d233	srl	x4,x19,x5	 x19:0x00004530  x5:0x00000001  x4=0x00002298
       51065000	      5105	80004778	fcdb6897	auipc	x17,0xfcdb6	 x17=0x7cdba774
       51075000	      5106	8000477c	00815013	srli	x0,x2,0x8	  x2:0x00000000
       51085000	      5107	80004780	08a4d8b7	lui	x17,0x8a4d	 x17=0x08a4d000
       51095000	      5108	80004784	01654533	xor	x10,x10,x22	 x10:0x00000060 x22:0x8000a41f x10=0x8000a47f
       51105000	      5109	80004788	05234263	blt	x6,x18,800047cc	  x6:0x8000826e x18:0x475a92a9
       51115000	      5110	00000000	00000013	addi	x0,x0,0	  x0:0x00000000
       51125000	      5111	800047c8	00000013	addi	x0,x0,0	  x0:0x00000000
       51135000	      5112	800047cc	0169d9b3	srl	x19,x19,x22	 x19:0x00004530 x22:0x8000a41f x19=0x00000000
       51145000	      5113	800047d0	03326263	bltu	x4,x19,800047f4	  x4:0x00002298 x19:0x00000000
       51155000	      5114	800047d4	01605233	srl	x4,x0,x22	  x0:0x00000000 x22:0x8000a41f  x4=0x00000000
       51165000	      5115	800047d8	013f6a33	or	x20,x30,x19	 x30:0x00000000 x19:0x00000000 x20=0x00000000
       51175000	      5116	800047dc	002f8533	add	x10,x31,x2	 x31:0xfffffc8d  x2:0x00000000 x10=0xfffffc8d
       51185000	      5117	800047e0	0271ea63	bltu	x3,x7,80004814	  x3:0x00000000  x7:0x80009f28
       51195000	      5118	00000000	00000013	addi	x0,x0,0	  x0:0x00000000
       51205000	      5119	80004810	00000013	addi	x0,x0,0	  x0:0x00000000
       51215000	      5120	80004814	7b55a117	auipc	x2,0x7b55a	  x2=0xfb55e810
       51225000	      5121	80004818	00daebb3	or	x23,x21,x13	 x21:0x00000000 x13:0x00000000 x23=0x00000000
       51235000	      5122	8000481c	01fd39b3	sltu	x19,x26,x31	 x26:0x00000000 x31:0xfffffc8d x19=0x00000001
       51245000	      5123	80004820	0054cd33	xor	x26,x9,x5	  x9:0x61797740  x5:0x00000001 x26=0x61797741
       51255000	      5124	80004824	00000013	addi	x0,x0,0	  x0:0x00000000
       51265000	      5125	80004828	4136d293	srai	x5,x13,0x13	 x13:0x00000000  x5=0x00000000
       51275000	      5126	8000482c	0537c063	blt	x15,x19,8000486c	 x15:0x00000000 x19:0x00000001
       51285000	      5127	00000000	00000013	addi	x0,x0,0	  x0:0x00000000
       51295000	      5128	80004868	00000013	addi	x0,x0,0	  x0:0x00000000
       51305000	      5129	8000486c	00311d33	sll	x26,x2,x3	  x2:0xfb55e810  x3:0x00000000 x26=0xfb55e810
       51315000	      5130	80004870	a6f0c313	xori	x6,x1,-1425	  x1:0x00000000  x6=0xfffffa6f
       51325000	      5131	80004874	553efc13	andi	x24,x29,1363	 x29:0x00000000 x24=0x00000000
       51335000	      5132	80004878	40425613	srai	x12,x4,0x4	  x4:0x00000000 x12=0x00000000
       51345000	      5133	8000487c	41c45c93	srai	x25,x8,0x1c	  x8:0x8000a7ff x25=0xfffffff8
       51355000	      5134	80004880	027bd263	bge	x23,x7,800048a4	 x23:0x00000000  x7:0x80009f28
       51365000	      5135	00000000	00000013	addi	x0,x0,0	  x0:0x00000000
       51375000	      5136	800048a0	00000013	addi	x0,x0,0	  x0:0x00000000
       51385000	      5137	800048a4	000c7233	and	x4,x24,x0	 x24:0x00000000  x0:0x00000000  x4=0x00000000
       51395000	      5138	800048a8	006e6a63	bltu	x28,x6,800048bc	 x28:0x80009fc4  x6:0xfffffa6f
       51405000	      5139	00000000	00000013	addi	x0,x0,0	  x0:0x00000000
       51415000	      5140	800048b8	00000013	addi	x0,x0,0	  x0:0x00000000
       51425000	      5141	800048bc	7d25a993	slti	x19,x11,2002	 x11:0x80007f60 x19=0x00000001
       51435000	      5142	800048c0	00cf5213	srli	x4,x30,0xc	 x30:0x00000000  x4=0x00000000
       51445000	      5143	800048c4	01321a13	slli	x20,x4,0x13	  x4:0x00000000 x20=0x00000000
       51455000	      5144	800048c8	00c76db3	or	x27,x14,x12	 x14:0x00000000 x12:0x00000000 x27=0x00000000
       51465000	      5145	800048cc	0063db13	srli	x22,x7,0x6	  x7:0x80009f28 x22=0x0200027c
       51475000	      5146	800048d0	0507d863	bge	x15,x16,80004920	 x15:0x00000000 x16:0x00000000
       51485000	      5147	00000000	00000013	addi	x0,x0,0	  x0:0x00000000
       51495000	      5148	8000491c	00000013	addi	x0,x0,0	  x0:0x00000000
       51505000	      5149	80004920	04b07863	bgeu	x0,x11,80004970	  x0:0x00000000 x11:0x80007f60
       51515000	      5150	80004924	d699e513	ori	x10,x19,-663	 x19:0x00000001 x10=0xfffffd69
       51525000	      5151	80004928	e086c793	xori	x15,x13,-504	 x13:0x00000000 x15=0xfffffe08
       51535000	      5152	8000492c	009f9c63	bne	x31,x9,80004944	 x31:0xfffffc8d  x9:0x61797740
       51545000	      5153	00000000	00000013	addi	x0,x0,0	  x0:0x00000000
       51555000	      5154	80004940	00000013	addi	x0,x0,0	  x0:0x00000000
       51565000	      5155	80004944	0b952813	slti	x16,x10,185	 x10:0xfffffd69 x16=0x00000001
       51575000	      5156	80004948	011f14b3	sll	x9,x30,x17	 x30:0x00000000 x17:0x08a4d000  x9=0x00000000
       51585000	      5157	8000494c	202fef93	ori	x31,x31,514	 x31:0xfffffc8d x31=0xfffffe8f
       51595000	      5158	80004950	006122b3	slt	x5,x2,x6	  x2:0xfb55e810  x6:0xfffffa6f  x5=0x00000001
       51605000	      5159	80004954	005e5493	srli	x9,x28,0x5	 x28:0x80009fc4  x9=0x040004fe
       51615000	      5160	80004958	00d94b33	xor	x22,x18,x13	 x18:0x475a92a9 x13:0x00000000 x22=0x475a92a9
       51625000	      5161	8000495c	02fb6063	bltu	x22,x15,8000497c	 x22:0x475a92a9 x15:0xfffffe08
       51635000	      5162	00000000	00000013	addi	x0,x0,0	  x0:0x00000000
       51645000	      5163	80004978	00000013	addi	x0,x0,0	  x0:0x00000000
       51655000	      5164	8000497c	023b4263	blt	x22,x3,800049a0	 x22:0x475a92a9  x3:0x00000000
       51665000	      5165	80004980	0053b2b3	sltu	x5,x7,x5	  x7:0x80009f28  x5:0x00000001  x5=0x00000000
       51675000	      5166	80004984	3b468893	addi	x17,x13,948	 x13:0x00000000 x17=0x000003b4
       51685000	      5167	80004988	0081df13	srli	x30,x3,0x8	  x3:0x00000000 x30=0x00000000
       51695000	      5168	8000498c	00fc5993	srli	x19,x24,0xf	 x24:0x00000000 x19=0x00000000
       51705000	      5169	80004990	f0a16e93	ori	x29,x2,-246	  x2:0xfb55e810 x29=0xffffff1a
       51715000	      5170	80004994	00f43d33	sltu	x26,x8,x15	  x8:0x8000a7ff x15:0xfffffe08 x26=0x00000001
       51725000	      5171	80004998	016ee7b3	or	x15,x29,x22	 x29:0xffffff1a x22:0x475a92a9 x15=0xffffffbb
       51735000	      5172	8000499c	ca360993	addi	x19,x12,-861	 x12:0x00000000 x19=0xfffffca3
       51745000	      5173	800049a0	10427293	andi	x5,x4,260	  x4:0x00000000  x5=0x00000000
       51755000	      5174	800049a4	009c8633	add	x12,x25,x9	 x25:0xfffffff8  x9:0x040004fe x12=0x040004f6
       51765000	      5175	800049a8	414f8f33	sub	x30,x31,x20	 x31:0xfffffe8f x20:0x00000000 x30=0xfffffe8f
       51775000	      5176	800049ac	413456b3	sra	x13,x8,x19	  x8:0x8000a7ff x19:0xfffffca3 x13=0xf00014ff
       51785000	      5177	800049b0	01490663	beq	x18,x20,800049bc	 x18:0x475a92a9 x20:0x00000000
       51795000	      5178	800049b4	00a75113	srli	x2,x14,0xa	 x14:0x00000000  x2=0x00000000
       51805000	      5179	800049b8	f764b713	sltiu	x14,x9,-138	  x9:0x040004fe x14=0x00000001
       51815000	      5180	800049bc	0092de63	bge	x5,x9,800049d8	  x5:0x00000000  x9:0x040004fe
       51825000	      5181	800049c0	01379f93	slli	x31,x15,0x13	 x15:0xffffffbb x31=0xfdd80000
       51835000	      5182	800049c4	0057f033	and	x0,x15,x5	 x15:0xffffffbb  x5:0x00000000
       51845000	      5183	800049c8	02e8fa63	bgeu	x17,x14,800049fc	 x17:0x000003b4 x14:0x00000001
       51855000	      5184	00000000	00000013	addi	x0,x0,0	  x0:0x00000000
       51865000	      5185	800049f8	00000013	addi	x0,x0,0	  x0:0x00000000
       51875000	      5186	800049fc	3f280313	addi	x6,x16,1010	 x16:0x00000001  x6=0x000003f3
       51885000	      5187	80004a00	00004b17	auipc	x22,0x4	 x22=0x800089fc
       51895000	      5188	80004a04	20bb0b13	addi	x22,x22,523	 x22:0x800089fc x22=0x80008c07
       51905000	      5189	80004a08	00ab0f03	lb	x30,10(x22)	 x22:0x80008c07 x30=0x00000000 PA:0x80008c11
       51915000	      5190	80004a0c	ff0b4d83	lbu	x27,-16(x22)	 x22:0x80008c07 x27=0x00000000 PA:0x80008bf7
       51925000	      5191	80004a10	007b4883	lbu	x17,7(x22)	 x22:0x80008c07 x17=0x00000000 PA:0x80008c0e
       51935000	      5192	80004a14	0421a437	lui	x8,0x421a	  x8=0x0421a000
       51945000	      5193	80004a18	008b4f83	lbu	x31,8(x22)	 x22:0x80008c07 x31=0x00000000 PA:0x80008c0f
       51955000	      5194	80004a1c	ff7b0e23	sb	x23,-4(x22)	 x22:0x80008c07 x23:0x00000000 PA:0x80008c03
       51965000	      5195	80004a20	00000013	addi	x0,x0,0	  x0:0x00000000
       51975000	      5196	80004a24	ee542493	slti	x9,x8,-283	  x8:0x0421a000  x9=0x00000000
       51985000	      5197	80004a28	41515313	srai	x6,x2,0x15	  x2:0x00000000  x6=0x00000000
       51995000	      5198	80004a2c	ff8b4883	lbu	x17,-8(x22)	 x22:0x80008c07 x17=0x00000000 PA:0x80008bff
       52005000	      5199	80004a30	00db0603	lb	x12,13(x22)	 x22:0x80008c07 x12=0xffffffff PA:0x80008c14
       52015000	      5200	80004a34	014b0423	sb	x20,8(x22)	 x22:0x80008c07 x20:0x00000000 PA:0x80008c0f
       52025000	      5201	80004a38	00a601b3	add	x3,x12,x10	 x12:0xffffffff x10:0xfffffd69  x3=0xfffffd68
       52035000	      5202	80004a3c	0099b533	sltu	x10,x19,x9	 x19:0xfffffca3  x9:0x00000000 x10=0x00000000
       52045000	      5203	80004a40	011b12a3	sh	x17,5(x22)	 x22:0x80008c07 x17:0x00000000 PA:0x80008c0c
       52055000	      5204	80004a44	db1dff13	andi	x30,x27,-591	 x27:0x00000000 x30=0x00000000
       52065000	      5205	80004a48	01e5d733	srl	x14,x11,x30	 x11:0x80007f60 x30:0x00000000 x14=0x80007f60
       52075000	      5206	80004a4c	01b76a33	or	x20,x14,x27	 x14:0x80007f60 x27:0x00000000 x20=0x80007f60
       52085000	      5207	80004a50	017ed533	srl	x10,x29,x23	 x29:0xffffff1a x23:0x00000000 x10=0xffffff1a
       52095000	      5208	80004a54	01652833	slt	x16,x10,x22	 x10:0xffffff1a x22:0x80008c07 x16=0x00000000
       52105000	      5209	80004a58	010b4203	lbu	x4,16(x22)	 x22:0x80008c07  x4=0x000000f0 PA:0x80008c17
       52115000	      5210	80004a5c	01f5b233	sltu	x4,x11,x31	 x11:0x80007f60 x31:0x00000000  x4=0x00000000
       52125000	      5211	80004a60	00db26a3	sw	x13,13(x22)	 x22:0x80008c07 x13:0xf00014ff PA:0x80008c14
       52135000	      5212	80004a64	00000013	addi	x0,x0,0	  x0:0x00000000
       52145000	      5213	80004a68	ff5b1403	lh	x8,-11(x22)	 x22:0x80008c07  x8=0x00000000 PA:0x80008bfc
       52155000	      5214	80004a6c	404a5f93	srai	x31,x20,0x4	 x20:0x80007f60 x31=0xf80007f6
       52165000	      5215	80004a70	407a5b93	srai	x23,x20,0x7	 x20:0x80007f60 x23=0xff0000fe
       52175000	      5216	80004a74	4044dcb3	sra	x25,x9,x4	  x9:0x00000000  x4:0x00000000 x25=0x00000000
       52185000	      5217	80004a78	00b6d263	bge	x13,x11,80004a7c	 x13:0xf00014ff x11:0x80007f60
       52195000	      5218	00000000	00000013	addi	x0,x0,0	  x0:0x00000000
       52205000	      5219	80004a78	00000013	addi	x0,x0,0	  x0:0x00000000
       52215000	      5220	80004a7c	7d604a37	lui	x20,0x7d604	 x20=0x7d604000
       52225000	      5221	80004a80	05ccd663	bge	x25,x28,80004acc	 x25:0x00000000 x28:0x80009fc4
       52235000	      5222	00000000	00000013	addi	x0,x0,0	  x0:0x00000000
       52245000	      5223	80004ac8	00000013	addi	x0,x0,0	  x0:0x00000000
       52255000	      5224	80004acc	04cdd263	bge	x27,x12,80004b10	 x27:0x00000000 x12:0xffffffff
       52265000	      5225	00000000	00000013	addi	x0,x0,0	  x0:0x00000000
       52275000	      5226	80004b0c	00000013	addi	x0,x0,0	  x0:0x00000000
       52285000	      5227	80004b10	41cc87b3	sub	x15,x25,x28	 x25:0x00000000 x28:0x80009fc4 x15=0x7fff603c
       52295000	      5228	80004b14	02ed8263	beq	x27,x14,80004b38	 x27:0x00000000 x14:0x80007f60
       52305000	      5229	80004b18	00ab2333	slt	x6,x22,x10	 x22:0x80008c07 x10:0xffffff1a  x6=0x00000001
       52315000	      5230	80004b1c	40960033	sub	x0,x12,x9	 x12:0xffffffff  x9:0x00000000
       52325000	      5231	80004b20	00371d33	sll	x26,x14,x3	 x14:0x80007f60  x3:0xfffffd68 x26=0x007f6000
       52335000	      5232	80004b24	04104263	blt	x0,x1,80004b68	  x0:0x00000000  x1:0x00000000
       52345000	      5233	80004b28	0076adb3	slt	x27,x13,x7	 x13:0xf00014ff  x7:0x80009f28 x27=0x00000000
       52355000	      5234	80004b2c	00b29a13	slli	x20,x5,0xb	  x5:0x00000000 x20=0x00000000
       52365000	      5235	80004b30	001c99b3	sll	x19,x25,x1	 x25:0x00000000  x1:0x00000000 x19=0x00000000
       52375000	      5236	80004b34	018fe2b3	or	x5,x31,x24	 x31:0xf80007f6 x24:0x00000000  x5=0xf80007f6
       52385000	      5237	80004b38	01bc8db3	add	x27,x25,x27	 x25:0x00000000 x27:0x00000000 x27=0x00000000
       52395000	      5238	80004b3c	9e97a693	slti	x13,x15,-1559	 x15:0x7fff603c x13=0x00000000
       52405000	      5239	80004b40	41a15a13	srai	x20,x2,0x1a	  x2:0x00000000 x20=0x00000000
       52415000	      5240	80004b44	00729093	slli	x1,x5,0x7	  x5:0xf80007f6  x1=0x0003fb00
       52425000	      5241	80004b48	00000013	addi	x0,x0,0	  x0:0x00000000
       52435000	      5242	80004b4c	00c75fb3	srl	x31,x14,x12	 x14:0x80007f60 x12:0xffffffff x31=0x00000001
       52445000	      5243	80004b50	00000013	addi	x0,x0,0	  x0:0x00000000
       52455000	      5244	80004b54	05a7f463	bgeu	x15,x26,80004b9c	 x15:0x7fff603c x26:0x007f6000
       52465000	      5245	00000000	00000013	addi	x0,x0,0	  x0:0x00000000
       52475000	      5246	80004b98	00000013	addi	x0,x0,0	  x0:0x00000000
       52485000	      5247	80004b9c	57ddfe97	auipc	x29,0x57ddf	 x29=0xd7de3b98
       52495000	      5248	80004ba0	000a1c63	bne	x20,x0,80004bb8	 x20:0x00000000  x0:0x00000000
       52505000	      5249	80004ba4	026d5263	bge	x26,x6,80004bc8	 x26:0x007f6000  x6:0x00000001
       52515000	      5250	00000000	00000013	addi	x0,x0,0	  x0:0x00000000
       52525000	      5251	80004bc4	00000013	addi	x0,x0,0	  x0:0x00000000
       52535000	      5252	80004bc8	01ea9893	slli	x17,x21,0x1e	 x21:0x00000000 x17=0x00000000
       52545000	      5253	80004bcc	9c3a0a13	addi	x20,x20,-1597	 x20:0x00000000 x20=0xfffff9c3
       52555000	      5254	80004bd0	00951fb3	sll	x31,x10,x9	 x10:0xffffff1a  x9:0x00000000 x31=0xffffff1a
       52565000	      5255	80004bd4	05470663	beq	x14,x20,80004c20	 x14:0x80007f60 x20:0xfffff9c3
       52575000	      5256	80004bd8	0165f033	and	x0,x11,x22	 x11:0x80007f60 x22:0x80008c07
       52585000	      5257	80004bdc	00000013	addi	x0,x0,0	  x0:0x00000000
       52595000	      5258	80004be0	41c75893	srai	x17,x14,0x1c	 x14:0x80007f60 x17=0xfffffff8
       52605000	      5259	80004be4	0112f263	bgeu	x5,x17,80004be8	  x5:0xf80007f6 x17:0xfffffff8
       52615000	      5260	80004be8	4048d713	srai	x14,x17,0x4	 x17:0xfffffff8 x14=0xffffffff
       52625000	      5261	80004bec	d517cd13	xori	x26,x15,-687	 x15:0x7fff603c x26=0x80009d6d
       52635000	      5262	80004bf0	00b821b3	slt	x3,x16,x11	 x16:0x00000000 x11:0x80007f60  x3=0x00000000
       52645000	      5263	80004bf4	01cd69b3	or	x19,x26,x28	 x26:0x80009d6d x28:0x80009fc4 x19=0x80009fed
       52655000	      5264	80004bf8	01b8e633	or	x12,x17,x27	 x17:0xfffffff8 x27:0x00000000 x12=0xfffffff8
       52665000	      5265	80004bfc	05df4863	blt	x30,x29,80004c4c	 x30:0x00000000 x29:0xd7de3b98
       52675000	      5266	80004c00	9befa693	slti	x13,x31,-1602	 x31:0xffffff1a x13=0x00000000
       52685000	      5267	80004c04	01dbd033	srl	x0,x23,x29	 x23:0xff0000fe x29:0xd7de3b98
       52695000	      5268	80004c08	01a31d13	slli	x26,x6,0x1a	  x6:0x00000001 x26=0x04000000
       52705000	      5269	80004c0c	015fcc33	xor	x24,x31,x21	 x31:0xffffff1a x21:0x00000000 x24=0xffffff1a
       52715000	      5270	80004c10	95164613	xori	x12,x12,-1711	 x12:0xfffffff8 x12=0x000006a9
       52725000	      5271	80004c14	418a8db3	sub	x27,x21,x24	 x21:0x00000000 x24:0xffffff1a x27=0x000000e6
       52735000	      5272	80004c18	01c876b3	and	x13,x16,x28	 x16:0x00000000 x28:0x80009fc4 x13=0x00000000
       52745000	      5273	80004c1c	04114063	blt	x2,x1,80004c5c	  x2:0x00000000  x1:0x0003fb00
       52755000	      5274	00000000	00000013	addi	x0,x0,0	  x0:0x00000000
       52765000	      5275	80004c58	00000013	addi	x0,x0,0	  x0:0x00000000
       52775000	      5276	80004c5c	81d9c513	xori	x10,x19,-2019	 x19:0x80009fed x10=0x7fff67f0
       52785000	      5277	80004c60	22e13593	sltiu	x11,x2,558	  x2:0x00000000 x11=0x00000001
       52795000	      5278	80004c64	dc780a97	auipc	x21,0xdc780	 x21=0x5c784c60
       52805000	      5279	80004c68	01bd3db3	sltu	x27,x26,x27	 x26:0x04000000 x27:0x000000e6 x27=0x00000000
       52815000	      5280	80004c6c	40f1d233	sra	x4,x3,x15	  x3:0x00000000 x15:0x7fff603c  x4=0x00000000
       52825000	      5281	80004c70	0157dd13	srli	x26,x15,0x15	 x15:0x7fff603c x26=0x000003ff
       52835000	      5282	80004c74	417657b3	sra	x15,x12,x23	 x12:0x000006a9 x23:0xff0000fe x15=0x00000000
       52845000	      5283	80004c78	4127d093	srai	x1,x15,0x12	 x15:0x00000000  x1=0x00000000
       52855000	      5284	80004c7c	01044663	blt	x8,x16,80004c88	  x8:0x00000000 x16:0x00000000
       52865000	      5285	80004c80	80640513	addi	x10,x8,-2042	  x8:0x00000000 x10=0xfffff806
       52875000	      5286	80004c84	013ee2b3	or	x5,x29,x19	 x29:0xd7de3b98 x19:0x80009fed  x5=0xd7debffd
       52885000	      5287	80004c88	00367ab3	and	x21,x12,x3	 x12:0x000006a9  x3:0x00000000 x21=0x00000000
       52895000	      5288	80004c8c	5c53fc17	auipc	x24,0x5c53f	 x24=0xdc543c88
       52905000	      5289	80004c90	03f19463	bne	x3,x31,80004cb8	  x3:0x00000000 x31:0xffffff1a
       52915000	      5290	00000000	00000013	addi	x0,x0,0	  x0:0x00000000
       52925000	      5291	80004cb4	00000013	addi	x0,x0,0	  x0:0x00000000
       52935000	      5292	80004cb8	009b4a63	blt	x22,x9,80004ccc	 x22:0x80008c07  x9:0x00000000
       52945000	      5293	00000000	00000013	addi	x0,x0,0	  x0:0x00000000
       52955000	      5294	80004cc8	00000013	addi	x0,x0,0	  x0:0x00000000
       52965000	      5295	80004ccc	00000013	addi	x0,x0,0	  x0:0x00000000
       52975000	      5296	80004cd0	a65336b7	lui	x13,0xa6533	 x13=0xa6533000
       52985000	      5297	80004cd4	009aec63	bltu	x21,x9,80004cec	 x21:0x00000000  x9:0x00000000
       52995000	      5298	80004cd8	00ef09b3	add	x19,x30,x14	 x30:0x00000000 x14:0xffffffff x19=0xffffffff
       53005000	      5299	80004cdc	00e0e9b3	or	x19,x1,x14	  x1:0x00000000 x14:0xffffffff x19=0xffffffff
       53015000	      5300	80004ce0	008930b3	sltu	x1,x18,x8	 x18:0x475a92a9  x8:0x00000000  x1=0x00000000
       53025000	      5301	80004ce4	00000013	addi	x0,x0,0	  x0:0x00000000
       53035000	      5302	80004ce8	0b315c63	bge	x2,x19,80004da0	  x2:0x00000000 x19:0xffffffff
       53045000	      5303	00000000	00000013	addi	x0,x0,0	  x0:0x00000000
       53055000	      5304	80004d9c	00000013	addi	x0,x0,0	  x0:0x00000000
       53065000	      5305	80004da0	e5814617	auipc	x12,0xe5814	 x12=0x65818d9c
       53075000	      5306	80004da4	2aa4f493	andi	x9,x9,682	  x9:0x00000000  x9=0x00000000
       53085000	      5307	80004da8	018fb433	sltu	x8,x31,x24	 x31:0xffffff1a x24:0xdc543c88  x8=0x00000000
       53095000	      5308	80004dac	9bf72513	slti	x10,x14,-1601	 x14:0xffffffff x10=0x00000000
       53105000	      5309	80004db0	02407263	bgeu	x0,x4,80004dd4	  x0:0x00000000  x4:0x00000000
       53115000	      5310	00000000	00000013	addi	x0,x0,0	  x0:0x00000000
       53125000	      5311	80004dd0	00000013	addi	x0,x0,0	  x0:0x00000000
       53135000	      5312	80004dd4	40db5f33	sra	x30,x22,x13	 x22:0x80008c07 x13:0xa6533000 x30=0x80008c07
       53145000	      5313	80004dd8	01aee133	or	x2,x29,x26	 x29:0xd7de3b98 x26:0x000003ff  x2=0xd7de3bff
       53155000	      5314	80004ddc	02b34263	blt	x6,x11,80004e00	  x6:0x00000001 x11:0x00000001
       53165000	      5315	80004de0	00161f33	sll	x30,x12,x1	 x12:0x65818d9c  x1:0x00000000 x30=0x65818d9c
       53175000	      5316	80004de4	00b8a133	slt	x2,x17,x11	 x17:0xfffffff8 x11:0x00000001  x2=0x00000001
       53185000	      5317	80004de8	f8d387b7	lui	x15,0xf8d38	 x15=0xf8d38000
       53195000	      5318	80004dec	002d0033	add	x0,x26,x2	 x26:0x000003ff  x2:0x00000001
       53205000	      5319	80004df0	015d8263	beq	x27,x21,80004df4	 x27:0x00000000 x21:0x00000000
       53215000	      5320	00000000	00000013	addi	x0,x0,0	  x0:0x00000000
       53225000	      5321	80004df0	00000013	addi	x0,x0,0	  x0:0x00000000
       53235000	      5322	80004df4	00000013	addi	x0,x0,0	  x0:0x00000000
       53245000	      5323	80004df8	401ed1b3	sra	x3,x29,x1	 x29:0xd7de3b98  x1:0x00000000  x3=0xd7de3b98
       53255000	      5324	80004dfc	010d5263	bge	x26,x16,80004e00	 x26:0x000003ff x16:0x00000000
       53265000	      5325	00000000	00000013	addi	x0,x0,0	  x0:0x00000000
       53275000	      5326	80004dfc	00000013	addi	x0,x0,0	  x0:0x00000000
       53285000	      5327	80004e00	009d0fb3	add	x31,x26,x9	 x26:0x000003ff  x9:0x00000000 x31=0x000003ff
       53295000	      5328	80004e04	4094d4b3	sra	x9,x9,x9	  x9:0x00000000  x9:0x00000000  x9=0x00000000
       53305000	      5329	80004e08	041bd863	bge	x23,x1,80004e58	 x23:0xff0000fe  x1:0x00000000
       53315000	      5330	80004e0c	04085263	bge	x16,x0,80004e50	 x16:0x00000000  x0:0x00000000
       53325000	      5331	00000000	00000013	addi	x0,x0,0	  x0:0x00000000
       53335000	      5332	80004e4c	00000013	addi	x0,x0,0	  x0:0x00000000
       53345000	      5333	80004e50	95780413	addi	x8,x16,-1705	 x16:0x00000000  x8=0xfffff957
       53355000	      5334	80004e54	00529c13	slli	x24,x5,0x5	  x5:0xd7debffd x24=0xfbd7ffa0
       53365000	      5335	80004e58	26afda97	auipc	x21,0x26afd	 x21=0xa6b01e54
       53375000	      5336	80004e5c	014736b3	sltu	x13,x14,x20	 x14:0xffffffff x20:0xfffff9c3 x13=0x00000000
       53385000	      5337	80004e60	05abf863	bgeu	x23,x26,80004eb0	 x23:0xff0000fe x26:0x000003ff
       53395000	      5338	00000000	00000013	addi	x0,x0,0	  x0:0x00000000
       53405000	      5339	80004eac	00000013	addi	x0,x0,0	  x0:0x00000000
       53415000	      5340	80004eb0	01534333	xor	x6,x6,x21	  x6:0x00000001 x21:0xa6b01e54  x6=0xa6b01e55
       53425000	      5341	80004eb4	9fa34d97	auipc	x27,0x9fa34	 x27=0x1fa38eb0
       53435000	      5342	80004eb8	01ebdf33	srl	x30,x23,x30	 x23:0xff0000fe x30:0x65818d9c x30=0x0000000f
       53445000	      5343	80004ebc	009cd1b3	srl	x3,x25,x9	 x25:0x00000000  x9:0x00000000  x3=0x00000000
       53455000	      5344	80004ec0	53ad6c13	ori	x24,x26,1338	 x26:0x000003ff x24=0x000007ff
       53465000	      5345	80004ec4	f3126213	ori	x4,x4,-207	  x4:0x00000000  x4=0xffffff31
       53475000	      5346	80004ec8	01c01093	slli	x1,x0,0x1c	  x0:0x00000000  x1=0x00000000
       53485000	      5347	80004ecc	0413d663	bge	x7,x1,80004f18	  x7:0x80009f28  x1:0x00000000
       53495000	      5348	80004ed0	0242c463	blt	x5,x4,80004ef8	  x5:0xd7debffd  x4:0xffffff31
       53505000	      5349	00000000	00000013	addi	x0,x0,0	  x0:0x00000000
       53515000	      5350	80004ef4	00000013	addi	x0,x0,0	  x0:0x00000000
       53525000	      5351	80004ef8	0055a6b3	slt	x13,x11,x5	 x11:0x00000001  x5:0xd7debffd x13=0x00000000
       53535000	      5352	80004efc	f81ba013	slti	x0,x23,-127	 x23:0xff0000fe
       53545000	      5353	80004f00	939f8213	addi	x4,x31,-1735	 x31:0x000003ff  x4=0xfffffd38
       53555000	      5354	80004f04	01ffe833	or	x16,x31,x31	 x31:0x000003ff x31:0x000003ff x16=0x000003ff
       53565000	      5355	80004f08	0f01b013	sltiu	x0,x3,240	  x3:0x00000000
       53575000	      5356	80004f0c	044c8463	beq	x25,x4,80004f54	 x25:0x00000000  x4:0xfffffd38
       53585000	      5357	80004f10	01f99633	sll	x12,x19,x31	 x19:0xffffffff x31:0x000003ff x12=0x80000000
       53595000	      5358	80004f14	00811d13	slli	x26,x2,0x8	  x2:0x00000001 x26=0x00000100
       53605000	      5359	80004f18	0016bdb3	sltu	x27,x13,x1	 x13:0x00000000  x1:0x00000000 x27=0x00000000
       53615000	      5360	80004f1c	00a53db3	sltu	x27,x10,x10	 x10:0x00000000 x10:0x00000000 x27=0x00000000
       53625000	      5361	80004f20	011f7c63	bgeu	x30,x17,80004f38	 x30:0x0000000f x17:0xfffffff8
       53635000	      5362	80004f24	01846fb3	or	x31,x8,x24	  x8:0xfffff957 x24:0x000007ff x31=0xffffffff
       53645000	      5363	80004f28	01ff24b3	slt	x9,x30,x31	 x30:0x0000000f x31:0xffffffff  x9=0x00000000
       53655000	      5364	80004f2c	009d0d33	add	x26,x26,x9	 x26:0x00000100  x9:0x00000000 x26=0x00000100
       53665000	      5365	80004f30	008f7c63	bgeu	x30,x8,80004f48	 x30:0x0000000f  x8:0xfffff957
       53675000	      5366	80004f34	407987b3	sub	x15,x19,x7	 x19:0xffffffff  x7:0x80009f28 x15=0x7fff60d7
       53685000	      5367	80004f38	41c7d533	sra	x10,x15,x28	 x15:0x7fff60d7 x28:0x80009fc4 x10=0x07fff60d
       53695000	      5368	80004f3c	02f74063	blt	x14,x15,80004f5c	 x14:0xffffffff x15:0x7fff60d7
       53705000	      5369	00000000	00000013	addi	x0,x0,0	  x0:0x00000000
       53715000	      5370	80004f58	00000013	addi	x0,x0,0	  x0:0x00000000
       53725000	      5371	80004f5c	004a44b3	xor	x9,x20,x4	 x20:0xfffff9c3  x4:0xfffffd38  x9=0x000004fb
       53735000	      5372	80004f60	01584f33	xor	x30,x16,x21	 x16:0x000003ff x21:0xa6b01e54 x30=0xa6b01dab
       53745000	      5373	80004f64	047d0063	beq	x26,x7,80004fa4	 x26:0x00000100  x7:0x80009f28
       53755000	      5374	80004f68	00d5e033	or	x0,x11,x13	 x11:0x00000001 x13:0x00000000
       53765000	      5375	80004f6c	010f7433	and	x8,x30,x16	 x30:0xa6b01dab x16:0x000003ff  x8=0x000001ab
       53775000	      5376	80004f70	fca74497	auipc	x9,0xfca74	  x9=0x7ca78f6c
       53785000	      5377	80004f74	e86ea993	slti	x19,x29,-378	 x29:0xd7de3b98 x19=0x00000001
       53795000	      5378	80004f78	002c9bb3	sll	x23,x25,x2	 x25:0x00000000  x2:0x00000001 x23=0x00000000
       53805000	      5379	80004f7c	406c09b3	sub	x19,x24,x6	 x24:0x000007ff  x6:0xa6b01e55 x19=0x594fe9aa
       53815000	      5380	80004f80	003c6333	or	x6,x24,x3	 x24:0x000007ff  x3:0x00000000  x6=0x000007ff
       53825000	      5381	80004f84	40087593	andi	x11,x16,1024	 x16:0x000003ff x11=0x00000000
       53835000	      5382	80004f88	003dd493	srli	x9,x27,0x3	 x27:0x00000000  x9=0x00000000
       53845000	      5383	80004f8c	01069113	slli	x2,x13,0x10	 x13:0x00000000  x2=0x00000000
       53855000	      5384	80004f90	0044fc33	and	x24,x9,x4	  x9:0x00000000  x4:0xfffffd38 x24=0x00000000
       53865000	      5385	80004f94	013c1993	slli	x19,x24,0x13	 x24:0x00000000 x19=0x00000000
       53875000	      5386	80004f98	01b16eb3	or	x29,x2,x27	  x2:0x00000000 x27:0x00000000 x29=0x00000000
       53885000	      5387	80004f9c	40c7dc33	sra	x24,x15,x12	 x15:0x7fff60d7 x12:0x80000000 x24=0x7fff60d7
       53895000	      5388	80004fa0	2cf8b037	lui	x0,0x2cf8b	
       53905000	      5389	80004fa4	af66e993	ori	x19,x13,-1290	 x13:0x00000000 x19=0xfffffaf6
       53915000	      5390	80004fa8	01485533	srl	x10,x16,x20	 x16:0x000003ff x20:0xfffff9c3 x10=0x0000007f
       53925000	      5391	80004fac	e1c7e113	ori	x2,x15,-484	 x15:0x7fff60d7  x2=0xfffffedf
       53935000	      5392	80004fb0	00002833	slt	x16,x0,x0	  x0:0x00000000  x0:0x00000000 x16=0x00000000
       53945000	      5393	80004fb4	41b3d9b3	sra	x19,x7,x27	  x7:0x80009f28 x27:0x00000000 x19=0x80009f28
       53955000	      5394	80004fb8	95bbcc13	xori	x24,x23,-1701	 x23:0x00000000 x24=0xfffff95b
       53965000	      5395	80004fbc	44546897	auipc	x17,0x44546	 x17=0xc454afb8
       53975000	      5396	80004fc0	8a948213	addi	x4,x9,-1879	  x9:0x00000000  x4=0xfffff8a9
       53985000	      5397	80004fc4	1352b413	sltiu	x8,x5,309	  x5:0xd7debffd  x8=0x00000000
       53995000	      5398	80004fc8	00585663	bge	x16,x5,80004fd4	 x16:0x00000000  x5:0xd7debffd
       54005000	      5399	00000000	00000013	addi	x0,x0,0	  x0:0x00000000
       54015000	      5400	80004fd0	00000013	addi	x0,x0,0	  x0:0x00000000
       54025000	      5401	80004fd4	407c56b3	sra	x13,x24,x7	 x24:0xfffff95b  x7:0x80009f28 x13=0xfffffff9
       54035000	      5402	80004fd8	000d64b3	or	x9,x26,x0	 x26:0x00000100  x0:0x00000000  x9=0x00000100
       54045000	      5403	80004fdc	0167fd33	and	x26,x15,x22	 x15:0x7fff60d7 x22:0x80008c07 x26=0x00000007
       54055000	      5404	80004fe0	a3788313	addi	x6,x17,-1481	 x17:0xc454afb8  x6=0xc454a9ef
       54065000	      5405	80004fe4	0041df93	srli	x31,x3,0x4	  x3:0x00000000 x31=0x00000000
       54075000	      5406	80004fe8	01d73833	sltu	x16,x14,x29	 x14:0xffffffff x29:0x00000000 x16=0x00000000
       54085000	      5407	80004fec	031a1863	bne	x20,x17,8000501c	 x20:0xfffff9c3 x17:0xc454afb8
       54095000	      5408	00000000	00000013	addi	x0,x0,0	  x0:0x00000000
       54105000	      5409	80005018	00000013	addi	x0,x0,0	  x0:0x00000000
       54115000	      5410	8000501c	01447333	and	x6,x8,x20	  x8:0x00000000 x20:0xfffff9c3  x6=0x00000000
       54125000	      5411	80005020	01897b33	and	x22,x18,x24	 x18:0x475a92a9 x24:0xfffff95b x22=0x475a9009
       54135000	      5412	80005024	37093a93	sltiu	x21,x18,880	 x18:0x475a92a9 x21=0x00000000
       54145000	      5413	80005028	40f3d733	sra	x14,x7,x15	  x7:0x80009f28 x15:0x7fff60d7 x14=0xffffff00
       54155000	      5414	8000502c	006890b3	sll	x1,x17,x6	 x17:0xc454afb8  x6:0x00000000  x1=0xc454afb8
       54165000	      5415	80005030	01e09193	slli	x3,x1,0x1e	  x1:0xc454afb8  x3=0x00000000
       54175000	      5416	80005034	0323c663	blt	x7,x18,80005060	  x7:0x80009f28 x18:0x475a92a9
       54185000	      5417	00000000	00000013	addi	x0,x0,0	  x0:0x00000000
       54195000	      5418	8000505c	00000013	addi	x0,x0,0	  x0:0x00000000
       54205000	      5419	80005060	d3a3c013	xori	x0,x7,-710	  x7:0x80009f28
       54215000	      5420	80005064	0102b7b3	sltu	x15,x5,x16	  x5:0xd7debffd x16:0x00000000 x15=0x00000000
       54225000	      5421	80005068	2b58bf13	sltiu	x30,x17,693	 x17:0xc454afb8 x30=0x00000000
       54235000	      5422	8000506c	aeb0f517	auipc	x10,0xaeb0f	 x10=0x2eb14068
       54245000	      5423	80005070	003e7433	and	x8,x28,x3	 x28:0x80009fc4  x3:0x00000000  x8=0x00000000
       54255000	      5424	80005074	0114d733	srl	x14,x9,x17	  x9:0x00000100 x17:0xc454afb8 x14=0x00000000
       54265000	      5425	80005078	fc35f793	andi	x15,x11,-61	 x11:0x00000000 x15=0x00000000
       54275000	      5426	8000507c	b159e417	auipc	x8,0xb159e	  x8=0x315a3078
       54285000	      5427	80005080	00df57b3	srl	x15,x30,x13	 x30:0x00000000 x13:0xfffffff9 x15=0x00000000
       54295000	      5428	80005084	01d28c33	add	x24,x5,x29	  x5:0xd7debffd x29:0x00000000 x24=0xd7debffd
       54305000	      5429	80005088	ea457517	auipc	x10,0xea457	 x10=0x6a45c084
       54315000	      5430	8000508c	018d0b33	add	x22,x26,x24	 x26:0x00000007 x24:0xd7debffd x22=0xd7dec004
       54325000	      5431	80005090	0127ecb3	or	x25,x15,x18	 x15:0x00000000 x18:0x475a92a9 x25=0x475a92a9
       54335000	      5432	80005094	01a01593	slli	x11,x0,0x1a	  x0:0x00000000 x11=0x00000000
       54345000	      5433	80005098	019dd213	srli	x4,x27,0x19	 x27:0x00000000  x4=0x00000000
       54355000	      5434	8000509c	f15f3793	sltiu	x15,x30,-235	 x30:0x00000000 x15=0x00000001
       54365000	      5435	800050a0	48937e97	auipc	x29,0x48937	 x29=0xc893c09c
       54375000	      5436	800050a4	2068a093	slti	x1,x17,518	 x17:0xc454afb8  x1=0x00000001
       54385000	      5437	800050a8	4ec3e293	ori	x5,x7,1260	  x7:0x80009f28  x5=0x80009fec
       54395000	      5438	800050ac	e3a36993	ori	x19,x6,-454	  x6:0x00000000 x19=0xfffffe3a
       54405000	      5439	800050b0	40f782b3	sub	x5,x15,x15	 x15:0x00000001 x15:0x00000001  x5=0x00000000
       54415000	      5440	800050b4	09958b93	addi	x23,x11,153	 x11:0x00000000 x23=0x00000099
       54425000	      5441	800050b8	d9438813	addi	x16,x7,-620	  x7:0x80009f28 x16=0x80009cbc
       54435000	      5442	800050bc	03976263	bltu	x14,x25,800050e0	 x14:0x00000000 x25:0x475a92a9
       54445000	      5443	00000000	00000013	addi	x0,x0,0	  x0:0x00000000
       54455000	      5444	800050dc	00000013	addi	x0,x0,0	  x0:0x00000000
       54465000	      5445	800050e0	bc69f213	andi	x4,x19,-1082	 x19:0xfffffe3a  x4=0xfffffa02
       54475000	      5446	800050e4	00000013	addi	x0,x0,0	  x0:0x00000000
       54485000	      5447	800050e8	47ef0c93	addi	x25,x30,1150	 x30:0x00000000 x25=0x0000047e
       54495000	      5448	800050ec	00148ab3	add	x21,x9,x1	  x9:0x00000100  x1:0x00000001 x21=0x00000101
       54505000	      5449	800050f0	401d87b3	sub	x15,x27,x1	 x27:0x00000000  x1:0x00000001 x15=0xffffffff
       54515000	      5450	800050f4	0169cc63	blt	x19,x22,8000510c	 x19:0xfffffe3a x22:0xd7dec004
       54525000	      5451	800050f8	41a85fb3	sra	x31,x16,x26	 x16:0x80009cbc x26:0x00000007 x31=0xff000139
       54535000	      5452	800050fc	01d75993	srli	x19,x14,0x1d	 x14:0x00000000 x19=0x00000000
       54545000	      5453	80005100	01030663	beq	x6,x16,8000510c	  x6:0x00000000 x16:0x80009cbc
       54555000	      5454	80005104	00bb5c33	srl	x24,x22,x11	 x22:0xd7dec004 x11:0x00000000 x24=0xd7dec004
       54565000	      5455	80005108	007b96b3	sll	x13,x23,x7	 x23:0x00000099  x7:0x80009f28 x13=0x00009900
       54575000	      5456	8000510c	011bd813	srli	x16,x23,0x11	 x23:0x00000099 x16=0x00000000
       54585000	      5457	80005110	3d490313	addi	x6,x18,980	 x18:0x475a92a9  x6=0x475a967d
       54595000	      5458	80005114	011fe9b3	or	x19,x31,x17	 x31:0xff000139 x17:0xc454afb8 x19=0xff54afb9
       54605000	      5459	80005118	f2862613	slti	x12,x12,-216	 x12:0x80000000 x12=0x00000001
       54615000	      5460	8000511c	410f5b13	srai	x22,x30,0x10	 x30:0x00000000 x22=0x00000000
       54625000	      5461	80005120	fd656837	lui	x16,0xfd656	 x16=0xfd656000
       54635000	      5462	80005124	9b093b93	sltiu	x23,x18,-1616	 x18:0x475a92a9 x23=0x00000001
       54645000	      5463	80005128	415a5c13	srai	x24,x20,0x15	 x20:0xfffff9c3 x24=0xffffffff
       54655000	      5464	8000512c	07c24b93	xori	x23,x4,124	  x4:0xfffffa02 x23=0xfffffa7e
       54665000	      5465	80005130	41a608b3	sub	x17,x12,x26	 x12:0x00000001 x26:0x00000007 x17=0xfffffffa
       54675000	      5466	80005134	7bcb6097	auipc	x1,0x7bcb6	  x1=0xfbcbb130
       54685000	      5467	80005138	01c4adb3	slt	x27,x9,x28	  x9:0x00000100 x28:0x80009fc4 x27=0x00000000
       54695000	      5468	8000513c	727fbf13	sltiu	x30,x31,1831	 x31:0xff000139 x30=0x00000000
       54705000	      5469	80005140	7a4d6bb7	lui	x23,0x7a4d6	 x23=0x7a4d6000
       54715000	      5470	80005144	00000013	addi	x0,x0,0	  x0:0x00000000
       54725000	      5471	80005148	8edabbb7	lui	x23,0x8edab	 x23=0x8edab000
       54735000	      5472	8000514c	00000013	addi	x0,x0,0	  x0:0x00000000
       54745000	      5473	80005150	00af7f33	and	x30,x30,x10	 x30:0x00000000 x10:0x6a45c084 x30=0x00000000
       54755000	      5474	80005154	9c5d6ab7	lui	x21,0x9c5d6	 x21=0x9c5d6000
       54765000	      5475	80005158	2a53ac93	slti	x25,x7,677	  x7:0x80009f28 x25=0x00000001
       54775000	      5476	8000515c	010cea63	bltu	x25,x16,80005170	 x25:0x00000001 x16:0xfd656000
       54785000	      5477	00000000	00000013	addi	x0,x0,0	  x0:0x00000000
       54795000	      5478	8000516c	00000013	addi	x0,x0,0	  x0:0x00000000
       54805000	      5479	80005170	7649c893	xori	x17,x19,1892	 x19:0xff54afb9 x17=0xff54a8dd
       54815000	      5480	80005174	01570ab3	add	x21,x14,x21	 x14:0x00000000 x21:0x9c5d6000 x21=0x9c5d6000
       54825000	      5481	80005178	00a08c63	beq	x1,x10,80005190	  x1:0xfbcbb130 x10:0x6a45c084
       54835000	      5482	8000517c	04cbd663	bge	x23,x12,800051c8	 x23:0x8edab000 x12:0x00000001
       54845000	      5483	80005180	018ea333	slt	x6,x29,x24	 x29:0xc893c09c x24:0xffffffff  x6=0x00000001
       54855000	      5484	80005184	f7e12837	lui	x16,0xf7e12	 x16=0xf7e12000
       54865000	      5485	80005188	00715e63	bge	x2,x7,800051a4	  x2:0xfffffedf  x7:0x80009f28
       54875000	      5486	00000000	00000013	addi	x0,x0,0	  x0:0x00000000
       54885000	      5487	800051a0	00000013	addi	x0,x0,0	  x0:0x00000000
       54895000	      5488	800051a4	01025213	srli	x4,x4,0x10	  x4:0xfffffa02  x4=0x0000ffff
       54905000	      5489	800051a8	050cc863	blt	x25,x16,800051f8	 x25:0x00000001 x16:0xf7e12000
       54915000	      5490	800051ac	151c6b93	ori	x23,x24,337	 x24:0xffffffff x23=0xffffffff
       54925000	      5491	800051b0	0028f433	and	x8,x17,x2	 x17:0xff54a8dd  x2:0xfffffedf  x8=0xff54a8dd
       54935000	      5492	800051b4	40f75313	srai	x6,x14,0xf	 x14:0x00000000  x6=0x00000000
       54945000	      5493	800051b8	03865463	bge	x12,x24,800051e0	 x12:0x00000001 x24:0xffffffff
       54955000	      5494	00000000	00000013	addi	x0,x0,0	  x0:0x00000000
       54965000	      5495	800051dc	00000013	addi	x0,x0,0	  x0:0x00000000
       54975000	      5496	800051e0	40ca50b3	sra	x1,x20,x12	 x20:0xfffff9c3 x12:0x00000001  x1=0xfffffce1
       54985000	      5497	800051e4	f09f6893	ori	x17,x30,-247	 x30:0x00000000 x17=0xffffff09
       54995000	      5498	800051e8	002d1013	slli	x0,x26,0x2	 x26:0x00000007
       55005000	      5499	800051ec	40a25333	sra	x6,x4,x10	  x4:0x0000ffff x10:0x6a45c084  x6=0x00000fff
       55015000	      5500	800051f0	01db35b3	sltu	x11,x22,x29	 x22:0x00000000 x29:0xc893c09c x11=0x00000001
       55025000	      5501	800051f4	cf29f313	andi	x6,x19,-782	 x19:0xff54afb9  x6=0xff54acb0
       55035000	      5502	800051f8	00000013	addi	x0,x0,0	  x0:0x00000000
       55045000	      5503	800051fc	052ff063	bgeu	x31,x18,8000523c	 x31:0xff000139 x18:0x475a92a9
       55055000	      5504	00000000	00000013	addi	x0,x0,0	  x0:0x00000000
       55065000	      5505	80005238	00000013	addi	x0,x0,0	  x0:0x00000000
       55075000	      5506	8000523c	408dd813	srai	x16,x27,0x8	 x27:0x00000000 x16=0x00000000
       55085000	      5507	80005240	03ba6813	ori	x16,x20,59	 x20:0xfffff9c3 x16=0xfffff9fb
       55095000	      5508	80005244	41cdd013	srai	x0,x27,0x1c	 x27:0x00000000
       55105000	      5509	80005248	40465213	srai	x4,x12,0x4	 x12:0x00000001  x4=0x00000000
       55115000	      5510	8000524c	d05dea93	ori	x21,x27,-763	 x27:0x00000000 x21=0xfffffd05
       55125000	      5511	80005250	006e5893	srli	x17,x28,0x6	 x28:0x80009fc4 x17=0x0200027f
       55135000	      5512	80005254	0123b233	sltu	x4,x7,x18	  x7:0x80009f28 x18:0x475a92a9  x4=0x00000000
       55145000	      5513	80005258	00bbecb3	or	x25,x23,x11	 x23:0xffffffff x11:0x00000001 x25=0xffffffff
       55155000	      5514	8000525c	02cd5263	bge	x26,x12,80005280	 x26:0x00000007 x12:0x00000001
       55165000	      5515	00000000	00000013	addi	x0,x0,0	  x0:0x00000000
       55175000	      5516	8000527c	00000013	addi	x0,x0,0	  x0:0x00000000
       55185000	      5517	80005280	00740a63	beq	x8,x7,80005294	  x8:0xff54a8dd  x7:0x80009f28
       55195000	      5518	80005284	bb3686b7	lui	x13,0xbb368	 x13=0xbb368000
       55205000	      5519	80005288	008c9b13	slli	x22,x25,0x8	 x25:0xffffffff x22=0xffffff00
       55215000	      5520	8000528c	010a4c63	blt	x20,x16,800052a4	 x20:0xfffff9c3 x16:0xfffff9fb
       55225000	      5521	00000000	00000013	addi	x0,x0,0	  x0:0x00000000
       55235000	      5522	800052a0	00000013	addi	x0,x0,0	  x0:0x00000000
       55245000	      5523	800052a4	38072613	slti	x12,x14,896	 x14:0x00000000 x12=0x00000001
       55255000	      5524	800052a8	39c5ef93	ori	x31,x11,924	 x11:0x00000001 x31=0x0000039d
       55265000	      5525	800052ac	39162c13	slti	x24,x12,913	 x12:0x00000001 x24=0x00000001
       55275000	      5526	800052b0	018886b3	add	x13,x17,x24	 x17:0x0200027f x24:0x00000001 x13=0x02000280
       55285000	      5527	800052b4	8e776693	ori	x13,x14,-1817	 x14:0x00000000 x13=0xfffff8e7
       55295000	      5528	800052b8	408b5293	srai	x5,x22,0x8	 x22:0xffffff00  x5=0xffffffff
       55305000	      5529	800052bc	0039fa63	bgeu	x19,x3,800052d0	 x19:0xff54afb9  x3:0x00000000
       55315000	      5530	00000000	00000013	addi	x0,x0,0	  x0:0x00000000
       55325000	      5531	800052cc	00000013	addi	x0,x0,0	  x0:0x00000000
       55335000	      5532	800052d0	01791c63	bne	x18,x23,800052e8	 x18:0x475a92a9 x23:0xffffffff
       55345000	      5533	00000000	00000013	addi	x0,x0,0	  x0:0x00000000
       55355000	      5534	800052e4	00000013	addi	x0,x0,0	  x0:0x00000000
       55365000	      5535	800052e8	406b0f33	sub	x30,x22,x6	 x22:0xffffff00  x6:0xff54acb0 x30=0x00ab5250
       55375000	      5536	800052ec	00baac33	slt	x24,x21,x11	 x21:0xfffffd05 x11:0x00000001 x24=0x00000001
       55385000	      5537	800052f0	008d00b3	add	x1,x26,x8	 x26:0x00000007  x8:0xff54a8dd  x1=0xff54a8e4
       55395000	      5538	800052f4	fac36f13	ori	x30,x6,-84	  x6:0xff54acb0 x30=0xffffffbc
       55405000	      5539	800052f8	00166633	or	x12,x12,x1	 x12:0x00000001  x1:0xff54a8e4 x12=0xff54a8e5
       55415000	      5540	800052fc	c1aa1117	auipc	x2,0xc1aa1	  x2=0x41aa62f8
       55425000	      5541	80005300	014fbf33	sltu	x30,x31,x20	 x31:0x0000039d x20:0xfffff9c3 x30=0x00000001
       55435000	      5542	80005304	017acc33	xor	x24,x21,x23	 x21:0xfffffd05 x23:0xffffffff x24=0x000002fa
       55445000	      5543	80005308	057d1463	bne	x26,x23,80005350	 x26:0x00000007 x23:0xffffffff
       55455000	      5544	00000000	00000013	addi	x0,x0,0	  x0:0x00000000
       55465000	      5545	8000534c	00000013	addi	x0,x0,0	  x0:0x00000000
       55475000	      5546	80005350	01674663	blt	x14,x22,8000535c	 x14:0x00000000 x22:0xffffff00
       55485000	      5547	80005354	742ccf13	xori	x30,x25,1858	 x25:0xffffffff x30=0xfffff8bd
       55495000	      5548	80005358	01c8c533	xor	x10,x17,x28	 x17:0x0200027f x28:0x80009fc4 x10=0x82009dbb
       55505000	      5549	8000535c	00ac9e63	bne	x25,x10,80005378	 x25:0xffffffff x10:0x82009dbb
       55515000	      5550	00000000	00000013	addi	x0,x0,0	  x0:0x00000000
       55525000	      5551	80005374	00000013	addi	x0,x0,0	  x0:0x00000000
       55535000	      5552	80005378	41ccd293	srai	x5,x25,0x1c	 x25:0xffffffff  x5=0xffffffff
       55545000	      5553	8000537c	0212d463	bge	x5,x1,800053a4	  x5:0xffffffff  x1:0xff54a8e4
       55555000	      5554	00000000	00000013	addi	x0,x0,0	  x0:0x00000000
       55565000	      5555	800053a0	00000013	addi	x0,x0,0	  x0:0x00000000
       55575000	      5556	800053a4	00000013	addi	x0,x0,0	  x0:0x00000000
       55585000	      5557	800053a8	019f8333	add	x6,x31,x25	 x31:0x0000039d x25:0xffffffff  x6=0x0000039c
       55595000	      5558	800053ac	017524b3	slt	x9,x10,x23	 x10:0x82009dbb x23:0xffffffff  x9=0x00000001
       55605000	      5559	800053b0	003f9263	bne	x31,x3,800053b4	 x31:0x0000039d  x3:0x00000000
       55615000	      5560	00000000	00000013	addi	x0,x0,0	  x0:0x00000000
       55625000	      5561	800053b0	00000013	addi	x0,x0,0	  x0:0x00000000
       55635000	      5562	800053b4	01073eb3	sltu	x29,x14,x16	 x14:0x00000000 x16:0xfffff9fb x29=0x00000001
       55645000	      5563	800053b8	0190d133	srl	x2,x1,x25	  x1:0xff54a8e4 x25:0xffffffff  x2=0x00000001
       55655000	      5564	800053bc	c6e1adb7	lui	x27,0xc6e1a	 x27=0xc6e1a000
       55665000	      5565	800053c0	00fa6f33	or	x30,x20,x15	 x20:0xfffff9c3 x15:0xffffffff x30=0xffffffff
       55675000	      5566	800053c4	cae34093	xori	x1,x6,-850	  x6:0x0000039c  x1=0xffffff32
       55685000	      5567	800053c8	01fd9c13	slli	x24,x27,0x1f	 x27:0xc6e1a000 x24=0x00000000
       55695000	      5568	800053cc	00d05fb3	srl	x31,x0,x13	  x0:0x00000000 x13:0xfffff8e7 x31=0x00000000
       55705000	      5569	800053d0	407a5b13	srai	x22,x20,0x7	 x20:0xfffff9c3 x22=0xfffffff3
       55715000	      5570	800053d4	01c5b533	sltu	x10,x11,x28	 x11:0x00000001 x28:0x80009fc4 x10=0x00000001
       55725000	      5571	800053d8	03a59663	bne	x11,x26,80005404	 x11:0x00000001 x26:0x00000007
       55735000	      5572	00000000	00000013	addi	x0,x0,0	  x0:0x00000000
       55745000	      5573	80005400	00000013	addi	x0,x0,0	  x0:0x00000000
       55755000	      5574	80005404	001fd033	srl	x0,x31,x1	 x31:0x00000000  x1:0xffffff32
       55765000	      5575	80005408	041b7863	bgeu	x22,x1,80005458	 x22:0xfffffff3  x1:0xffffff32
       55775000	      5576	00000000	00000013	addi	x0,x0,0	  x0:0x00000000
       55785000	      5577	80005454	00000013	addi	x0,x0,0	  x0:0x00000000
       55795000	      5578	80005458	02ed0663	beq	x26,x14,80005484	 x26:0x00000007 x14:0x00000000
       55805000	      5579	8000545c	00a046b3	xor	x13,x0,x10	  x0:0x00000000 x10:0x00000001 x13=0x00000001
       55815000	      5580	80005460	61e74a93	xori	x21,x14,1566	 x14:0x00000000 x21=0x0000061e
       55825000	      5581	80005464	01357033	and	x0,x10,x19	 x10:0x00000001 x19:0xff54afb9
       55835000	      5582	80005468	c70f8293	addi	x5,x31,-912	 x31:0x00000000  x5=0xfffffc70
       55845000	      5583	8000546c	408b0833	sub	x16,x22,x8	 x22:0xfffffff3  x8:0xff54a8dd x16=0x00ab5716
       55855000	      5584	80005470	0b067e93	andi	x29,x12,176	 x12:0xff54a8e5 x29=0x000000a0
       55865000	      5585	80005474	016a1263	bne	x20,x22,80005478	 x20:0xfffff9c3 x22:0xfffffff3
       55875000	      5586	00000000	00000013	addi	x0,x0,0	  x0:0x00000000
       55885000	      5587	80005474	00000013	addi	x0,x0,0	  x0:0x00000000
       55895000	      5588	80005478	70637613	andi	x12,x6,1798	  x6:0x0000039c x12=0x00000304
       55905000	      5589	8000547c	04749863	bne	x9,x7,800054cc	  x9:0x00000001  x7:0x80009f28
       55915000	      5590	00000000	00000013	addi	x0,x0,0	  x0:0x00000000
       55925000	      5591	800054c8	00000013	addi	x0,x0,0	  x0:0x00000000
       55935000	      5592	800054cc	01539a33	sll	x20,x7,x21	  x7:0x80009f28 x21:0x0000061e x20=0x00000000
       55945000	      5593	800054d0	00c00e63	beq	x0,x12,800054ec	  x0:0x00000000 x12:0x00000304
       55955000	      5594	800054d4	93350793	addi	x15,x10,-1741	 x10:0x00000001 x15=0xfffff934
       55965000	      5595	800054d8	0193c033	xor	x0,x7,x25	  x7:0x80009f28 x25:0xffffffff
       55975000	      5596	800054dc	40045c13	srai	x24,x8,0x0	  x8:0xff54a8dd x24=0xff54a8dd
       55985000	      5597	800054e0	010775b3	and	x11,x14,x16	 x14:0x00000000 x16:0x00ab5716 x11=0x00000000
       55995000	      5598	800054e4	01ec79b3	and	x19,x24,x30	 x24:0xff54a8dd x30:0xffffffff x19=0xff54a8dd
       56005000	      5599	800054e8	943de693	ori	x13,x27,-1725	 x27:0xc6e1a000 x13=0xfffff943
       56015000	      5600	800054ec	0023d113	srli	x2,x7,0x2	  x7:0x80009f28  x2=0x200027ca
       56025000	      5601	800054f0	3e367893	andi	x17,x12,995	 x12:0x00000304 x17=0x00000300
       56035000	      5602	800054f4	01befcb3	and	x25,x29,x27	 x29:0x000000a0 x27:0xc6e1a000 x25=0x00000000
       56045000	      5603	800054f8	035fe263	bltu	x31,x21,8000551c	 x31:0x00000000 x21:0x0000061e
       56055000	      5604	00000000	00000013	addi	x0,x0,0	  x0:0x00000000
       56065000	      5605	80005518	00000013	addi	x0,x0,0	  x0:0x00000000
       56075000	      5606	8000551c	9672bd13	sltiu	x26,x5,-1689	  x5:0xfffffc70 x26=0x00000000
       56085000	      5607	80005520	ef564313	xori	x6,x12,-267	 x12:0x00000304  x6=0xfffffdf1
       56095000	      5608	80005524	01ed0263	beq	x26,x30,80005528	 x26:0x00000000 x30:0xffffffff
       56105000	      5609	80005528	40f5df33	sra	x30,x11,x15	 x11:0x00000000 x15:0xfffff934 x30=0x00000000
       56115000	      5610	8000552c	0147deb3	srl	x29,x15,x20	 x15:0xfffff934 x20:0x00000000 x29=0xfffff934
       56125000	      5611	80005530	0c7a4f13	xori	x30,x20,199	 x20:0x00000000 x30=0x000000c7
       56135000	      5612	80005534	520bf897	auipc	x17,0x520bf	 x17=0xd20c4530
       56145000	      5613	80005538	04f76863	bltu	x14,x15,80005588	 x14:0x00000000 x15:0xfffff934
       56155000	      5614	00000000	00000013	addi	x0,x0,0	  x0:0x00000000
       56165000	      5615	80005584	00000013	addi	x0,x0,0	  x0:0x00000000
       56175000	      5616	80005588	30b9aa93	slti	x21,x19,779	 x19:0xff54a8dd x21=0x00000001
       56185000	      5617	8000558c	00bc61b3	or	x3,x24,x11	 x24:0xff54a8dd x11:0x00000000  x3=0xff54a8dd
       56195000	      5618	80005590	51af8e97	auipc	x29,0x51af8	 x29=0xd1afd58c
       56205000	      5619	80005594	a2e43997	auipc	x19,0xa2e43	 x19=0x22e48590
       56215000	      5620	80005598	01029db3	sll	x27,x5,x16	  x5:0xfffffc70 x16:0x00ab5716 x27=0x1c000000
       56225000	      5621	8000559c	41875413	srai	x8,x14,0x18	 x14:0x00000000  x8=0x00000000
       56235000	      5622	800055a0	00003797	auipc	x15,0x3	 x15=0x8000859c
       56245000	      5623	800055a4	e7f78793	addi	x15,x15,-385	 x15:0x8000859c x15=0x8000841b
       56255000	      5624	800055a8	00377a33	and	x20,x14,x3	 x14:0x00000000  x3:0xff54a8dd x20=0x00000000
       56265000	      5625	800055ac	d2f7c503	lbu	x10,-721(x15)	 x15:0x8000841b x10=0x00000000 PA:0x8000814a
       56275000	      5626	800055b0	00df7833	and	x16,x30,x13	 x30:0x000000c7 x13:0xfffff943 x16=0x00000043
       56285000	      5627	800055b4	6b33a597	auipc	x11,0x6b33a	 x11=0xeb33f5b0
       56295000	      5628	800055b8	c937c283	lbu	x5,-877(x15)	 x15:0x8000841b  x5=0x00000000 PA:0x800080ae
       56305000	      5629	800055bc	1f57cd83	lbu	x27,501(x15)	 x15:0x8000841b x27=0x00000000 PA:0x80008610
       56315000	      5630	800055c0	01a88333	add	x6,x17,x26	 x17:0xd20c4530 x26:0x00000000  x6=0xd20c4530
       56325000	      5631	800055c4	d6a2a297	auipc	x5,0xd6a2a	  x5=0x56a2f5c0
       56335000	      5632	800055c8	8aa29637	lui	x12,0x8aa29	 x12=0x8aa29000
       56345000	      5633	800055cc	f2d80a13	addi	x20,x16,-211	 x16:0x00000043 x20=0xffffff70
       56355000	      5634	800055d0	d3979983	lh	x19,-711(x15)	 x15:0x8000841b x19=0x00000000 PA:0x80008154
       56365000	      5635	800055d4	3e17a083	lw	x1,993(x15)	 x15:0x8000841b  x1=0x00000000 PA:0x800087fc
       56375000	      5636	00000000	00000013	addi	x0,x0,0	  x0:0x00000000
       56385000	      5637	800055d8	52130993	addi	x19,x6,1313	  x6:0xd20c4530 x19=0xd20c4a51
       56395000	      5638	800055dc	01d45a93	srli	x21,x8,0x1d	  x8:0x00000000 x21=0x00000000
       56405000	      5639	800055e0	019be833	or	x16,x23,x25	 x23:0xffffffff x25:0x00000000 x16=0xffffffff
       56415000	      5640	800055e4	40725d13	srai	x26,x4,0x7	  x4:0x00000000 x26=0x00000000
       56425000	      5641	800055e8	01495193	srli	x3,x18,0x14	 x18:0x475a92a9  x3=0x00000475
       56435000	      5642	800055ec	9d77e593	ori	x11,x15,-1577	 x15:0x8000841b x11=0xfffffddf
       56445000	      5643	800055f0	0a8792a3	sh	x8,165(x15)	 x15:0x8000841b  x8:0x00000000 PA:0x800084c0
       56455000	      5644	800055f4	00c21513	slli	x10,x4,0xc	  x4:0x00000000 x10=0x00000000
       56465000	      5645	800055f8	d0a78d83	lb	x27,-758(x15)	 x15:0x8000841b x27=0x00000000 PA:0x80008125
       56475000	      5646	800055fc	de379f83	lh	x31,-541(x15)	 x15:0x8000841b x31=0x00000000 PA:0x800081fe
       56485000	      5647	80005600	ea7794a3	sh	x7,-343(x15)	 x15:0x8000841b  x7:0x80009f28 PA:0x800082c4
       56495000	      5648	80005604	00eb34b3	sltu	x9,x22,x14	 x22:0xfffffff3 x14:0x00000000  x9=0x00000000
       56505000	      5649	80005608	1b878e23	sb	x24,444(x15)	 x15:0x8000841b x24:0xff54a8dd PA:0x800085d7
       56515000	      5650	8000560c	0139d713	srli	x14,x19,0x13	 x19:0xd20c4a51 x14=0x00001a41
       56525000	      5651	80005610	0c5795a3	sh	x5,203(x15)	 x15:0x8000841b  x5:0x56a2f5c0 PA:0x800084e6
       56535000	      5652	80005614	306797a3	sh	x6,783(x15)	 x15:0x8000841b  x6:0xd20c4530 PA:0x8000872a
       56545000	      5653	80005618	4049dc33	sra	x24,x19,x4	 x19:0xd20c4a51  x4:0x00000000 x24=0xd20c4a51
       56555000	      5654	8000561c	3e4787a3	sb	x4,1007(x15)	 x15:0x8000841b  x4:0x00000000 PA:0x8000880a
       56565000	      5655	80005620	00f1e6b3	or	x13,x3,x15	  x3:0x00000475 x15:0x8000841b x13=0x8000847f
       56575000	      5656	80005624	de0ae613	ori	x12,x21,-544	 x21:0x00000000 x12=0xfffffde0
       56585000	      5657	80005628	00041a33	sll	x20,x8,x0	  x8:0x00000000  x0:0x00000000 x20=0x00000000
       56595000	      5658	8000562c	0f3780a3	sb	x19,225(x15)	 x15:0x8000841b x19:0xd20c4a51 PA:0x800084fc
       56605000	      5659	80005630	b9e11cb7	lui	x25,0xb9e11	 x25=0xb9e11000
       56615000	      5660	80005634	d37783a3	sb	x23,-729(x15)	 x15:0x8000841b x23:0xffffffff PA:0x80008142
       56625000	      5661	80005638	eb0d9b37	lui	x22,0xeb0d9	 x22=0xeb0d9000
       56635000	      5662	8000563c	41b87d13	andi	x26,x16,1051	 x16:0xffffffff x26=0x0000041b
       56645000	      5663	80005640	12378da3	sb	x3,315(x15)	 x15:0x8000841b  x3:0x00000475 PA:0x80008556
       56655000	      5664	80005644	416d5013	srai	x0,x26,0x16	 x26:0x0000041b
       56665000	      5665	80005648	c590bab7	lui	x21,0xc590b	 x21=0xc590b000
       56675000	      5666	8000564c	a0e9a213	slti	x4,x19,-1522	 x19:0xd20c4a51  x4=0x00000001
       56685000	      5667	80005650	00f11233	sll	x4,x2,x15	  x2:0x200027ca x15:0x8000841b  x4=0x50000000
       56695000	      5668	80005654	40c3d833	sra	x16,x7,x12	  x7:0x80009f28 x12:0xfffffde0 x16=0x80009f28
       56705000	      5669	80005658	00785c63	bge	x16,x7,80005670	 x16:0x80009f28  x7:0x80009f28
       56715000	      5670	00000000	00000013	addi	x0,x0,0	  x0:0x00000000
       56725000	      5671	8000566c	00000013	addi	x0,x0,0	  x0:0x00000000
       56735000	      5672	80005670	41fcd993	srai	x19,x25,0x1f	 x25:0xb9e11000 x19=0xffffffff
       56745000	      5673	80005674	11a2f863	bgeu	x5,x26,80005784	  x5:0x56a2f5c0 x26:0x0000041b
       56755000	      5674	00000000	00000013	addi	x0,x0,0	  x0:0x00000000
       56765000	      5675	80005780	00000013	addi	x0,x0,0	  x0:0x00000000
       56775000	      5676	80005784	11eaf613	andi	x12,x21,286	 x21:0xc590b000 x12=0x00000000
       56785000	      5677	80005788	41205993	srai	x19,x0,0x12	  x0:0x00000000 x19=0x00000000
       56795000	      5678	8000578c	01911613	slli	x12,x2,0x19	  x2:0x200027ca x12=0x94000000
       56805000	      5679	80005790	55583693	sltiu	x13,x16,1365	 x16:0x80009f28 x13=0x00000000
       56815000	      5680	80005794	746a54b7	lui	x9,0x746a5	  x9=0x746a5000
       56825000	      5681	80005798	009064b3	or	x9,x0,x9	  x0:0x00000000  x9:0x746a5000  x9=0x746a5000
       56835000	      5682	8000579c	00000013	addi	x0,x0,0	  x0:0x00000000
       56845000	      5683	800057a0	056b0863	beq	x22,x22,800057f0	 x22:0xeb0d9000 x22:0xeb0d9000
       56855000	      5684	00000000	00000013	addi	x0,x0,0	  x0:0x00000000
       56865000	      5685	800057ec	00000013	addi	x0,x0,0	  x0:0x00000000
       56875000	      5686	800057f0	05c24063	blt	x4,x28,80005830	  x4:0x50000000 x28:0x80009fc4
       56885000	      5687	800057f4	00f09eb3	sll	x29,x1,x15	  x1:0x00000000 x15:0x8000841b x29=0x00000000
       56895000	      5688	800057f8	05d37663	bgeu	x6,x29,80005844	  x6:0xd20c4530 x29:0x00000000
       56905000	      5689	00000000	00000013	addi	x0,x0,0	  x0:0x00000000
       56915000	      5690	80005840	00000013	addi	x0,x0,0	  x0:0x00000000
       56925000	      5691	80005844	01591b93	slli	x23,x18,0x15	 x18:0x475a92a9 x23=0x55200000
       56935000	      5692	80005848	ab979437	lui	x8,0xab979	  x8=0xab979000
       56945000	      5693	8000584c	80e36313	ori	x6,x6,-2034	  x6:0xd20c4530  x6=0xfffffd3e
       56955000	      5694	80005850	3e460c13	addi	x24,x12,996	 x12:0x94000000 x24=0x940003e4
       56965000	      5695	80005854	45fb1297	auipc	x5,0x45fb1	  x5=0xc5fb6850
       56975000	      5696	80005858	01ac1693	slli	x13,x24,0x1a	 x24:0x940003e4 x13=0x90000000
       56985000	      5697	8000585c	00bfcbb3	xor	x23,x31,x11	 x31:0x00000000 x11:0xfffffddf x23=0xfffffddf
       56995000	      5698	80005860	03eb8863	beq	x23,x30,80005890	 x23:0xfffffddf x30:0x000000c7
       57005000	      5699	80005864	008f7033	and	x0,x30,x8	 x30:0x000000c7  x8:0xab979000
       57015000	      5700	80005868	00cc0833	add	x16,x24,x12	 x24:0x940003e4 x12:0x94000000 x16=0x280003e4
       57025000	      5701	8000586c	2e968593	addi	x11,x13,745	 x13:0x90000000 x11=0x900002e9
       57035000	      5702	80005870	00f637b3	sltu	x15,x12,x15	 x12:0x94000000 x15:0x8000841b x15=0x00000000
       57045000	      5703	80005874	003c6a33	or	x20,x24,x3	 x24:0x940003e4  x3:0x00000475 x20=0x940007f5
       57055000	      5704	80005878	000b5993	srli	x19,x22,0x0	 x22:0xeb0d9000 x19=0xeb0d9000
       57065000	      5705	8000587c	f341c217	auipc	x4,0xf341c	  x4=0x73421878
       57075000	      5706	80005880	00801893	slli	x17,x0,0x8	  x0:0x00000000 x17=0x00000000
       57085000	      5707	80005884	40b85213	srai	x4,x16,0xb	 x16:0x280003e4  x4=0x00050000
       57095000	      5708	80005888	00c5a2b3	slt	x5,x11,x12	 x11:0x900002e9 x12:0x94000000  x5=0x00000001
       57105000	      5709	8000588c	c9507497	auipc	x9,0xc9507	  x9=0x4950c888
       57115000	      5710	80005890	418b5293	srai	x5,x22,0x18	 x22:0xeb0d9000  x5=0xffffffeb
       57125000	      5711	80005894	00eb50b3	srl	x1,x22,x14	 x22:0xeb0d9000 x14:0x00001a41  x1=0x7586c800
       57135000	      5712	80005898	4095d8b3	sra	x17,x11,x9	 x11:0x900002e9  x9:0x4950c888 x17=0xff900002
       57145000	      5713	8000589c	ae4bc713	xori	x14,x23,-1308	 x23:0xfffffddf x14=0x0000073b
       57155000	      5714	800058a0	4183df33	sra	x30,x7,x24	  x7:0x80009f28 x24:0x940003e4 x30=0xf80009f2
       57165000	      5715	800058a4	014769b3	or	x19,x14,x20	 x14:0x0000073b x20:0x940007f5 x19=0x940007ff
       57175000	      5716	800058a8	028ee063	bltu	x29,x8,800058c8	 x29:0x00000000  x8:0xab979000
       57185000	      5717	00000000	00000013	addi	x0,x0,0	  x0:0x00000000
       57195000	      5718	800058c4	00000013	addi	x0,x0,0	  x0:0x00000000
       57205000	      5719	800058c8	5283ff93	andi	x31,x7,1320	  x7:0x80009f28 x31=0x00000528
       57215000	      5720	800058cc	41dfd733	sra	x14,x31,x29	 x31:0x00000528 x29:0x00000000 x14=0x00000528
       57225000	      5721	800058d0	8b494497	auipc	x9,0x8b494	  x9=0x0b4998cc
       57235000	      5722	800058d4	015dc9b3	xor	x19,x27,x21	 x27:0x00000000 x21:0xc590b000 x19=0xc590b000
       57245000	      5723	800058d8	f47d6237	lui	x4,0xf47d6	  x4=0xf47d6000
       57255000	      5724	800058dc	00865e63	bge	x12,x8,800058f8	 x12:0x94000000  x8:0xab979000
       57265000	      5725	800058e0	010adcb3	srl	x25,x21,x16	 x21:0xc590b000 x16:0x280003e4 x25=0x0c590b00
       57275000	      5726	800058e4	01d87b33	and	x22,x16,x29	 x16:0x280003e4 x29:0x00000000 x22=0x00000000
       57285000	      5727	800058e8	40790233	sub	x4,x18,x7	 x18:0x475a92a9  x7:0x80009f28  x4=0xc759f381
       57295000	      5728	800058ec	00f29f13	slli	x30,x5,0xf	  x5:0xffffffeb x30=0xfff58000
       57305000	      5729	800058f0	0035cc33	xor	x24,x11,x3	 x11:0x900002e9  x3:0x00000475 x24=0x9000069c
       57315000	      5730	800058f4	00b56233	or	x4,x10,x11	 x10:0x00000000 x11:0x900002e9  x4=0x900002e9
       57325000	      5731	800058f8	017b5333	srl	x6,x22,x23	 x22:0x00000000 x23:0xfffffddf  x6=0x00000000
       57335000	      5732	800058fc	00398ab3	add	x21,x19,x3	 x19:0xc590b000  x3:0x00000475 x21=0xc590b475
       57345000	      5733	80005900	3ca52693	slti	x13,x10,970	 x10:0x00000000 x13=0x00000001
       57355000	      5734	80005904	fd3d3b93	sltiu	x23,x26,-45	 x26:0x0000041b x23=0x00000001
       57365000	      5735	80005908	40f001b3	sub	x3,x0,x15	  x0:0x00000000 x15:0x00000000  x3=0x00000000
       57375000	      5736	8000590c	d2f5cf93	xori	x31,x11,-721	 x11:0x900002e9 x31=0x6fffffc6
       57385000	      5737	80005910	a5ea0193	addi	x3,x20,-1442	 x20:0x940007f5  x3=0x94000253
       57395000	      5738	80005914	00638263	beq	x7,x6,80005918	  x7:0x80009f28  x6:0x00000000
       57405000	      5739	80005918	005b5793	srli	x15,x22,0x5	 x22:0x00000000 x15=0x00000000
       57415000	      5740	8000591c	40070033	sub	x0,x14,x0	 x14:0x00000528  x0:0x00000000
       57425000	      5741	80005920	01052d33	slt	x26,x10,x16	 x10:0x00000000 x16:0x280003e4 x26=0x00000001
       57435000	      5742	80005924	00ba7a63	bgeu	x20,x11,80005938	 x20:0x940007f5 x11:0x900002e9
       57445000	      5743	00000000	00000013	addi	x0,x0,0	  x0:0x00000000
       57455000	      5744	80005934	00000013	addi	x0,x0,0	  x0:0x00000000
       57465000	      5745	80005938	005541b3	xor	x3,x10,x5	 x10:0x00000000  x5:0xffffffeb  x3=0xffffffeb
       57475000	      5746	8000593c	00a55a13	srli	x20,x10,0xa	 x10:0x00000000 x20=0x00000000
       57485000	      5747	80005940	cced4c93	xori	x25,x26,-818	 x26:0x00000001 x25=0xfffffccf
       57495000	      5748	80005944	00780713	addi	x14,x16,7	 x16:0x280003e4 x14=0x280003eb
       57505000	      5749	80005948	04eec863	blt	x29,x14,80005998	 x29:0x00000000 x14:0x280003eb
       57515000	      5750	00000000	00000013	addi	x0,x0,0	  x0:0x00000000
       57525000	      5751	80005994	00000013	addi	x0,x0,0	  x0:0x00000000
       57535000	      5752	80005998	00fd2533	slt	x10,x26,x15	 x26:0x00000001 x15:0x00000000 x10=0x00000000
       57545000	      5753	8000599c	41985833	sra	x16,x16,x25	 x16:0x280003e4 x25:0xfffffccf x16=0x00005000
       57555000	      5754	800059a0	9da4c193	xori	x3,x9,-1574	  x9:0x0b4998cc  x3=0xf4b66116
       57565000	      5755	800059a4	00000013	addi	x0,x0,0	  x0:0x00000000
       57575000	      5756	800059a8	546ffc93	andi	x25,x31,1350	 x31:0x6fffffc6 x25=0x00000546
       57585000	      5757	800059ac	602b60b7	lui	x1,0x602b6	  x1=0x602b6000
       57595000	      5758	800059b0	01d24c63	blt	x4,x29,800059c8	  x4:0x900002e9 x29:0x00000000
       57605000	      5759	00000000	00000013	addi	x0,x0,0	  x0:0x00000000
       57615000	      5760	800059c4	00000013	addi	x0,x0,0	  x0:0x00000000
       57625000	      5761	800059c8	01af5663	bge	x30,x26,800059d4	 x30:0xfff58000 x26:0x00000001
       57635000	      5762	800059cc	103ef9b7	lui	x19,0x103ef	 x19=0x103ef000
       57645000	      5763	800059d0	01a05663	bge	x0,x26,800059dc	  x0:0x00000000 x26:0x00000001
       57655000	      5764	800059d4	3a59ed93	ori	x27,x19,933	 x19:0x103ef000 x27=0x103ef3a5
       57665000	      5765	800059d8	02388263	beq	x17,x3,800059fc	 x17:0xff900002  x3:0xf4b66116
       57675000	      5766	800059dc	33618413	addi	x8,x3,822	  x3:0xf4b66116  x8=0xf4b6644c
       57685000	      5767	800059e0	02361263	bne	x12,x3,80005a04	 x12:0x94000000  x3:0xf4b66116
       57695000	      5768	00000000	00000013	addi	x0,x0,0	  x0:0x00000000
       57705000	      5769	80005a00	00000013	addi	x0,x0,0	  x0:0x00000000
       57715000	      5770	80005a04	363c4997	auipc	x19,0x363c4	 x19=0xb63c9a00
       57725000	      5771	80005a08	02d07263	bgeu	x0,x13,80005a2c	  x0:0x00000000 x13:0x00000001
       57735000	      5772	80005a0c	40a689b3	sub	x19,x13,x10	 x13:0x00000001 x10:0x00000000 x19=0x00000001
       57745000	      5773	80005a10	12e8f513	andi	x10,x17,302	 x17:0xff900002 x10=0x00000002
       57755000	      5774	80005a14	0039bf33	sltu	x30,x19,x3	 x19:0x00000001  x3:0xf4b66116 x30=0x00000001
       57765000	      5775	80005a18	bded4093	xori	x1,x26,-1058	 x26:0x00000001  x1=0xfffffbdf
       57775000	      5776	80005a1c	04d68863	beq	x13,x13,80005a6c	 x13:0x00000001 x13:0x00000001
       57785000	      5777	00000000	00000013	addi	x0,x0,0	  x0:0x00000000
       57795000	      5778	80005a68	00000013	addi	x0,x0,0	  x0:0x00000000
       57805000	      5779	80005a6c	00699c93	slli	x25,x19,0x6	 x19:0x00000001 x25=0x00000040
       57815000	      5780	80005a70	004dfc63	bgeu	x27,x4,80005a88	 x27:0x103ef3a5  x4:0x900002e9
       57825000	      5781	80005a74	018984b3	add	x9,x19,x24	 x19:0x00000001 x24:0x9000069c  x9=0x9000069d
       57835000	      5782	80005a78	00ff6cb3	or	x25,x30,x15	 x30:0x00000001 x15:0x00000000 x25=0x00000001
       57845000	      5783	80005a7c	024e4463	blt	x28,x4,80005aa4	 x28:0x80009fc4  x4:0x900002e9
       57855000	      5784	00000000	00000013	addi	x0,x0,0	  x0:0x00000000
       57865000	      5785	80005aa0	00000013	addi	x0,x0,0	  x0:0x00000000
       57875000	      5786	80005aa4	00bb6a63	bltu	x22,x11,80005ab8	 x22:0x00000000 x11:0x900002e9
       57885000	      5787	00000000	00000013	addi	x0,x0,0	  x0:0x00000000
       57895000	      5788	80005ab4	00000013	addi	x0,x0,0	  x0:0x00000000
       57905000	      5789	80005ab8	02df6263	bltu	x30,x13,80005adc	 x30:0x00000001 x13:0x00000001
       57915000	      5790	80005abc	13720813	addi	x16,x4,311	  x4:0x900002e9 x16=0x90000420
       57925000	      5791	80005ac0	0044afb3	slt	x31,x9,x4	  x9:0x9000069d  x4:0x900002e9 x31=0x00000000
       57935000	      5792	80005ac4	624dfc13	andi	x24,x27,1572	 x27:0x103ef3a5 x24=0x00000224
       57945000	      5793	80005ac8	40140d33	sub	x26,x8,x1	  x8:0xf4b6644c  x1:0xfffffbdf x26=0xf4b6686d
       57955000	      5794	80005acc	01ad22b3	slt	x5,x26,x26	 x26:0xf4b6686d x26:0xf4b6686d  x5=0x00000000
       57965000	      5795	80005ad0	35b78213	addi	x4,x15,859	 x15:0x00000000  x4=0x0000035b
       57975000	      5796	80005ad4	01e97263	bgeu	x18,x30,80005ad8	 x18:0x475a92a9 x30:0x00000001
       57985000	      5797	00000000	00000013	addi	x0,x0,0	  x0:0x00000000
       57995000	      5798	80005ad4	00000013	addi	x0,x0,0	  x0:0x00000000
       58005000	      5799	80005ad8	f4056493	ori	x9,x10,-192	 x10:0x00000002  x9=0xffffff42
       58015000	      5800	80005adc	ea3bff93	andi	x31,x23,-349	 x23:0x00000001 x31=0x00000001
       58025000	      5801	80005ae0	01d26c63	bltu	x4,x29,80005af8	  x4:0x0000035b x29:0x00000000
       58035000	      5802	80005ae4	01f25a63	bge	x4,x31,80005af8	  x4:0x0000035b x31:0x00000001
       58045000	      5803	00000000	00000013	addi	x0,x0,0	  x0:0x00000000
       58055000	      5804	80005af4	00000013	addi	x0,x0,0	  x0:0x00000000
       58065000	      5805	80005af8	0148c263	blt	x17,x20,80005afc	 x17:0xff900002 x20:0x00000000
       58075000	      5806	00000000	00000013	addi	x0,x0,0	  x0:0x00000000
       58085000	      5807	80005af8	00000013	addi	x0,x0,0	  x0:0x00000000
       58095000	      5808	80005afc	014d55b3	srl	x11,x26,x20	 x26:0xf4b6686d x20:0x00000000 x11=0xf4b6686d
       58105000	      5809	80005b00	11ec4e63	blt	x24,x30,80005c1c	 x24:0x00000224 x30:0x00000001
       58115000	      5810	80005b04	4e17f813	andi	x16,x15,1249	 x15:0x00000000 x16=0x00000000
       58125000	      5811	80005b08	41370bb3	sub	x23,x14,x19	 x14:0x280003eb x19:0x00000001 x23=0x280003ea
       58135000	      5812	80005b0c	00003297	auipc	x5,0x3	  x5=0x80008b08
       58145000	      5813	80005b10	0f228293	addi	x5,x5,242	  x5:0x80008b08  x5=0x80008bfa
       58155000	      5814	80005b14	406d55b3	sra	x11,x26,x6	 x26:0xf4b6686d  x6:0x00000000 x11=0xf4b6686d
       58165000	      5815	80005b18	00924db3	xor	x27,x4,x9	  x4:0x0000035b  x9:0xffffff42 x27=0xfffffc19
       58175000	      5816	80005b1c	0123cab3	xor	x21,x7,x18	  x7:0x80009f28 x18:0x475a92a9 x21=0xc75a0d81
       58185000	      5817	80005b20	00000013	addi	x0,x0,0	  x0:0x00000000
       58195000	      5818	80005b24	ff029783	lh	x15,-16(x5)	  x5:0x80008bfa x15=0x00000000 PA:0x80008bea
       58205000	      5819	80005b28	018a8433	add	x8,x21,x24	 x21:0xc75a0d81 x24:0x00000224  x8=0xc75a0fa5
       58215000	      5820	80005b2c	70db0613	addi	x12,x22,1805	 x22:0x00000000 x12=0x0000070d
       58225000	      5821	80005b30	ff428683	lb	x13,-12(x5)	  x5:0x80008bfa x13=0x00000000 PA:0x80008bee
       58235000	      5822	80005b34	01fa3c33	sltu	x24,x20,x31	 x20:0x00000000 x31:0x00000001 x24=0x00000001
       58245000	      5823	80005b38	017a1633	sll	x12,x20,x23	 x20:0x00000000 x23:0x280003ea x12=0x00000000
       58255000	      5824	80005b3c	00000013	addi	x0,x0,0	  x0:0x00000000
       58265000	      5825	80005b40	00a28523	sb	x10,10(x5)	  x5:0x80008bfa x10:0x00000002 PA:0x80008c04
       58275000	      5826	80005b44	fff28603	lb	x12,-1(x5)	  x5:0x80008bfa x12=0x00000000 PA:0x80008bf9
       58285000	      5827	80005b48	ffc2c103	lbu	x2,-4(x5)	  x5:0x80008bfa  x2=0x00000000 PA:0x80008bf6
       58295000	      5828	80005b4c	ffc2c803	lbu	x16,-4(x5)	  x5:0x80008bfa x16=0x00000000 PA:0x80008bf6
       58305000	      5829	80005b50	00d2c483	lbu	x9,13(x5)	  x5:0x80008bfa  x9=0x00000001 PA:0x80008c07
       58315000	      5830	80005b54	01f5d993	srli	x19,x11,0x1f	 x11:0xf4b6686d x19=0x00000001
       58325000	      5831	80005b58	fff2c103	lbu	x2,-1(x5)	  x5:0x80008bfa  x2=0x00000000 PA:0x80008bf9
       58335000	      5832	80005b5c	ffe29f23	sh	x30,-2(x5)	  x5:0x80008bfa x30:0x00000001 PA:0x80008bf8
       58345000	      5833	80005b60	02daa193	slti	x3,x21,45	 x21:0xc75a0d81  x3=0x00000001
       58355000	      5834	80005b64	01b28323	sb	x27,6(x5)	  x5:0x80008bfa x27:0xfffffc19 PA:0x80008c00
       58365000	      5835	80005b68	ff22c883	lbu	x17,-14(x5)	  x5:0x80008bfa x17=0x00000000 PA:0x80008bec
       58375000	      5836	80005b6c	ff82dd03	lhu	x26,-8(x5)	  x5:0x80008bfa x26=0x00000000 PA:0x80008bf2
       58385000	      5837	80005b70	9879cbb7	lui	x23,0x9879c	 x23=0x9879c000
       58395000	      5838	80005b74	fbc33197	auipc	x3,0xfbc33	  x3=0x7bc38b70
       58405000	      5839	80005b78	fe4289a3	sb	x4,-13(x5)	  x5:0x80008bfa  x4:0x0000035b PA:0x80008bed
       58415000	      5840	80005b7c	f62d8313	addi	x6,x27,-158	 x27:0xfffffc19  x6=0xfffffb7b
       58425000	      5841	80005b80	40948eb3	sub	x29,x9,x9	  x9:0x00000001  x9:0x00000001 x29=0x00000000
       58435000	      5842	80005b84	01d60033	add	x0,x12,x29	 x12:0x00000000 x29:0x00000000
       58445000	      5843	80005b88	b0c7f513	andi	x10,x15,-1268	 x15:0x00000000 x10=0x00000000
       58455000	      5844	80005b8c	0101a733	slt	x14,x3,x16	  x3:0x7bc38b70 x16:0x00000000 x14=0x00000000
       58465000	      5845	80005b90	ff02cf83	lbu	x31,-16(x5)	  x5:0x80008bfa x31=0x00000000 PA:0x80008bea
       58475000	      5846	80005b94	003b6233	or	x4,x22,x3	 x22:0x00000000  x3:0x7bc38b70  x4=0x7bc38b70
       58485000	      5847	80005b98	00a80b33	add	x22,x16,x10	 x16:0x00000000 x10:0x00000000 x22=0x00000000
       58495000	      5848	80005b9c	41658033	sub	x0,x11,x22	 x11:0xf4b6686d x22:0x00000000
       58505000	      5849	80005ba0	ffe28d03	lb	x26,-2(x5)	  x5:0x80008bfa x26=0x00000001 PA:0x80008bf8
       58515000	      5850	80005ba4	015f5fb3	srl	x31,x30,x21	 x30:0x00000001 x21:0xc75a0d81 x31=0x00000000
       58525000	      5851	80005ba8	0042d683	lhu	x13,4(x5)	  x5:0x80008bfa x13=0x00000000 PA:0x80008bfe
       58535000	      5852	80005bac	01148733	add	x14,x9,x17	  x9:0x00000001 x17:0x00000000 x14=0x00000001
       58545000	      5853	80005bb0	fe22af23	sw	x2,-2(x5)	  x5:0x80008bfa  x2:0x00000000 PA:0x80008bf8
       58555000	      5854	80005bb4	2e2f9317	auipc	x6,0x2e2f9	  x6=0xae2febb0
       58565000	      5855	80005bb8	00128883	lb	x17,1(x5)	  x5:0x80008bfa x17=0x00000000 PA:0x80008bfb
       58575000	      5856	80005bbc	6ea74313	xori	x6,x14,1770	 x14:0x00000001  x6=0x000006eb
       58585000	      5857	80005bc0	af9f2613	slti	x12,x30,-1287	 x30:0x00000001 x12=0x00000000
       58595000	      5858	80005bc4	00929323	sh	x9,6(x5)	  x5:0x80008bfa  x9:0x00000001 PA:0x80008c00
       58605000	      5859	80005bc8	2a73fc17	auipc	x24,0x2a73f	 x24=0xaa744bc4
       58615000	      5860	80005bcc	00000013	addi	x0,x0,0	  x0:0x00000000
       58625000	      5861	80005bd0	01fe9fb3	sll	x31,x29,x31	 x29:0x00000000 x31:0x00000000 x31=0x00000000
       58635000	      5862	80005bd4	9965a493	slti	x9,x11,-1642	 x11:0xf4b6686d  x9=0x00000001
       58645000	      5863	80005bd8	01e286a3	sb	x30,13(x5)	  x5:0x80008bfa x30:0x00000001 PA:0x80008c07
       58655000	      5864	80005bdc	007d7263	bgeu	x26,x7,80005be0	 x26:0x00000001  x7:0x80009f28
       58665000	      5865	80005be0	010d9d93	slli	x27,x27,0x10	 x27:0xfffffc19 x27=0xfc190000
       58675000	      5866	80005be4	005b1a93	slli	x21,x22,0x5	 x22:0x00000000 x21=0x00000000
       58685000	      5867	80005be8	12638f13	addi	x30,x7,294	  x7:0x80009f28 x30=0x8000a04e
       58695000	      5868	80005bec	8eedec93	ori	x25,x27,-1810	 x27:0xfc190000 x25=0xfffff8ee
       58705000	      5869	80005bf0	106bf113	andi	x2,x23,262	 x23:0x9879c000  x2=0x00000000
       58715000	      5870	80005bf4	008ff6b3	and	x13,x31,x8	 x31:0x00000000  x8:0xc75a0fa5 x13=0x00000000
       58725000	      5871	80005bf8	18b48d13	addi	x26,x9,395	  x9:0x00000001 x26=0x0000018c
       58735000	      5872	80005bfc	013aef33	or	x30,x21,x19	 x21:0x00000000 x19:0x00000001 x30=0x00000001
       58745000	      5873	80005c00	00e381b3	add	x3,x7,x14	  x7:0x80009f28 x14:0x00000001  x3=0x80009f29
       58755000	      5874	80005c04	016affb3	and	x31,x21,x22	 x21:0x00000000 x22:0x00000000 x31=0x00000000
       58765000	      5875	80005c08	199caf93	slti	x31,x25,409	 x25:0xfffff8ee x31=0x00000001
       58775000	      5876	80005c0c	03649863	bne	x9,x22,80005c3c	  x9:0x00000001 x22:0x00000000
       58785000	      5877	00000000	00000013	addi	x0,x0,0	  x0:0x00000000
       58795000	      5878	80005c38	00000013	addi	x0,x0,0	  x0:0x00000000
       58805000	      5879	80005c3c	01e812b3	sll	x5,x16,x30	 x16:0x00000000 x30:0x00000001  x5=0x00000000
       58815000	      5880	80005c40	00c07c33	and	x24,x0,x12	  x0:0x00000000 x12:0x00000000 x24=0x00000000
       58825000	      5881	80005c44	00003117	auipc	x2,0x3	  x2=0x80008c40
       58835000	      5882	80005c48	27810113	addi	x2,x2,632	  x2:0x80008c40  x2=0x80008eb8
       58845000	      5883	80005c4c	68124db7	lui	x27,0x68124	 x27=0x68124000
       58855000	      5884	80005c50	ffc11883	lh	x17,-4(x2)	  x2:0x80008eb8 x17=0x00000001 PA:0x80008eb4
       58865000	      5885	80005c54	fe6108a3	sb	x6,-15(x2)	  x2:0x80008eb8  x6:0x000006eb PA:0x80008ea9
       58875000	      5886	80005c58	018105a3	sb	x24,11(x2)	  x2:0x80008eb8 x24:0x00000000 PA:0x80008ec3
       58885000	      5887	80005c5c	005105a3	sb	x5,11(x2)	  x2:0x80008eb8  x5:0x00000000 PA:0x80008ec3
       58895000	      5888	80005c60	ff412823	sw	x20,-16(x2)	  x2:0x80008eb8 x20:0x00000000 PA:0x80008ea8
       58905000	      5889	80005c64	ff914403	lbu	x8,-7(x2)	  x2:0x80008eb8  x8=0x00000000 PA:0x80008eb1
       58915000	      5890	80005c68	0108fc33	and	x24,x17,x16	 x17:0x00000001 x16:0x00000000 x24=0x00000000
       58925000	      5891	80005c6c	00000013	addi	x0,x0,0	  x0:0x00000000
       58935000	      5892	80005c70	1a148097	auipc	x1,0x1a148	  x1=0x9a14dc6c
       58945000	      5893	80005c74	ff110303	lb	x6,-15(x2)	  x2:0x80008eb8  x6=0x00000000 PA:0x80008ea9
       58955000	      5894	80005c78	00012283	lw	x5,0(x2)	  x2:0x80008eb8  x5=0x00000000 PA:0x80008eb8
       58965000	      5895	00000000	00000013	addi	x0,x0,0	  x0:0x00000000
       58975000	      5896	80005c7c	00510b03	lb	x22,5(x2)	  x2:0x80008eb8 x22=0x00000000 PA:0x80008ebd
       58985000	      5897	80005c80	00613b33	sltu	x22,x2,x6	  x2:0x80008eb8  x6:0x00000000 x22=0x00000000
       58995000	      5898	80005c84	00014883	lbu	x17,0(x2)	  x2:0x80008eb8 x17=0x00000000 PA:0x80008eb8
       59005000	      5899	00000000	00000013	addi	x0,x0,0	  x0:0x00000000
       59015000	      5900	80005c88	011104a3	sb	x17,9(x2)	  x2:0x80008eb8 x17:0x00000000 PA:0x80008ec1
       59025000	      5901	80005c8c	01235613	srli	x12,x6,0x12	  x6:0x00000000 x12=0x00000000
       59035000	      5902	80005c90	ff610b23	sb	x22,-10(x2)	  x2:0x80008eb8 x22:0x00000000 PA:0x80008eae
       59045000	      5903	80005c94	01339013	slli	x0,x7,0x13	  x7:0x80009f28
       59055000	      5904	80005c98	ec94f413	andi	x8,x9,-311	  x9:0x00000001  x8=0x00000001
       59065000	      5905	80005c9c	ff615403	lhu	x8,-10(x2)	  x2:0x80008eb8  x8=0x00000000 PA:0x80008eae
       59075000	      5906	80005ca0	ff511b23	sh	x21,-10(x2)	  x2:0x80008eb8 x21:0x00000000 PA:0x80008eae
       59085000	      5907	80005ca4	fe110da3	sb	x1,-5(x2)	  x2:0x80008eb8  x1:0x9a14dc6c PA:0x80008eb3
       59095000	      5908	80005ca8	fff14303	lbu	x6,-1(x2)	  x2:0x80008eb8  x6=0x00000000 PA:0x80008eb7
       59105000	      5909	80005cac	ffe12e23	sw	x30,-4(x2)	  x2:0x80008eb8 x30:0x00000001 PA:0x80008eb4
       59115000	      5910	80005cb0	40af00b3	sub	x1,x30,x10	 x30:0x00000001 x10:0x00000000  x1=0x00000001
       59125000	      5911	80005cb4	0122d993	srli	x19,x5,0x12	  x5:0x00000000 x19=0x00000000
       59135000	      5912	80005cb8	01410823	sb	x20,16(x2)	  x2:0x80008eb8 x20:0x00000000 PA:0x80008ec8
       59145000	      5913	80005cbc	00510223	sb	x5,4(x2)	  x2:0x80008eb8  x5:0x00000000 PA:0x80008ebc
       59155000	      5914	80005cc0	ff6109a3	sb	x22,-13(x2)	  x2:0x80008eb8 x22:0x00000000 PA:0x80008eab
       59165000	      5915	80005cc4	4071dd33	sra	x26,x3,x7	  x3:0x80009f29  x7:0x80009f28 x26=0xff80009f
       59175000	      5916	80005cc8	00d14703	lbu	x14,13(x2)	  x2:0x80008eb8 x14=0x00000000 PA:0x80008ec5
       59185000	      5917	80005ccc	ff412183	lw	x3,-12(x2)	  x2:0x80008eb8  x3=0x00000000 PA:0x80008eac
       59195000	      5918	80005cd0	002cb533	sltu	x10,x25,x2	 x25:0xfffff8ee  x2:0x80008eb8 x10=0x00000000
       59205000	      5919	80005cd4	ff910983	lb	x19,-7(x2)	  x2:0x80008eb8 x19=0x00000000 PA:0x80008eb1
       59215000	      5920	80005cd8	009281b3	add	x3,x5,x9	  x5:0x00000000  x9:0x00000001  x3=0x00000001
       59225000	      5921	80005cdc	006fd533	srl	x10,x31,x6	 x31:0x00000001  x6:0x00000000 x10=0x00000001
       59235000	      5922	80005ce0	00ec5793	srli	x15,x24,0xe	 x24:0x00000000 x15=0x00000000
       59245000	      5923	80005ce4	0198ab33	slt	x22,x17,x25	 x17:0x00000000 x25:0xfffff8ee x22=0x00000000
       59255000	      5924	80005ce8	ff610ea3	sb	x22,-3(x2)	  x2:0x80008eb8 x22:0x00000000 PA:0x80008eb5
       59265000	      5925	80005cec	00214983	lbu	x19,2(x2)	  x2:0x80008eb8 x19=0x00000000 PA:0x80008eba
       59275000	      5926	80005cf0	ff215f03	lhu	x30,-14(x2)	  x2:0x80008eb8 x30=0x00000000 PA:0x80008eaa
       59285000	      5927	80005cf4	210a4313	xori	x6,x20,528	 x20:0x00000000  x6=0x00000210
       59295000	      5928	80005cf8	002107a3	sb	x2,15(x2)	  x2:0x80008eb8  x2:0x80008eb8 PA:0x80008ec7
       59305000	      5929	80005cfc	00a11483	lh	x9,10(x2)	  x2:0x80008eb8  x9=0x00000000 PA:0x80008ec2
       59315000	      5930	80005d00	05ea32b7	lui	x5,0x5ea3	  x5=0x05ea3000
       59325000	      5931	80005d04	004af6b3	and	x13,x21,x4	 x21:0x00000000  x4:0x7bc38b70 x13=0x00000000
       59335000	      5932	80005d08	01bc9233	sll	x4,x25,x27	 x25:0xfffff8ee x27:0x68124000  x4=0xfffff8ee
       59345000	      5933	80005d0c	ff310b83	lb	x23,-13(x2)	  x2:0x80008eb8 x23=0x00000000 PA:0x80008eab
       59355000	      5934	80005d10	00314d03	lbu	x26,3(x2)	  x2:0x80008eb8 x26=0x00000000 PA:0x80008ebb
       59365000	      5935	80005d14	aea40a13	addi	x20,x8,-1302	  x8:0x00000000 x20=0xfffffaea
       59375000	      5936	80005d18	02c3da63	bge	x7,x12,80005d4c	  x7:0x80009f28 x12:0x00000000
       59385000	      5937	80005d1c	06a53213	sltiu	x4,x10,106	 x10:0x00000001  x4=0x00000001
       59395000	      5938	80005d20	00a27bb3	and	x23,x4,x10	  x4:0x00000001 x10:0x00000001 x23=0x00000001
       59405000	      5939	80005d24	095ffb93	andi	x23,x31,149	 x31:0x00000001 x23=0x00000001
       59415000	      5940	80005d28	02ab7663	bgeu	x22,x10,80005d54	 x22:0x00000000 x10:0x00000001
       59425000	      5941	80005d2c	2e3404b7	lui	x9,0x2e340	  x9=0x2e340000
       59435000	      5942	80005d30	00f90db3	add	x27,x18,x15	 x18:0x475a92a9 x15:0x00000000 x27=0x475a92a9
       59445000	      5943	80005d34	01899793	slli	x15,x19,0x18	 x19:0x00000000 x15=0x00000000
       59455000	      5944	80005d38	347eff13	andi	x30,x29,839	 x29:0x00000000 x30=0x00000000
       59465000	      5945	80005d3c	05249863	bne	x9,x18,80005d8c	  x9:0x2e340000 x18:0x475a92a9
       59475000	      5946	00000000	00000013	addi	x0,x0,0	  x0:0x00000000
       59485000	      5947	80005d88	00000013	addi	x0,x0,0	  x0:0x00000000
       59495000	      5948	80005d8c	0109fab3	and	x21,x19,x16	 x19:0x00000000 x16:0x00000000 x21=0x00000000
       59505000	      5949	80005d90	88f63213	sltiu	x4,x12,-1905	 x12:0x00000000  x4=0x00000001
       59515000	      5950	80005d94	3fdb7613	andi	x12,x22,1021	 x22:0x00000000 x12=0x00000000
       59525000	      5951	80005d98	02ce5063	bge	x28,x12,80005db8	 x28:0x80009fc4 x12:0x00000000
       59535000	      5952	80005d9c	00531663	bne	x6,x5,80005da8	  x6:0x00000210  x5:0x05ea3000
       59545000	      5953	00000000	00000013	addi	x0,x0,0	  x0:0x00000000
       59555000	      5954	80005da4	00000013	addi	x0,x0,0	  x0:0x00000000
       59565000	      5955	80005da8	003e8c63	beq	x29,x3,80005dc0	 x29:0x00000000  x3:0x00000001
       59575000	      5956	80005dac	000fda13	srli	x20,x31,0x0	 x31:0x00000001 x20=0x00000001
       59585000	      5957	80005db0	40b50633	sub	x12,x10,x11	 x10:0x00000001 x11:0xf4b6686d x12=0x0b499794
       59595000	      5958	80005db4	01a2cc63	blt	x5,x26,80005dcc	  x5:0x05ea3000 x26:0x00000000
       59605000	      5959	80005db8	372fa993	slti	x19,x31,882	 x31:0x00000001 x19=0x00000001
       59615000	      5960	80005dbc	40d458b3	sra	x17,x8,x13	  x8:0x00000000 x13:0x00000000 x17=0x00000000
       59625000	      5961	80005dc0	405adf33	sra	x30,x21,x5	 x21:0x00000000  x5:0x05ea3000 x30=0x00000000
       59635000	      5962	80005dc4	01833a33	sltu	x20,x6,x24	  x6:0x00000210 x24:0x00000000 x20=0x00000000
       59645000	      5963	80005dc8	03ea0263	beq	x20,x30,80005dec	 x20:0x00000000 x30:0x00000000
       59655000	      5964	00000000	00000013	addi	x0,x0,0	  x0:0x00000000
       59665000	      5965	80005de8	00000013	addi	x0,x0,0	  x0:0x00000000
       59675000	      5966	80005dec	05a6f663	bgeu	x13,x26,80005e38	 x13:0x00000000 x26:0x00000000
       59685000	      5967	00000000	00000013	addi	x0,x0,0	  x0:0x00000000
       59695000	      5968	80005e34	00000013	addi	x0,x0,0	  x0:0x00000000
       59705000	      5969	80005e38	6a31b293	sltiu	x5,x3,1699	  x3:0x00000001  x5=0x00000001
       59715000	      5970	80005e3c	e6427c93	andi	x25,x4,-412	  x4:0x00000001 x25=0x00000000
       59725000	      5971	80005e40	41948b33	sub	x22,x9,x25	  x9:0x2e340000 x25:0x00000000 x22=0x2e340000
       59735000	      5972	80005e44	01539833	sll	x16,x7,x21	  x7:0x80009f28 x21:0x00000000 x16=0x80009f28
       59745000	      5973	80005e48	010c5313	srli	x6,x24,0x10	 x24:0x00000000  x6=0x00000000
       59755000	      5974	80005e4c	00000013	addi	x0,x0,0	  x0:0x00000000
       59765000	      5975	80005e50	01ae1ab3	sll	x21,x28,x26	 x28:0x80009fc4 x26:0x00000000 x21=0x80009fc4
       59775000	      5976	80005e54	9e6acd93	xori	x27,x21,-1562	 x21:0x80009fc4 x27=0x7fff6622
       59785000	      5977	80005e58	01bb9a33	sll	x20,x23,x27	 x23:0x00000001 x27:0x7fff6622 x20=0x00000004
       59795000	      5978	80005e5c	4140d313	srai	x6,x1,0x14	  x1:0x00000001  x6=0x00000000
       59805000	      5979	80005e60	aeb5b193	sltiu	x3,x11,-1301	 x11:0xf4b6686d  x3=0x00000001
       59815000	      5980	80005e64	00000013	addi	x0,x0,0	  x0:0x00000000
       59825000	      5981	80005e68	01688ab3	add	x21,x17,x22	 x17:0x00000000 x22:0x2e340000 x21=0x2e340000
       59835000	      5982	80005e6c	04c3d263	bge	x7,x12,80005eb0	  x7:0x80009f28 x12:0x0b499794
       59845000	      5983	80005e70	001a4c63	blt	x20,x1,80005e88	 x20:0x00000004  x1:0x00000001
       59855000	      5984	80005e74	00dab2b3	sltu	x5,x21,x13	 x21:0x2e340000 x13:0x00000000  x5=0x00000000
       59865000	      5985	80005e78	64e66193	ori	x3,x12,1614	 x12:0x0b499794  x3=0x0b4997de
       59875000	      5986	80005e7c	40b9d093	srai	x1,x19,0xb	 x19:0x00000001  x1=0x00000000
       59885000	      5987	80005e80	03099663	bne	x19,x16,80005eac	 x19:0x00000001 x16:0x80009f28
       59895000	      5988	00000000	00000013	addi	x0,x0,0	  x0:0x00000000
       59905000	      5989	80005ea8	00000013	addi	x0,x0,0	  x0:0x00000000
       59915000	      5990	80005eac	015d9ab3	sll	x21,x27,x21	 x27:0x7fff6622 x21:0x2e340000 x21=0x7fff6622
       59925000	      5991	80005eb0	055dd663	bge	x27,x21,80005efc	 x27:0x7fff6622 x21:0x7fff6622
       59935000	      5992	00000000	00000013	addi	x0,x0,0	  x0:0x00000000
       59945000	      5993	80005ef8	00000013	addi	x0,x0,0	  x0:0x00000000
       59955000	      5994	80005efc	e2fb3417	auipc	x8,0xe2fb3	  x8=0x62fb8ef8
       59965000	      5995	80005f00	01d8c263	blt	x17,x29,80005f04	 x17:0x00000000 x29:0x00000000
       59975000	      5996	80005f04	00000013	addi	x0,x0,0	  x0:0x00000000
       59985000	      5997	80005f08	01e75993	srli	x19,x14,0x1e	 x14:0x00000000 x19=0x00000000
       59995000	      5998	80005f0c	00000013	addi	x0,x0,0	  x0:0x00000000
       60005000	      5999	80005f10	01a088b3	add	x17,x1,x26	  x1:0x00000000 x26:0x00000000 x17=0x00000000
       60015000	      6000	80005f14	011efab3	and	x21,x29,x17	 x29:0x00000000 x17:0x00000000 x21=0x00000000
       60025000	      6001	80005f18	000b1433	sll	x8,x22,x0	 x22:0x2e340000  x0:0x00000000  x8=0x2e340000
       60035000	      6002	80005f1c	41835a33	sra	x20,x6,x24	  x6:0x00000000 x24:0x00000000 x20=0x00000000
       60045000	      6003	80005f20	05fec693	xori	x13,x29,95	 x29:0x00000000 x13=0x0000005f
       60055000	      6004	80005f24	ff3ee513	ori	x10,x29,-13	 x29:0x00000000 x10=0xfffffff3
       60065000	      6005	80005f28	b616c693	xori	x13,x13,-1183	 x13:0x0000005f x13=0xfffffb3e
       60075000	      6006	80005f2c	00000013	addi	x0,x0,0	  x0:0x00000000
       60085000	      6007	80005f30	00ad9fb3	sll	x31,x27,x10	 x27:0x7fff6622 x10:0xfffffff3 x31=0x31100000
       60095000	      6008	80005f34	01cb4733	xor	x14,x22,x28	 x22:0x2e340000 x28:0x80009fc4 x14=0xae349fc4
       60105000	      6009	80005f38	416284b3	sub	x9,x5,x22	  x5:0x00000000 x22:0x2e340000  x9=0xd1cc0000
       60115000	      6010	80005f3c	0bcd3f17	auipc	x30,0xbcd3	 x30=0x8bcd8f38
       60125000	      6011	80005f40	0433f463	bgeu	x7,x3,80005f88	  x7:0x80009f28  x3:0x0b4997de
       60135000	      6012	00000000	00000013	addi	x0,x0,0	  x0:0x00000000
       60145000	      6013	80005f84	00000013	addi	x0,x0,0	  x0:0x00000000
       60155000	      6014	80005f88	0ee94893	xori	x17,x18,238	 x18:0x475a92a9 x17=0x475a9247
       60165000	      6015	80005f8c	003f1c63	bne	x30,x3,80005fa4	 x30:0x8bcd8f38  x3:0x0b4997de
       60175000	      6016	00000000	00000013	addi	x0,x0,0	  x0:0x00000000
       60185000	      6017	80005fa0	00000013	addi	x0,x0,0	  x0:0x00000000
       60195000	      6018	80005fa4	010b9693	slli	x13,x23,0x10	 x23:0x00000001 x13=0x00010000
       60205000	      6019	80005fa8	01d32bb3	slt	x23,x6,x29	  x6:0x00000000 x29:0x00000000 x23=0x00000000
       60215000	      6020	80005fac	bd3d4813	xori	x16,x26,-1069	 x26:0x00000000 x16=0xfffffbd3
       60225000	      6021	80005fb0	00000013	addi	x0,x0,0	  x0:0x00000000
       60235000	      6022	80005fb4	8fa7fb93	andi	x23,x15,-1798	 x15:0x00000000 x23=0x00000000
       60245000	      6023	80005fb8	481e3a13	sltiu	x20,x28,1153	 x28:0x80009fc4 x20=0x00000000
       60255000	      6024	80005fbc	501c6f13	ori	x30,x24,1281	 x24:0x00000000 x30=0x00000501
       60265000	      6025	80005fc0	997b3493	sltiu	x9,x22,-1641	 x22:0x2e340000  x9=0x00000001
       60275000	      6026	80005fc4	11521263	bne	x4,x21,800060c8	  x4:0x00000001 x21:0x00000000
       60285000	      6027	00000000	00000013	addi	x0,x0,0	  x0:0x00000000
       60295000	      6028	800060c4	00000013	addi	x0,x0,0	  x0:0x00000000
       60305000	      6029	800060c8	01192bb3	slt	x23,x18,x17	 x18:0x475a92a9 x17:0x475a9247 x23=0x00000000
       60315000	      6030	800060cc	01986a33	or	x20,x16,x25	 x16:0xfffffbd3 x25:0x00000000 x20=0xfffffbd3
       60325000	      6031	800060d0	08b60493	addi	x9,x12,139	 x12:0x0b499794  x9=0x0b49981f
       60335000	      6032	800060d4	00c85bb3	srl	x23,x16,x12	 x16:0xfffffbd3 x12:0x0b499794 x23=0x00000fff
       60345000	      6033	800060d8	0056e733	or	x14,x13,x5	 x13:0x00010000  x5:0x00000000 x14=0x00010000
       60355000	      6034	800060dc	01c6a1b3	slt	x3,x13,x28	 x13:0x00010000 x28:0x80009fc4  x3=0x00000000
       60365000	      6035	800060e0	009b7b33	and	x22,x22,x9	 x22:0x2e340000  x9:0x0b49981f x22=0x0a000000
       60375000	      6036	800060e4	01935263	bge	x6,x25,800060e8	  x6:0x00000000 x25:0x00000000
       60385000	      6037	00000000	00000013	addi	x0,x0,0	  x0:0x00000000
       60395000	      6038	800060e4	00000013	addi	x0,x0,0	  x0:0x00000000
       60405000	      6039	800060e8	01ec5c93	srli	x25,x24,0x1e	 x24:0x00000000 x25=0x00000000
       60415000	      6040	800060ec	02a15063	bge	x2,x10,8000610c	  x2:0x80008eb8 x10:0xfffffff3
       60425000	      6041	800060f0	00085893	srli	x17,x16,0x0	 x16:0xfffffbd3 x17=0xfffffbd3
       60435000	      6042	800060f4	00fc76b3	and	x13,x24,x15	 x24:0x00000000 x15:0x00000000 x13=0x00000000
       60445000	      6043	800060f8	b1618513	addi	x10,x3,-1258	  x3:0x00000000 x10=0xfffffb16
       60455000	      6044	800060fc	39410413	addi	x8,x2,916	  x2:0x80008eb8  x8=0x8000924c
       60465000	      6045	80006100	00788cb3	add	x25,x17,x7	 x17:0xfffffbd3  x7:0x80009f28 x25=0x80009afb
       60475000	      6046	80006104	018c59b3	srl	x19,x24,x24	 x24:0x00000000 x24:0x00000000 x19=0x00000000
       60485000	      6047	80006108	00276c63	bltu	x14,x2,80006120	 x14:0x00010000  x2:0x80008eb8
       60495000	      6048	00000000	00000013	addi	x0,x0,0	  x0:0x00000000
       60505000	      6049	8000611c	00000013	addi	x0,x0,0	  x0:0x00000000
       60515000	      6050	80006120	052a6063	bltu	x20,x18,80006160	 x20:0xfffffbd3 x18:0x475a92a9
       60525000	      6051	80006124	01e79993	slli	x19,x15,0x1e	 x15:0x00000000 x19=0x00000000
       60535000	      6052	80006128	01676133	or	x2,x14,x22	 x14:0x00010000 x22:0x0a000000  x2=0x0a010000
       60545000	      6053	8000612c	7d037513	andi	x10,x6,2000	  x6:0x00000000 x10=0x00000000
       60555000	      6054	80006130	00da94b3	sll	x9,x21,x13	 x21:0x00000000 x13:0x00000000  x9=0x00000000
       60565000	      6055	80006134	41f55ab3	sra	x21,x10,x31	 x10:0x00000000 x31:0x31100000 x21=0x00000000
       60575000	      6056	80006138	73206793	ori	x15,x0,1842	  x0:0x00000000 x15=0x00000732
       60585000	      6057	8000613c	02231463	bne	x6,x2,80006164	  x6:0x00000000  x2:0x0a010000
       60595000	      6058	00000000	00000013	addi	x0,x0,0	  x0:0x00000000
       60605000	      6059	80006160	00000013	addi	x0,x0,0	  x0:0x00000000
       60615000	      6060	80006164	00d39b13	slli	x22,x7,0xd	  x7:0x80009f28 x22=0x13e50000
       60625000	      6061	80006168	04a25463	bge	x4,x10,800061b0	  x4:0x00000001 x10:0x00000000
       60635000	      6062	00000000	00000013	addi	x0,x0,0	  x0:0x00000000
       60645000	      6063	800061ac	00000013	addi	x0,x0,0	  x0:0x00000000
       60655000	      6064	800061b0	03e08263	beq	x1,x30,800061d4	  x1:0x00000000 x30:0x00000501
       60665000	      6065	800061b4	4113da13	srai	x20,x7,0x11	  x7:0x80009f28 x20=0xffffc000
       60675000	      6066	800061b8	40fd0133	sub	x2,x26,x15	 x26:0x00000000 x15:0x00000732  x2=0xfffff8ce
       60685000	      6067	800061bc	014e37b3	sltu	x15,x28,x20	 x28:0x80009fc4 x20:0xffffc000 x15=0x00000001
       60695000	      6068	800061c0	f3732e93	slti	x29,x6,-201	  x6:0x00000000 x29=0x00000000
       60705000	      6069	800061c4	c1b0fe93	andi	x29,x1,-997	  x1:0x00000000 x29=0x00000000
       60715000	      6070	800061c8	00525263	bge	x4,x5,800061cc	  x4:0x00000001  x5:0x00000000
       60725000	      6071	00000000	00000013	addi	x0,x0,0	  x0:0x00000000
       60735000	      6072	800061c8	00000013	addi	x0,x0,0	  x0:0x00000000
       60745000	      6073	800061cc	00c54663	blt	x10,x12,800061d8	 x10:0x00000000 x12:0x0b499794
       60755000	      6074	00000000	00000013	addi	x0,x0,0	  x0:0x00000000
       60765000	      6075	800061d4	00000013	addi	x0,x0,0	  x0:0x00000000
       60775000	      6076	800061d8	3be30c17	auipc	x24,0x3be30	 x24=0xbbe361d4
       60785000	      6077	800061dc	03d48263	beq	x9,x29,80006200	  x9:0x00000000 x29:0x00000000
       60795000	      6078	00000000	00000013	addi	x0,x0,0	  x0:0x00000000
       60805000	      6079	800061fc	00000013	addi	x0,x0,0	  x0:0x00000000
       60815000	      6080	80006200	c1501317	auipc	x6,0xc1501	  x6=0x415071fc
       60825000	      6081	80006204	8d0afdb7	lui	x27,0x8d0af	 x27=0x8d0af000
       60835000	      6082	80006208	9ffde8b7	lui	x17,0x9ffde	 x17=0x9ffde000
       60845000	      6083	8000620c	00089263	bne	x17,x0,80006210	 x17:0x9ffde000  x0:0x00000000
       60855000	      6084	00000000	00000013	addi	x0,x0,0	  x0:0x00000000
       60865000	      6085	8000620c	00000013	addi	x0,x0,0	  x0:0x00000000
       60875000	      6086	80006210	b0163d93	sltiu	x27,x12,-1279	 x12:0x0b499794 x27=0x00000001
       60885000	      6087	80006214	006c79b3	and	x19,x24,x6	 x24:0xbbe361d4  x6:0x415071fc x19=0x014061d4
       60895000	      6088	80006218	7e92a993	slti	x19,x5,2025	  x5:0x00000000 x19=0x00000001
       60905000	      6089	8000621c	03afd263	bge	x31,x26,80006240	 x31:0x31100000 x26:0x00000000
       60915000	      6090	00000000	00000013	addi	x0,x0,0	  x0:0x00000000
       60925000	      6091	8000623c	00000013	addi	x0,x0,0	  x0:0x00000000
       60935000	      6092	80006240	d7a7c793	xori	x15,x15,-646	 x15:0x00000001 x15=0xfffffd7b
       60945000	      6093	80006244	40dc8233	sub	x4,x25,x13	 x25:0x80009afb x13:0x00000000  x4=0x80009afb
       60955000	      6094	80006248	4197d533	sra	x10,x15,x25	 x15:0xfffffd7b x25:0x80009afb x10=0xffffffff
       60965000	      6095	8000624c	017e6f33	or	x30,x28,x23	 x28:0x80009fc4 x23:0x00000fff x30=0x80009fff
       60975000	      6096	80006250	008b37b3	sltu	x15,x22,x8	 x22:0x13e50000  x8:0x8000924c x15=0x00000001
       60985000	      6097	80006254	01bfbdb3	sltu	x27,x31,x27	 x31:0x31100000 x27:0x00000001 x27=0x00000000
       60995000	      6098	80006258	00a85eb3	srl	x29,x16,x10	 x16:0xfffffbd3 x10:0xffffffff x29=0x00000001
       61005000	      6099	8000625c	00d3de63	bge	x7,x13,80006278	  x7:0x80009f28 x13:0x00000000
       61015000	      6100	80006260	01041893	slli	x17,x8,0x10	  x8:0x8000924c x17=0x924c0000
       61025000	      6101	80006264	003a9313	slli	x6,x21,0x3	 x21:0x00000000  x6=0x00000000
       61035000	      6102	80006268	05a8f863	bgeu	x17,x26,800062b8	 x17:0x924c0000 x26:0x00000000
       61045000	      6103	00000000	00000013	addi	x0,x0,0	  x0:0x00000000
       61055000	      6104	800062b4	00000013	addi	x0,x0,0	  x0:0x00000000
       61065000	      6105	800062b8	8a742493	slti	x9,x8,-1881	  x8:0x8000924c  x9=0x00000001
       61075000	      6106	800062bc	0291da63	bge	x3,x9,800062f0	  x3:0x00000000  x9:0x00000001
       61085000	      6107	800062c0	41250433	sub	x8,x10,x18	 x10:0xffffffff x18:0x475a92a9  x8=0xb8a56d56
       61095000	      6108	800062c4	00f5d7b3	srl	x15,x11,x15	 x11:0xf4b6686d x15:0x00000001 x15=0x7a5b3436
       61105000	      6109	800062c8	013b0a63	beq	x22,x19,800062dc	 x22:0x13e50000 x19:0x00000001
       61115000	      6110	800062cc	002f9b93	slli	x23,x31,0x2	 x31:0x31100000 x23=0xc4400000
       61125000	      6111	800062d0	40d45b33	sra	x22,x8,x13	  x8:0xb8a56d56 x13:0x00000000 x22=0xb8a56d56
       61135000	      6112	800062d4	187cd2b7	lui	x5,0x187cd	  x5=0x187cd000
       61145000	      6113	800062d8	eb4f0b93	addi	x23,x30,-332	 x30:0x80009fff x23=0x80009eb3
       61155000	      6114	800062dc	013eec63	bltu	x29,x19,800062f4	 x29:0x00000001 x19:0x00000001
       61165000	      6115	800062e0	0122f333	and	x6,x5,x18	  x5:0x187cd000 x18:0x475a92a9  x6=0x00589000
       61175000	      6116	800062e4	00000013	addi	x0,x0,0	  x0:0x00000000
       61185000	      6117	800062e8	9d5e3493	sltiu	x9,x28,-1579	 x28:0x80009fc4  x9=0x00000001
       61195000	      6118	800062ec	017094b3	sll	x9,x1,x23	  x1:0x00000000 x23:0x80009eb3  x9=0x00000000
       61205000	      6119	800062f0	40ca5693	srai	x13,x20,0xc	 x20:0xffffc000 x13=0xfffffffc
       61215000	      6120	800062f4	23986237	lui	x4,0x23986	  x4=0x23986000
       61225000	      6121	800062f8	00845b13	srli	x22,x8,0x8	  x8:0xb8a56d56 x22=0x00b8a56d
       61235000	      6122	800062fc	05e19863	bne	x3,x30,8000634c	  x3:0x00000000 x30:0x80009fff
       61245000	      6123	00000000	00000013	addi	x0,x0,0	  x0:0x00000000
       61255000	      6124	80006348	00000013	addi	x0,x0,0	  x0:0x00000000
       61265000	      6125	8000634c	4b4b6713	ori	x14,x22,1204	 x22:0x00b8a56d x14=0x00b8a5fd
       61275000	      6126	80006350	01138c63	beq	x7,x17,80006368	  x7:0x80009f28 x17:0x924c0000
       61285000	      6127	80006354	0194dd33	srl	x26,x9,x25	  x9:0x00000000 x25:0x80009afb x26=0x00000000
       61295000	      6128	80006358	2fcf2f13	slti	x30,x30,764	 x30:0x80009fff x30=0x00000001
       61305000	      6129	8000635c	41efd8b3	sra	x17,x31,x30	 x31:0x31100000 x30:0x00000001 x17=0x18880000
       61315000	      6130	80006360	404d51b3	sra	x3,x26,x4	 x26:0x00000000  x4:0x23986000  x3=0x00000000
       61325000	      6131	80006364	00efda13	srli	x20,x31,0xe	 x31:0x31100000 x20=0x0000c440
       61335000	      6132	80006368	01b92233	slt	x4,x18,x27	 x18:0x475a92a9 x27:0x00000000  x4=0x00000000
       61345000	      6133	8000636c	01e19263	bne	x3,x30,80006370	  x3:0x00000000 x30:0x00000001
       61355000	      6134	00000000	00000013	addi	x0,x0,0	  x0:0x00000000
       61365000	      6135	8000636c	00000013	addi	x0,x0,0	  x0:0x00000000
       61375000	      6136	80006370	00409f33	sll	x30,x1,x4	  x1:0x00000000  x4:0x00000000 x30=0x00000000
       61385000	      6137	80006374	5dd9bb13	sltiu	x22,x19,1501	 x19:0x00000001 x22=0x00000001
       61395000	      6138	80006378	019148b3	xor	x17,x2,x25	  x2:0xfffff8ce x25:0x80009afb x17=0x7fff6235
       61405000	      6139	8000637c	00b1e833	or	x16,x3,x11	  x3:0x00000000 x11:0xf4b6686d x16=0xf4b6686d
       61415000	      6140	80006380	031f4863	blt	x30,x17,800063b0	 x30:0x00000000 x17:0x7fff6235
       61425000	      6141	00000000	00000013	addi	x0,x0,0	  x0:0x00000000
       61435000	      6142	800063ac	00000013	addi	x0,x0,0	  x0:0x00000000
       61445000	      6143	800063b0	1e674d93	xori	x27,x14,486	 x14:0x00b8a5fd x27=0x00b8a41b
       61455000	      6144	800063b4	a1e07217	auipc	x4,0xa1e07	  x4=0x21e0d3b0
       61465000	      6145	800063b8	003e4333	xor	x6,x28,x3	 x28:0x80009fc4  x3:0x00000000  x6=0x80009fc4
       61475000	      6146	800063bc	07b06293	ori	x5,x0,123	  x0:0x00000000  x5=0x0000007b
       61485000	      6147	800063c0	4029d2b3	sra	x5,x19,x2	 x19:0x00000001  x2:0xfffff8ce  x5=0x00000000
       61495000	      6148	800063c4	41635d93	srai	x27,x6,0x16	  x6:0x80009fc4 x27=0xfffffe00
       61505000	      6149	800063c8	41c1d713	srai	x14,x3,0x1c	  x3:0x00000000 x14=0x00000000
       61515000	      6150	800063cc	05206063	bltu	x0,x18,8000640c	  x0:0x00000000 x18:0x475a92a9
       61525000	      6151	00000000	00000013	addi	x0,x0,0	  x0:0x00000000
       61535000	      6152	80006408	00000013	addi	x0,x0,0	  x0:0x00000000
       61545000	      6153	8000640c	009ef8b3	and	x17,x29,x9	 x29:0x00000001  x9:0x00000000 x17=0x00000000
       61555000	      6154	80006410	01327b33	and	x22,x4,x19	  x4:0x21e0d3b0 x19:0x00000001 x22=0x00000000
       61565000	      6155	80006414	01345313	srli	x6,x8,0x13	  x8:0xb8a56d56  x6=0x00001714
       61575000	      6156	80006418	00000013	addi	x0,x0,0	  x0:0x00000000
       61585000	      6157	8000641c	7e563a93	sltiu	x21,x12,2021	 x12:0x0b499794 x21=0x00000000
       61595000	      6158	80006420	441e8513	addi	x10,x29,1089	 x29:0x00000001 x10=0x00000442
       61605000	      6159	80006424	f3a996b7	lui	x13,0xf3a99	 x13=0xf3a99000
       61615000	      6160	80006428	01335333	srl	x6,x6,x19	  x6:0x00001714 x19:0x00000001  x6=0x00000b8a
       61625000	      6161	8000642c	00619fb3	sll	x31,x3,x6	  x3:0x00000000  x6:0x00000b8a x31=0x00000000
       61635000	      6162	80006430	035be663	bltu	x23,x21,8000645c	 x23:0x80009eb3 x21:0x00000000
       61645000	      6163	80006434	00b4dd33	srl	x26,x9,x11	  x9:0x00000000 x11:0xf4b6686d x26=0x00000000
       61655000	      6164	80006438	01b4e733	or	x14,x9,x27	  x9:0x00000000 x27:0xfffffe00 x14=0xfffffe00
       61665000	      6165	8000643c	00000013	addi	x0,x0,0	  x0:0x00000000
       61675000	      6166	80006440	01a171b3	and	x3,x2,x26	  x2:0xfffff8ce x26:0x00000000  x3=0x00000000
       61685000	      6167	80006444	03f0d463	bge	x1,x31,8000646c	  x1:0x00000000 x31:0x00000000
       61695000	      6168	00000000	00000013	addi	x0,x0,0	  x0:0x00000000
       61705000	      6169	80006468	00000013	addi	x0,x0,0	  x0:0x00000000
       61715000	      6170	8000646c	ed88b893	sltiu	x17,x17,-296	 x17:0x00000000 x17=0x00000001
       61725000	      6171	80006470	03b87663	bgeu	x16,x27,8000649c	 x16:0xf4b6686d x27:0xfffffe00
       61735000	      6172	80006474	c5eb2193	slti	x3,x22,-930	 x22:0x00000000  x3=0x00000000
       61745000	      6173	80006478	4093d813	srai	x16,x7,0x9	  x7:0x80009f28 x16=0xffc0004f
       61755000	      6174	8000647c	41615833	sra	x16,x2,x22	  x2:0xfffff8ce x22:0x00000000 x16=0xfffff8ce
       61765000	      6175	80006480	c35d7693	andi	x13,x26,-971	 x26:0x00000000 x13=0x00000000
       61775000	      6176	80006484	00ee0333	add	x6,x28,x14	 x28:0x80009fc4 x14:0xfffffe00  x6=0x80009dc4
       61785000	      6177	80006488	00000013	addi	x0,x0,0	  x0:0x00000000
       61795000	      6178	8000648c	019d1c63	bne	x26,x25,800064a4	 x26:0x00000000 x25:0x80009afb
       61805000	      6179	00000000	00000013	addi	x0,x0,0	  x0:0x00000000
       61815000	      6180	800064a0	00000013	addi	x0,x0,0	  x0:0x00000000
       61825000	      6181	800064a4	cbfa0793	addi	x15,x20,-833	 x20:0x0000c440 x15=0x0000c0ff
       61835000	      6182	800064a8	2df72d93	slti	x27,x14,735	 x14:0xfffffe00 x27=0x00000001
       61845000	      6183	800064ac	377cff93	andi	x31,x25,887	 x25:0x80009afb x31=0x00000273
       61855000	      6184	800064b0	a2a83093	sltiu	x1,x16,-1494	 x16:0xfffff8ce  x1=0x00000001
       61865000	      6185	800064b4	0087ca63	blt	x15,x8,800064c8	 x15:0x0000c0ff  x8:0xb8a56d56
       61875000	      6186	800064b8	011c1d33	sll	x26,x24,x17	 x24:0xbbe361d4 x17:0x00000001 x26=0x77c6c3a8
       61885000	      6187	800064bc	405adc13	srai	x24,x21,0x5	 x21:0x00000000 x24=0x00000000
       61895000	      6188	800064c0	01043eb3	sltu	x29,x8,x16	  x8:0xb8a56d56 x16:0xfffff8ce x29=0x00000001
       61905000	      6189	800064c4	0161b433	sltu	x8,x3,x22	  x3:0x00000000 x22:0x00000000  x8=0x00000000
       61915000	      6190	800064c8	016ff8b3	and	x17,x31,x22	 x31:0x00000273 x22:0x00000000 x17=0x00000000
       61925000	      6191	800064cc	0105d663	bge	x11,x16,800064d8	 x11:0xf4b6686d x16:0xfffff8ce
       61935000	      6192	800064d0	03c29a63	bne	x5,x28,80006504	  x5:0x00000000 x28:0x80009fc4
       61945000	      6193	00000000	00000013	addi	x0,x0,0	  x0:0x00000000
       61955000	      6194	80006500	00000013	addi	x0,x0,0	  x0:0x00000000
       61965000	      6195	80006504	5fe47513	andi	x10,x8,1534	  x8:0x00000000 x10=0x00000000
       61975000	      6196	80006508	00000013	addi	x0,x0,0	  x0:0x00000000
       61985000	      6197	8000650c	0303d263	bge	x7,x16,80006530	  x7:0x80009f28 x16:0xfffff8ce
       61995000	      6198	80006510	00793a33	sltu	x20,x18,x7	 x18:0x475a92a9  x7:0x80009f28 x20=0x00000001
       62005000	      6199	80006514	759a8793	addi	x15,x21,1881	 x21:0x00000000 x15=0x00000759
       62015000	      6200	80006518	dcfa3b17	auipc	x22,0xdcfa3	 x22=0x5cfa9514
       62025000	      6201	8000651c	8a8c6c13	ori	x24,x24,-1880	 x24:0x00000000 x24=0xfffff8a8
       62035000	      6202	80006520	00000013	addi	x0,x0,0	  x0:0x00000000
       62045000	      6203	80006524	40e5deb3	sra	x29,x11,x14	 x11:0xf4b6686d x14:0xfffffe00 x29=0xf4b6686d
       62055000	      6204	80006528	03f47063	bgeu	x8,x31,80006548	  x8:0x00000000 x31:0x00000273
       62065000	      6205	8000652c	0303f063	bgeu	x7,x16,8000654c	  x7:0x80009f28 x16:0xfffff8ce
       62075000	      6206	80006530	da2ec893	xori	x17,x29,-606	 x29:0xf4b6686d x17=0x0b4995cf
       62085000	      6207	80006534	01623db3	sltu	x27,x4,x22	  x4:0x21e0d3b0 x22:0x5cfa9514 x27=0x00000001
       62095000	      6208	80006538	40438f33	sub	x30,x7,x4	  x7:0x80009f28  x4:0x21e0d3b0 x30=0x5e1fcb78
       62105000	      6209	8000653c	05f67263	bgeu	x12,x31,80006580	 x12:0x0b499794 x31:0x00000273
       62115000	      6210	00000000	00000013	addi	x0,x0,0	  x0:0x00000000
       62125000	      6211	8000657c	00000013	addi	x0,x0,0	  x0:0x00000000
       62135000	      6212	80006580	856ec893	xori	x17,x29,-1962	 x29:0xf4b6686d x17=0x0b49903b
       62145000	      6213	80006584	411707b3	sub	x15,x14,x17	 x14:0xfffffe00 x17:0x0b49903b x15=0xf4b66dc5
       62155000	      6214	80006588	00814c63	blt	x2,x8,800065a0	  x2:0xfffff8ce  x8:0x00000000
       62165000	      6215	00000000	00000013	addi	x0,x0,0	  x0:0x00000000
       62175000	      6216	8000659c	00000013	addi	x0,x0,0	  x0:0x00000000
       62185000	      6217	800065a0	01eacf93	xori	x31,x21,30	 x21:0x00000000 x31=0x0000001e
       62195000	      6218	800065a4	0036f733	and	x14,x13,x3	 x13:0x00000000  x3:0x00000000 x14=0x00000000
       62205000	      6219	800065a8	4f323437	lui	x8,0x4f323	  x8=0x4f323000
       62215000	      6220	800065ac	01ea5993	srli	x19,x20,0x1e	 x20:0x00000001 x19=0x00000000
       62225000	      6221	800065b0	01bd0a63	beq	x26,x27,800065c4	 x26:0x77c6c3a8 x27:0x00000001
       62235000	      6222	800065b4	412bd133	sra	x2,x23,x18	 x23:0x80009eb3 x18:0x475a92a9  x2=0xffc0004f
       62245000	      6223	800065b8	004c1213	slli	x4,x24,0x4	 x24:0xfffff8a8  x4=0xffff8a80
       62255000	      6224	800065bc	00519b93	slli	x23,x3,0x5	  x3:0x00000000 x23=0x00000000
       62265000	      6225	800065c0	3bf277b7	lui	x15,0x3bf27	 x15=0x3bf27000
       62275000	      6226	800065c4	00000013	addi	x0,x0,0	  x0:0x00000000
       62285000	      6227	800065c8	00000013	addi	x0,x0,0	  x0:0x00000000
       62295000	      6228	800065cc	055ae063	bltu	x21,x21,8000660c	 x21:0x00000000 x21:0x00000000
       62305000	      6229	800065d0	7a402413	slti	x8,x0,1956	  x0:0x00000000  x8=0x00000001
       62315000	      6230	800065d4	36746f93	ori	x31,x8,871	  x8:0x00000001 x31=0x00000367
       62325000	      6231	800065d8	00e36833	or	x16,x6,x14	  x6:0x80009dc4 x14:0x00000000 x16=0x80009dc4
       62335000	      6232	800065dc	01cbc6b3	xor	x13,x23,x28	 x23:0x00000000 x28:0x80009fc4 x13=0x80009fc4
       62345000	      6233	800065e0	01889f93	slli	x31,x17,0x18	 x17:0x0b49903b x31=0x3b000000
       62355000	      6234	800065e4	282b2d17	auipc	x26,0x282b2	 x26=0xa82b85e0
       62365000	      6235	800065e8	0142aa33	slt	x20,x5,x20	  x5:0x00000000 x20:0x00000001 x20=0x00000001
       62375000	      6236	800065ec	01a79b33	sll	x22,x15,x26	 x15:0x3bf27000 x26:0xa82b85e0 x22=0x3bf27000
       62385000	      6237	800065f0	00d7e1b3	or	x3,x15,x13	 x15:0x3bf27000 x13:0x80009fc4  x3=0xbbf2ffc4
       62395000	      6238	800065f4	018fe263	bltu	x31,x24,800065f8	 x31:0x3b000000 x24:0xfffff8a8
       62405000	      6239	00000000	00000013	addi	x0,x0,0	  x0:0x00000000
       62415000	      6240	800065f4	00000013	addi	x0,x0,0	  x0:0x00000000
       62425000	      6241	800065f8	00000013	addi	x0,x0,0	  x0:0x00000000
       62435000	      6242	800065fc	412bdbb3	sra	x23,x23,x18	 x23:0x00000000 x18:0x475a92a9 x23=0x00000000
       62445000	      6243	80006600	018c0cb3	add	x25,x24,x24	 x24:0xfffff8a8 x24:0xfffff8a8 x25=0xfffff150
       62455000	      6244	80006604	016465b3	or	x11,x8,x22	  x8:0x00000001 x22:0x3bf27000 x11=0x3bf27001
       62465000	      6245	80006608	a4230413	addi	x8,x6,-1470	  x6:0x80009dc4  x8=0x80009806
       62475000	      6246	8000660c	409ade93	srai	x29,x21,0x9	 x21:0x00000000 x29=0x00000000
       62485000	      6247	80006610	726fb413	sltiu	x8,x31,1830	 x31:0x3b000000  x8=0x00000000
       62495000	      6248	80006614	00aad213	srli	x4,x21,0xa	 x21:0x00000000  x4=0x00000000
       62505000	      6249	80006618	f7a4e193	ori	x3,x9,-134	  x9:0x00000000  x3=0xffffff7a
       62515000	      6250	8000661c	00000013	addi	x0,x0,0	  x0:0x00000000
       62525000	      6251	80006620	3dbab193	sltiu	x3,x21,987	 x21:0x00000000  x3=0x00000001
       62535000	      6252	80006624	044fe663	bltu	x31,x4,80006670	 x31:0x3b000000  x4:0x00000000
       62545000	      6253	80006628	05178863	beq	x15,x17,80006678	 x15:0x3bf27000 x17:0x0b49903b
       62555000	      6254	8000662c	6c848a13	addi	x20,x9,1736	  x9:0x00000000 x20=0x000006c8
       62565000	      6255	80006630	40075693	srai	x13,x14,0x0	 x14:0x00000000 x13=0x00000000
       62575000	      6256	80006634	9a040897	auipc	x17,0x9a040	 x17=0x1a046630
       62585000	      6257	80006638	00c99db3	sll	x27,x19,x12	 x19:0x00000000 x12:0x0b499794 x27=0x00000000
       62595000	      6258	8000663c	4050d1b3	sra	x3,x1,x5	  x1:0x00000001  x5:0x00000000  x3=0x00000001
       62605000	      6259	80006640	00dff533	and	x10,x31,x13	 x31:0x3b000000 x13:0x00000000 x10=0x00000000
       62615000	      6260	80006644	01bf5c63	bge	x30,x27,8000665c	 x30:0x5e1fcb78 x27:0x00000000
       62625000	      6261	00000000	00000013	addi	x0,x0,0	  x0:0x00000000
       62635000	      6262	80006658	00000013	addi	x0,x0,0	  x0:0x00000000
       62645000	      6263	8000665c	02b75263	bge	x14,x11,80006680	 x14:0x00000000 x11:0x3bf27001
       62655000	      6264	80006660	5f44a313	slti	x6,x9,1524	  x9:0x00000000  x6=0x00000001
       62665000	      6265	80006664	40d2d633	sra	x12,x5,x13	  x5:0x00000000 x13:0x00000000 x12=0x00000000
       62675000	      6266	80006668	b4132197	auipc	x3,0xb4132	  x3=0x34138664
       62685000	      6267	8000666c	00423c33	sltu	x24,x4,x4	  x4:0x00000000  x4:0x00000000 x24=0x00000000
       62695000	      6268	80006670	01039513	slli	x10,x7,0x10	  x7:0x80009f28 x10=0x9f280000
       62705000	      6269	80006674	070fe593	ori	x11,x31,112	 x31:0x3b000000 x11=0x3b000070
       62715000	      6270	80006678	40e65d93	srai	x27,x12,0xe	 x12:0x00000000 x27=0x00000000
       62725000	      6271	8000667c	8e85e493	ori	x9,x11,-1816	 x11:0x3b000070  x9=0xfffff8f8
       62735000	      6272	80006680	006edeb3	srl	x29,x29,x6	 x29:0x00000000  x6:0x00000001 x29=0x00000000
       62745000	      6273	80006684	a302a713	slti	x14,x5,-1488	  x5:0x00000000 x14=0x00000000
       62755000	      6274	80006688	79c5a417	auipc	x8,0x79c5a	  x8=0xf9c60684
       62765000	      6275	8000668c	00af8c33	add	x24,x31,x10	 x31:0x3b000000 x10:0x9f280000 x24=0xda280000
       62775000	      6276	80006690	39657693	andi	x13,x10,918	 x10:0x9f280000 x13=0x00000000
       62785000	      6277	80006694	0191ca63	blt	x3,x25,800066a8	  x3:0x34138664 x25:0xfffff150
       62795000	      6278	80006698	b95dcd93	xori	x27,x27,-1131	 x27:0x00000000 x27=0xfffffb95
       62805000	      6279	8000669c	70a5a493	slti	x9,x11,1802	 x11:0x3b000070  x9=0x00000000
       62815000	      6280	800066a0	cd2afb93	andi	x23,x21,-814	 x21:0x00000000 x23=0x00000000
       62825000	      6281	800066a4	00ee5f33	srl	x30,x28,x14	 x28:0x80009fc4 x14:0x00000000 x30=0x80009fc4
       62835000	      6282	800066a8	01471663	bne	x14,x20,800066b4	 x14:0x00000000 x20:0x000006c8
       62845000	      6283	00000000	00000013	addi	x0,x0,0	  x0:0x00000000
       62855000	      6284	800066b0	00000013	addi	x0,x0,0	  x0:0x00000000
       62865000	      6285	800066b4	019ebfb3	sltu	x31,x29,x25	 x29:0x00000000 x25:0xfffff150 x31=0x00000001
       62875000	      6286	800066b8	058f4863	blt	x30,x24,80006708	 x30:0x80009fc4 x24:0xda280000
       62885000	      6287	00000000	00000013	addi	x0,x0,0	  x0:0x00000000
       62895000	      6288	80006704	00000013	addi	x0,x0,0	  x0:0x00000000
       62905000	      6289	80006708	003a5a13	srli	x20,x20,0x3	 x20:0x000006c8 x20=0x000000d9
       62915000	      6290	8000670c	008c6c63	bltu	x24,x8,80006724	 x24:0xda280000  x8:0xf9c60684
       62925000	      6291	00000000	00000013	addi	x0,x0,0	  x0:0x00000000
       62935000	      6292	80006720	00000013	addi	x0,x0,0	  x0:0x00000000
       62945000	      6293	80006724	0110b7b3	sltu	x15,x1,x17	  x1:0x00000001 x17:0x1a046630 x15=0x00000001
       62955000	      6294	80006728	996ec513	xori	x10,x29,-1642	 x29:0x00000000 x10=0xfffff996
       62965000	      6295	8000672c	0043a183	lw	x3,4(x7)	  x7:0x80009f28  x3=0x800069b4 PA:0x80009f2c
       62975000	      6296	80006730	4077db93	srai	x23,x15,0x7	 x15:0x00000001 x23=0x00000000
       62985000	      6297	80006734	00c61493	slli	x9,x12,0xc	 x12:0x00000000  x9=0x00000000
       62995000	      6298	80006738	03038393	addi	x7,x7,48	  x7:0x80009f28  x7=0x80009f58
       63005000	      6299	8000673c	41b35f33	sra	x30,x6,x27	  x6:0x00000001 x27:0xfffffb95 x30=0x00000000
       63015000	      6300	80006740	00118493	addi	x9,x3,1	  x3:0x800069b4  x9=0x800069b5
       63025000	      6301	80006744	000484e7	jalr	x9,x9,0	  x9:0x800069b5  x9=0x80006744
       63035000	      6302	00000000	00000013	addi	x0,x0,0	  x0:0x00000000
       63045000	      6303	800069b4	00000013	addi	x0,x0,0	  x0:0x00000000
       63055000	      6304	800069b8	3be5dab7	lui	x21,0x3be5d	 x21=0x3be5d000
       63065000	      6305	800069bc	8cca0197	auipc	x3,0x8cca0	  x3=0x0cca69b8
       63075000	      6306	800069c0	01c5adb3	slt	x27,x11,x28	 x11:0x3b000070 x28:0x80009fc4 x27=0x00000000
       63085000	      6307	800069c4	b26dc897	auipc	x17,0xb26dc	 x17=0x326e29c0
       63095000	      6308	800069c8	01a5e463	bltu	x11,x26,800069d0	 x11:0x3b000070 x26:0xa82b85e0
       63105000	      6309	00000000	00000013	addi	x0,x0,0	  x0:0x00000000
       63115000	      6310	800069cc	00000013	addi	x0,x0,0	  x0:0x00000000
       63125000	      6311	800069d0	d79ff1ef	jal	x3,800069d0	  x3=0x800069d0
       63135000	      6312	00000000	00000013	addi	x0,x0,0	  x0:0x00000000
       63145000	      6313	80006744	00000013	addi	x0,x0,0	  x0:0x00000000
       63155000	      6314	80006748	01c75863	bge	x14,x28,80006758	 x14:0x00000000 x28:0x80009fc4
       63165000	      6315	00000000	00000013	addi	x0,x0,0	  x0:0x00000000
       63175000	      6316	80006754	00000013	addi	x0,x0,0	  x0:0x00000000
       63185000	      6317	80006758	ff038393	addi	x7,x7,-16	  x7:0x80009f58  x7=0x80009f48
       63195000	      6318	8000675c	00cfa733	slt	x14,x31,x12	 x31:0x00000001 x12:0x00000000 x14=0x00000000
       63205000	      6319	80006760	0033a223	sw	x3,4(x7)	  x7:0x80009f48  x3:0x800069d0 PA:0x80009f4c
       63215000	      6320	80006764	dad50b93	addi	x23,x10,-595	 x10:0xfffff996 x23=0xfffff743
       63225000	      6321	80006768	0101d293	srli	x5,x3,0x10	  x3:0x800069d0  x5=0x00008000
       63235000	      6322	8000676c	00393cb3	sltu	x25,x18,x3	 x18:0x475a92a9  x3:0x800069d0 x25=0x00000001
       63245000	      6323	80006770	eb8b6d93	ori	x27,x22,-328	 x22:0x3bf27000 x27=0xfffffeb8
       63255000	      6324	80006774	0206d463	bge	x13,x0,8000679c	 x13:0x00000000  x0:0x00000000
       63265000	      6325	00000000	00000013	addi	x0,x0,0	  x0:0x00000000
       63275000	      6326	80006798	00000013	addi	x0,x0,0	  x0:0x00000000
       63285000	      6327	8000679c	00e5d293	srli	x5,x11,0xe	 x11:0x3b000070  x5=0x0000ec00
       63295000	      6328	800067a0	00c28263	beq	x5,x12,800067a4	  x5:0x0000ec00 x12:0x00000000
       63305000	      6329	800067a4	40185a93	srai	x21,x16,0x1	 x16:0x80009dc4 x21=0xc0004ee2
       63315000	      6330	800067a8	d14d7713	andi	x14,x26,-748	 x26:0xa82b85e0 x14=0xa82b8500
       63325000	      6331	800067ac	03b35463	bge	x6,x27,800067d4	  x6:0x00000001 x27:0xfffffeb8
       63335000	      6332	00000000	00000013	addi	x0,x0,0	  x0:0x00000000
       63345000	      6333	800067d0	00000013	addi	x0,x0,0	  x0:0x00000000
       63355000	      6334	800067d4	02509a63	bne	x1,x5,80006808	  x1:0x00000001  x5:0x0000ec00
       63365000	      6335	00000000	00000013	addi	x0,x0,0	  x0:0x00000000
       63375000	      6336	80006804	00000013	addi	x0,x0,0	  x0:0x00000000
       63385000	      6337	80006808	767bcd13	xori	x26,x23,1895	 x23:0xfffff743 x26=0xfffff024
       63395000	      6338	8000680c	c7ac8837	lui	x16,0xc7ac8	 x16=0xc7ac8000
       63405000	      6339	80006810	0175d533	srl	x10,x11,x23	 x11:0x3b000070 x23:0xfffff743 x10=0x0760000e
       63415000	      6340	80006814	00000013	addi	x0,x0,0	  x0:0x00000000
       63425000	      6341	80006818	40515093	srai	x1,x2,0x5	  x2:0xffc0004f  x1=0xfffe0002
       63435000	      6342	8000681c	00201733	sll	x14,x0,x2	  x0:0x00000000  x2:0xffc0004f x14=0x00000000
       63445000	      6343	80006820	052b5063	bge	x22,x18,80006860	 x22:0x3bf27000 x18:0x475a92a9
       63455000	      6344	80006824	005f3b33	sltu	x22,x30,x5	 x30:0x00000000  x5:0x0000ec00 x22=0x00000001
       63465000	      6345	80006828	b6daaa17	auipc	x20,0xb6daa	 x20=0x36db0824
       63475000	      6346	8000682c	f78fc093	xori	x1,x31,-136	 x31:0x00000001  x1=0xffffff79
       63485000	      6347	80006830	0000dc33	srl	x24,x1,x0	  x1:0xffffff79  x0:0x00000000 x24=0xffffff79
       63495000	      6348	80006834	01f04f33	xor	x30,x0,x31	  x0:0x00000000 x31:0x00000001 x30=0x00000001
       63505000	      6349	80006838	769a6993	ori	x19,x20,1897	 x20:0x36db0824 x19=0x36db0f6d
       63515000	      6350	8000683c	405558b3	sra	x17,x10,x5	 x10:0x0760000e  x5:0x0000ec00 x17=0x0760000e
       63525000	      6351	80006840	c9ceb613	sltiu	x12,x29,-868	 x29:0x00000000 x12=0x00000001
       63535000	      6352	80006844	018852b3	srl	x5,x16,x24	 x16:0xc7ac8000 x24:0xffffff79  x5=0x00000063
       63545000	      6353	80006848	01335263	bge	x6,x19,8000684c	  x6:0x00000001 x19:0x36db0f6d
       63555000	      6354	8000684c	00100633	add	x12,x0,x1	  x0:0x00000000  x1:0xffffff79 x12=0xffffff79
       63565000	      6355	80006850	01a78d33	add	x26,x15,x26	 x15:0x00000001 x26:0xfffff024 x26=0xfffff025
       63575000	      6356	80006854	7a9ded17	auipc	x26,0x7a9de	 x26=0xfa9e4850
       63585000	      6357	80006858	01425ab3	srl	x21,x4,x20	  x4:0x00000000 x20:0x36db0824 x21=0x00000000
       63595000	      6358	8000685c	41b9d5b3	sra	x11,x19,x27	 x19:0x36db0f6d x27:0xfffffeb8 x11=0x00000036
       63605000	      6359	80006860	41b4d193	srai	x3,x9,0x1b	  x9:0x80006744  x3=0xfffffff0
       63615000	      6360	80006864	04665463	bge	x12,x6,800068ac	 x12:0xffffff79  x6:0x00000001
       63625000	      6361	80006868	41288133	sub	x2,x17,x18	 x17:0x0760000e x18:0x475a92a9  x2=0xc0056d65
       63635000	      6362	8000686c	9cd9b813	sltiu	x16,x19,-1587	 x19:0x36db0f6d x16=0x00000001
       63645000	      6363	80006870	0095feb3	and	x29,x11,x9	 x11:0x00000036  x9:0x80006744 x29=0x00000004
       63655000	      6364	80006874	bb78c1b7	lui	x3,0xbb78c	  x3=0xbb78c000
       63665000	      6365	80006878	0138edb3	or	x27,x17,x19	 x17:0x0760000e x19:0x36db0f6d x27=0x37fb0f6f
       63675000	      6366	8000687c	9f6b7793	andi	x15,x22,-1546	 x22:0x00000001 x15=0x00000000
       63685000	      6367	80006880	00859213	slli	x4,x11,0x8	 x11:0x00000036  x4=0x00003600
       63695000	      6368	80006884	0300c063	blt	x1,x16,800068a4	  x1:0xffffff79 x16:0x00000001
       63705000	      6369	00000000	00000013	addi	x0,x0,0	  x0:0x00000000
       63715000	      6370	800068a0	00000013	addi	x0,x0,0	  x0:0x00000000
       63725000	      6371	800068a4	410ba893	slti	x17,x23,1040	 x23:0xfffff743 x17=0x00000001
       63735000	      6372	800068a8	149e4c13	xori	x24,x28,329	 x28:0x80009fc4 x24=0x80009e8d
       63745000	      6373	800068ac	01163b33	sltu	x22,x12,x17	 x12:0xffffff79 x17:0x00000001 x22=0x00000000
       63755000	      6374	800068b0	013f3713	sltiu	x14,x30,19	 x30:0x00000001 x14=0x00000001
       63765000	      6375	800068b4	0082fbb3	and	x23,x5,x8	  x5:0x00000063  x8:0xf9c60684 x23=0x00000000
       63775000	      6376	800068b8	01bc6833	or	x16,x24,x27	 x24:0x80009e8d x27:0x37fb0f6f x16=0xb7fb9fef
       63785000	      6377	800068bc	03454a63	blt	x10,x20,800068f0	 x10:0x0760000e x20:0x36db0824
       63795000	      6378	00000000	00000013	addi	x0,x0,0	  x0:0x00000000
       63805000	      6379	800068ec	00000013	addi	x0,x0,0	  x0:0x00000000
       63815000	      6380	800068f0	005d7863	bgeu	x26,x5,80006900	 x26:0xfa9e4850  x5:0x00000063
       63825000	      6381	00000000	00000013	addi	x0,x0,0	  x0:0x00000000
       63835000	      6382	800068fc	00000013	addi	x0,x0,0	  x0:0x00000000
       63845000	      6383	80006900	7584fd93	andi	x27,x9,1880	  x9:0x80006744 x27=0x00000740
       63855000	      6384	80006904	041f6263	bltu	x30,x1,80006948	 x30:0x00000001  x1:0xffffff79
       63865000	      6385	00000000	00000013	addi	x0,x0,0	  x0:0x00000000
       63875000	      6386	80006944	00000013	addi	x0,x0,0	  x0:0x00000000
       63885000	      6387	80006948	00f48d33	add	x26,x9,x15	  x9:0x80006744 x15:0x00000000 x26=0x80006744
       63895000	      6388	8000694c	01eb2ab3	slt	x21,x22,x30	 x22:0x00000000 x30:0x00000001 x21=0x00000001
       63905000	      6389	80006950	01b902b3	add	x5,x18,x27	 x18:0x475a92a9 x27:0x00000740  x5=0x475a99e9
       63915000	      6390	80006954	43ea6d97	auipc	x27,0x43ea6	 x27=0xc3eac950
       63925000	      6391	80006958	9fa83513	sltiu	x10,x16,-1542	 x16:0xb7fb9fef x10=0x00000001
       63935000	      6392	8000695c	095a3693	sltiu	x13,x20,149	 x20:0x36db0824 x13=0x00000000
       63945000	      6393	80006960	0043a183	lw	x3,4(x7)	  x7:0x80009f48  x3=0x800069d0 PA:0x80009f4c
       63955000	      6394	80006964	012c6c33	or	x24,x24,x18	 x24:0x80009e8d x18:0x475a92a9 x24=0xc75a9ead
       63965000	      6395	80006968	01038393	addi	x7,x7,16	  x7:0x80009f48  x7=0x80009f58
       63975000	      6396	8000696c	00d9d0b3	srl	x1,x19,x13	 x19:0x36db0f6d x13:0x00000000  x1=0x36db0f6d
       63985000	      6397	80006970	00118193	addi	x3,x3,1	  x3:0x800069d0  x3=0x800069d1
       63995000	      6398	80006974	000181e7	jalr	x3,x3,0	  x3:0x800069d1  x3=0x80006974
       64005000	      6399	00000000	00000013	addi	x0,x0,0	  x0:0x00000000
       64015000	      6400	800069d0	00000013	addi	x0,x0,0	  x0:0x00000000
       64025000	      6401	800069d4	deb95d97	auipc	x27,0xdeb95	 x27=0x5eb9b9d0
       64035000	      6402	800069d8	01ab6b33	or	x22,x22,x26	 x22:0x00000000 x26:0x80006744 x22=0x80006744
       64045000	      6403	800069dc	27da7c17	auipc	x24,0x27da7	 x24=0xa7dad9d8
       64055000	      6404	800069e0	98c2c813	xori	x16,x5,-1652	  x5:0x475a99e9 x16=0xb8a56065
       64065000	      6405	800069e4	00000697	auipc	x13,0x0	 x13=0x800069e0
       64075000	      6406	800069e8	d6468693	addi	x13,x13,-668	 x13:0x800069e0 x13=0x80006744
       64085000	      6407	800069ec	17268693	addi	x13,x13,370	 x13:0x80006744 x13=0x800068b6
       64095000	      6408	800069f0	002d3cb3	sltu	x25,x26,x2	 x26:0x80006744  x2:0xc0056d65 x25=0x00000001
       64105000	      6409	800069f4	e8e681e7	jalr	x3,x13,-370	 x13:0x800068b6  x3=0x800069f4
       64115000	      6410	00000000	00000013	addi	x0,x0,0	  x0:0x00000000
       64125000	      6411	80006744	00000013	addi	x0,x0,0	  x0:0x00000000
       64135000	      6412	80006748	01c75863	bge	x14,x28,80006758	 x14:0x00000001 x28:0x80009fc4
       64145000	      6413	00000000	00000013	addi	x0,x0,0	  x0:0x00000000
       64155000	      6414	80006754	00000013	addi	x0,x0,0	  x0:0x00000000
       64165000	      6415	80006758	ff038393	addi	x7,x7,-16	  x7:0x80009f58  x7=0x80009f48
       64175000	      6416	8000675c	00cfa733	slt	x14,x31,x12	 x31:0x00000001 x12:0xffffff79 x14=0x00000000
       64185000	      6417	80006760	0033a223	sw	x3,4(x7)	  x7:0x80009f48  x3:0x800069f4 PA:0x80009f4c
       64195000	      6418	80006764	dad50b93	addi	x23,x10,-595	 x10:0x00000001 x23=0xfffffdae
       64205000	      6419	80006768	0101d293	srli	x5,x3,0x10	  x3:0x800069f4  x5=0x00008000
       64215000	      6420	8000676c	00393cb3	sltu	x25,x18,x3	 x18:0x475a92a9  x3:0x800069f4 x25=0x00000001
       64225000	      6421	80006770	eb8b6d93	ori	x27,x22,-328	 x22:0x80006744 x27=0xfffffffc
       64235000	      6422	80006774	0206d463	bge	x13,x0,8000679c	 x13:0x800068b6  x0:0x00000000
       64245000	      6423	80006778	03159663	bne	x11,x17,800067a4	 x11:0x00000036 x17:0x00000001
       64255000	      6424	00000000	00000013	addi	x0,x0,0	  x0:0x00000000
       64265000	      6425	800067a0	00000013	addi	x0,x0,0	  x0:0x00000000
       64275000	      6426	800067a4	40185a93	srai	x21,x16,0x1	 x16:0xb8a56065 x21=0xdc52b032
       64285000	      6427	800067a8	d14d7713	andi	x14,x26,-748	 x26:0x80006744 x14=0x80006504
       64295000	      6428	800067ac	03b35463	bge	x6,x27,800067d4	  x6:0x00000001 x27:0xfffffffc
       64305000	      6429	00000000	00000013	addi	x0,x0,0	  x0:0x00000000
       64315000	      6430	800067d0	00000013	addi	x0,x0,0	  x0:0x00000000
       64325000	      6431	800067d4	02509a63	bne	x1,x5,80006808	  x1:0x36db0f6d  x5:0x00008000
       64335000	      6432	00000000	00000013	addi	x0,x0,0	  x0:0x00000000
       64345000	      6433	80006804	00000013	addi	x0,x0,0	  x0:0x00000000
       64355000	      6434	80006808	767bcd13	xori	x26,x23,1895	 x23:0xfffffdae x26=0xfffffac9
       64365000	      6435	8000680c	c7ac8837	lui	x16,0xc7ac8	 x16=0xc7ac8000
       64375000	      6436	80006810	0175d533	srl	x10,x11,x23	 x11:0x00000036 x23:0xfffffdae x10=0x00000000
       64385000	      6437	80006814	00000013	addi	x0,x0,0	  x0:0x00000000
       64395000	      6438	80006818	40515093	srai	x1,x2,0x5	  x2:0xc0056d65  x1=0xfe002b6b
       64405000	      6439	8000681c	00201733	sll	x14,x0,x2	  x0:0x00000000  x2:0xc0056d65 x14=0x00000000
       64415000	      6440	80006820	052b5063	bge	x22,x18,80006860	 x22:0x80006744 x18:0x475a92a9
       64425000	      6441	80006824	005f3b33	sltu	x22,x30,x5	 x30:0x00000001  x5:0x00008000 x22=0x00000001
       64435000	      6442	80006828	b6daaa17	auipc	x20,0xb6daa	 x20=0x36db0824
       64445000	      6443	8000682c	f78fc093	xori	x1,x31,-136	 x31:0x00000001  x1=0xffffff79
       64455000	      6444	80006830	0000dc33	srl	x24,x1,x0	  x1:0xffffff79  x0:0x00000000 x24=0xffffff79
       64465000	      6445	80006834	01f04f33	xor	x30,x0,x31	  x0:0x00000000 x31:0x00000001 x30=0x00000001
       64475000	      6446	80006838	769a6993	ori	x19,x20,1897	 x20:0x36db0824 x19=0x36db0f6d
       64485000	      6447	8000683c	405558b3	sra	x17,x10,x5	 x10:0x00000000  x5:0x00008000 x17=0x00000000
       64495000	      6448	80006840	c9ceb613	sltiu	x12,x29,-868	 x29:0x00000004 x12=0x00000001
       64505000	      6449	80006844	018852b3	srl	x5,x16,x24	 x16:0xc7ac8000 x24:0xffffff79  x5=0x00000063
       64515000	      6450	80006848	01335263	bge	x6,x19,8000684c	  x6:0x00000001 x19:0x36db0f6d
       64525000	      6451	8000684c	00100633	add	x12,x0,x1	  x0:0x00000000  x1:0xffffff79 x12=0xffffff79
       64535000	      6452	80006850	01a78d33	add	x26,x15,x26	 x15:0x00000000 x26:0xfffffac9 x26=0xfffffac9
       64545000	      6453	80006854	7a9ded17	auipc	x26,0x7a9de	 x26=0xfa9e4850
       64555000	      6454	80006858	01425ab3	srl	x21,x4,x20	  x4:0x00003600 x20:0x36db0824 x21=0x00000360
       64565000	      6455	8000685c	41b9d5b3	sra	x11,x19,x27	 x19:0x36db0f6d x27:0xfffffffc x11=0x00000003
       64575000	      6456	80006860	41b4d193	srai	x3,x9,0x1b	  x9:0x80006744  x3=0xfffffff0
       64585000	      6457	80006864	04665463	bge	x12,x6,800068ac	 x12:0xffffff79  x6:0x00000001
       64595000	      6458	80006868	41288133	sub	x2,x17,x18	 x17:0x00000000 x18:0x475a92a9  x2=0xb8a56d57
       64605000	      6459	8000686c	9cd9b813	sltiu	x16,x19,-1587	 x19:0x36db0f6d x16=0x00000001
       64615000	      6460	80006870	0095feb3	and	x29,x11,x9	 x11:0x00000003  x9:0x80006744 x29=0x00000000
       64625000	      6461	80006874	bb78c1b7	lui	x3,0xbb78c	  x3=0xbb78c000
       64635000	      6462	80006878	0138edb3	or	x27,x17,x19	 x17:0x00000000 x19:0x36db0f6d x27=0x36db0f6d
       64645000	      6463	8000687c	9f6b7793	andi	x15,x22,-1546	 x22:0x00000001 x15=0x00000000
       64655000	      6464	80006880	00859213	slli	x4,x11,0x8	 x11:0x00000003  x4=0x00000300
       64665000	      6465	80006884	0300c063	blt	x1,x16,800068a4	  x1:0xffffff79 x16:0x00000001
       64675000	      6466	00000000	00000013	addi	x0,x0,0	  x0:0x00000000
       64685000	      6467	800068a0	00000013	addi	x0,x0,0	  x0:0x00000000
       64695000	      6468	800068a4	410ba893	slti	x17,x23,1040	 x23:0xfffffdae x17=0x00000001
       64705000	      6469	800068a8	149e4c13	xori	x24,x28,329	 x28:0x80009fc4 x24=0x80009e8d
       64715000	      6470	800068ac	01163b33	sltu	x22,x12,x17	 x12:0xffffff79 x17:0x00000001 x22=0x00000000
       64725000	      6471	800068b0	013f3713	sltiu	x14,x30,19	 x30:0x00000001 x14=0x00000001
       64735000	      6472	800068b4	0082fbb3	and	x23,x5,x8	  x5:0x00000063  x8:0xf9c60684 x23=0x00000000
       64745000	      6473	800068b8	01bc6833	or	x16,x24,x27	 x24:0x80009e8d x27:0x36db0f6d x16=0xb6db9fed
       64755000	      6474	800068bc	03454a63	blt	x10,x20,800068f0	 x10:0x00000000 x20:0x36db0824
       64765000	      6475	00000000	00000013	addi	x0,x0,0	  x0:0x00000000
       64775000	      6476	800068ec	00000013	addi	x0,x0,0	  x0:0x00000000
       64785000	      6477	800068f0	005d7863	bgeu	x26,x5,80006900	 x26:0xfa9e4850  x5:0x00000063
       64795000	      6478	00000000	00000013	addi	x0,x0,0	  x0:0x00000000
       64805000	      6479	800068fc	00000013	addi	x0,x0,0	  x0:0x00000000
       64815000	      6480	80006900	7584fd93	andi	x27,x9,1880	  x9:0x80006744 x27=0x00000740
       64825000	      6481	80006904	041f6263	bltu	x30,x1,80006948	 x30:0x00000001  x1:0xffffff79
       64835000	      6482	00000000	00000013	addi	x0,x0,0	  x0:0x00000000
       64845000	      6483	80006944	00000013	addi	x0,x0,0	  x0:0x00000000
       64855000	      6484	80006948	00f48d33	add	x26,x9,x15	  x9:0x80006744 x15:0x00000000 x26=0x80006744
       64865000	      6485	8000694c	01eb2ab3	slt	x21,x22,x30	 x22:0x00000000 x30:0x00000001 x21=0x00000001
       64875000	      6486	80006950	01b902b3	add	x5,x18,x27	 x18:0x475a92a9 x27:0x00000740  x5=0x475a99e9
       64885000	      6487	80006954	43ea6d97	auipc	x27,0x43ea6	 x27=0xc3eac950
       64895000	      6488	80006958	9fa83513	sltiu	x10,x16,-1542	 x16:0xb6db9fed x10=0x00000001
       64905000	      6489	8000695c	095a3693	sltiu	x13,x20,149	 x20:0x36db0824 x13=0x00000000
       64915000	      6490	80006960	0043a183	lw	x3,4(x7)	  x7:0x80009f48  x3=0x800069f4 PA:0x80009f4c
       64925000	      6491	80006964	012c6c33	or	x24,x24,x18	 x24:0x80009e8d x18:0x475a92a9 x24=0xc75a9ead
       64935000	      6492	80006968	01038393	addi	x7,x7,16	  x7:0x80009f48  x7=0x80009f58
       64945000	      6493	8000696c	00d9d0b3	srl	x1,x19,x13	 x19:0x36db0f6d x13:0x00000000  x1=0x36db0f6d
       64955000	      6494	80006970	00118193	addi	x3,x3,1	  x3:0x800069f4  x3=0x800069f5
       64965000	      6495	80006974	000181e7	jalr	x3,x3,0	  x3:0x800069f5  x3=0x80006974
       64975000	      6496	00000000	00000013	addi	x0,x0,0	  x0:0x00000000
       64985000	      6497	800069f4	00000013	addi	x0,x0,0	  x0:0x00000000
       64995000	      6498	800069f8	02ea0263	beq	x20,x14,80006a1c	 x20:0x36db0824 x14:0x00000001
       65005000	      6499	800069fc	02f29a63	bne	x5,x15,80006a30	  x5:0x475a99e9 x15:0x00000000
       65015000	      6500	00000000	00000013	addi	x0,x0,0	  x0:0x00000000
       65025000	      6501	80006a2c	00000013	addi	x0,x0,0	  x0:0x00000000
       65035000	      6502	80006a30	004cd7b3	srl	x15,x25,x4	 x25:0x00000001  x4:0x00000300 x15=0x00000001
       65045000	      6503	80006a34	014bd013	srli	x0,x23,0x14	 x23:0x00000000
       65055000	      6504	80006a38	302fc413	xori	x8,x31,770	 x31:0x00000001  x8=0x00000303
       65065000	      6505	80006a3c	0043a183	lw	x3,4(x7)	  x7:0x80009f58  x3=0x800004a4 PA:0x80009f5c
       65075000	      6506	80006a40	00d2d413	srli	x8,x5,0xd	  x5:0x475a99e9  x8=0x00023ad4
       65085000	      6507	80006a44	fe9e8213	addi	x4,x29,-23	 x29:0x00000000  x4=0xffffffe9
       65095000	      6508	80006a48	00b8e133	or	x2,x17,x11	 x17:0x00000001 x11:0x00000003  x2=0x00000003
       65105000	      6509	80006a4c	01438393	addi	x7,x7,20	  x7:0x80009f58  x7=0x80009f6c
       65115000	      6510	80006a50	413dde93	srai	x29,x27,0x13	 x27:0xc3eac950 x29=0xfffff87d
       65125000	      6511	80006a54	00018c13	addi	x24,x3,0	  x3:0x800004a4 x24=0x800004a4
       65135000	      6512	80006a58	000c0c67	jalr	x24,x24,0	 x24:0x800004a4 x24=0x80006a58
       65145000	      6513	00000000	00000013	addi	x0,x0,0	  x0:0x00000000
       65155000	      6514	800004a4	00000013	addi	x0,x0,0	  x0:0x00000000
       65165000	      6515	800004a8	01f34a33	xor	x20,x6,x31	  x6:0x00000001 x31:0x00000001 x20=0x00000000
       65175000	      6516	800004ac	004c2833	slt	x16,x24,x4	 x24:0x80006a58  x4:0xffffffe9 x16=0x00000001
       65185000	      6517	800004b0	00002617	auipc	x12,0x2	 x12=0x800024ac
       65195000	      6518	800004b4	08860613	addi	x12,x12,136	 x12:0x800024ac x12=0x80002534
       65205000	      6519	800004b8	00f3a0b3	slt	x1,x7,x15	  x7:0x80009f6c x15:0x00000001  x1=0x00000001
       65215000	      6520	800004bc	d9260613	addi	x12,x12,-622	 x12:0x80002534 x12=0x800022c6
       65225000	      6521	800004c0	fcd00b13	addi	x22,x0,-51	  x0:0x00000000 x22=0xffffffcd
       65235000	      6522	800004c4	01420a33	add	x20,x4,x20	  x4:0xffffffe9 x20:0x00000000 x20=0xffffffe9
       65245000	      6523	800004c8	01c3d693	srli	x13,x7,0x1c	  x7:0x80009f6c x13=0x00000008
       65255000	      6524	800004cc	01a35eb3	srl	x29,x6,x26	  x6:0x00000001 x26:0x80006744 x29=0x00000000
       65265000	      6525	800004d0	01c4f663	bgeu	x9,x28,800004dc	  x9:0x80006744 x28:0x80009fc4
       65275000	      6526	800004d4	9396a193	slti	x3,x13,-1735	 x13:0x00000008  x3=0x00000000
       65285000	      6527	800004d8	412c5313	srai	x6,x24,0x12	 x24:0x80006a58  x6=0xffffe000
       65295000	      6528	800004dc	26f601e7	jalr	x3,x12,623	 x12:0x800022c6  x3=0x800004dc
       65305000	      6529	00000000	00000013	addi	x0,x0,0	  x0:0x00000000
       65315000	      6530	80002534	00000013	addi	x0,x0,0	  x0:0x00000000
       65325000	      6531	80002538	01075333	srl	x6,x14,x16	 x14:0x00000001 x16:0x00000001  x6=0x00000000
       65335000	      6532	8000253c	00a8e2b3	or	x5,x17,x10	 x17:0x00000001 x10:0x00000001  x5=0x00000001
       65345000	      6533	80002540	683a2d13	slti	x26,x20,1667	 x20:0xffffffe9 x26=0x00000001
       65355000	      6534	80002544	00000013	addi	x0,x0,0	  x0:0x00000000
       65365000	      6535	80002548	65f56713	ori	x14,x10,1631	 x10:0x00000001 x14=0x0000065f
       65375000	      6536	8000254c	fc438393	addi	x7,x7,-60	  x7:0x80009f6c  x7=0x80009f30
       65385000	      6537	80002550	2ca7e293	ori	x5,x15,714	 x15:0x00000001  x5=0x000002cb
       65395000	      6538	80002554	00871db3	sll	x27,x14,x8	 x14:0x0000065f  x8:0x00023ad4 x27=0x65f00000
       65405000	      6539	80002558	0033a223	sw	x3,4(x7)	  x7:0x80009f30  x3:0x800004dc PA:0x80009f34
       65415000	      6540	8000255c	00754b33	xor	x22,x10,x7	 x10:0x00000001  x7:0x80009f30 x22=0x80009f31
       65425000	      6541	80002560	3fd5f337	lui	x6,0x3fd5f	  x6=0x3fd5f000
       65435000	      6542	80002564	019bdeb3	srl	x29,x23,x25	 x23:0x00000000 x25:0x00000001 x29=0x00000000
       65445000	      6543	80002568	16e6f013	andi	x0,x13,366	 x13:0x00000008
       65455000	      6544	8000256c	ffffe617	auipc	x12,0xffffe	 x12=0x80000568
       65465000	      6545	80002570	29c60613	addi	x12,x12,668	 x12:0x80000568 x12=0x80000804
       65475000	      6546	80002574	01c5a133	slt	x2,x11,x28	 x11:0x00000003 x28:0x80009fc4  x2=0x00000000
       65485000	      6547	80002578	ddf60613	addi	x12,x12,-545	 x12:0x80000804 x12=0x800005e3
       65495000	      6548	8000257c	01d9a333	slt	x6,x19,x29	 x19:0x36db0f6d x29:0x00000000  x6=0x00000000
       65505000	      6549	80002580	00000013	addi	x0,x0,0	  x0:0x00000000
       65515000	      6550	80002584	406adc33	sra	x24,x21,x6	 x21:0x00000001  x6:0x00000000 x24=0x00000001
       65525000	      6551	80002588	013584b3	add	x9,x11,x19	 x11:0x00000003 x19:0x36db0f6d  x9=0x36db0f70
       65535000	      6552	8000258c	01b1c663	blt	x3,x27,80002598	  x3:0x800004dc x27:0x65f00000
       65545000	      6553	00000000	00000013	addi	x0,x0,0	  x0:0x00000000
       65555000	      6554	80002594	00000013	addi	x0,x0,0	  x0:0x00000000
       65565000	      6555	80002598	222601e7	jalr	x3,x12,546	 x12:0x800005e3  x3=0x80002598
       65575000	      6556	00000000	00000013	addi	x0,x0,0	  x0:0x00000000
       65585000	      6557	80000804	00000013	addi	x0,x0,0	  x0:0x00000000
       65595000	      6558	80000808	004c7a63	bgeu	x24,x4,8000081c	 x24:0x00000001  x4:0xffffffe9
       65605000	      6559	8000080c	01b504b3	add	x9,x10,x27	 x10:0x00000001 x27:0x65f00000  x9=0x65f00001
       65615000	      6560	80000810	019db9b3	sltu	x19,x27,x25	 x27:0x65f00000 x25:0x00000001 x19=0x00000000
       65625000	      6561	80000814	01688b33	add	x22,x17,x22	 x17:0x00000001 x22:0x80009f31 x22=0x80009f32
       65635000	      6562	80000818	0098fb33	and	x22,x17,x9	 x17:0x00000001  x9:0x65f00001 x22=0x00000001
       65645000	      6563	8000081c	fcc38393	addi	x7,x7,-52	  x7:0x80009f30  x7=0x80009efc
       65655000	      6564	80000820	00000013	addi	x0,x0,0	  x0:0x00000000
       65665000	      6565	80000824	00d13bb3	sltu	x23,x2,x13	  x2:0x00000000 x13:0x00000008 x23=0x00000001
       65675000	      6566	80000828	00911f33	sll	x30,x2,x9	  x2:0x00000000  x9:0x65f00001 x30=0x00000000
       65685000	      6567	8000082c	01e65f93	srli	x31,x12,0x1e	 x12:0x800005e3 x31=0x00000002
       65695000	      6568	80000830	0033a223	sw	x3,4(x7)	  x7:0x80009efc  x3:0x80002598 PA:0x80009f00
       65705000	      6569	80000834	01b40733	add	x14,x8,x27	  x8:0x00023ad4 x27:0x65f00000 x14=0x65f23ad4
       65715000	      6570	80000838	00008497	auipc	x9,0x8	  x9=0x80008834
       65725000	      6571	8000083c	f6b48493	addi	x9,x9,-149	  x9:0x80008834  x9=0x8000879f
       65735000	      6572	80000840	498da593	slti	x11,x27,1176	 x27:0x65f00000 x11=0x00000000
       65745000	      6573	80000844	f2248003	lb	x0,-222(x9)	  x9:0x8000879f PA:0x800086c1
       65755000	      6574	80000848	f9d48983	lb	x19,-99(x9)	  x9:0x8000879f x19=0x00000000 PA:0x8000873c
       65765000	      6575	8000084c	405a0bb3	sub	x23,x20,x5	 x20:0xffffffe9  x5:0x000002cb x23=0xfffffd1e
       65775000	      6576	80000850	5f93e413	ori	x8,x7,1529	  x7:0x80009efc  x8=0x80009ffd
       65785000	      6577	80000854	fcf4dc03	lhu	x24,-49(x9)	  x9:0x8000879f x24=0x00000000 PA:0x8000876e
       65795000	      6578	80000858	ff948223	sb	x25,-28(x9)	  x9:0x8000879f x25:0x00000001 PA:0x80008783
       65805000	      6579	8000085c	07549183	lh	x3,117(x9)	  x9:0x8000879f  x3=0x00000000 PA:0x80008814
       65815000	      6580	80000860	011d9db3	sll	x27,x27,x17	 x27:0x65f00000 x17:0x00000001 x27=0xcbe00000
       65825000	      6581	80000864	5c80a593	slti	x11,x1,1480	  x1:0x00000001 x11=0x00000001
       65835000	      6582	80000868	f1548d23	sb	x21,-230(x9)	  x9:0x8000879f x21:0x00000001 PA:0x800086b9
       65845000	      6583	8000086c	01c4c703	lbu	x14,28(x9)	  x9:0x8000879f x14=0x00000000 PA:0x800087bb
       65855000	      6584	80000870	40dd5293	srai	x5,x26,0xd	 x26:0x00000001  x5=0x00000000
       65865000	      6585	80000874	06648ba3	sb	x6,119(x9)	  x9:0x8000879f  x6:0x00000000 PA:0x80008816
       65875000	      6586	80000878	d80a4c13	xori	x24,x20,-640	 x20:0xffffffe9 x24=0x00000269
       65885000	      6587	8000087c	06f496a3	sh	x15,109(x9)	  x9:0x8000879f x15:0x00000001 PA:0x8000880c
       65895000	      6588	80000880	04f4d683	lhu	x13,79(x9)	  x9:0x8000879f x13=0x00000000 PA:0x800087ee
       65905000	      6589	80000884	41a28a33	sub	x20,x5,x26	  x5:0x00000000 x26:0x00000001 x20=0xffffffff
       65915000	      6590	80000888	35b71817	auipc	x16,0x35b71	 x16=0xb5b71884
       65925000	      6591	8000088c	06548d83	lb	x27,101(x9)	  x9:0x8000879f x27=0x00000000 PA:0x80008804
       65935000	      6592	80000890	0604c783	lbu	x15,96(x9)	  x9:0x8000879f x15=0x00000000 PA:0x800087ff
       65945000	      6593	80000894	00b65813	srli	x16,x12,0xb	 x12:0x800005e3 x16=0x00100000
       65955000	      6594	80000898	04948a83	lb	x21,73(x9)	  x9:0x8000879f x21=0x00000000 PA:0x800087e8
       65965000	      6595	8000089c	f014c083	lbu	x1,-255(x9)	  x9:0x8000879f  x1=0x00000000 PA:0x800086a0
       65975000	      6596	800008a0	014ffdb3	and	x27,x31,x20	 x31:0x00000002 x20:0xffffffff x27=0x00000002
       65985000	      6597	800008a4	00549ca3	sh	x5,25(x9)	  x9:0x8000879f  x5:0x00000000 PA:0x800087b8
       65995000	      6598	800008a8	00d4a803	lw	x16,13(x9)	  x9:0x8000879f x16=0x00000000 PA:0x800087ac
       66005000	      6599	800008ac	f7f4da83	lhu	x21,-129(x9)	  x9:0x8000879f x21=0x00000000 PA:0x8000871e
       66015000	      6600	800008b0	012f0db3	add	x27,x30,x18	 x30:0x00000000 x18:0x475a92a9 x27=0x475a92a9
       66025000	      6601	800008b4	00da8733	add	x14,x21,x13	 x21:0x00000000 x13:0x00000000 x14=0x00000000
       66035000	      6602	800008b8	0384cb03	lbu	x22,56(x9)	  x9:0x8000879f x22=0x00000000 PA:0x800087d7
       66045000	      6603	800008bc	00008117	auipc	x2,0x8	  x2=0x800088b8
       66055000	      6604	800008c0	54a10113	addi	x2,x2,1354	  x2:0x800088b8  x2=0x80008e02
       66065000	      6605	800008c4	fae107a3	sb	x14,-81(x2)	  x2:0x80008e02 x14:0x00000000 PA:0x80008db1
       66075000	      6606	800008c8	0ff11623	sh	x31,236(x2)	  x2:0x80008e02 x31:0x00000002 PA:0x80008eee
       66085000	      6607	800008cc	0cd11423	sh	x13,200(x2)	  x2:0x80008e02 x13:0x00000000 PA:0x80008eca
       66095000	      6608	800008d0	0c214203	lbu	x4,194(x2)	  x2:0x80008e02  x4=0x00000000 PA:0x80008ec4
       66105000	      6609	800008d4	0023d793	srli	x15,x7,0x2	  x7:0x80009efc x15=0x200027bf
       66115000	      6610	800008d8	f8b11723	sh	x11,-114(x2)	  x2:0x80008e02 x11:0x00000001 PA:0x80008d90
       66125000	      6611	800008dc	016011b3	sll	x3,x0,x22	  x0:0x00000000 x22:0x00000000  x3=0x00000000
       66135000	      6612	800008e0	01969713	slli	x14,x13,0x19	 x13:0x00000000 x14=0x00000000
       66145000	      6613	800008e4	fea14883	lbu	x17,-22(x2)	  x2:0x80008e02 x17=0x00000000 PA:0x80008dec
       66155000	      6614	800008e8	00000013	addi	x0,x0,0	  x0:0x00000000
       66165000	      6615	800008ec	0cf10203	lb	x4,207(x2)	  x2:0x80008e02  x4=0x00000000 PA:0x80008ed1
       66175000	      6616	800008f0	08010683	lb	x13,128(x2)	  x2:0x80008e02 x13=0x00000000 PA:0x80008e82
       66185000	      6617	800008f4	01716c33	or	x24,x2,x23	  x2:0x80008e02 x23:0xfffffd1e x24=0xffffff1e
       66195000	      6618	800008f8	f30e4793	xori	x15,x28,-208	 x28:0x80009fc4 x15=0x7fff60f4
       66205000	      6619	800008fc	06210023	sb	x2,96(x2)	  x2:0x80008e02  x2:0x80008e02 PA:0x80008e62
       66215000	      6620	80000900	0ff14983	lbu	x19,255(x2)	  x2:0x80008e02 x19=0x00000000 PA:0x80008f01
       66225000	      6621	00000000	00000013	addi	x0,x0,0	  x0:0x00000000
       66235000	      6622	80000904	00f98033	add	x0,x19,x15	 x19:0x00000000 x15:0x7fff60f4
       66245000	      6623	80000908	0175d433	srl	x8,x11,x23	 x11:0x00000001 x23:0xfffffd1e  x8=0x00000000
       66255000	      6624	8000090c	03c11c23	sh	x28,56(x2)	  x2:0x80008e02 x28:0x80009fc4 PA:0x80008e3a
       66265000	      6625	80000910	f76103a3	sb	x22,-153(x2)	  x2:0x80008e02 x22:0x00000000 PA:0x80008d69
       66275000	      6626	80000914	018c1533	sll	x10,x24,x24	 x24:0xffffff1e x24:0xffffff1e x10=0x80000000
       66285000	      6627	80000918	f8410a03	lb	x20,-124(x2)	  x2:0x80008e02 x20=0x00000000 PA:0x80008d86
       66295000	      6628	8000091c	0bd10d03	lb	x26,189(x2)	  x2:0x80008e02 x26=0x00000000 PA:0x80008ebf
       66305000	      6629	80000920	0f0101a3	sb	x16,227(x2)	  x2:0x80008e02 x16:0x00000000 PA:0x80008ee5
       66315000	      6630	80000924	f8f106a3	sb	x15,-115(x2)	  x2:0x80008e02 x15:0x7fff60f4 PA:0x80008d8f
       66325000	      6631	80000928	f8414983	lbu	x19,-124(x2)	  x2:0x80008e02 x19=0x00000000 PA:0x80008d86
       66335000	      6632	8000092c	07f10183	lb	x3,127(x2)	  x2:0x80008e02  x3=0x00000000 PA:0x80008e81
       66345000	      6633	80000930	02c10503	lb	x10,44(x2)	  x2:0x80008e02 x10=0x00000000 PA:0x80008e2e
       66355000	      6634	80000934	00000013	addi	x0,x0,0	  x0:0x00000000
       66365000	      6635	80000938	05215183	lhu	x3,82(x2)	  x2:0x80008e02  x3=0x00000000 PA:0x80008e54
       66375000	      6636	8000093c	0ac10d03	lb	x26,172(x2)	  x2:0x80008e02 x26=0x00000000 PA:0x80008eae
       66385000	      6637	80000940	00008117	auipc	x2,0x8	  x2=0x8000893c
       66395000	      6638	80000944	d0710113	addi	x2,x2,-761	  x2:0x8000893c  x2=0x80008643
       66405000	      6639	80000948	f1614c83	lbu	x25,-234(x2)	  x2:0x80008643 x25=0x00000000 PA:0x80008559
       66415000	      6640	8000094c	0e911d03	lh	x26,233(x2)	  x2:0x80008643 x26=0x00000000 PA:0x8000872c
       66425000	      6641	80000950	f1610483	lb	x9,-234(x2)	  x2:0x80008643  x9=0x00000000 PA:0x80008559
       66435000	      6642	80000954	fa814283	lbu	x5,-88(x2)	  x2:0x80008643  x5=0x00000000 PA:0x800085eb
       66445000	      6643	80000958	f7515883	lhu	x17,-139(x2)	  x2:0x80008643 x17=0x00000000 PA:0x800085b8
       66455000	      6644	8000095c	408ca493	slti	x9,x25,1032	 x25:0x00000000  x9=0x00000001
       66465000	      6645	80000960	f4614803	lbu	x16,-186(x2)	  x2:0x80008643 x16=0x00000000 PA:0x80008589
       66475000	      6646	80000964	00a14803	lbu	x16,10(x2)	  x2:0x80008643 x16=0x00000000 PA:0x8000864d
       66485000	      6647	80000968	005918b3	sll	x17,x18,x5	 x18:0x475a92a9  x5:0x00000000 x17=0x475a92a9
       66495000	      6648	8000096c	00efa0b3	slt	x1,x31,x14	 x31:0x00000002 x14:0x00000000  x1=0x00000000
       66505000	      6649	80000970	40ebdc93	srai	x25,x23,0xe	 x23:0xfffffd1e x25=0xffffffff
       66515000	      6650	80000974	f1110ea3	sb	x17,-227(x2)	  x2:0x80008643 x17:0x475a92a9 PA:0x80008560
       66525000	      6651	80000978	03f11da3	sh	x31,59(x2)	  x2:0x80008643 x31:0x00000002 PA:0x8000867e
       66535000	      6652	8000097c	0d014c03	lbu	x24,208(x2)	  x2:0x80008643 x24=0x00000000 PA:0x80008713
       66545000	      6653	80000980	03c10c23	sb	x28,56(x2)	  x2:0x80008643 x28:0x80009fc4 PA:0x8000867b
       66555000	      6654	80000984	fee10523	sb	x14,-22(x2)	  x2:0x80008643 x14:0x00000000 PA:0x8000862d
       66565000	      6655	80000988	0bd14c83	lbu	x25,189(x2)	  x2:0x80008643 x25=0x00000000 PA:0x80008700
       66575000	      6656	8000098c	fd410e23	sb	x20,-36(x2)	  x2:0x80008643 x20:0x00000000 PA:0x8000861f
       66585000	      6657	80000990	05914b03	lbu	x22,89(x2)	  x2:0x80008643 x22=0x00000000 PA:0x8000869c
       66595000	      6658	80000994	0d414d03	lbu	x26,212(x2)	  x2:0x80008643 x26=0x00000000 PA:0x80008717
       66605000	      6659	80000998	f7110923	sb	x17,-142(x2)	  x2:0x80008643 x17:0x475a92a9 PA:0x800085b5
       66615000	      6660	8000099c	fc814b83	lbu	x23,-56(x2)	  x2:0x80008643 x23=0x00000000 PA:0x8000860b
       66625000	      6661	800009a0	f1f11783	lh	x15,-225(x2)	  x2:0x80008643 x15=0x00000000 PA:0x80008562
       66635000	      6662	800009a4	f1b10f23	sb	x27,-226(x2)	  x2:0x80008643 x27:0x475a92a9 PA:0x80008561
       66645000	      6663	800009a8	fc414183	lbu	x3,-60(x2)	  x2:0x80008643  x3=0x00000000 PA:0x80008607
       66655000	      6664	800009ac	f2114a83	lbu	x21,-223(x2)	  x2:0x80008643 x21=0x00000000 PA:0x80008564
       66665000	      6665	800009b0	08c11aa3	sh	x12,149(x2)	  x2:0x80008643 x12:0x800005e3 PA:0x800086d8
       66675000	      6666	800009b4	f1d15f83	lhu	x31,-227(x2)	  x2:0x80008643 x31=0x0000a9a9 PA:0x80008560
       66685000	      6667	800009b8	012889b3	add	x19,x17,x18	 x17:0x475a92a9 x18:0x475a92a9 x19=0x8eb52552
       66695000	      6668	800009bc	41965f93	srai	x31,x12,0x19	 x12:0x800005e3 x31=0xffffffc0
       66705000	      6669	800009c0	41e1d893	srai	x17,x3,0x1e	  x3:0x00000000 x17=0x00000000
       66715000	      6670	800009c4	00833833	sltu	x16,x6,x8	  x6:0x00000000  x8:0x00000000 x16=0x00000000
       66725000	      6671	800009c8	0a511a03	lh	x20,165(x2)	  x2:0x80008643 x20=0x00000000 PA:0x800086e8
       66735000	      6672	800009cc	0018cdb3	xor	x27,x17,x1	 x17:0x00000000  x1:0x00000000 x27=0x00000000
       66745000	      6673	800009d0	04111983	lh	x19,65(x2)	  x2:0x80008643 x19=0x00000000 PA:0x80008684
       66755000	      6674	00000000	00000013	addi	x0,x0,0	  x0:0x00000000
       66765000	      6675	800009d4	013ea533	slt	x10,x29,x19	 x29:0x00000000 x19:0x00000000 x10=0x00000000
       66775000	      6676	800009d8	f2e10e83	lb	x29,-210(x2)	  x2:0x80008643 x29=0x00000000 PA:0x80008571
       66785000	      6677	800009dc	f89124a3	sw	x9,-119(x2)	  x2:0x80008643  x9:0x00000001 PA:0x800085cc
       66795000	      6678	800009e0	00a14003	lbu	x0,10(x2)	  x2:0x80008643 PA:0x8000864d
       66805000	      6679	800009e4	00008897	auipc	x17,0x8	 x17=0x800089e0
       66815000	      6680	800009e8	b6588893	addi	x17,x17,-1179	 x17:0x800089e0 x17=0x80008545
       66825000	      6681	800009ec	ffc88283	lb	x5,-4(x17)	 x17:0x80008545  x5=0x00000000 PA:0x80008541
       66835000	      6682	800009f0	eeb88e23	sb	x11,-260(x17)	 x17:0x80008545 x11:0x00000001 PA:0x80008441
       66845000	      6683	800009f4	8d474493	xori	x9,x14,-1836	 x14:0x00000000  x9=0xfffff8d4
       66855000	      6684	800009f8	415105b3	sub	x11,x2,x21	  x2:0x80008643 x21:0x00000000 x11=0x80008643
       66865000	      6685	800009fc	2d088123	sb	x16,706(x17)	 x17:0x80008545 x16:0x00000000 PA:0x80008807
       66875000	      6686	80000a00	ec58c303	lbu	x6,-315(x17)	 x17:0x80008545  x6=0x00000000 PA:0x8000840a
       66885000	      6687	80000a04	2c588723	sb	x5,718(x17)	 x17:0x80008545  x5:0x00000000 PA:0x80008813
       66895000	      6688	80000a08	bde88a83	lb	x21,-1058(x17)	 x17:0x80008545 x21=0x00000000 PA:0x80008123
       66905000	      6689	80000a0c	20a8c603	lbu	x12,522(x17)	 x17:0x80008545 x12=0x00000000 PA:0x8000874f
       66915000	      6690	80000a10	0136f133	and	x2,x13,x19	 x13:0x00000000 x19:0x00000000  x2=0x00000000
       66925000	      6691	80000a14	00273633	sltu	x12,x14,x2	 x14:0x00000000  x2:0x00000000 x12=0x00000000
       66935000	      6692	80000a18	f9c88583	lb	x11,-100(x17)	 x17:0x80008545 x11=0x00000000 PA:0x800084e1
       66945000	      6693	80000a1c	816ca713	slti	x14,x25,-2026	 x25:0x00000000 x14=0x00000000
       66955000	      6694	80000a20	6a05f513	andi	x10,x11,1696	 x11:0x00000000 x10=0x00000000
       66965000	      6695	80000a24	6edbfa93	andi	x21,x23,1773	 x23:0x00000000 x21=0x00000000
       66975000	      6696	80000a28	00000013	addi	x0,x0,0	  x0:0x00000000
       66985000	      6697	80000a2c	0101df33	srl	x30,x3,x16	  x3:0x00000000 x16:0x00000000 x30=0x00000000
       66995000	      6698	80000a30	c4d88283	lb	x5,-947(x17)	 x17:0x80008545  x5=0x00000000 PA:0x80008192
       67005000	      6699	80000a34	30e01c97	auipc	x25,0x30e01	 x25=0xb0e01a30
       67015000	      6700	80000a38	18e8c483	lbu	x9,398(x17)	 x17:0x80008545  x9=0x00000000 PA:0x800086d3
       67025000	      6701	80000a3c	cf38cb83	lbu	x23,-781(x17)	 x17:0x80008545 x23=0x00000000 PA:0x80008238
       67035000	      6702	80000a40	003b3b33	sltu	x22,x22,x3	 x22:0x00000000  x3:0x00000000 x22=0x00000000
       67045000	      6703	80000a44	1038c603	lbu	x12,259(x17)	 x17:0x80008545 x12=0x00000000 PA:0x80008648
       67055000	      6704	80000a48	01ef85b3	add	x11,x31,x30	 x31:0xffffffc0 x30:0x00000000 x11=0xffffffc0
       67065000	      6705	80000a4c	fdf896a3	sh	x31,-51(x17)	 x17:0x80008545 x31:0xffffffc0 PA:0x80008512
       67075000	      6706	80000a50	02688683	lb	x13,38(x17)	 x17:0x80008545 x13=0x00000000 PA:0x8000856b
       67085000	      6707	80000a54	cff89183	lh	x3,-769(x17)	 x17:0x80008545  x3=0x00000000 PA:0x80008244
       67095000	      6708	80000a58	00008117	auipc	x2,0x8	  x2=0x80008a54
       67105000	      6709	80000a5c	d4e10113	addi	x2,x2,-690	  x2:0x80008a54  x2=0x800087a2
       67115000	      6710	80000a60	00e11d23	sh	x14,26(x2)	  x2:0x800087a2 x14:0x00000000 PA:0x800087bc
       67125000	      6711	80000a64	03310803	lb	x16,51(x2)	  x2:0x800087a2 x16=0x00000000 PA:0x800087d5
       67135000	      6712	80000a68	fee15803	lhu	x16,-18(x2)	  x2:0x800087a2 x16=0x00000000 PA:0x80008790
       67145000	      6713	80000a6c	77410593	addi	x11,x2,1908	  x2:0x800087a2 x11=0x80008f16
       67155000	      6714	80000a70	4ad4a6b7	lui	x13,0x4ad4a	 x13=0x4ad4a000
       67165000	      6715	80000a74	fdf107a3	sb	x31,-49(x2)	  x2:0x800087a2 x31:0xffffffc0 PA:0x80008771
       67175000	      6716	80000a78	2c4fe813	ori	x16,x31,708	 x31:0xffffffc0 x16=0xffffffc4
       67185000	      6717	80000a7c	01a12a03	lw	x20,26(x2)	  x2:0x800087a2 x20=0x00000000 PA:0x800087bc
       67195000	      6718	80000a80	02c10283	lb	x5,44(x2)	  x2:0x800087a2  x5=0x00000000 PA:0x800087ce
       67205000	      6719	80000a84	ff012923	sw	x16,-14(x2)	  x2:0x800087a2 x16:0xffffffc4 PA:0x80008794
       67215000	      6720	80000a88	fda11d83	lh	x27,-38(x2)	  x2:0x800087a2 x27=0x00000000 PA:0x8000877c
       67225000	      6721	80000a8c	02014503	lbu	x10,32(x2)	  x2:0x800087a2 x10=0x00000000 PA:0x800087c2
       67235000	      6722	80000a90	03a10ea3	sb	x26,61(x2)	  x2:0x800087a2 x26:0x00000000 PA:0x800087df
       67245000	      6723	80000a94	01415503	lhu	x10,20(x2)	  x2:0x800087a2 x10=0x00000000 PA:0x800087b6
       67255000	      6724	80000a98	01dc28b3	slt	x17,x24,x29	 x24:0x00000000 x29:0x00000000 x17=0x00000000
       67265000	      6725	80000a9c	ffa109a3	sb	x26,-13(x2)	  x2:0x800087a2 x26:0x00000000 PA:0x80008795
       67275000	      6726	80000aa0	fca11983	lh	x19,-54(x2)	  x2:0x800087a2 x19=0x00000000 PA:0x8000876c
       67285000	      6727	80000aa4	007bf733	and	x14,x23,x7	 x23:0x00000000  x7:0x80009efc x14=0x00000000
       67295000	      6728	80000aa8	692d0a93	addi	x21,x26,1682	 x26:0x00000000 x21=0x00000692
       67305000	      6729	80000aac	63c45717	auipc	x14,0x63c45	 x14=0xe3c45aa8
       67315000	      6730	80000ab0	02110283	lb	x5,33(x2)	  x2:0x800087a2  x5=0x00000000 PA:0x800087c3
       67325000	      6731	80000ab4	e53d2813	slti	x16,x26,-429	 x26:0x00000000 x16=0x00000000
       67335000	      6732	80000ab8	fea15e83	lhu	x29,-22(x2)	  x2:0x800087a2 x29=0x00000000 PA:0x8000878c
       67345000	      6733	80000abc	9ae3f293	andi	x5,x7,-1618	  x7:0x80009efc  x5=0x800098ac
       67355000	      6734	80000ac0	73c56293	ori	x5,x10,1852	 x10:0x00000000  x5=0x0000073c
       67365000	      6735	80000ac4	fdb101a3	sb	x27,-61(x2)	  x2:0x800087a2 x27:0x00000000 PA:0x80008765
       67375000	      6736	80000ac8	4468b413	sltiu	x8,x17,1094	 x17:0x00000000  x8=0x00000001
       67385000	      6737	80000acc	40e75533	sra	x10,x14,x14	 x14:0xe3c45aa8 x14:0xe3c45aa8 x10=0xffe3c45a
       67395000	      6738	80000ad0	0e3bcc93	xori	x25,x23,227	 x23:0x00000000 x25=0x000000e3
       67405000	      6739	80000ad4	04002a37	lui	x20,0x4002	 x20=0x04002000
       67415000	      6740	80000ad8	ffd10603	lb	x12,-3(x2)	  x2:0x800087a2 x12=0x00000000 PA:0x8000879f
       67425000	      6741	80000adc	00008117	auipc	x2,0x8	  x2=0x80008ad8
       67435000	      6742	80000ae0	d8310113	addi	x2,x2,-637	  x2:0x80008ad8  x2=0x8000885b
       67445000	      6743	80000ae4	5af15483	lhu	x9,1455(x2)	  x2:0x8000885b  x9=0x00000000 PA:0x80008e0a
       67455000	      6744	80000ae8	59310023	sb	x19,1408(x2)	  x2:0x8000885b x19:0x00000000 PA:0x80008ddb
       67465000	      6745	80000aec	75314003	lbu	x0,1875(x2)	  x2:0x8000885b PA:0x80008fae
       67475000	      6746	80000af0	01b60533	add	x10,x12,x27	 x12:0x00000000 x27:0x00000000 x10=0x00000000
       67485000	      6747	80000af4	0a132bb7	lui	x23,0xa132	 x23=0x0a132000
       67495000	      6748	80000af8	1b112683	lw	x13,433(x2)	  x2:0x8000885b x13=0x00000000 PA:0x80008a0c
       67505000	      6749	80000afc	00f25313	srli	x6,x4,0xf	  x4:0x00000000  x6=0x00000000
       67515000	      6750	80000b00	01dcc733	xor	x14,x25,x29	 x25:0x000000e3 x29:0x00000000 x14=0x000000e3
       67525000	      6751	80000b04	6ff11ba3	sh	x31,1783(x2)	  x2:0x8000885b x31:0xffffffc0 PA:0x80008f52
       67535000	      6752	80000b08	01959b13	slli	x22,x11,0x19	 x11:0x80008f16 x22=0x2c000000
       67545000	      6753	80000b0c	6c424793	xori	x15,x4,1732	  x4:0x00000000 x15=0x000006c4
       67555000	      6754	80000b10	24dabb17	auipc	x22,0x24dab	 x22=0xa4dabb0c
       67565000	      6755	80000b14	41aedd33	sra	x26,x29,x26	 x29:0x00000000 x26:0x00000000 x26=0x00000000
       67575000	      6756	80000b18	6a915203	lhu	x4,1705(x2)	  x2:0x8000885b  x4=0x00000000 PA:0x80008f04
       67585000	      6757	80000b1c	92e93013	sltiu	x0,x18,-1746	 x18:0x475a92a9
       67595000	      6758	80000b20	00d53733	sltu	x14,x10,x13	 x10:0x00000000 x13:0x00000000 x14=0x00000000
       67605000	      6759	80000b24	01e12ca3	sw	x30,25(x2)	  x2:0x8000885b x30:0x00000000 PA:0x80008874
       67615000	      6760	80000b28	46a105a3	sb	x10,1131(x2)	  x2:0x8000885b x10:0x00000000 PA:0x80008cc6
       67625000	      6761	80000b2c	cf6fa293	slti	x5,x31,-778	 x31:0xffffffc0  x5=0x00000000
       67635000	      6762	80000b30	70910923	sb	x9,1810(x2)	  x2:0x8000885b  x9:0x00000000 PA:0x80008f6d
       67645000	      6763	80000b34	59910403	lb	x8,1433(x2)	  x2:0x8000885b  x8=0x00000000 PA:0x80008df4
       67655000	      6764	80000b38	2e4120a3	sw	x4,737(x2)	  x2:0x8000885b  x4:0x00000000 PA:0x80008b3c
       67665000	      6765	80000b3c	4d110623	sb	x17,1228(x2)	  x2:0x8000885b x17:0x00000000 PA:0x80008d27
       67675000	      6766	80000b40	28a10783	lb	x15,650(x2)	  x2:0x8000885b x15=0x00000000 PA:0x80008ae5
       67685000	      6767	80000b44	0c3124a3	sw	x3,201(x2)	  x2:0x8000885b  x3:0x00000000 PA:0x80008924
       67695000	      6768	80000b48	41615493	srai	x9,x2,0x16	  x2:0x8000885b  x9=0xfffffe00
       67705000	      6769	80000b4c	48710f23	sb	x7,1182(x2)	  x2:0x8000885b  x7:0x80009efc PA:0x80008cf9
       67715000	      6770	80000b50	73911883	lh	x17,1849(x2)	  x2:0x8000885b x17=0x00000000 PA:0x80008f94
       67725000	      6771	80000b54	415d5033	sra	x0,x26,x21	 x26:0x00000000 x21:0x00000692
       67735000	      6772	80000b58	00054333	xor	x6,x10,x0	 x10:0x00000000  x0:0x00000000  x6=0x00000000
       67745000	      6773	80000b5c	4a711183	lh	x3,1191(x2)	  x2:0x8000885b  x3=0x00000000 PA:0x80008d02
       67755000	      6774	80000b60	2cc14303	lbu	x6,716(x2)	  x2:0x8000885b  x6=0x00000000 PA:0x80008b27
       67765000	      6775	80000b64	733113a3	sh	x19,1831(x2)	  x2:0x8000885b x19:0x00000000 PA:0x80008f82
       67775000	      6776	80000b68	56410c83	lb	x25,1380(x2)	  x2:0x8000885b x25=0x00000000 PA:0x80008dbf
       67785000	      6777	80000b6c	01d0e033	or	x0,x1,x29	  x1:0x00000000 x29:0x00000000
       67795000	      6778	80000b70	d8117c13	andi	x24,x2,-639	  x2:0x8000885b x24=0x80008801
       67805000	      6779	80000b74	57c10a23	sb	x28,1396(x2)	  x2:0x8000885b x28:0x80009fc4 PA:0x80008dcf
       67815000	      6780	80000b78	3c014c03	lbu	x24,960(x2)	  x2:0x8000885b x24=0x00000000 PA:0x80008c1b
       67825000	      6781	80000b7c	16111da3	sh	x1,379(x2)	  x2:0x8000885b  x1:0x00000000 PA:0x800089d6
       67835000	      6782	80000b80	5e1101a3	sb	x1,1507(x2)	  x2:0x8000885b  x1:0x00000000 PA:0x80008e3e
       67845000	      6783	80000b84	39714c83	lbu	x25,919(x2)	  x2:0x8000885b x25=0x00000000 PA:0x80008bf2
       67855000	      6784	80000b88	01f6e333	or	x6,x13,x31	 x13:0x00000000 x31:0xffffffc0  x6=0xffffffc0
       67865000	      6785	80000b8c	38c1e417	auipc	x8,0x38c1e	  x8=0xb8c1eb88
       67875000	      6786	80000b90	01cc4133	xor	x2,x24,x28	 x24:0x00000000 x28:0x80009fc4  x2=0x80009fc4
       67885000	      6787	80000b94	99bceb13	ori	x22,x25,-1637	 x25:0x00000000 x22=0xfffff99b
       67895000	      6788	80000b98	4c3c7513	andi	x10,x24,1219	 x24:0x00000000 x10=0x00000000
       67905000	      6789	80000b9c	01319713	slli	x14,x3,0x13	  x3:0x00000000 x14=0x00000000
       67915000	      6790	80000ba0	f415b337	lui	x6,0xf415b	  x6=0xf415b000
       67925000	      6791	80000ba4	01b12833	slt	x16,x2,x27	  x2:0x80009fc4 x27:0x00000000 x16=0x00000001
       67935000	      6792	80000ba8	010594b3	sll	x9,x11,x16	 x11:0x80008f16 x16:0x00000001  x9=0x00011e2c
       67945000	      6793	80000bac	00a4a9b3	slt	x19,x9,x10	  x9:0x00011e2c x10:0x00000000 x19=0x00000000
       67955000	      6794	80000bb0	00a8ea33	or	x20,x17,x10	 x17:0x00000000 x10:0x00000000 x20=0x00000000
       67965000	      6795	80000bb4	00891313	slli	x6,x18,0x8	 x18:0x475a92a9  x6=0x5a92a900
       67975000	      6796	80000bb8	018e7233	and	x4,x28,x24	 x28:0x80009fc4 x24:0x00000000  x4=0x00000000
       67985000	      6797	80000bbc	00357d33	and	x26,x10,x3	 x10:0x00000000  x3:0x00000000 x26=0x00000000
       67995000	      6798	80000bc0	96343317	auipc	x6,0x96343	  x6=0x16343bbc
       68005000	      6799	80000bc4	0125fbb3	and	x23,x11,x18	 x11:0x80008f16 x18:0x475a92a9 x23=0x00008200
       68015000	      6800	80000bc8	005840b3	xor	x1,x16,x5	 x16:0x00000001  x5:0x00000000  x1=0x00000001
       68025000	      6801	80000bcc	2488f113	andi	x2,x17,584	 x17:0x00000000  x2=0x00000000
       68035000	      6802	80000bd0	01e4f2b3	and	x5,x9,x30	  x9:0x00011e2c x30:0x00000000  x5=0x00000000
       68045000	      6803	80000bd4	006074b3	and	x9,x0,x6	  x0:0x00000000  x6:0x16343bbc  x9=0x00000000
       68055000	      6804	80000bd8	008ee033	or	x0,x29,x8	 x29:0x00000000  x8:0xb8c1eb88
       68065000	      6805	80000bdc	03e68c63	beq	x13,x30,80000c14	 x13:0x00000000 x30:0x00000000
       68075000	      6806	00000000	00000013	addi	x0,x0,0	  x0:0x00000000
       68085000	      6807	80000c10	00000013	addi	x0,x0,0	  x0:0x00000000
       68095000	      6808	80000c14	01670a63	beq	x14,x22,80000c28	 x14:0x00000000 x22:0xfffff99b
       68105000	      6809	80000c18	85d095b7	lui	x11,0x85d09	 x11=0x85d09000
       68115000	      6810	80000c1c	00000013	addi	x0,x0,0	  x0:0x00000000
       68125000	      6811	80000c20	01263b33	sltu	x22,x12,x18	 x12:0x00000000 x18:0x475a92a9 x22=0x00000001
       68135000	      6812	80000c24	e2927f13	andi	x30,x4,-471	  x4:0x00000000 x30=0x00000000
       68145000	      6813	80000c28	047d5863	bge	x26,x7,80000c78	 x26:0x00000000  x7:0x80009efc
       68155000	      6814	00000000	00000013	addi	x0,x0,0	  x0:0x00000000
       68165000	      6815	80000c74	00000013	addi	x0,x0,0	  x0:0x00000000
       68175000	      6816	80000c78	00aa4a33	xor	x20,x20,x10	 x20:0x00000000 x10:0x00000000 x20=0x00000000
       68185000	      6817	80000c7c	00159b93	slli	x23,x11,0x1	 x11:0x85d09000 x23=0x0ba12000
       68195000	      6818	80000c80	e7584813	xori	x16,x16,-395	 x16:0x00000001 x16=0xfffffe74
       68205000	      6819	80000c84	00cc7b33	and	x22,x24,x12	 x24:0x00000000 x12:0x00000000 x22=0x00000000
       68215000	      6820	80000c88	01495b93	srli	x23,x18,0x14	 x18:0x475a92a9 x23=0x00000475
       68225000	      6821	80000c8c	0422d863	bge	x5,x2,80000cdc	  x5:0x00000000  x2:0x00000000
       68235000	      6822	00000000	00000013	addi	x0,x0,0	  x0:0x00000000
       68245000	      6823	80000cd8	00000013	addi	x0,x0,0	  x0:0x00000000
       68255000	      6824	80000cdc	04451863	bne	x10,x4,80000d2c	 x10:0x00000000  x4:0x00000000
       68265000	      6825	80000ce0	8f828f93	addi	x31,x5,-1800	  x5:0x00000000 x31=0xfffff8f8
       68275000	      6826	80000ce4	41f07c93	andi	x25,x0,1055	  x0:0x00000000 x25=0x00000000
       68285000	      6827	80000ce8	03e69c63	bne	x13,x30,80000d20	 x13:0x00000000 x30:0x00000000
       68295000	      6828	80000cec	01b01d93	slli	x27,x0,0x1b	  x0:0x00000000 x27=0x00000000
       68305000	      6829	80000cf0	bb8d7813	andi	x16,x26,-1096	 x26:0x00000000 x16=0x00000000
       68315000	      6830	80000cf4	00605b13	srli	x22,x0,0x6	  x0:0x00000000 x22=0x00000000
       68325000	      6831	80000cf8	035f5a63	bge	x30,x21,80000d2c	 x30:0x00000000 x21:0x00000692
       68335000	      6832	80000cfc	724cba37	lui	x20,0x724cb	 x20=0x724cb000
       68345000	      6833	80000d00	00dcdf33	srl	x30,x25,x13	 x25:0x00000000 x13:0x00000000 x30=0x00000000
       68355000	      6834	80000d04	03491463	bne	x18,x20,80000d2c	 x18:0x475a92a9 x20:0x724cb000
       68365000	      6835	00000000	00000013	addi	x0,x0,0	  x0:0x00000000
       68375000	      6836	80000d28	00000013	addi	x0,x0,0	  x0:0x00000000
       68385000	      6837	80000d2c	9ad4cb93	xori	x23,x9,-1619	  x9:0x00000000 x23=0xfffff9ad
       68395000	      6838	80000d30	021f5a63	bge	x30,x1,80000d64	 x30:0x00000000  x1:0x00000001
       68405000	      6839	80000d34	014f2cb3	slt	x25,x30,x20	 x30:0x00000000 x20:0x724cb000 x25=0x00000001
       68415000	      6840	80000d38	004e0263	beq	x28,x4,80000d3c	 x28:0x80009fc4  x4:0x00000000
       68425000	      6841	80000d3c	01ce0b33	add	x22,x28,x28	 x28:0x80009fc4 x28:0x80009fc4 x22=0x00013f88
       68435000	      6842	80000d40	10624613	xori	x12,x4,262	  x4:0x00000000 x12=0x00000106
       68445000	      6843	80000d44	405b5cb3	sra	x25,x22,x5	 x22:0x00013f88  x5:0x00000000 x25=0x00013f88
       68455000	      6844	80000d48	0266cc63	blt	x13,x6,80000d80	 x13:0x00000000  x6:0x16343bbc
       68465000	      6845	00000000	00000013	addi	x0,x0,0	  x0:0x00000000
       68475000	      6846	80000d7c	00000013	addi	x0,x0,0	  x0:0x00000000
       68485000	      6847	80000d80	3d8f9c17	auipc	x24,0x3d8f9	 x24=0xbd8f9d7c
       68495000	      6848	80000d84	03ba5663	bge	x20,x27,80000db0	 x20:0x724cb000 x27:0x00000000
       68505000	      6849	00000000	00000013	addi	x0,x0,0	  x0:0x00000000
       68515000	      6850	80000dac	00000013	addi	x0,x0,0	  x0:0x00000000
       68525000	      6851	80000db0	02e59063	bne	x11,x14,80000dd0	 x11:0x85d09000 x14:0x00000000
       68535000	      6852	00000000	00000013	addi	x0,x0,0	  x0:0x00000000
       68545000	      6853	80000dcc	00000013	addi	x0,x0,0	  x0:0x00000000
       68555000	      6854	80000dd0	00158033	add	x0,x11,x1	 x11:0x85d09000  x1:0x00000001
       68565000	      6855	80000dd4	ebebca37	lui	x20,0xebebc	 x20=0xebebc000
       68575000	      6856	80000dd8	002e6733	or	x14,x28,x2	 x28:0x80009fc4  x2:0x00000000 x14=0x80009fc4
       68585000	      6857	80000ddc	00000013	addi	x0,x0,0	  x0:0x00000000
       68595000	      6858	80000de0	41135693	srai	x13,x6,0x11	  x6:0x16343bbc x13=0x00000b1a
       68605000	      6859	80000de4	007c1833	sll	x16,x24,x7	 x24:0xbd8f9d7c  x7:0x80009efc x16=0xc0000000
       68615000	      6860	80000de8	1d69e313	ori	x6,x19,470	 x19:0x00000000  x6=0x000001d6
       68625000	      6861	80000dec	01f7f833	and	x16,x15,x31	 x15:0x00000000 x31:0xfffff8f8 x16=0x00000000
       68635000	      6862	80000df0	03511463	bne	x2,x21,80000e18	  x2:0x00000000 x21:0x00000692
       68645000	      6863	00000000	00000013	addi	x0,x0,0	  x0:0x00000000
       68655000	      6864	80000e14	00000013	addi	x0,x0,0	  x0:0x00000000
       68665000	      6865	80000e18	015e1263	bne	x28,x21,80000e1c	 x28:0x80009fc4 x21:0x00000692
       68675000	      6866	00000000	00000013	addi	x0,x0,0	  x0:0x00000000
       68685000	      6867	80000e18	00000013	addi	x0,x0,0	  x0:0x00000000
       68695000	      6868	80000e1c	0243fc63	bgeu	x7,x4,80000e54	  x7:0x80009efc  x4:0x00000000
       68705000	      6869	00000000	00000013	addi	x0,x0,0	  x0:0x00000000
       68715000	      6870	80000e50	00000013	addi	x0,x0,0	  x0:0x00000000
       68725000	      6871	80000e54	00be8c63	beq	x29,x11,80000e6c	 x29:0x00000000 x11:0x85d09000
       68735000	      6872	80000e58	014de863	bltu	x27,x20,80000e68	 x27:0x00000000 x20:0xebebc000
       68745000	      6873	00000000	00000013	addi	x0,x0,0	  x0:0x00000000
       68755000	      6874	80000e64	00000013	addi	x0,x0,0	  x0:0x00000000
       68765000	      6875	80000e68	404c00b3	sub	x1,x24,x4	 x24:0xbd8f9d7c  x4:0x00000000  x1=0xbd8f9d7c
       68775000	      6876	80000e6c	00ae6833	or	x16,x28,x10	 x28:0x80009fc4 x10:0x00000000 x16=0x80009fc4
       68785000	      6877	80000e70	87480593	addi	x11,x16,-1932	 x16:0x80009fc4 x11=0x80009838
       68795000	      6878	80000e74	006b50b3	srl	x1,x22,x6	 x22:0x00013f88  x6:0x000001d6  x1=0x00000000
       68805000	      6879	80000e78	bcbd0613	addi	x12,x26,-1077	 x26:0x00000000 x12=0xfffffbcb
       68815000	      6880	80000e7c	00097fb3	and	x31,x18,x0	 x18:0x475a92a9  x0:0x00000000 x31=0x00000000
       68825000	      6881	80000e80	0198ba33	sltu	x20,x17,x25	 x17:0x00000000 x25:0x00013f88 x20=0x00000001
       68835000	      6882	80000e84	04945263	bge	x8,x9,80000ec8	  x8:0xb8c1eb88  x9:0x00000000
       68845000	      6883	80000e88	e6462993	slti	x19,x12,-412	 x12:0xfffffbcb x19=0x00000001
       68855000	      6884	80000e8c	8c118813	addi	x16,x3,-1855	  x3:0x00000000 x16=0xfffff8c1
       68865000	      6885	80000e90	016a3f33	sltu	x30,x20,x22	 x20:0x00000001 x22:0x00013f88 x30=0x00000001
       68875000	      6886	80000e94	0028d133	srl	x2,x17,x2	 x17:0x00000000  x2:0x00000000  x2=0x00000000
       68885000	      6887	80000e98	010452b3	srl	x5,x8,x16	  x8:0xb8c1eb88 x16:0xfffff8c1  x5=0x5c60f5c4
       68895000	      6888	80000e9c	e6a76113	ori	x2,x14,-406	 x14:0x80009fc4  x2=0xffffffee
       68905000	      6889	80000ea0	7674eab7	lui	x21,0x7674e	 x21=0x7674e000
       68915000	      6890	80000ea4	00d44f33	xor	x30,x8,x13	  x8:0xb8c1eb88 x13:0x00000b1a x30=0xb8c1e092
       68925000	      6891	80000ea8	02d27063	bgeu	x4,x13,80000ec8	  x4:0x00000000 x13:0x00000b1a
       68935000	      6892	80000eac	01422133	slt	x2,x4,x20	  x4:0x00000000 x20:0x00000001  x2=0x00000001
       68945000	      6893	80000eb0	05809863	bne	x1,x24,80000f00	  x1:0x00000000 x24:0xbd8f9d7c
       68955000	      6894	00000000	00000013	addi	x0,x0,0	  x0:0x00000000
       68965000	      6895	80000efc	00000013	addi	x0,x0,0	  x0:0x00000000
       68975000	      6896	80000f00	41c884b3	sub	x9,x17,x28	 x17:0x00000000 x28:0x80009fc4  x9=0x7fff603c
       68985000	      6897	80000f04	01dd59b3	srl	x19,x26,x29	 x26:0x00000000 x29:0x00000000 x19=0x00000000
       68995000	      6898	80000f08	c05e5897	auipc	x17,0xc05e5	 x17=0x405e5f04
       69005000	      6899	80000f0c	42014713	xori	x14,x2,1056	  x2:0x00000001 x14=0x00000421
       69015000	      6900	80000f10	046afe63	bgeu	x21,x6,80000f6c	 x21:0x7674e000  x6:0x000001d6
       69025000	      6901	00000000	00000013	addi	x0,x0,0	  x0:0x00000000
       69035000	      6902	80000f68	00000013	addi	x0,x0,0	  x0:0x00000000
       69045000	      6903	80000f6c	b2dc2593	slti	x11,x24,-1235	 x24:0xbd8f9d7c x11=0x00000001
       69055000	      6904	80000f70	00f3feb3	and	x29,x7,x15	  x7:0x80009efc x15:0x00000000 x29=0x00000000
       69065000	      6905	80000f74	0113c4b3	xor	x9,x7,x17	  x7:0x80009efc x17:0x405e5f04  x9=0xc05ec1f8
       69075000	      6906	80000f78	0d92de63	bge	x5,x25,80001054	  x5:0x5c60f5c4 x25:0x00013f88
       69085000	      6907	00000000	00000013	addi	x0,x0,0	  x0:0x00000000
       69095000	      6908	80001050	00000013	addi	x0,x0,0	  x0:0x00000000
       69105000	      6909	80001054	d5b13093	sltiu	x1,x2,-677	  x2:0x00000001  x1=0x00000001
       69115000	      6910	80001058	023e7a63	bgeu	x28,x3,8000108c	 x28:0x80009fc4  x3:0x00000000
       69125000	      6911	00000000	00000013	addi	x0,x0,0	  x0:0x00000000
       69135000	      6912	80001088	00000013	addi	x0,x0,0	  x0:0x00000000
       69145000	      6913	8000108c	04219863	bne	x3,x2,800010dc	  x3:0x00000000  x2:0x00000001
       69155000	      6914	00000000	00000013	addi	x0,x0,0	  x0:0x00000000
       69165000	      6915	800010d8	00000013	addi	x0,x0,0	  x0:0x00000000
       69175000	      6916	800010dc	0c738f13	addi	x30,x7,199	  x7:0x80009efc x30=0x80009fc3
       69185000	      6917	800010e0	0053f233	and	x4,x7,x5	  x7:0x80009efc  x5:0x5c60f5c4  x4=0x000094c4
       69195000	      6918	800010e4	00709263	bne	x1,x7,800010e8	  x1:0x00000001  x7:0x80009efc
       69205000	      6919	00000000	00000013	addi	x0,x0,0	  x0:0x00000000
       69215000	      6920	800010e4	00000013	addi	x0,x0,0	  x0:0x00000000
       69225000	      6921	800010e8	01125463	bge	x4,x17,800010f0	  x4:0x000094c4 x17:0x405e5f04
       69235000	      6922	800010ec	027f0663	beq	x30,x7,80001118	 x30:0x80009fc3  x7:0x80009efc
       69245000	      6923	800010f0	6e4e3413	sltiu	x8,x28,1764	 x28:0x80009fc4  x8=0x00000000
       69255000	      6924	800010f4	ddcceab7	lui	x21,0xddcce	 x21=0xddcce000
       69265000	      6925	800010f8	e0d8ff93	andi	x31,x17,-499	 x17:0x405e5f04 x31=0x405e5e04
       69275000	      6926	800010fc	03135663	bge	x6,x17,80001128	  x6:0x000001d6 x17:0x405e5f04
       69285000	      6927	80001100	017d4633	xor	x12,x26,x23	 x26:0x00000000 x23:0xfffff9ad x12=0xfffff9ad
       69295000	      6928	80001104	048d8863	beq	x27,x8,80001154	 x27:0x00000000  x8:0x00000000
       69305000	      6929	00000000	00000013	addi	x0,x0,0	  x0:0x00000000
       69315000	      6930	80001150	00000013	addi	x0,x0,0	  x0:0x00000000
       69325000	      6931	80001154	460cf8b7	lui	x17,0x460cf	 x17=0x460cf000
       69335000	      6932	80001158	6bc63837	lui	x16,0x6bc63	 x16=0x6bc63000
       69345000	      6933	8000115c	5bc0b713	sltiu	x14,x1,1468	  x1:0x00000001 x14=0x00000001
       69355000	      6934	80001160	0040cfb3	xor	x31,x1,x4	  x1:0x00000001  x4:0x000094c4 x31=0x000094c5
       69365000	      6935	80001164	04021263	bne	x4,x0,800011a8	  x4:0x000094c4  x0:0x00000000
       69375000	      6936	00000000	00000013	addi	x0,x0,0	  x0:0x00000000
       69385000	      6937	800011a4	00000013	addi	x0,x0,0	  x0:0x00000000
       69395000	      6938	800011a8	018a0633	add	x12,x20,x24	 x20:0x00000001 x24:0xbd8f9d7c x12=0xbd8f9d7d
       69405000	      6939	800011ac	0393b493	sltiu	x9,x7,57	  x7:0x80009efc  x9=0x00000000
       69415000	      6940	800011b0	008205b3	add	x11,x4,x8	  x4:0x000094c4  x8:0x00000000 x11=0x000094c4
       69425000	      6941	800011b4	00000013	addi	x0,x0,0	  x0:0x00000000
       69435000	      6942	800011b8	00971863	bne	x14,x9,800011c8	 x14:0x00000001  x9:0x00000000
       69445000	      6943	00000000	00000013	addi	x0,x0,0	  x0:0x00000000
       69455000	      6944	800011c4	00000013	addi	x0,x0,0	  x0:0x00000000
       69465000	      6945	800011c8	01a9a0b3	slt	x1,x19,x26	 x19:0x00000000 x26:0x00000000  x1=0x00000000
       69475000	      6946	800011cc	60363c13	sltiu	x24,x12,1539	 x12:0xbd8f9d7d x24=0x00000000
       69485000	      6947	800011d0	01f3d193	srli	x3,x7,0x1f	  x7:0x80009efc  x3=0x00000001
       69495000	      6948	800011d4	01ee8ab3	add	x21,x29,x30	 x29:0x00000000 x30:0x80009fc3 x21=0x80009fc3
       69505000	      6949	800011d8	00c025b3	slt	x11,x0,x12	  x0:0x00000000 x12:0xbd8f9d7d x11=0x00000000
       69515000	      6950	800011dc	134a8f13	addi	x30,x21,308	 x21:0x80009fc3 x30=0x8000a0f7
       69525000	      6951	800011e0	3f366593	ori	x11,x12,1011	 x12:0xbd8f9d7d x11=0xbd8f9fff
       69535000	      6952	800011e4	0130d593	srli	x11,x1,0x13	  x1:0x00000000 x11=0x00000000
       69545000	      6953	800011e8	d572c713	xori	x14,x5,-681	  x5:0x5c60f5c4 x14=0xa39f0893
       69555000	      6954	800011ec	01095d93	srli	x27,x18,0x10	 x18:0x475a92a9 x27=0x0000475a
       69565000	      6955	800011f0	587d4417	auipc	x8,0x587d4	  x8=0xd87d51ec
       69575000	      6956	800011f4	009ec2b3	xor	x5,x29,x9	 x29:0x00000000  x9:0x00000000  x5=0x00000000
       69585000	      6957	800011f8	00227c63	bgeu	x4,x2,80001210	  x4:0x000094c4  x2:0x00000001
       69595000	      6958	00000000	00000013	addi	x0,x0,0	  x0:0x00000000
       69605000	      6959	8000120c	00000013	addi	x0,x0,0	  x0:0x00000000
       69615000	      6960	80001210	019f3cb3	sltu	x25,x30,x25	 x30:0x8000a0f7 x25:0x00013f88 x25=0x00000000
       69625000	      6961	80001214	02689063	bne	x17,x6,80001234	 x17:0x460cf000  x6:0x000001d6
       69635000	      6962	00000000	00000013	addi	x0,x0,0	  x0:0x00000000
       69645000	      6963	80001230	00000013	addi	x0,x0,0	  x0:0x00000000
       69655000	      6964	80001234	6a93cd13	xori	x26,x7,1705	  x7:0x80009efc x26=0x80009855
       69665000	      6965	80001238	00950a33	add	x20,x10,x9	 x10:0x00000000  x9:0x00000000 x20=0x00000000
       69675000	      6966	8000123c	011de263	bltu	x27,x17,80001240	 x27:0x0000475a x17:0x460cf000
       69685000	      6967	00000000	00000013	addi	x0,x0,0	  x0:0x00000000
       69695000	      6968	8000123c	00000013	addi	x0,x0,0	  x0:0x00000000
       69705000	      6969	80001240	db335c17	auipc	x24,0xdb335	 x24=0x5b33623c
       69715000	      6970	80001244	00620033	add	x0,x4,x6	  x4:0x000094c4  x6:0x000001d6
       69725000	      6971	80001248	00323433	sltu	x8,x4,x3	  x4:0x000094c4  x3:0x00000001  x8=0x00000000
       69735000	      6972	8000124c	03328663	beq	x5,x19,80001278	  x5:0x00000000 x19:0x00000000
       69745000	      6973	00000000	00000013	addi	x0,x0,0	  x0:0x00000000
       69755000	      6974	80001274	00000013	addi	x0,x0,0	  x0:0x00000000
       69765000	      6975	80001278	00b539b3	sltu	x19,x10,x11	 x10:0x00000000 x11:0x00000000 x19=0x00000000
       69775000	      6976	8000127c	01550263	beq	x10,x21,80001280	 x10:0x00000000 x21:0x80009fc3
       69785000	      6977	80001280	4e2fcd93	xori	x27,x31,1250	 x31:0x000094c5 x27=0x00009027
       69795000	      6978	80001284	00e4ac33	slt	x24,x9,x14	  x9:0x00000000 x14:0xa39f0893 x24=0x00000000
       69805000	      6979	80001288	077dec63	bltu	x27,x23,80001300	 x27:0x00009027 x23:0xfffff9ad
       69815000	      6980	00000000	00000013	addi	x0,x0,0	  x0:0x00000000
       69825000	      6981	800012fc	00000013	addi	x0,x0,0	  x0:0x00000000
       69835000	      6982	80001300	00431533	sll	x10,x6,x4	  x6:0x000001d6  x4:0x000094c4 x10=0x00001d60
       69845000	      6983	80001304	00e61613	slli	x12,x12,0xe	 x12:0xbd8f9d7d x12=0xe75f4000
       69855000	      6984	80001308	40b18633	sub	x12,x3,x11	  x3:0x00000001 x11:0x00000000 x12=0x00000001
       69865000	      6985	8000130c	00716433	or	x8,x2,x7	  x2:0x00000001  x7:0x80009efc  x8=0x80009efd
       69875000	      6986	80001310	01ca5633	srl	x12,x20,x28	 x20:0x00000000 x28:0x80009fc4 x12=0x00000000
       69885000	      6987	80001314	40690fb3	sub	x31,x18,x6	 x18:0x475a92a9  x6:0x000001d6 x31=0x475a90d3
       69895000	      6988	80001318	40f0d433	sra	x8,x1,x15	  x1:0x00000000 x15:0x00000000  x8=0x00000000
       69905000	      6989	8000131c	4002d833	sra	x16,x5,x0	  x5:0x00000000  x0:0x00000000 x16=0x00000000
       69915000	      6990	80001320	0105b733	sltu	x14,x11,x16	 x11:0x00000000 x16:0x00000000 x14=0x00000000
       69925000	      6991	80001324	58ff7793	andi	x15,x30,1423	 x30:0x8000a0f7 x15=0x00000087
       69935000	      6992	80001328	417ad9b3	sra	x19,x21,x23	 x21:0x80009fc3 x23:0xfffff9ad x19=0xfffc0004
       69945000	      6993	8000132c	02bdc063	blt	x27,x11,8000134c	 x27:0x00009027 x11:0x00000000
       69955000	      6994	80001330	01e1cab3	xor	x21,x3,x30	  x3:0x00000001 x30:0x8000a0f7 x21=0x8000a0f6
       69965000	      6995	80001334	022d9c63	bne	x27,x2,8000136c	 x27:0x00009027  x2:0x00000001
       69975000	      6996	00000000	00000013	addi	x0,x0,0	  x0:0x00000000
       69985000	      6997	80001368	00000013	addi	x0,x0,0	  x0:0x00000000
       69995000	      6998	8000136c	41e28ab3	sub	x21,x5,x30	  x5:0x00000000 x30:0x8000a0f7 x21=0x7fff5f09
       70005000	      6999	80001370	00000013	addi	x0,x0,0	  x0:0x00000000
       70015000	      7000	80001374	0081e263	bltu	x3,x8,80001378	  x3:0x00000001  x8:0x00000000
       70025000	      7001	80001378	01de0233	add	x4,x28,x29	 x28:0x80009fc4 x29:0x00000000  x4=0x80009fc4
       70035000	      7002	8000137c	018f24b3	slt	x9,x30,x24	 x30:0x8000a0f7 x24:0x00000000  x9=0x00000001
       70045000	      7003	80001380	5c69cd13	xori	x26,x19,1478	 x19:0xfffc0004 x26=0xfffc05c2
       70055000	      7004	80001384	92cc2a13	slti	x20,x24,-1748	 x24:0x00000000 x20=0x00000000
       70065000	      7005	80001388	00965613	srli	x12,x12,0x9	 x12:0x00000000 x12=0x00000000
       70075000	      7006	8000138c	a10c3093	sltiu	x1,x24,-1520	 x24:0x00000000  x1=0x00000001
       70085000	      7007	80001390	018b76b3	and	x13,x22,x24	 x22:0x00013f88 x24:0x00000000 x13=0x00000000
       70095000	      7008	80001394	051ce863	bltu	x25,x17,800013e4	 x25:0x00000000 x17:0x460cf000
       70105000	      7009	00000000	00000013	addi	x0,x0,0	  x0:0x00000000
       70115000	      7010	800013e0	00000013	addi	x0,x0,0	  x0:0x00000000
       70125000	      7011	800013e4	201cfd13	andi	x26,x25,513	 x25:0x00000000 x26=0x00000000
       70135000	      7012	800013e8	010d7863	bgeu	x26,x16,800013f8	 x26:0x00000000 x16:0x00000000
       70145000	      7013	00000000	00000013	addi	x0,x0,0	  x0:0x00000000
       70155000	      7014	800013f4	00000013	addi	x0,x0,0	  x0:0x00000000
       70165000	      7015	800013f8	00bf7c63	bgeu	x30,x11,80001410	 x30:0x8000a0f7 x11:0x00000000
       70175000	      7016	00000000	00000013	addi	x0,x0,0	  x0:0x00000000
       70185000	      7017	8000140c	00000013	addi	x0,x0,0	  x0:0x00000000
       70195000	      7018	80001410	01d7dcb3	srl	x25,x15,x29	 x15:0x00000087 x29:0x00000000 x25=0x00000087
       70205000	      7019	80001414	0156ec63	bltu	x13,x21,8000142c	 x13:0x00000000 x21:0x7fff5f09
       70215000	      7020	00000000	00000013	addi	x0,x0,0	  x0:0x00000000
       70225000	      7021	80001428	00000013	addi	x0,x0,0	  x0:0x00000000
       70235000	      7022	8000142c	00000013	addi	x0,x0,0	  x0:0x00000000
       70245000	      7023	80001430	fff9a313	slti	x6,x19,-1	 x19:0xfffc0004  x6=0x00000001
       70255000	      7024	80001434	00000013	addi	x0,x0,0	  x0:0x00000000
       70265000	      7025	80001438	40845f33	sra	x30,x8,x8	  x8:0x00000000  x8:0x00000000 x30=0x00000000
       70275000	      7026	8000143c	32cf0713	addi	x14,x30,812	 x30:0x00000000 x14=0x0000032c
       70285000	      7027	80001440	01a60a63	beq	x12,x26,80001454	 x12:0x00000000 x26:0x00000000
       70295000	      7028	00000000	00000013	addi	x0,x0,0	  x0:0x00000000
       70305000	      7029	80001450	00000013	addi	x0,x0,0	  x0:0x00000000
       70315000	      7030	80001454	00821233	sll	x4,x4,x8	  x4:0x80009fc4  x8:0x00000000  x4=0x80009fc4
       70325000	      7031	80001458	00abc2b3	xor	x5,x23,x10	 x23:0xfffff9ad x10:0x00001d60  x5=0xffffe4cd
       70335000	      7032	8000145c	41f2dd33	sra	x26,x5,x31	  x5:0xffffe4cd x31:0x475a90d3 x26=0xffffffff
       70345000	      7033	80001460	01728f33	add	x30,x5,x23	  x5:0xffffe4cd x23:0xfffff9ad x30=0xffffde7a
       70355000	      7034	80001464	419c04b3	sub	x9,x24,x25	 x24:0x00000000 x25:0x00000087  x9=0xffffff79
       70365000	      7035	80001468	d4a14f13	xori	x30,x2,-694	  x2:0x00000001 x30=0xfffffd4b
       70375000	      7036	8000146c	049a7263	bgeu	x20,x9,800014b0	 x20:0x00000000  x9:0xffffff79
       70385000	      7037	80001470	2634a893	slti	x17,x9,611	  x9:0xffffff79 x17=0x00000001
       70395000	      7038	80001474	0040f233	and	x4,x1,x4	  x1:0x00000001  x4:0x80009fc4  x4=0x00000000
       70405000	      7039	80001478	4076d4b3	sra	x9,x13,x7	 x13:0x00000000  x7:0x80009efc  x9=0x00000000
       70415000	      7040	8000147c	00000013	addi	x0,x0,0	  x0:0x00000000
       70425000	      7041	80001480	00de0863	beq	x28,x13,80001490	 x28:0x80009fc4 x13:0x00000000
       70435000	      7042	80001484	015e1893	slli	x17,x28,0x15	 x28:0x80009fc4 x17=0xf8800000
       70445000	      7043	80001488	2d830c93	addi	x25,x6,728	  x6:0x00000001 x25=0x000002d9
       70455000	      7044	8000148c	41ba5f93	srai	x31,x20,0x1b	 x20:0x00000000 x31=0x00000000
       70465000	      7045	80001490	0397ea63	bltu	x15,x25,800014c4	 x15:0x00000087 x25:0x000002d9
       70475000	      7046	00000000	00000013	addi	x0,x0,0	  x0:0x00000000
       70485000	      7047	800014c0	00000013	addi	x0,x0,0	  x0:0x00000000
       70495000	      7048	800014c4	03015063	bge	x2,x16,800014e4	  x2:0x00000001 x16:0x00000000
       70505000	      7049	00000000	00000013	addi	x0,x0,0	  x0:0x00000000
       70515000	      7050	800014e0	00000013	addi	x0,x0,0	  x0:0x00000000
       70525000	      7051	800014e4	01c46c33	or	x24,x8,x28	  x8:0x00000000 x28:0x80009fc4 x24=0x80009fc4
       70535000	      7052	800014e8	039dda63	bge	x27,x25,8000151c	 x27:0x00009027 x25:0x000002d9
       70545000	      7053	00000000	00000013	addi	x0,x0,0	  x0:0x00000000
       70555000	      7054	80001518	00000013	addi	x0,x0,0	  x0:0x00000000
       70565000	      7055	8000151c	00619a13	slli	x20,x3,0x6	  x3:0x00000001 x20=0x00000040
       70575000	      7056	80001520	057b7863	bgeu	x22,x23,80001570	 x22:0x00013f88 x23:0xfffff9ad
       70585000	      7057	80001524	003c59b3	srl	x19,x24,x3	 x24:0x80009fc4  x3:0x00000001 x19=0x40004fe2
       70595000	      7058	80001528	00547533	and	x10,x8,x5	  x8:0x00000000  x5:0xffffe4cd x10=0x00000000
       70605000	      7059	8000152c	00de3cb3	sltu	x25,x28,x13	 x28:0x80009fc4 x13:0x00000000 x25=0x00000000
       70615000	      7060	80001530	04834063	blt	x6,x8,80001570	  x6:0x00000001  x8:0x00000000
       70625000	      7061	80001534	01ed7a63	bgeu	x26,x30,80001548	 x26:0xffffffff x30:0xfffffd4b
       70635000	      7062	00000000	00000013	addi	x0,x0,0	  x0:0x00000000
       70645000	      7063	80001544	00000013	addi	x0,x0,0	  x0:0x00000000
       70655000	      7064	80001548	7e292813	slti	x16,x18,2018	 x18:0x475a92a9 x16=0x00000000
       70665000	      7065	8000154c	007be863	bltu	x23,x7,8000155c	 x23:0xfffff9ad  x7:0x80009efc
       70675000	      7066	80001550	ee488713	addi	x14,x17,-284	 x17:0xf8800000 x14=0xf87ffee4
       70685000	      7067	80001554	01a45fb3	srl	x31,x8,x26	  x8:0x00000000 x26:0xffffffff x31=0x00000000
       70695000	      7068	80001558	018b44b3	xor	x9,x22,x24	 x22:0x00013f88 x24:0x80009fc4  x9=0x8001a04c
       70705000	      7069	8000155c	40b85033	sra	x0,x16,x11	 x16:0x00000000 x11:0x00000000
       70715000	      7070	80001560	03706663	bltu	x0,x23,8000158c	  x0:0x00000000 x23:0xfffff9ad
       70725000	      7071	00000000	00000013	addi	x0,x0,0	  x0:0x00000000
       70735000	      7072	80001588	00000013	addi	x0,x0,0	  x0:0x00000000
       70745000	      7073	8000158c	00864433	xor	x8,x12,x8	 x12:0x00000000  x8:0x00000000  x8=0x00000000
       70755000	      7074	80001590	019cd113	srli	x2,x25,0x19	 x25:0x00000000  x2=0x00000000
       70765000	      7075	80001594	40a35d13	srai	x26,x6,0xa	  x6:0x00000001 x26=0x00000000
       70775000	      7076	80001598	459d2593	slti	x11,x26,1113	 x26:0x00000000 x11=0x00000001
       70785000	      7077	8000159c	04985263	bge	x16,x9,800015e0	 x16:0x00000000  x9:0x8001a04c
       70795000	      7078	00000000	00000013	addi	x0,x0,0	  x0:0x00000000
       70805000	      7079	800015dc	00000013	addi	x0,x0,0	  x0:0x00000000
       70815000	      7080	800015e0	010c5a93	srli	x21,x24,0x10	 x24:0x80009fc4 x21=0x00008000
       70825000	      7081	800015e4	01129c33	sll	x24,x5,x17	  x5:0xffffe4cd x17:0xf8800000 x24=0xffffe4cd
       70835000	      7082	800015e8	bb251f17	auipc	x30,0xbb251	 x30=0x3b2525e4
       70845000	      7083	800015ec	dc5c3a13	sltiu	x20,x24,-571	 x24:0xffffe4cd x20=0x00000001
       70855000	      7084	800015f0	00000013	addi	x0,x0,0	  x0:0x00000000
       70865000	      7085	800015f4	41080b33	sub	x22,x16,x16	 x16:0x00000000 x16:0x00000000 x22=0x00000000
       70875000	      7086	800015f8	edb58813	addi	x16,x11,-293	 x11:0x00000001 x16=0xfffffedc
       70885000	      7087	800015fc	41b30a33	sub	x20,x6,x27	  x6:0x00000001 x27:0x00009027 x20=0xffff6fda
       70895000	      7088	80001600	02d2c663	blt	x5,x13,8000162c	  x5:0xffffe4cd x13:0x00000000
       70905000	      7089	00000000	00000013	addi	x0,x0,0	  x0:0x00000000
       70915000	      7090	80001628	00000013	addi	x0,x0,0	  x0:0x00000000
       70925000	      7091	8000162c	12718713	addi	x14,x3,295	  x3:0x00000001 x14=0x00000128
       70935000	      7092	80001630	7fd7f713	andi	x14,x15,2045	 x15:0x00000087 x14=0x00000085
       70945000	      7093	80001634	40b1d713	srai	x14,x3,0xb	  x3:0x00000001 x14=0x00000000
       70955000	      7094	80001638	00000013	addi	x0,x0,0	  x0:0x00000000
       70965000	      7095	8000163c	40eb84b3	sub	x9,x23,x14	 x23:0xfffff9ad x14:0x00000000  x9=0xfffff9ad
       70975000	      7096	80001640	00e99793	slli	x15,x19,0xe	 x19:0x40004fe2 x15=0x13f88000
       70985000	      7097	80001644	40785713	srai	x14,x16,0x7	 x16:0xfffffedc x14=0xfffffffd
       70995000	      7098	80001648	78317d13	andi	x26,x2,1923	  x2:0x00000000 x26=0x00000000
       71005000	      7099	8000164c	01b3e1b3	or	x3,x7,x27	  x7:0x80009efc x27:0x00009027  x3=0x80009eff
       71015000	      7100	80001650	8b277413	andi	x8,x14,-1870	 x14:0xfffffffd  x8=0xfffff8b0
       71025000	      7101	80001654	6688f137	lui	x2,0x6688f	  x2=0x6688f000
       71035000	      7102	80001658	892a8593	addi	x11,x21,-1902	 x21:0x00008000 x11=0x00007892
       71045000	      7103	8000165c	0de1d463	bge	x3,x30,80001724	  x3:0x80009eff x30:0x3b2525e4
       71055000	      7104	80001660	32f2a797	auipc	x15,0x32f2a	 x15=0xb2f2b65c
       71065000	      7105	80001664	401dd433	sra	x8,x27,x1	 x27:0x00009027  x1:0x00000001  x8=0x00004813
       71075000	      7106	80001668	00e9bd33	sltu	x26,x19,x14	 x19:0x40004fe2 x14:0xfffffffd x26=0x00000001
       71085000	      7107	8000166c	01683a33	sltu	x20,x16,x22	 x16:0xfffffedc x22:0x00000000 x20=0x00000000
       71095000	      7108	80001670	00008117	auipc	x2,0x8	  x2=0x8000966c
       71105000	      7109	80001674	89910113	addi	x2,x2,-1895	  x2:0x8000966c  x2=0x80008f05
       71115000	      7110	80001678	a1083313	sltiu	x6,x16,-1520	 x16:0xfffffedc  x6=0x00000000
       71125000	      7111	8000167c	e8b12f03	lw	x30,-373(x2)	  x2:0x80008f05 x30=0x00000001 PA:0x80008d90
       71135000	      7112	80001680	01b709b3	add	x19,x14,x27	 x14:0xfffffffd x27:0x00009027 x19=0x00009024
       71145000	      7113	80001684	41b7d713	srai	x14,x15,0x1b	 x15:0xb2f2b65c x14=0xfffffff6
       71155000	      7114	80001688	00164633	xor	x12,x12,x1	 x12:0x00000000  x1:0x00000001 x12=0x00000001
       71165000	      7115	8000168c	1c5fcc93	xori	x25,x31,453	 x31:0x00000000 x25=0x000001c5
       71175000	      7116	80001690	019666b3	or	x13,x12,x25	 x12:0x00000001 x25:0x000001c5 x13=0x000001c5
       71185000	      7117	80001694	403d0cb3	sub	x25,x26,x3	 x26:0x00000001  x3:0x80009eff x25=0x7fff6102
       71195000	      7118	80001698	aa915c83	lhu	x25,-1367(x2)	  x2:0x80008f05 x25=0x00000000 PA:0x800089ae
       71205000	      7119	8000169c	b0510123	sb	x5,-1278(x2)	  x2:0x80008f05  x5:0xffffe4cd PA:0x80008a07
       71215000	      7120	800016a0	cc9119a3	sh	x9,-813(x2)	  x2:0x80008f05  x9:0xfffff9ad PA:0x80008bd8
       71225000	      7121	800016a4	010aadb3	slt	x27,x21,x16	 x21:0x00008000 x16:0xfffffedc x27=0x00000000
       71235000	      7122	800016a8	019a6fb3	or	x31,x20,x25	 x20:0x00000000 x25:0x00000000 x31=0x00000000
       71245000	      7123	800016ac	0031adb3	slt	x27,x3,x3	  x3:0x80009eff  x3:0x80009eff x27=0x00000000
       71255000	      7124	800016b0	f36e4a93	xori	x21,x28,-202	 x28:0x80009fc4 x21=0x7fff60f2
       71265000	      7125	800016b4	01c4af33	slt	x30,x9,x28	  x9:0xfffff9ad x28:0x80009fc4 x30=0x00000000
       71275000	      7126	800016b8	00000013	addi	x0,x0,0	  x0:0x00000000
       71285000	      7127	800016bc	9ab11da3	sh	x11,-1605(x2)	  x2:0x80008f05 x11:0x00007892 PA:0x800088c0
       71295000	      7128	800016c0	59c3bc93	sltiu	x25,x7,1436	  x7:0x80009efc x25=0x00000000
       71305000	      7129	800016c4	aad12ba3	sw	x13,-1353(x2)	  x2:0x80008f05 x13:0x000001c5 PA:0x800089bc
       71315000	      7130	800016c8	ab214183	lbu	x3,-1358(x2)	  x2:0x80008f05  x3=0x00000000 PA:0x800089b7
       71325000	      7131	800016cc	01db0333	add	x6,x22,x29	 x22:0x00000000 x29:0x00000000  x6=0x00000000
       71335000	      7132	800016d0	005cca33	xor	x20,x25,x5	 x25:0x00000000  x5:0xffffe4cd x20=0xffffe4cd
       71345000	      7133	800016d4	fc9100a3	sb	x9,-63(x2)	  x2:0x80008f05  x9:0xfffff9ad PA:0x80008ec6
       71355000	      7134	800016d8	e5711a83	lh	x21,-425(x2)	  x2:0x80008f05 x21=0x00000000 PA:0x80008d5c
       71365000	      7135	800016dc	6bd4aa93	slti	x21,x9,1725	  x9:0xfffff9ad x21=0x00000001
       71375000	      7136	800016e0	41f9d513	srai	x10,x19,0x1f	 x19:0x00009024 x10=0x00000000
       71385000	      7137	800016e4	ee9109a3	sb	x9,-269(x2)	  x2:0x80008f05  x9:0xfffff9ad PA:0x80008df8
       71395000	      7138	800016e8	013084b3	add	x9,x1,x19	  x1:0x00000001 x19:0x00009024  x9=0x00009025
       71405000	      7139	800016ec	fc0e3197	auipc	x3,0xfc0e3	  x3=0x7c0e46e8
       71415000	      7140	800016f0	01197863	bgeu	x18,x17,80001700	 x18:0x475a92a9 x17:0xf8800000
       71425000	      7141	800016f4	00ae8293	addi	x5,x29,10	 x29:0x00000000  x5=0x0000000a
       71435000	      7142	800016f8	00d05993	srli	x19,x0,0xd	  x0:0x00000000 x19=0x00000000
       71445000	      7143	800016fc	00f87633	and	x12,x16,x15	 x16:0xfffffedc x15:0xb2f2b65c x12=0xb2f2b65c
       71455000	      7144	80001700	e9520193	addi	x3,x4,-363	  x4:0x00000000  x3=0xfffffe95
       71465000	      7145	80001704	01a48333	add	x6,x9,x26	  x9:0x00009025 x26:0x00000001  x6=0x00009026
       71475000	      7146	80001708	015b6463	bltu	x22,x21,80001710	 x22:0x00000000 x21:0x00000001
       71485000	      7147	00000000	00000013	addi	x0,x0,0	  x0:0x00000000
       71495000	      7148	8000170c	00000013	addi	x0,x0,0	  x0:0x00000000
       71505000	      7149	80001710	007700b3	add	x1,x14,x7	 x14:0xfffffff6  x7:0x80009efc  x1=0x80009ef2
       71515000	      7150	80001714	16678b93	addi	x23,x15,358	 x15:0xb2f2b65c x23=0xb2f2b7c2
       71525000	      7151	80001718	87982493	slti	x9,x16,-1927	 x16:0xfffffedc  x9=0x00000000
       71535000	      7152	8000171c	01ab8733	add	x14,x23,x26	 x23:0xb2f2b7c2 x26:0x00000001 x14=0xb2f2b7c3
       71545000	      7153	80001720	016514b3	sll	x9,x10,x22	 x10:0x00000000 x22:0x00000000  x9=0x00000000
       71555000	      7154	80001724	00f722b3	slt	x5,x14,x15	 x14:0xb2f2b7c3 x15:0xb2f2b65c  x5=0x00000000
       71565000	      7155	80001728	00aaaab3	slt	x21,x21,x10	 x21:0x00000001 x10:0x00000000 x21=0x00000000
       71575000	      7156	8000172c	406284b3	sub	x9,x5,x6	  x5:0x00000000  x6:0x00009026  x9=0xffff6fda
       71585000	      7157	80001730	b452b693	sltiu	x13,x5,-1211	  x5:0x00000000 x13=0x00000001
       71595000	      7158	80001734	47b9bb93	sltiu	x23,x19,1147	 x19:0x00000000 x23=0x00000001
       71605000	      7159	80001738	004fbc33	sltu	x24,x31,x4	 x31:0x00000000  x4:0x00000000 x24=0x00000000
       71615000	      7160	8000173c	7c4c8693	addi	x13,x25,1988	 x25:0x00000000 x13=0x000007c4
       71625000	      7161	80001740	44f02a93	slti	x21,x0,1103	  x0:0x00000000 x21=0x00000001
       71635000	      7162	80001744	01283cb3	sltu	x25,x16,x18	 x16:0xfffffedc x18:0x475a92a9 x25=0x00000000
       71645000	      7163	80001748	41edd233	sra	x4,x27,x30	 x27:0x00000000 x30:0x00000000  x4=0x00000000
       71655000	      7164	8000174c	40e4b713	sltiu	x14,x9,1038	  x9:0xffff6fda x14=0x00000000
       71665000	      7165	80001750	00000013	addi	x0,x0,0	  x0:0x00000000
       71675000	      7166	80001754	71823d93	sltiu	x27,x4,1816	  x4:0x00000000 x27=0x00000001
       71685000	      7167	80001758	0216d463	bge	x13,x1,80001780	 x13:0x000007c4  x1:0x80009ef2
       71695000	      7168	00000000	00000013	addi	x0,x0,0	  x0:0x00000000
       71705000	      7169	8000177c	00000013	addi	x0,x0,0	  x0:0x00000000
       71715000	      7170	80001780	4029d833	sra	x16,x19,x2	 x19:0x00000000  x2:0x80008f05 x16=0x00000000
       71725000	      7171	80001784	00000013	addi	x0,x0,0	  x0:0x00000000
       71735000	      7172	80001788	002aebb3	or	x23,x21,x2	 x21:0x00000001  x2:0x80008f05 x23=0x80008f05
       71745000	      7173	8000178c	41695bb3	sra	x23,x18,x22	 x18:0x475a92a9 x22:0x00000000 x23=0x475a92a9
       71755000	      7174	80001790	00689493	slli	x9,x17,0x6	 x17:0xf8800000  x9=0x20000000
       71765000	      7175	80001794	d02a8b13	addi	x22,x21,-766	 x21:0x00000001 x22=0xfffffd03
       71775000	      7176	80001798	0101b533	sltu	x10,x3,x16	  x3:0xfffffe95 x16:0x00000000 x10=0x00000000
       71785000	      7177	8000179c	00bb25b3	slt	x11,x22,x11	 x22:0xfffffd03 x11:0x00007892 x11=0x00000001
       71795000	      7178	800017a0	407c8b33	sub	x22,x25,x7	 x25:0x00000000  x7:0x80009efc x22=0x7fff6104
       71805000	      7179	800017a4	003facb3	slt	x25,x31,x3	 x31:0x00000000  x3:0xfffffe95 x25=0x00000000
       71815000	      7180	800017a8	05c19863	bne	x3,x28,800017f8	  x3:0xfffffe95 x28:0x80009fc4
       71825000	      7181	00000000	00000013	addi	x0,x0,0	  x0:0x00000000
       71835000	      7182	800017f4	00000013	addi	x0,x0,0	  x0:0x00000000
       71845000	      7183	800017f8	00f028b3	slt	x17,x0,x15	  x0:0x00000000 x15:0xb2f2b65c x17=0x00000000
       71855000	      7184	800017fc	00000013	addi	x0,x0,0	  x0:0x00000000
       71865000	      7185	80001800	00000013	addi	x0,x0,0	  x0:0x00000000
       71875000	      7186	80001804	00f1aa33	slt	x20,x3,x15	  x3:0xfffffe95 x15:0xb2f2b65c x20=0x00000000
       71885000	      7187	80001808	01c37263	bgeu	x6,x28,8000180c	  x6:0x00009026 x28:0x80009fc4
       71895000	      7188	8000180c	275c3c13	sltiu	x24,x24,629	 x24:0x00000000 x24=0x00000001
       71905000	      7189	80001810	01d89f13	slli	x30,x17,0x1d	 x17:0x00000000 x30=0x00000000
       71915000	      7190	80001814	006f3733	sltu	x14,x30,x6	 x30:0x00000000  x6:0x00009026 x14=0x00000001
       71925000	      7191	80001818	3a367313	andi	x6,x12,931	 x12:0xb2f2b65c  x6=0x00000200
       71935000	      7192	8000181c	00000013	addi	x0,x0,0	  x0:0x00000000
       71945000	      7193	80001820	8e6db813	sltiu	x16,x27,-1818	 x27:0x00000001 x16=0x00000001
       71955000	      7194	80001824	82eb8993	addi	x19,x23,-2002	 x23:0x475a92a9 x19=0x475a8ad7
       71965000	      7195	80001828	0382ca63	blt	x5,x24,8000185c	  x5:0x00000000 x24:0x00000001
       71975000	      7196	00000000	00000013	addi	x0,x0,0	  x0:0x00000000
       71985000	      7197	80001858	00000013	addi	x0,x0,0	  x0:0x00000000
       71995000	      7198	8000185c	41755013	srai	x0,x10,0x17	 x10:0x00000000
       72005000	      7199	80001860	732ecf93	xori	x31,x29,1842	 x29:0x00000000 x31=0x00000732
       72015000	      7200	80001864	0045cc63	blt	x11,x4,8000187c	 x11:0x00000001  x4:0x00000000
       72025000	      7201	80001868	047de863	bltu	x27,x7,800018b8	 x27:0x00000001  x7:0x80009efc
       72035000	      7202	00000000	00000013	addi	x0,x0,0	  x0:0x00000000
       72045000	      7203	800018b4	00000013	addi	x0,x0,0	  x0:0x00000000
       72055000	      7204	800018b8	008258b3	srl	x17,x4,x8	  x4:0x00000000  x8:0x00004813 x17=0x00000000
       72065000	      7205	800018bc	050c8863	beq	x25,x16,8000190c	 x25:0x00000000 x16:0x00000001
       72075000	      7206	800018c0	00f4ffb3	and	x31,x9,x15	  x9:0x20000000 x15:0xb2f2b65c x31=0x20000000
       72085000	      7207	800018c4	011806b3	add	x13,x16,x17	 x16:0x00000001 x17:0x00000000 x13=0x00000001
       72095000	      7208	800018c8	03f7e063	bltu	x15,x31,800018e8	 x15:0xb2f2b65c x31:0x20000000
       72105000	      7209	800018cc	0441d263	bge	x3,x4,80001910	  x3:0xfffffe95  x4:0x00000000
       72115000	      7210	800018d0	01581c93	slli	x25,x16,0x15	 x16:0x00000001 x25=0x00200000
       72125000	      7211	800018d4	00baf8b3	and	x17,x21,x11	 x21:0x00000001 x11:0x00000001 x17=0x00000001
       72135000	      7212	800018d8	00000013	addi	x0,x0,0	  x0:0x00000000
       72145000	      7213	800018dc	40bfd013	srai	x0,x31,0xb	 x31:0x20000000
       72155000	      7214	800018e0	4e8b7b93	andi	x23,x22,1256	 x22:0x7fff6104 x23=0x00000000
       72165000	      7215	800018e4	0231dc63	bge	x3,x3,8000191c	  x3:0xfffffe95  x3:0xfffffe95
       72175000	      7216	00000000	00000013	addi	x0,x0,0	  x0:0x00000000
       72185000	      7217	80001918	00000013	addi	x0,x0,0	  x0:0x00000000
       72195000	      7218	8000191c	015cd863	bge	x25,x21,8000192c	 x25:0x00200000 x21:0x00000001
       72205000	      7219	00000000	00000013	addi	x0,x0,0	  x0:0x00000000
       72215000	      7220	80001928	00000013	addi	x0,x0,0	  x0:0x00000000
       72225000	      7221	8000192c	015a05b3	add	x11,x20,x21	 x20:0x00000000 x21:0x00000001 x11=0x00000001
       72235000	      7222	80001930	00679b93	slli	x23,x15,0x6	 x15:0xb2f2b65c x23=0xbcad9700
       72245000	      7223	80001934	0098e4b3	or	x9,x17,x9	 x17:0x00000001  x9:0x20000000  x9=0x20000001
       72255000	      7224	80001938	e3c22637	lui	x12,0xe3c22	 x12=0xe3c22000
       72265000	      7225	8000193c	01fc2bb3	slt	x23,x24,x31	 x24:0x00000001 x31:0x20000000 x23=0x00000001
       72275000	      7226	80001940	40ad5313	srai	x6,x26,0xa	 x26:0x00000001  x6=0x00000000
       72285000	      7227	80001944	03154c63	blt	x10,x17,8000197c	 x10:0x00000000 x17:0x00000001
       72295000	      7228	00000000	00000013	addi	x0,x0,0	  x0:0x00000000
       72305000	      7229	80001978	00000013	addi	x0,x0,0	  x0:0x00000000
       72315000	      7230	8000197c	00000013	addi	x0,x0,0	  x0:0x00000000
       72325000	      7231	80001980	12988693	addi	x13,x17,297	 x17:0x00000001 x13=0x0000012a
       72335000	      7232	80001984	016bf833	and	x16,x23,x22	 x23:0x00000001 x22:0x7fff6104 x16=0x00000000
       72345000	      7233	80001988	41a48133	sub	x2,x9,x26	  x9:0x20000001 x26:0x00000001  x2=0x20000000
       72355000	      7234	8000198c	7f5d6a13	ori	x20,x26,2037	 x26:0x00000001 x20=0x000007f5
       72365000	      7235	80001990	4d92bf93	sltiu	x31,x5,1241	  x5:0x00000000 x31=0x00000001
       72375000	      7236	80001994	00e56663	bltu	x10,x14,800019a0	 x10:0x00000000 x14:0x00000001
       72385000	      7237	00000000	00000013	addi	x0,x0,0	  x0:0x00000000
       72395000	      7238	8000199c	00000013	addi	x0,x0,0	  x0:0x00000000
       72405000	      7239	800019a0	002bd133	srl	x2,x23,x2	 x23:0x00000001  x2:0x20000000  x2=0x00000001
       72415000	      7240	800019a4	01c06cb3	or	x25,x0,x28	  x0:0x00000000 x28:0x80009fc4 x25=0x80009fc4
       72425000	      7241	800019a8	401957b3	sra	x15,x18,x1	 x18:0x475a92a9  x1:0x80009ef2 x15=0x000011d6
       72435000	      7242	800019ac	003c4463	blt	x24,x3,800019b4	 x24:0x00000001  x3:0xfffffe95
       72445000	      7243	800019b0	41be5513	srai	x10,x28,0x1b	 x28:0x80009fc4 x10=0xfffffff0
       72455000	      7244	800019b4	00f7f263	bgeu	x15,x15,800019b8	 x15:0x000011d6 x15:0x000011d6
       72465000	      7245	00000000	00000013	addi	x0,x0,0	  x0:0x00000000
       72475000	      7246	800019b4	00000013	addi	x0,x0,0	  x0:0x00000000
       72485000	      7247	800019b8	00a98eb3	add	x29,x19,x10	 x19:0x475a8ad7 x10:0xfffffff0 x29=0x475a8ac7
       72495000	      7248	800019bc	01e9f4b3	and	x9,x19,x30	 x19:0x475a8ad7 x30:0x00000000  x9=0x00000000
       72505000	      7249	800019c0	af00ed93	ori	x27,x1,-1296	  x1:0x80009ef2 x27=0xfffffef2
       72515000	      7250	800019c4	01610463	beq	x2,x22,800019cc	  x2:0x00000001 x22:0x7fff6104
       72525000	      7251	800019c8	417cd433	sra	x8,x25,x23	 x25:0x80009fc4 x23:0x00000001  x8=0xc0004fe2
       72535000	      7252	800019cc	40945093	srai	x1,x8,0x9	  x8:0xc0004fe2  x1=0xffe00027
       72545000	      7253	800019d0	6442eb13	ori	x22,x5,1604	  x5:0x00000000 x22=0x00000644
       72555000	      7254	800019d4	013b1463	bne	x22,x19,800019dc	 x22:0x00000644 x19:0x475a8ad7
       72565000	      7255	00000000	00000013	addi	x0,x0,0	  x0:0x00000000
       72575000	      7256	800019d8	00000013	addi	x0,x0,0	  x0:0x00000000
       72585000	      7257	800019dc	bc067f93	andi	x31,x12,-1088	 x12:0xe3c22000 x31=0xe3c22000
       72595000	      7258	800019e0	0019df33	srl	x30,x19,x1	 x19:0x475a8ad7  x1:0xffe00027 x30=0x008eb515
       72605000	      7259	800019e4	01f6d993	srli	x19,x13,0x1f	 x13:0x0000012a x19=0x00000000
       72615000	      7260	800019e8	40f1d133	sra	x2,x3,x15	  x3:0xfffffe95 x15:0x000011d6  x2=0xffffffff
       72625000	      7261	800019ec	007a2333	slt	x6,x20,x7	 x20:0x000007f5  x7:0x80009efc  x6=0x00000000
       72635000	      7262	800019f0	00160b33	add	x22,x12,x1	 x12:0xe3c22000  x1:0xffe00027 x22=0xe3a22027
       72645000	      7263	800019f4	412f88b3	sub	x17,x31,x18	 x31:0xe3c22000 x18:0x475a92a9 x17=0x9c678d57
       72655000	      7264	800019f8	de937b13	andi	x22,x6,-535	  x6:0x00000000 x22=0x00000000
       72665000	      7265	800019fc	40f0d1b3	sra	x3,x1,x15	  x1:0xffe00027 x15:0x000011d6  x3=0xffffffff
       72675000	      7266	80001a00	00615c63	bge	x2,x6,80001a18	  x2:0xffffffff  x6:0x00000000
       72685000	      7267	80001a04	c0c3b993	sltiu	x19,x7,-1012	  x7:0x80009efc x19=0x00000001
       72695000	      7268	80001a08	c0f10013	addi	x0,x2,-1009	  x2:0xffffffff
       72705000	      7269	80001a0c	01da3433	sltu	x8,x20,x29	 x20:0x000007f5 x29:0x475a8ac7  x8=0x00000001
       72715000	      7270	80001a10	0141f0b3	and	x1,x3,x20	  x3:0xffffffff x20:0x000007f5  x1=0x000007f5
       72725000	      7271	80001a14	004682b3	add	x5,x13,x4	 x13:0x0000012a  x4:0x00000000  x5=0x0000012a
       72735000	      7272	80001a18	03227063	bgeu	x4,x18,80001a38	  x4:0x00000000 x18:0x475a92a9
       72745000	      7273	80001a1c	4293a517	auipc	x10,0x4293a	 x10=0xc293ba18
       72755000	      7274	80001a20	a8332b93	slti	x23,x6,-1405	  x6:0x00000000 x23=0x00000000
       72765000	      7275	80001a24	40db0833	sub	x16,x22,x13	 x22:0x00000000 x13:0x0000012a x16=0xfffffed6
       72775000	      7276	80001a28	00b67263	bgeu	x12,x11,80001a2c	 x12:0xe3c22000 x11:0x00000001
       72785000	      7277	00000000	00000013	addi	x0,x0,0	  x0:0x00000000
       72795000	      7278	80001a28	00000013	addi	x0,x0,0	  x0:0x00000000
       72805000	      7279	80001a2c	41edd413	srai	x8,x27,0x1e	 x27:0xfffffef2  x8=0xffffffff
       72815000	      7280	80001a30	e6997a93	andi	x21,x18,-407	 x18:0x475a92a9 x21=0x475a9229
       72825000	      7281	80001a34	23a1b993	sltiu	x19,x3,570	  x3:0xffffffff x19=0x00000000
       72835000	      7282	80001a38	017b3bb3	sltu	x23,x22,x23	 x22:0x00000000 x23:0x00000000 x23=0x00000000
       72845000	      7283	80001a3c	1a706513	ori	x10,x0,423	  x0:0x00000000 x10=0x000001a7
       72855000	      7284	80001a40	006ce4b3	or	x9,x25,x6	 x25:0x80009fc4  x6:0x00000000  x9=0x80009fc4
       72865000	      7285	80001a44	009e38b3	sltu	x17,x28,x9	 x28:0x80009fc4  x9:0x80009fc4 x17=0x00000000
       72875000	      7286	80001a48	32217797	auipc	x15,0x32217	 x15=0xb2218a44
       72885000	      7287	80001a4c	01bb35b3	sltu	x11,x22,x27	 x22:0x00000000 x27:0xfffffef2 x11=0x00000001
       72895000	      7288	80001a50	00b41c63	bne	x8,x11,80001a68	  x8:0xffffffff x11:0x00000001
       72905000	      7289	00000000	00000013	addi	x0,x0,0	  x0:0x00000000
       72915000	      7290	80001a64	00000013	addi	x0,x0,0	  x0:0x00000000
       72925000	      7291	80001a68	8cab3497	auipc	x9,0x8cab3	  x9=0x0cab4a64
       72935000	      7292	80001a6c	010dacb3	slt	x25,x27,x16	 x27:0xfffffef2 x16:0xfffffed6 x25=0x00000000
       72945000	      7293	80001a70	8a927d13	andi	x26,x4,-1879	  x4:0x00000000 x26=0x00000000
       72955000	      7294	80001a74	04f64263	blt	x12,x15,80001ab8	 x12:0xe3c22000 x15:0xb2218a44
       72965000	      7295	80001a78	04454063	blt	x10,x4,80001ab8	 x10:0x000001a7  x4:0x00000000
       72975000	      7296	80001a7c	402d8bb3	sub	x23,x27,x2	 x27:0xfffffef2  x2:0xffffffff x23=0xfffffef3
       72985000	      7297	80001a80	a3627f93	andi	x31,x4,-1482	  x4:0x00000000 x31=0x00000000
       72995000	      7298	80001a84	00000013	addi	x0,x0,0	  x0:0x00000000
       73005000	      7299	80001a88	00000013	addi	x0,x0,0	  x0:0x00000000
       73015000	      7300	80001a8c	8936a893	slti	x17,x13,-1901	 x13:0x0000012a x17=0x00000000
       73025000	      7301	80001a90	00251793	slli	x15,x10,0x2	 x10:0x000001a7 x15=0x0000069c
       73035000	      7302	80001a94	00000013	addi	x0,x0,0	  x0:0x00000000
       73045000	      7303	80001a98	01cc1c33	sll	x24,x24,x28	 x24:0x00000001 x28:0x80009fc4 x24=0x00000010
       73055000	      7304	80001a9c	f8b9a693	slti	x13,x19,-117	 x19:0x00000000 x13=0x00000000
       73065000	      7305	80001aa0	40470a33	sub	x20,x14,x4	 x14:0x00000001  x4:0x00000000 x20=0x00000001
       73075000	      7306	80001aa4	00b31a13	slli	x20,x6,0xb	  x6:0x00000000 x20=0x00000000
       73085000	      7307	80001aa8	00d3e233	or	x4,x7,x13	  x7:0x80009efc x13:0x00000000  x4=0x80009efc
       73095000	      7308	80001aac	04338863	beq	x7,x3,80001afc	  x7:0x80009efc  x3:0xffffffff
       73105000	      7309	80001ab0	00871ab3	sll	x21,x14,x8	 x14:0x00000001  x8:0xffffffff x21=0x80000000
       73115000	      7310	80001ab4	877df213	andi	x4,x27,-1929	 x27:0xfffffef2  x4=0xfffff872
       73125000	      7311	80001ab8	001b0a33	add	x20,x22,x1	 x22:0x00000000  x1:0x000007f5 x20=0x000007f5
       73135000	      7312	80001abc	00c75863	bge	x14,x12,80001acc	 x14:0x00000001 x12:0xe3c22000
       73145000	      7313	00000000	00000013	addi	x0,x0,0	  x0:0x00000000
       73155000	      7314	80001ac8	00000013	addi	x0,x0,0	  x0:0x00000000
       73165000	      7315	80001acc	a55c80b7	lui	x1,0xa55c8	  x1=0xa55c8000
       73175000	      7316	80001ad0	0392f463	bgeu	x5,x25,80001af8	  x5:0x0000012a x25:0x00000000
       73185000	      7317	00000000	00000013	addi	x0,x0,0	  x0:0x00000000
       73195000	      7318	80001af4	00000013	addi	x0,x0,0	  x0:0x00000000
       73205000	      7319	80001af8	002ce233	or	x4,x25,x2	 x25:0x00000000  x2:0xffffffff  x4=0xffffffff
       73215000	      7320	80001afc	029dcc63	blt	x27,x9,80001b34	 x27:0xfffffef2  x9:0x0cab4a64
       73225000	      7321	00000000	00000013	addi	x0,x0,0	  x0:0x00000000
       73235000	      7322	80001b30	00000013	addi	x0,x0,0	  x0:0x00000000
       73245000	      7323	80001b34	00720a33	add	x20,x4,x7	  x4:0xffffffff  x7:0x80009efc x20=0x80009efb
       73255000	      7324	80001b38	d0e04593	xori	x11,x0,-754	  x0:0x00000000 x11=0xfffffd0e
       73265000	      7325	80001b3c	0dd3f9b7	lui	x19,0xdd3f	 x19=0x0dd3f000
       73275000	      7326	80001b40	5c30f313	andi	x6,x1,1475	  x1:0xa55c8000  x6=0x00000000
       73285000	      7327	80001b44	01520fb3	add	x31,x4,x21	  x4:0xffffffff x21:0x80000000 x31=0x7fffffff
       73295000	      7328	80001b48	0141b8b3	sltu	x17,x3,x20	  x3:0xffffffff x20:0x80009efb x17=0x00000000
       73305000	      7329	80001b4c	00078c33	add	x24,x15,x0	 x15:0x0000069c  x0:0x00000000 x24=0x0000069c
       73315000	      7330	80001b50	b6383f93	sltiu	x31,x16,-1181	 x16:0xfffffed6 x31=0x00000000
       73325000	      7331	80001b54	40bf5613	srai	x12,x30,0xb	 x30:0x008eb515 x12=0x000011d6
       73335000	      7332	80001b58	088de213	ori	x4,x27,136	 x27:0xfffffef2  x4=0xfffffefa
       73345000	      7333	80001b5c	010e91b3	sll	x3,x29,x16	 x29:0x475a8ac7 x16:0xfffffed6  x3=0xb1c00000
       73355000	      7334	80001b60	037df663	bgeu	x27,x23,80001b8c	 x27:0xfffffef2 x23:0xfffffef3
       73365000	      7335	80001b64	011e9b33	sll	x22,x29,x17	 x29:0x475a8ac7 x17:0x00000000 x22=0x475a8ac7
       73375000	      7336	80001b68	022aea63	bltu	x21,x2,80001b9c	 x21:0x80000000  x2:0xffffffff
       73385000	      7337	00000000	00000013	addi	x0,x0,0	  x0:0x00000000
       73395000	      7338	80001b98	00000013	addi	x0,x0,0	  x0:0x00000000
       73405000	      7339	80001b9c	009ed0b3	srl	x1,x29,x9	 x29:0x475a8ac7  x9:0x0cab4a64  x1=0x0475a8ac
       73415000	      7340	80001ba0	005d64b3	or	x9,x26,x5	 x26:0x00000000  x5:0x0000012a  x9=0x0000012a
       73425000	      7341	80001ba4	011e56b3	srl	x13,x28,x17	 x28:0x80009fc4 x17:0x00000000 x13=0x80009fc4
       73435000	      7342	80001ba8	a7f5c813	xori	x16,x11,-1409	 x11:0xfffffd0e x16=0x00000771
       73445000	      7343	80001bac	027b8c63	beq	x23,x7,80001be4	 x23:0xfffffef3  x7:0x80009efc
       73455000	      7344	80001bb0	00b92a33	slt	x20,x18,x11	 x18:0x475a92a9 x11:0xfffffd0e x20=0x00000000
       73465000	      7345	80001bb4	00cb9793	slli	x15,x23,0xc	 x23:0xfffffef3 x15=0xffef3000
       73475000	      7346	80001bb8	00a34b93	xori	x23,x6,10	  x6:0x00000000 x23=0x0000000a
       73485000	      7347	80001bbc	01685fb3	srl	x31,x16,x22	 x16:0x00000771 x22:0x475a8ac7 x31=0x0000000e
       73495000	      7348	80001bc0	01aabdb3	sltu	x27,x21,x26	 x21:0x80000000 x26:0x00000000 x27=0x00000000
       73505000	      7349	80001bc4	05489863	bne	x17,x20,80001c14	 x17:0x00000000 x20:0x00000000
       73515000	      7350	80001bc8	017eec63	bltu	x29,x23,80001be0	 x29:0x475a8ac7 x23:0x0000000a
       73525000	      7351	80001bcc	019d6333	or	x6,x26,x25	 x26:0x00000000 x25:0x00000000  x6=0x00000000
       73535000	      7352	80001bd0	c3358693	addi	x13,x11,-973	 x11:0xfffffd0e x13=0xfffff941
       73545000	      7353	80001bd4	0577f863	bgeu	x15,x23,80001c24	 x15:0xffef3000 x23:0x0000000a
       73555000	      7354	00000000	00000013	addi	x0,x0,0	  x0:0x00000000
       73565000	      7355	80001c20	00000013	addi	x0,x0,0	  x0:0x00000000
       73575000	      7356	80001c24	0176cfb3	xor	x31,x13,x23	 x13:0xfffff941 x23:0x0000000a x31=0xfffff94b
       73585000	      7357	80001c28	00000013	addi	x0,x0,0	  x0:0x00000000
       73595000	      7358	80001c2c	03235a63	bge	x6,x18,80001c60	  x6:0x00000000 x18:0x475a92a9
       73605000	      7359	80001c30	c3cb8c13	addi	x24,x23,-964	 x23:0x0000000a x24=0xfffffc46
       73615000	      7360	80001c34	01be9c13	slli	x24,x29,0x1b	 x29:0x475a8ac7 x24=0x38000000
       73625000	      7361	80001c38	052b8263	beq	x23,x18,80001c7c	 x23:0x0000000a x18:0x475a92a9
       73635000	      7362	80001c3c	0154d463	bge	x9,x21,80001c44	  x9:0x0000012a x21:0x80000000
       73645000	      7363	00000000	00000013	addi	x0,x0,0	  x0:0x00000000
       73655000	      7364	80001c40	00000013	addi	x0,x0,0	  x0:0x00000000
       73665000	      7365	80001c44	0238f063	bgeu	x17,x3,80001c64	 x17:0x00000000  x3:0xb1c00000
       73675000	      7366	80001c48	007190b3	sll	x1,x3,x7	  x3:0xb1c00000  x7:0x80009efc  x1=0x00000000
       73685000	      7367	80001c4c	01ec1a13	slli	x20,x24,0x1e	 x24:0x38000000 x20=0x00000000
       73695000	      7368	80001c50	dc422b17	auipc	x22,0xdc422	 x22=0x5c423c4c
       73705000	      7369	80001c54	efed0c93	addi	x25,x26,-258	 x26:0x00000000 x25=0xfffffefe
       73715000	      7370	80001c58	022c0c63	beq	x24,x2,80001c90	 x24:0x38000000  x2:0xffffffff
       73725000	      7371	80001c5c	0137d0b3	srl	x1,x15,x19	 x15:0xffef3000 x19:0x0dd3f000  x1=0xffef3000
       73735000	      7372	80001c60	008c34b3	sltu	x9,x24,x8	 x24:0x38000000  x8:0xffffffff  x9=0x00000001
       73745000	      7373	80001c64	017aea63	bltu	x21,x23,80001c78	 x21:0x80000000 x23:0x0000000a
       73755000	      7374	80001c68	057f7863	bgeu	x30,x23,80001cb8	 x30:0x008eb515 x23:0x0000000a
       73765000	      7375	00000000	00000013	addi	x0,x0,0	  x0:0x00000000
       73775000	      7376	80001cb4	00000013	addi	x0,x0,0	  x0:0x00000000
       73785000	      7377	80001cb8	018ef463	bgeu	x29,x24,80001cc0	 x29:0x475a8ac7 x24:0x38000000
       73795000	      7378	00000000	00000013	addi	x0,x0,0	  x0:0x00000000
       73805000	      7379	80001cbc	00000013	addi	x0,x0,0	  x0:0x00000000
       73815000	      7380	80001cc0	76098d13	addi	x26,x19,1888	 x19:0x0dd3f000 x26=0x0dd3f760
       73825000	      7381	80001cc4	01f6ad33	slt	x26,x13,x31	 x13:0xfffff941 x31:0xfffff94b x26=0x00000001
       73835000	      7382	80001cc8	00007117	auipc	x2,0x7	  x2=0x80008cc4
       73845000	      7383	80001ccc	e5a10113	addi	x2,x2,-422	  x2:0x80008cc4  x2=0x80008b1e
       73855000	      7384	80001cd0	fcd14603	lbu	x12,-51(x2)	  x2:0x80008b1e x12=0x00000000 PA:0x80008aeb
       73865000	      7385	80001cd4	fc510b83	lb	x23,-59(x2)	  x2:0x80008b1e x23=0x00000000 PA:0x80008ae3
       73875000	      7386	80001cd8	01ff5293	srli	x5,x30,0x1f	 x30:0x008eb515  x5=0x00000000
       73885000	      7387	80001cdc	40d08693	addi	x13,x1,1037	  x1:0xffef3000 x13=0xffef340d
       73895000	      7388	80001ce0	e43a6b97	auipc	x23,0xe43a6	 x23=0x643a7cdc
       73905000	      7389	80001ce4	f5c2cc93	xori	x25,x5,-164	  x5:0x00000000 x25=0xffffff5c
       73915000	      7390	80001ce8	08f14a03	lbu	x20,143(x2)	  x2:0x80008b1e x20=0x00000000 PA:0x80008bad
       73925000	      7391	80001cec	00e35733	srl	x14,x6,x14	  x6:0x00000000 x14:0x00000001 x14=0x00000000
       73935000	      7392	80001cf0	00000013	addi	x0,x0,0	  x0:0x00000000
       73945000	      7393	80001cf4	0bf10483	lb	x9,191(x2)	  x2:0x80008b1e  x9=0x00000000 PA:0x80008bdd
       73955000	      7394	80001cf8	01810c83	lb	x25,24(x2)	  x2:0x80008b1e x25=0x00000000 PA:0x80008b36
       73965000	      7395	80001cfc	08510303	lb	x6,133(x2)	  x2:0x80008b1e  x6=0x00000000 PA:0x80008ba3
       73975000	      7396	80001d00	fa02cd13	xori	x26,x5,-96	  x5:0x00000000 x26=0xffffffa0
       73985000	      7397	80001d04	ff014d83	lbu	x27,-16(x2)	  x2:0x80008b1e x27=0x00000000 PA:0x80008b0e
       73995000	      7398	80001d08	05014a03	lbu	x20,80(x2)	  x2:0x80008b1e x20=0x00000000 PA:0x80008b6e
       74005000	      7399	80001d0c	f6710683	lb	x13,-153(x2)	  x2:0x80008b1e x13=0x00000000 PA:0x80008a85
       74015000	      7400	80001d10	00000013	addi	x0,x0,0	  x0:0x00000000
       74025000	      7401	80001d14	01a720b3	slt	x1,x14,x26	 x14:0x00000000 x26:0xffffffa0  x1=0x00000000
       74035000	      7402	80001d18	3d41f293	andi	x5,x3,980	  x3:0xb1c00000  x5=0x00000000
       74045000	      7403	80001d1c	42b88613	addi	x12,x17,1067	 x17:0x00000000 x12=0x0000042b
       74055000	      7404	80001d20	10015a03	lhu	x20,256(x2)	  x2:0x80008b1e x20=0x00000000 PA:0x80008c1e
       74065000	      7405	80001d24	010225b3	slt	x11,x4,x16	  x4:0xfffffefa x16:0x00000771 x11=0x00000001
       74075000	      7406	80001d28	f9811583	lh	x11,-104(x2)	  x2:0x80008b1e x11=0x00000000 PA:0x80008ab6
       74085000	      7407	80001d2c	0b1105a3	sb	x17,171(x2)	  x2:0x80008b1e x17:0x00000000 PA:0x80008bc9
       74095000	      7408	80001d30	00479c33	sll	x24,x15,x4	 x15:0xffef3000  x4:0xfffffefa x24=0x00000000
       74105000	      7409	80001d34	008039b3	sltu	x19,x0,x8	  x0:0x00000000  x8:0xffffffff x19=0x00000001
       74115000	      7410	80001d38	08514c03	lbu	x24,133(x2)	  x2:0x80008b1e x24=0x00000000 PA:0x80008ba3
       74125000	      7411	80001d3c	7f04ecb7	lui	x25,0x7f04e	 x25=0x7f04e000
       74135000	      7412	80001d40	01795533	srl	x10,x18,x23	 x18:0x475a92a9 x23:0x643a7cdc x10=0x00000004
       74145000	      7413	80001d44	48adfc93	andi	x25,x27,1162	 x27:0x00000000 x25=0x00000000
       74155000	      7414	80001d48	100e0437	lui	x8,0x100e0	  x8=0x100e0000
       74165000	      7415	80001d4c	f4110283	lb	x5,-191(x2)	  x2:0x80008b1e  x5=0x00000000 PA:0x80008a5f
       74175000	      7416	80001d50	03c14703	lbu	x14,60(x2)	  x2:0x80008b1e x14=0x00000000 PA:0x80008b5a
       74185000	      7417	80001d54	00521ab3	sll	x21,x4,x5	  x4:0xfffffefa  x5:0x00000000 x21=0xfffffefa
       74195000	      7418	80001d58	00065313	srli	x6,x12,0x0	 x12:0x0000042b  x6=0x0000042b
       74205000	      7419	80001d5c	004546b3	xor	x13,x10,x4	 x10:0x00000004  x4:0xfffffefa x13=0xfffffefe
       74215000	      7420	80001d60	02210c83	lb	x25,34(x2)	  x2:0x80008b1e x25=0x00000000 PA:0x80008b40
       74225000	      7421	80001d64	0a510fa3	sb	x5,191(x2)	  x2:0x80008b1e  x5:0x00000000 PA:0x80008bdd
       74235000	      7422	80001d68	02697a13	andi	x20,x18,38	 x18:0x475a92a9 x20=0x00000020
       74245000	      7423	80001d6c	0a314c83	lbu	x25,163(x2)	  x2:0x80008b1e x25=0x00000000 PA:0x80008bc1
       74255000	      7424	80001d70	012ad613	srli	x12,x21,0x12	 x21:0xfffffefa x12=0x00003fff
       74265000	      7425	80001d74	0108db13	srli	x22,x17,0x10	 x17:0x00000000 x22=0x00000000
       74275000	      7426	80001d78	01e00b33	add	x22,x0,x30	  x0:0x00000000 x30:0x008eb515 x22=0x008eb515
       74285000	      7427	80001d7c	0180cc33	xor	x24,x1,x24	  x1:0x00000000 x24:0x00000000 x24=0x00000000
       74295000	      7428	80001d80	03f50063	beq	x10,x31,80001da0	 x10:0x00000004 x31:0xfffff94b
       74305000	      7429	80001d84	005977b3	and	x15,x18,x5	 x18:0x475a92a9  x5:0x00000000 x15=0x00000000
       74315000	      7430	80001d88	d69d6193	ori	x3,x26,-663	 x26:0xffffffa0  x3=0xffffffe9
       74325000	      7431	80001d8c	00da1c63	bne	x20,x13,80001da4	 x20:0x00000020 x13:0xfffffefe
       74335000	      7432	00000000	00000013	addi	x0,x0,0	  x0:0x00000000
       74345000	      7433	80001da0	00000013	addi	x0,x0,0	  x0:0x00000000
       74355000	      7434	80001da4	95e00b97	auipc	x23,0x95e00	 x23=0x15e01da0
       74365000	      7435	80001da8	005dddb3	srl	x27,x27,x5	 x27:0x00000000  x5:0x00000000 x27=0x00000000
       74375000	      7436	80001dac	00701863	bne	x0,x7,80001dbc	  x0:0x00000000  x7:0x80009efc
       74385000	      7437	00000000	00000013	addi	x0,x0,0	  x0:0x00000000
       74395000	      7438	80001db8	00000013	addi	x0,x0,0	  x0:0x00000000
       74405000	      7439	80001dbc	01509263	bne	x1,x21,80001dc0	  x1:0x00000000 x21:0xfffffefa
       74415000	      7440	00000000	00000013	addi	x0,x0,0	  x0:0x00000000
       74425000	      7441	80001dbc	00000013	addi	x0,x0,0	  x0:0x00000000
       74435000	      7442	80001dc0	0487f063	bgeu	x15,x8,80001e00	 x15:0x00000000  x8:0x100e0000
       74445000	      7443	80001dc4	00000013	addi	x0,x0,0	  x0:0x00000000
       74455000	      7444	80001dc8	0134db33	srl	x22,x9,x19	  x9:0x00000000 x19:0x00000001 x22=0x00000000
       74465000	      7445	80001dcc	015dbc33	sltu	x24,x27,x21	 x27:0x00000000 x21:0xfffffefa x24=0x00000001
       74475000	      7446	80001dd0	5d444f93	xori	x31,x8,1492	  x8:0x100e0000 x31=0x100e05d4
       74485000	      7447	80001dd4	52fee017	auipc	x0,0x52fee	
       74495000	      7448	80001dd8	009e9533	sll	x10,x29,x9	 x29:0x475a8ac7  x9:0x00000000 x10=0x475a8ac7
       74505000	      7449	80001ddc	0101c6b3	xor	x13,x3,x16	  x3:0xffffffe9 x16:0x00000771 x13=0xfffff898
       74515000	      7450	80001de0	d292b113	sltiu	x2,x5,-727	  x5:0x00000000  x2=0x00000001
       74525000	      7451	80001de4	00bfb8b3	sltu	x17,x31,x11	 x31:0x100e05d4 x11:0x00000000 x17=0x00000000
       74535000	      7452	80001de8	5ceac237	lui	x4,0x5ceac	  x4=0x5ceac000
       74545000	      7453	80001dec	b4bac513	xori	x10,x21,-1205	 x21:0xfffffefa x10=0x000005b1
       74555000	      7454	80001df0	01933033	sltu	x0,x6,x25	  x6:0x0000042b x25:0x00000000
       74565000	      7455	80001df4	03bac663	blt	x21,x27,80001e20	 x21:0xfffffefa x27:0x00000000
       74575000	      7456	00000000	00000013	addi	x0,x0,0	  x0:0x00000000
       74585000	      7457	80001e1c	00000013	addi	x0,x0,0	  x0:0x00000000
       74595000	      7458	80001e20	04206863	bltu	x0,x2,80001e70	  x0:0x00000000  x2:0x00000001
       74605000	      7459	00000000	00000013	addi	x0,x0,0	  x0:0x00000000
       74615000	      7460	80001e6c	00000013	addi	x0,x0,0	  x0:0x00000000
       74625000	      7461	80001e70	01539693	slli	x13,x7,0x15	  x7:0x80009efc x13=0xdf800000
       74635000	      7462	80001e74	00814ab3	xor	x21,x2,x8	  x2:0x00000001  x8:0x100e0000 x21=0x100e0001
       74645000	      7463	80001e78	01f19663	bne	x3,x31,80001e84	  x3:0xffffffe9 x31:0x100e05d4
       74655000	      7464	00000000	00000013	addi	x0,x0,0	  x0:0x00000000
       74665000	      7465	80001e80	00000013	addi	x0,x0,0	  x0:0x00000000
       74675000	      7466	80001e84	bc9ac993	xori	x19,x21,-1079	 x21:0x100e0001 x19=0xeff1fbc8
       74685000	      7467	80001e88	00000013	addi	x0,x0,0	  x0:0x00000000
       74695000	      7468	80001e8c	0259da63	bge	x19,x5,80001ec0	 x19:0xeff1fbc8  x5:0x00000000
       74705000	      7469	80001e90	00000013	addi	x0,x0,0	  x0:0x00000000
       74715000	      7470	80001e94	40b4dc13	srai	x24,x9,0xb	  x9:0x00000000 x24=0x00000000
       74725000	      7471	80001e98	41b98cb3	sub	x25,x19,x27	 x19:0xeff1fbc8 x27:0x00000000 x25=0xeff1fbc8
       74735000	      7472	80001e9c	01b24133	xor	x2,x4,x27	  x4:0x5ceac000 x27:0x00000000  x2=0x5ceac000
       74745000	      7473	80001ea0	0088da63	bge	x17,x8,80001eb4	 x17:0x00000000  x8:0x100e0000
       74755000	      7474	80001ea4	a2402193	slti	x3,x0,-1500	  x0:0x00000000  x3=0x00000000
       74765000	      7475	80001ea8	10fdea63	bltu	x27,x15,80001fbc	 x27:0x00000000 x15:0x00000000
       74775000	      7476	80001eac	012f0eb3	add	x29,x30,x18	 x30:0x008eb515 x18:0x475a92a9 x29=0x47e947be
       74785000	      7477	80001eb0	c154b093	sltiu	x1,x9,-1003	  x9:0x00000000  x1=0x00000001
       74795000	      7478	80001eb4	418b5f33	sra	x30,x22,x24	 x22:0x00000000 x24:0x00000000 x30=0x00000000
       74805000	      7479	80001eb8	01b88cb3	add	x25,x17,x27	 x17:0x00000000 x27:0x00000000 x25=0x00000000
       74815000	      7480	80001ebc	009e9693	slli	x13,x29,0x9	 x29:0x47e947be x13=0xd28f7c00
       74825000	      7481	80001ec0	4154dfb3	sra	x31,x9,x21	  x9:0x00000000 x21:0x100e0001 x31=0x00000000
       74835000	      7482	80001ec4	0e55d863	bge	x11,x5,80001fb4	 x11:0x00000000  x5:0x00000000
       74845000	      7483	00000000	00000013	addi	x0,x0,0	  x0:0x00000000
       74855000	      7484	80001fb0	00000013	addi	x0,x0,0	  x0:0x00000000
       74865000	      7485	80001fb4	41780fb3	sub	x31,x16,x23	 x16:0x00000771 x23:0x15e01da0 x31=0xea1fe9d1
       74875000	      7486	80001fb8	f214a113	slti	x2,x9,-223	  x9:0x00000000  x2=0x00000000
       74885000	      7487	80001fbc	d4248737	lui	x14,0xd4248	 x14=0xd4248000
       74895000	      7488	80001fc0	05240263	beq	x8,x18,80002004	  x8:0x100e0000 x18:0x475a92a9
       74905000	      7489	80001fc4	00775463	bge	x14,x7,80001fcc	 x14:0xd4248000  x7:0x80009efc
       74915000	      7490	00000000	00000013	addi	x0,x0,0	  x0:0x00000000
       74925000	      7491	80001fc8	00000013	addi	x0,x0,0	  x0:0x00000000
       74935000	      7492	80001fcc	00ba5f93	srli	x31,x20,0xb	 x20:0x00000020 x31=0x00000000
       74945000	      7493	80001fd0	60c1a093	slti	x1,x3,1548	  x3:0x00000000  x1=0x00000001
       74955000	      7494	80001fd4	01f11d33	sll	x26,x2,x31	  x2:0x00000000 x31:0x00000000 x26=0x00000000
       74965000	      7495	80001fd8	016a3a33	sltu	x20,x20,x22	 x20:0x00000020 x22:0x00000000 x20=0x00000000
       74975000	      7496	80001fdc	69ca8417	auipc	x8,0x69ca8	  x8=0xe9ca9fd8
       74985000	      7497	80001fe0	01fedd13	srli	x26,x29,0x1f	 x29:0x47e947be x26=0x00000000
       74995000	      7498	80001fe4	01374eb3	xor	x29,x14,x19	 x14:0xd4248000 x19:0xeff1fbc8 x29=0x3bd57bc8
       75005000	      7499	80001fe8	02d6d063	bge	x13,x13,80002008	 x13:0xd28f7c00 x13:0xd28f7c00
       75015000	      7500	00000000	00000013	addi	x0,x0,0	  x0:0x00000000
       75025000	      7501	80002004	00000013	addi	x0,x0,0	  x0:0x00000000
       75035000	      7502	80002008	031edc63	bge	x29,x17,80002040	 x29:0x3bd57bc8 x17:0x00000000
       75045000	      7503	00000000	00000013	addi	x0,x0,0	  x0:0x00000000
       75055000	      7504	8000203c	00000013	addi	x0,x0,0	  x0:0x00000000
       75065000	      7505	80002040	00ee7b33	and	x22,x28,x14	 x28:0x80009fc4 x14:0xd4248000 x22=0x80008000
       75075000	      7506	80002044	002bb5b3	sltu	x11,x23,x2	 x23:0x15e01da0  x2:0x00000000 x11=0x00000000
       75085000	      7507	80002048	011d5793	srli	x15,x26,0x11	 x26:0x00000000 x15=0x00000000
       75095000	      7508	8000204c	019656b3	srl	x13,x12,x25	 x12:0x00003fff x25:0x00000000 x13=0x00003fff
       75105000	      7509	80002050	40025fb3	sra	x31,x4,x0	  x4:0x5ceac000  x0:0x00000000 x31=0x5ceac000
       75115000	      7510	80002054	9bd9e993	ori	x19,x19,-1603	 x19:0xeff1fbc8 x19=0xfffffbfd
       75125000	      7511	80002058	00d51233	sll	x4,x10,x13	 x10:0x000005b1 x13:0x00003fff  x4=0x80000000
       75135000	      7512	8000205c	00229413	slli	x8,x5,0x2	  x5:0x00000000  x8=0x00000000
       75145000	      7513	80002060	414e5233	sra	x4,x28,x20	 x28:0x80009fc4 x20:0x00000000  x4=0x80009fc4
       75155000	      7514	80002064	31d8e713	ori	x14,x17,797	 x17:0x00000000 x14=0x0000031d
       75165000	      7515	80002068	02cdc663	blt	x27,x12,80002094	 x27:0x00000000 x12:0x00003fff
       75175000	      7516	00000000	00000013	addi	x0,x0,0	  x0:0x00000000
       75185000	      7517	80002090	00000013	addi	x0,x0,0	  x0:0x00000000
       75195000	      7518	80002094	c4e4bd13	sltiu	x26,x9,-946	  x9:0x00000000 x26=0x00000001
       75205000	      7519	80002098	01db9333	sll	x6,x23,x29	 x23:0x15e01da0 x29:0x3bd57bc8  x6=0xe01da000
       75215000	      7520	8000209c	ef123d13	sltiu	x26,x4,-271	  x4:0x80009fc4 x26=0x00000001
       75225000	      7521	800020a0	b31a4e93	xori	x29,x20,-1231	 x20:0x00000000 x29=0xfffffb31
       75235000	      7522	800020a4	c998ed93	ori	x27,x17,-871	 x17:0x00000000 x27=0xfffffc99
       75245000	      7523	800020a8	b2ebcb37	lui	x22,0xb2ebc	 x22=0xb2ebc000
       75255000	      7524	800020ac	418757b3	sra	x15,x14,x24	 x14:0x0000031d x24:0x00000000 x15=0x0000031d
       75265000	      7525	800020b0	01037863	bgeu	x6,x16,800020c0	  x6:0xe01da000 x16:0x00000771
       75275000	      7526	00000000	00000013	addi	x0,x0,0	  x0:0x00000000
       75285000	      7527	800020bc	00000013	addi	x0,x0,0	  x0:0x00000000
       75295000	      7528	800020c0	047a9863	bne	x21,x7,80002110	 x21:0x100e0001  x7:0x80009efc
       75305000	      7529	00000000	00000013	addi	x0,x0,0	  x0:0x00000000
       75315000	      7530	8000210c	00000013	addi	x0,x0,0	  x0:0x00000000
       75325000	      7531	80002110	40c48f33	sub	x30,x9,x12	  x9:0x00000000 x12:0x00003fff x30=0xffffc001
       75335000	      7532	80002114	038e1a63	bne	x28,x24,80002148	 x28:0x80009fc4 x24:0x00000000
       75345000	      7533	00000000	00000013	addi	x0,x0,0	  x0:0x00000000
       75355000	      7534	80002144	00000013	addi	x0,x0,0	  x0:0x00000000
       75365000	      7535	80002148	011af033	and	x0,x21,x17	 x21:0x100e0001 x17:0x00000000
       75375000	      7536	8000214c	008556b3	srl	x13,x10,x8	 x10:0x000005b1  x8:0x00000000 x13=0x000005b1
       75385000	      7537	80002150	0171e463	bltu	x3,x23,80002158	  x3:0x00000000 x23:0x15e01da0
       75395000	      7538	00000000	00000013	addi	x0,x0,0	  x0:0x00000000
       75405000	      7539	80002154	00000013	addi	x0,x0,0	  x0:0x00000000
       75415000	      7540	80002158	04a9d263	bge	x19,x10,8000219c	 x19:0xfffffbfd x10:0x000005b1
       75425000	      7541	8000215c	01e41833	sll	x16,x8,x30	  x8:0x00000000 x30:0xffffc001 x16=0x00000000
       75435000	      7542	80002160	00bc9d33	sll	x26,x25,x11	 x25:0x00000000 x11:0x00000000 x26=0x00000000
       75445000	      7543	80002164	00c17eb3	and	x29,x2,x12	  x2:0x00000000 x12:0x00003fff x29=0x00000000
       75455000	      7544	80002168	02c3f663	bgeu	x7,x12,80002194	  x7:0x80009efc x12:0x00003fff
       75465000	      7545	00000000	00000013	addi	x0,x0,0	  x0:0x00000000
       75475000	      7546	80002190	00000013	addi	x0,x0,0	  x0:0x00000000
       75485000	      7547	80002194	03768a63	beq	x13,x23,800021c8	 x13:0x000005b1 x23:0x15e01da0
       75495000	      7548	80002198	00c38c33	add	x24,x7,x12	  x7:0x80009efc x12:0x00003fff x24=0x8000defb
       75505000	      7549	8000219c	00d0e133	or	x2,x1,x13	  x1:0x00000001 x13:0x000005b1  x2=0x000005b1
       75515000	      7550	800021a0	e5746993	ori	x19,x8,-425	  x8:0x00000000 x19=0xfffffe57
       75525000	      7551	800021a4	1ca40313	addi	x6,x8,458	  x8:0x00000000  x6=0x000001ca
       75535000	      7552	800021a8	5aceb113	sltiu	x2,x29,1452	 x29:0x00000000  x2=0x00000001
       75545000	      7553	800021ac	88c65f37	lui	x30,0x88c65	 x30=0x88c65000
       75555000	      7554	800021b0	00455263	bge	x10,x4,800021b4	 x10:0x000005b1  x4:0x80009fc4
       75565000	      7555	00000000	00000013	addi	x0,x0,0	  x0:0x00000000
       75575000	      7556	800021b0	00000013	addi	x0,x0,0	  x0:0x00000000
       75585000	      7557	800021b4	01b98bb3	add	x23,x19,x27	 x19:0xfffffe57 x27:0xfffffc99 x23=0xfffffaf0
       75595000	      7558	800021b8	05915063	bge	x2,x25,800021f8	  x2:0x00000001 x25:0x00000000
       75605000	      7559	00000000	00000013	addi	x0,x0,0	  x0:0x00000000
       75615000	      7560	800021f4	00000013	addi	x0,x0,0	  x0:0x00000000
       75625000	      7561	800021f8	4e4c8297	auipc	x5,0x4e4c8	  x5=0xce4ca1f4
       75635000	      7562	800021fc	aa0daa93	slti	x21,x27,-1376	 x27:0xfffffc99 x21=0x00000000
       75645000	      7563	80002200	41de8833	sub	x16,x29,x29	 x29:0x00000000 x29:0x00000000 x16=0x00000000
       75655000	      7564	80002204	007ea6b3	slt	x13,x29,x7	 x29:0x00000000  x7:0x80009efc x13=0x00000000
       75665000	      7565	80002208	00076433	or	x8,x14,x0	 x14:0x0000031d  x0:0x00000000  x8=0x0000031d
       75675000	      7566	8000220c	011ae863	bltu	x21,x17,8000221c	 x21:0x00000000 x17:0x00000000
       75685000	      7567	80002210	00465233	srl	x4,x12,x4	 x12:0x00003fff  x4:0x80009fc4  x4=0x000003ff
       75695000	      7568	80002214	00000013	addi	x0,x0,0	  x0:0x00000000
       75705000	      7569	80002218	932b0793	addi	x15,x22,-1742	 x22:0xb2ebc000 x15=0xb2ebb932
       75715000	      7570	8000221c	01f2ceb3	xor	x29,x5,x31	  x5:0xce4ca1f4 x31:0x5ceac000 x29=0x92a661f4
       75725000	      7571	80002220	4078dd13	srai	x26,x17,0x7	 x17:0x00000000 x26=0x00000000
       75735000	      7572	80002224	401d51b3	sra	x3,x26,x1	 x26:0x00000000  x1:0x00000001  x3=0x00000000
       75745000	      7573	80002228	05b66263	bltu	x12,x27,8000226c	 x12:0x00003fff x27:0xfffffc99
       75755000	      7574	00000000	00000013	addi	x0,x0,0	  x0:0x00000000
       75765000	      7575	80002268	00000013	addi	x0,x0,0	  x0:0x00000000
       75775000	      7576	8000226c	017d86b3	add	x13,x27,x23	 x27:0xfffffc99 x23:0xfffffaf0 x13=0xfffff789
       75785000	      7577	80002270	018b5293	srli	x5,x22,0x18	 x22:0xb2ebc000  x5=0x000000b2
       75795000	      7578	80002274	f07f3813	sltiu	x16,x30,-249	 x30:0x88c65000 x16=0x00000001
       75805000	      7579	80002278	0213f663	bgeu	x7,x1,800022a4	  x7:0x80009efc  x1:0x00000001
       75815000	      7580	00000000	00000013	addi	x0,x0,0	  x0:0x00000000
       75825000	      7581	800022a0	00000013	addi	x0,x0,0	  x0:0x00000000
       75835000	      7582	800022a4	01023133	sltu	x2,x4,x16	  x4:0x000003ff x16:0x00000001  x2=0x00000000
       75845000	      7583	800022a8	42757893	andi	x17,x10,1063	 x10:0x000005b1 x17=0x00000421
       75855000	      7584	800022ac	41c56093	ori	x1,x10,1052	 x10:0x000005b1  x1=0x000005bd
       75865000	      7585	800022b0	0a97b693	sltiu	x13,x15,169	 x15:0xb2ebb932 x13=0x00000000
       75875000	      7586	800022b4	41be5b13	srai	x22,x28,0x1b	 x28:0x80009fc4 x22=0xfffffff0
       75885000	      7587	800022b8	000d9cb3	sll	x25,x27,x0	 x27:0xfffffc99  x0:0x00000000 x25=0xfffffc99
       75895000	      7588	800022bc	6ed84c13	xori	x24,x16,1773	 x16:0x00000001 x24=0x000006ec
       75905000	      7589	800022c0	005c5033	srl	x0,x24,x5	 x24:0x000006ec  x5:0x000000b2
       75915000	      7590	800022c4	01e18db3	add	x27,x3,x30	  x3:0x00000000 x30:0x88c65000 x27=0x88c65000
       75925000	      7591	800022c8	01760d33	add	x26,x12,x23	 x12:0x00003fff x23:0xfffffaf0 x26=0x00003aef
       75935000	      7592	800022cc	d9a6e017	auipc	x0,0xd9a6e	
       75945000	      7593	800022d0	41c3db13	srai	x22,x7,0x1c	  x7:0x80009efc x22=0xfffffff8
       75955000	      7594	800022d4	bd52d137	lui	x2,0xbd52d	  x2=0xbd52d000
       75965000	      7595	800022d8	b9f3e793	ori	x15,x7,-1121	  x7:0x80009efc x15=0xffffffff
       75975000	      7596	800022dc	02898063	beq	x19,x8,800022fc	 x19:0xfffffe57  x8:0x0000031d
       75985000	      7597	800022e0	01791c13	slli	x24,x18,0x17	 x18:0x475a92a9 x24=0x54800000
       75995000	      7598	800022e4	0042a833	slt	x16,x5,x4	  x5:0x000000b2  x4:0x000003ff x16=0x00000001
       76005000	      7599	800022e8	ad3c0f17	auipc	x30,0xad3c0	 x30=0x2d3c22e4
       76015000	      7600	800022ec	00de1533	sll	x10,x28,x13	 x28:0x80009fc4 x13:0x00000000 x10=0x80009fc4
       76025000	      7601	800022f0	002d5a33	srl	x20,x26,x2	 x26:0x00003aef  x2:0xbd52d000 x20=0x00003aef
       76035000	      7602	800022f4	02248c63	beq	x9,x2,8000232c	  x9:0x00000000  x2:0xbd52d000
       76045000	      7603	800022f8	05a74063	blt	x14,x26,80002338	 x14:0x0000031d x26:0x00003aef
       76055000	      7604	00000000	00000013	addi	x0,x0,0	  x0:0x00000000
       76065000	      7605	80002334	00000013	addi	x0,x0,0	  x0:0x00000000
       76075000	      7606	80002338	01936633	or	x12,x6,x25	  x6:0x000001ca x25:0xfffffc99 x12=0xfffffddb
       76085000	      7607	8000233c	000a4ab3	xor	x21,x20,x0	 x20:0x00003aef  x0:0x00000000 x21=0x00003aef
       76095000	      7608	80002340	e07c0f93	addi	x31,x24,-505	 x24:0x54800000 x31=0x547ffe07
       76105000	      7609	80002344	3da82793	slti	x15,x16,986	 x16:0x00000001 x15=0x00000001
       76115000	      7610	80002348	3eb47f13	andi	x30,x8,1003	  x8:0x0000031d x30=0x00000309
       76125000	      7611	8000234c	002e8d33	add	x26,x29,x2	 x29:0x92a661f4  x2:0xbd52d000 x26=0x4ff931f4
       76135000	      7612	80002350	05e7c863	blt	x15,x30,800023a0	 x15:0x00000001 x30:0x00000309
       76145000	      7613	00000000	00000013	addi	x0,x0,0	  x0:0x00000000
       76155000	      7614	8000239c	00000013	addi	x0,x0,0	  x0:0x00000000
       76165000	      7615	800023a0	01cbdb33	srl	x22,x23,x28	 x23:0xfffffaf0 x28:0x80009fc4 x22=0x0fffffaf
       76175000	      7616	800023a4	018a1fb3	sll	x31,x20,x24	 x20:0x00003aef x24:0x54800000 x31=0x00003aef
       76185000	      7617	800023a8	03fa9a63	bne	x21,x31,800023dc	 x21:0x00003aef x31:0x00003aef
       76195000	      7618	800023ac	00000013	addi	x0,x0,0	  x0:0x00000000
       76205000	      7619	800023b0	016440b3	xor	x1,x8,x22	  x8:0x0000031d x22:0x0fffffaf  x1=0x0ffffcb2
       76215000	      7620	800023b4	40c650b3	sra	x1,x12,x12	 x12:0xfffffddb x12:0xfffffddb  x1=0xffffffff
       76225000	      7621	800023b8	02108063	beq	x1,x1,800023d8	  x1:0xffffffff  x1:0xffffffff
       76235000	      7622	00000000	00000013	addi	x0,x0,0	  x0:0x00000000
       76245000	      7623	800023d4	00000013	addi	x0,x0,0	  x0:0x00000000
       76255000	      7624	800023d8	011e0ab3	add	x21,x28,x17	 x28:0x80009fc4 x17:0x00000421 x21=0x8000a3e5
       76265000	      7625	800023dc	5746bf93	sltiu	x31,x13,1396	 x13:0x00000000 x31=0x00000001
       76275000	      7626	800023e0	01219cb3	sll	x25,x3,x18	  x3:0x00000000 x18:0x475a92a9 x25=0x00000000
       76285000	      7627	800023e4	00298433	add	x8,x19,x2	 x19:0xfffffe57  x2:0xbd52d000  x8=0xbd52ce57
       76295000	      7628	800023e8	409a01b3	sub	x3,x20,x9	 x20:0x00003aef  x9:0x00000000  x3=0x00003aef
       76305000	      7629	800023ec	017ee2b3	or	x5,x29,x23	 x29:0x92a661f4 x23:0xfffffaf0  x5=0xfffffbf4
       76315000	      7630	800023f0	03dcc063	blt	x25,x29,80002410	 x25:0x00000000 x29:0x92a661f4
       76325000	      7631	800023f4	01622233	slt	x4,x4,x22	  x4:0x000003ff x22:0x0fffffaf  x4=0x00000001
       76335000	      7632	800023f8	b3b53b17	auipc	x22,0xb3b53	 x22=0x33b553f4
       76345000	      7633	800023fc	033dfc63	bgeu	x27,x19,80002434	 x27:0x88c65000 x19:0xfffffe57
       76355000	      7634	80002400	016bcc63	blt	x23,x22,80002418	 x23:0xfffffaf0 x22:0x33b553f4
       76365000	      7635	00000000	00000013	addi	x0,x0,0	  x0:0x00000000
       76375000	      7636	80002414	00000013	addi	x0,x0,0	  x0:0x00000000
       76385000	      7637	80002418	4259a293	slti	x5,x19,1061	 x19:0xfffffe57  x5=0x00000001
       76395000	      7638	8000241c	0137db93	srli	x23,x15,0x13	 x15:0x00000001 x23=0x00000000
       76405000	      7639	80002420	0134a4b3	slt	x9,x9,x19	  x9:0x00000000 x19:0xfffffe57  x9=0x00000000
       76415000	      7640	80002424	03c20a63	beq	x4,x28,80002458	  x4:0x00000001 x28:0x80009fc4
       76425000	      7641	80002428	6b4a3593	sltiu	x11,x20,1716	 x20:0x00003aef x11=0x00000000
       76435000	      7642	8000242c	41398a33	sub	x20,x19,x19	 x19:0xfffffe57 x19:0xfffffe57 x20=0x00000000
       76445000	      7643	80002430	0149b833	sltu	x16,x19,x20	 x19:0xfffffe57 x20:0x00000000 x16=0x00000000
       76455000	      7644	80002434	01a2e9b3	or	x19,x5,x26	  x5:0x00000001 x26:0x4ff931f4 x19=0x4ff931f5
       76465000	      7645	80002438	00e02133	slt	x2,x0,x14	  x0:0x00000000 x14:0x0000031d  x2=0x00000001
       76475000	      7646	8000243c	00000013	addi	x0,x0,0	  x0:0x00000000
       76485000	      7647	80002440	01f5b733	sltu	x14,x11,x31	 x11:0x00000000 x31:0x00000001 x14=0x00000001
       76495000	      7648	80002444	64308f93	addi	x31,x1,1603	  x1:0xffffffff x31=0x00000642
       76505000	      7649	80002448	0a977fb7	lui	x31,0xa977	 x31=0x0a977000
       76515000	      7650	8000244c	039b9c63	bne	x23,x25,80002484	 x23:0x00000000 x25:0x00000000
       76525000	      7651	80002450	00000013	addi	x0,x0,0	  x0:0x00000000
       76535000	      7652	80002454	01d2ec63	bltu	x5,x29,8000246c	  x5:0x00000001 x29:0x92a661f4
       76545000	      7653	00000000	00000013	addi	x0,x0,0	  x0:0x00000000
       76555000	      7654	80002468	00000013	addi	x0,x0,0	  x0:0x00000000
       76565000	      7655	8000246c	00f83833	sltu	x16,x16,x15	 x16:0x00000000 x15:0x00000001 x16=0x00000001
       76575000	      7656	80002470	00659463	bne	x11,x6,80002478	 x11:0x00000000  x6:0x000001ca
       76585000	      7657	00000000	00000013	addi	x0,x0,0	  x0:0x00000000
       76595000	      7658	80002474	00000013	addi	x0,x0,0	  x0:0x00000000
       76605000	      7659	80002478	01303eb3	sltu	x29,x0,x19	  x0:0x00000000 x19:0x4ff931f5 x29=0x00000001
       76615000	      7660	8000247c	00466d33	or	x26,x12,x4	 x12:0xfffffddb  x4:0x00000001 x26=0xfffffddb
       76625000	      7661	80002480	01370db3	add	x27,x14,x19	 x14:0x00000001 x19:0x4ff931f5 x27=0x4ff931f6
       76635000	      7662	80002484	41275193	srai	x3,x14,0x12	 x14:0x00000001  x3=0x00000000
       76645000	      7663	80002488	41db5813	srai	x16,x22,0x1d	 x22:0x33b553f4 x16=0x00000001
       76655000	      7664	8000248c	96b534b7	lui	x9,0x96b53	  x9=0x96b53000
       76665000	      7665	80002490	0148ecb3	or	x25,x17,x20	 x17:0x00000421 x20:0x00000000 x25=0x00000421
       76675000	      7666	80002494	36168b93	addi	x23,x13,865	 x13:0x00000000 x23=0x00000361
       76685000	      7667	80002498	414f5633	sra	x12,x30,x20	 x30:0x00000309 x20:0x00000000 x12=0x00000309
       76695000	      7668	8000249c	9c0b8713	addi	x14,x23,-1600	 x23:0x00000361 x14=0xfffffd21
       76705000	      7669	800024a0	dfa0a193	slti	x3,x1,-518	  x1:0xffffffff  x3=0x00000000
       76715000	      7670	800024a4	019cdc13	srli	x24,x25,0x19	 x25:0x00000421 x24=0x00000000
       76725000	      7671	800024a8	00219833	sll	x16,x3,x2	  x3:0x00000000  x2:0x00000001 x16=0x00000000
       76735000	      7672	800024ac	00000013	addi	x0,x0,0	  x0:0x00000000
       76745000	      7673	800024b0	41918f33	sub	x30,x3,x25	  x3:0x00000000 x25:0x00000421 x30=0xfffffbdf
       76755000	      7674	800024b4	00048433	add	x8,x9,x0	  x9:0x96b53000  x0:0x00000000  x8=0x96b53000
       76765000	      7675	800024b8	0190ec33	or	x24,x1,x25	  x1:0xffffffff x25:0x00000421 x24=0xffffffff
       76775000	      7676	800024bc	00169893	slli	x17,x13,0x1	 x13:0x00000000 x17=0x00000000
       76785000	      7677	800024c0	004e46b3	xor	x13,x28,x4	 x28:0x80009fc4  x4:0x00000001 x13=0x80009fc5
       76795000	      7678	800024c4	6dcb0193	addi	x3,x22,1756	 x22:0x33b553f4  x3=0x33b55ad0
       76805000	      7679	800024c8	40fef1b7	lui	x3,0x40fef	  x3=0x40fef000
       76815000	      7680	800024cc	e6defa13	andi	x20,x29,-403	 x29:0x00000001 x20=0x00000001
       76825000	      7681	800024d0	0079fb33	and	x22,x19,x7	 x19:0x4ff931f5  x7:0x80009efc x22=0x000010f4
       76835000	      7682	800024d4	6c558c93	addi	x25,x11,1733	 x11:0x00000000 x25=0x000006c5
       76845000	      7683	800024d8	00c1f733	and	x14,x3,x12	  x3:0x40fef000 x12:0x00000309 x14=0x00000000
       76855000	      7684	800024dc	4068d4b3	sra	x9,x17,x6	 x17:0x00000000  x6:0x000001ca  x9=0x00000000
       76865000	      7685	800024e0	002a8463	beq	x21,x2,800024e8	 x21:0x8000a3e5  x2:0x00000001
       76875000	      7686	800024e4	011e3233	sltu	x4,x28,x17	 x28:0x80009fc4 x17:0x00000000  x4=0x00000000
       76885000	      7687	800024e8	68b8d8b7	lui	x17,0x68b8d	 x17=0x68b8d000
       76895000	      7688	800024ec	006fd263	bge	x31,x6,800024f0	 x31:0x0a977000  x6:0x000001ca
       76905000	      7689	00000000	00000013	addi	x0,x0,0	  x0:0x00000000
       76915000	      7690	800024ec	00000013	addi	x0,x0,0	  x0:0x00000000
       76925000	      7691	800024f0	4147da93	srai	x21,x15,0x14	 x15:0x00000001 x21=0x00000000
       76935000	      7692	800024f4	005fbd33	sltu	x26,x31,x5	 x31:0x0a977000  x5:0x00000001 x26=0x00000000
       76945000	      7693	800024f8	00841713	slli	x14,x8,0x8	  x8:0x96b53000 x14=0xb5300000
       76955000	      7694	800024fc	ec736737	lui	x14,0xec736	 x14=0xec736000
       76965000	      7695	80002500	4029d633	sra	x12,x19,x2	 x19:0x4ff931f5  x2:0x00000001 x12=0x27fc98fa
       76975000	      7696	80002504	01b5d093	srli	x1,x11,0x1b	 x11:0x00000000  x1=0x00000000
       76985000	      7697	80002508	8898f237	lui	x4,0x8898f	  x4=0x8898f000
       76995000	      7698	8000250c	402f5033	sra	x0,x30,x2	 x30:0xfffffbdf  x2:0x00000001
       77005000	      7699	80002510	0043a183	lw	x3,4(x7)	  x7:0x80009efc  x3=0x80002598 PA:0x80009f00
       77015000	      7700	80002514	40f15d93	srai	x27,x2,0xf	  x2:0x00000001 x27=0x00000000
       77025000	      7701	80002518	3864a113	slti	x2,x9,902	  x9:0x00000000  x2=0x00000001
       77035000	      7702	8000251c	01761293	slli	x5,x12,0x17	 x12:0x27fc98fa  x5=0x7d000000
       77045000	      7703	80002520	01594593	xori	x11,x18,21	 x18:0x475a92a9 x11=0x475a92bc
       77055000	      7704	80002524	017d0d33	add	x26,x26,x23	 x26:0x00000000 x23:0x00000361 x26=0x00000361
       77065000	      7705	80002528	03438393	addi	x7,x7,52	  x7:0x80009efc  x7=0x80009f30
       77075000	      7706	8000252c	40bd5993	srai	x19,x26,0xb	 x26:0x00000361 x19=0x00000000
       77085000	      7707	80002530	00118c93	addi	x25,x3,1	  x3:0x80002598 x25=0x80002599
       77095000	      7708	80002534	000c8ce7	jalr	x25,x25,0	 x25:0x80002599 x25=0x80002534
       77105000	      7709	00000000	00000013	addi	x0,x0,0	  x0:0x00000000
       77115000	      7710	80002598	00000013	addi	x0,x0,0	  x0:0x00000000
       77125000	      7711	8000259c	01cecb33	xor	x22,x29,x28	 x29:0x00000001 x28:0x80009fc4 x22=0x80009fc5
       77135000	      7712	800025a0	8112a813	slti	x16,x5,-2031	  x5:0x7d000000 x16=0x00000000
       77145000	      7713	800025a4	037f5c63	bge	x30,x23,800025dc	 x30:0xfffffbdf x23:0x00000361
       77155000	      7714	800025a8	00b9ca33	xor	x20,x19,x11	 x19:0x00000000 x11:0x475a92bc x20=0x475a92bc
       77165000	      7715	800025ac	004ee863	bltu	x29,x4,800025bc	 x29:0x00000001  x4:0x8898f000
       77175000	      7716	00000000	00000013	addi	x0,x0,0	  x0:0x00000000
       77185000	      7717	800025b8	00000013	addi	x0,x0,0	  x0:0x00000000
       77195000	      7718	800025bc	41628a33	sub	x20,x5,x22	  x5:0x7d000000 x22:0x80009fc5 x20=0xfcff603b
       77205000	      7719	800025c0	00680533	add	x10,x16,x6	 x16:0x00000000  x6:0x000001ca x10=0x000001ca
       77215000	      7720	800025c4	ff82ab13	slti	x22,x5,-8	  x5:0x7d000000 x22=0x00000000
       77225000	      7721	800025c8	017b5513	srli	x10,x22,0x17	 x22:0x00000000 x10=0x00000000
       77235000	      7722	800025cc	01c2c733	xor	x14,x5,x28	  x5:0x7d000000 x28:0x80009fc4 x14=0xfd009fc4
       77245000	      7723	800025d0	041af263	bgeu	x21,x1,80002614	 x21:0x00000000  x1:0x00000000
       77255000	      7724	00000000	00000013	addi	x0,x0,0	  x0:0x00000000
       77265000	      7725	80002610	00000013	addi	x0,x0,0	  x0:0x00000000
       77275000	      7726	80002614	3a94e993	ori	x19,x9,937	  x9:0x00000000 x19=0x000003a9
       77285000	      7727	80002618	023ed063	bge	x29,x3,80002638	 x29:0x00000001  x3:0x80002598
       77295000	      7728	00000000	00000013	addi	x0,x0,0	  x0:0x00000000
       77305000	      7729	80002634	00000013	addi	x0,x0,0	  x0:0x00000000
       77315000	      7730	80002638	011d47b3	xor	x15,x26,x17	 x26:0x00000361 x17:0x68b8d000 x15=0x68b8d361
       77325000	      7731	8000263c	0177a0b3	slt	x1,x15,x23	 x15:0x68b8d361 x23:0x00000361  x1=0x00000000
       77335000	      7732	80002640	71bf9b17	auipc	x22,0x71bf9	 x22=0xf1bfb63c
       77345000	      7733	80002644	0043a183	lw	x3,4(x7)	  x7:0x80009f30  x3=0x800004dc PA:0x80009f34
       77355000	      7734	80002648	00ad3033	sltu	x0,x26,x10	 x26:0x00000361 x10:0x00000000
       77365000	      7735	8000264c	03c38393	addi	x7,x7,60	  x7:0x80009f30  x7=0x80009f6c
       77375000	      7736	80002650	403adf93	srai	x31,x21,0x3	 x21:0x00000000 x31=0x00000000
       77385000	      7737	80002654	d62310b7	lui	x1,0xd6231	  x1=0xd6231000
       77395000	      7738	80002658	87dd3813	sltiu	x16,x26,-1923	 x26:0x00000361 x16=0x00000001
       77405000	      7739	8000265c	0015d133	srl	x2,x11,x1	 x11:0x475a92bc  x1:0xd6231000  x2=0x475a92bc
       77415000	      7740	80002660	00ad1f33	sll	x30,x26,x10	 x26:0x00000361 x10:0x00000000 x30=0x00000361
       77425000	      7741	80002664	00018d93	addi	x27,x3,0	  x3:0x800004dc x27=0x800004dc
       77435000	      7742	80002668	000d8de7	jalr	x27,x27,0	 x27:0x800004dc x27=0x80002668
       77445000	      7743	00000000	00000013	addi	x0,x0,0	  x0:0x00000000
       77455000	      7744	800004dc	00000013	addi	x0,x0,0	  x0:0x00000000
       77465000	      7745	800004e0	b4f11b97	auipc	x23,0xb4f11	 x23=0x34f114dc
       77475000	      7746	800004e4	00006817	auipc	x16,0x6	 x16=0x800064e0
       77485000	      7747	800004e8	49480813	addi	x16,x16,1172	 x16:0x800064e0 x16=0x80006974
       77495000	      7748	800004ec	007b12b3	sll	x5,x22,x7	 x22:0xf1bfb63c  x7:0x80009f6c  x5=0xfb63c000
       77505000	      7749	800004f0	01e0fcb3	and	x25,x1,x30	  x1:0xd6231000 x30:0x00000361 x25=0x00000000
       77515000	      7750	800004f4	01819b33	sll	x22,x3,x24	  x3:0x800004dc x24:0xffffffff x22=0x00000000
       77525000	      7751	800004f8	e2a80813	addi	x16,x16,-470	 x16:0x80006974 x16=0x8000679e
       77535000	      7752	800004fc	00a49293	slli	x5,x9,0xa	  x9:0x00000000  x5=0x00000000
       77545000	      7753	80000500	f0ddab93	slti	x23,x27,-243	 x27:0x80002668 x23=0x00000001
       77555000	      7754	80000504	00b46a63	bltu	x8,x11,80000518	  x8:0x96b53000 x11:0x475a92bc
       77565000	      7755	80000508	0141e233	or	x4,x3,x20	  x3:0x800004dc x20:0xfcff603b  x4=0xfcff64ff
       77575000	      7756	8000050c	00f032b3	sltu	x5,x0,x15	  x0:0x00000000 x15:0x68b8d361  x5=0x00000001
       77585000	      7757	80000510	01cbcdb3	xor	x27,x23,x28	 x23:0x00000001 x28:0x80009fc4 x27=0x80009fc5
       77595000	      7758	80000514	01d24433	xor	x8,x4,x29	  x4:0xfcff64ff x29:0x00000001  x8=0xfcff64fe
       77605000	      7759	80000518	1d6801e7	jalr	x3,x16,470	 x16:0x8000679e  x3=0x80000518
       77615000	      7760	00000000	00000013	addi	x0,x0,0	  x0:0x00000000
       77625000	      7761	80006974	00000013	addi	x0,x0,0	  x0:0x00000000
       77635000	      7762	80006978	d1628d13	addi	x26,x5,-746	  x5:0x00000001 x26=0xfffffd17
       77645000	      7763	8000697c	01771663	bne	x14,x23,80006988	 x14:0xfd009fc4 x23:0x00000001
       77655000	      7764	00000000	00000013	addi	x0,x0,0	  x0:0x00000000
       77665000	      7765	80006984	00000013	addi	x0,x0,0	  x0:0x00000000
       77675000	      7766	80006988	fec38393	addi	x7,x7,-20	  x7:0x80009f6c  x7=0x80009f58
       77685000	      7767	8000698c	0033a223	sw	x3,4(x7)	  x7:0x80009f58  x3:0x80000518 PA:0x80009f5c
       77695000	      7768	80006990	0026dc13	srli	x24,x13,0x2	 x13:0x80009fc5 x24=0x200027f1
       77705000	      7769	80006994	0006aeb3	slt	x29,x13,x0	 x13:0x80009fc5  x0:0x00000000 x29=0x00000001
       77715000	      7770	80006998	930e2f13	slti	x30,x28,-1744	 x28:0x80009fc4 x30=0x00000001
       77725000	      7771	8000699c	01771c93	slli	x25,x14,0x17	 x14:0xfd009fc4 x25=0xe2000000
       77735000	      7772	800069a0	41585db3	sra	x27,x16,x21	 x16:0x8000679e x21:0x00000000 x27=0x8000679e
       77745000	      7773	800069a4	01203533	sltu	x10,x0,x18	  x0:0x00000000 x18:0x475a92a9 x10=0x00000001
       77755000	      7774	800069a8	00b0bf33	sltu	x30,x1,x11	  x1:0xd6231000 x11:0x475a92bc x30=0x00000000
       77765000	      7775	800069ac	f0a92313	slti	x6,x18,-246	 x18:0x475a92a9  x6=0x00000000
       77775000	      7776	800069b0	004c0633	add	x12,x24,x4	 x24:0x200027f1  x4:0xfcff64ff x12=0x1cff8cf0
       77785000	      7777	800069b4	9e5fd1ef	jal	x3,800069b4	  x3=0x800069b4
       77795000	      7778	00000000	00000013	addi	x0,x0,0	  x0:0x00000000
       77805000	      7779	80004394	00000013	addi	x0,x0,0	  x0:0x00000000
       77815000	      7780	80004398	01519463	bne	x3,x21,800043a0	  x3:0x800069b4 x21:0x00000000
       77825000	      7781	00000000	00000013	addi	x0,x0,0	  x0:0x00000000
       77835000	      7782	8000439c	00000013	addi	x0,x0,0	  x0:0x00000000
       77845000	      7783	800043a0	fd038393	addi	x7,x7,-48	  x7:0x80009f58  x7=0x80009f28
       77855000	      7784	800043a4	fefcc493	xori	x9,x25,-17	 x25:0xe2000000  x9=0x1dffffef
       77865000	      7785	800043a8	112c6f13	ori	x30,x24,274	 x24:0x200027f1 x30=0x200027f3
       77875000	      7786	800043ac	40c4d593	srai	x11,x9,0xc	  x9:0x1dffffef x11=0x0001dfff
       77885000	      7787	800043b0	0033a223	sw	x3,4(x7)	  x7:0x80009f28  x3:0x800069b4 PA:0x80009f2c
       77895000	      7788	800043b4	e79de213	ori	x4,x27,-391	 x27:0x8000679e  x4=0xffffffff
       77905000	      7789	800043b8	00004d97	auipc	x27,0x4	 x27=0x800083b4
       77915000	      7790	800043bc	31fd8d93	addi	x27,x27,799	 x27:0x800083b4 x27=0x800086d3
       77925000	      7791	800043c0	000030b3	sltu	x1,x0,x0	  x0:0x00000000  x0:0x00000000  x1=0x00000000
       77935000	      7792	800043c4	b15da603	lw	x12,-1259(x27)	 x27:0x800086d3 x12=0x00000000 PA:0x800081e8
       77945000	      7793	800043c8	bdfd9003	lh	x0,-1057(x27)	 x27:0x800086d3 PA:0x800082b2
       77955000	      7794	800043cc	0112ecb3	or	x25,x5,x17	  x5:0x00000001 x17:0x68b8d000 x25=0x68b8d001
       77965000	      7795	800043d0	41b4d1b3	sra	x3,x9,x27	  x9:0x1dffffef x27:0x800086d3  x3=0x000003bf
       77975000	      7796	800043d4	012e4eb3	xor	x29,x28,x18	 x28:0x80009fc4 x18:0x475a92a9 x29=0xc75a0d6d
       77985000	      7797	800043d8	ea6d8d03	lb	x26,-346(x27)	 x27:0x800086d3 x26=0x00000000 PA:0x80008579
       77995000	      7798	800043dc	4038d813	srai	x16,x17,0x3	 x17:0x68b8d000 x16=0x0d171a00
       78005000	      7799	800043e0	d30d8283	lb	x5,-720(x27)	 x27:0x800086d3  x5=0x00000000 PA:0x80008403
       78015000	      7800	800043e4	40760433	sub	x8,x12,x7	 x12:0x00000000  x7:0x80009f28  x8=0x7fff60d8
       78025000	      7801	800043e8	1ea0e4b7	lui	x9,0x1ea0e	  x9=0x1ea0e000
       78035000	      7802	800043ec	c8f70f13	addi	x30,x14,-881	 x14:0xfd009fc4 x30=0xfd009c53
       78045000	      7803	800043f0	412a8033	sub	x0,x21,x18	 x21:0x00000000 x18:0x475a92a9
       78055000	      7804	800043f4	5bc3bf93	sltiu	x31,x7,1468	  x7:0x80009f28 x31=0x00000000
       78065000	      7805	800043f8	00f7b1b3	sltu	x3,x15,x15	 x15:0x68b8d361 x15:0x68b8d361  x3=0x00000000
       78075000	      7806	800043fc	01cf1b13	slli	x22,x30,0x1c	 x30:0xfd009c53 x22=0x30000000
       78085000	      7807	80004400	0105d133	srl	x2,x11,x16	 x11:0x0001dfff x16:0x0d171a00  x2=0x0001dfff
       78095000	      7808	80004404	41db00b3	sub	x1,x22,x29	 x22:0x30000000 x29:0xc75a0d6d  x1=0x68a5f293
       78105000	      7809	80004408	e8dd9303	lh	x6,-371(x27)	 x27:0x800086d3  x6=0xffffa9a9 PA:0x80008560
       78115000	      7810	8000440c	c63dc603	lbu	x12,-925(x27)	 x27:0x800086d3 x12=0x00000000 PA:0x80008336
       78125000	      7811	80004410	01ab66b3	or	x13,x22,x26	 x22:0x30000000 x26:0x00000000 x13=0x30000000
       78135000	      7812	80004414	00b81593	slli	x11,x16,0xb	 x16:0x0d171a00 x11=0xb8d00000
       78145000	      7813	80004418	b5dddb83	lhu	x23,-1187(x27)	 x27:0x800086d3 x23=0x00000000 PA:0x80008230
       78155000	      7814	8000441c	01fa7fb3	and	x31,x20,x31	 x20:0xfcff603b x31:0x00000000 x31=0x00000000
       78165000	      7815	80004420	092d8883	lb	x17,146(x27)	 x27:0x800086d3 x17=0x00000000 PA:0x80008765
       78175000	      7816	80004424	fb0d8fa3	sb	x16,-65(x27)	 x27:0x800086d3 x16:0x0d171a00 PA:0x80008692
       78185000	      7817	80004428	b5eda4a3	sw	x30,-1207(x27)	 x27:0x800086d3 x30:0xfd009c53 PA:0x8000821c
       78195000	      7818	8000442c	a10dc203	lbu	x4,-1520(x27)	 x27:0x800086d3  x4=0x00000000 PA:0x800080e3
       78205000	      7819	80004430	de7d8aa3	sb	x7,-523(x27)	 x27:0x800086d3  x7:0x80009f28 PA:0x800084c8
       78215000	      7820	80004434	eecdc103	lbu	x2,-276(x27)	 x27:0x800086d3  x2=0x00000000 PA:0x800085bf
       78225000	      7821	80004438	aed71517	auipc	x10,0xaed71	 x10=0x2ed75434
       78235000	      7822	8000443c	00122eb3	slt	x29,x4,x1	  x4:0x00000000  x1:0x68a5f293 x29=0x00000001
       78245000	      7823	80004440	eaed8683	lb	x13,-338(x27)	 x27:0x800086d3 x13=0x00000000 PA:0x80008581
       78255000	      7824	80004444	00af84b3	add	x9,x31,x10	 x31:0x00000000 x10:0x2ed75434  x9=0x2ed75434
       78265000	      7825	80004448	231dca93	xori	x21,x27,561	 x27:0x800086d3 x21=0x800084e2
       78275000	      7826	8000444c	00ba16b3	sll	x13,x20,x11	 x20:0xfcff603b x11:0xb8d00000 x13=0xfcff603b
       78285000	      7827	80004450	ab5ddd03	lhu	x26,-1355(x27)	 x27:0x800086d3 x26=0x00000000 PA:0x80008188
       78295000	      7828	80004454	abbdc683	lbu	x13,-1349(x27)	 x27:0x800086d3 x13=0x00000000 PA:0x8000818e
       78305000	      7829	80004458	00004217	auipc	x4,0x4	  x4=0x80008454
       78315000	      7830	8000445c	57f20213	addi	x4,x4,1407	  x4:0x80008454  x4=0x800089d3
       78325000	      7831	80004460	6f13f613	andi	x12,x7,1777	  x7:0x80009f28 x12=0x00000620
       78335000	      7832	80004464	00000013	addi	x0,x0,0	  x0:0x00000000
       78345000	      7833	80004468	04020883	lb	x17,64(x4)	  x4:0x800089d3 x17=0x00000000 PA:0x80008a13
       78355000	      7834	00000000	00000013	addi	x0,x0,0	  x0:0x00000000
       78365000	      7835	8000446c	00e8acb3	slt	x25,x17,x14	 x17:0x00000000 x14:0xfd009fc4 x25=0x00000000
       78375000	      7836	80004470	039215a3	sh	x25,43(x4)	  x4:0x800089d3 x25:0x00000000 PA:0x800089fe
       78385000	      7837	80004474	41775413	srai	x8,x14,0x17	 x14:0xfd009fc4  x8=0xfffffffa
       78395000	      7838	80004478	00920c23	sb	x9,24(x4)	  x4:0x800089d3  x9:0x2ed75434 PA:0x800089eb
       78405000	      7839	8000447c	02320023	sb	x3,32(x4)	  x4:0x800089d3  x3:0x00000000 PA:0x800089f3
       78415000	      7840	80004480	04024a83	lbu	x21,64(x4)	  x4:0x800089d3 x21=0x00000000 PA:0x80008a13
       78425000	      7841	80004484	03124403	lbu	x8,49(x4)	  x4:0x800089d3  x8=0x00000000 PA:0x80008a04
       78435000	      7842	80004488	fd320c03	lb	x24,-45(x4)	  x4:0x800089d3 x24=0x00000000 PA:0x800089a6
       78445000	      7843	8000448c	40b75813	srai	x16,x14,0xb	 x14:0xfd009fc4 x16=0xffffa013
       78455000	      7844	80004490	00d396b3	sll	x13,x7,x13	  x7:0x80009f28 x13:0x00000000 x13=0x80009f28
       78465000	      7845	80004494	4ad3a193	slti	x3,x7,1197	  x7:0x80009f28  x3=0x00000001
       78475000	      7846	80004498	005ee733	or	x14,x29,x5	 x29:0x00000001  x5:0x00000000 x14=0x00000001
       78485000	      7847	8000449c	ff724a83	lbu	x21,-9(x4)	  x4:0x800089d3 x21=0x00000000 PA:0x800089ca
       78495000	      7848	800044a0	fc321583	lh	x11,-61(x4)	  x4:0x800089d3 x11=0x00000000 PA:0x80008996
       78505000	      7849	800044a4	03520323	sb	x21,38(x4)	  x4:0x800089d3 x21:0x00000000 PA:0x800089f9
       78515000	      7850	800044a8	fd121d03	lh	x26,-47(x4)	  x4:0x800089d3 x26=0x00000000 PA:0x800089a4
       78525000	      7851	800044ac	00be8f33	add	x30,x29,x11	 x29:0x00000001 x11:0x00000000 x30=0x00000001
       78535000	      7852	800044b0	0195e333	or	x6,x11,x25	 x11:0x00000000 x25:0x00000000  x6=0x00000000
       78545000	      7853	800044b4	ffc20303	lb	x6,-4(x4)	  x4:0x800089d3  x6=0x00000000 PA:0x800089cf
       78555000	      7854	800044b8	01224703	lbu	x14,18(x4)	  x4:0x800089d3 x14=0x00000000 PA:0x800089e5
       78565000	      7855	800044bc	00004117	auipc	x2,0x4	  x2=0x800084b8
       78575000	      7856	800044c0	eab10113	addi	x2,x2,-341	  x2:0x800084b8  x2=0x80008363
       78585000	      7857	800044c4	82234513	xori	x10,x6,-2014	  x6:0x00000000 x10=0xfffff822
       78595000	      7858	800044c8	233b7193	andi	x3,x22,563	 x22:0x30000000  x3=0x00000000
       78605000	      7859	800044cc	01978033	add	x0,x15,x25	 x15:0x68b8d361 x25:0x00000000
       78615000	      7860	800044d0	00b10823	sb	x11,16(x2)	  x2:0x80008363 x11:0x00000000 PA:0x80008373
       78625000	      7861	800044d4	011a10b3	sll	x1,x20,x17	 x20:0xfcff603b x17:0x00000000  x1=0xfcff603b
       78635000	      7862	800044d8	4026d193	srai	x3,x13,0x2	 x13:0x80009f28  x3=0xe00027ca
       78645000	      7863	800044dc	41275cb3	sra	x25,x14,x18	 x14:0x00000000 x18:0x475a92a9 x25=0x00000000
       78655000	      7864	800044e0	ff111883	lh	x17,-15(x2)	  x2:0x80008363 x17=0x00000000 PA:0x80008354
       78665000	      7865	800044e4	008b89b3	add	x19,x23,x8	 x23:0x00000000  x8:0x00000000 x19=0x00000000
       78675000	      7866	800044e8	0199e5b3	or	x11,x19,x25	 x19:0x00000000 x25:0x00000000 x11=0x00000000
       78685000	      7867	800044ec	6f11d837	lui	x16,0x6f11d	 x16=0x6f11d000
       78695000	      7868	800044f0	00000013	addi	x0,x0,0	  x0:0x00000000
       78705000	      7869	800044f4	f5673b13	sltiu	x22,x14,-170	 x14:0x00000000 x22=0x00000001
       78715000	      7870	800044f8	00010203	lb	x4,0(x2)	  x2:0x80008363  x4=0x00000000 PA:0x80008363
       78725000	      7871	800044fc	00efb8b3	sltu	x17,x31,x14	 x31:0x00000000 x14:0x00000000 x17=0x00000000
       78735000	      7872	80004500	8bc67e93	andi	x29,x12,-1860	 x12:0x00000620 x29=0x00000020
       78745000	      7873	80004504	000116a3	sh	x0,13(x2)	  x2:0x80008363  x0:0x00000000 PA:0x80008370
       78755000	      7874	80004508	88dd8593	addi	x11,x27,-1907	 x27:0x800086d3 x11=0x80007f60
       78765000	      7875	8000450c	ff715d03	lhu	x26,-9(x2)	  x2:0x80008363 x26=0x00002e00 PA:0x8000835a
       78775000	      7876	80004510	00915183	lhu	x3,9(x2)	  x2:0x80008363  x3=0x0000f000 PA:0x8000836c
       78785000	      7877	80004514	00b07f33	and	x30,x0,x11	  x0:0x00000000 x11:0x80007f60 x30=0x00000000
       78795000	      7878	80004518	fe912aa3	sw	x9,-11(x2)	  x2:0x80008363  x9:0x2ed75434 PA:0x80008358
       78805000	      7879	8000451c	01b01c33	sll	x24,x0,x27	  x0:0x00000000 x27:0x800086d3 x24=0x00000000
       78815000	      7880	80004520	fe4118a3	sh	x4,-15(x2)	  x2:0x80008363  x4:0x00000000 PA:0x80008354
       78825000	      7881	80004524	406082b3	sub	x5,x1,x6	  x1:0xfcff603b  x6:0x00000000  x5=0xfcff603b
       78835000	      7882	80004528	01a116a3	sh	x26,13(x2)	  x2:0x80008363 x26:0x00002e00 PA:0x80008370
       78845000	      7883	8000452c	01118733	add	x14,x3,x17	  x3:0x0000f000 x17:0x00000000 x14=0x0000f000
       78855000	      7884	80004530	00a10283	lb	x5,10(x2)	  x2:0x80008363  x5=0xfffffff0 PA:0x8000836d
       78865000	      7885	80004534	fe610ba3	sb	x6,-9(x2)	  x2:0x80008363  x6:0x00000000 PA:0x8000835a
       78875000	      7886	80004538	00a10223	sb	x10,4(x2)	  x2:0x80008363 x10:0xfffff822 PA:0x80008367
       78885000	      7887	8000453c	01723333	sltu	x6,x4,x23	  x4:0x00000000 x23:0x00000000  x6=0x00000000
       78895000	      7888	80004540	40295cb3	sra	x25,x18,x2	 x18:0x475a92a9  x2:0x80008363 x25=0x08eb5255
       78905000	      7889	80004544	fe110b23	sb	x1,-10(x2)	  x2:0x80008363  x1:0xfcff603b PA:0x80008359
       78915000	      7890	80004548	00004117	auipc	x2,0x4	  x2=0x80008544
       78925000	      7891	8000454c	b0410113	addi	x2,x2,-1276	  x2:0x80008544  x2=0x80008048
       78935000	      7892	80004550	01d23b33	sltu	x22,x4,x29	  x4:0x00000000 x29:0x00000020 x22=0x00000001
       78945000	      7893	80004554	00710723	sb	x7,14(x2)	  x2:0x80008048  x7:0x80009f28 PA:0x80008056
       78955000	      7894	80004558	010574b3	and	x9,x10,x16	 x10:0xfffff822 x16:0x6f11d000  x9=0x6f11d000
       78965000	      7895	8000455c	01c851b3	srl	x3,x16,x28	 x16:0x6f11d000 x28:0x80009fc4  x3=0x06f11d00
       78975000	      7896	80004560	00ab3433	sltu	x8,x22,x10	 x22:0x00000001 x10:0xfffff822  x8=0x00000001
       78985000	      7897	80004564	408b5013	srai	x0,x22,0x8	 x22:0x00000001
       78995000	      7898	80004568	00510a03	lb	x20,5(x2)	  x2:0x80008048 x20=0x00000000 PA:0x8000804d
       79005000	      7899	8000456c	00000013	addi	x0,x0,0	  x0:0x00000000
       79015000	      7900	80004570	00714a83	lbu	x21,7(x2)	  x2:0x80008048 x21=0x00000000 PA:0x8000804f
       79025000	      7901	80004574	01ac5533	srl	x10,x24,x26	 x24:0x00000000 x26:0x00002e00 x10=0x00000000
       79035000	      7902	80004578	00511723	sh	x5,14(x2)	  x2:0x80008048  x5:0xfffffff0 PA:0x80008056
       79045000	      7903	8000457c	00df1893	slli	x17,x30,0xd	 x30:0x00000000 x17=0x00000000
       79055000	      7904	80004580	00b10f83	lb	x31,11(x2)	  x2:0x80008048 x31=0x00000000 PA:0x80008053
       79065000	      7905	80004584	0029e8b3	or	x17,x19,x2	 x19:0x00000000  x2:0x80008048 x17=0x80008048
       79075000	      7906	80004588	00e11303	lh	x6,14(x2)	  x2:0x80008048  x6=0xfffffff0 PA:0x80008056
       79085000	      7907	8000458c	00f10223	sb	x15,4(x2)	  x2:0x80008048 x15:0x68b8d361 PA:0x8000804c
       79095000	      7908	80004590	018b6fb3	or	x31,x22,x24	 x22:0x00000001 x24:0x00000000 x31=0x00000001
       79105000	      7909	80004594	00714d83	lbu	x27,7(x2)	  x2:0x80008048 x27=0x00000000 PA:0x8000804f
       79115000	      7910	80004598	00410983	lb	x19,4(x2)	  x2:0x80008048 x19=0x00000061 PA:0x8000804c
       79125000	      7911	00000000	00000013	addi	x0,x0,0	  x0:0x00000000
       79135000	      7912	8000459c	013240b3	xor	x1,x4,x19	  x4:0x00000000 x19:0x00000061  x1=0x00000061
       79145000	      7913	800045a0	1bb88a93	addi	x21,x17,443	 x17:0x80008048 x21=0x80008203
       79155000	      7914	800045a4	00845793	srli	x15,x8,0x8	  x8:0x00000001 x15=0x00000000
       79165000	      7915	800045a8	418958b3	sra	x17,x18,x24	 x18:0x475a92a9 x24:0x00000000 x17=0x475a92a9
       79175000	      7916	800045ac	01526ab3	or	x21,x4,x21	  x4:0x00000000 x21:0x80008203 x21=0x80008203
       79185000	      7917	800045b0	2e83d717	auipc	x14,0x2e83d	 x14=0xae8415ac
       79195000	      7918	800045b4	16b20193	addi	x3,x4,363	  x4:0x00000000  x3=0x0000016b
       79205000	      7919	800045b8	00000013	addi	x0,x0,0	  x0:0x00000000
       79215000	      7920	800045bc	0082e2b3	or	x5,x5,x8	  x5:0xfffffff0  x8:0x00000001  x5=0xfffffff1
       79225000	      7921	800045c0	41658ab3	sub	x21,x11,x22	 x11:0x80007f60 x22:0x00000001 x21=0x80007f5f
       79235000	      7922	800045c4	00672a33	slt	x20,x14,x6	 x14:0xae8415ac  x6:0xfffffff0 x20=0x00000001
       79245000	      7923	800045c8	011871b3	and	x3,x16,x17	 x16:0x6f11d000 x17:0x475a92a9  x3=0x47109000
       79255000	      7924	800045cc	011b6eb3	or	x29,x22,x17	 x22:0x00000001 x17:0x475a92a9 x29=0x475a92a9
       79265000	      7925	800045d0	1d7ddf37	lui	x30,0x1d7dd	 x30=0x1d7dd000
       79275000	      7926	800045d4	40ea8533	sub	x10,x21,x14	 x21:0x80007f5f x14:0xae8415ac x10=0xd17c69b3
       79285000	      7927	800045d8	34ba0f97	auipc	x31,0x34ba0	 x31=0xb4ba45d4
       79295000	      7928	800045dc	85797d17	auipc	x26,0x85797	 x26=0x0579b5d8
       79305000	      7929	800045e0	00b3db93	srli	x23,x7,0xb	  x7:0x80009f28 x23=0x00100013
       79315000	      7930	800045e4	01911723	sh	x25,14(x2)	  x2:0x80008048 x25:0x08eb5255 PA:0x80008056
       79325000	      7931	800045e8	89266f97	auipc	x31,0x89266	 x31=0x0926a5e4
       79335000	      7932	800045ec	01a3c1b3	xor	x3,x7,x26	  x7:0x80009f28 x26:0x0579b5d8  x3=0x85792af0
       79345000	      7933	800045f0	01014983	lbu	x19,16(x2)	  x2:0x80008048 x19=0x00000000 PA:0x80008058
       79355000	      7934	800045f4	00004117	auipc	x2,0x4	  x2=0x800085f0
       79365000	      7935	800045f8	d7210113	addi	x2,x2,-654	  x2:0x800085f0  x2=0x80008362
       79375000	      7936	800045fc	fe6ab717	auipc	x14,0xfe6ab	 x14=0x7e6af5f8
       79385000	      7937	80004600	03010423	sb	x16,40(x2)	  x2:0x80008362 x16:0x6f11d000 PA:0x8000838a
       79395000	      7938	80004604	00e668b3	or	x17,x12,x14	 x12:0x00000620 x14:0x7e6af5f8 x17=0x7e6af7f8
       79405000	      7939	80004608	41e85d93	srai	x27,x16,0x1e	 x16:0x6f11d000 x27=0x00000001
       79415000	      7940	8000460c	fd110783	lb	x15,-47(x2)	  x2:0x80008362 x15=0x00000000 PA:0x80008333
       79425000	      7941	00000000	00000013	addi	x0,x0,0	  x0:0x00000000
       79435000	      7942	80004610	0197cb33	xor	x22,x15,x25	 x15:0x00000000 x25:0x08eb5255 x22=0x08eb5255
       79445000	      7943	80004614	fc210623	sb	x2,-52(x2)	  x2:0x80008362  x2:0x80008362 PA:0x8000832e
       79455000	      7944	80004618	ffe11483	lh	x9,-2(x2)	  x2:0x80008362  x9=0x00000000 PA:0x80008360
       79465000	      7945	8000461c	00510da3	sb	x5,27(x2)	  x2:0x80008362  x5:0xfffffff1 PA:0x8000837d
       79475000	      7946	80004620	83cdcb13	xori	x22,x27,-1988	 x27:0x00000001 x22=0xfffff83d
       79485000	      7947	80004624	ffd14f03	lbu	x30,-3(x2)	  x2:0x80008362 x30=0x00000000 PA:0x8000835f
       79495000	      7948	80004628	4097d633	sra	x12,x15,x9	 x15:0x00000000  x9:0x00000000 x12=0x00000000
       79505000	      7949	8000462c	01b45c13	srli	x24,x8,0x1b	  x8:0x00000001 x24=0x00000000
       79515000	      7950	80004630	d6c9c097	auipc	x1,0xd6c9c	  x1=0x56ca062c
       79525000	      7951	80004634	00000013	addi	x0,x0,0	  x0:0x00000000
       79535000	      7952	80004638	00114703	lbu	x14,1(x2)	  x2:0x80008362 x14=0x00000000 PA:0x80008363
       79545000	      7953	8000463c	03a12f23	sw	x26,62(x2)	  x2:0x80008362 x26:0x0579b5d8 PA:0x800083a0
       79555000	      7954	80004640	00212b03	lw	x22,2(x2)	  x2:0x80008362 x22=0x22000000 PA:0x80008364
       79565000	      7955	80004644	00561a13	slli	x20,x12,0x5	 x12:0x00000000 x20=0x00000000
       79575000	      7956	80004648	01d14083	lbu	x1,29(x2)	  x2:0x80008362  x1=0x00000000 PA:0x8000837f
       79585000	      7957	8000464c	41410033	sub	x0,x2,x20	  x2:0x80008362 x20:0x00000000
       79595000	      7958	80004650	00c65693	srli	x13,x12,0xc	 x12:0x00000000 x13=0x00000000
       79605000	      7959	80004654	019ce8b3	or	x17,x25,x25	 x25:0x08eb5255 x25:0x08eb5255 x17=0x08eb5255
       79615000	      7960	80004658	02310c83	lb	x25,35(x2)	  x2:0x80008362 x25=0x00000000 PA:0x80008385
       79625000	      7961	8000465c	00512f23	sw	x5,30(x2)	  x2:0x80008362  x5:0xfffffff1 PA:0x80008380
       79635000	      7962	80004660	bce40013	addi	x0,x8,-1074	  x8:0x00000001
       79645000	      7963	80004664	00405513	srli	x10,x0,0x4	  x0:0x00000000 x10=0x00000000
       79655000	      7964	80004668	011aa333	slt	x6,x21,x17	 x21:0x80007f5f x17:0x08eb5255  x6=0x00000001
       79665000	      7965	8000466c	01510ba3	sb	x21,23(x2)	  x2:0x80008362 x21:0x80007f5f PA:0x80008379
       79675000	      7966	80004670	fc010503	lb	x10,-64(x2)	  x2:0x80008362 x10=0x00000000 PA:0x80008322
       79685000	      7967	80004674	01dcedb3	or	x27,x25,x29	 x25:0x00000000 x29:0x475a92a9 x27=0x475a92a9
       79695000	      7968	80004678	01f10da3	sb	x31,27(x2)	  x2:0x80008362 x31:0x0926a5e4 PA:0x8000837d
       79705000	      7969	8000467c	003105a3	sb	x3,11(x2)	  x2:0x80008362  x3:0x85792af0 PA:0x8000836d
       79715000	      7970	80004680	41dbdf13	srai	x30,x23,0x1d	 x23:0x00100013 x30=0x00000000
       79725000	      7971	80004684	03414c83	lbu	x25,52(x2)	  x2:0x80008362 x25=0x00000000 PA:0x80008396
       79735000	      7972	80004688	fca10f03	lb	x30,-54(x2)	  x2:0x80008362 x30=0x00000000 PA:0x8000832c
       79745000	      7973	8000468c	00004317	auipc	x6,0x4	  x6=0x80008688
       79755000	      7974	80004690	be630313	addi	x6,x6,-1050	  x6:0x80008688  x6=0x8000826e
       79765000	      7975	80004694	e2f303a3	sb	x15,-473(x6)	  x6:0x8000826e x15:0x00000000 PA:0x80008095
       79775000	      7976	80004698	007630b3	sltu	x1,x12,x7	 x12:0x00000000  x7:0x80009f28  x1=0x00000001
       79785000	      7977	8000469c	4107d093	srai	x1,x15,0x10	 x15:0x00000000  x1=0x00000000
       79795000	      7978	800046a0	0da35803	lhu	x16,218(x6)	  x6:0x8000826e x16=0x00000000 PA:0x80008348
       79805000	      7979	800046a4	016311b3	sll	x3,x6,x22	  x6:0x8000826e x22:0x22000000  x3=0x8000826e
       79815000	      7980	800046a8	009cacb3	slt	x25,x25,x9	 x25:0x00000000  x9:0x00000000 x25=0x00000000
       79825000	      7981	800046ac	00000013	addi	x0,x0,0	  x0:0x00000000
       79835000	      7982	800046b0	21231d83	lh	x27,530(x6)	  x6:0x8000826e x27=0x00000000 PA:0x80008480
       79845000	      7983	800046b4	e9a31223	sh	x26,-380(x6)	  x6:0x8000826e x26:0x0579b5d8 PA:0x800080f2
       79855000	      7984	800046b8	f4930483	lb	x9,-183(x6)	  x6:0x8000826e  x9=0x00000000 PA:0x800081b7
       79865000	      7985	800046bc	15c31983	lh	x19,348(x6)	  x6:0x8000826e x19=0x00000000 PA:0x800083ca
       79875000	      7986	800046c0	40f55513	srai	x10,x10,0xf	 x10:0x00000000 x10=0x00000000
       79885000	      7987	800046c4	017e9cb3	sll	x25,x29,x23	 x29:0x475a92a9 x23:0x00100013 x25=0x95480000
       79895000	      7988	800046c8	0036f1b3	and	x3,x13,x3	 x13:0x00000000  x3:0x8000826e  x3=0x00000000
       79905000	      7989	800046cc	e1c31983	lh	x19,-484(x6)	  x6:0x8000826e x19=0x00000000 PA:0x8000808a
       79915000	      7990	800046d0	005b39b3	sltu	x19,x22,x5	 x22:0x22000000  x5:0xfffffff1 x19=0x00000001
       79925000	      7991	800046d4	c8c9cf93	xori	x31,x19,-884	 x19:0x00000001 x31=0xfffffc8d
       79935000	      7992	800046d8	51130d03	lb	x26,1297(x6)	  x6:0x8000826e x26=0x00000000 PA:0x8000877f
       79945000	      7993	800046dc	41985893	srai	x17,x16,0x19	 x16:0x00000000 x17=0x00000000
       79955000	      7994	800046e0	53631023	sh	x22,1312(x6)	  x6:0x8000826e x22:0x22000000 PA:0x8000878e
       79965000	      7995	800046e4	01b61c33	sll	x24,x12,x27	 x12:0x00000000 x27:0x00000000 x24=0x00000000
       79975000	      7996	800046e8	01b30ea3	sb	x27,29(x6)	  x6:0x8000826e x27:0x00000000 PA:0x8000828b
       79985000	      7997	800046ec	00ea18b3	sll	x17,x20,x14	 x20:0x00000000 x14:0x00000000 x17=0x00000000
       79995000	      7998	800046f0	016bfd33	and	x26,x23,x22	 x23:0x00100013 x22:0x22000000 x26=0x00000000
       80005000	      7999	800046f4	016c8b33	add	x22,x25,x22	 x25:0x95480000 x22:0x22000000 x22=0xb7480000
       80015000	      8000	800046f8	0070da93	srli	x21,x1,0x7	  x1:0x00000000 x21=0x00000000
       80025000	      8001	800046fc	2d835b83	lhu	x23,728(x6)	  x6:0x8000826e x23=0x00000000 PA:0x80008546
       80035000	      8002	80004700	87e7ca13	xori	x20,x15,-1922	 x15:0x00000000 x20=0xfffff87e
       80045000	      8003	80004704	e2d30423	sb	x13,-472(x6)	  x6:0x8000826e x13:0x00000000 PA:0x80008096
       80055000	      8004	80004708	0143f133	and	x2,x7,x20	  x7:0x80009f28 x20:0xfffff87e  x2=0x80009828
       80065000	      8005	8000470c	45be0b13	addi	x22,x28,1115	 x28:0x80009fc4 x22=0x8000a41f
       80075000	      8006	80004710	0000e1b3	or	x3,x1,x0	  x1:0x00000000  x0:0x00000000  x3=0x00000000
       80085000	      8007	80004714	4bc31983	lh	x19,1212(x6)	  x6:0x8000826e x19=0x00004530 PA:0x8000872a
       80095000	      8008	80004718	410b5ab3	sra	x21,x22,x16	 x22:0x8000a41f x16:0x00000000 x21=0x8000a41f
       80105000	      8009	8000471c	00a61bb3	sll	x23,x12,x10	 x12:0x00000000 x10:0x00000000 x23=0x00000000
       80115000	      8010	80004720	eb134e83	lbu	x29,-335(x6)	  x6:0x8000826e x29=0x00000000 PA:0x8000811f
       80125000	      8011	80004724	3f9ae413	ori	x8,x21,1017	 x21:0x8000a41f  x8=0x8000a7ff
       80135000	      8012	80004728	40ebdf33	sra	x30,x23,x14	 x23:0x00000000 x14:0x00000000 x30=0x00000000
       80145000	      8013	8000472c	017d9513	slli	x10,x27,0x17	 x27:0x00000000 x10=0x00000000
       80155000	      8014	80004730	00c1d113	srli	x2,x3,0xc	  x3:0x00000000  x2=0x00000000
       80165000	      8015	80004734	d6612a93	slti	x21,x2,-666	  x2:0x00000000 x21=0x00000000
       80175000	      8016	80004738	179305a3	sb	x25,363(x6)	  x6:0x8000826e x25:0x95480000 PA:0x800083d9
       80185000	      8017	8000473c	011f4a33	xor	x20,x30,x17	 x30:0x00000000 x17:0x00000000 x20=0x00000000
       80195000	      8018	80004740	02ad3293	sltiu	x5,x26,42	 x26:0x00000000  x5=0x00000001
       80205000	      8019	80004744	e1793497	auipc	x9,0xe1793	  x9=0x61797740
       80215000	      8020	80004748	0e25f513	andi	x10,x11,226	 x11:0x80007f60 x10=0x00000060
       80225000	      8021	8000474c	05811863	bne	x2,x24,8000479c	  x2:0x00000000 x24:0x00000000
       80235000	      8022	80004750	03fc1063	bne	x24,x31,80004770	 x24:0x00000000 x31:0xfffffc8d
       80245000	      8023	00000000	00000013	addi	x0,x0,0	  x0:0x00000000
       80255000	      8024	8000476c	00000013	addi	x0,x0,0	  x0:0x00000000
       80265000	      8025	80004770	6a56acb7	lui	x25,0x6a56a	 x25=0x6a56a000
       80275000	      8026	80004774	0059d233	srl	x4,x19,x5	 x19:0x00004530  x5:0x00000001  x4=0x00002298
       80285000	      8027	80004778	fcdb6897	auipc	x17,0xfcdb6	 x17=0x7cdba774
       80295000	      8028	8000477c	00815013	srli	x0,x2,0x8	  x2:0x00000000
       80305000	      8029	80004780	08a4d8b7	lui	x17,0x8a4d	 x17=0x08a4d000
       80315000	      8030	80004784	01654533	xor	x10,x10,x22	 x10:0x00000060 x22:0x8000a41f x10=0x8000a47f
       80325000	      8031	80004788	05234263	blt	x6,x18,800047cc	  x6:0x8000826e x18:0x475a92a9
       80335000	      8032	00000000	00000013	addi	x0,x0,0	  x0:0x00000000
       80345000	      8033	800047c8	00000013	addi	x0,x0,0	  x0:0x00000000
       80355000	      8034	800047cc	0169d9b3	srl	x19,x19,x22	 x19:0x00004530 x22:0x8000a41f x19=0x00000000
       80365000	      8035	800047d0	03326263	bltu	x4,x19,800047f4	  x4:0x00002298 x19:0x00000000
       80375000	      8036	800047d4	01605233	srl	x4,x0,x22	  x0:0x00000000 x22:0x8000a41f  x4=0x00000000
       80385000	      8037	800047d8	013f6a33	or	x20,x30,x19	 x30:0x00000000 x19:0x00000000 x20=0x00000000
       80395000	      8038	800047dc	002f8533	add	x10,x31,x2	 x31:0xfffffc8d  x2:0x00000000 x10=0xfffffc8d
       80405000	      8039	800047e0	0271ea63	bltu	x3,x7,80004814	  x3:0x00000000  x7:0x80009f28
       80415000	      8040	00000000	00000013	addi	x0,x0,0	  x0:0x00000000
       80425000	      8041	80004810	00000013	addi	x0,x0,0	  x0:0x00000000
       80435000	      8042	80004814	7b55a117	auipc	x2,0x7b55a	  x2=0xfb55e810
       80445000	      8043	80004818	00daebb3	or	x23,x21,x13	 x21:0x00000000 x13:0x00000000 x23=0x00000000
       80455000	      8044	8000481c	01fd39b3	sltu	x19,x26,x31	 x26:0x00000000 x31:0xfffffc8d x19=0x00000001
       80465000	      8045	80004820	0054cd33	xor	x26,x9,x5	  x9:0x61797740  x5:0x00000001 x26=0x61797741
       80475000	      8046	80004824	00000013	addi	x0,x0,0	  x0:0x00000000
       80485000	      8047	80004828	4136d293	srai	x5,x13,0x13	 x13:0x00000000  x5=0x00000000
       80495000	      8048	8000482c	0537c063	blt	x15,x19,8000486c	 x15:0x00000000 x19:0x00000001
       80505000	      8049	00000000	00000013	addi	x0,x0,0	  x0:0x00000000
       80515000	      8050	80004868	00000013	addi	x0,x0,0	  x0:0x00000000
       80525000	      8051	8000486c	00311d33	sll	x26,x2,x3	  x2:0xfb55e810  x3:0x00000000 x26=0xfb55e810
       80535000	      8052	80004870	a6f0c313	xori	x6,x1,-1425	  x1:0x00000000  x6=0xfffffa6f
       80545000	      8053	80004874	553efc13	andi	x24,x29,1363	 x29:0x00000000 x24=0x00000000
       80555000	      8054	80004878	40425613	srai	x12,x4,0x4	  x4:0x00000000 x12=0x00000000
       80565000	      8055	8000487c	41c45c93	srai	x25,x8,0x1c	  x8:0x8000a7ff x25=0xfffffff8
       80575000	      8056	80004880	027bd263	bge	x23,x7,800048a4	 x23:0x00000000  x7:0x80009f28
       80585000	      8057	00000000	00000013	addi	x0,x0,0	  x0:0x00000000
       80595000	      8058	800048a0	00000013	addi	x0,x0,0	  x0:0x00000000
       80605000	      8059	800048a4	000c7233	and	x4,x24,x0	 x24:0x00000000  x0:0x00000000  x4=0x00000000
       80615000	      8060	800048a8	006e6a63	bltu	x28,x6,800048bc	 x28:0x80009fc4  x6:0xfffffa6f
       80625000	      8061	00000000	00000013	addi	x0,x0,0	  x0:0x00000000
       80635000	      8062	800048b8	00000013	addi	x0,x0,0	  x0:0x00000000
       80645000	      8063	800048bc	7d25a993	slti	x19,x11,2002	 x11:0x80007f60 x19=0x00000001
       80655000	      8064	800048c0	00cf5213	srli	x4,x30,0xc	 x30:0x00000000  x4=0x00000000
       80665000	      8065	800048c4	01321a13	slli	x20,x4,0x13	  x4:0x00000000 x20=0x00000000
       80675000	      8066	800048c8	00c76db3	or	x27,x14,x12	 x14:0x00000000 x12:0x00000000 x27=0x00000000
       80685000	      8067	800048cc	0063db13	srli	x22,x7,0x6	  x7:0x80009f28 x22=0x0200027c
       80695000	      8068	800048d0	0507d863	bge	x15,x16,80004920	 x15:0x00000000 x16:0x00000000
       80705000	      8069	00000000	00000013	addi	x0,x0,0	  x0:0x00000000
       80715000	      8070	8000491c	00000013	addi	x0,x0,0	  x0:0x00000000
       80725000	      8071	80004920	04b07863	bgeu	x0,x11,80004970	  x0:0x00000000 x11:0x80007f60
       80735000	      8072	80004924	d699e513	ori	x10,x19,-663	 x19:0x00000001 x10=0xfffffd69
       80745000	      8073	80004928	e086c793	xori	x15,x13,-504	 x13:0x00000000 x15=0xfffffe08
       80755000	      8074	8000492c	009f9c63	bne	x31,x9,80004944	 x31:0xfffffc8d  x9:0x61797740
       80765000	      8075	00000000	00000013	addi	x0,x0,0	  x0:0x00000000
       80775000	      8076	80004940	00000013	addi	x0,x0,0	  x0:0x00000000
       80785000	      8077	80004944	0b952813	slti	x16,x10,185	 x10:0xfffffd69 x16=0x00000001
       80795000	      8078	80004948	011f14b3	sll	x9,x30,x17	 x30:0x00000000 x17:0x08a4d000  x9=0x00000000
       80805000	      8079	8000494c	202fef93	ori	x31,x31,514	 x31:0xfffffc8d x31=0xfffffe8f
       80815000	      8080	80004950	006122b3	slt	x5,x2,x6	  x2:0xfb55e810  x6:0xfffffa6f  x5=0x00000001
       80825000	      8081	80004954	005e5493	srli	x9,x28,0x5	 x28:0x80009fc4  x9=0x040004fe
       80835000	      8082	80004958	00d94b33	xor	x22,x18,x13	 x18:0x475a92a9 x13:0x00000000 x22=0x475a92a9
       80845000	      8083	8000495c	02fb6063	bltu	x22,x15,8000497c	 x22:0x475a92a9 x15:0xfffffe08
       80855000	      8084	00000000	00000013	addi	x0,x0,0	  x0:0x00000000
       80865000	      8085	80004978	00000013	addi	x0,x0,0	  x0:0x00000000
       80875000	      8086	8000497c	023b4263	blt	x22,x3,800049a0	 x22:0x475a92a9  x3:0x00000000
       80885000	      8087	80004980	0053b2b3	sltu	x5,x7,x5	  x7:0x80009f28  x5:0x00000001  x5=0x00000000
       80895000	      8088	80004984	3b468893	addi	x17,x13,948	 x13:0x00000000 x17=0x000003b4
       80905000	      8089	80004988	0081df13	srli	x30,x3,0x8	  x3:0x00000000 x30=0x00000000
       80915000	      8090	8000498c	00fc5993	srli	x19,x24,0xf	 x24:0x00000000 x19=0x00000000
       80925000	      8091	80004990	f0a16e93	ori	x29,x2,-246	  x2:0xfb55e810 x29=0xffffff1a
       80935000	      8092	80004994	00f43d33	sltu	x26,x8,x15	  x8:0x8000a7ff x15:0xfffffe08 x26=0x00000001
       80945000	      8093	80004998	016ee7b3	or	x15,x29,x22	 x29:0xffffff1a x22:0x475a92a9 x15=0xffffffbb
       80955000	      8094	8000499c	ca360993	addi	x19,x12,-861	 x12:0x00000000 x19=0xfffffca3
       80965000	      8095	800049a0	10427293	andi	x5,x4,260	  x4:0x00000000  x5=0x00000000
       80975000	      8096	800049a4	009c8633	add	x12,x25,x9	 x25:0xfffffff8  x9:0x040004fe x12=0x040004f6
       80985000	      8097	800049a8	414f8f33	sub	x30,x31,x20	 x31:0xfffffe8f x20:0x00000000 x30=0xfffffe8f
       80995000	      8098	800049ac	413456b3	sra	x13,x8,x19	  x8:0x8000a7ff x19:0xfffffca3 x13=0xf00014ff
       81005000	      8099	800049b0	01490663	beq	x18,x20,800049bc	 x18:0x475a92a9 x20:0x00000000
       81015000	      8100	800049b4	00a75113	srli	x2,x14,0xa	 x14:0x00000000  x2=0x00000000
       81025000	      8101	800049b8	f764b713	sltiu	x14,x9,-138	  x9:0x040004fe x14=0x00000001
       81035000	      8102	800049bc	0092de63	bge	x5,x9,800049d8	  x5:0x00000000  x9:0x040004fe
       81045000	      8103	800049c0	01379f93	slli	x31,x15,0x13	 x15:0xffffffbb x31=0xfdd80000
       81055000	      8104	800049c4	0057f033	and	x0,x15,x5	 x15:0xffffffbb  x5:0x00000000
       81065000	      8105	800049c8	02e8fa63	bgeu	x17,x14,800049fc	 x17:0x000003b4 x14:0x00000001
       81075000	      8106	00000000	00000013	addi	x0,x0,0	  x0:0x00000000
       81085000	      8107	800049f8	00000013	addi	x0,x0,0	  x0:0x00000000
       81095000	      8108	800049fc	3f280313	addi	x6,x16,1010	 x16:0x00000001  x6=0x000003f3
       81105000	      8109	80004a00	00004b17	auipc	x22,0x4	 x22=0x800089fc
       81115000	      8110	80004a04	20bb0b13	addi	x22,x22,523	 x22:0x800089fc x22=0x80008c07
       81125000	      8111	80004a08	00ab0f03	lb	x30,10(x22)	 x22:0x80008c07 x30=0x00000000 PA:0x80008c11
       81135000	      8112	80004a0c	ff0b4d83	lbu	x27,-16(x22)	 x22:0x80008c07 x27=0x00000000 PA:0x80008bf7
       81145000	      8113	80004a10	007b4883	lbu	x17,7(x22)	 x22:0x80008c07 x17=0x00000000 PA:0x80008c0e
       81155000	      8114	80004a14	0421a437	lui	x8,0x421a	  x8=0x0421a000
       81165000	      8115	80004a18	008b4f83	lbu	x31,8(x22)	 x22:0x80008c07 x31=0x00000000 PA:0x80008c0f
       81175000	      8116	80004a1c	ff7b0e23	sb	x23,-4(x22)	 x22:0x80008c07 x23:0x00000000 PA:0x80008c03
       81185000	      8117	80004a20	00000013	addi	x0,x0,0	  x0:0x00000000
       81195000	      8118	80004a24	ee542493	slti	x9,x8,-283	  x8:0x0421a000  x9=0x00000000
       81205000	      8119	80004a28	41515313	srai	x6,x2,0x15	  x2:0x00000000  x6=0x00000000
       81215000	      8120	80004a2c	ff8b4883	lbu	x17,-8(x22)	 x22:0x80008c07 x17=0x00000000 PA:0x80008bff
       81225000	      8121	80004a30	00db0603	lb	x12,13(x22)	 x22:0x80008c07 x12=0xffffffff PA:0x80008c14
       81235000	      8122	80004a34	014b0423	sb	x20,8(x22)	 x22:0x80008c07 x20:0x00000000 PA:0x80008c0f
       81245000	      8123	80004a38	00a601b3	add	x3,x12,x10	 x12:0xffffffff x10:0xfffffd69  x3=0xfffffd68
       81255000	      8124	80004a3c	0099b533	sltu	x10,x19,x9	 x19:0xfffffca3  x9:0x00000000 x10=0x00000000
       81265000	      8125	80004a40	011b12a3	sh	x17,5(x22)	 x22:0x80008c07 x17:0x00000000 PA:0x80008c0c
       81275000	      8126	80004a44	db1dff13	andi	x30,x27,-591	 x27:0x00000000 x30=0x00000000
       81285000	      8127	80004a48	01e5d733	srl	x14,x11,x30	 x11:0x80007f60 x30:0x00000000 x14=0x80007f60
       81295000	      8128	80004a4c	01b76a33	or	x20,x14,x27	 x14:0x80007f60 x27:0x00000000 x20=0x80007f60
       81305000	      8129	80004a50	017ed533	srl	x10,x29,x23	 x29:0xffffff1a x23:0x00000000 x10=0xffffff1a
       81315000	      8130	80004a54	01652833	slt	x16,x10,x22	 x10:0xffffff1a x22:0x80008c07 x16=0x00000000
       81325000	      8131	80004a58	010b4203	lbu	x4,16(x22)	 x22:0x80008c07  x4=0x000000f0 PA:0x80008c17
       81335000	      8132	80004a5c	01f5b233	sltu	x4,x11,x31	 x11:0x80007f60 x31:0x00000000  x4=0x00000000
       81345000	      8133	80004a60	00db26a3	sw	x13,13(x22)	 x22:0x80008c07 x13:0xf00014ff PA:0x80008c14
       81355000	      8134	80004a64	00000013	addi	x0,x0,0	  x0:0x00000000
       81365000	      8135	80004a68	ff5b1403	lh	x8,-11(x22)	 x22:0x80008c07  x8=0x00000000 PA:0x80008bfc
       81375000	      8136	80004a6c	404a5f93	srai	x31,x20,0x4	 x20:0x80007f60 x31=0xf80007f6
       81385000	      8137	80004a70	407a5b93	srai	x23,x20,0x7	 x20:0x80007f60 x23=0xff0000fe
       81395000	      8138	80004a74	4044dcb3	sra	x25,x9,x4	  x9:0x00000000  x4:0x00000000 x25=0x00000000
       81405000	      8139	80004a78	00b6d263	bge	x13,x11,80004a7c	 x13:0xf00014ff x11:0x80007f60
       81415000	      8140	00000000	00000013	addi	x0,x0,0	  x0:0x00000000
       81425000	      8141	80004a78	00000013	addi	x0,x0,0	  x0:0x00000000
       81435000	      8142	80004a7c	7d604a37	lui	x20,0x7d604	 x20=0x7d604000
       81445000	      8143	80004a80	05ccd663	bge	x25,x28,80004acc	 x25:0x00000000 x28:0x80009fc4
       81455000	      8144	00000000	00000013	addi	x0,x0,0	  x0:0x00000000
       81465000	      8145	80004ac8	00000013	addi	x0,x0,0	  x0:0x00000000
       81475000	      8146	80004acc	04cdd263	bge	x27,x12,80004b10	 x27:0x00000000 x12:0xffffffff
       81485000	      8147	00000000	00000013	addi	x0,x0,0	  x0:0x00000000
       81495000	      8148	80004b0c	00000013	addi	x0,x0,0	  x0:0x00000000
       81505000	      8149	80004b10	41cc87b3	sub	x15,x25,x28	 x25:0x00000000 x28:0x80009fc4 x15=0x7fff603c
       81515000	      8150	80004b14	02ed8263	beq	x27,x14,80004b38	 x27:0x00000000 x14:0x80007f60
       81525000	      8151	80004b18	00ab2333	slt	x6,x22,x10	 x22:0x80008c07 x10:0xffffff1a  x6=0x00000001
       81535000	      8152	80004b1c	40960033	sub	x0,x12,x9	 x12:0xffffffff  x9:0x00000000
       81545000	      8153	80004b20	00371d33	sll	x26,x14,x3	 x14:0x80007f60  x3:0xfffffd68 x26=0x007f6000
       81555000	      8154	80004b24	04104263	blt	x0,x1,80004b68	  x0:0x00000000  x1:0x00000000
       81565000	      8155	80004b28	0076adb3	slt	x27,x13,x7	 x13:0xf00014ff  x7:0x80009f28 x27=0x00000000
       81575000	      8156	80004b2c	00b29a13	slli	x20,x5,0xb	  x5:0x00000000 x20=0x00000000
       81585000	      8157	80004b30	001c99b3	sll	x19,x25,x1	 x25:0x00000000  x1:0x00000000 x19=0x00000000
       81595000	      8158	80004b34	018fe2b3	or	x5,x31,x24	 x31:0xf80007f6 x24:0x00000000  x5=0xf80007f6
       81605000	      8159	80004b38	01bc8db3	add	x27,x25,x27	 x25:0x00000000 x27:0x00000000 x27=0x00000000
       81615000	      8160	80004b3c	9e97a693	slti	x13,x15,-1559	 x15:0x7fff603c x13=0x00000000
       81625000	      8161	80004b40	41a15a13	srai	x20,x2,0x1a	  x2:0x00000000 x20=0x00000000
       81635000	      8162	80004b44	00729093	slli	x1,x5,0x7	  x5:0xf80007f6  x1=0x0003fb00
       81645000	      8163	80004b48	00000013	addi	x0,x0,0	  x0:0x00000000
       81655000	      8164	80004b4c	00c75fb3	srl	x31,x14,x12	 x14:0x80007f60 x12:0xffffffff x31=0x00000001
       81665000	      8165	80004b50	00000013	addi	x0,x0,0	  x0:0x00000000
       81675000	      8166	80004b54	05a7f463	bgeu	x15,x26,80004b9c	 x15:0x7fff603c x26:0x007f6000
       81685000	      8167	00000000	00000013	addi	x0,x0,0	  x0:0x00000000
       81695000	      8168	80004b98	00000013	addi	x0,x0,0	  x0:0x00000000
       81705000	      8169	80004b9c	57ddfe97	auipc	x29,0x57ddf	 x29=0xd7de3b98
       81715000	      8170	80004ba0	000a1c63	bne	x20,x0,80004bb8	 x20:0x00000000  x0:0x00000000
       81725000	      8171	80004ba4	026d5263	bge	x26,x6,80004bc8	 x26:0x007f6000  x6:0x00000001
       81735000	      8172	00000000	00000013	addi	x0,x0,0	  x0:0x00000000
       81745000	      8173	80004bc4	00000013	addi	x0,x0,0	  x0:0x00000000
       81755000	      8174	80004bc8	01ea9893	slli	x17,x21,0x1e	 x21:0x00000000 x17=0x00000000
       81765000	      8175	80004bcc	9c3a0a13	addi	x20,x20,-1597	 x20:0x00000000 x20=0xfffff9c3
       81775000	      8176	80004bd0	00951fb3	sll	x31,x10,x9	 x10:0xffffff1a  x9:0x00000000 x31=0xffffff1a
       81785000	      8177	80004bd4	05470663	beq	x14,x20,80004c20	 x14:0x80007f60 x20:0xfffff9c3
       81795000	      8178	80004bd8	0165f033	and	x0,x11,x22	 x11:0x80007f60 x22:0x80008c07
       81805000	      8179	80004bdc	00000013	addi	x0,x0,0	  x0:0x00000000
       81815000	      8180	80004be0	41c75893	srai	x17,x14,0x1c	 x14:0x80007f60 x17=0xfffffff8
       81825000	      8181	80004be4	0112f263	bgeu	x5,x17,80004be8	  x5:0xf80007f6 x17:0xfffffff8
       81835000	      8182	80004be8	4048d713	srai	x14,x17,0x4	 x17:0xfffffff8 x14=0xffffffff
       81845000	      8183	80004bec	d517cd13	xori	x26,x15,-687	 x15:0x7fff603c x26=0x80009d6d
       81855000	      8184	80004bf0	00b821b3	slt	x3,x16,x11	 x16:0x00000000 x11:0x80007f60  x3=0x00000000
       81865000	      8185	80004bf4	01cd69b3	or	x19,x26,x28	 x26:0x80009d6d x28:0x80009fc4 x19=0x80009fed
       81875000	      8186	80004bf8	01b8e633	or	x12,x17,x27	 x17:0xfffffff8 x27:0x00000000 x12=0xfffffff8
       81885000	      8187	80004bfc	05df4863	blt	x30,x29,80004c4c	 x30:0x00000000 x29:0xd7de3b98
       81895000	      8188	80004c00	9befa693	slti	x13,x31,-1602	 x31:0xffffff1a x13=0x00000000
       81905000	      8189	80004c04	01dbd033	srl	x0,x23,x29	 x23:0xff0000fe x29:0xd7de3b98
       81915000	      8190	80004c08	01a31d13	slli	x26,x6,0x1a	  x6:0x00000001 x26=0x04000000
       81925000	      8191	80004c0c	015fcc33	xor	x24,x31,x21	 x31:0xffffff1a x21:0x00000000 x24=0xffffff1a
       81935000	      8192	80004c10	95164613	xori	x12,x12,-1711	 x12:0xfffffff8 x12=0x000006a9
       81945000	      8193	80004c14	418a8db3	sub	x27,x21,x24	 x21:0x00000000 x24:0xffffff1a x27=0x000000e6
       81955000	      8194	80004c18	01c876b3	and	x13,x16,x28	 x16:0x00000000 x28:0x80009fc4 x13=0x00000000
       81965000	      8195	80004c1c	04114063	blt	x2,x1,80004c5c	  x2:0x00000000  x1:0x0003fb00
       81975000	      8196	00000000	00000013	addi	x0,x0,0	  x0:0x00000000
       81985000	      8197	80004c58	00000013	addi	x0,x0,0	  x0:0x00000000
       81995000	      8198	80004c5c	81d9c513	xori	x10,x19,-2019	 x19:0x80009fed x10=0x7fff67f0
       82005000	      8199	80004c60	22e13593	sltiu	x11,x2,558	  x2:0x00000000 x11=0x00000001
       82015000	      8200	80004c64	dc780a97	auipc	x21,0xdc780	 x21=0x5c784c60
       82025000	      8201	80004c68	01bd3db3	sltu	x27,x26,x27	 x26:0x04000000 x27:0x000000e6 x27=0x00000000
       82035000	      8202	80004c6c	40f1d233	sra	x4,x3,x15	  x3:0x00000000 x15:0x7fff603c  x4=0x00000000
       82045000	      8203	80004c70	0157dd13	srli	x26,x15,0x15	 x15:0x7fff603c x26=0x000003ff
       82055000	      8204	80004c74	417657b3	sra	x15,x12,x23	 x12:0x000006a9 x23:0xff0000fe x15=0x00000000
       82065000	      8205	80004c78	4127d093	srai	x1,x15,0x12	 x15:0x00000000  x1=0x00000000
       82075000	      8206	80004c7c	01044663	blt	x8,x16,80004c88	  x8:0x00000000 x16:0x00000000
       82085000	      8207	80004c80	80640513	addi	x10,x8,-2042	  x8:0x00000000 x10=0xfffff806
       82095000	      8208	80004c84	013ee2b3	or	x5,x29,x19	 x29:0xd7de3b98 x19:0x80009fed  x5=0xd7debffd
       82105000	      8209	80004c88	00367ab3	and	x21,x12,x3	 x12:0x000006a9  x3:0x00000000 x21=0x00000000
       82115000	      8210	80004c8c	5c53fc17	auipc	x24,0x5c53f	 x24=0xdc543c88
       82125000	      8211	80004c90	03f19463	bne	x3,x31,80004cb8	  x3:0x00000000 x31:0xffffff1a
       82135000	      8212	00000000	00000013	addi	x0,x0,0	  x0:0x00000000
       82145000	      8213	80004cb4	00000013	addi	x0,x0,0	  x0:0x00000000
       82155000	      8214	80004cb8	009b4a63	blt	x22,x9,80004ccc	 x22:0x80008c07  x9:0x00000000
       82165000	      8215	00000000	00000013	addi	x0,x0,0	  x0:0x00000000
       82175000	      8216	80004cc8	00000013	addi	x0,x0,0	  x0:0x00000000
       82185000	      8217	80004ccc	00000013	addi	x0,x0,0	  x0:0x00000000
       82195000	      8218	80004cd0	a65336b7	lui	x13,0xa6533	 x13=0xa6533000
       82205000	      8219	80004cd4	009aec63	bltu	x21,x9,80004cec	 x21:0x00000000  x9:0x00000000
       82215000	      8220	80004cd8	00ef09b3	add	x19,x30,x14	 x30:0x00000000 x14:0xffffffff x19=0xffffffff
       82225000	      8221	80004cdc	00e0e9b3	or	x19,x1,x14	  x1:0x00000000 x14:0xffffffff x19=0xffffffff
       82235000	      8222	80004ce0	008930b3	sltu	x1,x18,x8	 x18:0x475a92a9  x8:0x00000000  x1=0x00000000
       82245000	      8223	80004ce4	00000013	addi	x0,x0,0	  x0:0x00000000
       82255000	      8224	80004ce8	0b315c63	bge	x2,x19,80004da0	  x2:0x00000000 x19:0xffffffff
       82265000	      8225	00000000	00000013	addi	x0,x0,0	  x0:0x00000000
       82275000	      8226	80004d9c	00000013	addi	x0,x0,0	  x0:0x00000000
       82285000	      8227	80004da0	e5814617	auipc	x12,0xe5814	 x12=0x65818d9c
       82295000	      8228	80004da4	2aa4f493	andi	x9,x9,682	  x9:0x00000000  x9=0x00000000
       82305000	      8229	80004da8	018fb433	sltu	x8,x31,x24	 x31:0xffffff1a x24:0xdc543c88  x8=0x00000000
       82315000	      8230	80004dac	9bf72513	slti	x10,x14,-1601	 x14:0xffffffff x10=0x00000000
       82325000	      8231	80004db0	02407263	bgeu	x0,x4,80004dd4	  x0:0x00000000  x4:0x00000000
       82335000	      8232	00000000	00000013	addi	x0,x0,0	  x0:0x00000000
       82345000	      8233	80004dd0	00000013	addi	x0,x0,0	  x0:0x00000000
       82355000	      8234	80004dd4	40db5f33	sra	x30,x22,x13	 x22:0x80008c07 x13:0xa6533000 x30=0x80008c07
       82365000	      8235	80004dd8	01aee133	or	x2,x29,x26	 x29:0xd7de3b98 x26:0x000003ff  x2=0xd7de3bff
       82375000	      8236	80004ddc	02b34263	blt	x6,x11,80004e00	  x6:0x00000001 x11:0x00000001
       82385000	      8237	80004de0	00161f33	sll	x30,x12,x1	 x12:0x65818d9c  x1:0x00000000 x30=0x65818d9c
       82395000	      8238	80004de4	00b8a133	slt	x2,x17,x11	 x17:0xfffffff8 x11:0x00000001  x2=0x00000001
       82405000	      8239	80004de8	f8d387b7	lui	x15,0xf8d38	 x15=0xf8d38000
       82415000	      8240	80004dec	002d0033	add	x0,x26,x2	 x26:0x000003ff  x2:0x00000001
       82425000	      8241	80004df0	015d8263	beq	x27,x21,80004df4	 x27:0x00000000 x21:0x00000000
       82435000	      8242	00000000	00000013	addi	x0,x0,0	  x0:0x00000000
       82445000	      8243	80004df0	00000013	addi	x0,x0,0	  x0:0x00000000
       82455000	      8244	80004df4	00000013	addi	x0,x0,0	  x0:0x00000000
       82465000	      8245	80004df8	401ed1b3	sra	x3,x29,x1	 x29:0xd7de3b98  x1:0x00000000  x3=0xd7de3b98
       82475000	      8246	80004dfc	010d5263	bge	x26,x16,80004e00	 x26:0x000003ff x16:0x00000000
       82485000	      8247	00000000	00000013	addi	x0,x0,0	  x0:0x00000000
       82495000	      8248	80004dfc	00000013	addi	x0,x0,0	  x0:0x00000000
       82505000	      8249	80004e00	009d0fb3	add	x31,x26,x9	 x26:0x000003ff  x9:0x00000000 x31=0x000003ff
       82515000	      8250	80004e04	4094d4b3	sra	x9,x9,x9	  x9:0x00000000  x9:0x00000000  x9=0x00000000
       82525000	      8251	80004e08	041bd863	bge	x23,x1,80004e58	 x23:0xff0000fe  x1:0x00000000
       82535000	      8252	80004e0c	04085263	bge	x16,x0,80004e50	 x16:0x00000000  x0:0x00000000
       82545000	      8253	00000000	00000013	addi	x0,x0,0	  x0:0x00000000
       82555000	      8254	80004e4c	00000013	addi	x0,x0,0	  x0:0x00000000
       82565000	      8255	80004e50	95780413	addi	x8,x16,-1705	 x16:0x00000000  x8=0xfffff957
       82575000	      8256	80004e54	00529c13	slli	x24,x5,0x5	  x5:0xd7debffd x24=0xfbd7ffa0
       82585000	      8257	80004e58	26afda97	auipc	x21,0x26afd	 x21=0xa6b01e54
       82595000	      8258	80004e5c	014736b3	sltu	x13,x14,x20	 x14:0xffffffff x20:0xfffff9c3 x13=0x00000000
       82605000	      8259	80004e60	05abf863	bgeu	x23,x26,80004eb0	 x23:0xff0000fe x26:0x000003ff
       82615000	      8260	00000000	00000013	addi	x0,x0,0	  x0:0x00000000
       82625000	      8261	80004eac	00000013	addi	x0,x0,0	  x0:0x00000000
       82635000	      8262	80004eb0	01534333	xor	x6,x6,x21	  x6:0x00000001 x21:0xa6b01e54  x6=0xa6b01e55
       82645000	      8263	80004eb4	9fa34d97	auipc	x27,0x9fa34	 x27=0x1fa38eb0
       82655000	      8264	80004eb8	01ebdf33	srl	x30,x23,x30	 x23:0xff0000fe x30:0x65818d9c x30=0x0000000f
       82665000	      8265	80004ebc	009cd1b3	srl	x3,x25,x9	 x25:0x00000000  x9:0x00000000  x3=0x00000000
       82675000	      8266	80004ec0	53ad6c13	ori	x24,x26,1338	 x26:0x000003ff x24=0x000007ff
       82685000	      8267	80004ec4	f3126213	ori	x4,x4,-207	  x4:0x00000000  x4=0xffffff31
       82695000	      8268	80004ec8	01c01093	slli	x1,x0,0x1c	  x0:0x00000000  x1=0x00000000
       82705000	      8269	80004ecc	0413d663	bge	x7,x1,80004f18	  x7:0x80009f28  x1:0x00000000
       82715000	      8270	80004ed0	0242c463	blt	x5,x4,80004ef8	  x5:0xd7debffd  x4:0xffffff31
       82725000	      8271	00000000	00000013	addi	x0,x0,0	  x0:0x00000000
       82735000	      8272	80004ef4	00000013	addi	x0,x0,0	  x0:0x00000000
       82745000	      8273	80004ef8	0055a6b3	slt	x13,x11,x5	 x11:0x00000001  x5:0xd7debffd x13=0x00000000
       82755000	      8274	80004efc	f81ba013	slti	x0,x23,-127	 x23:0xff0000fe
       82765000	      8275	80004f00	939f8213	addi	x4,x31,-1735	 x31:0x000003ff  x4=0xfffffd38
       82775000	      8276	80004f04	01ffe833	or	x16,x31,x31	 x31:0x000003ff x31:0x000003ff x16=0x000003ff
       82785000	      8277	80004f08	0f01b013	sltiu	x0,x3,240	  x3:0x00000000
       82795000	      8278	80004f0c	044c8463	beq	x25,x4,80004f54	 x25:0x00000000  x4:0xfffffd38
       82805000	      8279	80004f10	01f99633	sll	x12,x19,x31	 x19:0xffffffff x31:0x000003ff x12=0x80000000
       82815000	      8280	80004f14	00811d13	slli	x26,x2,0x8	  x2:0x00000001 x26=0x00000100
       82825000	      8281	80004f18	0016bdb3	sltu	x27,x13,x1	 x13:0x00000000  x1:0x00000000 x27=0x00000000
       82835000	      8282	80004f1c	00a53db3	sltu	x27,x10,x10	 x10:0x00000000 x10:0x00000000 x27=0x00000000
       82845000	      8283	80004f20	011f7c63	bgeu	x30,x17,80004f38	 x30:0x0000000f x17:0xfffffff8
       82855000	      8284	80004f24	01846fb3	or	x31,x8,x24	  x8:0xfffff957 x24:0x000007ff x31=0xffffffff
       82865000	      8285	80004f28	01ff24b3	slt	x9,x30,x31	 x30:0x0000000f x31:0xffffffff  x9=0x00000000
       82875000	      8286	80004f2c	009d0d33	add	x26,x26,x9	 x26:0x00000100  x9:0x00000000 x26=0x00000100
       82885000	      8287	80004f30	008f7c63	bgeu	x30,x8,80004f48	 x30:0x0000000f  x8:0xfffff957
       82895000	      8288	80004f34	407987b3	sub	x15,x19,x7	 x19:0xffffffff  x7:0x80009f28 x15=0x7fff60d7
       82905000	      8289	80004f38	41c7d533	sra	x10,x15,x28	 x15:0x7fff60d7 x28:0x80009fc4 x10=0x07fff60d
       82915000	      8290	80004f3c	02f74063	blt	x14,x15,80004f5c	 x14:0xffffffff x15:0x7fff60d7
       82925000	      8291	00000000	00000013	addi	x0,x0,0	  x0:0x00000000
       82935000	      8292	80004f58	00000013	addi	x0,x0,0	  x0:0x00000000
       82945000	      8293	80004f5c	004a44b3	xor	x9,x20,x4	 x20:0xfffff9c3  x4:0xfffffd38  x9=0x000004fb
       82955000	      8294	80004f60	01584f33	xor	x30,x16,x21	 x16:0x000003ff x21:0xa6b01e54 x30=0xa6b01dab
       82965000	      8295	80004f64	047d0063	beq	x26,x7,80004fa4	 x26:0x00000100  x7:0x80009f28
       82975000	      8296	80004f68	00d5e033	or	x0,x11,x13	 x11:0x00000001 x13:0x00000000
       82985000	      8297	80004f6c	010f7433	and	x8,x30,x16	 x30:0xa6b01dab x16:0x000003ff  x8=0x000001ab
       82995000	      8298	80004f70	fca74497	auipc	x9,0xfca74	  x9=0x7ca78f6c
       83005000	      8299	80004f74	e86ea993	slti	x19,x29,-378	 x29:0xd7de3b98 x19=0x00000001
       83015000	      8300	80004f78	002c9bb3	sll	x23,x25,x2	 x25:0x00000000  x2:0x00000001 x23=0x00000000
       83025000	      8301	80004f7c	406c09b3	sub	x19,x24,x6	 x24:0x000007ff  x6:0xa6b01e55 x19=0x594fe9aa
       83035000	      8302	80004f80	003c6333	or	x6,x24,x3	 x24:0x000007ff  x3:0x00000000  x6=0x000007ff
       83045000	      8303	80004f84	40087593	andi	x11,x16,1024	 x16:0x000003ff x11=0x00000000
       83055000	      8304	80004f88	003dd493	srli	x9,x27,0x3	 x27:0x00000000  x9=0x00000000
       83065000	      8305	80004f8c	01069113	slli	x2,x13,0x10	 x13:0x00000000  x2=0x00000000
       83075000	      8306	80004f90	0044fc33	and	x24,x9,x4	  x9:0x00000000  x4:0xfffffd38 x24=0x00000000
       83085000	      8307	80004f94	013c1993	slli	x19,x24,0x13	 x24:0x00000000 x19=0x00000000
       83095000	      8308	80004f98	01b16eb3	or	x29,x2,x27	  x2:0x00000000 x27:0x00000000 x29=0x00000000
       83105000	      8309	80004f9c	40c7dc33	sra	x24,x15,x12	 x15:0x7fff60d7 x12:0x80000000 x24=0x7fff60d7
       83115000	      8310	80004fa0	2cf8b037	lui	x0,0x2cf8b	
       83125000	      8311	80004fa4	af66e993	ori	x19,x13,-1290	 x13:0x00000000 x19=0xfffffaf6
       83135000	      8312	80004fa8	01485533	srl	x10,x16,x20	 x16:0x000003ff x20:0xfffff9c3 x10=0x0000007f
       83145000	      8313	80004fac	e1c7e113	ori	x2,x15,-484	 x15:0x7fff60d7  x2=0xfffffedf
       83155000	      8314	80004fb0	00002833	slt	x16,x0,x0	  x0:0x00000000  x0:0x00000000 x16=0x00000000
       83165000	      8315	80004fb4	41b3d9b3	sra	x19,x7,x27	  x7:0x80009f28 x27:0x00000000 x19=0x80009f28
       83175000	      8316	80004fb8	95bbcc13	xori	x24,x23,-1701	 x23:0x00000000 x24=0xfffff95b
       83185000	      8317	80004fbc	44546897	auipc	x17,0x44546	 x17=0xc454afb8
       83195000	      8318	80004fc0	8a948213	addi	x4,x9,-1879	  x9:0x00000000  x4=0xfffff8a9
       83205000	      8319	80004fc4	1352b413	sltiu	x8,x5,309	  x5:0xd7debffd  x8=0x00000000
       83215000	      8320	80004fc8	00585663	bge	x16,x5,80004fd4	 x16:0x00000000  x5:0xd7debffd
       83225000	      8321	00000000	00000013	addi	x0,x0,0	  x0:0x00000000
       83235000	      8322	80004fd0	00000013	addi	x0,x0,0	  x0:0x00000000
       83245000	      8323	80004fd4	407c56b3	sra	x13,x24,x7	 x24:0xfffff95b  x7:0x80009f28 x13=0xfffffff9
       83255000	      8324	80004fd8	000d64b3	or	x9,x26,x0	 x26:0x00000100  x0:0x00000000  x9=0x00000100
       83265000	      8325	80004fdc	0167fd33	and	x26,x15,x22	 x15:0x7fff60d7 x22:0x80008c07 x26=0x00000007
       83275000	      8326	80004fe0	a3788313	addi	x6,x17,-1481	 x17:0xc454afb8  x6=0xc454a9ef
       83285000	      8327	80004fe4	0041df93	srli	x31,x3,0x4	  x3:0x00000000 x31=0x00000000
       83295000	      8328	80004fe8	01d73833	sltu	x16,x14,x29	 x14:0xffffffff x29:0x00000000 x16=0x00000000
       83305000	      8329	80004fec	031a1863	bne	x20,x17,8000501c	 x20:0xfffff9c3 x17:0xc454afb8
       83315000	      8330	00000000	00000013	addi	x0,x0,0	  x0:0x00000000
       83325000	      8331	80005018	00000013	addi	x0,x0,0	  x0:0x00000000
       83335000	      8332	8000501c	01447333	and	x6,x8,x20	  x8:0x00000000 x20:0xfffff9c3  x6=0x00000000
       83345000	      8333	80005020	01897b33	and	x22,x18,x24	 x18:0x475a92a9 x24:0xfffff95b x22=0x475a9009
       83355000	      8334	80005024	37093a93	sltiu	x21,x18,880	 x18:0x475a92a9 x21=0x00000000
       83365000	      8335	80005028	40f3d733	sra	x14,x7,x15	  x7:0x80009f28 x15:0x7fff60d7 x14=0xffffff00
       83375000	      8336	8000502c	006890b3	sll	x1,x17,x6	 x17:0xc454afb8  x6:0x00000000  x1=0xc454afb8
       83385000	      8337	80005030	01e09193	slli	x3,x1,0x1e	  x1:0xc454afb8  x3=0x00000000
       83395000	      8338	80005034	0323c663	blt	x7,x18,80005060	  x7:0x80009f28 x18:0x475a92a9
       83405000	      8339	00000000	00000013	addi	x0,x0,0	  x0:0x00000000
       83415000	      8340	8000505c	00000013	addi	x0,x0,0	  x0:0x00000000
       83425000	      8341	80005060	d3a3c013	xori	x0,x7,-710	  x7:0x80009f28
       83435000	      8342	80005064	0102b7b3	sltu	x15,x5,x16	  x5:0xd7debffd x16:0x00000000 x15=0x00000000
       83445000	      8343	80005068	2b58bf13	sltiu	x30,x17,693	 x17:0xc454afb8 x30=0x00000000
       83455000	      8344	8000506c	aeb0f517	auipc	x10,0xaeb0f	 x10=0x2eb14068
       83465000	      8345	80005070	003e7433	and	x8,x28,x3	 x28:0x80009fc4  x3:0x00000000  x8=0x00000000
       83475000	      8346	80005074	0114d733	srl	x14,x9,x17	  x9:0x00000100 x17:0xc454afb8 x14=0x00000000
       83485000	      8347	80005078	fc35f793	andi	x15,x11,-61	 x11:0x00000000 x15=0x00000000
       83495000	      8348	8000507c	b159e417	auipc	x8,0xb159e	  x8=0x315a3078
       83505000	      8349	80005080	00df57b3	srl	x15,x30,x13	 x30:0x00000000 x13:0xfffffff9 x15=0x00000000
       83515000	      8350	80005084	01d28c33	add	x24,x5,x29	  x5:0xd7debffd x29:0x00000000 x24=0xd7debffd
       83525000	      8351	80005088	ea457517	auipc	x10,0xea457	 x10=0x6a45c084
       83535000	      8352	8000508c	018d0b33	add	x22,x26,x24	 x26:0x00000007 x24:0xd7debffd x22=0xd7dec004
       83545000	      8353	80005090	0127ecb3	or	x25,x15,x18	 x15:0x00000000 x18:0x475a92a9 x25=0x475a92a9
       83555000	      8354	80005094	01a01593	slli	x11,x0,0x1a	  x0:0x00000000 x11=0x00000000
       83565000	      8355	80005098	019dd213	srli	x4,x27,0x19	 x27:0x00000000  x4=0x00000000
       83575000	      8356	8000509c	f15f3793	sltiu	x15,x30,-235	 x30:0x00000000 x15=0x00000001
       83585000	      8357	800050a0	48937e97	auipc	x29,0x48937	 x29=0xc893c09c
       83595000	      8358	800050a4	2068a093	slti	x1,x17,518	 x17:0xc454afb8  x1=0x00000001
       83605000	      8359	800050a8	4ec3e293	ori	x5,x7,1260	  x7:0x80009f28  x5=0x80009fec
       83615000	      8360	800050ac	e3a36993	ori	x19,x6,-454	  x6:0x00000000 x19=0xfffffe3a
       83625000	      8361	800050b0	40f782b3	sub	x5,x15,x15	 x15:0x00000001 x15:0x00000001  x5=0x00000000
       83635000	      8362	800050b4	09958b93	addi	x23,x11,153	 x11:0x00000000 x23=0x00000099
       83645000	      8363	800050b8	d9438813	addi	x16,x7,-620	  x7:0x80009f28 x16=0x80009cbc
       83655000	      8364	800050bc	03976263	bltu	x14,x25,800050e0	 x14:0x00000000 x25:0x475a92a9
       83665000	      8365	00000000	00000013	addi	x0,x0,0	  x0:0x00000000
       83675000	      8366	800050dc	00000013	addi	x0,x0,0	  x0:0x00000000
       83685000	      8367	800050e0	bc69f213	andi	x4,x19,-1082	 x19:0xfffffe3a  x4=0xfffffa02
       83695000	      8368	800050e4	00000013	addi	x0,x0,0	  x0:0x00000000
       83705000	      8369	800050e8	47ef0c93	addi	x25,x30,1150	 x30:0x00000000 x25=0x0000047e
       83715000	      8370	800050ec	00148ab3	add	x21,x9,x1	  x9:0x00000100  x1:0x00000001 x21=0x00000101
       83725000	      8371	800050f0	401d87b3	sub	x15,x27,x1	 x27:0x00000000  x1:0x00000001 x15=0xffffffff
       83735000	      8372	800050f4	0169cc63	blt	x19,x22,8000510c	 x19:0xfffffe3a x22:0xd7dec004
       83745000	      8373	800050f8	41a85fb3	sra	x31,x16,x26	 x16:0x80009cbc x26:0x00000007 x31=0xff000139
       83755000	      8374	800050fc	01d75993	srli	x19,x14,0x1d	 x14:0x00000000 x19=0x00000000
       83765000	      8375	80005100	01030663	beq	x6,x16,8000510c	  x6:0x00000000 x16:0x80009cbc
       83775000	      8376	80005104	00bb5c33	srl	x24,x22,x11	 x22:0xd7dec004 x11:0x00000000 x24=0xd7dec004
       83785000	      8377	80005108	007b96b3	sll	x13,x23,x7	 x23:0x00000099  x7:0x80009f28 x13=0x00009900
       83795000	      8378	8000510c	011bd813	srli	x16,x23,0x11	 x23:0x00000099 x16=0x00000000
       83805000	      8379	80005110	3d490313	addi	x6,x18,980	 x18:0x475a92a9  x6=0x475a967d
       83815000	      8380	80005114	011fe9b3	or	x19,x31,x17	 x31:0xff000139 x17:0xc454afb8 x19=0xff54afb9
       83825000	      8381	80005118	f2862613	slti	x12,x12,-216	 x12:0x80000000 x12=0x00000001
       83835000	      8382	8000511c	410f5b13	srai	x22,x30,0x10	 x30:0x00000000 x22=0x00000000
       83845000	      8383	80005120	fd656837	lui	x16,0xfd656	 x16=0xfd656000
       83855000	      8384	80005124	9b093b93	sltiu	x23,x18,-1616	 x18:0x475a92a9 x23=0x00000001
       83865000	      8385	80005128	415a5c13	srai	x24,x20,0x15	 x20:0xfffff9c3 x24=0xffffffff
       83875000	      8386	8000512c	07c24b93	xori	x23,x4,124	  x4:0xfffffa02 x23=0xfffffa7e
       83885000	      8387	80005130	41a608b3	sub	x17,x12,x26	 x12:0x00000001 x26:0x00000007 x17=0xfffffffa
       83895000	      8388	80005134	7bcb6097	auipc	x1,0x7bcb6	  x1=0xfbcbb130
       83905000	      8389	80005138	01c4adb3	slt	x27,x9,x28	  x9:0x00000100 x28:0x80009fc4 x27=0x00000000
       83915000	      8390	8000513c	727fbf13	sltiu	x30,x31,1831	 x31:0xff000139 x30=0x00000000
       83925000	      8391	80005140	7a4d6bb7	lui	x23,0x7a4d6	 x23=0x7a4d6000
       83935000	      8392	80005144	00000013	addi	x0,x0,0	  x0:0x00000000
       83945000	      8393	80005148	8edabbb7	lui	x23,0x8edab	 x23=0x8edab000
       83955000	      8394	8000514c	00000013	addi	x0,x0,0	  x0:0x00000000
       83965000	      8395	80005150	00af7f33	and	x30,x30,x10	 x30:0x00000000 x10:0x6a45c084 x30=0x00000000
       83975000	      8396	80005154	9c5d6ab7	lui	x21,0x9c5d6	 x21=0x9c5d6000
       83985000	      8397	80005158	2a53ac93	slti	x25,x7,677	  x7:0x80009f28 x25=0x00000001
       83995000	      8398	8000515c	010cea63	bltu	x25,x16,80005170	 x25:0x00000001 x16:0xfd656000
       84005000	      8399	00000000	00000013	addi	x0,x0,0	  x0:0x00000000
       84015000	      8400	8000516c	00000013	addi	x0,x0,0	  x0:0x00000000
       84025000	      8401	80005170	7649c893	xori	x17,x19,1892	 x19:0xff54afb9 x17=0xff54a8dd
       84035000	      8402	80005174	01570ab3	add	x21,x14,x21	 x14:0x00000000 x21:0x9c5d6000 x21=0x9c5d6000
       84045000	      8403	80005178	00a08c63	beq	x1,x10,80005190	  x1:0xfbcbb130 x10:0x6a45c084
       84055000	      8404	8000517c	04cbd663	bge	x23,x12,800051c8	 x23:0x8edab000 x12:0x00000001
       84065000	      8405	80005180	018ea333	slt	x6,x29,x24	 x29:0xc893c09c x24:0xffffffff  x6=0x00000001
       84075000	      8406	80005184	f7e12837	lui	x16,0xf7e12	 x16=0xf7e12000
       84085000	      8407	80005188	00715e63	bge	x2,x7,800051a4	  x2:0xfffffedf  x7:0x80009f28
       84095000	      8408	00000000	00000013	addi	x0,x0,0	  x0:0x00000000
       84105000	      8409	800051a0	00000013	addi	x0,x0,0	  x0:0x00000000
       84115000	      8410	800051a4	01025213	srli	x4,x4,0x10	  x4:0xfffffa02  x4=0x0000ffff
       84125000	      8411	800051a8	050cc863	blt	x25,x16,800051f8	 x25:0x00000001 x16:0xf7e12000
       84135000	      8412	800051ac	151c6b93	ori	x23,x24,337	 x24:0xffffffff x23=0xffffffff
       84145000	      8413	800051b0	0028f433	and	x8,x17,x2	 x17:0xff54a8dd  x2:0xfffffedf  x8=0xff54a8dd
       84155000	      8414	800051b4	40f75313	srai	x6,x14,0xf	 x14:0x00000000  x6=0x00000000
       84165000	      8415	800051b8	03865463	bge	x12,x24,800051e0	 x12:0x00000001 x24:0xffffffff
       84175000	      8416	00000000	00000013	addi	x0,x0,0	  x0:0x00000000
       84185000	      8417	800051dc	00000013	addi	x0,x0,0	  x0:0x00000000
       84195000	      8418	800051e0	40ca50b3	sra	x1,x20,x12	 x20:0xfffff9c3 x12:0x00000001  x1=0xfffffce1
       84205000	      8419	800051e4	f09f6893	ori	x17,x30,-247	 x30:0x00000000 x17=0xffffff09
       84215000	      8420	800051e8	002d1013	slli	x0,x26,0x2	 x26:0x00000007
       84225000	      8421	800051ec	40a25333	sra	x6,x4,x10	  x4:0x0000ffff x10:0x6a45c084  x6=0x00000fff
       84235000	      8422	800051f0	01db35b3	sltu	x11,x22,x29	 x22:0x00000000 x29:0xc893c09c x11=0x00000001
       84245000	      8423	800051f4	cf29f313	andi	x6,x19,-782	 x19:0xff54afb9  x6=0xff54acb0
       84255000	      8424	800051f8	00000013	addi	x0,x0,0	  x0:0x00000000
       84265000	      8425	800051fc	052ff063	bgeu	x31,x18,8000523c	 x31:0xff000139 x18:0x475a92a9
       84275000	      8426	00000000	00000013	addi	x0,x0,0	  x0:0x00000000
       84285000	      8427	80005238	00000013	addi	x0,x0,0	  x0:0x00000000
       84295000	      8428	8000523c	408dd813	srai	x16,x27,0x8	 x27:0x00000000 x16=0x00000000
       84305000	      8429	80005240	03ba6813	ori	x16,x20,59	 x20:0xfffff9c3 x16=0xfffff9fb
       84315000	      8430	80005244	41cdd013	srai	x0,x27,0x1c	 x27:0x00000000
       84325000	      8431	80005248	40465213	srai	x4,x12,0x4	 x12:0x00000001  x4=0x00000000
       84335000	      8432	8000524c	d05dea93	ori	x21,x27,-763	 x27:0x00000000 x21=0xfffffd05
       84345000	      8433	80005250	006e5893	srli	x17,x28,0x6	 x28:0x80009fc4 x17=0x0200027f
       84355000	      8434	80005254	0123b233	sltu	x4,x7,x18	  x7:0x80009f28 x18:0x475a92a9  x4=0x00000000
       84365000	      8435	80005258	00bbecb3	or	x25,x23,x11	 x23:0xffffffff x11:0x00000001 x25=0xffffffff
       84375000	      8436	8000525c	02cd5263	bge	x26,x12,80005280	 x26:0x00000007 x12:0x00000001
       84385000	      8437	00000000	00000013	addi	x0,x0,0	  x0:0x00000000
       84395000	      8438	8000527c	00000013	addi	x0,x0,0	  x0:0x00000000
       84405000	      8439	80005280	00740a63	beq	x8,x7,80005294	  x8:0xff54a8dd  x7:0x80009f28
       84415000	      8440	80005284	bb3686b7	lui	x13,0xbb368	 x13=0xbb368000
       84425000	      8441	80005288	008c9b13	slli	x22,x25,0x8	 x25:0xffffffff x22=0xffffff00
       84435000	      8442	8000528c	010a4c63	blt	x20,x16,800052a4	 x20:0xfffff9c3 x16:0xfffff9fb
       84445000	      8443	00000000	00000013	addi	x0,x0,0	  x0:0x00000000
       84455000	      8444	800052a0	00000013	addi	x0,x0,0	  x0:0x00000000
       84465000	      8445	800052a4	38072613	slti	x12,x14,896	 x14:0x00000000 x12=0x00000001
       84475000	      8446	800052a8	39c5ef93	ori	x31,x11,924	 x11:0x00000001 x31=0x0000039d
       84485000	      8447	800052ac	39162c13	slti	x24,x12,913	 x12:0x00000001 x24=0x00000001
       84495000	      8448	800052b0	018886b3	add	x13,x17,x24	 x17:0x0200027f x24:0x00000001 x13=0x02000280
       84505000	      8449	800052b4	8e776693	ori	x13,x14,-1817	 x14:0x00000000 x13=0xfffff8e7
       84515000	      8450	800052b8	408b5293	srai	x5,x22,0x8	 x22:0xffffff00  x5=0xffffffff
       84525000	      8451	800052bc	0039fa63	bgeu	x19,x3,800052d0	 x19:0xff54afb9  x3:0x00000000
       84535000	      8452	00000000	00000013	addi	x0,x0,0	  x0:0x00000000
       84545000	      8453	800052cc	00000013	addi	x0,x0,0	  x0:0x00000000
       84555000	      8454	800052d0	01791c63	bne	x18,x23,800052e8	 x18:0x475a92a9 x23:0xffffffff
       84565000	      8455	00000000	00000013	addi	x0,x0,0	  x0:0x00000000
       84575000	      8456	800052e4	00000013	addi	x0,x0,0	  x0:0x00000000
       84585000	      8457	800052e8	406b0f33	sub	x30,x22,x6	 x22:0xffffff00  x6:0xff54acb0 x30=0x00ab5250
       84595000	      8458	800052ec	00baac33	slt	x24,x21,x11	 x21:0xfffffd05 x11:0x00000001 x24=0x00000001
       84605000	      8459	800052f0	008d00b3	add	x1,x26,x8	 x26:0x00000007  x8:0xff54a8dd  x1=0xff54a8e4
       84615000	      8460	800052f4	fac36f13	ori	x30,x6,-84	  x6:0xff54acb0 x30=0xffffffbc
       84625000	      8461	800052f8	00166633	or	x12,x12,x1	 x12:0x00000001  x1:0xff54a8e4 x12=0xff54a8e5
       84635000	      8462	800052fc	c1aa1117	auipc	x2,0xc1aa1	  x2=0x41aa62f8
       84645000	      8463	80005300	014fbf33	sltu	x30,x31,x20	 x31:0x0000039d x20:0xfffff9c3 x30=0x00000001
       84655000	      8464	80005304	017acc33	xor	x24,x21,x23	 x21:0xfffffd05 x23:0xffffffff x24=0x000002fa
       84665000	      8465	80005308	057d1463	bne	x26,x23,80005350	 x26:0x00000007 x23:0xffffffff
       84675000	      8466	00000000	00000013	addi	x0,x0,0	  x0:0x00000000
       84685000	      8467	8000534c	00000013	addi	x0,x0,0	  x0:0x00000000
       84695000	      8468	80005350	01674663	blt	x14,x22,8000535c	 x14:0x00000000 x22:0xffffff00
       84705000	      8469	80005354	742ccf13	xori	x30,x25,1858	 x25:0xffffffff x30=0xfffff8bd
       84715000	      8470	80005358	01c8c533	xor	x10,x17,x28	 x17:0x0200027f x28:0x80009fc4 x10=0x82009dbb
       84725000	      8471	8000535c	00ac9e63	bne	x25,x10,80005378	 x25:0xffffffff x10:0x82009dbb
       84735000	      8472	00000000	00000013	addi	x0,x0,0	  x0:0x00000000
       84745000	      8473	80005374	00000013	addi	x0,x0,0	  x0:0x00000000
       84755000	      8474	80005378	41ccd293	srai	x5,x25,0x1c	 x25:0xffffffff  x5=0xffffffff
       84765000	      8475	8000537c	0212d463	bge	x5,x1,800053a4	  x5:0xffffffff  x1:0xff54a8e4
       84775000	      8476	00000000	00000013	addi	x0,x0,0	  x0:0x00000000
       84785000	      8477	800053a0	00000013	addi	x0,x0,0	  x0:0x00000000
       84795000	      8478	800053a4	00000013	addi	x0,x0,0	  x0:0x00000000
       84805000	      8479	800053a8	019f8333	add	x6,x31,x25	 x31:0x0000039d x25:0xffffffff  x6=0x0000039c
       84815000	      8480	800053ac	017524b3	slt	x9,x10,x23	 x10:0x82009dbb x23:0xffffffff  x9=0x00000001
       84825000	      8481	800053b0	003f9263	bne	x31,x3,800053b4	 x31:0x0000039d  x3:0x00000000
       84835000	      8482	00000000	00000013	addi	x0,x0,0	  x0:0x00000000
       84845000	      8483	800053b0	00000013	addi	x0,x0,0	  x0:0x00000000
       84855000	      8484	800053b4	01073eb3	sltu	x29,x14,x16	 x14:0x00000000 x16:0xfffff9fb x29=0x00000001
       84865000	      8485	800053b8	0190d133	srl	x2,x1,x25	  x1:0xff54a8e4 x25:0xffffffff  x2=0x00000001
       84875000	      8486	800053bc	c6e1adb7	lui	x27,0xc6e1a	 x27=0xc6e1a000
       84885000	      8487	800053c0	00fa6f33	or	x30,x20,x15	 x20:0xfffff9c3 x15:0xffffffff x30=0xffffffff
       84895000	      8488	800053c4	cae34093	xori	x1,x6,-850	  x6:0x0000039c  x1=0xffffff32
       84905000	      8489	800053c8	01fd9c13	slli	x24,x27,0x1f	 x27:0xc6e1a000 x24=0x00000000
       84915000	      8490	800053cc	00d05fb3	srl	x31,x0,x13	  x0:0x00000000 x13:0xfffff8e7 x31=0x00000000
       84925000	      8491	800053d0	407a5b13	srai	x22,x20,0x7	 x20:0xfffff9c3 x22=0xfffffff3
       84935000	      8492	800053d4	01c5b533	sltu	x10,x11,x28	 x11:0x00000001 x28:0x80009fc4 x10=0x00000001
       84945000	      8493	800053d8	03a59663	bne	x11,x26,80005404	 x11:0x00000001 x26:0x00000007
       84955000	      8494	00000000	00000013	addi	x0,x0,0	  x0:0x00000000
       84965000	      8495	80005400	00000013	addi	x0,x0,0	  x0:0x00000000
       84975000	      8496	80005404	001fd033	srl	x0,x31,x1	 x31:0x00000000  x1:0xffffff32
       84985000	      8497	80005408	041b7863	bgeu	x22,x1,80005458	 x22:0xfffffff3  x1:0xffffff32
       84995000	      8498	00000000	00000013	addi	x0,x0,0	  x0:0x00000000
       85005000	      8499	80005454	00000013	addi	x0,x0,0	  x0:0x00000000
       85015000	      8500	80005458	02ed0663	beq	x26,x14,80005484	 x26:0x00000007 x14:0x00000000
       85025000	      8501	8000545c	00a046b3	xor	x13,x0,x10	  x0:0x00000000 x10:0x00000001 x13=0x00000001
       85035000	      8502	80005460	61e74a93	xori	x21,x14,1566	 x14:0x00000000 x21=0x0000061e
       85045000	      8503	80005464	01357033	and	x0,x10,x19	 x10:0x00000001 x19:0xff54afb9
       85055000	      8504	80005468	c70f8293	addi	x5,x31,-912	 x31:0x00000000  x5=0xfffffc70
       85065000	      8505	8000546c	408b0833	sub	x16,x22,x8	 x22:0xfffffff3  x8:0xff54a8dd x16=0x00ab5716
       85075000	      8506	80005470	0b067e93	andi	x29,x12,176	 x12:0xff54a8e5 x29=0x000000a0
       85085000	      8507	80005474	016a1263	bne	x20,x22,80005478	 x20:0xfffff9c3 x22:0xfffffff3
       85095000	      8508	00000000	00000013	addi	x0,x0,0	  x0:0x00000000
       85105000	      8509	80005474	00000013	addi	x0,x0,0	  x0:0x00000000
       85115000	      8510	80005478	70637613	andi	x12,x6,1798	  x6:0x0000039c x12=0x00000304
       85125000	      8511	8000547c	04749863	bne	x9,x7,800054cc	  x9:0x00000001  x7:0x80009f28
       85135000	      8512	00000000	00000013	addi	x0,x0,0	  x0:0x00000000
       85145000	      8513	800054c8	00000013	addi	x0,x0,0	  x0:0x00000000
       85155000	      8514	800054cc	01539a33	sll	x20,x7,x21	  x7:0x80009f28 x21:0x0000061e x20=0x00000000
       85165000	      8515	800054d0	00c00e63	beq	x0,x12,800054ec	  x0:0x00000000 x12:0x00000304
       85175000	      8516	800054d4	93350793	addi	x15,x10,-1741	 x10:0x00000001 x15=0xfffff934
       85185000	      8517	800054d8	0193c033	xor	x0,x7,x25	  x7:0x80009f28 x25:0xffffffff
       85195000	      8518	800054dc	40045c13	srai	x24,x8,0x0	  x8:0xff54a8dd x24=0xff54a8dd
       85205000	      8519	800054e0	010775b3	and	x11,x14,x16	 x14:0x00000000 x16:0x00ab5716 x11=0x00000000
       85215000	      8520	800054e4	01ec79b3	and	x19,x24,x30	 x24:0xff54a8dd x30:0xffffffff x19=0xff54a8dd
       85225000	      8521	800054e8	943de693	ori	x13,x27,-1725	 x27:0xc6e1a000 x13=0xfffff943
       85235000	      8522	800054ec	0023d113	srli	x2,x7,0x2	  x7:0x80009f28  x2=0x200027ca
       85245000	      8523	800054f0	3e367893	andi	x17,x12,995	 x12:0x00000304 x17=0x00000300
       85255000	      8524	800054f4	01befcb3	and	x25,x29,x27	 x29:0x000000a0 x27:0xc6e1a000 x25=0x00000000
       85265000	      8525	800054f8	035fe263	bltu	x31,x21,8000551c	 x31:0x00000000 x21:0x0000061e
       85275000	      8526	00000000	00000013	addi	x0,x0,0	  x0:0x00000000
       85285000	      8527	80005518	00000013	addi	x0,x0,0	  x0:0x00000000
       85295000	      8528	8000551c	9672bd13	sltiu	x26,x5,-1689	  x5:0xfffffc70 x26=0x00000000
       85305000	      8529	80005520	ef564313	xori	x6,x12,-267	 x12:0x00000304  x6=0xfffffdf1
       85315000	      8530	80005524	01ed0263	beq	x26,x30,80005528	 x26:0x00000000 x30:0xffffffff
       85325000	      8531	80005528	40f5df33	sra	x30,x11,x15	 x11:0x00000000 x15:0xfffff934 x30=0x00000000
       85335000	      8532	8000552c	0147deb3	srl	x29,x15,x20	 x15:0xfffff934 x20:0x00000000 x29=0xfffff934
       85345000	      8533	80005530	0c7a4f13	xori	x30,x20,199	 x20:0x00000000 x30=0x000000c7
       85355000	      8534	80005534	520bf897	auipc	x17,0x520bf	 x17=0xd20c4530
       85365000	      8535	80005538	04f76863	bltu	x14,x15,80005588	 x14:0x00000000 x15:0xfffff934
       85375000	      8536	00000000	00000013	addi	x0,x0,0	  x0:0x00000000
       85385000	      8537	80005584	00000013	addi	x0,x0,0	  x0:0x00000000
       85395000	      8538	80005588	30b9aa93	slti	x21,x19,779	 x19:0xff54a8dd x21=0x00000001
       85405000	      8539	8000558c	00bc61b3	or	x3,x24,x11	 x24:0xff54a8dd x11:0x00000000  x3=0xff54a8dd
       85415000	      8540	80005590	51af8e97	auipc	x29,0x51af8	 x29=0xd1afd58c
       85425000	      8541	80005594	a2e43997	auipc	x19,0xa2e43	 x19=0x22e48590
       85435000	      8542	80005598	01029db3	sll	x27,x5,x16	  x5:0xfffffc70 x16:0x00ab5716 x27=0x1c000000
       85445000	      8543	8000559c	41875413	srai	x8,x14,0x18	 x14:0x00000000  x8=0x00000000
       85455000	      8544	800055a0	00003797	auipc	x15,0x3	 x15=0x8000859c
       85465000	      8545	800055a4	e7f78793	addi	x15,x15,-385	 x15:0x8000859c x15=0x8000841b
       85475000	      8546	800055a8	00377a33	and	x20,x14,x3	 x14:0x00000000  x3:0xff54a8dd x20=0x00000000
       85485000	      8547	800055ac	d2f7c503	lbu	x10,-721(x15)	 x15:0x8000841b x10=0x00000000 PA:0x8000814a
       85495000	      8548	800055b0	00df7833	and	x16,x30,x13	 x30:0x000000c7 x13:0xfffff943 x16=0x00000043
       85505000	      8549	800055b4	6b33a597	auipc	x11,0x6b33a	 x11=0xeb33f5b0
       85515000	      8550	800055b8	c937c283	lbu	x5,-877(x15)	 x15:0x8000841b  x5=0x00000000 PA:0x800080ae
       85525000	      8551	800055bc	1f57cd83	lbu	x27,501(x15)	 x15:0x8000841b x27=0x00000000 PA:0x80008610
       85535000	      8552	800055c0	01a88333	add	x6,x17,x26	 x17:0xd20c4530 x26:0x00000000  x6=0xd20c4530
       85545000	      8553	800055c4	d6a2a297	auipc	x5,0xd6a2a	  x5=0x56a2f5c0
       85555000	      8554	800055c8	8aa29637	lui	x12,0x8aa29	 x12=0x8aa29000
       85565000	      8555	800055cc	f2d80a13	addi	x20,x16,-211	 x16:0x00000043 x20=0xffffff70
       85575000	      8556	800055d0	d3979983	lh	x19,-711(x15)	 x15:0x8000841b x19=0x00000000 PA:0x80008154
       85585000	      8557	800055d4	3e17a083	lw	x1,993(x15)	 x15:0x8000841b  x1=0x00000000 PA:0x800087fc
       85595000	      8558	00000000	00000013	addi	x0,x0,0	  x0:0x00000000
       85605000	      8559	800055d8	52130993	addi	x19,x6,1313	  x6:0xd20c4530 x19=0xd20c4a51
       85615000	      8560	800055dc	01d45a93	srli	x21,x8,0x1d	  x8:0x00000000 x21=0x00000000
       85625000	      8561	800055e0	019be833	or	x16,x23,x25	 x23:0xffffffff x25:0x00000000 x16=0xffffffff
       85635000	      8562	800055e4	40725d13	srai	x26,x4,0x7	  x4:0x00000000 x26=0x00000000
       85645000	      8563	800055e8	01495193	srli	x3,x18,0x14	 x18:0x475a92a9  x3=0x00000475
       85655000	      8564	800055ec	9d77e593	ori	x11,x15,-1577	 x15:0x8000841b x11=0xfffffddf
       85665000	      8565	800055f0	0a8792a3	sh	x8,165(x15)	 x15:0x8000841b  x8:0x00000000 PA:0x800084c0
       85675000	      8566	800055f4	00c21513	slli	x10,x4,0xc	  x4:0x00000000 x10=0x00000000
       85685000	      8567	800055f8	d0a78d83	lb	x27,-758(x15)	 x15:0x8000841b x27=0x00000000 PA:0x80008125
       85695000	      8568	800055fc	de379f83	lh	x31,-541(x15)	 x15:0x8000841b x31=0x00000000 PA:0x800081fe
       85705000	      8569	80005600	ea7794a3	sh	x7,-343(x15)	 x15:0x8000841b  x7:0x80009f28 PA:0x800082c4
       85715000	      8570	80005604	00eb34b3	sltu	x9,x22,x14	 x22:0xfffffff3 x14:0x00000000  x9=0x00000000
       85725000	      8571	80005608	1b878e23	sb	x24,444(x15)	 x15:0x8000841b x24:0xff54a8dd PA:0x800085d7
       85735000	      8572	8000560c	0139d713	srli	x14,x19,0x13	 x19:0xd20c4a51 x14=0x00001a41
       85745000	      8573	80005610	0c5795a3	sh	x5,203(x15)	 x15:0x8000841b  x5:0x56a2f5c0 PA:0x800084e6
       85755000	      8574	80005614	306797a3	sh	x6,783(x15)	 x15:0x8000841b  x6:0xd20c4530 PA:0x8000872a
       85765000	      8575	80005618	4049dc33	sra	x24,x19,x4	 x19:0xd20c4a51  x4:0x00000000 x24=0xd20c4a51
       85775000	      8576	8000561c	3e4787a3	sb	x4,1007(x15)	 x15:0x8000841b  x4:0x00000000 PA:0x8000880a
       85785000	      8577	80005620	00f1e6b3	or	x13,x3,x15	  x3:0x00000475 x15:0x8000841b x13=0x8000847f
       85795000	      8578	80005624	de0ae613	ori	x12,x21,-544	 x21:0x00000000 x12=0xfffffde0
       85805000	      8579	80005628	00041a33	sll	x20,x8,x0	  x8:0x00000000  x0:0x00000000 x20=0x00000000
       85815000	      8580	8000562c	0f3780a3	sb	x19,225(x15)	 x15:0x8000841b x19:0xd20c4a51 PA:0x800084fc
       85825000	      8581	80005630	b9e11cb7	lui	x25,0xb9e11	 x25=0xb9e11000
       85835000	      8582	80005634	d37783a3	sb	x23,-729(x15)	 x15:0x8000841b x23:0xffffffff PA:0x80008142
       85845000	      8583	80005638	eb0d9b37	lui	x22,0xeb0d9	 x22=0xeb0d9000
       85855000	      8584	8000563c	41b87d13	andi	x26,x16,1051	 x16:0xffffffff x26=0x0000041b
       85865000	      8585	80005640	12378da3	sb	x3,315(x15)	 x15:0x8000841b  x3:0x00000475 PA:0x80008556
       85875000	      8586	80005644	416d5013	srai	x0,x26,0x16	 x26:0x0000041b
       85885000	      8587	80005648	c590bab7	lui	x21,0xc590b	 x21=0xc590b000
       85895000	      8588	8000564c	a0e9a213	slti	x4,x19,-1522	 x19:0xd20c4a51  x4=0x00000001
       85905000	      8589	80005650	00f11233	sll	x4,x2,x15	  x2:0x200027ca x15:0x8000841b  x4=0x50000000
       85915000	      8590	80005654	40c3d833	sra	x16,x7,x12	  x7:0x80009f28 x12:0xfffffde0 x16=0x80009f28
       85925000	      8591	80005658	00785c63	bge	x16,x7,80005670	 x16:0x80009f28  x7:0x80009f28
       85935000	      8592	00000000	00000013	addi	x0,x0,0	  x0:0x00000000
       85945000	      8593	8000566c	00000013	addi	x0,x0,0	  x0:0x00000000
       85955000	      8594	80005670	41fcd993	srai	x19,x25,0x1f	 x25:0xb9e11000 x19=0xffffffff
       85965000	      8595	80005674	11a2f863	bgeu	x5,x26,80005784	  x5:0x56a2f5c0 x26:0x0000041b
       85975000	      8596	00000000	00000013	addi	x0,x0,0	  x0:0x00000000
       85985000	      8597	80005780	00000013	addi	x0,x0,0	  x0:0x00000000
       85995000	      8598	80005784	11eaf613	andi	x12,x21,286	 x21:0xc590b000 x12=0x00000000
       86005000	      8599	80005788	41205993	srai	x19,x0,0x12	  x0:0x00000000 x19=0x00000000
       86015000	      8600	8000578c	01911613	slli	x12,x2,0x19	  x2:0x200027ca x12=0x94000000
       86025000	      8601	80005790	55583693	sltiu	x13,x16,1365	 x16:0x80009f28 x13=0x00000000
       86035000	      8602	80005794	746a54b7	lui	x9,0x746a5	  x9=0x746a5000
       86045000	      8603	80005798	009064b3	or	x9,x0,x9	  x0:0x00000000  x9:0x746a5000  x9=0x746a5000
       86055000	      8604	8000579c	00000013	addi	x0,x0,0	  x0:0x00000000
       86065000	      8605	800057a0	056b0863	beq	x22,x22,800057f0	 x22:0xeb0d9000 x22:0xeb0d9000
       86075000	      8606	00000000	00000013	addi	x0,x0,0	  x0:0x00000000
       86085000	      8607	800057ec	00000013	addi	x0,x0,0	  x0:0x00000000
       86095000	      8608	800057f0	05c24063	blt	x4,x28,80005830	  x4:0x50000000 x28:0x80009fc4
       86105000	      8609	800057f4	00f09eb3	sll	x29,x1,x15	  x1:0x00000000 x15:0x8000841b x29=0x00000000
       86115000	      8610	800057f8	05d37663	bgeu	x6,x29,80005844	  x6:0xd20c4530 x29:0x00000000
       86125000	      8611	00000000	00000013	addi	x0,x0,0	  x0:0x00000000
       86135000	      8612	80005840	00000013	addi	x0,x0,0	  x0:0x00000000
       86145000	      8613	80005844	01591b93	slli	x23,x18,0x15	 x18:0x475a92a9 x23=0x55200000
       86155000	      8614	80005848	ab979437	lui	x8,0xab979	  x8=0xab979000
       86165000	      8615	8000584c	80e36313	ori	x6,x6,-2034	  x6:0xd20c4530  x6=0xfffffd3e
       86175000	      8616	80005850	3e460c13	addi	x24,x12,996	 x12:0x94000000 x24=0x940003e4
       86185000	      8617	80005854	45fb1297	auipc	x5,0x45fb1	  x5=0xc5fb6850
       86195000	      8618	80005858	01ac1693	slli	x13,x24,0x1a	 x24:0x940003e4 x13=0x90000000
       86205000	      8619	8000585c	00bfcbb3	xor	x23,x31,x11	 x31:0x00000000 x11:0xfffffddf x23=0xfffffddf
       86215000	      8620	80005860	03eb8863	beq	x23,x30,80005890	 x23:0xfffffddf x30:0x000000c7
       86225000	      8621	80005864	008f7033	and	x0,x30,x8	 x30:0x000000c7  x8:0xab979000
       86235000	      8622	80005868	00cc0833	add	x16,x24,x12	 x24:0x940003e4 x12:0x94000000 x16=0x280003e4
       86245000	      8623	8000586c	2e968593	addi	x11,x13,745	 x13:0x90000000 x11=0x900002e9
       86255000	      8624	80005870	00f637b3	sltu	x15,x12,x15	 x12:0x94000000 x15:0x8000841b x15=0x00000000
       86265000	      8625	80005874	003c6a33	or	x20,x24,x3	 x24:0x940003e4  x3:0x00000475 x20=0x940007f5
       86275000	      8626	80005878	000b5993	srli	x19,x22,0x0	 x22:0xeb0d9000 x19=0xeb0d9000
       86285000	      8627	8000587c	f341c217	auipc	x4,0xf341c	  x4=0x73421878
       86295000	      8628	80005880	00801893	slli	x17,x0,0x8	  x0:0x00000000 x17=0x00000000
       86305000	      8629	80005884	40b85213	srai	x4,x16,0xb	 x16:0x280003e4  x4=0x00050000
       86315000	      8630	80005888	00c5a2b3	slt	x5,x11,x12	 x11:0x900002e9 x12:0x94000000  x5=0x00000001
       86325000	      8631	8000588c	c9507497	auipc	x9,0xc9507	  x9=0x4950c888
       86335000	      8632	80005890	418b5293	srai	x5,x22,0x18	 x22:0xeb0d9000  x5=0xffffffeb
       86345000	      8633	80005894	00eb50b3	srl	x1,x22,x14	 x22:0xeb0d9000 x14:0x00001a41  x1=0x7586c800
       86355000	      8634	80005898	4095d8b3	sra	x17,x11,x9	 x11:0x900002e9  x9:0x4950c888 x17=0xff900002
       86365000	      8635	8000589c	ae4bc713	xori	x14,x23,-1308	 x23:0xfffffddf x14=0x0000073b
       86375000	      8636	800058a0	4183df33	sra	x30,x7,x24	  x7:0x80009f28 x24:0x940003e4 x30=0xf80009f2
       86385000	      8637	800058a4	014769b3	or	x19,x14,x20	 x14:0x0000073b x20:0x940007f5 x19=0x940007ff
       86395000	      8638	800058a8	028ee063	bltu	x29,x8,800058c8	 x29:0x00000000  x8:0xab979000
       86405000	      8639	00000000	00000013	addi	x0,x0,0	  x0:0x00000000
       86415000	      8640	800058c4	00000013	addi	x0,x0,0	  x0:0x00000000
       86425000	      8641	800058c8	5283ff93	andi	x31,x7,1320	  x7:0x80009f28 x31=0x00000528
       86435000	      8642	800058cc	41dfd733	sra	x14,x31,x29	 x31:0x00000528 x29:0x00000000 x14=0x00000528
       86445000	      8643	800058d0	8b494497	auipc	x9,0x8b494	  x9=0x0b4998cc
       86455000	      8644	800058d4	015dc9b3	xor	x19,x27,x21	 x27:0x00000000 x21:0xc590b000 x19=0xc590b000
       86465000	      8645	800058d8	f47d6237	lui	x4,0xf47d6	  x4=0xf47d6000
       86475000	      8646	800058dc	00865e63	bge	x12,x8,800058f8	 x12:0x94000000  x8:0xab979000
       86485000	      8647	800058e0	010adcb3	srl	x25,x21,x16	 x21:0xc590b000 x16:0x280003e4 x25=0x0c590b00
       86495000	      8648	800058e4	01d87b33	and	x22,x16,x29	 x16:0x280003e4 x29:0x00000000 x22=0x00000000
       86505000	      8649	800058e8	40790233	sub	x4,x18,x7	 x18:0x475a92a9  x7:0x80009f28  x4=0xc759f381
       86515000	      8650	800058ec	00f29f13	slli	x30,x5,0xf	  x5:0xffffffeb x30=0xfff58000
       86525000	      8651	800058f0	0035cc33	xor	x24,x11,x3	 x11:0x900002e9  x3:0x00000475 x24=0x9000069c
       86535000	      8652	800058f4	00b56233	or	x4,x10,x11	 x10:0x00000000 x11:0x900002e9  x4=0x900002e9
       86545000	      8653	800058f8	017b5333	srl	x6,x22,x23	 x22:0x00000000 x23:0xfffffddf  x6=0x00000000
       86555000	      8654	800058fc	00398ab3	add	x21,x19,x3	 x19:0xc590b000  x3:0x00000475 x21=0xc590b475
       86565000	      8655	80005900	3ca52693	slti	x13,x10,970	 x10:0x00000000 x13=0x00000001
       86575000	      8656	80005904	fd3d3b93	sltiu	x23,x26,-45	 x26:0x0000041b x23=0x00000001
       86585000	      8657	80005908	40f001b3	sub	x3,x0,x15	  x0:0x00000000 x15:0x00000000  x3=0x00000000
       86595000	      8658	8000590c	d2f5cf93	xori	x31,x11,-721	 x11:0x900002e9 x31=0x6fffffc6
       86605000	      8659	80005910	a5ea0193	addi	x3,x20,-1442	 x20:0x940007f5  x3=0x94000253
       86615000	      8660	80005914	00638263	beq	x7,x6,80005918	  x7:0x80009f28  x6:0x00000000
       86625000	      8661	80005918	005b5793	srli	x15,x22,0x5	 x22:0x00000000 x15=0x00000000
       86635000	      8662	8000591c	40070033	sub	x0,x14,x0	 x14:0x00000528  x0:0x00000000
       86645000	      8663	80005920	01052d33	slt	x26,x10,x16	 x10:0x00000000 x16:0x280003e4 x26=0x00000001
       86655000	      8664	80005924	00ba7a63	bgeu	x20,x11,80005938	 x20:0x940007f5 x11:0x900002e9
       86665000	      8665	00000000	00000013	addi	x0,x0,0	  x0:0x00000000
       86675000	      8666	80005934	00000013	addi	x0,x0,0	  x0:0x00000000
       86685000	      8667	80005938	005541b3	xor	x3,x10,x5	 x10:0x00000000  x5:0xffffffeb  x3=0xffffffeb
       86695000	      8668	8000593c	00a55a13	srli	x20,x10,0xa	 x10:0x00000000 x20=0x00000000
       86705000	      8669	80005940	cced4c93	xori	x25,x26,-818	 x26:0x00000001 x25=0xfffffccf
       86715000	      8670	80005944	00780713	addi	x14,x16,7	 x16:0x280003e4 x14=0x280003eb
       86725000	      8671	80005948	04eec863	blt	x29,x14,80005998	 x29:0x00000000 x14:0x280003eb
       86735000	      8672	00000000	00000013	addi	x0,x0,0	  x0:0x00000000
       86745000	      8673	80005994	00000013	addi	x0,x0,0	  x0:0x00000000
       86755000	      8674	80005998	00fd2533	slt	x10,x26,x15	 x26:0x00000001 x15:0x00000000 x10=0x00000000
       86765000	      8675	8000599c	41985833	sra	x16,x16,x25	 x16:0x280003e4 x25:0xfffffccf x16=0x00005000
       86775000	      8676	800059a0	9da4c193	xori	x3,x9,-1574	  x9:0x0b4998cc  x3=0xf4b66116
       86785000	      8677	800059a4	00000013	addi	x0,x0,0	  x0:0x00000000
       86795000	      8678	800059a8	546ffc93	andi	x25,x31,1350	 x31:0x6fffffc6 x25=0x00000546
       86805000	      8679	800059ac	602b60b7	lui	x1,0x602b6	  x1=0x602b6000
       86815000	      8680	800059b0	01d24c63	blt	x4,x29,800059c8	  x4:0x900002e9 x29:0x00000000
       86825000	      8681	00000000	00000013	addi	x0,x0,0	  x0:0x00000000
       86835000	      8682	800059c4	00000013	addi	x0,x0,0	  x0:0x00000000
       86845000	      8683	800059c8	01af5663	bge	x30,x26,800059d4	 x30:0xfff58000 x26:0x00000001
       86855000	      8684	800059cc	103ef9b7	lui	x19,0x103ef	 x19=0x103ef000
       86865000	      8685	800059d0	01a05663	bge	x0,x26,800059dc	  x0:0x00000000 x26:0x00000001
       86875000	      8686	800059d4	3a59ed93	ori	x27,x19,933	 x19:0x103ef000 x27=0x103ef3a5
       86885000	      8687	800059d8	02388263	beq	x17,x3,800059fc	 x17:0xff900002  x3:0xf4b66116
       86895000	      8688	800059dc	33618413	addi	x8,x3,822	  x3:0xf4b66116  x8=0xf4b6644c
       86905000	      8689	800059e0	02361263	bne	x12,x3,80005a04	 x12:0x94000000  x3:0xf4b66116
       86915000	      8690	00000000	00000013	addi	x0,x0,0	  x0:0x00000000
       86925000	      8691	80005a00	00000013	addi	x0,x0,0	  x0:0x00000000
       86935000	      8692	80005a04	363c4997	auipc	x19,0x363c4	 x19=0xb63c9a00
       86945000	      8693	80005a08	02d07263	bgeu	x0,x13,80005a2c	  x0:0x00000000 x13:0x00000001
       86955000	      8694	80005a0c	40a689b3	sub	x19,x13,x10	 x13:0x00000001 x10:0x00000000 x19=0x00000001
       86965000	      8695	80005a10	12e8f513	andi	x10,x17,302	 x17:0xff900002 x10=0x00000002
       86975000	      8696	80005a14	0039bf33	sltu	x30,x19,x3	 x19:0x00000001  x3:0xf4b66116 x30=0x00000001
       86985000	      8697	80005a18	bded4093	xori	x1,x26,-1058	 x26:0x00000001  x1=0xfffffbdf
       86995000	      8698	80005a1c	04d68863	beq	x13,x13,80005a6c	 x13:0x00000001 x13:0x00000001
       87005000	      8699	00000000	00000013	addi	x0,x0,0	  x0:0x00000000
       87015000	      8700	80005a68	00000013	addi	x0,x0,0	  x0:0x00000000
       87025000	      8701	80005a6c	00699c93	slli	x25,x19,0x6	 x19:0x00000001 x25=0x00000040
       87035000	      8702	80005a70	004dfc63	bgeu	x27,x4,80005a88	 x27:0x103ef3a5  x4:0x900002e9
       87045000	      8703	80005a74	018984b3	add	x9,x19,x24	 x19:0x00000001 x24:0x9000069c  x9=0x9000069d
       87055000	      8704	80005a78	00ff6cb3	or	x25,x30,x15	 x30:0x00000001 x15:0x00000000 x25=0x00000001
       87065000	      8705	80005a7c	024e4463	blt	x28,x4,80005aa4	 x28:0x80009fc4  x4:0x900002e9
       87075000	      8706	00000000	00000013	addi	x0,x0,0	  x0:0x00000000
       87085000	      8707	80005aa0	00000013	addi	x0,x0,0	  x0:0x00000000
       87095000	      8708	80005aa4	00bb6a63	bltu	x22,x11,80005ab8	 x22:0x00000000 x11:0x900002e9
       87105000	      8709	00000000	00000013	addi	x0,x0,0	  x0:0x00000000
       87115000	      8710	80005ab4	00000013	addi	x0,x0,0	  x0:0x00000000
       87125000	      8711	80005ab8	02df6263	bltu	x30,x13,80005adc	 x30:0x00000001 x13:0x00000001
       87135000	      8712	80005abc	13720813	addi	x16,x4,311	  x4:0x900002e9 x16=0x90000420
       87145000	      8713	80005ac0	0044afb3	slt	x31,x9,x4	  x9:0x9000069d  x4:0x900002e9 x31=0x00000000
       87155000	      8714	80005ac4	624dfc13	andi	x24,x27,1572	 x27:0x103ef3a5 x24=0x00000224
       87165000	      8715	80005ac8	40140d33	sub	x26,x8,x1	  x8:0xf4b6644c  x1:0xfffffbdf x26=0xf4b6686d
       87175000	      8716	80005acc	01ad22b3	slt	x5,x26,x26	 x26:0xf4b6686d x26:0xf4b6686d  x5=0x00000000
       87185000	      8717	80005ad0	35b78213	addi	x4,x15,859	 x15:0x00000000  x4=0x0000035b
       87195000	      8718	80005ad4	01e97263	bgeu	x18,x30,80005ad8	 x18:0x475a92a9 x30:0x00000001
       87205000	      8719	00000000	00000013	addi	x0,x0,0	  x0:0x00000000
       87215000	      8720	80005ad4	00000013	addi	x0,x0,0	  x0:0x00000000
       87225000	      8721	80005ad8	f4056493	ori	x9,x10,-192	 x10:0x00000002  x9=0xffffff42
       87235000	      8722	80005adc	ea3bff93	andi	x31,x23,-349	 x23:0x00000001 x31=0x00000001
       87245000	      8723	80005ae0	01d26c63	bltu	x4,x29,80005af8	  x4:0x0000035b x29:0x00000000
       87255000	      8724	80005ae4	01f25a63	bge	x4,x31,80005af8	  x4:0x0000035b x31:0x00000001
       87265000	      8725	00000000	00000013	addi	x0,x0,0	  x0:0x00000000
       87275000	      8726	80005af4	00000013	addi	x0,x0,0	  x0:0x00000000
       87285000	      8727	80005af8	0148c263	blt	x17,x20,80005afc	 x17:0xff900002 x20:0x00000000
       87295000	      8728	00000000	00000013	addi	x0,x0,0	  x0:0x00000000
       87305000	      8729	80005af8	00000013	addi	x0,x0,0	  x0:0x00000000
       87315000	      8730	80005afc	014d55b3	srl	x11,x26,x20	 x26:0xf4b6686d x20:0x00000000 x11=0xf4b6686d
       87325000	      8731	80005b00	11ec4e63	blt	x24,x30,80005c1c	 x24:0x00000224 x30:0x00000001
       87335000	      8732	80005b04	4e17f813	andi	x16,x15,1249	 x15:0x00000000 x16=0x00000000
       87345000	      8733	80005b08	41370bb3	sub	x23,x14,x19	 x14:0x280003eb x19:0x00000001 x23=0x280003ea
       87355000	      8734	80005b0c	00003297	auipc	x5,0x3	  x5=0x80008b08
       87365000	      8735	80005b10	0f228293	addi	x5,x5,242	  x5:0x80008b08  x5=0x80008bfa
       87375000	      8736	80005b14	406d55b3	sra	x11,x26,x6	 x26:0xf4b6686d  x6:0x00000000 x11=0xf4b6686d
       87385000	      8737	80005b18	00924db3	xor	x27,x4,x9	  x4:0x0000035b  x9:0xffffff42 x27=0xfffffc19
       87395000	      8738	80005b1c	0123cab3	xor	x21,x7,x18	  x7:0x80009f28 x18:0x475a92a9 x21=0xc75a0d81
       87405000	      8739	80005b20	00000013	addi	x0,x0,0	  x0:0x00000000
       87415000	      8740	80005b24	ff029783	lh	x15,-16(x5)	  x5:0x80008bfa x15=0x00000000 PA:0x80008bea
       87425000	      8741	80005b28	018a8433	add	x8,x21,x24	 x21:0xc75a0d81 x24:0x00000224  x8=0xc75a0fa5
       87435000	      8742	80005b2c	70db0613	addi	x12,x22,1805	 x22:0x00000000 x12=0x0000070d
       87445000	      8743	80005b30	ff428683	lb	x13,-12(x5)	  x5:0x80008bfa x13=0x00000000 PA:0x80008bee
       87455000	      8744	80005b34	01fa3c33	sltu	x24,x20,x31	 x20:0x00000000 x31:0x00000001 x24=0x00000001
       87465000	      8745	80005b38	017a1633	sll	x12,x20,x23	 x20:0x00000000 x23:0x280003ea x12=0x00000000
       87475000	      8746	80005b3c	00000013	addi	x0,x0,0	  x0:0x00000000
       87485000	      8747	80005b40	00a28523	sb	x10,10(x5)	  x5:0x80008bfa x10:0x00000002 PA:0x80008c04
       87495000	      8748	80005b44	fff28603	lb	x12,-1(x5)	  x5:0x80008bfa x12=0x00000000 PA:0x80008bf9
       87505000	      8749	80005b48	ffc2c103	lbu	x2,-4(x5)	  x5:0x80008bfa  x2=0x00000000 PA:0x80008bf6
       87515000	      8750	80005b4c	ffc2c803	lbu	x16,-4(x5)	  x5:0x80008bfa x16=0x00000000 PA:0x80008bf6
       87525000	      8751	80005b50	00d2c483	lbu	x9,13(x5)	  x5:0x80008bfa  x9=0x00000001 PA:0x80008c07
       87535000	      8752	80005b54	01f5d993	srli	x19,x11,0x1f	 x11:0xf4b6686d x19=0x00000001
       87545000	      8753	80005b58	fff2c103	lbu	x2,-1(x5)	  x5:0x80008bfa  x2=0x00000000 PA:0x80008bf9
       87555000	      8754	80005b5c	ffe29f23	sh	x30,-2(x5)	  x5:0x80008bfa x30:0x00000001 PA:0x80008bf8
       87565000	      8755	80005b60	02daa193	slti	x3,x21,45	 x21:0xc75a0d81  x3=0x00000001
       87575000	      8756	80005b64	01b28323	sb	x27,6(x5)	  x5:0x80008bfa x27:0xfffffc19 PA:0x80008c00
       87585000	      8757	80005b68	ff22c883	lbu	x17,-14(x5)	  x5:0x80008bfa x17=0x00000000 PA:0x80008bec
       87595000	      8758	80005b6c	ff82dd03	lhu	x26,-8(x5)	  x5:0x80008bfa x26=0x00000000 PA:0x80008bf2
       87605000	      8759	80005b70	9879cbb7	lui	x23,0x9879c	 x23=0x9879c000
       87615000	      8760	80005b74	fbc33197	auipc	x3,0xfbc33	  x3=0x7bc38b70
       87625000	      8761	80005b78	fe4289a3	sb	x4,-13(x5)	  x5:0x80008bfa  x4:0x0000035b PA:0x80008bed
       87635000	      8762	80005b7c	f62d8313	addi	x6,x27,-158	 x27:0xfffffc19  x6=0xfffffb7b
       87645000	      8763	80005b80	40948eb3	sub	x29,x9,x9	  x9:0x00000001  x9:0x00000001 x29=0x00000000
       87655000	      8764	80005b84	01d60033	add	x0,x12,x29	 x12:0x00000000 x29:0x00000000
       87665000	      8765	80005b88	b0c7f513	andi	x10,x15,-1268	 x15:0x00000000 x10=0x00000000
       87675000	      8766	80005b8c	0101a733	slt	x14,x3,x16	  x3:0x7bc38b70 x16:0x00000000 x14=0x00000000
       87685000	      8767	80005b90	ff02cf83	lbu	x31,-16(x5)	  x5:0x80008bfa x31=0x00000000 PA:0x80008bea
       87695000	      8768	80005b94	003b6233	or	x4,x22,x3	 x22:0x00000000  x3:0x7bc38b70  x4=0x7bc38b70
       87705000	      8769	80005b98	00a80b33	add	x22,x16,x10	 x16:0x00000000 x10:0x00000000 x22=0x00000000
       87715000	      8770	80005b9c	41658033	sub	x0,x11,x22	 x11:0xf4b6686d x22:0x00000000
       87725000	      8771	80005ba0	ffe28d03	lb	x26,-2(x5)	  x5:0x80008bfa x26=0x00000001 PA:0x80008bf8
       87735000	      8772	80005ba4	015f5fb3	srl	x31,x30,x21	 x30:0x00000001 x21:0xc75a0d81 x31=0x00000000
       87745000	      8773	80005ba8	0042d683	lhu	x13,4(x5)	  x5:0x80008bfa x13=0x00000000 PA:0x80008bfe
       87755000	      8774	80005bac	01148733	add	x14,x9,x17	  x9:0x00000001 x17:0x00000000 x14=0x00000001
       87765000	      8775	80005bb0	fe22af23	sw	x2,-2(x5)	  x5:0x80008bfa  x2:0x00000000 PA:0x80008bf8
       87775000	      8776	80005bb4	2e2f9317	auipc	x6,0x2e2f9	  x6=0xae2febb0
       87785000	      8777	80005bb8	00128883	lb	x17,1(x5)	  x5:0x80008bfa x17=0x00000000 PA:0x80008bfb
       87795000	      8778	80005bbc	6ea74313	xori	x6,x14,1770	 x14:0x00000001  x6=0x000006eb
       87805000	      8779	80005bc0	af9f2613	slti	x12,x30,-1287	 x30:0x00000001 x12=0x00000000
       87815000	      8780	80005bc4	00929323	sh	x9,6(x5)	  x5:0x80008bfa  x9:0x00000001 PA:0x80008c00
       87825000	      8781	80005bc8	2a73fc17	auipc	x24,0x2a73f	 x24=0xaa744bc4
       87835000	      8782	80005bcc	00000013	addi	x0,x0,0	  x0:0x00000000
       87845000	      8783	80005bd0	01fe9fb3	sll	x31,x29,x31	 x29:0x00000000 x31:0x00000000 x31=0x00000000
       87855000	      8784	80005bd4	9965a493	slti	x9,x11,-1642	 x11:0xf4b6686d  x9=0x00000001
       87865000	      8785	80005bd8	01e286a3	sb	x30,13(x5)	  x5:0x80008bfa x30:0x00000001 PA:0x80008c07
       87875000	      8786	80005bdc	007d7263	bgeu	x26,x7,80005be0	 x26:0x00000001  x7:0x80009f28
       87885000	      8787	80005be0	010d9d93	slli	x27,x27,0x10	 x27:0xfffffc19 x27=0xfc190000
       87895000	      8788	80005be4	005b1a93	slli	x21,x22,0x5	 x22:0x00000000 x21=0x00000000
       87905000	      8789	80005be8	12638f13	addi	x30,x7,294	  x7:0x80009f28 x30=0x8000a04e
       87915000	      8790	80005bec	8eedec93	ori	x25,x27,-1810	 x27:0xfc190000 x25=0xfffff8ee
       87925000	      8791	80005bf0	106bf113	andi	x2,x23,262	 x23:0x9879c000  x2=0x00000000
       87935000	      8792	80005bf4	008ff6b3	and	x13,x31,x8	 x31:0x00000000  x8:0xc75a0fa5 x13=0x00000000
       87945000	      8793	80005bf8	18b48d13	addi	x26,x9,395	  x9:0x00000001 x26=0x0000018c
       87955000	      8794	80005bfc	013aef33	or	x30,x21,x19	 x21:0x00000000 x19:0x00000001 x30=0x00000001
       87965000	      8795	80005c00	00e381b3	add	x3,x7,x14	  x7:0x80009f28 x14:0x00000001  x3=0x80009f29
       87975000	      8796	80005c04	016affb3	and	x31,x21,x22	 x21:0x00000000 x22:0x00000000 x31=0x00000000
       87985000	      8797	80005c08	199caf93	slti	x31,x25,409	 x25:0xfffff8ee x31=0x00000001
       87995000	      8798	80005c0c	03649863	bne	x9,x22,80005c3c	  x9:0x00000001 x22:0x00000000
       88005000	      8799	00000000	00000013	addi	x0,x0,0	  x0:0x00000000
       88015000	      8800	80005c38	00000013	addi	x0,x0,0	  x0:0x00000000
       88025000	      8801	80005c3c	01e812b3	sll	x5,x16,x30	 x16:0x00000000 x30:0x00000001  x5=0x00000000
       88035000	      8802	80005c40	00c07c33	and	x24,x0,x12	  x0:0x00000000 x12:0x00000000 x24=0x00000000
       88045000	      8803	80005c44	00003117	auipc	x2,0x3	  x2=0x80008c40
       88055000	      8804	80005c48	27810113	addi	x2,x2,632	  x2:0x80008c40  x2=0x80008eb8
       88065000	      8805	80005c4c	68124db7	lui	x27,0x68124	 x27=0x68124000
       88075000	      8806	80005c50	ffc11883	lh	x17,-4(x2)	  x2:0x80008eb8 x17=0x00000001 PA:0x80008eb4
       88085000	      8807	80005c54	fe6108a3	sb	x6,-15(x2)	  x2:0x80008eb8  x6:0x000006eb PA:0x80008ea9
       88095000	      8808	80005c58	018105a3	sb	x24,11(x2)	  x2:0x80008eb8 x24:0x00000000 PA:0x80008ec3
       88105000	      8809	80005c5c	005105a3	sb	x5,11(x2)	  x2:0x80008eb8  x5:0x00000000 PA:0x80008ec3
       88115000	      8810	80005c60	ff412823	sw	x20,-16(x2)	  x2:0x80008eb8 x20:0x00000000 PA:0x80008ea8
       88125000	      8811	80005c64	ff914403	lbu	x8,-7(x2)	  x2:0x80008eb8  x8=0x00000000 PA:0x80008eb1
       88135000	      8812	80005c68	0108fc33	and	x24,x17,x16	 x17:0x00000001 x16:0x00000000 x24=0x00000000
       88145000	      8813	80005c6c	00000013	addi	x0,x0,0	  x0:0x00000000
       88155000	      8814	80005c70	1a148097	auipc	x1,0x1a148	  x1=0x9a14dc6c
       88165000	      8815	80005c74	ff110303	lb	x6,-15(x2)	  x2:0x80008eb8  x6=0x00000000 PA:0x80008ea9
       88175000	      8816	80005c78	00012283	lw	x5,0(x2)	  x2:0x80008eb8  x5=0x00000000 PA:0x80008eb8
       88185000	      8817	00000000	00000013	addi	x0,x0,0	  x0:0x00000000
       88195000	      8818	80005c7c	00510b03	lb	x22,5(x2)	  x2:0x80008eb8 x22=0x00000000 PA:0x80008ebd
       88205000	      8819	80005c80	00613b33	sltu	x22,x2,x6	  x2:0x80008eb8  x6:0x00000000 x22=0x00000000
       88215000	      8820	80005c84	00014883	lbu	x17,0(x2)	  x2:0x80008eb8 x17=0x00000000 PA:0x80008eb8
       88225000	      8821	00000000	00000013	addi	x0,x0,0	  x0:0x00000000
       88235000	      8822	80005c88	011104a3	sb	x17,9(x2)	  x2:0x80008eb8 x17:0x00000000 PA:0x80008ec1
       88245000	      8823	80005c8c	01235613	srli	x12,x6,0x12	  x6:0x00000000 x12=0x00000000
       88255000	      8824	80005c90	ff610b23	sb	x22,-10(x2)	  x2:0x80008eb8 x22:0x00000000 PA:0x80008eae
       88265000	      8825	80005c94	01339013	slli	x0,x7,0x13	  x7:0x80009f28
       88275000	      8826	80005c98	ec94f413	andi	x8,x9,-311	  x9:0x00000001  x8=0x00000001
       88285000	      8827	80005c9c	ff615403	lhu	x8,-10(x2)	  x2:0x80008eb8  x8=0x00000000 PA:0x80008eae
       88295000	      8828	80005ca0	ff511b23	sh	x21,-10(x2)	  x2:0x80008eb8 x21:0x00000000 PA:0x80008eae
       88305000	      8829	80005ca4	fe110da3	sb	x1,-5(x2)	  x2:0x80008eb8  x1:0x9a14dc6c PA:0x80008eb3
       88315000	      8830	80005ca8	fff14303	lbu	x6,-1(x2)	  x2:0x80008eb8  x6=0x00000000 PA:0x80008eb7
       88325000	      8831	80005cac	ffe12e23	sw	x30,-4(x2)	  x2:0x80008eb8 x30:0x00000001 PA:0x80008eb4
       88335000	      8832	80005cb0	40af00b3	sub	x1,x30,x10	 x30:0x00000001 x10:0x00000000  x1=0x00000001
       88345000	      8833	80005cb4	0122d993	srli	x19,x5,0x12	  x5:0x00000000 x19=0x00000000
       88355000	      8834	80005cb8	01410823	sb	x20,16(x2)	  x2:0x80008eb8 x20:0x00000000 PA:0x80008ec8
       88365000	      8835	80005cbc	00510223	sb	x5,4(x2)	  x2:0x80008eb8  x5:0x00000000 PA:0x80008ebc
       88375000	      8836	80005cc0	ff6109a3	sb	x22,-13(x2)	  x2:0x80008eb8 x22:0x00000000 PA:0x80008eab
       88385000	      8837	80005cc4	4071dd33	sra	x26,x3,x7	  x3:0x80009f29  x7:0x80009f28 x26=0xff80009f
       88395000	      8838	80005cc8	00d14703	lbu	x14,13(x2)	  x2:0x80008eb8 x14=0x00000000 PA:0x80008ec5
       88405000	      8839	80005ccc	ff412183	lw	x3,-12(x2)	  x2:0x80008eb8  x3=0x00000000 PA:0x80008eac
       88415000	      8840	80005cd0	002cb533	sltu	x10,x25,x2	 x25:0xfffff8ee  x2:0x80008eb8 x10=0x00000000
       88425000	      8841	80005cd4	ff910983	lb	x19,-7(x2)	  x2:0x80008eb8 x19=0x00000000 PA:0x80008eb1
       88435000	      8842	80005cd8	009281b3	add	x3,x5,x9	  x5:0x00000000  x9:0x00000001  x3=0x00000001
       88445000	      8843	80005cdc	006fd533	srl	x10,x31,x6	 x31:0x00000001  x6:0x00000000 x10=0x00000001
       88455000	      8844	80005ce0	00ec5793	srli	x15,x24,0xe	 x24:0x00000000 x15=0x00000000
       88465000	      8845	80005ce4	0198ab33	slt	x22,x17,x25	 x17:0x00000000 x25:0xfffff8ee x22=0x00000000
       88475000	      8846	80005ce8	ff610ea3	sb	x22,-3(x2)	  x2:0x80008eb8 x22:0x00000000 PA:0x80008eb5
       88485000	      8847	80005cec	00214983	lbu	x19,2(x2)	  x2:0x80008eb8 x19=0x00000000 PA:0x80008eba
       88495000	      8848	80005cf0	ff215f03	lhu	x30,-14(x2)	  x2:0x80008eb8 x30=0x00000000 PA:0x80008eaa
       88505000	      8849	80005cf4	210a4313	xori	x6,x20,528	 x20:0x00000000  x6=0x00000210
       88515000	      8850	80005cf8	002107a3	sb	x2,15(x2)	  x2:0x80008eb8  x2:0x80008eb8 PA:0x80008ec7
       88525000	      8851	80005cfc	00a11483	lh	x9,10(x2)	  x2:0x80008eb8  x9=0x00000000 PA:0x80008ec2
       88535000	      8852	80005d00	05ea32b7	lui	x5,0x5ea3	  x5=0x05ea3000
       88545000	      8853	80005d04	004af6b3	and	x13,x21,x4	 x21:0x00000000  x4:0x7bc38b70 x13=0x00000000
       88555000	      8854	80005d08	01bc9233	sll	x4,x25,x27	 x25:0xfffff8ee x27:0x68124000  x4=0xfffff8ee
       88565000	      8855	80005d0c	ff310b83	lb	x23,-13(x2)	  x2:0x80008eb8 x23=0x00000000 PA:0x80008eab
       88575000	      8856	80005d10	00314d03	lbu	x26,3(x2)	  x2:0x80008eb8 x26=0x00000000 PA:0x80008ebb
       88585000	      8857	80005d14	aea40a13	addi	x20,x8,-1302	  x8:0x00000000 x20=0xfffffaea
       88595000	      8858	80005d18	02c3da63	bge	x7,x12,80005d4c	  x7:0x80009f28 x12:0x00000000
       88605000	      8859	80005d1c	06a53213	sltiu	x4,x10,106	 x10:0x00000001  x4=0x00000001
       88615000	      8860	80005d20	00a27bb3	and	x23,x4,x10	  x4:0x00000001 x10:0x00000001 x23=0x00000001
       88625000	      8861	80005d24	095ffb93	andi	x23,x31,149	 x31:0x00000001 x23=0x00000001
       88635000	      8862	80005d28	02ab7663	bgeu	x22,x10,80005d54	 x22:0x00000000 x10:0x00000001
       88645000	      8863	80005d2c	2e3404b7	lui	x9,0x2e340	  x9=0x2e340000
       88655000	      8864	80005d30	00f90db3	add	x27,x18,x15	 x18:0x475a92a9 x15:0x00000000 x27=0x475a92a9
       88665000	      8865	80005d34	01899793	slli	x15,x19,0x18	 x19:0x00000000 x15=0x00000000
       88675000	      8866	80005d38	347eff13	andi	x30,x29,839	 x29:0x00000000 x30=0x00000000
       88685000	      8867	80005d3c	05249863	bne	x9,x18,80005d8c	  x9:0x2e340000 x18:0x475a92a9
       88695000	      8868	00000000	00000013	addi	x0,x0,0	  x0:0x00000000
       88705000	      8869	80005d88	00000013	addi	x0,x0,0	  x0:0x00000000
       88715000	      8870	80005d8c	0109fab3	and	x21,x19,x16	 x19:0x00000000 x16:0x00000000 x21=0x00000000
       88725000	      8871	80005d90	88f63213	sltiu	x4,x12,-1905	 x12:0x00000000  x4=0x00000001
       88735000	      8872	80005d94	3fdb7613	andi	x12,x22,1021	 x22:0x00000000 x12=0x00000000
       88745000	      8873	80005d98	02ce5063	bge	x28,x12,80005db8	 x28:0x80009fc4 x12:0x00000000
       88755000	      8874	80005d9c	00531663	bne	x6,x5,80005da8	  x6:0x00000210  x5:0x05ea3000
       88765000	      8875	00000000	00000013	addi	x0,x0,0	  x0:0x00000000
       88775000	      8876	80005da4	00000013	addi	x0,x0,0	  x0:0x00000000
       88785000	      8877	80005da8	003e8c63	beq	x29,x3,80005dc0	 x29:0x00000000  x3:0x00000001
       88795000	      8878	80005dac	000fda13	srli	x20,x31,0x0	 x31:0x00000001 x20=0x00000001
       88805000	      8879	80005db0	40b50633	sub	x12,x10,x11	 x10:0x00000001 x11:0xf4b6686d x12=0x0b499794
       88815000	      8880	80005db4	01a2cc63	blt	x5,x26,80005dcc	  x5:0x05ea3000 x26:0x00000000
       88825000	      8881	80005db8	372fa993	slti	x19,x31,882	 x31:0x00000001 x19=0x00000001
       88835000	      8882	80005dbc	40d458b3	sra	x17,x8,x13	  x8:0x00000000 x13:0x00000000 x17=0x00000000
       88845000	      8883	80005dc0	405adf33	sra	x30,x21,x5	 x21:0x00000000  x5:0x05ea3000 x30=0x00000000
       88855000	      8884	80005dc4	01833a33	sltu	x20,x6,x24	  x6:0x00000210 x24:0x00000000 x20=0x00000000
       88865000	      8885	80005dc8	03ea0263	beq	x20,x30,80005dec	 x20:0x00000000 x30:0x00000000
       88875000	      8886	00000000	00000013	addi	x0,x0,0	  x0:0x00000000
       88885000	      8887	80005de8	00000013	addi	x0,x0,0	  x0:0x00000000
       88895000	      8888	80005dec	05a6f663	bgeu	x13,x26,80005e38	 x13:0x00000000 x26:0x00000000
       88905000	      8889	00000000	00000013	addi	x0,x0,0	  x0:0x00000000
       88915000	      8890	80005e34	00000013	addi	x0,x0,0	  x0:0x00000000
       88925000	      8891	80005e38	6a31b293	sltiu	x5,x3,1699	  x3:0x00000001  x5=0x00000001
       88935000	      8892	80005e3c	e6427c93	andi	x25,x4,-412	  x4:0x00000001 x25=0x00000000
       88945000	      8893	80005e40	41948b33	sub	x22,x9,x25	  x9:0x2e340000 x25:0x00000000 x22=0x2e340000
       88955000	      8894	80005e44	01539833	sll	x16,x7,x21	  x7:0x80009f28 x21:0x00000000 x16=0x80009f28
       88965000	      8895	80005e48	010c5313	srli	x6,x24,0x10	 x24:0x00000000  x6=0x00000000
       88975000	      8896	80005e4c	00000013	addi	x0,x0,0	  x0:0x00000000
       88985000	      8897	80005e50	01ae1ab3	sll	x21,x28,x26	 x28:0x80009fc4 x26:0x00000000 x21=0x80009fc4
       88995000	      8898	80005e54	9e6acd93	xori	x27,x21,-1562	 x21:0x80009fc4 x27=0x7fff6622
       89005000	      8899	80005e58	01bb9a33	sll	x20,x23,x27	 x23:0x00000001 x27:0x7fff6622 x20=0x00000004
       89015000	      8900	80005e5c	4140d313	srai	x6,x1,0x14	  x1:0x00000001  x6=0x00000000
       89025000	      8901	80005e60	aeb5b193	sltiu	x3,x11,-1301	 x11:0xf4b6686d  x3=0x00000001
       89035000	      8902	80005e64	00000013	addi	x0,x0,0	  x0:0x00000000
       89045000	      8903	80005e68	01688ab3	add	x21,x17,x22	 x17:0x00000000 x22:0x2e340000 x21=0x2e340000
       89055000	      8904	80005e6c	04c3d263	bge	x7,x12,80005eb0	  x7:0x80009f28 x12:0x0b499794
       89065000	      8905	80005e70	001a4c63	blt	x20,x1,80005e88	 x20:0x00000004  x1:0x00000001
       89075000	      8906	80005e74	00dab2b3	sltu	x5,x21,x13	 x21:0x2e340000 x13:0x00000000  x5=0x00000000
       89085000	      8907	80005e78	64e66193	ori	x3,x12,1614	 x12:0x0b499794  x3=0x0b4997de
       89095000	      8908	80005e7c	40b9d093	srai	x1,x19,0xb	 x19:0x00000001  x1=0x00000000
       89105000	      8909	80005e80	03099663	bne	x19,x16,80005eac	 x19:0x00000001 x16:0x80009f28
       89115000	      8910	00000000	00000013	addi	x0,x0,0	  x0:0x00000000
       89125000	      8911	80005ea8	00000013	addi	x0,x0,0	  x0:0x00000000
       89135000	      8912	80005eac	015d9ab3	sll	x21,x27,x21	 x27:0x7fff6622 x21:0x2e340000 x21=0x7fff6622
       89145000	      8913	80005eb0	055dd663	bge	x27,x21,80005efc	 x27:0x7fff6622 x21:0x7fff6622
       89155000	      8914	00000000	00000013	addi	x0,x0,0	  x0:0x00000000
       89165000	      8915	80005ef8	00000013	addi	x0,x0,0	  x0:0x00000000
       89175000	      8916	80005efc	e2fb3417	auipc	x8,0xe2fb3	  x8=0x62fb8ef8
       89185000	      8917	80005f00	01d8c263	blt	x17,x29,80005f04	 x17:0x00000000 x29:0x00000000
       89195000	      8918	80005f04	00000013	addi	x0,x0,0	  x0:0x00000000
       89205000	      8919	80005f08	01e75993	srli	x19,x14,0x1e	 x14:0x00000000 x19=0x00000000
       89215000	      8920	80005f0c	00000013	addi	x0,x0,0	  x0:0x00000000
       89225000	      8921	80005f10	01a088b3	add	x17,x1,x26	  x1:0x00000000 x26:0x00000000 x17=0x00000000
       89235000	      8922	80005f14	011efab3	and	x21,x29,x17	 x29:0x00000000 x17:0x00000000 x21=0x00000000
       89245000	      8923	80005f18	000b1433	sll	x8,x22,x0	 x22:0x2e340000  x0:0x00000000  x8=0x2e340000
       89255000	      8924	80005f1c	41835a33	sra	x20,x6,x24	  x6:0x00000000 x24:0x00000000 x20=0x00000000
       89265000	      8925	80005f20	05fec693	xori	x13,x29,95	 x29:0x00000000 x13=0x0000005f
       89275000	      8926	80005f24	ff3ee513	ori	x10,x29,-13	 x29:0x00000000 x10=0xfffffff3
       89285000	      8927	80005f28	b616c693	xori	x13,x13,-1183	 x13:0x0000005f x13=0xfffffb3e
       89295000	      8928	80005f2c	00000013	addi	x0,x0,0	  x0:0x00000000
       89305000	      8929	80005f30	00ad9fb3	sll	x31,x27,x10	 x27:0x7fff6622 x10:0xfffffff3 x31=0x31100000
       89315000	      8930	80005f34	01cb4733	xor	x14,x22,x28	 x22:0x2e340000 x28:0x80009fc4 x14=0xae349fc4
       89325000	      8931	80005f38	416284b3	sub	x9,x5,x22	  x5:0x00000000 x22:0x2e340000  x9=0xd1cc0000
       89335000	      8932	80005f3c	0bcd3f17	auipc	x30,0xbcd3	 x30=0x8bcd8f38
       89345000	      8933	80005f40	0433f463	bgeu	x7,x3,80005f88	  x7:0x80009f28  x3:0x0b4997de
       89355000	      8934	00000000	00000013	addi	x0,x0,0	  x0:0x00000000
       89365000	      8935	80005f84	00000013	addi	x0,x0,0	  x0:0x00000000
       89375000	      8936	80005f88	0ee94893	xori	x17,x18,238	 x18:0x475a92a9 x17=0x475a9247
       89385000	      8937	80005f8c	003f1c63	bne	x30,x3,80005fa4	 x30:0x8bcd8f38  x3:0x0b4997de
       89395000	      8938	00000000	00000013	addi	x0,x0,0	  x0:0x00000000
       89405000	      8939	80005fa0	00000013	addi	x0,x0,0	  x0:0x00000000
       89415000	      8940	80005fa4	010b9693	slli	x13,x23,0x10	 x23:0x00000001 x13=0x00010000
       89425000	      8941	80005fa8	01d32bb3	slt	x23,x6,x29	  x6:0x00000000 x29:0x00000000 x23=0x00000000
       89435000	      8942	80005fac	bd3d4813	xori	x16,x26,-1069	 x26:0x00000000 x16=0xfffffbd3
       89445000	      8943	80005fb0	00000013	addi	x0,x0,0	  x0:0x00000000
       89455000	      8944	80005fb4	8fa7fb93	andi	x23,x15,-1798	 x15:0x00000000 x23=0x00000000
       89465000	      8945	80005fb8	481e3a13	sltiu	x20,x28,1153	 x28:0x80009fc4 x20=0x00000000
       89475000	      8946	80005fbc	501c6f13	ori	x30,x24,1281	 x24:0x00000000 x30=0x00000501
       89485000	      8947	80005fc0	997b3493	sltiu	x9,x22,-1641	 x22:0x2e340000  x9=0x00000001
       89495000	      8948	80005fc4	11521263	bne	x4,x21,800060c8	  x4:0x00000001 x21:0x00000000
       89505000	      8949	00000000	00000013	addi	x0,x0,0	  x0:0x00000000
       89515000	      8950	800060c4	00000013	addi	x0,x0,0	  x0:0x00000000
       89525000	      8951	800060c8	01192bb3	slt	x23,x18,x17	 x18:0x475a92a9 x17:0x475a9247 x23=0x00000000
       89535000	      8952	800060cc	01986a33	or	x20,x16,x25	 x16:0xfffffbd3 x25:0x00000000 x20=0xfffffbd3
       89545000	      8953	800060d0	08b60493	addi	x9,x12,139	 x12:0x0b499794  x9=0x0b49981f
       89555000	      8954	800060d4	00c85bb3	srl	x23,x16,x12	 x16:0xfffffbd3 x12:0x0b499794 x23=0x00000fff
       89565000	      8955	800060d8	0056e733	or	x14,x13,x5	 x13:0x00010000  x5:0x00000000 x14=0x00010000
       89575000	      8956	800060dc	01c6a1b3	slt	x3,x13,x28	 x13:0x00010000 x28:0x80009fc4  x3=0x00000000
       89585000	      8957	800060e0	009b7b33	and	x22,x22,x9	 x22:0x2e340000  x9:0x0b49981f x22=0x0a000000
       89595000	      8958	800060e4	01935263	bge	x6,x25,800060e8	  x6:0x00000000 x25:0x00000000
       89605000	      8959	00000000	00000013	addi	x0,x0,0	  x0:0x00000000
       89615000	      8960	800060e4	00000013	addi	x0,x0,0	  x0:0x00000000
       89625000	      8961	800060e8	01ec5c93	srli	x25,x24,0x1e	 x24:0x00000000 x25=0x00000000
       89635000	      8962	800060ec	02a15063	bge	x2,x10,8000610c	  x2:0x80008eb8 x10:0xfffffff3
       89645000	      8963	800060f0	00085893	srli	x17,x16,0x0	 x16:0xfffffbd3 x17=0xfffffbd3
       89655000	      8964	800060f4	00fc76b3	and	x13,x24,x15	 x24:0x00000000 x15:0x00000000 x13=0x00000000
       89665000	      8965	800060f8	b1618513	addi	x10,x3,-1258	  x3:0x00000000 x10=0xfffffb16
       89675000	      8966	800060fc	39410413	addi	x8,x2,916	  x2:0x80008eb8  x8=0x8000924c
       89685000	      8967	80006100	00788cb3	add	x25,x17,x7	 x17:0xfffffbd3  x7:0x80009f28 x25=0x80009afb
       89695000	      8968	80006104	018c59b3	srl	x19,x24,x24	 x24:0x00000000 x24:0x00000000 x19=0x00000000
       89705000	      8969	80006108	00276c63	bltu	x14,x2,80006120	 x14:0x00010000  x2:0x80008eb8
       89715000	      8970	00000000	00000013	addi	x0,x0,0	  x0:0x00000000
       89725000	      8971	8000611c	00000013	addi	x0,x0,0	  x0:0x00000000
       89735000	      8972	80006120	052a6063	bltu	x20,x18,80006160	 x20:0xfffffbd3 x18:0x475a92a9
       89745000	      8973	80006124	01e79993	slli	x19,x15,0x1e	 x15:0x00000000 x19=0x00000000
       89755000	      8974	80006128	01676133	or	x2,x14,x22	 x14:0x00010000 x22:0x0a000000  x2=0x0a010000
       89765000	      8975	8000612c	7d037513	andi	x10,x6,2000	  x6:0x00000000 x10=0x00000000
       89775000	      8976	80006130	00da94b3	sll	x9,x21,x13	 x21:0x00000000 x13:0x00000000  x9=0x00000000
       89785000	      8977	80006134	41f55ab3	sra	x21,x10,x31	 x10:0x00000000 x31:0x31100000 x21=0x00000000
       89795000	      8978	80006138	73206793	ori	x15,x0,1842	  x0:0x00000000 x15=0x00000732
       89805000	      8979	8000613c	02231463	bne	x6,x2,80006164	  x6:0x00000000  x2:0x0a010000
       89815000	      8980	00000000	00000013	addi	x0,x0,0	  x0:0x00000000
       89825000	      8981	80006160	00000013	addi	x0,x0,0	  x0:0x00000000
       89835000	      8982	80006164	00d39b13	slli	x22,x7,0xd	  x7:0x80009f28 x22=0x13e50000
       89845000	      8983	80006168	04a25463	bge	x4,x10,800061b0	  x4:0x00000001 x10:0x00000000
       89855000	      8984	00000000	00000013	addi	x0,x0,0	  x0:0x00000000
       89865000	      8985	800061ac	00000013	addi	x0,x0,0	  x0:0x00000000
       89875000	      8986	800061b0	03e08263	beq	x1,x30,800061d4	  x1:0x00000000 x30:0x00000501
       89885000	      8987	800061b4	4113da13	srai	x20,x7,0x11	  x7:0x80009f28 x20=0xffffc000
       89895000	      8988	800061b8	40fd0133	sub	x2,x26,x15	 x26:0x00000000 x15:0x00000732  x2=0xfffff8ce
       89905000	      8989	800061bc	014e37b3	sltu	x15,x28,x20	 x28:0x80009fc4 x20:0xffffc000 x15=0x00000001
       89915000	      8990	800061c0	f3732e93	slti	x29,x6,-201	  x6:0x00000000 x29=0x00000000
       89925000	      8991	800061c4	c1b0fe93	andi	x29,x1,-997	  x1:0x00000000 x29=0x00000000
       89935000	      8992	800061c8	00525263	bge	x4,x5,800061cc	  x4:0x00000001  x5:0x00000000
       89945000	      8993	00000000	00000013	addi	x0,x0,0	  x0:0x00000000
       89955000	      8994	800061c8	00000013	addi	x0,x0,0	  x0:0x00000000
       89965000	      8995	800061cc	00c54663	blt	x10,x12,800061d8	 x10:0x00000000 x12:0x0b499794
       89975000	      8996	00000000	00000013	addi	x0,x0,0	  x0:0x00000000
       89985000	      8997	800061d4	00000013	addi	x0,x0,0	  x0:0x00000000
       89995000	      8998	800061d8	3be30c17	auipc	x24,0x3be30	 x24=0xbbe361d4
       90005000	      8999	800061dc	03d48263	beq	x9,x29,80006200	  x9:0x00000000 x29:0x00000000
       90015000	      9000	00000000	00000013	addi	x0,x0,0	  x0:0x00000000
       90025000	      9001	800061fc	00000013	addi	x0,x0,0	  x0:0x00000000
       90035000	      9002	80006200	c1501317	auipc	x6,0xc1501	  x6=0x415071fc
       90045000	      9003	80006204	8d0afdb7	lui	x27,0x8d0af	 x27=0x8d0af000
       90055000	      9004	80006208	9ffde8b7	lui	x17,0x9ffde	 x17=0x9ffde000
       90065000	      9005	8000620c	00089263	bne	x17,x0,80006210	 x17:0x9ffde000  x0:0x00000000
       90075000	      9006	00000000	00000013	addi	x0,x0,0	  x0:0x00000000
       90085000	      9007	8000620c	00000013	addi	x0,x0,0	  x0:0x00000000
       90095000	      9008	80006210	b0163d93	sltiu	x27,x12,-1279	 x12:0x0b499794 x27=0x00000001
       90105000	      9009	80006214	006c79b3	and	x19,x24,x6	 x24:0xbbe361d4  x6:0x415071fc x19=0x014061d4
       90115000	      9010	80006218	7e92a993	slti	x19,x5,2025	  x5:0x00000000 x19=0x00000001
       90125000	      9011	8000621c	03afd263	bge	x31,x26,80006240	 x31:0x31100000 x26:0x00000000
       90135000	      9012	00000000	00000013	addi	x0,x0,0	  x0:0x00000000
       90145000	      9013	8000623c	00000013	addi	x0,x0,0	  x0:0x00000000
       90155000	      9014	80006240	d7a7c793	xori	x15,x15,-646	 x15:0x00000001 x15=0xfffffd7b
       90165000	      9015	80006244	40dc8233	sub	x4,x25,x13	 x25:0x80009afb x13:0x00000000  x4=0x80009afb
       90175000	      9016	80006248	4197d533	sra	x10,x15,x25	 x15:0xfffffd7b x25:0x80009afb x10=0xffffffff
       90185000	      9017	8000624c	017e6f33	or	x30,x28,x23	 x28:0x80009fc4 x23:0x00000fff x30=0x80009fff
       90195000	      9018	80006250	008b37b3	sltu	x15,x22,x8	 x22:0x13e50000  x8:0x8000924c x15=0x00000001
       90205000	      9019	80006254	01bfbdb3	sltu	x27,x31,x27	 x31:0x31100000 x27:0x00000001 x27=0x00000000
       90215000	      9020	80006258	00a85eb3	srl	x29,x16,x10	 x16:0xfffffbd3 x10:0xffffffff x29=0x00000001
       90225000	      9021	8000625c	00d3de63	bge	x7,x13,80006278	  x7:0x80009f28 x13:0x00000000
       90235000	      9022	80006260	01041893	slli	x17,x8,0x10	  x8:0x8000924c x17=0x924c0000
       90245000	      9023	80006264	003a9313	slli	x6,x21,0x3	 x21:0x00000000  x6=0x00000000
       90255000	      9024	80006268	05a8f863	bgeu	x17,x26,800062b8	 x17:0x924c0000 x26:0x00000000
       90265000	      9025	00000000	00000013	addi	x0,x0,0	  x0:0x00000000
       90275000	      9026	800062b4	00000013	addi	x0,x0,0	  x0:0x00000000
       90285000	      9027	800062b8	8a742493	slti	x9,x8,-1881	  x8:0x8000924c  x9=0x00000001
       90295000	      9028	800062bc	0291da63	bge	x3,x9,800062f0	  x3:0x00000000  x9:0x00000001
       90305000	      9029	800062c0	41250433	sub	x8,x10,x18	 x10:0xffffffff x18:0x475a92a9  x8=0xb8a56d56
       90315000	      9030	800062c4	00f5d7b3	srl	x15,x11,x15	 x11:0xf4b6686d x15:0x00000001 x15=0x7a5b3436
       90325000	      9031	800062c8	013b0a63	beq	x22,x19,800062dc	 x22:0x13e50000 x19:0x00000001
       90335000	      9032	800062cc	002f9b93	slli	x23,x31,0x2	 x31:0x31100000 x23=0xc4400000
       90345000	      9033	800062d0	40d45b33	sra	x22,x8,x13	  x8:0xb8a56d56 x13:0x00000000 x22=0xb8a56d56
       90355000	      9034	800062d4	187cd2b7	lui	x5,0x187cd	  x5=0x187cd000
       90365000	      9035	800062d8	eb4f0b93	addi	x23,x30,-332	 x30:0x80009fff x23=0x80009eb3
       90375000	      9036	800062dc	013eec63	bltu	x29,x19,800062f4	 x29:0x00000001 x19:0x00000001
       90385000	      9037	800062e0	0122f333	and	x6,x5,x18	  x5:0x187cd000 x18:0x475a92a9  x6=0x00589000
       90395000	      9038	800062e4	00000013	addi	x0,x0,0	  x0:0x00000000
       90405000	      9039	800062e8	9d5e3493	sltiu	x9,x28,-1579	 x28:0x80009fc4  x9=0x00000001
       90415000	      9040	800062ec	017094b3	sll	x9,x1,x23	  x1:0x00000000 x23:0x80009eb3  x9=0x00000000
       90425000	      9041	800062f0	40ca5693	srai	x13,x20,0xc	 x20:0xffffc000 x13=0xfffffffc
       90435000	      9042	800062f4	23986237	lui	x4,0x23986	  x4=0x23986000
       90445000	      9043	800062f8	00845b13	srli	x22,x8,0x8	  x8:0xb8a56d56 x22=0x00b8a56d
       90455000	      9044	800062fc	05e19863	bne	x3,x30,8000634c	  x3:0x00000000 x30:0x80009fff
       90465000	      9045	00000000	00000013	addi	x0,x0,0	  x0:0x00000000
       90475000	      9046	80006348	00000013	addi	x0,x0,0	  x0:0x00000000
       90485000	      9047	8000634c	4b4b6713	ori	x14,x22,1204	 x22:0x00b8a56d x14=0x00b8a5fd
       90495000	      9048	80006350	01138c63	beq	x7,x17,80006368	  x7:0x80009f28 x17:0x924c0000
       90505000	      9049	80006354	0194dd33	srl	x26,x9,x25	  x9:0x00000000 x25:0x80009afb x26=0x00000000
       90515000	      9050	80006358	2fcf2f13	slti	x30,x30,764	 x30:0x80009fff x30=0x00000001
       90525000	      9051	8000635c	41efd8b3	sra	x17,x31,x30	 x31:0x31100000 x30:0x00000001 x17=0x18880000
       90535000	      9052	80006360	404d51b3	sra	x3,x26,x4	 x26:0x00000000  x4:0x23986000  x3=0x00000000
       90545000	      9053	80006364	00efda13	srli	x20,x31,0xe	 x31:0x31100000 x20=0x0000c440
       90555000	      9054	80006368	01b92233	slt	x4,x18,x27	 x18:0x475a92a9 x27:0x00000000  x4=0x00000000
       90565000	      9055	8000636c	01e19263	bne	x3,x30,80006370	  x3:0x00000000 x30:0x00000001
       90575000	      9056	00000000	00000013	addi	x0,x0,0	  x0:0x00000000
       90585000	      9057	8000636c	00000013	addi	x0,x0,0	  x0:0x00000000
       90595000	      9058	80006370	00409f33	sll	x30,x1,x4	  x1:0x00000000  x4:0x00000000 x30=0x00000000
       90605000	      9059	80006374	5dd9bb13	sltiu	x22,x19,1501	 x19:0x00000001 x22=0x00000001
       90615000	      9060	80006378	019148b3	xor	x17,x2,x25	  x2:0xfffff8ce x25:0x80009afb x17=0x7fff6235
       90625000	      9061	8000637c	00b1e833	or	x16,x3,x11	  x3:0x00000000 x11:0xf4b6686d x16=0xf4b6686d
       90635000	      9062	80006380	031f4863	blt	x30,x17,800063b0	 x30:0x00000000 x17:0x7fff6235
       90645000	      9063	00000000	00000013	addi	x0,x0,0	  x0:0x00000000
       90655000	      9064	800063ac	00000013	addi	x0,x0,0	  x0:0x00000000
       90665000	      9065	800063b0	1e674d93	xori	x27,x14,486	 x14:0x00b8a5fd x27=0x00b8a41b
       90675000	      9066	800063b4	a1e07217	auipc	x4,0xa1e07	  x4=0x21e0d3b0
       90685000	      9067	800063b8	003e4333	xor	x6,x28,x3	 x28:0x80009fc4  x3:0x00000000  x6=0x80009fc4
       90695000	      9068	800063bc	07b06293	ori	x5,x0,123	  x0:0x00000000  x5=0x0000007b
       90705000	      9069	800063c0	4029d2b3	sra	x5,x19,x2	 x19:0x00000001  x2:0xfffff8ce  x5=0x00000000
       90715000	      9070	800063c4	41635d93	srai	x27,x6,0x16	  x6:0x80009fc4 x27=0xfffffe00
       90725000	      9071	800063c8	41c1d713	srai	x14,x3,0x1c	  x3:0x00000000 x14=0x00000000
       90735000	      9072	800063cc	05206063	bltu	x0,x18,8000640c	  x0:0x00000000 x18:0x475a92a9
       90745000	      9073	00000000	00000013	addi	x0,x0,0	  x0:0x00000000
       90755000	      9074	80006408	00000013	addi	x0,x0,0	  x0:0x00000000
       90765000	      9075	8000640c	009ef8b3	and	x17,x29,x9	 x29:0x00000001  x9:0x00000000 x17=0x00000000
       90775000	      9076	80006410	01327b33	and	x22,x4,x19	  x4:0x21e0d3b0 x19:0x00000001 x22=0x00000000
       90785000	      9077	80006414	01345313	srli	x6,x8,0x13	  x8:0xb8a56d56  x6=0x00001714
       90795000	      9078	80006418	00000013	addi	x0,x0,0	  x0:0x00000000
       90805000	      9079	8000641c	7e563a93	sltiu	x21,x12,2021	 x12:0x0b499794 x21=0x00000000
       90815000	      9080	80006420	441e8513	addi	x10,x29,1089	 x29:0x00000001 x10=0x00000442
       90825000	      9081	80006424	f3a996b7	lui	x13,0xf3a99	 x13=0xf3a99000
       90835000	      9082	80006428	01335333	srl	x6,x6,x19	  x6:0x00001714 x19:0x00000001  x6=0x00000b8a
       90845000	      9083	8000642c	00619fb3	sll	x31,x3,x6	  x3:0x00000000  x6:0x00000b8a x31=0x00000000
       90855000	      9084	80006430	035be663	bltu	x23,x21,8000645c	 x23:0x80009eb3 x21:0x00000000
       90865000	      9085	80006434	00b4dd33	srl	x26,x9,x11	  x9:0x00000000 x11:0xf4b6686d x26=0x00000000
       90875000	      9086	80006438	01b4e733	or	x14,x9,x27	  x9:0x00000000 x27:0xfffffe00 x14=0xfffffe00
       90885000	      9087	8000643c	00000013	addi	x0,x0,0	  x0:0x00000000
       90895000	      9088	80006440	01a171b3	and	x3,x2,x26	  x2:0xfffff8ce x26:0x00000000  x3=0x00000000
       90905000	      9089	80006444	03f0d463	bge	x1,x31,8000646c	  x1:0x00000000 x31:0x00000000
       90915000	      9090	00000000	00000013	addi	x0,x0,0	  x0:0x00000000
       90925000	      9091	80006468	00000013	addi	x0,x0,0	  x0:0x00000000
       90935000	      9092	8000646c	ed88b893	sltiu	x17,x17,-296	 x17:0x00000000 x17=0x00000001
       90945000	      9093	80006470	03b87663	bgeu	x16,x27,8000649c	 x16:0xf4b6686d x27:0xfffffe00
       90955000	      9094	80006474	c5eb2193	slti	x3,x22,-930	 x22:0x00000000  x3=0x00000000
       90965000	      9095	80006478	4093d813	srai	x16,x7,0x9	  x7:0x80009f28 x16=0xffc0004f
       90975000	      9096	8000647c	41615833	sra	x16,x2,x22	  x2:0xfffff8ce x22:0x00000000 x16=0xfffff8ce
       90985000	      9097	80006480	c35d7693	andi	x13,x26,-971	 x26:0x00000000 x13=0x00000000
       90995000	      9098	80006484	00ee0333	add	x6,x28,x14	 x28:0x80009fc4 x14:0xfffffe00  x6=0x80009dc4
       91005000	      9099	80006488	00000013	addi	x0,x0,0	  x0:0x00000000
       91015000	      9100	8000648c	019d1c63	bne	x26,x25,800064a4	 x26:0x00000000 x25:0x80009afb
       91025000	      9101	00000000	00000013	addi	x0,x0,0	  x0:0x00000000
       91035000	      9102	800064a0	00000013	addi	x0,x0,0	  x0:0x00000000
       91045000	      9103	800064a4	cbfa0793	addi	x15,x20,-833	 x20:0x0000c440 x15=0x0000c0ff
       91055000	      9104	800064a8	2df72d93	slti	x27,x14,735	 x14:0xfffffe00 x27=0x00000001
       91065000	      9105	800064ac	377cff93	andi	x31,x25,887	 x25:0x80009afb x31=0x00000273
       91075000	      9106	800064b0	a2a83093	sltiu	x1,x16,-1494	 x16:0xfffff8ce  x1=0x00000001
       91085000	      9107	800064b4	0087ca63	blt	x15,x8,800064c8	 x15:0x0000c0ff  x8:0xb8a56d56
       91095000	      9108	800064b8	011c1d33	sll	x26,x24,x17	 x24:0xbbe361d4 x17:0x00000001 x26=0x77c6c3a8
       91105000	      9109	800064bc	405adc13	srai	x24,x21,0x5	 x21:0x00000000 x24=0x00000000
       91115000	      9110	800064c0	01043eb3	sltu	x29,x8,x16	  x8:0xb8a56d56 x16:0xfffff8ce x29=0x00000001
       91125000	      9111	800064c4	0161b433	sltu	x8,x3,x22	  x3:0x00000000 x22:0x00000000  x8=0x00000000
       91135000	      9112	800064c8	016ff8b3	and	x17,x31,x22	 x31:0x00000273 x22:0x00000000 x17=0x00000000
       91145000	      9113	800064cc	0105d663	bge	x11,x16,800064d8	 x11:0xf4b6686d x16:0xfffff8ce
       91155000	      9114	800064d0	03c29a63	bne	x5,x28,80006504	  x5:0x00000000 x28:0x80009fc4
       91165000	      9115	00000000	00000013	addi	x0,x0,0	  x0:0x00000000
       91175000	      9116	80006500	00000013	addi	x0,x0,0	  x0:0x00000000
       91185000	      9117	80006504	5fe47513	andi	x10,x8,1534	  x8:0x00000000 x10=0x00000000
       91195000	      9118	80006508	00000013	addi	x0,x0,0	  x0:0x00000000
       91205000	      9119	8000650c	0303d263	bge	x7,x16,80006530	  x7:0x80009f28 x16:0xfffff8ce
       91215000	      9120	80006510	00793a33	sltu	x20,x18,x7	 x18:0x475a92a9  x7:0x80009f28 x20=0x00000001
       91225000	      9121	80006514	759a8793	addi	x15,x21,1881	 x21:0x00000000 x15=0x00000759
       91235000	      9122	80006518	dcfa3b17	auipc	x22,0xdcfa3	 x22=0x5cfa9514
       91245000	      9123	8000651c	8a8c6c13	ori	x24,x24,-1880	 x24:0x00000000 x24=0xfffff8a8
       91255000	      9124	80006520	00000013	addi	x0,x0,0	  x0:0x00000000
       91265000	      9125	80006524	40e5deb3	sra	x29,x11,x14	 x11:0xf4b6686d x14:0xfffffe00 x29=0xf4b6686d
       91275000	      9126	80006528	03f47063	bgeu	x8,x31,80006548	  x8:0x00000000 x31:0x00000273
       91285000	      9127	8000652c	0303f063	bgeu	x7,x16,8000654c	  x7:0x80009f28 x16:0xfffff8ce
       91295000	      9128	80006530	da2ec893	xori	x17,x29,-606	 x29:0xf4b6686d x17=0x0b4995cf
       91305000	      9129	80006534	01623db3	sltu	x27,x4,x22	  x4:0x21e0d3b0 x22:0x5cfa9514 x27=0x00000001
       91315000	      9130	80006538	40438f33	sub	x30,x7,x4	  x7:0x80009f28  x4:0x21e0d3b0 x30=0x5e1fcb78
       91325000	      9131	8000653c	05f67263	bgeu	x12,x31,80006580	 x12:0x0b499794 x31:0x00000273
       91335000	      9132	00000000	00000013	addi	x0,x0,0	  x0:0x00000000
       91345000	      9133	8000657c	00000013	addi	x0,x0,0	  x0:0x00000000
       91355000	      9134	80006580	856ec893	xori	x17,x29,-1962	 x29:0xf4b6686d x17=0x0b49903b
       91365000	      9135	80006584	411707b3	sub	x15,x14,x17	 x14:0xfffffe00 x17:0x0b49903b x15=0xf4b66dc5
       91375000	      9136	80006588	00814c63	blt	x2,x8,800065a0	  x2:0xfffff8ce  x8:0x00000000
       91385000	      9137	00000000	00000013	addi	x0,x0,0	  x0:0x00000000
       91395000	      9138	8000659c	00000013	addi	x0,x0,0	  x0:0x00000000
       91405000	      9139	800065a0	01eacf93	xori	x31,x21,30	 x21:0x00000000 x31=0x0000001e
       91415000	      9140	800065a4	0036f733	and	x14,x13,x3	 x13:0x00000000  x3:0x00000000 x14=0x00000000
       91425000	      9141	800065a8	4f323437	lui	x8,0x4f323	  x8=0x4f323000
       91435000	      9142	800065ac	01ea5993	srli	x19,x20,0x1e	 x20:0x00000001 x19=0x00000000
       91445000	      9143	800065b0	01bd0a63	beq	x26,x27,800065c4	 x26:0x77c6c3a8 x27:0x00000001
       91455000	      9144	800065b4	412bd133	sra	x2,x23,x18	 x23:0x80009eb3 x18:0x475a92a9  x2=0xffc0004f
       91465000	      9145	800065b8	004c1213	slli	x4,x24,0x4	 x24:0xfffff8a8  x4=0xffff8a80
       91475000	      9146	800065bc	00519b93	slli	x23,x3,0x5	  x3:0x00000000 x23=0x00000000
       91485000	      9147	800065c0	3bf277b7	lui	x15,0x3bf27	 x15=0x3bf27000
       91495000	      9148	800065c4	00000013	addi	x0,x0,0	  x0:0x00000000
       91505000	      9149	800065c8	00000013	addi	x0,x0,0	  x0:0x00000000
       91515000	      9150	800065cc	055ae063	bltu	x21,x21,8000660c	 x21:0x00000000 x21:0x00000000
       91525000	      9151	800065d0	7a402413	slti	x8,x0,1956	  x0:0x00000000  x8=0x00000001
       91535000	      9152	800065d4	36746f93	ori	x31,x8,871	  x8:0x00000001 x31=0x00000367
       91545000	      9153	800065d8	00e36833	or	x16,x6,x14	  x6:0x80009dc4 x14:0x00000000 x16=0x80009dc4
       91555000	      9154	800065dc	01cbc6b3	xor	x13,x23,x28	 x23:0x00000000 x28:0x80009fc4 x13=0x80009fc4
       91565000	      9155	800065e0	01889f93	slli	x31,x17,0x18	 x17:0x0b49903b x31=0x3b000000
       91575000	      9156	800065e4	282b2d17	auipc	x26,0x282b2	 x26=0xa82b85e0
       91585000	      9157	800065e8	0142aa33	slt	x20,x5,x20	  x5:0x00000000 x20:0x00000001 x20=0x00000001
       91595000	      9158	800065ec	01a79b33	sll	x22,x15,x26	 x15:0x3bf27000 x26:0xa82b85e0 x22=0x3bf27000
       91605000	      9159	800065f0	00d7e1b3	or	x3,x15,x13	 x15:0x3bf27000 x13:0x80009fc4  x3=0xbbf2ffc4
       91615000	      9160	800065f4	018fe263	bltu	x31,x24,800065f8	 x31:0x3b000000 x24:0xfffff8a8
       91625000	      9161	00000000	00000013	addi	x0,x0,0	  x0:0x00000000
       91635000	      9162	800065f4	00000013	addi	x0,x0,0	  x0:0x00000000
       91645000	      9163	800065f8	00000013	addi	x0,x0,0	  x0:0x00000000
       91655000	      9164	800065fc	412bdbb3	sra	x23,x23,x18	 x23:0x00000000 x18:0x475a92a9 x23=0x00000000
       91665000	      9165	80006600	018c0cb3	add	x25,x24,x24	 x24:0xfffff8a8 x24:0xfffff8a8 x25=0xfffff150
       91675000	      9166	80006604	016465b3	or	x11,x8,x22	  x8:0x00000001 x22:0x3bf27000 x11=0x3bf27001
       91685000	      9167	80006608	a4230413	addi	x8,x6,-1470	  x6:0x80009dc4  x8=0x80009806
       91695000	      9168	8000660c	409ade93	srai	x29,x21,0x9	 x21:0x00000000 x29=0x00000000
       91705000	      9169	80006610	726fb413	sltiu	x8,x31,1830	 x31:0x3b000000  x8=0x00000000
       91715000	      9170	80006614	00aad213	srli	x4,x21,0xa	 x21:0x00000000  x4=0x00000000
       91725000	      9171	80006618	f7a4e193	ori	x3,x9,-134	  x9:0x00000000  x3=0xffffff7a
       91735000	      9172	8000661c	00000013	addi	x0,x0,0	  x0:0x00000000
       91745000	      9173	80006620	3dbab193	sltiu	x3,x21,987	 x21:0x00000000  x3=0x00000001
       91755000	      9174	80006624	044fe663	bltu	x31,x4,80006670	 x31:0x3b000000  x4:0x00000000
       91765000	      9175	80006628	05178863	beq	x15,x17,80006678	 x15:0x3bf27000 x17:0x0b49903b
       91775000	      9176	8000662c	6c848a13	addi	x20,x9,1736	  x9:0x00000000 x20=0x000006c8
       91785000	      9177	80006630	40075693	srai	x13,x14,0x0	 x14:0x00000000 x13=0x00000000
       91795000	      9178	80006634	9a040897	auipc	x17,0x9a040	 x17=0x1a046630
       91805000	      9179	80006638	00c99db3	sll	x27,x19,x12	 x19:0x00000000 x12:0x0b499794 x27=0x00000000
       91815000	      9180	8000663c	4050d1b3	sra	x3,x1,x5	  x1:0x00000001  x5:0x00000000  x3=0x00000001
       91825000	      9181	80006640	00dff533	and	x10,x31,x13	 x31:0x3b000000 x13:0x00000000 x10=0x00000000
       91835000	      9182	80006644	01bf5c63	bge	x30,x27,8000665c	 x30:0x5e1fcb78 x27:0x00000000
       91845000	      9183	00000000	00000013	addi	x0,x0,0	  x0:0x00000000
       91855000	      9184	80006658	00000013	addi	x0,x0,0	  x0:0x00000000
       91865000	      9185	8000665c	02b75263	bge	x14,x11,80006680	 x14:0x00000000 x11:0x3bf27001
       91875000	      9186	80006660	5f44a313	slti	x6,x9,1524	  x9:0x00000000  x6=0x00000001
       91885000	      9187	80006664	40d2d633	sra	x12,x5,x13	  x5:0x00000000 x13:0x00000000 x12=0x00000000
       91895000	      9188	80006668	b4132197	auipc	x3,0xb4132	  x3=0x34138664
       91905000	      9189	8000666c	00423c33	sltu	x24,x4,x4	  x4:0x00000000  x4:0x00000000 x24=0x00000000
       91915000	      9190	80006670	01039513	slli	x10,x7,0x10	  x7:0x80009f28 x10=0x9f280000
       91925000	      9191	80006674	070fe593	ori	x11,x31,112	 x31:0x3b000000 x11=0x3b000070
       91935000	      9192	80006678	40e65d93	srai	x27,x12,0xe	 x12:0x00000000 x27=0x00000000
       91945000	      9193	8000667c	8e85e493	ori	x9,x11,-1816	 x11:0x3b000070  x9=0xfffff8f8
       91955000	      9194	80006680	006edeb3	srl	x29,x29,x6	 x29:0x00000000  x6:0x00000001 x29=0x00000000
       91965000	      9195	80006684	a302a713	slti	x14,x5,-1488	  x5:0x00000000 x14=0x00000000
       91975000	      9196	80006688	79c5a417	auipc	x8,0x79c5a	  x8=0xf9c60684
       91985000	      9197	8000668c	00af8c33	add	x24,x31,x10	 x31:0x3b000000 x10:0x9f280000 x24=0xda280000
       91995000	      9198	80006690	39657693	andi	x13,x10,918	 x10:0x9f280000 x13=0x00000000
       92005000	      9199	80006694	0191ca63	blt	x3,x25,800066a8	  x3:0x34138664 x25:0xfffff150
       92015000	      9200	80006698	b95dcd93	xori	x27,x27,-1131	 x27:0x00000000 x27=0xfffffb95
       92025000	      9201	8000669c	70a5a493	slti	x9,x11,1802	 x11:0x3b000070  x9=0x00000000
       92035000	      9202	800066a0	cd2afb93	andi	x23,x21,-814	 x21:0x00000000 x23=0x00000000
       92045000	      9203	800066a4	00ee5f33	srl	x30,x28,x14	 x28:0x80009fc4 x14:0x00000000 x30=0x80009fc4
       92055000	      9204	800066a8	01471663	bne	x14,x20,800066b4	 x14:0x00000000 x20:0x000006c8
       92065000	      9205	00000000	00000013	addi	x0,x0,0	  x0:0x00000000
       92075000	      9206	800066b0	00000013	addi	x0,x0,0	  x0:0x00000000
       92085000	      9207	800066b4	019ebfb3	sltu	x31,x29,x25	 x29:0x00000000 x25:0xfffff150 x31=0x00000001
       92095000	      9208	800066b8	058f4863	blt	x30,x24,80006708	 x30:0x80009fc4 x24:0xda280000
       92105000	      9209	00000000	00000013	addi	x0,x0,0	  x0:0x00000000
       92115000	      9210	80006704	00000013	addi	x0,x0,0	  x0:0x00000000
       92125000	      9211	80006708	003a5a13	srli	x20,x20,0x3	 x20:0x000006c8 x20=0x000000d9
       92135000	      9212	8000670c	008c6c63	bltu	x24,x8,80006724	 x24:0xda280000  x8:0xf9c60684
       92145000	      9213	00000000	00000013	addi	x0,x0,0	  x0:0x00000000
       92155000	      9214	80006720	00000013	addi	x0,x0,0	  x0:0x00000000
       92165000	      9215	80006724	0110b7b3	sltu	x15,x1,x17	  x1:0x00000001 x17:0x1a046630 x15=0x00000001
       92175000	      9216	80006728	996ec513	xori	x10,x29,-1642	 x29:0x00000000 x10=0xfffff996
       92185000	      9217	8000672c	0043a183	lw	x3,4(x7)	  x7:0x80009f28  x3=0x800069b4 PA:0x80009f2c
       92195000	      9218	80006730	4077db93	srai	x23,x15,0x7	 x15:0x00000001 x23=0x00000000
       92205000	      9219	80006734	00c61493	slli	x9,x12,0xc	 x12:0x00000000  x9=0x00000000
       92215000	      9220	80006738	03038393	addi	x7,x7,48	  x7:0x80009f28  x7=0x80009f58
       92225000	      9221	8000673c	41b35f33	sra	x30,x6,x27	  x6:0x00000001 x27:0xfffffb95 x30=0x00000000
       92235000	      9222	80006740	00118493	addi	x9,x3,1	  x3:0x800069b4  x9=0x800069b5
       92245000	      9223	80006744	000484e7	jalr	x9,x9,0	  x9:0x800069b5  x9=0x80006744
       92255000	      9224	00000000	00000013	addi	x0,x0,0	  x0:0x00000000
       92265000	      9225	800069b4	00000013	addi	x0,x0,0	  x0:0x00000000
       92275000	      9226	800069b8	3be5dab7	lui	x21,0x3be5d	 x21=0x3be5d000
       92285000	      9227	800069bc	8cca0197	auipc	x3,0x8cca0	  x3=0x0cca69b8
       92295000	      9228	800069c0	01c5adb3	slt	x27,x11,x28	 x11:0x3b000070 x28:0x80009fc4 x27=0x00000000
       92305000	      9229	800069c4	b26dc897	auipc	x17,0xb26dc	 x17=0x326e29c0
       92315000	      9230	800069c8	01a5e463	bltu	x11,x26,800069d0	 x11:0x3b000070 x26:0xa82b85e0
       92325000	      9231	00000000	00000013	addi	x0,x0,0	  x0:0x00000000
       92335000	      9232	800069cc	00000013	addi	x0,x0,0	  x0:0x00000000
       92345000	      9233	800069d0	d79ff1ef	jal	x3,800069d0	  x3=0x800069d0
       92355000	      9234	00000000	00000013	addi	x0,x0,0	  x0:0x00000000
       92365000	      9235	80006744	00000013	addi	x0,x0,0	  x0:0x00000000
       92375000	      9236	80006748	01c75863	bge	x14,x28,80006758	 x14:0x00000000 x28:0x80009fc4
       92385000	      9237	00000000	00000013	addi	x0,x0,0	  x0:0x00000000
       92395000	      9238	80006754	00000013	addi	x0,x0,0	  x0:0x00000000
       92405000	      9239	80006758	ff038393	addi	x7,x7,-16	  x7:0x80009f58  x7=0x80009f48
       92415000	      9240	8000675c	00cfa733	slt	x14,x31,x12	 x31:0x00000001 x12:0x00000000 x14=0x00000000
       92425000	      9241	80006760	0033a223	sw	x3,4(x7)	  x7:0x80009f48  x3:0x800069d0 PA:0x80009f4c
       92435000	      9242	80006764	dad50b93	addi	x23,x10,-595	 x10:0xfffff996 x23=0xfffff743
       92445000	      9243	80006768	0101d293	srli	x5,x3,0x10	  x3:0x800069d0  x5=0x00008000
       92455000	      9244	8000676c	00393cb3	sltu	x25,x18,x3	 x18:0x475a92a9  x3:0x800069d0 x25=0x00000001
       92465000	      9245	80006770	eb8b6d93	ori	x27,x22,-328	 x22:0x3bf27000 x27=0xfffffeb8
       92475000	      9246	80006774	0206d463	bge	x13,x0,8000679c	 x13:0x00000000  x0:0x00000000
       92485000	      9247	00000000	00000013	addi	x0,x0,0	  x0:0x00000000
       92495000	      9248	80006798	00000013	addi	x0,x0,0	  x0:0x00000000
       92505000	      9249	8000679c	00e5d293	srli	x5,x11,0xe	 x11:0x3b000070  x5=0x0000ec00
       92515000	      9250	800067a0	00c28263	beq	x5,x12,800067a4	  x5:0x0000ec00 x12:0x00000000
       92525000	      9251	800067a4	40185a93	srai	x21,x16,0x1	 x16:0x80009dc4 x21=0xc0004ee2
       92535000	      9252	800067a8	d14d7713	andi	x14,x26,-748	 x26:0xa82b85e0 x14=0xa82b8500
       92545000	      9253	800067ac	03b35463	bge	x6,x27,800067d4	  x6:0x00000001 x27:0xfffffeb8
       92555000	      9254	00000000	00000013	addi	x0,x0,0	  x0:0x00000000
       92565000	      9255	800067d0	00000013	addi	x0,x0,0	  x0:0x00000000
       92575000	      9256	800067d4	02509a63	bne	x1,x5,80006808	  x1:0x00000001  x5:0x0000ec00
       92585000	      9257	00000000	00000013	addi	x0,x0,0	  x0:0x00000000
       92595000	      9258	80006804	00000013	addi	x0,x0,0	  x0:0x00000000
       92605000	      9259	80006808	767bcd13	xori	x26,x23,1895	 x23:0xfffff743 x26=0xfffff024
       92615000	      9260	8000680c	c7ac8837	lui	x16,0xc7ac8	 x16=0xc7ac8000
       92625000	      9261	80006810	0175d533	srl	x10,x11,x23	 x11:0x3b000070 x23:0xfffff743 x10=0x0760000e
       92635000	      9262	80006814	00000013	addi	x0,x0,0	  x0:0x00000000
       92645000	      9263	80006818	40515093	srai	x1,x2,0x5	  x2:0xffc0004f  x1=0xfffe0002
       92655000	      9264	8000681c	00201733	sll	x14,x0,x2	  x0:0x00000000  x2:0xffc0004f x14=0x00000000
       92665000	      9265	80006820	052b5063	bge	x22,x18,80006860	 x22:0x3bf27000 x18:0x475a92a9
       92675000	      9266	80006824	005f3b33	sltu	x22,x30,x5	 x30:0x00000000  x5:0x0000ec00 x22=0x00000001
       92685000	      9267	80006828	b6daaa17	auipc	x20,0xb6daa	 x20=0x36db0824
       92695000	      9268	8000682c	f78fc093	xori	x1,x31,-136	 x31:0x00000001  x1=0xffffff79
       92705000	      9269	80006830	0000dc33	srl	x24,x1,x0	  x1:0xffffff79  x0:0x00000000 x24=0xffffff79
       92715000	      9270	80006834	01f04f33	xor	x30,x0,x31	  x0:0x00000000 x31:0x00000001 x30=0x00000001
       92725000	      9271	80006838	769a6993	ori	x19,x20,1897	 x20:0x36db0824 x19=0x36db0f6d
       92735000	      9272	8000683c	405558b3	sra	x17,x10,x5	 x10:0x0760000e  x5:0x0000ec00 x17=0x0760000e
       92745000	      9273	80006840	c9ceb613	sltiu	x12,x29,-868	 x29:0x00000000 x12=0x00000001
       92755000	      9274	80006844	018852b3	srl	x5,x16,x24	 x16:0xc7ac8000 x24:0xffffff79  x5=0x00000063
       92765000	      9275	80006848	01335263	bge	x6,x19,8000684c	  x6:0x00000001 x19:0x36db0f6d
       92775000	      9276	8000684c	00100633	add	x12,x0,x1	  x0:0x00000000  x1:0xffffff79 x12=0xffffff79
       92785000	      9277	80006850	01a78d33	add	x26,x15,x26	 x15:0x00000001 x26:0xfffff024 x26=0xfffff025
       92795000	      9278	80006854	7a9ded17	auipc	x26,0x7a9de	 x26=0xfa9e4850
       92805000	      9279	80006858	01425ab3	srl	x21,x4,x20	  x4:0x00000000 x20:0x36db0824 x21=0x00000000
       92815000	      9280	8000685c	41b9d5b3	sra	x11,x19,x27	 x19:0x36db0f6d x27:0xfffffeb8 x11=0x00000036
       92825000	      9281	80006860	41b4d193	srai	x3,x9,0x1b	  x9:0x80006744  x3=0xfffffff0
       92835000	      9282	80006864	04665463	bge	x12,x6,800068ac	 x12:0xffffff79  x6:0x00000001
       92845000	      9283	80006868	41288133	sub	x2,x17,x18	 x17:0x0760000e x18:0x475a92a9  x2=0xc0056d65
       92855000	      9284	8000686c	9cd9b813	sltiu	x16,x19,-1587	 x19:0x36db0f6d x16=0x00000001
       92865000	      9285	80006870	0095feb3	and	x29,x11,x9	 x11:0x00000036  x9:0x80006744 x29=0x00000004
       92875000	      9286	80006874	bb78c1b7	lui	x3,0xbb78c	  x3=0xbb78c000
       92885000	      9287	80006878	0138edb3	or	x27,x17,x19	 x17:0x0760000e x19:0x36db0f6d x27=0x37fb0f6f
       92895000	      9288	8000687c	9f6b7793	andi	x15,x22,-1546	 x22:0x00000001 x15=0x00000000
       92905000	      9289	80006880	00859213	slli	x4,x11,0x8	 x11:0x00000036  x4=0x00003600
       92915000	      9290	80006884	0300c063	blt	x1,x16,800068a4	  x1:0xffffff79 x16:0x00000001
       92925000	      9291	00000000	00000013	addi	x0,x0,0	  x0:0x00000000
       92935000	      9292	800068a0	00000013	addi	x0,x0,0	  x0:0x00000000
       92945000	      9293	800068a4	410ba893	slti	x17,x23,1040	 x23:0xfffff743 x17=0x00000001
       92955000	      9294	800068a8	149e4c13	xori	x24,x28,329	 x28:0x80009fc4 x24=0x80009e8d
       92965000	      9295	800068ac	01163b33	sltu	x22,x12,x17	 x12:0xffffff79 x17:0x00000001 x22=0x00000000
       92975000	      9296	800068b0	013f3713	sltiu	x14,x30,19	 x30:0x00000001 x14=0x00000001
       92985000	      9297	800068b4	0082fbb3	and	x23,x5,x8	  x5:0x00000063  x8:0xf9c60684 x23=0x00000000
       92995000	      9298	800068b8	01bc6833	or	x16,x24,x27	 x24:0x80009e8d x27:0x37fb0f6f x16=0xb7fb9fef
       93005000	      9299	800068bc	03454a63	blt	x10,x20,800068f0	 x10:0x0760000e x20:0x36db0824
       93015000	      9300	00000000	00000013	addi	x0,x0,0	  x0:0x00000000
       93025000	      9301	800068ec	00000013	addi	x0,x0,0	  x0:0x00000000
       93035000	      9302	800068f0	005d7863	bgeu	x26,x5,80006900	 x26:0xfa9e4850  x5:0x00000063
       93045000	      9303	00000000	00000013	addi	x0,x0,0	  x0:0x00000000
       93055000	      9304	800068fc	00000013	addi	x0,x0,0	  x0:0x00000000
       93065000	      9305	80006900	7584fd93	andi	x27,x9,1880	  x9:0x80006744 x27=0x00000740
       93075000	      9306	80006904	041f6263	bltu	x30,x1,80006948	 x30:0x00000001  x1:0xffffff79
       93085000	      9307	00000000	00000013	addi	x0,x0,0	  x0:0x00000000
       93095000	      9308	80006944	00000013	addi	x0,x0,0	  x0:0x00000000
       93105000	      9309	80006948	00f48d33	add	x26,x9,x15	  x9:0x80006744 x15:0x00000000 x26=0x80006744
       93115000	      9310	8000694c	01eb2ab3	slt	x21,x22,x30	 x22:0x00000000 x30:0x00000001 x21=0x00000001
       93125000	      9311	80006950	01b902b3	add	x5,x18,x27	 x18:0x475a92a9 x27:0x00000740  x5=0x475a99e9
       93135000	      9312	80006954	43ea6d97	auipc	x27,0x43ea6	 x27=0xc3eac950
       93145000	      9313	80006958	9fa83513	sltiu	x10,x16,-1542	 x16:0xb7fb9fef x10=0x00000001
       93155000	      9314	8000695c	095a3693	sltiu	x13,x20,149	 x20:0x36db0824 x13=0x00000000
       93165000	      9315	80006960	0043a183	lw	x3,4(x7)	  x7:0x80009f48  x3=0x800069d0 PA:0x80009f4c
       93175000	      9316	80006964	012c6c33	or	x24,x24,x18	 x24:0x80009e8d x18:0x475a92a9 x24=0xc75a9ead
       93185000	      9317	80006968	01038393	addi	x7,x7,16	  x7:0x80009f48  x7=0x80009f58
       93195000	      9318	8000696c	00d9d0b3	srl	x1,x19,x13	 x19:0x36db0f6d x13:0x00000000  x1=0x36db0f6d
       93205000	      9319	80006970	00118193	addi	x3,x3,1	  x3:0x800069d0  x3=0x800069d1
       93215000	      9320	80006974	000181e7	jalr	x3,x3,0	  x3:0x800069d1  x3=0x80006974
       93225000	      9321	00000000	00000013	addi	x0,x0,0	  x0:0x00000000
       93235000	      9322	800069d0	00000013	addi	x0,x0,0	  x0:0x00000000
       93245000	      9323	800069d4	deb95d97	auipc	x27,0xdeb95	 x27=0x5eb9b9d0
       93255000	      9324	800069d8	01ab6b33	or	x22,x22,x26	 x22:0x00000000 x26:0x80006744 x22=0x80006744
       93265000	      9325	800069dc	27da7c17	auipc	x24,0x27da7	 x24=0xa7dad9d8
       93275000	      9326	800069e0	98c2c813	xori	x16,x5,-1652	  x5:0x475a99e9 x16=0xb8a56065
       93285000	      9327	800069e4	00000697	auipc	x13,0x0	 x13=0x800069e0
       93295000	      9328	800069e8	d6468693	addi	x13,x13,-668	 x13:0x800069e0 x13=0x80006744
       93305000	      9329	800069ec	17268693	addi	x13,x13,370	 x13:0x80006744 x13=0x800068b6
       93315000	      9330	800069f0	002d3cb3	sltu	x25,x26,x2	 x26:0x80006744  x2:0xc0056d65 x25=0x00000001
       93325000	      9331	800069f4	e8e681e7	jalr	x3,x13,-370	 x13:0x800068b6  x3=0x800069f4
       93335000	      9332	00000000	00000013	addi	x0,x0,0	  x0:0x00000000
       93345000	      9333	80006744	00000013	addi	x0,x0,0	  x0:0x00000000
       93355000	      9334	80006748	01c75863	bge	x14,x28,80006758	 x14:0x00000001 x28:0x80009fc4
       93365000	      9335	00000000	00000013	addi	x0,x0,0	  x0:0x00000000
       93375000	      9336	80006754	00000013	addi	x0,x0,0	  x0:0x00000000
       93385000	      9337	80006758	ff038393	addi	x7,x7,-16	  x7:0x80009f58  x7=0x80009f48
       93395000	      9338	8000675c	00cfa733	slt	x14,x31,x12	 x31:0x00000001 x12:0xffffff79 x14=0x00000000
       93405000	      9339	80006760	0033a223	sw	x3,4(x7)	  x7:0x80009f48  x3:0x800069f4 PA:0x80009f4c
       93415000	      9340	80006764	dad50b93	addi	x23,x10,-595	 x10:0x00000001 x23=0xfffffdae
       93425000	      9341	80006768	0101d293	srli	x5,x3,0x10	  x3:0x800069f4  x5=0x00008000
       93435000	      9342	8000676c	00393cb3	sltu	x25,x18,x3	 x18:0x475a92a9  x3:0x800069f4 x25=0x00000001
       93445000	      9343	80006770	eb8b6d93	ori	x27,x22,-328	 x22:0x80006744 x27=0xfffffffc
       93455000	      9344	80006774	0206d463	bge	x13,x0,8000679c	 x13:0x800068b6  x0:0x00000000
       93465000	      9345	80006778	03159663	bne	x11,x17,800067a4	 x11:0x00000036 x17:0x00000001
       93475000	      9346	00000000	00000013	addi	x0,x0,0	  x0:0x00000000
       93485000	      9347	800067a0	00000013	addi	x0,x0,0	  x0:0x00000000
       93495000	      9348	800067a4	40185a93	srai	x21,x16,0x1	 x16:0xb8a56065 x21=0xdc52b032
       93505000	      9349	800067a8	d14d7713	andi	x14,x26,-748	 x26:0x80006744 x14=0x80006504
       93515000	      9350	800067ac	03b35463	bge	x6,x27,800067d4	  x6:0x00000001 x27:0xfffffffc
       93525000	      9351	00000000	00000013	addi	x0,x0,0	  x0:0x00000000
       93535000	      9352	800067d0	00000013	addi	x0,x0,0	  x0:0x00000000
       93545000	      9353	800067d4	02509a63	bne	x1,x5,80006808	  x1:0x36db0f6d  x5:0x00008000
       93555000	      9354	00000000	00000013	addi	x0,x0,0	  x0:0x00000000
       93565000	      9355	80006804	00000013	addi	x0,x0,0	  x0:0x00000000
       93575000	      9356	80006808	767bcd13	xori	x26,x23,1895	 x23:0xfffffdae x26=0xfffffac9
       93585000	      9357	8000680c	c7ac8837	lui	x16,0xc7ac8	 x16=0xc7ac8000
       93595000	      9358	80006810	0175d533	srl	x10,x11,x23	 x11:0x00000036 x23:0xfffffdae x10=0x00000000
       93605000	      9359	80006814	00000013	addi	x0,x0,0	  x0:0x00000000
       93615000	      9360	80006818	40515093	srai	x1,x2,0x5	  x2:0xc0056d65  x1=0xfe002b6b
       93625000	      9361	8000681c	00201733	sll	x14,x0,x2	  x0:0x00000000  x2:0xc0056d65 x14=0x00000000
       93635000	      9362	80006820	052b5063	bge	x22,x18,80006860	 x22:0x80006744 x18:0x475a92a9
       93645000	      9363	80006824	005f3b33	sltu	x22,x30,x5	 x30:0x00000001  x5:0x00008000 x22=0x00000001
       93655000	      9364	80006828	b6daaa17	auipc	x20,0xb6daa	 x20=0x36db0824
       93665000	      9365	8000682c	f78fc093	xori	x1,x31,-136	 x31:0x00000001  x1=0xffffff79
       93675000	      9366	80006830	0000dc33	srl	x24,x1,x0	  x1:0xffffff79  x0:0x00000000 x24=0xffffff79
       93685000	      9367	80006834	01f04f33	xor	x30,x0,x31	  x0:0x00000000 x31:0x00000001 x30=0x00000001
       93695000	      9368	80006838	769a6993	ori	x19,x20,1897	 x20:0x36db0824 x19=0x36db0f6d
       93705000	      9369	8000683c	405558b3	sra	x17,x10,x5	 x10:0x00000000  x5:0x00008000 x17=0x00000000
       93715000	      9370	80006840	c9ceb613	sltiu	x12,x29,-868	 x29:0x00000004 x12=0x00000001
       93725000	      9371	80006844	018852b3	srl	x5,x16,x24	 x16:0xc7ac8000 x24:0xffffff79  x5=0x00000063
       93735000	      9372	80006848	01335263	bge	x6,x19,8000684c	  x6:0x00000001 x19:0x36db0f6d
       93745000	      9373	8000684c	00100633	add	x12,x0,x1	  x0:0x00000000  x1:0xffffff79 x12=0xffffff79
       93755000	      9374	80006850	01a78d33	add	x26,x15,x26	 x15:0x00000000 x26:0xfffffac9 x26=0xfffffac9
       93765000	      9375	80006854	7a9ded17	auipc	x26,0x7a9de	 x26=0xfa9e4850
       93775000	      9376	80006858	01425ab3	srl	x21,x4,x20	  x4:0x00003600 x20:0x36db0824 x21=0x00000360
       93785000	      9377	8000685c	41b9d5b3	sra	x11,x19,x27	 x19:0x36db0f6d x27:0xfffffffc x11=0x00000003
       93795000	      9378	80006860	41b4d193	srai	x3,x9,0x1b	  x9:0x80006744  x3=0xfffffff0
       93805000	      9379	80006864	04665463	bge	x12,x6,800068ac	 x12:0xffffff79  x6:0x00000001
       93815000	      9380	80006868	41288133	sub	x2,x17,x18	 x17:0x00000000 x18:0x475a92a9  x2=0xb8a56d57
       93825000	      9381	8000686c	9cd9b813	sltiu	x16,x19,-1587	 x19:0x36db0f6d x16=0x00000001
       93835000	      9382	80006870	0095feb3	and	x29,x11,x9	 x11:0x00000003  x9:0x80006744 x29=0x00000000
       93845000	      9383	80006874	bb78c1b7	lui	x3,0xbb78c	  x3=0xbb78c000
       93855000	      9384	80006878	0138edb3	or	x27,x17,x19	 x17:0x00000000 x19:0x36db0f6d x27=0x36db0f6d
       93865000	      9385	8000687c	9f6b7793	andi	x15,x22,-1546	 x22:0x00000001 x15=0x00000000
       93875000	      9386	80006880	00859213	slli	x4,x11,0x8	 x11:0x00000003  x4=0x00000300
       93885000	      9387	80006884	0300c063	blt	x1,x16,800068a4	  x1:0xffffff79 x16:0x00000001
       93895000	      9388	00000000	00000013	addi	x0,x0,0	  x0:0x00000000
       93905000	      9389	800068a0	00000013	addi	x0,x0,0	  x0:0x00000000
       93915000	      9390	800068a4	410ba893	slti	x17,x23,1040	 x23:0xfffffdae x17=0x00000001
       93925000	      9391	800068a8	149e4c13	xori	x24,x28,329	 x28:0x80009fc4 x24=0x80009e8d
       93935000	      9392	800068ac	01163b33	sltu	x22,x12,x17	 x12:0xffffff79 x17:0x00000001 x22=0x00000000
       93945000	      9393	800068b0	013f3713	sltiu	x14,x30,19	 x30:0x00000001 x14=0x00000001
       93955000	      9394	800068b4	0082fbb3	and	x23,x5,x8	  x5:0x00000063  x8:0xf9c60684 x23=0x00000000
       93965000	      9395	800068b8	01bc6833	or	x16,x24,x27	 x24:0x80009e8d x27:0x36db0f6d x16=0xb6db9fed
       93975000	      9396	800068bc	03454a63	blt	x10,x20,800068f0	 x10:0x00000000 x20:0x36db0824
       93985000	      9397	00000000	00000013	addi	x0,x0,0	  x0:0x00000000
       93995000	      9398	800068ec	00000013	addi	x0,x0,0	  x0:0x00000000
       94005000	      9399	800068f0	005d7863	bgeu	x26,x5,80006900	 x26:0xfa9e4850  x5:0x00000063
       94015000	      9400	00000000	00000013	addi	x0,x0,0	  x0:0x00000000
       94025000	      9401	800068fc	00000013	addi	x0,x0,0	  x0:0x00000000
       94035000	      9402	80006900	7584fd93	andi	x27,x9,1880	  x9:0x80006744 x27=0x00000740
       94045000	      9403	80006904	041f6263	bltu	x30,x1,80006948	 x30:0x00000001  x1:0xffffff79
       94055000	      9404	00000000	00000013	addi	x0,x0,0	  x0:0x00000000
       94065000	      9405	80006944	00000013	addi	x0,x0,0	  x0:0x00000000
       94075000	      9406	80006948	00f48d33	add	x26,x9,x15	  x9:0x80006744 x15:0x00000000 x26=0x80006744
       94085000	      9407	8000694c	01eb2ab3	slt	x21,x22,x30	 x22:0x00000000 x30:0x00000001 x21=0x00000001
       94095000	      9408	80006950	01b902b3	add	x5,x18,x27	 x18:0x475a92a9 x27:0x00000740  x5=0x475a99e9
       94105000	      9409	80006954	43ea6d97	auipc	x27,0x43ea6	 x27=0xc3eac950
       94115000	      9410	80006958	9fa83513	sltiu	x10,x16,-1542	 x16:0xb6db9fed x10=0x00000001
       94125000	      9411	8000695c	095a3693	sltiu	x13,x20,149	 x20:0x36db0824 x13=0x00000000
       94135000	      9412	80006960	0043a183	lw	x3,4(x7)	  x7:0x80009f48  x3=0x800069f4 PA:0x80009f4c
       94145000	      9413	80006964	012c6c33	or	x24,x24,x18	 x24:0x80009e8d x18:0x475a92a9 x24=0xc75a9ead
       94155000	      9414	80006968	01038393	addi	x7,x7,16	  x7:0x80009f48  x7=0x80009f58
       94165000	      9415	8000696c	00d9d0b3	srl	x1,x19,x13	 x19:0x36db0f6d x13:0x00000000  x1=0x36db0f6d
       94175000	      9416	80006970	00118193	addi	x3,x3,1	  x3:0x800069f4  x3=0x800069f5
       94185000	      9417	80006974	000181e7	jalr	x3,x3,0	  x3:0x800069f5  x3=0x80006974
       94195000	      9418	00000000	00000013	addi	x0,x0,0	  x0:0x00000000
       94205000	      9419	800069f4	00000013	addi	x0,x0,0	  x0:0x00000000
       94215000	      9420	800069f8	02ea0263	beq	x20,x14,80006a1c	 x20:0x36db0824 x14:0x00000001
       94225000	      9421	800069fc	02f29a63	bne	x5,x15,80006a30	  x5:0x475a99e9 x15:0x00000000
       94235000	      9422	00000000	00000013	addi	x0,x0,0	  x0:0x00000000
       94245000	      9423	80006a2c	00000013	addi	x0,x0,0	  x0:0x00000000
       94255000	      9424	80006a30	004cd7b3	srl	x15,x25,x4	 x25:0x00000001  x4:0x00000300 x15=0x00000001
       94265000	      9425	80006a34	014bd013	srli	x0,x23,0x14	 x23:0x00000000
       94275000	      9426	80006a38	302fc413	xori	x8,x31,770	 x31:0x00000001  x8=0x00000303
       94285000	      9427	80006a3c	0043a183	lw	x3,4(x7)	  x7:0x80009f58  x3=0x80000518 PA:0x80009f5c
       94295000	      9428	80006a40	00d2d413	srli	x8,x5,0xd	  x5:0x475a99e9  x8=0x00023ad4
       94305000	      9429	80006a44	fe9e8213	addi	x4,x29,-23	 x29:0x00000000  x4=0xffffffe9
       94315000	      9430	80006a48	00b8e133	or	x2,x17,x11	 x17:0x00000001 x11:0x00000003  x2=0x00000003
       94325000	      9431	80006a4c	01438393	addi	x7,x7,20	  x7:0x80009f58  x7=0x80009f6c
       94335000	      9432	80006a50	413dde93	srai	x29,x27,0x13	 x27:0xc3eac950 x29=0xfffff87d
       94345000	      9433	80006a54	00018c13	addi	x24,x3,0	  x3:0x80000518 x24=0x80000518
       94355000	      9434	80006a58	000c0c67	jalr	x24,x24,0	 x24:0x80000518 x24=0x80006a58
       94365000	      9435	00000000	00000013	addi	x0,x0,0	  x0:0x00000000
       94375000	      9436	80000518	00000013	addi	x0,x0,0	  x0:0x00000000
       94385000	      9437	8000051c	4e9d7537	lui	x10,0x4e9d7	 x10=0x4e9d7000
       94395000	      9438	80000520	41ddd313	srai	x6,x27,0x1d	 x27:0xc3eac950  x6=0xfffffffe
       94405000	      9439	80000524	653dcbb7	lui	x23,0x653dc	 x23=0x653dc000
       94415000	      9440	80000528	0057afb3	slt	x31,x15,x5	 x15:0x00000001  x5:0x475a99e9 x31=0x00000001
       94425000	      9441	8000052c	008775b3	and	x11,x14,x8	 x14:0x00000001  x8:0x00023ad4 x11=0x00000000
       94435000	      9442	80000530	017f9e93	slli	x29,x31,0x17	 x31:0x00000001 x29=0x00800000
       94445000	      9443	80000534	9b78a513	slti	x10,x17,-1609	 x17:0x00000001 x10=0x00000000
       94455000	      9444	80000538	003f1863	bne	x30,x3,80000548	 x30:0x00000001  x3:0x80000518
       94465000	      9445	00000000	00000013	addi	x0,x0,0	  x0:0x00000000
       94475000	      9446	80000544	00000013	addi	x0,x0,0	  x0:0x00000000
       94485000	      9447	80000548	0060f6b3	and	x13,x1,x6	  x1:0x36db0f6d  x6:0xfffffffe x13=0x36db0f6c
       94495000	      9448	8000054c	31fbfd93	andi	x27,x23,799	 x23:0x653dc000 x27=0x00000000
       94505000	      9449	80000550	0fe22993	slti	x19,x4,254	  x4:0xffffffe9 x19=0x00000001
       94515000	      9450	80000554	014534b3	sltu	x9,x10,x20	 x10:0x00000000 x20:0x36db0824  x9=0x00000001
       94525000	      9451	80000558	411fd633	sra	x12,x31,x17	 x31:0x00000001 x17:0x00000001 x12=0x00000000
       94535000	      9452	8000055c	00ff9c13	slli	x24,x31,0xf	 x31:0x00000001 x24=0x00008000
       94545000	      9453	80000560	0043a183	lw	x3,4(x7)	  x7:0x80009f6c  x3=0x800003c0 PA:0x80009f70
       94555000	      9454	80000564	9dcf0d93	addi	x27,x30,-1572	 x30:0x00000001 x27=0xfffff9dd
       94565000	      9455	80000568	01838393	addi	x7,x7,24	  x7:0x80009f6c  x7=0x80009f84
       94575000	      9456	8000056c	000f1a93	slli	x21,x30,0x0	 x30:0x00000001 x21=0x00000001
       94585000	      9457	80000570	d5aecd93	xori	x27,x29,-678	 x29:0x00800000 x27=0xff7ffd5a
       94595000	      9458	80000574	018d3233	sltu	x4,x26,x24	 x26:0x80006744 x24:0x00008000  x4=0x00000000
       94605000	      9459	80000578	00018893	addi	x17,x3,0	  x3:0x800003c0 x17=0x800003c0
       94615000	      9460	8000057c	000888e7	jalr	x17,x17,0	 x17:0x800003c0 x17=0x8000057c
       94625000	      9461	00000000	00000013	addi	x0,x0,0	  x0:0x00000000
       94635000	      9462	800003c0	00000013	addi	x0,x0,0	  x0:0x00000000
       94645000	      9463	800003c4	03e67663	bgeu	x12,x30,800003f0	 x12:0x00000000 x30:0x00000001
       94655000	      9464	800003c8	03f27263	bgeu	x4,x31,800003ec	  x4:0x00000000 x31:0x00000001
       94665000	      9465	800003cc	bd2dbbb7	lui	x23,0xbd2db	 x23=0xbd2db000
       94675000	      9466	800003d0	013122b3	slt	x5,x2,x19	  x2:0x00000003 x19:0x00000001  x5=0x00000000
       94685000	      9467	800003d4	fe81f793	andi	x15,x3,-24	  x3:0x800003c0 x15=0x800003c0
       94695000	      9468	800003d8	053be663	bltu	x23,x19,80000424	 x23:0xbd2db000 x19:0x00000001
       94705000	      9469	800003dc	01301693	slli	x13,x0,0x13	  x0:0x00000000 x13=0x00000000
       94715000	      9470	800003e0	05f3f263	bgeu	x7,x31,80000424	  x7:0x80009f84 x31:0x00000001
       94725000	      9471	00000000	00000013	addi	x0,x0,0	  x0:0x00000000
       94735000	      9472	80000420	00000013	addi	x0,x0,0	  x0:0x00000000
       94745000	      9473	80000424	017b6ab3	or	x21,x22,x23	 x22:0x00000000 x23:0xbd2db000 x21=0xbd2db000
       94755000	      9474	80000428	00275663	bge	x14,x2,80000434	 x14:0x00000001  x2:0x00000003
       94765000	      9475	8000042c	00956133	or	x2,x10,x9	 x10:0x00000000  x9:0x00000001  x2=0x00000001
       94775000	      9476	80000430	40dcdcb3	sra	x25,x25,x13	 x25:0x00000001 x13:0x00000000 x25=0x00000001
       94785000	      9477	80000434	3656ffb7	lui	x31,0x3656f	 x31=0x3656f000
       94795000	      9478	80000438	00000917	auipc	x18,0x0	 x18=0x80000434
       94805000	      9479	8000043c	00c90913	addi	x18,x18,12	 x18:0x80000434 x18=0x80000440
       94815000	      9480	80000440	00090067	jalr	x0,x18,0	 x18:0x80000440
       94825000	      9481	00000000	00000013	addi	x0,x0,0	  x0:0x00000000
       94835000	      9482	80000440	00000013	addi	x0,x0,0	  x0:0x00000000
       94845000	      9483	80000444	00100193	addi	x3,x0,1	  x0:0x00000000  x3=0x00000001
       94855000	      9484	80000448	00000073	ecall	
       94865000	      9485	8000044c	01def4b3	and	x9,x29,x29	 x29:0x00800000 x29:0x00800000  x9=0x00800000
