		Time			Cycle	PC		Insn	Decoded instruction	Register and memory contents
          65000	         5	80000004	00000293	addi	x5,x0,0	  x0:0x00000000  x5=0x00000000
          75000	         6	80000008	00000313	addi	x6,x0,0	  x0:0x00000000  x6=0x00000000
          85000	         7	8000000c	00628263	beq	x5,x6,80000010	  x5:0x00000000  x6:0x00000000
          95000	         8	00000000	00000013	addi	x0,x0,0	  x0:0x00000000
         105000	         9	8000000c	00000013	addi	x0,x0,0	  x0:0x00000000
         115000	        10	80000010	00000297	auipc	x5,0x0	  x5=0x8000000c
         125000	        11	80000014	00c28293	addi	x5,x5,12	  x5:0x8000000c  x5=0x80000018
         135000	        12	80000018	00028067	jalr	x0,x5,0	  x5:0x80000018
         145000	        13	00000000	00000013	addi	x0,x0,0	  x0:0x00000000
         155000	        14	80000018	00000013	addi	x0,x0,0	  x0:0x00000000
         165000	        15	8000001c	40000737	lui	x14,0x40000	 x14=0x40000000
         175000	        16	80000020	10070713	addi	x14,x14,256	 x14:0x40000000 x14=0x40000100
         185000	        17	80000024	00000013	addi	x0,x0,0	  x0:0x00000000
         195000	        18	80000028	0000ae17	auipc	x28,0xa	 x28=0x8000a024
         205000	        19	8000002c	fa0e0e13	addi	x28,x28,-96	 x28:0x8000a024 x28=0x80009fc4
         215000	        20	80000030	00007717	auipc	x14,0x7	 x14=0x8000702c
         225000	        21	80000034	c3470713	addi	x14,x14,-972	 x14:0x8000702c x14=0x80006c60
         235000	        22	80000038	00076713	ori	x14,x14,0	 x14:0x80006c60 x14=0x80006c60
         245000	        23	8000003c	00000013	addi	x0,x0,0	  x0:0x00000000
         255000	        24	80000040	00000717	auipc	x14,0x0	 x14=0x8000003c
         265000	        25	80000044	02070713	addi	x14,x14,32	 x14:0x8000003c x14=0x8000005c
         275000	        26	80000048	00000013	addi	x0,x0,0	  x0:0x00000000
         285000	        27	8000004c	00000013	addi	x0,x0,0	  x0:0x00000000
         295000	        28	80000050	00002737	lui	x14,0x2	 x14=0x00002000
         305000	        29	80000054	80070713	addi	x14,x14,-2048	 x14:0x00002000 x14=0x00001800
         315000	        30	80000058	00000013	addi	x0,x0,0	  x0:0x00000000
         325000	        31	8000005c	00000013	addi	x0,x0,0	  x0:0x00000000
         335000	        32	80000060	00300013	addi	x0,x0,3	  x0:0x00000000
         345000	        33	80000064	fc5390b7	lui	x1,0xfc539	  x1=0xfc539000
         355000	        34	80000068	a0708093	addi	x1,x1,-1529	  x1:0xfc539000  x1=0xfc538a07
         365000	        35	8000006c	00a00113	addi	x2,x0,10	  x0:0x00000000  x2=0x0000000a
         375000	        36	80000070	f05381b7	lui	x3,0xf0538	  x3=0xf0538000
         385000	        37	80000074	6a618193	addi	x3,x3,1702	  x3:0xf0538000  x3=0xf05386a6
         395000	        38	80000078	80000237	lui	x4,0x80000	  x4=0x80000000
         405000	        39	8000007c	800002b7	lui	x5,0x80000	  x5=0x80000000
         415000	        40	80000080	00c00313	addi	x6,x0,12	  x0:0x00000000  x6=0x0000000c
         425000	        41	80000084	756573b7	lui	x7,0x75657	  x7=0x75657000
         435000	        42	80000088	f9338393	addi	x7,x7,-109	  x7:0x75657000  x7=0x75656f93
         445000	        43	8000008c	5cf95437	lui	x8,0x5cf95	  x8=0x5cf95000
         455000	        44	80000090	40140413	addi	x8,x8,1025	  x8:0x5cf95000  x8=0x5cf95401
         465000	        45	80000094	f26e34b7	lui	x9,0xf26e3	  x9=0xf26e3000
         475000	        46	80000098	a0648493	addi	x9,x9,-1530	  x9:0xf26e3000  x9=0xf26e2a06
         485000	        47	8000009c	b4302537	lui	x10,0xb4302	 x10=0xb4302000
         495000	        48	800000a0	71e50513	addi	x10,x10,1822	 x10:0xb4302000 x10=0xb430271e
         505000	        49	800000a4	00000593	addi	x11,x0,0	  x0:0x00000000 x11=0x00000000
         515000	        50	800000a8	00d00613	addi	x12,x0,13	  x0:0x00000000 x12=0x0000000d
         525000	        51	800000ac	00000693	addi	x13,x0,0	  x0:0x00000000 x13=0x00000000
         535000	        52	800000b0	f56b3737	lui	x14,0xf56b3	 x14=0xf56b3000
         545000	        53	800000b4	5fb70713	addi	x14,x14,1531	 x14:0xf56b3000 x14=0xf56b35fb
         555000	        54	800000b8	f2c177b7	lui	x15,0xf2c17	 x15=0xf2c17000
         565000	        55	800000bc	6cb78793	addi	x15,x15,1739	 x15:0xf2c17000 x15=0xf2c176cb
         575000	        56	800000c0	80000837	lui	x16,0x80000	 x16=0x80000000
         585000	        57	800000c4	800008b7	lui	x17,0x80000	 x17=0x80000000
         595000	        58	800000c8	a956c937	lui	x18,0xa956c	 x18=0xa956c000
         605000	        59	800000cc	2ea90913	addi	x18,x18,746	 x18:0xa956c000 x18=0xa956c2ea
         615000	        60	800000d0	00000993	addi	x19,x0,0	  x0:0x00000000 x19=0x00000000
         625000	        61	800000d4	6f526a37	lui	x20,0x6f526	 x20=0x6f526000
         635000	        62	800000d8	573a0a13	addi	x20,x20,1395	 x20:0x6f526000 x20=0x6f526573
         645000	        63	800000dc	73fb6ab7	lui	x21,0x73fb6	 x21=0x73fb6000
         655000	        64	800000e0	d64a8a93	addi	x21,x21,-668	 x21:0x73fb6000 x21=0x73fb5d64
         665000	        65	800000e4	80000b37	lui	x22,0x80000	 x22=0x80000000
         675000	        66	800000e8	00000b93	addi	x23,x0,0	  x0:0x00000000 x23=0x00000000
         685000	        67	800000ec	00800c13	addi	x24,x0,8	  x0:0x00000000 x24=0x00000008
         695000	        68	800000f0	80000cb7	lui	x25,0x80000	 x25=0x80000000
         705000	        69	800000f4	00000d93	addi	x27,x0,0	  x0:0x00000000 x27=0x00000000
         715000	        70	800000f8	00d00e93	addi	x29,x0,13	  x0:0x00000000 x29=0x0000000d
         725000	        71	800000fc	f91baf37	lui	x30,0xf91ba	 x30=0xf91ba000
         735000	        72	80000100	b69f0f13	addi	x30,x30,-1175	 x30:0xf91ba000 x30=0xf91b9b69
         745000	        73	80000104	00000f93	addi	x31,x0,0	  x0:0x00000000 x31=0x00000000
         755000	        74	80000108	0000ad17	auipc	x26,0xa	 x26=0x8000a104
         765000	        75	8000010c	e80d0d13	addi	x26,x26,-384	 x26:0x8000a104 x26=0x80009f84
         775000	        76	80000110	00003197	auipc	x3,0x3	  x3=0x8000310c
         785000	        77	80000114	e1c18193	addi	x3,x3,-484	  x3:0x8000310c  x3=0x80002f28
         795000	        78	80000118	cafefb13	andi	x22,x29,-849	 x29:0x0000000d x22=0x0000000d
         805000	        79	8000011c	0e418193	addi	x3,x3,228	  x3:0x80002f28  x3=0x8000300c
         815000	        80	80000120	005cd233	srl	x4,x25,x5	 x25:0x80000000  x5:0x80000000  x4=0x80000000
         825000	        81	80000124	01865693	srli	x13,x12,0x18	 x12:0x0000000d x13=0x00000000
         835000	        82	80000128	401d83b3	sub	x7,x27,x1	 x27:0x00000000  x1:0xfc538a07  x7=0x03ac75f9
         845000	        83	8000012c	fbbbc113	xori	x2,x23,-69	 x23:0x00000000  x2=0xffffffbb
         855000	        84	80000130	0080e863	bltu	x1,x8,80000140	  x1:0xfc538a07  x8:0x5cf95401
         865000	        85	80000134	00a324b3	slt	x9,x6,x10	  x6:0x0000000c x10:0xb430271e  x9=0x00000000
         875000	        86	80000138	cbc07313	andi	x6,x0,-836	  x0:0x00000000  x6=0x00000000
         885000	        87	8000013c	a7450893	addi	x17,x10,-1420	 x10:0xb430271e x17=0xb4302192
         895000	        88	80000140	f1d180e7	jalr	x1,x3,-227	  x3:0x8000300c  x1=0x80000140
         905000	        89	00000000	00000013	addi	x0,x0,0	  x0:0x00000000
         915000	        90	80002f28	00000013	addi	x0,x0,0	  x0:0x00000000
         925000	        91	80002f2c	ff4d0d13	addi	x26,x26,-12	 x26:0x80009f84 x26=0x80009f78
         935000	        92	80002f30	00000013	addi	x0,x0,0	  x0:0x00000000
         945000	        93	80002f34	001d2223	sw	x1,4(x26)	 x26:0x80009f78  x1:0x80000140 PA:0x80009f7c
         955000	        94	80002f38	01b996b3	sll	x13,x19,x27	 x19:0x00000000 x27:0x00000000 x13=0x00000000
         965000	        95	80002f3c	3e1e4893	xori	x17,x28,993	 x28:0x80009fc4 x17=0x80009c25
         975000	        96	80002f40	0120c933	xor	x18,x1,x18	  x1:0x80000140 x18:0xa956c2ea x18=0x2956c3aa
         985000	        97	80002f44	00005117	auipc	x2,0x5	  x2=0x80007f40
         995000	        98	80002f48	41510113	addi	x2,x2,1045	  x2:0x80007f40  x2=0x80008355
        1005000	        99	80002f4c	40bbd893	srai	x17,x23,0xb	 x23:0x00000000 x17=0x00000000
        1015000	       100	80002f50	4a610403	lb	x8,1190(x2)	  x2:0x80008355  x8=0x00000000 PA:0x800087fb
        1025000	       101	80002f54	4c94b093	sltiu	x1,x9,1225	  x9:0x00000000  x1=0x00000001
        1035000	       102	80002f58	4cb8fa37	lui	x20,0x4cb8f	 x20=0x4cb8f000
        1045000	       103	80002f5c	fd410483	lb	x9,-44(x2)	  x2:0x80008355  x9=0x00000000 PA:0x80008329
        1055000	       104	80002f60	19d10783	lb	x15,413(x2)	  x2:0x80008355 x15=0x00000000 PA:0x800084f2
        1065000	       105	80002f64	fb810a83	lb	x21,-72(x2)	  x2:0x80008355 x21=0x00000000 PA:0x8000830d
        1075000	       106	80002f68	e3610783	lb	x15,-458(x2)	  x2:0x80008355 x15=0x00000000 PA:0x8000818b
        1085000	       107	80002f6c	cf811ca3	sh	x24,-775(x2)	  x2:0x80008355 x24:0x00000008 PA:0x8000804e
        1095000	       108	80002f70	0173f733	and	x14,x7,x23	  x7:0x03ac75f9 x23:0x00000000 x14=0x00000000
        1105000	       109	80002f74	00000013	addi	x0,x0,0	  x0:0x00000000
        1115000	       110	80002f78	dbe14183	lbu	x3,-578(x2)	  x2:0x80008355  x3=0x00000000 PA:0x80008113
        1125000	       111	80002f7c	f0d14d83	lbu	x27,-243(x2)	  x2:0x80008355 x27=0x00000000 PA:0x80008262
        1135000	       112	80002f80	0f310003	lb	x0,243(x2)	  x2:0x80008355 PA:0x80008448
        1145000	       113	80002f84	215d8313	addi	x6,x27,533	 x27:0x00000000  x6=0x00000215
        1155000	       114	80002f88	407b0533	sub	x10,x22,x7	 x22:0x0000000d  x7:0x03ac75f9 x10=0xfc538a14
        1165000	       115	80002f8c	002b4933	xor	x18,x22,x2	 x22:0x0000000d  x2:0x80008355 x18=0x80008358
        1175000	       116	80002f90	2c010023	sb	x0,704(x2)	  x2:0x80008355  x0:0x00000000 PA:0x80008615
        1185000	       117	80002f94	18c14a83	lbu	x21,396(x2)	  x2:0x80008355 x21=0x00000000 PA:0x800084e1
        1195000	       118	80002f98	f8111b83	lh	x23,-127(x2)	  x2:0x80008355 x23=0x00000000 PA:0x800082d6
        1205000	       119	80002f9c	01cccfb3	xor	x31,x25,x28	 x25:0x80000000 x28:0x80009fc4 x31=0x00009fc4
        1215000	       120	80002fa0	01278433	add	x8,x15,x18	 x15:0x00000000 x18:0x80008358  x8=0x80008358
        1225000	       121	80002fa4	41b7d993	srai	x19,x15,0x1b	 x15:0x00000000 x19=0x00000000
        1235000	       122	80002fa8	d2511583	lh	x11,-731(x2)	  x2:0x80008355 x11=0x00000000 PA:0x8000807a
        1245000	       123	80002fac	37c10c23	sb	x28,888(x2)	  x2:0x80008355 x28:0x80009fc4 PA:0x800086cd
        1255000	       124	80002fb0	0193ffb3	and	x31,x7,x25	  x7:0x03ac75f9 x25:0x80000000 x31=0x00000000
        1265000	       125	80002fb4	75f22917	auipc	x18,0x75f22	 x18=0xf5f24fb0
        1275000	       126	80002fb8	eff14803	lbu	x16,-257(x2)	  x2:0x80008355 x16=0x00000000 PA:0x80008254
        1285000	       127	00000000	00000013	addi	x0,x0,0	  x0:0x00000000
        1295000	       128	80002fbc	0d0ef993	andi	x19,x29,208	 x29:0x0000000d x19=0x00000000
        1305000	       129	80002fc0	012b9033	sll	x0,x23,x18	 x23:0x00000000 x18:0xf5f24fb0
        1315000	       130	80002fc4	00000013	addi	x0,x0,0	  x0:0x00000000
        1325000	       131	80002fc8	38810e23	sb	x8,924(x2)	  x2:0x80008355  x8:0x80008358 PA:0x800086f1
        1335000	       132	80002fcc	00eea8b3	slt	x17,x29,x14	 x29:0x0000000d x14:0x00000000 x17=0x00000000
        1345000	       133	80002fd0	25caa193	slti	x3,x21,604	 x21:0x00000000  x3=0x00000001
        1355000	       134	80002fd4	0009fa33	and	x20,x19,x0	 x19:0x00000000  x0:0x00000000 x20=0x00000000
        1365000	       135	80002fd8	dce14983	lbu	x19,-562(x2)	  x2:0x80008355 x19=0x00000000 PA:0x80008123
        1375000	       136	80002fdc	00555333	srl	x6,x10,x5	 x10:0xfc538a14  x5:0x80000000  x6=0xfc538a14
        1385000	       137	80002fe0	f9c10603	lb	x12,-100(x2)	  x2:0x80008355 x12=0x00000000 PA:0x800082f1
        1395000	       138	80002fe4	00589493	slli	x9,x17,0x5	 x17:0x00000000  x9=0x00000000
        1405000	       139	80002fe8	20486a93	ori	x21,x16,516	 x16:0x00000000 x21=0x00000204
        1415000	       140	80002fec	f7614f83	lbu	x31,-138(x2)	  x2:0x80008355 x31=0x00000000 PA:0x800082cb
        1425000	       141	80002ff0	410bdc13	srai	x24,x23,0x10	 x23:0x00000000 x24=0x00000000
        1435000	       142	80002ff4	26828813	addi	x16,x5,616	  x5:0x80000000 x16=0x80000268
        1445000	       143	80002ff8	012b7333	and	x6,x22,x18	 x22:0x0000000d x18:0xf5f24fb0  x6=0x00000000
        1455000	       144	80002ffc	005117a3	sh	x5,15(x2)	  x2:0x80008355  x5:0x80000000 PA:0x80008364
        1465000	       145	80003000	1a210c03	lb	x24,418(x2)	  x2:0x80008355 x24=0x00000000 PA:0x800084f7
        1475000	       146	80003004	0ff11c83	lh	x25,255(x2)	  x2:0x80008355 x25=0x00000000 PA:0x80008454
        1485000	       147	80003008	58c07b93	andi	x23,x0,1420	  x0:0x00000000 x23=0x00000000
        1495000	       148	8000300c	ff610723	sb	x22,-18(x2)	  x2:0x80008355 x22:0x0000000d PA:0x80008343
        1505000	       149	80003010	41b105a3	sb	x27,1035(x2)	  x2:0x80008355 x27:0x00000000 PA:0x80008760
        1515000	       150	80003014	01e5d3b3	srl	x7,x11,x30	 x11:0x00000000 x30:0xf91b9b69  x7=0x00000000
        1525000	       151	80003018	e6db0793	addi	x15,x22,-403	 x22:0x0000000d x15=0xfffffe7a
        1535000	       152	8000301c	4077dfb3	sra	x31,x15,x7	 x15:0xfffffe7a  x7:0x00000000 x31=0xfffffe7a
        1545000	       153	80003020	39115803	lhu	x16,913(x2)	  x2:0x80008355 x16=0x00000000 PA:0x800086e6
        1555000	       154	80003024	015030b3	sltu	x1,x0,x21	  x0:0x00000000 x21:0x00000204  x1=0x00000001
        1565000	       155	80003028	d0310703	lb	x14,-765(x2)	  x2:0x80008355 x14=0x00000000 PA:0x80008058
        1575000	       156	8000302c	16d10f23	sb	x13,382(x2)	  x2:0x80008355 x13:0x00000000 PA:0x800084d3
        1585000	       157	80003030	00005117	auipc	x2,0x5	  x2=0x8000802c
        1595000	       158	80003034	7b510113	addi	x2,x2,1973	  x2:0x8000802c  x2=0x800087e1
        1605000	       159	80003038	01b10123	sb	x27,2(x2)	  x2:0x800087e1 x27:0x00000000 PA:0x800087e3
        1615000	       160	8000303c	01cd9fb3	sll	x31,x27,x28	 x27:0x00000000 x28:0x80009fc4 x31=0x00000000
        1625000	       161	80003040	40608db3	sub	x27,x1,x6	  x1:0x00000001  x6:0x00000000 x27=0x00000001
        1635000	       162	80003044	0103bf33	sltu	x30,x7,x16	  x7:0x00000000 x16:0x00000000 x30=0x00000000
        1645000	       163	80003048	00210b03	lb	x22,2(x2)	  x2:0x800087e1 x22=0x00000000 PA:0x800087e3
        1655000	       164	8000304c	e0699eb7	lui	x29,0xe0699	 x29=0xe0699000
        1665000	       165	80003050	ffb10b23	sb	x27,-10(x2)	  x2:0x800087e1 x27:0x00000001 PA:0x800087d7
        1675000	       166	80003054	29bd6813	ori	x16,x26,667	 x26:0x80009f78 x16=0x80009ffb
        1685000	       167	80003058	ff410803	lb	x16,-12(x2)	  x2:0x800087e1 x16=0x00000000 PA:0x800087d5
        1695000	       168	8000305c	f6ebc793	xori	x15,x23,-146	 x23:0x00000000 x15=0xffffff6e
        1705000	       169	80003060	00814303	lbu	x6,8(x2)	  x2:0x800087e1  x6=0x00000000 PA:0x800087e9
        1715000	       170	80003064	40e00fb3	sub	x31,x0,x14	  x0:0x00000000 x14:0x00000000 x31=0x00000000
        1725000	       171	80003068	72735097	auipc	x1,0x72735	  x1=0xf2738064
        1735000	       172	8000306c	7b25c213	xori	x4,x11,1970	 x11:0x00000000  x4=0x000007b2
        1745000	       173	80003070	01673db3	sltu	x27,x14,x22	 x14:0x00000000 x22:0x00000000 x27=0x00000000
        1755000	       174	80003074	00ce3633	sltu	x12,x28,x12	 x28:0x80009fc4 x12:0x00000000 x12=0x00000000
        1765000	       175	80003078	bb72cc93	xori	x25,x5,-1097	  x5:0x80000000 x25=0x7ffffbb7
        1775000	       176	8000307c	fe810c23	sb	x8,-8(x2)	  x2:0x800087e1  x8:0x80008358 PA:0x800087d9
        1785000	       177	80003080	41e35f33	sra	x30,x6,x30	  x6:0x00000000 x30:0x00000000 x30=0x00000000
        1795000	       178	80003084	00110123	sb	x1,2(x2)	  x2:0x800087e1  x1:0xf2738064 PA:0x800087e3
        1805000	       179	80003088	0162c933	xor	x18,x5,x22	  x5:0x80000000 x22:0x00000000 x18=0x80000000
        1815000	       180	8000308c	9b596513	ori	x10,x18,-1611	 x18:0x80000000 x10=0xfffff9b5
        1825000	       181	80003090	416f0a33	sub	x20,x30,x22	 x30:0x00000000 x22:0x00000000 x20=0x00000000
        1835000	       182	80003094	01010803	lb	x16,16(x2)	  x2:0x800087e1 x16=0x00000000 PA:0x800087f1
        1845000	       183	80003098	00210623	sb	x2,12(x2)	  x2:0x800087e1  x2:0x800087e1 PA:0x800087ed
        1855000	       184	8000309c	0046df33	srl	x30,x13,x4	 x13:0x00000000  x4:0x000007b2 x30=0x00000000
        1865000	       185	800030a0	005cdb13	srli	x22,x25,0x5	 x25:0x7ffffbb7 x22=0x03ffffdd
        1875000	       186	800030a4	fdf20c13	addi	x24,x4,-33	  x4:0x000007b2 x24=0x00000791
        1885000	       187	800030a8	ffe10603	lb	x12,-2(x2)	  x2:0x800087e1 x12=0x00000000 PA:0x800087df
        1895000	       188	800030ac	00005e97	auipc	x29,0x5	 x29=0x800080a8
        1905000	       189	800030b0	281e8e93	addi	x29,x29,641	 x29:0x800080a8 x29=0x80008329
        1915000	       190	800030b4	ede66893	ori	x17,x12,-290	 x12:0x00000000 x17=0xfffffede
        1925000	       191	800030b8	01041b13	slli	x22,x8,0x10	  x8:0x80008358 x22=0x83580000
        1935000	       192	800030bc	01af63b3	or	x7,x30,x26	 x30:0x00000000 x26:0x80009f78  x7=0x80009f78
        1945000	       193	800030c0	4162d333	sra	x6,x5,x22	  x5:0x80000000 x22:0x83580000  x6=0x80000000
        1955000	       194	800030c4	0085fdb3	and	x27,x11,x8	 x11:0x00000000  x8:0x80008358 x27=0x00000000
        1965000	       195	800030c8	0e2e93a3	sh	x2,231(x29)	 x29:0x80008329  x2:0x800087e1 PA:0x80008410
        1975000	       196	800030cc	fb8e8b03	lb	x22,-72(x29)	 x29:0x80008329 x22=0x00000000 PA:0x800082e1
        1985000	       197	800030d0	01e4acb3	slt	x25,x9,x30	  x9:0x00000000 x30:0x00000000 x25=0x00000000
        1995000	       198	800030d4	ff4e8a03	lb	x20,-12(x29)	 x29:0x80008329 x20=0x00000000 PA:0x8000831d
        2005000	       199	800030d8	fb8e8f23	sb	x24,-66(x29)	 x29:0x80008329 x24:0x00000791 PA:0x800082e7
        2015000	       200	800030dc	0117a5b3	slt	x11,x15,x17	 x15:0xffffff6e x17:0xfffffede x11=0x00000000
        2025000	       201	800030e0	0cde8303	lb	x6,205(x29)	 x29:0x80008329  x6=0x00000000 PA:0x800083f6
        2035000	       202	800030e4	fd6e8103	lb	x2,-42(x29)	 x29:0x80008329  x2=0x00000000 PA:0x800082ff
        2045000	       203	800030e8	f81ecc83	lbu	x25,-127(x29)	 x29:0x80008329 x25=0x00000000 PA:0x800082aa
        2055000	       204	800030ec	009f1713	slli	x14,x30,0x9	 x30:0x00000000 x14=0x00000000
        2065000	       205	800030f0	f52e8b23	sb	x18,-170(x29)	 x29:0x80008329 x18:0x80000000 PA:0x8000827f
        2075000	       206	800030f4	03ce8f03	lb	x30,60(x29)	 x29:0x80008329 x30=0x00000000 PA:0x80008365
        2085000	       207	800030f8	05de8303	lb	x6,93(x29)	 x29:0x80008329  x6=0x00000000 PA:0x80008386
        2095000	       208	800030fc	b7b3a113	slti	x2,x7,-1157	  x7:0x80009f78  x2=0x00000001
        2105000	       209	80003100	01ce1493	slli	x9,x28,0x1c	 x28:0x80009fc4  x9=0x40000000
        2115000	       210	80003104	f99e8a23	sb	x25,-108(x29)	 x29:0x80008329 x25:0x00000000 PA:0x800082bd
        2125000	       211	80003108	0113b733	sltu	x14,x7,x17	  x7:0x80009f78 x17:0xfffffede x14=0x00000001
        2135000	       212	8000310c	004f39b3	sltu	x19,x30,x4	 x30:0x00000000  x4:0x000007b2 x19=0x00000001
        2145000	       213	80003110	f6fe9103	lh	x2,-145(x29)	 x29:0x80008329  x2=0x00000000 PA:0x80008298
        2155000	       214	80003114	008c9f93	slli	x31,x25,0x8	 x25:0x00000000 x31=0x00000000
        2165000	       215	80003118	010f4ab3	xor	x21,x30,x16	 x30:0x00000000 x16:0x00000000 x21=0x00000000
        2175000	       216	8000311c	00000013	addi	x0,x0,0	  x0:0x00000000
        2185000	       217	80003120	40010a33	sub	x20,x2,x0	  x2:0x00000000  x0:0x00000000 x20=0x00000000
        2195000	       218	80003124	00169933	sll	x18,x13,x1	 x13:0x00000000  x1:0xf2738064 x18=0x00000000
        2205000	       219	80003128	407b5733	sra	x14,x22,x7	 x22:0x00000000  x7:0x80009f78 x14=0x00000000
        2215000	       220	8000312c	069e9f83	lh	x31,105(x29)	 x29:0x80008329 x31=0x00000000 PA:0x80008392
        2225000	       221	80003130	f7de91a3	sh	x29,-157(x29)	 x29:0x80008329 x29:0x80008329 PA:0x8000828c
        2235000	       222	80003134	f8ce8823	sb	x12,-112(x29)	 x29:0x80008329 x12:0x00000000 PA:0x800082b9
        2245000	       223	80003138	01408533	add	x10,x1,x20	  x1:0xf2738064 x20:0x00000000 x10=0xf2738064
        2255000	       224	8000313c	f09e9ca3	sh	x9,-231(x29)	 x29:0x80008329  x9:0x40000000 PA:0x80008242
        2265000	       225	80003140	035ec303	lbu	x6,53(x29)	 x29:0x80008329  x6=0x00000000 PA:0x8000835e
        2275000	       226	80003144	00000013	addi	x0,x0,0	  x0:0x00000000
        2285000	       227	80003148	266e2693	slti	x13,x28,614	 x28:0x80009fc4 x13=0x00000001
        2295000	       228	8000314c	2daa8893	addi	x17,x21,730	 x21:0x00000000 x17=0x000002da
        2305000	       229	80003150	5110ab13	slti	x22,x1,1297	  x1:0xf2738064 x22=0x00000001
        2315000	       230	80003154	01925693	srli	x13,x4,0x19	  x4:0x000007b2 x13=0x00000000
        2325000	       231	80003158	58703813	sltiu	x16,x0,1415	  x0:0x00000000 x16=0x00000001
        2335000	       232	8000315c	009ec803	lbu	x16,9(x29)	 x29:0x80008329 x16=0x00000000 PA:0x80008332
        2345000	       233	80003160	05ee8a03	lb	x20,94(x29)	 x29:0x80008329 x20=0x00000000 PA:0x80008387
        2355000	       234	80003164	01e91793	slli	x15,x18,0x1e	 x18:0x00000000 x15=0x00000000
        2365000	       235	80003168	0089d233	srl	x4,x19,x8	 x19:0x00000001  x8:0x80008358  x4=0x00000000
        2375000	       236	8000316c	f8cec983	lbu	x19,-116(x29)	 x29:0x80008329 x19=0x00000000 PA:0x800082b5
        2385000	       237	80003170	7832a793	slti	x15,x5,1923	  x5:0x80000000 x15=0x00000001
        2395000	       238	80003174	f03e8883	lb	x17,-253(x29)	 x29:0x80008329 x17=0x00000000 PA:0x8000822c
        2405000	       239	80003178	fece87a3	sb	x12,-17(x29)	 x29:0x80008329 x12:0x00000000 PA:0x80008318
        2415000	       240	8000317c	37561a97	auipc	x21,0x37561	 x21=0xb7564178
        2425000	       241	80003180	f91ed403	lhu	x8,-111(x29)	 x29:0x80008329  x8=0x00000000 PA:0x800082ba
        2435000	       242	80003184	fa7e82a3	sb	x7,-91(x29)	 x29:0x80008329  x7:0x80009f78 PA:0x800082ce
        2445000	       243	80003188	0c2e8c03	lb	x24,194(x29)	 x29:0x80008329 x24=0x00000000 PA:0x800083eb
        2455000	       244	8000318c	00006f17	auipc	x30,0x6	 x30=0x80009188
        2465000	       245	80003190	c43f0f13	addi	x30,x30,-957	 x30:0x80009188 x30=0x80008dcb
        2475000	       246	80003194	00a2d733	srl	x14,x5,x10	  x5:0x80000000 x10:0xf2738064 x14=0x08000000
        2485000	       247	80003198	0f7f0303	lb	x6,247(x30)	 x30:0x80008dcb  x6=0x00000000 PA:0x80008ec2
        2495000	       248	8000319c	0036a4b3	slt	x9,x13,x3	 x13:0x00000000  x3:0x00000001  x9=0x00000001
        2505000	       249	800031a0	051f5103	lhu	x2,81(x30)	 x30:0x80008dcb  x2=0x00000000 PA:0x80008e1c
        2515000	       250	800031a4	f8ef07a3	sb	x14,-113(x30)	 x30:0x80008dcb x14:0x08000000 PA:0x80008d5a
        2525000	       251	800031a8	f97f1a83	lh	x21,-105(x30)	 x30:0x80008dcb x21=0x00000000 PA:0x80008d62
        2535000	       252	800031ac	ec736193	ori	x3,x6,-313	  x6:0x00000000  x3=0xfffffec7
        2545000	       253	800031b0	fbbf1e83	lh	x29,-69(x30)	 x30:0x80008dcb x29=0x00000000 PA:0x80008d86
        2555000	       254	800031b4	003ae9b3	or	x19,x21,x3	 x21:0x00000000  x3:0xfffffec7 x19=0xfffffec7
        2565000	       255	800031b8	409a5e93	srai	x29,x20,0x9	 x20:0x00000000 x29=0x00000000
        2575000	       256	800031bc	0aff0783	lb	x15,175(x30)	 x30:0x80008dcb x15=0x00000000 PA:0x80008e7a
        2585000	       257	800031c0	0099dfb3	srl	x31,x19,x9	 x19:0xfffffec7  x9:0x00000001 x31=0x7fffff63
        2595000	       258	800031c4	01e91d93	slli	x27,x18,0x1e	 x18:0x00000000 x27=0x00000000
        2605000	       259	800031c8	f40f0003	lb	x0,-192(x30)	 x30:0x80008dcb PA:0x80008d0b
        2615000	       260	800031cc	01174333	xor	x6,x14,x17	 x14:0x08000000 x17:0x00000000  x6=0x08000000
        2625000	       261	800031d0	a97cf737	lui	x14,0xa97cf	 x14=0xa97cf000
        2635000	       262	800031d4	07df4503	lbu	x10,125(x30)	 x30:0x80008dcb x10=0x00000000 PA:0x80008e48
        2645000	       263	800031d8	e6e0f537	lui	x10,0xe6e0f	 x10=0xe6e0f000
        2655000	       264	800031dc	079f4883	lbu	x17,121(x30)	 x30:0x80008dcb x17=0x00000000 PA:0x80008e44
        2665000	       265	800031e0	013921b3	slt	x3,x18,x19	 x18:0x00000000 x19:0xfffffec7  x3=0x00000000
        2675000	       266	800031e4	2ad33897	auipc	x17,0x2ad33	 x17=0xaad361e0
        2685000	       267	800031e8	fe9f02a3	sb	x9,-27(x30)	 x30:0x80008dcb  x9:0x00000001 PA:0x80008db0
        2695000	       268	800031ec	40085113	srai	x2,x16,0x0	 x16:0x00000000  x2=0x00000000
        2705000	       269	800031f0	00fbe0b3	or	x1,x23,x15	 x23:0x00000000 x15:0x00000000  x1=0x00000000
        2715000	       270	800031f4	f03f09a3	sb	x3,-237(x30)	 x30:0x80008dcb  x3:0x00000000 PA:0x80008cde
        2725000	       271	800031f8	01f21db3	sll	x27,x4,x31	  x4:0x00000000 x31:0x7fffff63 x27=0x00000000
        2735000	       272	800031fc	01e420b3	slt	x1,x8,x30	  x8:0x00000000 x30:0x80008dcb  x1=0x00000000
        2745000	       273	80003200	f3bf4683	lbu	x13,-197(x30)	 x30:0x80008dcb x13=0x00000000 PA:0x80008d06
        2755000	       274	80003204	ba4994b7	lui	x9,0xba499	  x9=0xba499000
        2765000	       275	80003208	41ad5513	srai	x10,x26,0x1a	 x26:0x80009f78 x10=0xffffffe0
        2775000	       276	8000320c	f78f0c83	lb	x25,-136(x30)	 x30:0x80008dcb x25=0x00000000 PA:0x80008d43
        2785000	       277	80003210	01ef0183	lb	x3,30(x30)	 x30:0x80008dcb  x3=0x00000000 PA:0x80008de9
        2795000	       278	80003214	095f5f83	lhu	x31,149(x30)	 x30:0x80008dcb x31=0x00000000 PA:0x80008e60
        2805000	       279	80003218	fbef4483	lbu	x9,-66(x30)	 x30:0x80008dcb  x9=0x00000000 PA:0x80008d89
        2815000	       280	8000321c	00000013	addi	x0,x0,0	  x0:0x00000000
        2825000	       281	80003220	416188b3	sub	x17,x3,x22	  x3:0x00000000 x22:0x00000001 x17=0xffffffff
        2835000	       282	80003224	f90f03a3	sb	x16,-121(x30)	 x30:0x80008dcb x16:0x00000000 PA:0x80008d52
        2845000	       283	80003228	00000013	addi	x0,x0,0	  x0:0x00000000
        2855000	       284	8000322c	010e5fb3	srl	x31,x28,x16	 x28:0x80009fc4 x16:0x00000000 x31=0x80009fc4
        2865000	       285	80003230	f26f16a3	sh	x6,-211(x30)	 x30:0x80008dcb  x6:0x08000000 PA:0x80008cf8
        2875000	       286	80003234	40875213	srai	x4,x14,0x8	 x14:0xa97cf000  x4=0xffa97cf0
        2885000	       287	80003238	0840a693	slti	x13,x1,132	  x1:0x00000000 x13=0x00000001
        2895000	       288	8000323c	00000013	addi	x0,x0,0	  x0:0x00000000
        2905000	       289	80003240	047f5203	lhu	x4,71(x30)	 x30:0x80008dcb  x4=0x00000000 PA:0x80008e12
        2915000	       290	80003244	00bae833	or	x16,x21,x11	 x21:0x00000000 x11:0x00000000 x16=0x00000000
        2925000	       291	80003248	fe4f4a83	lbu	x21,-28(x30)	 x30:0x80008dcb x21=0x00000000 PA:0x80008daf
        2935000	       292	8000324c	04af4483	lbu	x9,74(x30)	 x30:0x80008dcb  x9=0x00000000 PA:0x80008e15
        2945000	       293	80003250	090f4a83	lbu	x21,144(x30)	 x30:0x80008dcb x21=0x00000000 PA:0x80008e5b
        2955000	       294	80003254	fbdf0423	sb	x29,-88(x30)	 x30:0x80008dcb x29:0x00000000 PA:0x80008d73
        2965000	       295	80003258	082f0003	lb	x0,130(x30)	 x30:0x80008dcb PA:0x80008e4d
        2975000	       296	8000325c	001597b3	sll	x15,x11,x1	 x11:0x00000000  x1:0x00000000 x15=0x00000000
        2985000	       297	80003260	0b2f4303	lbu	x6,178(x30)	 x30:0x80008dcb  x6=0x00000000 PA:0x80008e7d
        2995000	       298	80003264	ff3f0123	sb	x19,-30(x30)	 x30:0x80008dcb x19:0xfffffec7 PA:0x80008dad
        3005000	       299	80003268	f88acbb7	lui	x23,0xf88ac	 x23=0xf88ac000
        3015000	       300	8000326c	9e510893	addi	x17,x2,-1563	  x2:0x00000000 x17=0xfffff9e5
        3025000	       301	80003270	f6cf4803	lbu	x16,-148(x30)	 x30:0x80008dcb x16=0x00000000 PA:0x80008d37
        3035000	       302	80003274	f85f1403	lh	x8,-123(x30)	 x30:0x80008dcb  x8=0x00000000 PA:0x80008d50
        3045000	       303	80003278	047f4083	lbu	x1,71(x30)	 x30:0x80008dcb  x1=0x00000000 PA:0x80008e12
        3055000	       304	8000327c	00006a17	auipc	x20,0x6	 x20=0x80009278
        3065000	       305	80003280	a9ba0a13	addi	x20,x20,-1381	 x20:0x80009278 x20=0x80008d13
        3075000	       306	80003284	00ba4703	lbu	x14,11(x20)	 x20:0x80008d13 x14=0x00000000 PA:0x80008d1e
        3085000	       307	80003288	44984db7	lui	x27,0x44984	 x27=0x44984000
        3095000	       308	8000328c	016c9233	sll	x4,x25,x22	 x25:0x00000000 x22:0x00000001  x4=0x00000000
        3105000	       309	80003290	009754b3	srl	x9,x14,x9	 x14:0x00000000  x9:0x00000000  x9=0x00000000
        3115000	       310	80003294	fcfa0883	lb	x17,-49(x20)	 x20:0x80008d13 x17=0x00000000 PA:0x80008ce2
        3125000	       311	80003298	40730933	sub	x18,x6,x7	  x6:0x00000000  x7:0x80009f78 x18=0x7fff6088
        3135000	       312	8000329c	01da0603	lb	x12,29(x20)	 x20:0x80008d13 x12=0x00000000 PA:0x80008d30
        3145000	       313	800032a0	ff2a4a83	lbu	x21,-14(x20)	 x20:0x80008d13 x21=0x00000000 PA:0x80008d05
        3155000	       314	800032a4	fdaa4003	lbu	x0,-38(x20)	 x20:0x80008d13 PA:0x80008ced
        3165000	       315	800032a8	01041813	slli	x16,x8,0x10	  x8:0x00000000 x16=0x00000000
        3175000	       316	800032ac	41e7d033	sra	x0,x15,x30	 x15:0x00000000 x30:0x80008dcb
        3185000	       317	800032b0	008a4683	lbu	x13,8(x20)	 x20:0x80008d13 x13=0x00000000 PA:0x80008d1b
        3195000	       318	800032b4	0075bfb3	sltu	x31,x11,x7	 x11:0x00000000  x7:0x80009f78 x31=0x00000001
        3205000	       319	800032b8	00d1f333	and	x6,x3,x13	  x3:0x00000000 x13:0x00000000  x6=0x00000000
        3215000	       320	800032bc	ffca0423	sb	x28,-24(x20)	 x20:0x80008d13 x28:0x80009fc4 PA:0x80008cfb
        3225000	       321	800032c0	00ea4783	lbu	x15,14(x20)	 x20:0x80008d13 x15=0x00000000 PA:0x80008d21
        3235000	       322	00000000	00000013	addi	x0,x0,0	  x0:0x00000000
        3245000	       323	800032c4	01b79833	sll	x16,x15,x27	 x15:0x00000000 x27:0x44984000 x16=0x00000000
        3255000	       324	800032c8	849b3f13	sltiu	x30,x22,-1975	 x22:0x00000001 x30=0x00000001
        3265000	       325	800032cc	0032fdb3	and	x27,x5,x3	  x5:0x80000000  x3:0x00000000 x27=0x00000000
        3275000	       326	800032d0	019a4b03	lbu	x22,25(x20)	 x20:0x80008d13 x22=0x00000000 PA:0x80008d2c
        3285000	       327	800032d4	65298b13	addi	x22,x19,1618	 x19:0xfffffec7 x22=0x00000519
        3295000	       328	800032d8	0078e933	or	x18,x17,x7	 x17:0x00000000  x7:0x80009f78 x18=0x80009f78
        3305000	       329	800032dc	fc5a2183	lw	x3,-59(x20)	 x20:0x80008d13  x3=0x00000000 PA:0x80008cd8
        3315000	       330	800032e0	0120d093	srli	x1,x1,0x12	  x1:0x00000000  x1=0x00000000
        3325000	       331	800032e4	01ed9793	slli	x15,x27,0x1e	 x27:0x00000000 x15=0x00000000
        3335000	       332	800032e8	00b79893	slli	x17,x15,0xb	 x15:0x00000000 x17=0x00000000
        3345000	       333	800032ec	01ba5a83	lhu	x21,27(x20)	 x20:0x80008d13 x21=0x00000000 PA:0x80008d2e
        3355000	       334	800032f0	00005897	auipc	x17,0x5	 x17=0x800082ec
        3365000	       335	800032f4	7b588893	addi	x17,x17,1973	 x17:0x800082ec x17=0x80008aa1
        3375000	       336	800032f8	08c88923	sb	x12,146(x17)	 x17:0x80008aa1 x12:0x00000000 PA:0x80008b33
        3385000	       337	800032fc	41495233	sra	x4,x18,x20	 x18:0x80009f78 x20:0x80008d13  x4=0xfffff000
        3395000	       338	80003300	05888a83	lb	x21,88(x17)	 x17:0x80008aa1 x21=0x00000000 PA:0x80008af9
        3405000	       339	00000000	00000013	addi	x0,x0,0	  x0:0x00000000
        3415000	       340	80003304	fd588223	sb	x21,-60(x17)	 x17:0x80008aa1 x21:0x00000000 PA:0x80008a65
        3425000	       341	80003308	017a8b33	add	x22,x21,x23	 x21:0x00000000 x23:0xf88ac000 x22=0xf88ac000
        3435000	       342	8000330c	019d60b3	or	x1,x26,x25	 x26:0x80009f78 x25:0x00000000  x1=0x80009f78
        3445000	       343	80003310	0056f4b3	and	x9,x13,x5	 x13:0x00000000  x5:0x80000000  x9=0x00000000
        3455000	       344	80003314	04e88c23	sb	x14,88(x17)	 x17:0x80008aa1 x14:0x00000000 PA:0x80008af9
        3465000	       345	80003318	c2014813	xori	x16,x2,-992	  x2:0x00000000 x16=0xfffffc20
        3475000	       346	8000331c	6c81a613	slti	x12,x3,1736	  x3:0x00000000 x12=0x00000001
        3485000	       347	80003320	01040cb3	add	x25,x8,x16	  x8:0x00000000 x16:0xfffffc20 x25=0xfffffc20
        3495000	       348	80003324	0177cb33	xor	x22,x15,x23	 x15:0x00000000 x23:0xf88ac000 x22=0xf88ac000
        3505000	       349	80003328	019fa033	slt	x0,x31,x25	 x31:0x00000001 x25:0xfffffc20
        3515000	       350	8000332c	fef88623	sb	x15,-20(x17)	 x17:0x80008aa1 x15:0x00000000 PA:0x80008a8d
        3525000	       351	80003330	db017697	auipc	x13,0xdb017	 x13=0x5b01a32c
        3535000	       352	80003334	00e93a33	sltu	x20,x18,x14	 x18:0x80009f78 x14:0x00000000 x20=0x00000000
        3545000	       353	80003338	00de6033	or	x0,x28,x13	 x28:0x80009fc4 x13:0x5b01a32c
        3555000	       354	8000333c	2a0b3b13	sltiu	x22,x22,672	 x22:0xf88ac000 x22=0x00000000
        3565000	       355	80003340	fa38a003	lw	x0,-93(x17)	 x17:0x80008aa1 PA:0x80008a44
        3575000	       356	80003344	03ed7693	andi	x13,x26,62	 x26:0x80009f78 x13=0x00000038
        3585000	       357	80003348	01bc5113	srli	x2,x24,0x1b	 x24:0x00000000  x2=0x00000000
        3595000	       358	8000334c	00000013	addi	x0,x0,0	  x0:0x00000000
        3605000	       359	80003350	08389da3	sh	x3,155(x17)	 x17:0x80008aa1  x3:0x00000000 PA:0x80008b3c
        3615000	       360	80003354	73400c13	addi	x24,x0,1844	  x0:0x00000000 x24=0x00000734
        3625000	       361	80003358	d1378993	addi	x19,x15,-749	 x15:0x00000000 x19=0xfffffd13
        3635000	       362	8000335c	0488cf03	lbu	x30,72(x17)	 x17:0x80008aa1 x30=0x00000000 PA:0x80008ae9
        3645000	       363	80003360	6e5e0613	addi	x12,x28,1765	 x28:0x80009fc4 x12=0x8000a6a9
        3655000	       364	80003364	91042913	slti	x18,x8,-1776	  x8:0x00000000 x18=0x00000000
        3665000	       365	80003368	00adadb3	slt	x27,x27,x10	 x27:0x00000000 x10:0xffffffe0 x27=0x00000000
        3675000	       366	8000336c	41450bb3	sub	x23,x10,x20	 x10:0xffffffe0 x20:0x00000000 x23=0xffffffe0
        3685000	       367	80003370	f7588c03	lb	x24,-139(x17)	 x17:0x80008aa1 x24=0x00000000 PA:0x80008a16
        3695000	       368	80003374	00502cb3	slt	x25,x0,x5	  x0:0x00000000  x5:0x80000000 x25=0x00000000
        3705000	       369	80003378	00c46733	or	x14,x8,x12	  x8:0x00000000 x12:0x8000a6a9 x14=0x8000a6a9
        3715000	       370	8000337c	002ad9b3	srl	x19,x21,x2	 x21:0x00000000  x2:0x00000000 x19=0x00000000
        3725000	       371	80003380	d8cbac13	slti	x24,x23,-628	 x23:0xffffffe0 x24=0x00000000
        3735000	       372	80003384	0848cb83	lbu	x23,132(x17)	 x17:0x80008aa1 x23=0x00000000 PA:0x80008b25
        3745000	       373	80003388	0f88c183	lbu	x3,248(x17)	 x17:0x80008aa1  x3=0x00000000 PA:0x80008b99
        3755000	       374	8000338c	2594c313	xori	x6,x9,601	  x9:0x00000000  x6=0x00000259
        3765000	       375	80003390	41820833	sub	x16,x4,x24	  x4:0xfffff000 x24:0x00000000 x16=0xfffff000
        3775000	       376	80003394	02488423	sb	x4,40(x17)	 x17:0x80008aa1  x4:0xfffff000 PA:0x80008ac9
        3785000	       377	80003398	313e6c97	auipc	x25,0x313e6	 x25=0xb13e9394
        3795000	       378	8000339c	01e88583	lb	x11,30(x17)	 x17:0x80008aa1 x11=0x00000000 PA:0x80008abf
        3805000	       379	800033a0	52266093	ori	x1,x12,1314	 x12:0x8000a6a9  x1=0x8000a7ab
        3815000	       380	800033a4	0053d113	srli	x2,x7,0x5	  x7:0x80009f78  x2=0x040004fb
        3825000	       381	800033a8	00974f33	xor	x30,x14,x9	 x14:0x8000a6a9  x9:0x00000000 x30=0x8000a6a9
        3835000	       382	800033ac	04888063	beq	x17,x8,800033ec	 x17:0x80008aa1  x8:0x00000000
        3845000	       383	800033b0	0111f463	bgeu	x3,x17,800033b8	  x3:0x00000000 x17:0x80008aa1
        3855000	       384	800033b4	2bd42493	slti	x9,x8,701	  x8:0x00000000  x9=0x00000001
        3865000	       385	800033b8	faa17093	andi	x1,x2,-86	  x2:0x040004fb  x1=0x040004aa
        3875000	       386	800033bc	000685b3	add	x11,x13,x0	 x13:0x00000038  x0:0x00000000 x11=0x00000038
        3885000	       387	800033c0	016cd9b3	srl	x19,x25,x22	 x25:0xb13e9394 x22:0x00000000 x19=0xb13e9394
        3895000	       388	800033c4	00e718b3	sll	x17,x14,x14	 x14:0x8000a6a9 x14:0x8000a6a9 x17=0x014d5200
        3905000	       389	800033c8	00f10833	add	x16,x2,x15	  x2:0x040004fb x15:0x00000000 x16=0x040004fb
        3915000	       390	800033cc	01f72f33	slt	x30,x14,x31	 x14:0x8000a6a9 x31:0x00000001 x30=0x00000001
        3925000	       391	800033d0	40ca0bb3	sub	x23,x20,x12	 x20:0x00000000 x12:0x8000a6a9 x23=0x7fff5957
        3935000	       392	800033d4	0044e633	or	x12,x9,x4	  x9:0x00000001  x4:0xfffff000 x12=0xfffff001
        3945000	       393	800033d8	0045f1b3	and	x3,x11,x4	 x11:0x00000038  x4:0xfffff000  x3=0x00000000
        3955000	       394	800033dc	02989c63	bne	x17,x9,80003414	 x17:0x014d5200  x9:0x00000001
        3965000	       395	00000000	00000013	addi	x0,x0,0	  x0:0x00000000
        3975000	       396	80003410	00000013	addi	x0,x0,0	  x0:0x00000000
        3985000	       397	80003414	d91b7017	auipc	x0,0xd91b7	
        3995000	       398	80003418	6ee67113	andi	x2,x12,1774	 x12:0xfffff001  x2=0x00000000
        4005000	       399	8000341c	03687e63	bgeu	x16,x22,80003458	 x16:0x040004fb x22:0x00000000
        4015000	       400	00000000	00000013	addi	x0,x0,0	  x0:0x00000000
        4025000	       401	80003454	00000013	addi	x0,x0,0	  x0:0x00000000
        4035000	       402	80003458	d5fae913	ori	x18,x21,-673	 x21:0x00000000 x18=0xfffffd5f
        4045000	       403	8000345c	015447b3	xor	x15,x8,x21	  x8:0x00000000 x21:0x00000000 x15=0x00000000
        4055000	       404	80003460	01abc633	xor	x12,x23,x26	 x23:0x7fff5957 x26:0x80009f78 x12=0xffffc62f
        4065000	       405	80003464	00a95e93	srli	x29,x18,0xa	 x18:0xfffffd5f x29=0x003fffff
        4075000	       406	80003468	02d3cc63	blt	x7,x13,800034a0	  x7:0x80009f78 x13:0x00000038
        4085000	       407	00000000	00000013	addi	x0,x0,0	  x0:0x00000000
        4095000	       408	8000349c	00000013	addi	x0,x0,0	  x0:0x00000000
        4105000	       409	800034a0	15043817	auipc	x16,0x15043	 x16=0x9504649c
        4115000	       410	800034a4	031d8863	beq	x27,x17,800034d4	 x27:0x00000000 x17:0x014d5200
        4125000	       411	800034a8	948c47b7	lui	x15,0x948c4	 x15=0x948c4000
        4135000	       412	800034ac	00e01f93	slli	x31,x0,0xe	  x0:0x00000000 x31=0x00000000
        4145000	       413	800034b0	0e7a6913	ori	x18,x20,231	 x20:0x00000000 x18=0x000000e7
        4155000	       414	800034b4	02d84063	blt	x16,x13,800034d4	 x16:0x9504649c x13:0x00000038
        4165000	       415	00000000	00000013	addi	x0,x0,0	  x0:0x00000000
        4175000	       416	800034d0	00000013	addi	x0,x0,0	  x0:0x00000000
        4185000	       417	800034d4	013b5713	srli	x14,x22,0x13	 x22:0x00000000 x14=0x00000000
        4195000	       418	800034d8	005c7fb3	and	x31,x24,x5	 x24:0x00000000  x5:0x80000000 x31=0x00000000
        4205000	       419	800034dc	01ebdab3	srl	x21,x23,x30	 x23:0x7fff5957 x30:0x00000001 x21=0x3fffacab
        4215000	       420	800034e0	19847213	andi	x4,x8,408	  x8:0x00000000  x4=0x00000000
        4225000	       421	800034e4	8e562493	slti	x9,x12,-1819	 x12:0xffffc62f  x9=0x00000001
        4235000	       422	800034e8	410487b3	sub	x15,x9,x16	  x9:0x00000001 x16:0x9504649c x15=0x6afb9b65
        4245000	       423	800034ec	3adef813	andi	x16,x29,941	 x29:0x003fffff x16=0x000003ad
        4255000	       424	800034f0	002d0233	add	x4,x26,x2	 x26:0x80009f78  x2:0x00000000  x4=0x80009f78
        4265000	       425	800034f4	01375233	srl	x4,x14,x19	 x14:0x00000000 x19:0xb13e9394  x4=0x00000000
        4275000	       426	800034f8	5ea87093	andi	x1,x16,1514	 x16:0x000003ad  x1=0x000001a8
        4285000	       427	800034fc	40bf8433	sub	x8,x31,x11	 x31:0x00000000 x11:0x00000038  x8=0xffffffc8
        4295000	       428	80003500	00000013	addi	x0,x0,0	  x0:0x00000000
        4305000	       429	80003504	0168d663	bge	x17,x22,80003510	 x17:0x014d5200 x22:0x00000000
        4315000	       430	00000000	00000013	addi	x0,x0,0	  x0:0x00000000
        4325000	       431	8000350c	00000013	addi	x0,x0,0	  x0:0x00000000
        4335000	       432	80003510	d74ae313	ori	x6,x21,-652	 x21:0x3fffacab  x6=0xfffffdff
        4345000	       433	80003514	4117d193	srai	x3,x15,0x11	 x15:0x6afb9b65  x3=0x0000357d
        4355000	       434	80003518	00be3433	sltu	x8,x28,x11	 x28:0x80009fc4 x11:0x00000038  x8=0x00000000
        4365000	       435	8000351c	03fb9863	bne	x23,x31,8000354c	 x23:0x7fff5957 x31:0x00000000
        4375000	       436	00000000	00000013	addi	x0,x0,0	  x0:0x00000000
        4385000	       437	80003548	00000013	addi	x0,x0,0	  x0:0x00000000
        4395000	       438	8000354c	00e95813	srli	x16,x18,0xe	 x18:0x000000e7 x16=0x00000000
        4405000	       439	80003550	00000013	addi	x0,x0,0	  x0:0x00000000
        4415000	       440	80003554	00f509b3	add	x19,x10,x15	 x10:0xffffffe0 x15:0x6afb9b65 x19=0x6afb9b45
        4425000	       441	80003558	01db8033	add	x0,x23,x29	 x23:0x7fff5957 x29:0x003fffff
        4435000	       442	8000355c	00281c33	sll	x24,x16,x2	 x16:0x00000000  x2:0x00000000 x24=0x00000000
        4445000	       443	80003560	305ee913	ori	x18,x29,773	 x29:0x003fffff x18=0x003fffff
        4455000	       444	80003564	400a5893	srai	x17,x20,0x0	 x20:0x00000000 x17=0x00000000
        4465000	       445	80003568	5ee57c13	andi	x24,x10,1518	 x10:0xffffffe0 x24=0x000005e0
        4475000	       446	8000356c	00f357b3	srl	x15,x6,x15	  x6:0xfffffdff x15:0x6afb9b65 x15=0x07ffffef
        4485000	       447	80003570	017d8e63	beq	x27,x23,8000358c	 x27:0x00000000 x23:0x7fff5957
        4495000	       448	80003574	803a6093	ori	x1,x20,-2045	 x20:0x00000000  x1=0xfffff803
        4505000	       449	80003578	015796b3	sll	x13,x15,x21	 x15:0x07ffffef x21:0x3fffacab x13=0xffff7800
        4515000	       450	8000357c	00117863	bgeu	x2,x1,8000358c	  x2:0x00000000  x1:0xfffff803
        4525000	       451	80003580	e4032013	slti	x0,x6,-448	  x6:0xfffffdff
        4535000	       452	80003584	011277b3	and	x15,x4,x17	  x4:0x00000000 x17:0x00000000 x15=0x00000000
        4545000	       453	80003588	01b5de63	bge	x11,x27,800035a4	 x11:0x00000038 x27:0x00000000
        4555000	       454	00000000	00000013	addi	x0,x0,0	  x0:0x00000000
        4565000	       455	800035a0	00000013	addi	x0,x0,0	  x0:0x00000000
        4575000	       456	800035a4	7a132417	auipc	x8,0x7a132	  x8=0xfa1355a0
        4585000	       457	800035a8	01d044b3	xor	x9,x0,x29	  x0:0x00000000 x29:0x003fffff  x9=0x003fffff
        4595000	       458	800035ac	01f55013	srli	x0,x10,0x1f	 x10:0xffffffe0
        4605000	       459	800035b0	df77b313	sltiu	x6,x15,-521	 x15:0x00000000  x6=0x00000001
        4615000	       460	800035b4	1291a7b7	lui	x15,0x1291a	 x15=0x1291a000
        4625000	       461	800035b8	37441a37	lui	x20,0x37441	 x20=0x37441000
        4635000	       462	800035bc	a8667793	andi	x15,x12,-1402	 x12:0xffffc62f x15=0xffffc206
        4645000	       463	800035c0	04294063	blt	x18,x2,80003600	 x18:0x003fffff  x2:0x00000000
        4655000	       464	800035c4	02f40a63	beq	x8,x15,800035f8	  x8:0xfa1355a0 x15:0xffffc206
        4665000	       465	800035c8	c7b68e97	auipc	x29,0xc7b68	 x29=0x47b6b5c4
        4675000	       466	800035cc	0022a233	slt	x4,x5,x2	  x5:0x80000000  x2:0x00000000  x4=0x00000001
        4685000	       467	800035d0	01795b93	srli	x23,x18,0x17	 x18:0x003fffff x23=0x00000000
        4695000	       468	800035d4	01dd0333	add	x6,x26,x29	 x26:0x80009f78 x29:0x47b6b5c4  x6=0xc7b7553c
        4705000	       469	800035d8	00c6c8b3	xor	x17,x13,x12	 x13:0xffff7800 x12:0xffffc62f x17=0x0000be2f
        4715000	       470	800035dc	00f1c533	xor	x10,x3,x15	  x3:0x0000357d x15:0xffffc206 x10=0xfffff77b
        4725000	       471	800035e0	036a8a63	beq	x21,x22,80003614	 x21:0x3fffacab x22:0x00000000
        4735000	       472	800035e4	04558863	beq	x11,x5,80003634	 x11:0x00000038  x5:0x80000000
        4745000	       473	800035e8	412a5c33	sra	x24,x20,x18	 x20:0x37441000 x18:0x003fffff x24=0x00000000
        4755000	       474	800035ec	41185413	srai	x8,x16,0x11	 x16:0x00000000  x8=0x00000000
        4765000	       475	800035f0	002baa33	slt	x20,x23,x2	 x23:0x00000000  x2:0x00000000 x20=0x00000000
        4775000	       476	800035f4	21393093	sltiu	x1,x18,531	 x18:0x003fffff  x1=0x00000000
        4785000	       477	800035f8	02870a63	beq	x14,x8,8000362c	 x14:0x00000000  x8:0x00000000
        4795000	       478	00000000	00000013	addi	x0,x0,0	  x0:0x00000000
        4805000	       479	80003628	00000013	addi	x0,x0,0	  x0:0x00000000
        4815000	       480	8000362c	016c6db3	or	x27,x24,x22	 x24:0x00000000 x22:0x00000000 x27=0x00000000
        4825000	       481	80003630	d728f417	auipc	x8,0xd728f	  x8=0x5729262c
        4835000	       482	80003634	01346133	or	x2,x8,x19	  x8:0x5729262c x19:0x6afb9b45  x2=0x7ffbbf6d
        4845000	       483	80003638	00c7c6b3	xor	x13,x15,x12	 x15:0xffffc206 x12:0xffffc62f x13=0x00000429
        4855000	       484	8000363c	01768833	add	x16,x13,x23	 x13:0x00000429 x23:0x00000000 x16=0x00000429
        4865000	       485	80003640	409e56b3	sra	x13,x28,x9	 x28:0x80009fc4  x9:0x003fffff x13=0xffffffff
        4875000	       486	80003644	4104d413	srai	x8,x9,0x10	  x9:0x003fffff  x8=0x0000003f
        4885000	       487	80003648	00a061b3	or	x3,x0,x10	  x0:0x00000000 x10:0xfffff77b  x3=0xfffff77b
        4895000	       488	8000364c	01cf9463	bne	x31,x28,80003654	 x31:0x00000000 x28:0x80009fc4
        4905000	       489	00000000	00000013	addi	x0,x0,0	  x0:0x00000000
        4915000	       490	80003650	00000013	addi	x0,x0,0	  x0:0x00000000
        4925000	       491	80003654	6a2e6637	lui	x12,0x6a2e6	 x12=0x6a2e6000
        4935000	       492	80003658	00743c33	sltu	x24,x8,x7	  x8:0x0000003f  x7:0x80009f78 x24=0x00000001
        4945000	       493	8000365c	0191d313	srli	x6,x3,0x19	  x3:0xfffff77b  x6=0x0000007f
        4955000	       494	80003660	0010d4b3	srl	x9,x1,x1	  x1:0x00000000  x1:0x00000000  x9=0x00000000
        4965000	       495	80003664	01d6fab3	and	x21,x13,x29	 x13:0xffffffff x29:0x47b6b5c4 x21=0x47b6b5c4
        4975000	       496	80003668	01162033	slt	x0,x12,x17	 x12:0x6a2e6000 x17:0x0000be2f
        4985000	       497	8000366c	409e5db3	sra	x27,x28,x9	 x28:0x80009fc4  x9:0x00000000 x27=0x80009fc4
        4995000	       498	80003670	00000013	addi	x0,x0,0	  x0:0x00000000
        5005000	       499	80003674	93feb037	lui	x0,0x93feb	
        5015000	       500	80003678	2ad0b313	sltiu	x6,x1,685	  x1:0x00000000  x6=0x00000001
        5025000	       501	8000367c	05a9d063	bge	x19,x26,800036bc	 x19:0x6afb9b45 x26:0x80009f78
        5035000	       502	00000000	00000013	addi	x0,x0,0	  x0:0x00000000
        5045000	       503	800036b8	00000013	addi	x0,x0,0	  x0:0x00000000
        5055000	       504	800036bc	dd3f2937	lui	x18,0xdd3f2	 x18=0xdd3f2000
        5065000	       505	800036c0	01e8c7b3	xor	x15,x17,x30	 x17:0x0000be2f x30:0x00000001 x15=0x0000be2e
        5075000	       506	800036c4	00adc463	blt	x27,x10,800036cc	 x27:0x80009fc4 x10:0xfffff77b
        5085000	       507	00000000	00000013	addi	x0,x0,0	  x0:0x00000000
        5095000	       508	800036c8	00000013	addi	x0,x0,0	  x0:0x00000000
        5105000	       509	800036cc	01ed16b3	sll	x13,x26,x30	 x26:0x80009f78 x30:0x00000001 x13=0x00013ef0
        5115000	       510	800036d0	0b35c663	blt	x11,x19,8000377c	 x11:0x00000038 x19:0x6afb9b45
        5125000	       511	00000000	00000013	addi	x0,x0,0	  x0:0x00000000
        5135000	       512	80003778	00000013	addi	x0,x0,0	  x0:0x00000000
        5145000	       513	8000377c	0077eb33	or	x22,x15,x7	 x15:0x0000be2e  x7:0x80009f78 x22=0x8000bf7e
        5155000	       514	80003780	61696513	ori	x10,x18,1558	 x18:0xdd3f2000 x10=0xdd3f2616
        5165000	       515	80003784	00000013	addi	x0,x0,0	  x0:0x00000000
        5175000	       516	80003788	00ec4633	xor	x12,x24,x14	 x24:0x00000001 x14:0x00000000 x12=0x00000001
        5185000	       517	8000378c	7b686713	ori	x14,x16,1974	 x16:0x00000429 x14=0x000007bf
        5195000	       518	80003790	00c944b3	xor	x9,x18,x12	 x18:0xdd3f2000 x12:0x00000001  x9=0xdd3f2001
        5205000	       519	80003794	00ad24b3	slt	x9,x26,x10	 x26:0x80009f78 x10:0xdd3f2616  x9=0x00000001
        5215000	       520	80003798	41750833	sub	x16,x10,x23	 x10:0xdd3f2616 x23:0x00000000 x16=0xdd3f2616
        5225000	       521	8000379c	04c48863	beq	x9,x12,800037ec	  x9:0x00000001 x12:0x00000001
        5235000	       522	00000000	00000013	addi	x0,x0,0	  x0:0x00000000
        5245000	       523	800037e8	00000013	addi	x0,x0,0	  x0:0x00000000
        5255000	       524	800037ec	408a5093	srai	x1,x20,0x8	 x20:0x00000000  x1=0x00000000
        5265000	       525	800037f0	4745bb13	sltiu	x22,x11,1140	 x11:0x00000038 x22=0x00000001
        5275000	       526	800037f4	00ea7ab3	and	x21,x20,x14	 x20:0x00000000 x14:0x000007bf x21=0x00000000
        5285000	       527	800037f8	016bd4b3	srl	x9,x23,x22	 x23:0x00000000 x22:0x00000001  x9=0x00000000
        5295000	       528	800037fc	fb00ec93	ori	x25,x1,-80	  x1:0x00000000 x25=0xffffffb0
        5305000	       529	80003800	006414b3	sll	x9,x8,x6	  x8:0x0000003f  x6:0x00000001  x9=0x0000007e
        5315000	       530	80003804	13a2e737	lui	x14,0x13a2e	 x14=0x13a2e000
        5325000	       531	80003808	01304633	xor	x12,x0,x19	  x0:0x00000000 x19:0x6afb9b45 x12=0x6afb9b45
        5335000	       532	8000380c	460cf817	auipc	x16,0x460cf	 x16=0xc60d2808
        5345000	       533	80003810	052df063	bgeu	x27,x18,80003850	 x27:0x80009fc4 x18:0xdd3f2000
        5355000	       534	80003814	412a5613	srai	x12,x20,0x12	 x20:0x00000000 x12=0x00000000
        5365000	       535	80003818	0240fa63	bgeu	x1,x4,8000384c	  x1:0x00000000  x4:0x00000001
        5375000	       536	8000381c	00d5a633	slt	x12,x11,x13	 x11:0x00000038 x13:0x00013ef0 x12=0x00000001
        5385000	       537	80003820	40b35133	sra	x2,x6,x11	  x6:0x00000001 x11:0x00000038  x2=0x00000000
        5395000	       538	80003824	0198bab3	sltu	x21,x17,x25	 x17:0x0000be2f x25:0xffffffb0 x21=0x00000001
        5405000	       539	80003828	001cd013	srli	x0,x25,0x1	 x25:0xffffffb0
        5415000	       540	8000382c	016269b3	or	x19,x4,x22	  x4:0x00000001 x22:0x00000001 x19=0x00000001
        5425000	       541	80003830	02e1d863	bge	x3,x14,80003860	  x3:0xfffff77b x14:0x13a2e000
        5435000	       542	80003834	40580eb3	sub	x29,x16,x5	 x16:0xc60d2808  x5:0x80000000 x29=0x460d2808
        5445000	       543	80003838	03ba9863	bne	x21,x27,80003868	 x21:0x00000001 x27:0x80009fc4
        5455000	       544	00000000	00000013	addi	x0,x0,0	  x0:0x00000000
        5465000	       545	80003864	00000013	addi	x0,x0,0	  x0:0x00000000
        5475000	       546	80003868	00852c13	slti	x24,x10,8	 x10:0xdd3f2616 x24=0x00000001
        5485000	       547	8000386c	01add333	srl	x6,x27,x26	 x27:0x80009fc4 x26:0x80009f78  x6=0x00000080
        5495000	       548	80003870	019fd9b3	srl	x19,x31,x25	 x31:0x00000000 x25:0xffffffb0 x19=0x00000000
        5505000	       549	80003874	00000013	addi	x0,x0,0	  x0:0x00000000
        5515000	       550	80003878	01c694b3	sll	x9,x13,x28	 x13:0x00013ef0 x28:0x80009fc4  x9=0x0013ef00
        5525000	       551	8000387c	018b55b3	srl	x11,x22,x24	 x22:0x00000001 x24:0x00000001 x11=0x00000000
        5535000	       552	80003880	adec5a97	auipc	x21,0xadec5	 x21=0x2dec887c
        5545000	       553	80003884	88e1fa93	andi	x21,x3,-1906	  x3:0xfffff77b x21=0xfffff00a
        5555000	       554	80003888	77e9f113	andi	x2,x19,1918	 x19:0x00000000  x2=0x00000000
        5565000	       555	8000388c	df4e85b7	lui	x11,0xdf4e8	 x11=0xdf4e8000
        5575000	       556	80003890	0d136113	ori	x2,x6,209	  x6:0x00000080  x2=0x000000d1
        5585000	       557	80003894	413c5093	srai	x1,x24,0x13	 x24:0x00000001  x1=0x00000000
        5595000	       558	80003898	018b7663	bgeu	x22,x24,800038a4	 x22:0x00000001 x24:0x00000001
        5605000	       559	00000000	00000013	addi	x0,x0,0	  x0:0x00000000
        5615000	       560	800038a0	00000013	addi	x0,x0,0	  x0:0x00000000
        5625000	       561	800038a4	019a5fb3	srl	x31,x20,x25	 x20:0x00000000 x25:0xffffffb0 x31=0x00000000
        5635000	       562	800038a8	02f0cc63	blt	x1,x15,800038e0	  x1:0x00000000 x15:0x0000be2e
        5645000	       563	00000000	00000013	addi	x0,x0,0	  x0:0x00000000
        5655000	       564	800038dc	00000013	addi	x0,x0,0	  x0:0x00000000
        5665000	       565	800038e0	029e7663	bgeu	x28,x9,8000390c	 x28:0x80009fc4  x9:0x0013ef00
        5675000	       566	00000000	00000013	addi	x0,x0,0	  x0:0x00000000
        5685000	       567	80003908	00000013	addi	x0,x0,0	  x0:0x00000000
        5695000	       568	8000390c	003b15b3	sll	x11,x22,x3	 x22:0x00000001  x3:0xfffff77b x11=0x08000000
        5705000	       569	80003910	00892433	slt	x8,x18,x8	 x18:0xdd3f2000  x8:0x0000003f  x8=0x00000001
        5715000	       570	80003914	0b237193	andi	x3,x6,178	  x6:0x00000080  x3=0x00000080
        5725000	       571	80003918	01ea6933	or	x18,x20,x30	 x20:0x00000000 x30:0x00000001 x18=0x00000001
        5735000	       572	8000391c	01d25eb3	srl	x29,x4,x29	  x4:0x00000001 x29:0x460d2808 x29=0x00000000
        5745000	       573	80003920	007e3833	sltu	x16,x28,x7	 x28:0x80009fc4  x7:0x80009f78 x16=0x00000000
        5755000	       574	80003924	03015c63	bge	x2,x16,8000395c	  x2:0x000000d1 x16:0x00000000
        5765000	       575	00000000	00000013	addi	x0,x0,0	  x0:0x00000000
        5775000	       576	80003958	00000013	addi	x0,x0,0	  x0:0x00000000
        5785000	       577	8000395c	00000013	addi	x0,x0,0	  x0:0x00000000
        5795000	       578	80003960	0f806f13	ori	x30,x0,248	  x0:0x00000000 x30=0x000000f8
        5805000	       579	80003964	00d45933	srl	x18,x8,x13	  x8:0x00000001 x13:0x00013ef0 x18=0x00000000
        5815000	       580	80003968	0676fa13	andi	x20,x13,103	 x13:0x00013ef0 x20=0x00000060
        5825000	       581	8000396c	4031d5b3	sra	x11,x3,x3	  x3:0x00000080  x3:0x00000080 x11=0x00000080
        5835000	       582	80003970	a1812313	slti	x6,x2,-1512	  x2:0x000000d1  x6=0x00000000
        5845000	       583	80003974	04eee863	bltu	x29,x14,800039c4	 x29:0x00000000 x14:0x13a2e000
        5855000	       584	00000000	00000013	addi	x0,x0,0	  x0:0x00000000
        5865000	       585	800039c0	00000013	addi	x0,x0,0	  x0:0x00000000
        5875000	       586	800039c4	01b39c63	bne	x7,x27,800039dc	  x7:0x80009f78 x27:0x80009fc4
        5885000	       587	00000000	00000013	addi	x0,x0,0	  x0:0x00000000
        5895000	       588	800039d8	00000013	addi	x0,x0,0	  x0:0x00000000
        5905000	       589	800039dc	01b8afb3	slt	x31,x17,x27	 x17:0x0000be2f x27:0x80009fc4 x31=0x00000000
        5915000	       590	800039e0	7a7b2993	slti	x19,x22,1959	 x22:0x00000001 x19=0x00000001
        5925000	       591	800039e4	41320a33	sub	x20,x4,x19	  x4:0x00000001 x19:0x00000001 x20=0x00000000
        5935000	       592	800039e8	b1d93093	sltiu	x1,x18,-1251	 x18:0x00000000  x1=0x00000001
        5945000	       593	800039ec	005d76b3	and	x13,x26,x5	 x26:0x80009f78  x5:0x80000000 x13=0x80000000
        5955000	       594	800039f0	412c04b3	sub	x9,x24,x18	 x24:0x00000001 x18:0x00000000  x9=0x00000001
        5965000	       595	800039f4	41d3df33	sra	x30,x7,x29	  x7:0x80009f78 x29:0x00000000 x30=0x80009f78
        5975000	       596	800039f8	02034c63	blt	x6,x0,80003a30	  x6:0x00000000  x0:0x00000000
        5985000	       597	800039fc	40760233	sub	x4,x12,x7	 x12:0x00000001  x7:0x80009f78  x4=0x7fff6089
        5995000	       598	80003a00	aa6c7137	lui	x2,0xaa6c7	  x2=0xaa6c7000
        6005000	       599	80003a04	3053f713	andi	x14,x7,773	  x7:0x80009f78 x14=0x00000300
        6015000	       600	80003a08	402883b3	sub	x7,x17,x2	 x17:0x0000be2f  x2:0xaa6c7000  x7=0x55944e2f
        6025000	       601	80003a0c	002725b3	slt	x11,x14,x2	 x14:0x00000300  x2:0xaa6c7000 x11=0x00000000
        6035000	       602	80003a10	412d8133	sub	x2,x27,x18	 x27:0x80009fc4 x18:0x00000000  x2=0x80009fc4
        6045000	       603	80003a14	6487e913	ori	x18,x15,1608	 x15:0x0000be2e x18=0x0000be6e
        6055000	       604	80003a18	41f15313	srai	x6,x2,0x1f	  x2:0x80009fc4  x6=0xffffffff
        6065000	       605	80003a1c	0129fa33	and	x20,x19,x18	 x19:0x00000001 x18:0x0000be6e x20=0x00000000
        6075000	       606	80003a20	8871a193	slti	x3,x3,-1913	  x3:0x00000080  x3=0x00000000
        6085000	       607	80003a24	411f56b3	sra	x13,x30,x17	 x30:0x80009f78 x17:0x0000be2f x13=0xffff0001
        6095000	       608	80003a28	00eb10b3	sll	x1,x22,x14	 x22:0x00000001 x14:0x00000300  x1=0x00000001
        6105000	       609	80003a2c	8a157993	andi	x19,x10,-1887	 x10:0xdd3f2616 x19=0xdd3f2000
        6115000	       610	80003a30	0009e133	or	x2,x19,x0	 x19:0xdd3f2000  x0:0x00000000  x2=0xdd3f2000
        6125000	       611	80003a34	000d8b33	add	x22,x27,x0	 x27:0x80009fc4  x0:0x00000000 x22=0x80009fc4
        6135000	       612	80003a38	00000013	addi	x0,x0,0	  x0:0x00000000
        6145000	       613	80003a3c	dcfde713	ori	x14,x27,-561	 x27:0x80009fc4 x14=0xffffffcf
        6155000	       614	80003a40	22f7cd93	xori	x27,x15,559	 x15:0x0000be2e x27=0x0000bc01
        6165000	       615	80003a44	00089233	sll	x4,x17,x0	 x17:0x0000be2f  x0:0x00000000  x4=0x0000be2f
        6175000	       616	80003a48	00c7d033	srl	x0,x15,x12	 x15:0x0000be2e x12:0x00000001
        6185000	       617	80003a4c	000ab237	lui	x4,0xab	  x4=0x000ab000
        6195000	       618	80003a50	a25f2993	slti	x19,x30,-1499	 x30:0x80009f78 x19=0x00000001
        6205000	       619	80003a54	0188e5b3	or	x11,x17,x24	 x17:0x0000be2f x24:0x00000001 x11=0x0000be2f
        6215000	       620	80003a58	00000013	addi	x0,x0,0	  x0:0x00000000
        6225000	       621	80003a5c	0102e463	bltu	x5,x16,80003a64	  x5:0x80000000 x16:0x00000000
        6235000	       622	80003a60	0301ec63	bltu	x3,x16,80003a98	  x3:0x00000000 x16:0x00000000
        6245000	       623	80003a64	01bb7a33	and	x20,x22,x27	 x22:0x80009fc4 x27:0x0000bc01 x20=0x00009c00
        6255000	       624	80003a68	0001f5b3	and	x11,x3,x0	  x3:0x00000000  x0:0x00000000 x11=0x00000000
        6265000	       625	80003a6c	0024d793	srli	x15,x9,0x2	  x9:0x00000001 x15=0x00000000
        6275000	       626	80003a70	02a44a63	blt	x8,x10,80003aa4	  x8:0x00000001 x10:0xdd3f2616
        6285000	       627	80003a74	40465213	srai	x4,x12,0x4	 x12:0x00000001  x4=0x00000000
        6295000	       628	80003a78	8320ea13	ori	x20,x1,-1998	  x1:0x00000001 x20=0xfffff833
        6305000	       629	80003a7c	0ac8c617	auipc	x12,0xac8c	 x12=0x8ac8fa78
        6315000	       630	80003a80	05d40063	beq	x8,x29,80003ac0	  x8:0x00000001 x29:0x00000000
        6325000	       631	80003a84	01fa5db3	srl	x27,x20,x31	 x20:0xfffff833 x31:0x00000000 x27=0xfffff833
        6335000	       632	80003a88	01b293b3	sll	x7,x5,x27	  x5:0x80000000 x27:0xfffff833  x7=0x00000000
        6345000	       633	80003a8c	41298f33	sub	x30,x19,x18	 x19:0x00000001 x18:0x0000be6e x30=0xffff4193
        6355000	       634	80003a90	eadb0b13	addi	x22,x22,-339	 x22:0x80009fc4 x22=0x80009e71
        6365000	       635	80003a94	0199dc93	srli	x25,x19,0x19	 x19:0x00000001 x25=0x00000000
        6375000	       636	80003a98	409304b3	sub	x9,x6,x9	  x6:0xffffffff  x9:0x00000001  x9=0xfffffffe
        6385000	       637	80003a9c	001beeb3	or	x29,x23,x1	 x23:0x00000000  x1:0x00000001 x29=0x00000001
        6395000	       638	80003aa0	319eb713	sltiu	x14,x29,793	 x29:0x00000001 x14=0x00000001
        6405000	       639	80003aa4	0c52d397	auipc	x7,0xc52d	  x7=0x8c530aa0
        6415000	       640	80003aa8	24cdf993	andi	x19,x27,588	 x27:0xfffff833 x19=0x00000000
        6425000	       641	80003aac	4cd94797	auipc	x15,0x4cd94	 x15=0xccd97aa8
        6435000	       642	80003ab0	414489b3	sub	x19,x9,x20	  x9:0xfffffffe x20:0xfffff833 x19=0x000007cb
        6445000	       643	80003ab4	02c25063	bge	x4,x12,80003ad4	  x4:0x00000000 x12:0x8ac8fa78
        6455000	       644	00000000	00000013	addi	x0,x0,0	  x0:0x00000000
        6465000	       645	80003ad0	00000013	addi	x0,x0,0	  x0:0x00000000
        6475000	       646	80003ad4	011b5f93	srli	x31,x22,0x11	 x22:0x80009e71 x31=0x00004000
        6485000	       647	80003ad8	0048d133	srl	x2,x17,x4	 x17:0x0000be2f  x4:0x00000000  x2=0x0000be2f
        6495000	       648	80003adc	00fe50b3	srl	x1,x28,x15	 x28:0x80009fc4 x15:0xccd97aa8  x1=0x0080009f
        6505000	       649	80003ae0	411ed8b3	sra	x17,x29,x17	 x29:0x00000001 x17:0x0000be2f x17=0x00000000
        6515000	       650	80003ae4	02dc6a63	bltu	x24,x13,80003b18	 x24:0x00000001 x13:0xffff0001
        6525000	       651	00000000	00000013	addi	x0,x0,0	  x0:0x00000000
        6535000	       652	80003b14	00000013	addi	x0,x0,0	  x0:0x00000000
        6545000	       653	80003b18	0151d6b3	srl	x13,x3,x21	  x3:0x00000000 x21:0xfffff00a x13=0x00000000
        6555000	       654	80003b1c	01736e63	bltu	x6,x23,80003b38	  x6:0xffffffff x23:0x00000000
        6565000	       655	80003b20	02b66663	bltu	x12,x11,80003b4c	 x12:0x8ac8fa78 x11:0x00000000
        6575000	       656	80003b24	01d02a33	slt	x20,x0,x29	  x0:0x00000000 x29:0x00000001 x20=0x00000001
        6585000	       657	80003b28	00f2d663	bge	x5,x15,80003b34	  x5:0x80000000 x15:0xccd97aa8
        6595000	       658	80003b2c	40d585b3	sub	x11,x11,x13	 x11:0x00000000 x13:0x00000000 x11=0x00000000
        6605000	       659	80003b30	01e61c93	slli	x25,x12,0x1e	 x12:0x8ac8fa78 x25=0x00000000
        6615000	       660	80003b34	c4f1f013	andi	x0,x3,-945	  x3:0x00000000
        6625000	       661	80003b38	0410e863	bltu	x1,x1,80003b88	  x1:0x0080009f  x1:0x0080009f
        6635000	       662	80003b3c	00104733	xor	x14,x0,x1	  x0:0x00000000  x1:0x0080009f x14=0x0080009f
        6645000	       663	80003b40	d872cc93	xori	x25,x5,-633	  x5:0x80000000 x25=0x7ffffd87
        6655000	       664	80003b44	1655c413	xori	x8,x11,357	 x11:0x00000000  x8=0x00000165
        6665000	       665	80003b48	41a15133	sra	x2,x2,x26	  x2:0x0000be2f x26:0x80009f78  x2=0x00000000
        6675000	       666	80003b4c	c9aa0593	addi	x11,x20,-870	 x20:0x00000001 x11=0xfffffc9b
        6685000	       667	80003b50	25d08813	addi	x16,x1,605	  x1:0x0080009f x16=0x008002fc
        6695000	       668	80003b54	10414a63	blt	x2,x4,80003c68	  x2:0x00000000  x4:0x00000000
        6705000	       669	80003b58	0384f863	bgeu	x9,x24,80003b88	  x9:0xfffffffe x24:0x00000001
        6715000	       670	00000000	00000013	addi	x0,x0,0	  x0:0x00000000
        6725000	       671	80003b84	00000013	addi	x0,x0,0	  x0:0x00000000
        6735000	       672	80003b88	000a41b3	xor	x3,x20,x0	 x20:0x00000001  x0:0x00000000  x3=0x00000001
        6745000	       673	80003b8c	00005817	auipc	x16,0x5	 x16=0x80008b88
        6755000	       674	80003b90	cb680813	addi	x16,x16,-842	 x16:0x80008b88 x16=0x8000883e
        6765000	       675	80003b94	0054a933	slt	x18,x9,x5	  x9:0xfffffffe  x5:0x80000000 x18=0x00000000
        6775000	       676	80003b98	c21e2337	lui	x6,0xc21e2	  x6=0xc21e2000
        6785000	       677	80003b9c	00001533	sll	x10,x0,x0	  x0:0x00000000  x0:0x00000000 x10=0x00000000
        6795000	       678	80003ba0	00892ab3	slt	x21,x18,x8	 x18:0x00000000  x8:0x00000165 x21=0x00000001
        6805000	       679	80003ba4	fd380ea3	sb	x19,-35(x16)	 x16:0x8000883e x19:0x000007cb PA:0x8000881b
        6815000	       680	80003ba8	0a780c23	sb	x7,184(x16)	 x16:0x8000883e  x7:0x8c530aa0 PA:0x800088f6
        6825000	       681	80003bac	017b1f93	slli	x31,x22,0x17	 x22:0x80009e71 x31=0x38800000
        6835000	       682	80003bb0	01551b13	slli	x22,x10,0x15	 x10:0x00000000 x22=0x00000000
        6845000	       683	80003bb4	03180da3	sb	x17,59(x16)	 x16:0x8000883e x17:0x00000000 PA:0x80008879
        6855000	       684	80003bb8	00000013	addi	x0,x0,0	  x0:0x00000000
        6865000	       685	80003bbc	01e6a5b3	slt	x11,x13,x30	 x13:0x00000000 x30:0xffff4193 x11=0x00000000
        6875000	       686	80003bc0	ce4d4c13	xori	x24,x26,-796	 x26:0x80009f78 x24=0x7fff639c
        6885000	       687	80003bc4	00000013	addi	x0,x0,0	  x0:0x00000000
        6895000	       688	80003bc8	00ae96b3	sll	x13,x29,x10	 x29:0x00000001 x10:0x00000000 x13=0x00000001
        6905000	       689	80003bcc	080808a3	sb	x0,145(x16)	 x16:0x8000883e  x0:0x00000000 PA:0x800088cf
        6915000	       690	80003bd0	00f977b3	and	x15,x18,x15	 x18:0x00000000 x15:0xccd97aa8 x15=0x00000000
        6925000	       691	80003bd4	0c780ca3	sb	x7,217(x16)	 x16:0x8000883e  x7:0x8c530aa0 PA:0x80008917
        6935000	       692	80003bd8	04884383	lbu	x7,72(x16)	 x16:0x8000883e  x7=0x00000000 PA:0x80008886
        6945000	       693	80003bdc	008b5c13	srli	x24,x22,0x8	 x22:0x00000000 x24=0x00000000
        6955000	       694	80003be0	08181423	sh	x1,136(x16)	 x16:0x8000883e  x1:0x0080009f PA:0x800088c6
        6965000	       695	80003be4	41fa5693	srai	x13,x20,0x1f	 x20:0x00000001 x13=0x00000000
        6975000	       696	80003be8	0011d8b3	srl	x17,x3,x1	  x3:0x00000001  x1:0x0080009f x17=0x00000000
        6985000	       697	80003bec	0e880a23	sb	x8,244(x16)	 x16:0x8000883e  x8:0x00000165 PA:0x80008932
        6995000	       698	80003bf0	ff380f03	lb	x30,-13(x16)	 x16:0x8000883e x30=0x00000000 PA:0x80008831
        7005000	       699	80003bf4	035807a3	sb	x21,47(x16)	 x16:0x8000883e x21:0x00000001 PA:0x8000886d
        7015000	       700	80003bf8	052809a3	sb	x18,83(x16)	 x16:0x8000883e x18:0x00000000 PA:0x80008891
        7025000	       701	80003bfc	d369f413	andi	x8,x19,-714	 x19:0x000007cb  x8=0x00000502
        7035000	       702	80003c00	01fb5533	srl	x10,x22,x31	 x22:0x00000000 x31:0x38800000 x10=0x00000000
        7045000	       703	80003c04	e4c6ae93	slti	x29,x13,-436	 x13:0x00000000 x29=0x00000000
        7055000	       704	80003c08	02280203	lb	x4,34(x16)	 x16:0x8000883e  x4=0x00000000 PA:0x80008860
        7065000	       705	80003c0c	01c80003	lb	x0,28(x16)	 x16:0x8000883e PA:0x8000885a
        7075000	       706	80003c10	bc648c93	addi	x25,x9,-1082	  x9:0xfffffffe x25=0xfffffbc4
        7085000	       707	80003c14	0f480823	sb	x20,240(x16)	 x16:0x8000883e x20:0x00000001 PA:0x8000892e
        7095000	       708	80003c18	048801a3	sb	x8,67(x16)	 x16:0x8000883e  x8:0x00000502 PA:0x80008881
        7105000	       709	80003c1c	84288393	addi	x7,x17,-1982	 x17:0x00000000  x7=0xfffff842
        7115000	       710	80003c20	99060637	lui	x12,0x99060	 x12=0x99060000
        7125000	       711	80003c24	0de81c03	lh	x24,222(x16)	 x16:0x8000883e x24=0x00000000 PA:0x8000891c
        7135000	       712	80003c28	0d484583	lbu	x11,212(x16)	 x16:0x8000883e x11=0x00000000 PA:0x80008912
        7145000	       713	80003c2c	09f805a3	sb	x31,139(x16)	 x16:0x8000883e x31:0x38800000 PA:0x800088c9
        7155000	       714	80003c30	02e81723	sh	x14,46(x16)	 x16:0x8000883e x14:0x0080009f PA:0x8000886c
        7165000	       715	80003c34	8c6ac337	lui	x6,0x8c6ac	  x6=0x8c6ac000
        7175000	       716	80003c38	acec7b13	andi	x22,x24,-1330	 x24:0x00000000 x22=0x00000000
        7185000	       717	80003c3c	b5198cb7	lui	x25,0xb5198	 x25=0xb5198000
        7195000	       718	80003c40	d3788413	addi	x8,x17,-713	 x17:0x00000000  x8=0xfffffd37
        7205000	       719	80003c44	40c1d313	srai	x6,x3,0xc	  x3:0x00000001  x6=0x00000000
        7215000	       720	80003c48	00306733	or	x14,x0,x3	  x0:0x00000000  x3:0x00000001 x14=0x00000001
        7225000	       721	80003c4c	78d13793	sltiu	x15,x2,1933	  x2:0x00000000 x15=0x00000001
        7235000	       722	80003c50	01b36133	or	x2,x6,x27	  x6:0x00000000 x27:0xfffff833  x2=0xfffff833
        7245000	       723	80003c54	01fcd333	srl	x6,x25,x31	 x25:0xb5198000 x31:0x38800000  x6=0xb5198000
        7255000	       724	80003c58	07884a83	lbu	x21,120(x16)	 x16:0x8000883e x21=0x00000000 PA:0x800088b6
        7265000	       725	80003c5c	ff685103	lhu	x2,-10(x16)	 x16:0x8000883e  x2=0x00000000 PA:0x80008834
        7275000	       726	80003c60	00e1cc63	blt	x3,x14,80003c78	  x3:0x00000001 x14:0x00000001
        7285000	       727	80003c64	03e1f863	bgeu	x3,x30,80003c94	  x3:0x00000001 x30:0x00000000
        7295000	       728	00000000	00000013	addi	x0,x0,0	  x0:0x00000000
        7305000	       729	80003c90	00000013	addi	x0,x0,0	  x0:0x00000000
        7315000	       730	80003c94	01a60033	add	x0,x12,x26	 x12:0x99060000 x26:0x80009f78
        7325000	       731	80003c98	415ed193	srai	x3,x29,0x15	 x29:0x00000000  x3=0x00000000
        7335000	       732	80003c9c	ed097a93	andi	x21,x18,-304	 x18:0x00000000 x21=0x00000000
        7345000	       733	80003ca0	006d2433	slt	x8,x26,x6	 x26:0x80009f78  x6:0xb5198000  x8=0x00000001
        7355000	       734	80003ca4	41170633	sub	x12,x14,x17	 x14:0x00000001 x17:0x00000000 x12=0x00000001
        7365000	       735	80003ca8	41d3da13	srai	x20,x7,0x1d	  x7:0xfffff842 x20=0xffffffff
        7375000	       736	80003cac	004ecb33	xor	x22,x29,x4	 x29:0x00000000  x4:0x00000000 x22=0x00000000
        7385000	       737	80003cb0	45bf4c13	xori	x24,x30,1115	 x30:0x00000000 x24=0x0000045b
        7395000	       738	80003cb4	d21a0a17	auipc	x20,0xd21a0	 x20=0x521a3cb0
        7405000	       739	80003cb8	40385cb3	sra	x25,x16,x3	 x16:0x8000883e  x3:0x00000000 x25=0x8000883e
        7415000	       740	80003cbc	bd636693	ori	x13,x6,-1066	  x6:0xb5198000 x13=0xfffffbd6
        7425000	       741	80003cc0	a5bd0513	addi	x10,x26,-1445	 x26:0x80009f78 x10=0x800099d3
        7435000	       742	80003cc4	01f33c33	sltu	x24,x6,x31	  x6:0xb5198000 x31:0x38800000 x24=0x00000000
        7445000	       743	80003cc8	5ef851b7	lui	x3,0x5ef85	  x3=0x5ef85000
        7455000	       744	80003ccc	02300863	beq	x0,x3,80003cfc	  x0:0x00000000  x3:0x5ef85000
        7465000	       745	80003cd0	40b686b3	sub	x13,x13,x11	 x13:0xfffffbd6 x11:0x00000000 x13=0xfffffbd6
        7475000	       746	80003cd4	016a1013	slli	x0,x20,0x16	 x20:0x521a3cb0
        7485000	       747	80003cd8	04a19063	bne	x3,x10,80003d18	  x3:0x5ef85000 x10:0x800099d3
        7495000	       748	00000000	00000013	addi	x0,x0,0	  x0:0x00000000
        7505000	       749	80003d14	00000013	addi	x0,x0,0	  x0:0x00000000
        7515000	       750	80003d18	01413133	sltu	x2,x2,x20	  x2:0x00000000 x20:0x521a3cb0  x2=0x00000001
        7525000	       751	80003d1c	419186b3	sub	x13,x3,x25	  x3:0x5ef85000 x25:0x8000883e x13=0xdef7c7c2
        7535000	       752	80003d20	01ee1463	bne	x28,x30,80003d28	 x28:0x80009fc4 x30:0x00000000
        7545000	       753	00000000	00000013	addi	x0,x0,0	  x0:0x00000000
        7555000	       754	80003d24	00000013	addi	x0,x0,0	  x0:0x00000000
        7565000	       755	80003d28	015b1713	slli	x14,x22,0x15	 x22:0x00000000 x14=0x00000000
        7575000	       756	80003d2c	01846fb3	or	x31,x8,x24	  x8:0x00000001 x24:0x00000000 x31=0x00000001
        7585000	       757	80003d30	03b81663	bne	x16,x27,80003d5c	 x16:0x8000883e x27:0xfffff833
        7595000	       758	00000000	00000013	addi	x0,x0,0	  x0:0x00000000
        7605000	       759	80003d58	00000013	addi	x0,x0,0	  x0:0x00000000
        7615000	       760	80003d5c	414d5c13	srai	x24,x26,0x14	 x26:0x80009f78 x24=0xfffff800
        7625000	       761	80003d60	55980813	addi	x16,x16,1369	 x16:0x8000883e x16=0x80008d97
        7635000	       762	80003d64	00000013	addi	x0,x0,0	  x0:0x00000000
        7645000	       763	80003d68	01c9c863	blt	x19,x28,80003d78	 x19:0x000007cb x28:0x80009fc4
        7655000	       764	80003d6c	006e4333	xor	x6,x28,x6	 x28:0x80009fc4  x6:0xb5198000  x6=0x35191fc4
        7665000	       765	80003d70	01e25793	srli	x15,x4,0x1e	  x4:0x00000000 x15=0x00000000
        7675000	       766	80003d74	046ad063	bge	x21,x6,80003db4	 x21:0x00000000  x6:0x35191fc4
        7685000	       767	80003d78	7d605697	auipc	x13,0x7d605	 x13=0xfd608d74
        7695000	       768	80003d7c	409eddb3	sra	x27,x29,x9	 x29:0x00000000  x9:0xfffffffe x27=0x00000000
        7705000	       769	80003d80	bbcdc513	xori	x10,x27,-1092	 x27:0x00000000 x10=0xfffffbbc
        7715000	       770	80003d84	005a4c33	xor	x24,x20,x5	 x20:0x521a3cb0  x5:0x80000000 x24=0xd21a3cb0
        7725000	       771	80003d88	249b4593	xori	x11,x22,585	 x22:0x00000000 x11=0x00000249
        7735000	       772	80003d8c	0019eb33	or	x22,x19,x1	 x19:0x000007cb  x1:0x0080009f x22=0x008007df
        7745000	       773	80003d90	c57d5837	lui	x16,0xc57d5	 x16=0xc57d5000
        7755000	       774	80003d94	019c9193	slli	x3,x25,0x19	 x25:0x8000883e  x3=0x7c000000
        7765000	       775	80003d98	0227cc63	blt	x15,x2,80003dd0	 x15:0x00000000  x2:0x00000001
        7775000	       776	00000000	00000013	addi	x0,x0,0	  x0:0x00000000
        7785000	       777	80003dcc	00000013	addi	x0,x0,0	  x0:0x00000000
        7795000	       778	80003dd0	80dd44b7	lui	x9,0x80dd4	  x9=0x80dd4000
        7805000	       779	80003dd4	002f4663	blt	x30,x2,80003de0	 x30:0x00000000  x2:0x00000001
        7815000	       780	00000000	00000013	addi	x0,x0,0	  x0:0x00000000
        7825000	       781	80003ddc	00000013	addi	x0,x0,0	  x0:0x00000000
        7835000	       782	80003de0	3987dab7	lui	x21,0x3987d	 x21=0x3987d000
        7845000	       783	80003de4	04684063	blt	x16,x6,80003e24	 x16:0xc57d5000  x6:0x35191fc4
        7855000	       784	00000000	00000013	addi	x0,x0,0	  x0:0x00000000
        7865000	       785	80003e20	00000013	addi	x0,x0,0	  x0:0x00000000
        7875000	       786	80003e24	a4e04a93	xori	x21,x0,-1458	  x0:0x00000000 x21=0xfffffa4e
        7885000	       787	80003e28	02494a63	blt	x18,x4,80003e5c	 x18:0x00000000  x4:0x00000000
        7895000	       788	80003e2c	00c03433	sltu	x8,x0,x12	  x0:0x00000000 x12:0x00000001  x8=0x00000001
        7905000	       789	80003e30	00471e93	slli	x29,x14,0x4	 x14:0x00000000 x29=0x00000000
        7915000	       790	80003e34	00ba0133	add	x2,x20,x11	 x20:0x521a3cb0 x11:0x00000249  x2=0x521a3ef9
        7925000	       791	80003e38	028e5a63	bge	x28,x8,80003e6c	 x28:0x80009fc4  x8:0x00000001
        7935000	       792	80003e3c	fb183a13	sltiu	x20,x16,-79	 x16:0xc57d5000 x20=0x00000001
        7945000	       793	80003e40	879c2113	slti	x2,x24,-1927	 x24:0xd21a3cb0  x2=0x00000001
        7955000	       794	80003e44	43c44313	xori	x6,x8,1084	  x8:0x00000001  x6=0x0000043d
        7965000	       795	80003e48	959e3513	sltiu	x10,x28,-1703	 x28:0x80009fc4 x10=0x00000001
        7975000	       796	80003e4c	01fb9333	sll	x6,x23,x31	 x23:0x00000000 x31:0x00000001  x6=0x00000000
        7985000	       797	80003e50	00000013	addi	x0,x0,0	  x0:0x00000000
        7995000	       798	80003e54	40e24593	xori	x11,x4,1038	  x4:0x00000000 x11=0x0000040e
        8005000	       799	80003e58	41b45933	sra	x18,x8,x27	  x8:0x00000001 x27:0x00000000 x18=0x00000001
        8015000	       800	80003e5c	019e3c33	sltu	x24,x28,x25	 x28:0x80009fc4 x25:0x8000883e x24=0x00000000
        8025000	       801	80003e60	00e823b3	slt	x7,x16,x14	 x16:0xc57d5000 x14:0x00000000  x7=0x00000001
        8035000	       802	80003e64	008006b3	add	x13,x0,x8	  x0:0x00000000  x8:0x00000001 x13=0x00000001
        8045000	       803	80003e68	008410b3	sll	x1,x8,x8	  x8:0x00000001  x8:0x00000001  x1=0x00000002
        8055000	       804	80003e6c	007c7a33	and	x20,x24,x7	 x24:0x00000000  x7:0x00000001 x20=0x00000000
        8065000	       805	80003e70	04e7e063	bltu	x15,x14,80003eb0	 x15:0x00000000 x14:0x00000000
        8075000	       806	80003e74	0058a7b3	slt	x15,x17,x5	 x17:0x00000000  x5:0x80000000 x15=0x00000000
        8085000	       807	80003e78	016b83b3	add	x7,x23,x22	 x23:0x00000000 x22:0x008007df  x7=0x008007df
        8095000	       808	80003e7c	40d60c33	sub	x24,x12,x13	 x12:0x00000001 x13:0x00000001 x24=0x00000000
        8105000	       809	80003e80	02441a63	bne	x8,x4,80003eb4	  x8:0x00000001  x4:0x00000000
        8115000	       810	00000000	00000013	addi	x0,x0,0	  x0:0x00000000
        8125000	       811	80003eb0	00000013	addi	x0,x0,0	  x0:0x00000000
        8135000	       812	80003eb4	00000013	addi	x0,x0,0	  x0:0x00000000
        8145000	       813	80003eb8	0161ec63	bltu	x3,x22,80003ed0	  x3:0x7c000000 x22:0x008007df
        8155000	       814	80003ebc	2f73a693	slti	x13,x7,759	  x7:0x008007df x13=0x00000000
        8165000	       815	80003ec0	00575a93	srli	x21,x14,0x5	 x14:0x00000000 x21=0x00000000
        8175000	       816	80003ec4	40a88a33	sub	x20,x17,x10	 x17:0x00000000 x10:0x00000001 x20=0xffffffff
        8185000	       817	80003ec8	01ff88b3	add	x17,x31,x31	 x31:0x00000001 x31:0x00000001 x17=0x00000002
        8195000	       818	80003ecc	df4cca13	xori	x20,x25,-524	 x25:0x8000883e x20=0x7fff75ca
        8205000	       819	80003ed0	cb8ef093	andi	x1,x29,-840	 x29:0x00000000  x1=0x00000000
        8215000	       820	80003ed4	00d9b1b3	sltu	x3,x19,x13	 x19:0x000007cb x13:0x00000000  x3=0x00000000
        8225000	       821	80003ed8	4059d133	sra	x2,x19,x5	 x19:0x000007cb  x5:0x80000000  x2=0x000007cb
        8235000	       822	80003edc	965caa93	slti	x21,x25,-1691	 x25:0x8000883e x21=0x00000001
        8245000	       823	80003ee0	b9a7f817	auipc	x16,0xb9a7f	 x16=0x39a82edc
        8255000	       824	80003ee4	00000013	addi	x0,x0,0	  x0:0x00000000
        8265000	       825	80003ee8	bfa30b13	addi	x22,x6,-1030	  x6:0x00000000 x22=0xfffffbfa
        8275000	       826	80003eec	0f83c793	xori	x15,x7,248	  x7:0x008007df x15=0x00800727
        8285000	       827	80003ef0	00daca63	blt	x21,x13,80003f04	 x21:0x00000001 x13:0x00000000
        8295000	       828	80003ef4	019948b3	xor	x17,x18,x25	 x18:0x00000001 x25:0x8000883e x17=0x8000883f
        8305000	       829	80003ef8	246d5037	lui	x0,0x246d5	
        8315000	       830	80003efc	0083de93	srli	x29,x7,0x8	  x7:0x008007df x29=0x00008007
        8325000	       831	80003f00	00c0f463	bgeu	x1,x12,80003f08	  x1:0x00000000 x12:0x00000001
        8335000	       832	80003f04	01d58733	add	x14,x11,x29	 x11:0x0000040e x29:0x00008007 x14=0x00008415
        8345000	       833	80003f08	000e6fb3	or	x31,x28,x0	 x28:0x80009fc4  x0:0x00000000 x31=0x80009fc4
        8355000	       834	80003f0c	001e91b3	sll	x3,x29,x1	 x29:0x00008007  x1:0x00000000  x3=0x00008007
        8365000	       835	80003f10	40728133	sub	x2,x5,x7	  x5:0x80000000  x7:0x008007df  x2=0x7f7ff821
        8375000	       836	80003f14	a8186e93	ori	x29,x16,-1407	 x16:0x39a82edc x29=0xfffffedd
        8385000	       837	80003f18	15a7e337	lui	x6,0x15a7e	  x6=0x15a7e000
        8395000	       838	80003f1c	f9030493	addi	x9,x6,-112	  x6:0x15a7e000  x9=0x15a7df90
        8405000	       839	80003f20	00128a33	add	x20,x5,x1	  x5:0x80000000  x1:0x00000000 x20=0x80000000
        8415000	       840	80003f24	01839e93	slli	x29,x7,0x18	  x7:0x008007df x29=0xdf000000
        8425000	       841	80003f28	004d9a13	slli	x20,x27,0x4	 x27:0x00000000 x20=0x00000000
        8435000	       842	80003f2c	03c0c663	blt	x1,x28,80003f58	  x1:0x00000000 x28:0x80009fc4
        8445000	       843	80003f30	01b327b3	slt	x15,x6,x27	  x6:0x15a7e000 x27:0x00000000 x15=0x00000000
        8455000	       844	80003f34	04356063	bltu	x10,x3,80003f74	 x10:0x00000001  x3:0x00008007
        8465000	       845	00000000	00000013	addi	x0,x0,0	  x0:0x00000000
        8475000	       846	80003f70	00000013	addi	x0,x0,0	  x0:0x00000000
        8485000	       847	80003f74	01fc7c63	bgeu	x24,x31,80003f8c	 x24:0x00000000 x31:0x80009fc4
        8495000	       848	80003f78	00000013	addi	x0,x0,0	  x0:0x00000000
        8505000	       849	80003f7c	4126d9b3	sra	x19,x13,x18	 x13:0x00000000 x18:0x00000001 x19=0x00000000
        8515000	       850	80003f80	847afab7	lui	x21,0x847af	 x21=0x847af000
        8525000	       851	80003f84	0094f033	and	x0,x9,x9	  x9:0x15a7df90  x9:0x15a7df90
        8535000	       852	80003f88	ad5d8313	addi	x6,x27,-1323	 x27:0x00000000  x6=0xfffffad5
        8545000	       853	80003f8c	dc1b9117	auipc	x2,0xdc1b9	  x2=0x5c1bcf88
        8555000	       854	80003f90	01a35193	srli	x3,x6,0x1a	  x6:0xfffffad5  x3=0x0000003f
        8565000	       855	80003f94	01fdd933	srl	x18,x27,x31	 x27:0x00000000 x31:0x80009fc4 x18=0x00000000
        8575000	       856	80003f98	e66a7413	andi	x8,x20,-410	 x20:0x00000000  x8=0x00000000
        8585000	       857	80003f9c	01d32db3	slt	x27,x6,x29	  x6:0xfffffad5 x29:0xdf000000 x27=0x00000000
        8595000	       858	80003fa0	04ce4063	blt	x28,x12,80003fe0	 x28:0x80009fc4 x12:0x00000001
        8605000	       859	00000000	00000013	addi	x0,x0,0	  x0:0x00000000
        8615000	       860	80003fdc	00000013	addi	x0,x0,0	  x0:0x00000000
        8625000	       861	80003fe0	f3b9eb37	lui	x22,0xf3b9e	 x22=0xf3b9e000
        8635000	       862	80003fe4	03631a63	bne	x6,x22,80004018	  x6:0xfffffad5 x22:0xf3b9e000
        8645000	       863	00000000	00000013	addi	x0,x0,0	  x0:0x00000000
        8655000	       864	80004014	00000013	addi	x0,x0,0	  x0:0x00000000
        8665000	       865	80004018	00011613	slli	x12,x2,0x0	  x2:0x5c1bcf88 x12=0x5c1bcf88
        8675000	       866	8000401c	412856b3	sra	x13,x16,x18	 x16:0x39a82edc x18:0x00000000 x13=0x39a82edc
        8685000	       867	80004020	f141cf93	xori	x31,x3,-236	  x3:0x0000003f x31=0xffffff2b
        8695000	       868	80004024	00f0de63	bge	x1,x15,80004040	  x1:0x00000000 x15:0x00000000
        8705000	       869	00000000	00000013	addi	x0,x0,0	  x0:0x00000000
        8715000	       870	8000403c	00000013	addi	x0,x0,0	  x0:0x00000000
        8725000	       871	80004040	41455e93	srai	x29,x10,0x14	 x10:0x00000001 x29=0x00000000
        8735000	       872	80004044	0130d533	srl	x10,x1,x19	  x1:0x00000000 x19:0x00000000 x10=0x00000000
        8745000	       873	80004048	85a9efb7	lui	x31,0x85a9e	 x31=0x85a9e000
        8755000	       874	8000404c	005793b3	sll	x7,x15,x5	 x15:0x00000000  x5:0x80000000  x7=0x00000000
        8765000	       875	80004050	011af0b3	and	x1,x21,x17	 x21:0x847af000 x17:0x8000883f  x1=0x80008000
        8775000	       876	80004054	00e48bb3	add	x23,x9,x14	  x9:0x15a7df90 x14:0x00008415 x23=0x15a863a5
        8785000	       877	80004058	002f48b3	xor	x17,x30,x2	 x30:0x00000000  x2:0x5c1bcf88 x17=0x5c1bcf88
        8795000	       878	8000405c	01cfb533	sltu	x10,x31,x28	 x31:0x85a9e000 x28:0x80009fc4 x10=0x00000000
        8805000	       879	80004060	006fd193	srli	x3,x31,0x6	 x31:0x85a9e000  x3=0x0216a780
        8815000	       880	80004064	04a58063	beq	x11,x10,800040a4	 x11:0x0000040e x10:0x00000000
        8825000	       881	80004068	bdac2237	lui	x4,0xbdac2	  x4=0xbdac2000
        8835000	       882	8000406c	053c15b7	lui	x11,0x53c1	 x11=0x053c1000
        8845000	       883	80004070	90c78693	addi	x13,x15,-1780	 x15:0x00000000 x13=0xfffff90c
        8855000	       884	80004074	ec80c693	xori	x13,x1,-312	  x1:0x80008000 x13=0x7fff7ec8
        8865000	       885	80004078	00019893	slli	x17,x3,0x0	  x3:0x0216a780 x17=0x0216a780
        8875000	       886	8000407c	00801a33	sll	x20,x0,x8	  x0:0x00000000  x8:0x00000000 x20=0x00000000
        8885000	       887	80004080	00000013	addi	x0,x0,0	  x0:0x00000000
        8895000	       888	80004084	00000013	addi	x0,x0,0	  x0:0x00000000
        8905000	       889	80004088	00182a33	slt	x20,x16,x1	 x16:0x39a82edc  x1:0x80008000 x20=0x00000000
        8915000	       890	8000408c	043d1863	bne	x26,x3,800040dc	 x26:0x80009f78  x3:0x0216a780
        8925000	       891	00000000	00000013	addi	x0,x0,0	  x0:0x00000000
        8935000	       892	800040d8	00000013	addi	x0,x0,0	  x0:0x00000000
        8945000	       893	800040dc	05998863	beq	x19,x25,8000412c	 x19:0x00000000 x25:0x8000883e
        8955000	       894	800040e0	011468b3	or	x17,x8,x17	  x8:0x00000000 x17:0x0216a780 x17=0x0216a780
        8965000	       895	800040e4	01aa1e63	bne	x20,x26,80004100	 x20:0x00000000 x26:0x80009f78
        8975000	       896	00000000	00000013	addi	x0,x0,0	  x0:0x00000000
        8985000	       897	800040fc	00000013	addi	x0,x0,0	  x0:0x00000000
        8995000	       898	80004100	00193db3	sltu	x27,x18,x1	 x18:0x00000000  x1:0x80008000 x27=0x00000001
        9005000	       899	80004104	00207733	and	x14,x0,x2	  x0:0x00000000  x2:0x5c1bcf88 x14=0x00000000
        9015000	       900	80004108	00985463	bge	x16,x9,80004110	 x16:0x39a82edc  x9:0x15a7df90
        9025000	       901	00000000	00000013	addi	x0,x0,0	  x0:0x00000000
        9035000	       902	8000410c	00000013	addi	x0,x0,0	  x0:0x00000000
        9045000	       903	80004110	67637417	auipc	x8,0x67637	  x8=0xe763b10c
        9055000	       904	80004114	a3588613	addi	x12,x17,-1483	 x17:0x0216a780 x12=0x0216a1b5
        9065000	       905	80004118	01065db3	srl	x27,x12,x16	 x12:0x0216a1b5 x16:0x39a82edc x27=0x00000000
        9075000	       906	8000411c	01854033	xor	x0,x10,x24	 x10:0x00000000 x24:0x00000000
        9085000	       907	80004120	f941ac17	auipc	x24,0xf941a	 x24=0x7941e11c
        9095000	       908	80004124	00000013	addi	x0,x0,0	  x0:0x00000000
        9105000	       909	80004128	00000013	addi	x0,x0,0	  x0:0x00000000
        9115000	       910	8000412c	058d0063	beq	x26,x24,8000416c	 x26:0x80009f78 x24:0x7941e11c
        9125000	       911	80004130	00157663	bgeu	x10,x1,8000413c	 x10:0x00000000  x1:0x80008000
        9135000	       912	80004134	884f6593	ori	x11,x30,-1916	 x30:0x00000000 x11=0xfffff884
        9145000	       913	80004138	00b7ee63	bltu	x15,x11,80004154	 x15:0x00000000 x11:0xfffff884
        9155000	       914	00000000	00000013	addi	x0,x0,0	  x0:0x00000000
        9165000	       915	80004150	00000013	addi	x0,x0,0	  x0:0x00000000
        9175000	       916	80004154	00000013	addi	x0,x0,0	  x0:0x00000000
        9185000	       917	80004158	0100db33	srl	x22,x1,x16	  x1:0x80008000 x16:0x39a82edc x22=0x00000008
        9195000	       918	8000415c	006e1533	sll	x10,x28,x6	 x28:0x80009fc4  x6:0xfffffad5 x10=0xf8800000
        9205000	       919	80004160	0c0a1c63	bne	x20,x0,80004238	 x20:0x00000000  x0:0x00000000
        9215000	       920	80004164	41950433	sub	x8,x10,x25	 x10:0xf8800000 x25:0x8000883e  x8=0x787f77c2
        9225000	       921	80004168	000d40b3	xor	x1,x26,x0	 x26:0x80009f78  x0:0x00000000  x1=0x80009f78
        9235000	       922	8000416c	0f8fd263	bge	x31,x24,80004250	 x31:0x85a9e000 x24:0x7941e11c
        9245000	       923	80004170	aa48a413	slti	x8,x17,-1372	 x17:0x0216a780  x8=0x00000000
        9255000	       924	80004174	0dcf5263	bge	x30,x28,80004238	 x30:0x00000000 x28:0x80009fc4
        9265000	       925	00000000	00000013	addi	x0,x0,0	  x0:0x00000000
        9275000	       926	80004234	00000013	addi	x0,x0,0	  x0:0x00000000
        9285000	       927	80004238	01d9e863	bltu	x19,x29,80004248	 x19:0x00000000 x29:0x00000000
        9295000	       928	8000423c	00bd1033	sll	x0,x26,x11	 x26:0x80009f78 x11:0xfffff884
        9305000	       929	80004240	5669fe93	andi	x29,x19,1382	 x19:0x00000000 x29=0x00000000
        9315000	       930	80004244	01f8dd93	srli	x27,x17,0x1f	 x17:0x0216a780 x27=0x00000000
        9325000	       931	80004248	10b74463	blt	x14,x11,80004350	 x14:0x00000000 x11:0xfffff884
        9335000	       932	8000424c	00f33fb3	sltu	x31,x6,x15	  x6:0xfffffad5 x15:0x00000000 x31=0x00000000
        9345000	       933	80004250	0e9aee63	bltu	x21,x9,8000434c	 x21:0x847af000  x9:0x15a7df90
        9355000	       934	80004254	00634033	xor	x0,x6,x6	  x6:0xfffffad5  x6:0xfffffad5
        9365000	       935	80004258	019c15b3	sll	x11,x24,x25	 x24:0x7941e11c x25:0x8000883e x11=0x00000000
        9375000	       936	8000425c	00e50433	add	x8,x10,x14	 x10:0xf8800000 x14:0x00000000  x8=0xf8800000
        9385000	       937	80004260	9877e037	lui	x0,0x9877e	
        9395000	       938	80004264	019be233	or	x4,x23,x25	 x23:0x15a863a5 x25:0x8000883e  x4=0x95a8ebbf
        9405000	       939	80004268	4e2d8993	addi	x19,x27,1250	 x27:0x00000000 x19=0x000004e2
        9415000	       940	8000426c	00004f97	auipc	x31,0x4	 x31=0x80008268
        9425000	       941	80004270	ef5f8f93	addi	x31,x31,-267	 x31:0x80008268 x31=0x8000815d
        9435000	       942	80004274	84d78b37	lui	x22,0x84d78	 x22=0x84d78000
        9445000	       943	80004278	52223513	sltiu	x10,x4,1314	  x4:0x95a8ebbf x10=0x00000000
        9455000	       944	8000427c	512fc983	lbu	x19,1298(x31)	 x31:0x8000815d x19=0x00000000 PA:0x8000866f
        9465000	       945	00000000	00000013	addi	x0,x0,0	  x0:0x00000000
        9475000	       946	80004280	00f98033	add	x0,x19,x15	 x19:0x00000000 x15:0x00000000
        9485000	       947	80004284	ca1d8993	addi	x19,x27,-863	 x27:0x00000000 x19=0xfffffca1
        9495000	       948	80004288	2b7fa483	lw	x9,695(x31)	 x31:0x8000815d  x9=0x00000000 PA:0x80008414
        9505000	       949	8000428c	006c04b3	add	x9,x24,x6	 x24:0x7941e11c  x6:0xfffffad5  x9=0x7941dbf1
        9515000	       950	80004290	58cfce83	lbu	x29,1420(x31)	 x31:0x8000815d x29=0x00000000 PA:0x800086e9
        9525000	       951	80004294	2a1f8823	sb	x1,688(x31)	 x31:0x8000815d  x1:0x80009f78 PA:0x8000840d
        9535000	       952	80004298	f988e893	ori	x17,x17,-104	 x17:0x0216a780 x17=0xffffff98
        9545000	       953	8000429c	00d07933	and	x18,x0,x13	  x0:0x00000000 x13:0x7fff7ec8 x18=0x00000000
        9555000	       954	800042a0	40695793	srai	x15,x18,0x6	 x18:0x00000000 x15=0x00000000
        9565000	       955	800042a4	01138733	add	x14,x7,x17	  x7:0x00000000 x17:0xffffff98 x14=0xffffff98
        9575000	       956	800042a8	00d0e4b3	or	x9,x1,x13	  x1:0x80009f78 x13:0x7fff7ec8  x9=0xfffffff8
        9585000	       957	800042ac	f85f8ba3	sb	x5,-105(x31)	 x31:0x8000815d  x5:0x80000000 PA:0x800080f4
        9595000	       958	800042b0	1a4f8403	lb	x8,420(x31)	 x31:0x8000815d  x8=0x00000000 PA:0x80008301
        9605000	       959	800042b4	41f1d313	srai	x6,x3,0x1f	  x3:0x0216a780  x6=0x00000000
        9615000	       960	800042b8	014fcd83	lbu	x27,20(x31)	 x31:0x8000815d x27=0x00000000 PA:0x80008171
        9625000	       961	800042bc	62af8a03	lb	x20,1578(x31)	 x31:0x8000815d x20=0x00000000 PA:0x80008787
        9635000	       962	800042c0	512f8223	sb	x18,1284(x31)	 x31:0x8000815d x18:0x00000000 PA:0x80008661
        9645000	       963	800042c4	5c5fd003	lhu	x0,1477(x31)	 x31:0x8000815d PA:0x80008722
        9655000	       964	800042c8	4b5f8923	sb	x21,1202(x31)	 x31:0x8000815d x21:0x847af000 PA:0x8000860f
        9665000	       965	800042cc	1a62a593	slti	x11,x5,422	  x5:0x80000000 x11=0x00000001
        9675000	       966	800042d0	3caf8703	lb	x14,970(x31)	 x31:0x8000815d x14=0x00000000 PA:0x80008527
        9685000	       967	800042d4	59ec6093	ori	x1,x24,1438	 x24:0x7941e11c  x1=0x7941e59e
        9695000	       968	800042d8	01804833	xor	x16,x0,x24	  x0:0x00000000 x24:0x7941e11c x16=0x7941e11c
        9705000	       969	800042dc	014f7cb3	and	x25,x30,x20	 x30:0x00000000 x20:0x00000000 x25=0x00000000
        9715000	       970	800042e0	016e6633	or	x12,x28,x22	 x28:0x80009fc4 x22:0x84d78000 x12=0x84d79fc4
        9725000	       971	800042e4	00210133	add	x2,x2,x2	  x2:0x5c1bcf88  x2:0x5c1bcf88  x2=0xb8379f10
        9735000	       972	800042e8	400f84b3	sub	x9,x31,x0	 x31:0x8000815d  x0:0x00000000  x9=0x8000815d
        9745000	       973	800042ec	38df8f03	lb	x30,909(x31)	 x31:0x8000815d x30=0x00000000 PA:0x800084ea
        9755000	       974	800042f0	37de4d93	xori	x27,x28,893	 x28:0x80009fc4 x27=0x80009cb9
        9765000	       975	800042f4	b6187a13	andi	x20,x16,-1183	 x16:0x7941e11c x20=0x7941e100
        9775000	       976	800042f8	00c27833	and	x16,x4,x12	  x4:0x95a8ebbf x12:0x84d79fc4 x16=0x84808b84
        9785000	       977	800042fc	2f0fe313	ori	x6,x31,752	 x31:0x8000815d  x6=0x800083fd
        9795000	       978	80004300	002edab3	srl	x21,x29,x2	 x29:0x00000000  x2:0xb8379f10 x21=0x00000000
        9805000	       979	80004304	40bd5e93	srai	x29,x26,0xb	 x26:0x80009f78 x29=0xfff00013
        9815000	       980	80004308	641e3517	auipc	x10,0x641e3	 x10=0xe41e7304
        9825000	       981	8000430c	00c1b433	sltu	x8,x3,x12	  x3:0x0216a780 x12:0x84d79fc4  x8=0x00000001
        9835000	       982	80004310	3dff9803	lh	x16,991(x31)	 x31:0x8000815d x16=0x00000000 PA:0x8000853c
        9845000	       983	80004314	338fc603	lbu	x12,824(x31)	 x31:0x8000815d x12=0x00000000 PA:0x80008495
        9855000	       984	80004318	588f9da3	sh	x8,1435(x31)	 x31:0x8000815d  x8:0x00000001 PA:0x800086f8
        9865000	       985	8000431c	00a8d313	srli	x6,x17,0xa	 x17:0xffffff98  x6=0x003fffff
        9875000	       986	80004320	4cb6b593	sltiu	x11,x13,1227	 x13:0x7fff7ec8 x11=0x00000000
        9885000	       987	80004324	0b8f8c83	lb	x25,184(x31)	 x31:0x8000815d x25=0x00000000 PA:0x80008215
        9895000	       988	80004328	cd348a93	addi	x21,x9,-813	  x9:0x8000815d x21=0x80007e30
        9905000	       989	8000432c	28b74713	xori	x14,x14,651	 x14:0x00000000 x14=0x0000028b
        9915000	       990	80004330	362f8883	lb	x17,866(x31)	 x31:0x8000815d x17=0x00000000 PA:0x800084bf
        9925000	       991	80004334	037b9e63	bne	x23,x23,80004370	 x23:0x15a863a5 x23:0x15a863a5
        9935000	       992	80004338	01315193	srli	x3,x2,0x13	  x2:0xb8379f10  x3=0x00001706
        9945000	       993	8000433c	00b75693	srli	x13,x14,0xb	 x14:0x0000028b x13=0x00000000
        9955000	       994	80004340	021f9a63	bne	x31,x1,80004374	 x31:0x8000815d  x1:0x7941e59e
        9965000	       995	00000000	00000013	addi	x0,x0,0	  x0:0x00000000
        9975000	       996	80004370	00000013	addi	x0,x0,0	  x0:0x00000000
        9985000	       997	80004374	00025f13	srli	x30,x4,0x0	  x4:0x95a8ebbf x30=0x95a8ebbf
        9995000	       998	80004378	0126a3b3	slt	x7,x13,x18	 x13:0x00000000 x18:0x00000000  x7=0x00000000
       10005000	       999	8000437c	00a21a33	sll	x20,x4,x10	  x4:0x95a8ebbf x10:0xe41e7304 x20=0x5a8ebbf0
       10015000	      1000	80004380	34e2cfb7	lui	x31,0x34e2c	 x31=0x34e2c000
       10025000	      1001	80004384	01769033	sll	x0,x13,x23	 x13:0x00000000 x23:0x15a863a5
       10035000	      1002	80004388	0052a933	slt	x18,x5,x5	  x5:0x80000000  x5:0x80000000 x18=0x00000000
       10045000	      1003	8000438c	0069de63	bge	x19,x6,800043a8	 x19:0xfffffca1  x6:0x003fffff
       10055000	      1004	80004390	02976c63	bltu	x14,x9,800043c8	 x14:0x0000028b  x9:0x8000815d
       10065000	      1005	00000000	00000013	addi	x0,x0,0	  x0:0x00000000
       10075000	      1006	800043c4	00000013	addi	x0,x0,0	  x0:0x00000000
       10085000	      1007	800043c8	01241233	sll	x4,x8,x18	  x8:0x00000001 x18:0x00000000  x4=0x00000001
       10095000	      1008	800043cc	05419863	bne	x3,x20,8000441c	  x3:0x00001706 x20:0x5a8ebbf0
       10105000	      1009	00000000	00000013	addi	x0,x0,0	  x0:0x00000000
       10115000	      1010	80004418	00000013	addi	x0,x0,0	  x0:0x00000000
       10125000	      1011	8000441c	01a169b3	or	x19,x2,x26	  x2:0xb8379f10 x26:0x80009f78 x19=0xb8379f78
       10135000	      1012	80004420	0027dc63	bge	x15,x2,80004438	 x15:0x00000000  x2:0xb8379f10
       10145000	      1013	00000000	00000013	addi	x0,x0,0	  x0:0x00000000
       10155000	      1014	80004434	00000013	addi	x0,x0,0	  x0:0x00000000
       10165000	      1015	80004438	0089d513	srli	x10,x19,0x8	 x19:0xb8379f78 x10=0x00b8379f
       10175000	      1016	8000443c	5c2b2f13	slti	x30,x22,1474	 x22:0x84d78000 x30=0x00000001
       10185000	      1017	80004440	00dc5133	srl	x2,x24,x13	 x24:0x7941e11c x13:0x00000000  x2=0x7941e11c
       10195000	      1018	80004444	00542333	slt	x6,x8,x5	  x8:0x00000001  x5:0x80000000  x6=0x00000000
       10205000	      1019	80004448	40f256b3	sra	x13,x4,x15	  x4:0x00000001 x15:0x00000000 x13=0x00000001
       10215000	      1020	8000444c	00eefa33	and	x20,x29,x14	 x29:0xfff00013 x14:0x0000028b x20=0x00000003
       10225000	      1021	80004450	402588b3	sub	x17,x11,x2	 x11:0x00000000  x2:0x7941e11c x17=0x86be1ee4
       10235000	      1022	80004454	90f87913	andi	x18,x16,-1777	 x16:0x00000000 x18=0x00000000
       10245000	      1023	80004458	01d6e533	or	x10,x13,x29	 x13:0x00000001 x29:0xfff00013 x10=0xfff00013
       10255000	      1024	8000445c	31caf817	auipc	x16,0x31caf	 x16=0xb1cb3458
       10265000	      1025	80004460	0123f633	and	x12,x7,x18	  x7:0x00000000 x18:0x00000000 x12=0x00000000
       10275000	      1026	80004464	40300a33	sub	x20,x0,x3	  x0:0x00000000  x3:0x00001706 x20=0xffffe8fa
       10285000	      1027	80004468	28fd0993	addi	x19,x26,655	 x26:0x80009f78 x19=0x8000a207
       10295000	      1028	8000446c	413d86b3	sub	x13,x27,x19	 x27:0x80009cb9 x19:0x8000a207 x13=0xfffffab2
       10305000	      1029	80004470	02315c63	bge	x2,x3,800044a8	  x2:0x7941e11c  x3:0x00001706
       10315000	      1030	00000000	00000013	addi	x0,x0,0	  x0:0x00000000
       10325000	      1031	800044a4	00000013	addi	x0,x0,0	  x0:0x00000000
       10335000	      1032	800044a8	05685863	bge	x16,x22,800044f8	 x16:0xb1cb3458 x22:0x84d78000
       10345000	      1033	00000000	00000013	addi	x0,x0,0	  x0:0x00000000
       10355000	      1034	800044f4	00000013	addi	x0,x0,0	  x0:0x00000000
       10365000	      1035	800044f8	03319863	bne	x3,x19,80004528	  x3:0x00001706 x19:0x8000a207
       10375000	      1036	00000000	00000013	addi	x0,x0,0	  x0:0x00000000
       10385000	      1037	80004524	00000013	addi	x0,x0,0	  x0:0x00000000
       10395000	      1038	80004528	89023413	sltiu	x8,x4,-1904	  x4:0x00000001  x8=0x00000001
       10405000	      1039	8000452c	01209e63	bne	x1,x18,80004548	  x1:0x7941e59e x18:0x00000000
       10415000	      1040	00000000	00000013	addi	x0,x0,0	  x0:0x00000000
       10425000	      1041	80004544	00000013	addi	x0,x0,0	  x0:0x00000000
       10435000	      1042	80004548	af01acb7	lui	x25,0xaf01a	 x25=0xaf01a000
       10445000	      1043	8000454c	02944a63	blt	x8,x9,80004580	  x8:0x00000001  x9:0x8000815d
       10455000	      1044	80004550	415b0633	sub	x12,x22,x21	 x22:0x84d78000 x21:0x80007e30 x12=0x04d701d0
       10465000	      1045	80004554	00cc50b3	srl	x1,x24,x12	 x24:0x7941e11c x12:0x04d701d0  x1=0x00007941
       10475000	      1046	80004558	002e61b3	or	x3,x28,x2	 x28:0x80009fc4  x2:0x7941e11c  x3=0xf941ffdc
       10485000	      1047	8000455c	01ff9a63	bne	x31,x31,80004570	 x31:0x34e2c000 x31:0x34e2c000
       10495000	      1048	80004560	69920113	addi	x2,x4,1689	  x4:0x00000001  x2=0x0000069a
       10505000	      1049	80004564	03281a63	bne	x16,x18,80004598	 x16:0xb1cb3458 x18:0x00000000
       10515000	      1050	00000000	00000013	addi	x0,x0,0	  x0:0x00000000
       10525000	      1051	80004594	00000013	addi	x0,x0,0	  x0:0x00000000
       10535000	      1052	80004598	b3b3d737	lui	x14,0xb3b3d	 x14=0xb3b3d000
       10545000	      1053	8000459c	0245da63	bge	x11,x4,800045d0	 x11:0x00000000  x4:0x00000001
       10555000	      1054	800045a0	400204b3	sub	x9,x4,x0	  x4:0x00000001  x0:0x00000000  x9=0x00000001
       10565000	      1055	800045a4	01ff1663	bne	x30,x31,800045b0	 x30:0x00000001 x31:0x34e2c000
       10575000	      1056	00000000	00000013	addi	x0,x0,0	  x0:0x00000000
       10585000	      1057	800045ac	00000013	addi	x0,x0,0	  x0:0x00000000
       10595000	      1058	800045b0	41a70733	sub	x14,x14,x26	 x14:0xb3b3d000 x26:0x80009f78 x14=0x33b33088
       10605000	      1059	800045b4	03229863	bne	x5,x18,800045e4	  x5:0x80000000 x18:0x00000000
       10615000	      1060	00000000	00000013	addi	x0,x0,0	  x0:0x00000000
       10625000	      1061	800045e0	00000013	addi	x0,x0,0	  x0:0x00000000
       10635000	      1062	800045e4	24f9b3b7	lui	x7,0x24f9b	  x7=0x24f9b000
       10645000	      1063	800045e8	00da7f33	and	x30,x20,x13	 x20:0xffffe8fa x13:0xfffffab2 x30=0xffffe8b2
       10655000	      1064	800045ec	0070de63	bge	x1,x7,80004608	  x1:0x00007941  x7:0x24f9b000
       10665000	      1065	800045f0	0006e863	bltu	x13,x0,80004600	 x13:0xfffffab2  x0:0x00000000
       10675000	      1066	800045f4	406e09b3	sub	x19,x28,x6	 x28:0x80009fc4  x6:0x00000000 x19=0x80009fc4
       10685000	      1067	800045f8	cbe84c13	xori	x24,x16,-834	 x16:0xb1cb3458 x24=0x4e34c8e6
       10695000	      1068	800045fc	01968463	beq	x13,x25,80004604	 x13:0xfffffab2 x25:0xaf01a000
       10705000	      1069	80004600	00000013	addi	x0,x0,0	  x0:0x00000000
       10715000	      1070	80004604	94e7d737	lui	x14,0x94e7d	 x14=0x94e7d000
       10725000	      1071	80004608	e27c6f37	lui	x30,0xe27c6	 x30=0xe27c6000
       10735000	      1072	8000460c	01ca8bb3	add	x23,x21,x28	 x21:0x80007e30 x28:0x80009fc4 x23=0x00011df4
       10745000	      1073	80004610	54380313	addi	x6,x16,1347	 x16:0xb1cb3458  x6=0xb1cb399b
       10755000	      1074	80004614	017d65b3	or	x11,x26,x23	 x26:0x80009f78 x23:0x00011df4 x11=0x80019ffc
       10765000	      1075	80004618	0190c833	xor	x16,x1,x25	  x1:0x00007941 x25:0xaf01a000 x16=0xaf01d941
       10775000	      1076	8000461c	403600b3	sub	x1,x12,x3	 x12:0x04d701d0  x3:0xf941ffdc  x1=0x0b9501f4
       10785000	      1077	80004620	415ada93	srai	x21,x21,0x15	 x21:0x80007e30 x21=0xfffffc00
       10795000	      1078	80004624	0163bcb3	sltu	x25,x7,x22	  x7:0x24f9b000 x22:0x84d78000 x25=0x00000001
       10805000	      1079	80004628	01d1ab33	slt	x22,x3,x29	  x3:0xf941ffdc x29:0xfff00013 x22=0x00000001
       10815000	      1080	8000462c	00509813	slli	x16,x1,0x5	  x1:0x0b9501f4 x16=0x72a03e80
       10825000	      1081	80004630	00c09c93	slli	x25,x1,0xc	  x1:0x0b9501f4 x25=0x501f4000
       10835000	      1082	80004634	03379063	bne	x15,x19,80004654	 x15:0x00000000 x19:0x80009fc4
       10845000	      1083	00000000	00000013	addi	x0,x0,0	  x0:0x00000000
       10855000	      1084	80004650	00000013	addi	x0,x0,0	  x0:0x00000000
       10865000	      1085	80004654	0205de63	bge	x11,x0,80004690	 x11:0x80019ffc  x0:0x00000000
       10875000	      1086	80004658	41a15913	srai	x18,x2,0x1a	  x2:0x0000069a x18=0x00000000
       10885000	      1087	8000465c	d626f693	andi	x13,x13,-670	 x13:0xfffffab2 x13=0xfffff822
       10895000	      1088	80004660	000afb33	and	x22,x21,x0	 x21:0xfffffc00  x0:0x00000000 x22=0x00000000
       10905000	      1089	80004664	41038633	sub	x12,x7,x16	  x7:0x24f9b000 x16:0x72a03e80 x12=0xb2597180
       10915000	      1090	80004668	02df0a63	beq	x30,x13,8000469c	 x30:0xe27c6000 x13:0xfffff822
       10925000	      1091	8000466c	02f11c63	bne	x2,x15,800046a4	  x2:0x0000069a x15:0x00000000
       10935000	      1092	00000000	00000013	addi	x0,x0,0	  x0:0x00000000
       10945000	      1093	800046a0	00000013	addi	x0,x0,0	  x0:0x00000000
       10955000	      1094	800046a4	0171d863	bge	x3,x23,800046b4	  x3:0xf941ffdc x23:0x00011df4
       10965000	      1095	800046a8	01389a33	sll	x20,x17,x19	 x17:0x86be1ee4 x19:0x80009fc4 x20=0x6be1ee40
       10975000	      1096	800046ac	013faab3	slt	x21,x31,x19	 x31:0x34e2c000 x19:0x80009fc4 x21=0x00000000
       10985000	      1097	800046b0	53f56493	ori	x9,x10,1343	 x10:0xfff00013  x9=0xfff0053f
       10995000	      1098	800046b4	010a6663	bltu	x20,x16,800046c0	 x20:0x6be1ee40 x16:0x72a03e80
       11005000	      1099	00000000	00000013	addi	x0,x0,0	  x0:0x00000000
       11015000	      1100	800046bc	00000013	addi	x0,x0,0	  x0:0x00000000
       11025000	      1101	800046c0	41ecf813	andi	x16,x25,1054	 x25:0x501f4000 x16=0x00000000
       11035000	      1102	800046c4	0104efb3	or	x31,x9,x16	  x9:0xfff0053f x16:0x00000000 x31=0xfff0053f
       11045000	      1103	800046c8	00358eb3	add	x29,x11,x3	 x11:0x80019ffc  x3:0xf941ffdc x29=0x79439fd8
       11055000	      1104	800046cc	005c99b3	sll	x19,x25,x5	 x25:0x501f4000  x5:0x80000000 x19=0x501f4000
       11065000	      1105	800046d0	01984463	blt	x16,x25,800046d8	 x16:0x00000000 x25:0x501f4000
       11075000	      1106	00000000	00000013	addi	x0,x0,0	  x0:0x00000000
       11085000	      1107	800046d4	00000013	addi	x0,x0,0	  x0:0x00000000
       11095000	      1108	800046d8	0151edb3	or	x27,x3,x21	  x3:0xf941ffdc x21:0x00000000 x27=0xf941ffdc
       11105000	      1109	800046dc	00439bb3	sll	x23,x7,x4	  x7:0x24f9b000  x4:0x00000001 x23=0x49f36000
       11115000	      1110	800046e0	00ddc333	xor	x6,x27,x13	 x27:0xf941ffdc x13:0xfffff822  x6=0x06be07fe
       11125000	      1111	800046e4	419a0333	sub	x6,x20,x25	 x20:0x6be1ee40 x25:0x501f4000  x6=0x1bc2ae40
       11135000	      1112	800046e8	01e7d913	srli	x18,x15,0x1e	 x15:0x00000000 x18=0x00000000
       11145000	      1113	800046ec	a2ba3313	sltiu	x6,x20,-1493	 x20:0x6be1ee40  x6=0x00000001
       11155000	      1114	800046f0	05931063	bne	x6,x25,80004730	  x6:0x00000001 x25:0x501f4000
       11165000	      1115	00000000	00000013	addi	x0,x0,0	  x0:0x00000000
       11175000	      1116	8000472c	00000013	addi	x0,x0,0	  x0:0x00000000
       11185000	      1117	80004730	46ba5417	auipc	x8,0x46ba5	  x8=0xc6ba972c
       11195000	      1118	80004734	00b15e63	bge	x2,x11,80004750	  x2:0x0000069a x11:0x80019ffc
       11205000	      1119	00000000	00000013	addi	x0,x0,0	  x0:0x00000000
       11215000	      1120	8000474c	00000013	addi	x0,x0,0	  x0:0x00000000
       11225000	      1121	80004750	5d46cc93	xori	x25,x13,1492	 x13:0xfffff822 x25=0xfffffdf6
       11235000	      1122	80004754	01c073b3	and	x7,x0,x28	  x0:0x00000000 x28:0x80009fc4  x7=0x00000000
       11245000	      1123	80004758	404fdf13	srai	x30,x31,0x4	 x31:0xfff0053f x30=0xffff0053
       11255000	      1124	8000475c	0012fb33	and	x22,x5,x1	  x5:0x80000000  x1:0x0b9501f4 x22=0x00000000
       11265000	      1125	80004760	411950b3	sra	x1,x18,x17	 x18:0x00000000 x17:0x86be1ee4  x1=0x00000000
       11275000	      1126	80004764	007a84b3	add	x9,x21,x7	 x21:0x00000000  x7:0x00000000  x9=0x00000000
       11285000	      1127	80004768	01d785b3	add	x11,x15,x29	 x15:0x00000000 x29:0x79439fd8 x11=0x79439fd8
       11295000	      1128	8000476c	04358063	beq	x11,x3,800047ac	 x11:0x79439fd8  x3:0xf941ffdc
       11305000	      1129	80004770	387a8c13	addi	x24,x21,903	 x21:0x00000000 x24=0x00000387
       11315000	      1130	80004774	954f4393	xori	x7,x30,-1708	 x30:0xffff0053  x7=0x0000f907
       11325000	      1131	80004778	03b61663	bne	x12,x27,800047a4	 x12:0xb2597180 x27:0xf941ffdc
       11335000	      1132	00000000	00000013	addi	x0,x0,0	  x0:0x00000000
       11345000	      1133	800047a0	00000013	addi	x0,x0,0	  x0:0x00000000
       11355000	      1134	800047a4	bd99bd93	sltiu	x27,x19,-1063	 x19:0x501f4000 x27=0x00000001
       11365000	      1135	800047a8	00000013	addi	x0,x0,0	  x0:0x00000000
       11375000	      1136	800047ac	00529013	slli	x0,x5,0x5	  x5:0x80000000
       11385000	      1137	800047b0	03d5fa63	bgeu	x11,x29,800047e4	 x11:0x79439fd8 x29:0x79439fd8
       11395000	      1138	00000000	00000013	addi	x0,x0,0	  x0:0x00000000
       11405000	      1139	800047e0	00000013	addi	x0,x0,0	  x0:0x00000000
       11415000	      1140	800047e4	03857863	bgeu	x10,x24,80004814	 x10:0xfff00013 x24:0x00000387
       11425000	      1141	00000000	00000013	addi	x0,x0,0	  x0:0x00000000
       11435000	      1142	80004810	00000013	addi	x0,x0,0	  x0:0x00000000
       11445000	      1143	80004814	40885033	sra	x0,x16,x8	 x16:0x00000000  x8:0xc6ba972c
       11455000	      1144	80004818	0125b9b3	sltu	x19,x11,x18	 x11:0x79439fd8 x18:0x00000000 x19=0x00000000
       11465000	      1145	8000481c	01d6acb3	slt	x25,x13,x29	 x13:0xfffff822 x29:0x79439fd8 x25=0x00000001
       11475000	      1146	80004820	94083493	sltiu	x9,x16,-1728	 x16:0x00000000  x9=0x00000001
       11485000	      1147	80004824	0077f233	and	x4,x15,x7	 x15:0x00000000  x7:0x0000f907  x4=0x00000000
       11495000	      1148	80004828	011d1e63	bne	x26,x17,80004844	 x26:0x80009f78 x17:0x86be1ee4
       11505000	      1149	00000000	00000013	addi	x0,x0,0	  x0:0x00000000
       11515000	      1150	80004840	00000013	addi	x0,x0,0	  x0:0x00000000
       11525000	      1151	80004844	01a50833	add	x16,x10,x26	 x10:0xfff00013 x26:0x80009f78 x16=0x7ff09f8b
       11535000	      1152	80004848	04d75863	bge	x14,x13,80004898	 x14:0x94e7d000 x13:0xfffff822
       11545000	      1153	8000484c	045a6063	bltu	x20,x5,8000488c	 x20:0x6be1ee40  x5:0x80000000
       11555000	      1154	00000000	00000013	addi	x0,x0,0	  x0:0x00000000
       11565000	      1155	80004888	00000013	addi	x0,x0,0	  x0:0x00000000
       11575000	      1156	8000488c	01bef533	and	x10,x29,x27	 x29:0x79439fd8 x27:0x00000001 x10=0x00000000
       11585000	      1157	80004890	40b55633	sra	x12,x10,x11	 x10:0x00000000 x11:0x79439fd8 x12=0x00000000
       11595000	      1158	80004894	004cf0b3	and	x1,x25,x4	 x25:0x00000001  x4:0x00000000  x1=0x00000000
       11605000	      1159	80004898	013e76b3	and	x13,x28,x19	 x28:0x80009fc4 x19:0x00000000 x13=0x00000000
       11615000	      1160	8000489c	00092c33	slt	x24,x18,x0	 x18:0x00000000  x0:0x00000000 x24=0x00000000
       11625000	      1161	800048a0	6be8c693	xori	x13,x17,1726	 x17:0x86be1ee4 x13=0x86be185a
       11635000	      1162	800048a4	011c24b3	slt	x9,x24,x17	 x24:0x00000000 x17:0x86be1ee4  x9=0x00000000
       11645000	      1163	800048a8	01268a33	add	x20,x13,x18	 x13:0x86be185a x18:0x00000000 x20=0x86be185a
       11655000	      1164	800048ac	a3e6c493	xori	x9,x13,-1474	 x13:0x86be185a  x9=0x7941e264
       11665000	      1165	800048b0	0081dcb3	srl	x25,x3,x8	  x3:0xf941ffdc  x8:0xc6ba972c x25=0x000f941f
       11675000	      1166	800048b4	665b0593	addi	x11,x22,1637	 x22:0x00000000 x11=0x00000665
       11685000	      1167	800048b8	8dc77513	andi	x10,x14,-1828	 x14:0x94e7d000 x10=0x94e7d000
       11695000	      1168	800048bc	8084bc13	sltiu	x24,x9,-2040	  x9:0x7941e264 x24=0x00000001
       11705000	      1169	800048c0	41ee0f33	sub	x30,x28,x30	 x28:0x80009fc4 x30:0xffff0053 x30=0x80019f71
       11715000	      1170	800048c4	4194d393	srai	x7,x9,0x19	  x9:0x7941e264  x7=0x0000003c
       11725000	      1171	800048c8	0166a933	slt	x18,x13,x22	 x13:0x86be185a x22:0x00000000 x18=0x00000001
       11735000	      1172	800048cc	0146bfb3	sltu	x31,x13,x20	 x13:0x86be185a x20:0x86be185a x31=0x00000000
       11745000	      1173	800048d0	00083633	sltu	x12,x16,x0	 x16:0x7ff09f8b  x0:0x00000000 x12=0x00000000
       11755000	      1174	800048d4	01e4fdb3	and	x27,x9,x30	  x9:0x7941e264 x30:0x80019f71 x27=0x00018260
       11765000	      1175	800048d8	00b59693	slli	x13,x11,0xb	 x11:0x00000665 x13=0x00332800
       11775000	      1176	800048dc	015726b3	slt	x13,x14,x21	 x14:0x94e7d000 x21:0x00000000 x13=0x00000001
       11785000	      1177	800048e0	0051a433	slt	x8,x3,x5	  x3:0xf941ffdc  x5:0x80000000  x8=0x00000000
       11795000	      1178	800048e4	0212fa63	bgeu	x5,x1,80004918	  x5:0x80000000  x1:0x00000000
       11805000	      1179	00000000	00000013	addi	x0,x0,0	  x0:0x00000000
       11815000	      1180	80004914	00000013	addi	x0,x0,0	  x0:0x00000000
       11825000	      1181	80004918	00457433	and	x8,x10,x4	 x10:0x94e7d000  x4:0x00000000  x8=0x00000000
       11835000	      1182	8000491c	05328063	beq	x5,x19,8000495c	  x5:0x80000000 x19:0x00000000
       11845000	      1183	80004920	a2b5f393	andi	x7,x11,-1493	 x11:0x00000665  x7=0x00000221
       11855000	      1184	80004924	00c65933	srl	x18,x12,x12	 x12:0x00000000 x12:0x00000000 x18=0x00000000
       11865000	      1185	80004928	010b5433	srl	x8,x22,x16	 x22:0x00000000 x16:0x7ff09f8b  x8=0x00000000
       11875000	      1186	8000492c	41e35713	srai	x14,x6,0x1e	  x6:0x00000001 x14=0x00000000
       11885000	      1187	80004930	00f0dc63	bge	x1,x15,80004948	  x1:0x00000000 x15:0x00000000
       11895000	      1188	00000000	00000013	addi	x0,x0,0	  x0:0x00000000
       11905000	      1189	80004944	00000013	addi	x0,x0,0	  x0:0x00000000
       11915000	      1190	80004948	0039db93	srli	x23,x19,0x3	 x19:0x00000000 x23=0x00000000
       11925000	      1191	8000494c	003d0863	beq	x26,x3,8000495c	 x26:0x80009f78  x3:0xf941ffdc
       11935000	      1192	80004950	001b21b3	slt	x3,x22,x1	 x22:0x00000000  x1:0x00000000  x3=0x00000000
       11945000	      1193	80004954	028d0c63	beq	x26,x8,8000498c	 x26:0x80009f78  x8:0x00000000
       11955000	      1194	80004958	005e4ab3	xor	x21,x28,x5	 x28:0x80009fc4  x5:0x80000000 x21=0x00009fc4
       11965000	      1195	8000495c	01d670b3	and	x1,x12,x29	 x12:0x00000000 x29:0x79439fd8  x1=0x00000000
       11975000	      1196	80004960	bd9a4393	xori	x7,x20,-1063	 x20:0x86be185a  x7=0x7941e383
       11985000	      1197	80004964	00fcd993	srli	x19,x25,0xf	 x25:0x000f941f x19=0x0000001f
       11995000	      1198	80004968	00d1de63	bge	x3,x13,80004984	  x3:0x00000000 x13:0x00000001
       12005000	      1199	8000496c	4045dcb3	sra	x25,x11,x4	 x11:0x00000665  x4:0x00000000 x25=0x00000665
       12015000	      1200	80004970	000d4cb3	xor	x25,x26,x0	 x26:0x80009f78  x0:0x00000000 x25=0x80009f78
       12025000	      1201	80004974	03036663	bltu	x6,x16,800049a0	  x6:0x00000001 x16:0x7ff09f8b
       12035000	      1202	00000000	00000013	addi	x0,x0,0	  x0:0x00000000
       12045000	      1203	8000499c	00000013	addi	x0,x0,0	  x0:0x00000000
       12055000	      1204	800049a0	01be1c63	bne	x28,x27,800049b8	 x28:0x80009fc4 x27:0x00018260
       12065000	      1205	00000000	00000013	addi	x0,x0,0	  x0:0x00000000
       12075000	      1206	800049b4	00000013	addi	x0,x0,0	  x0:0x00000000
       12085000	      1207	800049b8	00000013	addi	x0,x0,0	  x0:0x00000000
       12095000	      1208	800049bc	05318993	addi	x19,x3,83	  x3:0x00000000 x19=0x00000053
       12105000	      1209	800049c0	00102133	slt	x2,x0,x1	  x0:0x00000000  x1:0x00000000  x2=0x00000000
       12115000	      1210	800049c4	4122de93	srai	x29,x5,0x12	  x5:0x80000000 x29=0xffffe000
       12125000	      1211	800049c8	40ef01b3	sub	x3,x30,x14	 x30:0x80019f71 x14:0x00000000  x3=0x80019f71
       12135000	      1212	800049cc	13fae497	auipc	x9,0x13fae	  x9=0x93fb29c8
       12145000	      1213	800049d0	0154ef33	or	x30,x9,x21	  x9:0x93fb29c8 x21:0x00009fc4 x30=0x93fbbfcc
       12155000	      1214	800049d4	00335e63	bge	x6,x3,800049f0	  x6:0x00000001  x3:0x80019f71
       12165000	      1215	00000000	00000013	addi	x0,x0,0	  x0:0x00000000
       12175000	      1216	800049ec	00000013	addi	x0,x0,0	  x0:0x00000000
       12185000	      1217	800049f0	00c93ab3	sltu	x21,x18,x12	 x18:0x00000000 x12:0x00000000 x21=0x00000000
       12195000	      1218	800049f4	01e0df33	srl	x30,x1,x30	  x1:0x00000000 x30:0x93fbbfcc x30=0x00000000
       12205000	      1219	800049f8	00c8ca63	blt	x17,x12,80004a0c	 x17:0x86be1ee4 x12:0x00000000
       12215000	      1220	00000000	00000013	addi	x0,x0,0	  x0:0x00000000
       12225000	      1221	80004a08	00000013	addi	x0,x0,0	  x0:0x00000000
       12235000	      1222	80004a0c	013f1913	slli	x18,x30,0x13	 x30:0x00000000 x18=0x00000000
       12245000	      1223	80004a10	004ffdb3	and	x27,x31,x4	 x31:0x00000000  x4:0x00000000 x27=0x00000000
       12255000	      1224	80004a14	dc567117	auipc	x2,0xdc567	  x2=0x5c56ba10
       12265000	      1225	80004a18	40795833	sra	x16,x18,x7	 x18:0x00000000  x7:0x7941e383 x16=0x00000000
       12275000	      1226	80004a1c	b3484013	xori	x0,x16,-1228	 x16:0x00000000
       12285000	      1227	80004a20	03f77a63	bgeu	x14,x31,80004a54	 x14:0x00000000 x31:0x00000000
       12295000	      1228	00000000	00000013	addi	x0,x0,0	  x0:0x00000000
       12305000	      1229	80004a50	00000013	addi	x0,x0,0	  x0:0x00000000
       12315000	      1230	80004a54	022be863	bltu	x23,x2,80004a84	 x23:0x00000000  x2:0x5c56ba10
       12325000	      1231	00000000	00000013	addi	x0,x0,0	  x0:0x00000000
       12335000	      1232	80004a80	00000013	addi	x0,x0,0	  x0:0x00000000
       12345000	      1233	80004a84	019fcc63	blt	x31,x25,80004a9c	 x31:0x00000000 x25:0x80009f78
       12355000	      1234	80004a88	111e3013	sltiu	x0,x28,273	 x28:0x80009fc4
       12365000	      1235	80004a8c	01510833	add	x16,x2,x21	  x2:0x5c56ba10 x21:0x00000000 x16=0x5c56ba10
       12375000	      1236	80004a90	00947a63	bgeu	x8,x9,80004aa4	  x8:0x00000000  x9:0x93fb29c8
       12385000	      1237	80004a94	415fdb93	srai	x23,x31,0x15	 x31:0x00000000 x23=0x00000000
       12395000	      1238	80004a98	01f86863	bltu	x16,x31,80004aa8	 x16:0x5c56ba10 x31:0x00000000
       12405000	      1239	80004a9c	d38f7c13	andi	x24,x30,-712	 x30:0x00000000 x24=0x00000000
       12415000	      1240	80004aa0	c2dd6313	ori	x6,x26,-979	 x26:0x80009f78  x6=0xffffff7d
       12425000	      1241	80004aa4	40005133	sra	x2,x0,x0	  x0:0x00000000  x0:0x00000000  x2=0x00000000
       12435000	      1242	80004aa8	00029863	bne	x5,x0,80004ab8	  x5:0x80000000  x0:0x00000000
       12445000	      1243	00000000	00000013	addi	x0,x0,0	  x0:0x00000000
       12455000	      1244	80004ab4	00000013	addi	x0,x0,0	  x0:0x00000000
       12465000	      1245	80004ab8	940e4593	xori	x11,x28,-1728	 x28:0x80009fc4 x11=0x7fff6684
       12475000	      1246	80004abc	00cf1993	slli	x19,x30,0xc	 x30:0x00000000 x19=0x00000000
       12485000	      1247	80004ac0	cdb76193	ori	x3,x14,-805	 x14:0x00000000  x3=0xfffffcdb
       12495000	      1248	80004ac4	0f3ce263	bltu	x25,x19,80004ba8	 x25:0x80009f78 x19:0x00000000
       12505000	      1249	80004ac8	00004c97	auipc	x25,0x4	 x25=0x80008ac4
       12515000	      1250	80004acc	21dc8c93	addi	x25,x25,541	 x25:0x80008ac4 x25=0x80008ce1
       12525000	      1251	80004ad0	5fffef93	ori	x31,x31,1535	 x31:0x00000000 x31=0x000005ff
       12535000	      1252	80004ad4	020cc903	lbu	x18,32(x25)	 x25:0x80008ce1 x18=0x00000000 PA:0x80008d01
       12545000	      1253	80004ad8	bbaefc13	andi	x24,x29,-1094	 x29:0xffffe000 x24=0xffffe000
       12555000	      1254	80004adc	01ec8a23	sb	x30,20(x25)	 x25:0x80008ce1 x30:0x00000000 PA:0x80008cf5
       12565000	      1255	80004ae0	011da4b3	slt	x9,x27,x17	 x27:0x00000000 x17:0x86be1ee4  x9=0x00000000
       12575000	      1256	80004ae4	fe2c8403	lb	x8,-30(x25)	 x25:0x80008ce1  x8=0x00000000 PA:0x80008cc3
       12585000	      1257	80004ae8	018c8da3	sb	x24,27(x25)	 x25:0x80008ce1 x24:0xffffe000 PA:0x80008cfc
       12595000	      1258	80004aec	00000013	addi	x0,x0,0	  x0:0x00000000
       12605000	      1259	80004af0	fdec8603	lb	x12,-34(x25)	 x25:0x80008ce1 x12=0x00000000 PA:0x80008cbf
       12615000	      1260	80004af4	fcacca03	lbu	x20,-54(x25)	 x25:0x80008ce1 x20=0x00000000 PA:0x80008cab
       12625000	      1261	80004af8	00000013	addi	x0,x0,0	  x0:0x00000000
       12635000	      1262	80004afc	feec8103	lb	x2,-18(x25)	 x25:0x80008ce1  x2=0x00000000 PA:0x80008ccf
       12645000	      1263	80004b00	fdec8023	sb	x30,-64(x25)	 x25:0x80008ce1 x30:0x00000000 PA:0x80008ca1
       12655000	      1264	80004b04	01787ab3	and	x21,x16,x23	 x16:0x5c56ba10 x23:0x00000000 x21=0x00000000
       12665000	      1265	80004b08	01f8e033	or	x0,x17,x31	 x17:0x86be1ee4 x31:0x000005ff
       12675000	      1266	80004b0c	018cce83	lbu	x29,24(x25)	 x25:0x80008ce1 x29=0x00000000 PA:0x80008cf9
       12685000	      1267	80004b10	fe4c8603	lb	x12,-28(x25)	 x25:0x80008ce1 x12=0x00000000 PA:0x80008cc5
       12695000	      1268	80004b14	fdbc8723	sb	x27,-50(x25)	 x25:0x80008ce1 x27:0x00000000 PA:0x80008caf
       12705000	      1269	80004b18	00000013	addi	x0,x0,0	  x0:0x00000000
       12715000	      1270	80004b1c	01dc8883	lb	x17,29(x25)	 x25:0x80008ce1 x17=0x00000000 PA:0x80008cfe
       12725000	      1271	80004b20	fe7b8793	addi	x15,x23,-25	 x23:0x00000000 x15=0xffffffe7
       12735000	      1272	80004b24	fcfc8923	sb	x15,-46(x25)	 x25:0x80008ce1 x15:0xffffffe7 PA:0x80008cb3
       12745000	      1273	80004b28	015c9483	lh	x9,21(x25)	 x25:0x80008ce1  x9=0x00000000 PA:0x80008cf6
       12755000	      1274	80004b2c	031c8623	sb	x17,44(x25)	 x25:0x80008ce1 x17:0x00000000 PA:0x80008d0d
       12765000	      1275	80004b30	014aabb3	slt	x23,x21,x20	 x21:0x00000000 x20:0x00000000 x23=0x00000000
       12775000	      1276	80004b34	00000013	addi	x0,x0,0	  x0:0x00000000
       12785000	      1277	80004b38	fdac8523	sb	x26,-54(x25)	 x25:0x80008ce1 x26:0x80009f78 PA:0x80008cab
       12795000	      1278	80004b3c	4122d813	srai	x16,x5,0x12	  x5:0x80000000 x16=0xffffe000
       12805000	      1279	80004b40	feecc403	lbu	x8,-18(x25)	 x25:0x80008ce1  x8=0x00000000 PA:0x80008ccf
       12815000	      1280	80004b44	02fc8583	lb	x11,47(x25)	 x25:0x80008ce1 x11=0x00000000 PA:0x80008d10
       12825000	      1281	80004b48	fd8c8683	lb	x13,-40(x25)	 x25:0x80008ce1 x13=0x00000000 PA:0x80008cb9
       12835000	      1282	80004b4c	cddca593	slti	x11,x25,-803	 x25:0x80008ce1 x11=0x00000001
       12845000	      1283	80004b50	fecccb83	lbu	x23,-20(x25)	 x25:0x80008ce1 x23=0x00000000 PA:0x80008ccd
       12855000	      1284	80004b54	4085d1b3	sra	x3,x11,x8	 x11:0x00000001  x8:0x00000000  x3=0x00000001
       12865000	      1285	80004b58	005c88a3	sb	x5,17(x25)	 x25:0x80008ce1  x5:0x80000000 PA:0x80008cf2
       12875000	      1286	80004b5c	fd9cd483	lhu	x9,-39(x25)	 x25:0x80008ce1  x9=0x00000000 PA:0x80008cba
       12885000	      1287	80004b60	f517b513	sltiu	x10,x15,-175	 x15:0xffffffe7 x10=0x00000000
       12895000	      1288	80004b64	007c8ba3	sb	x7,23(x25)	 x25:0x80008ce1  x7:0x7941e383 PA:0x80008cf8
       12905000	      1289	80004b68	00fc8ea3	sb	x15,29(x25)	 x25:0x80008ce1 x15:0xffffffe7 PA:0x80008cfe
       12915000	      1290	80004b6c	d3806813	ori	x16,x0,-712	  x0:0x00000000 x16=0xfffffd38
       12925000	      1291	80004b70	014cd193	srli	x3,x25,0x14	 x25:0x80008ce1  x3=0x00000800
       12935000	      1292	80004b74	01d29c13	slli	x24,x5,0x1d	  x5:0x80000000 x24=0x00000000
       12945000	      1293	80004b78	2be90913	addi	x18,x18,702	 x18:0x00000000 x18=0x000002be
       12955000	      1294	80004b7c	0005c663	blt	x11,x0,80004b88	 x11:0x00000001  x0:0x00000000
       12965000	      1295	80004b80	013256b3	srl	x13,x4,x19	  x4:0x00000000 x19:0x00000000 x13=0x00000000
       12975000	      1296	80004b84	0051e1b3	or	x3,x3,x5	  x3:0x00000800  x5:0x80000000  x3=0x80000800
       12985000	      1297	80004b88	01cb67b3	or	x15,x22,x28	 x22:0x00000000 x28:0x80009fc4 x15=0x80009fc4
       12995000	      1298	80004b8c	4136d133	sra	x2,x13,x19	 x13:0x00000000 x19:0x00000000  x2=0x00000000
       13005000	      1299	80004b90	00ab6bb3	or	x23,x22,x10	 x22:0x00000000 x10:0x00000000 x23=0x00000000
       13015000	      1300	80004b94	40805c13	srai	x24,x0,0x8	  x0:0x00000000 x24=0x00000000
       13025000	      1301	80004b98	0218cc63	blt	x17,x1,80004bd0	 x17:0x00000000  x1:0x00000000
       13035000	      1302	80004b9c	01117733	and	x14,x2,x17	  x2:0x00000000 x17:0x00000000 x14=0x00000000
       13045000	      1303	80004ba0	ddd2e497	auipc	x9,0xddd2e	  x9=0x5dd32b9c
       13055000	      1304	80004ba4	012163b3	or	x7,x2,x18	  x2:0x00000000 x18:0x000002be  x7=0x000002be
       13065000	      1305	80004ba8	033ec863	blt	x29,x19,80004bd8	 x29:0x00000000 x19:0x00000000
       13075000	      1306	80004bac	01a90033	add	x0,x18,x26	 x18:0x000002be x26:0x80009f78
       13085000	      1307	80004bb0	05f1c063	blt	x3,x31,80004bf0	  x3:0x80000800 x31:0x000005ff
       13095000	      1308	00000000	00000013	addi	x0,x0,0	  x0:0x00000000
       13105000	      1309	80004bec	00000013	addi	x0,x0,0	  x0:0x00000000
       13115000	      1310	80004bf0	017cb433	sltu	x8,x25,x23	 x25:0x80008ce1 x23:0x00000000  x8=0x00000000
       13125000	      1311	80004bf4	01985933	srl	x18,x16,x25	 x16:0xfffffd38 x25:0x80008ce1 x18=0x7ffffe9c
       13135000	      1312	80004bf8	00c0dab3	srl	x21,x1,x12	  x1:0x00000000 x12:0x00000000 x21=0x00000000
       13145000	      1313	80004bfc	40205413	srai	x8,x0,0x2	  x0:0x00000000  x8=0x00000000
       13155000	      1314	80004c00	01a2a133	slt	x2,x5,x26	  x5:0x80000000 x26:0x80009f78  x2=0x00000001
       13165000	      1315	80004c04	41bf5413	srai	x8,x30,0x1b	 x30:0x00000000  x8=0x00000000
       13175000	      1316	80004c08	2c00ee93	ori	x29,x1,704	  x1:0x00000000 x29=0x000002c0
       13185000	      1317	80004c0c	f289fb93	andi	x23,x19,-216	 x19:0x00000000 x23=0x00000000
       13195000	      1318	80004c10	00d0de63	bge	x1,x13,80004c2c	  x1:0x00000000 x13:0x00000000
       13205000	      1319	00000000	00000013	addi	x0,x0,0	  x0:0x00000000
       13215000	      1320	80004c28	00000013	addi	x0,x0,0	  x0:0x00000000
       13225000	      1321	80004c2c	0155c133	xor	x2,x11,x21	 x11:0x00000001 x21:0x00000000  x2=0x00000001
       13235000	      1322	80004c30	4103d933	sra	x18,x7,x16	  x7:0x000002be x16:0xfffffd38 x18=0x00000000
       13245000	      1323	80004c34	00461b93	slli	x23,x12,0x4	 x12:0x00000000 x23=0x00000000
       13255000	      1324	80004c38	cae29d97	auipc	x27,0xcae29	 x27=0x4ae2dc34
       13265000	      1325	80004c3c	010fbcb3	sltu	x25,x31,x16	 x31:0x000005ff x16:0xfffffd38 x25=0x00000001
       13275000	      1326	80004c40	d9576b37	lui	x22,0xd9576	 x22=0xd9576000
       13285000	      1327	80004c44	0108b3b3	sltu	x7,x17,x16	 x17:0x00000000 x16:0xfffffd38  x7=0x00000001
       13295000	      1328	80004c48	02901a63	bne	x0,x9,80004c7c	  x0:0x00000000  x9:0x5dd32b9c
       13305000	      1329	00000000	00000013	addi	x0,x0,0	  x0:0x00000000
       13315000	      1330	80004c78	00000013	addi	x0,x0,0	  x0:0x00000000
       13325000	      1331	80004c7c	027c5a63	bge	x24,x7,80004cb0	 x24:0x00000000  x7:0x00000001
       13335000	      1332	80004c80	0007c8b3	xor	x17,x15,x0	 x15:0x80009fc4  x0:0x00000000 x17=0x80009fc4
       13345000	      1333	80004c84	00b7f933	and	x18,x15,x11	 x15:0x80009fc4 x11:0x00000001 x18=0x00000000
       13355000	      1334	80004c88	40ffd513	srai	x10,x31,0xf	 x31:0x000005ff x10=0x00000000
       13365000	      1335	80004c8c	015e8133	add	x2,x29,x21	 x29:0x000002c0 x21:0x00000000  x2=0x000002c0
       13375000	      1336	80004c90	0421ed97	auipc	x27,0x421e	 x27=0x84222c8c
       13385000	      1337	80004c94	ebb46613	ori	x12,x8,-325	  x8:0x00000000 x12=0xfffffebb
       13395000	      1338	80004c98	0039ee63	bltu	x19,x3,80004cb4	 x19:0x00000000  x3:0x80000800
       13405000	      1339	00000000	00000013	addi	x0,x0,0	  x0:0x00000000
       13415000	      1340	80004cb0	00000013	addi	x0,x0,0	  x0:0x00000000
       13425000	      1341	80004cb4	27e9e593	ori	x11,x19,638	 x19:0x00000000 x11=0x0000027e
       13435000	      1342	80004cb8	dc927737	lui	x14,0xdc927	 x14=0xdc927000
       13445000	      1343	80004cbc	297a8f93	addi	x31,x21,663	 x21:0x00000000 x31=0x00000297
       13455000	      1344	80004cc0	9168e393	ori	x7,x17,-1770	 x17:0x80009fc4  x7=0xffffffd6
       13465000	      1345	80004cc4	03977e63	bgeu	x14,x25,80004d00	 x14:0xdc927000 x25:0x00000001
       13475000	      1346	00000000	00000013	addi	x0,x0,0	  x0:0x00000000
       13485000	      1347	80004cfc	00000013	addi	x0,x0,0	  x0:0x00000000
       13495000	      1348	80004d00	01d6b433	sltu	x8,x13,x29	 x13:0x00000000 x29:0x000002c0  x8=0x00000001
       13505000	      1349	80004d04	008b1913	slli	x18,x22,0x8	 x22:0xd9576000 x18=0x57600000
       13515000	      1350	80004d08	024d9a63	bne	x27,x4,80004d3c	 x27:0x84222c8c  x4:0x00000000
       13525000	      1351	00000000	00000013	addi	x0,x0,0	  x0:0x00000000
       13535000	      1352	80004d38	00000013	addi	x0,x0,0	  x0:0x00000000
       13545000	      1353	80004d3c	00000013	addi	x0,x0,0	  x0:0x00000000
       13555000	      1354	80004d40	005f5633	srl	x12,x30,x5	 x30:0x00000000  x5:0x80000000 x12=0x00000000
       13565000	      1355	80004d44	02506a63	bltu	x0,x5,80004d78	  x0:0x00000000  x5:0x80000000
       13575000	      1356	00000000	00000013	addi	x0,x0,0	  x0:0x00000000
       13585000	      1357	80004d74	00000013	addi	x0,x0,0	  x0:0x00000000
       13595000	      1358	80004d78	9729c413	xori	x8,x19,-1678	 x19:0x00000000  x8=0xfffff972
       13605000	      1359	80004d7c	039bd663	bge	x23,x25,80004da8	 x23:0x00000000 x25:0x00000001
       13615000	      1360	80004d80	000653b3	srl	x7,x12,x0	 x12:0x00000000  x0:0x00000000  x7=0x00000000
       13625000	      1361	80004d84	40fe5133	sra	x2,x28,x15	 x28:0x80009fc4 x15:0x80009fc4  x2=0xf80009fc
       13635000	      1362	80004d88	059c5063	bge	x24,x25,80004dc8	 x24:0x00000000 x25:0x00000001
       13645000	      1363	80004d8c	00ce6933	or	x18,x28,x12	 x28:0x80009fc4 x12:0x00000000 x18=0x80009fc4
       13655000	      1364	80004d90	00f6b3b3	sltu	x7,x13,x15	 x13:0x00000000 x15:0x80009fc4  x7=0x00000001
       13665000	      1365	80004d94	c6ed4f13	xori	x30,x26,-914	 x26:0x80009f78 x30=0x7fff6316
       13675000	      1366	80004d98	015e9463	bne	x29,x21,80004da0	 x29:0x000002c0 x21:0x00000000
       13685000	      1367	00000000	00000013	addi	x0,x0,0	  x0:0x00000000
       13695000	      1368	80004d9c	00000013	addi	x0,x0,0	  x0:0x00000000
       13705000	      1369	80004da0	01b81333	sll	x6,x16,x27	 x16:0xfffffd38 x27:0x84222c8c  x6=0xffd38000
       13715000	      1370	80004da4	e3297393	andi	x7,x18,-462	 x18:0x80009fc4  x7=0x80009e00
       13725000	      1371	80004da8	019f1b33	sll	x22,x30,x25	 x30:0x7fff6316 x25:0x00000001 x22=0xfffec62c
       13735000	      1372	80004dac	01dff463	bgeu	x31,x29,80004db4	 x31:0x00000297 x29:0x000002c0
       13745000	      1373	80004db0	7bfe6997	auipc	x19,0x7bfe6	 x19=0xfbfeadac
       13755000	      1374	80004db4	9cc57793	andi	x15,x10,-1588	 x10:0x00000000 x15=0x00000000
       13765000	      1375	80004db8	005d6b33	or	x22,x26,x5	 x26:0x80009f78  x5:0x80000000 x22=0x80009f78
       13775000	      1376	80004dbc	01e27433	and	x8,x4,x30	  x4:0x00000000 x30:0x7fff6316  x8=0x00000000
       13785000	      1377	80004dc0	01665b33	srl	x22,x12,x22	 x12:0x00000000 x22:0x80009f78 x22=0x00000000
       13795000	      1378	80004dc4	14c5c413	xori	x8,x11,332	 x11:0x0000027e  x8=0x00000332
       13805000	      1379	80004dc8	9a764b37	lui	x22,0x9a764	 x22=0x9a764000
       13815000	      1380	80004dcc	003488b3	add	x17,x9,x3	  x9:0x5dd32b9c  x3:0x80000800 x17=0xddd3339c
       13825000	      1381	80004dd0	69e0f093	andi	x1,x1,1694	  x1:0x00000000  x1=0x00000000
       13835000	      1382	80004dd4	019c0cb3	add	x25,x24,x25	 x24:0x00000000 x25:0x00000001 x25=0x00000001
       13845000	      1383	80004dd8	01048bb3	add	x23,x9,x16	  x9:0x5dd32b9c x16:0xfffffd38 x23=0x5dd328d4
       13855000	      1384	80004ddc	84208813	addi	x16,x1,-1982	  x1:0x00000000 x16=0xfffff842
       13865000	      1385	80004de0	120d4313	xori	x6,x26,288	 x26:0x80009f78  x6=0x80009e58
       13875000	      1386	80004de4	0017acb3	slt	x25,x15,x1	 x15:0x00000000  x1:0x00000000 x25=0x00000000
       13885000	      1387	80004de8	10e31c63	bne	x6,x14,80004f00	  x6:0x80009e58 x14:0xdc927000
       13895000	      1388	00000000	00000013	addi	x0,x0,0	  x0:0x00000000
       13905000	      1389	80004efc	00000013	addi	x0,x0,0	  x0:0x00000000
       13915000	      1390	80004f00	00715c63	bge	x2,x7,80004f18	  x2:0xf80009fc  x7:0x80009e00
       13925000	      1391	00000000	00000013	addi	x0,x0,0	  x0:0x00000000
       13935000	      1392	80004f14	00000013	addi	x0,x0,0	  x0:0x00000000
       13945000	      1393	80004f18	01df85b3	add	x11,x31,x29	 x31:0x00000297 x29:0x000002c0 x11=0x00000557
       13955000	      1394	80004f1c	ce24bf93	sltiu	x31,x9,-798	  x9:0x5dd32b9c x31=0x00000001
       13965000	      1395	80004f20	00ffef33	or	x30,x31,x15	 x31:0x00000001 x15:0x00000000 x30=0x00000001
       13975000	      1396	80004f24	0152a533	slt	x10,x5,x21	  x5:0x80000000 x21:0x00000000 x10=0x00000001
       13985000	      1397	80004f28	00813833	sltu	x16,x2,x8	  x2:0xf80009fc  x8:0x00000332 x16=0x00000000
       13995000	      1398	80004f2c	01726433	or	x8,x4,x23	  x4:0x00000000 x23:0x5dd328d4  x8=0x5dd328d4
       14005000	      1399	80004f30	401a8f33	sub	x30,x21,x1	 x21:0x00000000  x1:0x00000000 x30=0x00000000
       14015000	      1400	80004f34	0075d4b3	srl	x9,x11,x7	 x11:0x00000557  x7:0x80009e00  x9=0x00000557
       14025000	      1401	80004f38	052ec063	blt	x29,x18,80004f78	 x29:0x000002c0 x18:0x80009fc4
       14035000	      1402	80004f3c	c92d2c93	slti	x25,x26,-878	 x26:0x80009f78 x25=0x00000001
       14045000	      1403	80004f40	0e0f7737	lui	x14,0xe0f7	 x14=0x0e0f7000
       14055000	      1404	80004f44	04237063	bgeu	x6,x2,80004f84	  x6:0x80009e58  x2:0xf80009fc
       14065000	      1405	80004f48	41fadcb3	sra	x25,x21,x31	 x21:0x00000000 x31:0x00000001 x25=0x00000000
       14075000	      1406	80004f4c	001040b3	xor	x1,x0,x1	  x0:0x00000000  x1:0x00000000  x1=0x00000000
       14085000	      1407	80004f50	00c77033	and	x0,x14,x12	 x14:0x0e0f7000 x12:0x00000000
       14095000	      1408	80004f54	00b575b3	and	x11,x10,x11	 x10:0x00000001 x11:0x00000557 x11=0x00000001
       14105000	      1409	80004f58	e6868a13	addi	x20,x13,-408	 x13:0x00000000 x20=0xfffffe68
       14115000	      1410	80004f5c	0283e863	bltu	x7,x8,80004f8c	  x7:0x80009e00  x8:0x5dd328d4
       14125000	      1411	80004f60	00df9ab3	sll	x21,x31,x13	 x31:0x00000001 x13:0x00000000 x21=0x00000001
       14135000	      1412	80004f64	02fc5a63	bge	x24,x15,80004f98	 x24:0x00000000 x15:0x00000000
       14145000	      1413	00000000	00000013	addi	x0,x0,0	  x0:0x00000000
       14155000	      1414	80004f94	00000013	addi	x0,x0,0	  x0:0x00000000
       14165000	      1415	80004f98	00b8da63	bge	x17,x11,80004fac	 x17:0xddd3339c x11:0x00000001
       14175000	      1416	80004f9c	00b28b33	add	x22,x5,x11	  x5:0x80000000 x11:0x00000001 x22=0x80000001
       14185000	      1417	80004fa0	40d0f713	andi	x14,x1,1037	  x1:0x00000000 x14=0x00000000
       14195000	      1418	80004fa4	4172d833	sra	x16,x5,x23	  x5:0x80000000 x23:0x5dd328d4 x16=0xfffff800
       14205000	      1419	80004fa8	74faac93	slti	x25,x21,1871	 x21:0x00000001 x25=0x00000001
       14215000	      1420	80004fac	006e2333	slt	x6,x28,x6	 x28:0x80009fc4  x6:0x80009e58  x6=0x00000000
       14225000	      1421	80004fb0	00ba5a33	srl	x20,x20,x11	 x20:0xfffffe68 x11:0x00000001 x20=0x7fffff34
       14235000	      1422	80004fb4	41868bb3	sub	x23,x13,x24	 x13:0x00000000 x24:0x00000000 x23=0x00000000
       14245000	      1423	80004fb8	014b5e93	srli	x29,x22,0x14	 x22:0x80000001 x29=0x00000800
       14255000	      1424	80004fbc	00441e63	bne	x8,x4,80004fd8	  x8:0x5dd328d4  x4:0x00000000
       14265000	      1425	00000000	00000013	addi	x0,x0,0	  x0:0x00000000
       14275000	      1426	80004fd4	00000013	addi	x0,x0,0	  x0:0x00000000
       14285000	      1427	80004fd8	01659993	slli	x19,x11,0x16	 x11:0x00000001 x19=0x00400000
       14295000	      1428	80004fdc	00611cb3	sll	x25,x2,x6	  x2:0xf80009fc  x6:0x00000000 x25=0xf80009fc
       14305000	      1429	80004fe0	04c6d863	bge	x13,x12,80005030	 x13:0x00000000 x12:0x00000000
       14315000	      1430	00000000	00000013	addi	x0,x0,0	  x0:0x00000000
       14325000	      1431	8000502c	00000013	addi	x0,x0,0	  x0:0x00000000
       14335000	      1432	80005030	00ee68b3	or	x17,x28,x14	 x28:0x80009fc4 x14:0x00000000 x17=0x80009fc4
       14345000	      1433	80005034	00fedbb3	srl	x23,x29,x15	 x29:0x00000800 x15:0x00000000 x23=0x00000800
       14355000	      1434	80005038	01955493	srli	x9,x10,0x19	 x10:0x00000001  x9=0x00000000
       14365000	      1435	8000503c	2adeb413	sltiu	x8,x29,685	 x29:0x00000800  x8=0x00000000
       14375000	      1436	80005040	ef1d0617	auipc	x12,0xef1d0	 x12=0x6f1d503c
       14385000	      1437	80005044	0175acb3	slt	x25,x11,x23	 x11:0x00000001 x23:0x00000800 x25=0x00000001
       14395000	      1438	80005048	0142a5b3	slt	x11,x5,x20	  x5:0x80000000 x20:0x7fffff34 x11=0x00000001
       14405000	      1439	8000504c	b8512093	slti	x1,x2,-1147	  x2:0xf80009fc  x1=0x00000001
       14415000	      1440	80005050	c21bf913	andi	x18,x23,-991	 x23:0x00000800 x18=0x00000800
       14425000	      1441	80005054	bd1e6793	ori	x15,x28,-1071	 x28:0x80009fc4 x15=0xffffffd5
       14435000	      1442	80005058	00003d97	auipc	x27,0x3	 x27=0x80008054
       14445000	      1443	8000505c	126d8d93	addi	x27,x27,294	 x27:0x80008054 x27=0x8000817a
       14455000	      1444	80005060	007cda13	srli	x20,x25,0x7	 x25:0x00000001 x20=0x00000000
       14465000	      1445	80005064	fe6d9783	lh	x15,-26(x27)	 x27:0x8000817a x15=0x00000000 PA:0x80008160
       14475000	      1446	80005068	40795433	sra	x8,x18,x7	 x18:0x00000800  x7:0x80009e00  x8=0x00000800
       14485000	      1447	8000506c	013d8583	lb	x11,19(x27)	 x27:0x8000817a x11=0x00000000 PA:0x8000818d
       14495000	      1448	80005070	001dc783	lbu	x15,1(x27)	 x27:0x8000817a x15=0x00000000 PA:0x8000817b
       14505000	      1449	80005074	00d75393	srli	x7,x14,0xd	 x14:0x00000000  x7=0x00000000
       14515000	      1450	80005078	019683b3	add	x7,x13,x25	 x13:0x00000000 x25:0x00000001  x7=0x00000001
       14525000	      1451	8000507c	ff8d8e23	sb	x24,-4(x27)	 x27:0x8000817a x24:0x00000000 PA:0x80008176
       14535000	      1452	80005080	025dc003	lbu	x0,37(x27)	 x27:0x8000817a PA:0x8000819f
       14545000	      1453	80005084	9deada97	auipc	x21,0x9dead	 x21=0x1deb2080
       14555000	      1454	80005088	41b9d633	sra	x12,x19,x27	 x19:0x00400000 x27:0x8000817a x12=0x00000000
       14565000	      1455	8000508c	95fda393	slti	x7,x27,-1697	 x27:0x8000817a  x7=0x00000001
       14575000	      1456	80005090	bc266693	ori	x13,x12,-1086	 x12:0x00000000 x13=0xfffffbc2
       14585000	      1457	80005094	b2ec7493	andi	x9,x24,-1234	 x24:0x00000000  x9=0x00000000
       14595000	      1458	80005098	00bfa533	slt	x10,x31,x11	 x31:0x00000001 x11:0x00000000 x10=0x00000000
       14605000	      1459	8000509c	03bdc803	lbu	x16,59(x27)	 x27:0x8000817a x16=0x00000000 PA:0x800081b5
       14615000	      1460	800050a0	fe1dca03	lbu	x20,-31(x27)	 x27:0x8000817a x20=0x00000000 PA:0x8000815b
       14625000	      1461	800050a4	03fd8f83	lb	x31,63(x27)	 x27:0x8000817a x31=0x00000000 PA:0x800081b9
       14635000	      1462	800050a8	fd8d9083	lh	x1,-40(x27)	 x27:0x8000817a  x1=0x00000000 PA:0x80008152
       14645000	      1463	800050ac	038d9923	sh	x24,50(x27)	 x27:0x8000817a x24:0x00000000 PA:0x800081ac
       14655000	      1464	800050b0	fceda083	lw	x1,-50(x27)	 x27:0x8000817a  x1=0x00000000 PA:0x80008148
       14665000	      1465	800050b4	00000013	addi	x0,x0,0	  x0:0x00000000
       14675000	      1466	800050b8	01f11fb3	sll	x31,x2,x31	  x2:0xf80009fc x31:0x00000000 x31=0xf80009fc
       14685000	      1467	800050bc	01bd84a3	sb	x27,9(x27)	 x27:0x8000817a x27:0x8000817a PA:0x80008183
       14695000	      1468	800050c0	01cd9203	lh	x4,28(x27)	 x27:0x8000817a  x4=0x00000000 PA:0x80008196
       14705000	      1469	800050c4	c94a2a13	slti	x20,x20,-876	 x20:0x00000000 x20=0x00000000
       14715000	      1470	800050c8	ffcd9323	sh	x28,-26(x27)	 x27:0x8000817a x28:0x80009fc4 PA:0x80008160
       14725000	      1471	800050cc	4669a593	slti	x11,x19,1126	 x19:0x00400000 x11=0x00000000
       14735000	      1472	800050d0	00f3afb3	slt	x31,x7,x15	  x7:0x00000001 x15:0x00000000 x31=0x00000000
       14745000	      1473	800050d4	ffbd8703	lb	x14,-5(x27)	 x27:0x8000817a x14=0x00000000 PA:0x80008175
       14755000	      1474	800050d8	66211897	auipc	x17,0x66211	 x17=0xe62160d4
       14765000	      1475	800050dc	00ed8303	lb	x6,14(x27)	 x27:0x8000817a  x6=0x00000000 PA:0x80008188
       14775000	      1476	800050e0	016daf03	lw	x30,22(x27)	 x27:0x8000817a x30=0x00000000 PA:0x80008190
       14785000	      1477	800050e4	024d8b23	sb	x4,54(x27)	 x27:0x8000817a  x4:0x00000000 PA:0x800081b0
       14795000	      1478	800050e8	fd9d8483	lb	x9,-39(x27)	 x27:0x8000817a  x9=0x00000000 PA:0x80008153
       14805000	      1479	800050ec	172ae913	ori	x18,x21,370	 x21:0x1deb2080 x18=0x1deb21f2
       14815000	      1480	800050f0	00f286b3	add	x13,x5,x15	  x5:0x80000000 x15:0x00000000 x13=0x80000000
       14825000	      1481	800050f4	01b34933	xor	x18,x6,x27	  x6:0x00000000 x27:0x8000817a x18=0x8000817a
       14835000	      1482	800050f8	fe7d8403	lb	x8,-25(x27)	 x27:0x8000817a  x8=0xffffff9f PA:0x80008161
       14845000	      1483	800050fc	00dcda33	srl	x20,x25,x13	 x25:0x00000001 x13:0x80000000 x20=0x00000001
       14855000	      1484	80005100	6b6df917	auipc	x18,0x6b6df	 x18=0xeb6e40fc
       14865000	      1485	80005104	8b3fe693	ori	x13,x31,-1869	 x31:0x00000000 x13=0xfffff8b3
       14875000	      1486	80005108	0081af33	slt	x30,x3,x8	  x3:0x80000800  x8:0xffffff9f x30=0x00000001
       14885000	      1487	8000510c	03bd8603	lb	x12,59(x27)	 x27:0x8000817a x12=0x00000000 PA:0x800081b5
       14895000	      1488	80005110	011dc803	lbu	x16,17(x27)	 x27:0x8000817a x16=0x00000000 PA:0x8000818b
       14905000	      1489	80005114	fc9dc703	lbu	x14,-55(x27)	 x27:0x8000817a x14=0x00000000 PA:0x80008143
       14915000	      1490	80005118	45853913	sltiu	x18,x10,1112	 x10:0x00000000 x18=0x00000001
       14925000	      1491	8000511c	00417433	and	x8,x2,x4	  x2:0xf80009fc  x4:0x00000000  x8=0x00000000
       14935000	      1492	80005120	983f0893	addi	x17,x30,-1661	 x30:0x00000001 x17=0xfffff984
       14945000	      1493	80005124	417fd833	sra	x16,x31,x23	 x31:0x00000000 x23:0x00000800 x16=0x00000000
       14955000	      1494	80005128	41235b13	srai	x22,x6,0x12	  x6:0x00000000 x22=0x00000000
       14965000	      1495	8000512c	4019d633	sra	x12,x19,x1	 x19:0x00400000  x1:0x00000000 x12=0x00400000
       14975000	      1496	80005130	40aad513	srai	x10,x21,0xa	 x21:0x1deb2080 x10=0x00077ac8
       14985000	      1497	80005134	eecd2a93	slti	x21,x26,-276	 x26:0x80009f78 x21=0x00000001
       14995000	      1498	80005138	002bb3b3	sltu	x7,x23,x2	 x23:0x00000800  x2:0xf80009fc  x7=0x00000001
       15005000	      1499	8000513c	01496a63	bltu	x18,x20,80005150	 x18:0x00000001 x20:0x00000001
       15015000	      1500	80005140	0655f697	auipc	x13,0x655f	 x13=0x8656413c
       15025000	      1501	80005144	d7b26793	ori	x15,x4,-645	  x4:0x00000000 x15=0xfffffd7b
       15035000	      1502	80005148	d46a4b13	xori	x22,x20,-698	 x20:0x00000001 x22=0xfffffd47
       15045000	      1503	8000514c	006ed613	srli	x12,x29,0x6	 x29:0x00000800 x12=0x00000020
       15055000	      1504	80005150	1fd010ef	jal	x1,80005150	  x1=0x80005150
       15065000	      1505	00000000	00000013	addi	x0,x0,0	  x0:0x00000000
       15075000	      1506	80006b48	00000013	addi	x0,x0,0	  x0:0x00000000
       15085000	      1507	80006b4c	530be493	ori	x9,x23,1328	 x23:0x00000800  x9=0x00000d30
       15095000	      1508	80006b50	fd4d0d13	addi	x26,x26,-44	 x26:0x80009f78 x26=0x80009f4c
       15105000	      1509	80006b54	d49beb13	ori	x22,x23,-695	 x23:0x00000800 x22=0xfffffd49
       15115000	      1510	80006b58	01eedf13	srli	x30,x29,0x1e	 x29:0x00000800 x30=0x00000000
       15125000	      1511	80006b5c	001d2223	sw	x1,4(x26)	 x26:0x80009f4c  x1:0x80005150 PA:0x80009f50
       15135000	      1512	80006b60	3bd0ff13	andi	x30,x1,957	  x1:0x80005150 x30=0x00000110
       15145000	      1513	80006b64	8488cc93	xori	x25,x17,-1976	 x17:0xfffff984 x25=0x000001cc
       15155000	      1514	80006b68	41f95c13	srai	x24,x18,0x1f	 x18:0x00000001 x24=0x00000000
       15165000	      1515	80006b6c	01298133	add	x2,x19,x18	 x19:0x00400000 x18:0x00000001  x2=0x00400001
       15175000	      1516	80006b70	0088b3b3	sltu	x7,x17,x8	 x17:0xfffff984  x8:0x00000000  x7=0x00000000
       15185000	      1517	80006b74	4bbbff13	andi	x30,x23,1211	 x23:0x00000800 x30=0x00000000
       15195000	      1518	80006b78	a0b0ea13	ori	x20,x1,-1525	  x1:0x80005150 x20=0xfffffb5b
       15205000	      1519	80006b7c	40bd5133	sra	x2,x26,x11	 x26:0x80009f4c x11:0x00000000  x2=0x80009f4c
       15215000	      1520	80006b80	01916c63	bltu	x2,x25,80006b98	  x2:0x80009f4c x25:0x000001cc
       15225000	      1521	80006b84	e635b7b7	lui	x15,0xe635b	 x15=0xe635b000
       15235000	      1522	80006b88	00dfb7b3	sltu	x15,x31,x13	 x31:0x00000000 x13:0x8656413c x15=0x00000001
       15245000	      1523	80006b8c	40085033	sra	x0,x16,x0	 x16:0x00000000  x0:0x00000000
       15255000	      1524	80006b90	f76b51b7	lui	x3,0xf76b5	  x3=0xf76b5000
       15265000	      1525	80006b94	917de413	ori	x8,x27,-1769	 x27:0x8000817a  x8=0xfffff97f
       15275000	      1526	80006b98	9d8fc0ef	jal	x1,80006b98	  x1=0x80006b98
       15285000	      1527	00000000	00000013	addi	x0,x0,0	  x0:0x00000000
       15295000	      1528	80002d6c	00000013	addi	x0,x0,0	  x0:0x00000000
       15305000	      1529	80002d70	001edc63	bge	x29,x1,80002d88	 x29:0x00000800  x1:0x80006b98
       15315000	      1530	00000000	00000013	addi	x0,x0,0	  x0:0x00000000
       15325000	      1531	80002d84	00000013	addi	x0,x0,0	  x0:0x00000000
       15335000	      1532	80002d88	fe8d0d13	addi	x26,x26,-24	 x26:0x80009f4c x26=0x80009f34
       15345000	      1533	80002d8c	00000013	addi	x0,x0,0	  x0:0x00000000
       15355000	      1534	80002d90	001d2223	sw	x1,4(x26)	 x26:0x80009f34  x1:0x80006b98 PA:0x80009f38
       15365000	      1535	80002d94	64d96b93	ori	x23,x18,1613	 x18:0x00000001 x23=0x0000064d
       15375000	      1536	80002d98	41540cb3	sub	x25,x8,x21	  x8:0xfffff97f x21:0x00000001 x25=0xfffff97e
       15385000	      1537	80002d9c	00589533	sll	x10,x17,x5	 x17:0xfffff984  x5:0x80000000 x10=0xfffff984
       15395000	      1538	80002da0	2e5b2a93	slti	x21,x22,741	 x22:0xfffffd49 x21=0x00000001
       15405000	      1539	80002da4	1cafbc93	sltiu	x25,x31,458	 x31:0x00000000 x25=0x00000001
       15415000	      1540	80002da8	489a7913	andi	x18,x20,1161	 x20:0xfffffb5b x18=0x00000009
       15425000	      1541	80002dac	0141c1b3	xor	x3,x3,x20	  x3:0xf76b5000 x20:0xfffffb5b  x3=0x0894ab5b
       15435000	      1542	80002db0	826828b7	lui	x17,0x82682	 x17=0x82682000
       15445000	      1543	80002db4	becce513	ori	x10,x25,-1044	 x25:0x00000001 x10=0xfffffbed
       15455000	      1544	80002db8	c1344b97	auipc	x23,0xc1344	 x23=0x41346db4
       15465000	      1545	80002dbc	eb8e3e93	sltiu	x29,x28,-328	 x28:0x80009fc4 x29=0x00000001
       15475000	      1546	80002dc0	006579b3	and	x19,x10,x6	 x10:0xfffffbed  x6:0x00000000 x19=0x00000000
       15485000	      1547	80002dc4	6d0020ef	jal	x1,80002dc4	  x1=0x80002dc4
       15495000	      1548	00000000	00000013	addi	x0,x0,0	  x0:0x00000000
       15505000	      1549	80005490	00000013	addi	x0,x0,0	  x0:0x00000000
       15515000	      1550	80005494	0099d833	srl	x16,x19,x9	 x19:0x00000000  x9:0x00000d30 x16=0x00000000
       15525000	      1551	80005498	3e748613	addi	x12,x9,999	  x9:0x00000d30 x12=0x00001117
       15535000	      1552	8000549c	014d7463	bgeu	x26,x20,800054a4	 x26:0x80009f34 x20:0xfffffb5b
       15545000	      1553	800054a0	01389433	sll	x8,x17,x19	 x17:0x82682000 x19:0x00000000  x8=0x82682000
       15555000	      1554	800054a4	fd8d0d13	addi	x26,x26,-40	 x26:0x80009f34 x26=0x80009f0c
       15565000	      1555	800054a8	001d2223	sw	x1,4(x26)	 x26:0x80009f0c  x1:0x80002dc4 PA:0x80009f10
       15575000	      1556	800054ac	014eefb3	or	x31,x29,x20	 x29:0x00000001 x20:0xfffffb5b x31=0xfffffb5b
       15585000	      1557	800054b0	414fd493	srai	x9,x31,0x14	 x31:0xfffffb5b  x9=0xffffffff
       15595000	      1558	800054b4	012d5633	srl	x12,x26,x18	 x26:0x80009f0c x18:0x00000009 x12=0x0040004f
       15605000	      1559	800054b8	00003117	auipc	x2,0x3	  x2=0x800084b4
       15615000	      1560	800054bc	1e310113	addi	x2,x2,483	  x2:0x800084b4  x2=0x80008697
       15625000	      1561	800054c0	417c5233	sra	x4,x24,x23	 x24:0x00000000 x23:0x41346db4  x4=0x00000000
       15635000	      1562	800054c4	fd210383	lb	x7,-46(x2)	  x2:0x80008697  x7=0x00000000 PA:0x80008669
       15645000	      1563	800054c8	00f7cb33	xor	x22,x15,x15	 x15:0x00000001 x15:0x00000001 x22=0x00000000
       15655000	      1564	800054cc	01d12ea3	sw	x29,29(x2)	  x2:0x80008697 x29:0x00000001 PA:0x800086b4
       15665000	      1565	800054d0	01d257b3	srl	x15,x4,x29	  x4:0x00000000 x29:0x00000001 x15=0x00000000
       15675000	      1566	800054d4	00111383	lh	x7,1(x2)	  x2:0x80008697  x7=0x00000000 PA:0x80008698
       15685000	      1567	800054d8	fdb10a23	sb	x27,-44(x2)	  x2:0x80008697 x27:0x8000817a PA:0x8000866b
       15695000	      1568	800054dc	0102f6b3	and	x13,x5,x16	  x5:0x80000000 x16:0x00000000 x13=0x00000000
       15705000	      1569	800054e0	41675eb3	sra	x29,x14,x22	 x14:0x00000000 x22:0x00000000 x29=0x00000000
       15715000	      1570	800054e4	01010183	lb	x3,16(x2)	  x2:0x80008697  x3=0x00000000 PA:0x800086a7
       15725000	      1571	800054e8	019ce4b3	or	x9,x25,x25	 x25:0x00000001 x25:0x00000001  x9=0x00000001
       15735000	      1572	800054ec	6fe80b13	addi	x22,x16,1790	 x16:0x00000000 x22=0x000006fe
       15745000	      1573	800054f0	fe314f03	lbu	x30,-29(x2)	  x2:0x80008697 x30=0x00000000 PA:0x8000867a
       15755000	      1574	800054f4	01b5dc13	srli	x24,x11,0x1b	 x11:0x00000000 x24=0x00000000
       15765000	      1575	800054f8	10c72793	slti	x15,x14,268	 x14:0x00000000 x15=0x00000001
       15775000	      1576	800054fc	0112ba33	sltu	x20,x5,x17	  x5:0x80000000 x17:0x82682000 x20=0x00000001
       15785000	      1577	80005500	007076b3	and	x13,x0,x7	  x0:0x00000000  x7:0x00000000 x13=0x00000000
       15795000	      1578	80005504	000b1333	sll	x6,x22,x0	 x22:0x000006fe  x0:0x00000000  x6=0x000006fe
       15805000	      1579	80005508	01d10aa3	sb	x29,21(x2)	  x2:0x80008697 x29:0x00000000 PA:0x800086ac
       15815000	      1580	8000550c	02f10023	sb	x15,32(x2)	  x2:0x80008697 x15:0x00000001 PA:0x800086b7
       15825000	      1581	80005510	5d9ce013	ori	x0,x25,1497	 x25:0x00000001
       15835000	      1582	80005514	01a10123	sb	x26,2(x2)	  x2:0x80008697 x26:0x80009f0c PA:0x80008699
       15845000	      1583	80005518	01bbf5b3	and	x11,x23,x27	 x23:0x41346db4 x27:0x8000817a x11=0x00000130
       15855000	      1584	8000551c	fdb10983	lb	x19,-37(x2)	  x2:0x80008697 x19=0x00000000 PA:0x80008672
       15865000	      1585	80005520	81267b13	andi	x22,x12,-2030	 x12:0x0040004f x22=0x00400002
       15875000	      1586	80005524	6168beb7	lui	x29,0x6168b	 x29=0x6168b000
       15885000	      1587	80005528	01fb10b3	sll	x1,x22,x31	 x22:0x00400002 x31:0xfffffb5b  x1=0x10000000
       15895000	      1588	8000552c	00912003	lw	x0,9(x2)	  x2:0x80008697 PA:0x800086a0
       15905000	      1589	80005530	01a10983	lb	x19,26(x2)	  x2:0x80008697 x19=0x00000000 PA:0x800086b1
       15915000	      1590	80005534	00006633	or	x12,x0,x0	  x0:0x00000000  x0:0x00000000 x12=0x00000000
       15925000	      1591	80005538	01310583	lb	x11,19(x2)	  x2:0x80008697 x11=0x00000000 PA:0x800086aa
       15935000	      1592	8000553c	01681693	slli	x13,x16,0x16	 x16:0x00000000 x13=0x00000000
       15945000	      1593	80005540	00515b03	lhu	x22,5(x2)	  x2:0x80008697 x22=0x00000000 PA:0x8000869c
       15955000	      1594	80005544	00003117	auipc	x2,0x3	  x2=0x80008540
       15965000	      1595	80005548	d4c10113	addi	x2,x2,-692	  x2:0x80008540  x2=0x8000828c
       15975000	      1596	8000554c	fc510f23	sb	x5,-34(x2)	  x2:0x8000828c  x5:0x80000000 PA:0x8000826a
       15985000	      1597	80005550	01054b33	xor	x22,x10,x16	 x10:0xfffffbed x16:0x00000000 x22=0xfffffbed
       15995000	      1598	80005554	f4411a83	lh	x21,-188(x2)	  x2:0x8000828c x21=0x00000000 PA:0x800081d0
       16005000	      1599	80005558	ffb103a3	sb	x27,-25(x2)	  x2:0x8000828c x27:0x8000817a PA:0x80008273
       16015000	      1600	8000555c	fe611583	lh	x11,-26(x2)	  x2:0x8000828c x11=0x00007a00 PA:0x80008272
       16025000	      1601	80005560	5b144b13	xori	x22,x8,1457	  x8:0x82682000 x22=0x826825b1
       16035000	      1602	80005564	fd510f03	lb	x30,-43(x2)	  x2:0x8000828c x30=0x00000000 PA:0x80008261
       16045000	      1603	80005568	01a62333	slt	x6,x12,x26	 x12:0x00000000 x26:0x80009f0c  x6=0x00000000
       16055000	      1604	8000556c	01b7cb33	xor	x22,x15,x27	 x15:0x00000001 x27:0x8000817a x22=0x8000817b
       16065000	      1605	80005570	04610783	lb	x15,70(x2)	  x2:0x8000828c x15=0x00000000 PA:0x800082d2
       16075000	      1606	80005574	f4110e83	lb	x29,-191(x2)	  x2:0x8000828c x29=0x00000000 PA:0x800081cd
       16085000	      1607	80005578	b0a59217	auipc	x4,0xb0a59	  x4=0x30a5e574
       16095000	      1608	8000557c	004d5c33	srl	x24,x26,x4	 x26:0x80009f0c  x4:0x30a5e574 x24=0x00000800
       16105000	      1609	80005580	ff711323	sh	x23,-26(x2)	  x2:0x8000828c x23:0x41346db4 PA:0x80008272
       16115000	      1610	80005584	01ff8333	add	x6,x31,x31	 x31:0xfffffb5b x31:0xfffffb5b  x6=0xfffff6b6
       16125000	      1611	80005588	40d858b3	sra	x17,x16,x13	 x16:0x00000000 x13:0x00000000 x17=0x00000000
       16135000	      1612	8000558c	bd7e7893	andi	x17,x28,-1065	 x28:0x80009fc4 x17=0x80009bc4
       16145000	      1613	80005590	eee32f93	slti	x31,x6,-274	  x6:0xfffff6b6 x31=0x00000001
       16155000	      1614	80005594	01d14503	lbu	x10,29(x2)	  x2:0x8000828c x10=0x00000000 PA:0x800082a9
       16165000	      1615	80005598	001ad033	srl	x0,x21,x1	 x21:0x00000000  x1:0x10000000
       16175000	      1616	8000559c	00000013	addi	x0,x0,0	  x0:0x00000000
       16185000	      1617	800055a0	f1b10223	sb	x27,-252(x2)	  x2:0x8000828c x27:0x8000817a PA:0x80008190
       16195000	      1618	800055a4	0139e833	or	x16,x19,x19	 x19:0x00000000 x19:0x00000000 x16=0x00000000
       16205000	      1619	800055a8	002b3a33	sltu	x20,x22,x2	 x22:0x8000817b  x2:0x8000828c x20=0x00000001
       16215000	      1620	800055ac	fe910a03	lb	x20,-23(x2)	  x2:0x8000828c x20=0x00000000 PA:0x80008275
       16225000	      1621	800055b0	00415003	lhu	x0,4(x2)	  x2:0x8000828c PA:0x80008290
       16235000	      1622	800055b4	f1210223	sb	x18,-252(x2)	  x2:0x8000828c x18:0x00000009 PA:0x80008190
       16245000	      1623	800055b8	0167deb3	srl	x29,x15,x22	 x15:0x00000000 x22:0x8000817b x29=0x00000000
       16255000	      1624	800055bc	419e5993	srai	x19,x28,0x19	 x28:0x80009fc4 x19=0xffffffc0
       16265000	      1625	800055c0	016d4f33	xor	x30,x26,x22	 x26:0x80009f0c x22:0x8000817b x30=0x00001e77
       16275000	      1626	800055c4	00ed28b3	slt	x17,x26,x14	 x26:0x80009f0c x14:0x00000000 x17=0x00000001
       16285000	      1627	800055c8	fd810d23	sb	x24,-38(x2)	  x2:0x8000828c x24:0x00000800 PA:0x80008266
       16295000	      1628	800055cc	02012083	lw	x1,32(x2)	  x2:0x8000828c  x1=0x00000000 PA:0x800082ac
       16305000	      1629	800055d0	046104a3	sb	x6,73(x2)	  x2:0x8000828c  x6:0xfffff6b6 PA:0x800082d5
       16315000	      1630	800055d4	012e7a33	and	x20,x28,x18	 x28:0x80009fc4 x18:0x00000009 x20=0x00000000
       16325000	      1631	800055d8	00c12ab3	slt	x21,x2,x12	  x2:0x8000828c x12:0x00000000 x21=0x00000001
       16335000	      1632	800055dc	f1510483	lb	x9,-235(x2)	  x2:0x8000828c  x9=0x00000000 PA:0x800081a1
       16345000	      1633	800055e0	079101a3	sb	x25,99(x2)	  x2:0x8000828c x25:0x00000001 PA:0x800082ef
       16355000	      1634	800055e4	01639193	slli	x3,x7,0x16	  x7:0x00000000  x3=0x00000000
       16365000	      1635	800055e8	fbc15803	lhu	x16,-68(x2)	  x2:0x8000828c x16=0x00000000 PA:0x80008248
       16375000	      1636	800055ec	fa114b03	lbu	x22,-95(x2)	  x2:0x8000828c x22=0x00000000 PA:0x8000822d
       16385000	      1637	800055f0	0e510e23	sb	x5,252(x2)	  x2:0x8000828c  x5:0x80000000 PA:0x80008388
       16395000	      1638	800055f4	c4047f13	andi	x30,x8,-960	  x8:0x82682000 x30=0x82682000
       16405000	      1639	800055f8	0c910183	lb	x3,201(x2)	  x2:0x8000828c  x3=0x00000000 PA:0x80008355
       16415000	      1640	800055fc	00003117	auipc	x2,0x3	  x2=0x800085f8
       16425000	      1641	80005600	c1c10113	addi	x2,x2,-996	  x2:0x800085f8  x2=0x80008214
       16435000	      1642	80005604	f61106a3	sb	x1,-147(x2)	  x2:0x80008214  x1:0x00000000 PA:0x80008181
       16445000	      1643	80005608	2bfd2e93	slti	x29,x26,703	 x26:0x80009f0c x29=0x00000001
       16455000	      1644	8000560c	fde14f83	lbu	x31,-34(x2)	  x2:0x80008214 x31=0x00000000 PA:0x800081f2
       16465000	      1645	80005610	fcd14703	lbu	x14,-51(x2)	  x2:0x80008214 x14=0x00000000 PA:0x800081e1
       16475000	      1646	80005614	ff010023	sb	x16,-32(x2)	  x2:0x80008214 x16:0x00000000 PA:0x800081f4
       16485000	      1647	80005618	41020bb3	sub	x23,x4,x16	  x4:0x30a5e574 x16:0x00000000 x23=0x30a5e574
       16495000	      1648	8000561c	00f10b83	lb	x23,15(x2)	  x2:0x80008214 x23=0x00000000 PA:0x80008223
       16505000	      1649	80005620	09e10803	lb	x16,158(x2)	  x2:0x80008214 x16=0x00000000 PA:0x800082b2
       16515000	      1650	80005624	01ac0233	add	x4,x24,x26	 x24:0x00000800 x26:0x80009f0c  x4=0x8000a70c
       16525000	      1651	80005628	ffc2fdb7	lui	x27,0xffc2f	 x27=0xffc2f000
       16535000	      1652	8000562c	71aa4f13	xori	x30,x20,1818	 x20:0x00000000 x30=0x0000071a
       16545000	      1653	80005630	f1110b03	lb	x22,-239(x2)	  x2:0x80008214 x22=0x00000000 PA:0x80008125
       16555000	      1654	80005634	fd911b23	sh	x25,-42(x2)	  x2:0x80008214 x25:0x00000001 PA:0x800081ea
       16565000	      1655	80005638	001dcbb3	xor	x23,x27,x1	 x27:0xffc2f000  x1:0x00000000 x23=0xffc2f000
       16575000	      1656	8000563c	2621ea37	lui	x20,0x2621e	 x20=0x2621e000
       16585000	      1657	80005640	04c11883	lh	x17,76(x2)	  x2:0x80008214 x17=0x00000000 PA:0x80008260
       16595000	      1658	80005644	fca14e83	lbu	x29,-54(x2)	  x2:0x80008214 x29=0x00000000 PA:0x800081de
       16605000	      1659	80005648	ffe11a23	sh	x30,-12(x2)	  x2:0x80008214 x30:0x0000071a PA:0x80008208
       16615000	      1660	8000564c	01010ba3	sb	x16,23(x2)	  x2:0x80008214 x16:0x00000000 PA:0x8000822b
       16625000	      1661	80005650	00c6d013	srli	x0,x13,0xc	 x13:0x00000000
       16635000	      1662	80005654	05e10723	sb	x30,78(x2)	  x2:0x80008214 x30:0x0000071a PA:0x80008262
       16645000	      1663	80005658	0b514183	lbu	x3,181(x2)	  x2:0x80008214  x3=0x00000000 PA:0x800082c9
       16655000	      1664	8000565c	0fa14883	lbu	x17,250(x2)	  x2:0x80008214 x17=0x00000000 PA:0x8000830e
       16665000	      1665	80005660	f3314f03	lbu	x30,-205(x2)	  x2:0x80008214 x30=0x00000000 PA:0x80008147
       16675000	      1666	80005664	066107a3	sb	x6,111(x2)	  x2:0x80008214  x6:0xfffff6b6 PA:0x80008283
       16685000	      1667	80005668	016bd833	srl	x16,x23,x22	 x23:0xffc2f000 x22:0x00000000 x16=0xffc2f000
       16695000	      1668	8000566c	00ebff33	and	x30,x23,x14	 x23:0xffc2f000 x14:0x00000000 x30=0x00000000
       16705000	      1669	80005670	f9411323	sh	x20,-122(x2)	  x2:0x80008214 x20:0x2621e000 PA:0x8000819a
       16715000	      1670	80005674	5fcbe893	ori	x17,x23,1532	 x23:0xffc2f000 x17=0xffc2f5fc
       16725000	      1671	80005678	0a310983	lb	x19,163(x2)	  x2:0x80008214 x19=0x00000000 PA:0x800082b7
       16735000	      1672	8000567c	f6611523	sh	x6,-150(x2)	  x2:0x80008214  x6:0xfffff6b6 PA:0x8000817e
       16745000	      1673	80005680	00003117	auipc	x2,0x3	  x2=0x8000867c
       16755000	      1674	80005684	ca110113	addi	x2,x2,-863	  x2:0x8000867c  x2=0x8000831d
       16765000	      1675	80005688	00063933	sltu	x18,x12,x0	 x12:0x00000000  x0:0x00000000 x18=0x00000000
       16775000	      1676	8000568c	f4214183	lbu	x3,-190(x2)	  x2:0x8000831d  x3=0x00000000 PA:0x8000825f
       16785000	      1677	80005690	03714003	lbu	x0,55(x2)	  x2:0x8000831d PA:0x80008354
       16795000	      1678	80005694	0e714b03	lbu	x22,231(x2)	  x2:0x8000831d x22=0x00000000 PA:0x80008404
       16805000	      1679	80005698	07f12203	lw	x4,127(x2)	  x2:0x8000831d  x4=0x00000000 PA:0x8000839c
       16815000	      1680	8000569c	40270933	sub	x18,x14,x2	 x14:0x00000000  x2:0x8000831d x18=0x7fff7ce3
       16825000	      1681	800056a0	4a667393	andi	x7,x12,1190	 x12:0x00000000  x7=0x00000000
       16835000	      1682	800056a4	007edeb3	srl	x29,x29,x7	 x29:0x00000000  x7:0x00000000 x29=0x00000000
       16845000	      1683	800056a8	fd311ea3	sh	x19,-35(x2)	  x2:0x8000831d x19:0x00000000 PA:0x800082fa
       16855000	      1684	800056ac	09310023	sb	x19,128(x2)	  x2:0x8000831d x19:0x00000000 PA:0x8000839d
       16865000	      1685	800056b0	0da10883	lb	x17,218(x2)	  x2:0x8000831d x17=0x00000000 PA:0x800083f7
       16875000	      1686	800056b4	0cd14483	lbu	x9,205(x2)	  x2:0x8000831d  x9=0x00000000 PA:0x800083ea
       16885000	      1687	800056b8	012df5b3	and	x11,x27,x18	 x27:0xffc2f000 x18:0x7fff7ce3 x11=0x7fc27000
       16895000	      1688	800056bc	c932c093	xori	x1,x5,-877	  x5:0x80000000  x1=0x7ffffc93
       16905000	      1689	800056c0	f9210223	sb	x18,-124(x2)	  x2:0x8000831d x18:0x7fff7ce3 PA:0x800082a1
       16915000	      1690	800056c4	f91100a3	sb	x17,-127(x2)	  x2:0x8000831d x17:0x00000000 PA:0x8000829e
       16925000	      1691	800056c8	fcd11203	lh	x4,-51(x2)	  x2:0x8000831d  x4=0x00000000 PA:0x800082ea
       16935000	      1692	800056cc	d6b74513	xori	x10,x14,-661	 x14:0x00000000 x10=0xfffffd6b
       16945000	      1693	800056d0	f6715b83	lhu	x23,-153(x2)	  x2:0x8000831d x23=0x00000000 PA:0x80008284
       16955000	      1694	800056d4	0108d493	srli	x9,x17,0x10	 x17:0x00000000  x9=0x00000000
       16965000	      1695	800056d8	f7d11483	lh	x9,-131(x2)	  x2:0x8000831d  x9=0x00000000 PA:0x8000829a
       16975000	      1696	800056dc	004b8533	add	x10,x23,x4	 x23:0x00000000  x4:0x00000000 x10=0x00000000
       16985000	      1697	800056e0	01414a83	lbu	x21,20(x2)	  x2:0x8000831d x21=0x00000000 PA:0x80008331
       16995000	      1698	800056e4	009a1f33	sll	x30,x20,x9	 x20:0x2621e000  x9:0x00000000 x30=0x2621e000
       17005000	      1699	800056e8	f11118a3	sh	x17,-239(x2)	  x2:0x8000831d x17:0x00000000 PA:0x8000822e
       17015000	      1700	800056ec	0a614f83	lbu	x31,166(x2)	  x2:0x8000831d x31=0x00000000 PA:0x800083c3
       17025000	      1701	800056f0	01b6cb33	xor	x22,x13,x27	 x13:0x00000000 x27:0xffc2f000 x22=0xffc2f000
       17035000	      1702	800056f4	00798633	add	x12,x19,x7	 x19:0x00000000  x7:0x00000000 x12=0x00000000
       17045000	      1703	800056f8	f1014583	lbu	x11,-240(x2)	  x2:0x8000831d x11=0x00000000 PA:0x8000822d
       17055000	      1704	800056fc	f7111f83	lh	x31,-143(x2)	  x2:0x8000831d x31=0x00000000 PA:0x8000828e
       17065000	      1705	80005700	fa310d83	lb	x27,-93(x2)	  x2:0x8000831d x27=0x00000000 PA:0x800082c0
       17075000	      1706	80005704	f4214203	lbu	x4,-190(x2)	  x2:0x8000831d  x4=0x00000000 PA:0x8000825f
       17085000	      1707	80005708	a67b0eb7	lui	x29,0xa67b0	 x29=0xa67b0000
       17095000	      1708	8000570c	07d10623	sb	x29,108(x2)	  x2:0x8000831d x29:0xa67b0000 PA:0x80008389
       17105000	      1709	80005710	fe110523	sb	x1,-22(x2)	  x2:0x8000831d  x1:0x7ffffc93 PA:0x80008307
       17115000	      1710	80005714	02310fa3	sb	x3,63(x2)	  x2:0x8000831d  x3:0x00000000 PA:0x8000835c
       17125000	      1711	80005718	f0810003	lb	x0,-248(x2)	  x2:0x8000831d PA:0x80008225
       17135000	      1712	8000571c	00ac0333	add	x6,x24,x10	 x24:0x00000800 x10:0x00000000  x6=0x00000800
       17145000	      1713	80005720	019b30b3	sltu	x1,x22,x25	 x22:0xffc2f000 x25:0x00000001  x1=0x00000000
       17155000	      1714	80005724	08410603	lb	x12,132(x2)	  x2:0x8000831d x12=0x00000000 PA:0x800083a1
       17165000	      1715	80005728	07610e23	sb	x22,124(x2)	  x2:0x8000831d x22:0xffc2f000 PA:0x80008399
       17175000	      1716	8000572c	06710383	lb	x7,103(x2)	  x2:0x8000831d  x7=0x00000000 PA:0x80008384
       17185000	      1717	80005730	01ce3033	sltu	x0,x28,x28	 x28:0x80009fc4 x28:0x80009fc4
       17195000	      1718	80005734	01a7b8b3	sltu	x17,x15,x26	 x15:0x00000000 x26:0x80009f0c x17=0x00000001
       17205000	      1719	80005738	00801933	sll	x18,x0,x8	  x0:0x00000000  x8:0x82682000 x18=0x00000000
       17215000	      1720	8000573c	40548cb3	sub	x25,x9,x5	  x9:0x00000000  x5:0x80000000 x25=0x80000000
       17225000	      1721	80005740	a8bcc413	xori	x8,x25,-1397	 x25:0x80000000  x8=0x7ffffa8b
       17235000	      1722	80005744	80f93897	auipc	x17,0x80f93	 x17=0x00f98740
       17245000	      1723	80005748	02391e63	bne	x18,x3,80005784	 x18:0x00000000  x3:0x00000000
       17255000	      1724	8000574c	01d7ebb3	or	x23,x15,x29	 x15:0x00000000 x29:0xa67b0000 x23=0xa67b0000
       17265000	      1725	80005750	01b1fc63	bgeu	x3,x27,80005768	  x3:0x00000000 x27:0x00000000
       17275000	      1726	00000000	00000013	addi	x0,x0,0	  x0:0x00000000
       17285000	      1727	80005764	00000013	addi	x0,x0,0	  x0:0x00000000
       17295000	      1728	80005768	00fc45b3	xor	x11,x24,x15	 x24:0x00000800 x15:0x00000000 x11=0x00000800
       17305000	      1729	8000576c	01d744b3	xor	x9,x14,x29	 x14:0x00000000 x29:0xa67b0000  x9=0xa67b0000
       17315000	      1730	80005770	010c9c93	slli	x25,x25,0x10	 x25:0x80000000 x25=0x00000000
       17325000	      1731	80005774	00e35c63	bge	x6,x14,8000578c	  x6:0x00000800 x14:0x00000000
       17335000	      1732	00000000	00000013	addi	x0,x0,0	  x0:0x00000000
       17345000	      1733	80005788	00000013	addi	x0,x0,0	  x0:0x00000000
       17355000	      1734	8000578c	0032d133	srl	x2,x5,x3	  x5:0x80000000  x3:0x00000000  x2=0x80000000
       17365000	      1735	80005790	00003117	auipc	x2,0x3	  x2=0x8000878c
       17375000	      1736	80005794	2ad10113	addi	x2,x2,685	  x2:0x8000878c  x2=0x80008a39
       17385000	      1737	80005798	f55116a3	sh	x21,-179(x2)	  x2:0x80008a39 x21:0x00000000 PA:0x80008986
       17395000	      1738	8000579c	12310923	sb	x3,306(x2)	  x2:0x80008a39  x3:0x00000000 PA:0x80008b6b
       17405000	      1739	800057a0	14010683	lb	x13,320(x2)	  x2:0x80008a39 x13=0x00000000 PA:0x80008b79
       17415000	      1740	800057a4	00256733	or	x14,x10,x2	 x10:0x00000000  x2:0x80008a39 x14=0x80008a39
       17425000	      1741	800057a8	013bacb3	slt	x25,x23,x19	 x23:0xa67b0000 x19:0x00000000 x25=0x00000001
       17435000	      1742	800057ac	a166ab93	slti	x23,x13,-1514	 x13:0x00000000 x23=0x00000000
       17445000	      1743	800057b0	01cdccb3	xor	x25,x27,x28	 x27:0x00000000 x28:0x80009fc4 x25=0x80009fc4
       17455000	      1744	800057b4	27f14703	lbu	x14,639(x2)	  x2:0x80008a39 x14=0x00000000 PA:0x80008cb8
       17465000	      1745	800057b8	35a14883	lbu	x17,858(x2)	  x2:0x80008a39 x17=0x00000000 PA:0x80008d93
       17475000	      1746	800057bc	fb910e23	sb	x25,-68(x2)	  x2:0x80008a39 x25:0x80009fc4 PA:0x800089f5
       17485000	      1747	800057c0	e6c10423	sb	x12,-408(x2)	  x2:0x80008a39 x12:0x00000000 PA:0x800088a1
       17495000	      1748	800057c4	e1810383	lb	x7,-488(x2)	  x2:0x80008a39  x7=0x00000000 PA:0x80008851
       17505000	      1749	800057c8	f8b97e93	andi	x29,x18,-117	 x18:0x00000000 x29=0x00000000
       17515000	      1750	800057cc	019759b3	srl	x19,x14,x25	 x14:0x00000000 x25:0x80009fc4 x19=0x00000000
       17525000	      1751	800057d0	5a310623	sb	x3,1452(x2)	  x2:0x80008a39  x3:0x00000000 PA:0x80008fe5
       17535000	      1752	800057d4	688c7937	lui	x18,0x688c7	 x18=0x688c7000
       17545000	      1753	800057d8	1aa10f23	sb	x10,446(x2)	  x2:0x80008a39 x10:0x00000000 PA:0x80008bf7
       17555000	      1754	800057dc	f8610723	sb	x6,-114(x2)	  x2:0x80008a39  x6:0x00000800 PA:0x800089c7
       17565000	      1755	800057e0	11c76717	auipc	x14,0x11c76	 x14=0x91c7b7dc
       17575000	      1756	800057e4	17214403	lbu	x8,370(x2)	  x2:0x80008a39  x8=0x00000000 PA:0x80008bab
       17585000	      1757	800057e8	03810403	lb	x8,56(x2)	  x2:0x80008a39  x8=0x00000000 PA:0x80008a71
       17595000	      1758	800057ec	51457213	andi	x4,x10,1300	 x10:0x00000000  x4=0x00000000
       17605000	      1759	800057f0	ed414403	lbu	x8,-300(x2)	  x2:0x80008a39  x8=0x00000000 PA:0x8000890d
       17615000	      1760	800057f4	f8110b23	sb	x1,-106(x2)	  x2:0x80008a39  x1:0x00000000 PA:0x800089cf
       17625000	      1761	800057f8	00969733	sll	x14,x13,x9	 x13:0x00000000  x9:0xa67b0000 x14=0x00000000
       17635000	      1762	800057fc	33e14983	lbu	x19,830(x2)	  x2:0x80008a39 x19=0x00000000 PA:0x80008d77
       17645000	      1763	80005800	2ca10f83	lb	x31,714(x2)	  x2:0x80008a39 x31=0x00000000 PA:0x80008d03
       17655000	      1764	80005804	006bb3b3	sltu	x7,x23,x6	 x23:0x00000000  x6:0x00000800  x7=0x00000001
       17665000	      1765	80005808	740deb13	ori	x22,x27,1856	 x27:0x00000000 x22=0x00000740
       17675000	      1766	8000580c	39110383	lb	x7,913(x2)	  x2:0x80008a39  x7=0x00000000 PA:0x80008dca
       17685000	      1767	80005810	01667fb3	and	x31,x12,x22	 x12:0x00000000 x22:0x00000740 x31=0x00000000
       17695000	      1768	80005814	41575f13	srai	x30,x14,0x15	 x14:0x00000000 x30=0x00000000
       17705000	      1769	80005818	00cd1493	slli	x9,x26,0xc	 x26:0x80009f0c  x9=0x09f0c000
       17715000	      1770	8000581c	fee14483	lbu	x9,-18(x2)	  x2:0x80008a39  x9=0x00000000 PA:0x80008a27
       17725000	      1771	00000000	00000013	addi	x0,x0,0	  x0:0x00000000
       17735000	      1772	80005820	41c48ab3	sub	x21,x9,x28	  x9:0x00000000 x28:0x80009fc4 x21=0x7fff603c
       17745000	      1773	80005824	011fd913	srli	x18,x31,0x11	 x31:0x00000000 x18=0x00000000
       17755000	      1774	80005828	a7e48d93	addi	x27,x9,-1410	  x9:0x00000000 x27=0xfffffa7e
       17765000	      1775	8000582c	015e6933	or	x18,x28,x21	 x28:0x80009fc4 x21:0x7fff603c x18=0xfffffffc
       17775000	      1776	80005830	04846463	bltu	x8,x8,80005878	  x8:0x00000000  x8:0x00000000
       17785000	      1777	80005834	01719533	sll	x10,x3,x23	  x3:0x00000000 x23:0x00000000 x10=0x00000000
       17795000	      1778	80005838	05f38263	beq	x7,x31,8000587c	  x7:0x00000000 x31:0x00000000
       17805000	      1779	00000000	00000013	addi	x0,x0,0	  x0:0x00000000
       17815000	      1780	80005878	00000013	addi	x0,x0,0	  x0:0x00000000
       17825000	      1781	8000587c	f4b97637	lui	x12,0xf4b97	 x12=0xf4b97000
       17835000	      1782	80005880	41095533	sra	x10,x18,x16	 x18:0xfffffffc x16:0xffc2f000 x10=0xfffffffc
       17845000	      1783	80005884	00c296b3	sll	x13,x5,x12	  x5:0x80000000 x12:0xf4b97000 x13=0x80000000
       17855000	      1784	80005888	62bebb13	sltiu	x22,x29,1579	 x29:0x00000000 x22=0x00000001
       17865000	      1785	8000588c	01e88733	add	x14,x17,x30	 x17:0x00000000 x30:0x00000000 x14=0x00000000
       17875000	      1786	80005890	41305cb3	sra	x25,x0,x19	  x0:0x00000000 x19:0x00000000 x25=0x00000000
       17885000	      1787	80005894	00fb1193	slli	x3,x22,0xf	 x22:0x00000001  x3=0x00008000
       17895000	      1788	80005898	11374393	xori	x7,x14,275	 x14:0x00000000  x7=0x00000113
       17905000	      1789	8000589c	6d65c313	xori	x6,x11,1750	 x11:0x00000800  x6=0x00000ed6
       17915000	      1790	800058a0	054e4863	blt	x28,x20,800058f0	 x28:0x80009fc4 x20:0x2621e000
       17925000	      1791	00000000	00000013	addi	x0,x0,0	  x0:0x00000000
       17935000	      1792	800058ec	00000013	addi	x0,x0,0	  x0:0x00000000
       17945000	      1793	800058f0	41d65bb3	sra	x23,x12,x29	 x12:0xf4b97000 x29:0x00000000 x23=0xf4b97000
       17955000	      1794	800058f4	2dd55a97	auipc	x21,0x2dd55	 x21=0xadd5a8f0
       17965000	      1795	800058f8	01ae7ab3	and	x21,x28,x26	 x28:0x80009fc4 x26:0x80009f0c x21=0x80009f04
       17975000	      1796	800058fc	80c3c393	xori	x7,x7,-2036	  x7:0x00000113  x7=0xfffff91f
       17985000	      1797	80005900	ff990893	addi	x17,x18,-7	 x18:0xfffffffc x17=0xfffffff5
       17995000	      1798	80005904	00689393	slli	x7,x17,0x6	 x17:0xfffffff5  x7=0xfffffd40
       18005000	      1799	80005908	2afaddb7	lui	x27,0x2afad	 x27=0x2afad000
       18015000	      1800	8000590c	01a46663	bltu	x8,x26,80005918	  x8:0x00000000 x26:0x80009f0c
       18025000	      1801	00000000	00000013	addi	x0,x0,0	  x0:0x00000000
       18035000	      1802	80005914	00000013	addi	x0,x0,0	  x0:0x00000000
       18045000	      1803	80005918	705a1797	auipc	x15,0x705a1	 x15=0xf05a6914
       18055000	      1804	8000591c	002f1413	slli	x8,x30,0x2	 x30:0x00000000  x8=0x00000000
       18065000	      1805	80005920	41bb5113	srai	x2,x22,0x1b	 x22:0x00000001  x2=0x00000000
       18075000	      1806	80005924	016061b3	or	x3,x0,x22	  x0:0x00000000 x22:0x00000001  x3=0x00000001
       18085000	      1807	80005928	00efadb3	slt	x27,x31,x14	 x31:0x00000000 x14:0x00000000 x27=0x00000000
       18095000	      1808	8000592c	034e5a63	bge	x28,x20,80005960	 x28:0x80009fc4 x20:0x2621e000
       18105000	      1809	80005930	00420c63	beq	x4,x4,80005948	  x4:0x00000000  x4:0x00000000
       18115000	      1810	00000000	00000013	addi	x0,x0,0	  x0:0x00000000
       18125000	      1811	80005944	00000013	addi	x0,x0,0	  x0:0x00000000
       18135000	      1812	80005948	04fa4663	blt	x20,x15,80005994	 x20:0x2621e000 x15:0xf05a6914
       18145000	      1813	8000594c	d64edf97	auipc	x31,0xd64ed	 x31=0x564f2948
       18155000	      1814	80005950	40055633	sra	x12,x10,x0	 x10:0xfffffffc  x0:0x00000000 x12=0xfffffffc
       18165000	      1815	80005954	03835063	bge	x6,x24,80005974	  x6:0x00000ed6 x24:0x00000800
       18175000	      1816	00000000	00000013	addi	x0,x0,0	  x0:0x00000000
       18185000	      1817	80005970	00000013	addi	x0,x0,0	  x0:0x00000000
       18195000	      1818	80005974	007249b3	xor	x19,x4,x7	  x4:0x00000000  x7:0xfffffd40 x19=0xfffffd40
       18205000	      1819	80005978	19ed3693	sltiu	x13,x26,414	 x26:0x80009f0c x13=0x00000000
       18215000	      1820	8000597c	015e9993	slli	x19,x29,0x15	 x29:0x00000000 x19=0x00000000
       18225000	      1821	80005980	0153b0b3	sltu	x1,x7,x21	  x7:0xfffffd40 x21:0x80009f04  x1=0x00000000
       18235000	      1822	80005984	014d0933	add	x18,x26,x20	 x26:0x80009f0c x20:0x2621e000 x18=0xa6227f0c
       18245000	      1823	80005988	000418b3	sll	x17,x8,x0	  x8:0x00000000  x0:0x00000000 x17=0x00000000
       18255000	      1824	8000598c	40458933	sub	x18,x11,x4	 x11:0x00000800  x4:0x00000000 x18=0x00000800
       18265000	      1825	80005990	0366da63	bge	x13,x22,800059c4	 x13:0x00000000 x22:0x00000001
       18275000	      1826	80005994	40d253b3	sra	x7,x4,x13	  x4:0x00000000 x13:0x00000000  x7=0x00000000
       18285000	      1827	80005998	41f95233	sra	x4,x18,x31	 x18:0x00000800 x31:0x564f2948  x4=0x00000008
       18295000	      1828	8000599c	01ea1793	slli	x15,x20,0x1e	 x20:0x2621e000 x15=0x00000000
       18305000	      1829	800059a0	ea0ef337	lui	x6,0xea0ef	  x6=0xea0ef000
       18315000	      1830	800059a4	02880c63	beq	x16,x8,800059dc	 x16:0xffc2f000  x8:0x00000000
       18325000	      1831	800059a8	0148d113	srli	x2,x17,0x14	 x17:0x00000000  x2=0x00000000
       18335000	      1832	800059ac	40e65b33	sra	x22,x12,x14	 x12:0xfffffffc x14:0x00000000 x22=0xfffffffc
       18345000	      1833	800059b0	00f85793	srli	x15,x16,0xf	 x16:0xffc2f000 x15=0x0001ff85
       18355000	      1834	800059b4	40ae0333	sub	x6,x28,x10	 x28:0x80009fc4 x10:0xfffffffc  x6=0x80009fc8
       18365000	      1835	800059b8	00a59133	sll	x2,x11,x10	 x11:0x00000800 x10:0xfffffffc  x2=0x00000000
       18375000	      1836	800059bc	0cdb3393	sltiu	x7,x22,205	 x22:0xfffffffc  x7=0x00000000
       18385000	      1837	800059c0	02c9ec63	bltu	x19,x12,800059f8	 x19:0x00000000 x12:0xfffffffc
       18395000	      1838	00000000	00000013	addi	x0,x0,0	  x0:0x00000000
       18405000	      1839	800059f4	00000013	addi	x0,x0,0	  x0:0x00000000
       18415000	      1840	800059f8	015ac7b3	xor	x15,x21,x21	 x21:0x80009f04 x21:0x80009f04 x15=0x00000000
       18425000	      1841	800059fc	00000013	addi	x0,x0,0	  x0:0x00000000
       18435000	      1842	80005a00	040cc663	blt	x25,x0,80005a4c	 x25:0x00000000  x0:0x00000000
       18445000	      1843	80005a04	03fe0c63	beq	x28,x31,80005a3c	 x28:0x80009fc4 x31:0x564f2948
       18455000	      1844	80005a08	010ce863	bltu	x25,x16,80005a18	 x25:0x00000000 x16:0xffc2f000
       18465000	      1845	00000000	00000013	addi	x0,x0,0	  x0:0x00000000
       18475000	      1846	80005a14	00000013	addi	x0,x0,0	  x0:0x00000000
       18485000	      1847	80005a18	01100033	add	x0,x0,x17	  x0:0x00000000 x17:0x00000000
       18495000	      1848	80005a1c	00000013	addi	x0,x0,0	  x0:0x00000000
       18505000	      1849	80005a20	01c9e3b3	or	x7,x19,x28	 x19:0x00000000 x28:0x80009fc4  x7=0x80009fc4
       18515000	      1850	80005a24	01084633	xor	x12,x16,x16	 x16:0xffc2f000 x16:0xffc2f000 x12=0x00000000
       18525000	      1851	80005a28	0047ca63	blt	x15,x4,80005a3c	 x15:0x00000000  x4:0x00000008
       18535000	      1852	00000000	00000013	addi	x0,x0,0	  x0:0x00000000
       18545000	      1853	80005a38	00000013	addi	x0,x0,0	  x0:0x00000000
       18555000	      1854	80005a3c	4183d3b3	sra	x7,x7,x24	  x7:0x80009fc4 x24:0x00000800  x7=0x80009fc4
       18565000	      1855	80005a40	01778db3	add	x27,x15,x23	 x15:0x00000000 x23:0xf4b97000 x27=0xf4b97000
       18575000	      1856	80005a44	7453c413	xori	x8,x7,1861	  x7:0x80009fc4  x8=0x80009881
       18585000	      1857	80005a48	00c6c6b3	xor	x13,x13,x12	 x13:0x00000000 x12:0x00000000 x13=0x00000000
       18595000	      1858	80005a4c	0066e033	or	x0,x13,x6	 x13:0x00000000  x6:0x80009fc8
       18605000	      1859	80005a50	00406433	or	x8,x0,x4	  x0:0x00000000  x4:0x00000008  x8=0x00000008
       18615000	      1860	80005a54	00000013	addi	x0,x0,0	  x0:0x00000000
       18625000	      1861	80005a58	002494b3	sll	x9,x9,x2	  x9:0x00000000  x2:0x00000000  x9=0x00000000
       18635000	      1862	80005a5c	00000013	addi	x0,x0,0	  x0:0x00000000
       18645000	      1863	80005a60	014357b3	srl	x15,x6,x20	  x6:0x80009fc8 x20:0x2621e000 x15=0x80009fc8
       18655000	      1864	80005a64	d65e2913	slti	x18,x28,-667	 x28:0x80009fc4 x18=0x00000001
       18665000	      1865	80005a68	419781b3	sub	x3,x15,x25	 x15:0x80009fc8 x25:0x00000000  x3=0x80009fc8
       18675000	      1866	80005a6c	02c4e063	bltu	x9,x12,80005a8c	  x9:0x00000000 x12:0x00000000
       18685000	      1867	80005a70	00551d93	slli	x27,x10,0x5	 x10:0xfffffffc x27=0xffffff80
       18695000	      1868	80005a74	00000013	addi	x0,x0,0	  x0:0x00000000
       18705000	      1869	80005a78	b345c197	auipc	x3,0xb345c	  x3=0x33461a74
       18715000	      1870	80005a7c	c6f92b93	slti	x23,x18,-913	 x18:0x00000001 x23=0x00000000
       18725000	      1871	80005a80	1ecd0613	addi	x12,x26,492	 x26:0x80009f0c x12=0x8000a0f8
       18735000	      1872	80005a84	0055e663	bltu	x11,x5,80005a90	 x11:0x00000800  x5:0x80000000
       18745000	      1873	00000000	00000013	addi	x0,x0,0	  x0:0x00000000
       18755000	      1874	80005a8c	00000013	addi	x0,x0,0	  x0:0x00000000
       18765000	      1875	80005a90	02eb0e63	beq	x22,x14,80005acc	 x22:0xfffffffc x14:0x00000000
       18775000	      1876	80005a94	aa40df37	lui	x30,0xaa40d	 x30=0xaa40d000
       18785000	      1877	80005a98	2b8de913	ori	x18,x27,696	 x27:0xffffff80 x18=0xffffffb8
       18795000	      1878	80005a9c	01a73233	sltu	x4,x14,x26	 x14:0x00000000 x26:0x80009f0c  x4=0x00000001
       18805000	      1879	80005aa0	00000013	addi	x0,x0,0	  x0:0x00000000
       18815000	      1880	80005aa4	63f82113	slti	x2,x16,1599	 x16:0xffc2f000  x2=0x00000001
       18825000	      1881	80005aa8	00929b93	slli	x23,x5,0x9	  x5:0x80000000 x23=0x00000000
       18835000	      1882	80005aac	018b9db3	sll	x27,x23,x24	 x23:0x00000000 x24:0x00000800 x27=0x00000000
       18845000	      1883	80005ab0	7cbdea37	lui	x20,0x7cbde	 x20=0x7cbde000
       18855000	      1884	80005ab4	00687ab3	and	x21,x16,x6	 x16:0xffc2f000  x6:0x80009fc8 x21=0x80009000
       18865000	      1885	80005ab8	0034a933	slt	x18,x9,x3	  x9:0x00000000  x3:0x33461a74 x18=0x00000001
       18875000	      1886	80005abc	05095863	bge	x18,x16,80005b0c	 x18:0x00000001 x16:0xffc2f000
       18885000	      1887	00000000	00000013	addi	x0,x0,0	  x0:0x00000000
       18895000	      1888	80005b08	00000013	addi	x0,x0,0	  x0:0x00000000
       18905000	      1889	80005b0c	00900533	add	x10,x0,x9	  x0:0x00000000  x9:0x00000000 x10=0x00000000
       18915000	      1890	80005b10	017a0eb3	add	x29,x20,x23	 x20:0x7cbde000 x23:0x00000000 x29=0x7cbde000
       18925000	      1891	80005b14	00f9ccb3	xor	x25,x19,x15	 x19:0x00000000 x15:0x80009fc8 x25=0x80009fc8
       18935000	      1892	80005b18	00111093	slli	x1,x2,0x1	  x2:0x00000001  x1=0x00000002
       18945000	      1893	80005b1c	01873433	sltu	x8,x14,x24	 x14:0x00000000 x24:0x00000800  x8=0x00000001
       18955000	      1894	80005b20	0c838013	addi	x0,x7,200	  x7:0x80009fc4
       18965000	      1895	80005b24	0136cc33	xor	x24,x13,x19	 x13:0x00000000 x19:0x00000000 x24=0x00000000
       18975000	      1896	80005b28	00245033	srl	x0,x8,x2	  x8:0x00000001  x2:0x00000001
       18985000	      1897	80005b2c	eb443c93	sltiu	x25,x8,-332	  x8:0x00000001 x25=0x00000001
       18995000	      1898	80005b30	02f24c63	blt	x4,x15,80005b68	  x4:0x00000001 x15:0x80009fc8
       19005000	      1899	80005b34	0127ec63	bltu	x15,x18,80005b4c	 x15:0x80009fc8 x18:0x00000001
       19015000	      1900	80005b38	03bff063	bgeu	x31,x27,80005b58	 x31:0x564f2948 x27:0x00000000
       19025000	      1901	00000000	00000013	addi	x0,x0,0	  x0:0x00000000
       19035000	      1902	80005b54	00000013	addi	x0,x0,0	  x0:0x00000000
       19045000	      1903	80005b58	ed8da813	slti	x16,x27,-296	 x27:0x00000000 x16=0x00000000
       19055000	      1904	80005b5c	c83ccf93	xori	x31,x25,-893	 x25:0x00000001 x31=0xfffffc82
       19065000	      1905	80005b60	40dcdfb3	sra	x31,x25,x13	 x25:0x00000001 x13:0x00000000 x31=0x00000001
       19075000	      1906	80005b64	0468f463	bgeu	x17,x6,80005bac	 x17:0x00000000  x6:0x80009fc8
       19085000	      1907	80005b68	00eb7c33	and	x24,x22,x14	 x22:0xfffffffc x14:0x00000000 x24=0x00000000
       19095000	      1908	80005b6c	01607a33	and	x20,x0,x22	  x0:0x00000000 x22:0xfffffffc x20=0x00000000
       19105000	      1909	80005b70	00ad9093	slli	x1,x27,0xa	 x27:0x00000000  x1=0x00000000
       19115000	      1910	80005b74	00c09633	sll	x12,x1,x12	  x1:0x00000000 x12:0x8000a0f8 x12=0x00000000
       19125000	      1911	80005b78	008c5a33	srl	x20,x24,x8	 x24:0x00000000  x8:0x00000001 x20=0x00000000
       19135000	      1912	80005b7c	40ce8bb3	sub	x23,x29,x12	 x29:0x7cbde000 x12:0x00000000 x23=0x7cbde000
       19145000	      1913	80005b80	010688b3	add	x17,x13,x16	 x13:0x00000000 x16:0x00000000 x17=0x00000000
       19155000	      1914	80005b84	00e39993	slli	x19,x7,0xe	  x7:0x80009fc4 x19=0x27f10000
       19165000	      1915	80005b88	01c99313	slli	x6,x19,0x1c	 x19:0x27f10000  x6=0x00000000
       19175000	      1916	80005b8c	01453f33	sltu	x30,x10,x20	 x10:0x00000000 x20:0x00000000 x30=0x00000000
       19185000	      1917	80005b90	a700c993	xori	x19,x1,-1424	  x1:0x00000000 x19=0xfffffa70
       19195000	      1918	80005b94	012fc833	xor	x16,x31,x18	 x31:0x00000001 x18:0x00000001 x16=0x00000000
       19205000	      1919	80005b98	00b41113	slli	x2,x8,0xb	  x8:0x00000001  x2=0x00000800
       19215000	      1920	80005b9c	302ce613	ori	x12,x25,770	 x25:0x00000001 x12=0x00000303
       19225000	      1921	80005ba0	a6fec693	xori	x13,x29,-1425	 x29:0x7cbde000 x13=0x83421a6f
       19235000	      1922	80005ba4	00da0fb3	add	x31,x20,x13	 x20:0x00000000 x13:0x83421a6f x31=0x83421a6f
       19245000	      1923	80005ba8	01113ab3	sltu	x21,x2,x17	  x2:0x00000800 x17:0x00000000 x21=0x00000000
       19255000	      1924	80005bac	40e0d093	srai	x1,x1,0xe	  x1:0x00000000  x1=0x00000000
       19265000	      1925	80005bb0	011ef8b3	and	x17,x29,x17	 x29:0x7cbde000 x17:0x00000000 x17=0x00000000
       19275000	      1926	80005bb4	04920263	beq	x4,x9,80005bf8	  x4:0x00000001  x9:0x00000000
       19285000	      1927	80005bb8	1b217a93	andi	x21,x2,434	  x2:0x00000800 x21=0x00000000
       19295000	      1928	80005bbc	02a95c63	bge	x18,x10,80005bf4	 x18:0x00000001 x10:0x00000000
       19305000	      1929	00000000	00000013	addi	x0,x0,0	  x0:0x00000000
       19315000	      1930	80005bf0	00000013	addi	x0,x0,0	  x0:0x00000000
       19325000	      1931	80005bf4	0337ce63	blt	x15,x19,80005c30	 x15:0x80009fc8 x19:0xfffffa70
       19335000	      1932	00000000	00000013	addi	x0,x0,0	  x0:0x00000000
       19345000	      1933	80005c2c	00000013	addi	x0,x0,0	  x0:0x00000000
       19355000	      1934	80005c30	0082d8b3	srl	x17,x5,x8	  x5:0x80000000  x8:0x00000001 x17=0x40000000
       19365000	      1935	80005c34	02d30c63	beq	x6,x13,80005c6c	  x6:0x00000000 x13:0x83421a6f
       19375000	      1936	80005c38	4040dfb3	sra	x31,x1,x4	  x1:0x00000000  x4:0x00000001 x31=0x00000000
       19385000	      1937	80005c3c	f05c4ab7	lui	x21,0xf05c4	 x21=0xf05c4000
       19395000	      1938	80005c40	01a74333	xor	x6,x14,x26	 x14:0x00000000 x26:0x80009f0c  x6=0x80009f0c
       19405000	      1939	80005c44	1203b0b7	lui	x1,0x1203b	  x1=0x1203b000
       19415000	      1940	80005c48	00d40633	add	x12,x8,x13	  x8:0x00000001 x13:0x83421a6f x12=0x83421a70
       19425000	      1941	80005c4c	bbc6f593	andi	x11,x13,-1092	 x13:0x83421a6f x11=0x83421a2c
       19435000	      1942	80005c50	6426c917	auipc	x18,0x6426c	 x18=0xe4271c4c
       19445000	      1943	80005c54	0325ce63	blt	x11,x18,80005c90	 x11:0x83421a2c x18:0xe4271c4c
       19455000	      1944	00000000	00000013	addi	x0,x0,0	  x0:0x00000000
       19465000	      1945	80005c8c	00000013	addi	x0,x0,0	  x0:0x00000000
       19475000	      1946	80005c90	0349b313	sltiu	x6,x19,52	 x19:0xfffffa70  x6=0x00000000
       19485000	      1947	80005c94	4913a5b7	lui	x11,0x4913a	 x11=0x4913a000
       19495000	      1948	80005c98	005ec533	xor	x10,x29,x5	 x29:0x7cbde000  x5:0x80000000 x10=0xfcbde000
       19505000	      1949	80005c9c	be0b8d93	addi	x27,x23,-1056	 x23:0x7cbde000 x27=0x7cbddbe0
       19515000	      1950	80005ca0	02604c63	blt	x0,x6,80005cd8	  x0:0x00000000  x6:0x00000000
       19525000	      1951	80005ca4	010dd113	srli	x2,x27,0x10	 x27:0x7cbddbe0  x2=0x00007cbd
       19535000	      1952	80005ca8	51f6b8b7	lui	x17,0x51f6b	 x17=0x51f6b000
       19545000	      1953	80005cac	3b290393	addi	x7,x18,946	 x18:0xe4271c4c  x7=0xe4271ffe
       19555000	      1954	80005cb0	01fb21b3	slt	x3,x22,x31	 x22:0xfffffffc x31:0x00000000  x3=0x00000001
       19565000	      1955	80005cb4	02637e63	bgeu	x6,x6,80005cf0	  x6:0x00000000  x6:0x00000000
       19575000	      1956	00000000	00000013	addi	x0,x0,0	  x0:0x00000000
       19585000	      1957	80005cec	00000013	addi	x0,x0,0	  x0:0x00000000
       19595000	      1958	80005cf0	005264b3	or	x9,x4,x5	  x4:0x00000001  x5:0x80000000  x9=0x80000001
       19605000	      1959	80005cf4	4ddbe913	ori	x18,x23,1245	 x23:0x7cbde000 x18=0x7cbde4dd
       19615000	      1960	80005cf8	018748b3	xor	x17,x14,x24	 x14:0x00000000 x24:0x00000000 x17=0x00000000
       19625000	      1961	80005cfc	01bdd613	srli	x12,x27,0x1b	 x27:0x7cbddbe0 x12=0x0000000f
       19635000	      1962	80005d00	76e23613	sltiu	x12,x4,1902	  x4:0x00000001 x12=0x00000001
       19645000	      1963	80005d04	01c3dc63	bge	x7,x28,80005d1c	  x7:0xe4271ffe x28:0x80009fc4
       19655000	      1964	00000000	00000013	addi	x0,x0,0	  x0:0x00000000
       19665000	      1965	80005d18	00000013	addi	x0,x0,0	  x0:0x00000000
       19675000	      1966	80005d1c	14e3e213	ori	x4,x7,334	  x7:0xe4271ffe  x4=0xe4271ffe
       19685000	      1967	80005d20	017c7c33	and	x24,x24,x23	 x24:0x00000000 x23:0x7cbde000 x24=0x00000000
       19695000	      1968	80005d24	01d81663	bne	x16,x29,80005d30	 x16:0x00000000 x29:0x7cbde000
       19705000	      1969	00000000	00000013	addi	x0,x0,0	  x0:0x00000000
       19715000	      1970	80005d2c	00000013	addi	x0,x0,0	  x0:0x00000000
       19725000	      1971	80005d30	5949b193	sltiu	x3,x19,1428	 x19:0xfffffa70  x3=0x00000000
       19735000	      1972	80005d34	40e30433	sub	x8,x6,x14	  x6:0x00000000 x14:0x00000000  x8=0x00000000
       19745000	      1973	80005d38	01ea79b3	and	x19,x20,x30	 x20:0x00000000 x30:0x00000000 x19=0x00000000
       19755000	      1974	80005d3c	e5af8213	addi	x4,x31,-422	 x31:0x00000000  x4=0xfffffe5a
       19765000	      1975	80005d40	e1126093	ori	x1,x4,-495	  x4:0xfffffe5a  x1=0xfffffe5b
       19775000	      1976	80005d44	e0c3ff93	andi	x31,x7,-500	  x7:0xe4271ffe x31=0xe4271e0c
       19785000	      1977	80005d48	efd8cf13	xori	x30,x17,-259	 x17:0x00000000 x30=0xfffffefd
       19795000	      1978	80005d4c	02bf1063	bne	x30,x11,80005d6c	 x30:0xfffffefd x11:0x4913a000
       19805000	      1979	00000000	00000013	addi	x0,x0,0	  x0:0x00000000
       19815000	      1980	80005d68	00000013	addi	x0,x0,0	  x0:0x00000000
       19825000	      1981	80005d6c	285acb13	xori	x22,x21,645	 x21:0xf05c4000 x22=0xf05c4285
       19835000	      1982	80005d70	012563b3	or	x7,x10,x18	 x10:0xfcbde000 x18:0x7cbde4dd  x7=0xfcbde4dd
       19845000	      1983	80005d74	00000013	addi	x0,x0,0	  x0:0x00000000
       19855000	      1984	80005d78	00000013	addi	x0,x0,0	  x0:0x00000000
       19865000	      1985	80005d7c	0091ea33	or	x20,x3,x9	  x3:0x00000000  x9:0x80000001 x20=0x80000001
       19875000	      1986	80005d80	009a5793	srli	x15,x20,0x9	 x20:0x80000001 x15=0x00400000
       19885000	      1987	80005d84	01ddd013	srli	x0,x27,0x1d	 x27:0x7cbddbe0
       19895000	      1988	80005d88	e3eed897	auipc	x17,0xe3eed	 x17=0x63ef2d84
       19905000	      1989	80005d8c	6193ea13	ori	x20,x7,1561	  x7:0xfcbde4dd x20=0xfcbde6dd
       19915000	      1990	80005d90	0128e6b3	or	x13,x17,x18	 x17:0x63ef2d84 x18:0x7cbde4dd x13=0x7fffeddd
       19925000	      1991	80005d94	01b6dc33	srl	x24,x13,x27	 x13:0x7fffeddd x27:0x7cbddbe0 x24=0x7fffeddd
       19935000	      1992	80005d98	e5e9c393	xori	x7,x19,-418	 x19:0x00000000  x7=0xfffffe5e
       19945000	      1993	80005d9c	019364b3	or	x9,x6,x25	  x6:0x00000000 x25:0x00000001  x9=0x00000001
       19955000	      1994	80005da0	408dd013	srai	x0,x27,0x8	 x27:0x7cbddbe0
       19965000	      1995	80005da4	01a78db3	add	x27,x15,x26	 x15:0x00400000 x26:0x80009f0c x27=0x80409f0c
       19975000	      1996	80005da8	03327a63	bgeu	x4,x19,80005ddc	  x4:0xfffffe5a x19:0x00000000
       19985000	      1997	00000000	00000013	addi	x0,x0,0	  x0:0x00000000
       19995000	      1998	80005dd8	00000013	addi	x0,x0,0	  x0:0x00000000
       20005000	      1999	80005ddc	41135f13	srai	x30,x6,0x11	  x6:0x00000000 x30=0x00000000
       20015000	      2000	80005de0	3b80c313	xori	x6,x1,952	  x1:0xfffffe5b  x6=0xfffffde3
       20025000	      2001	80005de4	4032da33	sra	x20,x5,x3	  x5:0x80000000  x3:0x00000000 x20=0x80000000
       20035000	      2002	80005de8	73a7e137	lui	x2,0x73a7e	  x2=0x73a7e000
       20045000	      2003	80005dec	0431f863	bgeu	x3,x3,80005e3c	  x3:0x00000000  x3:0x00000000
       20055000	      2004	00000000	00000013	addi	x0,x0,0	  x0:0x00000000
       20065000	      2005	80005e38	00000013	addi	x0,x0,0	  x0:0x00000000
       20075000	      2006	80005e3c	69a30b37	lui	x22,0x69a30	 x22=0x69a30000
       20085000	      2007	80005e40	41cd5413	srai	x8,x26,0x1c	 x26:0x80009f0c  x8=0xfffffff8
       20095000	      2008	80005e44	02c9dc63	bge	x19,x12,80005e7c	 x19:0x00000000 x12:0x00000001
       20105000	      2009	80005e48	78427393	andi	x7,x4,1924	  x4:0xfffffe5a  x7=0x00000600
       20115000	      2010	80005e4c	6326f593	andi	x11,x13,1586	 x13:0x7fffeddd x11=0x00000410
       20125000	      2011	80005e50	e9a39437	lui	x8,0xe9a39	  x8=0xe9a39000
       20135000	      2012	80005e54	007d1ab3	sll	x21,x26,x7	 x26:0x80009f0c  x7:0x00000600 x21=0x80009f0c
       20145000	      2013	80005e58	01b29513	slli	x10,x5,0x1b	  x5:0x80000000 x10=0x00000000
       20155000	      2014	80005e5c	04dae463	bltu	x21,x13,80005ea4	 x21:0x80009f0c x13:0x7fffeddd
       20165000	      2015	80005e60	0099b4b3	sltu	x9,x19,x9	 x19:0x00000000  x9:0x00000001  x9=0x00000001
       20175000	      2016	80005e64	aca77bb7	lui	x23,0xaca77	 x23=0xaca77000
       20185000	      2017	80005e68	01851463	bne	x10,x24,80005e70	 x10:0x00000000 x24:0x7fffeddd
       20195000	      2018	00000000	00000013	addi	x0,x0,0	  x0:0x00000000
       20205000	      2019	80005e6c	00000013	addi	x0,x0,0	  x0:0x00000000
       20215000	      2020	80005e70	02524c63	blt	x4,x5,80005ea8	  x4:0xfffffe5a  x5:0x80000000
       20225000	      2021	80005e74	01fbf633	and	x12,x23,x31	 x23:0xaca77000 x31:0xe4271e0c x12=0xa4271000
       20235000	      2022	80005e78	01c68863	beq	x13,x28,80005e88	 x13:0x7fffeddd x28:0x80009fc4
       20245000	      2023	80005e7c	044ae263	bltu	x21,x4,80005ec0	 x21:0x80009f0c  x4:0xfffffe5a
       20255000	      2024	00000000	00000013	addi	x0,x0,0	  x0:0x00000000
       20265000	      2025	80005ebc	00000013	addi	x0,x0,0	  x0:0x00000000
       20275000	      2026	80005ec0	034d0a63	beq	x26,x20,80005ef4	 x26:0x80009f0c x20:0x80000000
       20285000	      2027	80005ec4	e1222493	slti	x9,x4,-494	  x4:0xfffffe5a  x9=0x00000000
       20295000	      2028	80005ec8	007dbcb3	sltu	x25,x27,x7	 x27:0x80409f0c  x7:0x00000600 x25=0x00000000
       20305000	      2029	80005ecc	000666b3	or	x13,x12,x0	 x12:0xa4271000  x0:0x00000000 x13=0xa4271000
       20315000	      2030	80005ed0	0062cf33	xor	x30,x5,x6	  x5:0x80000000  x6:0xfffffde3 x30=0x7ffffde3
       20325000	      2031	80005ed4	3bb4e613	ori	x12,x9,955	  x9:0x00000000 x12=0x000003bb
       20335000	      2032	80005ed8	0623f993	andi	x19,x7,98	  x7:0x00000600 x19=0x00000000
       20345000	      2033	80005edc	043ad663	bge	x21,x3,80005f28	 x21:0x80009f0c  x3:0x00000000
       20355000	      2034	80005ee0	03188c63	beq	x17,x17,80005f18	 x17:0x63ef2d84 x17:0x63ef2d84
       20365000	      2035	00000000	00000013	addi	x0,x0,0	  x0:0x00000000
       20375000	      2036	80005f14	00000013	addi	x0,x0,0	  x0:0x00000000
       20385000	      2037	80005f18	50a52913	slti	x18,x10,1290	 x10:0x00000000 x18=0x00000001
       20395000	      2038	80005f1c	4183db93	srai	x23,x7,0x18	  x7:0x00000600 x23=0x00000000
       20405000	      2039	80005f20	00ec7f33	and	x30,x24,x14	 x24:0x7fffeddd x14:0x00000000 x30=0x00000000
       20415000	      2040	80005f24	00989833	sll	x16,x17,x9	 x17:0x63ef2d84  x9:0x00000000 x16=0x63ef2d84
       20425000	      2041	80005f28	00b214b3	sll	x9,x4,x11	  x4:0xfffffe5a x11:0x00000410  x9=0xfe5a0000
       20435000	      2042	80005f2c	04034463	blt	x6,x0,80005f74	  x6:0xfffffde3  x0:0x00000000
       20445000	      2043	00000000	00000013	addi	x0,x0,0	  x0:0x00000000
       20455000	      2044	80005f70	00000013	addi	x0,x0,0	  x0:0x00000000
       20465000	      2045	80005f74	00000013	addi	x0,x0,0	  x0:0x00000000
       20475000	      2046	80005f78	0057e933	or	x18,x15,x5	 x15:0x00400000  x5:0x80000000 x18=0x80400000
       20485000	      2047	80005f7c	b16e0713	addi	x14,x28,-1258	 x28:0x80009fc4 x14=0x80009ada
       20495000	      2048	80005f80	00dd4033	xor	x0,x26,x13	 x26:0x80009f0c x13:0xa4271000
       20505000	      2049	80005f84	ea6ca013	slti	x0,x25,-346	 x25:0x00000000
       20515000	      2050	80005f88	01811013	slli	x0,x2,0x18	  x2:0x73a7e000
       20525000	      2051	80005f8c	007ecab3	xor	x21,x29,x7	 x29:0x7cbde000  x7:0x00000600 x21=0x7cbde600
       20535000	      2052	80005f90	3c7c5a97	auipc	x21,0x3c7c5	 x21=0xbc7caf8c
       20545000	      2053	80005f94	c0122a13	slti	x20,x4,-1023	  x4:0xfffffe5a x20=0x00000000
       20555000	      2054	80005f98	40c68db3	sub	x27,x13,x12	 x13:0xa4271000 x12:0x000003bb x27=0xa4270c45
       20565000	      2055	80005f9c	00c893b3	sll	x7,x17,x12	 x17:0x63ef2d84 x12:0x000003bb  x7=0x20000000
       20575000	      2056	80005fa0	011e5733	srl	x14,x28,x17	 x28:0x80009fc4 x17:0x63ef2d84 x14=0x080009fc
       20585000	      2057	80005fa4	04ac8663	beq	x25,x10,80005ff0	 x25:0x00000000 x10:0x00000000
       20595000	      2058	00000000	00000013	addi	x0,x0,0	  x0:0x00000000
       20605000	      2059	80005fec	00000013	addi	x0,x0,0	  x0:0x00000000
       20615000	      2060	80005ff0	3bfdca93	xori	x21,x27,959	 x27:0xa4270c45 x21=0xa4270ffa
       20625000	      2061	80005ff4	d8344413	xori	x8,x8,-637	  x8:0xe9a39000  x8=0x165c6d83
       20635000	      2062	80005ff8	01b440b3	xor	x1,x8,x27	  x8:0x165c6d83 x27:0xa4270c45  x1=0xb27b61c6
       20645000	      2063	80005ffc	3ff46f17	auipc	x30,0x3ff46	 x30=0xbff4bff8
       20655000	      2064	80006000	3b5a3b37	lui	x22,0x3b5a3	 x22=0x3b5a3000
       20665000	      2065	80006004	4044d3b3	sra	x7,x9,x4	  x9:0xfe5a0000  x4:0xfffffe5a  x7=0xffffffff
       20675000	      2066	80006008	00041533	sll	x10,x8,x0	  x8:0x165c6d83  x0:0x00000000 x10=0x165c6d83
       20685000	      2067	8000600c	4062dcb3	sra	x25,x5,x6	  x5:0x80000000  x6:0xfffffde3 x25=0xf0000000
       20695000	      2068	80006010	01b61f33	sll	x30,x12,x27	 x12:0x000003bb x27:0xa4270c45 x30=0x00007760
       20705000	      2069	80006014	03355e63	bge	x10,x19,80006050	 x10:0x165c6d83 x19:0x00000000
       20715000	      2070	00000000	00000013	addi	x0,x0,0	  x0:0x00000000
       20725000	      2071	8000604c	00000013	addi	x0,x0,0	  x0:0x00000000
       20735000	      2072	80006050	3627e3b7	lui	x7,0x3627e	  x7=0x3627e000
       20745000	      2073	80006054	41b1ddb3	sra	x27,x3,x27	  x3:0x00000000 x27:0xa4270c45 x27=0x00000000
       20755000	      2074	80006058	007dc033	xor	x0,x27,x7	 x27:0x00000000  x7:0x3627e000
       20765000	      2075	8000605c	49bb6d93	ori	x27,x22,1179	 x22:0x3b5a3000 x27=0x3b5a349b
       20775000	      2076	80006060	23d10f17	auipc	x30,0x23d10	 x30=0xa3d1605c
       20785000	      2077	80006064	01686a33	or	x20,x16,x22	 x16:0x63ef2d84 x22:0x3b5a3000 x20=0x7bff3d84
       20795000	      2078	80006068	0088d733	srl	x14,x17,x8	 x17:0x63ef2d84  x8:0x165c6d83 x14=0x0c7de5b0
       20805000	      2079	8000606c	006f0463	beq	x30,x6,80006074	 x30:0xa3d1605c  x6:0xfffffde3
       20815000	      2080	80006070	325b7197	auipc	x3,0x325b7	  x3=0xb25bd06c
       20825000	      2081	80006074	045dc813	xori	x16,x27,69	 x27:0x3b5a349b x16=0x3b5a34de
       20835000	      2082	80006078	ecf06593	ori	x11,x0,-305	  x0:0x00000000 x11=0xfffffecf
       20845000	      2083	8000607c	6181f593	andi	x11,x3,1560	  x3:0xb25bd06c x11=0x00000008
       20855000	      2084	80006080	40ac5cb3	sra	x25,x24,x10	 x24:0x7fffeddd x10:0x165c6d83 x25=0x0ffffdbb
       20865000	      2085	80006084	411c5593	srai	x11,x24,0x11	 x24:0x7fffeddd x11=0x00003fff
       20875000	      2086	80006088	49b1ac13	slti	x24,x3,1179	  x3:0xb25bd06c x24=0x00000001
       20885000	      2087	8000608c	0111d033	srl	x0,x3,x17	  x3:0xb25bd06c x17:0x63ef2d84
       20895000	      2088	80006090	00000013	addi	x0,x0,0	  x0:0x00000000
       20905000	      2089	80006094	016df3b3	and	x7,x27,x22	 x27:0x3b5a349b x22:0x3b5a3000  x7=0x3b5a3000
       20915000	      2090	80006098	01aee433	or	x8,x29,x26	 x29:0x7cbde000 x26:0x80009f0c  x8=0xfcbdff0c
       20925000	      2091	8000609c	004add93	srli	x27,x21,0x4	 x21:0xa4270ffa x27=0x0a4270ff
       20935000	      2092	800060a0	006c9f93	slli	x31,x25,0x6	 x25:0x0ffffdbb x31=0xffff6ec0
       20945000	      2093	800060a4	05bb7663	bgeu	x22,x27,800060f0	 x22:0x3b5a3000 x27:0x0a4270ff
       20955000	      2094	00000000	00000013	addi	x0,x0,0	  x0:0x00000000
       20965000	      2095	800060ec	00000013	addi	x0,x0,0	  x0:0x00000000
       20975000	      2096	800060f0	01e48e63	beq	x9,x30,8000610c	  x9:0xfe5a0000 x30:0xa3d1605c
       20985000	      2097	800060f4	00000013	addi	x0,x0,0	  x0:0x00000000
       20995000	      2098	800060f8	002f8733	add	x14,x31,x2	 x31:0xffff6ec0  x2:0x73a7e000 x14=0x73a74ec0
       21005000	      2099	800060fc	4179d693	srai	x13,x19,0x17	 x19:0x00000000 x13=0x00000000
       21015000	      2100	80006100	02edee63	bltu	x27,x14,8000613c	 x27:0x0a4270ff x14:0x73a74ec0
       21025000	      2101	00000000	00000013	addi	x0,x0,0	  x0:0x00000000
       21035000	      2102	80006138	00000013	addi	x0,x0,0	  x0:0x00000000
       21045000	      2103	8000613c	008ed593	srli	x11,x29,0x8	 x29:0x7cbde000 x11=0x007cbde0
       21055000	      2104	80006140	40d80c33	sub	x24,x16,x13	 x16:0x3b5a34de x13:0x00000000 x24=0x3b5a34de
       21065000	      2105	80006144	00f31eb3	sll	x29,x6,x15	  x6:0xfffffde3 x15:0x00400000 x29=0xfffffde3
       21075000	      2106	80006148	007dd113	srli	x2,x27,0x7	 x27:0x0a4270ff  x2=0x001484e1
       21085000	      2107	8000614c	008eb9b3	sltu	x19,x29,x8	 x29:0xfffffde3  x8:0xfcbdff0c x19=0x00000000
       21095000	      2108	80006150	4007d933	sra	x18,x15,x0	 x15:0x00400000  x0:0x00000000 x18=0x00400000
       21105000	      2109	80006154	41ba8433	sub	x8,x21,x27	 x21:0xa4270ffa x27:0x0a4270ff  x8=0x99e49efb
       21115000	      2110	80006158	40955613	srai	x12,x10,0x9	 x10:0x165c6d83 x12=0x000b2e36
       21125000	      2111	8000615c	04a17663	bgeu	x2,x10,800061a8	  x2:0x001484e1 x10:0x165c6d83
       21135000	      2112	80006160	4046d613	srai	x12,x13,0x4	 x13:0x00000000 x12=0x00000000
       21145000	      2113	80006164	00ec27b3	slt	x15,x24,x14	 x24:0x3b5a34de x14:0x73a74ec0 x15=0x00000001
       21155000	      2114	80006168	0131a8b3	slt	x17,x3,x19	  x3:0xb25bd06c x19:0x00000000 x17=0x00000001
       21165000	      2115	8000616c	dd62dc17	auipc	x24,0xdd62d	 x24=0x5d633168
       21175000	      2116	80006170	01d9a8b3	slt	x17,x19,x29	 x19:0x00000000 x29:0xfffffde3 x17=0x00000000
       21185000	      2117	80006174	0016db93	srli	x23,x13,0x1	 x13:0x00000000 x23=0x00000000
       21195000	      2118	80006178	000f4c33	xor	x24,x30,x0	 x30:0xa3d1605c  x0:0x00000000 x24=0xa3d1605c
       21205000	      2119	8000617c	ba5e0f93	addi	x31,x28,-1115	 x28:0x80009fc4 x31=0x80009b69
       21215000	      2120	80006180	00000013	addi	x0,x0,0	  x0:0x00000000
       21225000	      2121	80006184	036f9c63	bne	x31,x22,800061bc	 x31:0x80009b69 x22:0x3b5a3000
       21235000	      2122	00000000	00000013	addi	x0,x0,0	  x0:0x00000000
       21245000	      2123	800061b8	00000013	addi	x0,x0,0	  x0:0x00000000
       21255000	      2124	800061bc	ea40c317	auipc	x6,0xea40c	  x6=0x6a4121b8
       21265000	      2125	800061c0	dd833413	sltiu	x8,x6,-552	  x6:0x6a4121b8  x8=0x00000001
       21275000	      2126	800061c4	00b58a63	beq	x11,x11,800061d8	 x11:0x007cbde0 x11:0x007cbde0
       21285000	      2127	00000000	00000013	addi	x0,x0,0	  x0:0x00000000
       21295000	      2128	800061d4	00000013	addi	x0,x0,0	  x0:0x00000000
       21305000	      2129	800061d8	00349093	slli	x1,x9,0x3	  x9:0xfe5a0000  x1=0xf2d00000
       21315000	      2130	800061dc	996c4093	xori	x1,x24,-1642	 x24:0xa3d1605c  x1=0x5c2e99ca
       21325000	      2131	800061e0	01c65493	srli	x9,x12,0x1c	 x12:0x00000000  x9=0x00000000
       21335000	      2132	800061e4	00727333	and	x6,x4,x7	  x4:0xfffffe5a  x7:0x3b5a3000  x6=0x3b5a3000
       21345000	      2133	800061e8	00233133	sltu	x2,x6,x2	  x6:0x3b5a3000  x2:0x001484e1  x2=0x00000000
       21355000	      2134	800061ec	6f61f493	andi	x9,x3,1782	  x3:0xb25bd06c  x9=0x00000064
       21365000	      2135	800061f0	00eadb13	srli	x22,x21,0xe	 x21:0xa4270ffa x22=0x0002909c
       21375000	      2136	800061f4	031cec63	bltu	x25,x17,8000622c	 x25:0x0ffffdbb x17:0x00000000
       21385000	      2137	800061f8	01a5dc63	bge	x11,x26,80006210	 x11:0x007cbde0 x26:0x80009f0c
       21395000	      2138	00000000	00000013	addi	x0,x0,0	  x0:0x00000000
       21405000	      2139	8000620c	00000013	addi	x0,x0,0	  x0:0x00000000
       21415000	      2140	80006210	01bfd813	srli	x16,x31,0x1b	 x31:0x80009b69 x16=0x00000010
       21425000	      2141	80006214	41660033	sub	x0,x12,x22	 x12:0x00000000 x22:0x0002909c
       21435000	      2142	80006218	01052c33	slt	x24,x10,x16	 x10:0x165c6d83 x16:0x00000010 x24=0x00000000
       21445000	      2143	8000621c	05e2c463	blt	x5,x30,80006264	  x5:0x80000000 x30:0xa3d1605c
       21455000	      2144	00000000	00000013	addi	x0,x0,0	  x0:0x00000000
       21465000	      2145	80006260	00000013	addi	x0,x0,0	  x0:0x00000000
       21475000	      2146	80006264	00551863	bne	x10,x5,80006274	 x10:0x165c6d83  x5:0x80000000
       21485000	      2147	00000000	00000013	addi	x0,x0,0	  x0:0x00000000
       21495000	      2148	80006270	00000013	addi	x0,x0,0	  x0:0x00000000
       21505000	      2149	80006274	1829b593	sltiu	x11,x19,386	 x19:0x00000000 x11=0x00000001
       21515000	      2150	80006278	41a001b3	sub	x3,x0,x26	  x0:0x00000000 x26:0x80009f0c  x3=0x7fff60f4
       21525000	      2151	8000627c	01837263	bgeu	x6,x24,80006280	  x6:0x3b5a3000 x24:0x00000000
       21535000	      2152	00000000	00000013	addi	x0,x0,0	  x0:0x00000000
       21545000	      2153	8000627c	00000013	addi	x0,x0,0	  x0:0x00000000
       21555000	      2154	80006280	416e53b3	sra	x7,x28,x22	 x28:0x80009fc4 x22:0x0002909c  x7=0xfffffff8
       21565000	      2155	80006284	001473b3	and	x7,x8,x1	  x8:0x00000001  x1:0x5c2e99ca  x7=0x00000000
       21575000	      2156	80006288	004d2083	lw	x1,4(x26)	 x26:0x80009f0c  x1=0x80002dc4 PA:0x80009f10
       21585000	      2157	8000628c	01eee7b3	or	x15,x29,x30	 x29:0xfffffde3 x30:0xa3d1605c x15=0xfffffdff
       21595000	      2158	80006290	00909f33	sll	x30,x1,x9	  x1:0x80002dc4  x9:0x00000064 x30=0x0002dc40
       21605000	      2159	80006294	018258b3	srl	x17,x4,x24	  x4:0xfffffe5a x24:0x00000000 x17=0xfffffe5a
       21615000	      2160	80006298	018ce1b3	or	x3,x25,x24	 x25:0x0ffffdbb x24:0x00000000  x3=0x0ffffdbb
       21625000	      2161	8000629c	00f1c433	xor	x8,x3,x15	  x3:0x0ffffdbb x15:0xfffffdff  x8=0xf0000044
       21635000	      2162	800062a0	028d0d13	addi	x26,x26,40	 x26:0x80009f0c x26=0x80009f34
       21645000	      2163	800062a4	01879c93	slli	x25,x15,0x18	 x15:0xfffffdff x25=0xff000000
       21655000	      2164	800062a8	00108593	addi	x11,x1,1	  x1:0x80002dc4 x11=0x80002dc5
       21665000	      2165	800062ac	000585e7	jalr	x11,x11,0	 x11:0x80002dc5 x11=0x800062ac
       21675000	      2166	00000000	00000013	addi	x0,x0,0	  x0:0x00000000
       21685000	      2167	80002dc4	00000013	addi	x0,x0,0	  x0:0x00000000
       21695000	      2168	80002dc8	00911a13	slli	x20,x2,0x9	  x2:0x00000000 x20=0x00000000
       21705000	      2169	80002dcc	7f325537	lui	x10,0x7f325	 x10=0x7f325000
       21715000	      2170	80002dd0	00dd46b3	xor	x13,x26,x13	 x26:0x80009f34 x13:0x00000000 x13=0x80009f34
       21725000	      2171	80002dd4	01ae1113	slli	x2,x28,0x1a	 x28:0x80009fc4  x2=0x10000000
       21735000	      2172	80002dd8	b8750993	addi	x19,x10,-1145	 x10:0x7f325000 x19=0x7f324b87
       21745000	      2173	80002ddc	7e17d4b7	lui	x9,0x7e17d	  x9=0x7e17d000
       21755000	      2174	80002de0	5dc030ef	jal	x1,80002de0	  x1=0x80002de0
       21765000	      2175	00000000	00000013	addi	x0,x0,0	  x0:0x00000000
       21775000	      2176	800063b8	00000013	addi	x0,x0,0	  x0:0x00000000
       21785000	      2177	800063bc	00b94fb3	xor	x31,x18,x11	 x18:0x00400000 x11:0x800062ac x31=0x804062ac
       21795000	      2178	800063c0	0052f3b3	and	x7,x5,x5	  x5:0x80000000  x5:0x80000000  x7=0x80000000
       21805000	      2179	800063c4	005acb33	xor	x22,x21,x5	 x21:0xa4270ffa  x5:0x80000000 x22=0x24270ffa
       21815000	      2180	800063c8	00428a63	beq	x5,x4,800063dc	  x5:0x80000000  x4:0xfffffe5a
       21825000	      2181	800063cc	410086b3	sub	x13,x1,x16	  x1:0x80002de0 x16:0x00000010 x13=0x80002dd0
       21835000	      2182	800063d0	00773733	sltu	x14,x14,x7	 x14:0x73a74ec0  x7:0x80000000 x14=0x00000001
       21845000	      2183	800063d4	41778a33	sub	x20,x15,x23	 x15:0xfffffdff x23:0x00000000 x20=0xfffffdff
       21855000	      2184	800063d8	cf0a7693	andi	x13,x20,-784	 x20:0xfffffdff x13=0xfffffcf0
       21865000	      2185	800063dc	fe0d0d13	addi	x26,x26,-32	 x26:0x80009f34 x26=0x80009f14
       21875000	      2186	800063e0	387b0813	addi	x16,x22,903	 x22:0x24270ffa x16=0x24271381
       21885000	      2187	800063e4	001d2223	sw	x1,4(x26)	 x26:0x80009f14  x1:0x80002de0 PA:0x80009f18
       21895000	      2188	800063e8	9726e613	ori	x12,x13,-1678	 x13:0xfffffcf0 x12=0xfffffdf2
       21905000	      2189	800063ec	00000013	addi	x0,x0,0	  x0:0x00000000
       21915000	      2190	800063f0	419301b3	sub	x3,x6,x25	  x6:0x3b5a3000 x25:0xff000000  x3=0x3c5a3000
       21925000	      2191	800063f4	0133dab3	srl	x21,x7,x19	  x7:0x80000000 x19:0x7f324b87 x21=0x01000000
       21935000	      2192	800063f8	2640b7b7	lui	x15,0x2640b	 x15=0x2640b000
       21945000	      2193	800063fc	9e794993	xori	x19,x18,-1561	 x18:0x00400000 x19=0xffbff9e7
       21955000	      2194	80006400	012bb633	sltu	x12,x23,x18	 x23:0x00000000 x18:0x00400000 x12=0x00000001
       21965000	      2195	80006404	00c74eb3	xor	x29,x14,x12	 x14:0x00000001 x12:0x00000001 x29=0x00000000
       21975000	      2196	80006408	04289063	bne	x17,x2,80006448	 x17:0xfffffe5a  x2:0x10000000
       21985000	      2197	00000000	00000013	addi	x0,x0,0	  x0:0x00000000
       21995000	      2198	80006444	00000013	addi	x0,x0,0	  x0:0x00000000
       22005000	      2199	80006448	0136c833	xor	x16,x13,x19	 x13:0xfffffcf0 x19:0xffbff9e7 x16=0x00400517
       22015000	      2200	8000644c	01785233	srl	x4,x16,x23	 x16:0x00400517 x23:0x00000000  x4=0x00400517
       22025000	      2201	80006450	01768533	add	x10,x13,x23	 x13:0xfffffcf0 x23:0x00000000 x10=0xfffffcf0
       22035000	      2202	80006454	4fac0013	addi	x0,x24,1274	 x24:0x00000000
       22045000	      2203	80006458	00434ab3	xor	x21,x6,x4	  x6:0x3b5a3000  x4:0x00400517 x21=0x3b1a3517
       22055000	      2204	8000645c	9ab3bc37	lui	x24,0x9ab3b	 x24=0x9ab3b000
       22065000	      2205	80006460	010120b3	slt	x1,x2,x16	  x2:0x10000000 x16:0x00400517  x1=0x00000000
       22075000	      2206	80006464	004d2083	lw	x1,4(x26)	 x26:0x80009f14  x1=0x80002de0 PA:0x80009f18
       22085000	      2207	80006468	00f448b3	xor	x17,x8,x15	  x8:0xf0000044 x15:0x2640b000 x17=0xd640b044
       22095000	      2208	8000646c	98d20b93	addi	x23,x4,-1651	  x4:0x00400517 x23=0x003ffea4
       22105000	      2209	80006470	faf82513	slti	x10,x16,-81	 x16:0x00400517 x10=0x00000000
       22115000	      2210	80006474	020d0d13	addi	x26,x26,32	 x26:0x80009f14 x26=0x80009f34
       22125000	      2211	80006478	01408733	add	x14,x1,x20	  x1:0x80002de0 x20:0xfffffdff x14=0x80002bdf
       22135000	      2212	8000647c	00008493	addi	x9,x1,0	  x1:0x80002de0  x9=0x80002de0
       22145000	      2213	80006480	000484e7	jalr	x9,x9,0	  x9:0x80002de0  x9=0x80006480
       22155000	      2214	00000000	00000013	addi	x0,x0,0	  x0:0x00000000
       22165000	      2215	80002de0	00000013	addi	x0,x0,0	  x0:0x00000000
       22175000	      2216	80002de4	0133deb3	srl	x29,x7,x19	  x7:0x80000000 x19:0xffbff9e7 x29=0x01000000
       22185000	      2217	80002de8	011b5093	srli	x1,x22,0x11	 x22:0x24270ffa  x1=0x00001213
       22195000	      2218	80002dec	01f0fe63	bgeu	x1,x31,80002e08	  x1:0x00001213 x31:0x804062ac
       22205000	      2219	80002df0	9f39b013	sltiu	x0,x19,-1549	 x19:0xffbff9e7
       22215000	      2220	80002df4	0095f8b3	and	x17,x11,x9	 x11:0x800062ac  x9:0x80006480 x17=0x80006080
       22225000	      2221	80002df8	008fb133	sltu	x2,x31,x8	 x31:0x804062ac  x8:0xf0000044  x2=0x00000001
       22235000	      2222	80002dfc	cf588893	addi	x17,x17,-779	 x17:0x80006080 x17=0x80005d75
       22245000	      2223	80002e00	5e4f6c13	ori	x24,x30,1508	 x30:0x0002dc40 x24=0x0002dde4
       22255000	      2224	80002e04	4bf94113	xori	x2,x18,1215	 x18:0x00400000  x2=0x004004bf
       22265000	      2225	80002e08	d38fd0ef	jal	x1,80002e08	  x1=0x80002e08
       22275000	      2226	00000000	00000013	addi	x0,x0,0	  x0:0x00000000
       22285000	      2227	8000033c	00000013	addi	x0,x0,0	  x0:0x00000000
       22295000	      2228	80000340	010c8463	beq	x25,x16,80000348	 x25:0xff000000 x16:0x00400517
       22305000	      2229	80000344	0078c8b3	xor	x17,x17,x7	 x17:0x80005d75  x7:0x80000000 x17=0x00005d75
       22315000	      2230	80000348	fc8d0d13	addi	x26,x26,-56	 x26:0x80009f34 x26=0x80009efc
       22325000	      2231	8000034c	c3696b93	ori	x23,x18,-970	 x18:0x00400000 x23=0xfffffc36
       22335000	      2232	80000350	00000013	addi	x0,x0,0	  x0:0x00000000
       22345000	      2233	80000354	001d2223	sw	x1,4(x26)	 x26:0x80009efc  x1:0x80002e08 PA:0x80009f00
       22355000	      2234	80000358	000e35b3	sltu	x11,x28,x0	 x28:0x80009fc4  x0:0x00000000 x11=0x00000000
       22365000	      2235	8000035c	325ac8b7	lui	x17,0x325ac	 x17=0x325ac000
       22375000	      2236	80000360	128fb793	sltiu	x15,x31,296	 x31:0x804062ac x15=0x00000000
       22385000	      2237	80000364	00008997	auipc	x19,0x8	 x19=0x80008360
       22395000	      2238	80000368	dee98993	addi	x19,x19,-530	 x19:0x80008360 x19=0x8000814e
       22405000	      2239	8000036c	fe198ea3	sb	x1,-3(x19)	 x19:0x8000814e  x1:0x80002e08 PA:0x8000814b
       22415000	      2240	80000370	0059c203	lbu	x4,5(x19)	 x19:0x8000814e  x4=0x00000000 PA:0x80008153
       22425000	      2241	80000374	fed99f23	sh	x13,-2(x19)	 x19:0x8000814e x13:0xfffffcf0 PA:0x8000814c
       22435000	      2242	80000378	371d2517	auipc	x10,0x371d2	 x10=0xb71d2374
       22445000	      2243	8000037c	00098883	lb	x17,0(x19)	 x19:0x8000814e x17=0x00000000 PA:0x8000814e
       22455000	      2244	80000380	00b98b03	lb	x22,11(x19)	 x19:0x8000814e x22=0x00000000 PA:0x80008159
       22465000	      2245	80000384	40f95393	srai	x7,x18,0xf	 x18:0x00400000  x7=0x00000080
       22475000	      2246	80000388	00afef33	or	x30,x31,x10	 x31:0x804062ac x10:0xb71d2374 x30=0xb75d63fc
       22485000	      2247	8000038c	fe198ba3	sb	x1,-9(x19)	 x19:0x8000814e  x1:0x80002e08 PA:0x80008145
       22495000	      2248	80000390	0039c183	lbu	x3,3(x19)	 x19:0x8000814e  x3=0x00000000 PA:0x80008151
       22505000	      2249	80000394	ff398d83	lb	x27,-13(x19)	 x19:0x8000814e x27=0x00000000 PA:0x80008141
       22515000	      2250	80000398	24d08713	addi	x14,x1,589	  x1:0x80002e08 x14=0x80003055
       22525000	      2251	8000039c	fea99d23	sh	x10,-6(x19)	 x19:0x8000814e x10:0xb71d2374 PA:0x80008148
       22535000	      2252	800003a0	e3843393	sltiu	x7,x8,-456	  x8:0xf0000044  x7=0x00000001
       22545000	      2253	800003a4	011982a3	sb	x17,5(x19)	 x19:0x8000814e x17:0x00000000 PA:0x80008153
       22555000	      2254	800003a8	00d983a3	sb	x13,7(x19)	 x19:0x8000814e x13:0xfffffcf0 PA:0x80008155
       22565000	      2255	800003ac	0079c003	lbu	x0,7(x19)	 x19:0x8000814e PA:0x80008155
       22575000	      2256	800003b0	4018df93	srai	x31,x17,0x1	 x17:0x00000000 x31=0x00000000
       22585000	      2257	800003b4	2dff8113	addi	x2,x31,735	 x31:0x00000000  x2=0x000002df
       22595000	      2258	800003b8	ff798b03	lb	x22,-9(x19)	 x19:0x8000814e x22=0x00000008 PA:0x80008145
       22605000	      2259	800003bc	ff39c883	lbu	x17,-13(x19)	 x19:0x8000814e x17=0x00000000 PA:0x80008141
       22615000	      2260	800003c0	fe89a923	sw	x8,-14(x19)	 x19:0x8000814e  x8:0xf0000044 PA:0x80008140
       22625000	      2261	800003c4	ff59cf03	lbu	x30,-11(x19)	 x19:0x8000814e x30=0x000000f0 PA:0x80008143
       22635000	      2262	800003c8	01099523	sh	x16,10(x19)	 x19:0x8000814e x16:0x00400517 PA:0x80008158
       22645000	      2263	800003cc	00098503	lb	x10,0(x19)	 x19:0x8000814e x10=0x00000000 PA:0x8000814e
       22655000	      2264	800003d0	01ce9db3	sll	x27,x29,x28	 x29:0x01000000 x28:0x80009fc4 x27=0x10000000
       22665000	      2265	800003d4	005cdb13	srli	x22,x25,0x5	 x25:0xff000000 x22=0x07f80000
       22675000	      2266	800003d8	00278c33	add	x24,x15,x2	 x15:0x00000000  x2:0x000002df x24=0x000002df
       22685000	      2267	800003dc	ffc9cc03	lbu	x24,-4(x19)	 x19:0x8000814e x24=0x00000000 PA:0x8000814a
       22695000	      2268	800003e0	00181b13	slli	x22,x16,0x1	 x16:0x00400517 x22=0x00800a2e
       22705000	      2269	800003e4	00a99403	lh	x8,10(x19)	 x19:0x8000814e  x8=0x00000517 PA:0x80008158
       22715000	      2270	800003e8	00972933	slt	x18,x14,x9	 x14:0x80003055  x9:0x80006480 x18=0x00000001
       22725000	      2271	800003ec	0029c203	lbu	x4,2(x19)	 x19:0x8000814e  x4=0x00000000 PA:0x80008150
       22735000	      2272	800003f0	00a99c03	lh	x24,10(x19)	 x19:0x8000814e x24=0x00000517 PA:0x80008158
       22745000	      2273	800003f4	0019c383	lbu	x7,1(x19)	 x19:0x8000814e  x7=0x00000000 PA:0x8000814f
       22755000	      2274	800003f8	ff59c003	lbu	x0,-11(x19)	 x19:0x8000814e PA:0x80008143
       22765000	      2275	800003fc	00198d83	lb	x27,1(x19)	 x19:0x8000814e x27=0x00000000 PA:0x8000814f
       22775000	      2276	80000400	ff69d583	lhu	x11,-10(x19)	 x19:0x8000814e x11=0x00000800 PA:0x80008144
       22785000	      2277	80000404	00a7b1b3	sltu	x3,x15,x10	 x15:0x00000000 x10:0x00000000  x3=0x00000000
       22795000	      2278	80000408	41630eb3	sub	x29,x6,x22	  x6:0x3b5a3000 x22:0x00800a2e x29=0x3ada25d2
       22805000	      2279	8000040c	00e98b83	lb	x23,14(x19)	 x19:0x8000814e x23=0x00000000 PA:0x8000815c
       22815000	      2280	80000410	6f246693	ori	x13,x8,1778	  x8:0x00000517 x13=0x000007f7
       22825000	      2281	80000414	010d6cb3	or	x25,x26,x16	 x26:0x80009efc x16:0x00400517 x25=0x80409fff
       22835000	      2282	80000418	41755233	sra	x4,x10,x23	 x10:0x00000000 x23:0x00000000  x4=0x00000000
       22845000	      2283	8000041c	ff099a83	lh	x21,-16(x19)	 x19:0x8000814e x21=0x00000000 PA:0x8000813e
       22855000	      2284	00000000	00000013	addi	x0,x0,0	  x0:0x00000000
       22865000	      2285	80000420	4156d333	sra	x6,x13,x21	 x13:0x000007f7 x21:0x00000000  x6=0x000007f7
       22875000	      2286	80000424	00698b83	lb	x23,6(x19)	 x19:0x8000814e x23=0x00000000 PA:0x80008154
       22885000	      2287	80000428	00b98683	lb	x13,11(x19)	 x19:0x8000814e x13=0x00000005 PA:0x80008159
       22895000	      2288	8000042c	00008317	auipc	x6,0x8	  x6=0x80008428
       22905000	      2289	80000430	e2830313	addi	x6,x6,-472	  x6:0x80008428  x6=0x80008250
       22915000	      2290	80000434	fef309a3	sb	x15,-13(x6)	  x6:0x80008250 x15:0x00000000 PA:0x80008243
       22925000	      2291	80000438	032301a3	sb	x18,35(x6)	  x6:0x80008250 x18:0x00000001 PA:0x80008273
       22935000	      2292	8000043c	fd2307a3	sb	x18,-49(x6)	  x6:0x80008250 x18:0x00000001 PA:0x8000821f
       22945000	      2293	80000440	02e31f23	sh	x14,62(x6)	  x6:0x80008250 x14:0x80003055 PA:0x8000828e
       22955000	      2294	80000444	4ae8ae93	slti	x29,x17,1198	 x17:0x00000000 x29=0x00000001
       22965000	      2295	80000448	7ae43c93	sltiu	x25,x8,1966	  x8:0x00000517 x25=0x00000001
       22975000	      2296	8000044c	00631f03	lh	x30,6(x6)	  x6:0x80008250 x30=0x00000000 PA:0x80008256
       22985000	      2297	80000450	025302a3	sb	x5,37(x6)	  x6:0x80008250  x5:0x80000000 PA:0x80008275
       22995000	      2298	80000454	00fd9db3	sll	x27,x27,x15	 x27:0x00000000 x15:0x00000000 x27=0x00000000
       23005000	      2299	80000458	7b990793	addi	x15,x18,1977	 x18:0x00000001 x15=0x000007ba
       23015000	      2300	8000045c	fe332623	sw	x3,-20(x6)	  x6:0x80008250  x3:0x00000000 PA:0x8000823c
       23025000	      2301	80000460	00732623	sw	x7,12(x6)	  x6:0x80008250  x7:0x00000000 PA:0x8000825c
       23035000	      2302	80000464	411a83b3	sub	x7,x21,x17	 x21:0x00000000 x17:0x00000000  x7=0x00000000
       23045000	      2303	80000468	d4ff7a97	auipc	x21,0xd4ff7	 x21=0x54ff7464
       23055000	      2304	8000046c	01cb5993	srli	x19,x22,0x1c	 x22:0x00800a2e x19=0x00000000
       23065000	      2305	80000470	02a31603	lh	x12,42(x6)	  x6:0x80008250 x12=0x00000000 PA:0x8000827a
       23075000	      2306	80000474	01831f83	lh	x31,24(x6)	  x6:0x80008250 x31=0x00000000 PA:0x80008268
       23085000	      2307	80000478	01530783	lb	x15,21(x6)	  x6:0x80008250 x15=0x00000000 PA:0x80008265
       23095000	      2308	8000047c	015a1b33	sll	x22,x20,x21	 x20:0xfffffdff x21:0x54ff7464 x22=0xffffdff0
       23105000	      2309	80000480	00671f13	slli	x30,x14,0x6	 x14:0x80003055 x30=0x000c1540
       23115000	      2310	80000484	00acdd93	srli	x27,x25,0xa	 x25:0x00000001 x27=0x00000000
       23125000	      2311	80000488	64a54c17	auipc	x24,0x64a54	 x24=0xe4a54484
       23135000	      2312	8000048c	01e79c93	slli	x25,x15,0x1e	 x15:0x00000000 x25=0x00000000
       23145000	      2313	80000490	0a32ae93	slti	x29,x5,163	  x5:0x80000000 x29=0x00000001
       23155000	      2314	80000494	fd630ba3	sb	x22,-41(x6)	  x6:0x80008250 x22:0xffffdff0 PA:0x80008227
       23165000	      2315	80000498	02c34c03	lbu	x24,44(x6)	  x6:0x80008250 x24=0x00000000 PA:0x8000827c
       23175000	      2316	8000049c	d2a0b513	sltiu	x10,x1,-726	  x1:0x80002e08 x10=0x00000001
       23185000	      2317	800004a0	fca35903	lhu	x18,-54(x6)	  x6:0x80008250 x18=0x00000000 PA:0x8000821a
       23195000	      2318	800004a4	fc630ea3	sb	x6,-35(x6)	  x6:0x80008250  x6:0x80008250 PA:0x8000822d
       23205000	      2319	800004a8	00201893	slli	x17,x0,0x2	  x0:0x00000000 x17=0x00000000
       23215000	      2320	800004ac	ff232623	sw	x18,-20(x6)	  x6:0x80008250 x18:0x00000000 PA:0x8000823c
       23225000	      2321	800004b0	013301a3	sb	x19,3(x6)	  x6:0x80008250 x19:0x00000000 PA:0x80008253
       23235000	      2322	800004b4	fe930683	lb	x13,-23(x6)	  x6:0x80008250 x13=0x00000000 PA:0x80008239
       23245000	      2323	800004b8	03934c83	lbu	x25,57(x6)	  x6:0x80008250 x25=0x00000000 PA:0x80008289
       23255000	      2324	800004bc	fcc303a3	sb	x12,-57(x6)	  x6:0x80008250 x12:0x00000000 PA:0x80008217
       23265000	      2325	800004c0	81fff693	andi	x13,x31,-2017	 x31:0x00000000 x13=0x00000000
       23275000	      2326	800004c4	403d5bb3	sra	x23,x26,x3	 x26:0x80009efc  x3:0x00000000 x23=0x80009efc
       23285000	      2327	800004c8	212f2bb7	lui	x23,0x212f2	 x23=0x212f2000
       23295000	      2328	800004cc	fcf34103	lbu	x2,-49(x6)	  x6:0x80008250  x2=0x00000001 PA:0x8000821f
       23305000	      2329	800004d0	41bd8db3	sub	x27,x27,x27	 x27:0x00000000 x27:0x00000000 x27=0x00000000
       23315000	      2330	800004d4	00025193	srli	x3,x4,0x0	  x4:0x00000000  x3=0x00000000
       23325000	      2331	800004d8	8f8df913	andi	x18,x27,-1800	 x27:0x00000000 x18=0x00000000
       23335000	      2332	800004dc	01835083	lhu	x1,24(x6)	  x6:0x80008250  x1=0x00000000 PA:0x80008268
       23345000	      2333	800004e0	a8d8f917	auipc	x18,0xa8d8f	 x18=0x28d8f4dc
       23355000	      2334	800004e4	02732223	sw	x7,36(x6)	  x6:0x80008250  x7:0x00000000 PA:0x80008274
       23365000	      2335	800004e8	01f34b83	lbu	x23,31(x6)	  x6:0x80008250 x23=0x00000000 PA:0x8000826f
       23375000	      2336	800004ec	019def33	or	x30,x27,x25	 x27:0x00000000 x25:0x00000000 x30=0x00000000
       23385000	      2337	800004f0	fe634683	lbu	x13,-26(x6)	  x6:0x80008250 x13=0x00000000 PA:0x80008236
       23395000	      2338	800004f4	01df80b3	add	x1,x31,x29	 x31:0x00000000 x29:0x00000001  x1=0x00000001
       23405000	      2339	800004f8	01def0b3	and	x1,x29,x29	 x29:0x00000001 x29:0x00000001  x1=0x00000001
       23415000	      2340	800004fc	00000013	addi	x0,x0,0	  x0:0x00000000
       23425000	      2341	80000500	036304a3	sb	x22,41(x6)	  x6:0x80008250 x22:0xffffdff0 PA:0x80008279
       23435000	      2342	80000504	00008197	auipc	x3,0x8	  x3=0x80008500
       23445000	      2343	80000508	7b818193	addi	x3,x3,1976	  x3:0x80008500  x3=0x80008cb8
       23455000	      2344	8000050c	40315213	srai	x4,x2,0x3	  x2:0x00000001  x4=0x00000000
       23465000	      2345	80000510	40260db3	sub	x27,x12,x2	 x12:0x00000000  x2:0x00000001 x27=0xffffffff
       23475000	      2346	80000514	ff51ca03	lbu	x20,-11(x3)	  x3:0x80008cb8 x20=0x00000000 PA:0x80008cad
       23485000	      2347	80000518	0152aa33	slt	x20,x5,x21	  x5:0x80000000 x21:0x54ff7464 x20=0x00000001
       23495000	      2348	8000051c	01e5efb3	or	x31,x11,x30	 x11:0x00000800 x30:0x00000000 x31=0x00000800
       23505000	      2349	80000520	00919723	sh	x9,14(x3)	  x3:0x80008cb8  x9:0x80006480 PA:0x80008cc6
       23515000	      2350	80000524	00e36233	or	x4,x6,x14	  x6:0x80008250 x14:0x80003055  x4=0x8000b255
       23525000	      2351	80000528	8cc8de97	auipc	x29,0x8cc8d	 x29=0x0cc8d524
       23535000	      2352	8000052c	00b6bf33	sltu	x30,x13,x11	 x13:0x00000000 x11:0x00000800 x30=0x00000001
       23545000	      2353	80000530	010c9593	slli	x11,x25,0x10	 x25:0x00000000 x11=0x00000000
       23555000	      2354	80000534	00455033	srl	x0,x10,x4	 x10:0x00000001  x4:0x8000b255
       23565000	      2355	80000538	49a80393	addi	x7,x16,1178	 x16:0x00400517  x7=0x004009b1
       23575000	      2356	8000053c	015baab3	slt	x21,x23,x21	 x23:0x00000000 x21:0x54ff7464 x21=0x00000001
       23585000	      2357	80000540	00000013	addi	x0,x0,0	  x0:0x00000000
       23595000	      2358	80000544	01ecb333	sltu	x6,x25,x30	 x25:0x00000000 x30:0x00000001  x6=0x00000001
       23605000	      2359	80000548	00718603	lb	x12,7(x3)	  x3:0x80008cb8 x12=0x00000000 PA:0x80008cbf
       23615000	      2360	8000054c	4397a893	slti	x17,x15,1081	 x15:0x00000000 x17=0x00000001
       23625000	      2361	80000550	00971013	slli	x0,x14,0x9	 x14:0x80003055
       23635000	      2362	80000554	0001af83	lw	x31,0(x3)	  x3:0x80008cb8 x31=0x00000000 PA:0x80008cb8
       23645000	      2363	80000558	359ce893	ori	x17,x25,857	 x25:0x00000000 x17=0x00000359
       23655000	      2364	8000055c	fff1c983	lbu	x19,-1(x3)	  x3:0x80008cb8 x19=0x00000000 PA:0x80008cb7
       23665000	      2365	80000560	ff91cf83	lbu	x31,-7(x3)	  x3:0x80008cb8 x31=0x00000000 PA:0x80008cb1
       23675000	      2366	80000564	41c35333	sra	x6,x6,x28	  x6:0x00000001 x28:0x80009fc4  x6=0x00000000
       23685000	      2367	80000568	74bfe013	ori	x0,x31,1867	 x31:0x00000000
       23695000	      2368	8000056c	ffa18fa3	sb	x26,-1(x3)	  x3:0x80008cb8 x26:0x80009efc PA:0x80008cb7
       23705000	      2369	80000570	01c26b33	or	x22,x4,x28	  x4:0x8000b255 x28:0x80009fc4 x22=0x8000bfd5
       23715000	      2370	80000574	ff318203	lb	x4,-13(x3)	  x3:0x80008cb8  x4=0x00000078 PA:0x80008cab
       23725000	      2371	80000578	0069b433	sltu	x8,x19,x6	 x19:0x00000000  x6:0x00000000  x8=0x00000000
       23735000	      2372	8000057c	a623c093	xori	x1,x7,-1438	  x7:0x004009b1  x1=0xffbff3d3
       23745000	      2373	80000580	0071cc83	lbu	x25,7(x3)	  x3:0x80008cb8 x25=0x00000000 PA:0x80008cbf
       23755000	      2374	80000584	01a4a933	slt	x18,x9,x26	  x9:0x80006480 x26:0x80009efc x18=0x00000001
       23765000	      2375	80000588	40795eb3	sra	x29,x18,x7	 x18:0x00000001  x7:0x004009b1 x29=0x00000000
       23775000	      2376	8000058c	55270013	addi	x0,x14,1362	 x14:0x80003055
       23785000	      2377	80000590	885c8713	addi	x14,x25,-1915	 x25:0x00000000 x14=0xfffff885
       23795000	      2378	80000594	00ccd5b3	srl	x11,x25,x12	 x25:0x00000000 x12:0x00000000 x11=0x00000000
       23805000	      2379	80000598	01019c83	lh	x25,16(x3)	  x3:0x80008cb8 x25=0x00000000 PA:0x80008cc8
       23815000	      2380	8000059c	00008417	auipc	x8,0x8	  x8=0x80008598
       23825000	      2381	800005a0	e5c40413	addi	x8,x8,-420	  x8:0x80008598  x8=0x800083f4
       23835000	      2382	800005a4	00144703	lbu	x14,1(x8)	  x8:0x800083f4 x14=0x00000000 PA:0x800083f5
       23845000	      2383	800005a8	03444003	lbu	x0,52(x8)	  x8:0x800083f4 PA:0x80008428
       23855000	      2384	800005ac	0105ab33	slt	x22,x11,x16	 x11:0x00000000 x16:0x00400517 x22=0x00000001
       23865000	      2385	800005b0	fed44303	lbu	x6,-19(x8)	  x8:0x800083f4  x6=0x00000000 PA:0x800083e1
       23875000	      2386	800005b4	fc440e83	lb	x29,-60(x8)	  x8:0x800083f4 x29=0x00000000 PA:0x800083b8
       23885000	      2387	800005b8	019657b3	srl	x15,x12,x25	 x12:0x00000000 x25:0x00000000 x15=0x00000000
       23895000	      2388	800005bc	02540c83	lb	x25,37(x8)	  x8:0x800083f4 x25=0x00000000 PA:0x80008419
       23905000	      2389	800005c0	fd245a83	lhu	x21,-46(x8)	  x8:0x800083f4 x21=0x00000000 PA:0x800083c6
       23915000	      2390	800005c4	ffd41e23	sh	x29,-4(x8)	  x8:0x800083f4 x29:0x00000000 PA:0x800083f0
       23925000	      2391	800005c8	01045683	lhu	x13,16(x8)	  x8:0x800083f4 x13=0x00000000 PA:0x80008404
       23935000	      2392	800005cc	4118d013	srai	x0,x17,0x11	 x17:0x00000359
       23945000	      2393	800005d0	fdf44b83	lbu	x23,-33(x8)	  x8:0x800083f4 x23=0x00000000 PA:0x800083d3
       23955000	      2394	800005d4	001b4fb3	xor	x31,x22,x1	 x22:0x00000001  x1:0xffbff3d3 x31=0xffbff3d2
       23965000	      2395	800005d8	00000013	addi	x0,x0,0	  x0:0x00000000
       23975000	      2396	800005dc	3db46f93	ori	x31,x8,987	  x8:0x800083f4 x31=0x800083ff
       23985000	      2397	800005e0	00a44003	lbu	x0,10(x8)	  x8:0x800083f4 PA:0x800083fe
       23995000	      2398	800005e4	41185193	srai	x3,x16,0x11	 x16:0x00400517  x3=0x00000020
       24005000	      2399	800005e8	01f929b3	slt	x19,x18,x31	 x18:0x00000001 x31:0x800083ff x19=0x00000000
       24015000	      2400	800005ec	0dfb0b93	addi	x23,x22,223	 x22:0x00000001 x23=0x000000e0
       24025000	      2401	800005f0	01f40d83	lb	x27,31(x8)	  x8:0x800083f4 x27=0x00000000 PA:0x80008413
       24035000	      2402	800005f4	3bef7493	andi	x9,x30,958	 x30:0x00000001  x9=0x00000000
       24045000	      2403	800005f8	00c400a3	sb	x12,1(x8)	  x8:0x800083f4 x12:0x00000000 PA:0x800083f5
       24055000	      2404	800005fc	fd444a83	lbu	x21,-44(x8)	  x8:0x800083f4 x21=0x00000000 PA:0x800083c8
       24065000	      2405	80000600	03e40983	lb	x19,62(x8)	  x8:0x800083f4 x19=0x00000000 PA:0x80008432
       24075000	      2406	80000604	fd241223	sh	x18,-60(x8)	  x8:0x800083f4 x18:0x00000001 PA:0x800083b8
       24085000	      2407	80000608	fee41f83	lh	x31,-18(x8)	  x8:0x800083f4 x31=0x00000000 PA:0x800083e2
       24095000	      2408	8000060c	01a41423	sh	x26,8(x8)	  x8:0x800083f4 x26:0x80009efc PA:0x800083fc
       24105000	      2409	80000610	ff840b03	lb	x22,-8(x8)	  x8:0x800083f4 x22=0x00000000 PA:0x800083ec
       24115000	      2410	80000614	02245503	lhu	x10,34(x8)	  x8:0x800083f4 x10=0x00000000 PA:0x80008416
       24125000	      2411	80000618	fd740b83	lb	x23,-41(x8)	  x8:0x800083f4 x23=0x00000000 PA:0x800083cb
       24135000	      2412	8000061c	0153b1b3	sltu	x3,x7,x21	  x7:0x004009b1 x21:0x00000000  x3=0x00000000
       24145000	      2413	80000620	ff540703	lb	x14,-11(x8)	  x8:0x800083f4 x14=0x00000000 PA:0x800083e9
       24155000	      2414	80000624	fe541823	sh	x5,-16(x8)	  x8:0x800083f4  x5:0x80000000 PA:0x800083e4
       24165000	      2415	80000628	00008917	auipc	x18,0x8	 x18=0x80008624
       24175000	      2416	8000062c	2c190913	addi	x18,x18,705	 x18:0x80008624 x18=0x800088e5
       24185000	      2417	80000630	fe791aa3	sh	x7,-11(x18)	 x18:0x800088e5  x7:0x004009b1 PA:0x800088da
       24195000	      2418	80000634	01496133	or	x2,x18,x20	 x18:0x800088e5 x20:0x00000001  x2=0x800088e5
       24205000	      2419	80000638	f4f95003	lhu	x0,-177(x18)	 x18:0x800088e5 PA:0x80008834
       24215000	      2420	8000063c	013a4533	xor	x10,x20,x19	 x20:0x00000001 x19:0x00000000 x10=0x00000001
       24225000	      2421	80000640	00ef6433	or	x8,x30,x14	 x30:0x00000001 x14:0x00000000  x8=0x00000001
       24235000	      2422	80000644	00a99713	slli	x14,x19,0xa	 x19:0x00000000 x14=0x00000000
       24245000	      2423	80000648	b42a6f13	ori	x30,x20,-1214	 x20:0x00000001 x30=0xfffffb43
       24255000	      2424	8000064c	01cd1eb3	sll	x29,x26,x28	 x26:0x80009efc x28:0x80009fc4 x29=0x0009efc0
       24265000	      2425	80000650	c733c593	xori	x11,x7,-909	  x7:0x004009b1 x11=0xffbff5c2
       24275000	      2426	80000654	40a55b93	srai	x23,x10,0xa	 x10:0x00000001 x23=0x00000000
       24285000	      2427	80000658	00f1af33	slt	x30,x3,x15	  x3:0x00000000 x15:0x00000000 x30=0x00000000
       24295000	      2428	8000065c	0e1925a3	sw	x1,235(x18)	 x18:0x800088e5  x1:0xffbff3d3 PA:0x800089d0
       24305000	      2429	80000660	00391f83	lh	x31,3(x18)	 x18:0x800088e5 x31=0x00000000 PA:0x800088e8
       24315000	      2430	80000664	01131533	sll	x10,x6,x17	  x6:0x00000000 x17:0x00000359 x10=0x00000000
       24325000	      2431	80000668	f9790423	sb	x23,-120(x18)	 x18:0x800088e5 x23:0x00000000 PA:0x8000886d
       24335000	      2432	8000066c	09f90b23	sb	x31,150(x18)	 x18:0x800088e5 x31:0x00000000 PA:0x8000897b
       24345000	      2433	80000670	fb490023	sb	x20,-96(x18)	 x18:0x800088e5 x20:0x00000001 PA:0x80008885
       24355000	      2434	80000674	fb390503	lb	x10,-77(x18)	 x18:0x800088e5 x10=0x00000000 PA:0x80008898
       24365000	      2435	80000678	cc4ec793	xori	x15,x29,-828	 x29:0x0009efc0 x15=0xfff61304
       24375000	      2436	8000067c	fae90aa3	sb	x14,-75(x18)	 x18:0x800088e5 x14:0x00000000 PA:0x8000889a
       24385000	      2437	80000680	0d490983	lb	x19,212(x18)	 x18:0x800088e5 x19=0x00000000 PA:0x800089b9
       24395000	      2438	80000684	c27ca213	slti	x4,x25,-985	 x25:0x00000000  x4=0x00000000
       24405000	      2439	80000688	7a71a893	slti	x17,x3,1959	  x3:0x00000000 x17=0x00000001
       24415000	      2440	8000068c	0dd95b83	lhu	x23,221(x18)	 x18:0x800088e5 x23=0x00000000 PA:0x800089c2
       24425000	      2441	80000690	019f1013	slli	x0,x30,0x19	 x30:0x00000000
       24435000	      2442	80000694	016f29b3	slt	x19,x30,x22	 x30:0x00000000 x22:0x00000000 x19=0x00000000
       24445000	      2443	80000698	01c7f333	and	x6,x15,x28	 x15:0xfff61304 x28:0x80009fc4  x6=0x80001304
       24455000	      2444	8000069c	593a8893	addi	x17,x21,1427	 x21:0x00000000 x17=0x00000593
       24465000	      2445	800006a0	01037133	and	x2,x6,x16	  x6:0x80001304 x16:0x00400517  x2=0x00000104
       24475000	      2446	800006a4	01ce5c33	srl	x24,x28,x28	 x28:0x80009fc4 x28:0x80009fc4 x24=0x080009fc
       24485000	      2447	800006a8	0137b433	sltu	x8,x15,x19	 x15:0xfff61304 x19:0x00000000  x8=0x00000000
       24495000	      2448	800006ac	fe094403	lbu	x8,-32(x18)	 x18:0x800088e5  x8=0x00000000 PA:0x800088c5
       24505000	      2449	800006b0	00008d97	auipc	x27,0x8	 x27=0x800086ac
       24515000	      2450	800006b4	e2fd8d93	addi	x27,x27,-465	 x27:0x800086ac x27=0x800084db
       24525000	      2451	800006b8	02dd8a23	sb	x13,52(x27)	 x27:0x800084db x13:0x00000000 PA:0x8000850f
       24535000	      2452	800006bc	fc2dcc03	lbu	x24,-62(x27)	 x27:0x800084db x24=0x00000000 PA:0x8000849d
       24545000	      2453	800006c0	4da23513	sltiu	x10,x4,1242	  x4:0x00000000 x10=0x00000001
       24555000	      2454	800006c4	40ee5f13	srai	x30,x28,0xe	 x28:0x80009fc4 x30=0xfffe0002
       24565000	      2455	800006c8	01172c33	slt	x24,x14,x17	 x14:0x00000000 x17:0x00000593 x24=0x00000001
       24575000	      2456	800006cc	ffbd8f23	sb	x27,-2(x27)	 x27:0x800084db x27:0x800084db PA:0x800084d9
       24585000	      2457	800006d0	00cd8703	lb	x14,12(x27)	 x27:0x800084db x14=0x00000000 PA:0x800084e7
       24595000	      2458	800006d4	00241113	slli	x2,x8,0x2	  x8:0x00000000  x2=0x00000000
       24605000	      2459	800006d8	018dc503	lbu	x10,24(x27)	 x27:0x800084db x10=0x00000000 PA:0x800084f3
       24615000	      2460	800006dc	002d8b83	lb	x23,2(x27)	 x27:0x800084db x23=0x00000000 PA:0x800084dd
       24625000	      2461	800006e0	003d1cb3	sll	x25,x26,x3	 x26:0x80009efc  x3:0x00000000 x25=0x80009efc
       24635000	      2462	800006e4	025d9203	lh	x4,37(x27)	 x27:0x800084db  x4=0x00000000 PA:0x80008500
       24645000	      2463	800006e8	014dc183	lbu	x3,20(x27)	 x27:0x800084db  x3=0x00000000 PA:0x800084ef
       24655000	      2464	800006ec	032dc303	lbu	x6,50(x27)	 x27:0x800084db  x6=0x00000000 PA:0x8000850d
       24665000	      2465	800006f0	445c0e93	addi	x29,x24,1093	 x24:0x00000001 x29=0x00000446
       24675000	      2466	800006f4	ffed8103	lb	x2,-2(x27)	 x27:0x800084db  x2=0xffffffdb PA:0x800084d9
       24685000	      2467	800006f8	ffadc583	lbu	x11,-6(x27)	 x27:0x800084db x11=0x00000000 PA:0x800084d5
       24695000	      2468	800006fc	ff9d9903	lh	x18,-7(x27)	 x27:0x800084db x18=0x00000000 PA:0x800084d4
       24705000	      2469	80000700	0001dc13	srli	x24,x3,0x0	  x3:0x00000000 x24=0x00000000
       24715000	      2470	80000704	01fd8723	sb	x31,14(x27)	 x27:0x800084db x31:0x00000000 PA:0x800084e9
       24725000	      2471	80000708	fe2d8aa3	sb	x2,-11(x27)	 x27:0x800084db  x2:0xffffffdb PA:0x800084d0
       24735000	      2472	8000070c	0129e333	or	x6,x19,x18	 x19:0x00000000 x18:0x00000000  x6=0x00000000
       24745000	      2473	80000710	00b08533	add	x10,x1,x11	  x1:0xffbff3d3 x11:0x00000000 x10=0xffbff3d3
       24755000	      2474	80000714	fc2d8583	lb	x11,-62(x27)	 x27:0x800084db x11=0x00000000 PA:0x8000849d
       24765000	      2475	00000000	00000013	addi	x0,x0,0	  x0:0x00000000
       24775000	      2476	80000718	bc458613	addi	x12,x11,-1084	 x11:0x00000000 x12=0xfffffbc4
       24785000	      2477	8000071c	fd7d93a3	sh	x23,-57(x27)	 x27:0x800084db x23:0x00000000 PA:0x800084a2
       24795000	      2478	80000720	ce63b493	sltiu	x9,x7,-794	  x7:0x004009b1  x9=0x00000001
       24805000	      2479	80000724	fd0dc203	lbu	x4,-48(x27)	 x27:0x800084db  x4=0x00000000 PA:0x800084ab
       24815000	      2480	80000728	00d15fb3	srl	x31,x2,x13	  x2:0xffffffdb x13:0x00000000 x31=0xffffffdb
       24825000	      2481	8000072c	038dc183	lbu	x3,56(x27)	 x27:0x800084db  x3=0x00000000 PA:0x80008513
       24835000	      2482	80000730	c5313613	sltiu	x12,x2,-941	  x2:0xffffffdb x12=0x00000000
       24845000	      2483	80000734	01ad8103	lb	x2,26(x27)	 x27:0x800084db  x2=0x00000000 PA:0x800084f5
       24855000	      2484	80000738	01389713	slli	x14,x17,0x13	 x17:0x00000593 x14=0x2c980000
       24865000	      2485	8000073c	011d83a3	sb	x17,7(x27)	 x27:0x800084db x17:0x00000593 PA:0x800084e2
       24875000	      2486	80000740	036d8923	sb	x22,50(x27)	 x27:0x800084db x22:0x00000000 PA:0x8000850d
       24885000	      2487	80000744	024d8403	lb	x8,36(x27)	 x27:0x800084db  x8=0x00000000 PA:0x800084ff
       24895000	      2488	80000748	011d5893	srli	x17,x26,0x11	 x26:0x80009efc x17=0x00004000
       24905000	      2489	8000074c	01c91013	slli	x0,x18,0x1c	 x18:0x00000000
       24915000	      2490	80000750	033dc603	lbu	x12,51(x27)	 x27:0x800084db x12=0x00000000 PA:0x8000850e
       24925000	      2491	80000754	00008e97	auipc	x29,0x8	 x29=0x80008750
       24935000	      2492	80000758	0d6e8e93	addi	x29,x29,214	 x29:0x80008750 x29=0x80008826
       24945000	      2493	8000075c	ffbe9a23	sh	x27,-12(x29)	 x29:0x80008826 x27:0x800084db PA:0x8000881a
       24955000	      2494	80000760	ff6ed383	lhu	x7,-10(x29)	 x29:0x80008826  x7=0x00000000 PA:0x8000881c
       24965000	      2495	80000764	40be5ab3	sra	x21,x28,x11	 x28:0x80009fc4 x11:0x00000000 x21=0x80009fc4
       24975000	      2496	80000768	00a0b4b3	sltu	x9,x1,x10	  x1:0xffbff3d3 x10:0xffbff3d3  x9=0x00000000
       24985000	      2497	8000076c	009ec183	lbu	x3,9(x29)	 x29:0x80008826  x3=0x00000000 PA:0x8000882f
       24995000	      2498	80000770	010e9a03	lh	x20,16(x29)	 x29:0x80008826 x20=0x00000000 PA:0x80008836
       25005000	      2499	80000774	289b1bb7	lui	x23,0x289b1	 x23=0x289b1000
       25015000	      2500	80000778	002e84a3	sb	x2,9(x29)	 x29:0x80008826  x2:0x00000000 PA:0x8000882f
       25025000	      2501	8000077c	003ec403	lbu	x8,3(x29)	 x29:0x80008826  x8=0x00000000 PA:0x80008829
       25035000	      2502	80000780	006ed803	lhu	x16,6(x29)	 x29:0x80008826 x16=0x00000000 PA:0x8000882c
       25045000	      2503	00000000	00000013	addi	x0,x0,0	  x0:0x00000000
       25055000	      2504	80000784	41685b33	sra	x22,x16,x22	 x16:0x00000000 x22:0x00000000 x22=0x00000000
       25065000	      2505	80000788	00de8b03	lb	x22,13(x29)	 x29:0x80008826 x22=0x00000000 PA:0x80008833
       25075000	      2506	8000078c	0184ecb3	or	x25,x9,x24	  x9:0x00000000 x24:0x00000000 x25=0x00000000
       25085000	      2507	80000790	011ea123	sw	x17,2(x29)	 x29:0x80008826 x17:0x00004000 PA:0x80008828
       25095000	      2508	80000794	008edc03	lhu	x24,8(x29)	 x29:0x80008826 x24=0x00000000 PA:0x8000882e
       25105000	      2509	80000798	ff7e8583	lb	x11,-9(x29)	 x29:0x80008826 x11=0x00000000 PA:0x8000881d
       25115000	      2510	8000079c	ffdec503	lbu	x10,-3(x29)	 x29:0x80008826 x10=0x00000000 PA:0x80008823
       25125000	      2511	800007a0	007ec883	lbu	x17,7(x29)	 x29:0x80008826 x17=0x00000000 PA:0x8000882d
       25135000	      2512	800007a4	ff3ec903	lbu	x18,-13(x29)	 x29:0x80008826 x18=0x00000000 PA:0x80008819
       25145000	      2513	800007a8	d09f6493	ori	x9,x30,-759	 x30:0xfffe0002  x9=0xfffffd0b
       25155000	      2514	800007ac	1b537193	andi	x3,x6,437	  x6:0x00000000  x3=0x00000000
       25165000	      2515	800007b0	000e9703	lh	x14,0(x29)	 x29:0x80008826 x14=0x00000000 PA:0x80008826
       25175000	      2516	800007b4	00ae8383	lb	x7,10(x29)	 x29:0x80008826  x7=0x00000000 PA:0x80008830
       25185000	      2517	800007b8	ffbe8a03	lb	x20,-5(x29)	 x29:0x80008826 x20=0x00000000 PA:0x80008821
       25195000	      2518	800007bc	ff3eca83	lbu	x21,-13(x29)	 x29:0x80008826 x21=0x00000000 PA:0x80008819
       25205000	      2519	800007c0	4059d893	srai	x17,x19,0x5	 x19:0x00000000 x17=0x00000000
       25215000	      2520	800007c4	00dec083	lbu	x1,13(x29)	 x29:0x80008826  x1=0x00000000 PA:0x80008833
       25225000	      2521	800007c8	0199b1b3	sltu	x3,x19,x25	 x19:0x00000000 x25:0x00000000  x3=0x00000000
       25235000	      2522	800007cc	76224593	xori	x11,x4,1890	  x4:0x00000000 x11=0x00000762
       25245000	      2523	800007d0	010e83a3	sb	x16,7(x29)	 x29:0x80008826 x16:0x00000000 PA:0x8000882d
       25255000	      2524	800007d4	ff4e9103	lh	x2,-12(x29)	 x29:0x80008826  x2=0xffff84db PA:0x8000881a
       25265000	      2525	800007d8	ff4e9f03	lh	x30,-12(x29)	 x29:0x80008826 x30=0xffff84db PA:0x8000881a
       25275000	      2526	800007dc	00765433	srl	x8,x12,x7	 x12:0x00000000  x7:0x00000000  x8=0x00000000
       25285000	      2527	800007e0	ff5e8e23	sb	x21,-4(x29)	 x29:0x80008826 x21:0x00000000 PA:0x80008822
       25295000	      2528	800007e4	00008f97	auipc	x31,0x8	 x31=0x800087e0
       25305000	      2529	800007e8	fa2f8f93	addi	x31,x31,-94	 x31:0x800087e0 x31=0x80008782
       25315000	      2530	800007ec	f94f8683	lb	x13,-108(x31)	 x31:0x80008782 x13=0x00000000 PA:0x80008716
       25325000	      2531	800007f0	f87f89a3	sb	x7,-109(x31)	 x31:0x80008782  x7:0x00000000 PA:0x80008715
       25335000	      2532	800007f4	41c55bb3	sra	x23,x10,x28	 x10:0x00000000 x28:0x80009fc4 x23=0x00000000
       25345000	      2533	800007f8	fc0f8e23	sb	x0,-36(x31)	 x31:0x80008782  x0:0x00000000 PA:0x8000875e
       25355000	      2534	800007fc	3ef68513	addi	x10,x13,1007	 x13:0x00000000 x10=0x000003ef
       25365000	      2535	80000800	00d881b3	add	x3,x17,x13	 x17:0x00000000 x13:0x00000000  x3=0x00000000
       25375000	      2536	80000804	00116bb3	or	x23,x2,x1	  x2:0xffff84db  x1:0x00000000 x23=0xffff84db
       25385000	      2537	80000808	0065b733	sltu	x14,x11,x6	 x11:0x00000762  x6:0x00000000 x14=0x00000000
       25395000	      2538	8000080c	00563f33	sltu	x30,x12,x5	 x12:0x00000000  x5:0x80000000 x30=0x00000001
       25405000	      2539	80000810	40485133	sra	x2,x16,x4	 x16:0x00000000  x4:0x00000000  x2=0x00000000
       25415000	      2540	80000814	a606e397	auipc	x7,0xa606e	  x7=0x2606e810
       25425000	      2541	80000818	f6bf9423	sh	x11,-152(x31)	 x31:0x80008782 x11:0x00000762 PA:0x800086ea
       25435000	      2542	8000081c	00bb7233	and	x4,x22,x11	 x22:0x00000000 x11:0x00000762  x4=0x00000000
       25445000	      2543	80000820	00d42233	slt	x4,x8,x13	  x8:0x00000000 x13:0x00000000  x4=0x00000000
       25455000	      2544	80000824	060fcc83	lbu	x25,96(x31)	 x31:0x80008782 x25=0x00000000 PA:0x800087e2
       25465000	      2545	80000828	03cfd083	lhu	x1,60(x31)	 x31:0x80008782  x1=0x00000000 PA:0x800087be
       25475000	      2546	8000082c	fb0fdd83	lhu	x27,-80(x31)	 x31:0x80008782 x27=0x00000000 PA:0x80008732
       25485000	      2547	80000830	404bd333	sra	x6,x23,x4	 x23:0xffff84db  x4:0x00000000  x6=0xffff84db
       25495000	      2548	80000834	94fdfa13	andi	x20,x27,-1713	 x27:0x00000000 x20=0x00000000
       25505000	      2549	80000838	f86fa483	lw	x9,-122(x31)	 x31:0x80008782  x9=0x00000000 PA:0x80008708
       25515000	      2550	8000083c	00000013	addi	x0,x0,0	  x0:0x00000000
       25525000	      2551	80000840	03cfc303	lbu	x6,60(x31)	 x31:0x80008782  x6=0x00000000 PA:0x800087be
       25535000	      2552	80000844	01677a33	and	x20,x14,x22	 x14:0x00000000 x22:0x00000000 x20=0x00000000
       25545000	      2553	80000848	5bd598b7	lui	x17,0x5bd59	 x17=0x5bd59000
       25555000	      2554	8000084c	011cd7b3	srl	x15,x25,x17	 x25:0x00000000 x17:0x5bd59000 x15=0x00000000
       25565000	      2555	80000850	01b968b3	or	x17,x18,x27	 x18:0x00000000 x27:0x00000000 x17=0x00000000
       25575000	      2556	80000854	f96f9303	lh	x6,-106(x31)	 x31:0x80008782  x6=0x00000000 PA:0x80008718
       25585000	      2557	80000858	00008117	auipc	x2,0x8	  x2=0x80008854
       25595000	      2558	8000085c	54410113	addi	x2,x2,1348	  x2:0x80008854  x2=0x80008d98
       25605000	      2559	80000860	00000013	addi	x0,x0,0	  x0:0x00000000
       25615000	      2560	80000864	41598fb3	sub	x31,x19,x21	 x19:0x00000000 x21:0x00000000 x31=0x00000000
       25625000	      2561	80000868	41205213	srai	x4,x0,0x12	  x0:0x00000000  x4=0x00000000
       25635000	      2562	8000086c	000d5eb3	srl	x29,x26,x0	 x26:0x80009efc  x0:0x00000000 x29=0x80009efc
       25645000	      2563	80000870	00b10203	lb	x4,11(x2)	  x2:0x80008d98  x4=0x00000000 PA:0x80008da3
       25655000	      2564	80000874	01bf3bb3	sltu	x23,x30,x27	 x30:0x00000001 x27:0x00000000 x23=0x00000000
       25665000	      2565	80000878	013e1993	slli	x19,x28,0x13	 x28:0x80009fc4 x19=0xfe200000
       25675000	      2566	8000087c	02514603	lbu	x12,37(x2)	  x2:0x80008d98 x12=0x00000000 PA:0x80008dbd
       25685000	      2567	00000000	00000013	addi	x0,x0,0	  x0:0x00000000
       25695000	      2568	80000880	00065813	srli	x16,x12,0x0	 x12:0x00000000 x16=0x00000000
       25705000	      2569	80000884	004d4cb3	xor	x25,x26,x4	 x26:0x80009efc  x4:0x00000000 x25=0x80009efc
       25715000	      2570	80000888	41958933	sub	x18,x11,x25	 x11:0x00000762 x25:0x80009efc x18=0x7fff6866
       25725000	      2571	8000088c	fe415303	lhu	x6,-28(x2)	  x2:0x80008d98  x6=0x00000000 PA:0x80008d7c
       25735000	      2572	80000890	01b10b03	lb	x22,27(x2)	  x2:0x80008d98 x22=0x00000000 PA:0x80008db3
       25745000	      2573	80000894	00f14203	lbu	x4,15(x2)	  x2:0x80008d98  x4=0x00000000 PA:0x80008da7
       25755000	      2574	80000898	02e106a3	sb	x14,45(x2)	  x2:0x80008d98 x14:0x00000000 PA:0x80008dc5
       25765000	      2575	8000089c	427b3793	sltiu	x15,x22,1063	 x22:0x00000000 x15=0x00000001
       25775000	      2576	800008a0	01cafa33	and	x20,x21,x28	 x21:0x00000000 x28:0x80009fc4 x20=0x00000000
       25785000	      2577	800008a4	ff614a83	lbu	x21,-10(x2)	  x2:0x80008d98 x21=0x00000000 PA:0x80008d8e
       25795000	      2578	800008a8	02c12983	lw	x19,44(x2)	  x2:0x80008d98 x19=0x00000000 PA:0x80008dc4
       25805000	      2579	800008ac	01f67233	and	x4,x12,x31	 x12:0x00000000 x31:0x00000000  x4=0x00000000
       25815000	      2580	800008b0	03510fa3	sb	x21,63(x2)	  x2:0x80008d98 x21:0x00000000 PA:0x80008dd7
       25825000	      2581	800008b4	03811823	sh	x24,48(x2)	  x2:0x80008d98 x24:0x00000000 PA:0x80008dc8
       25835000	      2582	800008b8	02110aa3	sb	x1,53(x2)	  x2:0x80008d98  x1:0x00000000 PA:0x80008dcd
       25845000	      2583	800008bc	03111323	sh	x17,38(x2)	  x2:0x80008d98 x17:0x00000000 PA:0x80008dbe
       25855000	      2584	800008c0	fea15883	lhu	x17,-22(x2)	  x2:0x80008d98 x17=0x00000000 PA:0x80008d82
       25865000	      2585	800008c4	9dc44a13	xori	x20,x8,-1572	  x8:0x00000000 x20=0xfffff9dc
       25875000	      2586	800008c8	401f5533	sra	x10,x30,x1	 x30:0x00000001  x1:0x00000000 x10=0x00000001
       25885000	      2587	800008cc	00000013	addi	x0,x0,0	  x0:0x00000000
       25895000	      2588	800008d0	010416b3	sll	x13,x8,x16	  x8:0x00000000 x16:0x00000000 x13=0x00000000
       25905000	      2589	800008d4	02210c83	lb	x25,34(x2)	  x2:0x80008d98 x25=0x00000000 PA:0x80008dba
       25915000	      2590	800008d8	00008417	auipc	x8,0x8	  x8=0x800088d4
       25925000	      2591	800008dc	9b540413	addi	x8,x8,-1611	  x8:0x800088d4  x8=0x80008289
       25935000	      2592	800008e0	ff444a83	lbu	x21,-12(x8)	  x8:0x80008289 x21=0x00000000 PA:0x8000827d
       25945000	      2593	800008e4	01c7c6b3	xor	x13,x15,x28	 x15:0x00000001 x28:0x80009fc4 x13=0x80009fc5
       25955000	      2594	800008e8	3ba6ff93	andi	x31,x13,954	 x13:0x80009fc5 x31=0x00000380
       25965000	      2595	800008ec	00e40023	sb	x14,0(x8)	  x8:0x80008289 x14:0x00000000 PA:0x80008289
       25975000	      2596	800008f0	4c5508b7	lui	x17,0x4c550	 x17=0x4c550000
       25985000	      2597	800008f4	01940323	sb	x25,6(x8)	  x8:0x80008289 x25:0x00000000 PA:0x8000828f
       25995000	      2598	800008f8	01c41da3	sh	x28,27(x8)	  x8:0x80008289 x28:0x80009fc4 PA:0x800082a4
       26005000	      2599	800008fc	001e07b3	add	x15,x28,x1	 x28:0x80009fc4  x1:0x00000000 x15=0x80009fc4
       26015000	      2600	80000900	8a838993	addi	x19,x7,-1880	  x7:0x2606e810 x19=0x2606e0b8
       26025000	      2601	80000904	fcf402a3	sb	x15,-59(x8)	  x8:0x80008289 x15:0x80009fc4 PA:0x8000824e
       26035000	      2602	80000908	40f8d593	srai	x11,x17,0xf	 x17:0x4c550000 x11=0x000098aa
       26045000	      2603	8000090c	01dc0f33	add	x30,x24,x29	 x24:0x00000000 x29:0x80009efc x30=0x80009efc
       26055000	      2604	80000910	fe240303	lb	x6,-30(x8)	  x8:0x80008289  x6=0x00000000 PA:0x8000826b
       26065000	      2605	80000914	03840703	lb	x14,56(x8)	  x8:0x80008289 x14=0x00000000 PA:0x800082c1
       26075000	      2606	80000918	007df633	and	x12,x27,x7	 x27:0x00000000  x7:0x2606e810 x12=0x00000000
       26085000	      2607	8000091c	40be5c33	sra	x24,x28,x11	 x28:0x80009fc4 x11:0x000098aa x24=0xffe00027
       26095000	      2608	80000920	01982b33	slt	x22,x16,x25	 x16:0x00000000 x25:0x00000000 x22=0x00000000
       26105000	      2609	80000924	00040803	lb	x16,0(x8)	  x8:0x80008289 x16=0x00000000 PA:0x80008289
       26115000	      2610	80000928	01700b33	add	x22,x0,x23	  x0:0x00000000 x23:0x00000000 x22=0x00000000
       26125000	      2611	8000092c	03d405a3	sb	x29,43(x8)	  x8:0x80008289 x29:0x80009efc PA:0x800082b4
       26135000	      2612	80000930	00000013	addi	x0,x0,0	  x0:0x00000000
       26145000	      2613	80000934	fd044903	lbu	x18,-48(x8)	  x8:0x80008289 x18=0x00000000 PA:0x80008259
       26155000	      2614	00000000	00000013	addi	x0,x0,0	  x0:0x00000000
       26165000	      2615	80000938	fd240603	lb	x12,-46(x8)	  x8:0x80008289 x12=0x00000000 PA:0x8000825b
       26175000	      2616	8000093c	00615533	srl	x10,x2,x6	  x2:0x80008d98  x6:0x00000000 x10=0x80008d98
       26185000	      2617	80000940	01dc1893	slli	x17,x24,0x1d	 x24:0xffe00027 x17=0xe0000000
       26195000	      2618	80000944	ff244003	lbu	x0,-14(x8)	  x8:0x80008289 PA:0x8000827b
       26205000	      2619	80000948	009bd313	srli	x6,x23,0x9	 x23:0x00000000  x6=0x00000000
       26215000	      2620	8000094c	02c40883	lb	x17,44(x8)	  x8:0x80008289 x17=0x00000000 PA:0x800082b5
       26225000	      2621	80000950	00000013	addi	x0,x0,0	  x0:0x00000000
       26235000	      2622	80000954	fed44883	lbu	x17,-19(x8)	  x8:0x80008289 x17=0x00000000 PA:0x80008276
       26245000	      2623	80000958	00545a83	lhu	x21,5(x8)	  x8:0x80008289 x21=0x00000055 PA:0x8000828e
       26255000	      2624	8000095c	00145303	lhu	x6,1(x8)	  x8:0x80008289  x6=0x00000000 PA:0x8000828a
       26265000	      2625	80000960	00e57733	and	x14,x10,x14	 x10:0x80008d98 x14:0x00000000 x14=0x00000000
       26275000	      2626	80000964	ff044903	lbu	x18,-16(x8)	  x8:0x80008289 x18=0x000000f0 PA:0x80008279
       26285000	      2627	80000968	00008997	auipc	x19,0x8	 x19=0x80008964
       26295000	      2628	8000096c	10498993	addi	x19,x19,260	 x19:0x80008964 x19=0x80008a68
       26305000	      2629	80000970	01f720b3	slt	x1,x14,x31	 x14:0x00000000 x31:0x00000380  x1=0x00000001
       26315000	      2630	80000974	3be23e93	sltiu	x29,x4,958	  x4:0x00000000 x29=0x00000001
       26325000	      2631	80000978	01091eb3	sll	x29,x18,x16	 x18:0x000000f0 x16:0x00000000 x29=0x000000f0
       26335000	      2632	8000097c	2ef60813	addi	x16,x12,751	 x12:0x00000000 x16=0x000002ef
       26345000	      2633	80000980	fef99c23	sh	x15,-8(x19)	 x19:0x80008a68 x15:0x80009fc4 PA:0x80008a60
       26355000	      2634	80000984	019982a3	sb	x25,5(x19)	 x19:0x80008a68 x25:0x00000000 PA:0x80008a6d
       26365000	      2635	80000988	00d987a3	sb	x13,15(x19)	 x19:0x80008a68 x13:0x80009fc5 PA:0x80008a77
       26375000	      2636	8000098c	00f58fb3	add	x31,x11,x15	 x11:0x000098aa x15:0x80009fc4 x31=0x8001386e
       26385000	      2637	80000990	405d07b3	sub	x15,x26,x5	 x26:0x80009efc  x5:0x80000000 x15=0x00009efc
       26395000	      2638	80000994	ff09d903	lhu	x18,-16(x19)	 x19:0x80008a68 x18=0x00000000 PA:0x80008a58
       26405000	      2639	80000998	d885e093	ori	x1,x11,-632	 x11:0x000098aa  x1=0xfffffdaa
       26415000	      2640	8000099c	018985a3	sb	x24,11(x19)	 x19:0x80008a68 x24:0xffe00027 PA:0x80008a73
       26425000	      2641	800009a0	016685b3	add	x11,x13,x22	 x13:0x80009fc5 x22:0x00000000 x11=0x80009fc5
       26435000	      2642	800009a4	01950033	add	x0,x10,x25	 x10:0x80008d98 x25:0x00000000
       26445000	      2643	800009a8	018983a3	sb	x24,7(x19)	 x19:0x80008a68 x24:0xffe00027 PA:0x80008a6f
       26455000	      2644	800009ac	fe798e23	sb	x7,-4(x19)	 x19:0x80008a68  x7:0x2606e810 PA:0x80008a64
       26465000	      2645	800009b0	00498b83	lb	x23,4(x19)	 x19:0x80008a68 x23=0x00000000 PA:0x80008a6c
       26475000	      2646	800009b4	1e7c7793	andi	x15,x24,487	 x24:0xffe00027 x15=0x00000027
       26485000	      2647	800009b8	fe098923	sb	x0,-14(x19)	 x19:0x80008a68  x0:0x00000000 PA:0x80008a5a
       26495000	      2648	800009bc	00d9c803	lbu	x16,13(x19)	 x19:0x80008a68 x16=0x00000000 PA:0x80008a75
       26505000	      2649	800009c0	00008e97	auipc	x29,0x8	 x29=0x800089bc
       26515000	      2650	800009c4	d82e8e93	addi	x29,x29,-638	 x29:0x800089bc x29=0x8000873e
       26525000	      2651	800009c8	40095193	srai	x3,x18,0x0	 x18:0x00000000  x3=0x00000000
       26535000	      2652	800009cc	00299433	sll	x8,x19,x2	 x19:0x80008a68  x2:0x80008d98  x8=0x68000000
       26545000	      2653	800009d0	6890f113	andi	x2,x1,1673	  x1:0xfffffdaa  x2=0x00000488
       26555000	      2654	800009d4	029ec483	lbu	x9,41(x29)	 x29:0x8000873e  x9=0x00000000 PA:0x80008767
       26565000	      2655	800009d8	83a02f13	slti	x30,x0,-1990	  x0:0x00000000 x30=0x00000000
       26575000	      2656	800009dc	40f6da93	srai	x21,x13,0xf	 x13:0x80009fc5 x21=0xffff0001
       26585000	      2657	800009e0	62e20117	auipc	x2,0x62e20	  x2=0xe2e209dc
       26595000	      2658	800009e4	3865ec93	ori	x25,x11,902	 x11:0x80009fc5 x25=0x80009fc7
       26605000	      2659	800009e8	0064f8b3	and	x17,x9,x6	  x9:0x00000000  x6:0x00000000 x17=0x00000000
       26615000	      2660	800009ec	fc6e8503	lb	x10,-58(x29)	 x29:0x8000873e x10=0x00000000 PA:0x80008704
       26625000	      2661	800009f0	031ec703	lbu	x14,49(x29)	 x29:0x8000873e x14=0x00000000 PA:0x8000876f
       26635000	      2662	800009f4	4ccc9797	auipc	x15,0x4ccc9	 x15=0xcccc99f0
       26645000	      2663	800009f8	010d83b3	add	x7,x27,x16	 x27:0x00000000 x16:0x00000000  x7=0x00000000
       26655000	      2664	800009fc	01f48833	add	x16,x9,x31	  x9:0x00000000 x31:0x8001386e x16=0x8001386e
       26665000	      2665	80000a00	ff4ed003	lhu	x0,-12(x29)	 x29:0x8000873e PA:0x80008732
       26675000	      2666	80000a04	40c00033	sub	x0,x0,x12	  x0:0x00000000 x12:0x00000000
       26685000	      2667	80000a08	03de8da3	sb	x29,59(x29)	 x29:0x8000873e x29:0x8000873e PA:0x80008779
       26695000	      2668	80000a0c	022ed003	lhu	x0,34(x29)	 x29:0x8000873e PA:0x80008760
       26705000	      2669	80000a10	419b8233	sub	x4,x23,x25	 x23:0x00000000 x25:0x80009fc7  x4=0x7fff6039
       26715000	      2670	80000a14	0180bdb3	sltu	x27,x1,x24	  x1:0xfffffdaa x24:0xffe00027 x27=0x00000000
       26725000	      2671	80000a18	02fe8f03	lb	x30,47(x29)	 x29:0x8000873e x30=0x00000000 PA:0x8000876d
       26735000	      2672	80000a1c	41778733	sub	x14,x15,x23	 x15:0xcccc99f0 x23:0x00000000 x14=0xcccc99f0
       26745000	      2673	80000a20	fc5ec783	lbu	x15,-59(x29)	 x29:0x8000873e x15=0x00000000 PA:0x80008703
       26755000	      2674	80000a24	01164133	xor	x2,x12,x17	 x12:0x00000000 x17:0x00000000  x2=0x00000000
       26765000	      2675	80000a28	007fa4b3	slt	x9,x31,x7	 x31:0x8001386e  x7:0x00000000  x9=0x00000001
       26775000	      2676	80000a2c	6e4d0613	addi	x12,x26,1764	 x26:0x80009efc x12=0x8000a5e0
       26785000	      2677	80000a30	41d0dc93	srai	x25,x1,0x1d	  x1:0xfffffdaa x25=0xffffffff
       26795000	      2678	80000a34	01689713	slli	x14,x17,0x16	 x17:0x00000000 x14=0x00000000
       26805000	      2679	80000a38	94343913	sltiu	x18,x8,-1725	  x8:0x68000000 x18=0x00000001
       26815000	      2680	80000a3c	02cecc03	lbu	x24,44(x29)	 x29:0x8000873e x24=0x00000000 PA:0x8000876a
       26825000	      2681	80000a40	01551393	slli	x7,x10,0x15	 x10:0x00000000  x7=0x00000000
       26835000	      2682	80000a44	fcfecf03	lbu	x30,-49(x29)	 x29:0x8000873e x30=0x00000000 PA:0x8000870d
       26845000	      2683	80000a48	006471b3	and	x3,x8,x6	  x8:0x68000000  x6:0x00000000  x3=0x00000000
       26855000	      2684	80000a4c	00c09733	sll	x14,x1,x12	  x1:0xfffffdaa x12:0x8000a5e0 x14=0xfffffdaa
       26865000	      2685	80000a50	00281813	slli	x16,x16,0x2	 x16:0x8001386e x16=0x0004e1b8
       26875000	      2686	80000a54	00275c33	srl	x24,x14,x2	 x14:0xfffffdaa  x2:0x00000000 x24=0xfffffdaa
       26885000	      2687	80000a58	544f6f13	ori	x30,x30,1348	 x30:0x00000000 x30=0x00000544
       26895000	      2688	80000a5c	11f87063	bgeu	x16,x31,80000b5c	 x16:0x0004e1b8 x31:0x8001386e
       26905000	      2689	80000a60	00000013	addi	x0,x0,0	  x0:0x00000000
       26915000	      2690	80000a64	75914c13	xori	x24,x2,1881	  x2:0x00000000 x24=0x00000759
       26925000	      2691	80000a68	0f5af463	bgeu	x21,x21,80000b50	 x21:0xffff0001 x21:0xffff0001
       26935000	      2692	00000000	00000013	addi	x0,x0,0	  x0:0x00000000
       26945000	      2693	80000b4c	00000013	addi	x0,x0,0	  x0:0x00000000
       26955000	      2694	80000b50	029d8a63	beq	x27,x9,80000b84	 x27:0x00000000  x9:0x00000001
       26965000	      2695	80000b54	5b397713	andi	x14,x18,1459	 x18:0x00000001 x14=0x00000001
       26975000	      2696	80000b58	01b954b3	srl	x9,x18,x27	 x18:0x00000001 x27:0x00000000  x9=0x00000001
       26985000	      2697	80000b5c	caa13a13	sltiu	x20,x2,-854	  x2:0x00000000 x20=0x00000001
       26995000	      2698	80000b60	00a89993	slli	x19,x17,0xa	 x17:0x00000000 x19=0x00000000
       27005000	      2699	80000b64	4010d513	srai	x10,x1,0x1	  x1:0xfffffdaa x10=0xfffffed5
       27015000	      2700	80000b68	019b7c63	bgeu	x22,x25,80000b80	 x22:0x00000000 x25:0xffffffff
       27025000	      2701	80000b6c	01abdc33	srl	x24,x23,x26	 x23:0x00000000 x26:0x80009efc x24=0x00000000
       27035000	      2702	80000b70	0049aa33	slt	x20,x19,x4	 x19:0x00000000  x4:0x7fff6039 x20=0x00000001
       27045000	      2703	80000b74	00d08bb3	add	x23,x1,x13	  x1:0xfffffdaa x13:0x80009fc5 x23=0x80009d6f
       27055000	      2704	80000b78	0445e863	bltu	x11,x4,80000bc8	 x11:0x80009fc5  x4:0x7fff6039
       27065000	      2705	80000b7c	a5c9cd93	xori	x27,x19,-1444	 x19:0x00000000 x27=0xfffffa5c
       27075000	      2706	80000b80	00d62033	slt	x0,x12,x13	 x12:0x8000a5e0 x13:0x80009fc5
       27085000	      2707	80000b84	0156e463	bltu	x13,x21,80000b8c	 x13:0x80009fc5 x21:0xffff0001
       27095000	      2708	00000000	00000013	addi	x0,x0,0	  x0:0x00000000
       27105000	      2709	80000b88	00000013	addi	x0,x0,0	  x0:0x00000000
       27115000	      2710	80000b8c	01de1e63	bne	x28,x29,80000ba8	 x28:0x80009fc4 x29:0x8000873e
       27125000	      2711	00000000	00000013	addi	x0,x0,0	  x0:0x00000000
       27135000	      2712	80000ba4	00000013	addi	x0,x0,0	  x0:0x00000000
       27145000	      2713	80000ba8	40ba5993	srai	x19,x20,0xb	 x20:0x00000001 x19=0x00000000
       27155000	      2714	80000bac	01dd6cb3	or	x25,x26,x29	 x26:0x80009efc x29:0x8000873e x25=0x80009ffe
       27165000	      2715	80000bb0	01982ab3	slt	x21,x16,x25	 x16:0x0004e1b8 x25:0x80009ffe x21=0x00000000
       27175000	      2716	80000bb4	01091463	bne	x18,x16,80000bbc	 x18:0x00000001 x16:0x0004e1b8
       27185000	      2717	00000000	00000013	addi	x0,x0,0	  x0:0x00000000
       27195000	      2718	80000bb8	00000013	addi	x0,x0,0	  x0:0x00000000
       27205000	      2719	80000bbc	fe837993	andi	x19,x6,-24	  x6:0x00000000 x19=0x00000000
       27215000	      2720	80000bc0	40345333	sra	x6,x8,x3	  x8:0x68000000  x3:0x00000000  x6=0x68000000
       27225000	      2721	80000bc4	400b0633	sub	x12,x22,x0	 x22:0x00000000  x0:0x00000000 x12=0x00000000
       27235000	      2722	80000bc8	0065d263	bge	x11,x6,80000bcc	 x11:0x80009fc5  x6:0x68000000
       27245000	      2723	80000bcc	00861393	slli	x7,x12,0x8	 x12:0x00000000  x7=0x00000000
       27255000	      2724	80000bd0	00815bb3	srl	x23,x2,x8	  x2:0x00000000  x8:0x68000000 x23=0x00000000
       27265000	      2725	80000bd4	00511333	sll	x6,x2,x5	  x2:0x00000000  x5:0x80000000  x6=0x00000000
       27275000	      2726	80000bd8	40660933	sub	x18,x12,x6	 x12:0x00000000  x6:0x00000000 x18=0x00000000
       27285000	      2727	80000bdc	00c0ff33	and	x30,x1,x12	  x1:0xfffffdaa x12:0x00000000 x30=0x00000000
       27295000	      2728	80000be0	2bcdf917	auipc	x18,0x2bcdf	 x18=0xabcdfbdc
       27305000	      2729	80000be4	40f30933	sub	x18,x6,x15	  x6:0x00000000 x15:0x00000000 x18=0x00000000
       27315000	      2730	80000be8	01b52ab3	slt	x21,x10,x27	 x10:0xfffffed5 x27:0xfffffa5c x21=0x00000000
       27325000	      2731	80000bec	00000013	addi	x0,x0,0	  x0:0x00000000
       27335000	      2732	80000bf0	30de3437	lui	x8,0x30de3	  x8=0x30de3000
       27345000	      2733	80000bf4	0166cb33	xor	x22,x13,x22	 x13:0x80009fc5 x22:0x00000000 x22=0x80009fc5
       27355000	      2734	80000bf8	040af863	bgeu	x21,x0,80000c48	 x21:0x00000000  x0:0x00000000
       27365000	      2735	00000000	00000013	addi	x0,x0,0	  x0:0x00000000
       27375000	      2736	80000c44	00000013	addi	x0,x0,0	  x0:0x00000000
       27385000	      2737	80000c48	00acd663	bge	x25,x10,80000c54	 x25:0x80009ffe x10:0xfffffed5
       27395000	      2738	80000c4c	b5f2abb7	lui	x23,0xb5f2a	 x23=0xb5f2a000
       27405000	      2739	80000c50	03ab9063	bne	x23,x26,80000c70	 x23:0xb5f2a000 x26:0x80009efc
       27415000	      2740	00000000	00000013	addi	x0,x0,0	  x0:0x00000000
       27425000	      2741	80000c6c	00000013	addi	x0,x0,0	  x0:0x00000000
       27435000	      2742	80000c70	010ca1b3	slt	x3,x25,x16	 x25:0x80009ffe x16:0x0004e1b8  x3=0x00000001
       27445000	      2743	80000c74	017e5513	srli	x10,x28,0x17	 x28:0x80009fc4 x10=0x00000100
       27455000	      2744	80000c78	012afc63	bgeu	x21,x18,80000c90	 x21:0x00000000 x18:0x00000000
       27465000	      2745	00000000	00000013	addi	x0,x0,0	  x0:0x00000000
       27475000	      2746	80000c8c	00000013	addi	x0,x0,0	  x0:0x00000000
       27485000	      2747	80000c90	01bbfc63	bgeu	x23,x27,80000ca8	 x23:0xb5f2a000 x27:0xfffffa5c
       27495000	      2748	80000c94	00280f33	add	x30,x16,x2	 x16:0x0004e1b8  x2:0x00000000 x30=0x0004e1b8
       27505000	      2749	80000c98	64024ab7	lui	x21,0x64024	 x21=0x64024000
       27515000	      2750	80000c9c	0117da93	srli	x21,x15,0x11	 x15:0x00000000 x21=0x00000000
       27525000	      2751	80000ca0	008b0633	add	x12,x22,x8	 x22:0x80009fc5  x8:0x30de3000 x12=0xb0decfc5
       27535000	      2752	80000ca4	f5248a93	addi	x21,x9,-174	  x9:0x00000001 x21=0xffffff53
       27545000	      2753	80000ca8	031e8c63	beq	x29,x17,80000ce0	 x29:0x8000873e x17:0x00000000
       27555000	      2754	80000cac	41f0dbb3	sra	x23,x1,x31	  x1:0xfffffdaa x31:0x8001386e x23=0xffffffff
       27565000	      2755	80000cb0	8e9dff97	auipc	x31,0x8e9df	 x31=0x0e9dfcac
       27575000	      2756	80000cb4	02b25063	bge	x4,x11,80000cd4	  x4:0x7fff6039 x11:0x80009fc5
       27585000	      2757	00000000	00000013	addi	x0,x0,0	  x0:0x00000000
       27595000	      2758	80000cd0	00000013	addi	x0,x0,0	  x0:0x00000000
       27605000	      2759	80000cd4	01ee0263	beq	x28,x30,80000cd8	 x28:0x80009fc4 x30:0x0004e1b8
       27615000	      2760	80000cd8	00c69e93	slli	x29,x13,0xc	 x13:0x80009fc5 x29=0x09fc5000
       27625000	      2761	80000cdc	412084b3	sub	x9,x1,x18	  x1:0xfffffdaa x18:0x00000000  x9=0xfffffdaa
       27635000	      2762	80000ce0	00a4ca63	blt	x9,x10,80000cf4	  x9:0xfffffdaa x10:0x00000100
       27645000	      2763	00000000	00000013	addi	x0,x0,0	  x0:0x00000000
       27655000	      2764	80000cf0	00000013	addi	x0,x0,0	  x0:0x00000000
       27665000	      2765	80000cf4	00c281b3	add	x3,x5,x12	  x5:0x80000000 x12:0xb0decfc5  x3=0x30decfc5
       27675000	      2766	80000cf8	07456093	ori	x1,x10,116	 x10:0x00000100  x1=0x00000174
       27685000	      2767	80000cfc	01aabb33	sltu	x22,x21,x26	 x21:0xffffff53 x26:0x80009efc x22=0x00000000
       27695000	      2768	80000d00	6359aeb7	lui	x29,0x6359a	 x29=0x6359a000
       27705000	      2769	80000d04	01c6eab3	or	x21,x13,x28	 x13:0x80009fc5 x28:0x80009fc4 x21=0x80009fc5
       27715000	      2770	80000d08	0127e933	or	x18,x15,x18	 x15:0x00000000 x18:0x00000000 x18=0x00000000
       27725000	      2771	80000d0c	00628333	add	x6,x5,x6	  x5:0x80000000  x6:0x00000000  x6=0x80000000
       27735000	      2772	80000d10	01e4b5b3	sltu	x11,x9,x30	  x9:0xfffffdaa x30:0x0004e1b8 x11=0x00000000
       27745000	      2773	80000d14	fffec313	xori	x6,x29,-1	 x29:0x6359a000  x6=0x9ca65fff
       27755000	      2774	80000d18	0197da93	srli	x21,x15,0x19	 x15:0x00000000 x21=0x00000000
       27765000	      2775	80000d1c	014865b3	or	x11,x16,x20	 x16:0x0004e1b8 x20:0x00000001 x11=0x0004e1b9
       27775000	      2776	80000d20	4095dcb3	sra	x25,x11,x9	 x11:0x0004e1b9  x9:0xfffffdaa x25=0x00000138
       27785000	      2777	80000d24	00596033	or	x0,x18,x5	 x18:0x00000000  x5:0x80000000
       27795000	      2778	80000d28	00e87eb3	and	x29,x16,x14	 x16:0x0004e1b8 x14:0x00000001 x29=0x00000000
       27805000	      2779	80000d2c	00bc1633	sll	x12,x24,x11	 x24:0x00000000 x11:0x0004e1b9 x12=0x00000000
       27815000	      2780	80000d30	02d4f063	bgeu	x9,x13,80000d50	  x9:0xfffffdaa x13:0x80009fc5
       27825000	      2781	00000000	00000013	addi	x0,x0,0	  x0:0x00000000
       27835000	      2782	80000d4c	00000013	addi	x0,x0,0	  x0:0x00000000
       27845000	      2783	80000d50	41a5d813	srai	x16,x11,0x1a	 x11:0x0004e1b9 x16=0x00000000
       27855000	      2784	80000d54	5edc2613	slti	x12,x24,1517	 x24:0x00000000 x12=0x00000001
       27865000	      2785	80000d58	e3191c17	auipc	x24,0xe3191	 x24=0x63191d54
       27875000	      2786	80000d5c	01aff463	bgeu	x31,x26,80000d64	 x31:0x0e9dfcac x26:0x80009efc
       27885000	      2787	80000d60	01adccb3	xor	x25,x27,x26	 x27:0xfffffa5c x26:0x80009efc x25=0x7fff64a0
       27895000	      2788	80000d64	0174f733	and	x14,x9,x23	  x9:0xfffffdaa x23:0xffffffff x14=0xfffffdaa
       27905000	      2789	80000d68	008d3eb3	sltu	x29,x26,x8	 x26:0x80009efc  x8:0x30de3000 x29=0x00000000
       27915000	      2790	80000d6c	01fc6233	or	x4,x24,x31	 x24:0x63191d54 x31:0x0e9dfcac  x4=0x6f9dfdfc
       27925000	      2791	80000d70	00a37663	bgeu	x6,x10,80000d7c	  x6:0x9ca65fff x10:0x00000100
       27935000	      2792	00000000	00000013	addi	x0,x0,0	  x0:0x00000000
       27945000	      2793	80000d78	00000013	addi	x0,x0,0	  x0:0x00000000
       27955000	      2794	80000d7c	418500b3	sub	x1,x10,x24	 x10:0x00000100 x24:0x63191d54  x1=0x9ce6e3ac
       27965000	      2795	80000d80	91ee7593	andi	x11,x28,-1762	 x28:0x80009fc4 x11=0x80009904
       27975000	      2796	80000d84	012dd5b3	srl	x11,x27,x18	 x27:0xfffffa5c x18:0x00000000 x11=0xfffffa5c
       27985000	      2797	80000d88	00bcde93	srli	x29,x25,0xb	 x25:0x7fff64a0 x29=0x000fffec
       27995000	      2798	80000d8c	00ce9463	bne	x29,x12,80000d94	 x29:0x000fffec x12:0x00000001
       28005000	      2799	00000000	00000013	addi	x0,x0,0	  x0:0x00000000
       28015000	      2800	80000d90	00000013	addi	x0,x0,0	  x0:0x00000000
       28025000	      2801	80000d94	40360cb3	sub	x25,x12,x3	 x12:0x00000001  x3:0x30decfc5 x25=0xcf21303c
       28035000	      2802	80000d98	c62cb913	sltiu	x18,x25,-926	 x25:0xcf21303c x18=0x00000001
       28045000	      2803	80000d9c	01bc8463	beq	x25,x27,80000da4	 x25:0xcf21303c x27:0xfffffa5c
       28055000	      2804	80000da0	00977b33	and	x22,x14,x9	 x14:0xfffffdaa  x9:0xfffffdaa x22=0xfffffdaa
       28065000	      2805	80000da4	031e6a63	bltu	x28,x17,80000dd8	 x28:0x80009fc4 x17:0x00000000
       28075000	      2806	80000da8	87a8c793	xori	x15,x17,-1926	 x17:0x00000000 x15=0xfffff87a
       28085000	      2807	80000dac	16e0b993	sltiu	x19,x1,366	  x1:0x9ce6e3ac x19=0x00000000
       28095000	      2808	80000db0	02a16063	bltu	x2,x10,80000dd0	  x2:0x00000000 x10:0x00000100
       28105000	      2809	00000000	00000013	addi	x0,x0,0	  x0:0x00000000
       28115000	      2810	80000dcc	00000013	addi	x0,x0,0	  x0:0x00000000
       28125000	      2811	80000dd0	29ff9c17	auipc	x24,0x29ff9	 x24=0xa9ff9dcc
       28135000	      2812	80000dd4	01bbf433	and	x8,x23,x27	 x23:0xffffffff x27:0xfffffa5c  x8=0xfffffa5c
       28145000	      2813	80000dd8	91948097	auipc	x1,0x91948	  x1=0x11948dd4
       28155000	      2814	80000ddc	04970863	beq	x14,x9,80000e2c	 x14:0xfffffdaa  x9:0xfffffdaa
       28165000	      2815	00000000	00000013	addi	x0,x0,0	  x0:0x00000000
       28175000	      2816	80000e28	00000013	addi	x0,x0,0	  x0:0x00000000
       28185000	      2817	80000e2c	419f5b93	srai	x23,x30,0x19	 x30:0x0004e1b8 x23=0x00000000
       28195000	      2818	80000e30	01e99f93	slli	x31,x19,0x1e	 x19:0x00000000 x31=0x00000000
       28205000	      2819	80000e34	00cf3533	sltu	x10,x30,x12	 x30:0x0004e1b8 x12:0x00000001 x10=0x00000000
       28215000	      2820	80000e38	000b2633	slt	x12,x22,x0	 x22:0xfffffdaa  x0:0x00000000 x12=0x00000001
       28225000	      2821	80000e3c	01571b93	slli	x23,x14,0x15	 x14:0xfffffdaa x23=0xb5400000
       28235000	      2822	80000e40	14af8cb7	lui	x25,0x14af8	 x25=0x14af8000
       28245000	      2823	80000e44	e8660f17	auipc	x30,0xe8660	 x30=0x68660e40
       28255000	      2824	80000e48	fe4e3b97	auipc	x23,0xfe4e3	 x23=0x7e4e3e44
       28265000	      2825	80000e4c	8a334f93	xori	x31,x6,-1885	  x6:0x9ca65fff x31=0x6359a75c
       28275000	      2826	80000e50	00ab9993	slli	x19,x23,0xa	 x23:0x7e4e3e44 x19=0x38f91000
       28285000	      2827	80000e54	002614b3	sll	x9,x12,x2	 x12:0x00000001  x2:0x00000000  x9=0x00000001
       28295000	      2828	80000e58	b48acb93	xori	x23,x21,-1208	 x21:0x00000000 x23=0xfffffb48
       28305000	      2829	80000e5c	0143b933	sltu	x18,x7,x20	  x7:0x00000000 x20:0x00000001 x18=0x00000001
       28315000	      2830	80000e60	00181a93	slli	x21,x16,0x1	 x16:0x00000000 x21=0x00000000
       28325000	      2831	80000e64	41520533	sub	x10,x4,x21	  x4:0x6f9dfdfc x21:0x00000000 x10=0x6f9dfdfc
       28335000	      2832	80000e68	01c613b3	sll	x7,x12,x28	 x12:0x00000001 x28:0x80009fc4  x7=0x00000010
       28345000	      2833	80000e6c	01f51313	slli	x6,x10,0x1f	 x10:0x6f9dfdfc  x6=0x00000000
       28355000	      2834	80000e70	41cdd913	srai	x18,x27,0x1c	 x27:0xfffffa5c x18=0xffffffff
       28365000	      2835	80000e74	403fd093	srai	x1,x31,0x3	 x31:0x6359a75c  x1=0x0c6b34eb
       28375000	      2836	80000e78	00000013	addi	x0,x0,0	  x0:0x00000000
       28385000	      2837	80000e7c	40098db3	sub	x27,x19,x0	 x19:0x38f91000  x0:0x00000000 x27=0x38f91000
       28395000	      2838	80000e80	01fc8e63	beq	x25,x31,80000e9c	 x25:0x14af8000 x31:0x6359a75c
       28405000	      2839	80000e84	01bc36b3	sltu	x13,x24,x27	 x24:0xa9ff9dcc x27:0x38f91000 x13=0x00000000
       28415000	      2840	80000e88	00209713	slli	x14,x1,0x2	  x1:0x0c6b34eb x14=0x31acd3ac
       28425000	      2841	80000e8c	40e15633	sra	x12,x2,x14	  x2:0x00000000 x14:0x31acd3ac x12=0x00000000
       28435000	      2842	80000e90	70d0b713	sltiu	x14,x1,1805	  x1:0x0c6b34eb x14=0x00000000
       28445000	      2843	80000e94	00105913	srli	x18,x0,0x1	  x0:0x00000000 x18=0x00000000
       28455000	      2844	80000e98	01c61c13	slli	x24,x12,0x1c	 x12:0x00000000 x24=0x00000000
       28465000	      2845	80000e9c	01e18a33	add	x20,x3,x30	  x3:0x30decfc5 x30:0x68660e40 x20=0x9944de05
       28475000	      2846	80000ea0	01149863	bne	x9,x17,80000eb0	  x9:0x00000001 x17:0x00000000
       28485000	      2847	00000000	00000013	addi	x0,x0,0	  x0:0x00000000
       28495000	      2848	80000eac	00000013	addi	x0,x0,0	  x0:0x00000000
       28505000	      2849	80000eb0	01309013	slli	x0,x1,0x13	  x1:0x0c6b34eb
       28515000	      2850	80000eb4	38f2ca93	xori	x21,x5,911	  x5:0x80000000 x21=0x8000038f
       28525000	      2851	80000eb8	00a733b3	sltu	x7,x14,x10	 x14:0x00000000 x10:0x6f9dfdfc  x7=0x00000001
       28535000	      2852	80000ebc	00000013	addi	x0,x0,0	  x0:0x00000000
       28545000	      2853	80000ec0	0217d663	bge	x15,x1,80000eec	 x15:0xfffff87a  x1:0x0c6b34eb
       28555000	      2854	80000ec4	01394233	xor	x4,x18,x19	 x18:0x00000000 x19:0x38f91000  x4=0x38f91000
       28565000	      2855	80000ec8	00581593	slli	x11,x16,0x5	 x16:0x00000000 x11=0x00000000
       28575000	      2856	80000ecc	01ff5633	srl	x12,x30,x31	 x30:0x68660e40 x31:0x6359a75c x12=0x00000006
       28585000	      2857	80000ed0	03736a63	bltu	x6,x23,80000f04	  x6:0x00000000 x23:0xfffffb48
       28595000	      2858	00000000	00000013	addi	x0,x0,0	  x0:0x00000000
       28605000	      2859	80000f00	00000013	addi	x0,x0,0	  x0:0x00000000
       28615000	      2860	80000f04	04718863	beq	x3,x7,80000f54	  x3:0x30decfc5  x7:0x00000001
       28625000	      2861	80000f08	00541393	slli	x7,x8,0x5	  x8:0xfffffa5c  x7=0xffff4b80
       28635000	      2862	80000f0c	a54ff813	andi	x16,x31,-1452	 x31:0x6359a75c x16=0x6359a254
       28645000	      2863	80000f10	003beab3	or	x21,x23,x3	 x23:0xfffffb48  x3:0x30decfc5 x21=0xffffffcd
       28655000	      2864	80000f14	73cd0613	addi	x12,x26,1852	 x26:0x80009efc x12=0x8000a638
       28665000	      2865	80000f18	01d93c33	sltu	x24,x18,x29	 x18:0x00000000 x29:0x000fffec x24=0x00000001
       28675000	      2866	80000f1c	00d3bb33	sltu	x22,x7,x13	  x7:0xffff4b80 x13:0x00000000 x22=0x00000000
       28685000	      2867	80000f20	00337c63	bgeu	x6,x3,80000f38	  x6:0x00000000  x3:0x30decfc5
       28695000	      2868	80000f24	87256093	ori	x1,x10,-1934	 x10:0x6f9dfdfc  x1=0xfffffdfe
       28705000	      2869	80000f28	415f8db3	sub	x27,x31,x21	 x31:0x6359a75c x21:0xffffffcd x27=0x6359a78f
       28715000	      2870	80000f2c	026b9a63	bne	x23,x6,80000f60	 x23:0xfffffb48  x6:0x00000000
       28725000	      2871	00000000	00000013	addi	x0,x0,0	  x0:0x00000000
       28735000	      2872	80000f5c	00000013	addi	x0,x0,0	  x0:0x00000000
       28745000	      2873	80000f60	0017e833	or	x16,x15,x1	 x15:0xfffff87a  x1:0xfffffdfe x16=0xfffffdfe
       28755000	      2874	80000f64	0186ff33	and	x30,x13,x24	 x13:0x00000000 x24:0x00000001 x30=0x00000000
       28765000	      2875	80000f68	02dd6063	bltu	x26,x13,80000f88	 x26:0x80009efc x13:0x00000000
       28775000	      2876	80000f6c	ac9b4217	auipc	x4,0xac9b4	  x4=0x2c9b4f68
       28785000	      2877	80000f70	005637b3	sltu	x15,x12,x5	 x12:0x8000a638  x5:0x80000000 x15=0x00000000
       28795000	      2878	80000f74	012a1613	slli	x12,x20,0x12	 x20:0x9944de05 x12=0x78140000
       28805000	      2879	80000f78	001f3833	sltu	x16,x30,x1	 x30:0x00000000  x1:0xfffffdfe x16=0x00000001
       28815000	      2880	80000f7c	4151df93	srai	x31,x3,0x15	  x3:0x30decfc5 x31=0x00000186
       28825000	      2881	80000f80	00bfd6b3	srl	x13,x31,x11	 x31:0x00000186 x11:0x00000000 x13=0x00000186
       28835000	      2882	80000f84	c3350793	addi	x15,x10,-973	 x10:0x6f9dfdfc x15=0x6f9dfa2f
       28845000	      2883	80000f88	00efd0b3	srl	x1,x31,x14	 x31:0x00000186 x14:0x00000000  x1=0x00000186
       28855000	      2884	80000f8c	019f54b3	srl	x9,x30,x25	 x30:0x00000000 x25:0x14af8000  x9=0x00000000
       28865000	      2885	80000f90	3b04fc37	lui	x24,0x3b04f	 x24=0x3b04f000
       28875000	      2886	80000f94	27ee3493	sltiu	x9,x28,638	 x28:0x80009fc4  x9=0x00000000
       28885000	      2887	80000f98	40198fb3	sub	x31,x19,x1	 x19:0x38f91000  x1:0x00000186 x31=0x38f90e7a
       28895000	      2888	80000f9c	015f5c93	srli	x25,x30,0x15	 x30:0x00000000 x25=0x00000000
       28905000	      2889	80000fa0	402bd9b3	sra	x19,x23,x2	 x23:0xfffffb48  x2:0x00000000 x19=0xfffffb48
       28915000	      2890	80000fa4	01c52933	slt	x18,x10,x28	 x10:0x6f9dfdfc x28:0x80009fc4 x18=0x00000000
       28925000	      2891	80000fa8	00250a33	add	x20,x10,x2	 x10:0x6f9dfdfc  x2:0x00000000 x20=0x6f9dfdfc
       28935000	      2892	80000fac	b8ff6c13	ori	x24,x30,-1137	 x30:0x00000000 x24=0xfffffb8f
       28945000	      2893	80000fb0	01ecd6b3	srl	x13,x25,x30	 x25:0x00000000 x30:0x00000000 x13=0x00000000
       28955000	      2894	80000fb4	00128a33	add	x20,x5,x1	  x5:0x80000000  x1:0x00000186 x20=0x80000186
       28965000	      2895	80000fb8	007cd8b3	srl	x17,x25,x7	 x25:0x00000000  x7:0xffff4b80 x17=0x00000000
       28975000	      2896	80000fbc	00685c63	bge	x16,x6,80000fd4	 x16:0x00000001  x6:0x00000000
       28985000	      2897	00000000	00000013	addi	x0,x0,0	  x0:0x00000000
       28995000	      2898	80000fd0	00000013	addi	x0,x0,0	  x0:0x00000000
       29005000	      2899	80000fd4	df3c5897	auipc	x17,0xdf3c5	 x17=0x5f3c5fd0
       29015000	      2900	80000fd8	01396bb3	or	x23,x18,x19	 x18:0x00000000 x19:0xfffffb48 x23=0xfffffb48
       29025000	      2901	80000fdc	c2edcb13	xori	x22,x27,-978	 x27:0x6359a78f x22=0x9ca65ba1
       29035000	      2902	80000fe0	40f4dab3	sra	x21,x9,x15	  x9:0x00000000 x15:0x6f9dfa2f x21=0x00000000
       29045000	      2903	80000fe4	9493fa93	andi	x21,x7,-1719	  x7:0xffff4b80 x21=0xffff4900
       29055000	      2904	80000fe8	00f85433	srl	x8,x16,x15	 x16:0x00000001 x15:0x6f9dfa2f  x8=0x00000000
       29065000	      2905	80000fec	030d8c63	beq	x27,x16,80001024	 x27:0x6359a78f x16:0x00000001
       29075000	      2906	80000ff0	04fff663	bgeu	x31,x15,8000103c	 x31:0x38f90e7a x15:0x6f9dfa2f
       29085000	      2907	80000ff4	70d899b7	lui	x19,0x70d89	 x19=0x70d89000
       29095000	      2908	80000ff8	036a4663	blt	x20,x22,80001024	 x20:0x80000186 x22:0x9ca65ba1
       29105000	      2909	00000000	00000013	addi	x0,x0,0	  x0:0x00000000
       29115000	      2910	80001020	00000013	addi	x0,x0,0	  x0:0x00000000
       29125000	      2911	80001024	40e35ab3	sra	x21,x6,x14	  x6:0x00000000 x14:0x00000000 x21=0x00000000
       29135000	      2912	80001028	015b6263	bltu	x22,x21,8000102c	 x22:0x9ca65ba1 x21:0x00000000
       29145000	      2913	8000102c	cc4a2713	slti	x14,x20,-828	 x20:0x80000186 x14=0x00000001
       29155000	      2914	80001030	01b15013	srli	x0,x2,0x1b	  x2:0x00000000
       29165000	      2915	80001034	b055af93	slti	x31,x11,-1275	 x11:0x00000000 x31=0x00000000
       29175000	      2916	80001038	005cc463	blt	x25,x5,80001040	 x25:0x00000000  x5:0x80000000
       29185000	      2917	8000103c	97840f13	addi	x30,x8,-1672	  x8:0x00000000 x30=0xfffff978
       29195000	      2918	80001040	010bb4b3	sltu	x9,x23,x16	 x23:0xfffffb48 x16:0x00000001  x9=0x00000000
       29205000	      2919	80001044	05ae0263	beq	x28,x26,80001088	 x28:0x80009fc4 x26:0x80009efc
       29215000	      2920	80001048	00000013	addi	x0,x0,0	  x0:0x00000000
       29225000	      2921	8000104c	01781663	bne	x16,x23,80001058	 x16:0x00000001 x23:0xfffffb48
       29235000	      2922	00000000	00000013	addi	x0,x0,0	  x0:0x00000000
       29245000	      2923	80001054	00000013	addi	x0,x0,0	  x0:0x00000000
       29255000	      2924	80001058	7e583113	sltiu	x2,x16,2021	 x16:0x00000001  x2=0x00000001
       29265000	      2925	8000105c	9bfc60b7	lui	x1,0x9bfc6	  x1=0x9bfc6000
       29275000	      2926	80001060	2b94ca13	xori	x20,x9,697	  x9:0x00000000 x20=0x000002b9
       29285000	      2927	80001064	017cb3b3	sltu	x7,x25,x23	 x25:0x00000000 x23:0xfffffb48  x7=0x00000001
       29295000	      2928	80001068	043f6863	bltu	x30,x3,800010b8	 x30:0xfffff978  x3:0x30decfc5
       29305000	      2929	8000106c	034e6a63	bltu	x28,x20,800010a0	 x28:0x80009fc4 x20:0x000002b9
       29315000	      2930	80001070	418700b3	sub	x1,x14,x24	 x14:0x00000001 x24:0xfffffb8f  x1=0x00000472
       29325000	      2931	80001074	61ed4b97	auipc	x23,0x61ed4	 x23=0xe1ed5070
       29335000	      2932	80001078	419106b3	sub	x13,x2,x25	  x2:0x00000001 x25:0x00000000 x13=0x00000001
       29345000	      2933	8000107c	0178d413	srli	x8,x17,0x17	 x17:0x5f3c5fd0  x8=0x000000be
       29355000	      2934	80001080	002f5733	srl	x14,x30,x2	 x30:0xfffff978  x2:0x00000001 x14=0x7ffffcbc
       29365000	      2935	80001084	03a6ea63	bltu	x13,x26,800010b8	 x13:0x00000001 x26:0x80009efc
       29375000	      2936	00000000	00000013	addi	x0,x0,0	  x0:0x00000000
       29385000	      2937	800010b4	00000013	addi	x0,x0,0	  x0:0x00000000
       29395000	      2938	800010b8	012105b3	add	x11,x2,x18	  x2:0x00000001 x18:0x00000000 x11=0x00000001
       29405000	      2939	800010bc	a898a613	slti	x12,x17,-1399	 x17:0x5f3c5fd0 x12=0x00000000
       29415000	      2940	800010c0	00d7c6b3	xor	x13,x15,x13	 x15:0x6f9dfa2f x13:0x00000001 x13=0x6f9dfa2e
       29425000	      2941	800010c4	03b4fa63	bgeu	x9,x27,800010f8	  x9:0x00000000 x27:0x6359a78f
       29435000	      2942	800010c8	05a09663	bne	x1,x26,80001114	  x1:0x00000472 x26:0x80009efc
       29445000	      2943	00000000	00000013	addi	x0,x0,0	  x0:0x00000000
       29455000	      2944	80001110	00000013	addi	x0,x0,0	  x0:0x00000000
       29465000	      2945	80001114	0adde613	ori	x12,x27,173	 x27:0x6359a78f x12=0x6359a7af
       29475000	      2946	80001118	013d0eb3	add	x29,x26,x19	 x26:0x80009efc x19:0x70d89000 x29=0xf0d92efc
       29485000	      2947	8000111c	3abb6693	ori	x13,x22,939	 x22:0x9ca65ba1 x13=0x9ca65bab
       29495000	      2948	80001120	009bdb33	srl	x22,x23,x9	 x23:0xe1ed5070  x9:0x00000000 x22=0xe1ed5070
       29505000	      2949	80001124	01b086b3	add	x13,x1,x27	  x1:0x00000472 x27:0x6359a78f x13=0x6359ac01
       29515000	      2950	80001128	407ed193	srai	x3,x29,0x7	 x29:0xf0d92efc  x3=0xffe1b25d
       29525000	      2951	8000112c	00000013	addi	x0,x0,0	  x0:0x00000000
       29535000	      2952	80001130	410e5c33	sra	x24,x28,x16	 x28:0x80009fc4 x16:0x00000001 x24=0xc0004fe2
       29545000	      2953	80001134	40738ab3	sub	x21,x7,x7	  x7:0x00000001  x7:0x00000001 x21=0x00000000
       29555000	      2954	80001138	1e2d3313	sltiu	x6,x26,482	 x26:0x80009efc  x6=0x00000000
       29565000	      2955	8000113c	017930b3	sltu	x1,x18,x23	 x18:0x00000000 x23:0xe1ed5070  x1=0x00000001
       29575000	      2956	80001140	012afcb3	and	x25,x21,x18	 x21:0x00000000 x18:0x00000000 x25=0x00000000
       29585000	      2957	80001144	ccf0bc93	sltiu	x25,x1,-817	  x1:0x00000001 x25=0x00000001
       29595000	      2958	80001148	11ae7793	andi	x15,x28,282	 x28:0x80009fc4 x15=0x00000100
       29605000	      2959	8000114c	01df5193	srli	x3,x30,0x1d	 x30:0xfffff978  x3=0x00000007
       29615000	      2960	80001150	00ee57b3	srl	x15,x28,x14	 x28:0x80009fc4 x14:0x7ffffcbc x15=0x00000008
       29625000	      2961	80001154	01776db3	or	x27,x14,x23	 x14:0x7ffffcbc x23:0xe1ed5070 x27=0xfffffcfc
       29635000	      2962	80001158	364e8793	addi	x15,x29,868	 x29:0xf0d92efc x15=0xf0d93260
       29645000	      2963	8000115c	00301e93	slli	x29,x0,0x3	  x0:0x00000000 x29=0x00000000
       29655000	      2964	80001160	e6fa7613	andi	x12,x20,-401	 x20:0x000002b9 x12=0x00000229
       29665000	      2965	80001164	01437433	and	x8,x6,x20	  x6:0x00000000 x20:0x000002b9  x8=0x00000000
       29675000	      2966	80001168	0169c5b3	xor	x11,x19,x22	 x19:0x70d89000 x22:0xe1ed5070 x11=0x9135c070
       29685000	      2967	8000116c	0242f063	bgeu	x5,x4,8000118c	  x5:0x80000000  x4:0x2c9b4f68
       29695000	      2968	00000000	00000013	addi	x0,x0,0	  x0:0x00000000
       29705000	      2969	80001188	00000013	addi	x0,x0,0	  x0:0x00000000
       29715000	      2970	8000118c	41075793	srai	x15,x14,0x10	 x14:0x7ffffcbc x15=0x00007fff
       29725000	      2971	80001190	03cb6a63	bltu	x22,x28,800011c4	 x22:0xe1ed5070 x28:0x80009fc4
       29735000	      2972	80001194	00b76c63	bltu	x14,x11,800011ac	 x14:0x7ffffcbc x11:0x9135c070
       29745000	      2973	00000000	00000013	addi	x0,x0,0	  x0:0x00000000
       29755000	      2974	800011a8	00000013	addi	x0,x0,0	  x0:0x00000000
       29765000	      2975	800011ac	010c1733	sll	x14,x24,x16	 x24:0xc0004fe2 x16:0x00000001 x14=0x80009fc4
       29775000	      2976	800011b0	96fb6a93	ori	x21,x22,-1681	 x22:0xe1ed5070 x21=0xfffff97f
       29785000	      2977	800011b4	0178cb33	xor	x22,x17,x23	 x17:0x5f3c5fd0 x23:0xe1ed5070 x22=0xbed10fa0
       29795000	      2978	800011b8	eec13c13	sltiu	x24,x2,-276	  x2:0x00000001 x24=0x00000001
       29805000	      2979	800011bc	00de1c33	sll	x24,x28,x13	 x28:0x80009fc4 x13:0x6359ac01 x24=0x00013f88
       29815000	      2980	800011c0	01d09263	bne	x1,x29,800011c4	  x1:0x00000001 x29:0x00000000
       29825000	      2981	00000000	00000013	addi	x0,x0,0	  x0:0x00000000
       29835000	      2982	800011c0	00000013	addi	x0,x0,0	  x0:0x00000000
       29845000	      2983	800011c4	5c1e4193	xori	x3,x28,1473	 x28:0x80009fc4  x3=0x80009a05
       29855000	      2984	800011c8	015c8c63	beq	x25,x21,800011e0	 x25:0x00000001 x21:0xfffff97f
       29865000	      2985	800011cc	020bec63	bltu	x23,x0,80001204	 x23:0xe1ed5070  x0:0x00000000
       29875000	      2986	800011d0	011a5313	srli	x6,x20,0x11	 x20:0x000002b9  x6=0x00000000
       29885000	      2987	800011d4	01fe8693	addi	x13,x29,31	 x29:0x00000000 x13=0x0000001f
       29895000	      2988	800011d8	03019863	bne	x3,x16,80001208	  x3:0x80009a05 x16:0x00000001
       29905000	      2989	00000000	00000013	addi	x0,x0,0	  x0:0x00000000
       29915000	      2990	80001204	00000013	addi	x0,x0,0	  x0:0x00000000
       29925000	      2991	80001208	40770633	sub	x12,x14,x7	 x14:0x80009fc4  x7:0x00000001 x12=0x80009fc3
       29935000	      2992	8000120c	410f88b3	sub	x17,x31,x16	 x31:0x00000000 x16:0x00000001 x17=0xffffffff
       29945000	      2993	80001210	65063a97	auipc	x21,0x65063	 x21=0xe506420c
       29955000	      2994	80001214	e35d6093	ori	x1,x26,-459	 x26:0x80009efc  x1=0xfffffefd
       29965000	      2995	80001218	6a93e413	ori	x8,x7,1705	  x7:0x00000001  x8=0x000006a9
       29975000	      2996	8000121c	0322d063	bge	x5,x18,8000123c	  x5:0x80000000 x18:0x00000000
       29985000	      2997	80001220	29d34093	xori	x1,x6,669	  x6:0x00000000  x1=0x0000029d
       29995000	      2998	80001224	0129df33	srl	x30,x19,x18	 x19:0x70d89000 x18:0x00000000 x30=0x70d89000
       30005000	      2999	80001228	00562c33	slt	x24,x12,x5	 x12:0x80009fc3  x5:0x80000000 x24=0x00000000
       30015000	      3000	8000122c	02dd6a63	bltu	x26,x13,80001260	 x26:0x80009efc x13:0x0000001f
       30025000	      3001	80001230	664bb193	sltiu	x3,x23,1636	 x23:0xe1ed5070  x3=0x00000000
       30035000	      3002	80001234	03d4f663	bgeu	x9,x29,80001260	  x9:0x00000000 x29:0x00000000
       30045000	      3003	00000000	00000013	addi	x0,x0,0	  x0:0x00000000
       30055000	      3004	8000125c	00000013	addi	x0,x0,0	  x0:0x00000000
       30065000	      3005	80001260	46396a13	ori	x20,x18,1123	 x18:0x00000000 x20=0x00000463
       30075000	      3006	80001264	7b9bc793	xori	x15,x23,1977	 x23:0xe1ed5070 x15=0xe1ed57c9
       30085000	      3007	80001268	00de0463	beq	x28,x13,80001270	 x28:0x80009fc4 x13:0x0000001f
       30095000	      3008	8000126c	00dee8b3	or	x17,x29,x13	 x29:0x00000000 x13:0x0000001f x17=0x0000001f
       30105000	      3009	80001270	4165bb13	sltiu	x22,x11,1046	 x11:0x9135c070 x22=0x00000000
       30115000	      3010	80001274	6d68f713	andi	x14,x17,1750	 x17:0x0000001f x14=0x00000016
       30125000	      3011	80001278	84c77e93	andi	x29,x14,-1972	 x14:0x00000016 x29=0x00000004
       30135000	      3012	8000127c	0157c333	xor	x6,x15,x21	 x15:0xe1ed57c9 x21:0xe506420c  x6=0x04eb15c5
       30145000	      3013	80001280	27a70213	addi	x4,x14,634	 x14:0x00000016  x4=0x00000290
       30155000	      3014	80001284	00069913	slli	x18,x13,0x0	 x13:0x0000001f x18=0x0000001f
       30165000	      3015	80001288	0149a6b3	slt	x13,x19,x20	 x19:0x70d89000 x20:0x00000463 x13=0x00000000
       30175000	      3016	8000128c	011876b3	and	x13,x16,x17	 x16:0x00000001 x17:0x0000001f x13=0x00000001
       30185000	      3017	80001290	01270db3	add	x27,x14,x18	 x14:0x00000016 x18:0x0000001f x27=0x00000035
       30195000	      3018	80001294	991c4093	xori	x1,x24,-1647	 x24:0x00000000  x1=0xfffff991
       30205000	      3019	80001298	0304d663	bge	x9,x16,800012c4	  x9:0x00000000 x16:0x00000001
       30215000	      3020	8000129c	05809263	bne	x1,x24,800012e0	  x1:0xfffff991 x24:0x00000000
       30225000	      3021	00000000	00000013	addi	x0,x0,0	  x0:0x00000000
       30235000	      3022	800012dc	00000013	addi	x0,x0,0	  x0:0x00000000
       30245000	      3023	800012e0	003cfeb3	and	x29,x25,x3	 x25:0x00000001  x3:0x00000000 x29=0x00000000
       30255000	      3024	800012e4	05f61263	bne	x12,x31,80001328	 x12:0x80009fc3 x31:0x00000000
       30265000	      3025	00000000	00000013	addi	x0,x0,0	  x0:0x00000000
       30275000	      3026	80001324	00000013	addi	x0,x0,0	  x0:0x00000000
       30285000	      3027	80001328	01459633	sll	x12,x11,x20	 x11:0x9135c070 x20:0x00000463 x12=0x89ae0380
       30295000	      3028	8000132c	0e6f5263	bge	x30,x6,80001410	 x30:0x70d89000  x6:0x04eb15c5
       30305000	      3029	00000000	00000013	addi	x0,x0,0	  x0:0x00000000
       30315000	      3030	8000140c	00000013	addi	x0,x0,0	  x0:0x00000000
       30325000	      3031	80001410	841d8093	addi	x1,x27,-1983	 x27:0x00000035  x1=0xfffff876
       30335000	      3032	80001414	54292597	auipc	x11,0x54292	 x11=0xd4293410
       30345000	      3033	80001418	008766b3	or	x13,x14,x8	 x14:0x00000016  x8:0x000006a9 x13=0x000006bf
       30355000	      3034	8000141c	41fa85b3	sub	x11,x21,x31	 x21:0xe506420c x31:0x00000000 x11=0xe506420c
       30365000	      3035	80001420	d37b0593	addi	x11,x22,-713	 x22:0x00000000 x11=0xfffffd37
       30375000	      3036	80001424	01f58bb3	add	x23,x11,x31	 x11:0xfffffd37 x31:0x00000000 x23=0xfffffd37
       30385000	      3037	80001428	c01a4313	xori	x6,x20,-1023	 x20:0x00000463  x6=0xfffff862
       30395000	      3038	8000142c	006a5463	bge	x20,x6,80001434	 x20:0x00000463  x6:0xfffff862
       30405000	      3039	00000000	00000013	addi	x0,x0,0	  x0:0x00000000
       30415000	      3040	80001430	00000013	addi	x0,x0,0	  x0:0x00000000
       30425000	      3041	80001434	1f8be913	ori	x18,x23,504	 x23:0xfffffd37 x18=0xfffffdff
       30435000	      3042	80001438	00230e63	beq	x6,x2,80001454	  x6:0xfffff862  x2:0x00000001
       30445000	      3043	8000143c	04eb7863	bgeu	x22,x14,8000148c	 x22:0x00000000 x14:0x00000016
       30455000	      3044	80001440	00932433	slt	x8,x6,x9	  x6:0xfffff862  x9:0x00000000  x8=0x00000001
       30465000	      3045	80001444	013d1593	slli	x11,x26,0x13	 x26:0x80009efc x11=0xf7e00000
       30475000	      3046	80001448	01b71d93	slli	x27,x14,0x1b	 x14:0x00000016 x27=0xb0000000
       30485000	      3047	8000144c	001b5713	srli	x14,x22,0x1	 x22:0x00000000 x14=0x00000000
       30495000	      3048	80001450	008d9513	slli	x10,x27,0x8	 x27:0xb0000000 x10=0x00000000
       30505000	      3049	80001454	03795063	bge	x18,x23,80001474	 x18:0xfffffdff x23:0xfffffd37
       30515000	      3050	00000000	00000013	addi	x0,x0,0	  x0:0x00000000
       30525000	      3051	80001470	00000013	addi	x0,x0,0	  x0:0x00000000
       30535000	      3052	80001474	01df5663	bge	x30,x29,80001480	 x30:0x70d89000 x29:0x00000000
       30545000	      3053	00000000	00000013	addi	x0,x0,0	  x0:0x00000000
       30555000	      3054	8000147c	00000013	addi	x0,x0,0	  x0:0x00000000
       30565000	      3055	80001480	00bd6fb3	or	x31,x26,x11	 x26:0x80009efc x11:0xf7e00000 x31=0xf7e09efc
       30575000	      3056	80001484	3215f713	andi	x14,x11,801	 x11:0xf7e00000 x14=0x00000000
       30585000	      3057	80001488	00210433	add	x8,x2,x2	  x2:0x00000001  x2:0x00000001  x8=0x00000002
       30595000	      3058	8000148c	406bdc93	srai	x25,x23,0x6	 x23:0xfffffd37 x25=0xfffffff4
       30605000	      3059	80001490	01208933	add	x18,x1,x18	  x1:0xfffff876 x18:0xfffffdff x18=0xfffff675
       30615000	      3060	80001494	007810b3	sll	x1,x16,x7	 x16:0x00000001  x7:0x00000001  x1=0x00000002
       30625000	      3061	80001498	004d4c63	blt	x26,x4,800014b0	 x26:0x80009efc  x4:0x00000290
       30635000	      3062	00000000	00000013	addi	x0,x0,0	  x0:0x00000000
       30645000	      3063	800014ac	00000013	addi	x0,x0,0	  x0:0x00000000
       30655000	      3064	800014b0	00f41193	slli	x3,x8,0xf	  x8:0x00000002  x3=0x00010000
       30665000	      3065	800014b4	f69fb693	sltiu	x13,x31,-151	 x31:0xf7e09efc x13=0x00000001
       30675000	      3066	800014b8	00b4ebb3	or	x23,x9,x11	  x9:0x00000000 x11:0xf7e00000 x23=0xf7e00000
       30685000	      3067	800014bc	a9b33b93	sltiu	x23,x6,-1381	  x6:0xfffff862 x23=0x00000001
       30695000	      3068	800014c0	00708ab3	add	x21,x1,x7	  x1:0x00000002  x7:0x00000001 x21=0x00000003
       30705000	      3069	800014c4	00599513	slli	x10,x19,0x5	 x19:0x70d89000 x10=0x1b120000
       30715000	      3070	800014c8	edd19e97	auipc	x29,0xedd19	 x29=0x6dd1a4c4
       30725000	      3071	800014cc	01f44463	blt	x8,x31,800014d4	  x8:0x00000002 x31:0xf7e09efc
       30735000	      3072	800014d0	014efeb3	and	x29,x29,x20	 x29:0x6dd1a4c4 x20:0x00000463 x29=0x00000440
       30745000	      3073	800014d4	00f5d793	srli	x15,x11,0xf	 x11:0xf7e00000 x15=0x0001efc0
       30755000	      3074	800014d8	01b08eb3	add	x29,x1,x27	  x1:0x00000002 x27:0xb0000000 x29=0xb0000002
       30765000	      3075	800014dc	005070b3	and	x1,x0,x5	  x0:0x00000000  x5:0x80000000  x1=0x00000000
       30775000	      3076	800014e0	03f9d063	bge	x19,x31,80001500	 x19:0x70d89000 x31:0xf7e09efc
       30785000	      3077	00000000	00000013	addi	x0,x0,0	  x0:0x00000000
       30795000	      3078	800014fc	00000013	addi	x0,x0,0	  x0:0x00000000
       30805000	      3079	80001500	4010df93	srai	x31,x1,0x1	  x1:0x00000000 x31=0x00000000
       30815000	      3080	80001504	dd8f2113	slti	x2,x30,-552	 x30:0x70d89000  x2=0x00000000
       30825000	      3081	80001508	01039863	bne	x7,x16,80001518	  x7:0x00000001 x16:0x00000001
       30835000	      3082	8000150c	40730233	sub	x4,x6,x7	  x6:0xfffff862  x7:0x00000001  x4=0xfffff861
       30845000	      3083	80001510	01eee3b3	or	x7,x29,x30	 x29:0xb0000002 x30:0x70d89000  x7=0xf0d89002
       30855000	      3084	80001514	000d9c63	bne	x27,x0,8000152c	 x27:0xb0000000  x0:0x00000000
       30865000	      3085	00000000	00000013	addi	x0,x0,0	  x0:0x00000000
       30875000	      3086	80001528	00000013	addi	x0,x0,0	  x0:0x00000000
       30885000	      3087	8000152c	0182b7b3	sltu	x15,x5,x24	  x5:0x80000000 x24:0x00000000 x15=0x00000000
       30895000	      3088	80001530	00000013	addi	x0,x0,0	  x0:0x00000000
       30905000	      3089	80001534	00ab6c63	bltu	x22,x10,8000154c	 x22:0x00000000 x10:0x1b120000
       30915000	      3090	00000000	00000013	addi	x0,x0,0	  x0:0x00000000
       30925000	      3091	80001548	00000013	addi	x0,x0,0	  x0:0x00000000
       30935000	      3092	8000154c	00000013	addi	x0,x0,0	  x0:0x00000000
       30945000	      3093	80001550	bdf30893	addi	x17,x6,-1057	  x6:0xfffff862 x17=0xfffff441
       30955000	      3094	80001554	03a08a63	beq	x1,x26,80001588	  x1:0x00000000 x26:0x80009efc
       30965000	      3095	80001558	40ec0933	sub	x18,x24,x14	 x24:0x00000000 x14:0x00000000 x18=0x00000000
       30975000	      3096	8000155c	0184dc63	bge	x9,x24,80001574	  x9:0x00000000 x24:0x00000000
       30985000	      3097	00000000	00000013	addi	x0,x0,0	  x0:0x00000000
       30995000	      3098	80001570	00000013	addi	x0,x0,0	  x0:0x00000000
       31005000	      3099	80001574	01d30433	add	x8,x6,x29	  x6:0xfffff862 x29:0xb0000002  x8=0xaffff864
       31015000	      3100	80001578	03640663	beq	x8,x22,800015a4	  x8:0xaffff864 x22:0x00000000
       31025000	      3101	8000157c	04d01663	bne	x0,x13,800015c8	  x0:0x00000000 x13:0x00000001
       31035000	      3102	00000000	00000013	addi	x0,x0,0	  x0:0x00000000
       31045000	      3103	800015c4	00000013	addi	x0,x0,0	  x0:0x00000000
       31055000	      3104	800015c8	01061693	slli	x13,x12,0x10	 x12:0x89ae0380 x13=0x03800000
       31065000	      3105	800015cc	01cc8133	add	x2,x25,x28	 x25:0xfffffff4 x28:0x80009fc4  x2=0x80009fb8
       31075000	      3106	800015d0	01c94433	xor	x8,x18,x28	 x18:0x00000000 x28:0x80009fc4  x8=0x80009fc4
       31085000	      3107	800015d4	00497c63	bgeu	x18,x4,800015ec	 x18:0x00000000  x4:0xfffff861
       31095000	      3108	800015d8	01fe14b3	sll	x9,x28,x31	 x28:0x80009fc4 x31:0x00000000  x9=0x80009fc4
       31105000	      3109	800015dc	95ea1bb7	lui	x23,0x95ea1	 x23=0x95ea1000
       31115000	      3110	800015e0	419ad833	sra	x16,x21,x25	 x21:0x00000003 x25:0xfffffff4 x16=0x00000000
       31125000	      3111	800015e4	367d3993	sltiu	x19,x26,871	 x26:0x80009efc x19=0x00000000
       31135000	      3112	800015e8	b382b3b7	lui	x7,0xb382b	  x7=0xb382b000
       31145000	      3113	800015ec	aa7b15b7	lui	x11,0xaa7b1	 x11=0xaa7b1000
       31155000	      3114	800015f0	01cf0463	beq	x30,x28,800015f8	 x30:0x70d89000 x28:0x80009fc4
       31165000	      3115	800015f4	020efa63	bgeu	x29,x0,80001628	 x29:0xb0000002  x0:0x00000000
       31175000	      3116	00000000	00000013	addi	x0,x0,0	  x0:0x00000000
       31185000	      3117	80001624	00000013	addi	x0,x0,0	  x0:0x00000000
       31195000	      3118	80001628	010b2633	slt	x12,x22,x16	 x22:0x00000000 x16:0x00000000 x12=0x00000000
       31205000	      3119	8000162c	41a75e93	srai	x29,x14,0x1a	 x14:0x00000000 x29=0x00000000
       31215000	      3120	80001630	0133acb3	slt	x25,x7,x19	  x7:0xb382b000 x19:0x00000000 x25=0x00000001
       31225000	      3121	80001634	41d3d533	sra	x10,x7,x29	  x7:0xb382b000 x29:0x00000000 x10=0xb382b000
       31235000	      3122	80001638	9c89a313	slti	x6,x19,-1592	 x19:0x00000000  x6=0x00000000
       31245000	      3123	8000163c	4006dab3	sra	x21,x13,x0	 x13:0x03800000  x0:0x00000000 x21=0x03800000
       31255000	      3124	80001640	04786863	bltu	x16,x7,80001690	 x16:0x00000000  x7:0xb382b000
       31265000	      3125	00000000	00000013	addi	x0,x0,0	  x0:0x00000000
       31275000	      3126	8000168c	00000013	addi	x0,x0,0	  x0:0x00000000
       31285000	      3127	80001690	40ec81b3	sub	x3,x25,x14	 x25:0x00000001 x14:0x00000000  x3=0x00000001
       31295000	      3128	80001694	00cfbdb3	sltu	x27,x31,x12	 x31:0x00000000 x12:0x00000000 x27=0x00000000
       31305000	      3129	80001698	01d398b3	sll	x17,x7,x29	  x7:0xb382b000 x29:0x00000000 x17=0xb382b000
       31315000	      3130	8000169c	00a21c33	sll	x24,x4,x10	  x4:0xfffff861 x10:0xb382b000 x24=0xfffff861
       31325000	      3131	800016a0	784a7813	andi	x16,x20,1924	 x20:0x00000463 x16=0x00000400
       31335000	      3132	800016a4	01b29013	slli	x0,x5,0x1b	  x5:0x80000000
       31345000	      3133	800016a8	d8bc6037	lui	x0,0xd8bc6	
       31355000	      3134	800016ac	9c097713	andi	x14,x18,-1600	 x18:0x00000000 x14=0x00000000
       31365000	      3135	800016b0	9cda55b7	lui	x11,0x9cda5	 x11=0x9cda5000
       31375000	      3136	800016b4	41f95013	srai	x0,x18,0x1f	 x18:0x00000000
       31385000	      3137	800016b8	018adb33	srl	x22,x21,x24	 x21:0x03800000 x24:0xfffff861 x22=0x01c00000
       31395000	      3138	800016bc	402c8b33	sub	x22,x25,x2	 x25:0x00000001  x2:0x80009fb8 x22=0x7fff6049
       31405000	      3139	800016c0	01b88463	beq	x17,x27,800016c8	 x17:0xb382b000 x27:0x00000000
       31415000	      3140	800016c4	01b26933	or	x18,x4,x27	  x4:0xfffff861 x27:0x00000000 x18=0xfffff861
       31425000	      3141	800016c8	b858b193	sltiu	x3,x17,-1147	 x17:0xb382b000  x3=0x00000001
       31435000	      3142	800016cc	8470e393	ori	x7,x1,-1977	  x1:0x00000000  x7=0xfffff847
       31445000	      3143	800016d0	0090c5b3	xor	x11,x1,x9	  x1:0x00000000  x9:0x80009fc4 x11=0x80009fc4
       31455000	      3144	800016d4	00059613	slli	x12,x11,0x0	 x11:0x80009fc4 x12=0x80009fc4
       31465000	      3145	800016d8	e2b94a93	xori	x21,x18,-469	 x18:0xfffff861 x21=0x0000064a
       31475000	      3146	800016dc	003e5a13	srli	x20,x28,0x3	 x28:0x80009fc4 x20=0x100013f8
       31485000	      3147	800016e0	764698b7	lui	x17,0x76469	 x17=0x76469000
       31495000	      3148	800016e4	017cc933	xor	x18,x25,x23	 x25:0x00000001 x23:0x95ea1000 x18=0x95ea1001
       31505000	      3149	800016e8	01ab9093	slli	x1,x23,0x1a	 x23:0x95ea1000  x1=0x00000000
       31515000	      3150	800016ec	ac19b813	sltiu	x16,x19,-1343	 x19:0x00000000 x16=0x00000001
       31525000	      3151	800016f0	0167d393	srli	x7,x15,0x16	 x15:0x00000000  x7=0x00000000
       31535000	      3152	800016f4	026cf663	bgeu	x25,x6,80001720	 x25:0x00000001  x6:0x00000000
       31545000	      3153	00000000	00000013	addi	x0,x0,0	  x0:0x00000000
       31555000	      3154	8000171c	00000013	addi	x0,x0,0	  x0:0x00000000
       31565000	      3155	80001720	00dafc63	bgeu	x21,x13,80001738	 x21:0x0000064a x13:0x03800000
       31575000	      3156	80001724	89d58393	addi	x7,x11,-1891	 x11:0x80009fc4  x7=0x80009861
       31585000	      3157	80001728	052e4663	blt	x28,x18,80001774	 x28:0x80009fc4 x18:0x95ea1001
       31595000	      3158	00000000	00000013	addi	x0,x0,0	  x0:0x00000000
       31605000	      3159	80001770	00000013	addi	x0,x0,0	  x0:0x00000000
       31615000	      3160	80001774	8eea6d93	ori	x27,x20,-1810	 x20:0x100013f8 x27=0xfffffbfe
       31625000	      3161	80001778	02f60063	beq	x12,x15,80001798	 x12:0x80009fc4 x15:0x00000000
       31635000	      3162	8000177c	90eee013	ori	x0,x29,-1778	 x29:0x00000000
       31645000	      3163	80001780	00169213	slli	x4,x13,0x1	 x13:0x03800000  x4=0x07000000
       31655000	      3164	80001784	01cd0a33	add	x20,x26,x28	 x26:0x80009efc x28:0x80009fc4 x20=0x00013ec0
       31665000	      3165	80001788	00000013	addi	x0,x0,0	  x0:0x00000000
       31675000	      3166	8000178c	3bfae213	ori	x4,x21,959	 x21:0x0000064a  x4=0x000007ff
       31685000	      3167	80001790	0031de93	srli	x29,x3,0x3	  x3:0x00000001 x29=0x00000000
       31695000	      3168	80001794	fe718937	lui	x18,0xfe718	 x18=0xfe718000
       31705000	      3169	80001798	40fd0fb3	sub	x31,x26,x15	 x26:0x80009efc x15:0x00000000 x31=0x80009efc
       31715000	      3170	8000179c	00f4e8b3	or	x17,x9,x15	  x9:0x80009fc4 x15:0x00000000 x17=0x80009fc4
       31725000	      3171	800017a0	407303b3	sub	x7,x6,x7	  x6:0x00000000  x7:0x80009861  x7=0x7fff679f
       31735000	      3172	800017a4	000d9833	sll	x16,x27,x0	 x27:0xfffffbfe  x0:0x00000000 x16=0xfffffbfe
       31745000	      3173	800017a8	0178d213	srli	x4,x17,0x17	 x17:0x80009fc4  x4=0x00000100
       31755000	      3174	800017ac	05196263	bltu	x18,x17,800017f0	 x18:0xfe718000 x17:0x80009fc4
       31765000	      3175	800017b0	014b4433	xor	x8,x22,x20	 x22:0x7fff6049 x20:0x00013ec0  x8=0x7ffe5e89
       31775000	      3176	800017b4	01afbb33	sltu	x22,x31,x26	 x31:0x80009efc x26:0x80009efc x22=0x00000000
       31785000	      3177	800017b8	00000013	addi	x0,x0,0	  x0:0x00000000
       31795000	      3178	800017bc	017eb9b3	sltu	x19,x29,x23	 x29:0x00000000 x23:0x95ea1000 x19=0x00000001
       31805000	      3179	800017c0	000b44b3	xor	x9,x22,x0	 x22:0x00000000  x0:0x00000000  x9=0x00000000
       31815000	      3180	800017c4	027bf663	bgeu	x23,x7,800017f0	 x23:0x95ea1000  x7:0x7fff679f
       31825000	      3181	00000000	00000013	addi	x0,x0,0	  x0:0x00000000
       31835000	      3182	800017ec	00000013	addi	x0,x0,0	  x0:0x00000000
       31845000	      3183	800017f0	02f08063	beq	x1,x15,80001810	  x1:0x00000000 x15:0x00000000
       31855000	      3184	00000000	00000013	addi	x0,x0,0	  x0:0x00000000
       31865000	      3185	8000180c	00000013	addi	x0,x0,0	  x0:0x00000000
       31875000	      3186	80001810	79997313	andi	x6,x18,1945	 x18:0xfe718000  x6=0x00000000
       31885000	      3187	80001814	013a86b3	add	x13,x21,x19	 x21:0x0000064a x19:0x00000001 x13=0x0000064b
       31895000	      3188	80001818	95541037	lui	x0,0x95541	
       31905000	      3189	8000181c	0127f0b3	and	x1,x15,x18	 x15:0x00000000 x18:0xfe718000  x1=0x00000000
       31915000	      3190	80001820	1da5e093	ori	x1,x11,474	 x11:0x80009fc4  x1=0x80009fde
       31925000	      3191	80001824	01889c93	slli	x25,x17,0x18	 x17:0x80009fc4 x25=0xc4000000
       31935000	      3192	80001828	bced1ab7	lui	x21,0xbced1	 x21=0xbced1000
       31945000	      3193	8000182c	408104b3	sub	x9,x2,x8	  x2:0x80009fb8  x8:0x7ffe5e89  x9=0x0002412f
       31955000	      3194	80001830	00244433	xor	x8,x8,x2	  x8:0x7ffe5e89  x2:0x80009fb8  x8=0xfffec131
       31965000	      3195	80001834	00215193	srli	x3,x2,0x2	  x2:0x80009fb8  x3=0x200027ee
       31975000	      3196	80001838	03b57c63	bgeu	x10,x27,80001870	 x10:0xb382b000 x27:0xfffffbfe
       31985000	      3197	8000183c	b322bf13	sltiu	x30,x5,-1230	  x5:0x80000000 x30=0x00000001
       31995000	      3198	80001840	00e15f93	srli	x31,x2,0xe	  x2:0x80009fb8 x31=0x00020002
       32005000	      3199	80001844	015ba833	slt	x16,x23,x21	 x23:0x95ea1000 x21:0xbced1000 x16=0x00000001
       32015000	      3200	80001848	228f4393	xori	x7,x30,552	 x30:0x00000001  x7=0x00000229
       32025000	      3201	8000184c	003e9a63	bne	x29,x3,80001860	 x29:0x00000000  x3:0x200027ee
       32035000	      3202	00000000	00000013	addi	x0,x0,0	  x0:0x00000000
       32045000	      3203	8000185c	00000013	addi	x0,x0,0	  x0:0x00000000
       32055000	      3204	80001860	40015433	sra	x8,x2,x0	  x2:0x80009fb8  x0:0x00000000  x8=0x80009fb8
       32065000	      3205	80001864	0073d8b3	srl	x17,x7,x7	  x7:0x00000229  x7:0x00000229 x17=0x00000001
       32075000	      3206	80001868	00a5b6b3	sltu	x13,x11,x10	 x11:0x80009fc4 x10:0xb382b000 x13=0x00000001
       32085000	      3207	8000186c	0085d213	srli	x4,x11,0x8	 x11:0x80009fc4  x4=0x0080009f
       32095000	      3208	80001870	0091adb3	slt	x27,x3,x9	  x3:0x200027ee  x9:0x0002412f x27=0x00000000
       32105000	      3209	80001874	6c30c093	xori	x1,x1,1731	  x1:0x80009fde  x1=0x8000991d
       32115000	      3210	80001878	411f89b3	sub	x19,x31,x17	 x31:0x00020002 x17:0x00000001 x19=0x00020001
       32125000	      3211	8000187c	00765e63	bge	x12,x7,80001898	 x12:0x80009fc4  x7:0x00000229
       32135000	      3212	80001880	010e9313	slli	x6,x29,0x10	 x29:0x00000000  x6=0x00000000
       32145000	      3213	80001884	00000013	addi	x0,x0,0	  x0:0x00000000
       32155000	      3214	80001888	4774b093	sltiu	x1,x9,1143	  x9:0x0002412f  x1=0x00000000
       32165000	      3215	8000188c	00480bb3	add	x23,x16,x4	 x16:0x00000001  x4:0x0080009f x23=0x008000a0
       32175000	      3216	80001890	03e9da63	bge	x19,x30,800018c4	 x19:0x00020001 x30:0x00000001
       32185000	      3217	00000000	00000013	addi	x0,x0,0	  x0:0x00000000
       32195000	      3218	800018c0	00000013	addi	x0,x0,0	  x0:0x00000000
       32205000	      3219	800018c4	01a28bb3	add	x23,x5,x26	  x5:0x80000000 x26:0x80009efc x23=0x00009efc
       32215000	      3220	800018c8	001e9863	bne	x29,x1,800018d8	 x29:0x00000000  x1:0x00000000
       32225000	      3221	800018cc	85ae8813	addi	x16,x29,-1958	 x29:0x00000000 x16=0xfffff85a
       32235000	      3222	800018d0	d0e13a17	auipc	x20,0xd0e13	 x20=0x50e148cc
       32245000	      3223	800018d4	8ef52193	slti	x3,x10,-1809	 x10:0xb382b000  x3=0x00000001
       32255000	      3224	800018d8	f3433593	sltiu	x11,x6,-204	  x6:0x00000000 x11=0x00000001
       32265000	      3225	800018dc	c2ce8093	addi	x1,x29,-980	 x29:0x00000000  x1=0xfffffc2c
       32275000	      3226	800018e0	00fa9933	sll	x18,x21,x15	 x21:0xbced1000 x15:0x00000000 x18=0xbced1000
       32285000	      3227	800018e4	5279c713	xori	x14,x19,1319	 x19:0x00020001 x14=0x00020526
       32295000	      3228	800018e8	40b803b3	sub	x7,x16,x11	 x16:0xfffff85a x11:0x00000001  x7=0xfffff859
       32305000	      3229	800018ec	04865863	bge	x12,x8,8000193c	 x12:0x80009fc4  x8:0x80009fb8
       32315000	      3230	00000000	00000013	addi	x0,x0,0	  x0:0x00000000
       32325000	      3231	80001938	00000013	addi	x0,x0,0	  x0:0x00000000
       32335000	      3232	8000193c	005e1533	sll	x10,x28,x5	 x28:0x80009fc4  x5:0x80000000 x10=0x80009fc4
       32345000	      3233	80001940	01868eb3	add	x29,x13,x24	 x13:0x00000001 x24:0xfffff861 x29=0xfffff862
       32355000	      3234	80001944	0053dbb3	srl	x23,x7,x5	  x7:0xfffff859  x5:0x80000000 x23=0xfffff859
       32365000	      3235	80001948	001541b3	xor	x3,x10,x1	 x10:0x80009fc4  x1:0xfffffc2c  x3=0x7fff63e8
       32375000	      3236	8000194c	f5247c93	andi	x25,x8,-174	  x8:0x80009fb8 x25=0x80009f10
       32385000	      3237	80001950	0052deb3	srl	x29,x5,x5	  x5:0x80000000  x5:0x80000000 x29=0x80000000
       32395000	      3238	80001954	40835c13	srai	x24,x6,0x8	  x6:0x00000000 x24=0x00000000
       32405000	      3239	80001958	00000013	addi	x0,x0,0	  x0:0x00000000
       32415000	      3240	8000195c	40d9d593	srai	x11,x19,0xd	 x19:0x00020001 x11=0x00000010
       32425000	      3241	80001960	38000897	auipc	x17,0x38000	 x17=0xb800195c
       32435000	      3242	80001964	0bc3dc63	bge	x7,x28,80001a1c	  x7:0xfffff859 x28:0x80009fc4
       32445000	      3243	00000000	00000013	addi	x0,x0,0	  x0:0x00000000
       32455000	      3244	80001a18	00000013	addi	x0,x0,0	  x0:0x00000000
       32465000	      3245	80001a1c	043a6f93	ori	x31,x20,67	 x20:0x50e148cc x31=0x50e148cf
       32475000	      3246	80001a20	e5cd3e93	sltiu	x29,x26,-420	 x26:0x80009efc x29=0x00000001
       32485000	      3247	80001a24	01aa8433	add	x8,x21,x26	 x21:0xbced1000 x26:0x80009efc  x8=0x3cedaefc
       32495000	      3248	80001a28	0329c063	blt	x19,x18,80001a48	 x19:0x00020001 x18:0xbced1000
       32505000	      3249	80001a2c	014c88b3	add	x17,x25,x20	 x25:0x80009f10 x20:0x50e148cc x17=0xd0e1e7dc
       32515000	      3250	80001a30	0197e463	bltu	x15,x25,80001a38	 x15:0x00000000 x25:0x80009f10
       32525000	      3251	00000000	00000013	addi	x0,x0,0	  x0:0x00000000
       32535000	      3252	80001a34	00000013	addi	x0,x0,0	  x0:0x00000000
       32545000	      3253	80001a38	5680b513	sltiu	x10,x1,1384	  x1:0xfffffc2c x10=0x00000000
       32555000	      3254	80001a3c	013b7333	and	x6,x22,x19	 x22:0x00000000 x19:0x00020001  x6=0x00000000
       32565000	      3255	80001a40	0078d993	srli	x19,x17,0x7	 x17:0xd0e1e7dc x19=0x01a1c3cf
       32575000	      3256	80001a44	01bc7633	and	x12,x24,x27	 x24:0x00000000 x27:0x00000000 x12=0x00000000
       32585000	      3257	80001a48	502dc793	xori	x15,x27,1282	 x27:0x00000000 x15=0x00000502
       32595000	      3258	80001a4c	02590863	beq	x18,x5,80001a7c	 x18:0xbced1000  x5:0x80000000
       32605000	      3259	80001a50	32b4c513	xori	x10,x9,811	  x9:0x0002412f x10=0x00024204
       32615000	      3260	80001a54	9c884c93	xori	x25,x16,-1592	 x16:0xfffff85a x25=0x00000192
       32625000	      3261	80001a58	d31dff13	andi	x30,x27,-719	 x27:0x00000000 x30=0x00000000
       32635000	      3262	80001a5c	0543f263	bgeu	x7,x20,80001aa0	  x7:0xfffff859 x20:0x50e148cc
       32645000	      3263	00000000	00000013	addi	x0,x0,0	  x0:0x00000000
       32655000	      3264	80001a9c	00000013	addi	x0,x0,0	  x0:0x00000000
       32665000	      3265	80001aa0	99596313	ori	x6,x18,-1643	 x18:0xbced1000  x6=0xfffff995
       32675000	      3266	80001aa4	0068c0b3	xor	x1,x17,x6	 x17:0xd0e1e7dc  x6:0xfffff995  x1=0x2f1e1e49
       32685000	      3267	80001aa8	00b70ab3	add	x21,x14,x11	 x14:0x00020526 x11:0x00000010 x21=0x00020536
       32695000	      3268	80001aac	04898663	beq	x19,x8,80001af8	 x19:0x01a1c3cf  x8:0x3cedaefc
       32705000	      3269	80001ab0	00c0c6b3	xor	x13,x1,x12	  x1:0x2f1e1e49 x12:0x00000000 x13=0x2f1e1e49
       32715000	      3270	80001ab4	0377c663	blt	x15,x23,80001ae0	 x15:0x00000502 x23:0xfffff859
       32725000	      3271	80001ab8	0ef4b797	auipc	x15,0xef4b	 x15=0x8ef4cab4
       32735000	      3272	80001abc	00d54463	blt	x10,x13,80001ac4	 x10:0x00024204 x13:0x2f1e1e49
       32745000	      3273	00000000	00000013	addi	x0,x0,0	  x0:0x00000000
       32755000	      3274	80001ac0	00000013	addi	x0,x0,0	  x0:0x00000000
       32765000	      3275	80001ac4	014d9c63	bne	x27,x20,80001adc	 x27:0x00000000 x20:0x50e148cc
       32775000	      3276	00000000	00000013	addi	x0,x0,0	  x0:0x00000000
       32785000	      3277	80001ad8	00000013	addi	x0,x0,0	  x0:0x00000000
       32795000	      3278	80001adc	01bc1663	bne	x24,x27,80001ae8	 x24:0x00000000 x27:0x00000000
       32805000	      3279	80001ae0	0234d063	bge	x9,x3,80001b00	  x9:0x0002412f  x3:0x7fff63e8
       32815000	      3280	80001ae4	00000013	addi	x0,x0,0	  x0:0x00000000
       32825000	      3281	80001ae8	64147797	auipc	x15,0x64147	 x15=0xe4148ae4
       32835000	      3282	80001aec	40e358b3	sra	x17,x6,x14	  x6:0xfffff995 x14:0x00020526 x17=0xffffffe6
       32845000	      3283	80001af0	40ed05b3	sub	x11,x26,x14	 x26:0x80009efc x14:0x00020526 x11=0x7ffe99d6
       32855000	      3284	80001af4	01435b93	srli	x23,x6,0x14	  x6:0xfffff995 x23=0x00000fff
       32865000	      3285	80001af8	00f6a6b3	slt	x13,x13,x15	 x13:0x2f1e1e49 x15:0xe4148ae4 x13=0x00000000
       32875000	      3286	80001afc	0123ea63	bltu	x7,x18,80001b10	  x7:0xfffff859 x18:0xbced1000
       32885000	      3287	80001b00	46f93693	sltiu	x13,x18,1135	 x18:0xbced1000 x13=0x00000000
       32895000	      3288	80001b04	c3680f13	addi	x30,x16,-970	 x16:0xfffff85a x30=0xfffff490
       32905000	      3289	80001b08	014ed913	srli	x18,x29,0x14	 x29:0x00000001 x18=0x00000000
       32915000	      3290	80001b0c	01119693	slli	x13,x3,0x11	  x3:0x7fff63e8 x13=0xc7d00000
       32925000	      3291	80001b10	40358db3	sub	x27,x11,x3	 x11:0x7ffe99d6  x3:0x7fff63e8 x27=0xffff35ee
       32935000	      3292	80001b14	00000013	addi	x0,x0,0	  x0:0x00000000
       32945000	      3293	80001b18	19bc0993	addi	x19,x24,411	 x24:0x00000000 x19=0x0000019b
       32955000	      3294	80001b1c	01bca0b3	slt	x1,x25,x27	 x25:0x00000192 x27:0xffff35ee  x1=0x00000000
       32965000	      3295	80001b20	90376613	ori	x12,x14,-1789	 x14:0x00020526 x12=0xfffffd27
       32975000	      3296	80001b24	e3b72c93	slti	x25,x14,-453	 x14:0x00020526 x25=0x00000000
       32985000	      3297	80001b28	01835a93	srli	x21,x6,0x18	  x6:0xfffff995 x21=0x000000ff
       32995000	      3298	80001b2c	0153feb3	and	x29,x7,x21	  x7:0xfffff859 x21:0x000000ff x29=0x00000059
       33005000	      3299	80001b30	4023d733	sra	x14,x7,x2	  x7:0xfffff859  x2:0x80009fb8 x14=0xffffffff
       33015000	      3300	80001b34	03ce5c63	bge	x28,x28,80001b6c	 x28:0x80009fc4 x28:0x80009fc4
       33025000	      3301	00000000	00000013	addi	x0,x0,0	  x0:0x00000000
       33035000	      3302	80001b68	00000013	addi	x0,x0,0	  x0:0x00000000
       33045000	      3303	80001b6c	017041b3	xor	x3,x0,x23	  x0:0x00000000 x23:0x00000fff  x3=0x00000fff
       33055000	      3304	80001b70	2f9f0413	addi	x8,x30,761	 x30:0xfffff490  x8=0xfffff789
       33065000	      3305	80001b74	0090fcb3	and	x25,x1,x9	  x1:0x00000000  x9:0x0002412f x25=0x00000000
       33075000	      3306	80001b78	94a64313	xori	x6,x12,-1718	 x12:0xfffffd27  x6=0x0000046d
       33085000	      3307	80001b7c	53dceb97	auipc	x23,0x53dce	 x23=0xd3dcfb78
       33095000	      3308	80001b80	011c1613	slli	x12,x24,0x11	 x24:0x00000000 x12=0x00000000
       33105000	      3309	80001b84	01ebcc63	blt	x23,x30,80001b9c	 x23:0xd3dcfb78 x30:0xfffff490
       33115000	      3310	00000000	00000013	addi	x0,x0,0	  x0:0x00000000
       33125000	      3311	80001b98	00000013	addi	x0,x0,0	  x0:0x00000000
       33135000	      3312	80001b9c	01624133	xor	x2,x4,x22	  x4:0x0080009f x22:0x00000000  x2=0x0080009f
       33145000	      3313	80001ba0	03141a63	bne	x8,x17,80001bd4	  x8:0xfffff789 x17:0xffffffe6
       33155000	      3314	00000000	00000013	addi	x0,x0,0	  x0:0x00000000
       33165000	      3315	80001bd0	00000013	addi	x0,x0,0	  x0:0x00000000
       33175000	      3316	80001bd4	01546533	or	x10,x8,x21	  x8:0xfffff789 x21:0x000000ff x10=0xfffff7ff
       33185000	      3317	80001bd8	02e1c063	blt	x3,x14,80001bf8	  x3:0x00000fff x14:0xffffffff
       33195000	      3318	80001bdc	f7877713	andi	x14,x14,-136	 x14:0xffffffff x14=0xffffff78
       33205000	      3319	80001be0	0a73eb93	ori	x23,x7,167	  x7:0xfffff859 x23=0xfffff8ff
       33215000	      3320	80001be4	00000013	addi	x0,x0,0	  x0:0x00000000
       33225000	      3321	80001be8	02049a63	bne	x9,x0,80001c1c	  x9:0x0002412f  x0:0x00000000
       33235000	      3322	00000000	00000013	addi	x0,x0,0	  x0:0x00000000
       33245000	      3323	80001c18	00000013	addi	x0,x0,0	  x0:0x00000000
       33255000	      3324	80001c1c	402f83b3	sub	x7,x31,x2	 x31:0x50e148cf  x2:0x0080009f  x7=0x50614830
       33265000	      3325	80001c20	01691513	slli	x10,x18,0x16	 x18:0x00000000 x10=0x00000000
       33275000	      3326	80001c24	02150663	beq	x10,x1,80001c50	 x10:0x00000000  x1:0x00000000
       33285000	      3327	00000000	00000013	addi	x0,x0,0	  x0:0x00000000
       33295000	      3328	80001c4c	00000013	addi	x0,x0,0	  x0:0x00000000
       33305000	      3329	80001c50	41290ab3	sub	x21,x18,x18	 x18:0x00000000 x18:0x00000000 x21=0x00000000
       33315000	      3330	80001c54	74544c13	xori	x24,x8,1861	  x8:0xfffff789 x24=0xfffff0cc
       33325000	      3331	80001c58	03f08a63	beq	x1,x31,80001c8c	  x1:0x00000000 x31:0x50e148cf
       33335000	      3332	80001c5c	ab5c7713	andi	x14,x24,-1355	 x24:0xfffff0cc x14=0xfffff084
       33345000	      3333	80001c60	018cd813	srli	x16,x25,0x18	 x25:0x00000000 x16=0x00000000
       33355000	      3334	80001c64	00209c13	slli	x24,x1,0x2	  x1:0x00000000 x24=0x00000000
       33365000	      3335	80001c68	00979b93	slli	x23,x15,0x9	 x15:0xe4148ae4 x23=0x2915c800
       33375000	      3336	80001c6c	4113d1b3	sra	x3,x7,x17	  x7:0x50614830 x17:0xffffffe6  x3=0x01418520
       33385000	      3337	80001c70	01bfd713	srli	x14,x31,0x1b	 x31:0x50e148cf x14=0x0000000a
       33395000	      3338	80001c74	ddfa8717	auipc	x14,0xddfa8	 x14=0x5dfa9c70
       33405000	      3339	80001c78	000f35b3	sltu	x11,x30,x0	 x30:0xfffff490  x0:0x00000000 x11=0x00000000
       33415000	      3340	80001c7c	09c5e413	ori	x8,x11,156	 x11:0x00000000  x8=0x0000009c
       33425000	      3341	80001c80	00e50fb3	add	x31,x10,x14	 x10:0x00000000 x14:0x5dfa9c70 x31=0x5dfa9c70
       33435000	      3342	80001c84	01f4f8b3	and	x17,x9,x31	  x9:0x0002412f x31:0x5dfa9c70 x17=0x00020020
       33445000	      3343	80001c88	0154f463	bgeu	x9,x21,80001c90	  x9:0x0002412f x21:0x00000000
       33455000	      3344	00000000	00000013	addi	x0,x0,0	  x0:0x00000000
       33465000	      3345	80001c8c	00000013	addi	x0,x0,0	  x0:0x00000000
       33475000	      3346	80001c90	008e74b3	and	x9,x28,x8	 x28:0x80009fc4  x8:0x0000009c  x9=0x00000084
       33485000	      3347	80001c94	758c8113	addi	x2,x25,1880	 x25:0x00000000  x2=0x00000758
       33495000	      3348	80001c98	0205e663	bltu	x11,x0,80001cc4	 x11:0x00000000  x0:0x00000000
       33505000	      3349	80001c9c	d2277493	andi	x9,x14,-734	 x14:0x5dfa9c70  x9=0x5dfa9c20
       33515000	      3350	80001ca0	01cc5fb3	srl	x31,x24,x28	 x24:0x00000000 x28:0x80009fc4 x31=0x00000000
       33525000	      3351	80001ca4	00b74c33	xor	x24,x14,x11	 x14:0x5dfa9c70 x11:0x00000000 x24=0x5dfa9c70
       33535000	      3352	80001ca8	4173d7b3	sra	x15,x7,x23	  x7:0x50614830 x23:0x2915c800 x15=0x50614830
       33545000	      3353	80001cac	02254c63	blt	x10,x2,80001ce4	 x10:0x00000000  x2:0x00000758
       33555000	      3354	00000000	00000013	addi	x0,x0,0	  x0:0x00000000
       33565000	      3355	80001ce0	00000013	addi	x0,x0,0	  x0:0x00000000
       33575000	      3356	80001ce4	0ce2d637	lui	x12,0xce2d	 x12=0x0ce2d000
       33585000	      3357	80001ce8	0155dc33	srl	x24,x11,x21	 x11:0x00000000 x21:0x00000000 x24=0x00000000
       33595000	      3358	80001cec	2bf30213	addi	x4,x6,703	  x6:0x0000046d  x4=0x0000072c
       33605000	      3359	80001cf0	005cff33	and	x30,x25,x5	 x25:0x00000000  x5:0x80000000 x30=0x00000000
       33615000	      3360	80001cf4	003a5133	srl	x2,x20,x3	 x20:0x50e148cc  x3:0x01418520  x2=0x50e148cc
       33625000	      3361	80001cf8	002cadb3	slt	x27,x25,x2	 x25:0x00000000  x2:0x50e148cc x27=0x00000001
       33635000	      3362	80001cfc	01c5d3b3	srl	x7,x11,x28	 x11:0x00000000 x28:0x80009fc4  x7=0x00000000
       33645000	      3363	80001d00	013e44b3	xor	x9,x28,x19	 x28:0x80009fc4 x19:0x0000019b  x9=0x80009e5f
       33655000	      3364	80001d04	00b99c93	slli	x25,x19,0xb	 x19:0x0000019b x25=0x000cd800
       33665000	      3365	80001d08	00c79db3	sll	x27,x15,x12	 x15:0x50614830 x12:0x0ce2d000 x27=0x50614830
       33675000	      3366	80001d0c	f68f0793	addi	x15,x30,-152	 x30:0x00000000 x15=0xffffff68
       33685000	      3367	80001d10	00d98463	beq	x19,x13,80001d18	 x19:0x0000019b x13:0xc7d00000
       33695000	      3368	80001d14	01126133	or	x2,x4,x17	  x4:0x0000072c x17:0x00020020  x2=0x0002072c
       33705000	      3369	80001d18	00000013	addi	x0,x0,0	  x0:0x00000000
       33715000	      3370	80001d1c	00115e93	srli	x29,x2,0x1	  x2:0x0002072c x29=0x00010396
       33725000	      3371	80001d20	00c1ea33	or	x20,x3,x12	  x3:0x01418520 x12:0x0ce2d000 x20=0x0de3d520
       33735000	      3372	80001d24	01f02633	slt	x12,x0,x31	  x0:0x00000000 x31:0x00000000 x12=0x00000000
       33745000	      3373	80001d28	000566b3	or	x13,x10,x0	 x10:0x00000000  x0:0x00000000 x13=0x00000000
       33755000	      3374	80001d2c	1bee8593	addi	x11,x29,446	 x29:0x00010396 x11=0x00010554
       33765000	      3375	80001d30	053c5863	bge	x24,x19,80001d80	 x24:0x00000000 x19:0x0000019b
       33775000	      3376	80001d34	ca698c37	lui	x24,0xca698	 x24=0xca698000
       33785000	      3377	80001d38	00e39933	sll	x18,x7,x14	  x7:0x00000000 x14:0x5dfa9c70 x18=0x00000000
       33795000	      3378	80001d3c	0351dc63	bge	x3,x21,80001d74	  x3:0x01418520 x21:0x00000000
       33805000	      3379	00000000	00000013	addi	x0,x0,0	  x0:0x00000000
       33815000	      3380	80001d70	00000013	addi	x0,x0,0	  x0:0x00000000
       33825000	      3381	80001d74	002d8c33	add	x24,x27,x2	 x27:0x50614830  x2:0x0002072c x24=0x50634f5c
       33835000	      3382	80001d78	01e1e6b3	or	x13,x3,x30	  x3:0x01418520 x30:0x00000000 x13=0x01418520
       33845000	      3383	80001d7c	04381663	bne	x16,x3,80001dc8	 x16:0x00000000  x3:0x01418520
       33855000	      3384	00000000	00000013	addi	x0,x0,0	  x0:0x00000000
       33865000	      3385	80001dc4	00000013	addi	x0,x0,0	  x0:0x00000000
       33875000	      3386	80001dc8	81f83b13	sltiu	x22,x16,-2017	 x16:0x00000000 x22=0x00000001
       33885000	      3387	80001dcc	410308b3	sub	x17,x6,x16	  x6:0x0000046d x16:0x00000000 x17=0x0000046d
       33895000	      3388	80001dd0	00785e93	srli	x29,x16,0x7	 x16:0x00000000 x29=0x00000000
       33905000	      3389	80001dd4	00605f93	srli	x31,x0,0x6	  x0:0x00000000 x31=0x00000000
       33915000	      3390	80001dd8	41f70733	sub	x14,x14,x31	 x14:0x5dfa9c70 x31:0x00000000 x14=0x5dfa9c70
       33925000	      3391	80001ddc	03639863	bne	x7,x22,80001e0c	  x7:0x00000000 x22:0x00000001
       33935000	      3392	00000000	00000013	addi	x0,x0,0	  x0:0x00000000
       33945000	      3393	80001e08	00000013	addi	x0,x0,0	  x0:0x00000000
       33955000	      3394	80001e0c	40ef5e93	srai	x29,x30,0xe	 x30:0x00000000 x29=0x00000000
       33965000	      3395	80001e10	40498ab3	sub	x21,x19,x4	 x19:0x0000019b  x4:0x0000072c x21=0xfffffa6f
       33975000	      3396	80001e14	03b35063	bge	x6,x27,80001e34	  x6:0x0000046d x27:0x50614830
       33985000	      3397	80001e18	411bd233	sra	x4,x23,x17	 x23:0x2915c800 x17:0x0000046d  x4=0x000148ae
       33995000	      3398	80001e1c	a2340393	addi	x7,x8,-1501	  x8:0x0000009c  x7=0xfffffabf
       34005000	      3399	80001e20	00b75663	bge	x14,x11,80001e2c	 x14:0x5dfa9c70 x11:0x00010554
       34015000	      3400	00000000	00000013	addi	x0,x0,0	  x0:0x00000000
       34025000	      3401	80001e28	00000013	addi	x0,x0,0	  x0:0x00000000
       34035000	      3402	80001e2c	035b1663	bne	x22,x21,80001e58	 x22:0x00000001 x21:0xfffffa6f
       34045000	      3403	00000000	00000013	addi	x0,x0,0	  x0:0x00000000
       34055000	      3404	80001e54	00000013	addi	x0,x0,0	  x0:0x00000000
       34065000	      3405	80001e58	01578863	beq	x15,x21,80001e68	 x15:0xffffff68 x21:0xfffffa6f
       34075000	      3406	80001e5c	01649033	sll	x0,x9,x22	  x9:0x80009e5f x22:0x00000001
       34085000	      3407	80001e60	a24a2493	slti	x9,x20,-1500	 x20:0x0de3d520  x9=0x00000000
       34095000	      3408	80001e64	0147ba33	sltu	x20,x15,x20	 x15:0xffffff68 x20:0x0de3d520 x20=0x00000000
       34105000	      3409	80001e68	f2a33c13	sltiu	x24,x6,-214	  x6:0x0000046d x24=0x00000001
       34115000	      3410	80001e6c	406d0db3	sub	x27,x26,x6	 x26:0x80009efc  x6:0x0000046d x27=0x80009a8f
       34125000	      3411	80001e70	010a93b3	sll	x7,x21,x16	 x21:0xfffffa6f x16:0x00000000  x7=0xfffffa6f
       34135000	      3412	80001e74	02f20a63	beq	x4,x15,80001ea8	  x4:0x000148ae x15:0xffffff68
       34145000	      3413	80001e78	4ec7f837	lui	x16,0x4ec7f	 x16=0x4ec7f000
       34155000	      3414	80001e7c	ca597a93	andi	x21,x18,-859	 x18:0x00000000 x21=0x00000000
       34165000	      3415	80001e80	00000013	addi	x0,x0,0	  x0:0x00000000
       34175000	      3416	80001e84	bce3e337	lui	x6,0xbce3e	  x6=0xbce3e000
       34185000	      3417	80001e88	01c71463	bne	x14,x28,80001e90	 x14:0x5dfa9c70 x28:0x80009fc4
       34195000	      3418	00000000	00000013	addi	x0,x0,0	  x0:0x00000000
       34205000	      3419	80001e8c	00000013	addi	x0,x0,0	  x0:0x00000000
       34215000	      3420	80001e90	00a15463	bge	x2,x10,80001e98	  x2:0x0002072c x10:0x00000000
       34225000	      3421	00000000	00000013	addi	x0,x0,0	  x0:0x00000000
       34235000	      3422	80001e94	00000013	addi	x0,x0,0	  x0:0x00000000
       34245000	      3423	80001e98	7a8be513	ori	x10,x23,1960	 x23:0x2915c800 x10=0x2915cfa8
       34255000	      3424	80001e9c	0020dcb3	srl	x25,x1,x2	  x1:0x00000000  x2:0x0002072c x25=0x00000000
       34265000	      3425	80001ea0	00d4b133	sltu	x2,x9,x13	  x9:0x00000000 x13:0x01418520  x2=0x00000001
       34275000	      3426	80001ea4	40f9df13	srai	x30,x19,0xf	 x19:0x0000019b x30=0x00000000
       34285000	      3427	80001ea8	97aed837	lui	x16,0x97aed	 x16=0x97aed000
       34295000	      3428	80001eac	014fcc63	blt	x31,x20,80001ec4	 x31:0x00000000 x20:0x00000000
       34305000	      3429	80001eb0	015e3333	sltu	x6,x28,x21	 x28:0x80009fc4 x21:0x00000000  x6=0x00000000
       34315000	      3430	80001eb4	00000013	addi	x0,x0,0	  x0:0x00000000
       34325000	      3431	80001eb8	03b4cc63	blt	x9,x27,80001ef0	  x9:0x00000000 x27:0x80009a8f
       34335000	      3432	80001ebc	05bfc863	blt	x31,x27,80001f0c	 x31:0x00000000 x27:0x80009a8f
       34345000	      3433	80001ec0	03751063	bne	x10,x23,80001ee0	 x10:0x2915cfa8 x23:0x2915c800
       34355000	      3434	00000000	00000013	addi	x0,x0,0	  x0:0x00000000
       34365000	      3435	80001edc	00000013	addi	x0,x0,0	  x0:0x00000000
       34375000	      3436	80001ee0	007c9c63	bne	x25,x7,80001ef8	 x25:0x00000000  x7:0xfffffa6f
       34385000	      3437	00000000	00000013	addi	x0,x0,0	  x0:0x00000000
       34395000	      3438	80001ef4	00000013	addi	x0,x0,0	  x0:0x00000000
       34405000	      3439	80001ef8	c297b313	sltiu	x6,x15,-983	 x15:0xffffff68  x6=0x00000000
       34415000	      3440	80001efc	7513a397	auipc	x7,0x7513a	  x7=0xf513bef8
       34425000	      3441	80001f00	02feda63	bge	x29,x15,80001f34	 x29:0x00000000 x15:0xffffff68
       34435000	      3442	00000000	00000013	addi	x0,x0,0	  x0:0x00000000
       34445000	      3443	80001f30	00000013	addi	x0,x0,0	  x0:0x00000000
       34455000	      3444	80001f34	02478063	beq	x15,x4,80001f54	 x15:0xffffff68  x4:0x000148ae
       34465000	      3445	80001f38	0143f6b3	and	x13,x7,x20	  x7:0xf513bef8 x20:0x00000000 x13=0x00000000
       34475000	      3446	80001f3c	05fad863	bge	x21,x31,80001f8c	 x21:0x00000000 x31:0x00000000
       34485000	      3447	00000000	00000013	addi	x0,x0,0	  x0:0x00000000
       34495000	      3448	80001f88	00000013	addi	x0,x0,0	  x0:0x00000000
       34505000	      3449	80001f8c	9c590213	addi	x4,x18,-1595	 x18:0x00000000  x4=0xfffff9c5
       34515000	      3450	80001f90	00000013	addi	x0,x0,0	  x0:0x00000000
       34525000	      3451	80001f94	00aaf263	bgeu	x21,x10,80001f98	 x21:0x00000000 x10:0x2915cfa8
       34535000	      3452	80001f98	009ee7b3	or	x15,x29,x9	 x29:0x00000000  x9:0x00000000 x15=0x00000000
       34545000	      3453	80001f9c	b628b993	sltiu	x19,x17,-1182	 x17:0x0000046d x19=0x00000001
       34555000	      3454	80001fa0	03186663	bltu	x16,x17,80001fcc	 x16:0x97aed000 x17:0x0000046d
       34565000	      3455	80001fa4	337cbc13	sltiu	x24,x25,823	 x25:0x00000000 x24=0x00000001
       34575000	      3456	80001fa8	026fca63	blt	x31,x6,80001fdc	 x31:0x00000000  x6:0x00000000
       34585000	      3457	80001fac	be704c13	xori	x24,x0,-1049	  x0:0x00000000 x24=0xfffffbe7
       34595000	      3458	80001fb0	8d244513	xori	x10,x8,-1838	  x8:0x0000009c x10=0xfffff84e
       34605000	      3459	80001fb4	0047d263	bge	x15,x4,80001fb8	 x15:0x00000000  x4:0xfffff9c5
       34615000	      3460	00000000	00000013	addi	x0,x0,0	  x0:0x00000000
       34625000	      3461	80001fb4	00000013	addi	x0,x0,0	  x0:0x00000000
       34635000	      3462	80001fb8	01be8cb3	add	x25,x29,x27	 x29:0x00000000 x27:0x80009a8f x25=0x80009a8f
       34645000	      3463	80001fbc	a96e3b93	sltiu	x23,x28,-1386	 x28:0x80009fc4 x23=0x00000001
       34655000	      3464	80001fc0	009c9c63	bne	x25,x9,80001fd8	 x25:0x80009a8f  x9:0x00000000
       34665000	      3465	00000000	00000013	addi	x0,x0,0	  x0:0x00000000
       34675000	      3466	80001fd4	00000013	addi	x0,x0,0	  x0:0x00000000
       34685000	      3467	80001fd8	5b264e93	xori	x29,x12,1458	 x12:0x00000000 x29=0x000005b2
       34695000	      3468	80001fdc	80676437	lui	x8,0x80676	  x8=0x80676000
       34705000	      3469	80001fe0	00100033	add	x0,x0,x1	  x0:0x00000000  x1:0x00000000
       34715000	      3470	80001fe4	404ad633	sra	x12,x21,x4	 x21:0x00000000  x4:0xfffff9c5 x12=0x00000000
       34725000	      3471	80001fe8	02624663	blt	x4,x6,80002014	  x4:0xfffff9c5  x6:0x00000000
       34735000	      3472	00000000	00000013	addi	x0,x0,0	  x0:0x00000000
       34745000	      3473	80002010	00000013	addi	x0,x0,0	  x0:0x00000000
       34755000	      3474	80002014	4113d193	srai	x3,x7,0x11	  x7:0xf513bef8  x3=0xfffffa89
       34765000	      3475	80002018	0186ec63	bltu	x13,x24,80002030	 x13:0x00000000 x24:0xfffffbe7
       34775000	      3476	00000000	00000013	addi	x0,x0,0	  x0:0x00000000
       34785000	      3477	8000202c	00000013	addi	x0,x0,0	  x0:0x00000000
       34795000	      3478	80002030	00000013	addi	x0,x0,0	  x0:0x00000000
       34805000	      3479	80002034	41ce87b3	sub	x15,x29,x28	 x29:0x000005b2 x28:0x80009fc4 x15=0x7fff65ee
       34815000	      3480	80002038	cb0acb17	auipc	x22,0xcb0ac	 x22=0x4b0ae034
       34825000	      3481	8000203c	00000013	addi	x0,x0,0	  x0:0x00000000
       34835000	      3482	80002040	01bf5b13	srli	x22,x30,0x1b	 x30:0x00000000 x22=0x00000000
       34845000	      3483	80002044	00515093	srli	x1,x2,0x5	  x2:0x00000001  x1=0x00000000
       34855000	      3484	80002048	5bbd4f97	auipc	x31,0x5bbd4	 x31=0xdbbd6044
       34865000	      3485	8000204c	05044217	auipc	x4,0x5044	  x4=0x85046048
       34875000	      3486	80002050	0987ee63	bltu	x15,x24,800020ec	 x15:0x7fff65ee x24:0xfffffbe7
       34885000	      3487	00000000	00000013	addi	x0,x0,0	  x0:0x00000000
       34895000	      3488	800020e8	00000013	addi	x0,x0,0	  x0:0x00000000
       34905000	      3489	800020ec	00eb9c13	slli	x24,x23,0xe	 x23:0x00000001 x24=0x00004000
       34915000	      3490	800020f0	0106e463	bltu	x13,x16,800020f8	 x13:0x00000000 x16:0x97aed000
       34925000	      3491	00000000	00000013	addi	x0,x0,0	  x0:0x00000000
       34935000	      3492	800020f4	00000013	addi	x0,x0,0	  x0:0x00000000
       34945000	      3493	800020f8	0235cc63	blt	x11,x3,80002130	 x11:0x00010554  x3:0xfffffa89
       34955000	      3494	800020fc	015eac33	slt	x24,x29,x21	 x29:0x000005b2 x21:0x00000000 x24=0x00000000
       34965000	      3495	80002100	57430413	addi	x8,x6,1396	  x6:0x00000000  x8=0x00000574
       34975000	      3496	80002104	017566b3	or	x13,x10,x23	 x10:0xfffff84e x23:0x00000001 x13=0xfffff84f
       34985000	      3497	80002108	b24098b7	lui	x17,0xb2409	 x17=0xb2409000
       34995000	      3498	8000210c	8f97fc97	auipc	x25,0x8f97f	 x25=0x0f981108
       35005000	      3499	80002110	01755db3	srl	x27,x10,x23	 x10:0xfffff84e x23:0x00000001 x27=0x7ffffc27
       35015000	      3500	80002114	4d2c8f13	addi	x30,x25,1234	 x25:0x0f981108 x30=0x0f9815da
       35025000	      3501	80002118	0179a033	slt	x0,x19,x23	 x19:0x00000001 x23:0x00000001
       35035000	      3502	8000211c	41c7df13	srai	x30,x15,0x1c	 x15:0x7fff65ee x30=0x00000007
       35045000	      3503	80002120	00623233	sltu	x4,x4,x6	  x4:0x85046048  x6:0x00000000  x4=0x00000000
       35055000	      3504	80002124	00b960b3	or	x1,x18,x11	 x18:0x00000000 x11:0x00010554  x1=0x00010554
       35065000	      3505	80002128	006ca633	slt	x12,x25,x6	 x25:0x0f981108  x6:0x00000000 x12=0x00000000
       35075000	      3506	8000212c	01685a33	srl	x20,x16,x22	 x16:0x97aed000 x22:0x00000000 x20=0x97aed000
       35085000	      3507	80002130	009ddc33	srl	x24,x27,x9	 x27:0x7ffffc27  x9:0x00000000 x24=0x7ffffc27
       35095000	      3508	80002134	00a4d693	srli	x13,x9,0xa	  x9:0x00000000 x13=0x00000000
       35105000	      3509	80002138	7bf9ee93	ori	x29,x19,1983	 x19:0x00000001 x29=0x000007bf
       35115000	      3510	8000213c	01532b33	slt	x22,x6,x21	  x6:0x00000000 x21:0x00000000 x22=0x00000000
       35125000	      3511	80002140	c84d0e93	addi	x29,x26,-892	 x26:0x80009efc x29=0x80009b80
       35135000	      3512	80002144	01d05613	srli	x12,x0,0x1d	  x0:0x00000000 x12=0x00000000
       35145000	      3513	80002148	00114633	xor	x12,x2,x1	  x2:0x00000001  x1:0x00010554 x12=0x00010555
       35155000	      3514	8000214c	41048533	sub	x10,x9,x16	  x9:0x00000000 x16:0x97aed000 x10=0x68513000
       35165000	      3515	80002150	d4c8b713	sltiu	x14,x17,-692	 x17:0xb2409000 x14=0x00000001
       35175000	      3516	80002154	4560ec13	ori	x24,x1,1110	  x1:0x00010554 x24=0x00010556
       35185000	      3517	80002158	0105f463	bgeu	x11,x16,80002160	 x11:0x00010554 x16:0x97aed000
       35195000	      3518	8000215c	03be7863	bgeu	x28,x27,8000218c	 x28:0x80009fc4 x27:0x7ffffc27
       35205000	      3519	00000000	00000013	addi	x0,x0,0	  x0:0x00000000
       35215000	      3520	80002188	00000013	addi	x0,x0,0	  x0:0x00000000
       35225000	      3521	8000218c	e0497793	andi	x15,x18,-508	 x18:0x00000000 x15=0x00000000
       35235000	      3522	80002190	01f4c533	xor	x10,x9,x31	  x9:0x00000000 x31:0xdbbd6044 x10=0xdbbd6044
       35245000	      3523	80002194	03b79063	bne	x15,x27,800021b4	 x15:0x00000000 x27:0x7ffffc27
       35255000	      3524	00000000	00000013	addi	x0,x0,0	  x0:0x00000000
       35265000	      3525	800021b0	00000013	addi	x0,x0,0	  x0:0x00000000
       35275000	      3526	800021b4	01ce81b3	add	x3,x29,x28	 x29:0x80009b80 x28:0x80009fc4  x3=0x00013b44
       35285000	      3527	800021b8	40e080b3	sub	x1,x1,x14	  x1:0x00010554 x14:0x00000001  x1=0x00010553
       35295000	      3528	800021bc	01674c63	blt	x14,x22,800021d4	 x14:0x00000001 x22:0x00000000
       35305000	      3529	800021c0	4083d7b3	sra	x15,x7,x8	  x7:0xf513bef8  x8:0x00000574 x15=0xffffff51
       35315000	      3530	800021c4	00451a33	sll	x20,x10,x4	 x10:0xdbbd6044  x4:0x00000000 x20=0xdbbd6044
       35325000	      3531	800021c8	406a8ab3	sub	x21,x21,x6	 x21:0x00000000  x6:0x00000000 x21=0x00000000
       35335000	      3532	800021cc	00acea63	bltu	x25,x10,800021e0	 x25:0x0f981108 x10:0xdbbd6044
       35345000	      3533	00000000	00000013	addi	x0,x0,0	  x0:0x00000000
       35355000	      3534	800021dc	00000013	addi	x0,x0,0	  x0:0x00000000
       35365000	      3535	800021e0	00421833	sll	x16,x4,x4	  x4:0x00000000  x4:0x00000000 x16=0x00000000
       35375000	      3536	800021e4	402458b3	sra	x17,x8,x2	  x8:0x00000574  x2:0x00000001 x17=0x000002ba
       35385000	      3537	800021e8	00b07db3	and	x27,x0,x11	  x0:0x00000000 x11:0x00010554 x27=0x00000000
       35395000	      3538	800021ec	403c5b13	srai	x22,x24,0x3	 x24:0x00010556 x22=0x000020aa
       35405000	      3539	800021f0	005fd593	srli	x11,x31,0x5	 x31:0xdbbd6044 x11=0x06ddeb02
       35415000	      3540	800021f4	00000013	addi	x0,x0,0	  x0:0x00000000
       35425000	      3541	800021f8	9d59e993	ori	x19,x19,-1579	 x19:0x00000001 x19=0xfffff9d5
       35435000	      3542	800021fc	0086c413	xori	x8,x13,8	 x13:0x00000000  x8=0x00000008
       35445000	      3543	80002200	42d5a513	slti	x10,x11,1069	 x11:0x06ddeb02 x10=0x00000000
       35455000	      3544	80002204	00f90933	add	x18,x18,x15	 x18:0x00000000 x15:0xffffff51 x18=0xffffff51
       35465000	      3545	80002208	00c35493	srli	x9,x6,0xc	  x6:0x00000000  x9=0x00000000
       35475000	      3546	8000220c	01ee1993	slli	x19,x28,0x1e	 x28:0x80009fc4 x19=0x00000000
       35485000	      3547	80002210	01191c33	sll	x24,x18,x17	 x18:0xffffff51 x17:0x000002ba x24=0x44000000
       35495000	      3548	80002214	40585a93	srai	x21,x16,0x5	 x16:0x00000000 x21=0x00000000
       35505000	      3549	80002218	01ba3ab3	sltu	x21,x20,x27	 x20:0xdbbd6044 x27:0x00000000 x21=0x00000000
       35515000	      3550	8000221c	4086dab3	sra	x21,x13,x8	 x13:0x00000000  x8:0x00000008 x21=0x00000000
       35525000	      3551	80002220	05998863	beq	x19,x25,80002270	 x19:0x00000000 x25:0x0f981108
       35535000	      3552	80002224	7d597c13	andi	x24,x18,2005	 x18:0xffffff51 x24=0x00000751
       35545000	      3553	80002228	010057b3	srl	x15,x0,x16	  x0:0x00000000 x16:0x00000000 x15=0x00000000
       35555000	      3554	8000222c	0060b033	sltu	x0,x1,x6	  x1:0x00010553  x6:0x00000000
       35565000	      3555	80002230	0321ea63	bltu	x3,x18,80002264	  x3:0x00013b44 x18:0xffffff51
       35575000	      3556	00000000	00000013	addi	x0,x0,0	  x0:0x00000000
       35585000	      3557	80002260	00000013	addi	x0,x0,0	  x0:0x00000000
       35595000	      3558	80002264	ba2c3213	sltiu	x4,x24,-1118	 x24:0x00000751  x4=0x00000001
       35605000	      3559	80002268	412553b7	lui	x7,0x41255	  x7=0x41255000
       35615000	      3560	8000226c	7230f693	andi	x13,x1,1827	  x1:0x00010553 x13=0x00000503
       35625000	      3561	80002270	01c6f733	and	x14,x13,x28	 x13:0x00000503 x28:0x80009fc4 x14=0x00000500
       35635000	      3562	80002274	00c51693	slli	x13,x10,0xc	 x10:0x00000000 x13=0x00000000
       35645000	      3563	80002278	01161e93	slli	x29,x12,0x11	 x12:0x00010555 x29=0x0aaa0000
       35655000	      3564	8000227c	00000013	addi	x0,x0,0	  x0:0x00000000
       35665000	      3565	80002280	01db2cb3	slt	x25,x22,x29	 x22:0x000020aa x29:0x0aaa0000 x25=0x00000001
       35675000	      3566	80002284	01eb7263	bgeu	x22,x30,80002288	 x22:0x000020aa x30:0x00000007
       35685000	      3567	00000000	00000013	addi	x0,x0,0	  x0:0x00000000
       35695000	      3568	80002284	00000013	addi	x0,x0,0	  x0:0x00000000
       35705000	      3569	80002288	9e61e393	ori	x7,x3,-1562	  x3:0x00013b44  x7=0xfffffbe6
       35715000	      3570	8000228c	021f4a63	blt	x30,x1,800022c0	 x30:0x00000007  x1:0x00010553
       35725000	      3571	00000000	00000013	addi	x0,x0,0	  x0:0x00000000
       35735000	      3572	800022bc	00000013	addi	x0,x0,0	  x0:0x00000000
       35745000	      3573	800022c0	005939b3	sltu	x19,x18,x5	 x18:0xffffff51  x5:0x80000000 x19=0x00000000
       35755000	      3574	800022c4	3784ed93	ori	x27,x9,888	  x9:0x00000000 x27=0x00000378
       35765000	      3575	800022c8	003120b3	slt	x1,x2,x3	  x2:0x00000001  x3:0x00013b44  x1=0x00000001
       35775000	      3576	800022cc	00000013	addi	x0,x0,0	  x0:0x00000000
       35785000	      3577	800022d0	004574b3	and	x9,x10,x4	 x10:0x00000000  x4:0x00000001  x9=0x00000000
       35795000	      3578	800022d4	00ee2633	slt	x12,x28,x14	 x28:0x80009fc4 x14:0x00000500 x12=0x00000001
       35805000	      3579	800022d8	002d1c13	slli	x24,x26,0x2	 x26:0x80009efc x24=0x00027bf0
       35815000	      3580	800022dc	41208533	sub	x10,x1,x18	  x1:0x00000001 x18:0xffffff51 x10=0x000000b0
       35825000	      3581	800022e0	801a8993	addi	x19,x21,-2047	 x21:0x00000000 x19=0xfffff801
       35835000	      3582	800022e4	55824c93	xori	x25,x4,1368	  x4:0x00000001 x25=0x00000559
       35845000	      3583	800022e8	00b03397	auipc	x7,0xb03	  x7=0x80b052e4
       35855000	      3584	800022ec	00000013	addi	x0,x0,0	  x0:0x00000000
       35865000	      3585	800022f0	00d137b3	sltu	x15,x2,x13	  x2:0x00000001 x13:0x00000000 x15=0x00000000
       35875000	      3586	800022f4	00c75b93	srli	x23,x14,0xc	 x14:0x00000500 x23=0x00000000
       35885000	      3587	800022f8	43bbf117	auipc	x2,0x43bbf	  x2=0xc3bc12f4
       35895000	      3588	800022fc	00e8c5b3	xor	x11,x17,x14	 x17:0x000002ba x14:0x00000500 x11=0x000007ba
       35905000	      3589	80002300	237af1b7	lui	x3,0x237af	  x3=0x237af000
       35915000	      3590	80002304	079b3e93	sltiu	x29,x22,121	 x22:0x000020aa x29=0x00000000
       35925000	      3591	80002308	b1496593	ori	x11,x18,-1260	 x18:0xffffff51 x11=0xffffff55
       35935000	      3592	8000230c	00000013	addi	x0,x0,0	  x0:0x00000000
       35945000	      3593	80002310	00f9d493	srli	x9,x19,0xf	 x19:0xfffff801  x9=0x0001ffff
       35955000	      3594	80002314	00d4ce63	blt	x9,x13,80002330	  x9:0x0001ffff x13:0x00000000
       35965000	      3595	80002318	4176d313	srai	x6,x13,0x17	 x13:0x00000000  x6=0x00000000
       35975000	      3596	8000231c	036e6a63	bltu	x28,x22,80002350	 x28:0x80009fc4 x22:0x000020aa
       35985000	      3597	80002320	0105c7b3	xor	x15,x11,x16	 x11:0xffffff55 x16:0x00000000 x15=0xffffff55
       35995000	      3598	80002324	01004133	xor	x2,x0,x16	  x0:0x00000000 x16:0x00000000  x2=0x00000000
       36005000	      3599	80002328	84a4d517	auipc	x10,0x84a4d	 x10=0x04a4f324
       36015000	      3600	8000232c	c12f6f97	auipc	x31,0xc12f6	 x31=0x412f8328
       36025000	      3601	80002330	01e01513	slli	x10,x0,0x1e	  x0:0x00000000 x10=0x00000000
       36035000	      3602	80002334	be38f093	andi	x1,x17,-1053	 x17:0x000002ba  x1=0x000002a2
       36045000	      3603	80002338	01a36cb3	or	x25,x6,x26	  x6:0x00000000 x26:0x80009efc x25=0x80009efc
       36055000	      3604	8000233c	78e108b7	lui	x17,0x78e10	 x17=0x78e10000
       36065000	      3605	80002340	55ba3c93	sltiu	x25,x20,1371	 x20:0xdbbd6044 x25=0x00000000
       36075000	      3606	80002344	01816863	bltu	x2,x24,80002354	  x2:0x00000000 x24:0x00027bf0
       36085000	      3607	00000000	00000013	addi	x0,x0,0	  x0:0x00000000
       36095000	      3608	80002350	00000013	addi	x0,x0,0	  x0:0x00000000
       36105000	      3609	80002354	1b654b13	xori	x22,x10,438	 x10:0x00000000 x22=0x000001b6
       36115000	      3610	80002358	162ca217	auipc	x4,0x162ca	  x4=0x962cc354
       36125000	      3611	8000235c	cdfa7993	andi	x19,x20,-801	 x20:0xdbbd6044 x19=0xdbbd6044
       36135000	      3612	80002360	40da5a93	srai	x21,x20,0xd	 x20:0xdbbd6044 x21=0xfffeddeb
       36145000	      3613	80002364	01711c63	bne	x2,x23,8000237c	  x2:0x00000000 x23:0x00000000
       36155000	      3614	80002368	01564cb3	xor	x25,x12,x21	 x12:0x00000001 x21:0xfffeddeb x25=0xfffeddea
       36165000	      3615	8000236c	042f0263	beq	x30,x2,800023b0	 x30:0x00000007  x2:0x00000000
       36175000	      3616	80002370	00a9f6b3	and	x13,x19,x10	 x19:0xdbbd6044 x10:0x00000000 x13=0x00000000
       36185000	      3617	80002374	00000013	addi	x0,x0,0	  x0:0x00000000
       36195000	      3618	80002378	00679393	slli	x7,x15,0x6	 x15:0xffffff55  x7=0xffffd540
       36205000	      3619	8000237c	414b8ab3	sub	x21,x23,x20	 x23:0x00000000 x20:0xdbbd6044 x21=0x24429fbc
       36215000	      3620	80002380	01a1cfb3	xor	x31,x3,x26	  x3:0x237af000 x26:0x80009efc x31=0xa37a6efc
       36225000	      3621	80002384	0028c663	blt	x17,x2,80002390	 x17:0x78e10000  x2:0x00000000
       36235000	      3622	80002388	01b77463	bgeu	x14,x27,80002390	 x14:0x00000500 x27:0x00000378
       36245000	      3623	00000000	00000013	addi	x0,x0,0	  x0:0x00000000
       36255000	      3624	8000238c	00000013	addi	x0,x0,0	  x0:0x00000000
       36265000	      3625	80002390	f69e2893	slti	x17,x28,-151	 x28:0x80009fc4 x17=0x00000001
       36275000	      3626	80002394	02110c63	beq	x2,x1,800023cc	  x2:0x00000000  x1:0x000002a2
       36285000	      3627	80002398	70956413	ori	x8,x10,1801	 x10:0x00000000  x8=0x00000709
       36295000	      3628	8000239c	01515693	srli	x13,x2,0x15	  x2:0x00000000 x13=0x00000000
       36305000	      3629	800023a0	049d1263	bne	x26,x9,800023e4	 x26:0x80009efc  x9:0x0001ffff
       36315000	      3630	00000000	00000013	addi	x0,x0,0	  x0:0x00000000
       36325000	      3631	800023e0	00000013	addi	x0,x0,0	  x0:0x00000000
       36335000	      3632	800023e4	00ac9733	sll	x14,x25,x10	 x25:0xfffeddea x10:0x00000000 x14=0xfffeddea
       36345000	      3633	800023e8	04538a13	addi	x20,x7,69	  x7:0xffffd540 x20=0xffffd585
       36355000	      3634	800023ec	00f9d413	srli	x8,x19,0xf	 x19:0xdbbd6044  x8=0x0001b77a
       36365000	      3635	800023f0	475a20b7	lui	x1,0x475a2	  x1=0x475a2000
       36375000	      3636	800023f4	00000013	addi	x0,x0,0	  x0:0x00000000
       36385000	      3637	800023f8	01ece1b3	or	x3,x25,x30	 x25:0xfffeddea x30:0x00000007  x3=0xfffeddef
       36395000	      3638	800023fc	009e9c63	bne	x29,x9,80002414	 x29:0x00000000  x9:0x0001ffff
       36405000	      3639	00000000	00000013	addi	x0,x0,0	  x0:0x00000000
       36415000	      3640	80002410	00000013	addi	x0,x0,0	  x0:0x00000000
       36425000	      3641	80002414	fcd1ec93	ori	x25,x3,-51	  x3:0xfffeddef x25=0xffffffef
       36435000	      3642	80002418	0a0cf993	andi	x19,x25,160	 x25:0xffffffef x19=0x000000a0
       36445000	      3643	8000241c	03fc6063	bltu	x24,x31,8000243c	 x24:0x00027bf0 x31:0xa37a6efc
       36455000	      3644	00000000	00000013	addi	x0,x0,0	  x0:0x00000000
       36465000	      3645	80002438	00000013	addi	x0,x0,0	  x0:0x00000000
       36475000	      3646	8000243c	305473b7	lui	x7,0x30547	  x7=0x30547000
       36485000	      3647	80002440	eda96697	auipc	x13,0xeda96	 x13=0x6da9843c
       36495000	      3648	80002444	ae500493	addi	x9,x0,-1307	  x0:0x00000000  x9=0xfffffae5
       36505000	      3649	80002448	019361b3	or	x3,x6,x25	  x6:0x00000000 x25:0xffffffef  x3=0xffffffef
       36515000	      3650	8000244c	009eb333	sltu	x6,x29,x9	 x29:0x00000000  x9:0xfffffae5  x6=0x00000001
       36525000	      3651	80002450	16cfe493	ori	x9,x31,364	 x31:0xa37a6efc  x9=0xa37a6ffc
       36535000	      3652	80002454	03909063	bne	x1,x25,80002474	  x1:0x475a2000 x25:0xffffffef
       36545000	      3653	00000000	00000013	addi	x0,x0,0	  x0:0x00000000
       36555000	      3654	80002470	00000013	addi	x0,x0,0	  x0:0x00000000
       36565000	      3655	80002474	00325a13	srli	x20,x4,0x3	  x4:0x962cc354 x20=0x12c5986a
       36575000	      3656	80002478	01eacfb3	xor	x31,x21,x30	 x21:0x24429fbc x30:0x00000007 x31=0x24429fbb
       36585000	      3657	8000247c	02258a63	beq	x11,x2,800024b0	 x11:0xffffff55  x2:0x00000000
       36595000	      3658	80002480	40a85013	srai	x0,x16,0xa	 x16:0x00000000
       36605000	      3659	80002484	d0bc4013	xori	x0,x24,-757	 x24:0x00027bf0
       36615000	      3660	80002488	03067063	bgeu	x12,x16,800024a8	 x12:0x00000001 x16:0x00000000
       36625000	      3661	00000000	00000013	addi	x0,x0,0	  x0:0x00000000
       36635000	      3662	800024a4	00000013	addi	x0,x0,0	  x0:0x00000000
       36645000	      3663	800024a8	01da6663	bltu	x20,x29,800024b4	 x20:0x12c5986a x29:0x00000000
       36655000	      3664	800024ac	010335b3	sltu	x11,x6,x16	  x6:0x00000001 x16:0x00000000 x11=0x00000000
       36665000	      3665	800024b0	41e68033	sub	x0,x13,x30	 x13:0x6da9843c x30:0x00000007
       36675000	      3666	800024b4	01c47633	and	x12,x8,x28	  x8:0x0001b77a x28:0x80009fc4 x12=0x00009740
       36685000	      3667	800024b8	00234a33	xor	x20,x6,x2	  x6:0x00000001  x2:0x00000000 x20=0x00000001
       36695000	      3668	800024bc	d551dbb7	lui	x23,0xd551d	 x23=0xd551d000
       36705000	      3669	800024c0	01e32133	slt	x2,x6,x30	  x6:0x00000001 x30:0x00000007  x2=0x00000001
       36715000	      3670	800024c4	41f8dbb3	sra	x23,x17,x31	 x17:0x00000001 x31:0x24429fbb x23=0x00000000
       36725000	      3671	800024c8	00311b93	slli	x23,x2,0x3	  x2:0x00000001 x23=0x00000008
       36735000	      3672	800024cc	00000013	addi	x0,x0,0	  x0:0x00000000
       36745000	      3673	800024d0	00352bb3	slt	x23,x10,x3	 x10:0x00000000  x3:0xffffffef x23=0x00000000
       36755000	      3674	800024d4	01a39113	slli	x2,x7,0x1a	  x7:0x30547000  x2=0x00000000
       36765000	      3675	800024d8	41590bb3	sub	x23,x18,x21	 x18:0xffffff51 x21:0x24429fbc x23=0xdbbd5f95
       36775000	      3676	800024dc	69450e93	addi	x29,x10,1684	 x10:0x00000000 x29=0x00000694
       36785000	      3677	800024e0	01d1d013	srli	x0,x3,0x1d	  x3:0xffffffef
       36795000	      3678	800024e4	07521b97	auipc	x23,0x7521	 x23=0x875234e0
       36805000	      3679	800024e8	405a5033	sra	x0,x20,x5	 x20:0x00000001  x5:0x80000000
       36815000	      3680	800024ec	010c9993	slli	x19,x25,0x10	 x25:0xffffffef x19=0xffef0000
       36825000	      3681	800024f0	01795993	srli	x19,x18,0x17	 x18:0xffffff51 x19=0x000001ff
       36835000	      3682	800024f4	0339ea63	bltu	x19,x19,80002528	 x19:0x000001ff x19:0x000001ff
       36845000	      3683	800024f8	4048d713	srai	x14,x17,0x4	 x17:0x00000001 x14=0x00000000
       36855000	      3684	800024fc	40588433	sub	x8,x17,x5	 x17:0x00000001  x5:0x80000000  x8=0x80000001
       36865000	      3685	80002500	00000013	addi	x0,x0,0	  x0:0x00000000
       36875000	      3686	80002504	01a2d613	srli	x12,x5,0x1a	  x5:0x80000000 x12=0x00000020
       36885000	      3687	80002508	01ce20b3	slt	x1,x28,x28	 x28:0x80009fc4 x28:0x80009fc4  x1=0x00000000
       36895000	      3688	8000250c	0084f3b3	and	x7,x9,x8	  x9:0xa37a6ffc  x8:0x80000001  x7=0x80000000
       36905000	      3689	80002510	00919833	sll	x16,x3,x9	  x3:0xffffffef  x9:0xa37a6ffc x16=0xf0000000
       36915000	      3690	80002514	01a89b33	sll	x22,x17,x26	 x17:0x00000001 x26:0x80009efc x22=0x10000000
       36925000	      3691	80002518	411a0ab3	sub	x21,x20,x17	 x20:0x00000001 x17:0x00000001 x21=0x00000000
       36935000	      3692	8000251c	c1908937	lui	x18,0xc1908	 x18=0xc1908000
       36945000	      3693	80002520	d391ab13	slti	x22,x3,-711	  x3:0xffffffef x22=0x00000000
       36955000	      3694	80002524	ff3b7413	andi	x8,x22,-13	 x22:0x00000000  x8=0x00000000
       36965000	      3695	80002528	01a436b3	sltu	x13,x8,x26	  x8:0x00000000 x26:0x80009efc x13=0x00000001
       36975000	      3696	8000252c	01608933	add	x18,x1,x22	  x1:0x00000000 x22:0x00000000 x18=0x00000000
       36985000	      3697	80002530	01e02a33	slt	x20,x0,x30	  x0:0x00000000 x30:0x00000007 x20=0x00000001
       36995000	      3698	80002534	03788663	beq	x17,x23,80002560	 x17:0x00000001 x23:0x875234e0
       37005000	      3699	80002538	02f8d663	bge	x17,x15,80002564	 x17:0x00000001 x15:0xffffff55
       37015000	      3700	00000000	00000013	addi	x0,x0,0	  x0:0x00000000
       37025000	      3701	80002560	00000013	addi	x0,x0,0	  x0:0x00000000
       37035000	      3702	80002564	418555b3	sra	x11,x10,x24	 x10:0x00000000 x24:0x00027bf0 x11=0x00000000
       37045000	      3703	80002568	40eb5813	srai	x16,x22,0xe	 x22:0x00000000 x16=0x00000000
       37055000	      3704	8000256c	0047d463	bge	x15,x4,80002574	 x15:0xffffff55  x4:0x962cc354
       37065000	      3705	00000000	00000013	addi	x0,x0,0	  x0:0x00000000
       37075000	      3706	80002570	00000013	addi	x0,x0,0	  x0:0x00000000
       37085000	      3707	80002574	00959c93	slli	x25,x11,0x9	 x11:0x00000000 x25=0x00000000
       37095000	      3708	80002578	13752993	slti	x19,x10,311	 x10:0x00000000 x19=0x00000001
       37105000	      3709	8000257c	27253a93	sltiu	x21,x10,626	 x10:0x00000000 x21=0x00000001
       37115000	      3710	80002580	04c64863	blt	x12,x12,800025d0	 x12:0x00000020 x12:0x00000020
       37125000	      3711	80002584	0465e663	bltu	x11,x6,800025d0	 x11:0x00000000  x6:0x00000001
       37135000	      3712	00000000	00000013	addi	x0,x0,0	  x0:0x00000000
       37145000	      3713	800025cc	00000013	addi	x0,x0,0	  x0:0x00000000
       37155000	      3714	800025d0	01f7ec63	bltu	x15,x31,800025e8	 x15:0xffffff55 x31:0x24429fbb
       37165000	      3715	800025d4	01dc9263	bne	x25,x29,800025d8	 x25:0x00000000 x29:0x00000694
       37175000	      3716	00000000	00000013	addi	x0,x0,0	  x0:0x00000000
       37185000	      3717	800025d4	00000013	addi	x0,x0,0	  x0:0x00000000
       37195000	      3718	800025d8	00c75263	bge	x14,x12,800025dc	 x14:0x00000000 x12:0x00000020
       37205000	      3719	800025dc	01b11ab3	sll	x21,x2,x27	  x2:0x00000000 x27:0x00000378 x21=0x00000000
       37215000	      3720	800025e0	0129b0b3	sltu	x1,x19,x18	 x19:0x00000001 x18:0x00000000  x1=0x00000000
       37225000	      3721	800025e4	00d56933	or	x18,x10,x13	 x10:0x00000000 x13:0x00000001 x18=0x00000001
       37235000	      3722	800025e8	06e96193	ori	x3,x18,110	 x18:0x00000001  x3=0x0000006f
       37245000	      3723	800025ec	30e41117	auipc	x2,0x30e41	  x2=0xb0e435e8
       37255000	      3724	800025f0	a5c28493	addi	x9,x5,-1444	  x5:0x80000000  x9=0x7ffffa5c
       37265000	      3725	800025f4	0115a5b3	slt	x11,x11,x17	 x11:0x00000000 x17:0x00000001 x11=0x00000001
       37275000	      3726	800025f8	d48a6f13	ori	x30,x20,-696	 x20:0x00000001 x30=0xfffffd49
       37285000	      3727	800025fc	009f7c63	bgeu	x30,x9,80002614	 x30:0xfffffd49  x9:0x7ffffa5c
       37295000	      3728	00000000	00000013	addi	x0,x0,0	  x0:0x00000000
       37305000	      3729	80002610	00000013	addi	x0,x0,0	  x0:0x00000000
       37315000	      3730	80002614	00000013	addi	x0,x0,0	  x0:0x00000000
       37325000	      3731	80002618	00637a63	bgeu	x6,x6,8000262c	  x6:0x00000001  x6:0x00000001
       37335000	      3732	00000000	00000013	addi	x0,x0,0	  x0:0x00000000
       37345000	      3733	80002628	00000013	addi	x0,x0,0	  x0:0x00000000
       37355000	      3734	8000262c	990451b7	lui	x3,0x99045	  x3=0x99045000
       37365000	      3735	80002630	ea0f3d93	sltiu	x27,x30,-352	 x30:0xfffffd49 x27=0x00000001
       37375000	      3736	80002634	01051db3	sll	x27,x10,x16	 x10:0x00000000 x16:0x00000000 x27=0x00000000
       37385000	      3737	80002638	d3f33d93	sltiu	x27,x6,-705	  x6:0x00000001 x27=0x00000001
       37395000	      3738	8000263c	41d75813	srai	x16,x14,0x1d	 x14:0x00000000 x16=0x00000000
       37405000	      3739	80002640	0087d863	bge	x15,x8,80002650	 x15:0xffffff55  x8:0x00000000
       37415000	      3740	80002644	12611637	lui	x12,0x12611	 x12=0x12611000
       37425000	      3741	80002648	00165cb3	srl	x25,x12,x1	 x12:0x12611000  x1:0x00000000 x25=0x12611000
       37435000	      3742	8000264c	018e5c63	bge	x28,x24,80002664	 x28:0x80009fc4 x24:0x00027bf0
       37445000	      3743	80002650	00273433	sltu	x8,x14,x2	 x14:0x00000000  x2:0xb0e435e8  x8=0x00000001
       37455000	      3744	80002654	01613ab3	sltu	x21,x2,x22	  x2:0xb0e435e8 x22:0x00000000 x21=0x00000000
       37465000	      3745	80002658	01a1d263	bge	x3,x26,8000265c	  x3:0x99045000 x26:0x80009efc
       37475000	      3746	00000000	00000013	addi	x0,x0,0	  x0:0x00000000
       37485000	      3747	80002658	00000013	addi	x0,x0,0	  x0:0x00000000
       37495000	      3748	8000265c	52bffb13	andi	x22,x31,1323	 x31:0x24429fbb x22=0x0000052b
       37505000	      3749	80002660	00e046b3	xor	x13,x0,x14	  x0:0x00000000 x14:0x00000000 x13=0x00000000
       37515000	      3750	80002664	0242ca63	blt	x5,x4,80002698	  x5:0x80000000  x4:0x962cc354
       37525000	      3751	00000000	00000013	addi	x0,x0,0	  x0:0x00000000
       37535000	      3752	80002694	00000013	addi	x0,x0,0	  x0:0x00000000
       37545000	      3753	80002698	005a6e63	bltu	x20,x5,800026b4	 x20:0x00000001  x5:0x80000000
       37555000	      3754	00000000	00000013	addi	x0,x0,0	  x0:0x00000000
       37565000	      3755	800026b0	00000013	addi	x0,x0,0	  x0:0x00000000
       37575000	      3756	800026b4	01f11193	slli	x3,x2,0x1f	  x2:0xb0e435e8  x3=0x00000000
       37585000	      3757	800026b8	418e5713	srai	x14,x28,0x18	 x28:0x80009fc4 x14=0xffffff80
       37595000	      3758	800026bc	0017c663	blt	x15,x1,800026c8	 x15:0xffffff55  x1:0x00000000
       37605000	      3759	00000000	00000013	addi	x0,x0,0	  x0:0x00000000
       37615000	      3760	800026c4	00000013	addi	x0,x0,0	  x0:0x00000000
       37625000	      3761	800026c8	00484133	xor	x2,x16,x4	 x16:0x00000000  x4:0x962cc354  x2=0x962cc354
       37635000	      3762	800026cc	03ecd663	bge	x25,x30,800026f8	 x25:0x12611000 x30:0xfffffd49
       37645000	      3763	00000000	00000013	addi	x0,x0,0	  x0:0x00000000
       37655000	      3764	800026f4	00000013	addi	x0,x0,0	  x0:0x00000000
       37665000	      3765	800026f8	016c36b3	sltu	x13,x24,x22	 x24:0x00027bf0 x22:0x0000052b x13=0x00000000
       37675000	      3766	800026fc	401f8493	addi	x9,x31,1025	 x31:0x24429fbb  x9=0x2442a3bc
       37685000	      3767	80002700	00000013	addi	x0,x0,0	  x0:0x00000000
       37695000	      3768	80002704	01f84033	xor	x0,x16,x31	 x16:0x00000000 x31:0x24429fbb
       37705000	      3769	80002708	0044bb33	sltu	x22,x9,x4	  x9:0x2442a3bc  x4:0x962cc354 x22=0x00000001
       37715000	      3770	8000270c	00005fb3	srl	x31,x0,x0	  x0:0x00000000  x0:0x00000000 x31=0x00000000
       37725000	      3771	80002710	00557433	and	x8,x10,x5	 x10:0x00000000  x5:0x80000000  x8=0x00000000
       37735000	      3772	80002714	012663b3	or	x7,x12,x18	 x12:0x12611000 x18:0x00000001  x7=0x12611001
       37745000	      3773	80002718	01933433	sltu	x8,x6,x25	  x6:0x00000001 x25:0x12611000  x8=0x00000001
       37755000	      3774	8000271c	00c71013	slli	x0,x14,0xc	 x14:0xffffff80
       37765000	      3775	80002720	01dd0863	beq	x26,x29,80002730	 x26:0x80009efc x29:0x00000694
       37775000	      3776	80002724	00a0e833	or	x16,x1,x10	  x1:0x00000000 x10:0x00000000 x16=0x00000000
       37785000	      3777	80002728	009428b3	slt	x17,x8,x9	  x8:0x00000001  x9:0x2442a3bc x17=0x00000001
       37795000	      3778	8000272c	03fd6863	bltu	x26,x31,8000275c	 x26:0x80009efc x31:0x00000000
       37805000	      3779	80002730	5f2a8f93	addi	x31,x21,1522	 x21:0x00000000 x31=0x000005f2
       37815000	      3780	80002734	419e51b3	sra	x3,x28,x25	 x28:0x80009fc4 x25:0x12611000  x3=0x80009fc4
       37825000	      3781	80002738	41905b33	sra	x22,x0,x25	  x0:0x00000000 x25:0x12611000 x22=0x00000000
       37835000	      3782	8000273c	ac550213	addi	x4,x10,-1339	 x10:0x00000000  x4=0xfffffac5
       37845000	      3783	80002740	01162db3	slt	x27,x12,x17	 x12:0x12611000 x17:0x00000001 x27=0x00000000
       37855000	      3784	80002744	03399663	bne	x19,x19,80002770	 x19:0x00000001 x19:0x00000001
       37865000	      3785	80002748	00ed7463	bgeu	x26,x14,80002750	 x26:0x80009efc x14:0xffffff80
       37875000	      3786	8000274c	5a686017	auipc	x0,0x5a686	
       37885000	      3787	80002750	001abab3	sltu	x21,x21,x1	 x21:0x00000000  x1:0x00000000 x21=0x00000000
       37895000	      3788	80002754	00415c33	srl	x24,x2,x4	  x2:0x962cc354  x4:0xfffffac5 x24=0x04b1661a
       37905000	      3789	80002758	e3b9abb7	lui	x23,0xe3b9a	 x23=0xe3b9a000
       37915000	      3790	8000275c	00440433	add	x8,x8,x4	  x8:0x00000001  x4:0xfffffac5  x8=0xfffffac6
       37925000	      3791	80002760	00d7a7b3	slt	x15,x15,x13	 x15:0xffffff55 x13:0x00000000 x15=0x00000001
       37935000	      3792	80002764	408b8b33	sub	x22,x23,x8	 x23:0xe3b9a000  x8:0xfffffac6 x22=0xe3b9a53a
       37945000	      3793	80002768	01a3d3b3	srl	x7,x7,x26	  x7:0x12611001 x26:0x80009efc  x7=0x00000001
       37955000	      3794	8000276c	00fd9c63	bne	x27,x15,80002784	 x27:0x00000000 x15:0x00000001
       37965000	      3795	00000000	00000013	addi	x0,x0,0	  x0:0x00000000
       37975000	      3796	80002780	00000013	addi	x0,x0,0	  x0:0x00000000
       37985000	      3797	80002784	0076eab3	or	x21,x13,x7	 x13:0x00000000  x7:0x00000001 x21=0x00000001
       37995000	      3798	80002788	e3ee7793	andi	x15,x28,-450	 x28:0x80009fc4 x15=0x80009e04
       38005000	      3799	8000278c	4b873f93	sltiu	x31,x14,1208	 x14:0xffffff80 x31=0x00000000
       38015000	      3800	80002790	0078e7b3	or	x15,x17,x7	 x17:0x00000001  x7:0x00000001 x15=0x00000001
       38025000	      3801	80002794	04e36263	bltu	x6,x14,800027d8	  x6:0x00000001 x14:0xffffff80
       38035000	      3802	00000000	00000013	addi	x0,x0,0	  x0:0x00000000
       38045000	      3803	800027d4	00000013	addi	x0,x0,0	  x0:0x00000000
       38055000	      3804	800027d8	00ff6463	bltu	x30,x15,800027e0	 x30:0xfffffd49 x15:0x00000001
       38065000	      3805	800027dc	03704497	auipc	x9,0x3704	  x9=0x837067d8
       38075000	      3806	800027e0	41d9d613	srai	x12,x19,0x1d	 x19:0x00000001 x12=0x00000000
       38085000	      3807	800027e4	00878c63	beq	x15,x8,800027fc	 x15:0x00000001  x8:0xfffffac6
       38095000	      3808	800027e8	006dfa33	and	x20,x27,x6	 x27:0x00000000  x6:0x00000001 x20=0x00000000
       38105000	      3809	800027ec	00000013	addi	x0,x0,0	  x0:0x00000000
       38115000	      3810	800027f0	00cc0db3	add	x27,x24,x12	 x24:0x04b1661a x12:0x00000000 x27=0x04b1661a
       38125000	      3811	800027f4	010c0463	beq	x24,x16,800027fc	 x24:0x04b1661a x16:0x00000000
       38135000	      3812	800027f8	00911013	slli	x0,x2,0x9	  x2:0x962cc354
       38145000	      3813	800027fc	01a0d5b3	srl	x11,x1,x26	  x1:0x00000000 x26:0x80009efc x11=0x00000000
       38155000	      3814	80002800	7bca2493	slti	x9,x20,1980	 x20:0x00000000  x9=0x00000001
       38165000	      3815	80002804	04864863	blt	x12,x8,80002854	 x12:0x00000000  x8:0xfffffac6
       38175000	      3816	80002808	02bc1063	bne	x24,x11,80002828	 x24:0x04b1661a x11:0x00000000
       38185000	      3817	00000000	00000013	addi	x0,x0,0	  x0:0x00000000
       38195000	      3818	80002824	00000013	addi	x0,x0,0	  x0:0x00000000
       38205000	      3819	80002828	ac627013	andi	x0,x4,-1338	  x4:0xfffffac5
       38215000	      3820	8000282c	415bd793	srai	x15,x23,0x15	 x23:0xe3b9a000 x15=0xffffff1d
       38225000	      3821	80002830	00000013	addi	x0,x0,0	  x0:0x00000000
       38235000	      3822	80002834	4048d4b3	sra	x9,x17,x4	 x17:0x00000001  x4:0xfffffac5  x9=0x00000000
       38245000	      3823	80002838	a39d6113	ori	x2,x26,-1479	 x26:0x80009efc  x2=0xfffffefd
       38255000	      3824	8000283c	0dccea13	ori	x20,x25,220	 x25:0x12611000 x20=0x126110dc
       38265000	      3825	80002840	c5f96813	ori	x16,x18,-929	 x18:0x00000001 x16=0xfffffc5f
       38275000	      3826	80002844	00a6c5b3	xor	x11,x13,x10	 x13:0x00000000 x10:0x00000000 x11=0x00000000
       38285000	      3827	80002848	400c0233	sub	x4,x24,x0	 x24:0x04b1661a  x0:0x00000000  x4=0x04b1661a
       38295000	      3828	8000284c	40545ab3	sra	x21,x8,x5	  x8:0xfffffac6  x5:0x80000000 x21=0xfffffac6
       38305000	      3829	80002850	00580ab3	add	x21,x16,x5	 x16:0xfffffc5f  x5:0x80000000 x21=0x7ffffc5f
       38315000	      3830	80002854	01dcabb3	slt	x23,x25,x29	 x25:0x12611000 x29:0x00000694 x23=0x00000000
       38325000	      3831	80002858	01d9a333	slt	x6,x19,x29	 x19:0x00000001 x29:0x00000694  x6=0x00000001
       38335000	      3832	8000285c	412153b3	sra	x7,x2,x18	  x2:0xfffffefd x18:0x00000001  x7=0xffffff7e
       38345000	      3833	80002860	81f7a393	slti	x7,x15,-2017	 x15:0xffffff1d  x7=0x00000000
       38355000	      3834	80002864	007a4433	xor	x8,x20,x7	 x20:0x126110dc  x7:0x00000000  x8=0x126110dc
       38365000	      3835	80002868	41cf85b3	sub	x11,x31,x28	 x31:0x00000000 x28:0x80009fc4 x11=0x7fff603c
       38375000	      3836	8000286c	00fb5c63	bge	x22,x15,80002884	 x22:0xe3b9a53a x15:0xffffff1d
       38385000	      3837	80002870	4fa2ff37	lui	x30,0x4fa2f	 x30=0x4fa2f000
       38395000	      3838	80002874	02885a63	bge	x16,x8,800028a8	 x16:0xfffffc5f  x8:0x126110dc
       38405000	      3839	80002878	9cfd7a13	andi	x20,x26,-1585	 x26:0x80009efc x20=0x800098cc
       38415000	      3840	8000287c	40f28433	sub	x8,x5,x15	  x5:0x80000000 x15:0xffffff1d  x8=0x800000e3
       38425000	      3841	80002880	00f0eb33	or	x22,x1,x15	  x1:0x00000000 x15:0xffffff1d x22=0xffffff1d
       38435000	      3842	80002884	019b0333	add	x6,x22,x25	 x22:0xffffff1d x25:0x12611000  x6=0x12610f1d
       38445000	      3843	80002888	012c6e63	bltu	x24,x18,800028a4	 x24:0x04b1661a x18:0x00000001
       38455000	      3844	8000288c	c6853093	sltiu	x1,x10,-920	 x10:0x00000000  x1=0x00000001
       38465000	      3845	80002890	406e0733	sub	x14,x28,x6	 x28:0x80009fc4  x6:0x12610f1d x14=0x6d9f90a7
       38475000	      3846	80002894	00000013	addi	x0,x0,0	  x0:0x00000000
       38485000	      3847	80002898	01f79533	sll	x10,x15,x31	 x15:0xffffff1d x31:0x00000000 x10=0xffffff1d
       38495000	      3848	8000289c	504ba093	slti	x1,x23,1284	 x23:0x00000000  x1=0x00000001
       38505000	      3849	800028a0	01f690b3	sll	x1,x13,x31	 x13:0x00000000 x31:0x00000000  x1=0x00000000
       38515000	      3850	800028a4	030c6663	bltu	x24,x16,800028d0	 x24:0x04b1661a x16:0xfffffc5f
       38525000	      3851	00000000	00000013	addi	x0,x0,0	  x0:0x00000000
       38535000	      3852	800028cc	00000013	addi	x0,x0,0	  x0:0x00000000
       38545000	      3853	800028d0	01f09263	bne	x1,x31,800028d4	  x1:0x00000000 x31:0x00000000
       38555000	      3854	800028d4	00b05463	bge	x0,x11,800028dc	  x0:0x00000000 x11:0x7fff603c
       38565000	      3855	800028d8	c1d9b193	sltiu	x3,x19,-995	 x19:0x00000001  x3=0x00000001
       38575000	      3856	800028dc	4081d093	srai	x1,x3,0x8	  x3:0x00000001  x1=0x00000000
       38585000	      3857	800028e0	01e0a933	slt	x18,x1,x30	  x1:0x00000000 x30:0x4fa2f000 x18=0x00000001
       38595000	      3858	800028e4	03c5f663	bgeu	x11,x28,80002910	 x11:0x7fff603c x28:0x80009fc4
       38605000	      3859	800028e8	0563e263	bltu	x7,x22,8000292c	  x7:0x00000000 x22:0xffffff1d
       38615000	      3860	00000000	00000013	addi	x0,x0,0	  x0:0x00000000
       38625000	      3861	80002928	00000013	addi	x0,x0,0	  x0:0x00000000
       38635000	      3862	8000292c	5b43c093	xori	x1,x7,1460	  x7:0x00000000  x1=0x000005b4
       38645000	      3863	80002930	f594a517	auipc	x10,0xf594a	 x10=0x7594c92c
       38655000	      3864	80002934	12727813	andi	x16,x4,295	  x4:0x04b1661a x16=0x00000002
       38665000	      3865	80002938	019cf463	bgeu	x25,x25,80002940	 x25:0x12611000 x25:0x12611000
       38675000	      3866	00000000	00000013	addi	x0,x0,0	  x0:0x00000000
       38685000	      3867	8000293c	00000013	addi	x0,x0,0	  x0:0x00000000
       38695000	      3868	80002940	00d998b3	sll	x17,x19,x13	 x19:0x00000001 x13:0x00000000 x17=0x00000001
       38705000	      3869	80002944	40aa8633	sub	x12,x21,x10	 x21:0x7ffffc5f x10:0x7594c92c x12=0x0a6b3333
       38715000	      3870	80002948	00de27b3	slt	x15,x28,x13	 x28:0x80009fc4 x13:0x00000000 x15=0x00000001
       38725000	      3871	8000294c	0097d3b3	srl	x7,x15,x9	 x15:0x00000001  x9:0x00000000  x7=0x00000001
       38735000	      3872	80002950	002a6663	bltu	x20,x2,8000295c	 x20:0x800098cc  x2:0xfffffefd
       38745000	      3873	00000000	00000013	addi	x0,x0,0	  x0:0x00000000
       38755000	      3874	80002958	00000013	addi	x0,x0,0	  x0:0x00000000
       38765000	      3875	8000295c	00fda033	slt	x0,x27,x15	 x27:0x04b1661a x15:0x00000001
       38775000	      3876	80002960	01bb6a33	or	x20,x22,x27	 x22:0xffffff1d x27:0x04b1661a x20=0xffffff1f
       38785000	      3877	80002964	03799c63	bne	x19,x23,8000299c	 x19:0x00000001 x23:0x00000000
       38795000	      3878	00000000	00000013	addi	x0,x0,0	  x0:0x00000000
       38805000	      3879	80002998	00000013	addi	x0,x0,0	  x0:0x00000000
       38815000	      3880	8000299c	00342233	slt	x4,x8,x3	  x8:0x800000e3  x3:0x00000001  x4=0x00000001
       38825000	      3881	800029a0	0444c863	blt	x9,x4,800029f0	  x9:0x00000000  x4:0x00000001
       38835000	      3882	00000000	00000013	addi	x0,x0,0	  x0:0x00000000
       38845000	      3883	800029ec	00000013	addi	x0,x0,0	  x0:0x00000000
       38855000	      3884	800029f0	413b8433	sub	x8,x23,x19	 x23:0x00000000 x19:0x00000001  x8=0xffffffff
       38865000	      3885	800029f4	40445b13	srai	x22,x8,0x4	  x8:0xffffffff x22=0xffffffff
       38875000	      3886	800029f8	40c355b3	sra	x11,x6,x12	  x6:0x12610f1d x12:0x0a6b3333 x11=0x0000024c
       38885000	      3887	800029fc	7cd52113	slti	x2,x10,1997	 x10:0x7594c92c  x2=0x00000000
       38895000	      3888	80002a00	41af5c93	srai	x25,x30,0x1a	 x30:0x4fa2f000 x25=0x00000013
       38905000	      3889	80002a04	0142aa33	slt	x20,x5,x20	  x5:0x80000000 x20:0xffffff1f x20=0x00000001
       38915000	      3890	80002a08	4136d113	srai	x2,x13,0x13	 x13:0x00000000  x2=0x00000000
       38925000	      3891	80002a0c	8d4c3d93	sltiu	x27,x24,-1836	 x24:0x04b1661a x27=0x00000001
       38935000	      3892	80002a10	015e1ab3	sll	x21,x28,x21	 x28:0x80009fc4 x21:0x7ffffc5f x21=0x00000000
       38945000	      3893	80002a14	01fe8eb3	add	x29,x29,x31	 x29:0x00000694 x31:0x00000000 x29=0x00000694
       38955000	      3894	80002a18	a725ed97	auipc	x27,0xa725e	 x27=0x27260a14
       38965000	      3895	80002a1c	cc2edb37	lui	x22,0xcc2ed	 x22=0xcc2ed000
       38975000	      3896	80002a20	1450cd93	xori	x27,x1,325	  x1:0x000005b4 x27=0x000004f1
       38985000	      3897	80002a24	00e38db3	add	x27,x7,x14	  x7:0x00000001 x14:0x6d9f90a7 x27=0x6d9f90a8
       38995000	      3898	80002a28	00f65bb3	srl	x23,x12,x15	 x12:0x0a6b3333 x15:0x00000001 x23=0x05359999
       39005000	      3899	80002a2c	a4472793	slti	x15,x14,-1468	 x14:0x6d9f90a7 x15=0x00000000
       39015000	      3900	80002a30	00ab4fb3	xor	x31,x22,x10	 x22:0xcc2ed000 x10:0x7594c92c x31=0xb9ba192c
       39025000	      3901	80002a34	6ffbcab7	lui	x21,0x6ffbc	 x21=0x6ffbc000
       39035000	      3902	80002a38	013c6eb3	or	x29,x24,x19	 x24:0x04b1661a x19:0x00000001 x29=0x04b1661b
       39045000	      3903	80002a3c	0131f133	and	x2,x3,x19	  x3:0x00000001 x19:0x00000001  x2=0x00000001
       39055000	      3904	80002a40	0066c033	xor	x0,x13,x6	 x13:0x00000000  x6:0x12610f1d
       39065000	      3905	80002a44	013725b3	slt	x11,x14,x19	 x14:0x6d9f90a7 x19:0x00000001 x11=0x00000000
       39075000	      3906	80002a48	1a237513	andi	x10,x6,418	  x6:0x12610f1d x10=0x00000100
       39085000	      3907	80002a4c	00000013	addi	x0,x0,0	  x0:0x00000000
       39095000	      3908	80002a50	5460c013	xori	x0,x1,1350	  x1:0x000005b4
       39105000	      3909	80002a54	40778a33	sub	x20,x15,x7	 x15:0x00000000  x7:0x00000001 x20=0xffffffff
       39115000	      3910	80002a58	bf083893	sltiu	x17,x16,-1040	 x16:0x00000002 x17=0x00000001
       39125000	      3911	80002a5c	41b48633	sub	x12,x9,x27	  x9:0x00000000 x27:0x6d9f90a8 x12=0x92606f58
       39135000	      3912	80002a60	00831a93	slli	x21,x6,0x8	  x6:0x12610f1d x21=0x610f1d00
       39145000	      3913	80002a64	033aca63	blt	x21,x19,80002a98	 x21:0x610f1d00 x19:0x00000001
       39155000	      3914	80002a68	a1edff93	andi	x31,x27,-1506	 x27:0x6d9f90a8 x31=0x6d9f9008
       39165000	      3915	80002a6c	4e717913	andi	x18,x2,1255	  x2:0x00000001 x18=0x00000001
       39175000	      3916	80002a70	03d5e863	bltu	x11,x29,80002aa0	 x11:0x00000000 x29:0x04b1661b
       39185000	      3917	00000000	00000013	addi	x0,x0,0	  x0:0x00000000
       39195000	      3918	80002a9c	00000013	addi	x0,x0,0	  x0:0x00000000
       39205000	      3919	80002aa0	04457663	bgeu	x10,x4,80002aec	 x10:0x00000100  x4:0x00000001
       39215000	      3920	00000000	00000013	addi	x0,x0,0	  x0:0x00000000
       39225000	      3921	80002ae8	00000013	addi	x0,x0,0	  x0:0x00000000
       39235000	      3922	80002aec	01d63533	sltu	x10,x12,x29	 x12:0x92606f58 x29:0x04b1661b x10=0x00000000
       39245000	      3923	80002af0	004766b3	or	x13,x14,x4	 x14:0x6d9f90a7  x4:0x00000001 x13=0x6d9f90a7
       39255000	      3924	80002af4	009183b3	add	x7,x3,x9	  x3:0x00000001  x9:0x00000000  x7=0x00000001
       39265000	      3925	80002af8	022f8063	beq	x31,x2,80002b18	 x31:0x6d9f9008  x2:0x00000001
       39275000	      3926	80002afc	7cc78c93	addi	x25,x15,1996	 x15:0x00000000 x25=0x000007cc
       39285000	      3927	80002b00	01627133	and	x2,x4,x22	  x4:0x00000001 x22:0xcc2ed000  x2=0x00000000
       39295000	      3928	80002b04	9eb124b7	lui	x9,0x9eb12	  x9=0x9eb12000
       39305000	      3929	80002b08	407954b3	sra	x9,x18,x7	 x18:0x00000001  x7:0x00000001  x9=0x00000000
       39315000	      3930	80002b0c	006a14b3	sll	x9,x20,x6	 x20:0xffffffff  x6:0x12610f1d  x9=0xe0000000
       39325000	      3931	80002b10	fac4cf93	xori	x31,x9,-84	  x9:0xe0000000 x31=0x1fffffac
       39335000	      3932	80002b14	41625413	srai	x8,x4,0x16	  x4:0x00000001  x8=0x00000000
       39345000	      3933	80002b18	002a4863	blt	x20,x2,80002b28	 x20:0xffffffff  x2:0x00000000
       39355000	      3934	00000000	00000013	addi	x0,x0,0	  x0:0x00000000
       39365000	      3935	80002b24	00000013	addi	x0,x0,0	  x0:0x00000000
       39375000	      3936	80002b28	004b5cb3	srl	x25,x22,x4	 x22:0xcc2ed000  x4:0x00000001 x25=0x66176800
       39385000	      3937	80002b2c	40a2d3b3	sra	x7,x5,x10	  x5:0x80000000 x10:0x00000000  x7=0x80000000
       39395000	      3938	80002b30	00000013	addi	x0,x0,0	  x0:0x00000000
       39405000	      3939	80002b34	77690a93	addi	x21,x18,1910	 x18:0x00000001 x21=0x00000777
       39415000	      3940	80002b38	001fbab3	sltu	x21,x31,x1	 x31:0x1fffffac  x1:0x000005b4 x21=0x00000000
       39425000	      3941	80002b3c	00c14a63	blt	x2,x12,80002b50	  x2:0x00000000 x12:0x92606f58
       39435000	      3942	80002b40	002e63b3	or	x7,x28,x2	 x28:0x80009fc4  x2:0x00000000  x7=0x80009fc4
       39445000	      3943	80002b44	01455693	srli	x13,x10,0x14	 x10:0x00000000 x13=0x00000000
       39455000	      3944	80002b48	9f03a313	slti	x6,x7,-1552	  x7:0x80009fc4  x6=0x00000001
       39465000	      3945	80002b4c	00000013	addi	x0,x0,0	  x0:0x00000000
       39475000	      3946	80002b50	00fc48b3	xor	x17,x24,x15	 x24:0x04b1661a x15:0x00000000 x17=0x04b1661a
       39485000	      3947	80002b54	00000013	addi	x0,x0,0	  x0:0x00000000
       39495000	      3948	80002b58	3c260993	addi	x19,x12,962	 x12:0x92606f58 x19=0x9260731a
       39505000	      3949	80002b5c	04227663	bgeu	x4,x2,80002ba8	  x4:0x00000001  x2:0x00000000
       39515000	      3950	00000000	00000013	addi	x0,x0,0	  x0:0x00000000
       39525000	      3951	80002ba4	00000013	addi	x0,x0,0	  x0:0x00000000
       39535000	      3952	80002ba8	01fb9fb3	sll	x31,x23,x31	 x23:0x05359999 x31:0x1fffffac x31=0x59999000
       39545000	      3953	80002bac	a5daa313	slti	x6,x21,-1443	 x21:0x00000000  x6=0x00000000
       39555000	      3954	80002bb0	00a737b3	sltu	x15,x14,x10	 x14:0x6d9f90a7 x10:0x00000000 x15=0x00000000
       39565000	      3955	80002bb4	00000013	addi	x0,x0,0	  x0:0x00000000
       39575000	      3956	80002bb8	00f8d413	srli	x8,x17,0xf	 x17:0x04b1661a  x8=0x00000962
       39585000	      3957	80002bbc	4f956b13	ori	x22,x10,1273	 x10:0x00000000 x22=0x000004f9
       39595000	      3958	80002bc0	015d39b3	sltu	x19,x26,x21	 x26:0x80009efc x21:0x00000000 x19=0x00000000
       39605000	      3959	80002bc4	41255693	srai	x13,x10,0x12	 x10:0x00000000 x13=0x00000000
       39615000	      3960	80002bc8	006cb5b3	sltu	x11,x25,x6	 x25:0x66176800  x6:0x00000000 x11=0x00000000
       39625000	      3961	80002bcc	9d07eb13	ori	x22,x15,-1584	 x15:0x00000000 x22=0xfffff9d0
       39635000	      3962	80002bd0	90697513	andi	x10,x18,-1786	 x18:0x00000001 x10=0x00000000
       39645000	      3963	80002bd4	00000013	addi	x0,x0,0	  x0:0x00000000
       39655000	      3964	80002bd8	00669733	sll	x14,x13,x6	 x13:0x00000000  x6:0x00000000 x14=0x00000000
       39665000	      3965	80002bdc	ba3e2c13	slti	x24,x28,-1117	 x28:0x80009fc4 x24=0x00000001
       39675000	      3966	80002be0	08a9af93	slti	x31,x19,138	 x19:0x00000000 x31=0x00000001
       39685000	      3967	80002be4	019e0533	add	x10,x28,x25	 x28:0x80009fc4 x25:0x66176800 x10=0xe61807c4
       39695000	      3968	80002be8	00219993	slli	x19,x3,0x2	  x3:0x00000001 x19=0x00000004
       39705000	      3969	80002bec	c80f9397	auipc	x7,0xc80f9	  x7=0x480fbbe8
       39715000	      3970	80002bf0	041fe263	bltu	x31,x1,80002c34	 x31:0x00000001  x1:0x000005b4
       39725000	      3971	00000000	00000013	addi	x0,x0,0	  x0:0x00000000
       39735000	      3972	80002c30	00000013	addi	x0,x0,0	  x0:0x00000000
       39745000	      3973	80002c34	01f81413	slli	x8,x16,0x1f	 x16:0x00000002  x8=0x00000000
       39755000	      3974	80002c38	00556933	or	x18,x10,x5	 x10:0xe61807c4  x5:0x80000000 x18=0xe61807c4
       39765000	      3975	80002c3c	23671fb7	lui	x31,0x23671	 x31=0x23671000
       39775000	      3976	80002c40	a8027637	lui	x12,0xa8027	 x12=0xa8027000
       39785000	      3977	80002c44	b62e2b13	slti	x22,x28,-1182	 x28:0x80009fc4 x22=0x00000001
       39795000	      3978	80002c48	0086d893	srli	x17,x13,0x8	 x13:0x00000000 x17=0x00000000
       39805000	      3979	80002c4c	bd4ae913	ori	x18,x21,-1068	 x21:0x00000000 x18=0xfffffbd4
       39815000	      3980	80002c50	01fc5893	srli	x17,x24,0x1f	 x24:0x00000001 x17=0x00000000
       39825000	      3981	80002c54	2845c017	auipc	x0,0x2845c	
       39835000	      3982	80002c58	c8cebeb7	lui	x29,0xc8ceb	 x29=0xc8ceb000
       39845000	      3983	80002c5c	015e5613	srli	x12,x28,0x15	 x28:0x80009fc4 x12=0x00000400
       39855000	      3984	80002c60	000708b3	add	x17,x14,x0	 x14:0x00000000  x0:0x00000000 x17=0x00000000
       39865000	      3985	80002c64	00000013	addi	x0,x0,0	  x0:0x00000000
       39875000	      3986	80002c68	affb8193	addi	x3,x23,-1281	 x23:0x05359999  x3=0x05359498
       39885000	      3987	80002c6c	4ad87c93	andi	x25,x16,1197	 x16:0x00000002 x25=0x00000000
       39895000	      3988	80002c70	011c6eb3	or	x29,x24,x17	 x24:0x00000001 x17:0x00000000 x29=0x00000001
       39905000	      3989	80002c74	192e6893	ori	x17,x28,402	 x28:0x80009fc4 x17=0x80009fd6
       39915000	      3990	80002c78	003d5833	srl	x16,x26,x3	 x26:0x80009efc  x3:0x05359498 x16=0x00000080
       39925000	      3991	80002c7c	4573d017	auipc	x0,0x4573d	
       39935000	      3992	80002c80	37c0b793	sltiu	x15,x1,892	  x1:0x000005b4 x15=0x00000000
       39945000	      3993	80002c84	017acfb3	xor	x31,x21,x23	 x21:0x00000000 x23:0x05359999 x31=0x05359999
       39955000	      3994	80002c88	402f50b3	sra	x1,x30,x2	 x30:0x4fa2f000  x2:0x00000000  x1=0x4fa2f000
       39965000	      3995	80002c8c	28830b13	addi	x22,x6,648	  x6:0x00000000 x22=0x00000288
       39975000	      3996	80002c90	036bfa63	bgeu	x23,x22,80002cc4	 x23:0x05359999 x22:0x00000288
       39985000	      3997	00000000	00000013	addi	x0,x0,0	  x0:0x00000000
       39995000	      3998	80002cc0	00000013	addi	x0,x0,0	  x0:0x00000000
       40005000	      3999	80002cc4	04051863	bne	x10,x0,80002d14	 x10:0xe61807c4  x0:0x00000000
       40015000	      4000	00000000	00000013	addi	x0,x0,0	  x0:0x00000000
       40025000	      4001	80002d10	00000013	addi	x0,x0,0	  x0:0x00000000
       40035000	      4002	80002d14	415d5eb3	sra	x29,x26,x21	 x26:0x80009efc x21:0x00000000 x29=0x80009efc
       40045000	      4003	80002d18	00000013	addi	x0,x0,0	  x0:0x00000000
       40055000	      4004	80002d1c	4bb12d93	slti	x27,x2,1211	  x2:0x00000000 x27=0x00000001
       40065000	      4005	80002d20	03371063	bne	x14,x19,80002d40	 x14:0x00000000 x19:0x00000004
       40075000	      4006	00000000	00000013	addi	x0,x0,0	  x0:0x00000000
       40085000	      4007	80002d3c	00000013	addi	x0,x0,0	  x0:0x00000000
       40095000	      4008	80002d40	01ca7263	bgeu	x20,x28,80002d44	 x20:0xffffffff x28:0x80009fc4
       40105000	      4009	00000000	00000013	addi	x0,x0,0	  x0:0x00000000
       40115000	      4010	80002d40	00000013	addi	x0,x0,0	  x0:0x00000000
       40125000	      4011	80002d44	00b87233	and	x4,x16,x11	 x16:0x00000080 x11:0x00000000  x4=0x00000000
       40135000	      4012	80002d48	00710333	add	x6,x2,x7	  x2:0x00000000  x7:0x480fbbe8  x6=0x480fbbe8
       40145000	      4013	80002d4c	00bbd933	srl	x18,x23,x11	 x23:0x05359999 x11:0x00000000 x18=0x05359999
       40155000	      4014	80002d50	004d2083	lw	x1,4(x26)	 x26:0x80009efc  x1=0x80002e08 PA:0x80009f00
       40165000	      4015	80002d54	40ab8433	sub	x8,x23,x10	 x23:0x05359999 x10:0xe61807c4  x8=0x1f1d91d5
       40175000	      4016	80002d58	038d0d13	addi	x26,x26,56	 x26:0x80009efc x26=0x80009f34
       40185000	      4017	80002d5c	3fbcae93	slti	x29,x25,1019	 x25:0x00000000 x29=0x00000001
       40195000	      4018	80002d60	00000013	addi	x0,x0,0	  x0:0x00000000
       40205000	      4019	80002d64	00000013	addi	x0,x0,0	  x0:0x00000000
       40215000	      4020	80002d68	00108f93	addi	x31,x1,1	  x1:0x80002e08 x31=0x80002e09
       40225000	      4021	80002d6c	000f8fe7	jalr	x31,x31,0	 x31:0x80002e09 x31=0x80002d6c
       40235000	      4022	00000000	00000013	addi	x0,x0,0	  x0:0x00000000
       40245000	      4023	80002e08	00000013	addi	x0,x0,0	  x0:0x00000000
       40255000	      4024	80002e0c	407dd4b3	sra	x9,x27,x7	 x27:0x00000001  x7:0x480fbbe8  x9=0x00000000
       40265000	      4025	80002e10	0b82a413	slti	x8,x5,184	  x5:0x80000000  x8=0x00000001
       40275000	      4026	80002e14	88c67c93	andi	x25,x12,-1908	 x12:0x00000400 x25=0x00000000
       40285000	      4027	80002e18	00000117	auipc	x2,0x0	  x2=0x80002e14
       40295000	      4028	80002e1c	09010113	addi	x2,x2,144	  x2:0x80002e14  x2=0x80002ea4
       40305000	      4029	80002e20	6ee56893	ori	x17,x10,1774	 x10:0xe61807c4 x17=0xe61807ee
       40315000	      4030	80002e24	408b5393	srai	x7,x22,0x8	 x22:0x00000288  x7=0x00000002
       40325000	      4031	80002e28	83d2b693	sltiu	x13,x5,-1987	  x5:0x80000000 x13=0x00000001
       40335000	      4032	80002e2c	f4610113	addi	x2,x2,-186	  x2:0x80002ea4  x2=0x80002dea
       40345000	      4033	80002e30	01a85fb3	srl	x31,x16,x26	 x16:0x00000080 x26:0x80009f34 x31=0x00000000
       40355000	      4034	80002e34	0ba100e7	jalr	x1,x2,186	  x2:0x80002dea  x1=0x80002e34
       40365000	      4035	00000000	00000013	addi	x0,x0,0	  x0:0x00000000
       40375000	      4036	80002ea4	00000013	addi	x0,x0,0	  x0:0x00000000
       40385000	      4037	80002ea8	00c67863	bgeu	x12,x12,80002eb8	 x12:0x00000400 x12:0x00000400
       40395000	      4038	00000000	00000013	addi	x0,x0,0	  x0:0x00000000
       40405000	      4039	80002eb4	00000013	addi	x0,x0,0	  x0:0x00000000
       40415000	      4040	80002eb8	fe4d0d13	addi	x26,x26,-28	 x26:0x80009f34 x26=0x80009f18
       40425000	      4041	80002ebc	001d2223	sw	x1,4(x26)	 x26:0x80009f18  x1:0x80002e34 PA:0x80009f1c
       40435000	      4042	80002ec0	01096ab3	or	x21,x18,x16	 x18:0x05359999 x16:0x00000080 x21=0x05359999
       40445000	      4043	80002ec4	01ee1113	slli	x2,x28,0x1e	 x28:0x80009fc4  x2=0x00000000
       40455000	      4044	80002ec8	4115d833	sra	x16,x11,x17	 x11:0x00000000 x17:0xe61807ee x16=0x00000000
       40465000	      4045	80002ecc	41528133	sub	x2,x5,x21	  x5:0x80000000 x21:0x05359999  x2=0x7aca6667
       40475000	      4046	80002ed0	01dfd5b3	srl	x11,x31,x29	 x31:0x00000000 x29:0x00000001 x11=0x00000000
       40485000	      4047	80002ed4	0078d333	srl	x6,x17,x7	 x17:0xe61807ee  x7:0x00000002  x6=0x398601fb
       40495000	      4048	80002ed8	002139b3	sltu	x19,x2,x2	  x2:0x7aca6667  x2:0x7aca6667 x19=0x00000000
       40505000	      4049	80002edc	02167863	bgeu	x12,x1,80002f0c	 x12:0x00000400  x1:0x80002e34
       40515000	      4050	80002ee0	004607b3	add	x15,x12,x4	 x12:0x00000400  x4:0x00000000 x15=0x00000400
       40525000	      4051	80002ee4	00010663	beq	x2,x0,80002ef0	  x2:0x7aca6667  x0:0x00000000
       40535000	      4052	80002ee8	00437733	and	x14,x6,x4	  x6:0x398601fb  x4:0x00000000 x14=0x00000000
       40545000	      4053	80002eec	01841cb3	sll	x25,x8,x24	  x8:0x00000001 x24:0x00000001 x25=0x00000002
       40555000	      4054	80002ef0	007f6e63	bltu	x30,x7,80002f0c	 x30:0x4fa2f000  x7:0x00000002
       40565000	      4055	80002ef4	017a5893	srli	x17,x20,0x17	 x20:0xffffffff x17=0x000001ff
       40575000	      4056	80002ef8	01a81eb3	sll	x29,x16,x26	 x16:0x00000000 x26:0x80009f18 x29=0x00000000
       40585000	      4057	80002efc	00000013	addi	x0,x0,0	  x0:0x00000000
       40595000	      4058	80002f00	01cac663	blt	x21,x28,80002f0c	 x21:0x05359999 x28:0x80009fc4
       40605000	      4059	80002f04	22776093	ori	x1,x14,551	 x14:0x00000000  x1=0x00000227
       40615000	      4060	80002f08	00e40263	beq	x8,x14,80002f0c	  x8:0x00000001 x14:0x00000000
       40625000	      4061	80002f0c	edc37d93	andi	x27,x6,-292	  x6:0x398601fb x27=0x398600d8
       40635000	      4062	80002f10	004d2083	lw	x1,4(x26)	 x26:0x80009f18  x1=0x80002e34 PA:0x80009f1c
       40645000	      4063	80002f14	01cd0d13	addi	x26,x26,28	 x26:0x80009f18 x26=0x80009f34
       40655000	      4064	80002f18	00310933	add	x18,x2,x3	  x2:0x7aca6667  x3:0x05359498 x18=0x7ffffaff
       40665000	      4065	80002f1c	00e6fa33	and	x20,x13,x14	 x13:0x00000001 x14:0x00000000 x20=0x00000000
       40675000	      4066	80002f20	00444833	xor	x16,x8,x4	  x8:0x00000001  x4:0x00000000 x16=0x00000001
       40685000	      4067	80002f24	00008b93	addi	x23,x1,0	  x1:0x80002e34 x23=0x80002e34
       40695000	      4068	80002f28	000b8be7	jalr	x23,x23,0	 x23:0x80002e34 x23=0x80002f28
       40705000	      4069	00000000	00000013	addi	x0,x0,0	  x0:0x00000000
       40715000	      4070	80002e34	00000013	addi	x0,x0,0	  x0:0x00000000
       40725000	      4071	80002e38	40aa0bb3	sub	x23,x20,x10	 x20:0x00000000 x10:0xe61807c4 x23=0x19e7f83c
       40735000	      4072	80002e3c	381f7693	andi	x13,x30,897	 x30:0x4fa2f000 x13=0x00000000
       40745000	      4073	80002e40	01affb33	and	x22,x31,x26	 x31:0x00000000 x26:0x80009f34 x22=0x00000000
       40755000	      4074	80002e44	bdab8f93	addi	x31,x23,-1062	 x23:0x19e7f83c x31=0x19e7f416
       40765000	      4075	80002e48	01371033	sll	x0,x14,x19	 x14:0x00000000 x19:0x00000000
       40775000	      4076	80002e4c	5d0020ef	jal	x1,80002e4c	  x1=0x80002e4c
       40785000	      4077	00000000	00000013	addi	x0,x0,0	  x0:0x00000000
       40795000	      4078	80005418	00000013	addi	x0,x0,0	  x0:0x00000000
       40805000	      4079	8000541c	40f20433	sub	x8,x4,x15	  x4:0x00000000 x15:0x00000400  x8=0xfffffc00
       40815000	      4080	80005420	6e0e4593	xori	x11,x28,1760	 x28:0x80009fc4 x11=0x80009924
       40825000	      4081	80005424	00c6d613	srli	x12,x13,0xc	 x13:0x00000000 x12=0x00000000
       40835000	      4082	80005428	01f49263	bne	x9,x31,8000542c	  x9:0x00000000 x31:0x19e7f416
       40845000	      4083	00000000	00000013	addi	x0,x0,0	  x0:0x00000000
       40855000	      4084	80005428	00000013	addi	x0,x0,0	  x0:0x00000000
       40865000	      4085	8000542c	fccd0d13	addi	x26,x26,-52	 x26:0x80009f34 x26=0x80009f00
       40875000	      4086	80005430	3a456213	ori	x4,x10,932	 x10:0xe61807c4  x4=0xe61807e4
       40885000	      4087	80005434	1942a237	lui	x4,0x1942a	  x4=0x1942a000
       40895000	      4088	80005438	01479b33	sll	x22,x15,x20	 x15:0x00000400 x20:0x00000000 x22=0x00000400
       40905000	      4089	8000543c	001d2223	sw	x1,4(x26)	 x26:0x80009f00  x1:0x80002e4c PA:0x80009f04
       40915000	      4090	80005440	068c7737	lui	x14,0x68c7	 x14=0x068c7000
       40925000	      4091	80005444	010f1793	slli	x15,x30,0x10	 x30:0x4fa2f000 x15=0xf0000000
       40935000	      4092	80005448	037ff463	bgeu	x31,x23,80005470	 x31:0x19e7f416 x23:0x19e7f83c
       40945000	      4093	8000544c	01e569b3	or	x19,x10,x30	 x10:0xe61807c4 x30:0x4fa2f000 x19=0xefbaf7c4
       40955000	      4094	80005450	0361f063	bgeu	x3,x22,80005470	  x3:0x05359498 x22:0x00000400
       40965000	      4095	00000000	00000013	addi	x0,x0,0	  x0:0x00000000
       40975000	      4096	8000546c	00000013	addi	x0,x0,0	  x0:0x00000000
       40985000	      4097	80005470	0157e333	or	x6,x15,x21	 x15:0xf0000000 x21:0x05359999  x6=0xf5359999
       40995000	      4098	80005474	40acd813	srai	x16,x25,0xa	 x25:0x00000002 x16=0x00000000
       41005000	      4099	80005478	8cac6813	ori	x16,x24,-1846	 x24:0x00000001 x16=0xfffff8cb
       41015000	      4100	8000547c	004d2083	lw	x1,4(x26)	 x26:0x80009f00  x1=0x80002e4c PA:0x80009f04
       41025000	      4101	80005480	058d2613	slti	x12,x26,88	 x26:0x80009f00 x12=0x00000001
       41035000	      4102	80005484	034d0d13	addi	x26,x26,52	 x26:0x80009f00 x26=0x80009f34
       41045000	      4103	80005488	0005eeb3	or	x29,x11,x0	 x11:0x80009924  x0:0x00000000 x29=0x80009924
       41055000	      4104	8000548c	00108093	addi	x1,x1,1	  x1:0x80002e4c  x1=0x80002e4d
       41065000	      4105	80005490	000080e7	jalr	x1,x1,0	  x1:0x80002e4d  x1=0x80005490
       41075000	      4106	00000000	00000013	addi	x0,x0,0	  x0:0x00000000
       41085000	      4107	80002e4c	00000013	addi	x0,x0,0	  x0:0x00000000
       41095000	      4108	80002e50	01a05913	srli	x18,x0,0x1a	  x0:0x00000000 x18=0x00000000
       41105000	      4109	80002e54	0093d3b3	srl	x7,x7,x9	  x7:0x00000002  x9:0x00000000  x7=0x00000002
       41115000	      4110	80002e58	d5b98213	addi	x4,x19,-677	 x19:0xefbaf7c4  x4=0xefbaf51f
       41125000	      4111	80002e5c	01b64463	blt	x12,x27,80002e64	 x12:0x00000001 x27:0x398600d8
       41135000	      4112	00000000	00000013	addi	x0,x0,0	  x0:0x00000000
       41145000	      4113	80002e60	00000013	addi	x0,x0,0	  x0:0x00000000
       41155000	      4114	80002e64	5e8ca693	slti	x13,x25,1512	 x25:0x00000002 x13=0x00000001
       41165000	      4115	80002e68	c926df37	lui	x30,0xc926d	 x30=0xc926d000
       41175000	      4116	80002e6c	096baa13	slti	x20,x23,150	 x23:0x19e7f83c x20=0x00000000
       41185000	      4117	80002e70	8b32c497	auipc	x9,0x8b32c	  x9=0x0b32ee6c
       41195000	      4118	80002e74	00951fb3	sll	x31,x10,x9	 x10:0xe61807c4  x9:0x0b32ee6c x31=0x807c4000
       41205000	      4119	80002e78	012cb1b3	sltu	x3,x25,x18	 x25:0x00000002 x18:0x00000000  x3=0x00000000
       41215000	      4120	80002e7c	004d2083	lw	x1,4(x26)	 x26:0x80009f34  x1=0x80006b98 PA:0x80009f38
       41225000	      4121	80002e80	007eaa33	slt	x20,x29,x7	 x29:0x80009924  x7:0x00000002 x20=0x00000001
       41235000	      4122	80002e84	01cc2233	slt	x4,x24,x28	 x24:0x00000001 x28:0x80009fc4  x4=0x00000000
       41245000	      4123	80002e88	38984113	xori	x2,x16,905	 x16:0xfffff8cb  x2=0xfffffb42
       41255000	      4124	80002e8c	018d0d13	addi	x26,x26,24	 x26:0x80009f34 x26=0x80009f4c
       41265000	      4125	80002e90	41ed5533	sra	x10,x26,x30	 x26:0x80009f4c x30:0xc926d000 x10=0x80009f4c
       41275000	      4126	80002e94	001868b3	or	x17,x16,x1	 x16:0xfffff8cb  x1:0x80006b98 x17=0xfffffbdb
       41285000	      4127	80002e98	006d0633	add	x12,x26,x6	 x26:0x80009f4c  x6:0xf5359999 x12=0x753638e5
       41295000	      4128	80002e9c	00000013	addi	x0,x0,0	  x0:0x00000000
       41305000	      4129	80002ea0	00008313	addi	x6,x1,0	  x1:0x80006b98  x6=0x80006b98
       41315000	      4130	80002ea4	00030367	jalr	x6,x6,0	  x6:0x80006b98  x6=0x80002ea4
       41325000	      4131	00000000	00000013	addi	x0,x0,0	  x0:0x00000000
       41335000	      4132	80006b98	00000013	addi	x0,x0,0	  x0:0x00000000
       41345000	      4133	80006b9c	00000497	auipc	x9,0x0	  x9=0x80006b98
       41355000	      4134	80006ba0	8e848493	addi	x9,x9,-1816	  x9:0x80006b98  x9=0x80006480
       41365000	      4135	80006ba4	40b05813	srai	x16,x0,0xb	  x0:0x00000000 x16=0x00000000
       41375000	      4136	80006ba8	c4148493	addi	x9,x9,-959	  x9:0x80006480  x9=0x800060c1
       41385000	      4137	80006bac	b37c1fb7	lui	x31,0xb37c1	 x31=0xb37c1000
       41395000	      4138	80006bb0	00000013	addi	x0,x0,0	  x0:0x00000000
       41405000	      4139	80006bb4	00542833	slt	x16,x8,x5	  x8:0xfffffc00  x5:0x80000000 x16=0x00000000
       41415000	      4140	80006bb8	001e1663	bne	x28,x1,80006bc4	 x28:0x80009fc4  x1:0x80006b98
       41425000	      4141	00000000	00000013	addi	x0,x0,0	  x0:0x00000000
       41435000	      4142	80006bc0	00000013	addi	x0,x0,0	  x0:0x00000000
       41445000	      4143	80006bc4	3c0480e7	jalr	x1,x9,960	  x9:0x800060c1  x1=0x80006bc4
       41455000	      4144	00000000	00000013	addi	x0,x0,0	  x0:0x00000000
       41465000	      4145	80006480	00000013	addi	x0,x0,0	  x0:0x00000000
       41475000	      4146	80006484	00249333	sll	x6,x9,x2	  x9:0x800060c1  x2:0xfffffb42  x6=0x00018304
       41485000	      4147	80006488	fe0d0d13	addi	x26,x26,-32	 x26:0x80009f4c x26=0x80009f2c
       41495000	      4148	8000648c	001d2223	sw	x1,4(x26)	 x26:0x80009f2c  x1:0x80006bc4 PA:0x80009f30
       41505000	      4149	80006490	00ad1033	sll	x0,x26,x10	 x26:0x80009f2c x10:0x80009f4c
       41515000	      4150	80006494	f4c88c93	addi	x25,x17,-180	 x17:0xfffffbdb x25=0xfffffb27
       41525000	      4151	80006498	00d743b3	xor	x7,x14,x13	 x14:0x068c7000 x13:0x00000001  x7=0x068c7001
       41535000	      4152	8000649c	17d1f193	andi	x3,x3,381	  x3:0x00000000  x3=0x00000000
       41545000	      4153	800064a0	4cbb6613	ori	x12,x22,1227	 x22:0x00000400 x12=0x000004cb
       41555000	      4154	800064a4	00ed93b3	sll	x7,x27,x14	 x27:0x398600d8 x14:0x068c7000  x7=0x398600d8
       41565000	      4155	800064a8	00002097	auipc	x1,0x2	  x1=0x800084a4
       41575000	      4156	800064ac	1e208093	addi	x1,x1,482	  x1:0x800084a4  x1=0x80008686
       41585000	      4157	800064b0	94beb613	sltiu	x12,x29,-1717	 x29:0x80009924 x12=0x00000001
       41595000	      4158	800064b4	f2f081a3	sb	x15,-221(x1)	  x1:0x80008686 x15:0xf0000000 PA:0x800085a9
       41605000	      4159	800064b8	8e966817	auipc	x16,0x8e966	 x16=0x0e96c4b4
       41615000	      4160	800064bc	eb108a83	lb	x21,-335(x1)	  x1:0x80008686 x21=0x00000000 PA:0x80008537
       41625000	      4161	800064c0	01cc0cb3	add	x25,x24,x28	 x24:0x00000001 x28:0x80009fc4 x25=0x80009fc5
       41635000	      4162	800064c4	4bffc693	xori	x13,x31,1215	 x31:0xb37c1000 x13=0xb37c14bf
       41645000	      4163	800064c8	01a425b3	slt	x11,x8,x26	  x8:0xfffffc00 x26:0x80009f2c x11=0x00000000
       41655000	      4164	800064cc	005e1433	sll	x8,x28,x5	 x28:0x80009fc4  x5:0x80000000  x8=0x80009fc4
       41665000	      4165	800064d0	105087a3	sb	x5,271(x1)	  x1:0x80008686  x5:0x80000000 PA:0x80008795
       41675000	      4166	800064d4	e0b08883	lb	x17,-501(x1)	  x1:0x80008686 x17=0x00000000 PA:0x80008491
       41685000	      4167	800064d8	b1c09d83	lh	x27,-1252(x1)	  x1:0x80008686 x27=0x00000000 PA:0x800081a2
       41695000	      4168	800064dc	e5c0c903	lbu	x18,-420(x1)	  x1:0x80008686 x18=0x00000093 PA:0x800084e2
       41705000	      4169	800064e0	e8708a83	lb	x21,-377(x1)	  x1:0x80008686 x21=0x00000000 PA:0x8000850d
       41715000	      4170	800064e4	82ea6013	ori	x0,x20,-2002	 x20:0x00000001
       41725000	      4171	800064e8	b8008ba3	sb	x0,-1129(x1)	  x1:0x80008686  x0:0x00000000 PA:0x8000821d
       41735000	      4172	800064ec	a7208c83	lb	x25,-1422(x1)	  x1:0x80008686 x25=0x00000000 PA:0x800080f8
       41745000	      4173	800064f0	01ff7ab3	and	x21,x30,x31	 x30:0xc926d000 x31:0xb37c1000 x21=0x81241000
       41755000	      4174	800064f4	aff08a03	lb	x20,-1281(x1)	  x1:0x80008686 x20=0x00000000 PA:0x80008185
       41765000	      4175	800064f8	c010cd83	lbu	x27,-1023(x1)	  x1:0x80008686 x27=0x00000000 PA:0x80008287
       41775000	      4176	800064fc	01d87933	and	x18,x16,x29	 x16:0x0e96c4b4 x29:0x80009924 x18=0x00008024
       41785000	      4177	80006500	00978bb3	add	x23,x15,x9	 x15:0xf0000000  x9:0x800060c1 x23=0x700060c1
       41795000	      4178	80006504	40f85513	srai	x10,x16,0xf	 x16:0x0e96c4b4 x10=0x00001d2d
       41805000	      4179	80006508	18008023	sb	x0,384(x1)	  x1:0x80008686  x0:0x00000000 PA:0x80008806
       41815000	      4180	8000650c	0c648397	auipc	x7,0xc648	  x7=0x8c64e508
       41825000	      4181	80006510	dc5088a3	sb	x5,-559(x1)	  x1:0x80008686  x5:0x80000000 PA:0x80008457
       41835000	      4182	80006514	40b20233	sub	x4,x4,x11	  x4:0x00000000 x11:0x00000000  x4=0x00000000
       41845000	      4183	80006518	09f0c503	lbu	x10,159(x1)	  x1:0x80008686 x10=0x00000000 PA:0x80008725
       41855000	      4184	8000651c	756bf913	andi	x18,x23,1878	 x23:0x700060c1 x18=0x00000040
       41865000	      4185	80006520	c24082a3	sb	x4,-987(x1)	  x1:0x80008686  x4:0x00000000 PA:0x800082ab
       41875000	      4186	80006524	b9108aa3	sb	x17,-1131(x1)	  x1:0x80008686 x17:0x00000000 PA:0x8000821b
       41885000	      4187	80006528	cec33c93	sltiu	x25,x6,-788	  x6:0x00018304 x25=0x00000001
       41895000	      4188	8000652c	48edfc97	auipc	x25,0x48edf	 x25=0xc8ee5528
       41905000	      4189	80006530	a0ea3737	lui	x14,0xa0ea3	 x14=0xa0ea3000
       41915000	      4190	80006534	01c9b033	sltu	x0,x19,x28	 x19:0xefbaf7c4 x28:0x80009fc4
       41925000	      4191	80006538	cba7c937	lui	x18,0xcba7c	 x18=0xcba7c000
       41935000	      4192	8000653c	7e7ff913	andi	x18,x31,2023	 x31:0xb37c1000 x18=0x00000000
       41945000	      4193	80006540	f0508103	lb	x2,-251(x1)	  x1:0x80008686  x2=0x00000000 PA:0x8000858b
       41955000	      4194	80006544	a6a0d683	lhu	x13,-1430(x1)	  x1:0x80008686 x13=0x00000000 PA:0x800080f0
       41965000	      4195	80006548	e8f08503	lb	x10,-369(x1)	  x1:0x80008686 x10=0x00000000 PA:0x80008515
       41975000	      4196	8000654c	b460aa03	lw	x20,-1210(x1)	  x1:0x80008686 x20=0x00000000 PA:0x800081cc
       41985000	      4197	80006550	affc7d93	andi	x27,x24,-1281	 x24:0x00000001 x27=0x00000001
       41995000	      4198	80006554	98474497	auipc	x9,0x98474	  x9=0x1847a550
       42005000	      4199	80006558	c3708b03	lb	x22,-969(x1)	  x1:0x80008686 x22=0x00000000 PA:0x800082bd
       42015000	      4200	8000655c	01cd91b3	sll	x3,x27,x28	 x27:0x00000001 x28:0x80009fc4  x3=0x00000010
       42025000	      4201	80006560	013b65b3	or	x11,x22,x19	 x22:0x00000000 x19:0xefbaf7c4 x11=0xefbaf7c4
       42035000	      4202	80006564	00507eb3	and	x29,x0,x5	  x0:0x00000000  x5:0x80000000 x29=0x00000000
       42045000	      4203	80006568	0c809123	sh	x8,194(x1)	  x1:0x80008686  x8:0x80009fc4 PA:0x80008748
       42055000	      4204	8000656c	ce43c793	xori	x15,x7,-796	  x7:0x8c64e508 x15=0x739b19ec
       42065000	      4205	80006570	019b53b3	srl	x7,x22,x25	 x22:0x00000000 x25:0xc8ee5528  x7=0x00000000
       42075000	      4206	80006574	00000013	addi	x0,x0,0	  x0:0x00000000
       42085000	      4207	80006578	a07083a3	sb	x7,-1529(x1)	  x1:0x80008686  x7:0x00000000 PA:0x8000808d
       42095000	      4208	8000657c	7e666617	auipc	x12,0x7e666	 x12=0xfe66c578
       42105000	      4209	80006580	005c51b3	srl	x3,x24,x5	 x24:0x00000001  x5:0x80000000  x3=0x00000001
       42115000	      4210	80006584	bde080a3	sb	x30,-1087(x1)	  x1:0x80008686 x30:0xc926d000 PA:0x80008247
       42125000	      4211	80006588	01d1d4b3	srl	x9,x3,x29	  x3:0x00000001 x29:0x00000000  x9=0x00000001
       42135000	      4212	8000658c	40dc59b3	sra	x19,x24,x13	 x24:0x00000001 x13:0x00000000 x19=0x00000001
       42145000	      4213	80006590	410edf13	srai	x30,x29,0x10	 x29:0x00000000 x30=0x00000000
       42155000	      4214	80006594	05b26863	bltu	x4,x27,800065e4	  x4:0x00000000 x27:0x00000001
       42165000	      4215	00000000	00000013	addi	x0,x0,0	  x0:0x00000000
       42175000	      4216	800065e0	00000013	addi	x0,x0,0	  x0:0x00000000
       42185000	      4217	800065e4	40345933	sra	x18,x8,x3	  x8:0x80009fc4  x3:0x00000001 x18=0xc0004fe2
       42195000	      4218	800065e8	00159a33	sll	x20,x11,x1	 x11:0xefbaf7c4  x1:0x80008686 x20=0xeebdf100
       42205000	      4219	800065ec	00838c33	add	x24,x7,x8	  x7:0x00000000  x8:0x80009fc4 x24=0x80009fc4
       42215000	      4220	800065f0	41970833	sub	x16,x14,x25	 x14:0xa0ea3000 x25:0xc8ee5528 x16=0xd7fbdad8
       42225000	      4221	800065f4	40dd81b3	sub	x3,x27,x13	 x27:0x00000001 x13:0x00000000  x3=0x00000001
       42235000	      4222	800065f8	56b3e113	ori	x2,x7,1387	  x7:0x00000000  x2=0x0000056b
       42245000	      4223	800065fc	ab174d93	xori	x27,x14,-1359	 x14:0xa0ea3000 x27=0x5f15cab1
       42255000	      4224	80006600	00505813	srli	x16,x0,0x5	  x0:0x00000000 x16=0x00000000
       42265000	      4225	80006604	11e37d93	andi	x27,x6,286	  x6:0x00018304 x27=0x00000104
       42275000	      4226	80006608	0110efb3	or	x31,x1,x17	  x1:0x80008686 x17:0x00000000 x31=0x80008686
       42285000	      4227	8000660c	bedc8693	addi	x13,x25,-1043	 x25:0xc8ee5528 x13=0xc8ee5115
       42295000	      4228	80006610	b503e013	ori	x0,x7,-1200	  x7:0x00000000
       42305000	      4229	80006614	851e4613	xori	x12,x28,-1967	 x28:0x80009fc4 x12=0x7fff6795
       42315000	      4230	80006618	00000013	addi	x0,x0,0	  x0:0x00000000
       42325000	      4231	8000661c	01b35a93	srli	x21,x6,0x1b	  x6:0x00018304 x21=0x00000000
       42335000	      4232	80006620	a1cd0d97	auipc	x27,0xa1cd0	 x27=0x21cd661c
       42345000	      4233	80006624	0077b9b3	sltu	x19,x15,x7	 x15:0x739b19ec  x7:0x00000000 x19=0x00000000
       42355000	      4234	80006628	021f8063	beq	x31,x1,80006648	 x31:0x80008686  x1:0x80008686
       42365000	      4235	00000000	00000013	addi	x0,x0,0	  x0:0x00000000
       42375000	      4236	80006644	00000013	addi	x0,x0,0	  x0:0x00000000
       42385000	      4237	80006648	416205b3	sub	x11,x4,x22	  x4:0x00000000 x22:0x00000000 x11=0x00000000
       42395000	      4238	8000664c	410d5233	sra	x4,x26,x16	 x26:0x80009f2c x16:0x00000000  x4=0x80009f2c
       42405000	      4239	80006650	0b4f6093	ori	x1,x30,180	 x30:0x00000000  x1=0x000000b4
       42415000	      4240	80006654	011320b3	slt	x1,x6,x17	  x6:0x00018304 x17:0x00000000  x1=0x00000000
       42425000	      4241	80006658	0176ea63	bltu	x13,x23,8000666c	 x13:0xc8ee5115 x23:0x700060c1
       42435000	      4242	8000665c	406505b3	sub	x11,x10,x6	 x10:0x00000000  x6:0x00018304 x11=0xfffe7cfc
       42445000	      4243	80006660	41f1d133	sra	x2,x3,x31	  x3:0x00000001 x31:0x80008686  x2=0x00000000
       42455000	      4244	80006664	01aaeb33	or	x22,x21,x26	 x21:0x00000000 x26:0x80009f2c x22=0x80009f2c
       42465000	      4245	80006668	0583d463	bge	x7,x24,800066b0	  x7:0x00000000 x24:0x80009fc4
       42475000	      4246	00000000	00000013	addi	x0,x0,0	  x0:0x00000000
       42485000	      4247	800066ac	00000013	addi	x0,x0,0	  x0:0x00000000
       42495000	      4248	800066b0	00140263	beq	x8,x1,800066b4	  x8:0x80009fc4  x1:0x00000000
       42505000	      4249	800066b4	01e421b3	slt	x3,x8,x30	  x8:0x80009fc4 x30:0x00000000  x3=0x00000001
       42515000	      4250	800066b8	64f6bb93	sltiu	x23,x13,1615	 x13:0xc8ee5115 x23=0x00000000
       42525000	      4251	800066bc	03950063	beq	x10,x25,800066dc	 x10:0x00000000 x25:0xc8ee5528
       42535000	      4252	800066c0	00545793	srli	x15,x8,0x5	  x8:0x80009fc4 x15=0x040004fe
       42545000	      4253	800066c4	b955da97	auipc	x21,0xb955d	 x21=0x395636c0
       42555000	      4254	800066c8	8fb5ef93	ori	x31,x11,-1797	 x11:0xfffe7cfc x31=0xfffffcff
       42565000	      4255	800066cc	bdf45a17	auipc	x20,0xbdf45	 x20=0x3df4b6c8
       42575000	      4256	800066d0	726afdb7	lui	x27,0x726af	 x27=0x726af000
       42585000	      4257	800066d4	01fe2133	slt	x2,x28,x31	 x28:0x80009fc4 x31:0xfffffcff  x2=0x00000001
       42595000	      4258	800066d8	03784863	blt	x16,x23,80006708	 x16:0x00000000 x23:0x00000000
       42605000	      4259	800066dc	03154663	blt	x10,x17,80006708	 x10:0x00000000 x17:0x00000000
       42615000	      4260	800066e0	019f2233	slt	x4,x30,x25	 x30:0x00000000 x25:0xc8ee5528  x4=0x00000000
       42625000	      4261	800066e4	03c9ee63	bltu	x19,x28,80006720	 x19:0x00000000 x28:0x80009fc4
       42635000	      4262	00000000	00000013	addi	x0,x0,0	  x0:0x00000000
       42645000	      4263	8000671c	00000013	addi	x0,x0,0	  x0:0x00000000
       42655000	      4264	80006720	008ae633	or	x12,x21,x8	 x21:0x395636c0  x8:0x80009fc4 x12=0xb956bfc4
       42665000	      4265	80006724	00e6dfb3	srl	x31,x13,x14	 x13:0xc8ee5115 x14:0xa0ea3000 x31=0xc8ee5115
       42675000	      4266	80006728	2b6fa393	slti	x7,x31,694	 x31:0xc8ee5115  x7=0x00000001
       42685000	      4267	8000672c	02f71863	bne	x14,x15,8000675c	 x14:0xa0ea3000 x15:0x040004fe
       42695000	      4268	00000000	00000013	addi	x0,x0,0	  x0:0x00000000
       42705000	      4269	80006758	00000013	addi	x0,x0,0	  x0:0x00000000
       42715000	      4270	8000675c	00a05313	srli	x6,x0,0xa	  x0:0x00000000  x6=0x00000000
       42725000	      4271	80006760	00d9b533	sltu	x10,x19,x13	 x19:0x00000000 x13:0xc8ee5115 x10=0x00000001
       42735000	      4272	80006764	01d21a33	sll	x20,x4,x29	  x4:0x00000000 x29:0x00000000 x20=0x00000000
       42745000	      4273	80006768	40d5dfb3	sra	x31,x11,x13	 x11:0xfffe7cfc x13:0xc8ee5115 x31=0xffffffff
       42755000	      4274	8000676c	00ed1a63	bne	x26,x14,80006780	 x26:0x80009f2c x14:0xa0ea3000
       42765000	      4275	00000000	00000013	addi	x0,x0,0	  x0:0x00000000
       42775000	      4276	8000677c	00000013	addi	x0,x0,0	  x0:0x00000000
       42785000	      4277	80006780	41b80f33	sub	x30,x16,x27	 x16:0x00000000 x27:0x726af000 x30=0x8d951000
       42795000	      4278	80006784	c112f193	andi	x3,x5,-1007	  x5:0x80000000  x3=0x80000000
       42805000	      4279	80006788	cc13a113	slti	x2,x7,-831	  x7:0x00000001  x2=0x00000000
       42815000	      4280	8000678c	030f5863	bge	x30,x16,800067bc	 x30:0x8d951000 x16:0x00000000
       42825000	      4281	80006790	045ff863	bgeu	x31,x5,800067e0	 x31:0xffffffff  x5:0x80000000
       42835000	      4282	00000000	00000013	addi	x0,x0,0	  x0:0x00000000
       42845000	      4283	800067dc	00000013	addi	x0,x0,0	  x0:0x00000000
       42855000	      4284	800067e0	01685713	srli	x14,x16,0x16	 x16:0x00000000 x14=0x00000000
       42865000	      4285	800067e4	00b59833	sll	x16,x11,x11	 x11:0xfffe7cfc x11:0xfffe7cfc x16=0xc0000000
       42875000	      4286	800067e8	019a5113	srli	x2,x20,0x19	 x20:0x00000000  x2=0x00000000
       42885000	      4287	800067ec	03f89a63	bne	x17,x31,80006820	 x17:0x00000000 x31:0xffffffff
       42895000	      4288	00000000	00000013	addi	x0,x0,0	  x0:0x00000000
       42905000	      4289	8000681c	00000013	addi	x0,x0,0	  x0:0x00000000
       42915000	      4290	80006820	b516ff93	andi	x31,x13,-1199	 x13:0xc8ee5115 x31=0xc8ee5111
       42925000	      4291	80006824	02631863	bne	x6,x6,80006854	  x6:0x00000000  x6:0x00000000
       42935000	      4292	80006828	04129463	bne	x5,x1,80006870	  x5:0x80000000  x1:0x00000000
       42945000	      4293	00000000	00000013	addi	x0,x0,0	  x0:0x00000000
       42955000	      4294	8000686c	00000013	addi	x0,x0,0	  x0:0x00000000
       42965000	      4295	80006870	018098b3	sll	x17,x1,x24	  x1:0x00000000 x24:0x80009fc4 x17=0x00000000
       42975000	      4296	80006874	01604e63	blt	x0,x22,80006890	  x0:0x00000000 x22:0x80009f2c
       42985000	      4297	80006878	ed9bbc13	sltiu	x24,x23,-295	 x23:0x00000000 x24=0x00000001
       42995000	      4298	8000687c	bb8d0593	addi	x11,x26,-1096	 x26:0x80009f2c x11=0x80009ae4
       43005000	      4299	80006880	01701433	sll	x8,x0,x23	  x0:0x00000000 x23:0x00000000  x8=0x00000000
       43015000	      4300	80006884	40255893	srai	x17,x10,0x2	 x10:0x00000001 x17=0x00000000
       43025000	      4301	80006888	007eacb3	slt	x25,x29,x7	 x29:0x00000000  x7:0x00000001 x25=0x00000001
       43035000	      4302	8000688c	feb18893	addi	x17,x3,-21	  x3:0x80000000 x17=0x7fffffeb
       43045000	      4303	80006890	018a4933	xor	x18,x20,x24	 x20:0x00000000 x24:0x00000001 x18=0x00000001
       43055000	      4304	80006894	402ed713	srai	x14,x29,0x2	 x29:0x00000000 x14=0x00000000
       43065000	      4305	80006898	018cca63	blt	x25,x24,800068ac	 x25:0x00000001 x24:0x00000001
       43075000	      4306	8000689c	00789013	slli	x0,x17,0x7	 x17:0x7fffffeb
       43085000	      4307	800068a0	004f7e63	bgeu	x30,x4,800068bc	 x30:0x8d951000  x4:0x00000000
       43095000	      4308	00000000	00000013	addi	x0,x0,0	  x0:0x00000000
       43105000	      4309	800068b8	00000013	addi	x0,x0,0	  x0:0x00000000
       43115000	      4310	800068bc	03497e63	bgeu	x18,x20,800068f8	 x18:0x00000001 x20:0x00000000
       43125000	      4311	00000000	00000013	addi	x0,x0,0	  x0:0x00000000
       43135000	      4312	800068f4	00000013	addi	x0,x0,0	  x0:0x00000000
       43145000	      4313	800068f8	00adc863	blt	x27,x10,80006908	 x27:0x726af000 x10:0x00000001
       43155000	      4314	800068fc	106e9063	bne	x29,x6,800069fc	 x29:0x00000000  x6:0x00000000
       43165000	      4315	80006900	033ff063	bgeu	x31,x19,80006920	 x31:0xc8ee5111 x19:0x00000000
       43175000	      4316	00000000	00000013	addi	x0,x0,0	  x0:0x00000000
       43185000	      4317	8000691c	00000013	addi	x0,x0,0	  x0:0x00000000
       43195000	      4318	80006920	016ac533	xor	x10,x21,x22	 x21:0x395636c0 x22:0x80009f2c x10=0xb956a9ec
       43205000	      4319	80006924	0a520e63	beq	x4,x5,800069e0	  x4:0x00000000  x5:0x80000000
       43215000	      4320	80006928	00002117	auipc	x2,0x2	  x2=0x80008924
       43225000	      4321	8000692c	ed310113	addi	x2,x2,-301	  x2:0x80008924  x2=0x800087f7
       43235000	      4322	80006930	015ab5b3	sltu	x11,x21,x21	 x21:0x395636c0 x21:0x395636c0 x11=0x00000000
       43245000	      4323	80006934	00e100a3	sb	x14,1(x2)	  x2:0x800087f7 x14:0x00000000 PA:0x800087f8
       43255000	      4324	80006938	ff512303	lw	x6,-11(x2)	  x2:0x800087f7  x6=0x0000e100 PA:0x800087ec
       43265000	      4325	8000693c	40eb5913	srai	x18,x22,0xe	 x22:0x80009f2c x18=0xfffe0002
       43275000	      4326	80006940	00821793	slli	x15,x4,0x8	  x4:0x00000000 x15=0x00000000
       43285000	      4327	80006944	00f9c333	xor	x6,x19,x15	 x19:0x00000000 x15:0x00000000  x6=0x00000000
       43295000	      4328	80006948	ff310c23	sb	x19,-8(x2)	  x2:0x800087f7 x19:0x00000000 PA:0x800087ef
       43305000	      4329	8000694c	00610b83	lb	x23,6(x2)	  x2:0x800087f7 x23=0x00000000 PA:0x800087fd
       43315000	      4330	80006950	fd910b03	lb	x22,-39(x2)	  x2:0x800087f7 x22=0x00000000 PA:0x800087d0
       43325000	      4331	80006954	00b10723	sb	x11,14(x2)	  x2:0x800087f7 x11:0x00000000 PA:0x80008805
       43335000	      4332	80006958	01f15803	lhu	x16,31(x2)	  x2:0x800087f7 x16=0x00000000 PA:0x80008816
       43345000	      4333	8000695c	7c2b8013	addi	x0,x23,1986	 x23:0x00000000
       43355000	      4334	80006960	fd710023	sb	x23,-64(x2)	  x2:0x800087f7 x23:0x00000000 PA:0x800087b7
       43365000	      4335	80006964	ff610203	lb	x4,-10(x2)	  x2:0x800087f7  x4=0xffffffe1 PA:0x800087ed
       43375000	      4336	80006968	00614203	lbu	x4,6(x2)	  x2:0x800087f7  x4=0x00000000 PA:0x800087fd
       43385000	      4337	8000696c	a7c1f693	andi	x13,x3,-1412	  x3:0x80000000 x13=0x80000000
       43395000	      4338	80006970	a1e34f97	auipc	x31,0xa1e34	 x31=0x21e3a96c
       43405000	      4339	80006974	ffd10f03	lb	x30,-3(x2)	  x2:0x800087f7 x30=0x00000000 PA:0x800087f4
       43415000	      4340	80006978	a5576b93	ori	x23,x14,-1451	 x14:0x00000000 x23=0xfffffa55
       43425000	      4341	8000697c	fc610683	lb	x13,-58(x2)	  x2:0x800087f7 x13=0x00000000 PA:0x800087bd
       43435000	      4342	80006980	ffe14483	lbu	x9,-2(x2)	  x2:0x800087f7  x9=0x00000000 PA:0x800087f5
       43445000	      4343	80006984	fed10123	sb	x13,-30(x2)	  x2:0x800087f7 x13:0x00000000 PA:0x800087d9
       43455000	      4344	80006988	417cd313	srai	x6,x25,0x17	 x25:0x00000001  x6=0x00000000
       43465000	      4345	8000698c	fd6118a3	sh	x22,-47(x2)	  x2:0x800087f7 x22:0x00000000 PA:0x800087c8
       43475000	      4346	80006990	00a933b3	sltu	x7,x18,x10	 x18:0xfffe0002 x10:0xb956a9ec  x7=0x00000000
       43485000	      4347	80006994	0105e633	or	x12,x11,x16	 x11:0x00000000 x16:0x00000000 x12=0x00000000
       43495000	      4348	80006998	fff14683	lbu	x13,-1(x2)	  x2:0x800087f7 x13=0x00000000 PA:0x800087f6
       43505000	      4349	8000699c	01710023	sb	x23,0(x2)	  x2:0x800087f7 x23:0xfffffa55 PA:0x800087f7
       43515000	      4350	800069a0	00e61833	sll	x16,x12,x14	 x12:0x00000000 x14:0x00000000 x16=0x00000000
       43525000	      4351	800069a4	012115a3	sh	x18,11(x2)	  x2:0x800087f7 x18:0xfffe0002 PA:0x80008802
       43535000	      4352	800069a8	01dbdf93	srli	x31,x23,0x1d	 x23:0xfffffa55 x31=0x00000007
       43545000	      4353	800069ac	fd414783	lbu	x15,-44(x2)	  x2:0x800087f7 x15=0x00000000 PA:0x800087cb
       43555000	      4354	800069b0	fda10423	sb	x26,-56(x2)	  x2:0x800087f7 x26:0x80009f2c PA:0x800087bf
       43565000	      4355	800069b4	fcb15f03	lhu	x30,-53(x2)	  x2:0x800087f7 x30=0x00000000 PA:0x800087c2
       43575000	      4356	800069b8	00010023	sb	x0,0(x2)	  x2:0x800087f7  x0:0x00000000 PA:0x800087f7
       43585000	      4357	800069bc	ffb15003	lhu	x0,-5(x2)	  x2:0x800087f7 PA:0x800087f2
       43595000	      4358	800069c0	fd6100a3	sb	x22,-63(x2)	  x2:0x800087f7 x22:0x00000000 PA:0x800087b8
       43605000	      4359	800069c4	fa47a793	slti	x15,x15,-92	 x15:0x00000000 x15=0x00000000
       43615000	      4360	800069c8	103d8393	addi	x7,x27,259	 x27:0x726af000  x7=0x726af103
       43625000	      4361	800069cc	02010703	lb	x14,32(x2)	  x2:0x800087f7 x14=0x00000000 PA:0x80008817
       43635000	      4362	800069d0	fc210823	sb	x2,-48(x2)	  x2:0x800087f7  x2:0x800087f7 PA:0x800087c7
       43645000	      4363	800069d4	fe110203	lb	x4,-31(x2)	  x2:0x800087f7  x4=0x00000000 PA:0x800087d8
       43655000	      4364	800069d8	00210883	lb	x17,2(x2)	  x2:0x800087f7 x17=0x00000000 PA:0x800087f9
       43665000	      4365	800069dc	00e1ca63	blt	x3,x14,800069f0	  x3:0x80000000 x14:0x00000000
       43675000	      4366	00000000	00000013	addi	x0,x0,0	  x0:0x00000000
       43685000	      4367	800069ec	00000013	addi	x0,x0,0	  x0:0x00000000
       43695000	      4368	800069f0	00ec4233	xor	x4,x24,x14	 x24:0x00000001 x14:0x00000000  x4=0x00000001
       43705000	      4369	800069f4	00447733	and	x14,x8,x4	  x8:0x00000000  x4:0x00000001 x14=0x00000000
       43715000	      4370	800069f8	011e8263	beq	x29,x17,800069fc	 x29:0x00000000 x17:0x00000000
       43725000	      4371	00000000	00000013	addi	x0,x0,0	  x0:0x00000000
       43735000	      4372	800069f8	00000013	addi	x0,x0,0	  x0:0x00000000
       43745000	      4373	800069fc	017c9c33	sll	x24,x25,x23	 x25:0x00000001 x23:0xfffffa55 x24=0x00200000
       43755000	      4374	80006a00	b964ac13	slti	x24,x9,-1130	  x9:0x00000000 x24=0x00000000
       43765000	      4375	80006a04	01a94233	xor	x4,x18,x26	 x18:0xfffe0002 x26:0x80009f2c  x4=0x7ffe9f2e
       43775000	      4376	80006a08	051cd663	bge	x25,x17,80006a54	 x25:0x00000001 x17:0x00000000
       43785000	      4377	00000000	00000013	addi	x0,x0,0	  x0:0x00000000
       43795000	      4378	80006a50	00000013	addi	x0,x0,0	  x0:0x00000000
       43805000	      4379	80006a54	02a46863	bltu	x8,x10,80006a84	  x8:0x00000000 x10:0xb956a9ec
       43815000	      4380	00000000	00000013	addi	x0,x0,0	  x0:0x00000000
       43825000	      4381	80006a80	00000013	addi	x0,x0,0	  x0:0x00000000
       43835000	      4382	80006a84	03b68c63	beq	x13,x27,80006abc	 x13:0x00000000 x27:0x726af000
       43845000	      4383	80006a88	013716b3	sll	x13,x14,x19	 x14:0x00000000 x19:0x00000000 x13=0x00000000
       43855000	      4384	80006a8c	41ff8c33	sub	x24,x31,x31	 x31:0x00000007 x31:0x00000007 x24=0x00000000
       43865000	      4385	80006a90	010f9fb3	sll	x31,x31,x16	 x31:0x00000007 x16:0x00000000 x31=0x00000007
       43875000	      4386	80006a94	017405b3	add	x11,x8,x23	  x8:0x00000000 x23:0xfffffa55 x11=0xfffffa55
       43885000	      4387	80006a98	03afe663	bltu	x31,x26,80006ac4	 x31:0x00000007 x26:0x80009f2c
       43895000	      4388	00000000	00000013	addi	x0,x0,0	  x0:0x00000000
       43905000	      4389	80006ac0	00000013	addi	x0,x0,0	  x0:0x00000000
       43915000	      4390	80006ac4	000615b3	sll	x11,x12,x0	 x12:0x00000000  x0:0x00000000 x11=0x00000000
       43925000	      4391	80006ac8	00000013	addi	x0,x0,0	  x0:0x00000000
       43935000	      4392	80006acc	01a36863	bltu	x6,x26,80006adc	  x6:0x00000000 x26:0x80009f2c
       43945000	      4393	00000000	00000013	addi	x0,x0,0	  x0:0x00000000
       43955000	      4394	80006ad8	00000013	addi	x0,x0,0	  x0:0x00000000
       43965000	      4395	80006adc	005d9633	sll	x12,x27,x5	 x27:0x726af000  x5:0x80000000 x12=0x726af000
       43975000	      4396	80006ae0	01aa0a33	add	x20,x20,x26	 x20:0x00000000 x26:0x80009f2c x20=0x80009f2c
       43985000	      4397	80006ae4	02df6a63	bltu	x30,x13,80006b18	 x30:0x00000000 x13:0x00000000
       43995000	      4398	80006ae8	1b044713	xori	x14,x8,432	  x8:0x00000000 x14=0x000001b0
       44005000	      4399	80006aec	63168c13	addi	x24,x13,1585	 x13:0x00000000 x24=0x00000631
       44015000	      4400	80006af0	b2cf7513	andi	x10,x30,-1236	 x30:0x00000000 x10=0x00000000
       44025000	      4401	80006af4	587cb413	sltiu	x8,x25,1415	 x25:0x00000001  x8=0x00000001
       44035000	      4402	80006af8	01850cb3	add	x25,x10,x24	 x10:0x00000000 x24:0x00000631 x25=0x00000631
       44045000	      4403	80006afc	37146593	ori	x11,x8,881	  x8:0x00000001 x11=0x00000371
       44055000	      4404	80006b00	40add9b3	sra	x19,x27,x10	 x27:0x726af000 x10:0x00000000 x19=0x726af000
       44065000	      4405	80006b04	012ac033	xor	x0,x21,x18	 x21:0x395636c0 x18:0xfffe0002
       44075000	      4406	80006b08	68250193	addi	x3,x10,1666	 x10:0x00000000  x3=0x00000682
       44085000	      4407	80006b0c	004c0a63	beq	x24,x4,80006b20	 x24:0x00000631  x4:0x7ffe9f2e
       44095000	      4408	80006b10	00f511b3	sll	x3,x10,x15	 x10:0x00000000 x15:0x00000000  x3=0x00000000
       44105000	      4409	80006b14	409f0633	sub	x12,x30,x9	 x30:0x00000000  x9:0x00000000 x12=0x00000000
       44115000	      4410	80006b18	40d1d9b3	sra	x19,x3,x13	  x3:0x00000000 x13:0x00000000 x19=0x00000000
       44125000	      4411	80006b1c	01471263	bne	x14,x20,80006b20	 x14:0x000001b0 x20:0x80009f2c
       44135000	      4412	00000000	00000013	addi	x0,x0,0	  x0:0x00000000
       44145000	      4413	80006b1c	00000013	addi	x0,x0,0	  x0:0x00000000
       44155000	      4414	80006b20	01716333	or	x6,x2,x23	  x2:0x800087f7 x23:0xfffffa55  x6=0xfffffff7
       44165000	      4415	80006b24	30020993	addi	x19,x4,768	  x4:0x7ffe9f2e x19=0x7ffea22e
       44175000	      4416	80006b28	2ec06e93	ori	x29,x0,748	  x0:0x00000000 x29=0x000002ec
       44185000	      4417	80006b2c	004d2083	lw	x1,4(x26)	 x26:0x80009f2c  x1=0x80006bc4 PA:0x80009f30
       44195000	      4418	80006b30	01c1c633	xor	x12,x3,x28	  x3:0x00000000 x28:0x80009fc4 x12=0x80009fc4
       44205000	      4419	80006b34	020d0d13	addi	x26,x26,32	 x26:0x80009f2c x26=0x80009f4c
       44215000	      4420	80006b38	0131ceb3	xor	x29,x3,x19	  x3:0x00000000 x19:0x7ffea22e x29=0x7ffea22e
       44225000	      4421	80006b3c	a79e7b13	andi	x22,x28,-1415	 x28:0x80009fc4 x22=0x80009a40
       44235000	      4422	80006b40	a65ee693	ori	x13,x29,-1435	 x29:0x7ffea22e x13=0xfffffa6f
       44245000	      4423	80006b44	00008093	addi	x1,x1,0	  x1:0x80006bc4  x1=0x80006bc4
       44255000	      4424	80006b48	000080e7	jalr	x1,x1,0	  x1:0x80006bc4  x1=0x80006b48
       44265000	      4425	00000000	00000013	addi	x0,x0,0	  x0:0x00000000
       44275000	      4426	80006bc4	00000013	addi	x0,x0,0	  x0:0x00000000
       44285000	      4427	80006bc8	00000317	auipc	x6,0x0	  x6=0x80006bc4
       44295000	      4428	80006bcc	8bc30313	addi	x6,x6,-1860	  x6:0x80006bc4  x6=0x80006480
       44305000	      4429	80006bd0	010d3bb3	sltu	x23,x26,x16	 x26:0x80009f4c x16:0x00000000 x23=0x00000000
       44315000	      4430	80006bd4	e61fc893	xori	x17,x31,-415	 x31:0x00000007 x17=0xfffffe66
       44325000	      4431	80006bd8	e14a7093	andi	x1,x20,-492	 x20:0x80009f2c  x1=0x80009e04
       44335000	      4432	80006bdc	0a730313	addi	x6,x6,167	  x6:0x80006480  x6=0x80006527
       44345000	      4433	80006be0	2e8a2393	slti	x7,x20,744	 x20:0x80009f2c  x7=0x00000001
       44355000	      4434	80006be4	01a2f933	and	x18,x5,x26	  x5:0x80000000 x26:0x80009f4c x18=0x80000000
       44365000	      4435	80006be8	00f994b3	sll	x9,x19,x15	 x19:0x7ffea22e x15:0x00000000  x9=0x7ffea22e
       44375000	      4436	80006bec	40255093	srai	x1,x10,0x2	 x10:0x00000000  x1=0x00000000
       44385000	      4437	80006bf0	f5a300e7	jalr	x1,x6,-166	  x6:0x80006527  x1=0x80006bf0
       44395000	      4438	00000000	00000013	addi	x0,x0,0	  x0:0x00000000
       44405000	      4439	80006480	00000013	addi	x0,x0,0	  x0:0x00000000
       44415000	      4440	80006484	00249333	sll	x6,x9,x2	  x9:0x7ffea22e  x2:0x800087f7  x6=0x17000000
       44425000	      4441	80006488	fe0d0d13	addi	x26,x26,-32	 x26:0x80009f4c x26=0x80009f2c
       44435000	      4442	8000648c	001d2223	sw	x1,4(x26)	 x26:0x80009f2c  x1:0x80006bf0 PA:0x80009f30
       44445000	      4443	80006490	00ad1033	sll	x0,x26,x10	 x26:0x80009f2c x10:0x00000000
       44455000	      4444	80006494	f4c88c93	addi	x25,x17,-180	 x17:0xfffffe66 x25=0xfffffdb2
       44465000	      4445	80006498	00d743b3	xor	x7,x14,x13	 x14:0x000001b0 x13:0xfffffa6f  x7=0xfffffbdf
       44475000	      4446	8000649c	17d1f193	andi	x3,x3,381	  x3:0x00000000  x3=0x00000000
       44485000	      4447	800064a0	4cbb6613	ori	x12,x22,1227	 x22:0x80009a40 x12=0x80009ecb
       44495000	      4448	800064a4	00ed93b3	sll	x7,x27,x14	 x27:0x726af000 x14:0x000001b0  x7=0xf0000000
       44505000	      4449	800064a8	00002097	auipc	x1,0x2	  x1=0x800084a4
       44515000	      4450	800064ac	1e208093	addi	x1,x1,482	  x1:0x800084a4  x1=0x80008686
       44525000	      4451	800064b0	94beb613	sltiu	x12,x29,-1717	 x29:0x7ffea22e x12=0x00000001
       44535000	      4452	800064b4	f2f081a3	sb	x15,-221(x1)	  x1:0x80008686 x15:0x00000000 PA:0x800085a9
       44545000	      4453	800064b8	8e966817	auipc	x16,0x8e966	 x16=0x0e96c4b4
       44555000	      4454	800064bc	eb108a83	lb	x21,-335(x1)	  x1:0x80008686 x21=0x00000000 PA:0x80008537
       44565000	      4455	800064c0	01cc0cb3	add	x25,x24,x28	 x24:0x00000631 x28:0x80009fc4 x25=0x8000a5f5
       44575000	      4456	800064c4	4bffc693	xori	x13,x31,1215	 x31:0x00000007 x13=0x000004b8
       44585000	      4457	800064c8	01a425b3	slt	x11,x8,x26	  x8:0x00000001 x26:0x80009f2c x11=0x00000000
       44595000	      4458	800064cc	005e1433	sll	x8,x28,x5	 x28:0x80009fc4  x5:0x80000000  x8=0x80009fc4
       44605000	      4459	800064d0	105087a3	sb	x5,271(x1)	  x1:0x80008686  x5:0x80000000 PA:0x80008795
       44615000	      4460	800064d4	e0b08883	lb	x17,-501(x1)	  x1:0x80008686 x17=0x00000000 PA:0x80008491
       44625000	      4461	800064d8	b1c09d83	lh	x27,-1252(x1)	  x1:0x80008686 x27=0x00000000 PA:0x800081a2
       44635000	      4462	800064dc	e5c0c903	lbu	x18,-420(x1)	  x1:0x80008686 x18=0x00000093 PA:0x800084e2
       44645000	      4463	800064e0	e8708a83	lb	x21,-377(x1)	  x1:0x80008686 x21=0x00000000 PA:0x8000850d
       44655000	      4464	800064e4	82ea6013	ori	x0,x20,-2002	 x20:0x80009f2c
       44665000	      4465	800064e8	b8008ba3	sb	x0,-1129(x1)	  x1:0x80008686  x0:0x00000000 PA:0x8000821d
       44675000	      4466	800064ec	a7208c83	lb	x25,-1422(x1)	  x1:0x80008686 x25=0x00000000 PA:0x800080f8
       44685000	      4467	800064f0	01ff7ab3	and	x21,x30,x31	 x30:0x00000000 x31:0x00000007 x21=0x00000000
       44695000	      4468	800064f4	aff08a03	lb	x20,-1281(x1)	  x1:0x80008686 x20=0x00000000 PA:0x80008185
       44705000	      4469	800064f8	c010cd83	lbu	x27,-1023(x1)	  x1:0x80008686 x27=0x00000000 PA:0x80008287
       44715000	      4470	800064fc	01d87933	and	x18,x16,x29	 x16:0x0e96c4b4 x29:0x7ffea22e x18=0x0e968024
       44725000	      4471	80006500	00978bb3	add	x23,x15,x9	 x15:0x00000000  x9:0x7ffea22e x23=0x7ffea22e
       44735000	      4472	80006504	40f85513	srai	x10,x16,0xf	 x16:0x0e96c4b4 x10=0x00001d2d
       44745000	      4473	80006508	18008023	sb	x0,384(x1)	  x1:0x80008686  x0:0x00000000 PA:0x80008806
       44755000	      4474	8000650c	0c648397	auipc	x7,0xc648	  x7=0x8c64e508
       44765000	      4475	80006510	dc5088a3	sb	x5,-559(x1)	  x1:0x80008686  x5:0x80000000 PA:0x80008457
       44775000	      4476	80006514	40b20233	sub	x4,x4,x11	  x4:0x7ffe9f2e x11:0x00000000  x4=0x7ffe9f2e
       44785000	      4477	80006518	09f0c503	lbu	x10,159(x1)	  x1:0x80008686 x10=0x00000000 PA:0x80008725
       44795000	      4478	8000651c	756bf913	andi	x18,x23,1878	 x23:0x7ffea22e x18=0x00000206
       44805000	      4479	80006520	c24082a3	sb	x4,-987(x1)	  x1:0x80008686  x4:0x7ffe9f2e PA:0x800082ab
       44815000	      4480	80006524	b9108aa3	sb	x17,-1131(x1)	  x1:0x80008686 x17:0x00000000 PA:0x8000821b
       44825000	      4481	80006528	cec33c93	sltiu	x25,x6,-788	  x6:0x17000000 x25=0x00000001
       44835000	      4482	8000652c	48edfc97	auipc	x25,0x48edf	 x25=0xc8ee5528
       44845000	      4483	80006530	a0ea3737	lui	x14,0xa0ea3	 x14=0xa0ea3000
       44855000	      4484	80006534	01c9b033	sltu	x0,x19,x28	 x19:0x7ffea22e x28:0x80009fc4
       44865000	      4485	80006538	cba7c937	lui	x18,0xcba7c	 x18=0xcba7c000
       44875000	      4486	8000653c	7e7ff913	andi	x18,x31,2023	 x31:0x00000007 x18=0x00000007
       44885000	      4487	80006540	f0508103	lb	x2,-251(x1)	  x1:0x80008686  x2=0x00000000 PA:0x8000858b
       44895000	      4488	80006544	a6a0d683	lhu	x13,-1430(x1)	  x1:0x80008686 x13=0x00000000 PA:0x800080f0
       44905000	      4489	80006548	e8f08503	lb	x10,-369(x1)	  x1:0x80008686 x10=0x00000000 PA:0x80008515
       44915000	      4490	8000654c	b460aa03	lw	x20,-1210(x1)	  x1:0x80008686 x20=0x00000000 PA:0x800081cc
       44925000	      4491	80006550	affc7d93	andi	x27,x24,-1281	 x24:0x00000631 x27=0x00000231
       44935000	      4492	80006554	98474497	auipc	x9,0x98474	  x9=0x1847a550
       44945000	      4493	80006558	c3708b03	lb	x22,-969(x1)	  x1:0x80008686 x22=0x00000000 PA:0x800082bd
       44955000	      4494	8000655c	01cd91b3	sll	x3,x27,x28	 x27:0x00000231 x28:0x80009fc4  x3=0x00002310
       44965000	      4495	80006560	013b65b3	or	x11,x22,x19	 x22:0x00000000 x19:0x7ffea22e x11=0x7ffea22e
       44975000	      4496	80006564	00507eb3	and	x29,x0,x5	  x0:0x00000000  x5:0x80000000 x29=0x00000000
       44985000	      4497	80006568	0c809123	sh	x8,194(x1)	  x1:0x80008686  x8:0x80009fc4 PA:0x80008748
       44995000	      4498	8000656c	ce43c793	xori	x15,x7,-796	  x7:0x8c64e508 x15=0x739b19ec
       45005000	      4499	80006570	019b53b3	srl	x7,x22,x25	 x22:0x00000000 x25:0xc8ee5528  x7=0x00000000
       45015000	      4500	80006574	00000013	addi	x0,x0,0	  x0:0x00000000
       45025000	      4501	80006578	a07083a3	sb	x7,-1529(x1)	  x1:0x80008686  x7:0x00000000 PA:0x8000808d
       45035000	      4502	8000657c	7e666617	auipc	x12,0x7e666	 x12=0xfe66c578
       45045000	      4503	80006580	005c51b3	srl	x3,x24,x5	 x24:0x00000631  x5:0x80000000  x3=0x00000631
       45055000	      4504	80006584	bde080a3	sb	x30,-1087(x1)	  x1:0x80008686 x30:0x00000000 PA:0x80008247
       45065000	      4505	80006588	01d1d4b3	srl	x9,x3,x29	  x3:0x00000631 x29:0x00000000  x9=0x00000631
       45075000	      4506	8000658c	40dc59b3	sra	x19,x24,x13	 x24:0x00000631 x13:0x00000000 x19=0x00000631
       45085000	      4507	80006590	410edf13	srai	x30,x29,0x10	 x29:0x00000000 x30=0x00000000
       45095000	      4508	80006594	05b26863	bltu	x4,x27,800065e4	  x4:0x7ffe9f2e x27:0x00000231
       45105000	      4509	80006598	575db813	sltiu	x16,x27,1397	 x27:0x00000231 x16=0x00000001
       45115000	      4510	8000659c	0245cc63	blt	x11,x4,800065d4	 x11:0x7ffea22e  x4:0x7ffe9f2e
       45125000	      4511	800065a0	a6eafc13	andi	x24,x21,-1426	 x21:0x00000000 x24=0x00000000
       45135000	      4512	800065a4	0131ee63	bltu	x3,x19,800065c0	  x3:0x00000631 x19:0x00000631
       45145000	      4513	800065a8	01e018b3	sll	x17,x0,x30	  x0:0x00000000 x30:0x00000000 x17=0x00000000
       45155000	      4514	800065ac	04937663	bgeu	x6,x9,800065f8	  x6:0x17000000  x9:0x00000631
       45165000	      4515	00000000	00000013	addi	x0,x0,0	  x0:0x00000000
       45175000	      4516	800065f4	00000013	addi	x0,x0,0	  x0:0x00000000
       45185000	      4517	800065f8	56b3e113	ori	x2,x7,1387	  x7:0x00000000  x2=0x0000056b
       45195000	      4518	800065fc	ab174d93	xori	x27,x14,-1359	 x14:0xa0ea3000 x27=0x5f15cab1
       45205000	      4519	80006600	00505813	srli	x16,x0,0x5	  x0:0x00000000 x16=0x00000000
       45215000	      4520	80006604	11e37d93	andi	x27,x6,286	  x6:0x17000000 x27=0x00000000
       45225000	      4521	80006608	0110efb3	or	x31,x1,x17	  x1:0x80008686 x17:0x00000000 x31=0x80008686
       45235000	      4522	8000660c	bedc8693	addi	x13,x25,-1043	 x25:0xc8ee5528 x13=0xc8ee5115
       45245000	      4523	80006610	b503e013	ori	x0,x7,-1200	  x7:0x00000000
       45255000	      4524	80006614	851e4613	xori	x12,x28,-1967	 x28:0x80009fc4 x12=0x7fff6795
       45265000	      4525	80006618	00000013	addi	x0,x0,0	  x0:0x00000000
       45275000	      4526	8000661c	01b35a93	srli	x21,x6,0x1b	  x6:0x17000000 x21=0x00000002
       45285000	      4527	80006620	a1cd0d97	auipc	x27,0xa1cd0	 x27=0x21cd661c
       45295000	      4528	80006624	0077b9b3	sltu	x19,x15,x7	 x15:0x739b19ec  x7:0x00000000 x19=0x00000000
       45305000	      4529	80006628	021f8063	beq	x31,x1,80006648	 x31:0x80008686  x1:0x80008686
       45315000	      4530	00000000	00000013	addi	x0,x0,0	  x0:0x00000000
       45325000	      4531	80006644	00000013	addi	x0,x0,0	  x0:0x00000000
       45335000	      4532	80006648	416205b3	sub	x11,x4,x22	  x4:0x7ffe9f2e x22:0x00000000 x11=0x7ffe9f2e
       45345000	      4533	8000664c	410d5233	sra	x4,x26,x16	 x26:0x80009f2c x16:0x00000000  x4=0x80009f2c
       45355000	      4534	80006650	0b4f6093	ori	x1,x30,180	 x30:0x00000000  x1=0x000000b4
       45365000	      4535	80006654	011320b3	slt	x1,x6,x17	  x6:0x17000000 x17:0x00000000  x1=0x00000000
       45375000	      4536	80006658	0176ea63	bltu	x13,x23,8000666c	 x13:0xc8ee5115 x23:0x7ffea22e
       45385000	      4537	8000665c	406505b3	sub	x11,x10,x6	 x10:0x00000000  x6:0x17000000 x11=0xe9000000
       45395000	      4538	80006660	41f1d133	sra	x2,x3,x31	  x3:0x00000631 x31:0x80008686  x2=0x00000018
       45405000	      4539	80006664	01aaeb33	or	x22,x21,x26	 x21:0x00000002 x26:0x80009f2c x22=0x80009f2e
       45415000	      4540	80006668	0583d463	bge	x7,x24,800066b0	  x7:0x00000000 x24:0x00000000
       45425000	      4541	00000000	00000013	addi	x0,x0,0	  x0:0x00000000
       45435000	      4542	800066ac	00000013	addi	x0,x0,0	  x0:0x00000000
       45445000	      4543	800066b0	00140263	beq	x8,x1,800066b4	  x8:0x80009fc4  x1:0x00000000
       45455000	      4544	800066b4	01e421b3	slt	x3,x8,x30	  x8:0x80009fc4 x30:0x00000000  x3=0x00000001
       45465000	      4545	800066b8	64f6bb93	sltiu	x23,x13,1615	 x13:0xc8ee5115 x23=0x00000000
       45475000	      4546	800066bc	03950063	beq	x10,x25,800066dc	 x10:0x00000000 x25:0xc8ee5528
       45485000	      4547	800066c0	00545793	srli	x15,x8,0x5	  x8:0x80009fc4 x15=0x040004fe
       45495000	      4548	800066c4	b955da97	auipc	x21,0xb955d	 x21=0x395636c0
       45505000	      4549	800066c8	8fb5ef93	ori	x31,x11,-1797	 x11:0xe9000000 x31=0xfffff8fb
       45515000	      4550	800066cc	bdf45a17	auipc	x20,0xbdf45	 x20=0x3df4b6c8
       45525000	      4551	800066d0	726afdb7	lui	x27,0x726af	 x27=0x726af000
       45535000	      4552	800066d4	01fe2133	slt	x2,x28,x31	 x28:0x80009fc4 x31:0xfffff8fb  x2=0x00000001
       45545000	      4553	800066d8	03784863	blt	x16,x23,80006708	 x16:0x00000000 x23:0x00000000
       45555000	      4554	800066dc	03154663	blt	x10,x17,80006708	 x10:0x00000000 x17:0x00000000
       45565000	      4555	800066e0	019f2233	slt	x4,x30,x25	 x30:0x00000000 x25:0xc8ee5528  x4=0x00000000
       45575000	      4556	800066e4	03c9ee63	bltu	x19,x28,80006720	 x19:0x00000000 x28:0x80009fc4
       45585000	      4557	00000000	00000013	addi	x0,x0,0	  x0:0x00000000
       45595000	      4558	8000671c	00000013	addi	x0,x0,0	  x0:0x00000000
       45605000	      4559	80006720	008ae633	or	x12,x21,x8	 x21:0x395636c0  x8:0x80009fc4 x12=0xb956bfc4
       45615000	      4560	80006724	00e6dfb3	srl	x31,x13,x14	 x13:0xc8ee5115 x14:0xa0ea3000 x31=0xc8ee5115
       45625000	      4561	80006728	2b6fa393	slti	x7,x31,694	 x31:0xc8ee5115  x7=0x00000001
       45635000	      4562	8000672c	02f71863	bne	x14,x15,8000675c	 x14:0xa0ea3000 x15:0x040004fe
       45645000	      4563	00000000	00000013	addi	x0,x0,0	  x0:0x00000000
       45655000	      4564	80006758	00000013	addi	x0,x0,0	  x0:0x00000000
       45665000	      4565	8000675c	00a05313	srli	x6,x0,0xa	  x0:0x00000000  x6=0x00000000
       45675000	      4566	80006760	00d9b533	sltu	x10,x19,x13	 x19:0x00000000 x13:0xc8ee5115 x10=0x00000001
       45685000	      4567	80006764	01d21a33	sll	x20,x4,x29	  x4:0x00000000 x29:0x00000000 x20=0x00000000
       45695000	      4568	80006768	40d5dfb3	sra	x31,x11,x13	 x11:0xe9000000 x13:0xc8ee5115 x31=0xffffff48
       45705000	      4569	8000676c	00ed1a63	bne	x26,x14,80006780	 x26:0x80009f2c x14:0xa0ea3000
       45715000	      4570	00000000	00000013	addi	x0,x0,0	  x0:0x00000000
       45725000	      4571	8000677c	00000013	addi	x0,x0,0	  x0:0x00000000
       45735000	      4572	80006780	41b80f33	sub	x30,x16,x27	 x16:0x00000000 x27:0x726af000 x30=0x8d951000
       45745000	      4573	80006784	c112f193	andi	x3,x5,-1007	  x5:0x80000000  x3=0x80000000
       45755000	      4574	80006788	cc13a113	slti	x2,x7,-831	  x7:0x00000001  x2=0x00000000
       45765000	      4575	8000678c	030f5863	bge	x30,x16,800067bc	 x30:0x8d951000 x16:0x00000000
       45775000	      4576	80006790	045ff863	bgeu	x31,x5,800067e0	 x31:0xffffff48  x5:0x80000000
       45785000	      4577	00000000	00000013	addi	x0,x0,0	  x0:0x00000000
       45795000	      4578	800067dc	00000013	addi	x0,x0,0	  x0:0x00000000
       45805000	      4579	800067e0	01685713	srli	x14,x16,0x16	 x16:0x00000000 x14=0x00000000
       45815000	      4580	800067e4	00b59833	sll	x16,x11,x11	 x11:0xe9000000 x11:0xe9000000 x16=0xe9000000
       45825000	      4581	800067e8	019a5113	srli	x2,x20,0x19	 x20:0x00000000  x2=0x00000000
       45835000	      4582	800067ec	03f89a63	bne	x17,x31,80006820	 x17:0x00000000 x31:0xffffff48
       45845000	      4583	00000000	00000013	addi	x0,x0,0	  x0:0x00000000
       45855000	      4584	8000681c	00000013	addi	x0,x0,0	  x0:0x00000000
       45865000	      4585	80006820	b516ff93	andi	x31,x13,-1199	 x13:0xc8ee5115 x31=0xc8ee5111
       45875000	      4586	80006824	02631863	bne	x6,x6,80006854	  x6:0x00000000  x6:0x00000000
       45885000	      4587	80006828	04129463	bne	x5,x1,80006870	  x5:0x80000000  x1:0x00000000
       45895000	      4588	00000000	00000013	addi	x0,x0,0	  x0:0x00000000
       45905000	      4589	8000686c	00000013	addi	x0,x0,0	  x0:0x00000000
       45915000	      4590	80006870	018098b3	sll	x17,x1,x24	  x1:0x00000000 x24:0x00000000 x17=0x00000000
       45925000	      4591	80006874	01604e63	blt	x0,x22,80006890	  x0:0x00000000 x22:0x80009f2e
       45935000	      4592	80006878	ed9bbc13	sltiu	x24,x23,-295	 x23:0x00000000 x24=0x00000001
       45945000	      4593	8000687c	bb8d0593	addi	x11,x26,-1096	 x26:0x80009f2c x11=0x80009ae4
       45955000	      4594	80006880	01701433	sll	x8,x0,x23	  x0:0x00000000 x23:0x00000000  x8=0x00000000
       45965000	      4595	80006884	40255893	srai	x17,x10,0x2	 x10:0x00000001 x17=0x00000000
       45975000	      4596	80006888	007eacb3	slt	x25,x29,x7	 x29:0x00000000  x7:0x00000001 x25=0x00000001
       45985000	      4597	8000688c	feb18893	addi	x17,x3,-21	  x3:0x80000000 x17=0x7fffffeb
       45995000	      4598	80006890	018a4933	xor	x18,x20,x24	 x20:0x00000000 x24:0x00000001 x18=0x00000001
       46005000	      4599	80006894	402ed713	srai	x14,x29,0x2	 x29:0x00000000 x14=0x00000000
       46015000	      4600	80006898	018cca63	blt	x25,x24,800068ac	 x25:0x00000001 x24:0x00000001
       46025000	      4601	8000689c	00789013	slli	x0,x17,0x7	 x17:0x7fffffeb
       46035000	      4602	800068a0	004f7e63	bgeu	x30,x4,800068bc	 x30:0x8d951000  x4:0x00000000
       46045000	      4603	00000000	00000013	addi	x0,x0,0	  x0:0x00000000
       46055000	      4604	800068b8	00000013	addi	x0,x0,0	  x0:0x00000000
       46065000	      4605	800068bc	03497e63	bgeu	x18,x20,800068f8	 x18:0x00000001 x20:0x00000000
       46075000	      4606	00000000	00000013	addi	x0,x0,0	  x0:0x00000000
       46085000	      4607	800068f4	00000013	addi	x0,x0,0	  x0:0x00000000
       46095000	      4608	800068f8	00adc863	blt	x27,x10,80006908	 x27:0x726af000 x10:0x00000001
       46105000	      4609	800068fc	106e9063	bne	x29,x6,800069fc	 x29:0x00000000  x6:0x00000000
       46115000	      4610	80006900	033ff063	bgeu	x31,x19,80006920	 x31:0xc8ee5111 x19:0x00000000
       46125000	      4611	00000000	00000013	addi	x0,x0,0	  x0:0x00000000
       46135000	      4612	8000691c	00000013	addi	x0,x0,0	  x0:0x00000000
       46145000	      4613	80006920	016ac533	xor	x10,x21,x22	 x21:0x395636c0 x22:0x80009f2e x10=0xb956a9ee
       46155000	      4614	80006924	0a520e63	beq	x4,x5,800069e0	  x4:0x00000000  x5:0x80000000
       46165000	      4615	80006928	00002117	auipc	x2,0x2	  x2=0x80008924
       46175000	      4616	8000692c	ed310113	addi	x2,x2,-301	  x2:0x80008924  x2=0x800087f7
       46185000	      4617	80006930	015ab5b3	sltu	x11,x21,x21	 x21:0x395636c0 x21:0x395636c0 x11=0x00000000
       46195000	      4618	80006934	00e100a3	sb	x14,1(x2)	  x2:0x800087f7 x14:0x00000000 PA:0x800087f8
       46205000	      4619	80006938	ff512303	lw	x6,-11(x2)	  x2:0x800087f7  x6=0x0000e100 PA:0x800087ec
       46215000	      4620	8000693c	40eb5913	srai	x18,x22,0xe	 x22:0x80009f2e x18=0xfffe0002
       46225000	      4621	80006940	00821793	slli	x15,x4,0x8	  x4:0x00000000 x15=0x00000000
       46235000	      4622	80006944	00f9c333	xor	x6,x19,x15	 x19:0x00000000 x15:0x00000000  x6=0x00000000
       46245000	      4623	80006948	ff310c23	sb	x19,-8(x2)	  x2:0x800087f7 x19:0x00000000 PA:0x800087ef
       46255000	      4624	8000694c	00610b83	lb	x23,6(x2)	  x2:0x800087f7 x23=0x00000000 PA:0x800087fd
       46265000	      4625	80006950	fd910b03	lb	x22,-39(x2)	  x2:0x800087f7 x22=0x00000000 PA:0x800087d0
       46275000	      4626	80006954	00b10723	sb	x11,14(x2)	  x2:0x800087f7 x11:0x00000000 PA:0x80008805
       46285000	      4627	80006958	01f15803	lhu	x16,31(x2)	  x2:0x800087f7 x16=0x00000000 PA:0x80008816
       46295000	      4628	8000695c	7c2b8013	addi	x0,x23,1986	 x23:0x00000000
       46305000	      4629	80006960	fd710023	sb	x23,-64(x2)	  x2:0x800087f7 x23:0x00000000 PA:0x800087b7
       46315000	      4630	80006964	ff610203	lb	x4,-10(x2)	  x2:0x800087f7  x4=0xffffffe1 PA:0x800087ed
       46325000	      4631	80006968	00614203	lbu	x4,6(x2)	  x2:0x800087f7  x4=0x00000000 PA:0x800087fd
       46335000	      4632	8000696c	a7c1f693	andi	x13,x3,-1412	  x3:0x80000000 x13=0x80000000
       46345000	      4633	80006970	a1e34f97	auipc	x31,0xa1e34	 x31=0x21e3a96c
       46355000	      4634	80006974	ffd10f03	lb	x30,-3(x2)	  x2:0x800087f7 x30=0x00000000 PA:0x800087f4
       46365000	      4635	80006978	a5576b93	ori	x23,x14,-1451	 x14:0x00000000 x23=0xfffffa55
       46375000	      4636	8000697c	fc610683	lb	x13,-58(x2)	  x2:0x800087f7 x13=0x00000000 PA:0x800087bd
       46385000	      4637	80006980	ffe14483	lbu	x9,-2(x2)	  x2:0x800087f7  x9=0x00000000 PA:0x800087f5
       46395000	      4638	80006984	fed10123	sb	x13,-30(x2)	  x2:0x800087f7 x13:0x00000000 PA:0x800087d9
       46405000	      4639	80006988	417cd313	srai	x6,x25,0x17	 x25:0x00000001  x6=0x00000000
       46415000	      4640	8000698c	fd6118a3	sh	x22,-47(x2)	  x2:0x800087f7 x22:0x00000000 PA:0x800087c8
       46425000	      4641	80006990	00a933b3	sltu	x7,x18,x10	 x18:0xfffe0002 x10:0xb956a9ee  x7=0x00000000
       46435000	      4642	80006994	0105e633	or	x12,x11,x16	 x11:0x00000000 x16:0x00000000 x12=0x00000000
       46445000	      4643	80006998	fff14683	lbu	x13,-1(x2)	  x2:0x800087f7 x13=0x00000000 PA:0x800087f6
       46455000	      4644	8000699c	01710023	sb	x23,0(x2)	  x2:0x800087f7 x23:0xfffffa55 PA:0x800087f7
       46465000	      4645	800069a0	00e61833	sll	x16,x12,x14	 x12:0x00000000 x14:0x00000000 x16=0x00000000
       46475000	      4646	800069a4	012115a3	sh	x18,11(x2)	  x2:0x800087f7 x18:0xfffe0002 PA:0x80008802
       46485000	      4647	800069a8	01dbdf93	srli	x31,x23,0x1d	 x23:0xfffffa55 x31=0x00000007
       46495000	      4648	800069ac	fd414783	lbu	x15,-44(x2)	  x2:0x800087f7 x15=0x00000000 PA:0x800087cb
       46505000	      4649	800069b0	fda10423	sb	x26,-56(x2)	  x2:0x800087f7 x26:0x80009f2c PA:0x800087bf
       46515000	      4650	800069b4	fcb15f03	lhu	x30,-53(x2)	  x2:0x800087f7 x30=0x00000000 PA:0x800087c2
       46525000	      4651	800069b8	00010023	sb	x0,0(x2)	  x2:0x800087f7  x0:0x00000000 PA:0x800087f7
       46535000	      4652	800069bc	ffb15003	lhu	x0,-5(x2)	  x2:0x800087f7 PA:0x800087f2
       46545000	      4653	800069c0	fd6100a3	sb	x22,-63(x2)	  x2:0x800087f7 x22:0x00000000 PA:0x800087b8
       46555000	      4654	800069c4	fa47a793	slti	x15,x15,-92	 x15:0x00000000 x15=0x00000000
       46565000	      4655	800069c8	103d8393	addi	x7,x27,259	 x27:0x726af000  x7=0x726af103
       46575000	      4656	800069cc	02010703	lb	x14,32(x2)	  x2:0x800087f7 x14=0x00000000 PA:0x80008817
       46585000	      4657	800069d0	fc210823	sb	x2,-48(x2)	  x2:0x800087f7  x2:0x800087f7 PA:0x800087c7
       46595000	      4658	800069d4	fe110203	lb	x4,-31(x2)	  x2:0x800087f7  x4=0x00000000 PA:0x800087d8
       46605000	      4659	800069d8	00210883	lb	x17,2(x2)	  x2:0x800087f7 x17=0x00000000 PA:0x800087f9
       46615000	      4660	800069dc	00e1ca63	blt	x3,x14,800069f0	  x3:0x80000000 x14:0x00000000
       46625000	      4661	00000000	00000013	addi	x0,x0,0	  x0:0x00000000
       46635000	      4662	800069ec	00000013	addi	x0,x0,0	  x0:0x00000000
       46645000	      4663	800069f0	00ec4233	xor	x4,x24,x14	 x24:0x00000001 x14:0x00000000  x4=0x00000001
       46655000	      4664	800069f4	00447733	and	x14,x8,x4	  x8:0x00000000  x4:0x00000001 x14=0x00000000
       46665000	      4665	800069f8	011e8263	beq	x29,x17,800069fc	 x29:0x00000000 x17:0x00000000
       46675000	      4666	00000000	00000013	addi	x0,x0,0	  x0:0x00000000
       46685000	      4667	800069f8	00000013	addi	x0,x0,0	  x0:0x00000000
       46695000	      4668	800069fc	017c9c33	sll	x24,x25,x23	 x25:0x00000001 x23:0xfffffa55 x24=0x00200000
       46705000	      4669	80006a00	b964ac13	slti	x24,x9,-1130	  x9:0x00000000 x24=0x00000000
       46715000	      4670	80006a04	01a94233	xor	x4,x18,x26	 x18:0xfffe0002 x26:0x80009f2c  x4=0x7ffe9f2e
       46725000	      4671	80006a08	051cd663	bge	x25,x17,80006a54	 x25:0x00000001 x17:0x00000000
       46735000	      4672	00000000	00000013	addi	x0,x0,0	  x0:0x00000000
       46745000	      4673	80006a50	00000013	addi	x0,x0,0	  x0:0x00000000
       46755000	      4674	80006a54	02a46863	bltu	x8,x10,80006a84	  x8:0x00000000 x10:0xb956a9ee
       46765000	      4675	00000000	00000013	addi	x0,x0,0	  x0:0x00000000
       46775000	      4676	80006a80	00000013	addi	x0,x0,0	  x0:0x00000000
       46785000	      4677	80006a84	03b68c63	beq	x13,x27,80006abc	 x13:0x00000000 x27:0x726af000
       46795000	      4678	80006a88	013716b3	sll	x13,x14,x19	 x14:0x00000000 x19:0x00000000 x13=0x00000000
       46805000	      4679	80006a8c	41ff8c33	sub	x24,x31,x31	 x31:0x00000007 x31:0x00000007 x24=0x00000000
       46815000	      4680	80006a90	010f9fb3	sll	x31,x31,x16	 x31:0x00000007 x16:0x00000000 x31=0x00000007
       46825000	      4681	80006a94	017405b3	add	x11,x8,x23	  x8:0x00000000 x23:0xfffffa55 x11=0xfffffa55
       46835000	      4682	80006a98	03afe663	bltu	x31,x26,80006ac4	 x31:0x00000007 x26:0x80009f2c
       46845000	      4683	00000000	00000013	addi	x0,x0,0	  x0:0x00000000
       46855000	      4684	80006ac0	00000013	addi	x0,x0,0	  x0:0x00000000
       46865000	      4685	80006ac4	000615b3	sll	x11,x12,x0	 x12:0x00000000  x0:0x00000000 x11=0x00000000
       46875000	      4686	80006ac8	00000013	addi	x0,x0,0	  x0:0x00000000
       46885000	      4687	80006acc	01a36863	bltu	x6,x26,80006adc	  x6:0x00000000 x26:0x80009f2c
       46895000	      4688	00000000	00000013	addi	x0,x0,0	  x0:0x00000000
       46905000	      4689	80006ad8	00000013	addi	x0,x0,0	  x0:0x00000000
       46915000	      4690	80006adc	005d9633	sll	x12,x27,x5	 x27:0x726af000  x5:0x80000000 x12=0x726af000
       46925000	      4691	80006ae0	01aa0a33	add	x20,x20,x26	 x20:0x00000000 x26:0x80009f2c x20=0x80009f2c
       46935000	      4692	80006ae4	02df6a63	bltu	x30,x13,80006b18	 x30:0x00000000 x13:0x00000000
       46945000	      4693	80006ae8	1b044713	xori	x14,x8,432	  x8:0x00000000 x14=0x000001b0
       46955000	      4694	80006aec	63168c13	addi	x24,x13,1585	 x13:0x00000000 x24=0x00000631
       46965000	      4695	80006af0	b2cf7513	andi	x10,x30,-1236	 x30:0x00000000 x10=0x00000000
       46975000	      4696	80006af4	587cb413	sltiu	x8,x25,1415	 x25:0x00000001  x8=0x00000001
       46985000	      4697	80006af8	01850cb3	add	x25,x10,x24	 x10:0x00000000 x24:0x00000631 x25=0x00000631
       46995000	      4698	80006afc	37146593	ori	x11,x8,881	  x8:0x00000001 x11=0x00000371
       47005000	      4699	80006b00	40add9b3	sra	x19,x27,x10	 x27:0x726af000 x10:0x00000000 x19=0x726af000
       47015000	      4700	80006b04	012ac033	xor	x0,x21,x18	 x21:0x395636c0 x18:0xfffe0002
       47025000	      4701	80006b08	68250193	addi	x3,x10,1666	 x10:0x00000000  x3=0x00000682
       47035000	      4702	80006b0c	004c0a63	beq	x24,x4,80006b20	 x24:0x00000631  x4:0x7ffe9f2e
       47045000	      4703	80006b10	00f511b3	sll	x3,x10,x15	 x10:0x00000000 x15:0x00000000  x3=0x00000000
       47055000	      4704	80006b14	409f0633	sub	x12,x30,x9	 x30:0x00000000  x9:0x00000000 x12=0x00000000
       47065000	      4705	80006b18	40d1d9b3	sra	x19,x3,x13	  x3:0x00000000 x13:0x00000000 x19=0x00000000
       47075000	      4706	80006b1c	01471263	bne	x14,x20,80006b20	 x14:0x000001b0 x20:0x80009f2c
       47085000	      4707	00000000	00000013	addi	x0,x0,0	  x0:0x00000000
       47095000	      4708	80006b1c	00000013	addi	x0,x0,0	  x0:0x00000000
       47105000	      4709	80006b20	01716333	or	x6,x2,x23	  x2:0x800087f7 x23:0xfffffa55  x6=0xfffffff7
       47115000	      4710	80006b24	30020993	addi	x19,x4,768	  x4:0x7ffe9f2e x19=0x7ffea22e
       47125000	      4711	80006b28	2ec06e93	ori	x29,x0,748	  x0:0x00000000 x29=0x000002ec
       47135000	      4712	80006b2c	004d2083	lw	x1,4(x26)	 x26:0x80009f2c  x1=0x80006bf0 PA:0x80009f30
       47145000	      4713	80006b30	01c1c633	xor	x12,x3,x28	  x3:0x00000000 x28:0x80009fc4 x12=0x80009fc4
       47155000	      4714	80006b34	020d0d13	addi	x26,x26,32	 x26:0x80009f2c x26=0x80009f4c
       47165000	      4715	80006b38	0131ceb3	xor	x29,x3,x19	  x3:0x00000000 x19:0x7ffea22e x29=0x7ffea22e
       47175000	      4716	80006b3c	a79e7b13	andi	x22,x28,-1415	 x28:0x80009fc4 x22=0x80009a40
       47185000	      4717	80006b40	a65ee693	ori	x13,x29,-1435	 x29:0x7ffea22e x13=0xfffffa6f
       47195000	      4718	80006b44	00008093	addi	x1,x1,0	  x1:0x80006bf0  x1=0x80006bf0
       47205000	      4719	80006b48	000080e7	jalr	x1,x1,0	  x1:0x80006bf0  x1=0x80006b48
       47215000	      4720	00000000	00000013	addi	x0,x0,0	  x0:0x00000000
       47225000	      4721	80006bf0	00000013	addi	x0,x0,0	  x0:0x00000000
       47235000	      4722	80006bf4	021b1263	bne	x22,x1,80006c18	 x22:0x80009a40  x1:0x80006b48
       47245000	      4723	00000000	00000013	addi	x0,x0,0	  x0:0x00000000
       47255000	      4724	80006c14	00000013	addi	x0,x0,0	  x0:0x00000000
       47265000	      4725	80006c18	00000013	addi	x0,x0,0	  x0:0x00000000
       47275000	      4726	80006c1c	0196afb3	slt	x31,x13,x25	 x13:0xfffffa6f x25:0x00000631 x31=0x00000001
       47285000	      4727	80006c20	01b95313	srli	x6,x18,0x1b	 x18:0xfffe0002  x6=0x0000001f
       47295000	      4728	80006c24	0113d933	srl	x18,x7,x17	  x7:0x726af103 x17:0x00000000 x18=0x726af103
       47305000	      4729	80006c28	684de013	ori	x0,x27,1668	 x27:0x726af000
       47315000	      4730	80006c2c	004d2083	lw	x1,4(x26)	 x26:0x80009f4c  x1=0x80005150 PA:0x80009f50
       47325000	      4731	80006c30	00ce7a33	and	x20,x28,x12	 x28:0x80009fc4 x12:0x80009fc4 x20=0x80009fc4
       47335000	      4732	80006c34	02cd0d13	addi	x26,x26,44	 x26:0x80009f4c x26=0x80009f78
       47345000	      4733	80006c38	ad19c913	xori	x18,x19,-1327	 x19:0x7ffea22e x18=0x800158ff
       47355000	      4734	80006c3c	018d5cb3	srl	x25,x26,x24	 x26:0x80009f78 x24:0x00000631 x25=0x00004000
       47365000	      4735	80006c40	a4a7ea13	ori	x20,x15,-1462	 x15:0x00000000 x20=0xfffffa4a
       47375000	      4736	80006c44	163c7813	andi	x16,x24,355	 x24:0x00000631 x16=0x00000021
       47385000	      4737	80006c48	f44bfa37	lui	x20,0xf44bf	 x20=0xf44bf000
       47395000	      4738	80006c4c	00108393	addi	x7,x1,1	  x1:0x80005150  x7=0x80005151
       47405000	      4739	80006c50	000383e7	jalr	x7,x7,0	  x7:0x80005151  x7=0x80006c50
       47415000	      4740	00000000	00000013	addi	x0,x0,0	  x0:0x00000000
       47425000	      4741	80005150	00000013	addi	x0,x0,0	  x0:0x00000000
       47435000	      4742	80005154	00000013	addi	x0,x0,0	  x0:0x00000000
       47445000	      4743	80005158	e0e7a913	slti	x18,x15,-498	 x15:0x00000000 x18=0x00000000
       47455000	      4744	8000515c	01e90663	beq	x18,x30,80005168	 x18:0x00000000 x30:0x00000000
       47465000	      4745	00000000	00000013	addi	x0,x0,0	  x0:0x00000000
       47475000	      4746	80005164	00000013	addi	x0,x0,0	  x0:0x00000000
       47485000	      4747	80005168	20622893	slti	x17,x4,518	  x4:0x7ffe9f2e x17=0x00000000
       47495000	      4748	8000516c	00b56ab3	or	x21,x10,x11	 x10:0x00000000 x11:0x00000371 x21=0x00000371
       47505000	      4749	80005170	02ce0e63	beq	x28,x12,800051ac	 x28:0x80009fc4 x12:0x80009fc4
       47515000	      4750	00000000	00000013	addi	x0,x0,0	  x0:0x00000000
       47525000	      4751	800051a8	00000013	addi	x0,x0,0	  x0:0x00000000
       47535000	      4752	800051ac	01417833	and	x16,x2,x20	  x2:0x800087f7 x20:0xf44bf000 x16=0x80008000
       47545000	      4753	800051b0	3a599017	auipc	x0,0x3a599	
       47555000	      4754	800051b4	41a45533	sra	x10,x8,x26	  x8:0x00000001 x26:0x80009f78 x10=0x00000000
       47565000	      4755	800051b8	00678c33	add	x24,x15,x6	 x15:0x00000000  x6:0x0000001f x24=0x0000001f
       47575000	      4756	800051bc	170f0137	lui	x2,0x170f0	  x2=0x170f0000
       47585000	      4757	800051c0	0004d033	srl	x0,x9,x0	  x9:0x00000000  x0:0x00000000
       47595000	      4758	800051c4	00000013	addi	x0,x0,0	  x0:0x00000000
       47605000	      4759	800051c8	41070db3	sub	x27,x14,x16	 x14:0x000001b0 x16:0x80008000 x27=0x7fff81b0
       47615000	      4760	800051cc	4b696c17	auipc	x24,0x4b696	 x24=0xcb69b1c8
       47625000	      4761	800051d0	035b6863	bltu	x22,x21,80005200	 x22:0x80009a40 x21:0x00000371
       47635000	      4762	800051d4	00d0de93	srli	x29,x1,0xd	  x1:0x80005150 x29=0x00040002
       47645000	      4763	800051d8	0076fcb3	and	x25,x13,x7	 x13:0xfffffa6f  x7:0x80006c50 x25=0x80006840
       47655000	      4764	800051dc	02b6ca63	blt	x13,x11,80005210	 x13:0xfffffa6f x11:0x00000371
       47665000	      4765	00000000	00000013	addi	x0,x0,0	  x0:0x00000000
       47675000	      4766	8000520c	00000013	addi	x0,x0,0	  x0:0x00000000
       47685000	      4767	80005210	0153c663	blt	x7,x21,8000521c	  x7:0x80006c50 x21:0x00000371
       47695000	      4768	00000000	00000013	addi	x0,x0,0	  x0:0x00000000
       47705000	      4769	80005218	00000013	addi	x0,x0,0	  x0:0x00000000
       47715000	      4770	8000521c	40545d93	srai	x27,x8,0x5	  x8:0x00000001 x27=0x00000000
       47725000	      4771	80005220	00c94333	xor	x6,x18,x12	 x18:0x00000000 x12:0x80009fc4  x6=0x80009fc4
       47735000	      4772	80005224	01081533	sll	x10,x16,x16	 x16:0x80008000 x16:0x80008000 x10=0x80008000
       47745000	      4773	80005228	02d48063	beq	x9,x13,80005248	  x9:0x00000000 x13:0xfffffa6f
       47755000	      4774	8000522c	f9c04393	xori	x7,x0,-100	  x0:0x00000000  x7=0xffffff9c
       47765000	      4775	80005230	ffebc913	xori	x18,x23,-2	 x23:0xfffffa55 x18=0x000005ab
       47775000	      4776	80005234	258ea413	slti	x8,x29,600	 x29:0x00040002  x8=0x00000000
       47785000	      4777	80005238	40855b13	srai	x22,x10,0x8	 x10:0x80008000 x22=0xff800080
       47795000	      4778	8000523c	018fda93	srli	x21,x31,0x18	 x31:0x00000001 x21=0x00000000
       47805000	      4779	80005240	8dfd4d93	xori	x27,x26,-1825	 x26:0x80009f78 x27=0x7fff67a7
       47815000	      4780	80005244	95c2a193	slti	x3,x5,-1700	  x5:0x80000000  x3=0x00000001
       47825000	      4781	80005248	0058df13	srli	x30,x17,0x5	 x17:0x00000000 x30=0x00000000
       47835000	      4782	8000524c	01205333	srl	x6,x0,x18	  x0:0x00000000 x18:0x000005ab  x6=0x00000000
       47845000	      4783	80005250	0173cc63	blt	x7,x23,80005268	  x7:0xffffff9c x23:0xfffffa55
       47855000	      4784	80005254	41edd913	srai	x18,x27,0x1e	 x27:0x7fff67a7 x18=0x00000001
       47865000	      4785	80005258	22654313	xori	x6,x10,550	 x10:0x80008000  x6=0x80008226
       47875000	      4786	8000525c	00000013	addi	x0,x0,0	  x0:0x00000000
       47885000	      4787	80005260	011946b3	xor	x13,x18,x17	 x18:0x00000001 x17:0x00000000 x13=0x00000001
       47895000	      4788	80005264	402bd413	srai	x8,x23,0x2	 x23:0xfffffa55  x8=0xfffffe95
       47905000	      4789	80005268	01fdb3b3	sltu	x7,x27,x31	 x27:0x7fff67a7 x31:0x00000001  x7=0x00000000
       47915000	      4790	8000526c	0164d7b3	srl	x15,x9,x22	  x9:0x00000000 x22:0xff800080 x15=0x00000000
       47925000	      4791	80005270	40205993	srai	x19,x0,0x2	  x0:0x00000000 x19=0x00000000
       47935000	      4792	80005274	01ae1133	sll	x2,x28,x26	 x28:0x80009fc4 x26:0x80009f78  x2=0xc4000000
       47945000	      4793	80005278	254c2b93	slti	x23,x24,596	 x24:0xcb69b1c8 x23=0x00000001
       47955000	      4794	8000527c	01c54133	xor	x2,x10,x28	 x10:0x80008000 x28:0x80009fc4  x2=0x00001fc4
       47965000	      4795	80005280	64c00a17	auipc	x20,0x64c00	 x20=0xe4c0527c
       47975000	      4796	80005284	03071c63	bne	x14,x16,800052bc	 x14:0x000001b0 x16:0x80008000
       47985000	      4797	00000000	00000013	addi	x0,x0,0	  x0:0x00000000
       47995000	      4798	800052b8	00000013	addi	x0,x0,0	  x0:0x00000000
       48005000	      4799	800052bc	5cb23913	sltiu	x18,x4,1483	  x4:0x7ffe9f2e x18=0x00000000
       48015000	      4800	800052c0	22292813	slti	x16,x18,546	 x18:0x00000000 x16=0x00000001
       48025000	      4801	800052c4	41a05ab3	sra	x21,x0,x26	  x0:0x00000000 x26:0x80009f78 x21=0x00000000
       48035000	      4802	800052c8	708ae213	ori	x4,x21,1800	 x21:0x00000000  x4=0x00000708
       48045000	      4803	800052cc	cfb2ef37	lui	x30,0xcfb2e	 x30=0xcfb2e000
       48055000	      4804	800052d0	e04ae413	ori	x8,x21,-508	 x21:0x00000000  x8=0xfffffe04
       48065000	      4805	800052d4	01cc00b3	add	x1,x24,x28	 x24:0xcb69b1c8 x28:0x80009fc4  x1=0x4b6a518c
       48075000	      4806	800052d8	d4d13593	sltiu	x11,x2,-691	  x2:0x00001fc4 x11=0x00000001
       48085000	      4807	800052dc	00708fb3	add	x31,x1,x7	  x1:0x4b6a518c  x7:0x00000000 x31=0x4b6a518c
       48095000	      4808	800052e0	019b1f13	slli	x30,x22,0x19	 x22:0xff800080 x30=0x00000000
       48105000	      4809	800052e4	01275733	srl	x14,x14,x18	 x14:0x000001b0 x18:0x00000000 x14=0x000001b0
       48115000	      4810	800052e8	00895693	srli	x13,x18,0x8	 x18:0x00000000 x13=0x00000000
       48125000	      4811	800052ec	01f263b3	or	x7,x4,x31	  x4:0x00000708 x31:0x4b6a518c  x7=0x4b6a578c
       48135000	      4812	800052f0	22dfcc93	xori	x25,x31,557	 x31:0x4b6a518c x25=0x4b6a53a1
       48145000	      4813	800052f4	748b4b13	xori	x22,x22,1864	 x22:0xff800080 x22=0xff8007c8
       48155000	      4814	800052f8	016d85b3	add	x11,x27,x22	 x27:0x7fff67a7 x22:0xff8007c8 x11=0x7f7f6f6f
       48165000	      4815	800052fc	012d1933	sll	x18,x26,x18	 x26:0x80009f78 x18:0x00000000 x18=0x80009f78
       48175000	      4816	80005300	02981863	bne	x16,x9,80005330	 x16:0x00000001  x9:0x00000000
       48185000	      4817	00000000	00000013	addi	x0,x0,0	  x0:0x00000000
       48195000	      4818	8000532c	00000013	addi	x0,x0,0	  x0:0x00000000
       48205000	      4819	80005330	0219cc63	blt	x19,x1,80005368	 x19:0x00000000  x1:0x4b6a518c
       48215000	      4820	00000000	00000013	addi	x0,x0,0	  x0:0x00000000
       48225000	      4821	80005364	00000013	addi	x0,x0,0	  x0:0x00000000
       48235000	      4822	80005368	01511b93	slli	x23,x2,0x15	  x2:0x00001fc4 x23=0xf8800000
       48245000	      4823	8000536c	01455833	srl	x16,x10,x20	 x10:0x80008000 x20:0xe4c0527c x16=0x00000008
       48255000	      4824	80005370	d1ee0a13	addi	x20,x28,-738	 x28:0x80009fc4 x20=0x80009ce2
       48265000	      4825	80005374	02cf4663	blt	x30,x12,800053a0	 x30:0x00000000 x12:0x80009fc4
       48275000	      4826	80005378	037efe63	bgeu	x29,x23,800053b4	 x29:0x00040002 x23:0xf8800000
       48285000	      4827	8000537c	013f7833	and	x16,x30,x19	 x30:0x00000000 x19:0x00000000 x16=0x00000000
       48295000	      4828	80005380	41f4df33	sra	x30,x9,x31	  x9:0x00000000 x31:0x4b6a518c x30=0x00000000
       48305000	      4829	80005384	01411e63	bne	x2,x20,800053a0	  x2:0x00001fc4 x20:0x80009ce2
       48315000	      4830	00000000	00000013	addi	x0,x0,0	  x0:0x00000000
       48325000	      4831	8000539c	00000013	addi	x0,x0,0	  x0:0x00000000
       48335000	      4832	800053a0	9a047d93	andi	x27,x8,-1632	  x8:0xfffffe04 x27=0xfffff800
       48345000	      4833	800053a4	00296933	or	x18,x18,x2	 x18:0x80009f78  x2:0x00001fc4 x18=0x80009ffc
       48355000	      4834	800053a8	260b4993	xori	x19,x22,608	 x22:0xff8007c8 x19=0xff8005a8
       48365000	      4835	800053ac	0018f733	and	x14,x17,x1	 x17:0x00000000  x1:0x4b6a518c x14=0x00000000
       48375000	      4836	800053b0	40218733	sub	x14,x3,x2	  x3:0x00000001  x2:0x00001fc4 x14=0xffffe03d
       48385000	      4837	800053b4	01e860b3	or	x1,x16,x30	 x16:0x00000000 x30:0x00000000  x1=0x00000000
       48395000	      4838	800053b8	0032e433	or	x8,x5,x3	  x5:0x80000000  x3:0x00000001  x8=0x80000001
       48405000	      4839	800053bc	03c75463	bge	x14,x28,800053e4	 x14:0xffffe03d x28:0x80009fc4
       48415000	      4840	00000000	00000013	addi	x0,x0,0	  x0:0x00000000
       48425000	      4841	800053e0	00000013	addi	x0,x0,0	  x0:0x00000000
       48435000	      4842	800053e4	00000013	addi	x0,x0,0	  x0:0x00000000
       48445000	      4843	800053e8	003277b3	and	x15,x4,x3	  x4:0x00000708  x3:0x00000001 x15=0x00000000
       48455000	      4844	800053ec	41475233	sra	x4,x14,x20	 x14:0xffffe03d x20:0x80009ce2  x4=0xfffff80f
       48465000	      4845	800053f0	18ff6613	ori	x12,x30,399	 x30:0x00000000 x12=0x0000018f
       48475000	      4846	800053f4	004d2083	lw	x1,4(x26)	 x26:0x80009f78  x1=0x80000140 PA:0x80009f7c
       48485000	      4847	800053f8	01079bb3	sll	x23,x15,x16	 x15:0x00000000 x16:0x00000000 x23=0x00000000
       48495000	      4848	800053fc	be821a17	auipc	x20,0xbe821	 x20=0x3e8263f8
       48505000	      4849	80005400	00152eb3	slt	x29,x10,x1	 x10:0x80008000  x1:0x80000140 x29=0x00000000
       48515000	      4850	80005404	00cd0d13	addi	x26,x26,12	 x26:0x80009f78 x26=0x80009f84
       48525000	      4851	80005408	4026d133	sra	x2,x13,x2	 x13:0x00000000  x2:0x00001fc4  x2=0x00000000
       48535000	      4852	8000540c	80bcbf93	sltiu	x31,x25,-2037	 x25:0x4b6a53a1 x31=0x00000001
       48545000	      4853	80005410	0b44ad93	slti	x27,x9,180	  x9:0x00000000 x27=0x00000001
       48555000	      4854	80005414	00108893	addi	x17,x1,1	  x1:0x80000140 x17=0x80000141
       48565000	      4855	80005418	000888e7	jalr	x17,x17,0	 x17:0x80000141 x17=0x80005418
       48575000	      4856	00000000	00000013	addi	x0,x0,0	  x0:0x00000000
       48585000	      4857	80000140	00000013	addi	x0,x0,0	  x0:0x00000000
       48595000	      4858	80000144	00008117	auipc	x2,0x8	  x2=0x80008140
       48605000	      4859	80000148	13010113	addi	x2,x2,304	  x2:0x80008140  x2=0x80008270
       48615000	      4860	8000014c	e5412603	lw	x12,-428(x2)	  x2:0x80008270 x12=0x00000000 PA:0x800080c4
       48625000	      4861	80000150	e7710003	lb	x0,-393(x2)	  x2:0x80008270 PA:0x800080e7
       48635000	      4862	80000154	4a514b03	lbu	x22,1189(x2)	  x2:0x80008270 x22=0x00000000 PA:0x80008715
       48645000	      4863	80000158	46b10403	lb	x8,1131(x2)	  x2:0x80008270  x8=0x00000000 PA:0x800086db
       48655000	      4864	8000015c	01704833	xor	x16,x0,x23	  x0:0x00000000 x23:0x00000000 x16=0x00000000
       48665000	      4865	80000160	17910e23	sb	x25,380(x2)	  x2:0x80008270 x25:0x4b6a53a1 PA:0x800083ec
       48675000	      4866	80000164	2b3109a3	sb	x19,691(x2)	  x2:0x80008270 x19:0xff8005a8 PA:0x80008523
       48685000	      4867	80000168	00d0a633	slt	x12,x1,x13	  x1:0x80000140 x13:0x00000000 x12=0x00000001
       48695000	      4868	8000016c	40375f93	srai	x31,x14,0x3	 x14:0xffffe03d x31=0xfffffc07
       48705000	      4869	80000170	2aa11003	lh	x0,682(x2)	  x2:0x80008270 PA:0x8000851a
       48715000	      4870	80000174	00411e83	lh	x29,4(x2)	  x2:0x80008270 x29=0x00000000 PA:0x80008274
       48725000	      4871	80000178	d5916c13	ori	x24,x2,-679	  x2:0x80008270 x24=0xffffff79
       48735000	      4872	8000017c	734f7313	andi	x6,x30,1844	 x30:0x00000000  x6=0x00000000
       48745000	      4873	80000180	f4114783	lbu	x15,-191(x2)	  x2:0x80008270 x15=0x00000000 PA:0x800081b1
       48755000	      4874	80000184	4189dc13	srai	x24,x19,0x18	 x19:0xff8005a8 x24=0xffffffff
       48765000	      4875	80000188	3cd10a83	lb	x21,973(x2)	  x2:0x80008270 x21=0x00000000 PA:0x8000863d
       48775000	      4876	8000018c	2dc11783	lh	x15,732(x2)	  x2:0x80008270 x15=0x00000000 PA:0x8000854c
       48785000	      4877	80000190	007a0633	add	x12,x20,x7	 x20:0x3e8263f8  x7:0x4b6a578c x12=0x89ecbb84
       48795000	      4878	80000194	3cb10623	sb	x11,972(x2)	  x2:0x80008270 x11:0x7f7f6f6f PA:0x8000863c
       48805000	      4879	80000198	37310383	lb	x7,883(x2)	  x2:0x80008270  x7=0x00000000 PA:0x800085e3
       48815000	      4880	8000019c	05d11123	sh	x29,66(x2)	  x2:0x80008270 x29:0x00000000 PA:0x800082b2
       48825000	      4881	800001a0	30e6a013	slti	x0,x13,782	 x13:0x00000000
       48835000	      4882	800001a4	47c0c313	xori	x6,x1,1148	  x1:0x80000140  x6=0x8000053c
       48845000	      4883	800001a8	f1212a23	sw	x18,-236(x2)	  x2:0x80008270 x18:0x80009ffc PA:0x80008184
       48855000	      4884	800001ac	f4610aa3	sb	x6,-171(x2)	  x2:0x80008270  x6:0x8000053c PA:0x800081c5
       48865000	      4885	800001b0	04012983	lw	x19,64(x2)	  x2:0x80008270 x19=0x00000000 PA:0x800082b0
       48875000	      4886	800001b4	0105feb3	and	x29,x11,x16	 x11:0x7f7f6f6f x16:0x00000000 x29=0x00000000
       48885000	      4887	800001b8	0ce10ea3	sb	x14,221(x2)	  x2:0x80008270 x14:0xffffe03d PA:0x8000834d
       48895000	      4888	800001bc	e8811f03	lh	x30,-376(x2)	  x2:0x80008270 x30=0x00000000 PA:0x800080f8
       48905000	      4889	800001c0	26e105a3	sb	x14,619(x2)	  x2:0x80008270 x14:0xffffe03d PA:0x800084db
       48915000	      4890	800001c4	9f023c13	sltiu	x24,x4,-1552	  x4:0xfffff80f x24=0x00000001
       48925000	      4891	800001c8	00246f33	or	x30,x8,x2	  x8:0x00000000  x2:0x80008270 x30=0x80008270
       48935000	      4892	800001cc	47110b83	lb	x23,1137(x2)	  x2:0x80008270 x23=0x00000000 PA:0x800086e1
       48945000	      4893	800001d0	64a4c593	xori	x11,x9,1610	  x9:0x00000000 x11=0x0000064a
       48955000	      4894	800001d4	43a11903	lh	x18,1082(x2)	  x2:0x80008270 x18=0x00000000 PA:0x800086aa
       48965000	      4895	800001d8	0b514983	lbu	x19,181(x2)	  x2:0x80008270 x19=0x00000000 PA:0x80008325
       48975000	      4896	800001dc	26514483	lbu	x9,613(x2)	  x2:0x80008270  x9=0x00000000 PA:0x800084d5
       48985000	      4897	800001e0	ff380837	lui	x16,0xff380	 x16=0xff380000
       48995000	      4898	800001e4	24d106a3	sb	x13,589(x2)	  x2:0x80008270 x13:0x00000000 PA:0x800084bd
       49005000	      4899	800001e8	41e85533	sra	x10,x16,x30	 x16:0xff380000 x30:0x80008270 x10=0xffffff38
       49015000	      4900	800001ec	01303bb3	sltu	x23,x0,x19	  x0:0x00000000 x19:0x00000000 x23=0x00000000
       49025000	      4901	800001f0	0b1cf993	andi	x19,x25,177	 x25:0x4b6a53a1 x19=0x000000a1
       49035000	      4902	800001f4	5b416193	ori	x3,x2,1460	  x2:0x80008270  x3=0x800087f4
       49045000	      4903	800001f8	00f22fb3	slt	x31,x4,x15	  x4:0xfffff80f x15:0x00000000 x31=0x00000001
       49055000	      4904	800001fc	008fa333	slt	x6,x31,x8	 x31:0x00000001  x8:0x00000000  x6=0x00000000
       49065000	      4905	80000200	0064abb3	slt	x23,x9,x6	  x9:0x00000000  x6:0x00000000 x23=0x00000000
       49075000	      4906	80000204	02706a63	bltu	x0,x7,80000238	  x0:0x00000000  x7:0x00000000
       49085000	      4907	80000208	004ebab3	sltu	x21,x29,x4	 x29:0x00000000  x4:0xfffff80f x21=0x00000001
       49095000	      4908	8000020c	12440a13	addi	x20,x8,292	  x8:0x00000000 x20=0x00000124
       49105000	      4909	80000210	006ccdb3	xor	x27,x25,x6	 x25:0x4b6a53a1  x6:0x00000000 x27=0x4b6a53a1
       49115000	      4910	80000214	01951733	sll	x14,x10,x25	 x10:0xffffff38 x25:0x4b6a53a1 x14=0xfffffe70
       49125000	      4911	80000218	019d9193	slli	x3,x27,0x19	 x27:0x4b6a53a1  x3=0x42000000
       49135000	      4912	8000021c	01b6ebb3	or	x23,x13,x27	 x13:0x00000000 x27:0x4b6a53a1 x23=0x4b6a53a1
       49145000	      4913	80000220	215a0393	addi	x7,x20,533	 x20:0x00000124  x7=0x00000339
       49155000	      4914	80000224	e27cf613	andi	x12,x25,-473	 x25:0x4b6a53a1 x12=0x4b6a5221
       49165000	      4915	80000228	f770b813	sltiu	x16,x1,-137	  x1:0x80000140 x16=0x00000001
       49175000	      4916	8000022c	00c42733	slt	x14,x8,x12	  x8:0x00000000 x12:0x4b6a5221 x14=0x00000001
       49185000	      4917	80000230	019014b3	sll	x9,x0,x25	  x0:0x00000000 x25:0x4b6a53a1  x9=0x00000000
       49195000	      4918	80000234	01a284b3	add	x9,x5,x26	  x5:0x80000000 x26:0x80009f84  x9=0x00009f84
       49205000	      4919	80000238	50b33313	sltiu	x6,x6,1291	  x6:0x00000000  x6=0x00000001
       49215000	      4920	8000023c	00000013	addi	x0,x0,0	  x0:0x00000000
       49225000	      4921	80000240	0095efb3	or	x31,x11,x9	 x11:0x0000064a  x9:0x00009f84 x31=0x00009fce
       49235000	      4922	80000244	01c786b3	add	x13,x15,x28	 x15:0x00000000 x28:0x80009fc4 x13=0x80009fc4
       49245000	      4923	80000248	072a1c63	bne	x20,x18,800002c0	 x20:0x00000124 x18:0x00000000
       49255000	      4924	00000000	00000013	addi	x0,x0,0	  x0:0x00000000
       49265000	      4925	800002bc	00000013	addi	x0,x0,0	  x0:0x00000000
       49275000	      4926	800002c0	02fbdc63	bge	x23,x15,800002f8	 x23:0x4b6a53a1 x15:0x00000000
       49285000	      4927	00000000	00000013	addi	x0,x0,0	  x0:0x00000000
       49295000	      4928	800002f4	00000013	addi	x0,x0,0	  x0:0x00000000
       49305000	      4929	800002f8	59c02393	slti	x7,x0,1436	  x0:0x00000000  x7=0x00000001
       49315000	      4930	800002fc	03e66663	bltu	x12,x30,80000328	 x12:0x4b6a5221 x30:0x80008270
       49325000	      4931	00000000	00000013	addi	x0,x0,0	  x0:0x00000000
       49335000	      4932	80000324	00000013	addi	x0,x0,0	  x0:0x00000000
       49345000	      4933	80000328	40545f93	srai	x31,x8,0x5	  x8:0x00000000 x31=0x00000000
       49355000	      4934	8000032c	00000297	auipc	x5,0x0	  x5=0x80000328
       49365000	      4935	80000330	00c28293	addi	x5,x5,12	  x5:0x80000328  x5=0x80000334
       49375000	      4936	80000334	00028067	jalr	x0,x5,0	  x5:0x80000334
       49385000	      4937	00000000	00000013	addi	x0,x0,0	  x0:0x00000000
       49395000	      4938	80000334	00000013	addi	x0,x0,0	  x0:0x00000000
       49405000	      4939	80000338	00100193	addi	x3,x0,1	  x0:0x00000000  x3=0x00000001
       49415000	      4940	8000033c	00000073	ecall	
       49425000	      4941	80000340	010c8463	beq	x25,x16,80000348	 x25:0x4b6a53a1 x16:0x00000001
